Archive member included to satisfy reference by file (symbol)

external/rtt/librtt_nrf52840_xxAA.a(SEGGER_RTT.c.obj)
                              examples/pb_remote/server/CMakeFiles/pb_remote_server_nrf52840_xxAA_s140_6.0.0.dir/__/__/__/mesh/core/src/log.c.obj (SEGGER_RTT_Write)
external/rtt/librtt_nrf52840_xxAA.a(SEGGER_RTT_printf.c.obj)
                              examples/pb_remote/server/CMakeFiles/pb_remote_server_nrf52840_xxAA_s140_6.0.0.dir/__/__/__/mesh/core/src/log.c.obj (SEGGER_RTT_vprintf)
external/micro-ecc/libuECC_nrf52840_xxAA.a(uECC.c.obj)
                              examples/pb_remote/server/CMakeFiles/pb_remote_server_nrf52840_xxAA_s140_6.0.0.dir/__/__/__/mesh/prov/src/prov_utils.c.obj (uECC_secp256r1)
c:/arm_gcc/bin/../lib/gcc/arm-none-eabi/6.3.1/thumb/v7e-m/fpv4-sp/hard\libgcc.a(_aeabi_uldivmod.o)
                              examples/pb_remote/server/CMakeFiles/pb_remote_server_nrf52840_xxAA_s140_6.0.0.dir/__/__/common/src/simple_hal.c.obj (__aeabi_uldivmod)
c:/arm_gcc/bin/../lib/gcc/arm-none-eabi/6.3.1/thumb/v7e-m/fpv4-sp/hard\libgcc.a(_udivmoddi4.o)
                              c:/arm_gcc/bin/../lib/gcc/arm-none-eabi/6.3.1/thumb/v7e-m/fpv4-sp/hard\libgcc.a(_aeabi_uldivmod.o) (__udivmoddi4)
c:/arm_gcc/bin/../lib/gcc/arm-none-eabi/6.3.1/thumb/v7e-m/fpv4-sp/hard\libgcc.a(_dvmd_tls.o)
                              c:/arm_gcc/bin/../lib/gcc/arm-none-eabi/6.3.1/thumb/v7e-m/fpv4-sp/hard\libgcc.a(_aeabi_uldivmod.o) (__aeabi_ldiv0)
c:/arm_gcc/bin/../lib/gcc/arm-none-eabi/6.3.1/../../../../arm-none-eabi/lib/thumb/v7e-m/fpv4-sp/hard\libg_nano.a(lib_a-exit.o)
                              c:/arm_gcc/bin/../lib/gcc/arm-none-eabi/6.3.1/../../../../arm-none-eabi/lib/thumb/v7e-m/fpv4-sp/hard/crt0.o (exit)
c:/arm_gcc/bin/../lib/gcc/arm-none-eabi/6.3.1/../../../../arm-none-eabi/lib/thumb/v7e-m/fpv4-sp/hard\libg_nano.a(lib_a-impure.o)
                              c:/arm_gcc/bin/../lib/gcc/arm-none-eabi/6.3.1/../../../../arm-none-eabi/lib/thumb/v7e-m/fpv4-sp/hard\libg_nano.a(lib_a-exit.o) (_global_impure_ptr)
c:/arm_gcc/bin/../lib/gcc/arm-none-eabi/6.3.1/../../../../arm-none-eabi/lib/thumb/v7e-m/fpv4-sp/hard\libg_nano.a(lib_a-init.o)
                              c:/arm_gcc/bin/../lib/gcc/arm-none-eabi/6.3.1/../../../../arm-none-eabi/lib/thumb/v7e-m/fpv4-sp/hard/crt0.o (__libc_init_array)
c:/arm_gcc/bin/../lib/gcc/arm-none-eabi/6.3.1/../../../../arm-none-eabi/lib/thumb/v7e-m/fpv4-sp/hard\libg_nano.a(lib_a-malloc.o)
                              examples/pb_remote/server/CMakeFiles/pb_remote_server_nrf52840_xxAA_s140_6.0.0.dir/__/__/__/mesh/core/src/transport.c.obj (malloc)
c:/arm_gcc/bin/../lib/gcc/arm-none-eabi/6.3.1/../../../../arm-none-eabi/lib/thumb/v7e-m/fpv4-sp/hard\libg_nano.a(lib_a-memcmp.o)
                              examples/pb_remote/server/CMakeFiles/pb_remote_server_nrf52840_xxAA_s140_6.0.0.dir/__/__/__/mesh/core/src/cache.c.obj (memcmp)
c:/arm_gcc/bin/../lib/gcc/arm-none-eabi/6.3.1/../../../../arm-none-eabi/lib/thumb/v7e-m/fpv4-sp/hard\libg_nano.a(lib_a-memcpy-stub.o)
                              examples/pb_remote/server/CMakeFiles/pb_remote_server_nrf52840_xxAA_s140_6.0.0.dir/__/__/__/mesh/core/src/nrf_mesh_configure.c.obj (memcpy)
c:/arm_gcc/bin/../lib/gcc/arm-none-eabi/6.3.1/../../../../arm-none-eabi/lib/thumb/v7e-m/fpv4-sp/hard\libg_nano.a(lib_a-memset.o)
                              c:/arm_gcc/bin/../lib/gcc/arm-none-eabi/6.3.1/../../../../arm-none-eabi/lib/thumb/v7e-m/fpv4-sp/hard/crt0.o (memset)
c:/arm_gcc/bin/../lib/gcc/arm-none-eabi/6.3.1/../../../../arm-none-eabi/lib/thumb/v7e-m/fpv4-sp/hard\libg_nano.a(lib_a-nano-freer.o)
                              c:/arm_gcc/bin/../lib/gcc/arm-none-eabi/6.3.1/../../../../arm-none-eabi/lib/thumb/v7e-m/fpv4-sp/hard\libg_nano.a(lib_a-malloc.o) (_free_r)
c:/arm_gcc/bin/../lib/gcc/arm-none-eabi/6.3.1/../../../../arm-none-eabi/lib/thumb/v7e-m/fpv4-sp/hard\libg_nano.a(lib_a-nano-mallocr.o)
                              c:/arm_gcc/bin/../lib/gcc/arm-none-eabi/6.3.1/../../../../arm-none-eabi/lib/thumb/v7e-m/fpv4-sp/hard\libg_nano.a(lib_a-malloc.o) (_malloc_r)
c:/arm_gcc/bin/../lib/gcc/arm-none-eabi/6.3.1/../../../../arm-none-eabi/lib/thumb/v7e-m/fpv4-sp/hard\libg_nano.a(lib_a-sbrkr.o)
                              c:/arm_gcc/bin/../lib/gcc/arm-none-eabi/6.3.1/../../../../arm-none-eabi/lib/thumb/v7e-m/fpv4-sp/hard\libg_nano.a(lib_a-nano-mallocr.o) (_sbrk_r)
c:/arm_gcc/bin/../lib/gcc/arm-none-eabi/6.3.1/../../../../arm-none-eabi/lib/thumb/v7e-m/fpv4-sp/hard\libg_nano.a(lib_a-strcpy.o)
                              external/rtt/librtt_nrf52840_xxAA.a(SEGGER_RTT.c.obj) (strcpy)
c:/arm_gcc/bin/../lib/gcc/arm-none-eabi/6.3.1/../../../../arm-none-eabi/lib/thumb/v7e-m/fpv4-sp/hard\libg_nano.a(lib_a-strlen.o)
                              examples/pb_remote/server/CMakeFiles/pb_remote_server_nrf52840_xxAA_s140_6.0.0.dir/__/__/__/mesh/prov/src/prov_beacon.c.obj (strlen)
c:/arm_gcc/bin/../lib/gcc/arm-none-eabi/6.3.1/../../../../arm-none-eabi/lib/thumb/v7e-m/fpv4-sp/hard\libg_nano.a(lib_a-strrchr.o)
                              examples/pb_remote/server/CMakeFiles/pb_remote_server_nrf52840_xxAA_s140_6.0.0.dir/src/main.c.obj (strrchr)
c:/arm_gcc/bin/../lib/gcc/arm-none-eabi/6.3.1/../../../../arm-none-eabi/lib/thumb/v7e-m/fpv4-sp/hard\libg_nano.a(lib_a-mlock.o)
                              c:/arm_gcc/bin/../lib/gcc/arm-none-eabi/6.3.1/../../../../arm-none-eabi/lib/thumb/v7e-m/fpv4-sp/hard\libg_nano.a(lib_a-nano-freer.o) (__malloc_lock)
c:/arm_gcc/bin/../lib/gcc/arm-none-eabi/6.3.1/../../../../arm-none-eabi/lib/thumb/v7e-m/fpv4-sp/hard\libg_nano.a(lib_a-reent.o)
                              c:/arm_gcc/bin/../lib/gcc/arm-none-eabi/6.3.1/../../../../arm-none-eabi/lib/thumb/v7e-m/fpv4-sp/hard\libg_nano.a(lib_a-sbrkr.o) (errno)
c:/arm_gcc/bin/../lib/gcc/arm-none-eabi/6.3.1/../../../../arm-none-eabi/lib/thumb/v7e-m/fpv4-sp/hard\libg_nano.a(lib_a-strchr.o)
                              c:/arm_gcc/bin/../lib/gcc/arm-none-eabi/6.3.1/../../../../arm-none-eabi/lib/thumb/v7e-m/fpv4-sp/hard\libg_nano.a(lib_a-strrchr.o) (strchr)
c:/arm_gcc/bin/../lib/gcc/arm-none-eabi/6.3.1/../../../../arm-none-eabi/lib/thumb/v7e-m/fpv4-sp/hard\libnosys.a(sbrk.o)
                              c:/arm_gcc/bin/../lib/gcc/arm-none-eabi/6.3.1/../../../../arm-none-eabi/lib/thumb/v7e-m/fpv4-sp/hard\libg_nano.a(lib_a-sbrkr.o) (_sbrk)
c:/arm_gcc/bin/../lib/gcc/arm-none-eabi/6.3.1/../../../../arm-none-eabi/lib/thumb/v7e-m/fpv4-sp/hard\libnosys.a(_exit.o)
                              c:/arm_gcc/bin/../lib/gcc/arm-none-eabi/6.3.1/../../../../arm-none-eabi/lib/thumb/v7e-m/fpv4-sp/hard\libg_nano.a(lib_a-exit.o) (_exit)

Allocating common symbols
Common symbol       size              file

nrf_nvic_state      0xc               examples/pb_remote/server/CMakeFiles/pb_remote_server_nrf52840_xxAA_s140_6.0.0.dir/C_/sdks/nRF5_SDK_15.0.0_a53641a/components/libraries/util/app_util_platform.c.obj
m_packet            0x24              examples/pb_remote/server/CMakeFiles/pb_remote_server_nrf52840_xxAA_s140_6.0.0.dir/__/__/__/mesh/core/src/core_tx.c.obj
errno               0x4               c:/arm_gcc/bin/../lib/gcc/arm-none-eabi/6.3.1/../../../../arm-none-eabi/lib/thumb/v7e-m/fpv4-sp/hard\libg_nano.a(lib_a-reent.o)
_SEGGER_RTT         0x78              external/rtt/librtt_nrf52840_xxAA.a(SEGGER_RTT.c.obj)

Discarded input sections

 .text          0x00000000        0x0 c:/arm_gcc/bin/../lib/gcc/arm-none-eabi/6.3.1/thumb/v7e-m/fpv4-sp/hard/crti.o
 .data          0x00000000        0x0 c:/arm_gcc/bin/../lib/gcc/arm-none-eabi/6.3.1/thumb/v7e-m/fpv4-sp/hard/crti.o
 .bss           0x00000000        0x0 c:/arm_gcc/bin/../lib/gcc/arm-none-eabi/6.3.1/thumb/v7e-m/fpv4-sp/hard/crti.o
 .data          0x00000000        0x4 c:/arm_gcc/bin/../lib/gcc/arm-none-eabi/6.3.1/thumb/v7e-m/fpv4-sp/hard/crtbegin.o
 .data          0x00000000        0x0 c:/arm_gcc/bin/../lib/gcc/arm-none-eabi/6.3.1/../../../../arm-none-eabi/lib/thumb/v7e-m/fpv4-sp/hard/crt0.o
 .bss           0x00000000        0x0 c:/arm_gcc/bin/../lib/gcc/arm-none-eabi/6.3.1/../../../../arm-none-eabi/lib/thumb/v7e-m/fpv4-sp/hard/crt0.o
 .ARM.extab     0x00000000        0x0 c:/arm_gcc/bin/../lib/gcc/arm-none-eabi/6.3.1/../../../../arm-none-eabi/lib/thumb/v7e-m/fpv4-sp/hard/crt0.o
 .text          0x00000000        0x0 examples/pb_remote/server/CMakeFiles/pb_remote_server_nrf52840_xxAA_s140_6.0.0.dir/src/main.c.obj
 .data          0x00000000        0x0 examples/pb_remote/server/CMakeFiles/pb_remote_server_nrf52840_xxAA_s140_6.0.0.dir/src/main.c.obj
 .bss           0x00000000        0x0 examples/pb_remote/server/CMakeFiles/pb_remote_server_nrf52840_xxAA_s140_6.0.0.dir/src/main.c.obj
 .text          0x00000000        0x0 examples/pb_remote/server/CMakeFiles/pb_remote_server_nrf52840_xxAA_s140_6.0.0.dir/__/__/__/mesh/stack/src/mesh_stack.c.obj
 .data          0x00000000        0x0 examples/pb_remote/server/CMakeFiles/pb_remote_server_nrf52840_xxAA_s140_6.0.0.dir/__/__/__/mesh/stack/src/mesh_stack.c.obj
 .bss           0x00000000        0x0 examples/pb_remote/server/CMakeFiles/pb_remote_server_nrf52840_xxAA_s140_6.0.0.dir/__/__/__/mesh/stack/src/mesh_stack.c.obj
 .text.mesh_evt_handler
                0x00000000        0xe examples/pb_remote/server/CMakeFiles/pb_remote_server_nrf52840_xxAA_s140_6.0.0.dir/__/__/__/mesh/stack/src/mesh_stack.c.obj
 .text.mesh_stack_device_reset
                0x00000000       0x20 examples/pb_remote/server/CMakeFiles/pb_remote_server_nrf52840_xxAA_s140_6.0.0.dir/__/__/__/mesh/stack/src/mesh_stack.c.obj
 .text.mesh_stack_persistence_flash_usage
                0x00000000       0x36 examples/pb_remote/server/CMakeFiles/pb_remote_server_nrf52840_xxAA_s140_6.0.0.dir/__/__/__/mesh/stack/src/mesh_stack.c.obj
 .data.s_evt_handler.12015
                0x00000000        0xc examples/pb_remote/server/CMakeFiles/pb_remote_server_nrf52840_xxAA_s140_6.0.0.dir/__/__/__/mesh/stack/src/mesh_stack.c.obj
 .text          0x00000000        0x0 examples/pb_remote/server/CMakeFiles/pb_remote_server_nrf52840_xxAA_s140_6.0.0.dir/__/__/common/src/mesh_softdevice_init.c.obj
 .data          0x00000000        0x0 examples/pb_remote/server/CMakeFiles/pb_remote_server_nrf52840_xxAA_s140_6.0.0.dir/__/__/common/src/mesh_softdevice_init.c.obj
 .bss           0x00000000        0x0 examples/pb_remote/server/CMakeFiles/pb_remote_server_nrf52840_xxAA_s140_6.0.0.dir/__/__/common/src/mesh_softdevice_init.c.obj
 .text          0x00000000        0x0 examples/pb_remote/server/CMakeFiles/pb_remote_server_nrf52840_xxAA_s140_6.0.0.dir/__/__/common/src/mesh_provisionee.c.obj
 .data          0x00000000        0x0 examples/pb_remote/server/CMakeFiles/pb_remote_server_nrf52840_xxAA_s140_6.0.0.dir/__/__/common/src/mesh_provisionee.c.obj
 .bss           0x00000000        0x0 examples/pb_remote/server/CMakeFiles/pb_remote_server_nrf52840_xxAA_s140_6.0.0.dir/__/__/common/src/mesh_provisionee.c.obj
 .text.mesh_provisionee_prov_listen_stop
                0x00000000        0xc examples/pb_remote/server/CMakeFiles/pb_remote_server_nrf52840_xxAA_s140_6.0.0.dir/__/__/common/src/mesh_provisionee.c.obj
 .text          0x00000000        0x0 examples/pb_remote/server/CMakeFiles/pb_remote_server_nrf52840_xxAA_s140_6.0.0.dir/__/__/common/src/simple_hal.c.obj
 .data          0x00000000        0x0 examples/pb_remote/server/CMakeFiles/pb_remote_server_nrf52840_xxAA_s140_6.0.0.dir/__/__/common/src/simple_hal.c.obj
 .bss           0x00000000        0x0 examples/pb_remote/server/CMakeFiles/pb_remote_server_nrf52840_xxAA_s140_6.0.0.dir/__/__/common/src/simple_hal.c.obj
 .text.hal_led_pin_get
                0x00000000       0x18 examples/pb_remote/server/CMakeFiles/pb_remote_server_nrf52840_xxAA_s140_6.0.0.dir/__/__/common/src/simple_hal.c.obj
 .text.hal_led_pin_set
                0x00000000       0x16 examples/pb_remote/server/CMakeFiles/pb_remote_server_nrf52840_xxAA_s140_6.0.0.dir/__/__/common/src/simple_hal.c.obj
 .text.hal_buttons_init
                0x00000000       0x50 examples/pb_remote/server/CMakeFiles/pb_remote_server_nrf52840_xxAA_s140_6.0.0.dir/__/__/common/src/simple_hal.c.obj
 .text          0x00000000        0x0 examples/pb_remote/server/CMakeFiles/pb_remote_server_nrf52840_xxAA_s140_6.0.0.dir/__/__/nrf_mesh_weak.c.obj
 .data          0x00000000        0x0 examples/pb_remote/server/CMakeFiles/pb_remote_server_nrf52840_xxAA_s140_6.0.0.dir/__/__/nrf_mesh_weak.c.obj
 .bss           0x00000000        0x0 examples/pb_remote/server/CMakeFiles/pb_remote_server_nrf52840_xxAA_s140_6.0.0.dir/__/__/nrf_mesh_weak.c.obj
 .text._weak_handler_ptr
                0x00000000        0x4 examples/pb_remote/server/CMakeFiles/pb_remote_server_nrf52840_xxAA_s140_6.0.0.dir/__/__/nrf_mesh_weak.c.obj
 .text          0x00000000        0x0 examples/pb_remote/server/CMakeFiles/pb_remote_server_nrf52840_xxAA_s140_6.0.0.dir/__/__/common/src/app_error_weak.c.obj
 .data          0x00000000        0x0 examples/pb_remote/server/CMakeFiles/pb_remote_server_nrf52840_xxAA_s140_6.0.0.dir/__/__/common/src/app_error_weak.c.obj
 .bss           0x00000000        0x0 examples/pb_remote/server/CMakeFiles/pb_remote_server_nrf52840_xxAA_s140_6.0.0.dir/__/__/common/src/app_error_weak.c.obj
 .text          0x00000000        0x0 examples/pb_remote/server/CMakeFiles/pb_remote_server_nrf52840_xxAA_s140_6.0.0.dir/__/__/common/src/assertion_handler_weak.c.obj
 .data          0x00000000        0x0 examples/pb_remote/server/CMakeFiles/pb_remote_server_nrf52840_xxAA_s140_6.0.0.dir/__/__/common/src/assertion_handler_weak.c.obj
 .bss           0x00000000        0x0 examples/pb_remote/server/CMakeFiles/pb_remote_server_nrf52840_xxAA_s140_6.0.0.dir/__/__/common/src/assertion_handler_weak.c.obj
 .text          0x00000000        0x0 examples/pb_remote/server/CMakeFiles/pb_remote_server_nrf52840_xxAA_s140_6.0.0.dir/__/__/__/mesh/core/src/internal_event.c.obj
 .data          0x00000000        0x0 examples/pb_remote/server/CMakeFiles/pb_remote_server_nrf52840_xxAA_s140_6.0.0.dir/__/__/__/mesh/core/src/internal_event.c.obj
 .bss           0x00000000        0x0 examples/pb_remote/server/CMakeFiles/pb_remote_server_nrf52840_xxAA_s140_6.0.0.dir/__/__/__/mesh/core/src/internal_event.c.obj
 .debug_info    0x00000000      0x91e examples/pb_remote/server/CMakeFiles/pb_remote_server_nrf52840_xxAA_s140_6.0.0.dir/__/__/__/mesh/core/src/internal_event.c.obj
 .debug_abbrev  0x00000000      0x192 examples/pb_remote/server/CMakeFiles/pb_remote_server_nrf52840_xxAA_s140_6.0.0.dir/__/__/__/mesh/core/src/internal_event.c.obj
 .debug_aranges
                0x00000000       0x18 examples/pb_remote/server/CMakeFiles/pb_remote_server_nrf52840_xxAA_s140_6.0.0.dir/__/__/__/mesh/core/src/internal_event.c.obj
 .debug_line    0x00000000      0x1e5 examples/pb_remote/server/CMakeFiles/pb_remote_server_nrf52840_xxAA_s140_6.0.0.dir/__/__/__/mesh/core/src/internal_event.c.obj
 .debug_str     0x00000000      0x62f examples/pb_remote/server/CMakeFiles/pb_remote_server_nrf52840_xxAA_s140_6.0.0.dir/__/__/__/mesh/core/src/internal_event.c.obj
 .comment       0x00000000       0x80 examples/pb_remote/server/CMakeFiles/pb_remote_server_nrf52840_xxAA_s140_6.0.0.dir/__/__/__/mesh/core/src/internal_event.c.obj
 .ARM.attributes
                0x00000000       0x39 examples/pb_remote/server/CMakeFiles/pb_remote_server_nrf52840_xxAA_s140_6.0.0.dir/__/__/__/mesh/core/src/internal_event.c.obj
 .text          0x00000000        0x0 examples/pb_remote/server/CMakeFiles/pb_remote_server_nrf52840_xxAA_s140_6.0.0.dir/__/__/__/mesh/core/src/nrf_mesh_configure.c.obj
 .data          0x00000000        0x0 examples/pb_remote/server/CMakeFiles/pb_remote_server_nrf52840_xxAA_s140_6.0.0.dir/__/__/__/mesh/core/src/nrf_mesh_configure.c.obj
 .bss           0x00000000        0x0 examples/pb_remote/server/CMakeFiles/pb_remote_server_nrf52840_xxAA_s140_6.0.0.dir/__/__/__/mesh/core/src/nrf_mesh_configure.c.obj
 .text          0x00000000        0x0 examples/pb_remote/server/CMakeFiles/pb_remote_server_nrf52840_xxAA_s140_6.0.0.dir/__/__/__/mesh/core/src/aes.c.obj
 .data          0x00000000        0x0 examples/pb_remote/server/CMakeFiles/pb_remote_server_nrf52840_xxAA_s140_6.0.0.dir/__/__/__/mesh/core/src/aes.c.obj
 .bss           0x00000000        0x0 examples/pb_remote/server/CMakeFiles/pb_remote_server_nrf52840_xxAA_s140_6.0.0.dir/__/__/__/mesh/core/src/aes.c.obj
 .debug_info    0x00000000       0xb3 examples/pb_remote/server/CMakeFiles/pb_remote_server_nrf52840_xxAA_s140_6.0.0.dir/__/__/__/mesh/core/src/aes.c.obj
 .debug_abbrev  0x00000000       0x5c examples/pb_remote/server/CMakeFiles/pb_remote_server_nrf52840_xxAA_s140_6.0.0.dir/__/__/__/mesh/core/src/aes.c.obj
 .debug_aranges
                0x00000000       0x18 examples/pb_remote/server/CMakeFiles/pb_remote_server_nrf52840_xxAA_s140_6.0.0.dir/__/__/__/mesh/core/src/aes.c.obj
 .debug_line    0x00000000      0x123 examples/pb_remote/server/CMakeFiles/pb_remote_server_nrf52840_xxAA_s140_6.0.0.dir/__/__/__/mesh/core/src/aes.c.obj
 .debug_str     0x00000000      0x1f4 examples/pb_remote/server/CMakeFiles/pb_remote_server_nrf52840_xxAA_s140_6.0.0.dir/__/__/__/mesh/core/src/aes.c.obj
 .comment       0x00000000       0x80 examples/pb_remote/server/CMakeFiles/pb_remote_server_nrf52840_xxAA_s140_6.0.0.dir/__/__/__/mesh/core/src/aes.c.obj
 .ARM.attributes
                0x00000000       0x39 examples/pb_remote/server/CMakeFiles/pb_remote_server_nrf52840_xxAA_s140_6.0.0.dir/__/__/__/mesh/core/src/aes.c.obj
 .text          0x00000000        0x0 examples/pb_remote/server/CMakeFiles/pb_remote_server_nrf52840_xxAA_s140_6.0.0.dir/__/__/__/mesh/core/src/msg_cache.c.obj
 .data          0x00000000        0x0 examples/pb_remote/server/CMakeFiles/pb_remote_server_nrf52840_xxAA_s140_6.0.0.dir/__/__/__/mesh/core/src/msg_cache.c.obj
 .bss           0x00000000        0x0 examples/pb_remote/server/CMakeFiles/pb_remote_server_nrf52840_xxAA_s140_6.0.0.dir/__/__/__/mesh/core/src/msg_cache.c.obj
 .text.msg_cache_clear
                0x00000000       0x18 examples/pb_remote/server/CMakeFiles/pb_remote_server_nrf52840_xxAA_s140_6.0.0.dir/__/__/__/mesh/core/src/msg_cache.c.obj
 .text          0x00000000        0x0 examples/pb_remote/server/CMakeFiles/pb_remote_server_nrf52840_xxAA_s140_6.0.0.dir/__/__/__/mesh/core/src/transport.c.obj
 .data          0x00000000        0x0 examples/pb_remote/server/CMakeFiles/pb_remote_server_nrf52840_xxAA_s140_6.0.0.dir/__/__/__/mesh/core/src/transport.c.obj
 .bss           0x00000000        0x0 examples/pb_remote/server/CMakeFiles/pb_remote_server_nrf52840_xxAA_s140_6.0.0.dir/__/__/__/mesh/core/src/transport.c.obj
 .text.transport_sar_mem_funcs_set
                0x00000000       0x44 examples/pb_remote/server/CMakeFiles/pb_remote_server_nrf52840_xxAA_s140_6.0.0.dir/__/__/__/mesh/core/src/transport.c.obj
 .text.transport_opt_set
                0x00000000       0xd0 examples/pb_remote/server/CMakeFiles/pb_remote_server_nrf52840_xxAA_s140_6.0.0.dir/__/__/__/mesh/core/src/transport.c.obj
 .text.transport_opt_get
                0x00000000       0x68 examples/pb_remote/server/CMakeFiles/pb_remote_server_nrf52840_xxAA_s140_6.0.0.dir/__/__/__/mesh/core/src/transport.c.obj
 .text          0x00000000        0x0 examples/pb_remote/server/CMakeFiles/pb_remote_server_nrf52840_xxAA_s140_6.0.0.dir/__/__/__/mesh/core/src/event.c.obj
 .data          0x00000000        0x0 examples/pb_remote/server/CMakeFiles/pb_remote_server_nrf52840_xxAA_s140_6.0.0.dir/__/__/__/mesh/core/src/event.c.obj
 .bss           0x00000000        0x0 examples/pb_remote/server/CMakeFiles/pb_remote_server_nrf52840_xxAA_s140_6.0.0.dir/__/__/__/mesh/core/src/event.c.obj
 .text          0x00000000        0x0 examples/pb_remote/server/CMakeFiles/pb_remote_server_nrf52840_xxAA_s140_6.0.0.dir/__/__/__/mesh/core/src/packet_buffer.c.obj
 .data          0x00000000        0x0 examples/pb_remote/server/CMakeFiles/pb_remote_server_nrf52840_xxAA_s140_6.0.0.dir/__/__/__/mesh/core/src/packet_buffer.c.obj
 .bss           0x00000000        0x0 examples/pb_remote/server/CMakeFiles/pb_remote_server_nrf52840_xxAA_s140_6.0.0.dir/__/__/__/mesh/core/src/packet_buffer.c.obj
 .text.packet_buffer_max_packet_len_get
                0x00000000       0x20 examples/pb_remote/server/CMakeFiles/pb_remote_server_nrf52840_xxAA_s140_6.0.0.dir/__/__/__/mesh/core/src/packet_buffer.c.obj
 .text          0x00000000        0x0 examples/pb_remote/server/CMakeFiles/pb_remote_server_nrf52840_xxAA_s140_6.0.0.dir/__/__/__/mesh/core/src/flash_manager_defrag.c.obj
 .data          0x00000000        0x0 examples/pb_remote/server/CMakeFiles/pb_remote_server_nrf52840_xxAA_s140_6.0.0.dir/__/__/__/mesh/core/src/flash_manager_defrag.c.obj
 .bss           0x00000000        0x0 examples/pb_remote/server/CMakeFiles/pb_remote_server_nrf52840_xxAA_s140_6.0.0.dir/__/__/__/mesh/core/src/flash_manager_defrag.c.obj
 .text.flash_manager_defragging
                0x00000000       0x38 examples/pb_remote/server/CMakeFiles/pb_remote_server_nrf52840_xxAA_s140_6.0.0.dir/__/__/__/mesh/core/src/flash_manager_defrag.c.obj
 .text          0x00000000        0x0 examples/pb_remote/server/CMakeFiles/pb_remote_server_nrf52840_xxAA_s140_6.0.0.dir/__/__/__/mesh/core/src/fifo.c.obj
 .data          0x00000000        0x0 examples/pb_remote/server/CMakeFiles/pb_remote_server_nrf52840_xxAA_s140_6.0.0.dir/__/__/__/mesh/core/src/fifo.c.obj
 .bss           0x00000000        0x0 examples/pb_remote/server/CMakeFiles/pb_remote_server_nrf52840_xxAA_s140_6.0.0.dir/__/__/__/mesh/core/src/fifo.c.obj
 .text.fifo_peek_at
                0x00000000       0x50 examples/pb_remote/server/CMakeFiles/pb_remote_server_nrf52840_xxAA_s140_6.0.0.dir/__/__/__/mesh/core/src/fifo.c.obj
 .text.fifo_peek
                0x00000000        0x6 examples/pb_remote/server/CMakeFiles/pb_remote_server_nrf52840_xxAA_s140_6.0.0.dir/__/__/__/mesh/core/src/fifo.c.obj
 .text.fifo_is_full
                0x00000000       0x10 examples/pb_remote/server/CMakeFiles/pb_remote_server_nrf52840_xxAA_s140_6.0.0.dir/__/__/__/mesh/core/src/fifo.c.obj
 .text.fifo_is_empty
                0x00000000        0xc examples/pb_remote/server/CMakeFiles/pb_remote_server_nrf52840_xxAA_s140_6.0.0.dir/__/__/__/mesh/core/src/fifo.c.obj
 .text          0x00000000        0x0 examples/pb_remote/server/CMakeFiles/pb_remote_server_nrf52840_xxAA_s140_6.0.0.dir/__/__/__/mesh/core/src/nrf_flash.c.obj
 .data          0x00000000        0x0 examples/pb_remote/server/CMakeFiles/pb_remote_server_nrf52840_xxAA_s140_6.0.0.dir/__/__/__/mesh/core/src/nrf_flash.c.obj
 .bss           0x00000000        0x0 examples/pb_remote/server/CMakeFiles/pb_remote_server_nrf52840_xxAA_s140_6.0.0.dir/__/__/__/mesh/core/src/nrf_flash.c.obj
 .text          0x00000000        0x0 examples/pb_remote/server/CMakeFiles/pb_remote_server_nrf52840_xxAA_s140_6.0.0.dir/__/__/__/mesh/core/src/packet_mgr.c.obj
 .data          0x00000000        0x0 examples/pb_remote/server/CMakeFiles/pb_remote_server_nrf52840_xxAA_s140_6.0.0.dir/__/__/__/mesh/core/src/packet_mgr.c.obj
 .bss           0x00000000        0x0 examples/pb_remote/server/CMakeFiles/pb_remote_server_nrf52840_xxAA_s140_6.0.0.dir/__/__/__/mesh/core/src/packet_mgr.c.obj
 .text.packet_mgr_alloc
                0x00000000      0x17c examples/pb_remote/server/CMakeFiles/pb_remote_server_nrf52840_xxAA_s140_6.0.0.dir/__/__/__/mesh/core/src/packet_mgr.c.obj
 .text.packet_mgr_free
                0x00000000       0x58 examples/pb_remote/server/CMakeFiles/pb_remote_server_nrf52840_xxAA_s140_6.0.0.dir/__/__/__/mesh/core/src/packet_mgr.c.obj
 .text.packet_mgr_get_free_space
                0x00000000       0x1c examples/pb_remote/server/CMakeFiles/pb_remote_server_nrf52840_xxAA_s140_6.0.0.dir/__/__/__/mesh/core/src/packet_mgr.c.obj
 .text.packet_mgr_refcount_get
                0x00000000        0x6 examples/pb_remote/server/CMakeFiles/pb_remote_server_nrf52840_xxAA_s140_6.0.0.dir/__/__/__/mesh/core/src/packet_mgr.c.obj
 .text.packet_mgr_size_get
                0x00000000        0x6 examples/pb_remote/server/CMakeFiles/pb_remote_server_nrf52840_xxAA_s140_6.0.0.dir/__/__/__/mesh/core/src/packet_mgr.c.obj
 .text          0x00000000        0x0 examples/pb_remote/server/CMakeFiles/pb_remote_server_nrf52840_xxAA_s140_6.0.0.dir/__/__/__/mesh/core/src/net_state.c.obj
 .data          0x00000000        0x0 examples/pb_remote/server/CMakeFiles/pb_remote_server_nrf52840_xxAA_s140_6.0.0.dir/__/__/__/mesh/core/src/net_state.c.obj
 .bss           0x00000000        0x0 examples/pb_remote/server/CMakeFiles/pb_remote_server_nrf52840_xxAA_s140_6.0.0.dir/__/__/__/mesh/core/src/net_state.c.obj
 .text.net_state_iv_update_test_mode_set
                0x00000000        0xc examples/pb_remote/server/CMakeFiles/pb_remote_server_nrf52840_xxAA_s140_6.0.0.dir/__/__/__/mesh/core/src/net_state.c.obj
 .text.net_state_test_mode_transition_run
                0x00000000       0x2c examples/pb_remote/server/CMakeFiles/pb_remote_server_nrf52840_xxAA_s140_6.0.0.dir/__/__/__/mesh/core/src/net_state.c.obj
 .text          0x00000000        0x0 examples/pb_remote/server/CMakeFiles/pb_remote_server_nrf52840_xxAA_s140_6.0.0.dir/__/__/__/mesh/core/src/mesh_flash.c.obj
 .data          0x00000000        0x0 examples/pb_remote/server/CMakeFiles/pb_remote_server_nrf52840_xxAA_s140_6.0.0.dir/__/__/__/mesh/core/src/mesh_flash.c.obj
 .bss           0x00000000        0x0 examples/pb_remote/server/CMakeFiles/pb_remote_server_nrf52840_xxAA_s140_6.0.0.dir/__/__/__/mesh/core/src/mesh_flash.c.obj
 .text.mesh_flash_op_available_slots
                0x00000000       0x2c examples/pb_remote/server/CMakeFiles/pb_remote_server_nrf52840_xxAA_s140_6.0.0.dir/__/__/__/mesh/core/src/mesh_flash.c.obj
 .text.mesh_flash_in_progress
                0x00000000       0x34 examples/pb_remote/server/CMakeFiles/pb_remote_server_nrf52840_xxAA_s140_6.0.0.dir/__/__/__/mesh/core/src/mesh_flash.c.obj
 .text.mesh_flash_set_suspended
                0x00000000       0x74 examples/pb_remote/server/CMakeFiles/pb_remote_server_nrf52840_xxAA_s140_6.0.0.dir/__/__/__/mesh/core/src/mesh_flash.c.obj
 .bss.suspend_count.10501
                0x00000000        0x4 examples/pb_remote/server/CMakeFiles/pb_remote_server_nrf52840_xxAA_s140_6.0.0.dir/__/__/__/mesh/core/src/mesh_flash.c.obj
 .text          0x00000000        0x0 examples/pb_remote/server/CMakeFiles/pb_remote_server_nrf52840_xxAA_s140_6.0.0.dir/__/__/__/mesh/core/src/nrf_mesh_utils.c.obj
 .data          0x00000000        0x0 examples/pb_remote/server/CMakeFiles/pb_remote_server_nrf52840_xxAA_s140_6.0.0.dir/__/__/__/mesh/core/src/nrf_mesh_utils.c.obj
 .bss           0x00000000        0x0 examples/pb_remote/server/CMakeFiles/pb_remote_server_nrf52840_xxAA_s140_6.0.0.dir/__/__/__/mesh/core/src/nrf_mesh_utils.c.obj
 .text.nrf_mesh_rand_get
                0x00000000       0x10 examples/pb_remote/server/CMakeFiles/pb_remote_server_nrf52840_xxAA_s140_6.0.0.dir/__/__/__/mesh/core/src/nrf_mesh_utils.c.obj
 .text.nrf_mesh_gap_address_type_get
                0x00000000       0x30 examples/pb_remote/server/CMakeFiles/pb_remote_server_nrf52840_xxAA_s140_6.0.0.dir/__/__/__/mesh/core/src/nrf_mesh_utils.c.obj
 .text          0x00000000        0x0 examples/pb_remote/server/CMakeFiles/pb_remote_server_nrf52840_xxAA_s140_6.0.0.dir/__/__/__/mesh/core/src/nrf_mesh.c.obj
 .data          0x00000000        0x0 examples/pb_remote/server/CMakeFiles/pb_remote_server_nrf52840_xxAA_s140_6.0.0.dir/__/__/__/mesh/core/src/nrf_mesh.c.obj
 .bss           0x00000000        0x0 examples/pb_remote/server/CMakeFiles/pb_remote_server_nrf52840_xxAA_s140_6.0.0.dir/__/__/__/mesh/core/src/nrf_mesh.c.obj
 .text.nrf_mesh_disable
                0x00000000       0x28 examples/pb_remote/server/CMakeFiles/pb_remote_server_nrf52840_xxAA_s140_6.0.0.dir/__/__/__/mesh/core/src/nrf_mesh.c.obj
 .text.nrf_mesh_process
                0x00000000        0x4 examples/pb_remote/server/CMakeFiles/pb_remote_server_nrf52840_xxAA_s140_6.0.0.dir/__/__/__/mesh/core/src/nrf_mesh.c.obj
 .text.nrf_mesh_evt_handler_remove
                0x00000000        0x4 examples/pb_remote/server/CMakeFiles/pb_remote_server_nrf52840_xxAA_s140_6.0.0.dir/__/__/__/mesh/core/src/nrf_mesh.c.obj
 .text.nrf_mesh_rx_cb_set
                0x00000000        0xc examples/pb_remote/server/CMakeFiles/pb_remote_server_nrf52840_xxAA_s140_6.0.0.dir/__/__/__/mesh/core/src/nrf_mesh.c.obj
 .text.nrf_mesh_rx_cb_clear
                0x00000000        0xc examples/pb_remote/server/CMakeFiles/pb_remote_server_nrf52840_xxAA_s140_6.0.0.dir/__/__/__/mesh/core/src/nrf_mesh.c.obj
 .text          0x00000000        0x0 examples/pb_remote/server/CMakeFiles/pb_remote_server_nrf52840_xxAA_s140_6.0.0.dir/__/__/__/mesh/core/src/queue.c.obj
 .data          0x00000000        0x0 examples/pb_remote/server/CMakeFiles/pb_remote_server_nrf52840_xxAA_s140_6.0.0.dir/__/__/__/mesh/core/src/queue.c.obj
 .bss           0x00000000        0x0 examples/pb_remote/server/CMakeFiles/pb_remote_server_nrf52840_xxAA_s140_6.0.0.dir/__/__/__/mesh/core/src/queue.c.obj
 .text          0x00000000        0x0 examples/pb_remote/server/CMakeFiles/pb_remote_server_nrf52840_xxAA_s140_6.0.0.dir/__/__/__/mesh/core/src/hal.c.obj
 .data          0x00000000        0x0 examples/pb_remote/server/CMakeFiles/pb_remote_server_nrf52840_xxAA_s140_6.0.0.dir/__/__/__/mesh/core/src/hal.c.obj
 .bss           0x00000000        0x0 examples/pb_remote/server/CMakeFiles/pb_remote_server_nrf52840_xxAA_s140_6.0.0.dir/__/__/__/mesh/core/src/hal.c.obj
 .text.sd_power_reset_reason_clr
                0x00000000        0x4 examples/pb_remote/server/CMakeFiles/pb_remote_server_nrf52840_xxAA_s140_6.0.0.dir/__/__/__/mesh/core/src/hal.c.obj
 .text.hal_device_reset
                0x00000000       0x2c examples/pb_remote/server/CMakeFiles/pb_remote_server_nrf52840_xxAA_s140_6.0.0.dir/__/__/__/mesh/core/src/hal.c.obj
 .text          0x00000000        0x0 examples/pb_remote/server/CMakeFiles/pb_remote_server_nrf52840_xxAA_s140_6.0.0.dir/__/__/__/mesh/core/src/aes_cmac.c.obj
 .data          0x00000000        0x0 examples/pb_remote/server/CMakeFiles/pb_remote_server_nrf52840_xxAA_s140_6.0.0.dir/__/__/__/mesh/core/src/aes_cmac.c.obj
 .bss           0x00000000        0x0 examples/pb_remote/server/CMakeFiles/pb_remote_server_nrf52840_xxAA_s140_6.0.0.dir/__/__/__/mesh/core/src/aes_cmac.c.obj
 .text          0x00000000        0x0 examples/pb_remote/server/CMakeFiles/pb_remote_server_nrf52840_xxAA_s140_6.0.0.dir/__/__/__/mesh/core/src/timer_scheduler.c.obj
 .data          0x00000000        0x0 examples/pb_remote/server/CMakeFiles/pb_remote_server_nrf52840_xxAA_s140_6.0.0.dir/__/__/__/mesh/core/src/timer_scheduler.c.obj
 .bss           0x00000000        0x0 examples/pb_remote/server/CMakeFiles/pb_remote_server_nrf52840_xxAA_s140_6.0.0.dir/__/__/__/mesh/core/src/timer_scheduler.c.obj
 .text.timer_sch_is_scheduled
                0x00000000       0x16 examples/pb_remote/server/CMakeFiles/pb_remote_server_nrf52840_xxAA_s140_6.0.0.dir/__/__/__/mesh/core/src/timer_scheduler.c.obj
 .text          0x00000000        0x0 examples/pb_remote/server/CMakeFiles/pb_remote_server_nrf52840_xxAA_s140_6.0.0.dir/__/__/__/mesh/core/src/timer.c.obj
 .data          0x00000000        0x0 examples/pb_remote/server/CMakeFiles/pb_remote_server_nrf52840_xxAA_s140_6.0.0.dir/__/__/__/mesh/core/src/timer.c.obj
 .bss           0x00000000        0x0 examples/pb_remote/server/CMakeFiles/pb_remote_server_nrf52840_xxAA_s140_6.0.0.dir/__/__/__/mesh/core/src/timer.c.obj
 .text.timer_order_cb_ppi
                0x00000000       0xc4 examples/pb_remote/server/CMakeFiles/pb_remote_server_nrf52840_xxAA_s140_6.0.0.dir/__/__/__/mesh/core/src/timer.c.obj
 .text.timer_order_ppi
                0x00000000       0xc0 examples/pb_remote/server/CMakeFiles/pb_remote_server_nrf52840_xxAA_s140_6.0.0.dir/__/__/__/mesh/core/src/timer.c.obj
 .text.timer_abort
                0x00000000       0x78 examples/pb_remote/server/CMakeFiles/pb_remote_server_nrf52840_xxAA_s140_6.0.0.dir/__/__/__/mesh/core/src/timer.c.obj
 .text          0x00000000        0x0 examples/pb_remote/server/CMakeFiles/pb_remote_server_nrf52840_xxAA_s140_6.0.0.dir/__/__/__/mesh/core/src/rand.c.obj
 .data          0x00000000        0x0 examples/pb_remote/server/CMakeFiles/pb_remote_server_nrf52840_xxAA_s140_6.0.0.dir/__/__/__/mesh/core/src/rand.c.obj
 .bss           0x00000000        0x0 examples/pb_remote/server/CMakeFiles/pb_remote_server_nrf52840_xxAA_s140_6.0.0.dir/__/__/__/mesh/core/src/rand.c.obj
 .text          0x00000000        0x0 examples/pb_remote/server/CMakeFiles/pb_remote_server_nrf52840_xxAA_s140_6.0.0.dir/__/__/__/mesh/core/src/nrf_mesh_opt.c.obj
 .data          0x00000000        0x0 examples/pb_remote/server/CMakeFiles/pb_remote_server_nrf52840_xxAA_s140_6.0.0.dir/__/__/__/mesh/core/src/nrf_mesh_opt.c.obj
 .bss           0x00000000        0x0 examples/pb_remote/server/CMakeFiles/pb_remote_server_nrf52840_xxAA_s140_6.0.0.dir/__/__/__/mesh/core/src/nrf_mesh_opt.c.obj
 .text.nrf_mesh_opt_set
                0x00000000       0x26 examples/pb_remote/server/CMakeFiles/pb_remote_server_nrf52840_xxAA_s140_6.0.0.dir/__/__/__/mesh/core/src/nrf_mesh_opt.c.obj
 .text.nrf_mesh_opt_get
                0x00000000       0x26 examples/pb_remote/server/CMakeFiles/pb_remote_server_nrf52840_xxAA_s140_6.0.0.dir/__/__/__/mesh/core/src/nrf_mesh_opt.c.obj
 .debug_info    0x00000000      0xb2f examples/pb_remote/server/CMakeFiles/pb_remote_server_nrf52840_xxAA_s140_6.0.0.dir/__/__/__/mesh/core/src/nrf_mesh_opt.c.obj
 .debug_abbrev  0x00000000      0x24a examples/pb_remote/server/CMakeFiles/pb_remote_server_nrf52840_xxAA_s140_6.0.0.dir/__/__/__/mesh/core/src/nrf_mesh_opt.c.obj
 .debug_loc     0x00000000      0x194 examples/pb_remote/server/CMakeFiles/pb_remote_server_nrf52840_xxAA_s140_6.0.0.dir/__/__/__/mesh/core/src/nrf_mesh_opt.c.obj
 .debug_aranges
                0x00000000       0x28 examples/pb_remote/server/CMakeFiles/pb_remote_server_nrf52840_xxAA_s140_6.0.0.dir/__/__/__/mesh/core/src/nrf_mesh_opt.c.obj
 .debug_ranges  0x00000000       0x18 examples/pb_remote/server/CMakeFiles/pb_remote_server_nrf52840_xxAA_s140_6.0.0.dir/__/__/__/mesh/core/src/nrf_mesh_opt.c.obj
 .debug_line    0x00000000      0x299 examples/pb_remote/server/CMakeFiles/pb_remote_server_nrf52840_xxAA_s140_6.0.0.dir/__/__/__/mesh/core/src/nrf_mesh_opt.c.obj
 .debug_str     0x00000000      0x95f examples/pb_remote/server/CMakeFiles/pb_remote_server_nrf52840_xxAA_s140_6.0.0.dir/__/__/__/mesh/core/src/nrf_mesh_opt.c.obj
 .comment       0x00000000       0x80 examples/pb_remote/server/CMakeFiles/pb_remote_server_nrf52840_xxAA_s140_6.0.0.dir/__/__/__/mesh/core/src/nrf_mesh_opt.c.obj
 .debug_frame   0x00000000       0x30 examples/pb_remote/server/CMakeFiles/pb_remote_server_nrf52840_xxAA_s140_6.0.0.dir/__/__/__/mesh/core/src/nrf_mesh_opt.c.obj
 .ARM.attributes
                0x00000000       0x39 examples/pb_remote/server/CMakeFiles/pb_remote_server_nrf52840_xxAA_s140_6.0.0.dir/__/__/__/mesh/core/src/nrf_mesh_opt.c.obj
 .text          0x00000000        0x0 examples/pb_remote/server/CMakeFiles/pb_remote_server_nrf52840_xxAA_s140_6.0.0.dir/__/__/__/mesh/core/src/mesh_opt.c.obj
 .data          0x00000000        0x0 examples/pb_remote/server/CMakeFiles/pb_remote_server_nrf52840_xxAA_s140_6.0.0.dir/__/__/__/mesh/core/src/mesh_opt.c.obj
 .bss           0x00000000        0x0 examples/pb_remote/server/CMakeFiles/pb_remote_server_nrf52840_xxAA_s140_6.0.0.dir/__/__/__/mesh/core/src/mesh_opt.c.obj
 .text          0x00000000        0x0 examples/pb_remote/server/CMakeFiles/pb_remote_server_nrf52840_xxAA_s140_6.0.0.dir/__/__/__/mesh/core/src/timeslot.c.obj
 .data          0x00000000        0x0 examples/pb_remote/server/CMakeFiles/pb_remote_server_nrf52840_xxAA_s140_6.0.0.dir/__/__/__/mesh/core/src/timeslot.c.obj
 .bss           0x00000000        0x0 examples/pb_remote/server/CMakeFiles/pb_remote_server_nrf52840_xxAA_s140_6.0.0.dir/__/__/__/mesh/core/src/timeslot.c.obj
 .text.timeslot_end_time_get
                0x00000000       0x10 examples/pb_remote/server/CMakeFiles/pb_remote_server_nrf52840_xxAA_s140_6.0.0.dir/__/__/__/mesh/core/src/timeslot.c.obj
 .text.timeslot_is_in_ts
                0x00000000        0xc examples/pb_remote/server/CMakeFiles/pb_remote_server_nrf52840_xxAA_s140_6.0.0.dir/__/__/__/mesh/core/src/timeslot.c.obj
 .text.timeslot_restart
                0x00000000       0x10 examples/pb_remote/server/CMakeFiles/pb_remote_server_nrf52840_xxAA_s140_6.0.0.dir/__/__/__/mesh/core/src/timeslot.c.obj
 .text          0x00000000        0x0 examples/pb_remote/server/CMakeFiles/pb_remote_server_nrf52840_xxAA_s140_6.0.0.dir/__/__/__/mesh/core/src/bearer_event.c.obj
 .data          0x00000000        0x0 examples/pb_remote/server/CMakeFiles/pb_remote_server_nrf52840_xxAA_s140_6.0.0.dir/__/__/__/mesh/core/src/bearer_event.c.obj
 .bss           0x00000000        0x0 examples/pb_remote/server/CMakeFiles/pb_remote_server_nrf52840_xxAA_s140_6.0.0.dir/__/__/__/mesh/core/src/bearer_event.c.obj
 .text.bearer_event_generic_post
                0x00000000       0x24 examples/pb_remote/server/CMakeFiles/pb_remote_server_nrf52840_xxAA_s140_6.0.0.dir/__/__/__/mesh/core/src/bearer_event.c.obj
 .text.bearer_event_timer_sch_post
                0x00000000       0x26 examples/pb_remote/server/CMakeFiles/pb_remote_server_nrf52840_xxAA_s140_6.0.0.dir/__/__/__/mesh/core/src/bearer_event.c.obj
 .text          0x00000000        0x0 examples/pb_remote/server/CMakeFiles/pb_remote_server_nrf52840_xxAA_s140_6.0.0.dir/__/__/__/mesh/core/src/enc.c.obj
 .data          0x00000000        0x0 examples/pb_remote/server/CMakeFiles/pb_remote_server_nrf52840_xxAA_s140_6.0.0.dir/__/__/__/mesh/core/src/enc.c.obj
 .bss           0x00000000        0x0 examples/pb_remote/server/CMakeFiles/pb_remote_server_nrf52840_xxAA_s140_6.0.0.dir/__/__/__/mesh/core/src/enc.c.obj
 .text.enc_key_generate
                0x00000000        0x6 examples/pb_remote/server/CMakeFiles/pb_remote_server_nrf52840_xxAA_s140_6.0.0.dir/__/__/__/mesh/core/src/enc.c.obj
 .text          0x00000000        0x0 examples/pb_remote/server/CMakeFiles/pb_remote_server_nrf52840_xxAA_s140_6.0.0.dir/__/__/__/mesh/core/src/network.c.obj
 .data          0x00000000        0x0 examples/pb_remote/server/CMakeFiles/pb_remote_server_nrf52840_xxAA_s140_6.0.0.dir/__/__/__/mesh/core/src/network.c.obj
 .bss           0x00000000        0x0 examples/pb_remote/server/CMakeFiles/pb_remote_server_nrf52840_xxAA_s140_6.0.0.dir/__/__/__/mesh/core/src/network.c.obj
 .text.network_packet_discard
                0x00000000       0x1e examples/pb_remote/server/CMakeFiles/pb_remote_server_nrf52840_xxAA_s140_6.0.0.dir/__/__/__/mesh/core/src/network.c.obj
 .text.network_opt_set
                0x00000000       0xc0 examples/pb_remote/server/CMakeFiles/pb_remote_server_nrf52840_xxAA_s140_6.0.0.dir/__/__/__/mesh/core/src/network.c.obj
 .text.network_opt_get
                0x00000000       0x88 examples/pb_remote/server/CMakeFiles/pb_remote_server_nrf52840_xxAA_s140_6.0.0.dir/__/__/__/mesh/core/src/network.c.obj
 .text          0x00000000        0x0 examples/pb_remote/server/CMakeFiles/pb_remote_server_nrf52840_xxAA_s140_6.0.0.dir/__/__/__/mesh/core/src/net_packet.c.obj
 .data          0x00000000        0x0 examples/pb_remote/server/CMakeFiles/pb_remote_server_nrf52840_xxAA_s140_6.0.0.dir/__/__/__/mesh/core/src/net_packet.c.obj
 .bss           0x00000000        0x0 examples/pb_remote/server/CMakeFiles/pb_remote_server_nrf52840_xxAA_s140_6.0.0.dir/__/__/__/mesh/core/src/net_packet.c.obj
 .text.net_packet_enc_start_get
                0x00000000        0x4 examples/pb_remote/server/CMakeFiles/pb_remote_server_nrf52840_xxAA_s140_6.0.0.dir/__/__/__/mesh/core/src/net_packet.c.obj
 .text.net_packet_payload_get
                0x00000000        0x4 examples/pb_remote/server/CMakeFiles/pb_remote_server_nrf52840_xxAA_s140_6.0.0.dir/__/__/__/mesh/core/src/net_packet.c.obj
 .text          0x00000000        0x0 examples/pb_remote/server/CMakeFiles/pb_remote_server_nrf52840_xxAA_s140_6.0.0.dir/__/__/__/mesh/core/src/msqueue.c.obj
 .data          0x00000000        0x0 examples/pb_remote/server/CMakeFiles/pb_remote_server_nrf52840_xxAA_s140_6.0.0.dir/__/__/__/mesh/core/src/msqueue.c.obj
 .bss           0x00000000        0x0 examples/pb_remote/server/CMakeFiles/pb_remote_server_nrf52840_xxAA_s140_6.0.0.dir/__/__/__/mesh/core/src/msqueue.c.obj
 .text          0x00000000        0x0 examples/pb_remote/server/CMakeFiles/pb_remote_server_nrf52840_xxAA_s140_6.0.0.dir/__/__/__/mesh/core/src/nrf_mesh_keygen.c.obj
 .data          0x00000000        0x0 examples/pb_remote/server/CMakeFiles/pb_remote_server_nrf52840_xxAA_s140_6.0.0.dir/__/__/__/mesh/core/src/nrf_mesh_keygen.c.obj
 .bss           0x00000000        0x0 examples/pb_remote/server/CMakeFiles/pb_remote_server_nrf52840_xxAA_s140_6.0.0.dir/__/__/__/mesh/core/src/nrf_mesh_keygen.c.obj
 .text.nrf_mesh_keygen_identitykey
                0x00000000       0x4c examples/pb_remote/server/CMakeFiles/pb_remote_server_nrf52840_xxAA_s140_6.0.0.dir/__/__/__/mesh/core/src/nrf_mesh_keygen.c.obj
 .text          0x00000000        0x0 examples/pb_remote/server/CMakeFiles/pb_remote_server_nrf52840_xxAA_s140_6.0.0.dir/__/__/__/mesh/core/src/cache.c.obj
 .data          0x00000000        0x0 examples/pb_remote/server/CMakeFiles/pb_remote_server_nrf52840_xxAA_s140_6.0.0.dir/__/__/__/mesh/core/src/cache.c.obj
 .bss           0x00000000        0x0 examples/pb_remote/server/CMakeFiles/pb_remote_server_nrf52840_xxAA_s140_6.0.0.dir/__/__/__/mesh/core/src/cache.c.obj
 .text.erase_at
                0x00000000       0x1c examples/pb_remote/server/CMakeFiles/pb_remote_server_nrf52840_xxAA_s140_6.0.0.dir/__/__/__/mesh/core/src/cache.c.obj
 .text.cache_init
                0x00000000       0x1e examples/pb_remote/server/CMakeFiles/pb_remote_server_nrf52840_xxAA_s140_6.0.0.dir/__/__/__/mesh/core/src/cache.c.obj
 .text.cache_has_elem
                0x00000000       0x3e examples/pb_remote/server/CMakeFiles/pb_remote_server_nrf52840_xxAA_s140_6.0.0.dir/__/__/__/mesh/core/src/cache.c.obj
 .text.cache_put
                0x00000000       0x2a examples/pb_remote/server/CMakeFiles/pb_remote_server_nrf52840_xxAA_s140_6.0.0.dir/__/__/__/mesh/core/src/cache.c.obj
 .text.cache_erase_elem
                0x00000000       0x4c examples/pb_remote/server/CMakeFiles/pb_remote_server_nrf52840_xxAA_s140_6.0.0.dir/__/__/__/mesh/core/src/cache.c.obj
 .debug_info    0x00000000      0xbe1 examples/pb_remote/server/CMakeFiles/pb_remote_server_nrf52840_xxAA_s140_6.0.0.dir/__/__/__/mesh/core/src/cache.c.obj
 .debug_abbrev  0x00000000      0x2a3 examples/pb_remote/server/CMakeFiles/pb_remote_server_nrf52840_xxAA_s140_6.0.0.dir/__/__/__/mesh/core/src/cache.c.obj
 .debug_loc     0x00000000      0x29b examples/pb_remote/server/CMakeFiles/pb_remote_server_nrf52840_xxAA_s140_6.0.0.dir/__/__/__/mesh/core/src/cache.c.obj
 .debug_aranges
                0x00000000       0x40 examples/pb_remote/server/CMakeFiles/pb_remote_server_nrf52840_xxAA_s140_6.0.0.dir/__/__/__/mesh/core/src/cache.c.obj
 .debug_ranges  0x00000000       0x80 examples/pb_remote/server/CMakeFiles/pb_remote_server_nrf52840_xxAA_s140_6.0.0.dir/__/__/__/mesh/core/src/cache.c.obj
 .debug_line    0x00000000      0x20a examples/pb_remote/server/CMakeFiles/pb_remote_server_nrf52840_xxAA_s140_6.0.0.dir/__/__/__/mesh/core/src/cache.c.obj
 .debug_str     0x00000000      0x6af examples/pb_remote/server/CMakeFiles/pb_remote_server_nrf52840_xxAA_s140_6.0.0.dir/__/__/__/mesh/core/src/cache.c.obj
 .comment       0x00000000       0x80 examples/pb_remote/server/CMakeFiles/pb_remote_server_nrf52840_xxAA_s140_6.0.0.dir/__/__/__/mesh/core/src/cache.c.obj
 .debug_frame   0x00000000       0xb0 examples/pb_remote/server/CMakeFiles/pb_remote_server_nrf52840_xxAA_s140_6.0.0.dir/__/__/__/mesh/core/src/cache.c.obj
 .ARM.attributes
                0x00000000       0x39 examples/pb_remote/server/CMakeFiles/pb_remote_server_nrf52840_xxAA_s140_6.0.0.dir/__/__/__/mesh/core/src/cache.c.obj
 .text          0x00000000        0x0 examples/pb_remote/server/CMakeFiles/pb_remote_server_nrf52840_xxAA_s140_6.0.0.dir/__/__/__/mesh/core/src/list.c.obj
 .data          0x00000000        0x0 examples/pb_remote/server/CMakeFiles/pb_remote_server_nrf52840_xxAA_s140_6.0.0.dir/__/__/__/mesh/core/src/list.c.obj
 .bss           0x00000000        0x0 examples/pb_remote/server/CMakeFiles/pb_remote_server_nrf52840_xxAA_s140_6.0.0.dir/__/__/__/mesh/core/src/list.c.obj
 .text.list_size_get
                0x00000000       0x12 examples/pb_remote/server/CMakeFiles/pb_remote_server_nrf52840_xxAA_s140_6.0.0.dir/__/__/__/mesh/core/src/list.c.obj
 .text.list_sorted_add
                0x00000000       0x6c examples/pb_remote/server/CMakeFiles/pb_remote_server_nrf52840_xxAA_s140_6.0.0.dir/__/__/__/mesh/core/src/list.c.obj
 .text          0x00000000        0x0 examples/pb_remote/server/CMakeFiles/pb_remote_server_nrf52840_xxAA_s140_6.0.0.dir/__/__/__/mesh/core/src/log.c.obj
 .data          0x00000000        0x0 examples/pb_remote/server/CMakeFiles/pb_remote_server_nrf52840_xxAA_s140_6.0.0.dir/__/__/__/mesh/core/src/log.c.obj
 .bss           0x00000000        0x0 examples/pb_remote/server/CMakeFiles/pb_remote_server_nrf52840_xxAA_s140_6.0.0.dir/__/__/__/mesh/core/src/log.c.obj
 .text.log_callback_logview
                0x00000000       0x38 examples/pb_remote/server/CMakeFiles/pb_remote_server_nrf52840_xxAA_s140_6.0.0.dir/__/__/__/mesh/core/src/log.c.obj
 .text.log_set_callback
                0x00000000        0xc examples/pb_remote/server/CMakeFiles/pb_remote_server_nrf52840_xxAA_s140_6.0.0.dir/__/__/__/mesh/core/src/log.c.obj
 .rodata.log_callback_logview.str1.1
                0x00000000        0xf examples/pb_remote/server/CMakeFiles/pb_remote_server_nrf52840_xxAA_s140_6.0.0.dir/__/__/__/mesh/core/src/log.c.obj
 .text          0x00000000        0x0 examples/pb_remote/server/CMakeFiles/pb_remote_server_nrf52840_xxAA_s140_6.0.0.dir/__/__/__/mesh/core/src/flash_manager.c.obj
 .data          0x00000000        0x0 examples/pb_remote/server/CMakeFiles/pb_remote_server_nrf52840_xxAA_s140_6.0.0.dir/__/__/__/mesh/core/src/flash_manager.c.obj
 .bss           0x00000000        0x0 examples/pb_remote/server/CMakeFiles/pb_remote_server_nrf52840_xxAA_s140_6.0.0.dir/__/__/__/mesh/core/src/flash_manager.c.obj
 .text.flash_manager_entry_count_get
                0x00000000       0x50 examples/pb_remote/server/CMakeFiles/pb_remote_server_nrf52840_xxAA_s140_6.0.0.dir/__/__/__/mesh/core/src/flash_manager.c.obj
 .text.flash_manager_entry_release
                0x00000000       0x2c examples/pb_remote/server/CMakeFiles/pb_remote_server_nrf52840_xxAA_s140_6.0.0.dir/__/__/__/mesh/core/src/flash_manager.c.obj
 .text          0x00000000        0x0 examples/pb_remote/server/CMakeFiles/pb_remote_server_nrf52840_xxAA_s140_6.0.0.dir/__/__/__/mesh/core/src/ccm_soft.c.obj
 .data          0x00000000        0x0 examples/pb_remote/server/CMakeFiles/pb_remote_server_nrf52840_xxAA_s140_6.0.0.dir/__/__/__/mesh/core/src/ccm_soft.c.obj
 .bss           0x00000000        0x0 examples/pb_remote/server/CMakeFiles/pb_remote_server_nrf52840_xxAA_s140_6.0.0.dir/__/__/__/mesh/core/src/ccm_soft.c.obj
 .text          0x00000000        0x0 examples/pb_remote/server/CMakeFiles/pb_remote_server_nrf52840_xxAA_s140_6.0.0.dir/__/__/__/mesh/core/src/toolchain.c.obj
 .data          0x00000000        0x0 examples/pb_remote/server/CMakeFiles/pb_remote_server_nrf52840_xxAA_s140_6.0.0.dir/__/__/__/mesh/core/src/toolchain.c.obj
 .bss           0x00000000        0x0 examples/pb_remote/server/CMakeFiles/pb_remote_server_nrf52840_xxAA_s140_6.0.0.dir/__/__/__/mesh/core/src/toolchain.c.obj
 .debug_info    0x00000000       0xb3 examples/pb_remote/server/CMakeFiles/pb_remote_server_nrf52840_xxAA_s140_6.0.0.dir/__/__/__/mesh/core/src/toolchain.c.obj
 .debug_abbrev  0x00000000       0x5c examples/pb_remote/server/CMakeFiles/pb_remote_server_nrf52840_xxAA_s140_6.0.0.dir/__/__/__/mesh/core/src/toolchain.c.obj
 .debug_aranges
                0x00000000       0x18 examples/pb_remote/server/CMakeFiles/pb_remote_server_nrf52840_xxAA_s140_6.0.0.dir/__/__/__/mesh/core/src/toolchain.c.obj
 .debug_line    0x00000000      0x123 examples/pb_remote/server/CMakeFiles/pb_remote_server_nrf52840_xxAA_s140_6.0.0.dir/__/__/__/mesh/core/src/toolchain.c.obj
 .debug_str     0x00000000      0x1fa examples/pb_remote/server/CMakeFiles/pb_remote_server_nrf52840_xxAA_s140_6.0.0.dir/__/__/__/mesh/core/src/toolchain.c.obj
 .comment       0x00000000       0x80 examples/pb_remote/server/CMakeFiles/pb_remote_server_nrf52840_xxAA_s140_6.0.0.dir/__/__/__/mesh/core/src/toolchain.c.obj
 .ARM.attributes
                0x00000000       0x39 examples/pb_remote/server/CMakeFiles/pb_remote_server_nrf52840_xxAA_s140_6.0.0.dir/__/__/__/mesh/core/src/toolchain.c.obj
 .text          0x00000000        0x0 examples/pb_remote/server/CMakeFiles/pb_remote_server_nrf52840_xxAA_s140_6.0.0.dir/__/__/__/mesh/core/src/replay_cache.c.obj
 .data          0x00000000        0x0 examples/pb_remote/server/CMakeFiles/pb_remote_server_nrf52840_xxAA_s140_6.0.0.dir/__/__/__/mesh/core/src/replay_cache.c.obj
 .bss           0x00000000        0x0 examples/pb_remote/server/CMakeFiles/pb_remote_server_nrf52840_xxAA_s140_6.0.0.dir/__/__/__/mesh/core/src/replay_cache.c.obj
 .text.replay_cache_on_iv_update
                0x00000000       0x24 examples/pb_remote/server/CMakeFiles/pb_remote_server_nrf52840_xxAA_s140_6.0.0.dir/__/__/__/mesh/core/src/replay_cache.c.obj
 .text          0x00000000        0x0 examples/pb_remote/server/CMakeFiles/pb_remote_server_nrf52840_xxAA_s140_6.0.0.dir/__/__/__/mesh/core/src/beacon.c.obj
 .data          0x00000000        0x0 examples/pb_remote/server/CMakeFiles/pb_remote_server_nrf52840_xxAA_s140_6.0.0.dir/__/__/__/mesh/core/src/beacon.c.obj
 .bss           0x00000000        0x0 examples/pb_remote/server/CMakeFiles/pb_remote_server_nrf52840_xxAA_s140_6.0.0.dir/__/__/__/mesh/core/src/beacon.c.obj
 .text          0x00000000        0x0 examples/pb_remote/server/CMakeFiles/pb_remote_server_nrf52840_xxAA_s140_6.0.0.dir/__/__/__/mesh/core/src/flash_manager_internal.c.obj
 .data          0x00000000        0x0 examples/pb_remote/server/CMakeFiles/pb_remote_server_nrf52840_xxAA_s140_6.0.0.dir/__/__/__/mesh/core/src/flash_manager_internal.c.obj
 .bss           0x00000000        0x0 examples/pb_remote/server/CMakeFiles/pb_remote_server_nrf52840_xxAA_s140_6.0.0.dir/__/__/__/mesh/core/src/flash_manager_internal.c.obj
 .text          0x00000000        0x0 examples/pb_remote/server/CMakeFiles/pb_remote_server_nrf52840_xxAA_s140_6.0.0.dir/__/__/__/mesh/core/src/core_tx.c.obj
 .data          0x00000000        0x0 examples/pb_remote/server/CMakeFiles/pb_remote_server_nrf52840_xxAA_s140_6.0.0.dir/__/__/__/mesh/core/src/core_tx.c.obj
 .bss           0x00000000        0x0 examples/pb_remote/server/CMakeFiles/pb_remote_server_nrf52840_xxAA_s140_6.0.0.dir/__/__/__/mesh/core/src/core_tx.c.obj
 .text.core_tx_bearer_type_get
                0x00000000       0x1c examples/pb_remote/server/CMakeFiles/pb_remote_server_nrf52840_xxAA_s140_6.0.0.dir/__/__/__/mesh/core/src/core_tx.c.obj
 .text.core_tx_bearer_count_get
                0x00000000        0xc examples/pb_remote/server/CMakeFiles/pb_remote_server_nrf52840_xxAA_s140_6.0.0.dir/__/__/__/mesh/core/src/core_tx.c.obj
 .text          0x00000000        0x0 examples/pb_remote/server/CMakeFiles/pb_remote_server_nrf52840_xxAA_s140_6.0.0.dir/__/__/__/mesh/core/src/heartbeat.c.obj
 .data          0x00000000        0x0 examples/pb_remote/server/CMakeFiles/pb_remote_server_nrf52840_xxAA_s140_6.0.0.dir/__/__/__/mesh/core/src/heartbeat.c.obj
 .bss           0x00000000        0x0 examples/pb_remote/server/CMakeFiles/pb_remote_server_nrf52840_xxAA_s140_6.0.0.dir/__/__/__/mesh/core/src/heartbeat.c.obj
 .text          0x00000000        0x0 examples/pb_remote/server/CMakeFiles/pb_remote_server_nrf52840_xxAA_s140_6.0.0.dir/__/__/__/mesh/core/src/net_beacon.c.obj
 .data          0x00000000        0x0 examples/pb_remote/server/CMakeFiles/pb_remote_server_nrf52840_xxAA_s140_6.0.0.dir/__/__/__/mesh/core/src/net_beacon.c.obj
 .bss           0x00000000        0x0 examples/pb_remote/server/CMakeFiles/pb_remote_server_nrf52840_xxAA_s140_6.0.0.dir/__/__/__/mesh/core/src/net_beacon.c.obj
 .text.net_beacon_build
                0x00000000       0x24 examples/pb_remote/server/CMakeFiles/pb_remote_server_nrf52840_xxAA_s140_6.0.0.dir/__/__/__/mesh/core/src/net_beacon.c.obj
 .text          0x00000000        0x0 examples/pb_remote/server/CMakeFiles/pb_remote_server_nrf52840_xxAA_s140_6.0.0.dir/__/__/__/mesh/core/src/mesh_config.c.obj
 .data          0x00000000        0x0 examples/pb_remote/server/CMakeFiles/pb_remote_server_nrf52840_xxAA_s140_6.0.0.dir/__/__/__/mesh/core/src/mesh_config.c.obj
 .bss           0x00000000        0x0 examples/pb_remote/server/CMakeFiles/pb_remote_server_nrf52840_xxAA_s140_6.0.0.dir/__/__/__/mesh/core/src/mesh_config.c.obj
 .text.mesh_config_power_down
                0x00000000        0x6 examples/pb_remote/server/CMakeFiles/pb_remote_server_nrf52840_xxAA_s140_6.0.0.dir/__/__/__/mesh/core/src/mesh_config.c.obj
 .text.mesh_config_entry_available_id
                0x00000000       0x36 examples/pb_remote/server/CMakeFiles/pb_remote_server_nrf52840_xxAA_s140_6.0.0.dir/__/__/__/mesh/core/src/mesh_config.c.obj
 .text.mesh_config_entry_delete
                0x00000000       0x74 examples/pb_remote/server/CMakeFiles/pb_remote_server_nrf52840_xxAA_s140_6.0.0.dir/__/__/__/mesh/core/src/mesh_config.c.obj
 .text.mesh_config_power_down_time_get
                0x00000000        0x4 examples/pb_remote/server/CMakeFiles/pb_remote_server_nrf52840_xxAA_s140_6.0.0.dir/__/__/__/mesh/core/src/mesh_config.c.obj
 .text          0x00000000        0x0 examples/pb_remote/server/CMakeFiles/pb_remote_server_nrf52840_xxAA_s140_6.0.0.dir/__/__/__/mesh/core/src/fsm.c.obj
 .data          0x00000000        0x0 examples/pb_remote/server/CMakeFiles/pb_remote_server_nrf52840_xxAA_s140_6.0.0.dir/__/__/__/mesh/core/src/fsm.c.obj
 .bss           0x00000000        0x0 examples/pb_remote/server/CMakeFiles/pb_remote_server_nrf52840_xxAA_s140_6.0.0.dir/__/__/__/mesh/core/src/fsm.c.obj
 .text.fsm_event_post_try
                0x00000000      0x1ec examples/pb_remote/server/CMakeFiles/pb_remote_server_nrf52840_xxAA_s140_6.0.0.dir/__/__/__/mesh/core/src/fsm.c.obj
 .text.fsm_init
                0x00000000       0xcc examples/pb_remote/server/CMakeFiles/pb_remote_server_nrf52840_xxAA_s140_6.0.0.dir/__/__/__/mesh/core/src/fsm.c.obj
 .text.fsm_event_post
                0x00000000       0xac examples/pb_remote/server/CMakeFiles/pb_remote_server_nrf52840_xxAA_s140_6.0.0.dir/__/__/__/mesh/core/src/fsm.c.obj
 .text.fsm_is_processing
                0x00000000        0xa examples/pb_remote/server/CMakeFiles/pb_remote_server_nrf52840_xxAA_s140_6.0.0.dir/__/__/__/mesh/core/src/fsm.c.obj
 .rodata.fsm_event_post.str1.1
                0x00000000        0xb examples/pb_remote/server/CMakeFiles/pb_remote_server_nrf52840_xxAA_s140_6.0.0.dir/__/__/__/mesh/core/src/fsm.c.obj
 .rodata.fsm_event_post_try.str1.1
                0x00000000       0x41 examples/pb_remote/server/CMakeFiles/pb_remote_server_nrf52840_xxAA_s140_6.0.0.dir/__/__/__/mesh/core/src/fsm.c.obj
 .rodata.fsm_init.str1.1
                0x00000000        0xa examples/pb_remote/server/CMakeFiles/pb_remote_server_nrf52840_xxAA_s140_6.0.0.dir/__/__/__/mesh/core/src/fsm.c.obj
 .debug_info    0x00000000     0x132d examples/pb_remote/server/CMakeFiles/pb_remote_server_nrf52840_xxAA_s140_6.0.0.dir/__/__/__/mesh/core/src/fsm.c.obj
 .debug_abbrev  0x00000000      0x345 examples/pb_remote/server/CMakeFiles/pb_remote_server_nrf52840_xxAA_s140_6.0.0.dir/__/__/__/mesh/core/src/fsm.c.obj
 .debug_loc     0x00000000      0x3fd examples/pb_remote/server/CMakeFiles/pb_remote_server_nrf52840_xxAA_s140_6.0.0.dir/__/__/__/mesh/core/src/fsm.c.obj
 .debug_aranges
                0x00000000       0x38 examples/pb_remote/server/CMakeFiles/pb_remote_server_nrf52840_xxAA_s140_6.0.0.dir/__/__/__/mesh/core/src/fsm.c.obj
 .debug_ranges  0x00000000       0xe0 examples/pb_remote/server/CMakeFiles/pb_remote_server_nrf52840_xxAA_s140_6.0.0.dir/__/__/__/mesh/core/src/fsm.c.obj
 .debug_line    0x00000000      0x3ce examples/pb_remote/server/CMakeFiles/pb_remote_server_nrf52840_xxAA_s140_6.0.0.dir/__/__/__/mesh/core/src/fsm.c.obj
 .debug_str     0x00000000      0x984 examples/pb_remote/server/CMakeFiles/pb_remote_server_nrf52840_xxAA_s140_6.0.0.dir/__/__/__/mesh/core/src/fsm.c.obj
 .comment       0x00000000       0x80 examples/pb_remote/server/CMakeFiles/pb_remote_server_nrf52840_xxAA_s140_6.0.0.dir/__/__/__/mesh/core/src/fsm.c.obj
 .debug_frame   0x00000000       0x9c examples/pb_remote/server/CMakeFiles/pb_remote_server_nrf52840_xxAA_s140_6.0.0.dir/__/__/__/mesh/core/src/fsm.c.obj
 .ARM.attributes
                0x00000000       0x39 examples/pb_remote/server/CMakeFiles/pb_remote_server_nrf52840_xxAA_s140_6.0.0.dir/__/__/__/mesh/core/src/fsm.c.obj
 .text          0x00000000        0x0 examples/pb_remote/server/CMakeFiles/pb_remote_server_nrf52840_xxAA_s140_6.0.0.dir/__/__/__/mesh/core/src/mesh_config_backend.c.obj
 .data          0x00000000        0x0 examples/pb_remote/server/CMakeFiles/pb_remote_server_nrf52840_xxAA_s140_6.0.0.dir/__/__/__/mesh/core/src/mesh_config_backend.c.obj
 .bss           0x00000000        0x0 examples/pb_remote/server/CMakeFiles/pb_remote_server_nrf52840_xxAA_s140_6.0.0.dir/__/__/__/mesh/core/src/mesh_config_backend.c.obj
 .text.mesh_config_backend_read
                0x00000000       0x58 examples/pb_remote/server/CMakeFiles/pb_remote_server_nrf52840_xxAA_s140_6.0.0.dir/__/__/__/mesh/core/src/mesh_config_backend.c.obj
 .text.mesh_config_backend_power_down_time_get
                0x00000000        0xc examples/pb_remote/server/CMakeFiles/pb_remote_server_nrf52840_xxAA_s140_6.0.0.dir/__/__/__/mesh/core/src/mesh_config_backend.c.obj
 .text          0x00000000        0x0 examples/pb_remote/server/CMakeFiles/pb_remote_server_nrf52840_xxAA_s140_6.0.0.dir/__/__/__/mesh/core/src/mesh_config_flashman_glue.c.obj
 .data          0x00000000        0x0 examples/pb_remote/server/CMakeFiles/pb_remote_server_nrf52840_xxAA_s140_6.0.0.dir/__/__/__/mesh/core/src/mesh_config_flashman_glue.c.obj
 .bss           0x00000000        0x0 examples/pb_remote/server/CMakeFiles/pb_remote_server_nrf52840_xxAA_s140_6.0.0.dir/__/__/__/mesh/core/src/mesh_config_flashman_glue.c.obj
 .text.mesh_config_backend_record_read
                0x00000000       0x38 examples/pb_remote/server/CMakeFiles/pb_remote_server_nrf52840_xxAA_s140_6.0.0.dir/__/__/__/mesh/core/src/mesh_config_flashman_glue.c.obj
 .text.mesh_config_backend_flash_usage_get
                0x00000000       0x24 examples/pb_remote/server/CMakeFiles/pb_remote_server_nrf52840_xxAA_s140_6.0.0.dir/__/__/__/mesh/core/src/mesh_config_flashman_glue.c.obj
 .text          0x00000000        0x0 examples/pb_remote/server/CMakeFiles/pb_remote_server_nrf52840_xxAA_s140_6.0.0.dir/__/__/__/mesh/core/src/core_tx_adv.c.obj
 .data          0x00000000        0x0 examples/pb_remote/server/CMakeFiles/pb_remote_server_nrf52840_xxAA_s140_6.0.0.dir/__/__/__/mesh/core/src/core_tx_adv.c.obj
 .bss           0x00000000        0x0 examples/pb_remote/server/CMakeFiles/pb_remote_server_nrf52840_xxAA_s140_6.0.0.dir/__/__/__/mesh/core/src/core_tx_adv.c.obj
 .text.mesh_opt_core_adv_delete
                0x00000000       0x24 examples/pb_remote/server/CMakeFiles/pb_remote_server_nrf52840_xxAA_s140_6.0.0.dir/__/__/__/mesh/core/src/core_tx_adv.c.obj
 .text.mesh_opt_core_adv_addr_set
                0x00000000       0x24 examples/pb_remote/server/CMakeFiles/pb_remote_server_nrf52840_xxAA_s140_6.0.0.dir/__/__/__/mesh/core/src/core_tx_adv.c.obj
 .text.mesh_opt_core_adv_addr_get
                0x00000000       0x24 examples/pb_remote/server/CMakeFiles/pb_remote_server_nrf52840_xxAA_s140_6.0.0.dir/__/__/__/mesh/core/src/core_tx_adv.c.obj
 .text.mesh_opt_core_adv_addr_delete
                0x00000000       0x24 examples/pb_remote/server/CMakeFiles/pb_remote_server_nrf52840_xxAA_s140_6.0.0.dir/__/__/__/mesh/core/src/core_tx_adv.c.obj
 .text.mesh_opt_core_tx_power_set
                0x00000000       0x2c examples/pb_remote/server/CMakeFiles/pb_remote_server_nrf52840_xxAA_s140_6.0.0.dir/__/__/__/mesh/core/src/core_tx_adv.c.obj
 .text.mesh_opt_core_tx_power_get
                0x00000000       0x24 examples/pb_remote/server/CMakeFiles/pb_remote_server_nrf52840_xxAA_s140_6.0.0.dir/__/__/__/mesh/core/src/core_tx_adv.c.obj
 .text.mesh_opt_core_tx_power_delete
                0x00000000       0x24 examples/pb_remote/server/CMakeFiles/pb_remote_server_nrf52840_xxAA_s140_6.0.0.dir/__/__/__/mesh/core/src/core_tx_adv.c.obj
 .text          0x00000000        0x0 examples/pb_remote/server/CMakeFiles/pb_remote_server_nrf52840_xxAA_s140_6.0.0.dir/__/__/__/mesh/bearer/src/ad_listener.c.obj
 .data          0x00000000        0x0 examples/pb_remote/server/CMakeFiles/pb_remote_server_nrf52840_xxAA_s140_6.0.0.dir/__/__/__/mesh/bearer/src/ad_listener.c.obj
 .bss           0x00000000        0x0 examples/pb_remote/server/CMakeFiles/pb_remote_server_nrf52840_xxAA_s140_6.0.0.dir/__/__/__/mesh/bearer/src/ad_listener.c.obj
 .text.ad_listener_unsubscribe
                0x00000000       0x6c examples/pb_remote/server/CMakeFiles/pb_remote_server_nrf52840_xxAA_s140_6.0.0.dir/__/__/__/mesh/bearer/src/ad_listener.c.obj
 .text          0x00000000        0x0 examples/pb_remote/server/CMakeFiles/pb_remote_server_nrf52840_xxAA_s140_6.0.0.dir/__/__/__/mesh/bearer/src/ad_type_filter.c.obj
 .data          0x00000000        0x0 examples/pb_remote/server/CMakeFiles/pb_remote_server_nrf52840_xxAA_s140_6.0.0.dir/__/__/__/mesh/bearer/src/ad_type_filter.c.obj
 .bss           0x00000000        0x0 examples/pb_remote/server/CMakeFiles/pb_remote_server_nrf52840_xxAA_s140_6.0.0.dir/__/__/__/mesh/bearer/src/ad_type_filter.c.obj
 .text.bearer_adtype_remove
                0x00000000       0x20 examples/pb_remote/server/CMakeFiles/pb_remote_server_nrf52840_xxAA_s140_6.0.0.dir/__/__/__/mesh/bearer/src/ad_type_filter.c.obj
 .text.bearer_adtype_clear
                0x00000000       0x10 examples/pb_remote/server/CMakeFiles/pb_remote_server_nrf52840_xxAA_s140_6.0.0.dir/__/__/__/mesh/bearer/src/ad_type_filter.c.obj
 .text.bearer_invalid_length_amount_get
                0x00000000        0xc examples/pb_remote/server/CMakeFiles/pb_remote_server_nrf52840_xxAA_s140_6.0.0.dir/__/__/__/mesh/bearer/src/ad_type_filter.c.obj
 .text.bearer_adtype_filtered_amount_get
                0x00000000        0xc examples/pb_remote/server/CMakeFiles/pb_remote_server_nrf52840_xxAA_s140_6.0.0.dir/__/__/__/mesh/bearer/src/ad_type_filter.c.obj
 .text          0x00000000        0x0 examples/pb_remote/server/CMakeFiles/pb_remote_server_nrf52840_xxAA_s140_6.0.0.dir/__/__/__/mesh/bearer/src/adv_packet_filter.c.obj
 .data          0x00000000        0x0 examples/pb_remote/server/CMakeFiles/pb_remote_server_nrf52840_xxAA_s140_6.0.0.dir/__/__/__/mesh/bearer/src/adv_packet_filter.c.obj
 .bss           0x00000000        0x0 examples/pb_remote/server/CMakeFiles/pb_remote_server_nrf52840_xxAA_s140_6.0.0.dir/__/__/__/mesh/bearer/src/adv_packet_filter.c.obj
 .text.adv_filter_handle
                0x00000000       0x3c examples/pb_remote/server/CMakeFiles/pb_remote_server_nrf52840_xxAA_s140_6.0.0.dir/__/__/__/mesh/bearer/src/adv_packet_filter.c.obj
 .text.bearer_adv_packet_filtering_set
                0x00000000       0x1c examples/pb_remote/server/CMakeFiles/pb_remote_server_nrf52840_xxAA_s140_6.0.0.dir/__/__/__/mesh/bearer/src/adv_packet_filter.c.obj
 .text.bearer_adv_packet_remove
                0x00000000       0x18 examples/pb_remote/server/CMakeFiles/pb_remote_server_nrf52840_xxAA_s140_6.0.0.dir/__/__/__/mesh/bearer/src/adv_packet_filter.c.obj
 .text.bearer_adv_packet_add
                0x00000000       0x14 examples/pb_remote/server/CMakeFiles/pb_remote_server_nrf52840_xxAA_s140_6.0.0.dir/__/__/__/mesh/bearer/src/adv_packet_filter.c.obj
 .text.bearer_adv_packet_clear
                0x00000000        0xc examples/pb_remote/server/CMakeFiles/pb_remote_server_nrf52840_xxAA_s140_6.0.0.dir/__/__/__/mesh/bearer/src/adv_packet_filter.c.obj
 .text.bearer_adv_packet_filter_mode_set
                0x00000000       0x18 examples/pb_remote/server/CMakeFiles/pb_remote_server_nrf52840_xxAA_s140_6.0.0.dir/__/__/__/mesh/bearer/src/adv_packet_filter.c.obj
 .text.bearer_adv_packet_filtered_amount_get
                0x00000000        0xc examples/pb_remote/server/CMakeFiles/pb_remote_server_nrf52840_xxAA_s140_6.0.0.dir/__/__/__/mesh/bearer/src/adv_packet_filter.c.obj
 .bss.m_adv_packet_filter
                0x00000000       0x14 examples/pb_remote/server/CMakeFiles/pb_remote_server_nrf52840_xxAA_s140_6.0.0.dir/__/__/__/mesh/bearer/src/adv_packet_filter.c.obj
 .debug_info    0x00000000      0xdc3 examples/pb_remote/server/CMakeFiles/pb_remote_server_nrf52840_xxAA_s140_6.0.0.dir/__/__/__/mesh/bearer/src/adv_packet_filter.c.obj
 .debug_abbrev  0x00000000      0x2c9 examples/pb_remote/server/CMakeFiles/pb_remote_server_nrf52840_xxAA_s140_6.0.0.dir/__/__/__/mesh/bearer/src/adv_packet_filter.c.obj
 .debug_loc     0x00000000      0x1c0 examples/pb_remote/server/CMakeFiles/pb_remote_server_nrf52840_xxAA_s140_6.0.0.dir/__/__/__/mesh/bearer/src/adv_packet_filter.c.obj
 .debug_aranges
                0x00000000       0x50 examples/pb_remote/server/CMakeFiles/pb_remote_server_nrf52840_xxAA_s140_6.0.0.dir/__/__/__/mesh/bearer/src/adv_packet_filter.c.obj
 .debug_ranges  0x00000000       0x40 examples/pb_remote/server/CMakeFiles/pb_remote_server_nrf52840_xxAA_s140_6.0.0.dir/__/__/__/mesh/bearer/src/adv_packet_filter.c.obj
 .debug_line    0x00000000      0x3a0 examples/pb_remote/server/CMakeFiles/pb_remote_server_nrf52840_xxAA_s140_6.0.0.dir/__/__/__/mesh/bearer/src/adv_packet_filter.c.obj
 .debug_str     0x00000000      0xa55 examples/pb_remote/server/CMakeFiles/pb_remote_server_nrf52840_xxAA_s140_6.0.0.dir/__/__/__/mesh/bearer/src/adv_packet_filter.c.obj
 .comment       0x00000000       0x80 examples/pb_remote/server/CMakeFiles/pb_remote_server_nrf52840_xxAA_s140_6.0.0.dir/__/__/__/mesh/bearer/src/adv_packet_filter.c.obj
 .debug_frame   0x00000000       0x88 examples/pb_remote/server/CMakeFiles/pb_remote_server_nrf52840_xxAA_s140_6.0.0.dir/__/__/__/mesh/bearer/src/adv_packet_filter.c.obj
 .ARM.attributes
                0x00000000       0x39 examples/pb_remote/server/CMakeFiles/pb_remote_server_nrf52840_xxAA_s140_6.0.0.dir/__/__/__/mesh/bearer/src/adv_packet_filter.c.obj
 .text          0x00000000        0x0 examples/pb_remote/server/CMakeFiles/pb_remote_server_nrf52840_xxAA_s140_6.0.0.dir/__/__/__/mesh/bearer/src/advertiser.c.obj
 .data          0x00000000        0x0 examples/pb_remote/server/CMakeFiles/pb_remote_server_nrf52840_xxAA_s140_6.0.0.dir/__/__/__/mesh/bearer/src/advertiser.c.obj
 .bss           0x00000000        0x0 examples/pb_remote/server/CMakeFiles/pb_remote_server_nrf52840_xxAA_s140_6.0.0.dir/__/__/__/mesh/bearer/src/advertiser.c.obj
 .text.advertiser_channels_set
                0x00000000       0x60 examples/pb_remote/server/CMakeFiles/pb_remote_server_nrf52840_xxAA_s140_6.0.0.dir/__/__/__/mesh/bearer/src/advertiser.c.obj
 .text.advertiser_config_set
                0x00000000       0x3a examples/pb_remote/server/CMakeFiles/pb_remote_server_nrf52840_xxAA_s140_6.0.0.dir/__/__/__/mesh/bearer/src/advertiser.c.obj
 .text.advertiser_config_get
                0x00000000       0x20 examples/pb_remote/server/CMakeFiles/pb_remote_server_nrf52840_xxAA_s140_6.0.0.dir/__/__/__/mesh/bearer/src/advertiser.c.obj
 .text          0x00000000        0x0 examples/pb_remote/server/CMakeFiles/pb_remote_server_nrf52840_xxAA_s140_6.0.0.dir/__/__/__/mesh/bearer/src/bearer_handler.c.obj
 .data          0x00000000        0x0 examples/pb_remote/server/CMakeFiles/pb_remote_server_nrf52840_xxAA_s140_6.0.0.dir/__/__/__/mesh/bearer/src/bearer_handler.c.obj
 .bss           0x00000000        0x0 examples/pb_remote/server/CMakeFiles/pb_remote_server_nrf52840_xxAA_s140_6.0.0.dir/__/__/__/mesh/bearer/src/bearer_handler.c.obj
 .text.bearer_handler_stop
                0x00000000       0x20 examples/pb_remote/server/CMakeFiles/pb_remote_server_nrf52840_xxAA_s140_6.0.0.dir/__/__/__/mesh/bearer/src/bearer_handler.c.obj
 .text.bearer_handler_action_fire
                0x00000000       0x9c examples/pb_remote/server/CMakeFiles/pb_remote_server_nrf52840_xxAA_s140_6.0.0.dir/__/__/__/mesh/bearer/src/bearer_handler.c.obj
 .text          0x00000000        0x0 examples/pb_remote/server/CMakeFiles/pb_remote_server_nrf52840_xxAA_s140_6.0.0.dir/__/__/__/mesh/bearer/src/broadcast.c.obj
 .data          0x00000000        0x0 examples/pb_remote/server/CMakeFiles/pb_remote_server_nrf52840_xxAA_s140_6.0.0.dir/__/__/__/mesh/bearer/src/broadcast.c.obj
 .bss           0x00000000        0x0 examples/pb_remote/server/CMakeFiles/pb_remote_server_nrf52840_xxAA_s140_6.0.0.dir/__/__/__/mesh/bearer/src/broadcast.c.obj
 .text          0x00000000        0x0 examples/pb_remote/server/CMakeFiles/pb_remote_server_nrf52840_xxAA_s140_6.0.0.dir/__/__/__/mesh/bearer/src/filter_engine.c.obj
 .data          0x00000000        0x0 examples/pb_remote/server/CMakeFiles/pb_remote_server_nrf52840_xxAA_s140_6.0.0.dir/__/__/__/mesh/bearer/src/filter_engine.c.obj
 .bss           0x00000000        0x0 examples/pb_remote/server/CMakeFiles/pb_remote_server_nrf52840_xxAA_s140_6.0.0.dir/__/__/__/mesh/bearer/src/filter_engine.c.obj
 .text.fen_accepted_amount_get
                0x00000000        0xc examples/pb_remote/server/CMakeFiles/pb_remote_server_nrf52840_xxAA_s140_6.0.0.dir/__/__/__/mesh/bearer/src/filter_engine.c.obj
 .text          0x00000000        0x0 examples/pb_remote/server/CMakeFiles/pb_remote_server_nrf52840_xxAA_s140_6.0.0.dir/__/__/__/mesh/bearer/src/gap_address_filter.c.obj
 .data          0x00000000        0x0 examples/pb_remote/server/CMakeFiles/pb_remote_server_nrf52840_xxAA_s140_6.0.0.dir/__/__/__/mesh/bearer/src/gap_address_filter.c.obj
 .bss           0x00000000        0x0 examples/pb_remote/server/CMakeFiles/pb_remote_server_nrf52840_xxAA_s140_6.0.0.dir/__/__/__/mesh/bearer/src/gap_address_filter.c.obj
 .text.gap_address_filter_handle
                0x00000000       0xa6 examples/pb_remote/server/CMakeFiles/pb_remote_server_nrf52840_xxAA_s140_6.0.0.dir/__/__/__/mesh/bearer/src/gap_address_filter.c.obj
 .text.gap_addr_filter_set
                0x00000000       0x40 examples/pb_remote/server/CMakeFiles/pb_remote_server_nrf52840_xxAA_s140_6.0.0.dir/__/__/__/mesh/bearer/src/gap_address_filter.c.obj
 .text.bearer_filter_gap_addr_whitelist_set
                0x00000000        0x6 examples/pb_remote/server/CMakeFiles/pb_remote_server_nrf52840_xxAA_s140_6.0.0.dir/__/__/__/mesh/bearer/src/gap_address_filter.c.obj
 .text.bearer_filter_gap_addr_blacklist_set
                0x00000000        0x6 examples/pb_remote/server/CMakeFiles/pb_remote_server_nrf52840_xxAA_s140_6.0.0.dir/__/__/__/mesh/bearer/src/gap_address_filter.c.obj
 .text.bearer_filter_gap_addr_range_set
                0x00000000       0x38 examples/pb_remote/server/CMakeFiles/pb_remote_server_nrf52840_xxAA_s140_6.0.0.dir/__/__/__/mesh/bearer/src/gap_address_filter.c.obj
 .text.bearer_filter_gap_addr_clear
                0x00000000       0x20 examples/pb_remote/server/CMakeFiles/pb_remote_server_nrf52840_xxAA_s140_6.0.0.dir/__/__/__/mesh/bearer/src/gap_address_filter.c.obj
 .text.bearer_gap_addr_filtered_amount_get
                0x00000000        0xc examples/pb_remote/server/CMakeFiles/pb_remote_server_nrf52840_xxAA_s140_6.0.0.dir/__/__/__/mesh/bearer/src/gap_address_filter.c.obj
 .bss.m_addr_filter
                0x00000000       0x18 examples/pb_remote/server/CMakeFiles/pb_remote_server_nrf52840_xxAA_s140_6.0.0.dir/__/__/__/mesh/bearer/src/gap_address_filter.c.obj
 .debug_info    0x00000000      0xee7 examples/pb_remote/server/CMakeFiles/pb_remote_server_nrf52840_xxAA_s140_6.0.0.dir/__/__/__/mesh/bearer/src/gap_address_filter.c.obj
 .debug_abbrev  0x00000000      0x2f4 examples/pb_remote/server/CMakeFiles/pb_remote_server_nrf52840_xxAA_s140_6.0.0.dir/__/__/__/mesh/bearer/src/gap_address_filter.c.obj
 .debug_loc     0x00000000      0x3e8 examples/pb_remote/server/CMakeFiles/pb_remote_server_nrf52840_xxAA_s140_6.0.0.dir/__/__/__/mesh/bearer/src/gap_address_filter.c.obj
 .debug_aranges
                0x00000000       0x50 examples/pb_remote/server/CMakeFiles/pb_remote_server_nrf52840_xxAA_s140_6.0.0.dir/__/__/__/mesh/bearer/src/gap_address_filter.c.obj
 .debug_ranges  0x00000000       0x58 examples/pb_remote/server/CMakeFiles/pb_remote_server_nrf52840_xxAA_s140_6.0.0.dir/__/__/__/mesh/bearer/src/gap_address_filter.c.obj
 .debug_line    0x00000000      0x3f3 examples/pb_remote/server/CMakeFiles/pb_remote_server_nrf52840_xxAA_s140_6.0.0.dir/__/__/__/mesh/bearer/src/gap_address_filter.c.obj
 .debug_str     0x00000000      0x9af examples/pb_remote/server/CMakeFiles/pb_remote_server_nrf52840_xxAA_s140_6.0.0.dir/__/__/__/mesh/bearer/src/gap_address_filter.c.obj
 .comment       0x00000000       0x80 examples/pb_remote/server/CMakeFiles/pb_remote_server_nrf52840_xxAA_s140_6.0.0.dir/__/__/__/mesh/bearer/src/gap_address_filter.c.obj
 .debug_frame   0x00000000       0xb4 examples/pb_remote/server/CMakeFiles/pb_remote_server_nrf52840_xxAA_s140_6.0.0.dir/__/__/__/mesh/bearer/src/gap_address_filter.c.obj
 .ARM.attributes
                0x00000000       0x39 examples/pb_remote/server/CMakeFiles/pb_remote_server_nrf52840_xxAA_s140_6.0.0.dir/__/__/__/mesh/bearer/src/gap_address_filter.c.obj
 .text          0x00000000        0x0 examples/pb_remote/server/CMakeFiles/pb_remote_server_nrf52840_xxAA_s140_6.0.0.dir/__/__/__/mesh/bearer/src/radio_config.c.obj
 .data          0x00000000        0x0 examples/pb_remote/server/CMakeFiles/pb_remote_server_nrf52840_xxAA_s140_6.0.0.dir/__/__/__/mesh/bearer/src/radio_config.c.obj
 .bss           0x00000000        0x0 examples/pb_remote/server/CMakeFiles/pb_remote_server_nrf52840_xxAA_s140_6.0.0.dir/__/__/__/mesh/bearer/src/radio_config.c.obj
 .text.radio_config_access_addr_get
                0x00000000       0x4c examples/pb_remote/server/CMakeFiles/pb_remote_server_nrf52840_xxAA_s140_6.0.0.dir/__/__/__/mesh/bearer/src/radio_config.c.obj
 .text          0x00000000        0x0 examples/pb_remote/server/CMakeFiles/pb_remote_server_nrf52840_xxAA_s140_6.0.0.dir/__/__/__/mesh/bearer/src/rssi_filter.c.obj
 .data          0x00000000        0x0 examples/pb_remote/server/CMakeFiles/pb_remote_server_nrf52840_xxAA_s140_6.0.0.dir/__/__/__/mesh/bearer/src/rssi_filter.c.obj
 .bss           0x00000000        0x0 examples/pb_remote/server/CMakeFiles/pb_remote_server_nrf52840_xxAA_s140_6.0.0.dir/__/__/__/mesh/bearer/src/rssi_filter.c.obj
 .text.rssi_filter_handle
                0x00000000       0x20 examples/pb_remote/server/CMakeFiles/pb_remote_server_nrf52840_xxAA_s140_6.0.0.dir/__/__/__/mesh/bearer/src/rssi_filter.c.obj
 .text.bearer_rssi_filtering_set
                0x00000000       0x34 examples/pb_remote/server/CMakeFiles/pb_remote_server_nrf52840_xxAA_s140_6.0.0.dir/__/__/__/mesh/bearer/src/rssi_filter.c.obj
 .text.bearer_rssi_filtered_amount_get
                0x00000000        0xc examples/pb_remote/server/CMakeFiles/pb_remote_server_nrf52840_xxAA_s140_6.0.0.dir/__/__/__/mesh/bearer/src/rssi_filter.c.obj
 .bss.m_rssi_filter
                0x00000000       0x18 examples/pb_remote/server/CMakeFiles/pb_remote_server_nrf52840_xxAA_s140_6.0.0.dir/__/__/__/mesh/bearer/src/rssi_filter.c.obj
 .debug_info    0x00000000      0xc9f examples/pb_remote/server/CMakeFiles/pb_remote_server_nrf52840_xxAA_s140_6.0.0.dir/__/__/__/mesh/bearer/src/rssi_filter.c.obj
 .debug_abbrev  0x00000000      0x28e examples/pb_remote/server/CMakeFiles/pb_remote_server_nrf52840_xxAA_s140_6.0.0.dir/__/__/__/mesh/bearer/src/rssi_filter.c.obj
 .debug_loc     0x00000000       0xb3 examples/pb_remote/server/CMakeFiles/pb_remote_server_nrf52840_xxAA_s140_6.0.0.dir/__/__/__/mesh/bearer/src/rssi_filter.c.obj
 .debug_aranges
                0x00000000       0x30 examples/pb_remote/server/CMakeFiles/pb_remote_server_nrf52840_xxAA_s140_6.0.0.dir/__/__/__/mesh/bearer/src/rssi_filter.c.obj
 .debug_ranges  0x00000000       0x20 examples/pb_remote/server/CMakeFiles/pb_remote_server_nrf52840_xxAA_s140_6.0.0.dir/__/__/__/mesh/bearer/src/rssi_filter.c.obj
 .debug_line    0x00000000      0x315 examples/pb_remote/server/CMakeFiles/pb_remote_server_nrf52840_xxAA_s140_6.0.0.dir/__/__/__/mesh/bearer/src/rssi_filter.c.obj
 .debug_str     0x00000000      0x86a examples/pb_remote/server/CMakeFiles/pb_remote_server_nrf52840_xxAA_s140_6.0.0.dir/__/__/__/mesh/bearer/src/rssi_filter.c.obj
 .comment       0x00000000       0x80 examples/pb_remote/server/CMakeFiles/pb_remote_server_nrf52840_xxAA_s140_6.0.0.dir/__/__/__/mesh/bearer/src/rssi_filter.c.obj
 .debug_frame   0x00000000       0x54 examples/pb_remote/server/CMakeFiles/pb_remote_server_nrf52840_xxAA_s140_6.0.0.dir/__/__/__/mesh/bearer/src/rssi_filter.c.obj
 .ARM.attributes
                0x00000000       0x39 examples/pb_remote/server/CMakeFiles/pb_remote_server_nrf52840_xxAA_s140_6.0.0.dir/__/__/__/mesh/bearer/src/rssi_filter.c.obj
 .text          0x00000000        0x0 examples/pb_remote/server/CMakeFiles/pb_remote_server_nrf52840_xxAA_s140_6.0.0.dir/__/__/__/mesh/bearer/src/scanner.c.obj
 .data          0x00000000        0x0 examples/pb_remote/server/CMakeFiles/pb_remote_server_nrf52840_xxAA_s140_6.0.0.dir/__/__/__/mesh/bearer/src/scanner.c.obj
 .bss           0x00000000        0x0 examples/pb_remote/server/CMakeFiles/pb_remote_server_nrf52840_xxAA_s140_6.0.0.dir/__/__/__/mesh/bearer/src/scanner.c.obj
 .text.scanner_rx_callback_set
                0x00000000       0x20 examples/pb_remote/server/CMakeFiles/pb_remote_server_nrf52840_xxAA_s140_6.0.0.dir/__/__/__/mesh/bearer/src/scanner.c.obj
 .text.scanner_disable
                0x00000000       0x3c examples/pb_remote/server/CMakeFiles/pb_remote_server_nrf52840_xxAA_s140_6.0.0.dir/__/__/__/mesh/bearer/src/scanner.c.obj
 .text.scanner_is_enabled
                0x00000000       0x10 examples/pb_remote/server/CMakeFiles/pb_remote_server_nrf52840_xxAA_s140_6.0.0.dir/__/__/__/mesh/bearer/src/scanner.c.obj
 .text.scanner_stats_get
                0x00000000        0x8 examples/pb_remote/server/CMakeFiles/pb_remote_server_nrf52840_xxAA_s140_6.0.0.dir/__/__/__/mesh/bearer/src/scanner.c.obj
 .text.scanner_config_radio_mode_set
                0x00000000       0x10 examples/pb_remote/server/CMakeFiles/pb_remote_server_nrf52840_xxAA_s140_6.0.0.dir/__/__/__/mesh/bearer/src/scanner.c.obj
 .text          0x00000000        0x0 examples/pb_remote/server/CMakeFiles/pb_remote_server_nrf52840_xxAA_s140_6.0.0.dir/__/__/__/mesh/bearer/src/mesh_pa_lna.c.obj
 .data          0x00000000        0x0 examples/pb_remote/server/CMakeFiles/pb_remote_server_nrf52840_xxAA_s140_6.0.0.dir/__/__/__/mesh/bearer/src/mesh_pa_lna.c.obj
 .bss           0x00000000        0x0 examples/pb_remote/server/CMakeFiles/pb_remote_server_nrf52840_xxAA_s140_6.0.0.dir/__/__/__/mesh/bearer/src/mesh_pa_lna.c.obj
 .text.unlikely.pin_init
                0x00000000       0x32 examples/pb_remote/server/CMakeFiles/pb_remote_server_nrf52840_xxAA_s140_6.0.0.dir/__/__/__/mesh/bearer/src/mesh_pa_lna.c.obj
 .text.mesh_pa_lna_gpiote_enable
                0x00000000       0x68 examples/pb_remote/server/CMakeFiles/pb_remote_server_nrf52840_xxAA_s140_6.0.0.dir/__/__/__/mesh/bearer/src/mesh_pa_lna.c.obj
 .text.mesh_pa_lna_gpiote_params_get
                0x00000000       0x10 examples/pb_remote/server/CMakeFiles/pb_remote_server_nrf52840_xxAA_s140_6.0.0.dir/__/__/__/mesh/bearer/src/mesh_pa_lna.c.obj
 .text.mesh_pa_lna_gpiote_disable
                0x00000000       0x20 examples/pb_remote/server/CMakeFiles/pb_remote_server_nrf52840_xxAA_s140_6.0.0.dir/__/__/__/mesh/bearer/src/mesh_pa_lna.c.obj
 .text          0x00000000        0x0 examples/pb_remote/server/CMakeFiles/pb_remote_server_nrf52840_xxAA_s140_6.0.0.dir/__/__/__/mesh/prov/src/prov_provisionee.c.obj
 .data          0x00000000        0x0 examples/pb_remote/server/CMakeFiles/pb_remote_server_nrf52840_xxAA_s140_6.0.0.dir/__/__/__/mesh/prov/src/prov_provisionee.c.obj
 .bss           0x00000000        0x0 examples/pb_remote/server/CMakeFiles/pb_remote_server_nrf52840_xxAA_s140_6.0.0.dir/__/__/__/mesh/prov/src/prov_provisionee.c.obj
 .text.prov_provisionee_shared_secret
                0x00000000       0x28 examples/pb_remote/server/CMakeFiles/pb_remote_server_nrf52840_xxAA_s140_6.0.0.dir/__/__/__/mesh/prov/src/prov_provisionee.c.obj
 .text          0x00000000        0x0 examples/pb_remote/server/CMakeFiles/pb_remote_server_nrf52840_xxAA_s140_6.0.0.dir/__/__/__/mesh/prov/src/nrf_mesh_prov.c.obj
 .data          0x00000000        0x0 examples/pb_remote/server/CMakeFiles/pb_remote_server_nrf52840_xxAA_s140_6.0.0.dir/__/__/__/mesh/prov/src/nrf_mesh_prov.c.obj
 .bss           0x00000000        0x0 examples/pb_remote/server/CMakeFiles/pb_remote_server_nrf52840_xxAA_s140_6.0.0.dir/__/__/__/mesh/prov/src/nrf_mesh_prov.c.obj
 .text.nrf_mesh_prov_provision
                0x00000000       0x4e examples/pb_remote/server/CMakeFiles/pb_remote_server_nrf52840_xxAA_s140_6.0.0.dir/__/__/__/mesh/prov/src/nrf_mesh_prov.c.obj
 .text.nrf_mesh_prov_oob_use
                0x00000000       0x18 examples/pb_remote/server/CMakeFiles/pb_remote_server_nrf52840_xxAA_s140_6.0.0.dir/__/__/__/mesh/prov/src/nrf_mesh_prov.c.obj
 .text.nrf_mesh_prov_shared_secret_provide
                0x00000000        0xe examples/pb_remote/server/CMakeFiles/pb_remote_server_nrf52840_xxAA_s140_6.0.0.dir/__/__/__/mesh/prov/src/nrf_mesh_prov.c.obj
 .text.nrf_mesh_prov_pubkey_provide
                0x00000000       0x10 examples/pb_remote/server/CMakeFiles/pb_remote_server_nrf52840_xxAA_s140_6.0.0.dir/__/__/__/mesh/prov/src/nrf_mesh_prov.c.obj
 .text          0x00000000        0x0 examples/pb_remote/server/CMakeFiles/pb_remote_server_nrf52840_xxAA_s140_6.0.0.dir/__/__/__/mesh/prov/src/provisioning.c.obj
 .data          0x00000000        0x0 examples/pb_remote/server/CMakeFiles/pb_remote_server_nrf52840_xxAA_s140_6.0.0.dir/__/__/__/mesh/prov/src/provisioning.c.obj
 .bss           0x00000000        0x0 examples/pb_remote/server/CMakeFiles/pb_remote_server_nrf52840_xxAA_s140_6.0.0.dir/__/__/__/mesh/prov/src/provisioning.c.obj
 .text.prov_tx_invite
                0x00000000       0x28 examples/pb_remote/server/CMakeFiles/pb_remote_server_nrf52840_xxAA_s140_6.0.0.dir/__/__/__/mesh/prov/src/provisioning.c.obj
 .text.prov_tx_start
                0x00000000       0x20 examples/pb_remote/server/CMakeFiles/pb_remote_server_nrf52840_xxAA_s140_6.0.0.dir/__/__/__/mesh/prov/src/provisioning.c.obj
 .text.prov_tx_data
                0x00000000        0x6 examples/pb_remote/server/CMakeFiles/pb_remote_server_nrf52840_xxAA_s140_6.0.0.dir/__/__/__/mesh/prov/src/provisioning.c.obj
 .text.prov_tx  0x00000000        0x4 examples/pb_remote/server/CMakeFiles/pb_remote_server_nrf52840_xxAA_s140_6.0.0.dir/__/__/__/mesh/prov/src/provisioning.c.obj
 .text          0x00000000        0x0 examples/pb_remote/server/CMakeFiles/pb_remote_server_nrf52840_xxAA_s140_6.0.0.dir/__/__/__/mesh/prov/src/prov_beacon.c.obj
 .data          0x00000000        0x0 examples/pb_remote/server/CMakeFiles/pb_remote_server_nrf52840_xxAA_s140_6.0.0.dir/__/__/__/mesh/prov/src/prov_beacon.c.obj
 .bss           0x00000000        0x0 examples/pb_remote/server/CMakeFiles/pb_remote_server_nrf52840_xxAA_s140_6.0.0.dir/__/__/__/mesh/prov/src/prov_beacon.c.obj
 .text          0x00000000        0x0 examples/pb_remote/server/CMakeFiles/pb_remote_server_nrf52840_xxAA_s140_6.0.0.dir/__/__/__/mesh/prov/src/prov_utils.c.obj
 .data          0x00000000        0x0 examples/pb_remote/server/CMakeFiles/pb_remote_server_nrf52840_xxAA_s140_6.0.0.dir/__/__/__/mesh/prov/src/prov_utils.c.obj
 .bss           0x00000000        0x0 examples/pb_remote/server/CMakeFiles/pb_remote_server_nrf52840_xxAA_s140_6.0.0.dir/__/__/__/mesh/prov/src/prov_utils.c.obj
 .text.mesh_opt_prov_ecdh_offloading_set
                0x00000000       0x1c examples/pb_remote/server/CMakeFiles/pb_remote_server_nrf52840_xxAA_s140_6.0.0.dir/__/__/__/mesh/prov/src/prov_utils.c.obj
 .text.prov_utils_opt_set
                0x00000000       0x14 examples/pb_remote/server/CMakeFiles/pb_remote_server_nrf52840_xxAA_s140_6.0.0.dir/__/__/__/mesh/prov/src/prov_utils.c.obj
 .text.prov_utils_opt_get
                0x00000000       0x14 examples/pb_remote/server/CMakeFiles/pb_remote_server_nrf52840_xxAA_s140_6.0.0.dir/__/__/__/mesh/prov/src/prov_utils.c.obj
 .text          0x00000000        0x0 examples/pb_remote/server/CMakeFiles/pb_remote_server_nrf52840_xxAA_s140_6.0.0.dir/__/__/__/mesh/prov/src/prov_bearer_adv.c.obj
 .data          0x00000000        0x0 examples/pb_remote/server/CMakeFiles/pb_remote_server_nrf52840_xxAA_s140_6.0.0.dir/__/__/__/mesh/prov/src/prov_bearer_adv.c.obj
 .bss           0x00000000        0x0 examples/pb_remote/server/CMakeFiles/pb_remote_server_nrf52840_xxAA_s140_6.0.0.dir/__/__/__/mesh/prov/src/prov_bearer_adv.c.obj
 .text          0x00000000        0x0 examples/pb_remote/server/CMakeFiles/pb_remote_server_nrf52840_xxAA_s140_6.0.0.dir/__/__/__/models/experimental/pb_remote/src/pb_remote_server.c.obj
 .data          0x00000000        0x0 examples/pb_remote/server/CMakeFiles/pb_remote_server_nrf52840_xxAA_s140_6.0.0.dir/__/__/__/models/experimental/pb_remote/src/pb_remote_server.c.obj
 .bss           0x00000000        0x0 examples/pb_remote/server/CMakeFiles/pb_remote_server_nrf52840_xxAA_s140_6.0.0.dir/__/__/__/models/experimental/pb_remote/src/pb_remote_server.c.obj
 .text.pb_remote_server_disable
                0x00000000        0xa examples/pb_remote/server/CMakeFiles/pb_remote_server_nrf52840_xxAA_s140_6.0.0.dir/__/__/__/models/experimental/pb_remote/src/pb_remote_server.c.obj
 .text.pb_remote_server_return_to_scan_set
                0x00000000        0xe examples/pb_remote/server/CMakeFiles/pb_remote_server_nrf52840_xxAA_s140_6.0.0.dir/__/__/__/models/experimental/pb_remote/src/pb_remote_server.c.obj
 .text          0x00000000        0x0 examples/pb_remote/server/CMakeFiles/pb_remote_server_nrf52840_xxAA_s140_6.0.0.dir/__/__/__/mesh/access/src/access_publish.c.obj
 .data          0x00000000        0x0 examples/pb_remote/server/CMakeFiles/pb_remote_server_nrf52840_xxAA_s140_6.0.0.dir/__/__/__/mesh/access/src/access_publish.c.obj
 .bss           0x00000000        0x0 examples/pb_remote/server/CMakeFiles/pb_remote_server_nrf52840_xxAA_s140_6.0.0.dir/__/__/__/mesh/access/src/access_publish.c.obj
 .text          0x00000000        0x0 examples/pb_remote/server/CMakeFiles/pb_remote_server_nrf52840_xxAA_s140_6.0.0.dir/__/__/__/mesh/access/src/access.c.obj
 .data          0x00000000        0x0 examples/pb_remote/server/CMakeFiles/pb_remote_server_nrf52840_xxAA_s140_6.0.0.dir/__/__/__/mesh/access/src/access.c.obj
 .bss           0x00000000        0x0 examples/pb_remote/server/CMakeFiles/pb_remote_server_nrf52840_xxAA_s140_6.0.0.dir/__/__/__/mesh/access/src/access.c.obj
 .text.access_model_element_index_get
                0x00000000       0x28 examples/pb_remote/server/CMakeFiles/pb_remote_server_nrf52840_xxAA_s140_6.0.0.dir/__/__/__/mesh/access/src/access.c.obj
 .text.access_model_subscription_list_alloc
                0x00000000       0x54 examples/pb_remote/server/CMakeFiles/pb_remote_server_nrf52840_xxAA_s140_6.0.0.dir/__/__/__/mesh/access/src/access.c.obj
 .text.access_model_subscription_lists_share
                0x00000000       0x4c examples/pb_remote/server/CMakeFiles/pb_remote_server_nrf52840_xxAA_s140_6.0.0.dir/__/__/__/mesh/access/src/access.c.obj
 .text.access_element_location_set
                0x00000000       0x20 examples/pb_remote/server/CMakeFiles/pb_remote_server_nrf52840_xxAA_s140_6.0.0.dir/__/__/__/mesh/access/src/access.c.obj
 .text          0x00000000        0x0 examples/pb_remote/server/CMakeFiles/pb_remote_server_nrf52840_xxAA_s140_6.0.0.dir/__/__/__/mesh/access/src/access_reliable.c.obj
 .data          0x00000000        0x0 examples/pb_remote/server/CMakeFiles/pb_remote_server_nrf52840_xxAA_s140_6.0.0.dir/__/__/__/mesh/access/src/access_reliable.c.obj
 .bss           0x00000000        0x0 examples/pb_remote/server/CMakeFiles/pb_remote_server_nrf52840_xxAA_s140_6.0.0.dir/__/__/__/mesh/access/src/access_reliable.c.obj
 .text.access_reliable_model_is_free
                0x00000000       0x28 examples/pb_remote/server/CMakeFiles/pb_remote_server_nrf52840_xxAA_s140_6.0.0.dir/__/__/__/mesh/access/src/access_reliable.c.obj
 .text          0x00000000        0x0 examples/pb_remote/server/CMakeFiles/pb_remote_server_nrf52840_xxAA_s140_6.0.0.dir/__/__/__/mesh/access/src/access_loopback.c.obj
 .data          0x00000000        0x0 examples/pb_remote/server/CMakeFiles/pb_remote_server_nrf52840_xxAA_s140_6.0.0.dir/__/__/__/mesh/access/src/access_loopback.c.obj
 .bss           0x00000000        0x0 examples/pb_remote/server/CMakeFiles/pb_remote_server_nrf52840_xxAA_s140_6.0.0.dir/__/__/__/mesh/access/src/access_loopback.c.obj
 .text          0x00000000        0x0 examples/pb_remote/server/CMakeFiles/pb_remote_server_nrf52840_xxAA_s140_6.0.0.dir/__/__/__/mesh/access/src/device_state_manager.c.obj
 .data          0x00000000        0x0 examples/pb_remote/server/CMakeFiles/pb_remote_server_nrf52840_xxAA_s140_6.0.0.dir/__/__/__/mesh/access/src/device_state_manager.c.obj
 .bss           0x00000000        0x0 examples/pb_remote/server/CMakeFiles/pb_remote_server_nrf52840_xxAA_s140_6.0.0.dir/__/__/__/mesh/access/src/device_state_manager.c.obj
 .text.dsm_has_unflashed_data
                0x00000000       0x24 examples/pb_remote/server/CMakeFiles/pb_remote_server_nrf52840_xxAA_s140_6.0.0.dir/__/__/__/mesh/access/src/device_state_manager.c.obj
 .text.dsm_address_subscription_get
                0x00000000       0x34 examples/pb_remote/server/CMakeFiles/pb_remote_server_nrf52840_xxAA_s140_6.0.0.dir/__/__/__/mesh/access/src/device_state_manager.c.obj
 .text.dsm_address_subscription_count_get
                0x00000000       0x58 examples/pb_remote/server/CMakeFiles/pb_remote_server_nrf52840_xxAA_s140_6.0.0.dir/__/__/__/mesh/access/src/device_state_manager.c.obj
 .text.dsm_address_get_all
                0x00000000       0x64 examples/pb_remote/server/CMakeFiles/pb_remote_server_nrf52840_xxAA_s140_6.0.0.dir/__/__/__/mesh/access/src/device_state_manager.c.obj
 .text.dsm_subnet_handle_to_netkey_index
                0x00000000       0x30 examples/pb_remote/server/CMakeFiles/pb_remote_server_nrf52840_xxAA_s140_6.0.0.dir/__/__/__/mesh/access/src/device_state_manager.c.obj
 .text.dsm_subnet_key_get
                0x00000000       0x44 examples/pb_remote/server/CMakeFiles/pb_remote_server_nrf52840_xxAA_s140_6.0.0.dir/__/__/__/mesh/access/src/device_state_manager.c.obj
 .text.dsm_devkey_delete
                0x00000000       0x38 examples/pb_remote/server/CMakeFiles/pb_remote_server_nrf52840_xxAA_s140_6.0.0.dir/__/__/__/mesh/access/src/device_state_manager.c.obj
 .text.dsm_devkey_handle_get
                0x00000000       0x34 examples/pb_remote/server/CMakeFiles/pb_remote_server_nrf52840_xxAA_s140_6.0.0.dir/__/__/__/mesh/access/src/device_state_manager.c.obj
 .text.dsm_beacon_info_get
                0x00000000       0x2c examples/pb_remote/server/CMakeFiles/pb_remote_server_nrf52840_xxAA_s140_6.0.0.dir/__/__/__/mesh/access/src/device_state_manager.c.obj
 .text          0x00000000        0x0 examples/pb_remote/server/CMakeFiles/pb_remote_server_nrf52840_xxAA_s140_6.0.0.dir/__/__/__/models/foundation/config/src/composition_data.c.obj
 .data          0x00000000        0x0 examples/pb_remote/server/CMakeFiles/pb_remote_server_nrf52840_xxAA_s140_6.0.0.dir/__/__/__/models/foundation/config/src/composition_data.c.obj
 .bss           0x00000000        0x0 examples/pb_remote/server/CMakeFiles/pb_remote_server_nrf52840_xxAA_s140_6.0.0.dir/__/__/__/models/foundation/config/src/composition_data.c.obj
 .text          0x00000000        0x0 examples/pb_remote/server/CMakeFiles/pb_remote_server_nrf52840_xxAA_s140_6.0.0.dir/__/__/__/models/foundation/config/src/config_server.c.obj
 .data          0x00000000        0x0 examples/pb_remote/server/CMakeFiles/pb_remote_server_nrf52840_xxAA_s140_6.0.0.dir/__/__/__/models/foundation/config/src/config_server.c.obj
 .bss           0x00000000        0x0 examples/pb_remote/server/CMakeFiles/pb_remote_server_nrf52840_xxAA_s140_6.0.0.dir/__/__/__/models/foundation/config/src/config_server.c.obj
 .text          0x00000000        0x0 examples/pb_remote/server/CMakeFiles/pb_remote_server_nrf52840_xxAA_s140_6.0.0.dir/__/__/__/models/foundation/config/src/packed_index_list.c.obj
 .data          0x00000000        0x0 examples/pb_remote/server/CMakeFiles/pb_remote_server_nrf52840_xxAA_s140_6.0.0.dir/__/__/__/models/foundation/config/src/packed_index_list.c.obj
 .bss           0x00000000        0x0 examples/pb_remote/server/CMakeFiles/pb_remote_server_nrf52840_xxAA_s140_6.0.0.dir/__/__/__/models/foundation/config/src/packed_index_list.c.obj
 .text          0x00000000        0x0 examples/pb_remote/server/CMakeFiles/pb_remote_server_nrf52840_xxAA_s140_6.0.0.dir/__/__/__/models/foundation/health/src/health_server.c.obj
 .data          0x00000000        0x0 examples/pb_remote/server/CMakeFiles/pb_remote_server_nrf52840_xxAA_s140_6.0.0.dir/__/__/__/models/foundation/health/src/health_server.c.obj
 .bss           0x00000000        0x0 examples/pb_remote/server/CMakeFiles/pb_remote_server_nrf52840_xxAA_s140_6.0.0.dir/__/__/__/models/foundation/health/src/health_server.c.obj
 .text.health_server_fault_is_set
                0x00000000       0x1c examples/pb_remote/server/CMakeFiles/pb_remote_server_nrf52840_xxAA_s140_6.0.0.dir/__/__/__/models/foundation/health/src/health_server.c.obj
 .text.health_server_fault_count_get
                0x00000000        0xc examples/pb_remote/server/CMakeFiles/pb_remote_server_nrf52840_xxAA_s140_6.0.0.dir/__/__/__/models/foundation/health/src/health_server.c.obj
 .text.health_server_fault_register
                0x00000000       0xca examples/pb_remote/server/CMakeFiles/pb_remote_server_nrf52840_xxAA_s140_6.0.0.dir/__/__/__/models/foundation/health/src/health_server.c.obj
 .text.health_server_fault_clear
                0x00000000       0x48 examples/pb_remote/server/CMakeFiles/pb_remote_server_nrf52840_xxAA_s140_6.0.0.dir/__/__/__/models/foundation/health/src/health_server.c.obj
 .text.health_server_attention_get
                0x00000000        0x6 examples/pb_remote/server/CMakeFiles/pb_remote_server_nrf52840_xxAA_s140_6.0.0.dir/__/__/__/models/foundation/health/src/health_server.c.obj
 .text.health_server_attention_set
                0x00000000        0x4 examples/pb_remote/server/CMakeFiles/pb_remote_server_nrf52840_xxAA_s140_6.0.0.dir/__/__/__/models/foundation/health/src/health_server.c.obj
 .text          0x00000000        0x0 examples/pb_remote/server/CMakeFiles/pb_remote_server_nrf52840_xxAA_s140_6.0.0.dir/C_/sdks/nRF5_SDK_15.0.0_a53641a/modules/nrfx/mdk/system_nrf52840.c.obj
 .data          0x00000000        0x0 examples/pb_remote/server/CMakeFiles/pb_remote_server_nrf52840_xxAA_s140_6.0.0.dir/C_/sdks/nRF5_SDK_15.0.0_a53641a/modules/nrfx/mdk/system_nrf52840.c.obj
 .bss           0x00000000        0x0 examples/pb_remote/server/CMakeFiles/pb_remote_server_nrf52840_xxAA_s140_6.0.0.dir/C_/sdks/nRF5_SDK_15.0.0_a53641a/modules/nrfx/mdk/system_nrf52840.c.obj
 .text.SystemCoreClockUpdate
                0x00000000       0x10 examples/pb_remote/server/CMakeFiles/pb_remote_server_nrf52840_xxAA_s140_6.0.0.dir/C_/sdks/nRF5_SDK_15.0.0_a53641a/modules/nrfx/mdk/system_nrf52840.c.obj
 .data          0x00000000        0x0 examples/pb_remote/server/CMakeFiles/pb_remote_server_nrf52840_xxAA_s140_6.0.0.dir/C_/sdks/nRF5_SDK_15.0.0_a53641a/modules/nrfx/mdk/gcc_startup_nrf52840.S.obj
 .bss           0x00000000        0x0 examples/pb_remote/server/CMakeFiles/pb_remote_server_nrf52840_xxAA_s140_6.0.0.dir/C_/sdks/nRF5_SDK_15.0.0_a53641a/modules/nrfx/mdk/gcc_startup_nrf52840.S.obj
 .text          0x00000000        0x0 examples/pb_remote/server/CMakeFiles/pb_remote_server_nrf52840_xxAA_s140_6.0.0.dir/C_/sdks/nRF5_SDK_15.0.0_a53641a/components/libraries/util/app_error.c.obj
 .data          0x00000000        0x0 examples/pb_remote/server/CMakeFiles/pb_remote_server_nrf52840_xxAA_s140_6.0.0.dir/C_/sdks/nRF5_SDK_15.0.0_a53641a/components/libraries/util/app_error.c.obj
 .bss           0x00000000        0x0 examples/pb_remote/server/CMakeFiles/pb_remote_server_nrf52840_xxAA_s140_6.0.0.dir/C_/sdks/nRF5_SDK_15.0.0_a53641a/components/libraries/util/app_error.c.obj
 .text.app_error_save_and_stop
                0x00000000       0x58 examples/pb_remote/server/CMakeFiles/pb_remote_server_nrf52840_xxAA_s140_6.0.0.dir/C_/sdks/nRF5_SDK_15.0.0_a53641a/components/libraries/util/app_error.c.obj
 .bss.m_error_data.8119
                0x00000000       0x20 examples/pb_remote/server/CMakeFiles/pb_remote_server_nrf52840_xxAA_s140_6.0.0.dir/C_/sdks/nRF5_SDK_15.0.0_a53641a/components/libraries/util/app_error.c.obj
 .text          0x00000000        0x0 examples/pb_remote/server/CMakeFiles/pb_remote_server_nrf52840_xxAA_s140_6.0.0.dir/C_/sdks/nRF5_SDK_15.0.0_a53641a/components/libraries/util/app_util_platform.c.obj
 .data          0x00000000        0x0 examples/pb_remote/server/CMakeFiles/pb_remote_server_nrf52840_xxAA_s140_6.0.0.dir/C_/sdks/nRF5_SDK_15.0.0_a53641a/components/libraries/util/app_util_platform.c.obj
 .bss           0x00000000        0x0 examples/pb_remote/server/CMakeFiles/pb_remote_server_nrf52840_xxAA_s140_6.0.0.dir/C_/sdks/nRF5_SDK_15.0.0_a53641a/components/libraries/util/app_util_platform.c.obj
 .text.app_util_disable_irq
                0x00000000       0x10 examples/pb_remote/server/CMakeFiles/pb_remote_server_nrf52840_xxAA_s140_6.0.0.dir/C_/sdks/nRF5_SDK_15.0.0_a53641a/components/libraries/util/app_util_platform.c.obj
 .text.app_util_enable_irq
                0x00000000       0x14 examples/pb_remote/server/CMakeFiles/pb_remote_server_nrf52840_xxAA_s140_6.0.0.dir/C_/sdks/nRF5_SDK_15.0.0_a53641a/components/libraries/util/app_util_platform.c.obj
 .text.privilege_level_get
                0x00000000       0x1a examples/pb_remote/server/CMakeFiles/pb_remote_server_nrf52840_xxAA_s140_6.0.0.dir/C_/sdks/nRF5_SDK_15.0.0_a53641a/components/libraries/util/app_util_platform.c.obj
 .text.current_int_priority_get
                0x00000000       0x38 examples/pb_remote/server/CMakeFiles/pb_remote_server_nrf52840_xxAA_s140_6.0.0.dir/C_/sdks/nRF5_SDK_15.0.0_a53641a/components/libraries/util/app_util_platform.c.obj
 .bss.m_in_critical_region
                0x00000000        0x4 examples/pb_remote/server/CMakeFiles/pb_remote_server_nrf52840_xxAA_s140_6.0.0.dir/C_/sdks/nRF5_SDK_15.0.0_a53641a/components/libraries/util/app_util_platform.c.obj
 .text          0x00000000        0x0 examples/pb_remote/server/CMakeFiles/pb_remote_server_nrf52840_xxAA_s140_6.0.0.dir/C_/sdks/nRF5_SDK_15.0.0_a53641a/components/libraries/timer/app_timer.c.obj
 .data          0x00000000        0x0 examples/pb_remote/server/CMakeFiles/pb_remote_server_nrf52840_xxAA_s140_6.0.0.dir/C_/sdks/nRF5_SDK_15.0.0_a53641a/components/libraries/timer/app_timer.c.obj
 .bss           0x00000000        0x0 examples/pb_remote/server/CMakeFiles/pb_remote_server_nrf52840_xxAA_s140_6.0.0.dir/C_/sdks/nRF5_SDK_15.0.0_a53641a/components/libraries/timer/app_timer.c.obj
 .text.app_timer_stop_all
                0x00000000       0x18 examples/pb_remote/server/CMakeFiles/pb_remote_server_nrf52840_xxAA_s140_6.0.0.dir/C_/sdks/nRF5_SDK_15.0.0_a53641a/components/libraries/timer/app_timer.c.obj
 .text.app_timer_cnt_get
                0x00000000        0xc examples/pb_remote/server/CMakeFiles/pb_remote_server_nrf52840_xxAA_s140_6.0.0.dir/C_/sdks/nRF5_SDK_15.0.0_a53641a/components/libraries/timer/app_timer.c.obj
 .text.app_timer_cnt_diff_compute
                0x00000000        0x8 examples/pb_remote/server/CMakeFiles/pb_remote_server_nrf52840_xxAA_s140_6.0.0.dir/C_/sdks/nRF5_SDK_15.0.0_a53641a/components/libraries/timer/app_timer.c.obj
 .text.app_timer_pause
                0x00000000        0xc examples/pb_remote/server/CMakeFiles/pb_remote_server_nrf52840_xxAA_s140_6.0.0.dir/C_/sdks/nRF5_SDK_15.0.0_a53641a/components/libraries/timer/app_timer.c.obj
 .text.app_timer_resume
                0x00000000        0xc examples/pb_remote/server/CMakeFiles/pb_remote_server_nrf52840_xxAA_s140_6.0.0.dir/C_/sdks/nRF5_SDK_15.0.0_a53641a/components/libraries/timer/app_timer.c.obj
 .text          0x00000000        0x0 examples/pb_remote/server/CMakeFiles/pb_remote_server_nrf52840_xxAA_s140_6.0.0.dir/C_/sdks/nRF5_SDK_15.0.0_a53641a/components/libraries/util/app_error_handler_gcc.c.obj
 .data          0x00000000        0x0 examples/pb_remote/server/CMakeFiles/pb_remote_server_nrf52840_xxAA_s140_6.0.0.dir/C_/sdks/nRF5_SDK_15.0.0_a53641a/components/libraries/util/app_error_handler_gcc.c.obj
 .bss           0x00000000        0x0 examples/pb_remote/server/CMakeFiles/pb_remote_server_nrf52840_xxAA_s140_6.0.0.dir/C_/sdks/nRF5_SDK_15.0.0_a53641a/components/libraries/util/app_error_handler_gcc.c.obj
 .text          0x00000000        0x0 external/rtt/librtt_nrf52840_xxAA.a(SEGGER_RTT.c.obj)
 .data          0x00000000        0x0 external/rtt/librtt_nrf52840_xxAA.a(SEGGER_RTT.c.obj)
 .bss           0x00000000        0x0 external/rtt/librtt_nrf52840_xxAA.a(SEGGER_RTT.c.obj)
 .text._PostTerminalSwitch.constprop.0
                0x00000000       0x28 external/rtt/librtt_nrf52840_xxAA.a(SEGGER_RTT.c.obj)
 .text.SEGGER_RTT_ReadNoLock
                0x00000000       0x88 external/rtt/librtt_nrf52840_xxAA.a(SEGGER_RTT.c.obj)
 .text.SEGGER_RTT_Read
                0x00000000       0x1c external/rtt/librtt_nrf52840_xxAA.a(SEGGER_RTT.c.obj)
 .text.SEGGER_RTT_WriteSkipNoLock
                0x00000000       0xb4 external/rtt/librtt_nrf52840_xxAA.a(SEGGER_RTT.c.obj)
 .text.SEGGER_RTT_WriteString
                0x00000000       0x1a external/rtt/librtt_nrf52840_xxAA.a(SEGGER_RTT.c.obj)
 .text.SEGGER_RTT_GetKey
                0x00000000       0x20 external/rtt/librtt_nrf52840_xxAA.a(SEGGER_RTT.c.obj)
 .text.SEGGER_RTT_WaitKey
                0x00000000        0xc external/rtt/librtt_nrf52840_xxAA.a(SEGGER_RTT.c.obj)
 .text.SEGGER_RTT_HasKey
                0x00000000       0x1c external/rtt/librtt_nrf52840_xxAA.a(SEGGER_RTT.c.obj)
 .text.SEGGER_RTT_HasData
                0x00000000       0x14 external/rtt/librtt_nrf52840_xxAA.a(SEGGER_RTT.c.obj)
 .text.SEGGER_RTT_AllocDownBuffer
                0x00000000       0x68 external/rtt/librtt_nrf52840_xxAA.a(SEGGER_RTT.c.obj)
 .text.SEGGER_RTT_AllocUpBuffer
                0x00000000       0x70 external/rtt/librtt_nrf52840_xxAA.a(SEGGER_RTT.c.obj)
 .text.SEGGER_RTT_ConfigUpBuffer
                0x00000000       0x68 external/rtt/librtt_nrf52840_xxAA.a(SEGGER_RTT.c.obj)
 .text.SEGGER_RTT_ConfigDownBuffer
                0x00000000       0x60 external/rtt/librtt_nrf52840_xxAA.a(SEGGER_RTT.c.obj)
 .text.SEGGER_RTT_SetNameUpBuffer
                0x00000000       0x3c external/rtt/librtt_nrf52840_xxAA.a(SEGGER_RTT.c.obj)
 .text.SEGGER_RTT_SetNameDownBuffer
                0x00000000       0x3c external/rtt/librtt_nrf52840_xxAA.a(SEGGER_RTT.c.obj)
 .text.SEGGER_RTT_Init
                0x00000000       0x10 external/rtt/librtt_nrf52840_xxAA.a(SEGGER_RTT.c.obj)
 .text.SEGGER_RTT_SetTerminal
                0x00000000       0x84 external/rtt/librtt_nrf52840_xxAA.a(SEGGER_RTT.c.obj)
 .text.SEGGER_RTT_TerminalOut
                0x00000000       0xa0 external/rtt/librtt_nrf52840_xxAA.a(SEGGER_RTT.c.obj)
 .bss._ActiveTerminal
                0x00000000        0x1 external/rtt/librtt_nrf52840_xxAA.a(SEGGER_RTT.c.obj)
 .rodata._aTerminalId
                0x00000000       0x10 external/rtt/librtt_nrf52840_xxAA.a(SEGGER_RTT.c.obj)
 .text          0x00000000        0x0 external/rtt/librtt_nrf52840_xxAA.a(SEGGER_RTT_printf.c.obj)
 .data          0x00000000        0x0 external/rtt/librtt_nrf52840_xxAA.a(SEGGER_RTT_printf.c.obj)
 .bss           0x00000000        0x0 external/rtt/librtt_nrf52840_xxAA.a(SEGGER_RTT_printf.c.obj)
 .text          0x00000000        0x0 external/micro-ecc/libuECC_nrf52840_xxAA.a(uECC.c.obj)
 .data          0x00000000        0x0 external/micro-ecc/libuECC_nrf52840_xxAA.a(uECC.c.obj)
 .bss           0x00000000        0x0 external/micro-ecc/libuECC_nrf52840_xxAA.a(uECC.c.obj)
 .text.uECC_vli_modMult
                0x00000000      0x148 external/micro-ecc/libuECC_nrf52840_xxAA.a(uECC.c.obj)
 .text.HMAC_init
                0x00000000       0x46 external/micro-ecc/libuECC_nrf52840_xxAA.a(uECC.c.obj)
 .text.HMAC_update
                0x00000000        0x4 external/micro-ecc/libuECC_nrf52840_xxAA.a(uECC.c.obj)
 .text.HMAC_finish
                0x00000000       0x62 external/micro-ecc/libuECC_nrf52840_xxAA.a(uECC.c.obj)
 .text.update_V
                0x00000000       0x24 external/micro-ecc/libuECC_nrf52840_xxAA.a(uECC.c.obj)
 .text.bits2int
                0x00000000       0x88 external/micro-ecc/libuECC_nrf52840_xxAA.a(uECC.c.obj)
 .text.uECC_sign_with_k
                0x00000000      0x17c external/micro-ecc/libuECC_nrf52840_xxAA.a(uECC.c.obj)
 .text.uECC_set_rng
                0x00000000        0xc external/micro-ecc/libuECC_nrf52840_xxAA.a(uECC.c.obj)
 .text.uECC_get_rng
                0x00000000        0xc external/micro-ecc/libuECC_nrf52840_xxAA.a(uECC.c.obj)
 .text.uECC_curve_private_key_size
                0x00000000        0xe external/micro-ecc/libuECC_nrf52840_xxAA.a(uECC.c.obj)
 .text.uECC_curve_public_key_size
                0x00000000        0x8 external/micro-ecc/libuECC_nrf52840_xxAA.a(uECC.c.obj)
 .text.uECC_compute_public_key
                0x00000000       0x7e external/micro-ecc/libuECC_nrf52840_xxAA.a(uECC.c.obj)
 .text.uECC_sign
                0x00000000       0x56 external/micro-ecc/libuECC_nrf52840_xxAA.a(uECC.c.obj)
 .text.uECC_sign_deterministic
                0x00000000      0x192 external/micro-ecc/libuECC_nrf52840_xxAA.a(uECC.c.obj)
 .text.uECC_verify
                0x00000000      0x2f0 external/micro-ecc/libuECC_nrf52840_xxAA.a(uECC.c.obj)
 .data          0x00000000        0x0 c:/arm_gcc/bin/../lib/gcc/arm-none-eabi/6.3.1/thumb/v7e-m/fpv4-sp/hard\libgcc.a(_aeabi_uldivmod.o)
 .bss           0x00000000        0x0 c:/arm_gcc/bin/../lib/gcc/arm-none-eabi/6.3.1/thumb/v7e-m/fpv4-sp/hard\libgcc.a(_aeabi_uldivmod.o)
 .data          0x00000000        0x0 c:/arm_gcc/bin/../lib/gcc/arm-none-eabi/6.3.1/thumb/v7e-m/fpv4-sp/hard\libgcc.a(_udivmoddi4.o)
 .bss           0x00000000        0x0 c:/arm_gcc/bin/../lib/gcc/arm-none-eabi/6.3.1/thumb/v7e-m/fpv4-sp/hard\libgcc.a(_udivmoddi4.o)
 .ARM.extab     0x00000000        0x0 c:/arm_gcc/bin/../lib/gcc/arm-none-eabi/6.3.1/thumb/v7e-m/fpv4-sp/hard\libgcc.a(_udivmoddi4.o)
 .data          0x00000000        0x0 c:/arm_gcc/bin/../lib/gcc/arm-none-eabi/6.3.1/thumb/v7e-m/fpv4-sp/hard\libgcc.a(_dvmd_tls.o)
 .bss           0x00000000        0x0 c:/arm_gcc/bin/../lib/gcc/arm-none-eabi/6.3.1/thumb/v7e-m/fpv4-sp/hard\libgcc.a(_dvmd_tls.o)
 .text          0x00000000        0x0 c:/arm_gcc/bin/../lib/gcc/arm-none-eabi/6.3.1/../../../../arm-none-eabi/lib/thumb/v7e-m/fpv4-sp/hard\libg_nano.a(lib_a-exit.o)
 .data          0x00000000        0x0 c:/arm_gcc/bin/../lib/gcc/arm-none-eabi/6.3.1/../../../../arm-none-eabi/lib/thumb/v7e-m/fpv4-sp/hard\libg_nano.a(lib_a-exit.o)
 .bss           0x00000000        0x0 c:/arm_gcc/bin/../lib/gcc/arm-none-eabi/6.3.1/../../../../arm-none-eabi/lib/thumb/v7e-m/fpv4-sp/hard\libg_nano.a(lib_a-exit.o)
 .text          0x00000000        0x0 c:/arm_gcc/bin/../lib/gcc/arm-none-eabi/6.3.1/../../../../arm-none-eabi/lib/thumb/v7e-m/fpv4-sp/hard\libg_nano.a(lib_a-impure.o)
 .data          0x00000000        0x0 c:/arm_gcc/bin/../lib/gcc/arm-none-eabi/6.3.1/../../../../arm-none-eabi/lib/thumb/v7e-m/fpv4-sp/hard\libg_nano.a(lib_a-impure.o)
 .bss           0x00000000        0x0 c:/arm_gcc/bin/../lib/gcc/arm-none-eabi/6.3.1/../../../../arm-none-eabi/lib/thumb/v7e-m/fpv4-sp/hard\libg_nano.a(lib_a-impure.o)
 .text          0x00000000        0x0 c:/arm_gcc/bin/../lib/gcc/arm-none-eabi/6.3.1/../../../../arm-none-eabi/lib/thumb/v7e-m/fpv4-sp/hard\libg_nano.a(lib_a-init.o)
 .data          0x00000000        0x0 c:/arm_gcc/bin/../lib/gcc/arm-none-eabi/6.3.1/../../../../arm-none-eabi/lib/thumb/v7e-m/fpv4-sp/hard\libg_nano.a(lib_a-init.o)
 .bss           0x00000000        0x0 c:/arm_gcc/bin/../lib/gcc/arm-none-eabi/6.3.1/../../../../arm-none-eabi/lib/thumb/v7e-m/fpv4-sp/hard\libg_nano.a(lib_a-init.o)
 .text          0x00000000        0x0 c:/arm_gcc/bin/../lib/gcc/arm-none-eabi/6.3.1/../../../../arm-none-eabi/lib/thumb/v7e-m/fpv4-sp/hard\libg_nano.a(lib_a-malloc.o)
 .data          0x00000000        0x0 c:/arm_gcc/bin/../lib/gcc/arm-none-eabi/6.3.1/../../../../arm-none-eabi/lib/thumb/v7e-m/fpv4-sp/hard\libg_nano.a(lib_a-malloc.o)
 .bss           0x00000000        0x0 c:/arm_gcc/bin/../lib/gcc/arm-none-eabi/6.3.1/../../../../arm-none-eabi/lib/thumb/v7e-m/fpv4-sp/hard\libg_nano.a(lib_a-malloc.o)
 .text          0x00000000        0x0 c:/arm_gcc/bin/../lib/gcc/arm-none-eabi/6.3.1/../../../../arm-none-eabi/lib/thumb/v7e-m/fpv4-sp/hard\libg_nano.a(lib_a-memcmp.o)
 .data          0x00000000        0x0 c:/arm_gcc/bin/../lib/gcc/arm-none-eabi/6.3.1/../../../../arm-none-eabi/lib/thumb/v7e-m/fpv4-sp/hard\libg_nano.a(lib_a-memcmp.o)
 .bss           0x00000000        0x0 c:/arm_gcc/bin/../lib/gcc/arm-none-eabi/6.3.1/../../../../arm-none-eabi/lib/thumb/v7e-m/fpv4-sp/hard\libg_nano.a(lib_a-memcmp.o)
 .text          0x00000000        0x0 c:/arm_gcc/bin/../lib/gcc/arm-none-eabi/6.3.1/../../../../arm-none-eabi/lib/thumb/v7e-m/fpv4-sp/hard\libg_nano.a(lib_a-memcpy-stub.o)
 .data          0x00000000        0x0 c:/arm_gcc/bin/../lib/gcc/arm-none-eabi/6.3.1/../../../../arm-none-eabi/lib/thumb/v7e-m/fpv4-sp/hard\libg_nano.a(lib_a-memcpy-stub.o)
 .bss           0x00000000        0x0 c:/arm_gcc/bin/../lib/gcc/arm-none-eabi/6.3.1/../../../../arm-none-eabi/lib/thumb/v7e-m/fpv4-sp/hard\libg_nano.a(lib_a-memcpy-stub.o)
 .text          0x00000000        0x0 c:/arm_gcc/bin/../lib/gcc/arm-none-eabi/6.3.1/../../../../arm-none-eabi/lib/thumb/v7e-m/fpv4-sp/hard\libg_nano.a(lib_a-memset.o)
 .data          0x00000000        0x0 c:/arm_gcc/bin/../lib/gcc/arm-none-eabi/6.3.1/../../../../arm-none-eabi/lib/thumb/v7e-m/fpv4-sp/hard\libg_nano.a(lib_a-memset.o)
 .bss           0x00000000        0x0 c:/arm_gcc/bin/../lib/gcc/arm-none-eabi/6.3.1/../../../../arm-none-eabi/lib/thumb/v7e-m/fpv4-sp/hard\libg_nano.a(lib_a-memset.o)
 .text          0x00000000        0x0 c:/arm_gcc/bin/../lib/gcc/arm-none-eabi/6.3.1/../../../../arm-none-eabi/lib/thumb/v7e-m/fpv4-sp/hard\libg_nano.a(lib_a-nano-freer.o)
 .data          0x00000000        0x0 c:/arm_gcc/bin/../lib/gcc/arm-none-eabi/6.3.1/../../../../arm-none-eabi/lib/thumb/v7e-m/fpv4-sp/hard\libg_nano.a(lib_a-nano-freer.o)
 .bss           0x00000000        0x0 c:/arm_gcc/bin/../lib/gcc/arm-none-eabi/6.3.1/../../../../arm-none-eabi/lib/thumb/v7e-m/fpv4-sp/hard\libg_nano.a(lib_a-nano-freer.o)
 .text          0x00000000        0x0 c:/arm_gcc/bin/../lib/gcc/arm-none-eabi/6.3.1/../../../../arm-none-eabi/lib/thumb/v7e-m/fpv4-sp/hard\libg_nano.a(lib_a-nano-mallocr.o)
 .data          0x00000000        0x0 c:/arm_gcc/bin/../lib/gcc/arm-none-eabi/6.3.1/../../../../arm-none-eabi/lib/thumb/v7e-m/fpv4-sp/hard\libg_nano.a(lib_a-nano-mallocr.o)
 .bss           0x00000000        0x0 c:/arm_gcc/bin/../lib/gcc/arm-none-eabi/6.3.1/../../../../arm-none-eabi/lib/thumb/v7e-m/fpv4-sp/hard\libg_nano.a(lib_a-nano-mallocr.o)
 .text          0x00000000        0x0 c:/arm_gcc/bin/../lib/gcc/arm-none-eabi/6.3.1/../../../../arm-none-eabi/lib/thumb/v7e-m/fpv4-sp/hard\libg_nano.a(lib_a-sbrkr.o)
 .data          0x00000000        0x0 c:/arm_gcc/bin/../lib/gcc/arm-none-eabi/6.3.1/../../../../arm-none-eabi/lib/thumb/v7e-m/fpv4-sp/hard\libg_nano.a(lib_a-sbrkr.o)
 .bss           0x00000000        0x0 c:/arm_gcc/bin/../lib/gcc/arm-none-eabi/6.3.1/../../../../arm-none-eabi/lib/thumb/v7e-m/fpv4-sp/hard\libg_nano.a(lib_a-sbrkr.o)
 .text          0x00000000        0x0 c:/arm_gcc/bin/../lib/gcc/arm-none-eabi/6.3.1/../../../../arm-none-eabi/lib/thumb/v7e-m/fpv4-sp/hard\libg_nano.a(lib_a-strcpy.o)
 .data          0x00000000        0x0 c:/arm_gcc/bin/../lib/gcc/arm-none-eabi/6.3.1/../../../../arm-none-eabi/lib/thumb/v7e-m/fpv4-sp/hard\libg_nano.a(lib_a-strcpy.o)
 .bss           0x00000000        0x0 c:/arm_gcc/bin/../lib/gcc/arm-none-eabi/6.3.1/../../../../arm-none-eabi/lib/thumb/v7e-m/fpv4-sp/hard\libg_nano.a(lib_a-strcpy.o)
 .data          0x00000000        0x0 c:/arm_gcc/bin/../lib/gcc/arm-none-eabi/6.3.1/../../../../arm-none-eabi/lib/thumb/v7e-m/fpv4-sp/hard\libg_nano.a(lib_a-strlen.o)
 .bss           0x00000000        0x0 c:/arm_gcc/bin/../lib/gcc/arm-none-eabi/6.3.1/../../../../arm-none-eabi/lib/thumb/v7e-m/fpv4-sp/hard\libg_nano.a(lib_a-strlen.o)
 .text          0x00000000        0x0 c:/arm_gcc/bin/../lib/gcc/arm-none-eabi/6.3.1/../../../../arm-none-eabi/lib/thumb/v7e-m/fpv4-sp/hard\libg_nano.a(lib_a-strrchr.o)
 .data          0x00000000        0x0 c:/arm_gcc/bin/../lib/gcc/arm-none-eabi/6.3.1/../../../../arm-none-eabi/lib/thumb/v7e-m/fpv4-sp/hard\libg_nano.a(lib_a-strrchr.o)
 .bss           0x00000000        0x0 c:/arm_gcc/bin/../lib/gcc/arm-none-eabi/6.3.1/../../../../arm-none-eabi/lib/thumb/v7e-m/fpv4-sp/hard\libg_nano.a(lib_a-strrchr.o)
 .text          0x00000000        0x0 c:/arm_gcc/bin/../lib/gcc/arm-none-eabi/6.3.1/../../../../arm-none-eabi/lib/thumb/v7e-m/fpv4-sp/hard\libg_nano.a(lib_a-mlock.o)
 .data          0x00000000        0x0 c:/arm_gcc/bin/../lib/gcc/arm-none-eabi/6.3.1/../../../../arm-none-eabi/lib/thumb/v7e-m/fpv4-sp/hard\libg_nano.a(lib_a-mlock.o)
 .bss           0x00000000        0x0 c:/arm_gcc/bin/../lib/gcc/arm-none-eabi/6.3.1/../../../../arm-none-eabi/lib/thumb/v7e-m/fpv4-sp/hard\libg_nano.a(lib_a-mlock.o)
 .text          0x00000000        0x0 c:/arm_gcc/bin/../lib/gcc/arm-none-eabi/6.3.1/../../../../arm-none-eabi/lib/thumb/v7e-m/fpv4-sp/hard\libg_nano.a(lib_a-reent.o)
 .data          0x00000000        0x0 c:/arm_gcc/bin/../lib/gcc/arm-none-eabi/6.3.1/../../../../arm-none-eabi/lib/thumb/v7e-m/fpv4-sp/hard\libg_nano.a(lib_a-reent.o)
 .bss           0x00000000        0x0 c:/arm_gcc/bin/../lib/gcc/arm-none-eabi/6.3.1/../../../../arm-none-eabi/lib/thumb/v7e-m/fpv4-sp/hard\libg_nano.a(lib_a-reent.o)
 .text.cleanup_glue
                0x00000000       0x1a c:/arm_gcc/bin/../lib/gcc/arm-none-eabi/6.3.1/../../../../arm-none-eabi/lib/thumb/v7e-m/fpv4-sp/hard\libg_nano.a(lib_a-reent.o)
 .text._reclaim_reent
                0x00000000       0xb8 c:/arm_gcc/bin/../lib/gcc/arm-none-eabi/6.3.1/../../../../arm-none-eabi/lib/thumb/v7e-m/fpv4-sp/hard\libg_nano.a(lib_a-reent.o)
 .text          0x00000000        0x0 c:/arm_gcc/bin/../lib/gcc/arm-none-eabi/6.3.1/../../../../arm-none-eabi/lib/thumb/v7e-m/fpv4-sp/hard\libg_nano.a(lib_a-strchr.o)
 .data          0x00000000        0x0 c:/arm_gcc/bin/../lib/gcc/arm-none-eabi/6.3.1/../../../../arm-none-eabi/lib/thumb/v7e-m/fpv4-sp/hard\libg_nano.a(lib_a-strchr.o)
 .bss           0x00000000        0x0 c:/arm_gcc/bin/../lib/gcc/arm-none-eabi/6.3.1/../../../../arm-none-eabi/lib/thumb/v7e-m/fpv4-sp/hard\libg_nano.a(lib_a-strchr.o)
 .text          0x00000000        0x0 c:/arm_gcc/bin/../lib/gcc/arm-none-eabi/6.3.1/thumb/v7e-m/fpv4-sp/hard/crtend.o
 .data          0x00000000        0x0 c:/arm_gcc/bin/../lib/gcc/arm-none-eabi/6.3.1/thumb/v7e-m/fpv4-sp/hard/crtend.o
 .bss           0x00000000        0x0 c:/arm_gcc/bin/../lib/gcc/arm-none-eabi/6.3.1/thumb/v7e-m/fpv4-sp/hard/crtend.o
 .text          0x00000000        0x0 c:/arm_gcc/bin/../lib/gcc/arm-none-eabi/6.3.1/thumb/v7e-m/fpv4-sp/hard/crtn.o
 .data          0x00000000        0x0 c:/arm_gcc/bin/../lib/gcc/arm-none-eabi/6.3.1/thumb/v7e-m/fpv4-sp/hard/crtn.o
 .bss           0x00000000        0x0 c:/arm_gcc/bin/../lib/gcc/arm-none-eabi/6.3.1/thumb/v7e-m/fpv4-sp/hard/crtn.o
 .text          0x00000000        0x0 c:/arm_gcc/bin/../lib/gcc/arm-none-eabi/6.3.1/../../../../arm-none-eabi/lib/thumb/v7e-m/fpv4-sp/hard\libnosys.a(sbrk.o)
 .data          0x00000000        0x0 c:/arm_gcc/bin/../lib/gcc/arm-none-eabi/6.3.1/../../../../arm-none-eabi/lib/thumb/v7e-m/fpv4-sp/hard\libnosys.a(sbrk.o)
 .bss           0x00000000        0x0 c:/arm_gcc/bin/../lib/gcc/arm-none-eabi/6.3.1/../../../../arm-none-eabi/lib/thumb/v7e-m/fpv4-sp/hard\libnosys.a(sbrk.o)
 .text          0x00000000        0x0 c:/arm_gcc/bin/../lib/gcc/arm-none-eabi/6.3.1/../../../../arm-none-eabi/lib/thumb/v7e-m/fpv4-sp/hard\libnosys.a(_exit.o)
 .data          0x00000000        0x0 c:/arm_gcc/bin/../lib/gcc/arm-none-eabi/6.3.1/../../../../arm-none-eabi/lib/thumb/v7e-m/fpv4-sp/hard\libnosys.a(_exit.o)
 .bss           0x00000000        0x0 c:/arm_gcc/bin/../lib/gcc/arm-none-eabi/6.3.1/../../../../arm-none-eabi/lib/thumb/v7e-m/fpv4-sp/hard\libnosys.a(_exit.o)

Memory Configuration

Name             Origin             Length             Attributes
FLASH            0x00026000         0x000d1000         xr
RAM              0x20002da0         0x0003cf60         xrw
*default*        0x00000000         0xffffffff

Linker script and memory map


.text           0x00026000    0x15704
 *(.isr_vector)
 .isr_vector    0x00026000      0x200 examples/pb_remote/server/CMakeFiles/pb_remote_server_nrf52840_xxAA_s140_6.0.0.dir/C_/sdks/nRF5_SDK_15.0.0_a53641a/modules/nrfx/mdk/gcc_startup_nrf52840.S.obj
                0x00026000                __isr_vector
 *(.text*)
 .text          0x00026200       0x6c c:/arm_gcc/bin/../lib/gcc/arm-none-eabi/6.3.1/thumb/v7e-m/fpv4-sp/hard/crtbegin.o
 .text          0x0002626c       0x74 c:/arm_gcc/bin/../lib/gcc/arm-none-eabi/6.3.1/../../../../arm-none-eabi/lib/thumb/v7e-m/fpv4-sp/hard/crt0.o
                0x0002626c                _start
                0x0002626c                _mainCRTStartup
 .text.sd_app_evt_wait
                0x000262e0        0x4 examples/pb_remote/server/CMakeFiles/pb_remote_server_nrf52840_xxAA_s140_6.0.0.dir/src/main.c.obj
 .text.provisioning_complete_cb
                0x000262e4      0x15c examples/pb_remote/server/CMakeFiles/pb_remote_server_nrf52840_xxAA_s140_6.0.0.dir/src/main.c.obj
 .text.models_init_cb
                0x00026440       0x80 examples/pb_remote/server/CMakeFiles/pb_remote_server_nrf52840_xxAA_s140_6.0.0.dir/src/main.c.obj
 .text.startup.main
                0x000264c0      0x224 examples/pb_remote/server/CMakeFiles/pb_remote_server_nrf52840_xxAA_s140_6.0.0.dir/src/main.c.obj
                0x000264c0                main
 .text.mesh_stack_start
                0x000266e4        0x4 examples/pb_remote/server/CMakeFiles/pb_remote_server_nrf52840_xxAA_s140_6.0.0.dir/__/__/__/mesh/stack/src/mesh_stack.c.obj
                0x000266e4                mesh_stack_start
 .text.mesh_stack_provisioning_data_store
                0x000266e8       0x6c examples/pb_remote/server/CMakeFiles/pb_remote_server_nrf52840_xxAA_s140_6.0.0.dir/__/__/__/mesh/stack/src/mesh_stack.c.obj
                0x000266e8                mesh_stack_provisioning_data_store
 .text.mesh_stack_config_clear
                0x00026754       0x12 examples/pb_remote/server/CMakeFiles/pb_remote_server_nrf52840_xxAA_s140_6.0.0.dir/__/__/__/mesh/stack/src/mesh_stack.c.obj
                0x00026754                mesh_stack_config_clear
 .text.mesh_stack_is_device_provisioned
                0x00026766       0x18 examples/pb_remote/server/CMakeFiles/pb_remote_server_nrf52840_xxAA_s140_6.0.0.dir/__/__/__/mesh/stack/src/mesh_stack.c.obj
                0x00026766                mesh_stack_is_device_provisioned
 *fill*         0x0002677e        0x2 
 .text.mesh_stack_init
                0x00026780       0x64 examples/pb_remote/server/CMakeFiles/pb_remote_server_nrf52840_xxAA_s140_6.0.0.dir/__/__/__/mesh/stack/src/mesh_stack.c.obj
                0x00026780                mesh_stack_init
 .text.sd_evt_get
                0x000267e4        0x4 examples/pb_remote/server/CMakeFiles/pb_remote_server_nrf52840_xxAA_s140_6.0.0.dir/__/__/common/src/mesh_softdevice_init.c.obj
 .text.sd_softdevice_enable
                0x000267e8        0x4 examples/pb_remote/server/CMakeFiles/pb_remote_server_nrf52840_xxAA_s140_6.0.0.dir/__/__/common/src/mesh_softdevice_init.c.obj
 .text.sd_ble_enable
                0x000267ec        0x4 examples/pb_remote/server/CMakeFiles/pb_remote_server_nrf52840_xxAA_s140_6.0.0.dir/__/__/common/src/mesh_softdevice_init.c.obj
 .text.sd_ble_cfg_set
                0x000267f0        0x4 examples/pb_remote/server/CMakeFiles/pb_remote_server_nrf52840_xxAA_s140_6.0.0.dir/__/__/common/src/mesh_softdevice_init.c.obj
 .text.SWI2_EGU2_IRQHandler
                0x000267f4       0x18 examples/pb_remote/server/CMakeFiles/pb_remote_server_nrf52840_xxAA_s140_6.0.0.dir/__/__/common/src/mesh_softdevice_init.c.obj
                0x000267f4                SWI2_EGU2_IRQHandler
 .text.mesh_softdevice_init
                0x0002680c      0x1ac examples/pb_remote/server/CMakeFiles/pb_remote_server_nrf52840_xxAA_s140_6.0.0.dir/__/__/common/src/mesh_softdevice_init.c.obj
                0x0002680c                mesh_softdevice_init
 .text.provisionee_start
                0x000269b8       0x18 examples/pb_remote/server/CMakeFiles/pb_remote_server_nrf52840_xxAA_s140_6.0.0.dir/__/__/common/src/mesh_provisionee.c.obj
 .text.prov_evt_handler
                0x000269d0       0x64 examples/pb_remote/server/CMakeFiles/pb_remote_server_nrf52840_xxAA_s140_6.0.0.dir/__/__/common/src/mesh_provisionee.c.obj
 .text.mesh_provisionee_prov_start
                0x00026a34       0x78 examples/pb_remote/server/CMakeFiles/pb_remote_server_nrf52840_xxAA_s140_6.0.0.dir/__/__/common/src/mesh_provisionee.c.obj
                0x00026a34                mesh_provisionee_prov_start
 .text.led_timeout_handler
                0x00026aac       0x40 examples/pb_remote/server/CMakeFiles/pb_remote_server_nrf52840_xxAA_s140_6.0.0.dir/__/__/common/src/simple_hal.c.obj
 .text.hal_led_mask_set
                0x00026aec       0x12 examples/pb_remote/server/CMakeFiles/pb_remote_server_nrf52840_xxAA_s140_6.0.0.dir/__/__/common/src/simple_hal.c.obj
                0x00026aec                hal_led_mask_set
 *fill*         0x00026afe        0x2 
 .text.hal_led_blink_ms
                0x00026b00       0x5c examples/pb_remote/server/CMakeFiles/pb_remote_server_nrf52840_xxAA_s140_6.0.0.dir/__/__/common/src/simple_hal.c.obj
                0x00026b00                hal_led_blink_ms
 .text.hal_leds_init
                0x00026b5c       0x58 examples/pb_remote/server/CMakeFiles/pb_remote_server_nrf52840_xxAA_s140_6.0.0.dir/__/__/common/src/simple_hal.c.obj
                0x00026b5c                hal_leds_init
 .text.GPIOTE_IRQHandler
                0x00026bb4       0x60 examples/pb_remote/server/CMakeFiles/pb_remote_server_nrf52840_xxAA_s140_6.0.0.dir/__/__/common/src/simple_hal.c.obj
                0x00026bb4                GPIOTE_IRQHandler
 .text._weak_handler
                0x00026c14        0x4 examples/pb_remote/server/CMakeFiles/pb_remote_server_nrf52840_xxAA_s140_6.0.0.dir/__/__/nrf_mesh_weak.c.obj
                0x00026c14                nrf_mesh_dfu_init
                0x00026c14                nrf_mesh_dfu_jump_to_bootloader
                0x00026c14                nrf_mesh_dfu_rx
                0x00026c14                prov_provisioner_provision
                0x00026c14                nrf_mesh_dfu_bank_info_get
                0x00026c14                prov_provisioner_oob_pubkey
                0x00026c14                nrf_mesh_dfu_request
                0x00026c14                nrf_mesh_dfu_bank_flash
                0x00026c14                nrf_mesh_dfu_enable
                0x00026c14                _weak_handler
                0x00026c14                nrf_mesh_dfu_relay
                0x00026c14                nrf_mesh_dfu_abort
                0x00026c14                mesh_flash_op_execute
                0x00026c14                prov_provisionee_init
                0x00026c14                nrf_mesh_dfu_state_get
                0x00026c14                prov_provisioner_shared_secret
                0x00026c14                prov_provisioner_auth_data
                0x00026c14                prov_provisioner_oob_use
 .text.app_error_fault_handler
                0x00026c18      0x204 examples/pb_remote/server/CMakeFiles/pb_remote_server_nrf52840_xxAA_s140_6.0.0.dir/__/__/common/src/app_error_weak.c.obj
                0x00026c18                app_error_fault_handler
 .text.mesh_assertion_handler
                0x00026e1c       0x24 examples/pb_remote/server/CMakeFiles/pb_remote_server_nrf52840_xxAA_s140_6.0.0.dir/__/__/common/src/assertion_handler_weak.c.obj
                0x00026e1c                mesh_assertion_handler
 .text.nrf_mesh_configure_device_uuid_set
                0x00026e40       0x10 examples/pb_remote/server/CMakeFiles/pb_remote_server_nrf52840_xxAA_s140_6.0.0.dir/__/__/__/mesh/core/src/nrf_mesh_configure.c.obj
                0x00026e40                nrf_mesh_configure_device_uuid_set
 .text.nrf_mesh_configure_device_uuid_reset
                0x00026e50       0x28 examples/pb_remote/server/CMakeFiles/pb_remote_server_nrf52840_xxAA_s140_6.0.0.dir/__/__/__/mesh/core/src/nrf_mesh_configure.c.obj
                0x00026e50                nrf_mesh_configure_device_uuid_reset
 .text.nrf_mesh_configure_device_uuid_get
                0x00026e78        0x8 examples/pb_remote/server/CMakeFiles/pb_remote_server_nrf52840_xxAA_s140_6.0.0.dir/__/__/__/mesh/core/src/nrf_mesh_configure.c.obj
                0x00026e78                nrf_mesh_configure_device_uuid_get
 .text.msg_cache_init
                0x00026e80       0x24 examples/pb_remote/server/CMakeFiles/pb_remote_server_nrf52840_xxAA_s140_6.0.0.dir/__/__/__/mesh/core/src/msg_cache.c.obj
                0x00026e80                msg_cache_init
 .text.msg_cache_entry_exists
                0x00026ea4       0x3c examples/pb_remote/server/CMakeFiles/pb_remote_server_nrf52840_xxAA_s140_6.0.0.dir/__/__/__/mesh/core/src/msg_cache.c.obj
                0x00026ea4                msg_cache_entry_exists
 .text.msg_cache_entry_add
                0x00026ee0       0x2c examples/pb_remote/server/CMakeFiles/pb_remote_server_nrf52840_xxAA_s140_6.0.0.dir/__/__/__/mesh/core/src/msg_cache.c.obj
                0x00026ee0                msg_cache_entry_add
 .text.seqauth_sequence_number_get
                0x00026f0c       0x12 examples/pb_remote/server/CMakeFiles/pb_remote_server_nrf52840_xxAA_s140_6.0.0.dir/__/__/__/mesh/core/src/transport.c.obj
 *fill*         0x00026f1e        0x2 
 .text.control_packet_callback_get
                0x00026f20       0x44 examples/pb_remote/server/CMakeFiles/pb_remote_server_nrf52840_xxAA_s140_6.0.0.dir/__/__/__/mesh/core/src/transport.c.obj
 .text.tx_complete
                0x00026f64       0x2c examples/pb_remote/server/CMakeFiles/pb_remote_server_nrf52840_xxAA_s140_6.0.0.dir/__/__/__/mesh/core/src/transport.c.obj
 .text.block_ack_full
                0x00026f90       0x1a examples/pb_remote/server/CMakeFiles/pb_remote_server_nrf52840_xxAA_s140_6.0.0.dir/__/__/__/mesh/core/src/transport.c.obj
 *fill*         0x00026faa        0x2 
 .text.sar_rx_session_mark_as_handled
                0x00026fac       0x48 examples/pb_remote/server/CMakeFiles/pb_remote_server_nrf52840_xxAA_s140_6.0.0.dir/__/__/__/mesh/core/src/transport.c.obj
 .text.upper_trs_packet_encrypt
                0x00026ff4       0x90 examples/pb_remote/server/CMakeFiles/pb_remote_server_nrf52840_xxAA_s140_6.0.0.dir/__/__/__/mesh/core/src/transport.c.obj
 .text.sar_ctx_free
                0x00027084       0x40 examples/pb_remote/server/CMakeFiles/pb_remote_server_nrf52840_xxAA_s140_6.0.0.dir/__/__/__/mesh/core/src/transport.c.obj
 .text.sar_ctx_tx_complete
                0x000270c4       0x2e examples/pb_remote/server/CMakeFiles/pb_remote_server_nrf52840_xxAA_s140_6.0.0.dir/__/__/__/mesh/core/src/transport.c.obj
 *fill*         0x000270f2        0x2 
 .text.sar_ctx_alloc
                0x000270f4       0xa8 examples/pb_remote/server/CMakeFiles/pb_remote_server_nrf52840_xxAA_s140_6.0.0.dir/__/__/__/mesh/core/src/transport.c.obj
 .text.test_transport_decrypt
                0x0002719c       0x88 examples/pb_remote/server/CMakeFiles/pb_remote_server_nrf52840_xxAA_s140_6.0.0.dir/__/__/__/mesh/core/src/transport.c.obj
 .text.upper_transport_access_packet_in
                0x00027224      0x19c examples/pb_remote/server/CMakeFiles/pb_remote_server_nrf52840_xxAA_s140_6.0.0.dir/__/__/__/mesh/core/src/transport.c.obj
 .text.trs_packet_header_build
                0x000273c0       0xa6 examples/pb_remote/server/CMakeFiles/pb_remote_server_nrf52840_xxAA_s140_6.0.0.dir/__/__/__/mesh/core/src/transport.c.obj
 *fill*         0x00027466        0x2 
 .text.tx_retry_timer_reset
                0x00027468       0x44 examples/pb_remote/server/CMakeFiles/pb_remote_server_nrf52840_xxAA_s140_6.0.0.dir/__/__/__/mesh/core/src/transport.c.obj
 .text.sar_ctx_cancel
                0x000274ac       0xa8 examples/pb_remote/server/CMakeFiles/pb_remote_server_nrf52840_xxAA_s140_6.0.0.dir/__/__/__/mesh/core/src/transport.c.obj
 .text.abort_timeout
                0x00027554        0x8 examples/pb_remote/server/CMakeFiles/pb_remote_server_nrf52840_xxAA_s140_6.0.0.dir/__/__/__/mesh/core/src/transport.c.obj
 .text.trs_sar_packet_out
                0x0002755c       0xda examples/pb_remote/server/CMakeFiles/pb_remote_server_nrf52840_xxAA_s140_6.0.0.dir/__/__/__/mesh/core/src/transport.c.obj
 .text.retry_timeout
                0x00027636       0x46 examples/pb_remote/server/CMakeFiles/pb_remote_server_nrf52840_xxAA_s140_6.0.0.dir/__/__/__/mesh/core/src/transport.c.obj
 .text.upper_transport_packet_in
                0x0002767c      0x150 examples/pb_remote/server/CMakeFiles/pb_remote_server_nrf52840_xxAA_s140_6.0.0.dir/__/__/__/mesh/core/src/transport.c.obj
 .text.upper_transport_tx
                0x000277cc      0x1e4 examples/pb_remote/server/CMakeFiles/pb_remote_server_nrf52840_xxAA_s140_6.0.0.dir/__/__/__/mesh/core/src/transport.c.obj
 .text.transport_sar_mem_funcs_reset
                0x000279b0       0x28 examples/pb_remote/server/CMakeFiles/pb_remote_server_nrf52840_xxAA_s140_6.0.0.dir/__/__/__/mesh/core/src/transport.c.obj
                0x000279b0                transport_sar_mem_funcs_reset
 .text.transport_init
                0x000279d8       0x8c examples/pb_remote/server/CMakeFiles/pb_remote_server_nrf52840_xxAA_s140_6.0.0.dir/__/__/__/mesh/core/src/transport.c.obj
                0x000279d8                transport_init
 .text.transport_tx
                0x00027a64       0xb4 examples/pb_remote/server/CMakeFiles/pb_remote_server_nrf52840_xxAA_s140_6.0.0.dir/__/__/__/mesh/core/src/transport.c.obj
                0x00027a64                transport_tx
 .text.transport_control_tx
                0x00027b18       0x8e examples/pb_remote/server/CMakeFiles/pb_remote_server_nrf52840_xxAA_s140_6.0.0.dir/__/__/__/mesh/core/src/transport.c.obj
                0x00027b18                transport_control_tx
 *fill*         0x00027ba6        0x2 
 .text.sar_ack_send
                0x00027ba8       0xa0 examples/pb_remote/server/CMakeFiles/pb_remote_server_nrf52840_xxAA_s140_6.0.0.dir/__/__/__/mesh/core/src/transport.c.obj
 .text.transport_sar_process
                0x00027c48       0x74 examples/pb_remote/server/CMakeFiles/pb_remote_server_nrf52840_xxAA_s140_6.0.0.dir/__/__/__/mesh/core/src/transport.c.obj
 .text.transport_packet_in
                0x00027cbc      0x434 examples/pb_remote/server/CMakeFiles/pb_remote_server_nrf52840_xxAA_s140_6.0.0.dir/__/__/__/mesh/core/src/transport.c.obj
                0x00027cbc                transport_packet_in
 .text.ack_timeout
                0x000280f0       0x28 examples/pb_remote/server/CMakeFiles/pb_remote_server_nrf52840_xxAA_s140_6.0.0.dir/__/__/__/mesh/core/src/transport.c.obj
 .text.transport_control_packet_consumer_add
                0x00028118       0x5c examples/pb_remote/server/CMakeFiles/pb_remote_server_nrf52840_xxAA_s140_6.0.0.dir/__/__/__/mesh/core/src/transport.c.obj
                0x00028118                transport_control_packet_consumer_add
 .text.event_handle
                0x00028174       0x54 examples/pb_remote/server/CMakeFiles/pb_remote_server_nrf52840_xxAA_s140_6.0.0.dir/__/__/__/mesh/core/src/event.c.obj
                0x00028174                event_handle
 .text.event_handler_add
                0x000281c8       0x20 examples/pb_remote/server/CMakeFiles/pb_remote_server_nrf52840_xxAA_s140_6.0.0.dir/__/__/__/mesh/core/src/event.c.obj
                0x000281c8                event_handler_add
 .text.event_handler_remove
                0x000281e8       0x34 examples/pb_remote/server/CMakeFiles/pb_remote_server_nrf52840_xxAA_s140_6.0.0.dir/__/__/__/mesh/core/src/event.c.obj
                0x000281e8                event_handler_remove
 .text.m_index_increment
                0x0002821c       0x1e examples/pb_remote/server/CMakeFiles/pb_remote_server_nrf52840_xxAA_s140_6.0.0.dir/__/__/__/mesh/core/src/packet_buffer.c.obj
 .text.packet_buffer_init
                0x0002823a       0xac examples/pb_remote/server/CMakeFiles/pb_remote_server_nrf52840_xxAA_s140_6.0.0.dir/__/__/__/mesh/core/src/packet_buffer.c.obj
                0x0002823a                packet_buffer_init
 .text.packet_buffer_flush
                0x000282e6       0x60 examples/pb_remote/server/CMakeFiles/pb_remote_server_nrf52840_xxAA_s140_6.0.0.dir/__/__/__/mesh/core/src/packet_buffer.c.obj
                0x000282e6                packet_buffer_flush
 .text.packet_buffer_reserve
                0x00028346       0x96 examples/pb_remote/server/CMakeFiles/pb_remote_server_nrf52840_xxAA_s140_6.0.0.dir/__/__/__/mesh/core/src/packet_buffer.c.obj
                0x00028346                packet_buffer_reserve
 .text.packet_buffer_commit
                0x000283dc       0x58 examples/pb_remote/server/CMakeFiles/pb_remote_server_nrf52840_xxAA_s140_6.0.0.dir/__/__/__/mesh/core/src/packet_buffer.c.obj
                0x000283dc                packet_buffer_commit
 .text.packet_buffer_pop
                0x00028434       0x50 examples/pb_remote/server/CMakeFiles/pb_remote_server_nrf52840_xxAA_s140_6.0.0.dir/__/__/__/mesh/core/src/packet_buffer.c.obj
                0x00028434                packet_buffer_pop
 .text.packet_buffer_can_pop
                0x00028484       0x38 examples/pb_remote/server/CMakeFiles/pb_remote_server_nrf52840_xxAA_s140_6.0.0.dir/__/__/__/mesh/core/src/packet_buffer.c.obj
                0x00028484                packet_buffer_can_pop
 .text.packet_buffer_packets_ready_to_pop
                0x000284bc       0x3c examples/pb_remote/server/CMakeFiles/pb_remote_server_nrf52840_xxAA_s140_6.0.0.dir/__/__/__/mesh/core/src/packet_buffer.c.obj
                0x000284bc                packet_buffer_packets_ready_to_pop
 .text.packet_buffer_free
                0x000284f8       0x6e examples/pb_remote/server/CMakeFiles/pb_remote_server_nrf52840_xxAA_s140_6.0.0.dir/__/__/__/mesh/core/src/packet_buffer.c.obj
                0x000284f8                packet_buffer_free
 .text.get_last_page
                0x00028566       0x14 examples/pb_remote/server/CMakeFiles/pb_remote_server_nrf52840_xxAA_s140_6.0.0.dir/__/__/__/mesh/core/src/flash_manager_defrag.c.obj
 *fill*         0x0002857a        0x2 
 .text.defrag_on_end
                0x0002857c       0x1c examples/pb_remote/server/CMakeFiles/pb_remote_server_nrf52840_xxAA_s140_6.0.0.dir/__/__/__/mesh/core/src/flash_manager_defrag.c.obj
 .text.execute_procedure_step
                0x00028598       0x7c examples/pb_remote/server/CMakeFiles/pb_remote_server_nrf52840_xxAA_s140_6.0.0.dir/__/__/__/mesh/core/src/flash_manager_defrag.c.obj
 .text.get_next_entry
                0x00028614       0x34 examples/pb_remote/server/CMakeFiles/pb_remote_server_nrf52840_xxAA_s140_6.0.0.dir/__/__/__/mesh/core/src/flash_manager_defrag.c.obj
 .text.get_next_data_entry
                0x00028648       0x26 examples/pb_remote/server/CMakeFiles/pb_remote_server_nrf52840_xxAA_s140_6.0.0.dir/__/__/__/mesh/core/src/flash_manager_defrag.c.obj
 *fill*         0x0002866e        0x2 
 .text.on_flash_op_end
                0x00028670       0x30 examples/pb_remote/server/CMakeFiles/pb_remote_server_nrf52840_xxAA_s140_6.0.0.dir/__/__/__/mesh/core/src/flash_manager_defrag.c.obj
 .text.check_for_invalid_entries
                0x000286a0       0x38 examples/pb_remote/server/CMakeFiles/pb_remote_server_nrf52840_xxAA_s140_6.0.0.dir/__/__/__/mesh/core/src/flash_manager_defrag.c.obj
 .text.erase_recovery_area
                0x000286d8       0x34 examples/pb_remote/server/CMakeFiles/pb_remote_server_nrf52840_xxAA_s140_6.0.0.dir/__/__/__/mesh/core/src/flash_manager_defrag.c.obj
 .text.flash.constprop.6
                0x0002870c       0x24 examples/pb_remote/server/CMakeFiles/pb_remote_server_nrf52840_xxAA_s140_6.0.0.dir/__/__/__/mesh/core/src/flash_manager_defrag.c.obj
 .text.seal_storage_page
                0x00028730       0x50 examples/pb_remote/server/CMakeFiles/pb_remote_server_nrf52840_xxAA_s140_6.0.0.dir/__/__/__/mesh/core/src/flash_manager_defrag.c.obj
 .text.invalidate_duplicate_entries
                0x00028780       0x9c examples/pb_remote/server/CMakeFiles/pb_remote_server_nrf52840_xxAA_s140_6.0.0.dir/__/__/__/mesh/core/src/flash_manager_defrag.c.obj
 .text.copy_metadata
                0x0002881c       0x3c examples/pb_remote/server/CMakeFiles/pb_remote_server_nrf52840_xxAA_s140_6.0.0.dir/__/__/__/mesh/core/src/flash_manager_defrag.c.obj
 .text.write_defrag_start_pointer
                0x00028858       0x20 examples/pb_remote/server/CMakeFiles/pb_remote_server_nrf52840_xxAA_s140_6.0.0.dir/__/__/__/mesh/core/src/flash_manager_defrag.c.obj
 .text.write_back
                0x00028878       0x28 examples/pb_remote/server/CMakeFiles/pb_remote_server_nrf52840_xxAA_s140_6.0.0.dir/__/__/__/mesh/core/src/flash_manager_defrag.c.obj
 .text.post_process
                0x000288a0       0x40 examples/pb_remote/server/CMakeFiles/pb_remote_server_nrf52840_xxAA_s140_6.0.0.dir/__/__/__/mesh/core/src/flash_manager_defrag.c.obj
 .text.backup_entries
                0x000288e0       0xf8 examples/pb_remote/server/CMakeFiles/pb_remote_server_nrf52840_xxAA_s140_6.0.0.dir/__/__/__/mesh/core/src/flash_manager_defrag.c.obj
 .text.erase_source
                0x000289d8       0x34 examples/pb_remote/server/CMakeFiles/pb_remote_server_nrf52840_xxAA_s140_6.0.0.dir/__/__/__/mesh/core/src/flash_manager_defrag.c.obj
 .text.flash_manager_defrag_init
                0x00028a0c       0x8c examples/pb_remote/server/CMakeFiles/pb_remote_server_nrf52840_xxAA_s140_6.0.0.dir/__/__/__/mesh/core/src/flash_manager_defrag.c.obj
                0x00028a0c                flash_manager_defrag_init
 .text.flash_manager_defrag_is_running
                0x00028a98       0x10 examples/pb_remote/server/CMakeFiles/pb_remote_server_nrf52840_xxAA_s140_6.0.0.dir/__/__/__/mesh/core/src/flash_manager_defrag.c.obj
                0x00028a98                flash_manager_defrag_is_running
 .text.flash_manager_defrag
                0x00028aa8       0x44 examples/pb_remote/server/CMakeFiles/pb_remote_server_nrf52840_xxAA_s140_6.0.0.dir/__/__/__/mesh/core/src/flash_manager_defrag.c.obj
                0x00028aa8                flash_manager_defrag
 .text.flash_manager_defrag_recovery_page_get
                0x00028aec        0xc examples/pb_remote/server/CMakeFiles/pb_remote_server_nrf52840_xxAA_s140_6.0.0.dir/__/__/__/mesh/core/src/flash_manager_defrag.c.obj
                0x00028aec                flash_manager_defrag_recovery_page_get
 .text.fifo_init
                0x00028af8       0x34 examples/pb_remote/server/CMakeFiles/pb_remote_server_nrf52840_xxAA_s140_6.0.0.dir/__/__/__/mesh/core/src/fifo.c.obj
                0x00028af8                fifo_init
 .text.fifo_push
                0x00028b2c       0x50 examples/pb_remote/server/CMakeFiles/pb_remote_server_nrf52840_xxAA_s140_6.0.0.dir/__/__/__/mesh/core/src/fifo.c.obj
                0x00028b2c                fifo_push
 .text.fifo_pop
                0x00028b7c       0x52 examples/pb_remote/server/CMakeFiles/pb_remote_server_nrf52840_xxAA_s140_6.0.0.dir/__/__/__/mesh/core/src/fifo.c.obj
                0x00028b7c                fifo_pop
 .text.fifo_flush
                0x00028bce        0x6 examples/pb_remote/server/CMakeFiles/pb_remote_server_nrf52840_xxAA_s140_6.0.0.dir/__/__/__/mesh/core/src/fifo.c.obj
                0x00028bce                fifo_flush
 .text.fifo_get_len
                0x00028bd4        0x8 examples/pb_remote/server/CMakeFiles/pb_remote_server_nrf52840_xxAA_s140_6.0.0.dir/__/__/__/mesh/core/src/fifo.c.obj
                0x00028bd4                fifo_get_len
 .text.wait_for_ready
                0x00028bdc       0x10 examples/pb_remote/server/CMakeFiles/pb_remote_server_nrf52840_xxAA_s140_6.0.0.dir/__/__/__/mesh/core/src/nrf_flash.c.obj
 .text.nrf_flash_erase
                0x00028bec       0x50 examples/pb_remote/server/CMakeFiles/pb_remote_server_nrf52840_xxAA_s140_6.0.0.dir/__/__/__/mesh/core/src/nrf_flash.c.obj
                0x00028bec                nrf_flash_erase
 .text.nrf_flash_write
                0x00028c3c       0x50 examples/pb_remote/server/CMakeFiles/pb_remote_server_nrf52840_xxAA_s140_6.0.0.dir/__/__/__/mesh/core/src/nrf_flash.c.obj
                0x00028c3c                nrf_flash_write
 .text.packet_mgr_init
                0x00028c8c       0x4c examples/pb_remote/server/CMakeFiles/pb_remote_server_nrf52840_xxAA_s140_6.0.0.dir/__/__/__/mesh/core/src/packet_mgr.c.obj
                0x00028c8c                packet_mgr_init
 .text.flash_store_iv_index
                0x00028cd8       0x38 examples/pb_remote/server/CMakeFiles/pb_remote_server_nrf52840_xxAA_s140_6.0.0.dir/__/__/__/mesh/core/src/net_state.c.obj
 .text.flash_mem_available
                0x00028d10       0x14 examples/pb_remote/server/CMakeFiles/pb_remote_server_nrf52840_xxAA_s140_6.0.0.dir/__/__/__/mesh/core/src/net_state.c.obj
 .text.seqnum_block_allocate
                0x00028d24       0x4c examples/pb_remote/server/CMakeFiles/pb_remote_server_nrf52840_xxAA_s140_6.0.0.dir/__/__/__/mesh/core/src/net_state.c.obj
 .text.net_state_reset
                0x00028d70       0x48 examples/pb_remote/server/CMakeFiles/pb_remote_server_nrf52840_xxAA_s140_6.0.0.dir/__/__/__/mesh/core/src/net_state.c.obj
                0x00028d70                net_state_reset
 .text.flash_write_complete
                0x00028db8       0x64 examples/pb_remote/server/CMakeFiles/pb_remote_server_nrf52840_xxAA_s140_6.0.0.dir/__/__/__/mesh/core/src/net_state.c.obj
 .text.net_state_recover_from_flash
                0x00028e1c       0x8c examples/pb_remote/server/CMakeFiles/pb_remote_server_nrf52840_xxAA_s140_6.0.0.dir/__/__/__/mesh/core/src/net_state.c.obj
                0x00028e1c                net_state_recover_from_flash
 .text.net_state_flash_area_get
                0x00028ea8        0xc examples/pb_remote/server/CMakeFiles/pb_remote_server_nrf52840_xxAA_s140_6.0.0.dir/__/__/__/mesh/core/src/net_state.c.obj
                0x00028ea8                net_state_flash_area_get
 .text.init_flash_storage
                0x00028eb4       0x40 examples/pb_remote/server/CMakeFiles/pb_remote_server_nrf52840_xxAA_s140_6.0.0.dir/__/__/__/mesh/core/src/net_state.c.obj
 .text.net_state_init
                0x00028ef4       0x44 examples/pb_remote/server/CMakeFiles/pb_remote_server_nrf52840_xxAA_s140_6.0.0.dir/__/__/__/mesh/core/src/net_state.c.obj
                0x00028ef4                net_state_init
 .text.net_state_enable
                0x00028f38       0x30 examples/pb_remote/server/CMakeFiles/pb_remote_server_nrf52840_xxAA_s140_6.0.0.dir/__/__/__/mesh/core/src/net_state.c.obj
                0x00028f38                net_state_enable
 .text.net_state_iv_update_start
                0x00028f68       0x68 examples/pb_remote/server/CMakeFiles/pb_remote_server_nrf52840_xxAA_s140_6.0.0.dir/__/__/__/mesh/core/src/net_state.c.obj
                0x00028f68                net_state_iv_update_start
 .text.iv_update_trigger_if_pending
                0x00028fd0       0x80 examples/pb_remote/server/CMakeFiles/pb_remote_server_nrf52840_xxAA_s140_6.0.0.dir/__/__/__/mesh/core/src/net_state.c.obj
 .text.iv_update_timer_handler
                0x00029050       0x68 examples/pb_remote/server/CMakeFiles/pb_remote_server_nrf52840_xxAA_s140_6.0.0.dir/__/__/__/mesh/core/src/net_state.c.obj
 .text.mesh_evt_handler
                0x000290b8       0xa0 examples/pb_remote/server/CMakeFiles/pb_remote_server_nrf52840_xxAA_s140_6.0.0.dir/__/__/__/mesh/core/src/net_state.c.obj
 .text.net_state_seqnum_alloc
                0x00029158       0x68 examples/pb_remote/server/CMakeFiles/pb_remote_server_nrf52840_xxAA_s140_6.0.0.dir/__/__/__/mesh/core/src/net_state.c.obj
                0x00029158                net_state_seqnum_alloc
 .text.net_state_iv_index_lock
                0x000291c0       0x3c examples/pb_remote/server/CMakeFiles/pb_remote_server_nrf52840_xxAA_s140_6.0.0.dir/__/__/__/mesh/core/src/net_state.c.obj
                0x000291c0                net_state_iv_index_lock
 .text.net_state_key_refresh_phase_changed
                0x000291fc       0x20 examples/pb_remote/server/CMakeFiles/pb_remote_server_nrf52840_xxAA_s140_6.0.0.dir/__/__/__/mesh/core/src/net_state.c.obj
                0x000291fc                net_state_key_refresh_phase_changed
 .text.net_state_beacon_iv_index_get
                0x0002921c        0xc examples/pb_remote/server/CMakeFiles/pb_remote_server_nrf52840_xxAA_s140_6.0.0.dir/__/__/__/mesh/core/src/net_state.c.obj
                0x0002921c                net_state_beacon_iv_index_get
 .text.net_state_tx_iv_index_get
                0x00029228       0x14 examples/pb_remote/server/CMakeFiles/pb_remote_server_nrf52840_xxAA_s140_6.0.0.dir/__/__/__/mesh/core/src/net_state.c.obj
                0x00029228                net_state_tx_iv_index_get
 .text.net_state_rx_iv_index_get
                0x0002923c       0x18 examples/pb_remote/server/CMakeFiles/pb_remote_server_nrf52840_xxAA_s140_6.0.0.dir/__/__/__/mesh/core/src/net_state.c.obj
                0x0002923c                net_state_rx_iv_index_get
 .text.net_state_iv_update_get
                0x00029254        0xc examples/pb_remote/server/CMakeFiles/pb_remote_server_nrf52840_xxAA_s140_6.0.0.dir/__/__/__/mesh/core/src/net_state.c.obj
                0x00029254                net_state_iv_update_get
 .text.net_state_iv_index_set
                0x00029260       0x30 examples/pb_remote/server/CMakeFiles/pb_remote_server_nrf52840_xxAA_s140_6.0.0.dir/__/__/__/mesh/core/src/net_state.c.obj
                0x00029260                net_state_iv_index_set
 .text.send_end_events
                0x00029290       0x84 examples/pb_remote/server/CMakeFiles/pb_remote_server_nrf52840_xxAA_s140_6.0.0.dir/__/__/__/mesh/core/src/mesh_flash.c.obj
 .text.flash_op_schedule
                0x00029314       0x88 examples/pb_remote/server/CMakeFiles/pb_remote_server_nrf52840_xxAA_s140_6.0.0.dir/__/__/__/mesh/core/src/mesh_flash.c.obj
 .text.flash_op_start
                0x0002939c      0x13c examples/pb_remote/server/CMakeFiles/pb_remote_server_nrf52840_xxAA_s140_6.0.0.dir/__/__/__/mesh/core/src/mesh_flash.c.obj
 .text.mesh_flash_init
                0x000294d8       0x88 examples/pb_remote/server/CMakeFiles/pb_remote_server_nrf52840_xxAA_s140_6.0.0.dir/__/__/__/mesh/core/src/mesh_flash.c.obj
                0x000294d8                mesh_flash_init
 .text.mesh_flash_user_callback_set
                0x00029560       0x20 examples/pb_remote/server/CMakeFiles/pb_remote_server_nrf52840_xxAA_s140_6.0.0.dir/__/__/__/mesh/core/src/mesh_flash.c.obj
                0x00029560                mesh_flash_user_callback_set
 .text.mesh_flash_op_push
                0x00029580       0xe4 examples/pb_remote/server/CMakeFiles/pb_remote_server_nrf52840_xxAA_s140_6.0.0.dir/__/__/__/mesh/core/src/mesh_flash.c.obj
                0x00029580                mesh_flash_op_push
 .text.nrf_mesh_address_type_get
                0x00029664       0x10 examples/pb_remote/server/CMakeFiles/pb_remote_server_nrf52840_xxAA_s140_6.0.0.dir/__/__/__/mesh/core/src/nrf_mesh_utils.c.obj
                0x00029664                nrf_mesh_address_type_get
 .text.sd_softdevice_is_enabled
                0x00029674        0x4 examples/pb_remote/server/CMakeFiles/pb_remote_server_nrf52840_xxAA_s140_6.0.0.dir/__/__/__/mesh/core/src/nrf_mesh.c.obj
 .text.nrf_mesh_listen
                0x00029678      0x138 examples/pb_remote/server/CMakeFiles/pb_remote_server_nrf52840_xxAA_s140_6.0.0.dir/__/__/__/mesh/core/src/nrf_mesh.c.obj
 .text.scanner_packet_process_cb
                0x000297b0       0x8c examples/pb_remote/server/CMakeFiles/pb_remote_server_nrf52840_xxAA_s140_6.0.0.dir/__/__/__/mesh/core/src/nrf_mesh.c.obj
 .text.nrf_mesh_init
                0x0002983c       0xd0 examples/pb_remote/server/CMakeFiles/pb_remote_server_nrf52840_xxAA_s140_6.0.0.dir/__/__/__/mesh/core/src/nrf_mesh.c.obj
                0x0002983c                nrf_mesh_init
 .text.nrf_mesh_enable
                0x0002990c       0xb8 examples/pb_remote/server/CMakeFiles/pb_remote_server_nrf52840_xxAA_s140_6.0.0.dir/__/__/__/mesh/core/src/nrf_mesh.c.obj
                0x0002990c                nrf_mesh_enable
 .text.nrf_mesh_packet_send
                0x000299c4       0x7c examples/pb_remote/server/CMakeFiles/pb_remote_server_nrf52840_xxAA_s140_6.0.0.dir/__/__/__/mesh/core/src/nrf_mesh.c.obj
                0x000299c4                nrf_mesh_packet_send
 .text.nrf_mesh_evt_handler_add
                0x00029a40        0x4 examples/pb_remote/server/CMakeFiles/pb_remote_server_nrf52840_xxAA_s140_6.0.0.dir/__/__/__/mesh/core/src/nrf_mesh.c.obj
                0x00029a40                nrf_mesh_evt_handler_add
 .text.nrf_mesh_on_sd_evt
                0x00029a44        0xa examples/pb_remote/server/CMakeFiles/pb_remote_server_nrf52840_xxAA_s140_6.0.0.dir/__/__/__/mesh/core/src/nrf_mesh.c.obj
                0x00029a44                nrf_mesh_on_sd_evt
 .text.nrf_mesh_subnet_added
                0x00029a4e        0x2 examples/pb_remote/server/CMakeFiles/pb_remote_server_nrf52840_xxAA_s140_6.0.0.dir/__/__/__/mesh/core/src/nrf_mesh.c.obj
                0x00029a4e                nrf_mesh_subnet_added
 .text.nrf_mesh_unique_token_get
                0x00029a50       0x18 examples/pb_remote/server/CMakeFiles/pb_remote_server_nrf52840_xxAA_s140_6.0.0.dir/__/__/__/mesh/core/src/nrf_mesh.c.obj
                0x00029a50                nrf_mesh_unique_token_get
 .text.queue_init
                0x00029a68       0x14 examples/pb_remote/server/CMakeFiles/pb_remote_server_nrf52840_xxAA_s140_6.0.0.dir/__/__/__/mesh/core/src/queue.c.obj
                0x00029a68                queue_init
 .text.queue_push
                0x00029a7c       0x34 examples/pb_remote/server/CMakeFiles/pb_remote_server_nrf52840_xxAA_s140_6.0.0.dir/__/__/__/mesh/core/src/queue.c.obj
                0x00029a7c                queue_push
 .text.queue_pop
                0x00029ab0       0x26 examples/pb_remote/server/CMakeFiles/pb_remote_server_nrf52840_xxAA_s140_6.0.0.dir/__/__/__/mesh/core/src/queue.c.obj
                0x00029ab0                queue_pop
 .text.queue_peek
                0x00029ad6       0x10 examples/pb_remote/server/CMakeFiles/pb_remote_server_nrf52840_xxAA_s140_6.0.0.dir/__/__/__/mesh/core/src/queue.c.obj
                0x00029ad6                queue_peek
 *fill*         0x00029ae6        0x2 
 .text.hal_lfclk_ppm_get
                0x00029ae8       0x14 examples/pb_remote/server/CMakeFiles/pb_remote_server_nrf52840_xxAA_s140_6.0.0.dir/__/__/__/mesh/core/src/hal.c.obj
                0x00029ae8                hal_lfclk_ppm_get
 .text.hal_irq_active_get
                0x00029afc       0x10 examples/pb_remote/server/CMakeFiles/pb_remote_server_nrf52840_xxAA_s140_6.0.0.dir/__/__/__/mesh/core/src/hal.c.obj
                0x00029afc                hal_irq_active_get
 .text.hal_irq_is_enabled
                0x00029b0c       0x28 examples/pb_remote/server/CMakeFiles/pb_remote_server_nrf52840_xxAA_s140_6.0.0.dir/__/__/__/mesh/core/src/hal.c.obj
                0x00029b0c                hal_irq_is_enabled
 .text.sd_ecb_block_encrypt
                0x00029b34        0x4 examples/pb_remote/server/CMakeFiles/pb_remote_server_nrf52840_xxAA_s140_6.0.0.dir/__/__/__/mesh/core/src/aes_cmac.c.obj
 .text.utils_xor.constprop.1
                0x00029b38       0x20 examples/pb_remote/server/CMakeFiles/pb_remote_server_nrf52840_xxAA_s140_6.0.0.dir/__/__/__/mesh/core/src/aes_cmac.c.obj
 .text.aes_cmac
                0x00029b58      0x112 examples/pb_remote/server/CMakeFiles/pb_remote_server_nrf52840_xxAA_s140_6.0.0.dir/__/__/__/mesh/core/src/aes_cmac.c.obj
                0x00029b58                aes_cmac
 *fill*         0x00029c6a        0x2 
 .text.remove_evt
                0x00029c6c       0x2c examples/pb_remote/server/CMakeFiles/pb_remote_server_nrf52840_xxAA_s140_6.0.0.dir/__/__/__/mesh/core/src/timer_scheduler.c.obj
 .text.add_evt  0x00029c98       0x50 examples/pb_remote/server/CMakeFiles/pb_remote_server_nrf52840_xxAA_s140_6.0.0.dir/__/__/__/mesh/core/src/timer_scheduler.c.obj
 .text.timer_cb
                0x00029ce8        0xc examples/pb_remote/server/CMakeFiles/pb_remote_server_nrf52840_xxAA_s140_6.0.0.dir/__/__/__/mesh/core/src/timer_scheduler.c.obj
 .text.setup_timeout
                0x00029cf4       0x44 examples/pb_remote/server/CMakeFiles/pb_remote_server_nrf52840_xxAA_s140_6.0.0.dir/__/__/__/mesh/core/src/timer_scheduler.c.obj
 .text.flag_event_cb
                0x00029d38       0x98 examples/pb_remote/server/CMakeFiles/pb_remote_server_nrf52840_xxAA_s140_6.0.0.dir/__/__/__/mesh/core/src/timer_scheduler.c.obj
 .text.timer_sch_init
                0x00029dd0       0x24 examples/pb_remote/server/CMakeFiles/pb_remote_server_nrf52840_xxAA_s140_6.0.0.dir/__/__/__/mesh/core/src/timer_scheduler.c.obj
                0x00029dd0                timer_sch_init
 .text.timer_sch_schedule
                0x00029df4       0x44 examples/pb_remote/server/CMakeFiles/pb_remote_server_nrf52840_xxAA_s140_6.0.0.dir/__/__/__/mesh/core/src/timer_scheduler.c.obj
                0x00029df4                timer_sch_schedule
 .text.timer_sch_abort
                0x00029e38       0x2e examples/pb_remote/server/CMakeFiles/pb_remote_server_nrf52840_xxAA_s140_6.0.0.dir/__/__/__/mesh/core/src/timer_scheduler.c.obj
                0x00029e38                timer_sch_abort
 .text.timer_sch_reschedule
                0x00029e66       0x38 examples/pb_remote/server/CMakeFiles/pb_remote_server_nrf52840_xxAA_s140_6.0.0.dir/__/__/__/mesh/core/src/timer_scheduler.c.obj
                0x00029e66                timer_sch_reschedule
 *fill*         0x00029e9e        0x2 
 .text.timer_mut_unlock
                0x00029ea0       0x10 examples/pb_remote/server/CMakeFiles/pb_remote_server_nrf52840_xxAA_s140_6.0.0.dir/__/__/__/mesh/core/src/timer.c.obj
 .text.timer_order_cb
                0x00029eb0       0x94 examples/pb_remote/server/CMakeFiles/pb_remote_server_nrf52840_xxAA_s140_6.0.0.dir/__/__/__/mesh/core/src/timer.c.obj
                0x00029eb0                timer_order_cb
 .text.timer_now
                0x00029f44       0x48 examples/pb_remote/server/CMakeFiles/pb_remote_server_nrf52840_xxAA_s140_6.0.0.dir/__/__/__/mesh/core/src/timer.c.obj
                0x00029f44                timer_now
 .text.timer_event_handler
                0x00029f8c       0x84 examples/pb_remote/server/CMakeFiles/pb_remote_server_nrf52840_xxAA_s140_6.0.0.dir/__/__/__/mesh/core/src/timer.c.obj
                0x00029f8c                timer_event_handler
 .text.timer_on_ts_begin
                0x0002a010       0xf4 examples/pb_remote/server/CMakeFiles/pb_remote_server_nrf52840_xxAA_s140_6.0.0.dir/__/__/__/mesh/core/src/timer.c.obj
                0x0002a010                timer_on_ts_begin
 .text.timer_on_ts_end
                0x0002a104       0x60 examples/pb_remote/server/CMakeFiles/pb_remote_server_nrf52840_xxAA_s140_6.0.0.dir/__/__/__/mesh/core/src/timer.c.obj
                0x0002a104                timer_on_ts_end
 .text.sd_rand_application_bytes_available_get
                0x0002a164        0x4 examples/pb_remote/server/CMakeFiles/pb_remote_server_nrf52840_xxAA_s140_6.0.0.dir/__/__/__/mesh/core/src/rand.c.obj
 .text.sd_rand_application_vector_get
                0x0002a168        0x4 examples/pb_remote/server/CMakeFiles/pb_remote_server_nrf52840_xxAA_s140_6.0.0.dir/__/__/__/mesh/core/src/rand.c.obj
 .text.rand_prng_get
                0x0002a16c       0x22 examples/pb_remote/server/CMakeFiles/pb_remote_server_nrf52840_xxAA_s140_6.0.0.dir/__/__/__/mesh/core/src/rand.c.obj
                0x0002a16c                rand_prng_get
 .text.rand_hw_rng_get
                0x0002a18e       0x44 examples/pb_remote/server/CMakeFiles/pb_remote_server_nrf52840_xxAA_s140_6.0.0.dir/__/__/__/mesh/core/src/rand.c.obj
                0x0002a18e                rand_hw_rng_get
 *fill*         0x0002a1d2        0x2 
 .text.rand_prng_seed
                0x0002a1d4       0x34 examples/pb_remote/server/CMakeFiles/pb_remote_server_nrf52840_xxAA_s140_6.0.0.dir/__/__/__/mesh/core/src/rand.c.obj
                0x0002a1d4                rand_prng_seed
 .text.mesh_opt_init
                0x0002a208        0x2 examples/pb_remote/server/CMakeFiles/pb_remote_server_nrf52840_xxAA_s140_6.0.0.dir/__/__/__/mesh/core/src/mesh_opt.c.obj
                0x0002a208                mesh_opt_init
 .text.sd_radio_session_open
                0x0002a20a        0x4 examples/pb_remote/server/CMakeFiles/pb_remote_server_nrf52840_xxAA_s140_6.0.0.dir/__/__/__/mesh/core/src/timeslot.c.obj
 .text.sd_radio_session_close
                0x0002a20e        0x4 examples/pb_remote/server/CMakeFiles/pb_remote_server_nrf52840_xxAA_s140_6.0.0.dir/__/__/__/mesh/core/src/timeslot.c.obj
 .text.sd_radio_request
                0x0002a212        0x4 examples/pb_remote/server/CMakeFiles/pb_remote_server_nrf52840_xxAA_s140_6.0.0.dir/__/__/__/mesh/core/src/timeslot.c.obj
 *fill*         0x0002a216        0x2 
 .text.end_timer_handler
                0x0002a218       0x24 examples/pb_remote/server/CMakeFiles/pb_remote_server_nrf52840_xxAA_s140_6.0.0.dir/__/__/__/mesh/core/src/timeslot.c.obj
 .text.get_end_time.constprop.10
                0x0002a23c       0x28 examples/pb_remote/server/CMakeFiles/pb_remote_server_nrf52840_xxAA_s140_6.0.0.dir/__/__/__/mesh/core/src/timeslot.c.obj
 .text.handle_extend_end.constprop.3
                0x0002a264       0xb4 examples/pb_remote/server/CMakeFiles/pb_remote_server_nrf52840_xxAA_s140_6.0.0.dir/__/__/__/mesh/core/src/timeslot.c.obj
 .text.radio_signal_callback
                0x0002a318      0x138 examples/pb_remote/server/CMakeFiles/pb_remote_server_nrf52840_xxAA_s140_6.0.0.dir/__/__/__/mesh/core/src/timeslot.c.obj
 .text.timeslot_sd_event_handler
                0x0002a450       0x38 examples/pb_remote/server/CMakeFiles/pb_remote_server_nrf52840_xxAA_s140_6.0.0.dir/__/__/__/mesh/core/src/timeslot.c.obj
                0x0002a450                timeslot_sd_event_handler
 .text.timeslot_init
                0x0002a488       0x48 examples/pb_remote/server/CMakeFiles/pb_remote_server_nrf52840_xxAA_s140_6.0.0.dir/__/__/__/mesh/core/src/timeslot.c.obj
                0x0002a488                timeslot_init
 .text.timeslot_start
                0x0002a4d0       0x20 examples/pb_remote/server/CMakeFiles/pb_remote_server_nrf52840_xxAA_s140_6.0.0.dir/__/__/__/mesh/core/src/timeslot.c.obj
                0x0002a4d0                timeslot_start
 .text.timeslot_end_is_pending
                0x0002a4f0       0x24 examples/pb_remote/server/CMakeFiles/pb_remote_server_nrf52840_xxAA_s140_6.0.0.dir/__/__/__/mesh/core/src/timeslot.c.obj
                0x0002a4f0                timeslot_end_is_pending
 .text.timeslot_start_time_get
                0x0002a514        0xc examples/pb_remote/server/CMakeFiles/pb_remote_server_nrf52840_xxAA_s140_6.0.0.dir/__/__/__/mesh/core/src/timeslot.c.obj
                0x0002a514                timeslot_start_time_get
 .text.timeslot_remaining_time_get
                0x0002a520       0x20 examples/pb_remote/server/CMakeFiles/pb_remote_server_nrf52840_xxAA_s140_6.0.0.dir/__/__/__/mesh/core/src/timeslot.c.obj
                0x0002a520                timeslot_remaining_time_get
 .text.timeslot_is_in_cb
                0x0002a540        0xc examples/pb_remote/server/CMakeFiles/pb_remote_server_nrf52840_xxAA_s140_6.0.0.dir/__/__/__/mesh/core/src/timeslot.c.obj
                0x0002a540                timeslot_is_in_cb
 .text.timeslot_trigger
                0x0002a54c       0x24 examples/pb_remote/server/CMakeFiles/pb_remote_server_nrf52840_xxAA_s140_6.0.0.dir/__/__/__/mesh/core/src/timeslot.c.obj
                0x0002a54c                timeslot_trigger
 .text.timeslot_stop
                0x0002a570       0x10 examples/pb_remote/server/CMakeFiles/pb_remote_server_nrf52840_xxAA_s140_6.0.0.dir/__/__/__/mesh/core/src/timeslot.c.obj
                0x0002a570                timeslot_stop
 .text.timeslot_state_lock
                0x0002a580       0x28 examples/pb_remote/server/CMakeFiles/pb_remote_server_nrf52840_xxAA_s140_6.0.0.dir/__/__/__/mesh/core/src/timeslot.c.obj
                0x0002a580                timeslot_state_lock
 .text.trigger_event_handler
                0x0002a5a8       0x1c examples/pb_remote/server/CMakeFiles/pb_remote_server_nrf52840_xxAA_s140_6.0.0.dir/__/__/__/mesh/core/src/bearer_event.c.obj
 .text.evt_push
                0x0002a5c4       0x1c examples/pb_remote/server/CMakeFiles/pb_remote_server_nrf52840_xxAA_s140_6.0.0.dir/__/__/__/mesh/core/src/bearer_event.c.obj
 .text.bearer_event_init
                0x0002a5e0       0x48 examples/pb_remote/server/CMakeFiles/pb_remote_server_nrf52840_xxAA_s140_6.0.0.dir/__/__/__/mesh/core/src/bearer_event.c.obj
                0x0002a5e0                bearer_event_init
 .text.bearer_event_timer_post
                0x0002a628       0x24 examples/pb_remote/server/CMakeFiles/pb_remote_server_nrf52840_xxAA_s140_6.0.0.dir/__/__/__/mesh/core/src/bearer_event.c.obj
                0x0002a628                bearer_event_timer_post
 .text.bearer_event_critical_section_begin
                0x0002a64c       0x44 examples/pb_remote/server/CMakeFiles/pb_remote_server_nrf52840_xxAA_s140_6.0.0.dir/__/__/__/mesh/core/src/bearer_event.c.obj
                0x0002a64c                bearer_event_critical_section_begin
 .text.bearer_event_critical_section_end
                0x0002a690       0x40 examples/pb_remote/server/CMakeFiles/pb_remote_server_nrf52840_xxAA_s140_6.0.0.dir/__/__/__/mesh/core/src/bearer_event.c.obj
                0x0002a690                bearer_event_critical_section_end
 .text.bearer_event_flag_add
                0x0002a6d0       0x3c examples/pb_remote/server/CMakeFiles/pb_remote_server_nrf52840_xxAA_s140_6.0.0.dir/__/__/__/mesh/core/src/bearer_event.c.obj
                0x0002a6d0                bearer_event_flag_add
 .text.bearer_event_flag_set
                0x0002a70c       0x44 examples/pb_remote/server/CMakeFiles/pb_remote_server_nrf52840_xxAA_s140_6.0.0.dir/__/__/__/mesh/core/src/bearer_event.c.obj
                0x0002a70c                bearer_event_flag_set
 .text.bearer_event_sequential_add
                0x0002a750       0x2e examples/pb_remote/server/CMakeFiles/pb_remote_server_nrf52840_xxAA_s140_6.0.0.dir/__/__/__/mesh/core/src/bearer_event.c.obj
                0x0002a750                bearer_event_sequential_add
 *fill*         0x0002a77e        0x2 
 .text.bearer_event_sequential_post
                0x0002a780       0x44 examples/pb_remote/server/CMakeFiles/pb_remote_server_nrf52840_xxAA_s140_6.0.0.dir/__/__/__/mesh/core/src/bearer_event.c.obj
                0x0002a780                bearer_event_sequential_post
 .text.bearer_event_sequential_pending
                0x0002a7c4       0x10 examples/pb_remote/server/CMakeFiles/pb_remote_server_nrf52840_xxAA_s140_6.0.0.dir/__/__/__/mesh/core/src/bearer_event.c.obj
                0x0002a7c4                bearer_event_sequential_pending
 .text.bearer_event_handler
                0x0002a7d4       0xe8 examples/pb_remote/server/CMakeFiles/pb_remote_server_nrf52840_xxAA_s140_6.0.0.dir/__/__/__/mesh/core/src/bearer_event.c.obj
                0x0002a7d4                bearer_event_handler
 .text.QDEC_IRQHandler
                0x0002a8bc        0x4 examples/pb_remote/server/CMakeFiles/pb_remote_server_nrf52840_xxAA_s140_6.0.0.dir/__/__/__/mesh/core/src/bearer_event.c.obj
                0x0002a8bc                QDEC_IRQHandler
 .text.bearer_event_in_correct_irq_priority
                0x0002a8c0       0x74 examples/pb_remote/server/CMakeFiles/pb_remote_server_nrf52840_xxAA_s140_6.0.0.dir/__/__/__/mesh/core/src/bearer_event.c.obj
                0x0002a8c0                bearer_event_in_correct_irq_priority
 .text.sd_ecb_block_encrypt
                0x0002a934        0x4 examples/pb_remote/server/CMakeFiles/pb_remote_server_nrf52840_xxAA_s140_6.0.0.dir/__/__/__/mesh/core/src/enc.c.obj
 .text.enc_aes_encrypt
                0x0002a938       0x32 examples/pb_remote/server/CMakeFiles/pb_remote_server_nrf52840_xxAA_s140_6.0.0.dir/__/__/__/mesh/core/src/enc.c.obj
                0x0002a938                enc_aes_encrypt
 .text.enc_aes_cmac
                0x0002a96a        0x4 examples/pb_remote/server/CMakeFiles/pb_remote_server_nrf52840_xxAA_s140_6.0.0.dir/__/__/__/mesh/core/src/enc.c.obj
                0x0002a96a                enc_aes_cmac
 .text.enc_aes_ccm_encrypt
                0x0002a96e        0x4 examples/pb_remote/server/CMakeFiles/pb_remote_server_nrf52840_xxAA_s140_6.0.0.dir/__/__/__/mesh/core/src/enc.c.obj
                0x0002a96e                enc_aes_ccm_encrypt
 .text.enc_aes_ccm_decrypt
                0x0002a972        0x4 examples/pb_remote/server/CMakeFiles/pb_remote_server_nrf52840_xxAA_s140_6.0.0.dir/__/__/__/mesh/core/src/enc.c.obj
                0x0002a972                enc_aes_ccm_decrypt
 .text.enc_nonce_generate
                0x0002a976       0xbc examples/pb_remote/server/CMakeFiles/pb_remote_server_nrf52840_xxAA_s140_6.0.0.dir/__/__/__/mesh/core/src/enc.c.obj
                0x0002a976                enc_nonce_generate
 .text.enc_s1   0x0002aa32       0x2c examples/pb_remote/server/CMakeFiles/pb_remote_server_nrf52840_xxAA_s140_6.0.0.dir/__/__/__/mesh/core/src/enc.c.obj
                0x0002aa32                enc_s1
 .text.enc_k1   0x0002aa5e       0x3c examples/pb_remote/server/CMakeFiles/pb_remote_server_nrf52840_xxAA_s140_6.0.0.dir/__/__/__/mesh/core/src/enc.c.obj
                0x0002aa5e                enc_k1
 *fill*         0x0002aa9a        0x2 
 .text.enc_k2   0x0002aa9c       0xc8 examples/pb_remote/server/CMakeFiles/pb_remote_server_nrf52840_xxAA_s140_6.0.0.dir/__/__/__/mesh/core/src/enc.c.obj
                0x0002aa9c                enc_k2
 .text.enc_k3   0x0002ab64       0x5c examples/pb_remote/server/CMakeFiles/pb_remote_server_nrf52840_xxAA_s140_6.0.0.dir/__/__/__/mesh/core/src/enc.c.obj
                0x0002ab64                enc_k3
 .text.enc_k4   0x0002abc0       0x54 examples/pb_remote/server/CMakeFiles/pb_remote_server_nrf52840_xxAA_s140_6.0.0.dir/__/__/__/mesh/core/src/enc.c.obj
                0x0002abc0                enc_k4
 .text.allocate_packet
                0x0002ac14       0x6a examples/pb_remote/server/CMakeFiles/pb_remote_server_nrf52840_xxAA_s140_6.0.0.dir/__/__/__/mesh/core/src/network.c.obj
 *fill*         0x0002ac7e        0x2 
 .text.network_init
                0x0002ac80       0x24 examples/pb_remote/server/CMakeFiles/pb_remote_server_nrf52840_xxAA_s140_6.0.0.dir/__/__/__/mesh/core/src/network.c.obj
                0x0002ac80                network_init
 .text.network_enable
                0x0002aca4        0xe examples/pb_remote/server/CMakeFiles/pb_remote_server_nrf52840_xxAA_s140_6.0.0.dir/__/__/__/mesh/core/src/network.c.obj
                0x0002aca4                network_enable
 .text.network_packet_alloc
                0x0002acb2       0x30 examples/pb_remote/server/CMakeFiles/pb_remote_server_nrf52840_xxAA_s140_6.0.0.dir/__/__/__/mesh/core/src/network.c.obj
                0x0002acb2                network_packet_alloc
 .text.network_packet_send
                0x0002ace2       0x46 examples/pb_remote/server/CMakeFiles/pb_remote_server_nrf52840_xxAA_s140_6.0.0.dir/__/__/__/mesh/core/src/network.c.obj
                0x0002ace2                network_packet_send
 .text.network_packet_in
                0x0002ad28      0x164 examples/pb_remote/server/CMakeFiles/pb_remote_server_nrf52840_xxAA_s140_6.0.0.dir/__/__/__/mesh/core/src/network.c.obj
                0x0002ad28                network_packet_in
 .text.nonce_type_get
                0x0002ae8c       0x16 examples/pb_remote/server/CMakeFiles/pb_remote_server_nrf52840_xxAA_s140_6.0.0.dir/__/__/__/mesh/core/src/net_packet.c.obj
 .text.header_transfuscate
                0x0002aea2       0x54 examples/pb_remote/server/CMakeFiles/pb_remote_server_nrf52840_xxAA_s140_6.0.0.dir/__/__/__/mesh/core/src/net_packet.c.obj
 *fill*         0x0002aef6        0x2 
 .text.net_packet_decrypt
                0x0002aef8      0x224 examples/pb_remote/server/CMakeFiles/pb_remote_server_nrf52840_xxAA_s140_6.0.0.dir/__/__/__/mesh/core/src/net_packet.c.obj
                0x0002aef8                net_packet_decrypt
 .text.net_packet_encrypt
                0x0002b11c       0x7e examples/pb_remote/server/CMakeFiles/pb_remote_server_nrf52840_xxAA_s140_6.0.0.dir/__/__/__/mesh/core/src/net_packet.c.obj
                0x0002b11c                net_packet_encrypt
 .text.net_packet_header_set
                0x0002b19a       0xaa examples/pb_remote/server/CMakeFiles/pb_remote_server_nrf52840_xxAA_s140_6.0.0.dir/__/__/__/mesh/core/src/net_packet.c.obj
                0x0002b19a                net_packet_header_set
 .text.net_packet_payload_len_get
                0x0002b244       0x10 examples/pb_remote/server/CMakeFiles/pb_remote_server_nrf52840_xxAA_s140_6.0.0.dir/__/__/__/mesh/core/src/net_packet.c.obj
                0x0002b244                net_packet_payload_len_get
 .text.net_packet_from_payload
                0x0002b254        0x4 examples/pb_remote/server/CMakeFiles/pb_remote_server_nrf52840_xxAA_s140_6.0.0.dir/__/__/__/mesh/core/src/net_packet.c.obj
                0x0002b254                net_packet_from_payload
 .text.net_packet_obfuscation_start_get
                0x0002b258        0x4 examples/pb_remote/server/CMakeFiles/pb_remote_server_nrf52840_xxAA_s140_6.0.0.dir/__/__/__/mesh/core/src/net_packet.c.obj
                0x0002b258                net_packet_obfuscation_start_get
 .text.stage_get_available
                0x0002b25c       0x24 examples/pb_remote/server/CMakeFiles/pb_remote_server_nrf52840_xxAA_s140_6.0.0.dir/__/__/__/mesh/core/src/msqueue.c.obj
 .text.msq_get  0x0002b280       0x38 examples/pb_remote/server/CMakeFiles/pb_remote_server_nrf52840_xxAA_s140_6.0.0.dir/__/__/__/mesh/core/src/msqueue.c.obj
                0x0002b280                msq_get
 .text.msq_move
                0x0002b2b8       0x2e examples/pb_remote/server/CMakeFiles/pb_remote_server_nrf52840_xxAA_s140_6.0.0.dir/__/__/__/mesh/core/src/msqueue.c.obj
                0x0002b2b8                msq_move
 .text.msq_reset
                0x0002b2e6       0x20 examples/pb_remote/server/CMakeFiles/pb_remote_server_nrf52840_xxAA_s140_6.0.0.dir/__/__/__/mesh/core/src/msqueue.c.obj
                0x0002b2e6                msq_reset
 .text.msq_init
                0x0002b306       0x4a examples/pb_remote/server/CMakeFiles/pb_remote_server_nrf52840_xxAA_s140_6.0.0.dir/__/__/__/mesh/core/src/msqueue.c.obj
                0x0002b306                msq_init
 .text.msq_available
                0x0002b350       0x26 examples/pb_remote/server/CMakeFiles/pb_remote_server_nrf52840_xxAA_s140_6.0.0.dir/__/__/__/mesh/core/src/msqueue.c.obj
                0x0002b350                msq_available
 .text.nrf_mesh_keygen_aid
                0x0002b376       0x12 examples/pb_remote/server/CMakeFiles/pb_remote_server_nrf52840_xxAA_s140_6.0.0.dir/__/__/__/mesh/core/src/nrf_mesh_keygen.c.obj
                0x0002b376                nrf_mesh_keygen_aid
 .text.nrf_mesh_keygen_network_secmat
                0x0002b388       0x20 examples/pb_remote/server/CMakeFiles/pb_remote_server_nrf52840_xxAA_s140_6.0.0.dir/__/__/__/mesh/core/src/nrf_mesh_keygen.c.obj
                0x0002b388                nrf_mesh_keygen_network_secmat
 .text.nrf_mesh_keygen_beacon_secmat
                0x0002b3a8       0x50 examples/pb_remote/server/CMakeFiles/pb_remote_server_nrf52840_xxAA_s140_6.0.0.dir/__/__/__/mesh/core/src/nrf_mesh_keygen.c.obj
                0x0002b3a8                nrf_mesh_keygen_beacon_secmat
 .text.nrf_mesh_keygen_virtual_address
                0x0002b3f8       0x50 examples/pb_remote/server/CMakeFiles/pb_remote_server_nrf52840_xxAA_s140_6.0.0.dir/__/__/__/mesh/core/src/nrf_mesh_keygen.c.obj
                0x0002b3f8                nrf_mesh_keygen_virtual_address
 .text.list_insert
                0x0002b448       0x1c examples/pb_remote/server/CMakeFiles/pb_remote_server_nrf52840_xxAA_s140_6.0.0.dir/__/__/__/mesh/core/src/list.c.obj
 .text.list_add
                0x0002b464       0x42 examples/pb_remote/server/CMakeFiles/pb_remote_server_nrf52840_xxAA_s140_6.0.0.dir/__/__/__/mesh/core/src/list.c.obj
                0x0002b464                list_add
 .text.list_remove
                0x0002b4a6       0x3a examples/pb_remote/server/CMakeFiles/pb_remote_server_nrf52840_xxAA_s140_6.0.0.dir/__/__/__/mesh/core/src/list.c.obj
                0x0002b4a6                list_remove
 .text.list_compare_add
                0x0002b4e0       0x56 examples/pb_remote/server/CMakeFiles/pb_remote_server_nrf52840_xxAA_s140_6.0.0.dir/__/__/__/mesh/core/src/list.c.obj
                0x0002b4e0                list_compare_add
 *fill*         0x0002b536        0x2 
 .text.log_callback_rtt
                0x0002b538       0x2c examples/pb_remote/server/CMakeFiles/pb_remote_server_nrf52840_xxAA_s140_6.0.0.dir/__/__/__/mesh/core/src/log.c.obj
                0x0002b538                log_callback_rtt
 .text.log_init
                0x0002b564       0x1c examples/pb_remote/server/CMakeFiles/pb_remote_server_nrf52840_xxAA_s140_6.0.0.dir/__/__/__/mesh/core/src/log.c.obj
                0x0002b564                log_init
 .text.log_vprintf
                0x0002b580       0x18 examples/pb_remote/server/CMakeFiles/pb_remote_server_nrf52840_xxAA_s140_6.0.0.dir/__/__/__/mesh/core/src/log.c.obj
                0x0002b580                log_vprintf
 .text.log_printf
                0x0002b598       0x18 examples/pb_remote/server/CMakeFiles/pb_remote_server_nrf52840_xxAA_s140_6.0.0.dir/__/__/__/mesh/core/src/log.c.obj
                0x0002b598                log_printf
 .text.get_area_end
                0x0002b5b0        0xc examples/pb_remote/server/CMakeFiles/pb_remote_server_nrf52840_xxAA_s140_6.0.0.dir/__/__/__/mesh/core/src/flash_manager.c.obj
 .text.handle_matches_filter
                0x0002b5bc       0x26 examples/pb_remote/server/CMakeFiles/pb_remote_server_nrf52840_xxAA_s140_6.0.0.dir/__/__/__/mesh/core/src/flash_manager.c.obj
 .text.flash_area_is_blank
                0x0002b5e2       0x34 examples/pb_remote/server/CMakeFiles/pb_remote_server_nrf52840_xxAA_s140_6.0.0.dir/__/__/__/mesh/core/src/flash_manager.c.obj
 *fill*         0x0002b616        0x2 
 .text.get_packet_buffer
                0x0002b618       0x20 examples/pb_remote/server/CMakeFiles/pb_remote_server_nrf52840_xxAA_s140_6.0.0.dir/__/__/__/mesh/core/src/flash_manager.c.obj
 .text.flash    0x0002b638       0x1c examples/pb_remote/server/CMakeFiles/pb_remote_server_nrf52840_xxAA_s140_6.0.0.dir/__/__/__/mesh/core/src/flash_manager.c.obj
 .text.free_packet_buffer
                0x0002b654       0x3c examples/pb_remote/server/CMakeFiles/pb_remote_server_nrf52840_xxAA_s140_6.0.0.dir/__/__/__/mesh/core/src/flash_manager.c.obj
 .text.reserve_action_buffer
                0x0002b690       0x24 examples/pb_remote/server/CMakeFiles/pb_remote_server_nrf52840_xxAA_s140_6.0.0.dir/__/__/__/mesh/core/src/flash_manager.c.obj
 .text.commit_action_buffer
                0x0002b6b4       0x18 examples/pb_remote/server/CMakeFiles/pb_remote_server_nrf52840_xxAA_s140_6.0.0.dir/__/__/__/mesh/core/src/flash_manager.c.obj
 .text.schedule_processing
                0x0002b6cc        0xc examples/pb_remote/server/CMakeFiles/pb_remote_server_nrf52840_xxAA_s140_6.0.0.dir/__/__/__/mesh/core/src/flash_manager.c.obj
 .text.get_next_entry
                0x0002b6d8       0x34 examples/pb_remote/server/CMakeFiles/pb_remote_server_nrf52840_xxAA_s140_6.0.0.dir/__/__/__/mesh/core/src/flash_manager.c.obj
 .text.get_last_entry.isra.1
                0x0002b70c       0x30 examples/pb_remote/server/CMakeFiles/pb_remote_server_nrf52840_xxAA_s140_6.0.0.dir/__/__/__/mesh/core/src/flash_manager.c.obj
 .text.process_action_queue
                0x0002b73c      0x3b0 examples/pb_remote/server/CMakeFiles/pb_remote_server_nrf52840_xxAA_s140_6.0.0.dir/__/__/__/mesh/core/src/flash_manager.c.obj
 .text.flash_op_ended_callback
                0x0002baec       0x24 examples/pb_remote/server/CMakeFiles/pb_remote_server_nrf52840_xxAA_s140_6.0.0.dir/__/__/__/mesh/core/src/flash_manager.c.obj
 .text.flash_manager_init
                0x0002bb10       0x68 examples/pb_remote/server/CMakeFiles/pb_remote_server_nrf52840_xxAA_s140_6.0.0.dir/__/__/__/mesh/core/src/flash_manager.c.obj
                0x0002bb10                flash_manager_init
 .text.flash_manager_remove
                0x0002bb78       0x24 examples/pb_remote/server/CMakeFiles/pb_remote_server_nrf52840_xxAA_s140_6.0.0.dir/__/__/__/mesh/core/src/flash_manager.c.obj
                0x0002bb78                flash_manager_remove
 .text.flash_manager_entry_get
                0x0002bb9c       0x3c examples/pb_remote/server/CMakeFiles/pb_remote_server_nrf52840_xxAA_s140_6.0.0.dir/__/__/__/mesh/core/src/flash_manager.c.obj
                0x0002bb9c                flash_manager_entry_get
 .text.flash_manager_entry_next_get
                0x0002bbd8       0x60 examples/pb_remote/server/CMakeFiles/pb_remote_server_nrf52840_xxAA_s140_6.0.0.dir/__/__/__/mesh/core/src/flash_manager.c.obj
                0x0002bbd8                flash_manager_entry_next_get
 .text.flash_manager_entry_alloc
                0x0002bc38       0x5c examples/pb_remote/server/CMakeFiles/pb_remote_server_nrf52840_xxAA_s140_6.0.0.dir/__/__/__/mesh/core/src/flash_manager.c.obj
                0x0002bc38                flash_manager_entry_alloc
 .text.flash_manager_entry_commit
                0x0002bc94       0x2c examples/pb_remote/server/CMakeFiles/pb_remote_server_nrf52840_xxAA_s140_6.0.0.dir/__/__/__/mesh/core/src/flash_manager.c.obj
                0x0002bc94                flash_manager_entry_commit
 .text.flash_manager_entry_invalidate
                0x0002bcc0       0x4e examples/pb_remote/server/CMakeFiles/pb_remote_server_nrf52840_xxAA_s140_6.0.0.dir/__/__/__/mesh/core/src/flash_manager.c.obj
                0x0002bcc0                flash_manager_entry_invalidate
 .text.flash_manager_add
                0x0002bd0e      0x1f6 examples/pb_remote/server/CMakeFiles/pb_remote_server_nrf52840_xxAA_s140_6.0.0.dir/__/__/__/mesh/core/src/flash_manager.c.obj
                0x0002bd0e                flash_manager_add
 .text.flash_manager_mem_listener_register
                0x0002bf04       0x30 examples/pb_remote/server/CMakeFiles/pb_remote_server_nrf52840_xxAA_s140_6.0.0.dir/__/__/__/mesh/core/src/flash_manager.c.obj
                0x0002bf04                flash_manager_mem_listener_register
 .text.flash_manager_is_stable
                0x0002bf34       0x24 examples/pb_remote/server/CMakeFiles/pb_remote_server_nrf52840_xxAA_s140_6.0.0.dir/__/__/__/mesh/core/src/flash_manager.c.obj
                0x0002bf34                flash_manager_is_stable
 .text.flash_manager_on_defrag_end
                0x0002bf58       0x4c examples/pb_remote/server/CMakeFiles/pb_remote_server_nrf52840_xxAA_s140_6.0.0.dir/__/__/__/mesh/core/src/flash_manager.c.obj
                0x0002bf58                flash_manager_on_defrag_end
 .text.flash_manager_recovery_page_get
                0x0002bfa4        0x4 examples/pb_remote/server/CMakeFiles/pb_remote_server_nrf52840_xxAA_s140_6.0.0.dir/__/__/__/mesh/core/src/flash_manager.c.obj
                0x0002bfa4                flash_manager_recovery_page_get
 .text.flash_manager_action_queue_empty_cb_set
                0x0002bfa8       0x1c examples/pb_remote/server/CMakeFiles/pb_remote_server_nrf52840_xxAA_s140_6.0.0.dir/__/__/__/mesh/core/src/flash_manager.c.obj
                0x0002bfa8                flash_manager_action_queue_empty_cb_set
 .text.utils_xor
                0x0002bfc4       0x14 examples/pb_remote/server/CMakeFiles/pb_remote_server_nrf52840_xxAA_s140_6.0.0.dir/__/__/__/mesh/core/src/ccm_soft.c.obj
 .text.sd_ecb_block_encrypt
                0x0002bfd8        0x4 examples/pb_remote/server/CMakeFiles/pb_remote_server_nrf52840_xxAA_s140_6.0.0.dir/__/__/__/mesh/core/src/ccm_soft.c.obj
 .text.ccm_soft_crypt
                0x0002bfdc       0x4c examples/pb_remote/server/CMakeFiles/pb_remote_server_nrf52840_xxAA_s140_6.0.0.dir/__/__/__/mesh/core/src/ccm_soft.c.obj
 .text.ccm_soft_authenticate_blocks
                0x0002c028       0x6c examples/pb_remote/server/CMakeFiles/pb_remote_server_nrf52840_xxAA_s140_6.0.0.dir/__/__/__/mesh/core/src/ccm_soft.c.obj
 .text.ccm_soft_authenticate
                0x0002c094       0x94 examples/pb_remote/server/CMakeFiles/pb_remote_server_nrf52840_xxAA_s140_6.0.0.dir/__/__/__/mesh/core/src/ccm_soft.c.obj
 .text.ccm_soft_encrypt
                0x0002c128       0x54 examples/pb_remote/server/CMakeFiles/pb_remote_server_nrf52840_xxAA_s140_6.0.0.dir/__/__/__/mesh/core/src/ccm_soft.c.obj
                0x0002c128                ccm_soft_encrypt
 .text.ccm_soft_decrypt
                0x0002c17c       0x98 examples/pb_remote/server/CMakeFiles/pb_remote_server_nrf52840_xxAA_s140_6.0.0.dir/__/__/__/mesh/core/src/ccm_soft.c.obj
                0x0002c17c                ccm_soft_decrypt
 .text.replay_cache_add
                0x0002c214       0x58 examples/pb_remote/server/CMakeFiles/pb_remote_server_nrf52840_xxAA_s140_6.0.0.dir/__/__/__/mesh/core/src/replay_cache.c.obj
                0x0002c214                replay_cache_add
 .text.replay_cache_has_elem
                0x0002c26c       0x40 examples/pb_remote/server/CMakeFiles/pb_remote_server_nrf52840_xxAA_s140_6.0.0.dir/__/__/__/mesh/core/src/replay_cache.c.obj
                0x0002c26c                replay_cache_has_elem
 .text.replay_cache_clear
                0x0002c2ac       0x20 examples/pb_remote/server/CMakeFiles/pb_remote_server_nrf52840_xxAA_s140_6.0.0.dir/__/__/__/mesh/core/src/replay_cache.c.obj
                0x0002c2ac                replay_cache_clear
 .text.replay_cache_init
                0x0002c2cc        0x4 examples/pb_remote/server/CMakeFiles/pb_remote_server_nrf52840_xxAA_s140_6.0.0.dir/__/__/__/mesh/core/src/replay_cache.c.obj
                0x0002c2cc                replay_cache_init
 .text.beacon_create
                0x0002c2d0       0x46 examples/pb_remote/server/CMakeFiles/pb_remote_server_nrf52840_xxAA_s140_6.0.0.dir/__/__/__/mesh/core/src/beacon.c.obj
                0x0002c2d0                beacon_create
 *fill*         0x0002c316        0x2 
 .text.beacon_packet_in
                0x0002c318      0x154 examples/pb_remote/server/CMakeFiles/pb_remote_server_nrf52840_xxAA_s140_6.0.0.dir/__/__/__/mesh/core/src/beacon.c.obj
                0x0002c318                beacon_packet_in
 .text.entry_get
                0x0002c46c       0x78 examples/pb_remote/server/CMakeFiles/pb_remote_server_nrf52840_xxAA_s140_6.0.0.dir/__/__/__/mesh/core/src/flash_manager_internal.c.obj
                0x0002c46c                entry_get
 .text.core_tx_complete_cb_set
                0x0002c4e4        0xc examples/pb_remote/server/CMakeFiles/pb_remote_server_nrf52840_xxAA_s140_6.0.0.dir/__/__/__/mesh/core/src/core_tx.c.obj
                0x0002c4e4                core_tx_complete_cb_set
 .text.core_tx_packet_alloc
                0x0002c4f0       0x98 examples/pb_remote/server/CMakeFiles/pb_remote_server_nrf52840_xxAA_s140_6.0.0.dir/__/__/__/mesh/core/src/core_tx.c.obj
                0x0002c4f0                core_tx_packet_alloc
 .text.core_tx_packet_send
                0x0002c588       0x4c examples/pb_remote/server/CMakeFiles/pb_remote_server_nrf52840_xxAA_s140_6.0.0.dir/__/__/__/mesh/core/src/core_tx.c.obj
                0x0002c588                core_tx_packet_send
 .text.core_tx_packet_discard
                0x0002c5d4       0x40 examples/pb_remote/server/CMakeFiles/pb_remote_server_nrf52840_xxAA_s140_6.0.0.dir/__/__/__/mesh/core/src/core_tx.c.obj
                0x0002c5d4                core_tx_packet_discard
 .text.core_tx_complete
                0x0002c614       0x34 examples/pb_remote/server/CMakeFiles/pb_remote_server_nrf52840_xxAA_s140_6.0.0.dir/__/__/__/mesh/core/src/core_tx.c.obj
                0x0002c614                core_tx_complete
 .text.core_tx_bearer_add
                0x0002c648       0x70 examples/pb_remote/server/CMakeFiles/pb_remote_server_nrf52840_xxAA_s140_6.0.0.dir/__/__/__/mesh/core/src/core_tx.c.obj
                0x0002c648                core_tx_bearer_add
 .text.is_publication_running
                0x0002c6b8       0x14 examples/pb_remote/server/CMakeFiles/pb_remote_server_nrf52840_xxAA_s140_6.0.0.dir/__/__/__/mesh/core/src/heartbeat.c.obj
 .text.heartbeat_publication_count_decrement
                0x0002c6cc       0x1c examples/pb_remote/server/CMakeFiles/pb_remote_server_nrf52840_xxAA_s140_6.0.0.dir/__/__/__/mesh/core/src/heartbeat.c.obj
 .text.hb_pub_getter
                0x0002c6e8       0x2c examples/pb_remote/server/CMakeFiles/pb_remote_server_nrf52840_xxAA_s140_6.0.0.dir/__/__/__/mesh/core/src/heartbeat.c.obj
 .text.hb_pub_setter
                0x0002c714       0x30 examples/pb_remote/server/CMakeFiles/pb_remote_server_nrf52840_xxAA_s140_6.0.0.dir/__/__/__/mesh/core/src/heartbeat.c.obj
 .text.heartbeat_subscription_timer_cb
                0x0002c744       0x1c examples/pb_remote/server/CMakeFiles/pb_remote_server_nrf52840_xxAA_s140_6.0.0.dir/__/__/__/mesh/core/src/heartbeat.c.obj
 .text.heartbeat_opcode_handle
                0x0002c760       0x88 examples/pb_remote/server/CMakeFiles/pb_remote_server_nrf52840_xxAA_s140_6.0.0.dir/__/__/__/mesh/core/src/heartbeat.c.obj
 .text.heartbeat_send
                0x0002c7e8       0x94 examples/pb_remote/server/CMakeFiles/pb_remote_server_nrf52840_xxAA_s140_6.0.0.dir/__/__/__/mesh/core/src/heartbeat.c.obj
 .text.heartbeat_core_evt_cb
                0x0002c87c       0x6c examples/pb_remote/server/CMakeFiles/pb_remote_server_nrf52840_xxAA_s140_6.0.0.dir/__/__/__/mesh/core/src/heartbeat.c.obj
 .text.heartbeat_publication_timer_cb
                0x0002c8e8       0x94 examples/pb_remote/server/CMakeFiles/pb_remote_server_nrf52840_xxAA_s140_6.0.0.dir/__/__/__/mesh/core/src/heartbeat.c.obj
 .text.heartbeat_relay_listener_cb
                0x0002c97c       0x4c examples/pb_remote/server/CMakeFiles/pb_remote_server_nrf52840_xxAA_s140_6.0.0.dir/__/__/__/mesh/core/src/heartbeat.c.obj
 .text.heartbeat_init
                0x0002c9c8       0x78 examples/pb_remote/server/CMakeFiles/pb_remote_server_nrf52840_xxAA_s140_6.0.0.dir/__/__/__/mesh/core/src/heartbeat.c.obj
                0x0002c9c8                heartbeat_init
 .text.heartbeat_subscription_set
                0x0002ca40       0xa4 examples/pb_remote/server/CMakeFiles/pb_remote_server_nrf52840_xxAA_s140_6.0.0.dir/__/__/__/mesh/core/src/heartbeat.c.obj
                0x0002ca40                heartbeat_subscription_set
 .text.heartbeat_subscription_get
                0x0002cae4        0x8 examples/pb_remote/server/CMakeFiles/pb_remote_server_nrf52840_xxAA_s140_6.0.0.dir/__/__/__/mesh/core/src/heartbeat.c.obj
                0x0002cae4                heartbeat_subscription_get
 .text.heartbeat_publication_get
                0x0002caec        0x8 examples/pb_remote/server/CMakeFiles/pb_remote_server_nrf52840_xxAA_s140_6.0.0.dir/__/__/__/mesh/core/src/heartbeat.c.obj
                0x0002caec                heartbeat_publication_get
 .text.heartbeat_publication_state_updated
                0x0002caf4       0x8c examples/pb_remote/server/CMakeFiles/pb_remote_server_nrf52840_xxAA_s140_6.0.0.dir/__/__/__/mesh/core/src/heartbeat.c.obj
                0x0002caf4                heartbeat_publication_state_updated
 .text.heartbeat_public_info_getter_register
                0x0002cb80       0x14 examples/pb_remote/server/CMakeFiles/pb_remote_server_nrf52840_xxAA_s140_6.0.0.dir/__/__/__/mesh/core/src/heartbeat.c.obj
                0x0002cb80                heartbeat_public_info_getter_register
 .text.beacon_getter
                0x0002cb94       0x24 examples/pb_remote/server/CMakeFiles/pb_remote_server_nrf52840_xxAA_s140_6.0.0.dir/__/__/__/mesh/core/src/net_beacon.c.obj
 .text.beacon_setter
                0x0002cbb8       0x4c examples/pb_remote/server/CMakeFiles/pb_remote_server_nrf52840_xxAA_s140_6.0.0.dir/__/__/__/mesh/core/src/net_beacon.c.obj
 .text.make_network_beacon_packet
                0x0002cc04       0x50 examples/pb_remote/server/CMakeFiles/pb_remote_server_nrf52840_xxAA_s140_6.0.0.dir/__/__/__/mesh/core/src/net_beacon.c.obj
 .text.beacon_tx
                0x0002cc54      0x134 examples/pb_remote/server/CMakeFiles/pb_remote_server_nrf52840_xxAA_s140_6.0.0.dir/__/__/__/mesh/core/src/net_beacon.c.obj
 .text.tx_complete_cb
                0x0002cd88        0xe examples/pb_remote/server/CMakeFiles/pb_remote_server_nrf52840_xxAA_s140_6.0.0.dir/__/__/__/mesh/core/src/net_beacon.c.obj
 .text.beacon_tx_timeout
                0x0002cd96        0x4 examples/pb_remote/server/CMakeFiles/pb_remote_server_nrf52840_xxAA_s140_6.0.0.dir/__/__/__/mesh/core/src/net_beacon.c.obj
 .text.is_valid_beacon_pkt.part.0
                0x0002cd9a       0x30 examples/pb_remote/server/CMakeFiles/pb_remote_server_nrf52840_xxAA_s140_6.0.0.dir/__/__/__/mesh/core/src/net_beacon.c.obj
 *fill*         0x0002cdca        0x2 
 .text.net_beacon_init
                0x0002cdcc       0x7c examples/pb_remote/server/CMakeFiles/pb_remote_server_nrf52840_xxAA_s140_6.0.0.dir/__/__/__/mesh/core/src/net_beacon.c.obj
                0x0002cdcc                net_beacon_init
 .text.net_beacon_enable
                0x0002ce48       0x28 examples/pb_remote/server/CMakeFiles/pb_remote_server_nrf52840_xxAA_s140_6.0.0.dir/__/__/__/mesh/core/src/net_beacon.c.obj
                0x0002ce48                net_beacon_enable
 .text.net_beacon_state_set
                0x0002ce70       0x2c examples/pb_remote/server/CMakeFiles/pb_remote_server_nrf52840_xxAA_s140_6.0.0.dir/__/__/__/mesh/core/src/net_beacon.c.obj
                0x0002ce70                net_beacon_state_set
 .text.net_beacon_state_get
                0x0002ce9c       0x2c examples/pb_remote/server/CMakeFiles/pb_remote_server_nrf52840_xxAA_s140_6.0.0.dir/__/__/__/mesh/core/src/net_beacon.c.obj
                0x0002ce9c                net_beacon_state_get
 .text.net_beacon_packet_in
                0x0002cec8       0xf2 examples/pb_remote/server/CMakeFiles/pb_remote_server_nrf52840_xxAA_s140_6.0.0.dir/__/__/__/mesh/core/src/net_beacon.c.obj
                0x0002cec8                net_beacon_packet_in
 *fill*         0x0002cfba        0x2 
 .text.listeners_notify
                0x0002cfbc       0x4c examples/pb_remote/server/CMakeFiles/pb_remote_server_nrf52840_xxAA_s140_6.0.0.dir/__/__/__/mesh/core/src/mesh_config.c.obj
 .text.entry_flags_get.isra.0
                0x0002d008       0x1c examples/pb_remote/server/CMakeFiles/pb_remote_server_nrf52840_xxAA_s140_6.0.0.dir/__/__/__/mesh/core/src/mesh_config.c.obj
 .text.entry_params_find
                0x0002d024       0x38 examples/pb_remote/server/CMakeFiles/pb_remote_server_nrf52840_xxAA_s140_6.0.0.dir/__/__/__/mesh/core/src/mesh_config.c.obj
 .text.restore_callback
                0x0002d05c       0x66 examples/pb_remote/server/CMakeFiles/pb_remote_server_nrf52840_xxAA_s140_6.0.0.dir/__/__/__/mesh/core/src/mesh_config.c.obj
 *fill*         0x0002d0c2        0x2 
 .text.dirty_entries_process
                0x0002d0c4       0xc8 examples/pb_remote/server/CMakeFiles/pb_remote_server_nrf52840_xxAA_s140_6.0.0.dir/__/__/__/mesh/core/src/mesh_config.c.obj
 .text.mesh_config_init
                0x0002d18c       0x88 examples/pb_remote/server/CMakeFiles/pb_remote_server_nrf52840_xxAA_s140_6.0.0.dir/__/__/__/mesh/core/src/mesh_config.c.obj
                0x0002d18c                mesh_config_init
 .text.mesh_config_load
                0x0002d214        0xc examples/pb_remote/server/CMakeFiles/pb_remote_server_nrf52840_xxAA_s140_6.0.0.dir/__/__/__/mesh/core/src/mesh_config.c.obj
                0x0002d214                mesh_config_load
 .text.mesh_config_is_busy
                0x0002d220       0x34 examples/pb_remote/server/CMakeFiles/pb_remote_server_nrf52840_xxAA_s140_6.0.0.dir/__/__/__/mesh/core/src/mesh_config.c.obj
                0x0002d220                mesh_config_is_busy
 .text.backend_evt_handler
                0x0002d254       0x80 examples/pb_remote/server/CMakeFiles/pb_remote_server_nrf52840_xxAA_s140_6.0.0.dir/__/__/__/mesh/core/src/mesh_config.c.obj
 .text.mesh_config_entry_set
                0x0002d2d4       0x88 examples/pb_remote/server/CMakeFiles/pb_remote_server_nrf52840_xxAA_s140_6.0.0.dir/__/__/__/mesh/core/src/mesh_config.c.obj
                0x0002d2d4                mesh_config_entry_set
 .text.mesh_config_entry_get
                0x0002d35c       0x48 examples/pb_remote/server/CMakeFiles/pb_remote_server_nrf52840_xxAA_s140_6.0.0.dir/__/__/__/mesh/core/src/mesh_config.c.obj
                0x0002d35c                mesh_config_entry_get
 .text.dummy_event
                0x0002d3a4        0x2 examples/pb_remote/server/CMakeFiles/pb_remote_server_nrf52840_xxAA_s140_6.0.0.dir/__/__/__/mesh/core/src/mesh_config_backend.c.obj
 *fill*         0x0002d3a6        0x2 
 .text.file_get
                0x0002d3a8       0x34 examples/pb_remote/server/CMakeFiles/pb_remote_server_nrf52840_xxAA_s140_6.0.0.dir/__/__/__/mesh/core/src/mesh_config_backend.c.obj
 .text.mesh_config_backend_init
                0x0002d3dc      0x124 examples/pb_remote/server/CMakeFiles/pb_remote_server_nrf52840_xxAA_s140_6.0.0.dir/__/__/__/mesh/core/src/mesh_config_backend.c.obj
                0x0002d3dc                mesh_config_backend_init
 .text.mesh_config_backend_store
                0x0002d500       0x4e examples/pb_remote/server/CMakeFiles/pb_remote_server_nrf52840_xxAA_s140_6.0.0.dir/__/__/__/mesh/core/src/mesh_config_backend.c.obj
                0x0002d500                mesh_config_backend_store
 .text.mesh_config_backend_erase
                0x0002d54e       0x34 examples/pb_remote/server/CMakeFiles/pb_remote_server_nrf52840_xxAA_s140_6.0.0.dir/__/__/__/mesh/core/src/mesh_config_backend.c.obj
                0x0002d54e                mesh_config_backend_erase
 *fill*         0x0002d582        0x2 
 .text.mesh_config_backend_read_all
                0x0002d584       0x80 examples/pb_remote/server/CMakeFiles/pb_remote_server_nrf52840_xxAA_s140_6.0.0.dir/__/__/__/mesh/core/src/mesh_config_backend.c.obj
                0x0002d584                mesh_config_backend_read_all
 .text.write_complete_cb
                0x0002d604       0x30 examples/pb_remote/server/CMakeFiles/pb_remote_server_nrf52840_xxAA_s140_6.0.0.dir/__/__/__/mesh/core/src/mesh_config_flashman_glue.c.obj
 .text.invalidate_complete_cb
                0x0002d634       0x2c examples/pb_remote/server/CMakeFiles/pb_remote_server_nrf52840_xxAA_s140_6.0.0.dir/__/__/__/mesh/core/src/mesh_config_flashman_glue.c.obj
 .text.remove_complete_cb
                0x0002d660        0x2 examples/pb_remote/server/CMakeFiles/pb_remote_server_nrf52840_xxAA_s140_6.0.0.dir/__/__/__/mesh/core/src/mesh_config_flashman_glue.c.obj
 .text.flash_stable_cb
                0x0002d662       0x20 examples/pb_remote/server/CMakeFiles/pb_remote_server_nrf52840_xxAA_s140_6.0.0.dir/__/__/__/mesh/core/src/mesh_config_flashman_glue.c.obj
 *fill*         0x0002d682        0x2 
 .text.mesh_config_backend_glue_init
                0x0002d684       0x28 examples/pb_remote/server/CMakeFiles/pb_remote_server_nrf52840_xxAA_s140_6.0.0.dir/__/__/__/mesh/core/src/mesh_config_flashman_glue.c.obj
                0x0002d684                mesh_config_backend_glue_init
 .text.mesh_config_backend_file_create
                0x0002d6ac       0x58 examples/pb_remote/server/CMakeFiles/pb_remote_server_nrf52840_xxAA_s140_6.0.0.dir/__/__/__/mesh/core/src/mesh_config_flashman_glue.c.obj
                0x0002d6ac                mesh_config_backend_file_create
 .text.mesh_config_backend_record_write
                0x0002d704       0x2c examples/pb_remote/server/CMakeFiles/pb_remote_server_nrf52840_xxAA_s140_6.0.0.dir/__/__/__/mesh/core/src/mesh_config_flashman_glue.c.obj
                0x0002d704                mesh_config_backend_record_write
 .text.mesh_config_backend_record_erase
                0x0002d730       0x22 examples/pb_remote/server/CMakeFiles/pb_remote_server_nrf52840_xxAA_s140_6.0.0.dir/__/__/__/mesh/core/src/mesh_config_flashman_glue.c.obj
                0x0002d730                mesh_config_backend_record_erase
 .text.mesh_config_backend_record_iterate
                0x0002d752       0x38 examples/pb_remote/server/CMakeFiles/pb_remote_server_nrf52840_xxAA_s140_6.0.0.dir/__/__/__/mesh/core/src/mesh_config_flashman_glue.c.obj
                0x0002d752                mesh_config_backend_record_iterate
 .text.mesh_config_record_size_calculate
                0x0002d78a        0xa examples/pb_remote/server/CMakeFiles/pb_remote_server_nrf52840_xxAA_s140_6.0.0.dir/__/__/__/mesh/core/src/mesh_config_flashman_glue.c.obj
                0x0002d78a                mesh_config_record_size_calculate
 .text.mesh_config_backend_file_power_down_time_get
                0x0002d794       0x24 examples/pb_remote/server/CMakeFiles/pb_remote_server_nrf52840_xxAA_s140_6.0.0.dir/__/__/__/mesh/core/src/mesh_config_flashman_glue.c.obj
                0x0002d794                mesh_config_backend_file_power_down_time_get
 .text.core_tx_set
                0x0002d7b8       0xb0 examples/pb_remote/server/CMakeFiles/pb_remote_server_nrf52840_xxAA_s140_6.0.0.dir/__/__/__/mesh/core/src/core_tx_adv.c.obj
 .text.packet_discard
                0x0002d868       0x40 examples/pb_remote/server/CMakeFiles/pb_remote_server_nrf52840_xxAA_s140_6.0.0.dir/__/__/__/mesh/core/src/core_tx_adv.c.obj
 .text.packet_send
                0x0002d8a8       0x58 examples/pb_remote/server/CMakeFiles/pb_remote_server_nrf52840_xxAA_s140_6.0.0.dir/__/__/__/mesh/core/src/core_tx_adv.c.obj
 .text.packet_alloc
                0x0002d900       0x58 examples/pb_remote/server/CMakeFiles/pb_remote_server_nrf52840_xxAA_s140_6.0.0.dir/__/__/__/mesh/core/src/core_tx_adv.c.obj
 .text.adv_tx_complete_callback
                0x0002d958       0x20 examples/pb_remote/server/CMakeFiles/pb_remote_server_nrf52840_xxAA_s140_6.0.0.dir/__/__/__/mesh/core/src/core_tx_adv.c.obj
 .text.core_tx_get
                0x0002d978       0x8c examples/pb_remote/server/CMakeFiles/pb_remote_server_nrf52840_xxAA_s140_6.0.0.dir/__/__/__/mesh/core/src/core_tx_adv.c.obj
 .text.mesh_opt_core_adv_set
                0x0002da04       0x24 examples/pb_remote/server/CMakeFiles/pb_remote_server_nrf52840_xxAA_s140_6.0.0.dir/__/__/__/mesh/core/src/core_tx_adv.c.obj
                0x0002da04                mesh_opt_core_adv_set
 .text.mesh_opt_core_adv_get
                0x0002da28       0x24 examples/pb_remote/server/CMakeFiles/pb_remote_server_nrf52840_xxAA_s140_6.0.0.dir/__/__/__/mesh/core/src/core_tx_adv.c.obj
                0x0002da28                mesh_opt_core_adv_get
 .text.core_tx_adv_init
                0x0002da4c       0x68 examples/pb_remote/server/CMakeFiles/pb_remote_server_nrf52840_xxAA_s140_6.0.0.dir/__/__/__/mesh/core/src/core_tx_adv.c.obj
                0x0002da4c                core_tx_adv_init
 .text.core_tx_adv_is_enabled
                0x0002dab4       0x20 examples/pb_remote/server/CMakeFiles/pb_remote_server_nrf52840_xxAA_s140_6.0.0.dir/__/__/__/mesh/core/src/core_tx_adv.c.obj
                0x0002dab4                core_tx_adv_is_enabled
 .text.ad_listener_subscribe
                0x0002dad4       0x5c examples/pb_remote/server/CMakeFiles/pb_remote_server_nrf52840_xxAA_s140_6.0.0.dir/__/__/__/mesh/bearer/src/ad_listener.c.obj
                0x0002dad4                ad_listener_subscribe
 .text.ad_listener_process
                0x0002db30       0x64 examples/pb_remote/server/CMakeFiles/pb_remote_server_nrf52840_xxAA_s140_6.0.0.dir/__/__/__/mesh/bearer/src/ad_listener.c.obj
                0x0002db30                ad_listener_process
 .text.adtype_filter_handle
                0x0002db94       0x64 examples/pb_remote/server/CMakeFiles/pb_remote_server_nrf52840_xxAA_s140_6.0.0.dir/__/__/__/mesh/bearer/src/ad_type_filter.c.obj
 .text.bearer_adtype_filtering_set
                0x0002dbf8       0x1c examples/pb_remote/server/CMakeFiles/pb_remote_server_nrf52840_xxAA_s140_6.0.0.dir/__/__/__/mesh/bearer/src/ad_type_filter.c.obj
                0x0002dbf8                bearer_adtype_filtering_set
 .text.bearer_adtype_add
                0x0002dc14       0x20 examples/pb_remote/server/CMakeFiles/pb_remote_server_nrf52840_xxAA_s140_6.0.0.dir/__/__/__/mesh/bearer/src/ad_type_filter.c.obj
                0x0002dc14                bearer_adtype_add
 .text.bearer_adtype_mode_set
                0x0002dc34       0x18 examples/pb_remote/server/CMakeFiles/pb_remote_server_nrf52840_xxAA_s140_6.0.0.dir/__/__/__/mesh/bearer/src/ad_type_filter.c.obj
                0x0002dc34                bearer_adtype_mode_set
 .text.tx_complete_event_callback
                0x0002dc4c       0x28 examples/pb_remote/server/CMakeFiles/pb_remote_server_nrf52840_xxAA_s140_6.0.0.dir/__/__/__/mesh/bearer/src/advertiser.c.obj
 .text.set_gap_addr_type
                0x0002dc74       0x26 examples/pb_remote/server/CMakeFiles/pb_remote_server_nrf52840_xxAA_s140_6.0.0.dir/__/__/__/mesh/bearer/src/advertiser.c.obj
 .text.broadcast_complete_cb
                0x0002dc9a       0x46 examples/pb_remote/server/CMakeFiles/pb_remote_server_nrf52840_xxAA_s140_6.0.0.dir/__/__/__/mesh/bearer/src/advertiser.c.obj
 .text.schedule_first_time
                0x0002dce0       0x28 examples/pb_remote/server/CMakeFiles/pb_remote_server_nrf52840_xxAA_s140_6.0.0.dir/__/__/__/mesh/bearer/src/advertiser.c.obj
 .text.timeout_event
                0x0002dd08      0x10c examples/pb_remote/server/CMakeFiles/pb_remote_server_nrf52840_xxAA_s140_6.0.0.dir/__/__/__/mesh/bearer/src/advertiser.c.obj
 .text.advertiser_init
                0x0002de14        0xc examples/pb_remote/server/CMakeFiles/pb_remote_server_nrf52840_xxAA_s140_6.0.0.dir/__/__/__/mesh/bearer/src/advertiser.c.obj
                0x0002de14                advertiser_init
 .text.advertiser_enable
                0x0002de20       0x2a examples/pb_remote/server/CMakeFiles/pb_remote_server_nrf52840_xxAA_s140_6.0.0.dir/__/__/__/mesh/bearer/src/advertiser.c.obj
                0x0002de20                advertiser_enable
 .text.advertiser_disable
                0x0002de4a        0xa examples/pb_remote/server/CMakeFiles/pb_remote_server_nrf52840_xxAA_s140_6.0.0.dir/__/__/__/mesh/bearer/src/advertiser.c.obj
                0x0002de4a                advertiser_disable
 .text.advertiser_packet_alloc
                0x0002de54       0x76 examples/pb_remote/server/CMakeFiles/pb_remote_server_nrf52840_xxAA_s140_6.0.0.dir/__/__/__/mesh/bearer/src/advertiser.c.obj
                0x0002de54                advertiser_packet_alloc
 .text.advertiser_packet_send
                0x0002deca       0x52 examples/pb_remote/server/CMakeFiles/pb_remote_server_nrf52840_xxAA_s140_6.0.0.dir/__/__/__/mesh/bearer/src/advertiser.c.obj
                0x0002deca                advertiser_packet_send
 .text.advertiser_packet_discard
                0x0002df1c       0x1e examples/pb_remote/server/CMakeFiles/pb_remote_server_nrf52840_xxAA_s140_6.0.0.dir/__/__/__/mesh/bearer/src/advertiser.c.obj
                0x0002df1c                advertiser_packet_discard
 .text.advertiser_address_set
                0x0002df3a       0x3c examples/pb_remote/server/CMakeFiles/pb_remote_server_nrf52840_xxAA_s140_6.0.0.dir/__/__/__/mesh/bearer/src/advertiser.c.obj
                0x0002df3a                advertiser_address_set
 .text.advertiser_interval_set
                0x0002df76       0x40 examples/pb_remote/server/CMakeFiles/pb_remote_server_nrf52840_xxAA_s140_6.0.0.dir/__/__/__/mesh/bearer/src/advertiser.c.obj
                0x0002df76                advertiser_interval_set
 .text.advertiser_tx_power_set
                0x0002dfb6       0x14 examples/pb_remote/server/CMakeFiles/pb_remote_server_nrf52840_xxAA_s140_6.0.0.dir/__/__/__/mesh/bearer/src/advertiser.c.obj
                0x0002dfb6                advertiser_tx_power_set
 .text.advertiser_flush
                0x0002dfca       0x1e examples/pb_remote/server/CMakeFiles/pb_remote_server_nrf52840_xxAA_s140_6.0.0.dir/__/__/__/mesh/bearer/src/advertiser.c.obj
                0x0002dfca                advertiser_flush
 .text.advertiser_address_default_get
                0x0002dfe8       0x38 examples/pb_remote/server/CMakeFiles/pb_remote_server_nrf52840_xxAA_s140_6.0.0.dir/__/__/__/mesh/bearer/src/advertiser.c.obj
                0x0002dfe8                advertiser_address_default_get
 .text.advertiser_instance_init
                0x0002e020       0xa4 examples/pb_remote/server/CMakeFiles/pb_remote_server_nrf52840_xxAA_s140_6.0.0.dir/__/__/__/mesh/bearer/src/advertiser.c.obj
                0x0002e020                advertiser_instance_init
 .text.action_timer_start
                0x0002e0c4       0x90 examples/pb_remote/server/CMakeFiles/pb_remote_server_nrf52840_xxAA_s140_6.0.0.dir/__/__/__/mesh/bearer/src/bearer_handler.c.obj
 .text.action_switch
                0x0002e154       0xe8 examples/pb_remote/server/CMakeFiles/pb_remote_server_nrf52840_xxAA_s140_6.0.0.dir/__/__/__/mesh/bearer/src/bearer_handler.c.obj
 .text.end_handle
                0x0002e23c       0x44 examples/pb_remote/server/CMakeFiles/pb_remote_server_nrf52840_xxAA_s140_6.0.0.dir/__/__/__/mesh/bearer/src/bearer_handler.c.obj
 .text.TIMER2_IRQHandler
                0x0002e280       0x58 examples/pb_remote/server/CMakeFiles/pb_remote_server_nrf52840_xxAA_s140_6.0.0.dir/__/__/__/mesh/bearer/src/bearer_handler.c.obj
                0x0002e280                TIMER2_IRQHandler
 .text.bearer_handler_init
                0x0002e2d8       0x44 examples/pb_remote/server/CMakeFiles/pb_remote_server_nrf52840_xxAA_s140_6.0.0.dir/__/__/__/mesh/bearer/src/bearer_handler.c.obj
                0x0002e2d8                bearer_handler_init
 .text.bearer_handler_start
                0x0002e31c       0x1c examples/pb_remote/server/CMakeFiles/pb_remote_server_nrf52840_xxAA_s140_6.0.0.dir/__/__/__/mesh/bearer/src/bearer_handler.c.obj
                0x0002e31c                bearer_handler_start
 .text.bearer_handler_action_enqueue
                0x0002e338       0x6c examples/pb_remote/server/CMakeFiles/pb_remote_server_nrf52840_xxAA_s140_6.0.0.dir/__/__/__/mesh/bearer/src/bearer_handler.c.obj
                0x0002e338                bearer_handler_action_enqueue
 .text.bearer_handler_action_end
                0x0002e3a4       0x48 examples/pb_remote/server/CMakeFiles/pb_remote_server_nrf52840_xxAA_s140_6.0.0.dir/__/__/__/mesh/bearer/src/bearer_handler.c.obj
                0x0002e3a4                bearer_handler_action_end
 .text.bearer_handler_radio_irq_handler
                0x0002e3ec       0x64 examples/pb_remote/server/CMakeFiles/pb_remote_server_nrf52840_xxAA_s140_6.0.0.dir/__/__/__/mesh/bearer/src/bearer_handler.c.obj
                0x0002e3ec                bearer_handler_radio_irq_handler
 .text.bearer_handler_timer_irq_handler
                0x0002e450       0x24 examples/pb_remote/server/CMakeFiles/pb_remote_server_nrf52840_xxAA_s140_6.0.0.dir/__/__/__/mesh/bearer/src/bearer_handler.c.obj
                0x0002e450                bearer_handler_timer_irq_handler
 .text.bearer_handler_on_ts_begin
                0x0002e474       0x38 examples/pb_remote/server/CMakeFiles/pb_remote_server_nrf52840_xxAA_s140_6.0.0.dir/__/__/__/mesh/bearer/src/bearer_handler.c.obj
                0x0002e474                bearer_handler_on_ts_begin
 .text.bearer_handler_on_ts_end
                0x0002e4ac       0x70 examples/pb_remote/server/CMakeFiles/pb_remote_server_nrf52840_xxAA_s140_6.0.0.dir/__/__/__/mesh/bearer/src/bearer_handler.c.obj
                0x0002e4ac                bearer_handler_on_ts_end
 .text.broadcast_start
                0x0002e51c       0xac examples/pb_remote/server/CMakeFiles/pb_remote_server_nrf52840_xxAA_s140_6.0.0.dir/__/__/__/mesh/bearer/src/broadcast.c.obj
 .text.radio_irq_handler
                0x0002e5c8       0xa4 examples/pb_remote/server/CMakeFiles/pb_remote_server_nrf52840_xxAA_s140_6.0.0.dir/__/__/__/mesh/bearer/src/broadcast.c.obj
 .text.broadcast_send
                0x0002e66c       0x6c examples/pb_remote/server/CMakeFiles/pb_remote_server_nrf52840_xxAA_s140_6.0.0.dir/__/__/__/mesh/bearer/src/broadcast.c.obj
                0x0002e66c                broadcast_send
 .text.fen_filter_start
                0x0002e6d8       0x28 examples/pb_remote/server/CMakeFiles/pb_remote_server_nrf52840_xxAA_s140_6.0.0.dir/__/__/__/mesh/bearer/src/filter_engine.c.obj
                0x0002e6d8                fen_filter_start
 .text.fen_filter_stop
                0x0002e700       0x20 examples/pb_remote/server/CMakeFiles/pb_remote_server_nrf52840_xxAA_s140_6.0.0.dir/__/__/__/mesh/bearer/src/filter_engine.c.obj
                0x0002e700                fen_filter_stop
 .text.fen_filters_apply
                0x0002e720       0x34 examples/pb_remote/server/CMakeFiles/pb_remote_server_nrf52840_xxAA_s140_6.0.0.dir/__/__/__/mesh/bearer/src/filter_engine.c.obj
                0x0002e720                fen_filters_apply
 .text.radio_config_reset
                0x0002e754       0x40 examples/pb_remote/server/CMakeFiles/pb_remote_server_nrf52840_xxAA_s140_6.0.0.dir/__/__/__/mesh/bearer/src/radio_config.c.obj
                0x0002e754                radio_config_reset
 .text.radio_config_channel_set
                0x0002e794       0x28 examples/pb_remote/server/CMakeFiles/pb_remote_server_nrf52840_xxAA_s140_6.0.0.dir/__/__/__/mesh/bearer/src/radio_config.c.obj
                0x0002e794                radio_config_channel_set
 .text.radio_config_config
                0x0002e7bc       0x90 examples/pb_remote/server/CMakeFiles/pb_remote_server_nrf52840_xxAA_s140_6.0.0.dir/__/__/__/mesh/bearer/src/radio_config.c.obj
                0x0002e7bc                radio_config_config
 .text.radio_config_access_addr_set
                0x0002e84c       0x50 examples/pb_remote/server/CMakeFiles/pb_remote_server_nrf52840_xxAA_s140_6.0.0.dir/__/__/__/mesh/bearer/src/radio_config.c.obj
                0x0002e84c                radio_config_access_addr_set
 .text.radio_trigger
                0x0002e89c       0x24 examples/pb_remote/server/CMakeFiles/pb_remote_server_nrf52840_xxAA_s140_6.0.0.dir/__/__/__/mesh/bearer/src/scanner.c.obj
 .text.scan_window_end
                0x0002e8c0       0x10 examples/pb_remote/server/CMakeFiles/pb_remote_server_nrf52840_xxAA_s140_6.0.0.dir/__/__/__/mesh/bearer/src/scanner.c.obj
 .text.scan_window_start
                0x0002e8d0       0x24 examples/pb_remote/server/CMakeFiles/pb_remote_server_nrf52840_xxAA_s140_6.0.0.dir/__/__/__/mesh/bearer/src/scanner.c.obj
 .text.radio_configure
                0x0002e8f4       0x78 examples/pb_remote/server/CMakeFiles/pb_remote_server_nrf52840_xxAA_s140_6.0.0.dir/__/__/__/mesh/bearer/src/scanner.c.obj
 .text.radio_set_packet
                0x0002e96c       0x4c examples/pb_remote/server/CMakeFiles/pb_remote_server_nrf52840_xxAA_s140_6.0.0.dir/__/__/__/mesh/bearer/src/scanner.c.obj
 .text.radio_start
                0x0002e9b8       0x78 examples/pb_remote/server/CMakeFiles/pb_remote_server_nrf52840_xxAA_s140_6.0.0.dir/__/__/__/mesh/bearer/src/scanner.c.obj
 .text.radio_stop
                0x0002ea30       0x38 examples/pb_remote/server/CMakeFiles/pb_remote_server_nrf52840_xxAA_s140_6.0.0.dir/__/__/__/mesh/bearer/src/scanner.c.obj
 .text.schedule_timers
                0x0002ea68       0x38 examples/pb_remote/server/CMakeFiles/pb_remote_server_nrf52840_xxAA_s140_6.0.0.dir/__/__/__/mesh/bearer/src/scanner.c.obj
 .text.scanner_radio_start
                0x0002eaa0       0x2c examples/pb_remote/server/CMakeFiles/pb_remote_server_nrf52840_xxAA_s140_6.0.0.dir/__/__/__/mesh/bearer/src/scanner.c.obj
                0x0002eaa0                scanner_radio_start
 .text.scanner_radio_stop
                0x0002eacc       0x10 examples/pb_remote/server/CMakeFiles/pb_remote_server_nrf52840_xxAA_s140_6.0.0.dir/__/__/__/mesh/bearer/src/scanner.c.obj
                0x0002eacc                scanner_radio_stop
 .text.scanner_radio_irq_handler
                0x0002eadc      0x13c examples/pb_remote/server/CMakeFiles/pb_remote_server_nrf52840_xxAA_s140_6.0.0.dir/__/__/__/mesh/bearer/src/scanner.c.obj
                0x0002eadc                scanner_radio_irq_handler
 .text.scanner_timer_irq_handler
                0x0002ec18       0x30 examples/pb_remote/server/CMakeFiles/pb_remote_server_nrf52840_xxAA_s140_6.0.0.dir/__/__/__/mesh/bearer/src/scanner.c.obj
                0x0002ec18                scanner_timer_irq_handler
 .text.scanner_enable
                0x0002ec48       0x24 examples/pb_remote/server/CMakeFiles/pb_remote_server_nrf52840_xxAA_s140_6.0.0.dir/__/__/__/mesh/bearer/src/scanner.c.obj
                0x0002ec48                scanner_enable
 .text.scanner_packet_release
                0x0002ec6c       0x2c examples/pb_remote/server/CMakeFiles/pb_remote_server_nrf52840_xxAA_s140_6.0.0.dir/__/__/__/mesh/bearer/src/scanner.c.obj
                0x0002ec6c                scanner_packet_release
 .text.scanner_rx
                0x0002ec98       0x30 examples/pb_remote/server/CMakeFiles/pb_remote_server_nrf52840_xxAA_s140_6.0.0.dir/__/__/__/mesh/bearer/src/scanner.c.obj
                0x0002ec98                scanner_rx
 .text.scanner_rx_pending
                0x0002ecc8        0xc examples/pb_remote/server/CMakeFiles/pb_remote_server_nrf52840_xxAA_s140_6.0.0.dir/__/__/__/mesh/bearer/src/scanner.c.obj
                0x0002ecc8                scanner_rx_pending
 .text.scanner_config_scan_time_set
                0x0002ecd4       0x4c examples/pb_remote/server/CMakeFiles/pb_remote_server_nrf52840_xxAA_s140_6.0.0.dir/__/__/__/mesh/bearer/src/scanner.c.obj
                0x0002ecd4                scanner_config_scan_time_set
 .text.scanner_config_channels_set
                0x0002ed20       0x50 examples/pb_remote/server/CMakeFiles/pb_remote_server_nrf52840_xxAA_s140_6.0.0.dir/__/__/__/mesh/bearer/src/scanner.c.obj
                0x0002ed20                scanner_config_channels_set
 .text.scanner_config_access_addresses_set
                0x0002ed70       0x38 examples/pb_remote/server/CMakeFiles/pb_remote_server_nrf52840_xxAA_s140_6.0.0.dir/__/__/__/mesh/bearer/src/scanner.c.obj
                0x0002ed70                scanner_config_access_addresses_set
 .text.scanner_config_reset
                0x0002eda8       0x50 examples/pb_remote/server/CMakeFiles/pb_remote_server_nrf52840_xxAA_s140_6.0.0.dir/__/__/__/mesh/bearer/src/scanner.c.obj
                0x0002eda8                scanner_config_reset
 .text.scanner_init
                0x0002edf8       0x54 examples/pb_remote/server/CMakeFiles/pb_remote_server_nrf52840_xxAA_s140_6.0.0.dir/__/__/__/mesh/bearer/src/scanner.c.obj
                0x0002edf8                scanner_init
 .text.pin_clear
                0x0002ee4c       0x26 examples/pb_remote/server/CMakeFiles/pb_remote_server_nrf52840_xxAA_s140_6.0.0.dir/__/__/__/mesh/bearer/src/mesh_pa_lna.c.obj
 *fill*         0x0002ee72        0x2 
 .text.ppi_setup.isra.0
                0x0002ee74       0x3c examples/pb_remote/server/CMakeFiles/pb_remote_server_nrf52840_xxAA_s140_6.0.0.dir/__/__/__/mesh/bearer/src/mesh_pa_lna.c.obj
 .text.mesh_pa_setup_start
                0x0002eeb0       0x5c examples/pb_remote/server/CMakeFiles/pb_remote_server_nrf52840_xxAA_s140_6.0.0.dir/__/__/__/mesh/bearer/src/mesh_pa_lna.c.obj
                0x0002eeb0                mesh_pa_setup_start
 .text.mesh_lna_setup_start
                0x0002ef0c       0x5c examples/pb_remote/server/CMakeFiles/pb_remote_server_nrf52840_xxAA_s140_6.0.0.dir/__/__/__/mesh/bearer/src/mesh_pa_lna.c.obj
                0x0002ef0c                mesh_lna_setup_start
 .text.mesh_pa_lna_disable_start
                0x0002ef68       0x1c examples/pb_remote/server/CMakeFiles/pb_remote_server_nrf52840_xxAA_s140_6.0.0.dir/__/__/__/mesh/bearer/src/mesh_pa_lna.c.obj
                0x0002ef68                mesh_pa_lna_disable_start
 .text.mesh_pa_lna_setup_stop
                0x0002ef84       0x4c examples/pb_remote/server/CMakeFiles/pb_remote_server_nrf52840_xxAA_s140_6.0.0.dir/__/__/__/mesh/bearer/src/mesh_pa_lna.c.obj
                0x0002ef84                mesh_pa_lna_setup_stop
 .text.mesh_pa_lna_cleanup
                0x0002efd0       0x48 examples/pb_remote/server/CMakeFiles/pb_remote_server_nrf52840_xxAA_s140_6.0.0.dir/__/__/__/mesh/bearer/src/mesh_pa_lna.c.obj
                0x0002efd0                mesh_pa_lna_cleanup
 .text.complete_provisioning
                0x0002f018       0x24 examples/pb_remote/server/CMakeFiles/pb_remote_server_nrf52840_xxAA_s140_6.0.0.dir/__/__/__/mesh/prov/src/prov_provisionee.c.obj
 .text.prov_provisionee_cb_link_established
                0x0002f03c       0x36 examples/pb_remote/server/CMakeFiles/pb_remote_server_nrf52840_xxAA_s140_6.0.0.dir/__/__/__/mesh/prov/src/prov_provisionee.c.obj
 .text.prov_provisionee_cb_link_closed
                0x0002f072       0x34 examples/pb_remote/server/CMakeFiles/pb_remote_server_nrf52840_xxAA_s140_6.0.0.dir/__/__/__/mesh/prov/src/prov_provisionee.c.obj
 .text.request_authentication
                0x0002f0a6       0x8a examples/pb_remote/server/CMakeFiles/pb_remote_server_nrf52840_xxAA_s140_6.0.0.dir/__/__/__/mesh/prov/src/prov_provisionee.c.obj
 .text.send_failed
                0x0002f130       0x3a examples/pb_remote/server/CMakeFiles/pb_remote_server_nrf52840_xxAA_s140_6.0.0.dir/__/__/__/mesh/prov/src/prov_provisionee.c.obj
 .text.start_authentication
                0x0002f16a       0x52 examples/pb_remote/server/CMakeFiles/pb_remote_server_nrf52840_xxAA_s140_6.0.0.dir/__/__/__/mesh/prov/src/prov_provisionee.c.obj
 .text.prov_provisionee_cb_ack_received
                0x0002f1bc       0xc8 examples/pb_remote/server/CMakeFiles/pb_remote_server_nrf52840_xxAA_s140_6.0.0.dir/__/__/__/mesh/prov/src/prov_provisionee.c.obj
 .text.prov_provisionee_pkt_in
                0x0002f284      0x350 examples/pb_remote/server/CMakeFiles/pb_remote_server_nrf52840_xxAA_s140_6.0.0.dir/__/__/__/mesh/prov/src/prov_provisionee.c.obj
 .text.prov_provisionee_listen
                0x0002f5d4       0x30 examples/pb_remote/server/CMakeFiles/pb_remote_server_nrf52840_xxAA_s140_6.0.0.dir/__/__/__/mesh/prov/src/prov_provisionee.c.obj
                0x0002f5d4                prov_provisionee_listen
 .text.prov_provisionee_auth_data
                0x0002f604       0x98 examples/pb_remote/server/CMakeFiles/pb_remote_server_nrf52840_xxAA_s140_6.0.0.dir/__/__/__/mesh/prov/src/prov_provisionee.c.obj
                0x0002f604                prov_provisionee_auth_data
 .text.bearer_compare_callback
                0x0002f69c        0xc examples/pb_remote/server/CMakeFiles/pb_remote_server_nrf52840_xxAA_s140_6.0.0.dir/__/__/__/mesh/prov/src/nrf_mesh_prov.c.obj
 .text.bitfield_next_get.part.0.constprop.4
                0x0002f6a8       0x34 examples/pb_remote/server/CMakeFiles/pb_remote_server_nrf52840_xxAA_s140_6.0.0.dir/__/__/__/mesh/prov/src/nrf_mesh_prov.c.obj
 .text.nrf_mesh_prov_init
                0x0002f6dc       0x32 examples/pb_remote/server/CMakeFiles/pb_remote_server_nrf52840_xxAA_s140_6.0.0.dir/__/__/__/mesh/prov/src/nrf_mesh_prov.c.obj
                0x0002f6dc                nrf_mesh_prov_init
 *fill*         0x0002f70e        0x2 
 .text.nrf_mesh_prov_bearer_add
                0x0002f710       0x28 examples/pb_remote/server/CMakeFiles/pb_remote_server_nrf52840_xxAA_s140_6.0.0.dir/__/__/__/mesh/prov/src/nrf_mesh_prov.c.obj
                0x0002f710                nrf_mesh_prov_bearer_add
 .text.nrf_mesh_prov_generate_keys
                0x0002f738        0x4 examples/pb_remote/server/CMakeFiles/pb_remote_server_nrf52840_xxAA_s140_6.0.0.dir/__/__/__/mesh/prov/src/nrf_mesh_prov.c.obj
                0x0002f738                nrf_mesh_prov_generate_keys
 .text.nrf_mesh_prov_listen_stop
                0x0002f73c       0x2e examples/pb_remote/server/CMakeFiles/pb_remote_server_nrf52840_xxAA_s140_6.0.0.dir/__/__/__/mesh/prov/src/nrf_mesh_prov.c.obj
                0x0002f73c                nrf_mesh_prov_listen_stop
 .text.nrf_mesh_prov_listen
                0x0002f76a       0x88 examples/pb_remote/server/CMakeFiles/pb_remote_server_nrf52840_xxAA_s140_6.0.0.dir/__/__/__/mesh/prov/src/nrf_mesh_prov.c.obj
                0x0002f76a                nrf_mesh_prov_listen
 .text.nrf_mesh_prov_auth_data_provide
                0x0002f7f2        0xe examples/pb_remote/server/CMakeFiles/pb_remote_server_nrf52840_xxAA_s140_6.0.0.dir/__/__/__/mesh/prov/src/nrf_mesh_prov.c.obj
                0x0002f7f2                nrf_mesh_prov_auth_data_provide
 .text.nrf_mesh_prov_scan_start
                0x0002f800       0x10 examples/pb_remote/server/CMakeFiles/pb_remote_server_nrf52840_xxAA_s140_6.0.0.dir/__/__/__/mesh/prov/src/nrf_mesh_prov.c.obj
                0x0002f800                nrf_mesh_prov_scan_start
 .text.nrf_mesh_prov_scan_stop
                0x0002f810        0x4 examples/pb_remote/server/CMakeFiles/pb_remote_server_nrf52840_xxAA_s140_6.0.0.dir/__/__/__/mesh/prov/src/nrf_mesh_prov.c.obj
                0x0002f810                nrf_mesh_prov_scan_stop
 .text.send_data
                0x0002f814       0x28 examples/pb_remote/server/CMakeFiles/pb_remote_server_nrf52840_xxAA_s140_6.0.0.dir/__/__/__/mesh/prov/src/provisioning.c.obj
 .text.prov_packet_length_valid
                0x0002f83c       0x1c examples/pb_remote/server/CMakeFiles/pb_remote_server_nrf52840_xxAA_s140_6.0.0.dir/__/__/__/mesh/prov/src/provisioning.c.obj
                0x0002f83c                prov_packet_length_valid
 .text.prov_tx_capabilities
                0x0002f858       0x1e examples/pb_remote/server/CMakeFiles/pb_remote_server_nrf52840_xxAA_s140_6.0.0.dir/__/__/__/mesh/prov/src/provisioning.c.obj
                0x0002f858                prov_tx_capabilities
 .text.prov_tx_public_key
                0x0002f876       0x26 examples/pb_remote/server/CMakeFiles/pb_remote_server_nrf52840_xxAA_s140_6.0.0.dir/__/__/__/mesh/prov/src/provisioning.c.obj
                0x0002f876                prov_tx_public_key
 .text.prov_tx_input_complete
                0x0002f89c       0x16 examples/pb_remote/server/CMakeFiles/pb_remote_server_nrf52840_xxAA_s140_6.0.0.dir/__/__/__/mesh/prov/src/provisioning.c.obj
                0x0002f89c                prov_tx_input_complete
 .text.prov_tx_confirmation
                0x0002f8b2       0x26 examples/pb_remote/server/CMakeFiles/pb_remote_server_nrf52840_xxAA_s140_6.0.0.dir/__/__/__/mesh/prov/src/provisioning.c.obj
                0x0002f8b2                prov_tx_confirmation
 .text.prov_tx_random
                0x0002f8d8       0x26 examples/pb_remote/server/CMakeFiles/pb_remote_server_nrf52840_xxAA_s140_6.0.0.dir/__/__/__/mesh/prov/src/provisioning.c.obj
                0x0002f8d8                prov_tx_random
 .text.prov_tx_complete
                0x0002f8fe       0x16 examples/pb_remote/server/CMakeFiles/pb_remote_server_nrf52840_xxAA_s140_6.0.0.dir/__/__/__/mesh/prov/src/provisioning.c.obj
                0x0002f8fe                prov_tx_complete
 .text.prov_tx_failed
                0x0002f914       0x1a examples/pb_remote/server/CMakeFiles/pb_remote_server_nrf52840_xxAA_s140_6.0.0.dir/__/__/__/mesh/prov/src/provisioning.c.obj
                0x0002f914                prov_tx_failed
 .text.prov_beacon_unprov_build
                0x0002f92e       0x54 examples/pb_remote/server/CMakeFiles/pb_remote_server_nrf52840_xxAA_s140_6.0.0.dir/__/__/__/mesh/prov/src/prov_beacon.c.obj
                0x0002f92e                prov_beacon_unprov_build
 *fill*         0x0002f982        0x2 
 .text.prov_beacon_unprov_packet_in
                0x0002f984       0x88 examples/pb_remote/server/CMakeFiles/pb_remote_server_nrf52840_xxAA_s140_6.0.0.dir/__/__/__/mesh/prov/src/prov_beacon.c.obj
                0x0002f984                prov_beacon_unprov_packet_in
 .text.prov_beacon_scan_start
                0x0002fa0c       0x18 examples/pb_remote/server/CMakeFiles/pb_remote_server_nrf52840_xxAA_s140_6.0.0.dir/__/__/__/mesh/prov/src/prov_beacon.c.obj
                0x0002fa0c                prov_beacon_scan_start
 .text.prov_beacon_scan_stop
                0x0002fa24        0xc examples/pb_remote/server/CMakeFiles/pb_remote_server_nrf52840_xxAA_s140_6.0.0.dir/__/__/__/mesh/prov/src/prov_beacon.c.obj
                0x0002fa24                prov_beacon_scan_stop
 .text.ecdh_offloading_get
                0x0002fa30       0x1c examples/pb_remote/server/CMakeFiles/pb_remote_server_nrf52840_xxAA_s140_6.0.0.dir/__/__/__/mesh/prov/src/prov_utils.c.obj
 .text.ecdh_offloading_set
                0x0002fa4c       0x1c examples/pb_remote/server/CMakeFiles/pb_remote_server_nrf52840_xxAA_s140_6.0.0.dir/__/__/__/mesh/prov/src/prov_utils.c.obj
 .text.oob_gen_numeric
                0x0002fa68       0x3c examples/pb_remote/server/CMakeFiles/pb_remote_server_nrf52840_xxAA_s140_6.0.0.dir/__/__/__/mesh/prov/src/prov_utils.c.obj
 .text.oob_gen_alphanumeric
                0x0002faa4       0x34 examples/pb_remote/server/CMakeFiles/pb_remote_server_nrf52840_xxAA_s140_6.0.0.dir/__/__/__/mesh/prov/src/prov_utils.c.obj
 .text.prov_utils_authentication_values_derive
                0x0002fad8       0xa0 examples/pb_remote/server/CMakeFiles/pb_remote_server_nrf52840_xxAA_s140_6.0.0.dir/__/__/__/mesh/prov/src/prov_utils.c.obj
                0x0002fad8                prov_utils_authentication_values_derive
 .text.prov_utils_keys_generate
                0x0002fb78       0x1e examples/pb_remote/server/CMakeFiles/pb_remote_server_nrf52840_xxAA_s140_6.0.0.dir/__/__/__/mesh/prov/src/prov_utils.c.obj
                0x0002fb78                prov_utils_keys_generate
 *fill*         0x0002fb96        0x2 
 .text.prov_utils_derive_keys
                0x0002fb98       0xac examples/pb_remote/server/CMakeFiles/pb_remote_server_nrf52840_xxAA_s140_6.0.0.dir/__/__/__/mesh/prov/src/prov_utils.c.obj
                0x0002fb98                prov_utils_derive_keys
 .text.prov_utils_calculate_shared_secret
                0x0002fc44       0x36 examples/pb_remote/server/CMakeFiles/pb_remote_server_nrf52840_xxAA_s140_6.0.0.dir/__/__/__/mesh/prov/src/prov_utils.c.obj
                0x0002fc44                prov_utils_calculate_shared_secret
 .text.prov_utils_generate_oob_data
                0x0002fc7a       0x8a examples/pb_remote/server/CMakeFiles/pb_remote_server_nrf52840_xxAA_s140_6.0.0.dir/__/__/__/mesh/prov/src/prov_utils.c.obj
                0x0002fc7a                prov_utils_generate_oob_data
 .text.prov_utils_confirmation_check
                0x0002fd04       0x5c examples/pb_remote/server/CMakeFiles/pb_remote_server_nrf52840_xxAA_s140_6.0.0.dir/__/__/__/mesh/prov/src/prov_utils.c.obj
                0x0002fd04                prov_utils_confirmation_check
 .text.mesh_opt_prov_ecdh_offloading_get
                0x0002fd60       0x10 examples/pb_remote/server/CMakeFiles/pb_remote_server_nrf52840_xxAA_s140_6.0.0.dir/__/__/__/mesh/prov/src/prov_utils.c.obj
                0x0002fd60                mesh_opt_prov_ecdh_offloading_get
 .text.prov_utils_use_ecdh_offloading
                0x0002fd70       0x1c examples/pb_remote/server/CMakeFiles/pb_remote_server_nrf52840_xxAA_s140_6.0.0.dir/__/__/__/mesh/prov/src/prov_utils.c.obj
                0x0002fd70                prov_utils_use_ecdh_offloading
 .text.link_timeout_cb
                0x0002fd8c       0x10 examples/pb_remote/server/CMakeFiles/pb_remote_server_nrf52840_xxAA_s140_6.0.0.dir/__/__/__/mesh/prov/src/prov_bearer_adv.c.obj
 .text.remove_active_bearer
                0x0002fd9c       0x4c examples/pb_remote/server/CMakeFiles/pb_remote_server_nrf52840_xxAA_s140_6.0.0.dir/__/__/__/mesh/prov/src/prov_bearer_adv.c.obj
 .text.close_link
                0x0002fde8       0x58 examples/pb_remote/server/CMakeFiles/pb_remote_server_nrf52840_xxAA_s140_6.0.0.dir/__/__/__/mesh/prov/src/prov_bearer_adv.c.obj
 .text.prov_bearer_adv_listen_stop
                0x0002fe40       0x30 examples/pb_remote/server/CMakeFiles/pb_remote_server_nrf52840_xxAA_s140_6.0.0.dir/__/__/__/mesh/prov/src/prov_bearer_adv.c.obj
 .text.send_packet
                0x0002fe70       0x5e examples/pb_remote/server/CMakeFiles/pb_remote_server_nrf52840_xxAA_s140_6.0.0.dir/__/__/__/mesh/prov/src/prov_bearer_adv.c.obj
 .text.prov_buffer_tx
                0x0002fece      0x134 examples/pb_remote/server/CMakeFiles/pb_remote_server_nrf52840_xxAA_s140_6.0.0.dir/__/__/__/mesh/prov/src/prov_bearer_adv.c.obj
 .text.send_link_close
                0x00030002       0x38 examples/pb_remote/server/CMakeFiles/pb_remote_server_nrf52840_xxAA_s140_6.0.0.dir/__/__/__/mesh/prov/src/prov_bearer_adv.c.obj
 .text.prov_bearer_adv_link_close
                0x0003003a       0x56 examples/pb_remote/server/CMakeFiles/pb_remote_server_nrf52840_xxAA_s140_6.0.0.dir/__/__/__/mesh/prov/src/prov_bearer_adv.c.obj
 .text.send_transaction_ack
                0x00030090       0x24 examples/pb_remote/server/CMakeFiles/pb_remote_server_nrf52840_xxAA_s140_6.0.0.dir/__/__/__/mesh/prov/src/prov_bearer_adv.c.obj
 .text.send_link_ack
                0x000300b4       0x32 examples/pb_remote/server/CMakeFiles/pb_remote_server_nrf52840_xxAA_s140_6.0.0.dir/__/__/__/mesh/prov/src/prov_bearer_adv.c.obj
 .text.reset_timeout_timer
                0x000300e6       0x1a examples/pb_remote/server/CMakeFiles/pb_remote_server_nrf52840_xxAA_s140_6.0.0.dir/__/__/__/mesh/prov/src/prov_bearer_adv.c.obj
 .text.init_bearer_structure
                0x00030100       0x5c examples/pb_remote/server/CMakeFiles/pb_remote_server_nrf52840_xxAA_s140_6.0.0.dir/__/__/__/mesh/prov/src/prov_bearer_adv.c.obj
 .text.tx_complete_cb
                0x0003015c       0x1c examples/pb_remote/server/CMakeFiles/pb_remote_server_nrf52840_xxAA_s140_6.0.0.dir/__/__/__/mesh/prov/src/prov_bearer_adv.c.obj
 .text.tx_retry_cb
                0x00030178       0xcc examples/pb_remote/server/CMakeFiles/pb_remote_server_nrf52840_xxAA_s140_6.0.0.dir/__/__/__/mesh/prov/src/prov_bearer_adv.c.obj
 .text.add_active_bearer
                0x00030244       0x80 examples/pb_remote/server/CMakeFiles/pb_remote_server_nrf52840_xxAA_s140_6.0.0.dir/__/__/__/mesh/prov/src/prov_bearer_adv.c.obj
 .text.prov_bearer_adv_link_open
                0x000302c4       0x9c examples/pb_remote/server/CMakeFiles/pb_remote_server_nrf52840_xxAA_s140_6.0.0.dir/__/__/__/mesh/prov/src/prov_bearer_adv.c.obj
 .text.prov_bearer_adv_listen
                0x00030360       0x86 examples/pb_remote/server/CMakeFiles/pb_remote_server_nrf52840_xxAA_s140_6.0.0.dir/__/__/__/mesh/prov/src/prov_bearer_adv.c.obj
 *fill*         0x000303e6        0x2 
 .text.async_process
                0x000303e8       0x50 examples/pb_remote/server/CMakeFiles/pb_remote_server_nrf52840_xxAA_s140_6.0.0.dir/__/__/__/mesh/prov/src/prov_bearer_adv.c.obj
 .text.calculate_3GPP_CRC
                0x00030438       0x24 examples/pb_remote/server/CMakeFiles/pb_remote_server_nrf52840_xxAA_s140_6.0.0.dir/__/__/__/mesh/prov/src/prov_bearer_adv.c.obj
                0x00030438                calculate_3GPP_CRC
 .text.prov_bearer_adv_tx
                0x0003045c       0xb4 examples/pb_remote/server/CMakeFiles/pb_remote_server_nrf52840_xxAA_s140_6.0.0.dir/__/__/__/mesh/prov/src/prov_bearer_adv.c.obj
 .text.prov_buffer_rx
                0x00030510       0x6e examples/pb_remote/server/CMakeFiles/pb_remote_server_nrf52840_xxAA_s140_6.0.0.dir/__/__/__/mesh/prov/src/prov_bearer_adv.c.obj
 *fill*         0x0003057e        0x2 
 .text.nrf_mesh_prov_bearer_adv_interface_get
                0x00030580       0x3c examples/pb_remote/server/CMakeFiles/pb_remote_server_nrf52840_xxAA_s140_6.0.0.dir/__/__/__/mesh/prov/src/prov_bearer_adv.c.obj
                0x00030580                nrf_mesh_prov_bearer_adv_interface_get
 .text.prov_bearer_adv_packet_in
                0x000305bc      0x7f8 examples/pb_remote/server/CMakeFiles/pb_remote_server_nrf52840_xxAA_s140_6.0.0.dir/__/__/__/mesh/prov/src/prov_bearer_adv.c.obj
                0x000305bc                prov_bearer_adv_packet_in
 .text.pb_remote_server_event_transfer_status_cb
                0x00030db4       0xf0 examples/pb_remote/server/CMakeFiles/pb_remote_server_nrf52840_xxAA_s140_6.0.0.dir/__/__/__/models/experimental/pb_remote/src/pb_remote_server.c.obj
 .text.pb_remote_server_event_link_status_cb
                0x00030ea4      0x1cc examples/pb_remote/server/CMakeFiles/pb_remote_server_nrf52840_xxAA_s140_6.0.0.dir/__/__/__/models/experimental/pb_remote/src/pb_remote_server.c.obj
 .text.pb_remote_server_event_scan_report_status_cb
                0x00031070       0x80 examples/pb_remote/server/CMakeFiles/pb_remote_server_nrf52840_xxAA_s140_6.0.0.dir/__/__/__/models/experimental/pb_remote/src/pb_remote_server.c.obj
 .text.do_state_change
                0x000310f0       0x78 examples/pb_remote/server/CMakeFiles/pb_remote_server_nrf52840_xxAA_s140_6.0.0.dir/__/__/__/models/experimental/pb_remote/src/pb_remote_server.c.obj
 .text.pb_remote_server_process
                0x00031168      0x208 examples/pb_remote/server/CMakeFiles/pb_remote_server_nrf52840_xxAA_s140_6.0.0.dir/__/__/__/models/experimental/pb_remote/src/pb_remote_server.c.obj
 .text.server_reliable_status_cb
                0x00031370      0x158 examples/pb_remote/server/CMakeFiles/pb_remote_server_nrf52840_xxAA_s140_6.0.0.dir/__/__/__/models/experimental/pb_remote/src/pb_remote_server.c.obj
 .text.pb_adv_link_closed_cb
                0x000314c8       0x3c examples/pb_remote/server/CMakeFiles/pb_remote_server_nrf52840_xxAA_s140_6.0.0.dir/__/__/__/models/experimental/pb_remote/src/pb_remote_server.c.obj
 .text.pb_adv_link_opened_cb
                0x00031504       0x34 examples/pb_remote/server/CMakeFiles/pb_remote_server_nrf52840_xxAA_s140_6.0.0.dir/__/__/__/models/experimental/pb_remote/src/pb_remote_server.c.obj
 .text.pb_adv_ack_cb
                0x00031538       0x34 examples/pb_remote/server/CMakeFiles/pb_remote_server_nrf52840_xxAA_s140_6.0.0.dir/__/__/__/models/experimental/pb_remote/src/pb_remote_server.c.obj
 .text.pb_adv_rx_cb
                0x0003156c       0x48 examples/pb_remote/server/CMakeFiles/pb_remote_server_nrf52840_xxAA_s140_6.0.0.dir/__/__/__/models/experimental/pb_remote/src/pb_remote_server.c.obj
 .text.prov_evt_handler
                0x000315b4       0x40 examples/pb_remote/server/CMakeFiles/pb_remote_server_nrf52840_xxAA_s140_6.0.0.dir/__/__/__/models/experimental/pb_remote/src/pb_remote_server.c.obj
 .text.pb_remote_server_event_tx_failed_cb
                0x000315f4       0x2c examples/pb_remote/server/CMakeFiles/pb_remote_server_nrf52840_xxAA_s140_6.0.0.dir/__/__/__/models/experimental/pb_remote/src/pb_remote_server.c.obj
 .text.send_reliable_msg
                0x00031620       0x40 examples/pb_remote/server/CMakeFiles/pb_remote_server_nrf52840_xxAA_s140_6.0.0.dir/__/__/__/models/experimental/pb_remote/src/pb_remote_server.c.obj
 .text.pb_remote_server_event_local_packet_cb
                0x00031660      0x114 examples/pb_remote/server/CMakeFiles/pb_remote_server_nrf52840_xxAA_s140_6.0.0.dir/__/__/__/models/experimental/pb_remote/src/pb_remote_server.c.obj
 .text.pb_remote_server_event_local_ack_cb
                0x00031774       0x8c examples/pb_remote/server/CMakeFiles/pb_remote_server_nrf52840_xxAA_s140_6.0.0.dir/__/__/__/models/experimental/pb_remote/src/pb_remote_server.c.obj
 .text.pb_remote_server_event_link_established_cb
                0x00031800       0x94 examples/pb_remote/server/CMakeFiles/pb_remote_server_nrf52840_xxAA_s140_6.0.0.dir/__/__/__/models/experimental/pb_remote/src/pb_remote_server.c.obj
 .text.pb_remote_server_event_link_closed_cb
                0x00031894       0xdc examples/pb_remote/server/CMakeFiles/pb_remote_server_nrf52840_xxAA_s140_6.0.0.dir/__/__/__/models/experimental/pb_remote/src/pb_remote_server.c.obj
 .text.pb_remote_server_event_unprov_uuid_cb
                0x00031970      0x178 examples/pb_remote/server/CMakeFiles/pb_remote_server_nrf52840_xxAA_s140_6.0.0.dir/__/__/__/models/experimental/pb_remote/src/pb_remote_server.c.obj
 .text.send_reply.isra.8
                0x00031ae8       0x18 examples/pb_remote/server/CMakeFiles/pb_remote_server_nrf52840_xxAA_s140_6.0.0.dir/__/__/__/models/experimental/pb_remote/src/pb_remote_server.c.obj
 .text.pb_remote_server_event_packet_transfer_cb
                0x00031b00      0x114 examples/pb_remote/server/CMakeFiles/pb_remote_server_nrf52840_xxAA_s140_6.0.0.dir/__/__/__/models/experimental/pb_remote/src/pb_remote_server.c.obj
 .text.pb_remote_server_event_scan_start_cb
                0x00031c14       0xac examples/pb_remote/server/CMakeFiles/pb_remote_server_nrf52840_xxAA_s140_6.0.0.dir/__/__/__/models/experimental/pb_remote/src/pb_remote_server.c.obj
 .text.remote_server_access_rx_cb
                0x00031cc0      0x188 examples/pb_remote/server/CMakeFiles/pb_remote_server_nrf52840_xxAA_s140_6.0.0.dir/__/__/__/models/experimental/pb_remote/src/pb_remote_server.c.obj
 .text.pb_remote_server_event_link_close_cb
                0x00031e48       0xf4 examples/pb_remote/server/CMakeFiles/pb_remote_server_nrf52840_xxAA_s140_6.0.0.dir/__/__/__/models/experimental/pb_remote/src/pb_remote_server.c.obj
 .text.local_link_open.isra.14
                0x00031f3c       0xf8 examples/pb_remote/server/CMakeFiles/pb_remote_server_nrf52840_xxAA_s140_6.0.0.dir/__/__/__/models/experimental/pb_remote/src/pb_remote_server.c.obj
 .text.pb_remote_server_event_link_open_cb
                0x00032034       0xb4 examples/pb_remote/server/CMakeFiles/pb_remote_server_nrf52840_xxAA_s140_6.0.0.dir/__/__/__/models/experimental/pb_remote/src/pb_remote_server.c.obj
 .text.pb_remote_server_event_scan_cancel_cb
                0x000320e8       0x8c examples/pb_remote/server/CMakeFiles/pb_remote_server_nrf52840_xxAA_s140_6.0.0.dir/__/__/__/models/experimental/pb_remote/src/pb_remote_server.c.obj
 .text.pb_remote_server_event_scan_start_filter_cb
                0x00032174      0x144 examples/pb_remote/server/CMakeFiles/pb_remote_server_nrf52840_xxAA_s140_6.0.0.dir/__/__/__/models/experimental/pb_remote/src/pb_remote_server.c.obj
 .text.pb_remote_server_init
                0x000322b8       0xa8 examples/pb_remote/server/CMakeFiles/pb_remote_server_nrf52840_xxAA_s140_6.0.0.dir/__/__/__/models/experimental/pb_remote/src/pb_remote_server.c.obj
                0x000322b8                pb_remote_server_init
 .text.pb_remote_server_enable
                0x00032360       0x28 examples/pb_remote/server/CMakeFiles/pb_remote_server_nrf52840_xxAA_s140_6.0.0.dir/__/__/__/models/experimental/pb_remote/src/pb_remote_server.c.obj
                0x00032360                pb_remote_server_enable
 .text.pb_remote_server_prov_bearer_set
                0x00032388       0x18 examples/pb_remote/server/CMakeFiles/pb_remote_server_nrf52840_xxAA_s140_6.0.0.dir/__/__/__/models/experimental/pb_remote/src/pb_remote_server.c.obj
                0x00032388                pb_remote_server_prov_bearer_set
 .text.add_to_publication_list
                0x000323a0       0x78 examples/pb_remote/server/CMakeFiles/pb_remote_server_nrf52840_xxAA_s140_6.0.0.dir/__/__/__/mesh/access/src/access_publish.c.obj
 .text.step_resolution_to_us
                0x00032418       0x38 examples/pb_remote/server/CMakeFiles/pb_remote_server_nrf52840_xxAA_s140_6.0.0.dir/__/__/__/mesh/access/src/access_publish.c.obj
 .text.schedule_publication_timer
                0x00032450      0x184 examples/pb_remote/server/CMakeFiles/pb_remote_server_nrf52840_xxAA_s140_6.0.0.dir/__/__/__/mesh/access/src/access_publish.c.obj
 .text.publish_timer_tick
                0x000325d4       0xa8 examples/pb_remote/server/CMakeFiles/pb_remote_server_nrf52840_xxAA_s140_6.0.0.dir/__/__/__/mesh/access/src/access_publish.c.obj
 .text.access_publish_init
                0x0003267c       0x38 examples/pb_remote/server/CMakeFiles/pb_remote_server_nrf52840_xxAA_s140_6.0.0.dir/__/__/__/mesh/access/src/access_publish.c.obj
                0x0003267c                access_publish_init
 .text.access_publish_period_set
                0x000326b4       0x60 examples/pb_remote/server/CMakeFiles/pb_remote_server_nrf52840_xxAA_s140_6.0.0.dir/__/__/__/mesh/access/src/access_publish.c.obj
                0x000326b4                access_publish_period_set
 .text.access_publish_period_get
                0x00032714       0x22 examples/pb_remote/server/CMakeFiles/pb_remote_server_nrf52840_xxAA_s140_6.0.0.dir/__/__/__/mesh/access/src/access_publish.c.obj
                0x00032714                access_publish_period_get
 .text.bitfield_get
                0x00032736       0x1a examples/pb_remote/server/CMakeFiles/pb_remote_server_nrf52840_xxAA_s140_6.0.0.dir/__/__/__/mesh/access/src/access.c.obj
 .text.is_valid_opcode
                0x00032750       0x42 examples/pb_remote/server/CMakeFiles/pb_remote_server_nrf52840_xxAA_s140_6.0.0.dir/__/__/__/mesh/access/src/access.c.obj
 *fill*         0x00032792        0x2 
 .text.model_handle_valid_and_allocated
                0x00032794       0x20 examples/pb_remote/server/CMakeFiles/pb_remote_server_nrf52840_xxAA_s140_6.0.0.dir/__/__/__/mesh/access/src/access.c.obj
 .text.flash_manager_mem_available
                0x000327b4        0x2 examples/pb_remote/server/CMakeFiles/pb_remote_server_nrf52840_xxAA_s140_6.0.0.dir/__/__/__/mesh/access/src/access.c.obj
 *fill*         0x000327b6        0x2 
 .text.restore_acquired_subscription
                0x000327b8       0x30 examples/pb_remote/server/CMakeFiles/pb_remote_server_nrf52840_xxAA_s140_6.0.0.dir/__/__/__/mesh/access/src/access.c.obj
 .text.restore_acquired_element
                0x000327e8       0x1c examples/pb_remote/server/CMakeFiles/pb_remote_server_nrf52840_xxAA_s140_6.0.0.dir/__/__/__/mesh/access/src/access.c.obj
 .text.restore_flash_data
                0x00032804       0x50 examples/pb_remote/server/CMakeFiles/pb_remote_server_nrf52840_xxAA_s140_6.0.0.dir/__/__/__/mesh/access/src/access.c.obj
 .text.flash_invalidate_complete
                0x00032854        0x6 examples/pb_remote/server/CMakeFiles/pb_remote_server_nrf52840_xxAA_s140_6.0.0.dir/__/__/__/mesh/access/src/access.c.obj
 *fill*         0x0003285a        0x2 
 .text.access_flash_config_clear
                0x0003285c       0x28 examples/pb_remote/server/CMakeFiles/pb_remote_server_nrf52840_xxAA_s140_6.0.0.dir/__/__/__/mesh/access/src/access.c.obj
 .text.access_flash_config_store
                0x00032884      0x138 examples/pb_remote/server/CMakeFiles/pb_remote_server_nrf52840_xxAA_s140_6.0.0.dir/__/__/__/mesh/access/src/access.c.obj
                0x00032884                access_flash_config_store
 .text.access_state_clear
                0x000329bc       0x48 examples/pb_remote/server/CMakeFiles/pb_remote_server_nrf52840_xxAA_s140_6.0.0.dir/__/__/__/mesh/access/src/access.c.obj
 .text.flash_write_complete
                0x00032a04       0x46 examples/pb_remote/server/CMakeFiles/pb_remote_server_nrf52840_xxAA_s140_6.0.0.dir/__/__/__/mesh/access/src/access.c.obj
 *fill*         0x00032a4a        0x2 
 .text.unlikely.bitfield_next_get.part.0.constprop.5
                0x00032a4c       0x34 examples/pb_remote/server/CMakeFiles/pb_remote_server_nrf52840_xxAA_s140_6.0.0.dir/__/__/__/mesh/access/src/access.c.obj
 .text.packet_tx
                0x00032a80      0x31c examples/pb_remote/server/CMakeFiles/pb_remote_server_nrf52840_xxAA_s140_6.0.0.dir/__/__/__/mesh/access/src/access.c.obj
 .text.restore_acquired_model
                0x00032d9c       0x94 examples/pb_remote/server/CMakeFiles/pb_remote_server_nrf52840_xxAA_s140_6.0.0.dir/__/__/__/mesh/access/src/access.c.obj
 .text.access_flash_config_load
                0x00032e30      0x118 examples/pb_remote/server/CMakeFiles/pb_remote_server_nrf52840_xxAA_s140_6.0.0.dir/__/__/__/mesh/access/src/access.c.obj
                0x00032e30                access_flash_config_load
 .text.access_incoming_handle
                0x00032f48      0x104 examples/pb_remote/server/CMakeFiles/pb_remote_server_nrf52840_xxAA_s140_6.0.0.dir/__/__/__/mesh/access/src/access.c.obj
                0x00032f48                access_incoming_handle
 .text.mesh_evt_cb
                0x0003304c      0x134 examples/pb_remote/server/CMakeFiles/pb_remote_server_nrf52840_xxAA_s140_6.0.0.dir/__/__/__/mesh/access/src/access.c.obj
 .text.access_clear
                0x00033180       0x12 examples/pb_remote/server/CMakeFiles/pb_remote_server_nrf52840_xxAA_s140_6.0.0.dir/__/__/__/mesh/access/src/access.c.obj
                0x00033180                access_clear
 *fill*         0x00033192        0x2 
 .text.access_model_add
                0x00033194      0x1b8 examples/pb_remote/server/CMakeFiles/pb_remote_server_nrf52840_xxAA_s140_6.0.0.dir/__/__/__/mesh/access/src/access.c.obj
                0x00033194                access_model_add
 .text.access_model_publish
                0x0003334c        0xc examples/pb_remote/server/CMakeFiles/pb_remote_server_nrf52840_xxAA_s140_6.0.0.dir/__/__/__/mesh/access/src/access.c.obj
                0x0003334c                access_model_publish
 .text.access_model_reply
                0x00033358       0x12 examples/pb_remote/server/CMakeFiles/pb_remote_server_nrf52840_xxAA_s140_6.0.0.dir/__/__/__/mesh/access/src/access.c.obj
                0x00033358                access_model_reply
 *fill*         0x0003336a        0x2 
 .text.access_model_publish_address_set
                0x0003336c       0x3c examples/pb_remote/server/CMakeFiles/pb_remote_server_nrf52840_xxAA_s140_6.0.0.dir/__/__/__/mesh/access/src/access.c.obj
                0x0003336c                access_model_publish_address_set
 .text.access_model_publish_address_get
                0x000333a8       0x28 examples/pb_remote/server/CMakeFiles/pb_remote_server_nrf52840_xxAA_s140_6.0.0.dir/__/__/__/mesh/access/src/access.c.obj
                0x000333a8                access_model_publish_address_get
 .text.access_model_publish_retransmit_set
                0x000333d0       0x4c examples/pb_remote/server/CMakeFiles/pb_remote_server_nrf52840_xxAA_s140_6.0.0.dir/__/__/__/mesh/access/src/access.c.obj
                0x000333d0                access_model_publish_retransmit_set
 .text.access_model_publish_retransmit_get
                0x0003341c       0x2c examples/pb_remote/server/CMakeFiles/pb_remote_server_nrf52840_xxAA_s140_6.0.0.dir/__/__/__/mesh/access/src/access.c.obj
                0x0003341c                access_model_publish_retransmit_get
 .text.access_model_publish_period_set
                0x00033448       0x6c examples/pb_remote/server/CMakeFiles/pb_remote_server_nrf52840_xxAA_s140_6.0.0.dir/__/__/__/mesh/access/src/access.c.obj
                0x00033448                access_model_publish_period_set
 .text.access_model_publish_period_get
                0x000334b4       0x3c examples/pb_remote/server/CMakeFiles/pb_remote_server_nrf52840_xxAA_s140_6.0.0.dir/__/__/__/mesh/access/src/access.c.obj
                0x000334b4                access_model_publish_period_get
 .text.access_model_subscription_add
                0x000334f0       0x60 examples/pb_remote/server/CMakeFiles/pb_remote_server_nrf52840_xxAA_s140_6.0.0.dir/__/__/__/mesh/access/src/access.c.obj
                0x000334f0                access_model_subscription_add
 .text.access_model_subscription_remove
                0x00033550       0x60 examples/pb_remote/server/CMakeFiles/pb_remote_server_nrf52840_xxAA_s140_6.0.0.dir/__/__/__/mesh/access/src/access.c.obj
                0x00033550                access_model_subscription_remove
 .text.access_model_subscriptions_get
                0x000335b0       0x80 examples/pb_remote/server/CMakeFiles/pb_remote_server_nrf52840_xxAA_s140_6.0.0.dir/__/__/__/mesh/access/src/access.c.obj
                0x000335b0                access_model_subscriptions_get
 .text.access_model_application_bind
                0x00033630       0x50 examples/pb_remote/server/CMakeFiles/pb_remote_server_nrf52840_xxAA_s140_6.0.0.dir/__/__/__/mesh/access/src/access.c.obj
                0x00033630                access_model_application_bind
 .text.access_model_application_unbind
                0x00033680       0x50 examples/pb_remote/server/CMakeFiles/pb_remote_server_nrf52840_xxAA_s140_6.0.0.dir/__/__/__/mesh/access/src/access.c.obj
                0x00033680                access_model_application_unbind
 .text.access_model_applications_get
                0x000336d0       0x58 examples/pb_remote/server/CMakeFiles/pb_remote_server_nrf52840_xxAA_s140_6.0.0.dir/__/__/__/mesh/access/src/access.c.obj
                0x000336d0                access_model_applications_get
 .text.access_model_publish_application_set
                0x00033728       0x3c examples/pb_remote/server/CMakeFiles/pb_remote_server_nrf52840_xxAA_s140_6.0.0.dir/__/__/__/mesh/access/src/access.c.obj
                0x00033728                access_model_publish_application_set
 .text.access_model_publish_application_get
                0x00033764       0x28 examples/pb_remote/server/CMakeFiles/pb_remote_server_nrf52840_xxAA_s140_6.0.0.dir/__/__/__/mesh/access/src/access.c.obj
                0x00033764                access_model_publish_application_get
 .text.access_default_ttl_set
                0x0003378c       0x18 examples/pb_remote/server/CMakeFiles/pb_remote_server_nrf52840_xxAA_s140_6.0.0.dir/__/__/__/mesh/access/src/access.c.obj
                0x0003378c                access_default_ttl_set
 .text.access_default_ttl_get
                0x000337a4        0xc examples/pb_remote/server/CMakeFiles/pb_remote_server_nrf52840_xxAA_s140_6.0.0.dir/__/__/__/mesh/access/src/access.c.obj
                0x000337a4                access_default_ttl_get
 .text.access_model_publish_ttl_set
                0x000337b0       0x40 examples/pb_remote/server/CMakeFiles/pb_remote_server_nrf52840_xxAA_s140_6.0.0.dir/__/__/__/mesh/access/src/access.c.obj
                0x000337b0                access_model_publish_ttl_set
 .text.access_model_publish_ttl_get
                0x000337f0       0x28 examples/pb_remote/server/CMakeFiles/pb_remote_server_nrf52840_xxAA_s140_6.0.0.dir/__/__/__/mesh/access/src/access.c.obj
                0x000337f0                access_model_publish_ttl_get
 .text.access_element_location_get
                0x00033818       0x18 examples/pb_remote/server/CMakeFiles/pb_remote_server_nrf52840_xxAA_s140_6.0.0.dir/__/__/__/mesh/access/src/access.c.obj
                0x00033818                access_element_location_get
 .text.access_element_sig_model_count_get
                0x00033830       0x18 examples/pb_remote/server/CMakeFiles/pb_remote_server_nrf52840_xxAA_s140_6.0.0.dir/__/__/__/mesh/access/src/access.c.obj
                0x00033830                access_element_sig_model_count_get
 .text.access_element_vendor_model_count_get
                0x00033848       0x18 examples/pb_remote/server/CMakeFiles/pb_remote_server_nrf52840_xxAA_s140_6.0.0.dir/__/__/__/mesh/access/src/access.c.obj
                0x00033848                access_element_vendor_model_count_get
 .text.access_model_id_get
                0x00033860       0x2c examples/pb_remote/server/CMakeFiles/pb_remote_server_nrf52840_xxAA_s140_6.0.0.dir/__/__/__/mesh/access/src/access.c.obj
                0x00033860                access_model_id_get
 .text.access_handle_get
                0x0003388c       0x4c examples/pb_remote/server/CMakeFiles/pb_remote_server_nrf52840_xxAA_s140_6.0.0.dir/__/__/__/mesh/access/src/access.c.obj
                0x0003388c                access_handle_get
 .text.access_element_models_get
                0x000338d8       0x48 examples/pb_remote/server/CMakeFiles/pb_remote_server_nrf52840_xxAA_s140_6.0.0.dir/__/__/__/mesh/access/src/access.c.obj
                0x000338d8                access_element_models_get
 .text.access_model_p_args_get
                0x00033920       0x28 examples/pb_remote/server/CMakeFiles/pb_remote_server_nrf52840_xxAA_s140_6.0.0.dir/__/__/__/mesh/access/src/access.c.obj
                0x00033920                access_model_p_args_get
 .text.access_model_publication_stop
                0x00033948       0x74 examples/pb_remote/server/CMakeFiles/pb_remote_server_nrf52840_xxAA_s140_6.0.0.dir/__/__/__/mesh/access/src/access.c.obj
                0x00033948                access_model_publication_stop
 .text.access_model_publication_by_appkey_stop
                0x000339bc       0x36 examples/pb_remote/server/CMakeFiles/pb_remote_server_nrf52840_xxAA_s140_6.0.0.dir/__/__/__/mesh/access/src/access.c.obj
                0x000339bc                access_model_publication_by_appkey_stop
 .text.access_flash_area_get
                0x000339f2        0xc examples/pb_remote/server/CMakeFiles/pb_remote_server_nrf52840_xxAA_s140_6.0.0.dir/__/__/__/mesh/access/src/access.c.obj
                0x000339f2                access_flash_area_get
 *fill*         0x000339fe        0x2 
 .text.add_flash_manager
                0x00033a00       0x54 examples/pb_remote/server/CMakeFiles/pb_remote_server_nrf52840_xxAA_s140_6.0.0.dir/__/__/__/mesh/access/src/access.c.obj
 .text.access_init
                0x00033a54       0x2c examples/pb_remote/server/CMakeFiles/pb_remote_server_nrf52840_xxAA_s140_6.0.0.dir/__/__/__/mesh/access/src/access.c.obj
                0x00033a54                access_init
 .text.flash_remove_complete
                0x00033a80       0x58 examples/pb_remote/server/CMakeFiles/pb_remote_server_nrf52840_xxAA_s140_6.0.0.dir/__/__/__/mesh/access/src/access.c.obj
 .text.reliable_timer_cb
                0x00033ad8      0x11c examples/pb_remote/server/CMakeFiles/pb_remote_server_nrf52840_xxAA_s140_6.0.0.dir/__/__/__/mesh/access/src/access_reliable.c.obj
 .text.remove_and_reschedule
                0x00033bf4       0xac examples/pb_remote/server/CMakeFiles/pb_remote_server_nrf52840_xxAA_s140_6.0.0.dir/__/__/__/mesh/access/src/access_reliable.c.obj
 .text.access_reliable_message_rx_cb
                0x00033ca0       0x68 examples/pb_remote/server/CMakeFiles/pb_remote_server_nrf52840_xxAA_s140_6.0.0.dir/__/__/__/mesh/access/src/access_reliable.c.obj
                0x00033ca0                access_reliable_message_rx_cb
 .text.access_reliable_init
                0x00033d08       0x1c examples/pb_remote/server/CMakeFiles/pb_remote_server_nrf52840_xxAA_s140_6.0.0.dir/__/__/__/mesh/access/src/access_reliable.c.obj
                0x00033d08                access_reliable_init
 .text.access_reliable_cancel_all
                0x00033d24       0x60 examples/pb_remote/server/CMakeFiles/pb_remote_server_nrf52840_xxAA_s140_6.0.0.dir/__/__/__/mesh/access/src/access_reliable.c.obj
                0x00033d24                access_reliable_cancel_all
 .text.access_model_reliable_cancel
                0x00033d84       0x68 examples/pb_remote/server/CMakeFiles/pb_remote_server_nrf52840_xxAA_s140_6.0.0.dir/__/__/__/mesh/access/src/access_reliable.c.obj
                0x00033d84                access_model_reliable_cancel
 .text.access_model_reliable_publish
                0x00033dec      0x198 examples/pb_remote/server/CMakeFiles/pb_remote_server_nrf52840_xxAA_s140_6.0.0.dir/__/__/__/mesh/access/src/access_reliable.c.obj
                0x00033dec                access_model_reliable_publish
 .text.access_loopback_process
                0x00033f84       0x28 examples/pb_remote/server/CMakeFiles/pb_remote_server_nrf52840_xxAA_s140_6.0.0.dir/__/__/__/mesh/access/src/access_loopback.c.obj
 .text.is_access_loopback
                0x00033fac        0x4 examples/pb_remote/server/CMakeFiles/pb_remote_server_nrf52840_xxAA_s140_6.0.0.dir/__/__/__/mesh/access/src/access_loopback.c.obj
                0x00033fac                is_access_loopback
 .text.access_loopback_init
                0x00033fb0       0x18 examples/pb_remote/server/CMakeFiles/pb_remote_server_nrf52840_xxAA_s140_6.0.0.dir/__/__/__/mesh/access/src/access_loopback.c.obj
                0x00033fb0                access_loopback_init
 .text.access_loopback_handle
                0x00033fc8       0x80 examples/pb_remote/server/CMakeFiles/pb_remote_server_nrf52840_xxAA_s140_6.0.0.dir/__/__/__/mesh/access/src/access_loopback.c.obj
                0x00033fc8                access_loopback_handle
 .text.bitfield_get
                0x00034048       0x1a examples/pb_remote/server/CMakeFiles/pb_remote_server_nrf52840_xxAA_s140_6.0.0.dir/__/__/__/mesh/access/src/device_state_manager.c.obj
 .text.bitfield_set
                0x00034062       0x18 examples/pb_remote/server/CMakeFiles/pb_remote_server_nrf52840_xxAA_s140_6.0.0.dir/__/__/__/mesh/access/src/device_state_manager.c.obj
 .text.bitfield_clear
                0x0003407a       0x1a examples/pb_remote/server/CMakeFiles/pb_remote_server_nrf52840_xxAA_s140_6.0.0.dir/__/__/__/mesh/access/src/device_state_manager.c.obj
 .text.bitfield_is_all_clear
                0x00034094       0x3c examples/pb_remote/server/CMakeFiles/pb_remote_server_nrf52840_xxAA_s140_6.0.0.dir/__/__/__/mesh/access/src/device_state_manager.c.obj
 .text.address_handle_virtual_valid
                0x000340d0       0x14 examples/pb_remote/server/CMakeFiles/pb_remote_server_nrf52840_xxAA_s140_6.0.0.dir/__/__/__/mesh/access/src/device_state_manager.c.obj
 .text.net_key_handle_get
                0x000340e4       0x38 examples/pb_remote/server/CMakeFiles/pb_remote_server_nrf52840_xxAA_s140_6.0.0.dir/__/__/__/mesh/access/src/device_state_manager.c.obj
 .text.dev_key_handle_get
                0x0003411c       0x30 examples/pb_remote/server/CMakeFiles/pb_remote_server_nrf52840_xxAA_s140_6.0.0.dir/__/__/__/mesh/access/src/device_state_manager.c.obj
 .text.app_key_handle_get
                0x0003414c       0x38 examples/pb_remote/server/CMakeFiles/pb_remote_server_nrf52840_xxAA_s140_6.0.0.dir/__/__/__/mesh/access/src/device_state_manager.c.obj
 .text.addr_nonvirtual_to_flash_entry
                0x00034184       0x10 examples/pb_remote/server/CMakeFiles/pb_remote_server_nrf52840_xxAA_s140_6.0.0.dir/__/__/__/mesh/access/src/device_state_manager.c.obj
 .text.devkey_set
                0x00034194       0x4c examples/pb_remote/server/CMakeFiles/pb_remote_server_nrf52840_xxAA_s140_6.0.0.dir/__/__/__/mesh/access/src/device_state_manager.c.obj
 .text.devkey_to_dsm_entry
                0x000341e0       0x16 examples/pb_remote/server/CMakeFiles/pb_remote_server_nrf52840_xxAA_s140_6.0.0.dir/__/__/__/mesh/access/src/device_state_manager.c.obj
 *fill*         0x000341f6        0x2 
 .text.devkey_to_flash_entry
                0x000341f8       0x28 examples/pb_remote/server/CMakeFiles/pb_remote_server_nrf52840_xxAA_s140_6.0.0.dir/__/__/__/mesh/access/src/device_state_manager.c.obj
 .text.addr_virtual_to_flash_entry
                0x00034220       0x18 examples/pb_remote/server/CMakeFiles/pb_remote_server_nrf52840_xxAA_s140_6.0.0.dir/__/__/__/mesh/access/src/device_state_manager.c.obj
 .text.addr_unicast_to_dsm_entry
                0x00034238        0xc examples/pb_remote/server/CMakeFiles/pb_remote_server_nrf52840_xxAA_s140_6.0.0.dir/__/__/__/mesh/access/src/device_state_manager.c.obj
 .text.addr_unicast_to_flash_entry
                0x00034244       0x10 examples/pb_remote/server/CMakeFiles/pb_remote_server_nrf52840_xxAA_s140_6.0.0.dir/__/__/__/mesh/access/src/device_state_manager.c.obj
 .text.flash_mem_listener_callback
                0x00034254       0x14 examples/pb_remote/server/CMakeFiles/pb_remote_server_nrf52840_xxAA_s140_6.0.0.dir/__/__/__/mesh/access/src/device_state_manager.c.obj
 .text.get_subnet_handle
                0x00034268       0x34 examples/pb_remote/server/CMakeFiles/pb_remote_server_nrf52840_xxAA_s140_6.0.0.dir/__/__/__/mesh/access/src/device_state_manager.c.obj
 .text.appkey_set
                0x0003429c       0x70 examples/pb_remote/server/CMakeFiles/pb_remote_server_nrf52840_xxAA_s140_6.0.0.dir/__/__/__/mesh/access/src/device_state_manager.c.obj
 .text.appkey_to_flash_entry
                0x0003430c       0x54 examples/pb_remote/server/CMakeFiles/pb_remote_server_nrf52840_xxAA_s140_6.0.0.dir/__/__/__/mesh/access/src/device_state_manager.c.obj
 .text.subnet_to_flash_entry
                0x00034360       0x60 examples/pb_remote/server/CMakeFiles/pb_remote_server_nrf52840_xxAA_s140_6.0.0.dir/__/__/__/mesh/access/src/device_state_manager.c.obj
 .text.bitfield_clear_all
                0x000343c0        0xe examples/pb_remote/server/CMakeFiles/pb_remote_server_nrf52840_xxAA_s140_6.0.0.dir/__/__/__/mesh/access/src/device_state_manager.c.obj
 *fill*         0x000343ce        0x2 
 .text.subnet_set
                0x000343d0       0x98 examples/pb_remote/server/CMakeFiles/pb_remote_server_nrf52840_xxAA_s140_6.0.0.dir/__/__/__/mesh/access/src/device_state_manager.c.obj
 .text.virtual_address_set
                0x00034468       0x48 examples/pb_remote/server/CMakeFiles/pb_remote_server_nrf52840_xxAA_s140_6.0.0.dir/__/__/__/mesh/access/src/device_state_manager.c.obj
 .text.addr_virtual_to_dsm_entry
                0x000344b0        0xc examples/pb_remote/server/CMakeFiles/pb_remote_server_nrf52840_xxAA_s140_6.0.0.dir/__/__/__/mesh/access/src/device_state_manager.c.obj
 .text.reset_flash_area
                0x000344bc       0x28 examples/pb_remote/server/CMakeFiles/pb_remote_server_nrf52840_xxAA_s140_6.0.0.dir/__/__/__/mesh/access/src/device_state_manager.c.obj
 .text.flash_save
                0x000344e4       0x7c examples/pb_remote/server/CMakeFiles/pb_remote_server_nrf52840_xxAA_s140_6.0.0.dir/__/__/__/mesh/access/src/device_state_manager.c.obj
 .text.flash_invalidate
                0x00034560       0x64 examples/pb_remote/server/CMakeFiles/pb_remote_server_nrf52840_xxAA_s140_6.0.0.dir/__/__/__/mesh/access/src/device_state_manager.c.obj
 .text.flash_update_all
                0x000345c4       0x6c examples/pb_remote/server/CMakeFiles/pb_remote_server_nrf52840_xxAA_s140_6.0.0.dir/__/__/__/mesh/access/src/device_state_manager.c.obj
 .text.virtual_address_uuid_index_get
                0x00034630       0x3c examples/pb_remote/server/CMakeFiles/pb_remote_server_nrf52840_xxAA_s140_6.0.0.dir/__/__/__/mesh/access/src/device_state_manager.c.obj
 .text.add_address_virtual
                0x0003466c       0x70 examples/pb_remote/server/CMakeFiles/pb_remote_server_nrf52840_xxAA_s140_6.0.0.dir/__/__/__/mesh/access/src/device_state_manager.c.obj
 .text.get_subnet_handle_by_beacon_info
                0x000346dc       0x24 examples/pb_remote/server/CMakeFiles/pb_remote_server_nrf52840_xxAA_s140_6.0.0.dir/__/__/__/mesh/access/src/device_state_manager.c.obj
 .text.get_app_handle
                0x00034700       0x34 examples/pb_remote/server/CMakeFiles/pb_remote_server_nrf52840_xxAA_s140_6.0.0.dir/__/__/__/mesh/access/src/device_state_manager.c.obj
 .text.appkey_to_dsm_entry
                0x00034734       0x68 examples/pb_remote/server/CMakeFiles/pb_remote_server_nrf52840_xxAA_s140_6.0.0.dir/__/__/__/mesh/access/src/device_state_manager.c.obj
 .text.subnet_to_dsm_entry
                0x0003479c       0x68 examples/pb_remote/server/CMakeFiles/pb_remote_server_nrf52840_xxAA_s140_6.0.0.dir/__/__/__/mesh/access/src/device_state_manager.c.obj
 .text.flash_operation_complete
                0x00034804       0x4c examples/pb_remote/server/CMakeFiles/pb_remote_server_nrf52840_xxAA_s140_6.0.0.dir/__/__/__/mesh/access/src/device_state_manager.c.obj
 .text.flash_invalidate_complete
                0x00034850        0x8 examples/pb_remote/server/CMakeFiles/pb_remote_server_nrf52840_xxAA_s140_6.0.0.dir/__/__/__/mesh/access/src/device_state_manager.c.obj
 .text.flash_write_complete
                0x00034858        0x8 examples/pb_remote/server/CMakeFiles/pb_remote_server_nrf52840_xxAA_s140_6.0.0.dir/__/__/__/mesh/access/src/device_state_manager.c.obj
 .text.add_address.part.8
                0x00034860      0x144 examples/pb_remote/server/CMakeFiles/pb_remote_server_nrf52840_xxAA_s140_6.0.0.dir/__/__/__/mesh/access/src/device_state_manager.c.obj
 .text.bitfield_next_get.part.0.constprop.17
                0x000349a4       0x38 examples/pb_remote/server/CMakeFiles/pb_remote_server_nrf52840_xxAA_s140_6.0.0.dir/__/__/__/mesh/access/src/device_state_manager.c.obj
 .text.address_handle_valid
                0x000349dc       0x28 examples/pb_remote/server/CMakeFiles/pb_remote_server_nrf52840_xxAA_s140_6.0.0.dir/__/__/__/mesh/access/src/device_state_manager.c.obj
 .text.address_handle_nonvirtual_valid
                0x00034a04       0x14 examples/pb_remote/server/CMakeFiles/pb_remote_server_nrf52840_xxAA_s140_6.0.0.dir/__/__/__/mesh/access/src/device_state_manager.c.obj
 .text.address_delete_if_unused
                0x00034a18       0x78 examples/pb_remote/server/CMakeFiles/pb_remote_server_nrf52840_xxAA_s140_6.0.0.dir/__/__/__/mesh/access/src/device_state_manager.c.obj
 .text.addr_nonvirtual_to_dsm_entry
                0x00034a90       0x38 examples/pb_remote/server/CMakeFiles/pb_remote_server_nrf52840_xxAA_s140_6.0.0.dir/__/__/__/mesh/access/src/device_state_manager.c.obj
 .text.dsm_flash_config_load
                0x00034ac8      0x120 examples/pb_remote/server/CMakeFiles/pb_remote_server_nrf52840_xxAA_s140_6.0.0.dir/__/__/__/mesh/access/src/device_state_manager.c.obj
                0x00034ac8                dsm_flash_config_load
 .text.dsm_flash_area_get
                0x00034be8        0xc examples/pb_remote/server/CMakeFiles/pb_remote_server_nrf52840_xxAA_s140_6.0.0.dir/__/__/__/mesh/access/src/device_state_manager.c.obj
                0x00034be8                dsm_flash_area_get
 .text.build_flash_area
                0x00034bf4       0x8c examples/pb_remote/server/CMakeFiles/pb_remote_server_nrf52840_xxAA_s140_6.0.0.dir/__/__/__/mesh/access/src/device_state_manager.c.obj
 .text.flash_remove_complete
                0x00034c80        0x4 examples/pb_remote/server/CMakeFiles/pb_remote_server_nrf52840_xxAA_s140_6.0.0.dir/__/__/__/mesh/access/src/device_state_manager.c.obj
 .text.dsm_clear
                0x00034c84       0xa8 examples/pb_remote/server/CMakeFiles/pb_remote_server_nrf52840_xxAA_s140_6.0.0.dir/__/__/__/mesh/access/src/device_state_manager.c.obj
                0x00034c84                dsm_clear
 .text.dsm_init
                0x00034d2c       0x3c examples/pb_remote/server/CMakeFiles/pb_remote_server_nrf52840_xxAA_s140_6.0.0.dir/__/__/__/mesh/access/src/device_state_manager.c.obj
                0x00034d2c                dsm_init
 .text.dsm_local_unicast_addresses_set
                0x00034d68       0x78 examples/pb_remote/server/CMakeFiles/pb_remote_server_nrf52840_xxAA_s140_6.0.0.dir/__/__/__/mesh/access/src/device_state_manager.c.obj
                0x00034d68                dsm_local_unicast_addresses_set
 .text.dsm_local_unicast_addresses_get
                0x00034de0       0x20 examples/pb_remote/server/CMakeFiles/pb_remote_server_nrf52840_xxAA_s140_6.0.0.dir/__/__/__/mesh/access/src/device_state_manager.c.obj
                0x00034de0                dsm_local_unicast_addresses_get
 .text.dsm_address_publish_add
                0x00034e00        0xc examples/pb_remote/server/CMakeFiles/pb_remote_server_nrf52840_xxAA_s140_6.0.0.dir/__/__/__/mesh/access/src/device_state_manager.c.obj
                0x00034e00                dsm_address_publish_add
 .text.dsm_address_publish_add_handle
                0x00034e0c       0x38 examples/pb_remote/server/CMakeFiles/pb_remote_server_nrf52840_xxAA_s140_6.0.0.dir/__/__/__/mesh/access/src/device_state_manager.c.obj
                0x00034e0c                dsm_address_publish_add_handle
 .text.dsm_address_publish_virtual_add
                0x00034e44        0x6 examples/pb_remote/server/CMakeFiles/pb_remote_server_nrf52840_xxAA_s140_6.0.0.dir/__/__/__/mesh/access/src/device_state_manager.c.obj
                0x00034e44                dsm_address_publish_virtual_add
 *fill*         0x00034e4a        0x2 
 .text.dsm_address_publish_remove
                0x00034e4c       0x40 examples/pb_remote/server/CMakeFiles/pb_remote_server_nrf52840_xxAA_s140_6.0.0.dir/__/__/__/mesh/access/src/device_state_manager.c.obj
                0x00034e4c                dsm_address_publish_remove
 .text.dsm_address_subscription_add
                0x00034e8c        0xc examples/pb_remote/server/CMakeFiles/pb_remote_server_nrf52840_xxAA_s140_6.0.0.dir/__/__/__/mesh/access/src/device_state_manager.c.obj
                0x00034e8c                dsm_address_subscription_add
 .text.dsm_address_subscription_virtual_add
                0x00034e98        0x6 examples/pb_remote/server/CMakeFiles/pb_remote_server_nrf52840_xxAA_s140_6.0.0.dir/__/__/__/mesh/access/src/device_state_manager.c.obj
                0x00034e98                dsm_address_subscription_virtual_add
 *fill*         0x00034e9e        0x2 
 .text.dsm_address_subscription_add_handle
                0x00034ea0       0x38 examples/pb_remote/server/CMakeFiles/pb_remote_server_nrf52840_xxAA_s140_6.0.0.dir/__/__/__/mesh/access/src/device_state_manager.c.obj
                0x00034ea0                dsm_address_subscription_add_handle
 .text.dsm_address_get
                0x00034ed8       0x5c examples/pb_remote/server/CMakeFiles/pb_remote_server_nrf52840_xxAA_s140_6.0.0.dir/__/__/__/mesh/access/src/device_state_manager.c.obj
                0x00034ed8                dsm_address_get
 .text.dsm_address_subscription_remove
                0x00034f34       0x58 examples/pb_remote/server/CMakeFiles/pb_remote_server_nrf52840_xxAA_s140_6.0.0.dir/__/__/__/mesh/access/src/device_state_manager.c.obj
                0x00034f34                dsm_address_subscription_remove
 .text.dsm_address_handle_get
                0x00034f8c       0x98 examples/pb_remote/server/CMakeFiles/pb_remote_server_nrf52840_xxAA_s140_6.0.0.dir/__/__/__/mesh/access/src/device_state_manager.c.obj
                0x00034f8c                dsm_address_handle_get
 .text.dsm_net_key_index_to_subnet_handle
                0x00035024       0x1c examples/pb_remote/server/CMakeFiles/pb_remote_server_nrf52840_xxAA_s140_6.0.0.dir/__/__/__/mesh/access/src/device_state_manager.c.obj
                0x00035024                dsm_net_key_index_to_subnet_handle
 .text.dsm_subnet_handle_get
                0x00035040        0xc examples/pb_remote/server/CMakeFiles/pb_remote_server_nrf52840_xxAA_s140_6.0.0.dir/__/__/__/mesh/access/src/device_state_manager.c.obj
                0x00035040                dsm_subnet_handle_get
 .text.dsm_appkey_index_to_appkey_handle
                0x0003504c       0x1c examples/pb_remote/server/CMakeFiles/pb_remote_server_nrf52840_xxAA_s140_6.0.0.dir/__/__/__/mesh/access/src/device_state_manager.c.obj
                0x0003504c                dsm_appkey_index_to_appkey_handle
 .text.dsm_appkey_handle_get
                0x00035068        0xc examples/pb_remote/server/CMakeFiles/pb_remote_server_nrf52840_xxAA_s140_6.0.0.dir/__/__/__/mesh/access/src/device_state_manager.c.obj
                0x00035068                dsm_appkey_handle_get
 .text.dsm_appkey_handle_to_appkey_index
                0x00035074       0x30 examples/pb_remote/server/CMakeFiles/pb_remote_server_nrf52840_xxAA_s140_6.0.0.dir/__/__/__/mesh/access/src/device_state_manager.c.obj
                0x00035074                dsm_appkey_handle_to_appkey_index
 .text.dsm_appkey_handle_to_subnet_handle
                0x000350a4       0x64 examples/pb_remote/server/CMakeFiles/pb_remote_server_nrf52840_xxAA_s140_6.0.0.dir/__/__/__/mesh/access/src/device_state_manager.c.obj
                0x000350a4                dsm_appkey_handle_to_subnet_handle
 .text.dsm_subnet_add
                0x00035108       0x78 examples/pb_remote/server/CMakeFiles/pb_remote_server_nrf52840_xxAA_s140_6.0.0.dir/__/__/__/mesh/access/src/device_state_manager.c.obj
                0x00035108                dsm_subnet_add
 .text.dsm_subnet_kr_phase_get
                0x00035180       0x2c examples/pb_remote/server/CMakeFiles/pb_remote_server_nrf52840_xxAA_s140_6.0.0.dir/__/__/__/mesh/access/src/device_state_manager.c.obj
                0x00035180                dsm_subnet_kr_phase_get
 .text.dsm_subnet_update
                0x000351ac       0xa4 examples/pb_remote/server/CMakeFiles/pb_remote_server_nrf52840_xxAA_s140_6.0.0.dir/__/__/__/mesh/access/src/device_state_manager.c.obj
                0x000351ac                dsm_subnet_update
 .text.dsm_subnet_update_swap_keys
                0x00035250       0x50 examples/pb_remote/server/CMakeFiles/pb_remote_server_nrf52840_xxAA_s140_6.0.0.dir/__/__/__/mesh/access/src/device_state_manager.c.obj
                0x00035250                dsm_subnet_update_swap_keys
 .text.dsm_subnet_update_commit
                0x000352a0       0xbc examples/pb_remote/server/CMakeFiles/pb_remote_server_nrf52840_xxAA_s140_6.0.0.dir/__/__/__/mesh/access/src/device_state_manager.c.obj
                0x000352a0                dsm_subnet_update_commit
 .text.mesh_evt_handler
                0x0003535c       0x4c examples/pb_remote/server/CMakeFiles/pb_remote_server_nrf52840_xxAA_s140_6.0.0.dir/__/__/__/mesh/access/src/device_state_manager.c.obj
 .text.dsm_subnet_get_all
                0x000353a8       0x3c examples/pb_remote/server/CMakeFiles/pb_remote_server_nrf52840_xxAA_s140_6.0.0.dir/__/__/__/mesh/access/src/device_state_manager.c.obj
                0x000353a8                dsm_subnet_get_all
 .text.dsm_devkey_add
                0x000353e4       0x78 examples/pb_remote/server/CMakeFiles/pb_remote_server_nrf52840_xxAA_s140_6.0.0.dir/__/__/__/mesh/access/src/device_state_manager.c.obj
                0x000353e4                dsm_devkey_add
 .text.dsm_appkey_add
                0x0003545c       0x7c examples/pb_remote/server/CMakeFiles/pb_remote_server_nrf52840_xxAA_s140_6.0.0.dir/__/__/__/mesh/access/src/device_state_manager.c.obj
                0x0003545c                dsm_appkey_add
 .text.dsm_appkey_update
                0x000354d8       0x90 examples/pb_remote/server/CMakeFiles/pb_remote_server_nrf52840_xxAA_s140_6.0.0.dir/__/__/__/mesh/access/src/device_state_manager.c.obj
                0x000354d8                dsm_appkey_update
 .text.dsm_appkey_delete
                0x00035568       0x2c examples/pb_remote/server/CMakeFiles/pb_remote_server_nrf52840_xxAA_s140_6.0.0.dir/__/__/__/mesh/access/src/device_state_manager.c.obj
                0x00035568                dsm_appkey_delete
 .text.dsm_subnet_delete
                0x00035594       0x84 examples/pb_remote/server/CMakeFiles/pb_remote_server_nrf52840_xxAA_s140_6.0.0.dir/__/__/__/mesh/access/src/device_state_manager.c.obj
                0x00035594                dsm_subnet_delete
 .text.dsm_appkey_get_all
                0x00035618       0x58 examples/pb_remote/server/CMakeFiles/pb_remote_server_nrf52840_xxAA_s140_6.0.0.dir/__/__/__/mesh/access/src/device_state_manager.c.obj
                0x00035618                dsm_appkey_get_all
 .text.dsm_tx_secmat_get
                0x00035670       0xa4 examples/pb_remote/server/CMakeFiles/pb_remote_server_nrf52840_xxAA_s140_6.0.0.dir/__/__/__/mesh/access/src/device_state_manager.c.obj
                0x00035670                dsm_tx_secmat_get
 .text.dsm_net_secmat_from_keyindex_get
                0x00035714       0x30 examples/pb_remote/server/CMakeFiles/pb_remote_server_nrf52840_xxAA_s140_6.0.0.dir/__/__/__/mesh/access/src/device_state_manager.c.obj
                0x00035714                dsm_net_secmat_from_keyindex_get
 .text.nrf_mesh_net_secmat_next_get
                0x00035744       0x90 examples/pb_remote/server/CMakeFiles/pb_remote_server_nrf52840_xxAA_s140_6.0.0.dir/__/__/__/mesh/access/src/device_state_manager.c.obj
                0x00035744                nrf_mesh_net_secmat_next_get
 .text.nrf_mesh_app_secmat_next_get
                0x000357d4       0x70 examples/pb_remote/server/CMakeFiles/pb_remote_server_nrf52840_xxAA_s140_6.0.0.dir/__/__/__/mesh/access/src/device_state_manager.c.obj
                0x000357d4                nrf_mesh_app_secmat_next_get
 .text.nrf_mesh_devkey_secmat_get
                0x00035844       0x28 examples/pb_remote/server/CMakeFiles/pb_remote_server_nrf52840_xxAA_s140_6.0.0.dir/__/__/__/mesh/access/src/device_state_manager.c.obj
                0x00035844                nrf_mesh_devkey_secmat_get
 .text.nrf_mesh_beacon_info_next_get
                0x0003586c       0xb4 examples/pb_remote/server/CMakeFiles/pb_remote_server_nrf52840_xxAA_s140_6.0.0.dir/__/__/__/mesh/access/src/device_state_manager.c.obj
                0x0003586c                nrf_mesh_beacon_info_next_get
 .text.nrf_mesh_rx_address_get
                0x00035920      0x12c examples/pb_remote/server/CMakeFiles/pb_remote_server_nrf52840_xxAA_s140_6.0.0.dir/__/__/__/mesh/access/src/device_state_manager.c.obj
                0x00035920                nrf_mesh_rx_address_get
 .text.dsm_address_is_rx
                0x00035a4c       0x48 examples/pb_remote/server/CMakeFiles/pb_remote_server_nrf52840_xxAA_s140_6.0.0.dir/__/__/__/mesh/access/src/device_state_manager.c.obj
                0x00035a4c                dsm_address_is_rx
 .text.nrf_mesh_unicast_address_get
                0x00035a94       0x20 examples/pb_remote/server/CMakeFiles/pb_remote_server_nrf52840_xxAA_s140_6.0.0.dir/__/__/__/mesh/access/src/device_state_manager.c.obj
                0x00035a94                nrf_mesh_unicast_address_get
 .text.config_composition_data_get
                0x00035ab4      0x188 examples/pb_remote/server/CMakeFiles/pb_remote_server_nrf52840_xxAA_s140_6.0.0.dir/__/__/__/models/foundation/config/src/composition_data.c.obj
                0x00035ab4                config_composition_data_get
 .text.app_evt_send
                0x00035c3c       0x10 examples/pb_remote/server/CMakeFiles/pb_remote_server_nrf52840_xxAA_s140_6.0.0.dir/__/__/__/models/foundation/config/src/config_server.c.obj
 .text.get_element_index
                0x00035c4c       0x26 examples/pb_remote/server/CMakeFiles/pb_remote_server_nrf52840_xxAA_s140_6.0.0.dir/__/__/__/models/foundation/config/src/config_server.c.obj
 .text.config_server_heartbeat_publication_params_get
                0x00035c72       0x30 examples/pb_remote/server/CMakeFiles/pb_remote_server_nrf52840_xxAA_s140_6.0.0.dir/__/__/__/models/foundation/config/src/config_server.c.obj
 .text.send_reply
                0x00035ca2       0x34 examples/pb_remote/server/CMakeFiles/pb_remote_server_nrf52840_xxAA_s140_6.0.0.dir/__/__/__/models/foundation/config/src/config_server.c.obj
 .text.send_network_transmit_status
                0x00035cd6       0x5a examples/pb_remote/server/CMakeFiles/pb_remote_server_nrf52840_xxAA_s140_6.0.0.dir/__/__/__/models/foundation/config/src/config_server.c.obj
 .text.handle_config_network_transmit_set
                0x00035d30       0x74 examples/pb_remote/server/CMakeFiles/pb_remote_server_nrf52840_xxAA_s140_6.0.0.dir/__/__/__/models/foundation/config/src/config_server.c.obj
 .text.handle_config_network_transmit_get
                0x00035da4        0xa examples/pb_remote/server/CMakeFiles/pb_remote_server_nrf52840_xxAA_s140_6.0.0.dir/__/__/__/models/foundation/config/src/config_server.c.obj
 *fill*         0x00035dae        0x2 
 .text.handle_node_reset
                0x00035db0       0x34 examples/pb_remote/server/CMakeFiles/pb_remote_server_nrf52840_xxAA_s140_6.0.0.dir/__/__/__/models/foundation/config/src/config_server.c.obj
 .text.send_netkey_status
                0x00035de4       0x2c examples/pb_remote/server/CMakeFiles/pb_remote_server_nrf52840_xxAA_s140_6.0.0.dir/__/__/__/models/foundation/config/src/config_server.c.obj
 .text.send_relay_status
                0x00035e10       0x7e examples/pb_remote/server/CMakeFiles/pb_remote_server_nrf52840_xxAA_s140_6.0.0.dir/__/__/__/models/foundation/config/src/config_server.c.obj
 .text.handle_config_relay_set
                0x00035e8e       0x9a examples/pb_remote/server/CMakeFiles/pb_remote_server_nrf52840_xxAA_s140_6.0.0.dir/__/__/__/models/foundation/config/src/config_server.c.obj
 .text.handle_config_relay_get
                0x00035f28        0xa examples/pb_remote/server/CMakeFiles/pb_remote_server_nrf52840_xxAA_s140_6.0.0.dir/__/__/__/models/foundation/config/src/config_server.c.obj
 .text.send_subscription_status
                0x00035f32       0x42 examples/pb_remote/server/CMakeFiles/pb_remote_server_nrf52840_xxAA_s140_6.0.0.dir/__/__/__/models/foundation/config/src/config_server.c.obj
 .text.send_appkey_status
                0x00035f74       0x3a examples/pb_remote/server/CMakeFiles/pb_remote_server_nrf52840_xxAA_s140_6.0.0.dir/__/__/__/models/foundation/config/src/config_server.c.obj
 .text.handle_netkey_get
                0x00035fae       0x50 examples/pb_remote/server/CMakeFiles/pb_remote_server_nrf52840_xxAA_s140_6.0.0.dir/__/__/__/models/foundation/config/src/config_server.c.obj
 .text.handle_netkey_delete
                0x00035ffe       0xbc examples/pb_remote/server/CMakeFiles/pb_remote_server_nrf52840_xxAA_s140_6.0.0.dir/__/__/__/models/foundation/config/src/config_server.c.obj
 *fill*         0x000360ba        0x2 
 .text.handle_netkey_add_update
                0x000360bc       0x78 examples/pb_remote/server/CMakeFiles/pb_remote_server_nrf52840_xxAA_s140_6.0.0.dir/__/__/__/models/foundation/config/src/config_server.c.obj
 .text.status_error_sub_send
                0x00036134      0x124 examples/pb_remote/server/CMakeFiles/pb_remote_server_nrf52840_xxAA_s140_6.0.0.dir/__/__/__/models/foundation/config/src/config_server.c.obj
 .text.delete_all_subscriptions
                0x00036258       0x66 examples/pb_remote/server/CMakeFiles/pb_remote_server_nrf52840_xxAA_s140_6.0.0.dir/__/__/__/models/foundation/config/src/config_server.c.obj
 .text.send_publication_status
                0x000362be      0x170 examples/pb_remote/server/CMakeFiles/pb_remote_server_nrf52840_xxAA_s140_6.0.0.dir/__/__/__/models/foundation/config/src/config_server.c.obj
 .text.handle_config_key_refresh_phase_set
                0x0003642e       0xc8 examples/pb_remote/server/CMakeFiles/pb_remote_server_nrf52840_xxAA_s140_6.0.0.dir/__/__/__/models/foundation/config/src/config_server.c.obj
 .text.handle_config_default_ttl_set
                0x000364f6       0x50 examples/pb_remote/server/CMakeFiles/pb_remote_server_nrf52840_xxAA_s140_6.0.0.dir/__/__/__/models/foundation/config/src/config_server.c.obj
 .text.send_net_beacon_state
                0x00036546       0x2c examples/pb_remote/server/CMakeFiles/pb_remote_server_nrf52840_xxAA_s140_6.0.0.dir/__/__/__/models/foundation/config/src/config_server.c.obj
 .text.handle_config_beacon_get
                0x00036572        0xa examples/pb_remote/server/CMakeFiles/pb_remote_server_nrf52840_xxAA_s140_6.0.0.dir/__/__/__/models/foundation/config/src/config_server.c.obj
 .text.handle_heartbeat_publication_set
                0x0003657c      0x136 examples/pb_remote/server/CMakeFiles/pb_remote_server_nrf52840_xxAA_s140_6.0.0.dir/__/__/__/models/foundation/config/src/config_server.c.obj
 *fill*         0x000366b2        0x2 
 .text.mesh_event_cb
                0x000366b4       0x70 examples/pb_remote/server/CMakeFiles/pb_remote_server_nrf52840_xxAA_s140_6.0.0.dir/__/__/__/models/foundation/config/src/config_server.c.obj
 .text.handle_node_identity_set
                0x00036724       0x3e examples/pb_remote/server/CMakeFiles/pb_remote_server_nrf52840_xxAA_s140_6.0.0.dir/__/__/__/models/foundation/config/src/config_server.c.obj
 .text.handle_node_identity_get
                0x00036762       0x3c examples/pb_remote/server/CMakeFiles/pb_remote_server_nrf52840_xxAA_s140_6.0.0.dir/__/__/__/models/foundation/config/src/config_server.c.obj
 .text.handle_config_gatt_proxy_get.part.8
                0x0003679e       0x2a examples/pb_remote/server/CMakeFiles/pb_remote_server_nrf52840_xxAA_s140_6.0.0.dir/__/__/__/models/foundation/config/src/config_server.c.obj
 .text.handle_config_gatt_proxy_set
                0x000367c8       0x14 examples/pb_remote/server/CMakeFiles/pb_remote_server_nrf52840_xxAA_s140_6.0.0.dir/__/__/__/models/foundation/config/src/config_server.c.obj
 .text.handle_config_gatt_proxy_get
                0x000367dc        0xa examples/pb_remote/server/CMakeFiles/pb_remote_server_nrf52840_xxAA_s140_6.0.0.dir/__/__/__/models/foundation/config/src/config_server.c.obj
 .text.handle_config_friend_get.part.10
                0x000367e6       0x2a examples/pb_remote/server/CMakeFiles/pb_remote_server_nrf52840_xxAA_s140_6.0.0.dir/__/__/__/models/foundation/config/src/config_server.c.obj
 .text.handle_config_friend_set
                0x00036810       0x14 examples/pb_remote/server/CMakeFiles/pb_remote_server_nrf52840_xxAA_s140_6.0.0.dir/__/__/__/models/foundation/config/src/config_server.c.obj
 .text.handle_config_friend_get
                0x00036824        0xa examples/pb_remote/server/CMakeFiles/pb_remote_server_nrf52840_xxAA_s140_6.0.0.dir/__/__/__/models/foundation/config/src/config_server.c.obj
 .text.status_error_pub_send
                0x0003682e       0x9c examples/pb_remote/server/CMakeFiles/pb_remote_server_nrf52840_xxAA_s140_6.0.0.dir/__/__/__/models/foundation/config/src/config_server.c.obj
 .text.handle_config_key_refresh_phase_get
                0x000368ca       0x58 examples/pb_remote/server/CMakeFiles/pb_remote_server_nrf52840_xxAA_s140_6.0.0.dir/__/__/__/models/foundation/config/src/config_server.c.obj
 .text.handle_config_default_ttl_get
                0x00036922       0x30 examples/pb_remote/server/CMakeFiles/pb_remote_server_nrf52840_xxAA_s140_6.0.0.dir/__/__/__/models/foundation/config/src/config_server.c.obj
 .text.handle_config_beacon_set
                0x00036952       0x42 examples/pb_remote/server/CMakeFiles/pb_remote_server_nrf52840_xxAA_s140_6.0.0.dir/__/__/__/models/foundation/config/src/config_server.c.obj
 .text.handle_composition_data_get
                0x00036994       0x50 examples/pb_remote/server/CMakeFiles/pb_remote_server_nrf52840_xxAA_s140_6.0.0.dir/__/__/__/models/foundation/config/src/config_server.c.obj
 .text.handle_appkey_delete
                0x000369e4       0xc2 examples/pb_remote/server/CMakeFiles/pb_remote_server_nrf52840_xxAA_s140_6.0.0.dir/__/__/__/models/foundation/config/src/config_server.c.obj
 .text.get_subscription_list.constprop.24
                0x00036aa6       0x50 examples/pb_remote/server/CMakeFiles/pb_remote_server_nrf52840_xxAA_s140_6.0.0.dir/__/__/__/models/foundation/config/src/config_server.c.obj
 .text.handle_appkey_get
                0x00036af6       0xb8 examples/pb_remote/server/CMakeFiles/pb_remote_server_nrf52840_xxAA_s140_6.0.0.dir/__/__/__/models/foundation/config/src/config_server.c.obj
 .text.heartbeat_subscription_count_encode
                0x00036bae       0x26 examples/pb_remote/server/CMakeFiles/pb_remote_server_nrf52840_xxAA_s140_6.0.0.dir/__/__/__/models/foundation/config/src/config_server.c.obj
 .text.handle_appkey_add
                0x00036bd4       0xba examples/pb_remote/server/CMakeFiles/pb_remote_server_nrf52840_xxAA_s140_6.0.0.dir/__/__/__/models/foundation/config/src/config_server.c.obj
 .text.handle_appkey_update
                0x00036c8e       0xbc examples/pb_remote/server/CMakeFiles/pb_remote_server_nrf52840_xxAA_s140_6.0.0.dir/__/__/__/models/foundation/config/src/config_server.c.obj
 .text.heartbeat_pubsub_period_encode
                0x00036d4a       0x26 examples/pb_remote/server/CMakeFiles/pb_remote_server_nrf52840_xxAA_s140_6.0.0.dir/__/__/__/models/foundation/config/src/config_server.c.obj
 .text.handle_heartbeat_publication_get
                0x00036d70       0x7e examples/pb_remote/server/CMakeFiles/pb_remote_server_nrf52840_xxAA_s140_6.0.0.dir/__/__/__/models/foundation/config/src/config_server.c.obj
 .text.handle_heartbeat_subscription_get
                0x00036dee       0x84 examples/pb_remote/server/CMakeFiles/pb_remote_server_nrf52840_xxAA_s140_6.0.0.dir/__/__/__/models/foundation/config/src/config_server.c.obj
 .text.handle_heartbeat_subscription_set
                0x00036e72       0xa8 examples/pb_remote/server/CMakeFiles/pb_remote_server_nrf52840_xxAA_s140_6.0.0.dir/__/__/__/models/foundation/config/src/config_server.c.obj
 .text.handle_config_model_publication_get
                0x00036f1a       0x94 examples/pb_remote/server/CMakeFiles/pb_remote_server_nrf52840_xxAA_s140_6.0.0.dir/__/__/__/models/foundation/config/src/config_server.c.obj
 .text.handle_config_model_subscription_delete_all
                0x00036fae       0xca examples/pb_remote/server/CMakeFiles/pb_remote_server_nrf52840_xxAA_s140_6.0.0.dir/__/__/__/models/foundation/config/src/config_server.c.obj
 .text.handle_config_sig_model_subscription_get
                0x00037078       0xbe examples/pb_remote/server/CMakeFiles/pb_remote_server_nrf52840_xxAA_s140_6.0.0.dir/__/__/__/models/foundation/config/src/config_server.c.obj
 .text.handle_config_vendor_model_subscription_get
                0x00037136      0x100 examples/pb_remote/server/CMakeFiles/pb_remote_server_nrf52840_xxAA_s140_6.0.0.dir/__/__/__/models/foundation/config/src/config_server.c.obj
 .text.handle_config_model_subscription_virtual_address_delete
                0x00037236      0x110 examples/pb_remote/server/CMakeFiles/pb_remote_server_nrf52840_xxAA_s140_6.0.0.dir/__/__/__/models/foundation/config/src/config_server.c.obj
 .text.handle_config_model_subscription_virtual_address_add
                0x00037346      0x10e examples/pb_remote/server/CMakeFiles/pb_remote_server_nrf52840_xxAA_s140_6.0.0.dir/__/__/__/models/foundation/config/src/config_server.c.obj
 .text.handle_config_model_subscription_delete
                0x00037454      0x116 examples/pb_remote/server/CMakeFiles/pb_remote_server_nrf52840_xxAA_s140_6.0.0.dir/__/__/__/models/foundation/config/src/config_server.c.obj
 .text.handle_config_model_subscription_add
                0x0003756a      0x114 examples/pb_remote/server/CMakeFiles/pb_remote_server_nrf52840_xxAA_s140_6.0.0.dir/__/__/__/models/foundation/config/src/config_server.c.obj
 .text.handle_config_model_subscription_virtual_address_overwrite
                0x0003767e      0x128 examples/pb_remote/server/CMakeFiles/pb_remote_server_nrf52840_xxAA_s140_6.0.0.dir/__/__/__/models/foundation/config/src/config_server.c.obj
 .text.handle_model_app_get
                0x000377a6      0x1a4 examples/pb_remote/server/CMakeFiles/pb_remote_server_nrf52840_xxAA_s140_6.0.0.dir/__/__/__/models/foundation/config/src/config_server.c.obj
 .text.handle_config_model_subscription_overwrite
                0x0003794a      0x122 examples/pb_remote/server/CMakeFiles/pb_remote_server_nrf52840_xxAA_s140_6.0.0.dir/__/__/__/models/foundation/config/src/config_server.c.obj
 .text.handle_model_app_bind_unbind
                0x00037a6c      0x17a examples/pb_remote/server/CMakeFiles/pb_remote_server_nrf52840_xxAA_s140_6.0.0.dir/__/__/__/models/foundation/config/src/config_server.c.obj
 .text.handle_config_model_publication_set
                0x00037be6      0x2c6 examples/pb_remote/server/CMakeFiles/pb_remote_server_nrf52840_xxAA_s140_6.0.0.dir/__/__/__/models/foundation/config/src/config_server.c.obj
 .text.config_server_init
                0x00037eac       0x60 examples/pb_remote/server/CMakeFiles/pb_remote_server_nrf52840_xxAA_s140_6.0.0.dir/__/__/__/models/foundation/config/src/config_server.c.obj
                0x00037eac                config_server_init
 .text.config_server_bind
                0x00037f0c       0x10 examples/pb_remote/server/CMakeFiles/pb_remote_server_nrf52840_xxAA_s140_6.0.0.dir/__/__/__/models/foundation/config/src/config_server.c.obj
                0x00037f0c                config_server_bind
 .text.packed_index_list_create
                0x00037f1c       0x32 examples/pb_remote/server/CMakeFiles/pb_remote_server_nrf52840_xxAA_s140_6.0.0.dir/__/__/__/models/foundation/config/src/packed_index_list.c.obj
                0x00037f1c                packed_index_list_create
 *fill*         0x00037f4e        0x2 
 .text.attention_timer_set
                0x00037f50       0x8c examples/pb_remote/server/CMakeFiles/pb_remote_server_nrf52840_xxAA_s140_6.0.0.dir/__/__/__/models/foundation/health/src/health_server.c.obj
 .text.attention_timer_handler
                0x00037fdc       0x5c examples/pb_remote/server/CMakeFiles/pb_remote_server_nrf52840_xxAA_s140_6.0.0.dir/__/__/__/models/foundation/health/src/health_server.c.obj
 .text.send_attention_status
                0x00038038       0x4a examples/pb_remote/server/CMakeFiles/pb_remote_server_nrf52840_xxAA_s140_6.0.0.dir/__/__/__/models/foundation/health/src/health_server.c.obj
 .text.handle_attention_get
                0x00038082        0xc examples/pb_remote/server/CMakeFiles/pb_remote_server_nrf52840_xxAA_s140_6.0.0.dir/__/__/__/models/foundation/health/src/health_server.c.obj
 .text.send_period_status
                0x0003808e       0x48 examples/pb_remote/server/CMakeFiles/pb_remote_server_nrf52840_xxAA_s140_6.0.0.dir/__/__/__/models/foundation/health/src/health_server.c.obj
 .text.handle_period_get
                0x000380d6        0xc examples/pb_remote/server/CMakeFiles/pb_remote_server_nrf52840_xxAA_s140_6.0.0.dir/__/__/__/models/foundation/health/src/health_server.c.obj
 .text.handle_attention_set
                0x000380e2       0x2e examples/pb_remote/server/CMakeFiles/pb_remote_server_nrf52840_xxAA_s140_6.0.0.dir/__/__/__/models/foundation/health/src/health_server.c.obj
 .text.handle_period_set
                0x00038110       0x22 examples/pb_remote/server/CMakeFiles/pb_remote_server_nrf52840_xxAA_s140_6.0.0.dir/__/__/__/models/foundation/health/src/health_server.c.obj
 *fill*         0x00038132        0x2 
 .text.bitfield_next_get.part.0.constprop.9
                0x00038134       0x44 examples/pb_remote/server/CMakeFiles/pb_remote_server_nrf52840_xxAA_s140_6.0.0.dir/__/__/__/models/foundation/health/src/health_server.c.obj
 .text.bitfield_popcount.constprop.7
                0x00038178       0x28 examples/pb_remote/server/CMakeFiles/pb_remote_server_nrf52840_xxAA_s140_6.0.0.dir/__/__/__/models/foundation/health/src/health_server.c.obj
 .text.send_fault_status
                0x000381a0       0xa8 examples/pb_remote/server/CMakeFiles/pb_remote_server_nrf52840_xxAA_s140_6.0.0.dir/__/__/__/models/foundation/health/src/health_server.c.obj
 .text.health_publish_timeout_handler
                0x00038248        0xa examples/pb_remote/server/CMakeFiles/pb_remote_server_nrf52840_xxAA_s140_6.0.0.dir/__/__/__/models/foundation/health/src/health_server.c.obj
 .text.handle_fault_test
                0x00038252       0x68 examples/pb_remote/server/CMakeFiles/pb_remote_server_nrf52840_xxAA_s140_6.0.0.dir/__/__/__/models/foundation/health/src/health_server.c.obj
 .text.handle_fault_get
                0x000382ba       0x32 examples/pb_remote/server/CMakeFiles/pb_remote_server_nrf52840_xxAA_s140_6.0.0.dir/__/__/__/models/foundation/health/src/health_server.c.obj
 .text.handle_fault_clear
                0x000382ec       0x48 examples/pb_remote/server/CMakeFiles/pb_remote_server_nrf52840_xxAA_s140_6.0.0.dir/__/__/__/models/foundation/health/src/health_server.c.obj
 .text.health_server_init
                0x00038334       0x6c examples/pb_remote/server/CMakeFiles/pb_remote_server_nrf52840_xxAA_s140_6.0.0.dir/__/__/__/models/foundation/health/src/health_server.c.obj
                0x00038334                health_server_init
 .text.errata_120
                0x000383a0       0x20 examples/pb_remote/server/CMakeFiles/pb_remote_server_nrf52840_xxAA_s140_6.0.0.dir/C_/sdks/nRF5_SDK_15.0.0_a53641a/modules/nrfx/mdk/system_nrf52840.c.obj
 .text.SystemInit
                0x000383c0      0x1b8 examples/pb_remote/server/CMakeFiles/pb_remote_server_nrf52840_xxAA_s140_6.0.0.dir/C_/sdks/nRF5_SDK_15.0.0_a53641a/modules/nrfx/mdk/system_nrf52840.c.obj
                0x000383c0                SystemInit
 .text          0x00038578       0x3c examples/pb_remote/server/CMakeFiles/pb_remote_server_nrf52840_xxAA_s140_6.0.0.dir/C_/sdks/nRF5_SDK_15.0.0_a53641a/modules/nrfx/mdk/gcc_startup_nrf52840.S.obj
                0x00038578                Reset_Handler
                0x000385a0                NMI_Handler
                0x000385a2                HardFault_Handler
                0x000385a4                MemoryManagement_Handler
                0x000385a6                BusFault_Handler
                0x000385a8                UsageFault_Handler
                0x000385aa                SVC_Handler
                0x000385ac                DebugMon_Handler
                0x000385ae                PendSV_Handler
                0x000385b0                SysTick_Handler
                0x000385b2                TEMP_IRQHandler
                0x000385b2                TIMER3_IRQHandler
                0x000385b2                PWM3_IRQHandler
                0x000385b2                FPU_IRQHandler
                0x000385b2                USBD_IRQHandler
                0x000385b2                SPIM0_SPIS0_TWIM0_TWIS0_SPI0_TWI0_IRQHandler
                0x000385b2                PDM_IRQHandler
                0x000385b2                UARTE0_UART0_IRQHandler
                0x000385b2                TIMER4_IRQHandler
                0x000385b2                CRYPTOCELL_IRQHandler
                0x000385b2                I2S_IRQHandler
                0x000385b2                SWI4_EGU4_IRQHandler
                0x000385b2                TIMER0_IRQHandler
                0x000385b2                RTC0_IRQHandler
                0x000385b2                POWER_CLOCK_IRQHandler
                0x000385b2                TIMER1_IRQHandler
                0x000385b2                SPIM3_IRQHandler
                0x000385b2                PWM2_IRQHandler
                0x000385b2                ECB_IRQHandler
                0x000385b2                SPIM1_SPIS1_TWIM1_TWIS1_SPI1_TWI1_IRQHandler
                0x000385b2                Default_Handler
                0x000385b2                SAADC_IRQHandler
                0x000385b2                CCM_AAR_IRQHandler
                0x000385b2                WDT_IRQHandler
                0x000385b2                RADIO_IRQHandler
                0x000385b2                SWI5_EGU5_IRQHandler
                0x000385b2                RNG_IRQHandler
                0x000385b2                RTC2_IRQHandler
                0x000385b2                PWM0_IRQHandler
                0x000385b2                SWI3_EGU3_IRQHandler
                0x000385b2                SWI1_EGU1_IRQHandler
                0x000385b2                SPIM2_SPIS2_SPI2_IRQHandler
                0x000385b2                NFCT_IRQHandler
                0x000385b2                UARTE1_IRQHandler
                0x000385b2                MWU_IRQHandler
                0x000385b2                PWM1_IRQHandler
                0x000385b2                QSPI_IRQHandler
                0x000385b2                COMP_LPCOMP_IRQHandler
 .text.app_error_handler_bare
                0x000385b4       0x1a examples/pb_remote/server/CMakeFiles/pb_remote_server_nrf52840_xxAA_s140_6.0.0.dir/C_/sdks/nRF5_SDK_15.0.0_a53641a/components/libraries/util/app_error.c.obj
                0x000385b4                app_error_handler_bare
 *fill*         0x000385ce        0x2 
 .text.app_util_critical_region_enter
                0x000385d0       0x48 examples/pb_remote/server/CMakeFiles/pb_remote_server_nrf52840_xxAA_s140_6.0.0.dir/C_/sdks/nRF5_SDK_15.0.0_a53641a/components/libraries/util/app_util_platform.c.obj
                0x000385d0                app_util_critical_region_enter
 .text.app_util_critical_region_exit
                0x00038618       0x2c examples/pb_remote/server/CMakeFiles/pb_remote_server_nrf52840_xxAA_s140_6.0.0.dir/C_/sdks/nRF5_SDK_15.0.0_a53641a/components/libraries/util/app_util_platform.c.obj
                0x00038618                app_util_critical_region_exit
 .text.user_op_alloc
                0x00038644       0x2c examples/pb_remote/server/CMakeFiles/pb_remote_server_nrf52840_xxAA_s140_6.0.0.dir/C_/sdks/nRF5_SDK_15.0.0_a53641a/components/libraries/timer/app_timer.c.obj
 .text.timer_stop_op_schedule
                0x00038670       0x50 examples/pb_remote/server/CMakeFiles/pb_remote_server_nrf52840_xxAA_s140_6.0.0.dir/C_/sdks/nRF5_SDK_15.0.0_a53641a/components/libraries/timer/app_timer.c.obj
 .text.nrfx_coredep_delay_us.part.0.constprop.4
                0x000386c0       0x10 examples/pb_remote/server/CMakeFiles/pb_remote_server_nrf52840_xxAA_s140_6.0.0.dir/C_/sdks/nRF5_SDK_15.0.0_a53641a/components/libraries/timer/app_timer.c.obj
 .text.rtc1_stop
                0x000386d0       0x44 examples/pb_remote/server/CMakeFiles/pb_remote_server_nrf52840_xxAA_s140_6.0.0.dir/C_/sdks/nRF5_SDK_15.0.0_a53641a/components/libraries/timer/app_timer.c.obj
 .text.RTC1_IRQHandler
                0x00038714       0x9c examples/pb_remote/server/CMakeFiles/pb_remote_server_nrf52840_xxAA_s140_6.0.0.dir/C_/sdks/nRF5_SDK_15.0.0_a53641a/components/libraries/timer/app_timer.c.obj
                0x00038714                RTC1_IRQHandler
 .text.SWI0_EGU0_IRQHandler
                0x000387b0      0x2a4 examples/pb_remote/server/CMakeFiles/pb_remote_server_nrf52840_xxAA_s140_6.0.0.dir/C_/sdks/nRF5_SDK_15.0.0_a53641a/components/libraries/timer/app_timer.c.obj
                0x000387b0                SWI0_EGU0_IRQHandler
 .text.app_timer_init
                0x00038a54       0x64 examples/pb_remote/server/CMakeFiles/pb_remote_server_nrf52840_xxAA_s140_6.0.0.dir/C_/sdks/nRF5_SDK_15.0.0_a53641a/components/libraries/timer/app_timer.c.obj
                0x00038a54                app_timer_init
 .text.app_timer_create
                0x00038ab8       0x24 examples/pb_remote/server/CMakeFiles/pb_remote_server_nrf52840_xxAA_s140_6.0.0.dir/C_/sdks/nRF5_SDK_15.0.0_a53641a/components/libraries/timer/app_timer.c.obj
                0x00038ab8                app_timer_create
 .text.app_timer_start
                0x00038adc       0x8c examples/pb_remote/server/CMakeFiles/pb_remote_server_nrf52840_xxAA_s140_6.0.0.dir/C_/sdks/nRF5_SDK_15.0.0_a53641a/components/libraries/timer/app_timer.c.obj
                0x00038adc                app_timer_start
 .text.app_timer_stop
                0x00038b68       0x20 examples/pb_remote/server/CMakeFiles/pb_remote_server_nrf52840_xxAA_s140_6.0.0.dir/C_/sdks/nRF5_SDK_15.0.0_a53641a/components/libraries/timer/app_timer.c.obj
                0x00038b68                app_timer_stop
 .text.app_error_handler
                0x00038b88       0x1a examples/pb_remote/server/CMakeFiles/pb_remote_server_nrf52840_xxAA_s140_6.0.0.dir/C_/sdks/nRF5_SDK_15.0.0_a53641a/components/libraries/util/app_error_handler_gcc.c.obj
                0x00038b88                app_error_handler
 .text._GetAvailWriteSpace
                0x00038ba2       0x1c external/rtt/librtt_nrf52840_xxAA.a(SEGGER_RTT.c.obj)
 .text._WriteNoCheck
                0x00038bbe       0x3c external/rtt/librtt_nrf52840_xxAA.a(SEGGER_RTT.c.obj)
 .text._WriteBlocking
                0x00038bfa       0x52 external/rtt/librtt_nrf52840_xxAA.a(SEGGER_RTT.c.obj)
 .text._DoInit  0x00038c4c       0x60 external/rtt/librtt_nrf52840_xxAA.a(SEGGER_RTT.c.obj)
 .text.SEGGER_RTT_WriteNoLock
                0x00038cac       0x68 external/rtt/librtt_nrf52840_xxAA.a(SEGGER_RTT.c.obj)
                0x00038cac                SEGGER_RTT_WriteNoLock
 .text.SEGGER_RTT_Write
                0x00038d14       0x34 external/rtt/librtt_nrf52840_xxAA.a(SEGGER_RTT.c.obj)
                0x00038d14                SEGGER_RTT_Write
 .text._StoreChar
                0x00038d48       0x3e external/rtt/librtt_nrf52840_xxAA.a(SEGGER_RTT_printf.c.obj)
 *fill*         0x00038d86        0x2 
 .text._PrintUnsigned
                0x00038d88       0xd0 external/rtt/librtt_nrf52840_xxAA.a(SEGGER_RTT_printf.c.obj)
 .text.SEGGER_RTT_vprintf
                0x00038e58      0x246 external/rtt/librtt_nrf52840_xxAA.a(SEGGER_RTT_printf.c.obj)
                0x00038e58                SEGGER_RTT_vprintf
 .text.SEGGER_RTT_printf
                0x0003909e       0x1e external/rtt/librtt_nrf52840_xxAA.a(SEGGER_RTT_printf.c.obj)
                0x0003909e                SEGGER_RTT_printf
 .text.uECC_vli_mult
                0x000390bc       0x64 external/micro-ecc/libuECC_nrf52840_xxAA.a(uECC.c.obj)
 .text.uECC_vli_clear
                0x00039120       0x16 external/micro-ecc/libuECC_nrf52840_xxAA.a(uECC.c.obj)
 .text.uECC_vli_isZero
                0x00039136       0x1e external/micro-ecc/libuECC_nrf52840_xxAA.a(uECC.c.obj)
 .text.uECC_vli_testBit
                0x00039154       0x14 external/micro-ecc/libuECC_nrf52840_xxAA.a(uECC.c.obj)
 .text.uECC_vli_numBits
                0x00039168       0x3a external/micro-ecc/libuECC_nrf52840_xxAA.a(uECC.c.obj)
 .text.uECC_vli_set
                0x000391a2       0x18 external/micro-ecc/libuECC_nrf52840_xxAA.a(uECC.c.obj)
 .text.uECC_vli_cmp_unsafe
                0x000391ba       0x28 external/micro-ecc/libuECC_nrf52840_xxAA.a(uECC.c.obj)
 .text.uECC_vli_rshift1
                0x000391e2       0x1c external/micro-ecc/libuECC_nrf52840_xxAA.a(uECC.c.obj)
 .text.uECC_vli_modMult_fast
                0x000391fe       0x20 external/micro-ecc/libuECC_nrf52840_xxAA.a(uECC.c.obj)
 .text.uECC_vli_modSquare_fast
                0x0003921e        0x8 external/micro-ecc/libuECC_nrf52840_xxAA.a(uECC.c.obj)
 .text.apply_z  0x00039226       0x3e external/micro-ecc/libuECC_nrf52840_xxAA.a(uECC.c.obj)
 .text.uECC_vli_nativeToBytes
                0x00039264       0x28 external/micro-ecc/libuECC_nrf52840_xxAA.a(uECC.c.obj)
 .text.uECC_vli_bytesToNative
                0x0003928c       0x40 external/micro-ecc/libuECC_nrf52840_xxAA.a(uECC.c.obj)
 .text.default_RNG
                0x000392cc        0xc external/micro-ecc/libuECC_nrf52840_xxAA.a(uECC.c.obj)
 .text.uECC_vli_add.isra.0
                0x000392d8       0x4a external/micro-ecc/libuECC_nrf52840_xxAA.a(uECC.c.obj)
 .text.regularize_k
                0x00039322       0x50 external/micro-ecc/libuECC_nrf52840_xxAA.a(uECC.c.obj)
 .text.uECC_vli_sub.isra.1
                0x00039372       0x4e external/micro-ecc/libuECC_nrf52840_xxAA.a(uECC.c.obj)
 .text.uECC_vli_cmp
                0x000393c0       0x30 external/micro-ecc/libuECC_nrf52840_xxAA.a(uECC.c.obj)
 .text.uECC_generate_random_int
                0x000393f0       0x78 external/micro-ecc/libuECC_nrf52840_xxAA.a(uECC.c.obj)
 .text.uECC_vli_modAdd
                0x00039468       0x2e external/micro-ecc/libuECC_nrf52840_xxAA.a(uECC.c.obj)
 *fill*         0x00039496        0x2 
 .text.vli_mmod_fast_secp256r1
                0x00039498      0x194 external/micro-ecc/libuECC_nrf52840_xxAA.a(uECC.c.obj)
 .text.uECC_vli_modSub.isra.2
                0x0003962c       0x1c external/micro-ecc/libuECC_nrf52840_xxAA.a(uECC.c.obj)
 .text.double_jacobian_default
                0x00039648      0x14a external/micro-ecc/libuECC_nrf52840_xxAA.a(uECC.c.obj)
 .text.x_side_default
                0x00039792       0x5a external/micro-ecc/libuECC_nrf52840_xxAA.a(uECC.c.obj)
 .text.XYcZ_add
                0x000397ec       0xbc external/micro-ecc/libuECC_nrf52840_xxAA.a(uECC.c.obj)
 .text.XYcZ_addC
                0x000398a8      0x10a external/micro-ecc/libuECC_nrf52840_xxAA.a(uECC.c.obj)
 .text.vli_modInv_update
                0x000399b2       0x36 external/micro-ecc/libuECC_nrf52840_xxAA.a(uECC.c.obj)
 .text.uECC_vli_modInv
                0x000399e8      0x102 external/micro-ecc/libuECC_nrf52840_xxAA.a(uECC.c.obj)
 .text.EccPoint_mult
                0x00039aea      0x19e external/micro-ecc/libuECC_nrf52840_xxAA.a(uECC.c.obj)
 .text.EccPoint_compute_public_key
                0x00039c88       0x54 external/micro-ecc/libuECC_nrf52840_xxAA.a(uECC.c.obj)
 .text.uECC_secp256r1
                0x00039cdc        0x8 external/micro-ecc/libuECC_nrf52840_xxAA.a(uECC.c.obj)
                0x00039cdc                uECC_secp256r1
 .text.uECC_make_key
                0x00039ce4       0x7e external/micro-ecc/libuECC_nrf52840_xxAA.a(uECC.c.obj)
                0x00039ce4                uECC_make_key
 *fill*         0x00039d62        0x2 
 .text.uECC_shared_secret
                0x00039d64       0xbc external/micro-ecc/libuECC_nrf52840_xxAA.a(uECC.c.obj)
                0x00039d64                uECC_shared_secret
 .text.uECC_valid_point
                0x00039e20       0x86 external/micro-ecc/libuECC_nrf52840_xxAA.a(uECC.c.obj)
                0x00039e20                uECC_valid_point
 .text.uECC_valid_public_key
                0x00039ea6       0x32 external/micro-ecc/libuECC_nrf52840_xxAA.a(uECC.c.obj)
                0x00039ea6                uECC_valid_public_key
 .text          0x00039ed8       0x30 c:/arm_gcc/bin/../lib/gcc/arm-none-eabi/6.3.1/thumb/v7e-m/fpv4-sp/hard\libgcc.a(_aeabi_uldivmod.o)
                0x00039ed8                __aeabi_uldivmod
 .text          0x00039f08      0x2dc c:/arm_gcc/bin/../lib/gcc/arm-none-eabi/6.3.1/thumb/v7e-m/fpv4-sp/hard\libgcc.a(_udivmoddi4.o)
                0x00039f08                __udivmoddi4
 .text          0x0003a1e4        0x4 c:/arm_gcc/bin/../lib/gcc/arm-none-eabi/6.3.1/thumb/v7e-m/fpv4-sp/hard\libgcc.a(_dvmd_tls.o)
                0x0003a1e4                __aeabi_idiv0
                0x0003a1e4                __aeabi_ldiv0
 .text.exit     0x0003a1e8       0x28 c:/arm_gcc/bin/../lib/gcc/arm-none-eabi/6.3.1/../../../../arm-none-eabi/lib/thumb/v7e-m/fpv4-sp/hard\libg_nano.a(lib_a-exit.o)
                0x0003a1e8                exit
 .text.__libc_init_array
                0x0003a210       0x48 c:/arm_gcc/bin/../lib/gcc/arm-none-eabi/6.3.1/../../../../arm-none-eabi/lib/thumb/v7e-m/fpv4-sp/hard\libg_nano.a(lib_a-init.o)
                0x0003a210                __libc_init_array
 .text.malloc   0x0003a258       0x10 c:/arm_gcc/bin/../lib/gcc/arm-none-eabi/6.3.1/../../../../arm-none-eabi/lib/thumb/v7e-m/fpv4-sp/hard\libg_nano.a(lib_a-malloc.o)
                0x0003a258                malloc
 .text.free     0x0003a268       0x10 c:/arm_gcc/bin/../lib/gcc/arm-none-eabi/6.3.1/../../../../arm-none-eabi/lib/thumb/v7e-m/fpv4-sp/hard\libg_nano.a(lib_a-malloc.o)
                0x0003a268                free
 .text.memcmp   0x0003a278       0x1e c:/arm_gcc/bin/../lib/gcc/arm-none-eabi/6.3.1/../../../../arm-none-eabi/lib/thumb/v7e-m/fpv4-sp/hard\libg_nano.a(lib_a-memcmp.o)
                0x0003a278                memcmp
 .text.memcpy   0x0003a296       0x16 c:/arm_gcc/bin/../lib/gcc/arm-none-eabi/6.3.1/../../../../arm-none-eabi/lib/thumb/v7e-m/fpv4-sp/hard\libg_nano.a(lib_a-memcpy-stub.o)
                0x0003a296                memcpy
 .text.memset   0x0003a2ac       0x10 c:/arm_gcc/bin/../lib/gcc/arm-none-eabi/6.3.1/../../../../arm-none-eabi/lib/thumb/v7e-m/fpv4-sp/hard\libg_nano.a(lib_a-memset.o)
                0x0003a2ac                memset
 .text._free_r  0x0003a2bc       0x9c c:/arm_gcc/bin/../lib/gcc/arm-none-eabi/6.3.1/../../../../arm-none-eabi/lib/thumb/v7e-m/fpv4-sp/hard\libg_nano.a(lib_a-nano-freer.o)
                0x0003a2bc                _free_r
 .text._malloc_r
                0x0003a358       0xbc c:/arm_gcc/bin/../lib/gcc/arm-none-eabi/6.3.1/../../../../arm-none-eabi/lib/thumb/v7e-m/fpv4-sp/hard\libg_nano.a(lib_a-nano-mallocr.o)
                0x0003a358                _malloc_r
 .text._sbrk_r  0x0003a414       0x20 c:/arm_gcc/bin/../lib/gcc/arm-none-eabi/6.3.1/../../../../arm-none-eabi/lib/thumb/v7e-m/fpv4-sp/hard\libg_nano.a(lib_a-sbrkr.o)
                0x0003a414                _sbrk_r
 .text.strcpy   0x0003a434       0x10 c:/arm_gcc/bin/../lib/gcc/arm-none-eabi/6.3.1/../../../../arm-none-eabi/lib/thumb/v7e-m/fpv4-sp/hard\libg_nano.a(lib_a-strcpy.o)
                0x0003a434                strcpy
 .text          0x0003a444       0x10 c:/arm_gcc/bin/../lib/gcc/arm-none-eabi/6.3.1/../../../../arm-none-eabi/lib/thumb/v7e-m/fpv4-sp/hard\libg_nano.a(lib_a-strlen.o)
                0x0003a444                strlen
 .text.strrchr  0x0003a454       0x26 c:/arm_gcc/bin/../lib/gcc/arm-none-eabi/6.3.1/../../../../arm-none-eabi/lib/thumb/v7e-m/fpv4-sp/hard\libg_nano.a(lib_a-strrchr.o)
                0x0003a454                strrchr
 .text.__malloc_lock
                0x0003a47a        0x2 c:/arm_gcc/bin/../lib/gcc/arm-none-eabi/6.3.1/../../../../arm-none-eabi/lib/thumb/v7e-m/fpv4-sp/hard\libg_nano.a(lib_a-mlock.o)
                0x0003a47a                __malloc_lock
 .text.__malloc_unlock
                0x0003a47c        0x2 c:/arm_gcc/bin/../lib/gcc/arm-none-eabi/6.3.1/../../../../arm-none-eabi/lib/thumb/v7e-m/fpv4-sp/hard\libg_nano.a(lib_a-mlock.o)
                0x0003a47c                __malloc_unlock
 .text.strchr   0x0003a47e       0x1c c:/arm_gcc/bin/../lib/gcc/arm-none-eabi/6.3.1/../../../../arm-none-eabi/lib/thumb/v7e-m/fpv4-sp/hard\libg_nano.a(lib_a-strchr.o)
                0x0003a47e                strchr
 *fill*         0x0003a49a        0x2 
 .text._sbrk    0x0003a49c       0x1c c:/arm_gcc/bin/../lib/gcc/arm-none-eabi/6.3.1/../../../../arm-none-eabi/lib/thumb/v7e-m/fpv4-sp/hard\libnosys.a(sbrk.o)
                0x0003a49c                _sbrk
 .text._exit    0x0003a4b8        0x4 c:/arm_gcc/bin/../lib/gcc/arm-none-eabi/6.3.1/../../../../arm-none-eabi/lib/thumb/v7e-m/fpv4-sp/hard\libnosys.a(_exit.o)
                0x0003a4b8                _exit
 *(.init)
 .init          0x0003a4bc        0x4 c:/arm_gcc/bin/../lib/gcc/arm-none-eabi/6.3.1/thumb/v7e-m/fpv4-sp/hard/crti.o
                0x0003a4bc                _init
 .init          0x0003a4c0        0x8 c:/arm_gcc/bin/../lib/gcc/arm-none-eabi/6.3.1/thumb/v7e-m/fpv4-sp/hard/crtn.o
 *(.fini)
 .fini          0x0003a4c8        0x4 c:/arm_gcc/bin/../lib/gcc/arm-none-eabi/6.3.1/thumb/v7e-m/fpv4-sp/hard/crti.o
                0x0003a4c8                _fini
 .fini          0x0003a4cc        0x8 c:/arm_gcc/bin/../lib/gcc/arm-none-eabi/6.3.1/thumb/v7e-m/fpv4-sp/hard/crtn.o
 *crtbegin.o(.ctors)
 *crtbegin?.o(.ctors)
 *(EXCLUDE_FILE(*crtend.o *crtend?.o) .ctors)
 *(SORT(.ctors.*))
 *(.ctors)
 *crtbegin.o(.dtors)
 *crtbegin?.o(.dtors)
 *(EXCLUDE_FILE(*crtend.o *crtend?.o) .dtors)
 *(SORT(.dtors.*))
 *(.dtors)
 *(.rodata*)
 .rodata        0x0003a4d4        0xc examples/pb_remote/server/CMakeFiles/pb_remote_server_nrf52840_xxAA_s140_6.0.0.dir/src/main.c.obj
 .rodata.main.str1.1
                0x0003a4e0       0x59 examples/pb_remote/server/CMakeFiles/pb_remote_server_nrf52840_xxAA_s140_6.0.0.dir/src/main.c.obj
 .rodata.models_init_cb.str1.1
                0x0003a539       0x20 examples/pb_remote/server/CMakeFiles/pb_remote_server_nrf52840_xxAA_s140_6.0.0.dir/src/main.c.obj
 .rodata.provisioning_complete_cb.str1.1
                0x0003a559       0x42 examples/pb_remote/server/CMakeFiles/pb_remote_server_nrf52840_xxAA_s140_6.0.0.dir/src/main.c.obj
 .rodata.static_auth_data.13789
                0x0003a59b       0x10 examples/pb_remote/server/CMakeFiles/pb_remote_server_nrf52840_xxAA_s140_6.0.0.dir/src/main.c.obj
 .rodata.mesh_softdevice_init.str1.1
                0x0003a5ab       0x94 examples/pb_remote/server/CMakeFiles/pb_remote_server_nrf52840_xxAA_s140_6.0.0.dir/__/__/common/src/mesh_softdevice_init.c.obj
 .rodata        0x0003a63f        0xb examples/pb_remote/server/CMakeFiles/pb_remote_server_nrf52840_xxAA_s140_6.0.0.dir/__/__/common/src/mesh_provisionee.c.obj
 *fill*         0x0003a64a        0x2 
 .rodata.m_blink_timer
                0x0003a64c        0x4 examples/pb_remote/server/CMakeFiles/pb_remote_server_nrf52840_xxAA_s140_6.0.0.dir/__/__/common/src/simple_hal.c.obj
 .rodata.m_buttons_list
                0x0003a650        0x4 examples/pb_remote/server/CMakeFiles/pb_remote_server_nrf52840_xxAA_s140_6.0.0.dir/__/__/common/src/simple_hal.c.obj
 .rodata.app_error_fault_handler.str1.1
                0x0003a654       0xbd examples/pb_remote/server/CMakeFiles/pb_remote_server_nrf52840_xxAA_s140_6.0.0.dir/__/__/common/src/app_error_weak.c.obj
 .rodata.mesh_assertion_handler.str1.1
                0x0003a711       0xbd examples/pb_remote/server/CMakeFiles/pb_remote_server_nrf52840_xxAA_s140_6.0.0.dir/__/__/common/src/assertion_handler_weak.c.obj
                                  0x1 (size before relaxing)
 .rodata.sar_ctx_cancel.str1.1
                0x0003a711       0x23 examples/pb_remote/server/CMakeFiles/pb_remote_server_nrf52840_xxAA_s140_6.0.0.dir/__/__/__/mesh/core/src/transport.c.obj
 .rodata.test_transport_decrypt.str1.1
                0x0003a734       0x30 examples/pb_remote/server/CMakeFiles/pb_remote_server_nrf52840_xxAA_s140_6.0.0.dir/__/__/__/mesh/core/src/transport.c.obj
 .rodata.transport_packet_in.str1.1
                0x0003a764       0x24 examples/pb_remote/server/CMakeFiles/pb_remote_server_nrf52840_xxAA_s140_6.0.0.dir/__/__/__/mesh/core/src/transport.c.obj
 .rodata.upper_transport_access_packet_in.str1.1
                0x0003a788       0x29 examples/pb_remote/server/CMakeFiles/pb_remote_server_nrf52840_xxAA_s140_6.0.0.dir/__/__/__/mesh/core/src/transport.c.obj
 .rodata.upper_transport_packet_in.str1.1
                0x0003a7b1       0x2e examples/pb_remote/server/CMakeFiles/pb_remote_server_nrf52840_xxAA_s140_6.0.0.dir/__/__/__/mesh/core/src/transport.c.obj
 .rodata.upper_transport_tx.str1.1
                0x0003a7df        0xe examples/pb_remote/server/CMakeFiles/pb_remote_server_nrf52840_xxAA_s140_6.0.0.dir/__/__/__/mesh/core/src/transport.c.obj
                                 0x16 (size before relaxing)
 *fill*         0x0003a7ed        0x3 
 .rodata.m_procedure_steps
                0x0003a7f0       0x28 examples/pb_remote/server/CMakeFiles/pb_remote_server_nrf52840_xxAA_s140_6.0.0.dir/__/__/__/mesh/core/src/flash_manager_defrag.c.obj
 .rodata.m_all_operations
                0x0003a818       0x10 examples/pb_remote/server/CMakeFiles/pb_remote_server_nrf52840_xxAA_s140_6.0.0.dir/__/__/__/mesh/core/src/mesh_flash.c.obj
 .rodata.types_lookup.9494
                0x0003a828        0x4 examples/pb_remote/server/CMakeFiles/pb_remote_server_nrf52840_xxAA_s140_6.0.0.dir/__/__/__/mesh/core/src/nrf_mesh_utils.c.obj
 .rodata.__func__.12409
                0x0003a82c       0x15 examples/pb_remote/server/CMakeFiles/pb_remote_server_nrf52840_xxAA_s140_6.0.0.dir/__/__/__/mesh/core/src/nrf_mesh.c.obj
 .rodata.nrf_mesh_enable.str1.1
                0x0003a841       0x25 examples/pb_remote/server/CMakeFiles/pb_remote_server_nrf52840_xxAA_s140_6.0.0.dir/__/__/__/mesh/core/src/nrf_mesh.c.obj
 .rodata.nrf_mesh_listen.str1.1
                0x0003a866       0x70 examples/pb_remote/server/CMakeFiles/pb_remote_server_nrf52840_xxAA_s140_6.0.0.dir/__/__/__/mesh/core/src/nrf_mesh.c.obj
 .rodata.nrf_mesh_packet_send.str1.1
                0x0003a8d6       0x70 examples/pb_remote/server/CMakeFiles/pb_remote_server_nrf52840_xxAA_s140_6.0.0.dir/__/__/__/mesh/core/src/nrf_mesh.c.obj
                                  0x4 (size before relaxing)
 .rodata.CSWTCH.7
                0x0003a8d6       0x10 examples/pb_remote/server/CMakeFiles/pb_remote_server_nrf52840_xxAA_s140_6.0.0.dir/__/__/__/mesh/core/src/hal.c.obj
 .rodata        0x0003a8e6       0x15 examples/pb_remote/server/CMakeFiles/pb_remote_server_nrf52840_xxAA_s140_6.0.0.dir/__/__/__/mesh/core/src/enc.c.obj
 .rodata.network_packet_in.str1.1
                0x0003a8fb       0x48 examples/pb_remote/server/CMakeFiles/pb_remote_server_nrf52840_xxAA_s140_6.0.0.dir/__/__/__/mesh/core/src/network.c.obj
 .rodata.net_packet_decrypt.str1.1
                0x0003a943       0x31 examples/pb_remote/server/CMakeFiles/pb_remote_server_nrf52840_xxAA_s140_6.0.0.dir/__/__/__/mesh/core/src/net_packet.c.obj
                                 0x39 (size before relaxing)
 .rodata        0x0003a974        0x7 examples/pb_remote/server/CMakeFiles/pb_remote_server_nrf52840_xxAA_s140_6.0.0.dir/__/__/__/mesh/core/src/nrf_mesh_keygen.c.obj
 .rodata.log_callback_rtt.str1.1
                0x0003a97b       0x15 examples/pb_remote/server/CMakeFiles/pb_remote_server_nrf52840_xxAA_s140_6.0.0.dir/__/__/__/mesh/core/src/log.c.obj
 .rodata.str1.1
                0x0003a990       0x11 examples/pb_remote/server/CMakeFiles/pb_remote_server_nrf52840_xxAA_s140_6.0.0.dir/__/__/__/mesh/core/src/log.c.obj
 *fill*         0x0003a9a1        0x3 
 .rodata.INVALID_HEADER
                0x0003a9a4        0x4 examples/pb_remote/server/CMakeFiles/pb_remote_server_nrf52840_xxAA_s140_6.0.0.dir/__/__/__/mesh/core/src/flash_manager.c.obj
                0x0003a9a4                INVALID_HEADER
 .rodata.PADDING_HEADER
                0x0003a9a8        0x4 examples/pb_remote/server/CMakeFiles/pb_remote_server_nrf52840_xxAA_s140_6.0.0.dir/__/__/__/mesh/core/src/flash_manager.c.obj
                0x0003a9a8                PADDING_HEADER
 .rodata.SEAL_HEADER
                0x0003a9ac        0x4 examples/pb_remote/server/CMakeFiles/pb_remote_server_nrf52840_xxAA_s140_6.0.0.dir/__/__/__/mesh/core/src/flash_manager.c.obj
                0x0003a9ac                SEAL_HEADER
 .rodata.beacon_packet_in.str1.1
                0x0003a9b0       0x51 examples/pb_remote/server/CMakeFiles/pb_remote_server_nrf52840_xxAA_s140_6.0.0.dir/__/__/__/mesh/core/src/beacon.c.obj
                                 0x59 (size before relaxing)
 *fill*         0x0003aa01        0x1 
 .rodata.__compound_literal.0
                0x0003aa02        0x4 examples/pb_remote/server/CMakeFiles/pb_remote_server_nrf52840_xxAA_s140_6.0.0.dir/__/__/__/mesh/core/src/heartbeat.c.obj
 .rodata.__compound_literal.1
                0x0003aa06        0x4 examples/pb_remote/server/CMakeFiles/pb_remote_server_nrf52840_xxAA_s140_6.0.0.dir/__/__/__/mesh/core/src/heartbeat.c.obj
 *fill*         0x0003aa0a        0x2 
 .rodata.cp_handler
                0x0003aa0c        0x8 examples/pb_remote/server/CMakeFiles/pb_remote_server_nrf52840_xxAA_s140_6.0.0.dir/__/__/__/mesh/core/src/heartbeat.c.obj
 .rodata.__compound_literal.0
                0x0003aa14        0x4 examples/pb_remote/server/CMakeFiles/pb_remote_server_nrf52840_xxAA_s140_6.0.0.dir/__/__/__/mesh/core/src/net_beacon.c.obj
 .rodata.beacon_tx.str1.1
                0x0003aa18       0x35 examples/pb_remote/server/CMakeFiles/pb_remote_server_nrf52840_xxAA_s140_6.0.0.dir/__/__/__/mesh/core/src/net_beacon.c.obj
 .rodata.net_beacon_init.str1.1
                0x0003aa4d        0x5 examples/pb_remote/server/CMakeFiles/pb_remote_server_nrf52840_xxAA_s140_6.0.0.dir/__/__/__/mesh/core/src/net_beacon.c.obj
 .rodata.__compound_literal.0
                0x0003aa52        0x4 examples/pb_remote/server/CMakeFiles/pb_remote_server_nrf52840_xxAA_s140_6.0.0.dir/__/__/__/mesh/core/src/core_tx_adv.c.obj
 .rodata.__compound_literal.1
                0x0003aa56        0x4 examples/pb_remote/server/CMakeFiles/pb_remote_server_nrf52840_xxAA_s140_6.0.0.dir/__/__/__/mesh/core/src/core_tx_adv.c.obj
 .rodata.__compound_literal.2
                0x0003aa5a        0x4 examples/pb_remote/server/CMakeFiles/pb_remote_server_nrf52840_xxAA_s140_6.0.0.dir/__/__/__/mesh/core/src/core_tx_adv.c.obj
 .rodata.m_default_tx_power
                0x0003aa5e        0x1 examples/pb_remote/server/CMakeFiles/pb_remote_server_nrf52840_xxAA_s140_6.0.0.dir/__/__/__/mesh/core/src/core_tx_adv.c.obj
 *fill*         0x0003aa5f        0x1 
 .rodata.m_interface
                0x0003aa60        0xc examples/pb_remote/server/CMakeFiles/pb_remote_server_nrf52840_xxAA_s140_6.0.0.dir/__/__/__/mesh/core/src/core_tx_adv.c.obj
 .rodata.radio_mode_to_us_per_byte.9850
                0x0003aa6c        0x6 examples/pb_remote/server/CMakeFiles/pb_remote_server_nrf52840_xxAA_s140_6.0.0.dir/__/__/__/mesh/bearer/src/broadcast.c.obj
 .rodata.channel_rf_offsets.8993
                0x0003aa72       0x28 examples/pb_remote/server/CMakeFiles/pb_remote_server_nrf52840_xxAA_s140_6.0.0.dir/__/__/__/mesh/bearer/src/radio_config.c.obj
 .rodata        0x0003aa9a        0x3 examples/pb_remote/server/CMakeFiles/pb_remote_server_nrf52840_xxAA_s140_6.0.0.dir/__/__/__/mesh/bearer/src/scanner.c.obj
 *fill*         0x0003aa9d        0x3 
 .rodata.m_prov_callbacks
                0x0003aaa0       0x10 examples/pb_remote/server/CMakeFiles/pb_remote_server_nrf52840_xxAA_s140_6.0.0.dir/__/__/__/mesh/prov/src/prov_provisionee.c.obj
 .rodata.prov_provisionee_cb_ack_received.str1.1
                0x0003aab0       0x53 examples/pb_remote/server/CMakeFiles/pb_remote_server_nrf52840_xxAA_s140_6.0.0.dir/__/__/__/mesh/prov/src/prov_provisionee.c.obj
 .rodata.multiply_de_bruijn_bit_position.9619
                0x0003ab03       0x20 examples/pb_remote/server/CMakeFiles/pb_remote_server_nrf52840_xxAA_s140_6.0.0.dir/__/__/__/mesh/prov/src/nrf_mesh_prov.c.obj
 .rodata.pdu_sizes.11358
                0x0003ab23        0xa examples/pb_remote/server/CMakeFiles/pb_remote_server_nrf52840_xxAA_s140_6.0.0.dir/__/__/__/mesh/prov/src/provisioning.c.obj
 *fill*         0x0003ab2d        0x1 
 .rodata.C.8.12461
                0x0003ab2e        0x4 examples/pb_remote/server/CMakeFiles/pb_remote_server_nrf52840_xxAA_s140_6.0.0.dir/__/__/__/mesh/prov/src/prov_utils.c.obj
 .rodata.alphanumeric.12382
                0x0003ab32       0x25 examples/pb_remote/server/CMakeFiles/pb_remote_server_nrf52840_xxAA_s140_6.0.0.dir/__/__/__/mesh/prov/src/prov_utils.c.obj
 .rodata.m_ecdh_offloading_default
                0x0003ab57        0x1 examples/pb_remote/server/CMakeFiles/pb_remote_server_nrf52840_xxAA_s140_6.0.0.dir/__/__/__/mesh/prov/src/prov_utils.c.obj
 .rodata.numeric_max.12376
                0x0003ab58       0x24 examples/pb_remote/server/CMakeFiles/pb_remote_server_nrf52840_xxAA_s140_6.0.0.dir/__/__/__/mesh/prov/src/prov_utils.c.obj
 .rodata.prov_utils_authentication_values_derive.str1.1
                0x0003ab7c        0x5 examples/pb_remote/server/CMakeFiles/pb_remote_server_nrf52840_xxAA_s140_6.0.0.dir/__/__/__/mesh/prov/src/prov_utils.c.obj
 .rodata.prov_utils_derive_keys.str1.1
                0x0003ab81        0xf examples/pb_remote/server/CMakeFiles/pb_remote_server_nrf52840_xxAA_s140_6.0.0.dir/__/__/__/mesh/prov/src/prov_utils.c.obj
 .rodata.add_active_bearer.str1.1
                0x0003ab90       0x2c examples/pb_remote/server/CMakeFiles/pb_remote_server_nrf52840_xxAA_s140_6.0.0.dir/__/__/__/mesh/prov/src/prov_bearer_adv.c.obj
 .rodata.crctable.11386
                0x0003abbc      0x100 examples/pb_remote/server/CMakeFiles/pb_remote_server_nrf52840_xxAA_s140_6.0.0.dir/__/__/__/mesh/prov/src/prov_bearer_adv.c.obj
 .rodata.interface.11616
                0x0003acbc       0x14 examples/pb_remote/server/CMakeFiles/pb_remote_server_nrf52840_xxAA_s140_6.0.0.dir/__/__/__/mesh/prov/src/prov_bearer_adv.c.obj
 .rodata.prov_bearer_adv_packet_in.str1.1
                0x0003acd0      0x26e examples/pb_remote/server/CMakeFiles/pb_remote_server_nrf52840_xxAA_s140_6.0.0.dir/__/__/__/mesh/prov/src/prov_bearer_adv.c.obj
 .rodata.tx_retry_cb.str1.1
                0x0003af3e       0x37 examples/pb_remote/server/CMakeFiles/pb_remote_server_nrf52840_xxAA_s140_6.0.0.dir/__/__/__/mesh/prov/src/prov_bearer_adv.c.obj
 *fill*         0x0003af75        0x1 
 .rodata        0x0003af76       0x30 examples/pb_remote/server/CMakeFiles/pb_remote_server_nrf52840_xxAA_s140_6.0.0.dir/__/__/__/models/experimental/pb_remote/src/pb_remote_server.c.obj
 .rodata.do_state_change.str1.1
                0x0003afa6       0x1e examples/pb_remote/server/CMakeFiles/pb_remote_server_nrf52840_xxAA_s140_6.0.0.dir/__/__/__/models/experimental/pb_remote/src/pb_remote_server.c.obj
 .rodata.local_link_open.isra.14.str1.1
                0x0003afc4       0x27 examples/pb_remote/server/CMakeFiles/pb_remote_server_nrf52840_xxAA_s140_6.0.0.dir/__/__/__/models/experimental/pb_remote/src/pb_remote_server.c.obj
 *fill*         0x0003afeb        0x1 
 .rodata.m_opcode_handlers
                0x0003afec       0x48 examples/pb_remote/server/CMakeFiles/pb_remote_server_nrf52840_xxAA_s140_6.0.0.dir/__/__/__/models/experimental/pb_remote/src/pb_remote_server.c.obj
 .rodata.m_pb_remote_server_event_handler_callbacks
                0x0003b034       0x3c examples/pb_remote/server/CMakeFiles/pb_remote_server_nrf52840_xxAA_s140_6.0.0.dir/__/__/__/models/experimental/pb_remote/src/pb_remote_server.c.obj
 .rodata.pb_remote_server_event_link_close_cb.str1.1
                0x0003b070       0x1d examples/pb_remote/server/CMakeFiles/pb_remote_server_nrf52840_xxAA_s140_6.0.0.dir/__/__/__/models/experimental/pb_remote/src/pb_remote_server.c.obj
 .rodata.pb_remote_server_event_link_established_cb.str1.1
                0x0003b08d       0x2f examples/pb_remote/server/CMakeFiles/pb_remote_server_nrf52840_xxAA_s140_6.0.0.dir/__/__/__/models/experimental/pb_remote/src/pb_remote_server.c.obj
 .rodata.pb_remote_server_event_link_status_cb.str1.1
                0x0003b0bc       0x8d examples/pb_remote/server/CMakeFiles/pb_remote_server_nrf52840_xxAA_s140_6.0.0.dir/__/__/__/models/experimental/pb_remote/src/pb_remote_server.c.obj
 .rodata.pb_remote_server_event_local_ack_cb.str1.1
                0x0003b149       0x16 examples/pb_remote/server/CMakeFiles/pb_remote_server_nrf52840_xxAA_s140_6.0.0.dir/__/__/__/models/experimental/pb_remote/src/pb_remote_server.c.obj
 .rodata.pb_remote_server_event_local_packet_cb.str1.1
                0x0003b15f       0x2a examples/pb_remote/server/CMakeFiles/pb_remote_server_nrf52840_xxAA_s140_6.0.0.dir/__/__/__/models/experimental/pb_remote/src/pb_remote_server.c.obj
 .rodata.pb_remote_server_event_packet_transfer_cb.str1.1
                0x0003b189       0x2d examples/pb_remote/server/CMakeFiles/pb_remote_server_nrf52840_xxAA_s140_6.0.0.dir/__/__/__/models/experimental/pb_remote/src/pb_remote_server.c.obj
 .rodata.pb_remote_server_event_scan_report_status_cb.str1.1
                0x0003b1b6       0x1e examples/pb_remote/server/CMakeFiles/pb_remote_server_nrf52840_xxAA_s140_6.0.0.dir/__/__/__/models/experimental/pb_remote/src/pb_remote_server.c.obj
 .rodata.pb_remote_server_event_scan_start_filter_cb.str1.1
                0x0003b1d4        0xe examples/pb_remote/server/CMakeFiles/pb_remote_server_nrf52840_xxAA_s140_6.0.0.dir/__/__/__/models/experimental/pb_remote/src/pb_remote_server.c.obj
                                 0x16 (size before relaxing)
 .rodata.pb_remote_server_event_transfer_status_cb.str1.1
                0x0003b1e2       0x76 examples/pb_remote/server/CMakeFiles/pb_remote_server_nrf52840_xxAA_s140_6.0.0.dir/__/__/__/models/experimental/pb_remote/src/pb_remote_server.c.obj
 .rodata.pb_remote_server_event_unprov_uuid_cb.str1.1
                0x0003b258       0x19 examples/pb_remote/server/CMakeFiles/pb_remote_server_nrf52840_xxAA_s140_6.0.0.dir/__/__/__/models/experimental/pb_remote/src/pb_remote_server.c.obj
 .rodata.pb_remote_server_process.str1.1
                0x0003b271        0xc examples/pb_remote/server/CMakeFiles/pb_remote_server_nrf52840_xxAA_s140_6.0.0.dir/__/__/__/models/experimental/pb_remote/src/pb_remote_server.c.obj
 *fill*         0x0003b27d        0x3 
 .rodata.prov_callbacks.13153
                0x0003b280       0x10 examples/pb_remote/server/CMakeFiles/pb_remote_server_nrf52840_xxAA_s140_6.0.0.dir/__/__/__/models/experimental/pb_remote/src/pb_remote_server.c.obj
 .rodata.server_reliable_status_cb.str1.1
                0x0003b290       0x5f examples/pb_remote/server/CMakeFiles/pb_remote_server_nrf52840_xxAA_s140_6.0.0.dir/__/__/__/models/experimental/pb_remote/src/pb_remote_server.c.obj
 .rodata.mesh_evt_cb.str1.1
                0x0003b2ef       0x13 examples/pb_remote/server/CMakeFiles/pb_remote_server_nrf52840_xxAA_s140_6.0.0.dir/__/__/__/mesh/access/src/access.c.obj
 .rodata.multiply_de_bruijn_bit_position.9563
                0x0003b302       0x20 examples/pb_remote/server/CMakeFiles/pb_remote_server_nrf52840_xxAA_s140_6.0.0.dir/__/__/__/mesh/access/src/access.c.obj
 .rodata.packet_tx.str1.1
                0x0003b322       0x38 examples/pb_remote/server/CMakeFiles/pb_remote_server_nrf52840_xxAA_s140_6.0.0.dir/__/__/__/mesh/access/src/access.c.obj
                                 0x40 (size before relaxing)
 *fill*         0x0003b35a        0x2 
 .rodata.m_flash_groups
                0x0003b35c       0xa8 examples/pb_remote/server/CMakeFiles/pb_remote_server_nrf52840_xxAA_s140_6.0.0.dir/__/__/__/mesh/access/src/device_state_manager.c.obj
 .rodata.multiply_de_bruijn_bit_position.9666
                0x0003b404       0x20 examples/pb_remote/server/CMakeFiles/pb_remote_server_nrf52840_xxAA_s140_6.0.0.dir/__/__/__/mesh/access/src/device_state_manager.c.obj
 .rodata.CSWTCH.123
                0x0003b424       0x10 examples/pb_remote/server/CMakeFiles/pb_remote_server_nrf52840_xxAA_s140_6.0.0.dir/__/__/__/models/foundation/config/src/config_server.c.obj
 .rodata.opcode_handlers
                0x0003b434      0x170 examples/pb_remote/server/CMakeFiles/pb_remote_server_nrf52840_xxAA_s140_6.0.0.dir/__/__/__/models/foundation/config/src/config_server.c.obj
 .rodata.m_opcode_handlers
                0x0003b5a4       0x58 examples/pb_remote/server/CMakeFiles/pb_remote_server_nrf52840_xxAA_s140_6.0.0.dir/__/__/__/models/foundation/health/src/health_server.c.obj
 .rodata.multiply_de_bruijn_bit_position.9607
                0x0003b5fc       0x20 examples/pb_remote/server/CMakeFiles/pb_remote_server_nrf52840_xxAA_s140_6.0.0.dir/__/__/__/models/foundation/health/src/health_server.c.obj
 *fill*         0x0003b61c        0x4 
 .rodata.delay_bytecode.9306
                0x0003b620        0x6 examples/pb_remote/server/CMakeFiles/pb_remote_server_nrf52840_xxAA_s140_6.0.0.dir/C_/sdks/nRF5_SDK_15.0.0_a53641a/components/libraries/timer/app_timer.c.obj
 .rodata._DoInit.str1.1
                0x0003b626       0x14 external/rtt/librtt_nrf52840_xxAA.a(SEGGER_RTT.c.obj)
 .rodata._aV2C.5497
                0x0003b63a       0x10 external/rtt/librtt_nrf52840_xxAA.a(SEGGER_RTT_printf.c.obj)
 *fill*         0x0003b64a        0x2 
 .rodata.curve_secp256r1
                0x0003b64c       0xb0 external/micro-ecc/libuECC_nrf52840_xxAA.a(uECC.c.obj)
 .rodata._global_impure_ptr
                0x0003b6fc        0x4 c:/arm_gcc/bin/../lib/gcc/arm-none-eabi/6.3.1/../../../../arm-none-eabi/lib/thumb/v7e-m/fpv4-sp/hard\libg_nano.a(lib_a-impure.o)
                0x0003b6fc                _global_impure_ptr
 *(.eh_frame*)
 .eh_frame      0x0003b700        0x0 c:/arm_gcc/bin/../lib/gcc/arm-none-eabi/6.3.1/thumb/v7e-m/fpv4-sp/hard/crtbegin.o
 .eh_frame      0x0003b700        0x4 c:/arm_gcc/bin/../lib/gcc/arm-none-eabi/6.3.1/thumb/v7e-m/fpv4-sp/hard/crtend.o

.glue_7         0x0003b704        0x0
 .glue_7        0x0003b704        0x0 linker stubs

.glue_7t        0x0003b704        0x0
 .glue_7t       0x0003b704        0x0 linker stubs

.vfp11_veneer   0x0003b704        0x0
 .vfp11_veneer  0x0003b704        0x0 linker stubs

.v4_bx          0x0003b704        0x0
 .v4_bx         0x0003b704        0x0 linker stubs

.iplt           0x0003b704        0x0
 .iplt          0x0003b704        0x0 c:/arm_gcc/bin/../lib/gcc/arm-none-eabi/6.3.1/thumb/v7e-m/fpv4-sp/hard/crtbegin.o

.pwr_mgmt_data  0x0003b704        0x0
                [!provide]                PROVIDE (__start_pwr_mgmt_data, .)
 *(SORT(.pwr_mgmt_data*))
                [!provide]                PROVIDE (__stop_pwr_mgmt_data, .)

.log_const_data
                0x0003b704        0x0
                [!provide]                PROVIDE (__start_log_const_data, .)
 *(.log_const_data)
                [!provide]                PROVIDE (__stop_log_const_data, .)

.cli_command    0x0003b704        0x0
                [!provide]                PROVIDE (__start_cli_command, .)
 *(.cli_command)
                [!provide]                PROVIDE (__stop_cli_command, .)

.sdh_stack_observers
                0x0003b704        0x0
                [!provide]                PROVIDE (__start_sdh_stack_observers, .)
 *(SORT(.sdh_stack_observers*))
                [!provide]                PROVIDE (__stop_sdh_stack_observers, .)

.sdh_req_observers
                0x0003b704        0x0
                [!provide]                PROVIDE (__start_sdh_req_observers, .)
 *(SORT(.sdh_req_observers*))
                [!provide]                PROVIDE (__stop_sdh_req_observers, .)

.sdh_state_observers
                0x0003b704        0x0
                [!provide]                PROVIDE (__start_sdh_state_observers, .)
 *(SORT(.sdh_state_observers*))
                [!provide]                PROVIDE (__stop_sdh_state_observers, .)

.sdh_ant_observers
                0x0003b704        0x0
                [!provide]                PROVIDE (__start_sdh_ant_observers, .)
 *(SORT(.sdh_ant_observers*))
                [!provide]                PROVIDE (__stop_sdh_ant_observers, .)

.sdh_ble_observers
                0x0003b704        0x0
                [!provide]                PROVIDE (__start_sdh_ble_observers, .)
 *(SORT(.sdh_ble_observers*))
                [!provide]                PROVIDE (__stop_sdh_ble_observers, .)

.sdh_soc_observers
                0x0003b704        0x0
                [!provide]                PROVIDE (__start_sdh_soc_observers, .)
 *(SORT(.sdh_soc_observers*))
                [!provide]                PROVIDE (__stop_sdh_soc_observers, .)

.nrf_mesh_flash
                0x0003b704       0xb8
                [!provide]                PROVIDE (__start_nrf_mesh_flash, .)
 *(SORT(.nrf_mesh_flash.*))
 .nrf_mesh_flash.mesh_config_entries__0
                0x0003b704        0x0 examples/pb_remote/server/CMakeFiles/pb_remote_server_nrf52840_xxAA_s140_6.0.0.dir/__/__/__/mesh/core/src/mesh_config.c.obj
                0x0003b704                __nrf_mesh_start_mesh_config_entries
 .nrf_mesh_flash.mesh_config_entries__1
                0x0003b704       0x1c examples/pb_remote/server/CMakeFiles/pb_remote_server_nrf52840_xxAA_s140_6.0.0.dir/__/__/__/mesh/core/src/heartbeat.c.obj
                0x0003b704                m_heartbeat_publication_params
 .nrf_mesh_flash.mesh_config_entries__1
                0x0003b720       0x1c examples/pb_remote/server/CMakeFiles/pb_remote_server_nrf52840_xxAA_s140_6.0.0.dir/__/__/__/mesh/core/src/net_beacon.c.obj
                0x0003b720                m_net_beacon_enable_params
 .nrf_mesh_flash.mesh_config_entries__1
                0x0003b73c       0x54 examples/pb_remote/server/CMakeFiles/pb_remote_server_nrf52840_xxAA_s140_6.0.0.dir/__/__/__/mesh/core/src/core_tx_adv.c.obj
                0x0003b73c                m_mesh_opt_core_adv_addr_params
                0x0003b758                m_mesh_opt_core_tx_power_params
                0x0003b774                m_mesh_opt_core_adv_params
 .nrf_mesh_flash.mesh_config_entries__1
                0x0003b790       0x1c examples/pb_remote/server/CMakeFiles/pb_remote_server_nrf52840_xxAA_s140_6.0.0.dir/__/__/__/mesh/prov/src/prov_utils.c.obj
                0x0003b790                m_ecdh_offloading_params
 .nrf_mesh_flash.mesh_config_entries__2
                0x0003b7ac        0x0 examples/pb_remote/server/CMakeFiles/pb_remote_server_nrf52840_xxAA_s140_6.0.0.dir/__/__/__/mesh/core/src/mesh_config.c.obj
                0x0003b7ac                __nrf_mesh_stop_mesh_config_entries
 .nrf_mesh_flash.mesh_config_entry_listeners__0
                0x0003b7ac        0x0 examples/pb_remote/server/CMakeFiles/pb_remote_server_nrf52840_xxAA_s140_6.0.0.dir/__/__/__/mesh/core/src/mesh_config.c.obj
                0x0003b7ac                __nrf_mesh_start_mesh_config_entry_listeners
 .nrf_mesh_flash.mesh_config_entry_listeners__1
                0x0003b7ac        0x8 examples/pb_remote/server/CMakeFiles/pb_remote_server_nrf52840_xxAA_s140_6.0.0.dir/__/__/__/mesh/core/src/heartbeat.c.obj
                0x0003b7ac                m_heartbeat_relay_listener
 .nrf_mesh_flash.mesh_config_entry_listeners__2
                0x0003b7b4        0x0 examples/pb_remote/server/CMakeFiles/pb_remote_server_nrf52840_xxAA_s140_6.0.0.dir/__/__/__/mesh/core/src/mesh_config.c.obj
                0x0003b7b4                __nrf_mesh_stop_mesh_config_entry_listeners
 .nrf_mesh_flash.mesh_config_files__0
                0x0003b7b4        0x0 examples/pb_remote/server/CMakeFiles/pb_remote_server_nrf52840_xxAA_s140_6.0.0.dir/__/__/__/mesh/core/src/mesh_config.c.obj
                0x0003b7b4                __nrf_mesh_start_mesh_config_files
 .nrf_mesh_flash.mesh_config_files__1
                0x0003b7b4        0x8 examples/pb_remote/server/CMakeFiles/pb_remote_server_nrf52840_xxAA_s140_6.0.0.dir/__/__/__/mesh/core/src/mesh_opt.c.obj
                0x0003b7b4                m_mesh_opt_core_file
 .nrf_mesh_flash.mesh_config_files__2
                0x0003b7bc        0x0 examples/pb_remote/server/CMakeFiles/pb_remote_server_nrf52840_xxAA_s140_6.0.0.dir/__/__/__/mesh/core/src/mesh_config.c.obj
                0x0003b7bc                __nrf_mesh_stop_mesh_config_files
                [!provide]                PROVIDE (__stop_nrf_mesh_flash, .)

.ARM.extab
 *(.ARM.extab* .gnu.linkonce.armextab.*)
                0x0003b7bc                __exidx_start = .

.ARM.exidx      0x0003b7bc        0x8
 *(.ARM.exidx* .gnu.linkonce.armexidx.*)
 .ARM.exidx     0x0003b7bc        0x8 c:/arm_gcc/bin/../lib/gcc/arm-none-eabi/6.3.1/../../../../arm-none-eabi/lib/thumb/v7e-m/fpv4-sp/hard/crt0.o
 .ARM.exidx     0x0003b7c4        0x0 c:/arm_gcc/bin/../lib/gcc/arm-none-eabi/6.3.1/thumb/v7e-m/fpv4-sp/hard\libgcc.a(_udivmoddi4.o)
                                  0x8 (size before relaxing)
                0x0003b7c4                __exidx_end = .
                0x0003b7c4                __etext = .

.rel.dyn        0x0003b7c4        0x0
 .rel.iplt      0x0003b7c4        0x0 c:/arm_gcc/bin/../lib/gcc/arm-none-eabi/6.3.1/thumb/v7e-m/fpv4-sp/hard/crtbegin.o

.data           0x20002da0      0x144 load address 0x0003b7c4
                0x20002da0                __data_start__ = .
 *(vtable)
 *(.data*)
 .data.wait.9235
                0x20002da0        0x1 examples/pb_remote/server/CMakeFiles/pb_remote_server_nrf52840_xxAA_s140_6.0.0.dir/__/__/common/src/app_error_weak.c.obj
 *fill*         0x20002da1        0x3 
 .data.mem_listener.10713
                0x20002da4       0x10 examples/pb_remote/server/CMakeFiles/pb_remote_server_nrf52840_xxAA_s140_6.0.0.dir/__/__/__/mesh/core/src/net_state.c.obj
 .data.mem_listener.10718
                0x20002db4       0x10 examples/pb_remote/server/CMakeFiles/pb_remote_server_nrf52840_xxAA_s140_6.0.0.dir/__/__/__/mesh/core/src/net_state.c.obj
 .data.mem_listener.10732
                0x20002dc4       0x10 examples/pb_remote/server/CMakeFiles/pb_remote_server_nrf52840_xxAA_s140_6.0.0.dir/__/__/__/mesh/core/src/net_state.c.obj
 .data.mem_listener.10749
                0x20002dd4       0x10 examples/pb_remote/server/CMakeFiles/pb_remote_server_nrf52840_xxAA_s140_6.0.0.dir/__/__/__/mesh/core/src/net_state.c.obj
 .data.m_nrf_mesh_listener
                0x20002de4        0xc examples/pb_remote/server/CMakeFiles/pb_remote_server_nrf52840_xxAA_s140_6.0.0.dir/__/__/__/mesh/core/src/nrf_mesh.c.obj
 .data.g_log_dbg_lvl
                0x20002df0        0x4 examples/pb_remote/server/CMakeFiles/pb_remote_server_nrf52840_xxAA_s140_6.0.0.dir/__/__/__/mesh/core/src/log.c.obj
                0x20002df0                g_log_dbg_lvl
 .data.g_log_dbg_msk
                0x20002df4        0x4 examples/pb_remote/server/CMakeFiles/pb_remote_server_nrf52840_xxAA_s140_6.0.0.dir/__/__/__/mesh/core/src/log.c.obj
                0x20002df4                g_log_dbg_msk
 .data.g_log_hex_digits
                0x20002df8        0x4 examples/pb_remote/server/CMakeFiles/pb_remote_server_nrf52840_xxAA_s140_6.0.0.dir/__/__/__/mesh/core/src/log.c.obj
                0x20002df8                g_log_hex_digits
 .data.m_log_callback
                0x20002dfc        0x4 examples/pb_remote/server/CMakeFiles/pb_remote_server_nrf52840_xxAA_s140_6.0.0.dir/__/__/__/mesh/core/src/log.c.obj
                0x20002dfc                m_log_callback
 .data.m_default_adv
                0x20002e00        0x4 examples/pb_remote/server/CMakeFiles/pb_remote_server_nrf52840_xxAA_s140_6.0.0.dir/__/__/__/mesh/core/src/core_tx_adv.c.obj
 .data.m_async_process_flag
                0x20002e04        0x4 examples/pb_remote/server/CMakeFiles/pb_remote_server_nrf52840_xxAA_s140_6.0.0.dir/__/__/__/mesh/prov/src/prov_bearer_adv.c.obj
 .data.flash_add_mem_available_struct.11290
                0x20002e08       0x10 examples/pb_remote/server/CMakeFiles/pb_remote_server_nrf52840_xxAA_s140_6.0.0.dir/__/__/__/mesh/access/src/access.c.obj
 .data.flash_clear_mem_available_struct.11379
                0x20002e18       0x10 examples/pb_remote/server/CMakeFiles/pb_remote_server_nrf52840_xxAA_s140_6.0.0.dir/__/__/__/mesh/access/src/access.c.obj
 .data.flash_store_mem_available_struct.11403
                0x20002e28       0x10 examples/pb_remote/server/CMakeFiles/pb_remote_server_nrf52840_xxAA_s140_6.0.0.dir/__/__/__/mesh/access/src/access.c.obj
 .data.m_default_ttl
                0x20002e38        0x1 examples/pb_remote/server/CMakeFiles/pb_remote_server_nrf52840_xxAA_s140_6.0.0.dir/__/__/__/mesh/access/src/access.c.obj
 *fill*         0x20002e39        0x3 
 .data.mem_listener.11801
                0x20002e3c       0x10 examples/pb_remote/server/CMakeFiles/pb_remote_server_nrf52840_xxAA_s140_6.0.0.dir/__/__/__/mesh/access/src/device_state_manager.c.obj
 .data.mem_listener.11827
                0x20002e4c       0x10 examples/pb_remote/server/CMakeFiles/pb_remote_server_nrf52840_xxAA_s140_6.0.0.dir/__/__/__/mesh/access/src/device_state_manager.c.obj
 .data.m_config_server_handle
                0x20002e5c        0x2 examples/pb_remote/server/CMakeFiles/pb_remote_server_nrf52840_xxAA_s140_6.0.0.dir/__/__/__/models/foundation/config/src/config_server.c.obj
 *fill*         0x20002e5e        0x2 
 .data.m_mesh_evt_handler
                0x20002e60        0xc examples/pb_remote/server/CMakeFiles/pb_remote_server_nrf52840_xxAA_s140_6.0.0.dir/__/__/__/models/foundation/config/src/config_server.c.obj
 .data.SystemCoreClock
                0x20002e6c        0x4 examples/pb_remote/server/CMakeFiles/pb_remote_server_nrf52840_xxAA_s140_6.0.0.dir/C_/sdks/nRF5_SDK_15.0.0_a53641a/modules/nrfx/mdk/system_nrf52840.c.obj
                0x20002e6c                SystemCoreClock
 .data.g_rng_function
                0x20002e70        0x4 external/micro-ecc/libuECC_nrf52840_xxAA.a(uECC.c.obj)
 .data._impure_ptr
                0x20002e74        0x4 c:/arm_gcc/bin/../lib/gcc/arm-none-eabi/6.3.1/../../../../arm-none-eabi/lib/thumb/v7e-m/fpv4-sp/hard\libg_nano.a(lib_a-impure.o)
                0x20002e74                _impure_ptr
 .data.impure_data
                0x20002e78       0x60 c:/arm_gcc/bin/../lib/gcc/arm-none-eabi/6.3.1/../../../../arm-none-eabi/lib/thumb/v7e-m/fpv4-sp/hard\libg_nano.a(lib_a-impure.o)
                0x20002ed8                . = ALIGN (0x4)
                0x20002ed8                PROVIDE (__preinit_array_start, .)
 *(.preinit_array)
                0x20002ed8                PROVIDE (__preinit_array_end, .)
                0x20002ed8                . = ALIGN (0x4)
                0x20002ed8                PROVIDE (__init_array_start, .)
 *(SORT(.init_array.*))
 *(.init_array)
 .init_array    0x20002ed8        0x4 c:/arm_gcc/bin/../lib/gcc/arm-none-eabi/6.3.1/thumb/v7e-m/fpv4-sp/hard/crtbegin.o
                0x20002edc                PROVIDE (__init_array_end, .)
                0x20002edc                . = ALIGN (0x4)
                [!provide]                PROVIDE (__fini_array_start, .)
 *(SORT(.fini_array.*))
 *(.fini_array)
 .fini_array    0x20002edc        0x4 c:/arm_gcc/bin/../lib/gcc/arm-none-eabi/6.3.1/thumb/v7e-m/fpv4-sp/hard/crtbegin.o
                [!provide]                PROVIDE (__fini_array_end, .)
 *(.jcr*)
 .jcr           0x20002ee0        0x0 c:/arm_gcc/bin/../lib/gcc/arm-none-eabi/6.3.1/thumb/v7e-m/fpv4-sp/hard/crtbegin.o
 .jcr           0x20002ee0        0x4 c:/arm_gcc/bin/../lib/gcc/arm-none-eabi/6.3.1/thumb/v7e-m/fpv4-sp/hard/crtend.o
                0x20002ee4                . = ALIGN (0x4)
                0x20002ee4                __data_end__ = .
LOAD c:/arm_gcc/bin/../lib/gcc/arm-none-eabi/6.3.1/thumb/v7e-m/fpv4-sp/hard/crti.o
LOAD c:/arm_gcc/bin/../lib/gcc/arm-none-eabi/6.3.1/thumb/v7e-m/fpv4-sp/hard/crtbegin.o
LOAD c:/arm_gcc/bin/../lib/gcc/arm-none-eabi/6.3.1/../../../../arm-none-eabi/lib/thumb/v7e-m/fpv4-sp/hard/crt0.o
LOAD examples/pb_remote/server/CMakeFiles/pb_remote_server_nrf52840_xxAA_s140_6.0.0.dir/src/main.c.obj
LOAD examples/pb_remote/server/CMakeFiles/pb_remote_server_nrf52840_xxAA_s140_6.0.0.dir/__/__/__/mesh/stack/src/mesh_stack.c.obj
LOAD examples/pb_remote/server/CMakeFiles/pb_remote_server_nrf52840_xxAA_s140_6.0.0.dir/__/__/common/src/mesh_softdevice_init.c.obj
LOAD examples/pb_remote/server/CMakeFiles/pb_remote_server_nrf52840_xxAA_s140_6.0.0.dir/__/__/common/src/mesh_provisionee.c.obj
LOAD examples/pb_remote/server/CMakeFiles/pb_remote_server_nrf52840_xxAA_s140_6.0.0.dir/__/__/common/src/simple_hal.c.obj
LOAD examples/pb_remote/server/CMakeFiles/pb_remote_server_nrf52840_xxAA_s140_6.0.0.dir/__/__/nrf_mesh_weak.c.obj
LOAD examples/pb_remote/server/CMakeFiles/pb_remote_server_nrf52840_xxAA_s140_6.0.0.dir/__/__/common/src/app_error_weak.c.obj
LOAD examples/pb_remote/server/CMakeFiles/pb_remote_server_nrf52840_xxAA_s140_6.0.0.dir/__/__/common/src/assertion_handler_weak.c.obj
LOAD examples/pb_remote/server/CMakeFiles/pb_remote_server_nrf52840_xxAA_s140_6.0.0.dir/__/__/__/mesh/core/src/internal_event.c.obj
LOAD examples/pb_remote/server/CMakeFiles/pb_remote_server_nrf52840_xxAA_s140_6.0.0.dir/__/__/__/mesh/core/src/nrf_mesh_configure.c.obj
LOAD examples/pb_remote/server/CMakeFiles/pb_remote_server_nrf52840_xxAA_s140_6.0.0.dir/__/__/__/mesh/core/src/aes.c.obj
LOAD examples/pb_remote/server/CMakeFiles/pb_remote_server_nrf52840_xxAA_s140_6.0.0.dir/__/__/__/mesh/core/src/msg_cache.c.obj
LOAD examples/pb_remote/server/CMakeFiles/pb_remote_server_nrf52840_xxAA_s140_6.0.0.dir/__/__/__/mesh/core/src/transport.c.obj
LOAD examples/pb_remote/server/CMakeFiles/pb_remote_server_nrf52840_xxAA_s140_6.0.0.dir/__/__/__/mesh/core/src/event.c.obj
LOAD examples/pb_remote/server/CMakeFiles/pb_remote_server_nrf52840_xxAA_s140_6.0.0.dir/__/__/__/mesh/core/src/packet_buffer.c.obj
LOAD examples/pb_remote/server/CMakeFiles/pb_remote_server_nrf52840_xxAA_s140_6.0.0.dir/__/__/__/mesh/core/src/flash_manager_defrag.c.obj
LOAD examples/pb_remote/server/CMakeFiles/pb_remote_server_nrf52840_xxAA_s140_6.0.0.dir/__/__/__/mesh/core/src/fifo.c.obj
LOAD examples/pb_remote/server/CMakeFiles/pb_remote_server_nrf52840_xxAA_s140_6.0.0.dir/__/__/__/mesh/core/src/nrf_flash.c.obj
LOAD examples/pb_remote/server/CMakeFiles/pb_remote_server_nrf52840_xxAA_s140_6.0.0.dir/__/__/__/mesh/core/src/packet_mgr.c.obj
LOAD examples/pb_remote/server/CMakeFiles/pb_remote_server_nrf52840_xxAA_s140_6.0.0.dir/__/__/__/mesh/core/src/net_state.c.obj
LOAD examples/pb_remote/server/CMakeFiles/pb_remote_server_nrf52840_xxAA_s140_6.0.0.dir/__/__/__/mesh/core/src/mesh_flash.c.obj
LOAD examples/pb_remote/server/CMakeFiles/pb_remote_server_nrf52840_xxAA_s140_6.0.0.dir/__/__/__/mesh/core/src/nrf_mesh_utils.c.obj
LOAD examples/pb_remote/server/CMakeFiles/pb_remote_server_nrf52840_xxAA_s140_6.0.0.dir/__/__/__/mesh/core/src/nrf_mesh.c.obj
LOAD examples/pb_remote/server/CMakeFiles/pb_remote_server_nrf52840_xxAA_s140_6.0.0.dir/__/__/__/mesh/core/src/queue.c.obj
LOAD examples/pb_remote/server/CMakeFiles/pb_remote_server_nrf52840_xxAA_s140_6.0.0.dir/__/__/__/mesh/core/src/hal.c.obj
LOAD examples/pb_remote/server/CMakeFiles/pb_remote_server_nrf52840_xxAA_s140_6.0.0.dir/__/__/__/mesh/core/src/aes_cmac.c.obj
LOAD examples/pb_remote/server/CMakeFiles/pb_remote_server_nrf52840_xxAA_s140_6.0.0.dir/__/__/__/mesh/core/src/timer_scheduler.c.obj
LOAD examples/pb_remote/server/CMakeFiles/pb_remote_server_nrf52840_xxAA_s140_6.0.0.dir/__/__/__/mesh/core/src/timer.c.obj
LOAD examples/pb_remote/server/CMakeFiles/pb_remote_server_nrf52840_xxAA_s140_6.0.0.dir/__/__/__/mesh/core/src/rand.c.obj
LOAD examples/pb_remote/server/CMakeFiles/pb_remote_server_nrf52840_xxAA_s140_6.0.0.dir/__/__/__/mesh/core/src/nrf_mesh_opt.c.obj
LOAD examples/pb_remote/server/CMakeFiles/pb_remote_server_nrf52840_xxAA_s140_6.0.0.dir/__/__/__/mesh/core/src/mesh_opt.c.obj
LOAD examples/pb_remote/server/CMakeFiles/pb_remote_server_nrf52840_xxAA_s140_6.0.0.dir/__/__/__/mesh/core/src/timeslot.c.obj
LOAD examples/pb_remote/server/CMakeFiles/pb_remote_server_nrf52840_xxAA_s140_6.0.0.dir/__/__/__/mesh/core/src/bearer_event.c.obj
LOAD examples/pb_remote/server/CMakeFiles/pb_remote_server_nrf52840_xxAA_s140_6.0.0.dir/__/__/__/mesh/core/src/enc.c.obj
LOAD examples/pb_remote/server/CMakeFiles/pb_remote_server_nrf52840_xxAA_s140_6.0.0.dir/__/__/__/mesh/core/src/network.c.obj
LOAD examples/pb_remote/server/CMakeFiles/pb_remote_server_nrf52840_xxAA_s140_6.0.0.dir/__/__/__/mesh/core/src/net_packet.c.obj
LOAD examples/pb_remote/server/CMakeFiles/pb_remote_server_nrf52840_xxAA_s140_6.0.0.dir/__/__/__/mesh/core/src/msqueue.c.obj
LOAD examples/pb_remote/server/CMakeFiles/pb_remote_server_nrf52840_xxAA_s140_6.0.0.dir/__/__/__/mesh/core/src/nrf_mesh_keygen.c.obj
LOAD examples/pb_remote/server/CMakeFiles/pb_remote_server_nrf52840_xxAA_s140_6.0.0.dir/__/__/__/mesh/core/src/cache.c.obj
LOAD examples/pb_remote/server/CMakeFiles/pb_remote_server_nrf52840_xxAA_s140_6.0.0.dir/__/__/__/mesh/core/src/list.c.obj
LOAD examples/pb_remote/server/CMakeFiles/pb_remote_server_nrf52840_xxAA_s140_6.0.0.dir/__/__/__/mesh/core/src/log.c.obj
LOAD examples/pb_remote/server/CMakeFiles/pb_remote_server_nrf52840_xxAA_s140_6.0.0.dir/__/__/__/mesh/core/src/flash_manager.c.obj
LOAD examples/pb_remote/server/CMakeFiles/pb_remote_server_nrf52840_xxAA_s140_6.0.0.dir/__/__/__/mesh/core/src/ccm_soft.c.obj
LOAD examples/pb_remote/server/CMakeFiles/pb_remote_server_nrf52840_xxAA_s140_6.0.0.dir/__/__/__/mesh/core/src/toolchain.c.obj
LOAD examples/pb_remote/server/CMakeFiles/pb_remote_server_nrf52840_xxAA_s140_6.0.0.dir/__/__/__/mesh/core/src/replay_cache.c.obj
LOAD examples/pb_remote/server/CMakeFiles/pb_remote_server_nrf52840_xxAA_s140_6.0.0.dir/__/__/__/mesh/core/src/beacon.c.obj
LOAD examples/pb_remote/server/CMakeFiles/pb_remote_server_nrf52840_xxAA_s140_6.0.0.dir/__/__/__/mesh/core/src/flash_manager_internal.c.obj
LOAD examples/pb_remote/server/CMakeFiles/pb_remote_server_nrf52840_xxAA_s140_6.0.0.dir/__/__/__/mesh/core/src/core_tx.c.obj
LOAD examples/pb_remote/server/CMakeFiles/pb_remote_server_nrf52840_xxAA_s140_6.0.0.dir/__/__/__/mesh/core/src/heartbeat.c.obj
LOAD examples/pb_remote/server/CMakeFiles/pb_remote_server_nrf52840_xxAA_s140_6.0.0.dir/__/__/__/mesh/core/src/net_beacon.c.obj
LOAD examples/pb_remote/server/CMakeFiles/pb_remote_server_nrf52840_xxAA_s140_6.0.0.dir/__/__/__/mesh/core/src/mesh_config.c.obj
LOAD examples/pb_remote/server/CMakeFiles/pb_remote_server_nrf52840_xxAA_s140_6.0.0.dir/__/__/__/mesh/core/src/fsm.c.obj
LOAD examples/pb_remote/server/CMakeFiles/pb_remote_server_nrf52840_xxAA_s140_6.0.0.dir/__/__/__/mesh/core/src/mesh_config_backend.c.obj
LOAD examples/pb_remote/server/CMakeFiles/pb_remote_server_nrf52840_xxAA_s140_6.0.0.dir/__/__/__/mesh/core/src/mesh_config_flashman_glue.c.obj
LOAD examples/pb_remote/server/CMakeFiles/pb_remote_server_nrf52840_xxAA_s140_6.0.0.dir/__/__/__/mesh/core/src/core_tx_adv.c.obj
LOAD examples/pb_remote/server/CMakeFiles/pb_remote_server_nrf52840_xxAA_s140_6.0.0.dir/__/__/__/mesh/bearer/src/ad_listener.c.obj
LOAD examples/pb_remote/server/CMakeFiles/pb_remote_server_nrf52840_xxAA_s140_6.0.0.dir/__/__/__/mesh/bearer/src/ad_type_filter.c.obj
LOAD examples/pb_remote/server/CMakeFiles/pb_remote_server_nrf52840_xxAA_s140_6.0.0.dir/__/__/__/mesh/bearer/src/adv_packet_filter.c.obj
LOAD examples/pb_remote/server/CMakeFiles/pb_remote_server_nrf52840_xxAA_s140_6.0.0.dir/__/__/__/mesh/bearer/src/advertiser.c.obj
LOAD examples/pb_remote/server/CMakeFiles/pb_remote_server_nrf52840_xxAA_s140_6.0.0.dir/__/__/__/mesh/bearer/src/bearer_handler.c.obj
LOAD examples/pb_remote/server/CMakeFiles/pb_remote_server_nrf52840_xxAA_s140_6.0.0.dir/__/__/__/mesh/bearer/src/broadcast.c.obj
LOAD examples/pb_remote/server/CMakeFiles/pb_remote_server_nrf52840_xxAA_s140_6.0.0.dir/__/__/__/mesh/bearer/src/filter_engine.c.obj
LOAD examples/pb_remote/server/CMakeFiles/pb_remote_server_nrf52840_xxAA_s140_6.0.0.dir/__/__/__/mesh/bearer/src/gap_address_filter.c.obj
LOAD examples/pb_remote/server/CMakeFiles/pb_remote_server_nrf52840_xxAA_s140_6.0.0.dir/__/__/__/mesh/bearer/src/radio_config.c.obj
LOAD examples/pb_remote/server/CMakeFiles/pb_remote_server_nrf52840_xxAA_s140_6.0.0.dir/__/__/__/mesh/bearer/src/rssi_filter.c.obj
LOAD examples/pb_remote/server/CMakeFiles/pb_remote_server_nrf52840_xxAA_s140_6.0.0.dir/__/__/__/mesh/bearer/src/scanner.c.obj
LOAD examples/pb_remote/server/CMakeFiles/pb_remote_server_nrf52840_xxAA_s140_6.0.0.dir/__/__/__/mesh/bearer/src/mesh_pa_lna.c.obj
LOAD examples/pb_remote/server/CMakeFiles/pb_remote_server_nrf52840_xxAA_s140_6.0.0.dir/__/__/__/mesh/prov/src/prov_provisionee.c.obj
LOAD examples/pb_remote/server/CMakeFiles/pb_remote_server_nrf52840_xxAA_s140_6.0.0.dir/__/__/__/mesh/prov/src/nrf_mesh_prov.c.obj
LOAD examples/pb_remote/server/CMakeFiles/pb_remote_server_nrf52840_xxAA_s140_6.0.0.dir/__/__/__/mesh/prov/src/provisioning.c.obj
LOAD examples/pb_remote/server/CMakeFiles/pb_remote_server_nrf52840_xxAA_s140_6.0.0.dir/__/__/__/mesh/prov/src/prov_beacon.c.obj
LOAD examples/pb_remote/server/CMakeFiles/pb_remote_server_nrf52840_xxAA_s140_6.0.0.dir/__/__/__/mesh/prov/src/prov_utils.c.obj
LOAD examples/pb_remote/server/CMakeFiles/pb_remote_server_nrf52840_xxAA_s140_6.0.0.dir/__/__/__/mesh/prov/src/prov_bearer_adv.c.obj
LOAD examples/pb_remote/server/CMakeFiles/pb_remote_server_nrf52840_xxAA_s140_6.0.0.dir/__/__/__/models/experimental/pb_remote/src/pb_remote_server.c.obj
LOAD examples/pb_remote/server/CMakeFiles/pb_remote_server_nrf52840_xxAA_s140_6.0.0.dir/__/__/__/mesh/access/src/access_publish.c.obj
LOAD examples/pb_remote/server/CMakeFiles/pb_remote_server_nrf52840_xxAA_s140_6.0.0.dir/__/__/__/mesh/access/src/access.c.obj
LOAD examples/pb_remote/server/CMakeFiles/pb_remote_server_nrf52840_xxAA_s140_6.0.0.dir/__/__/__/mesh/access/src/access_reliable.c.obj
LOAD examples/pb_remote/server/CMakeFiles/pb_remote_server_nrf52840_xxAA_s140_6.0.0.dir/__/__/__/mesh/access/src/access_loopback.c.obj
LOAD examples/pb_remote/server/CMakeFiles/pb_remote_server_nrf52840_xxAA_s140_6.0.0.dir/__/__/__/mesh/access/src/device_state_manager.c.obj
LOAD examples/pb_remote/server/CMakeFiles/pb_remote_server_nrf52840_xxAA_s140_6.0.0.dir/__/__/__/models/foundation/config/src/composition_data.c.obj
LOAD examples/pb_remote/server/CMakeFiles/pb_remote_server_nrf52840_xxAA_s140_6.0.0.dir/__/__/__/models/foundation/config/src/config_server.c.obj
LOAD examples/pb_remote/server/CMakeFiles/pb_remote_server_nrf52840_xxAA_s140_6.0.0.dir/__/__/__/models/foundation/config/src/packed_index_list.c.obj
LOAD examples/pb_remote/server/CMakeFiles/pb_remote_server_nrf52840_xxAA_s140_6.0.0.dir/__/__/__/models/foundation/health/src/health_server.c.obj
LOAD examples/pb_remote/server/CMakeFiles/pb_remote_server_nrf52840_xxAA_s140_6.0.0.dir/C_/sdks/nRF5_SDK_15.0.0_a53641a/modules/nrfx/mdk/system_nrf52840.c.obj
LOAD examples/pb_remote/server/CMakeFiles/pb_remote_server_nrf52840_xxAA_s140_6.0.0.dir/C_/sdks/nRF5_SDK_15.0.0_a53641a/modules/nrfx/mdk/gcc_startup_nrf52840.S.obj
LOAD examples/pb_remote/server/CMakeFiles/pb_remote_server_nrf52840_xxAA_s140_6.0.0.dir/C_/sdks/nRF5_SDK_15.0.0_a53641a/components/libraries/util/app_error.c.obj
LOAD examples/pb_remote/server/CMakeFiles/pb_remote_server_nrf52840_xxAA_s140_6.0.0.dir/C_/sdks/nRF5_SDK_15.0.0_a53641a/components/libraries/util/app_util_platform.c.obj
LOAD examples/pb_remote/server/CMakeFiles/pb_remote_server_nrf52840_xxAA_s140_6.0.0.dir/C_/sdks/nRF5_SDK_15.0.0_a53641a/components/libraries/timer/app_timer.c.obj
LOAD examples/pb_remote/server/CMakeFiles/pb_remote_server_nrf52840_xxAA_s140_6.0.0.dir/C_/sdks/nRF5_SDK_15.0.0_a53641a/components/libraries/util/app_error_handler_gcc.c.obj
LOAD external/rtt/librtt_nrf52840_xxAA.a
LOAD external/micro-ecc/libuECC_nrf52840_xxAA.a
START GROUP
LOAD c:/arm_gcc/bin/../lib/gcc/arm-none-eabi/6.3.1/thumb/v7e-m/fpv4-sp/hard\libgcc.a
LOAD c:/arm_gcc/bin/../lib/gcc/arm-none-eabi/6.3.1/../../../../arm-none-eabi/lib/thumb/v7e-m/fpv4-sp/hard\libg_nano.a
LOAD c:/arm_gcc/bin/../lib/gcc/arm-none-eabi/6.3.1/../../../../arm-none-eabi/lib/thumb/v7e-m/fpv4-sp/hard\libc_nano.a
END GROUP
START GROUP
LOAD c:/arm_gcc/bin/../lib/gcc/arm-none-eabi/6.3.1/thumb/v7e-m/fpv4-sp/hard\libgcc.a
LOAD c:/arm_gcc/bin/../lib/gcc/arm-none-eabi/6.3.1/../../../../arm-none-eabi/lib/thumb/v7e-m/fpv4-sp/hard\libc_nano.a
END GROUP
LOAD c:/arm_gcc/bin/../lib/gcc/arm-none-eabi/6.3.1/thumb/v7e-m/fpv4-sp/hard/crtend.o
LOAD c:/arm_gcc/bin/../lib/gcc/arm-none-eabi/6.3.1/thumb/v7e-m/fpv4-sp/hard/crtn.o
START GROUP
LOAD c:/arm_gcc/bin/../lib/gcc/arm-none-eabi/6.3.1/thumb/v7e-m/fpv4-sp/hard\libgcc.a
LOAD c:/arm_gcc/bin/../lib/gcc/arm-none-eabi/6.3.1/../../../../arm-none-eabi/lib/thumb/v7e-m/fpv4-sp/hard\libc.a
LOAD c:/arm_gcc/bin/../lib/gcc/arm-none-eabi/6.3.1/../../../../arm-none-eabi/lib/thumb/v7e-m/fpv4-sp/hard\libnosys.a
END GROUP

.igot.plt       0x20002ee4        0x0 load address 0x0003b908
 .igot.plt      0x20002ee4        0x0 c:/arm_gcc/bin/../lib/gcc/arm-none-eabi/6.3.1/thumb/v7e-m/fpv4-sp/hard/crtbegin.o
                0x20002ee4                . = ALIGN (0x4)

.svc_data       0x20002ee4        0x0
                [!provide]                PROVIDE (__start_svc_data, .)
 *(.svc_data)
                [!provide]                PROVIDE (__stop_svc_data, .)

.fs_data        0x20002ee4        0x0
                [!provide]                PROVIDE (__start_fs_data, .)
 *(.fs_data)
                [!provide]                PROVIDE (__stop_fs_data, .)

.log_dynamic_data
                0x20002ee4        0x0
                [!provide]                PROVIDE (__start_log_dynamic_data, .)
 *(.log_dynamic_data)
                [!provide]                PROVIDE (__stop_log_dynamic_data, .)

.cli_sorted_cmd_ptrs
                0x20002ee4        0x0
                [!provide]                PROVIDE (__start_cli_sorted_cmd_ptrs, .)
 *(.cli_sorted_cmd_ptrs)
                [!provide]                PROVIDE (__stop_cli_sorted_cmd_ptrs, .)

.nrf_mesh_ram   0x20002ee4        0x0
                [!provide]                PROVIDE (__start_nrf_mesh_ram, .)
 *(SORT(.nrf_mesh_ram.*))
                [!provide]                PROVIDE (__stop_nrf_mesh_ram, .)

.bss            0x20002ee8     0x350c load address 0x0003b910
                0x20002ee8                . = ALIGN (0x4)
                0x20002ee8                __bss_start__ = .
 *(.bss*)
 .bss           0x20002ee8       0x1c c:/arm_gcc/bin/../lib/gcc/arm-none-eabi/6.3.1/thumb/v7e-m/fpv4-sp/hard/crtbegin.o
 .bss.m_appkey_handle
                0x20002f04        0x2 examples/pb_remote/server/CMakeFiles/pb_remote_server_nrf52840_xxAA_s140_6.0.0.dir/src/main.c.obj
 .bss.m_device_provisioned
                0x20002f06        0x1 examples/pb_remote/server/CMakeFiles/pb_remote_server_nrf52840_xxAA_s140_6.0.0.dir/src/main.c.obj
 *fill*         0x20002f07        0x1 
 .bss.m_prov_bearer_adv
                0x20002f08      0x1c8 examples/pb_remote/server/CMakeFiles/pb_remote_server_nrf52840_xxAA_s140_6.0.0.dir/src/main.c.obj
 .bss.m_provisioner_address_handle
                0x200030d0        0x2 examples/pb_remote/server/CMakeFiles/pb_remote_server_nrf52840_xxAA_s140_6.0.0.dir/src/main.c.obj
 *fill*         0x200030d2        0x2 
 .bss.m_remote_server
                0x200030d4       0x2c examples/pb_remote/server/CMakeFiles/pb_remote_server_nrf52840_xxAA_s140_6.0.0.dir/src/main.c.obj
 .bss.m_health_server
                0x20003100       0x5c examples/pb_remote/server/CMakeFiles/pb_remote_server_nrf52840_xxAA_s140_6.0.0.dir/__/__/__/mesh/stack/src/mesh_stack.c.obj
 .bss.m_device_provisioned
                0x2000315c        0x1 examples/pb_remote/server/CMakeFiles/pb_remote_server_nrf52840_xxAA_s140_6.0.0.dir/__/__/common/src/mesh_provisionee.c.obj
 *fill*         0x2000315d        0x3 
 .bss.m_params  0x20003160        0xc examples/pb_remote/server/CMakeFiles/pb_remote_server_nrf52840_xxAA_s140_6.0.0.dir/__/__/common/src/mesh_provisionee.c.obj
 .bss.m_private_key
                0x2000316c       0x20 examples/pb_remote/server/CMakeFiles/pb_remote_server_nrf52840_xxAA_s140_6.0.0.dir/__/__/common/src/mesh_provisionee.c.obj
 .bss.m_prov_bearer_adv
                0x2000318c      0x1c8 examples/pb_remote/server/CMakeFiles/pb_remote_server_nrf52840_xxAA_s140_6.0.0.dir/__/__/common/src/mesh_provisionee.c.obj
 .bss.m_prov_ctx
                0x20003354      0x134 examples/pb_remote/server/CMakeFiles/pb_remote_server_nrf52840_xxAA_s140_6.0.0.dir/__/__/common/src/mesh_provisionee.c.obj
 .bss.m_public_key
                0x20003488       0x40 examples/pb_remote/server/CMakeFiles/pb_remote_server_nrf52840_xxAA_s140_6.0.0.dir/__/__/common/src/mesh_provisionee.c.obj
 .bss.m_blink_count
                0x200034c8        0x4 examples/pb_remote/server/CMakeFiles/pb_remote_server_nrf52840_xxAA_s140_6.0.0.dir/__/__/common/src/simple_hal.c.obj
 .bss.m_blink_mask
                0x200034cc        0x4 examples/pb_remote/server/CMakeFiles/pb_remote_server_nrf52840_xxAA_s140_6.0.0.dir/__/__/common/src/simple_hal.c.obj
 .bss.m_blink_timer_data
                0x200034d0       0x20 examples/pb_remote/server/CMakeFiles/pb_remote_server_nrf52840_xxAA_s140_6.0.0.dir/__/__/common/src/simple_hal.c.obj
 .bss.m_button_handler_cb
                0x200034f0        0x4 examples/pb_remote/server/CMakeFiles/pb_remote_server_nrf52840_xxAA_s140_6.0.0.dir/__/__/common/src/simple_hal.c.obj
 .bss.m_last_button_press
                0x200034f4        0x4 examples/pb_remote/server/CMakeFiles/pb_remote_server_nrf52840_xxAA_s140_6.0.0.dir/__/__/common/src/simple_hal.c.obj
 .bss.m_uuid    0x200034f8       0x10 examples/pb_remote/server/CMakeFiles/pb_remote_server_nrf52840_xxAA_s140_6.0.0.dir/__/__/__/mesh/core/src/nrf_mesh_configure.c.obj
 .bss.m_msg_cache
                0x20003508      0x100 examples/pb_remote/server/CMakeFiles/pb_remote_server_nrf52840_xxAA_s140_6.0.0.dir/__/__/__/mesh/core/src/msg_cache.c.obj
 .bss.m_msg_cache_head
                0x20003608        0x4 examples/pb_remote/server/CMakeFiles/pb_remote_server_nrf52840_xxAA_s140_6.0.0.dir/__/__/__/mesh/core/src/msg_cache.c.obj
 .bss.m_control_packet_consumer_count
                0x2000360c        0x4 examples/pb_remote/server/CMakeFiles/pb_remote_server_nrf52840_xxAA_s140_6.0.0.dir/__/__/__/mesh/core/src/transport.c.obj
 .bss.m_control_packet_consumers
                0x20003610        0x8 examples/pb_remote/server/CMakeFiles/pb_remote_server_nrf52840_xxAA_s140_6.0.0.dir/__/__/__/mesh/core/src/transport.c.obj
 .bss.m_sar_alloc
                0x20003618        0x4 examples/pb_remote/server/CMakeFiles/pb_remote_server_nrf52840_xxAA_s140_6.0.0.dir/__/__/__/mesh/core/src/transport.c.obj
 .bss.m_sar_process_flag
                0x2000361c        0x4 examples/pb_remote/server/CMakeFiles/pb_remote_server_nrf52840_xxAA_s140_6.0.0.dir/__/__/__/mesh/core/src/transport.c.obj
 .bss.m_sar_release
                0x20003620        0x4 examples/pb_remote/server/CMakeFiles/pb_remote_server_nrf52840_xxAA_s140_6.0.0.dir/__/__/__/mesh/core/src/transport.c.obj
 .bss.m_sar_session_cache
                0x20003624       0x40 examples/pb_remote/server/CMakeFiles/pb_remote_server_nrf52840_xxAA_s140_6.0.0.dir/__/__/__/mesh/core/src/transport.c.obj
 .bss.m_sar_session_cache_head
                0x20003664        0x4 examples/pb_remote/server/CMakeFiles/pb_remote_server_nrf52840_xxAA_s140_6.0.0.dir/__/__/__/mesh/core/src/transport.c.obj
 .bss.m_trs_config
                0x20003668       0x18 examples/pb_remote/server/CMakeFiles/pb_remote_server_nrf52840_xxAA_s140_6.0.0.dir/__/__/__/mesh/core/src/transport.c.obj
 .bss.m_trs_sar_sessions
                0x20003680      0x1b0 examples/pb_remote/server/CMakeFiles/pb_remote_server_nrf52840_xxAA_s140_6.0.0.dir/__/__/__/mesh/core/src/transport.c.obj
 .bss.m_event_handler_state
                0x20003830        0x1 examples/pb_remote/server/CMakeFiles/pb_remote_server_nrf52840_xxAA_s140_6.0.0.dir/__/__/__/mesh/core/src/event.c.obj
 *fill*         0x20003831        0x3 
 .bss.mp_evt_handlers_head
                0x20003834        0x4 examples/pb_remote/server/CMakeFiles/pb_remote_server_nrf52840_xxAA_s140_6.0.0.dir/__/__/__/mesh/core/src/event.c.obj
 .bss.m_defrag  0x20003838       0x1c examples/pb_remote/server/CMakeFiles/pb_remote_server_nrf52840_xxAA_s140_6.0.0.dir/__/__/__/mesh/core/src/flash_manager_defrag.c.obj
 .bss.m_token   0x20003854        0x2 examples/pb_remote/server/CMakeFiles/pb_remote_server_nrf52840_xxAA_s140_6.0.0.dir/__/__/__/mesh/core/src/flash_manager_defrag.c.obj
 *fill*         0x20003856        0x2 
 .bss.mp_recovery_area
                0x20003858        0x4 examples/pb_remote/server/CMakeFiles/pb_remote_server_nrf52840_xxAA_s140_6.0.0.dir/__/__/__/mesh/core/src/flash_manager_defrag.c.obj
 .bss.p_null_ptr.10617
                0x2000385c        0x4 examples/pb_remote/server/CMakeFiles/pb_remote_server_nrf52840_xxAA_s140_6.0.0.dir/__/__/__/mesh/core/src/flash_manager_defrag.c.obj
 .bss.m_pool    0x20003860     0x1000 examples/pb_remote/server/CMakeFiles/pb_remote_server_nrf52840_xxAA_s140_6.0.0.dir/__/__/__/mesh/core/src/packet_mgr.c.obj
 .bss.mp_free_head
                0x20004860        0x4 examples/pb_remote/server/CMakeFiles/pb_remote_server_nrf52840_xxAA_s140_6.0.0.dir/__/__/__/mesh/core/src/packet_mgr.c.obj
 .bss.lock_count.10778
                0x20004864        0x4 examples/pb_remote/server/CMakeFiles/pb_remote_server_nrf52840_xxAA_s140_6.0.0.dir/__/__/__/mesh/core/src/net_state.c.obj
 .bss.m_enabled
                0x20004868        0x1 examples/pb_remote/server/CMakeFiles/pb_remote_server_nrf52840_xxAA_s140_6.0.0.dir/__/__/__/mesh/core/src/net_state.c.obj
 *fill*         0x20004869        0x3 
 .bss.m_flash_manager
                0x2000486c       0x24 examples/pb_remote/server/CMakeFiles/pb_remote_server_nrf52840_xxAA_s140_6.0.0.dir/__/__/__/mesh/core/src/net_state.c.obj
 .bss.m_iv_state_set
                0x20004890        0x1 examples/pb_remote/server/CMakeFiles/pb_remote_server_nrf52840_xxAA_s140_6.0.0.dir/__/__/__/mesh/core/src/net_state.c.obj
 *fill*         0x20004891        0x3 
 .bss.m_iv_update_timer
                0x20004894       0x18 examples/pb_remote/server/CMakeFiles/pb_remote_server_nrf52840_xxAA_s140_6.0.0.dir/__/__/__/mesh/core/src/net_state.c.obj
 .bss.m_mesh_evt_handler
                0x200048ac        0xc examples/pb_remote/server/CMakeFiles/pb_remote_server_nrf52840_xxAA_s140_6.0.0.dir/__/__/__/mesh/core/src/net_state.c.obj
 .bss.m_net_state
                0x200048b8       0x14 examples/pb_remote/server/CMakeFiles/pb_remote_server_nrf52840_xxAA_s140_6.0.0.dir/__/__/__/mesh/core/src/net_state.c.obj
 .bss.m_seqnum_allocation_in_progress
                0x200048cc        0x1 examples/pb_remote/server/CMakeFiles/pb_remote_server_nrf52840_xxAA_s140_6.0.0.dir/__/__/__/mesh/core/src/net_state.c.obj
 .bss.m_test_mode
                0x200048cd        0x1 examples/pb_remote/server/CMakeFiles/pb_remote_server_nrf52840_xxAA_s140_6.0.0.dir/__/__/__/mesh/core/src/net_state.c.obj
 *fill*         0x200048ce        0x2 
 .bss.m_event_flag
                0x200048d0        0x4 examples/pb_remote/server/CMakeFiles/pb_remote_server_nrf52840_xxAA_s140_6.0.0.dir/__/__/__/mesh/core/src/mesh_flash.c.obj
 .bss.m_suspended
                0x200048d4        0x1 examples/pb_remote/server/CMakeFiles/pb_remote_server_nrf52840_xxAA_s140_6.0.0.dir/__/__/__/mesh/core/src/mesh_flash.c.obj
 *fill*         0x200048d5        0x3 
 .bss.m_users   0x200048d8      0x234 examples/pb_remote/server/CMakeFiles/pb_remote_server_nrf52840_xxAA_s140_6.0.0.dir/__/__/__/mesh/core/src/mesh_flash.c.obj
 .bss.m_is_enabled
                0x20004b0c        0x1 examples/pb_remote/server/CMakeFiles/pb_remote_server_nrf52840_xxAA_s140_6.0.0.dir/__/__/__/mesh/core/src/nrf_mesh.c.obj
 .bss.m_is_initialized
                0x20004b0d        0x1 examples/pb_remote/server/CMakeFiles/pb_remote_server_nrf52840_xxAA_s140_6.0.0.dir/__/__/__/mesh/core/src/nrf_mesh.c.obj
 *fill*         0x20004b0e        0x2 
 .bss.m_rx_cb   0x20004b10        0x4 examples/pb_remote/server/CMakeFiles/pb_remote_server_nrf52840_xxAA_s140_6.0.0.dir/__/__/__/mesh/core/src/nrf_mesh.c.obj
 .bss.m_tx_token
                0x20004b14        0x4 examples/pb_remote/server/CMakeFiles/pb_remote_server_nrf52840_xxAA_s140_6.0.0.dir/__/__/__/mesh/core/src/nrf_mesh.c.obj
 .bss.m_event_flag
                0x20004b18        0x4 examples/pb_remote/server/CMakeFiles/pb_remote_server_nrf52840_xxAA_s140_6.0.0.dir/__/__/__/mesh/core/src/timer_scheduler.c.obj
 .bss.m_scheduler
                0x20004b1c        0x8 examples/pb_remote/server/CMakeFiles/pb_remote_server_nrf52840_xxAA_s140_6.0.0.dir/__/__/__/mesh/core/src/timer_scheduler.c.obj
 .bss.m_attributes
                0x20004b24        0x3 examples/pb_remote/server/CMakeFiles/pb_remote_server_nrf52840_xxAA_s140_6.0.0.dir/__/__/__/mesh/core/src/timer.c.obj
 *fill*         0x20004b27        0x1 
 .bss.m_callbacks
                0x20004b28        0xc examples/pb_remote/server/CMakeFiles/pb_remote_server_nrf52840_xxAA_s140_6.0.0.dir/__/__/__/mesh/core/src/timer.c.obj
 .bss.m_is_in_ts
                0x20004b34        0x1 examples/pb_remote/server/CMakeFiles/pb_remote_server_nrf52840_xxAA_s140_6.0.0.dir/__/__/__/mesh/core/src/timer.c.obj
 *fill*         0x20004b35        0x3 
 .bss.m_reference_time
                0x20004b38        0x4 examples/pb_remote/server/CMakeFiles/pb_remote_server_nrf52840_xxAA_s140_6.0.0.dir/__/__/__/mesh/core/src/timer.c.obj
 .bss.m_timeouts
                0x20004b3c        0xc examples/pb_remote/server/CMakeFiles/pb_remote_server_nrf52840_xxAA_s140_6.0.0.dir/__/__/__/mesh/core/src/timer.c.obj
 .bss.m_timer_mut
                0x20004b48        0x4 examples/pb_remote/server/CMakeFiles/pb_remote_server_nrf52840_xxAA_s140_6.0.0.dir/__/__/__/mesh/core/src/timer.c.obj
 .bss.m_ts_end_time
                0x20004b4c        0x4 examples/pb_remote/server/CMakeFiles/pb_remote_server_nrf52840_xxAA_s140_6.0.0.dir/__/__/__/mesh/core/src/timer.c.obj
 .bss.mp_ppi_tasks
                0x20004b50        0xc examples/pb_remote/server/CMakeFiles/pb_remote_server_nrf52840_xxAA_s140_6.0.0.dir/__/__/__/mesh/core/src/timer.c.obj
 .bss.m_mesh_opt_core_file_backend_data
                0x20004b5c       0x2c examples/pb_remote/server/CMakeFiles/pb_remote_server_nrf52840_xxAA_s140_6.0.0.dir/__/__/__/mesh/core/src/mesh_opt.c.obj
 .bss.m_current_timeslot
                0x20004b88       0x1c examples/pb_remote/server/CMakeFiles/pb_remote_server_nrf52840_xxAA_s140_6.0.0.dir/__/__/__/mesh/core/src/timeslot.c.obj
 .bss.m_lfclk_ppm
                0x20004ba4        0x4 examples/pb_remote/server/CMakeFiles/pb_remote_server_nrf52840_xxAA_s140_6.0.0.dir/__/__/__/mesh/core/src/timeslot.c.obj
 .bss.m_radio_request_earliest
                0x20004ba8       0x10 examples/pb_remote/server/CMakeFiles/pb_remote_server_nrf52840_xxAA_s140_6.0.0.dir/__/__/__/mesh/core/src/timeslot.c.obj
 .bss.m_state_lock
                0x20004bb8        0x1 examples/pb_remote/server/CMakeFiles/pb_remote_server_nrf52840_xxAA_s140_6.0.0.dir/__/__/__/mesh/core/src/timeslot.c.obj
 .bss.m_timeslot_forced_command
                0x20004bb9        0x1 examples/pb_remote/server/CMakeFiles/pb_remote_server_nrf52840_xxAA_s140_6.0.0.dir/__/__/__/mesh/core/src/timeslot.c.obj
 *fill*         0x20004bba        0x6 
 .bss.s_last_rtc_value.9679
                0x20004bc0        0x8 examples/pb_remote/server/CMakeFiles/pb_remote_server_nrf52840_xxAA_s140_6.0.0.dir/__/__/__/mesh/core/src/timeslot.c.obj
 .bss.m_bearer_event_fifo
                0x20004bc8       0x14 examples/pb_remote/server/CMakeFiles/pb_remote_server_nrf52840_xxAA_s140_6.0.0.dir/__/__/__/mesh/core/src/bearer_event.c.obj
 .bss.m_bearer_event_fifo_buffer
                0x20004bdc      0x100 examples/pb_remote/server/CMakeFiles/pb_remote_server_nrf52840_xxAA_s140_6.0.0.dir/__/__/__/mesh/core/src/bearer_event.c.obj
 .bss.m_critical
                0x20004cdc        0x4 examples/pb_remote/server/CMakeFiles/pb_remote_server_nrf52840_xxAA_s140_6.0.0.dir/__/__/__/mesh/core/src/bearer_event.c.obj
 .bss.m_flag_count
                0x20004ce0        0x4 examples/pb_remote/server/CMakeFiles/pb_remote_server_nrf52840_xxAA_s140_6.0.0.dir/__/__/__/mesh/core/src/bearer_event.c.obj
 .bss.m_flag_event_callbacks
                0x20004ce4       0x24 examples/pb_remote/server/CMakeFiles/pb_remote_server_nrf52840_xxAA_s140_6.0.0.dir/__/__/__/mesh/core/src/bearer_event.c.obj
 .bss.m_flags   0x20004d08        0x4 examples/pb_remote/server/CMakeFiles/pb_remote_server_nrf52840_xxAA_s140_6.0.0.dir/__/__/__/mesh/core/src/bearer_event.c.obj
 .bss.m_irq_priority
                0x20004d0c        0x1 examples/pb_remote/server/CMakeFiles/pb_remote_server_nrf52840_xxAA_s140_6.0.0.dir/__/__/__/mesh/core/src/bearer_event.c.obj
 *fill*         0x20004d0d        0x3 
 .bss.m_sequential_event_queue
                0x20004d10        0x8 examples/pb_remote/server/CMakeFiles/pb_remote_server_nrf52840_xxAA_s140_6.0.0.dir/__/__/__/mesh/core/src/bearer_event.c.obj
 .bss.s_recursion_guard.9802
                0x20004d18        0x1 examples/pb_remote/server/CMakeFiles/pb_remote_server_nrf52840_xxAA_s140_6.0.0.dir/__/__/__/mesh/core/src/bearer_event.c.obj
 *fill*         0x20004d19        0x3 
 .bss.m_relay_check_cb
                0x20004d1c        0x4 examples/pb_remote/server/CMakeFiles/pb_remote_server_nrf52840_xxAA_s140_6.0.0.dir/__/__/__/mesh/core/src/network.c.obj
 .bss.m_action_queue
                0x20004d20        0xc examples/pb_remote/server/CMakeFiles/pb_remote_server_nrf52840_xxAA_s140_6.0.0.dir/__/__/__/mesh/core/src/flash_manager.c.obj
 .bss.m_action_queue_buffer
                0x20004d2c      0x104 examples/pb_remote/server/CMakeFiles/pb_remote_server_nrf52840_xxAA_s140_6.0.0.dir/__/__/__/mesh/core/src/flash_manager.c.obj
 .bss.m_action_state
                0x20004e30        0x1 examples/pb_remote/server/CMakeFiles/pb_remote_server_nrf52840_xxAA_s140_6.0.0.dir/__/__/__/mesh/core/src/flash_manager.c.obj
 *fill*         0x20004e31        0x3 
 .bss.m_memory_listener_queue
                0x20004e34        0x8 examples/pb_remote/server/CMakeFiles/pb_remote_server_nrf52840_xxAA_s140_6.0.0.dir/__/__/__/mesh/core/src/flash_manager.c.obj
 .bss.m_processing_flag
                0x20004e3c        0x4 examples/pb_remote/server/CMakeFiles/pb_remote_server_nrf52840_xxAA_s140_6.0.0.dir/__/__/__/mesh/core/src/flash_manager.c.obj
 .bss.m_queue_empty_cb
                0x20004e40        0x4 examples/pb_remote/server/CMakeFiles/pb_remote_server_nrf52840_xxAA_s140_6.0.0.dir/__/__/__/mesh/core/src/flash_manager.c.obj
 .bss.m_state   0x20004e44        0x1 examples/pb_remote/server/CMakeFiles/pb_remote_server_nrf52840_xxAA_s140_6.0.0.dir/__/__/__/mesh/core/src/flash_manager.c.obj
 *fill*         0x20004e45        0x1 
 .bss.m_token   0x20004e46        0x2 examples/pb_remote/server/CMakeFiles/pb_remote_server_nrf52840_xxAA_s140_6.0.0.dir/__/__/__/mesh/core/src/flash_manager.c.obj
 .bss.p_current.11525
                0x20004e48        0x4 examples/pb_remote/server/CMakeFiles/pb_remote_server_nrf52840_xxAA_s140_6.0.0.dir/__/__/__/mesh/core/src/flash_manager.c.obj
 .bss.result.11526
                0x20004e4c        0x1 examples/pb_remote/server/CMakeFiles/pb_remote_server_nrf52840_xxAA_s140_6.0.0.dir/__/__/__/mesh/core/src/flash_manager.c.obj
 .bss.m_cache_index
                0x20004e4d        0x1 examples/pb_remote/server/CMakeFiles/pb_remote_server_nrf52840_xxAA_s140_6.0.0.dir/__/__/__/mesh/core/src/replay_cache.c.obj
 *fill*         0x20004e4e        0x2 
 .bss.m_replay_cache
                0x20004e50      0x280 examples/pb_remote/server/CMakeFiles/pb_remote_server_nrf52840_xxAA_s140_6.0.0.dir/__/__/__/mesh/core/src/replay_cache.c.obj
 .bss.m_bearer_count
                0x200050d0        0x1 examples/pb_remote/server/CMakeFiles/pb_remote_server_nrf52840_xxAA_s140_6.0.0.dir/__/__/__/mesh/core/src/core_tx.c.obj
 *fill*         0x200050d1        0x3 
 .bss.m_tx_complete_callback
                0x200050d4        0x4 examples/pb_remote/server/CMakeFiles/pb_remote_server_nrf52840_xxAA_s140_6.0.0.dir/__/__/__/mesh/core/src/core_tx.c.obj
 .bss.mp_bearers
                0x200050d8        0x4 examples/pb_remote/server/CMakeFiles/pb_remote_server_nrf52840_xxAA_s140_6.0.0.dir/__/__/__/mesh/core/src/core_tx.c.obj
 .bss.m_hb_core_evt_handler
                0x200050dc        0xc examples/pb_remote/server/CMakeFiles/pb_remote_server_nrf52840_xxAA_s140_6.0.0.dir/__/__/__/mesh/core/src/heartbeat.c.obj
 .bss.m_hb_pending_feat_msg
                0x200050e8        0x1 examples/pb_remote/server/CMakeFiles/pb_remote_server_nrf52840_xxAA_s140_6.0.0.dir/__/__/__/mesh/core/src/heartbeat.c.obj
 .bss.m_hb_pending_pub_msg
                0x200050e9        0x1 examples/pb_remote/server/CMakeFiles/pb_remote_server_nrf52840_xxAA_s140_6.0.0.dir/__/__/__/mesh/core/src/heartbeat.c.obj
 .bss.m_heartbeat_init_done
                0x200050ea        0x1 examples/pb_remote/server/CMakeFiles/pb_remote_server_nrf52840_xxAA_s140_6.0.0.dir/__/__/__/mesh/core/src/heartbeat.c.obj
 *fill*         0x200050eb        0x1 
 .bss.m_heartbeat_publication
                0x200050ec       0x14 examples/pb_remote/server/CMakeFiles/pb_remote_server_nrf52840_xxAA_s140_6.0.0.dir/__/__/__/mesh/core/src/heartbeat.c.obj
 .bss.m_heartbeat_publication_state
                0x20005100        0x1 examples/pb_remote/server/CMakeFiles/pb_remote_server_nrf52840_xxAA_s140_6.0.0.dir/__/__/__/mesh/core/src/heartbeat.c.obj
 *fill*         0x20005101        0x3 
 .bss.m_heartbeat_subscription
                0x20005104       0x10 examples/pb_remote/server/CMakeFiles/pb_remote_server_nrf52840_xxAA_s140_6.0.0.dir/__/__/__/mesh/core/src/heartbeat.c.obj
 .bss.m_latched_features
                0x20005114        0x1 examples/pb_remote/server/CMakeFiles/pb_remote_server_nrf52840_xxAA_s140_6.0.0.dir/__/__/__/mesh/core/src/heartbeat.c.obj
 *fill*         0x20005115        0x3 
 .bss.m_publication_timer
                0x20005118       0x1c examples/pb_remote/server/CMakeFiles/pb_remote_server_nrf52840_xxAA_s140_6.0.0.dir/__/__/__/mesh/core/src/heartbeat.c.obj
 .bss.m_subscription_timer
                0x20005134       0x18 examples/pb_remote/server/CMakeFiles/pb_remote_server_nrf52840_xxAA_s140_6.0.0.dir/__/__/__/mesh/core/src/heartbeat.c.obj
 .bss.mp_getter
                0x2000514c        0x4 examples/pb_remote/server/CMakeFiles/pb_remote_server_nrf52840_xxAA_s140_6.0.0.dir/__/__/__/mesh/core/src/heartbeat.c.obj
 .bss.m_adv     0x20005150       0x9c examples/pb_remote/server/CMakeFiles/pb_remote_server_nrf52840_xxAA_s140_6.0.0.dir/__/__/__/mesh/core/src/net_beacon.c.obj
 .bss.m_adv_buf
                0x200051ec       0x34 examples/pb_remote/server/CMakeFiles/pb_remote_server_nrf52840_xxAA_s140_6.0.0.dir/__/__/__/mesh/core/src/net_beacon.c.obj
 .bss.m_beacon_salt
                0x20005220       0x10 examples/pb_remote/server/CMakeFiles/pb_remote_server_nrf52840_xxAA_s140_6.0.0.dir/__/__/__/mesh/core/src/net_beacon.c.obj
 .bss.m_enabled
                0x20005230        0x1 examples/pb_remote/server/CMakeFiles/pb_remote_server_nrf52840_xxAA_s140_6.0.0.dir/__/__/__/mesh/core/src/net_beacon.c.obj
 .bss.m_net_beacon_enable_state
                0x20005231        0x1 examples/pb_remote/server/CMakeFiles/pb_remote_server_nrf52840_xxAA_s140_6.0.0.dir/__/__/__/mesh/core/src/net_beacon.c.obj
 *fill*         0x20005232        0x2 
 .bss.m_tx_timer
                0x20005234       0x18 examples/pb_remote/server/CMakeFiles/pb_remote_server_nrf52840_xxAA_s140_6.0.0.dir/__/__/__/mesh/core/src/net_beacon.c.obj
 .bss.mp_beacon_info
                0x2000524c        0x4 examples/pb_remote/server/CMakeFiles/pb_remote_server_nrf52840_xxAA_s140_6.0.0.dir/__/__/__/mesh/core/src/net_beacon.c.obj
 .bss.m_file_count
                0x20005250        0x4 examples/pb_remote/server/CMakeFiles/pb_remote_server_nrf52840_xxAA_s140_6.0.0.dir/__/__/__/mesh/core/src/mesh_config_backend.c.obj
 .bss.m_power_down_time_us
                0x20005254        0x4 examples/pb_remote/server/CMakeFiles/pb_remote_server_nrf52840_xxAA_s140_6.0.0.dir/__/__/__/mesh/core/src/mesh_config_backend.c.obj
 .bss.mp_files  0x20005258        0x4 examples/pb_remote/server/CMakeFiles/pb_remote_server_nrf52840_xxAA_s140_6.0.0.dir/__/__/__/mesh/core/src/mesh_config_backend.c.obj
 .bss.m_allocated_page_count
                0x2000525c        0x1 examples/pb_remote/server/CMakeFiles/pb_remote_server_nrf52840_xxAA_s140_6.0.0.dir/__/__/__/mesh/core/src/mesh_config_flashman_glue.c.obj
 *fill*         0x2000525d        0x3 
 .bss.m_evt_cb  0x20005260        0x4 examples/pb_remote/server/CMakeFiles/pb_remote_server_nrf52840_xxAA_s140_6.0.0.dir/__/__/__/mesh/core/src/mesh_config_flashman_glue.c.obj
 .bss.m_bearer  0x20005264        0xc examples/pb_remote/server/CMakeFiles/pb_remote_server_nrf52840_xxAA_s140_6.0.0.dir/__/__/__/mesh/core/src/core_tx_adv.c.obj
 .bss.m_bearer_roles
                0x20005270      0x140 examples/pb_remote/server/CMakeFiles/pb_remote_server_nrf52840_xxAA_s140_6.0.0.dir/__/__/__/mesh/core/src/core_tx_adv.c.obj
 .bss.m_current_alloc
                0x200053b0        0x8 examples/pb_remote/server/CMakeFiles/pb_remote_server_nrf52840_xxAA_s140_6.0.0.dir/__/__/__/mesh/core/src/core_tx_adv.c.obj
 .bss.m_default_adv_addr
                0x200053b8        0x7 examples/pb_remote/server/CMakeFiles/pb_remote_server_nrf52840_xxAA_s140_6.0.0.dir/__/__/__/mesh/core/src/core_tx_adv.c.obj
 .bss.m_mesh_opt_core_adv_addr_state
                0x200053bf        0x2 examples/pb_remote/server/CMakeFiles/pb_remote_server_nrf52840_xxAA_s140_6.0.0.dir/__/__/__/mesh/core/src/core_tx_adv.c.obj
 .bss.m_mesh_opt_core_adv_state
                0x200053c1        0x2 examples/pb_remote/server/CMakeFiles/pb_remote_server_nrf52840_xxAA_s140_6.0.0.dir/__/__/__/mesh/core/src/core_tx_adv.c.obj
 .bss.m_mesh_opt_core_tx_power_state
                0x200053c3        0x2 examples/pb_remote/server/CMakeFiles/pb_remote_server_nrf52840_xxAA_s140_6.0.0.dir/__/__/__/mesh/core/src/core_tx_adv.c.obj
 .bss.m_originator_adv_packet_buffer
                0x200053c5      0x100 examples/pb_remote/server/CMakeFiles/pb_remote_server_nrf52840_xxAA_s140_6.0.0.dir/__/__/__/mesh/core/src/core_tx_adv.c.obj
 .bss.m_relay_adv_packet_buffer
                0x200054c5       0x80 examples/pb_remote/server/CMakeFiles/pb_remote_server_nrf52840_xxAA_s140_6.0.0.dir/__/__/__/mesh/core/src/core_tx_adv.c.obj
 *fill*         0x20005545        0x3 
 .bss.m_subscribers
                0x20005548        0x4 examples/pb_remote/server/CMakeFiles/pb_remote_server_nrf52840_xxAA_s140_6.0.0.dir/__/__/__/mesh/bearer/src/ad_listener.c.obj
 .bss.m_adtype_filter
                0x2000554c       0x38 examples/pb_remote/server/CMakeFiles/pb_remote_server_nrf52840_xxAA_s140_6.0.0.dir/__/__/__/mesh/bearer/src/ad_type_filter.c.obj
 .bss.m_adv_prng
                0x20005584       0x10 examples/pb_remote/server/CMakeFiles/pb_remote_server_nrf52840_xxAA_s140_6.0.0.dir/__/__/__/mesh/bearer/src/advertiser.c.obj
 .bss.m_action_ended
                0x20005594        0x1 examples/pb_remote/server/CMakeFiles/pb_remote_server_nrf52840_xxAA_s140_6.0.0.dir/__/__/__/mesh/bearer/src/bearer_handler.c.obj
 *fill*         0x20005595        0x3 
 .bss.m_action_queue
                0x20005598        0x8 examples/pb_remote/server/CMakeFiles/pb_remote_server_nrf52840_xxAA_s140_6.0.0.dir/__/__/__/mesh/bearer/src/bearer_handler.c.obj
 .bss.m_end_time
                0x200055a0        0x4 examples/pb_remote/server/CMakeFiles/pb_remote_server_nrf52840_xxAA_s140_6.0.0.dir/__/__/__/mesh/bearer/src/bearer_handler.c.obj
 .bss.m_in_callback
                0x200055a4        0x1 examples/pb_remote/server/CMakeFiles/pb_remote_server_nrf52840_xxAA_s140_6.0.0.dir/__/__/__/mesh/bearer/src/bearer_handler.c.obj
 .bss.m_scanner_is_active
                0x200055a5        0x1 examples/pb_remote/server/CMakeFiles/pb_remote_server_nrf52840_xxAA_s140_6.0.0.dir/__/__/__/mesh/bearer/src/bearer_handler.c.obj
 .bss.m_stopped
                0x200055a6        0x1 examples/pb_remote/server/CMakeFiles/pb_remote_server_nrf52840_xxAA_s140_6.0.0.dir/__/__/__/mesh/bearer/src/bearer_handler.c.obj
 *fill*         0x200055a7        0x1 
 .bss.mp_action
                0x200055a8        0x4 examples/pb_remote/server/CMakeFiles/pb_remote_server_nrf52840_xxAA_s140_6.0.0.dir/__/__/__/mesh/bearer/src/bearer_handler.c.obj
 .bss.m_action_start_time
                0x200055ac        0x4 examples/pb_remote/server/CMakeFiles/pb_remote_server_nrf52840_xxAA_s140_6.0.0.dir/__/__/__/mesh/bearer/src/broadcast.c.obj
 .bss.m_next_channel_index
                0x200055b0        0x1 examples/pb_remote/server/CMakeFiles/pb_remote_server_nrf52840_xxAA_s140_6.0.0.dir/__/__/__/mesh/bearer/src/broadcast.c.obj
 *fill*         0x200055b1        0x3 
 .bss.m_accepted_amount
                0x200055b4        0x4 examples/pb_remote/server/CMakeFiles/pb_remote_server_nrf52840_xxAA_s140_6.0.0.dir/__/__/__/mesh/bearer/src/filter_engine.c.obj
 .bss.m_filter_list_head
                0x200055b8        0x4 examples/pb_remote/server/CMakeFiles/pb_remote_server_nrf52840_xxAA_s140_6.0.0.dir/__/__/__/mesh/bearer/src/filter_engine.c.obj
 .bss.m_scanner
                0x200055bc      0x298 examples/pb_remote/server/CMakeFiles/pb_remote_server_nrf52840_xxAA_s140_6.0.0.dir/__/__/__/mesh/bearer/src/scanner.c.obj
 .bss.m_gpiote  0x20005854        0x6 examples/pb_remote/server/CMakeFiles/pb_remote_server_nrf52840_xxAA_s140_6.0.0.dir/__/__/__/mesh/bearer/src/mesh_pa_lna.c.obj
 *fill*         0x2000585a        0x2 
 .bss.m_event_handler
                0x2000585c        0x4 examples/pb_remote/server/CMakeFiles/pb_remote_server_nrf52840_xxAA_s140_6.0.0.dir/__/__/__/mesh/prov/src/prov_beacon.c.obj
 .bss.m_ecdh_offloading
                0x20005860        0x1 examples/pb_remote/server/CMakeFiles/pb_remote_server_nrf52840_xxAA_s140_6.0.0.dir/__/__/__/mesh/prov/src/prov_utils.c.obj
 .bss.m_ecdh_offloading_state
                0x20005861        0x1 examples/pb_remote/server/CMakeFiles/pb_remote_server_nrf52840_xxAA_s140_6.0.0.dir/__/__/__/mesh/prov/src/prov_utils.c.obj
 *fill*         0x20005862        0x2 
 .bss.mp_bearer_head
                0x20005864        0x4 examples/pb_remote/server/CMakeFiles/pb_remote_server_nrf52840_xxAA_s140_6.0.0.dir/__/__/__/mesh/prov/src/prov_bearer_adv.c.obj
 .bss.m_is_interrupting
                0x20005868        0x1 examples/pb_remote/server/CMakeFiles/pb_remote_server_nrf52840_xxAA_s140_6.0.0.dir/__/__/__/models/experimental/pb_remote/src/pb_remote_server.c.obj
 .bss.m_packet  0x20005869       0x41 examples/pb_remote/server/CMakeFiles/pb_remote_server_nrf52840_xxAA_s140_6.0.0.dir/__/__/__/models/experimental/pb_remote/src/pb_remote_server.c.obj
 *fill*         0x200058aa        0x2 
 .bss.m_pbr_server_alt_event_queue
                0x200058ac       0x14 examples/pb_remote/server/CMakeFiles/pb_remote_server_nrf52840_xxAA_s140_6.0.0.dir/__/__/__/models/experimental/pb_remote/src/pb_remote_server.c.obj
 .bss.m_pbr_server_alt_event_queue_buffer
                0x200058c0       0x90 examples/pb_remote/server/CMakeFiles/pb_remote_server_nrf52840_xxAA_s140_6.0.0.dir/__/__/__/models/experimental/pb_remote/src/pb_remote_server.c.obj
 .bss.m_pbr_server_event_queue
                0x20005950       0x14 examples/pb_remote/server/CMakeFiles/pb_remote_server_nrf52840_xxAA_s140_6.0.0.dir/__/__/__/models/experimental/pb_remote/src/pb_remote_server.c.obj
 .bss.m_pbr_server_event_queue_buffer
                0x20005964       0x90 examples/pb_remote/server/CMakeFiles/pb_remote_server_nrf52840_xxAA_s140_6.0.0.dir/__/__/__/models/experimental/pb_remote/src/pb_remote_server.c.obj
 .bss.m_uuid_list
                0x200059f4       0x33 examples/pb_remote/server/CMakeFiles/pb_remote_server_nrf52840_xxAA_s140_6.0.0.dir/__/__/__/models/experimental/pb_remote/src/pb_remote_server.c.obj
 *fill*         0x20005a27        0x1 
 .bss.mp_pb_remote_server_model
                0x20005a28        0x4 examples/pb_remote/server/CMakeFiles/pb_remote_server_nrf52840_xxAA_s140_6.0.0.dir/__/__/__/models/experimental/pb_remote/src/pb_remote_server.c.obj
 .bss.m_publish_timer
                0x20005a2c       0x18 examples/pb_remote/server/CMakeFiles/pb_remote_server_nrf52840_xxAA_s140_6.0.0.dir/__/__/__/mesh/access/src/access_publish.c.obj
 .bss.m_publish_timer_counter
                0x20005a44        0x4 examples/pb_remote/server/CMakeFiles/pb_remote_server_nrf52840_xxAA_s140_6.0.0.dir/__/__/__/mesh/access/src/access_publish.c.obj
 .bss.m_publish_timer_running
                0x20005a48        0x1 examples/pb_remote/server/CMakeFiles/pb_remote_server_nrf52840_xxAA_s140_6.0.0.dir/__/__/__/mesh/access/src/access_publish.c.obj
 .bss.m_timer_resolution
                0x20005a49        0x1 examples/pb_remote/server/CMakeFiles/pb_remote_server_nrf52840_xxAA_s140_6.0.0.dir/__/__/__/mesh/access/src/access_publish.c.obj
 *fill*         0x20005a4a        0x2 
 .bss.mp_publication_list
                0x20005a4c        0x4 examples/pb_remote/server/CMakeFiles/pb_remote_server_nrf52840_xxAA_s140_6.0.0.dir/__/__/__/mesh/access/src/access_publish.c.obj
 .bss.m_element_pool
                0x20005a50        0x6 examples/pb_remote/server/CMakeFiles/pb_remote_server_nrf52840_xxAA_s140_6.0.0.dir/__/__/__/mesh/access/src/access.c.obj
 *fill*         0x20005a56        0x2 
 .bss.m_evt_handler
                0x20005a58        0xc examples/pb_remote/server/CMakeFiles/pb_remote_server_nrf52840_xxAA_s140_6.0.0.dir/__/__/__/mesh/access/src/access.c.obj
 .bss.m_flash_manager
                0x20005a64       0x24 examples/pb_remote/server/CMakeFiles/pb_remote_server_nrf52840_xxAA_s140_6.0.0.dir/__/__/__/mesh/access/src/access.c.obj
 .bss.m_flash_not_ready
                0x20005a88        0x1 examples/pb_remote/server/CMakeFiles/pb_remote_server_nrf52840_xxAA_s140_6.0.0.dir/__/__/__/mesh/access/src/access.c.obj
 .bss.m_metadata_stored
                0x20005a89        0x1 examples/pb_remote/server/CMakeFiles/pb_remote_server_nrf52840_xxAA_s140_6.0.0.dir/__/__/__/mesh/access/src/access.c.obj
 *fill*         0x20005a8a        0x2 
 .bss.m_model_pool
                0x20005a8c       0x9c examples/pb_remote/server/CMakeFiles/pb_remote_server_nrf52840_xxAA_s140_6.0.0.dir/__/__/__/mesh/access/src/access.c.obj
 .bss.m_subscription_list_pool
                0x20005b28       0x18 examples/pb_remote/server/CMakeFiles/pb_remote_server_nrf52840_xxAA_s140_6.0.0.dir/__/__/__/mesh/access/src/access.c.obj
 .bss.m_reliable
                0x20005b40       0xa0 examples/pb_remote/server/CMakeFiles/pb_remote_server_nrf52840_xxAA_s140_6.0.0.dir/__/__/__/mesh/access/src/access_reliable.c.obj
 .bss.m_access_loopback_flag
                0x20005be0        0x4 examples/pb_remote/server/CMakeFiles/pb_remote_server_nrf52840_xxAA_s140_6.0.0.dir/__/__/__/mesh/access/src/access_loopback.c.obj
 .bss.mp_loopback_list_head
                0x20005be4        0x4 examples/pb_remote/server/CMakeFiles/pb_remote_server_nrf52840_xxAA_s140_6.0.0.dir/__/__/__/mesh/access/src/access_loopback.c.obj
 .bss.m_addr_nonvirtual_allocated
                0x20005be8        0x4 examples/pb_remote/server/CMakeFiles/pb_remote_server_nrf52840_xxAA_s140_6.0.0.dir/__/__/__/mesh/access/src/device_state_manager.c.obj
 .bss.m_addr_nonvirtual_needs_flashing
                0x20005bec        0x4 examples/pb_remote/server/CMakeFiles/pb_remote_server_nrf52840_xxAA_s140_6.0.0.dir/__/__/__/mesh/access/src/device_state_manager.c.obj
 .bss.m_addr_unicast_allocated
                0x20005bf0        0x4 examples/pb_remote/server/CMakeFiles/pb_remote_server_nrf52840_xxAA_s140_6.0.0.dir/__/__/__/mesh/access/src/device_state_manager.c.obj
 .bss.m_addr_unicast_needs_flashing
                0x20005bf4        0x4 examples/pb_remote/server/CMakeFiles/pb_remote_server_nrf52840_xxAA_s140_6.0.0.dir/__/__/__/mesh/access/src/device_state_manager.c.obj
 .bss.m_addr_virtual_allocated
                0x20005bf8        0x4 examples/pb_remote/server/CMakeFiles/pb_remote_server_nrf52840_xxAA_s140_6.0.0.dir/__/__/__/mesh/access/src/device_state_manager.c.obj
 .bss.m_addr_virtual_needs_flashing
                0x20005bfc        0x4 examples/pb_remote/server/CMakeFiles/pb_remote_server_nrf52840_xxAA_s140_6.0.0.dir/__/__/__/mesh/access/src/device_state_manager.c.obj
 .bss.m_addresses
                0x20005c00       0x10 examples/pb_remote/server/CMakeFiles/pb_remote_server_nrf52840_xxAA_s140_6.0.0.dir/__/__/__/mesh/access/src/device_state_manager.c.obj
 .bss.m_appkey_allocated
                0x20005c10        0x4 examples/pb_remote/server/CMakeFiles/pb_remote_server_nrf52840_xxAA_s140_6.0.0.dir/__/__/__/mesh/access/src/device_state_manager.c.obj
 .bss.m_appkey_needs_flashing
                0x20005c14        0x4 examples/pb_remote/server/CMakeFiles/pb_remote_server_nrf52840_xxAA_s140_6.0.0.dir/__/__/__/mesh/access/src/device_state_manager.c.obj
 .bss.m_appkeys
                0x20005c18       0x2a examples/pb_remote/server/CMakeFiles/pb_remote_server_nrf52840_xxAA_s140_6.0.0.dir/__/__/__/mesh/access/src/device_state_manager.c.obj
 *fill*         0x20005c42        0x2 
 .bss.m_devkey_allocated
                0x20005c44        0x4 examples/pb_remote/server/CMakeFiles/pb_remote_server_nrf52840_xxAA_s140_6.0.0.dir/__/__/__/mesh/access/src/device_state_manager.c.obj
 .bss.m_devkey_needs_flashing
                0x20005c48        0x4 examples/pb_remote/server/CMakeFiles/pb_remote_server_nrf52840_xxAA_s140_6.0.0.dir/__/__/__/mesh/access/src/device_state_manager.c.obj
 .bss.m_devkeys
                0x20005c4c       0x16 examples/pb_remote/server/CMakeFiles/pb_remote_server_nrf52840_xxAA_s140_6.0.0.dir/__/__/__/mesh/access/src/device_state_manager.c.obj
 .bss.m_flash_is_available
                0x20005c62        0x1 examples/pb_remote/server/CMakeFiles/pb_remote_server_nrf52840_xxAA_s140_6.0.0.dir/__/__/__/mesh/access/src/device_state_manager.c.obj
 *fill*         0x20005c63        0x1 
 .bss.m_flash_manager
                0x20005c64       0x24 examples/pb_remote/server/CMakeFiles/pb_remote_server_nrf52840_xxAA_s140_6.0.0.dir/__/__/__/mesh/access/src/device_state_manager.c.obj
 .bss.m_flash_mem_listener_update_all
                0x20005c88       0x10 examples/pb_remote/server/CMakeFiles/pb_remote_server_nrf52840_xxAA_s140_6.0.0.dir/__/__/__/mesh/access/src/device_state_manager.c.obj
 .bss.m_has_primary_subnet
                0x20005c98        0x1 examples/pb_remote/server/CMakeFiles/pb_remote_server_nrf52840_xxAA_s140_6.0.0.dir/__/__/__/mesh/access/src/device_state_manager.c.obj
 *fill*         0x20005c99        0x1 
 .bss.m_local_unicast_addr
                0x20005c9a        0x4 examples/pb_remote/server/CMakeFiles/pb_remote_server_nrf52840_xxAA_s140_6.0.0.dir/__/__/__/mesh/access/src/device_state_manager.c.obj
 *fill*         0x20005c9e        0x2 
 .bss.m_mesh_evt_handler
                0x20005ca0        0xc examples/pb_remote/server/CMakeFiles/pb_remote_server_nrf52840_xxAA_s140_6.0.0.dir/__/__/__/mesh/access/src/device_state_manager.c.obj
 .bss.m_subnet_allocated
                0x20005cac        0x4 examples/pb_remote/server/CMakeFiles/pb_remote_server_nrf52840_xxAA_s140_6.0.0.dir/__/__/__/mesh/access/src/device_state_manager.c.obj
 .bss.m_subnet_needs_flashing
                0x20005cb0        0x4 examples/pb_remote/server/CMakeFiles/pb_remote_server_nrf52840_xxAA_s140_6.0.0.dir/__/__/__/mesh/access/src/device_state_manager.c.obj
 .bss.m_subnets
                0x20005cb4       0xa8 examples/pb_remote/server/CMakeFiles/pb_remote_server_nrf52840_xxAA_s140_6.0.0.dir/__/__/__/mesh/access/src/device_state_manager.c.obj
 .bss.m_virtual_addresses
                0x20005d5c       0x14 examples/pb_remote/server/CMakeFiles/pb_remote_server_nrf52840_xxAA_s140_6.0.0.dir/__/__/__/mesh/access/src/device_state_manager.c.obj
 .bss.m_evt_cb  0x20005d70        0x4 examples/pb_remote/server/CMakeFiles/pb_remote_server_nrf52840_xxAA_s140_6.0.0.dir/__/__/__/models/foundation/config/src/config_server.c.obj
 .bss.m_node_reset_pending
                0x20005d74        0x1 examples/pb_remote/server/CMakeFiles/pb_remote_server_nrf52840_xxAA_s140_6.0.0.dir/__/__/__/models/foundation/config/src/config_server.c.obj
 *fill*         0x20005d75        0x3 
 .bss.m_reset_token
                0x20005d78        0x4 examples/pb_remote/server/CMakeFiles/pb_remote_server_nrf52840_xxAA_s140_6.0.0.dir/__/__/__/models/foundation/config/src/config_server.c.obj
 .bss.m_attention_timer
                0x20005d7c       0x18 examples/pb_remote/server/CMakeFiles/pb_remote_server_nrf52840_xxAA_s140_6.0.0.dir/__/__/__/models/foundation/health/src/health_server.c.obj
 .bss.mp_attention_list
                0x20005d94        0x4 examples/pb_remote/server/CMakeFiles/pb_remote_server_nrf52840_xxAA_s140_6.0.0.dir/__/__/__/models/foundation/health/src/health_server.c.obj
 .bss.m_op_queue
                0x20005d98      0x10c examples/pb_remote/server/CMakeFiles/pb_remote_server_nrf52840_xxAA_s140_6.0.0.dir/C_/sdks/nRF5_SDK_15.0.0_a53641a/components/libraries/timer/app_timer.c.obj
 .bss.m_rtc1_reset
                0x20005ea4        0x1 examples/pb_remote/server/CMakeFiles/pb_remote_server_nrf52840_xxAA_s140_6.0.0.dir/C_/sdks/nRF5_SDK_15.0.0_a53641a/components/libraries/timer/app_timer.c.obj
 .bss.m_rtc1_running
                0x20005ea5        0x1 examples/pb_remote/server/CMakeFiles/pb_remote_server_nrf52840_xxAA_s140_6.0.0.dir/C_/sdks/nRF5_SDK_15.0.0_a53641a/components/libraries/timer/app_timer.c.obj
 *fill*         0x20005ea6        0x2 
 .bss.m_ticks_elapsed
                0x20005ea8        0x8 examples/pb_remote/server/CMakeFiles/pb_remote_server_nrf52840_xxAA_s140_6.0.0.dir/C_/sdks/nRF5_SDK_15.0.0_a53641a/components/libraries/timer/app_timer.c.obj
 .bss.m_ticks_elapsed_q_read_ind
                0x20005eb0        0x1 examples/pb_remote/server/CMakeFiles/pb_remote_server_nrf52840_xxAA_s140_6.0.0.dir/C_/sdks/nRF5_SDK_15.0.0_a53641a/components/libraries/timer/app_timer.c.obj
 .bss.m_ticks_elapsed_q_write_ind
                0x20005eb1        0x1 examples/pb_remote/server/CMakeFiles/pb_remote_server_nrf52840_xxAA_s140_6.0.0.dir/C_/sdks/nRF5_SDK_15.0.0_a53641a/components/libraries/timer/app_timer.c.obj
 *fill*         0x20005eb2        0x2 
 .bss.m_ticks_latest
                0x20005eb4        0x4 examples/pb_remote/server/CMakeFiles/pb_remote_server_nrf52840_xxAA_s140_6.0.0.dir/C_/sdks/nRF5_SDK_15.0.0_a53641a/components/libraries/timer/app_timer.c.obj
 .bss.mp_timer_id_head
                0x20005eb8        0x4 examples/pb_remote/server/CMakeFiles/pb_remote_server_nrf52840_xxAA_s140_6.0.0.dir/C_/sdks/nRF5_SDK_15.0.0_a53641a/components/libraries/timer/app_timer.c.obj
 .bss._acDownBuffer
                0x20005ebc       0x80 external/rtt/librtt_nrf52840_xxAA.a(SEGGER_RTT.c.obj)
 .bss._acUpBuffer
                0x20005f3c      0x400 external/rtt/librtt_nrf52840_xxAA.a(SEGGER_RTT.c.obj)
 .bss.__malloc_free_list
                0x2000633c        0x4 c:/arm_gcc/bin/../lib/gcc/arm-none-eabi/6.3.1/../../../../arm-none-eabi/lib/thumb/v7e-m/fpv4-sp/hard\libg_nano.a(lib_a-nano-mallocr.o)
                0x2000633c                __malloc_free_list
 .bss.__malloc_sbrk_start
                0x20006340        0x4 c:/arm_gcc/bin/../lib/gcc/arm-none-eabi/6.3.1/../../../../arm-none-eabi/lib/thumb/v7e-m/fpv4-sp/hard\libg_nano.a(lib_a-nano-mallocr.o)
                0x20006340                __malloc_sbrk_start
 .bss.heap_end.5239
                0x20006344        0x4 c:/arm_gcc/bin/../lib/gcc/arm-none-eabi/6.3.1/../../../../arm-none-eabi/lib/thumb/v7e-m/fpv4-sp/hard\libnosys.a(sbrk.o)
 *(COMMON)
 COMMON         0x20006348       0x24 examples/pb_remote/server/CMakeFiles/pb_remote_server_nrf52840_xxAA_s140_6.0.0.dir/__/__/__/mesh/core/src/core_tx.c.obj
                0x20006348                m_packet
 COMMON         0x2000636c        0xc examples/pb_remote/server/CMakeFiles/pb_remote_server_nrf52840_xxAA_s140_6.0.0.dir/C_/sdks/nRF5_SDK_15.0.0_a53641a/components/libraries/util/app_util_platform.c.obj
                0x2000636c                nrf_nvic_state
 COMMON         0x20006378       0x78 external/rtt/librtt_nrf52840_xxAA.a(SEGGER_RTT.c.obj)
                0x20006378                _SEGGER_RTT
 COMMON         0x200063f0        0x4 c:/arm_gcc/bin/../lib/gcc/arm-none-eabi/6.3.1/../../../../arm-none-eabi/lib/thumb/v7e-m/fpv4-sp/hard\libg_nano.a(lib_a-reent.o)
                0x200063f0                errno
                0x200063f4                . = ALIGN (0x4)
                0x200063f4                __bss_end__ = .

.heap           0x200063f8     0x2000
                0x200063f8                __HeapBase = .
                0x200063f8                __end__ = .
                0x200063f8                PROVIDE (end, .)
 *(.heap*)
 .heap          0x200063f8     0x2000 examples/pb_remote/server/CMakeFiles/pb_remote_server_nrf52840_xxAA_s140_6.0.0.dir/C_/sdks/nRF5_SDK_15.0.0_a53641a/modules/nrfx/mdk/gcc_startup_nrf52840.S.obj
                0x200083f8                __HeapLimit = .

.stack_dummy    0x200063f8     0x2000
 *(.stack*)
 .stack         0x200063f8     0x2000 examples/pb_remote/server/CMakeFiles/pb_remote_server_nrf52840_xxAA_s140_6.0.0.dir/C_/sdks/nRF5_SDK_15.0.0_a53641a/modules/nrfx/mdk/gcc_startup_nrf52840.S.obj
                0x2003fd00                __StackTop = (ORIGIN (RAM) + LENGTH (RAM))
                0x2003dd00                __StackLimit = (__StackTop - SIZEOF (.stack_dummy))
                0x2003fd00                PROVIDE (__stack, __StackTop)
                0x00000001                ASSERT ((__StackLimit >= __HeapLimit), region RAM overflowed with stack)
                0x00000148                DataInitFlashUsed = (__bss_start__ - __data_start__)
                0x000157c4                CodeFlashUsed = (__etext - ORIGIN (FLASH))
                0x0001590c                TotalFlashUsed = (CodeFlashUsed + DataInitFlashUsed)
                0x00000001                ASSERT ((TotalFlashUsed <= LENGTH (FLASH)), region FLASH overflowed with .data and user data)
OUTPUT(examples\pb_remote\server\pb_remote_server_nrf52840_xxAA_s140_6.0.0.elf elf32-littlearm)

.ARM.attributes
                0x00000000       0x30
 .ARM.attributes
                0x00000000       0x22 c:/arm_gcc/bin/../lib/gcc/arm-none-eabi/6.3.1/thumb/v7e-m/fpv4-sp/hard/crti.o
 .ARM.attributes
                0x00000022       0x34 c:/arm_gcc/bin/../lib/gcc/arm-none-eabi/6.3.1/thumb/v7e-m/fpv4-sp/hard/crtbegin.o
 .ARM.attributes
                0x00000056       0x20 c:/arm_gcc/bin/../lib/gcc/arm-none-eabi/6.3.1/../../../../arm-none-eabi/lib/thumb/v7e-m/fpv4-sp/hard/crt0.o
 .ARM.attributes
                0x00000076       0x39 examples/pb_remote/server/CMakeFiles/pb_remote_server_nrf52840_xxAA_s140_6.0.0.dir/src/main.c.obj
 .ARM.attributes
                0x000000af       0x39 examples/pb_remote/server/CMakeFiles/pb_remote_server_nrf52840_xxAA_s140_6.0.0.dir/__/__/__/mesh/stack/src/mesh_stack.c.obj
 .ARM.attributes
                0x000000e8       0x39 examples/pb_remote/server/CMakeFiles/pb_remote_server_nrf52840_xxAA_s140_6.0.0.dir/__/__/common/src/mesh_softdevice_init.c.obj
 .ARM.attributes
                0x00000121       0x39 examples/pb_remote/server/CMakeFiles/pb_remote_server_nrf52840_xxAA_s140_6.0.0.dir/__/__/common/src/mesh_provisionee.c.obj
 .ARM.attributes
                0x0000015a       0x39 examples/pb_remote/server/CMakeFiles/pb_remote_server_nrf52840_xxAA_s140_6.0.0.dir/__/__/common/src/simple_hal.c.obj
 .ARM.attributes
                0x00000193       0x39 examples/pb_remote/server/CMakeFiles/pb_remote_server_nrf52840_xxAA_s140_6.0.0.dir/__/__/nrf_mesh_weak.c.obj
 .ARM.attributes
                0x000001cc       0x39 examples/pb_remote/server/CMakeFiles/pb_remote_server_nrf52840_xxAA_s140_6.0.0.dir/__/__/common/src/app_error_weak.c.obj
 .ARM.attributes
                0x00000205       0x39 examples/pb_remote/server/CMakeFiles/pb_remote_server_nrf52840_xxAA_s140_6.0.0.dir/__/__/common/src/assertion_handler_weak.c.obj
 .ARM.attributes
                0x0000023e       0x39 examples/pb_remote/server/CMakeFiles/pb_remote_server_nrf52840_xxAA_s140_6.0.0.dir/__/__/__/mesh/core/src/nrf_mesh_configure.c.obj
 .ARM.attributes
                0x00000277       0x39 examples/pb_remote/server/CMakeFiles/pb_remote_server_nrf52840_xxAA_s140_6.0.0.dir/__/__/__/mesh/core/src/msg_cache.c.obj
 .ARM.attributes
                0x000002b0       0x39 examples/pb_remote/server/CMakeFiles/pb_remote_server_nrf52840_xxAA_s140_6.0.0.dir/__/__/__/mesh/core/src/transport.c.obj
 .ARM.attributes
                0x000002e9       0x39 examples/pb_remote/server/CMakeFiles/pb_remote_server_nrf52840_xxAA_s140_6.0.0.dir/__/__/__/mesh/core/src/event.c.obj
 .ARM.attributes
                0x00000322       0x39 examples/pb_remote/server/CMakeFiles/pb_remote_server_nrf52840_xxAA_s140_6.0.0.dir/__/__/__/mesh/core/src/packet_buffer.c.obj
 .ARM.attributes
                0x0000035b       0x39 examples/pb_remote/server/CMakeFiles/pb_remote_server_nrf52840_xxAA_s140_6.0.0.dir/__/__/__/mesh/core/src/flash_manager_defrag.c.obj
 .ARM.attributes
                0x00000394       0x39 examples/pb_remote/server/CMakeFiles/pb_remote_server_nrf52840_xxAA_s140_6.0.0.dir/__/__/__/mesh/core/src/fifo.c.obj
 .ARM.attributes
                0x000003cd       0x39 examples/pb_remote/server/CMakeFiles/pb_remote_server_nrf52840_xxAA_s140_6.0.0.dir/__/__/__/mesh/core/src/nrf_flash.c.obj
 .ARM.attributes
                0x00000406       0x39 examples/pb_remote/server/CMakeFiles/pb_remote_server_nrf52840_xxAA_s140_6.0.0.dir/__/__/__/mesh/core/src/packet_mgr.c.obj
 .ARM.attributes
                0x0000043f       0x39 examples/pb_remote/server/CMakeFiles/pb_remote_server_nrf52840_xxAA_s140_6.0.0.dir/__/__/__/mesh/core/src/net_state.c.obj
 .ARM.attributes
                0x00000478       0x39 examples/pb_remote/server/CMakeFiles/pb_remote_server_nrf52840_xxAA_s140_6.0.0.dir/__/__/__/mesh/core/src/mesh_flash.c.obj
 .ARM.attributes
                0x000004b1       0x39 examples/pb_remote/server/CMakeFiles/pb_remote_server_nrf52840_xxAA_s140_6.0.0.dir/__/__/__/mesh/core/src/nrf_mesh_utils.c.obj
 .ARM.attributes
                0x000004ea       0x39 examples/pb_remote/server/CMakeFiles/pb_remote_server_nrf52840_xxAA_s140_6.0.0.dir/__/__/__/mesh/core/src/nrf_mesh.c.obj
 .ARM.attributes
                0x00000523       0x39 examples/pb_remote/server/CMakeFiles/pb_remote_server_nrf52840_xxAA_s140_6.0.0.dir/__/__/__/mesh/core/src/queue.c.obj
 .ARM.attributes
                0x0000055c       0x39 examples/pb_remote/server/CMakeFiles/pb_remote_server_nrf52840_xxAA_s140_6.0.0.dir/__/__/__/mesh/core/src/hal.c.obj
 .ARM.attributes
                0x00000595       0x39 examples/pb_remote/server/CMakeFiles/pb_remote_server_nrf52840_xxAA_s140_6.0.0.dir/__/__/__/mesh/core/src/aes_cmac.c.obj
 .ARM.attributes
                0x000005ce       0x39 examples/pb_remote/server/CMakeFiles/pb_remote_server_nrf52840_xxAA_s140_6.0.0.dir/__/__/__/mesh/core/src/timer_scheduler.c.obj
 .ARM.attributes
                0x00000607       0x39 examples/pb_remote/server/CMakeFiles/pb_remote_server_nrf52840_xxAA_s140_6.0.0.dir/__/__/__/mesh/core/src/timer.c.obj
 .ARM.attributes
                0x00000640       0x39 examples/pb_remote/server/CMakeFiles/pb_remote_server_nrf52840_xxAA_s140_6.0.0.dir/__/__/__/mesh/core/src/rand.c.obj
 .ARM.attributes
                0x00000679       0x39 examples/pb_remote/server/CMakeFiles/pb_remote_server_nrf52840_xxAA_s140_6.0.0.dir/__/__/__/mesh/core/src/mesh_opt.c.obj
 .ARM.attributes
                0x000006b2       0x39 examples/pb_remote/server/CMakeFiles/pb_remote_server_nrf52840_xxAA_s140_6.0.0.dir/__/__/__/mesh/core/src/timeslot.c.obj
 .ARM.attributes
                0x000006eb       0x39 examples/pb_remote/server/CMakeFiles/pb_remote_server_nrf52840_xxAA_s140_6.0.0.dir/__/__/__/mesh/core/src/bearer_event.c.obj
 .ARM.attributes
                0x00000724       0x39 examples/pb_remote/server/CMakeFiles/pb_remote_server_nrf52840_xxAA_s140_6.0.0.dir/__/__/__/mesh/core/src/enc.c.obj
 .ARM.attributes
                0x0000075d       0x39 examples/pb_remote/server/CMakeFiles/pb_remote_server_nrf52840_xxAA_s140_6.0.0.dir/__/__/__/mesh/core/src/network.c.obj
 .ARM.attributes
                0x00000796       0x39 examples/pb_remote/server/CMakeFiles/pb_remote_server_nrf52840_xxAA_s140_6.0.0.dir/__/__/__/mesh/core/src/net_packet.c.obj
 .ARM.attributes
                0x000007cf       0x39 examples/pb_remote/server/CMakeFiles/pb_remote_server_nrf52840_xxAA_s140_6.0.0.dir/__/__/__/mesh/core/src/msqueue.c.obj
 .ARM.attributes
                0x00000808       0x39 examples/pb_remote/server/CMakeFiles/pb_remote_server_nrf52840_xxAA_s140_6.0.0.dir/__/__/__/mesh/core/src/nrf_mesh_keygen.c.obj
 .ARM.attributes
                0x00000841       0x39 examples/pb_remote/server/CMakeFiles/pb_remote_server_nrf52840_xxAA_s140_6.0.0.dir/__/__/__/mesh/core/src/list.c.obj
 .ARM.attributes
                0x0000087a       0x39 examples/pb_remote/server/CMakeFiles/pb_remote_server_nrf52840_xxAA_s140_6.0.0.dir/__/__/__/mesh/core/src/log.c.obj
 .ARM.attributes
                0x000008b3       0x39 examples/pb_remote/server/CMakeFiles/pb_remote_server_nrf52840_xxAA_s140_6.0.0.dir/__/__/__/mesh/core/src/flash_manager.c.obj
 .ARM.attributes
                0x000008ec       0x39 examples/pb_remote/server/CMakeFiles/pb_remote_server_nrf52840_xxAA_s140_6.0.0.dir/__/__/__/mesh/core/src/ccm_soft.c.obj
 .ARM.attributes
                0x00000925       0x39 examples/pb_remote/server/CMakeFiles/pb_remote_server_nrf52840_xxAA_s140_6.0.0.dir/__/__/__/mesh/core/src/replay_cache.c.obj
 .ARM.attributes
                0x0000095e       0x39 examples/pb_remote/server/CMakeFiles/pb_remote_server_nrf52840_xxAA_s140_6.0.0.dir/__/__/__/mesh/core/src/beacon.c.obj
 .ARM.attributes
                0x00000997       0x39 examples/pb_remote/server/CMakeFiles/pb_remote_server_nrf52840_xxAA_s140_6.0.0.dir/__/__/__/mesh/core/src/flash_manager_internal.c.obj
 .ARM.attributes
                0x000009d0       0x39 examples/pb_remote/server/CMakeFiles/pb_remote_server_nrf52840_xxAA_s140_6.0.0.dir/__/__/__/mesh/core/src/core_tx.c.obj
 .ARM.attributes
                0x00000a09       0x39 examples/pb_remote/server/CMakeFiles/pb_remote_server_nrf52840_xxAA_s140_6.0.0.dir/__/__/__/mesh/core/src/heartbeat.c.obj
 .ARM.attributes
                0x00000a42       0x39 examples/pb_remote/server/CMakeFiles/pb_remote_server_nrf52840_xxAA_s140_6.0.0.dir/__/__/__/mesh/core/src/net_beacon.c.obj
 .ARM.attributes
                0x00000a7b       0x39 examples/pb_remote/server/CMakeFiles/pb_remote_server_nrf52840_xxAA_s140_6.0.0.dir/__/__/__/mesh/core/src/mesh_config.c.obj
 .ARM.attributes
                0x00000ab4       0x39 examples/pb_remote/server/CMakeFiles/pb_remote_server_nrf52840_xxAA_s140_6.0.0.dir/__/__/__/mesh/core/src/mesh_config_backend.c.obj
 .ARM.attributes
                0x00000aed       0x39 examples/pb_remote/server/CMakeFiles/pb_remote_server_nrf52840_xxAA_s140_6.0.0.dir/__/__/__/mesh/core/src/mesh_config_flashman_glue.c.obj
 .ARM.attributes
                0x00000b26       0x39 examples/pb_remote/server/CMakeFiles/pb_remote_server_nrf52840_xxAA_s140_6.0.0.dir/__/__/__/mesh/core/src/core_tx_adv.c.obj
 .ARM.attributes
                0x00000b5f       0x39 examples/pb_remote/server/CMakeFiles/pb_remote_server_nrf52840_xxAA_s140_6.0.0.dir/__/__/__/mesh/bearer/src/ad_listener.c.obj
 .ARM.attributes
                0x00000b98       0x39 examples/pb_remote/server/CMakeFiles/pb_remote_server_nrf52840_xxAA_s140_6.0.0.dir/__/__/__/mesh/bearer/src/ad_type_filter.c.obj
 .ARM.attributes
                0x00000bd1       0x39 examples/pb_remote/server/CMakeFiles/pb_remote_server_nrf52840_xxAA_s140_6.0.0.dir/__/__/__/mesh/bearer/src/advertiser.c.obj
 .ARM.attributes
                0x00000c0a       0x39 examples/pb_remote/server/CMakeFiles/pb_remote_server_nrf52840_xxAA_s140_6.0.0.dir/__/__/__/mesh/bearer/src/bearer_handler.c.obj
 .ARM.attributes
                0x00000c43       0x39 examples/pb_remote/server/CMakeFiles/pb_remote_server_nrf52840_xxAA_s140_6.0.0.dir/__/__/__/mesh/bearer/src/broadcast.c.obj
 .ARM.attributes
                0x00000c7c       0x39 examples/pb_remote/server/CMakeFiles/pb_remote_server_nrf52840_xxAA_s140_6.0.0.dir/__/__/__/mesh/bearer/src/filter_engine.c.obj
 .ARM.attributes
                0x00000cb5       0x39 examples/pb_remote/server/CMakeFiles/pb_remote_server_nrf52840_xxAA_s140_6.0.0.dir/__/__/__/mesh/bearer/src/radio_config.c.obj
 .ARM.attributes
                0x00000cee       0x39 examples/pb_remote/server/CMakeFiles/pb_remote_server_nrf52840_xxAA_s140_6.0.0.dir/__/__/__/mesh/bearer/src/scanner.c.obj
 .ARM.attributes
                0x00000d27       0x39 examples/pb_remote/server/CMakeFiles/pb_remote_server_nrf52840_xxAA_s140_6.0.0.dir/__/__/__/mesh/bearer/src/mesh_pa_lna.c.obj
 .ARM.attributes
                0x00000d60       0x39 examples/pb_remote/server/CMakeFiles/pb_remote_server_nrf52840_xxAA_s140_6.0.0.dir/__/__/__/mesh/prov/src/prov_provisionee.c.obj
 .ARM.attributes
                0x00000d99       0x39 examples/pb_remote/server/CMakeFiles/pb_remote_server_nrf52840_xxAA_s140_6.0.0.dir/__/__/__/mesh/prov/src/nrf_mesh_prov.c.obj
 .ARM.attributes
                0x00000dd2       0x39 examples/pb_remote/server/CMakeFiles/pb_remote_server_nrf52840_xxAA_s140_6.0.0.dir/__/__/__/mesh/prov/src/provisioning.c.obj
 .ARM.attributes
                0x00000e0b       0x39 examples/pb_remote/server/CMakeFiles/pb_remote_server_nrf52840_xxAA_s140_6.0.0.dir/__/__/__/mesh/prov/src/prov_beacon.c.obj
 .ARM.attributes
                0x00000e44       0x39 examples/pb_remote/server/CMakeFiles/pb_remote_server_nrf52840_xxAA_s140_6.0.0.dir/__/__/__/mesh/prov/src/prov_utils.c.obj
 .ARM.attributes
                0x00000e7d       0x39 examples/pb_remote/server/CMakeFiles/pb_remote_server_nrf52840_xxAA_s140_6.0.0.dir/__/__/__/mesh/prov/src/prov_bearer_adv.c.obj
 .ARM.attributes
                0x00000eb6       0x39 examples/pb_remote/server/CMakeFiles/pb_remote_server_nrf52840_xxAA_s140_6.0.0.dir/__/__/__/models/experimental/pb_remote/src/pb_remote_server.c.obj
 .ARM.attributes
                0x00000eef       0x39 examples/pb_remote/server/CMakeFiles/pb_remote_server_nrf52840_xxAA_s140_6.0.0.dir/__/__/__/mesh/access/src/access_publish.c.obj
 .ARM.attributes
                0x00000f28       0x39 examples/pb_remote/server/CMakeFiles/pb_remote_server_nrf52840_xxAA_s140_6.0.0.dir/__/__/__/mesh/access/src/access.c.obj
 .ARM.attributes
                0x00000f61       0x39 examples/pb_remote/server/CMakeFiles/pb_remote_server_nrf52840_xxAA_s140_6.0.0.dir/__/__/__/mesh/access/src/access_reliable.c.obj
 .ARM.attributes
                0x00000f9a       0x39 examples/pb_remote/server/CMakeFiles/pb_remote_server_nrf52840_xxAA_s140_6.0.0.dir/__/__/__/mesh/access/src/access_loopback.c.obj
 .ARM.attributes
                0x00000fd3       0x39 examples/pb_remote/server/CMakeFiles/pb_remote_server_nrf52840_xxAA_s140_6.0.0.dir/__/__/__/mesh/access/src/device_state_manager.c.obj
 .ARM.attributes
                0x0000100c       0x39 examples/pb_remote/server/CMakeFiles/pb_remote_server_nrf52840_xxAA_s140_6.0.0.dir/__/__/__/models/foundation/config/src/composition_data.c.obj
 .ARM.attributes
                0x00001045       0x39 examples/pb_remote/server/CMakeFiles/pb_remote_server_nrf52840_xxAA_s140_6.0.0.dir/__/__/__/models/foundation/config/src/config_server.c.obj
 .ARM.attributes
                0x0000107e       0x39 examples/pb_remote/server/CMakeFiles/pb_remote_server_nrf52840_xxAA_s140_6.0.0.dir/__/__/__/models/foundation/config/src/packed_index_list.c.obj
 .ARM.attributes
                0x000010b7       0x39 examples/pb_remote/server/CMakeFiles/pb_remote_server_nrf52840_xxAA_s140_6.0.0.dir/__/__/__/models/foundation/health/src/health_server.c.obj
 .ARM.attributes
                0x000010f0       0x39 examples/pb_remote/server/CMakeFiles/pb_remote_server_nrf52840_xxAA_s140_6.0.0.dir/C_/sdks/nRF5_SDK_15.0.0_a53641a/modules/nrfx/mdk/system_nrf52840.c.obj
 .ARM.attributes
                0x00001129       0x20 examples/pb_remote/server/CMakeFiles/pb_remote_server_nrf52840_xxAA_s140_6.0.0.dir/C_/sdks/nRF5_SDK_15.0.0_a53641a/modules/nrfx/mdk/gcc_startup_nrf52840.S.obj
 .ARM.attributes
                0x00001149       0x39 examples/pb_remote/server/CMakeFiles/pb_remote_server_nrf52840_xxAA_s140_6.0.0.dir/C_/sdks/nRF5_SDK_15.0.0_a53641a/components/libraries/util/app_error.c.obj
 .ARM.attributes
                0x00001182       0x39 examples/pb_remote/server/CMakeFiles/pb_remote_server_nrf52840_xxAA_s140_6.0.0.dir/C_/sdks/nRF5_SDK_15.0.0_a53641a/components/libraries/util/app_util_platform.c.obj
 .ARM.attributes
                0x000011bb       0x39 examples/pb_remote/server/CMakeFiles/pb_remote_server_nrf52840_xxAA_s140_6.0.0.dir/C_/sdks/nRF5_SDK_15.0.0_a53641a/components/libraries/timer/app_timer.c.obj
 .ARM.attributes
                0x000011f4       0x39 examples/pb_remote/server/CMakeFiles/pb_remote_server_nrf52840_xxAA_s140_6.0.0.dir/C_/sdks/nRF5_SDK_15.0.0_a53641a/components/libraries/util/app_error_handler_gcc.c.obj
 .ARM.attributes
                0x0000122d       0x39 external/rtt/librtt_nrf52840_xxAA.a(SEGGER_RTT.c.obj)
 .ARM.attributes
                0x00001266       0x39 external/rtt/librtt_nrf52840_xxAA.a(SEGGER_RTT_printf.c.obj)
 .ARM.attributes
                0x0000129f       0x39 external/micro-ecc/libuECC_nrf52840_xxAA.a(uECC.c.obj)
 .ARM.attributes
                0x000012d8       0x22 c:/arm_gcc/bin/../lib/gcc/arm-none-eabi/6.3.1/thumb/v7e-m/fpv4-sp/hard\libgcc.a(_aeabi_uldivmod.o)
 .ARM.attributes
                0x000012fa       0x34 c:/arm_gcc/bin/../lib/gcc/arm-none-eabi/6.3.1/thumb/v7e-m/fpv4-sp/hard\libgcc.a(_udivmoddi4.o)
 .ARM.attributes
                0x0000132e       0x22 c:/arm_gcc/bin/../lib/gcc/arm-none-eabi/6.3.1/thumb/v7e-m/fpv4-sp/hard\libgcc.a(_dvmd_tls.o)
 .ARM.attributes
                0x00001350       0x34 c:/arm_gcc/bin/../lib/gcc/arm-none-eabi/6.3.1/../../../../arm-none-eabi/lib/thumb/v7e-m/fpv4-sp/hard\libg_nano.a(lib_a-exit.o)
 .ARM.attributes
                0x00001384       0x34 c:/arm_gcc/bin/../lib/gcc/arm-none-eabi/6.3.1/../../../../arm-none-eabi/lib/thumb/v7e-m/fpv4-sp/hard\libg_nano.a(lib_a-impure.o)
 .ARM.attributes
                0x000013b8       0x34 c:/arm_gcc/bin/../lib/gcc/arm-none-eabi/6.3.1/../../../../arm-none-eabi/lib/thumb/v7e-m/fpv4-sp/hard\libg_nano.a(lib_a-init.o)
 .ARM.attributes
                0x000013ec       0x34 c:/arm_gcc/bin/../lib/gcc/arm-none-eabi/6.3.1/../../../../arm-none-eabi/lib/thumb/v7e-m/fpv4-sp/hard\libg_nano.a(lib_a-malloc.o)
 .ARM.attributes
                0x00001420       0x34 c:/arm_gcc/bin/../lib/gcc/arm-none-eabi/6.3.1/../../../../arm-none-eabi/lib/thumb/v7e-m/fpv4-sp/hard\libg_nano.a(lib_a-memcmp.o)
 .ARM.attributes
                0x00001454       0x34 c:/arm_gcc/bin/../lib/gcc/arm-none-eabi/6.3.1/../../../../arm-none-eabi/lib/thumb/v7e-m/fpv4-sp/hard\libg_nano.a(lib_a-memcpy-stub.o)
 .ARM.attributes
                0x00001488       0x34 c:/arm_gcc/bin/../lib/gcc/arm-none-eabi/6.3.1/../../../../arm-none-eabi/lib/thumb/v7e-m/fpv4-sp/hard\libg_nano.a(lib_a-memset.o)
 .ARM.attributes
                0x000014bc       0x34 c:/arm_gcc/bin/../lib/gcc/arm-none-eabi/6.3.1/../../../../arm-none-eabi/lib/thumb/v7e-m/fpv4-sp/hard\libg_nano.a(lib_a-nano-freer.o)
 .ARM.attributes
                0x000014f0       0x34 c:/arm_gcc/bin/../lib/gcc/arm-none-eabi/6.3.1/../../../../arm-none-eabi/lib/thumb/v7e-m/fpv4-sp/hard\libg_nano.a(lib_a-nano-mallocr.o)
 .ARM.attributes
                0x00001524       0x34 c:/arm_gcc/bin/../lib/gcc/arm-none-eabi/6.3.1/../../../../arm-none-eabi/lib/thumb/v7e-m/fpv4-sp/hard\libg_nano.a(lib_a-sbrkr.o)
 .ARM.attributes
                0x00001558       0x34 c:/arm_gcc/bin/../lib/gcc/arm-none-eabi/6.3.1/../../../../arm-none-eabi/lib/thumb/v7e-m/fpv4-sp/hard\libg_nano.a(lib_a-strcpy.o)
 .ARM.attributes
                0x0000158c       0x1b c:/arm_gcc/bin/../lib/gcc/arm-none-eabi/6.3.1/../../../../arm-none-eabi/lib/thumb/v7e-m/fpv4-sp/hard\libg_nano.a(lib_a-strlen.o)
 .ARM.attributes
                0x000015a7       0x34 c:/arm_gcc/bin/../lib/gcc/arm-none-eabi/6.3.1/../../../../arm-none-eabi/lib/thumb/v7e-m/fpv4-sp/hard\libg_nano.a(lib_a-strrchr.o)
 .ARM.attributes
                0x000015db       0x34 c:/arm_gcc/bin/../lib/gcc/arm-none-eabi/6.3.1/../../../../arm-none-eabi/lib/thumb/v7e-m/fpv4-sp/hard\libg_nano.a(lib_a-mlock.o)
 .ARM.attributes
                0x0000160f       0x34 c:/arm_gcc/bin/../lib/gcc/arm-none-eabi/6.3.1/../../../../arm-none-eabi/lib/thumb/v7e-m/fpv4-sp/hard\libg_nano.a(lib_a-reent.o)
 .ARM.attributes
                0x00001643       0x34 c:/arm_gcc/bin/../lib/gcc/arm-none-eabi/6.3.1/../../../../arm-none-eabi/lib/thumb/v7e-m/fpv4-sp/hard\libg_nano.a(lib_a-strchr.o)
 .ARM.attributes
                0x00001677       0x34 c:/arm_gcc/bin/../lib/gcc/arm-none-eabi/6.3.1/thumb/v7e-m/fpv4-sp/hard/crtend.o
 .ARM.attributes
                0x000016ab       0x22 c:/arm_gcc/bin/../lib/gcc/arm-none-eabi/6.3.1/thumb/v7e-m/fpv4-sp/hard/crtn.o
 .ARM.attributes
                0x000016cd       0x34 c:/arm_gcc/bin/../lib/gcc/arm-none-eabi/6.3.1/../../../../arm-none-eabi/lib/thumb/v7e-m/fpv4-sp/hard\libnosys.a(sbrk.o)
 .ARM.attributes
                0x00001701       0x34 c:/arm_gcc/bin/../lib/gcc/arm-none-eabi/6.3.1/../../../../arm-none-eabi/lib/thumb/v7e-m/fpv4-sp/hard\libnosys.a(_exit.o)

.comment        0x00000000       0x7f
 .comment       0x00000000       0x7f examples/pb_remote/server/CMakeFiles/pb_remote_server_nrf52840_xxAA_s140_6.0.0.dir/src/main.c.obj
                                 0x80 (size before relaxing)
 .comment       0x0000007f       0x80 examples/pb_remote/server/CMakeFiles/pb_remote_server_nrf52840_xxAA_s140_6.0.0.dir/__/__/__/mesh/stack/src/mesh_stack.c.obj
 .comment       0x0000007f       0x80 examples/pb_remote/server/CMakeFiles/pb_remote_server_nrf52840_xxAA_s140_6.0.0.dir/__/__/common/src/mesh_softdevice_init.c.obj
 .comment       0x0000007f       0x80 examples/pb_remote/server/CMakeFiles/pb_remote_server_nrf52840_xxAA_s140_6.0.0.dir/__/__/common/src/mesh_provisionee.c.obj
 .comment       0x0000007f       0x80 examples/pb_remote/server/CMakeFiles/pb_remote_server_nrf52840_xxAA_s140_6.0.0.dir/__/__/common/src/simple_hal.c.obj
 .comment       0x0000007f       0x80 examples/pb_remote/server/CMakeFiles/pb_remote_server_nrf52840_xxAA_s140_6.0.0.dir/__/__/nrf_mesh_weak.c.obj
 .comment       0x0000007f       0x80 examples/pb_remote/server/CMakeFiles/pb_remote_server_nrf52840_xxAA_s140_6.0.0.dir/__/__/common/src/app_error_weak.c.obj
 .comment       0x0000007f       0x80 examples/pb_remote/server/CMakeFiles/pb_remote_server_nrf52840_xxAA_s140_6.0.0.dir/__/__/common/src/assertion_handler_weak.c.obj
 .comment       0x0000007f       0x80 examples/pb_remote/server/CMakeFiles/pb_remote_server_nrf52840_xxAA_s140_6.0.0.dir/__/__/__/mesh/core/src/nrf_mesh_configure.c.obj
 .comment       0x0000007f       0x80 examples/pb_remote/server/CMakeFiles/pb_remote_server_nrf52840_xxAA_s140_6.0.0.dir/__/__/__/mesh/core/src/msg_cache.c.obj
 .comment       0x0000007f       0x80 examples/pb_remote/server/CMakeFiles/pb_remote_server_nrf52840_xxAA_s140_6.0.0.dir/__/__/__/mesh/core/src/transport.c.obj
 .comment       0x0000007f       0x80 examples/pb_remote/server/CMakeFiles/pb_remote_server_nrf52840_xxAA_s140_6.0.0.dir/__/__/__/mesh/core/src/event.c.obj
 .comment       0x0000007f       0x80 examples/pb_remote/server/CMakeFiles/pb_remote_server_nrf52840_xxAA_s140_6.0.0.dir/__/__/__/mesh/core/src/packet_buffer.c.obj
 .comment       0x0000007f       0x80 examples/pb_remote/server/CMakeFiles/pb_remote_server_nrf52840_xxAA_s140_6.0.0.dir/__/__/__/mesh/core/src/flash_manager_defrag.c.obj
 .comment       0x0000007f       0x80 examples/pb_remote/server/CMakeFiles/pb_remote_server_nrf52840_xxAA_s140_6.0.0.dir/__/__/__/mesh/core/src/fifo.c.obj
 .comment       0x0000007f       0x80 examples/pb_remote/server/CMakeFiles/pb_remote_server_nrf52840_xxAA_s140_6.0.0.dir/__/__/__/mesh/core/src/nrf_flash.c.obj
 .comment       0x0000007f       0x80 examples/pb_remote/server/CMakeFiles/pb_remote_server_nrf52840_xxAA_s140_6.0.0.dir/__/__/__/mesh/core/src/packet_mgr.c.obj
 .comment       0x0000007f       0x80 examples/pb_remote/server/CMakeFiles/pb_remote_server_nrf52840_xxAA_s140_6.0.0.dir/__/__/__/mesh/core/src/net_state.c.obj
 .comment       0x0000007f       0x80 examples/pb_remote/server/CMakeFiles/pb_remote_server_nrf52840_xxAA_s140_6.0.0.dir/__/__/__/mesh/core/src/mesh_flash.c.obj
 .comment       0x0000007f       0x80 examples/pb_remote/server/CMakeFiles/pb_remote_server_nrf52840_xxAA_s140_6.0.0.dir/__/__/__/mesh/core/src/nrf_mesh_utils.c.obj
 .comment       0x0000007f       0x80 examples/pb_remote/server/CMakeFiles/pb_remote_server_nrf52840_xxAA_s140_6.0.0.dir/__/__/__/mesh/core/src/nrf_mesh.c.obj
 .comment       0x0000007f       0x80 examples/pb_remote/server/CMakeFiles/pb_remote_server_nrf52840_xxAA_s140_6.0.0.dir/__/__/__/mesh/core/src/queue.c.obj
 .comment       0x0000007f       0x80 examples/pb_remote/server/CMakeFiles/pb_remote_server_nrf52840_xxAA_s140_6.0.0.dir/__/__/__/mesh/core/src/hal.c.obj
 .comment       0x0000007f       0x80 examples/pb_remote/server/CMakeFiles/pb_remote_server_nrf52840_xxAA_s140_6.0.0.dir/__/__/__/mesh/core/src/aes_cmac.c.obj
 .comment       0x0000007f       0x80 examples/pb_remote/server/CMakeFiles/pb_remote_server_nrf52840_xxAA_s140_6.0.0.dir/__/__/__/mesh/core/src/timer_scheduler.c.obj
 .comment       0x0000007f       0x80 examples/pb_remote/server/CMakeFiles/pb_remote_server_nrf52840_xxAA_s140_6.0.0.dir/__/__/__/mesh/core/src/timer.c.obj
 .comment       0x0000007f       0x80 examples/pb_remote/server/CMakeFiles/pb_remote_server_nrf52840_xxAA_s140_6.0.0.dir/__/__/__/mesh/core/src/rand.c.obj
 .comment       0x0000007f       0x80 examples/pb_remote/server/CMakeFiles/pb_remote_server_nrf52840_xxAA_s140_6.0.0.dir/__/__/__/mesh/core/src/mesh_opt.c.obj
 .comment       0x0000007f       0x80 examples/pb_remote/server/CMakeFiles/pb_remote_server_nrf52840_xxAA_s140_6.0.0.dir/__/__/__/mesh/core/src/timeslot.c.obj
 .comment       0x0000007f       0x80 examples/pb_remote/server/CMakeFiles/pb_remote_server_nrf52840_xxAA_s140_6.0.0.dir/__/__/__/mesh/core/src/bearer_event.c.obj
 .comment       0x0000007f       0x80 examples/pb_remote/server/CMakeFiles/pb_remote_server_nrf52840_xxAA_s140_6.0.0.dir/__/__/__/mesh/core/src/enc.c.obj
 .comment       0x0000007f       0x80 examples/pb_remote/server/CMakeFiles/pb_remote_server_nrf52840_xxAA_s140_6.0.0.dir/__/__/__/mesh/core/src/network.c.obj
 .comment       0x0000007f       0x80 examples/pb_remote/server/CMakeFiles/pb_remote_server_nrf52840_xxAA_s140_6.0.0.dir/__/__/__/mesh/core/src/net_packet.c.obj
 .comment       0x0000007f       0x80 examples/pb_remote/server/CMakeFiles/pb_remote_server_nrf52840_xxAA_s140_6.0.0.dir/__/__/__/mesh/core/src/msqueue.c.obj
 .comment       0x0000007f       0x80 examples/pb_remote/server/CMakeFiles/pb_remote_server_nrf52840_xxAA_s140_6.0.0.dir/__/__/__/mesh/core/src/nrf_mesh_keygen.c.obj
 .comment       0x0000007f       0x80 examples/pb_remote/server/CMakeFiles/pb_remote_server_nrf52840_xxAA_s140_6.0.0.dir/__/__/__/mesh/core/src/list.c.obj
 .comment       0x0000007f       0x80 examples/pb_remote/server/CMakeFiles/pb_remote_server_nrf52840_xxAA_s140_6.0.0.dir/__/__/__/mesh/core/src/log.c.obj
 .comment       0x0000007f       0x80 examples/pb_remote/server/CMakeFiles/pb_remote_server_nrf52840_xxAA_s140_6.0.0.dir/__/__/__/mesh/core/src/flash_manager.c.obj
 .comment       0x0000007f       0x80 examples/pb_remote/server/CMakeFiles/pb_remote_server_nrf52840_xxAA_s140_6.0.0.dir/__/__/__/mesh/core/src/ccm_soft.c.obj
 .comment       0x0000007f       0x80 examples/pb_remote/server/CMakeFiles/pb_remote_server_nrf52840_xxAA_s140_6.0.0.dir/__/__/__/mesh/core/src/replay_cache.c.obj
 .comment       0x0000007f       0x80 examples/pb_remote/server/CMakeFiles/pb_remote_server_nrf52840_xxAA_s140_6.0.0.dir/__/__/__/mesh/core/src/beacon.c.obj
 .comment       0x0000007f       0x80 examples/pb_remote/server/CMakeFiles/pb_remote_server_nrf52840_xxAA_s140_6.0.0.dir/__/__/__/mesh/core/src/flash_manager_internal.c.obj
 .comment       0x0000007f       0x80 examples/pb_remote/server/CMakeFiles/pb_remote_server_nrf52840_xxAA_s140_6.0.0.dir/__/__/__/mesh/core/src/core_tx.c.obj
 .comment       0x0000007f       0x80 examples/pb_remote/server/CMakeFiles/pb_remote_server_nrf52840_xxAA_s140_6.0.0.dir/__/__/__/mesh/core/src/heartbeat.c.obj
 .comment       0x0000007f       0x80 examples/pb_remote/server/CMakeFiles/pb_remote_server_nrf52840_xxAA_s140_6.0.0.dir/__/__/__/mesh/core/src/net_beacon.c.obj
 .comment       0x0000007f       0x80 examples/pb_remote/server/CMakeFiles/pb_remote_server_nrf52840_xxAA_s140_6.0.0.dir/__/__/__/mesh/core/src/mesh_config.c.obj
 .comment       0x0000007f       0x80 examples/pb_remote/server/CMakeFiles/pb_remote_server_nrf52840_xxAA_s140_6.0.0.dir/__/__/__/mesh/core/src/mesh_config_backend.c.obj
 .comment       0x0000007f       0x80 examples/pb_remote/server/CMakeFiles/pb_remote_server_nrf52840_xxAA_s140_6.0.0.dir/__/__/__/mesh/core/src/mesh_config_flashman_glue.c.obj
 .comment       0x0000007f       0x80 examples/pb_remote/server/CMakeFiles/pb_remote_server_nrf52840_xxAA_s140_6.0.0.dir/__/__/__/mesh/core/src/core_tx_adv.c.obj
 .comment       0x0000007f       0x80 examples/pb_remote/server/CMakeFiles/pb_remote_server_nrf52840_xxAA_s140_6.0.0.dir/__/__/__/mesh/bearer/src/ad_listener.c.obj
 .comment       0x0000007f       0x80 examples/pb_remote/server/CMakeFiles/pb_remote_server_nrf52840_xxAA_s140_6.0.0.dir/__/__/__/mesh/bearer/src/ad_type_filter.c.obj
 .comment       0x0000007f       0x80 examples/pb_remote/server/CMakeFiles/pb_remote_server_nrf52840_xxAA_s140_6.0.0.dir/__/__/__/mesh/bearer/src/advertiser.c.obj
 .comment       0x0000007f       0x80 examples/pb_remote/server/CMakeFiles/pb_remote_server_nrf52840_xxAA_s140_6.0.0.dir/__/__/__/mesh/bearer/src/bearer_handler.c.obj
 .comment       0x0000007f       0x80 examples/pb_remote/server/CMakeFiles/pb_remote_server_nrf52840_xxAA_s140_6.0.0.dir/__/__/__/mesh/bearer/src/broadcast.c.obj
 .comment       0x0000007f       0x80 examples/pb_remote/server/CMakeFiles/pb_remote_server_nrf52840_xxAA_s140_6.0.0.dir/__/__/__/mesh/bearer/src/filter_engine.c.obj
 .comment       0x0000007f       0x80 examples/pb_remote/server/CMakeFiles/pb_remote_server_nrf52840_xxAA_s140_6.0.0.dir/__/__/__/mesh/bearer/src/radio_config.c.obj
 .comment       0x0000007f       0x80 examples/pb_remote/server/CMakeFiles/pb_remote_server_nrf52840_xxAA_s140_6.0.0.dir/__/__/__/mesh/bearer/src/scanner.c.obj
 .comment       0x0000007f       0x80 examples/pb_remote/server/CMakeFiles/pb_remote_server_nrf52840_xxAA_s140_6.0.0.dir/__/__/__/mesh/bearer/src/mesh_pa_lna.c.obj
 .comment       0x0000007f       0x80 examples/pb_remote/server/CMakeFiles/pb_remote_server_nrf52840_xxAA_s140_6.0.0.dir/__/__/__/mesh/prov/src/prov_provisionee.c.obj
 .comment       0x0000007f       0x80 examples/pb_remote/server/CMakeFiles/pb_remote_server_nrf52840_xxAA_s140_6.0.0.dir/__/__/__/mesh/prov/src/nrf_mesh_prov.c.obj
 .comment       0x0000007f       0x80 examples/pb_remote/server/CMakeFiles/pb_remote_server_nrf52840_xxAA_s140_6.0.0.dir/__/__/__/mesh/prov/src/provisioning.c.obj
 .comment       0x0000007f       0x80 examples/pb_remote/server/CMakeFiles/pb_remote_server_nrf52840_xxAA_s140_6.0.0.dir/__/__/__/mesh/prov/src/prov_beacon.c.obj
 .comment       0x0000007f       0x80 examples/pb_remote/server/CMakeFiles/pb_remote_server_nrf52840_xxAA_s140_6.0.0.dir/__/__/__/mesh/prov/src/prov_utils.c.obj
 .comment       0x0000007f       0x80 examples/pb_remote/server/CMakeFiles/pb_remote_server_nrf52840_xxAA_s140_6.0.0.dir/__/__/__/mesh/prov/src/prov_bearer_adv.c.obj
 .comment       0x0000007f       0x80 examples/pb_remote/server/CMakeFiles/pb_remote_server_nrf52840_xxAA_s140_6.0.0.dir/__/__/__/models/experimental/pb_remote/src/pb_remote_server.c.obj
 .comment       0x0000007f       0x80 examples/pb_remote/server/CMakeFiles/pb_remote_server_nrf52840_xxAA_s140_6.0.0.dir/__/__/__/mesh/access/src/access_publish.c.obj
 .comment       0x0000007f       0x80 examples/pb_remote/server/CMakeFiles/pb_remote_server_nrf52840_xxAA_s140_6.0.0.dir/__/__/__/mesh/access/src/access.c.obj
 .comment       0x0000007f       0x80 examples/pb_remote/server/CMakeFiles/pb_remote_server_nrf52840_xxAA_s140_6.0.0.dir/__/__/__/mesh/access/src/access_reliable.c.obj
 .comment       0x0000007f       0x80 examples/pb_remote/server/CMakeFiles/pb_remote_server_nrf52840_xxAA_s140_6.0.0.dir/__/__/__/mesh/access/src/access_loopback.c.obj
 .comment       0x0000007f       0x80 examples/pb_remote/server/CMakeFiles/pb_remote_server_nrf52840_xxAA_s140_6.0.0.dir/__/__/__/mesh/access/src/device_state_manager.c.obj
 .comment       0x0000007f       0x80 examples/pb_remote/server/CMakeFiles/pb_remote_server_nrf52840_xxAA_s140_6.0.0.dir/__/__/__/models/foundation/config/src/composition_data.c.obj
 .comment       0x0000007f       0x80 examples/pb_remote/server/CMakeFiles/pb_remote_server_nrf52840_xxAA_s140_6.0.0.dir/__/__/__/models/foundation/config/src/config_server.c.obj
 .comment       0x0000007f       0x80 examples/pb_remote/server/CMakeFiles/pb_remote_server_nrf52840_xxAA_s140_6.0.0.dir/__/__/__/models/foundation/config/src/packed_index_list.c.obj
 .comment       0x0000007f       0x80 examples/pb_remote/server/CMakeFiles/pb_remote_server_nrf52840_xxAA_s140_6.0.0.dir/__/__/__/models/foundation/health/src/health_server.c.obj
 .comment       0x0000007f       0x80 examples/pb_remote/server/CMakeFiles/pb_remote_server_nrf52840_xxAA_s140_6.0.0.dir/C_/sdks/nRF5_SDK_15.0.0_a53641a/modules/nrfx/mdk/system_nrf52840.c.obj
 .comment       0x0000007f       0x80 examples/pb_remote/server/CMakeFiles/pb_remote_server_nrf52840_xxAA_s140_6.0.0.dir/C_/sdks/nRF5_SDK_15.0.0_a53641a/components/libraries/util/app_error.c.obj
 .comment       0x0000007f       0x80 examples/pb_remote/server/CMakeFiles/pb_remote_server_nrf52840_xxAA_s140_6.0.0.dir/C_/sdks/nRF5_SDK_15.0.0_a53641a/components/libraries/util/app_util_platform.c.obj
 .comment       0x0000007f       0x80 examples/pb_remote/server/CMakeFiles/pb_remote_server_nrf52840_xxAA_s140_6.0.0.dir/C_/sdks/nRF5_SDK_15.0.0_a53641a/components/libraries/timer/app_timer.c.obj
 .comment       0x0000007f       0x80 examples/pb_remote/server/CMakeFiles/pb_remote_server_nrf52840_xxAA_s140_6.0.0.dir/C_/sdks/nRF5_SDK_15.0.0_a53641a/components/libraries/util/app_error_handler_gcc.c.obj
 .comment       0x0000007f       0x80 external/rtt/librtt_nrf52840_xxAA.a(SEGGER_RTT.c.obj)
 .comment       0x0000007f       0x80 external/rtt/librtt_nrf52840_xxAA.a(SEGGER_RTT_printf.c.obj)
 .comment       0x0000007f       0x80 external/micro-ecc/libuECC_nrf52840_xxAA.a(uECC.c.obj)

.debug_info     0x00000000    0x90a9e
 .debug_info    0x00000000     0x338e examples/pb_remote/server/CMakeFiles/pb_remote_server_nrf52840_xxAA_s140_6.0.0.dir/src/main.c.obj
 .debug_info    0x0000338e     0x2540 examples/pb_remote/server/CMakeFiles/pb_remote_server_nrf52840_xxAA_s140_6.0.0.dir/__/__/__/mesh/stack/src/mesh_stack.c.obj
 .debug_info    0x000058ce     0x1bac examples/pb_remote/server/CMakeFiles/pb_remote_server_nrf52840_xxAA_s140_6.0.0.dir/__/__/common/src/mesh_softdevice_init.c.obj
 .debug_info    0x0000747a     0x22e4 examples/pb_remote/server/CMakeFiles/pb_remote_server_nrf52840_xxAA_s140_6.0.0.dir/__/__/common/src/mesh_provisionee.c.obj
 .debug_info    0x0000975e     0x1623 examples/pb_remote/server/CMakeFiles/pb_remote_server_nrf52840_xxAA_s140_6.0.0.dir/__/__/common/src/simple_hal.c.obj
 .debug_info    0x0000ad81      0x950 examples/pb_remote/server/CMakeFiles/pb_remote_server_nrf52840_xxAA_s140_6.0.0.dir/__/__/nrf_mesh_weak.c.obj
 .debug_info    0x0000b6d1     0x106b examples/pb_remote/server/CMakeFiles/pb_remote_server_nrf52840_xxAA_s140_6.0.0.dir/__/__/common/src/app_error_weak.c.obj
 .debug_info    0x0000c73c      0x99b examples/pb_remote/server/CMakeFiles/pb_remote_server_nrf52840_xxAA_s140_6.0.0.dir/__/__/common/src/assertion_handler_weak.c.obj
 .debug_info    0x0000d0d7      0xdff examples/pb_remote/server/CMakeFiles/pb_remote_server_nrf52840_xxAA_s140_6.0.0.dir/__/__/__/mesh/core/src/nrf_mesh_configure.c.obj
 .debug_info    0x0000ded6      0xa86 examples/pb_remote/server/CMakeFiles/pb_remote_server_nrf52840_xxAA_s140_6.0.0.dir/__/__/__/mesh/core/src/msg_cache.c.obj
 .debug_info    0x0000e95c     0x51b5 examples/pb_remote/server/CMakeFiles/pb_remote_server_nrf52840_xxAA_s140_6.0.0.dir/__/__/__/mesh/core/src/transport.c.obj
 .debug_info    0x00013b11     0x191a examples/pb_remote/server/CMakeFiles/pb_remote_server_nrf52840_xxAA_s140_6.0.0.dir/__/__/__/mesh/core/src/event.c.obj
 .debug_info    0x0001542b     0x1b1c examples/pb_remote/server/CMakeFiles/pb_remote_server_nrf52840_xxAA_s140_6.0.0.dir/__/__/__/mesh/core/src/packet_buffer.c.obj
 .debug_info    0x00016f47     0x2157 examples/pb_remote/server/CMakeFiles/pb_remote_server_nrf52840_xxAA_s140_6.0.0.dir/__/__/__/mesh/core/src/flash_manager_defrag.c.obj
 .debug_info    0x0001909e      0xd19 examples/pb_remote/server/CMakeFiles/pb_remote_server_nrf52840_xxAA_s140_6.0.0.dir/__/__/__/mesh/core/src/fifo.c.obj
 .debug_info    0x00019db7      0xb84 examples/pb_remote/server/CMakeFiles/pb_remote_server_nrf52840_xxAA_s140_6.0.0.dir/__/__/__/mesh/core/src/nrf_flash.c.obj
 .debug_info    0x0001a93b     0x11b9 examples/pb_remote/server/CMakeFiles/pb_remote_server_nrf52840_xxAA_s140_6.0.0.dir/__/__/__/mesh/core/src/packet_mgr.c.obj
 .debug_info    0x0001baf4     0x295c examples/pb_remote/server/CMakeFiles/pb_remote_server_nrf52840_xxAA_s140_6.0.0.dir/__/__/__/mesh/core/src/net_state.c.obj
 .debug_info    0x0001e450     0x196f examples/pb_remote/server/CMakeFiles/pb_remote_server_nrf52840_xxAA_s140_6.0.0.dir/__/__/__/mesh/core/src/mesh_flash.c.obj
 .debug_info    0x0001fdbf      0xaa4 examples/pb_remote/server/CMakeFiles/pb_remote_server_nrf52840_xxAA_s140_6.0.0.dir/__/__/__/mesh/core/src/nrf_mesh_utils.c.obj
 .debug_info    0x00020863     0x271c examples/pb_remote/server/CMakeFiles/pb_remote_server_nrf52840_xxAA_s140_6.0.0.dir/__/__/__/mesh/core/src/nrf_mesh.c.obj
 .debug_info    0x00022f7f      0xb3d examples/pb_remote/server/CMakeFiles/pb_remote_server_nrf52840_xxAA_s140_6.0.0.dir/__/__/__/mesh/core/src/queue.c.obj
 .debug_info    0x00023abc      0x7d1 examples/pb_remote/server/CMakeFiles/pb_remote_server_nrf52840_xxAA_s140_6.0.0.dir/__/__/__/mesh/core/src/hal.c.obj
 .debug_info    0x0002428d      0xf9b examples/pb_remote/server/CMakeFiles/pb_remote_server_nrf52840_xxAA_s140_6.0.0.dir/__/__/__/mesh/core/src/aes_cmac.c.obj
 .debug_info    0x00025228      0xfd1 examples/pb_remote/server/CMakeFiles/pb_remote_server_nrf52840_xxAA_s140_6.0.0.dir/__/__/__/mesh/core/src/timer_scheduler.c.obj
 .debug_info    0x000261f9      0xdb4 examples/pb_remote/server/CMakeFiles/pb_remote_server_nrf52840_xxAA_s140_6.0.0.dir/__/__/__/mesh/core/src/timer.c.obj
 .debug_info    0x00026fad      0x426 examples/pb_remote/server/CMakeFiles/pb_remote_server_nrf52840_xxAA_s140_6.0.0.dir/__/__/__/mesh/core/src/rand.c.obj
 .debug_info    0x000273d3      0xd3a examples/pb_remote/server/CMakeFiles/pb_remote_server_nrf52840_xxAA_s140_6.0.0.dir/__/__/__/mesh/core/src/mesh_opt.c.obj
 .debug_info    0x0002810d     0x1a9d examples/pb_remote/server/CMakeFiles/pb_remote_server_nrf52840_xxAA_s140_6.0.0.dir/__/__/__/mesh/core/src/timeslot.c.obj
 .debug_info    0x00029baa     0x1afd examples/pb_remote/server/CMakeFiles/pb_remote_server_nrf52840_xxAA_s140_6.0.0.dir/__/__/__/mesh/core/src/bearer_event.c.obj
 .debug_info    0x0002b6a7     0x1955 examples/pb_remote/server/CMakeFiles/pb_remote_server_nrf52840_xxAA_s140_6.0.0.dir/__/__/__/mesh/core/src/enc.c.obj
 .debug_info    0x0002cffc     0x1f61 examples/pb_remote/server/CMakeFiles/pb_remote_server_nrf52840_xxAA_s140_6.0.0.dir/__/__/__/mesh/core/src/network.c.obj
 .debug_info    0x0002ef5d     0x1cde examples/pb_remote/server/CMakeFiles/pb_remote_server_nrf52840_xxAA_s140_6.0.0.dir/__/__/__/mesh/core/src/net_packet.c.obj
 .debug_info    0x00030c3b      0xdb2 examples/pb_remote/server/CMakeFiles/pb_remote_server_nrf52840_xxAA_s140_6.0.0.dir/__/__/__/mesh/core/src/msqueue.c.obj
 .debug_info    0x000319ed      0x4c8 examples/pb_remote/server/CMakeFiles/pb_remote_server_nrf52840_xxAA_s140_6.0.0.dir/__/__/__/mesh/core/src/nrf_mesh_keygen.c.obj
 .debug_info    0x00031eb5      0x506 examples/pb_remote/server/CMakeFiles/pb_remote_server_nrf52840_xxAA_s140_6.0.0.dir/__/__/__/mesh/core/src/list.c.obj
 .debug_info    0x000323bb      0xe28 examples/pb_remote/server/CMakeFiles/pb_remote_server_nrf52840_xxAA_s140_6.0.0.dir/__/__/__/mesh/core/src/log.c.obj
 .debug_info    0x000331e3     0x3050 examples/pb_remote/server/CMakeFiles/pb_remote_server_nrf52840_xxAA_s140_6.0.0.dir/__/__/__/mesh/core/src/flash_manager.c.obj
 .debug_info    0x00036233     0x1317 examples/pb_remote/server/CMakeFiles/pb_remote_server_nrf52840_xxAA_s140_6.0.0.dir/__/__/__/mesh/core/src/ccm_soft.c.obj
 .debug_info    0x0003754a      0xa95 examples/pb_remote/server/CMakeFiles/pb_remote_server_nrf52840_xxAA_s140_6.0.0.dir/__/__/__/mesh/core/src/replay_cache.c.obj
 .debug_info    0x00037fdf     0x17c8 examples/pb_remote/server/CMakeFiles/pb_remote_server_nrf52840_xxAA_s140_6.0.0.dir/__/__/__/mesh/core/src/beacon.c.obj
 .debug_info    0x000397a7      0xbc7 examples/pb_remote/server/CMakeFiles/pb_remote_server_nrf52840_xxAA_s140_6.0.0.dir/__/__/__/mesh/core/src/flash_manager_internal.c.obj
 .debug_info    0x0003a36e     0x129b examples/pb_remote/server/CMakeFiles/pb_remote_server_nrf52840_xxAA_s140_6.0.0.dir/__/__/__/mesh/core/src/core_tx.c.obj
 .debug_info    0x0003b609     0x283c examples/pb_remote/server/CMakeFiles/pb_remote_server_nrf52840_xxAA_s140_6.0.0.dir/__/__/__/mesh/core/src/heartbeat.c.obj
 .debug_info    0x0003de45     0x2d5a examples/pb_remote/server/CMakeFiles/pb_remote_server_nrf52840_xxAA_s140_6.0.0.dir/__/__/__/mesh/core/src/net_beacon.c.obj
 .debug_info    0x00040b9f     0x2847 examples/pb_remote/server/CMakeFiles/pb_remote_server_nrf52840_xxAA_s140_6.0.0.dir/__/__/__/mesh/core/src/mesh_config.c.obj
 .debug_info    0x000433e6     0x16fc examples/pb_remote/server/CMakeFiles/pb_remote_server_nrf52840_xxAA_s140_6.0.0.dir/__/__/__/mesh/core/src/mesh_config_backend.c.obj
 .debug_info    0x00044ae2     0x20af examples/pb_remote/server/CMakeFiles/pb_remote_server_nrf52840_xxAA_s140_6.0.0.dir/__/__/__/mesh/core/src/mesh_config_flashman_glue.c.obj
 .debug_info    0x00046b91     0x23a5 examples/pb_remote/server/CMakeFiles/pb_remote_server_nrf52840_xxAA_s140_6.0.0.dir/__/__/__/mesh/core/src/core_tx_adv.c.obj
 .debug_info    0x00048f36     0x1189 examples/pb_remote/server/CMakeFiles/pb_remote_server_nrf52840_xxAA_s140_6.0.0.dir/__/__/__/mesh/bearer/src/ad_listener.c.obj
 .debug_info    0x0004a0bf      0xfea examples/pb_remote/server/CMakeFiles/pb_remote_server_nrf52840_xxAA_s140_6.0.0.dir/__/__/__/mesh/bearer/src/ad_type_filter.c.obj
 .debug_info    0x0004b0a9     0x26e6 examples/pb_remote/server/CMakeFiles/pb_remote_server_nrf52840_xxAA_s140_6.0.0.dir/__/__/__/mesh/bearer/src/advertiser.c.obj
 .debug_info    0x0004d78f     0x2346 examples/pb_remote/server/CMakeFiles/pb_remote_server_nrf52840_xxAA_s140_6.0.0.dir/__/__/__/mesh/bearer/src/bearer_handler.c.obj
 .debug_info    0x0004fad5     0x1bbe examples/pb_remote/server/CMakeFiles/pb_remote_server_nrf52840_xxAA_s140_6.0.0.dir/__/__/__/mesh/bearer/src/broadcast.c.obj
 .debug_info    0x00051693      0xd2b examples/pb_remote/server/CMakeFiles/pb_remote_server_nrf52840_xxAA_s140_6.0.0.dir/__/__/__/mesh/bearer/src/filter_engine.c.obj
 .debug_info    0x000523be      0xa53 examples/pb_remote/server/CMakeFiles/pb_remote_server_nrf52840_xxAA_s140_6.0.0.dir/__/__/__/mesh/bearer/src/radio_config.c.obj
 .debug_info    0x00052e11     0x28f7 examples/pb_remote/server/CMakeFiles/pb_remote_server_nrf52840_xxAA_s140_6.0.0.dir/__/__/__/mesh/bearer/src/scanner.c.obj
 .debug_info    0x00055708     0x107c examples/pb_remote/server/CMakeFiles/pb_remote_server_nrf52840_xxAA_s140_6.0.0.dir/__/__/__/mesh/bearer/src/mesh_pa_lna.c.obj
 .debug_info    0x00056784     0x29c0 examples/pb_remote/server/CMakeFiles/pb_remote_server_nrf52840_xxAA_s140_6.0.0.dir/__/__/__/mesh/prov/src/prov_provisionee.c.obj
 .debug_info    0x00059144     0x1f7a examples/pb_remote/server/CMakeFiles/pb_remote_server_nrf52840_xxAA_s140_6.0.0.dir/__/__/__/mesh/prov/src/nrf_mesh_prov.c.obj
 .debug_info    0x0005b0be     0x15b2 examples/pb_remote/server/CMakeFiles/pb_remote_server_nrf52840_xxAA_s140_6.0.0.dir/__/__/__/mesh/prov/src/provisioning.c.obj
 .debug_info    0x0005c670     0x1b18 examples/pb_remote/server/CMakeFiles/pb_remote_server_nrf52840_xxAA_s140_6.0.0.dir/__/__/__/mesh/prov/src/prov_beacon.c.obj
 .debug_info    0x0005e188     0x2489 examples/pb_remote/server/CMakeFiles/pb_remote_server_nrf52840_xxAA_s140_6.0.0.dir/__/__/__/mesh/prov/src/prov_utils.c.obj
 .debug_info    0x00060611     0x3afd examples/pb_remote/server/CMakeFiles/pb_remote_server_nrf52840_xxAA_s140_6.0.0.dir/__/__/__/mesh/prov/src/prov_bearer_adv.c.obj
 .debug_info    0x0006410e     0x512b examples/pb_remote/server/CMakeFiles/pb_remote_server_nrf52840_xxAA_s140_6.0.0.dir/__/__/__/models/experimental/pb_remote/src/pb_remote_server.c.obj
 .debug_info    0x00069239     0x1169 examples/pb_remote/server/CMakeFiles/pb_remote_server_nrf52840_xxAA_s140_6.0.0.dir/__/__/__/mesh/access/src/access_publish.c.obj
 .debug_info    0x0006a3a2     0x4bf7 examples/pb_remote/server/CMakeFiles/pb_remote_server_nrf52840_xxAA_s140_6.0.0.dir/__/__/__/mesh/access/src/access.c.obj
 .debug_info    0x0006ef99     0x19d4 examples/pb_remote/server/CMakeFiles/pb_remote_server_nrf52840_xxAA_s140_6.0.0.dir/__/__/__/mesh/access/src/access_reliable.c.obj
 .debug_info    0x0007096d      0xfeb examples/pb_remote/server/CMakeFiles/pb_remote_server_nrf52840_xxAA_s140_6.0.0.dir/__/__/__/mesh/access/src/access_loopback.c.obj
 .debug_info    0x00071958     0x689c examples/pb_remote/server/CMakeFiles/pb_remote_server_nrf52840_xxAA_s140_6.0.0.dir/__/__/__/mesh/access/src/device_state_manager.c.obj
 .debug_info    0x000781f4      0xed3 examples/pb_remote/server/CMakeFiles/pb_remote_server_nrf52840_xxAA_s140_6.0.0.dir/__/__/__/models/foundation/config/src/composition_data.c.obj
 .debug_info    0x000790c7     0x8af7 examples/pb_remote/server/CMakeFiles/pb_remote_server_nrf52840_xxAA_s140_6.0.0.dir/__/__/__/models/foundation/config/src/config_server.c.obj
 .debug_info    0x00081bbe      0x126 examples/pb_remote/server/CMakeFiles/pb_remote_server_nrf52840_xxAA_s140_6.0.0.dir/__/__/__/models/foundation/config/src/packed_index_list.c.obj
 .debug_info    0x00081ce4     0x2611 examples/pb_remote/server/CMakeFiles/pb_remote_server_nrf52840_xxAA_s140_6.0.0.dir/__/__/__/models/foundation/health/src/health_server.c.obj
 .debug_info    0x000842f5     0x139f examples/pb_remote/server/CMakeFiles/pb_remote_server_nrf52840_xxAA_s140_6.0.0.dir/C_/sdks/nRF5_SDK_15.0.0_a53641a/modules/nrfx/mdk/system_nrf52840.c.obj
 .debug_info    0x00085694      0xaee examples/pb_remote/server/CMakeFiles/pb_remote_server_nrf52840_xxAA_s140_6.0.0.dir/C_/sdks/nRF5_SDK_15.0.0_a53641a/components/libraries/util/app_error.c.obj
 .debug_info    0x00086182     0x11bd examples/pb_remote/server/CMakeFiles/pb_remote_server_nrf52840_xxAA_s140_6.0.0.dir/C_/sdks/nRF5_SDK_15.0.0_a53641a/components/libraries/util/app_util_platform.c.obj
 .debug_info    0x0008733f     0x2201 examples/pb_remote/server/CMakeFiles/pb_remote_server_nrf52840_xxAA_s140_6.0.0.dir/C_/sdks/nRF5_SDK_15.0.0_a53641a/components/libraries/timer/app_timer.c.obj
 .debug_info    0x00089540      0x974 examples/pb_remote/server/CMakeFiles/pb_remote_server_nrf52840_xxAA_s140_6.0.0.dir/C_/sdks/nRF5_SDK_15.0.0_a53641a/components/libraries/util/app_error_handler_gcc.c.obj
 .debug_info    0x00089eb4     0x1818 external/rtt/librtt_nrf52840_xxAA.a(SEGGER_RTT.c.obj)
 .debug_info    0x0008b6cc      0xec1 external/rtt/librtt_nrf52840_xxAA.a(SEGGER_RTT_printf.c.obj)
 .debug_info    0x0008c58d     0x4511 external/micro-ecc/libuECC_nrf52840_xxAA.a(uECC.c.obj)

.debug_abbrev   0x00000000    0x1236a
 .debug_abbrev  0x00000000      0x4a7 examples/pb_remote/server/CMakeFiles/pb_remote_server_nrf52840_xxAA_s140_6.0.0.dir/src/main.c.obj
 .debug_abbrev  0x000004a7      0x378 examples/pb_remote/server/CMakeFiles/pb_remote_server_nrf52840_xxAA_s140_6.0.0.dir/__/__/__/mesh/stack/src/mesh_stack.c.obj
 .debug_abbrev  0x0000081f      0x432 examples/pb_remote/server/CMakeFiles/pb_remote_server_nrf52840_xxAA_s140_6.0.0.dir/__/__/common/src/mesh_softdevice_init.c.obj
 .debug_abbrev  0x00000c51      0x31b examples/pb_remote/server/CMakeFiles/pb_remote_server_nrf52840_xxAA_s140_6.0.0.dir/__/__/common/src/mesh_provisionee.c.obj
 .debug_abbrev  0x00000f6c      0x3a3 examples/pb_remote/server/CMakeFiles/pb_remote_server_nrf52840_xxAA_s140_6.0.0.dir/__/__/common/src/simple_hal.c.obj
 .debug_abbrev  0x0000130f      0x1ae examples/pb_remote/server/CMakeFiles/pb_remote_server_nrf52840_xxAA_s140_6.0.0.dir/__/__/nrf_mesh_weak.c.obj
 .debug_abbrev  0x000014bd      0x2de examples/pb_remote/server/CMakeFiles/pb_remote_server_nrf52840_xxAA_s140_6.0.0.dir/__/__/common/src/app_error_weak.c.obj
 .debug_abbrev  0x0000179b      0x1f6 examples/pb_remote/server/CMakeFiles/pb_remote_server_nrf52840_xxAA_s140_6.0.0.dir/__/__/common/src/assertion_handler_weak.c.obj
 .debug_abbrev  0x00001991      0x254 examples/pb_remote/server/CMakeFiles/pb_remote_server_nrf52840_xxAA_s140_6.0.0.dir/__/__/__/mesh/core/src/nrf_mesh_configure.c.obj
 .debug_abbrev  0x00001be5      0x25d examples/pb_remote/server/CMakeFiles/pb_remote_server_nrf52840_xxAA_s140_6.0.0.dir/__/__/__/mesh/core/src/msg_cache.c.obj
 .debug_abbrev  0x00001e42      0x5ca examples/pb_remote/server/CMakeFiles/pb_remote_server_nrf52840_xxAA_s140_6.0.0.dir/__/__/__/mesh/core/src/transport.c.obj
 .debug_abbrev  0x0000240c      0x314 examples/pb_remote/server/CMakeFiles/pb_remote_server_nrf52840_xxAA_s140_6.0.0.dir/__/__/__/mesh/core/src/event.c.obj
 .debug_abbrev  0x00002720      0x468 examples/pb_remote/server/CMakeFiles/pb_remote_server_nrf52840_xxAA_s140_6.0.0.dir/__/__/__/mesh/core/src/packet_buffer.c.obj
 .debug_abbrev  0x00002b88      0x50e examples/pb_remote/server/CMakeFiles/pb_remote_server_nrf52840_xxAA_s140_6.0.0.dir/__/__/__/mesh/core/src/flash_manager_defrag.c.obj
 .debug_abbrev  0x00003096      0x2f2 examples/pb_remote/server/CMakeFiles/pb_remote_server_nrf52840_xxAA_s140_6.0.0.dir/__/__/__/mesh/core/src/fifo.c.obj
 .debug_abbrev  0x00003388      0x21f examples/pb_remote/server/CMakeFiles/pb_remote_server_nrf52840_xxAA_s140_6.0.0.dir/__/__/__/mesh/core/src/nrf_flash.c.obj
 .debug_abbrev  0x000035a7      0x3b1 examples/pb_remote/server/CMakeFiles/pb_remote_server_nrf52840_xxAA_s140_6.0.0.dir/__/__/__/mesh/core/src/packet_mgr.c.obj
 .debug_abbrev  0x00003958      0x552 examples/pb_remote/server/CMakeFiles/pb_remote_server_nrf52840_xxAA_s140_6.0.0.dir/__/__/__/mesh/core/src/net_state.c.obj
 .debug_abbrev  0x00003eaa      0x453 examples/pb_remote/server/CMakeFiles/pb_remote_server_nrf52840_xxAA_s140_6.0.0.dir/__/__/__/mesh/core/src/mesh_flash.c.obj
 .debug_abbrev  0x000042fd      0x242 examples/pb_remote/server/CMakeFiles/pb_remote_server_nrf52840_xxAA_s140_6.0.0.dir/__/__/__/mesh/core/src/nrf_mesh_utils.c.obj
 .debug_abbrev  0x0000453f      0x45f examples/pb_remote/server/CMakeFiles/pb_remote_server_nrf52840_xxAA_s140_6.0.0.dir/__/__/__/mesh/core/src/nrf_mesh.c.obj
 .debug_abbrev  0x0000499e      0x247 examples/pb_remote/server/CMakeFiles/pb_remote_server_nrf52840_xxAA_s140_6.0.0.dir/__/__/__/mesh/core/src/queue.c.obj
 .debug_abbrev  0x00004be5      0x244 examples/pb_remote/server/CMakeFiles/pb_remote_server_nrf52840_xxAA_s140_6.0.0.dir/__/__/__/mesh/core/src/hal.c.obj
 .debug_abbrev  0x00004e29      0x341 examples/pb_remote/server/CMakeFiles/pb_remote_server_nrf52840_xxAA_s140_6.0.0.dir/__/__/__/mesh/core/src/aes_cmac.c.obj
 .debug_abbrev  0x0000516a      0x360 examples/pb_remote/server/CMakeFiles/pb_remote_server_nrf52840_xxAA_s140_6.0.0.dir/__/__/__/mesh/core/src/timer_scheduler.c.obj
 .debug_abbrev  0x000054ca      0x337 examples/pb_remote/server/CMakeFiles/pb_remote_server_nrf52840_xxAA_s140_6.0.0.dir/__/__/__/mesh/core/src/timer.c.obj
 .debug_abbrev  0x00005801      0x194 examples/pb_remote/server/CMakeFiles/pb_remote_server_nrf52840_xxAA_s140_6.0.0.dir/__/__/__/mesh/core/src/rand.c.obj
 .debug_abbrev  0x00005995      0x21f examples/pb_remote/server/CMakeFiles/pb_remote_server_nrf52840_xxAA_s140_6.0.0.dir/__/__/__/mesh/core/src/mesh_opt.c.obj
 .debug_abbrev  0x00005bb4      0x4a4 examples/pb_remote/server/CMakeFiles/pb_remote_server_nrf52840_xxAA_s140_6.0.0.dir/__/__/__/mesh/core/src/timeslot.c.obj
 .debug_abbrev  0x00006058      0x495 examples/pb_remote/server/CMakeFiles/pb_remote_server_nrf52840_xxAA_s140_6.0.0.dir/__/__/__/mesh/core/src/bearer_event.c.obj
 .debug_abbrev  0x000064ed      0x3be examples/pb_remote/server/CMakeFiles/pb_remote_server_nrf52840_xxAA_s140_6.0.0.dir/__/__/__/mesh/core/src/enc.c.obj
 .debug_abbrev  0x000068ab      0x4b0 examples/pb_remote/server/CMakeFiles/pb_remote_server_nrf52840_xxAA_s140_6.0.0.dir/__/__/__/mesh/core/src/network.c.obj
 .debug_abbrev  0x00006d5b      0x4a1 examples/pb_remote/server/CMakeFiles/pb_remote_server_nrf52840_xxAA_s140_6.0.0.dir/__/__/__/mesh/core/src/net_packet.c.obj
 .debug_abbrev  0x000071fc      0x2c0 examples/pb_remote/server/CMakeFiles/pb_remote_server_nrf52840_xxAA_s140_6.0.0.dir/__/__/__/mesh/core/src/msqueue.c.obj
 .debug_abbrev  0x000074bc      0x163 examples/pb_remote/server/CMakeFiles/pb_remote_server_nrf52840_xxAA_s140_6.0.0.dir/__/__/__/mesh/core/src/nrf_mesh_keygen.c.obj
 .debug_abbrev  0x0000761f      0x1a4 examples/pb_remote/server/CMakeFiles/pb_remote_server_nrf52840_xxAA_s140_6.0.0.dir/__/__/__/mesh/core/src/list.c.obj
 .debug_abbrev  0x000077c3      0x24e examples/pb_remote/server/CMakeFiles/pb_remote_server_nrf52840_xxAA_s140_6.0.0.dir/__/__/__/mesh/core/src/log.c.obj
 .debug_abbrev  0x00007a11      0x524 examples/pb_remote/server/CMakeFiles/pb_remote_server_nrf52840_xxAA_s140_6.0.0.dir/__/__/__/mesh/core/src/flash_manager.c.obj
 .debug_abbrev  0x00007f35      0x3a4 examples/pb_remote/server/CMakeFiles/pb_remote_server_nrf52840_xxAA_s140_6.0.0.dir/__/__/__/mesh/core/src/ccm_soft.c.obj
 .debug_abbrev  0x000082d9      0x261 examples/pb_remote/server/CMakeFiles/pb_remote_server_nrf52840_xxAA_s140_6.0.0.dir/__/__/__/mesh/core/src/replay_cache.c.obj
 .debug_abbrev  0x0000853a      0x2c4 examples/pb_remote/server/CMakeFiles/pb_remote_server_nrf52840_xxAA_s140_6.0.0.dir/__/__/__/mesh/core/src/beacon.c.obj
 .debug_abbrev  0x000087fe      0x288 examples/pb_remote/server/CMakeFiles/pb_remote_server_nrf52840_xxAA_s140_6.0.0.dir/__/__/__/mesh/core/src/flash_manager_internal.c.obj
 .debug_abbrev  0x00008a86      0x2ed examples/pb_remote/server/CMakeFiles/pb_remote_server_nrf52840_xxAA_s140_6.0.0.dir/__/__/__/mesh/core/src/core_tx.c.obj
 .debug_abbrev  0x00008d73      0x578 examples/pb_remote/server/CMakeFiles/pb_remote_server_nrf52840_xxAA_s140_6.0.0.dir/__/__/__/mesh/core/src/heartbeat.c.obj
 .debug_abbrev  0x000092eb      0x4ed examples/pb_remote/server/CMakeFiles/pb_remote_server_nrf52840_xxAA_s140_6.0.0.dir/__/__/__/mesh/core/src/net_beacon.c.obj
 .debug_abbrev  0x000097d8      0x510 examples/pb_remote/server/CMakeFiles/pb_remote_server_nrf52840_xxAA_s140_6.0.0.dir/__/__/__/mesh/core/src/mesh_config.c.obj
 .debug_abbrev  0x00009ce8      0x3e2 examples/pb_remote/server/CMakeFiles/pb_remote_server_nrf52840_xxAA_s140_6.0.0.dir/__/__/__/mesh/core/src/mesh_config_backend.c.obj
 .debug_abbrev  0x0000a0ca      0x37e examples/pb_remote/server/CMakeFiles/pb_remote_server_nrf52840_xxAA_s140_6.0.0.dir/__/__/__/mesh/core/src/mesh_config_flashman_glue.c.obj
 .debug_abbrev  0x0000a448      0x47c examples/pb_remote/server/CMakeFiles/pb_remote_server_nrf52840_xxAA_s140_6.0.0.dir/__/__/__/mesh/core/src/core_tx_adv.c.obj
 .debug_abbrev  0x0000a8c4      0x341 examples/pb_remote/server/CMakeFiles/pb_remote_server_nrf52840_xxAA_s140_6.0.0.dir/__/__/__/mesh/bearer/src/ad_listener.c.obj
 .debug_abbrev  0x0000ac05      0x368 examples/pb_remote/server/CMakeFiles/pb_remote_server_nrf52840_xxAA_s140_6.0.0.dir/__/__/__/mesh/bearer/src/ad_type_filter.c.obj
 .debug_abbrev  0x0000af6d      0x4da examples/pb_remote/server/CMakeFiles/pb_remote_server_nrf52840_xxAA_s140_6.0.0.dir/__/__/__/mesh/bearer/src/advertiser.c.obj
 .debug_abbrev  0x0000b447      0x476 examples/pb_remote/server/CMakeFiles/pb_remote_server_nrf52840_xxAA_s140_6.0.0.dir/__/__/__/mesh/bearer/src/bearer_handler.c.obj
 .debug_abbrev  0x0000b8bd      0x3b9 examples/pb_remote/server/CMakeFiles/pb_remote_server_nrf52840_xxAA_s140_6.0.0.dir/__/__/__/mesh/bearer/src/broadcast.c.obj
 .debug_abbrev  0x0000bc76      0x2a6 examples/pb_remote/server/CMakeFiles/pb_remote_server_nrf52840_xxAA_s140_6.0.0.dir/__/__/__/mesh/bearer/src/filter_engine.c.obj
 .debug_abbrev  0x0000bf1c      0x1d5 examples/pb_remote/server/CMakeFiles/pb_remote_server_nrf52840_xxAA_s140_6.0.0.dir/__/__/__/mesh/bearer/src/radio_config.c.obj
 .debug_abbrev  0x0000c0f1      0x52a examples/pb_remote/server/CMakeFiles/pb_remote_server_nrf52840_xxAA_s140_6.0.0.dir/__/__/__/mesh/bearer/src/scanner.c.obj
 .debug_abbrev  0x0000c61b      0x2bd examples/pb_remote/server/CMakeFiles/pb_remote_server_nrf52840_xxAA_s140_6.0.0.dir/__/__/__/mesh/bearer/src/mesh_pa_lna.c.obj
 .debug_abbrev  0x0000c8d8      0x48d examples/pb_remote/server/CMakeFiles/pb_remote_server_nrf52840_xxAA_s140_6.0.0.dir/__/__/__/mesh/prov/src/prov_provisionee.c.obj
 .debug_abbrev  0x0000cd65      0x434 examples/pb_remote/server/CMakeFiles/pb_remote_server_nrf52840_xxAA_s140_6.0.0.dir/__/__/__/mesh/prov/src/nrf_mesh_prov.c.obj
 .debug_abbrev  0x0000d199      0x2a9 examples/pb_remote/server/CMakeFiles/pb_remote_server_nrf52840_xxAA_s140_6.0.0.dir/__/__/__/mesh/prov/src/provisioning.c.obj
 .debug_abbrev  0x0000d442      0x2c8 examples/pb_remote/server/CMakeFiles/pb_remote_server_nrf52840_xxAA_s140_6.0.0.dir/__/__/__/mesh/prov/src/prov_beacon.c.obj
 .debug_abbrev  0x0000d70a      0x422 examples/pb_remote/server/CMakeFiles/pb_remote_server_nrf52840_xxAA_s140_6.0.0.dir/__/__/__/mesh/prov/src/prov_utils.c.obj
 .debug_abbrev  0x0000db2c      0x4eb examples/pb_remote/server/CMakeFiles/pb_remote_server_nrf52840_xxAA_s140_6.0.0.dir/__/__/__/mesh/prov/src/prov_bearer_adv.c.obj
 .debug_abbrev  0x0000e017      0x4a6 examples/pb_remote/server/CMakeFiles/pb_remote_server_nrf52840_xxAA_s140_6.0.0.dir/__/__/__/models/experimental/pb_remote/src/pb_remote_server.c.obj
 .debug_abbrev  0x0000e4bd      0x434 examples/pb_remote/server/CMakeFiles/pb_remote_server_nrf52840_xxAA_s140_6.0.0.dir/__/__/__/mesh/access/src/access_publish.c.obj
 .debug_abbrev  0x0000e8f1      0x61f examples/pb_remote/server/CMakeFiles/pb_remote_server_nrf52840_xxAA_s140_6.0.0.dir/__/__/__/mesh/access/src/access.c.obj
 .debug_abbrev  0x0000ef10      0x42a examples/pb_remote/server/CMakeFiles/pb_remote_server_nrf52840_xxAA_s140_6.0.0.dir/__/__/__/mesh/access/src/access_reliable.c.obj
 .debug_abbrev  0x0000f33a      0x2be examples/pb_remote/server/CMakeFiles/pb_remote_server_nrf52840_xxAA_s140_6.0.0.dir/__/__/__/mesh/access/src/access_loopback.c.obj
 .debug_abbrev  0x0000f5f8      0x60d examples/pb_remote/server/CMakeFiles/pb_remote_server_nrf52840_xxAA_s140_6.0.0.dir/__/__/__/mesh/access/src/device_state_manager.c.obj
 .debug_abbrev  0x0000fc05      0x2db examples/pb_remote/server/CMakeFiles/pb_remote_server_nrf52840_xxAA_s140_6.0.0.dir/__/__/__/models/foundation/config/src/composition_data.c.obj
 .debug_abbrev  0x0000fee0      0x544 examples/pb_remote/server/CMakeFiles/pb_remote_server_nrf52840_xxAA_s140_6.0.0.dir/__/__/__/models/foundation/config/src/config_server.c.obj
 .debug_abbrev  0x00010424       0x95 examples/pb_remote/server/CMakeFiles/pb_remote_server_nrf52840_xxAA_s140_6.0.0.dir/__/__/__/models/foundation/config/src/packed_index_list.c.obj
 .debug_abbrev  0x000104b9      0x4cf examples/pb_remote/server/CMakeFiles/pb_remote_server_nrf52840_xxAA_s140_6.0.0.dir/__/__/__/models/foundation/health/src/health_server.c.obj
 .debug_abbrev  0x00010988      0x20b examples/pb_remote/server/CMakeFiles/pb_remote_server_nrf52840_xxAA_s140_6.0.0.dir/C_/sdks/nRF5_SDK_15.0.0_a53641a/modules/nrfx/mdk/system_nrf52840.c.obj
 .debug_abbrev  0x00010b93      0x232 examples/pb_remote/server/CMakeFiles/pb_remote_server_nrf52840_xxAA_s140_6.0.0.dir/C_/sdks/nRF5_SDK_15.0.0_a53641a/components/libraries/util/app_error.c.obj
 .debug_abbrev  0x00010dc5      0x35b examples/pb_remote/server/CMakeFiles/pb_remote_server_nrf52840_xxAA_s140_6.0.0.dir/C_/sdks/nRF5_SDK_15.0.0_a53641a/components/libraries/util/app_util_platform.c.obj
 .debug_abbrev  0x00011120      0x502 examples/pb_remote/server/CMakeFiles/pb_remote_server_nrf52840_xxAA_s140_6.0.0.dir/C_/sdks/nRF5_SDK_15.0.0_a53641a/components/libraries/timer/app_timer.c.obj
 .debug_abbrev  0x00011622      0x1bd examples/pb_remote/server/CMakeFiles/pb_remote_server_nrf52840_xxAA_s140_6.0.0.dir/C_/sdks/nRF5_SDK_15.0.0_a53641a/components/libraries/util/app_error_handler_gcc.c.obj
 .debug_abbrev  0x000117df      0x3a9 external/rtt/librtt_nrf52840_xxAA.a(SEGGER_RTT.c.obj)
 .debug_abbrev  0x00011b88      0x32e external/rtt/librtt_nrf52840_xxAA.a(SEGGER_RTT_printf.c.obj)
 .debug_abbrev  0x00011eb6      0x4b4 external/micro-ecc/libuECC_nrf52840_xxAA.a(uECC.c.obj)

.debug_loc      0x00000000    0x27400
 .debug_loc     0x00000000      0x246 examples/pb_remote/server/CMakeFiles/pb_remote_server_nrf52840_xxAA_s140_6.0.0.dir/src/main.c.obj
 .debug_loc     0x00000246      0x1d2 examples/pb_remote/server/CMakeFiles/pb_remote_server_nrf52840_xxAA_s140_6.0.0.dir/__/__/__/mesh/stack/src/mesh_stack.c.obj
 .debug_loc     0x00000418      0x21b examples/pb_remote/server/CMakeFiles/pb_remote_server_nrf52840_xxAA_s140_6.0.0.dir/__/__/common/src/mesh_softdevice_init.c.obj
 .debug_loc     0x00000633      0x10a examples/pb_remote/server/CMakeFiles/pb_remote_server_nrf52840_xxAA_s140_6.0.0.dir/__/__/common/src/mesh_provisionee.c.obj
 .debug_loc     0x0000073d      0x243 examples/pb_remote/server/CMakeFiles/pb_remote_server_nrf52840_xxAA_s140_6.0.0.dir/__/__/common/src/simple_hal.c.obj
 .debug_loc     0x00000980      0x18c examples/pb_remote/server/CMakeFiles/pb_remote_server_nrf52840_xxAA_s140_6.0.0.dir/__/__/common/src/app_error_weak.c.obj
 .debug_loc     0x00000b0c       0x2c examples/pb_remote/server/CMakeFiles/pb_remote_server_nrf52840_xxAA_s140_6.0.0.dir/__/__/common/src/assertion_handler_weak.c.obj
 .debug_loc     0x00000b38       0x2c examples/pb_remote/server/CMakeFiles/pb_remote_server_nrf52840_xxAA_s140_6.0.0.dir/__/__/__/mesh/core/src/nrf_mesh_configure.c.obj
 .debug_loc     0x00000b64      0x10d examples/pb_remote/server/CMakeFiles/pb_remote_server_nrf52840_xxAA_s140_6.0.0.dir/__/__/__/mesh/core/src/msg_cache.c.obj
 .debug_loc     0x00000c71     0x259a examples/pb_remote/server/CMakeFiles/pb_remote_server_nrf52840_xxAA_s140_6.0.0.dir/__/__/__/mesh/core/src/transport.c.obj
 .debug_loc     0x0000320b      0x124 examples/pb_remote/server/CMakeFiles/pb_remote_server_nrf52840_xxAA_s140_6.0.0.dir/__/__/__/mesh/core/src/event.c.obj
 .debug_loc     0x0000332f      0x8cd examples/pb_remote/server/CMakeFiles/pb_remote_server_nrf52840_xxAA_s140_6.0.0.dir/__/__/__/mesh/core/src/packet_buffer.c.obj
 .debug_loc     0x00003bfc      0x7fe examples/pb_remote/server/CMakeFiles/pb_remote_server_nrf52840_xxAA_s140_6.0.0.dir/__/__/__/mesh/core/src/flash_manager_defrag.c.obj
 .debug_loc     0x000043fa      0x4f6 examples/pb_remote/server/CMakeFiles/pb_remote_server_nrf52840_xxAA_s140_6.0.0.dir/__/__/__/mesh/core/src/fifo.c.obj
 .debug_loc     0x000048f0      0x17a examples/pb_remote/server/CMakeFiles/pb_remote_server_nrf52840_xxAA_s140_6.0.0.dir/__/__/__/mesh/core/src/nrf_flash.c.obj
 .debug_loc     0x00004a6a      0x6c1 examples/pb_remote/server/CMakeFiles/pb_remote_server_nrf52840_xxAA_s140_6.0.0.dir/__/__/__/mesh/core/src/packet_mgr.c.obj
 .debug_loc     0x0000512b      0x936 examples/pb_remote/server/CMakeFiles/pb_remote_server_nrf52840_xxAA_s140_6.0.0.dir/__/__/__/mesh/core/src/net_state.c.obj
 .debug_loc     0x00005a61      0x8be examples/pb_remote/server/CMakeFiles/pb_remote_server_nrf52840_xxAA_s140_6.0.0.dir/__/__/__/mesh/core/src/mesh_flash.c.obj
 .debug_loc     0x0000631f       0xf8 examples/pb_remote/server/CMakeFiles/pb_remote_server_nrf52840_xxAA_s140_6.0.0.dir/__/__/__/mesh/core/src/nrf_mesh_utils.c.obj
 .debug_loc     0x00006417      0x524 examples/pb_remote/server/CMakeFiles/pb_remote_server_nrf52840_xxAA_s140_6.0.0.dir/__/__/__/mesh/core/src/nrf_mesh.c.obj
 .debug_loc     0x0000693b       0xf5 examples/pb_remote/server/CMakeFiles/pb_remote_server_nrf52840_xxAA_s140_6.0.0.dir/__/__/__/mesh/core/src/queue.c.obj
 .debug_loc     0x00006a30       0x84 examples/pb_remote/server/CMakeFiles/pb_remote_server_nrf52840_xxAA_s140_6.0.0.dir/__/__/__/mesh/core/src/hal.c.obj
 .debug_loc     0x00006ab4      0x3d8 examples/pb_remote/server/CMakeFiles/pb_remote_server_nrf52840_xxAA_s140_6.0.0.dir/__/__/__/mesh/core/src/aes_cmac.c.obj
 .debug_loc     0x00006e8c      0x2bc examples/pb_remote/server/CMakeFiles/pb_remote_server_nrf52840_xxAA_s140_6.0.0.dir/__/__/__/mesh/core/src/timer_scheduler.c.obj
 .debug_loc     0x00007148      0x5f9 examples/pb_remote/server/CMakeFiles/pb_remote_server_nrf52840_xxAA_s140_6.0.0.dir/__/__/__/mesh/core/src/timer.c.obj
 .debug_loc     0x00007741      0x14e examples/pb_remote/server/CMakeFiles/pb_remote_server_nrf52840_xxAA_s140_6.0.0.dir/__/__/__/mesh/core/src/rand.c.obj
 .debug_loc     0x0000788f      0x344 examples/pb_remote/server/CMakeFiles/pb_remote_server_nrf52840_xxAA_s140_6.0.0.dir/__/__/__/mesh/core/src/timeslot.c.obj
 .debug_loc     0x00007bd3      0x526 examples/pb_remote/server/CMakeFiles/pb_remote_server_nrf52840_xxAA_s140_6.0.0.dir/__/__/__/mesh/core/src/bearer_event.c.obj
 .debug_loc     0x000080f9      0x8e7 examples/pb_remote/server/CMakeFiles/pb_remote_server_nrf52840_xxAA_s140_6.0.0.dir/__/__/__/mesh/core/src/enc.c.obj
 .debug_loc     0x000089e0      0x6e4 examples/pb_remote/server/CMakeFiles/pb_remote_server_nrf52840_xxAA_s140_6.0.0.dir/__/__/__/mesh/core/src/network.c.obj
 .debug_loc     0x000090c4      0x817 examples/pb_remote/server/CMakeFiles/pb_remote_server_nrf52840_xxAA_s140_6.0.0.dir/__/__/__/mesh/core/src/net_packet.c.obj
 .debug_loc     0x000098db      0x2ed examples/pb_remote/server/CMakeFiles/pb_remote_server_nrf52840_xxAA_s140_6.0.0.dir/__/__/__/mesh/core/src/msqueue.c.obj
 .debug_loc     0x00009bc8      0x1ee examples/pb_remote/server/CMakeFiles/pb_remote_server_nrf52840_xxAA_s140_6.0.0.dir/__/__/__/mesh/core/src/nrf_mesh_keygen.c.obj
 .debug_loc     0x00009db6      0x3bf examples/pb_remote/server/CMakeFiles/pb_remote_server_nrf52840_xxAA_s140_6.0.0.dir/__/__/__/mesh/core/src/list.c.obj
 .debug_loc     0x0000a175      0x348 examples/pb_remote/server/CMakeFiles/pb_remote_server_nrf52840_xxAA_s140_6.0.0.dir/__/__/__/mesh/core/src/log.c.obj
 .debug_loc     0x0000a4bd     0x1439 examples/pb_remote/server/CMakeFiles/pb_remote_server_nrf52840_xxAA_s140_6.0.0.dir/__/__/__/mesh/core/src/flash_manager.c.obj
 .debug_loc     0x0000b8f6      0x4b6 examples/pb_remote/server/CMakeFiles/pb_remote_server_nrf52840_xxAA_s140_6.0.0.dir/__/__/__/mesh/core/src/ccm_soft.c.obj
 .debug_loc     0x0000bdac      0x157 examples/pb_remote/server/CMakeFiles/pb_remote_server_nrf52840_xxAA_s140_6.0.0.dir/__/__/__/mesh/core/src/replay_cache.c.obj
 .debug_loc     0x0000bf03      0x30d examples/pb_remote/server/CMakeFiles/pb_remote_server_nrf52840_xxAA_s140_6.0.0.dir/__/__/__/mesh/core/src/beacon.c.obj
 .debug_loc     0x0000c210       0xe3 examples/pb_remote/server/CMakeFiles/pb_remote_server_nrf52840_xxAA_s140_6.0.0.dir/__/__/__/mesh/core/src/flash_manager_internal.c.obj
 .debug_loc     0x0000c2f3      0x3c5 examples/pb_remote/server/CMakeFiles/pb_remote_server_nrf52840_xxAA_s140_6.0.0.dir/__/__/__/mesh/core/src/core_tx.c.obj
 .debug_loc     0x0000c6b8      0x5ba examples/pb_remote/server/CMakeFiles/pb_remote_server_nrf52840_xxAA_s140_6.0.0.dir/__/__/__/mesh/core/src/heartbeat.c.obj
 .debug_loc     0x0000cc72      0x6b3 examples/pb_remote/server/CMakeFiles/pb_remote_server_nrf52840_xxAA_s140_6.0.0.dir/__/__/__/mesh/core/src/net_beacon.c.obj
 .debug_loc     0x0000d325      0x76f examples/pb_remote/server/CMakeFiles/pb_remote_server_nrf52840_xxAA_s140_6.0.0.dir/__/__/__/mesh/core/src/mesh_config.c.obj
 .debug_loc     0x0000da94      0x4f8 examples/pb_remote/server/CMakeFiles/pb_remote_server_nrf52840_xxAA_s140_6.0.0.dir/__/__/__/mesh/core/src/mesh_config_backend.c.obj
 .debug_loc     0x0000df8c      0x4c1 examples/pb_remote/server/CMakeFiles/pb_remote_server_nrf52840_xxAA_s140_6.0.0.dir/__/__/__/mesh/core/src/mesh_config_flashman_glue.c.obj
 .debug_loc     0x0000e44d      0xad1 examples/pb_remote/server/CMakeFiles/pb_remote_server_nrf52840_xxAA_s140_6.0.0.dir/__/__/__/mesh/core/src/core_tx_adv.c.obj
 .debug_loc     0x0000ef1e      0x40d examples/pb_remote/server/CMakeFiles/pb_remote_server_nrf52840_xxAA_s140_6.0.0.dir/__/__/__/mesh/bearer/src/ad_listener.c.obj
 .debug_loc     0x0000f32b      0x3ae examples/pb_remote/server/CMakeFiles/pb_remote_server_nrf52840_xxAA_s140_6.0.0.dir/__/__/__/mesh/bearer/src/ad_type_filter.c.obj
 .debug_loc     0x0000f6d9      0xc97 examples/pb_remote/server/CMakeFiles/pb_remote_server_nrf52840_xxAA_s140_6.0.0.dir/__/__/__/mesh/bearer/src/advertiser.c.obj
 .debug_loc     0x00010370      0x438 examples/pb_remote/server/CMakeFiles/pb_remote_server_nrf52840_xxAA_s140_6.0.0.dir/__/__/__/mesh/bearer/src/bearer_handler.c.obj
 .debug_loc     0x000107a8      0x320 examples/pb_remote/server/CMakeFiles/pb_remote_server_nrf52840_xxAA_s140_6.0.0.dir/__/__/__/mesh/bearer/src/broadcast.c.obj
 .debug_loc     0x00010ac8       0xde examples/pb_remote/server/CMakeFiles/pb_remote_server_nrf52840_xxAA_s140_6.0.0.dir/__/__/__/mesh/bearer/src/filter_engine.c.obj
 .debug_loc     0x00010ba6      0x232 examples/pb_remote/server/CMakeFiles/pb_remote_server_nrf52840_xxAA_s140_6.0.0.dir/__/__/__/mesh/bearer/src/radio_config.c.obj
 .debug_loc     0x00010dd8      0x48a examples/pb_remote/server/CMakeFiles/pb_remote_server_nrf52840_xxAA_s140_6.0.0.dir/__/__/__/mesh/bearer/src/scanner.c.obj
 .debug_loc     0x00011262      0x1d6 examples/pb_remote/server/CMakeFiles/pb_remote_server_nrf52840_xxAA_s140_6.0.0.dir/__/__/__/mesh/bearer/src/mesh_pa_lna.c.obj
 .debug_loc     0x00011438      0x7e0 examples/pb_remote/server/CMakeFiles/pb_remote_server_nrf52840_xxAA_s140_6.0.0.dir/__/__/__/mesh/prov/src/prov_provisionee.c.obj
 .debug_loc     0x00011c18      0xa4b examples/pb_remote/server/CMakeFiles/pb_remote_server_nrf52840_xxAA_s140_6.0.0.dir/__/__/__/mesh/prov/src/nrf_mesh_prov.c.obj
 .debug_loc     0x00012663      0x490 examples/pb_remote/server/CMakeFiles/pb_remote_server_nrf52840_xxAA_s140_6.0.0.dir/__/__/__/mesh/prov/src/provisioning.c.obj
 .debug_loc     0x00012af3      0x18c examples/pb_remote/server/CMakeFiles/pb_remote_server_nrf52840_xxAA_s140_6.0.0.dir/__/__/__/mesh/prov/src/prov_beacon.c.obj
 .debug_loc     0x00012c7f      0x548 examples/pb_remote/server/CMakeFiles/pb_remote_server_nrf52840_xxAA_s140_6.0.0.dir/__/__/__/mesh/prov/src/prov_utils.c.obj
 .debug_loc     0x000131c7     0x14df examples/pb_remote/server/CMakeFiles/pb_remote_server_nrf52840_xxAA_s140_6.0.0.dir/__/__/__/mesh/prov/src/prov_bearer_adv.c.obj
 .debug_loc     0x000146a6     0x14cb examples/pb_remote/server/CMakeFiles/pb_remote_server_nrf52840_xxAA_s140_6.0.0.dir/__/__/__/models/experimental/pb_remote/src/pb_remote_server.c.obj
 .debug_loc     0x00015b71      0x4d4 examples/pb_remote/server/CMakeFiles/pb_remote_server_nrf52840_xxAA_s140_6.0.0.dir/__/__/__/mesh/access/src/access_publish.c.obj
 .debug_loc     0x00016045     0x235f examples/pb_remote/server/CMakeFiles/pb_remote_server_nrf52840_xxAA_s140_6.0.0.dir/__/__/__/mesh/access/src/access.c.obj
 .debug_loc     0x000183a4      0x7bc examples/pb_remote/server/CMakeFiles/pb_remote_server_nrf52840_xxAA_s140_6.0.0.dir/__/__/__/mesh/access/src/access_reliable.c.obj
 .debug_loc     0x00018b60       0x81 examples/pb_remote/server/CMakeFiles/pb_remote_server_nrf52840_xxAA_s140_6.0.0.dir/__/__/__/mesh/access/src/access_loopback.c.obj
 .debug_loc     0x00018be1     0x3b51 examples/pb_remote/server/CMakeFiles/pb_remote_server_nrf52840_xxAA_s140_6.0.0.dir/__/__/__/mesh/access/src/device_state_manager.c.obj
 .debug_loc     0x0001c732      0x26f examples/pb_remote/server/CMakeFiles/pb_remote_server_nrf52840_xxAA_s140_6.0.0.dir/__/__/__/models/foundation/config/src/composition_data.c.obj
 .debug_loc     0x0001c9a1     0x4cb3 examples/pb_remote/server/CMakeFiles/pb_remote_server_nrf52840_xxAA_s140_6.0.0.dir/__/__/__/models/foundation/config/src/config_server.c.obj
 .debug_loc     0x00021654       0x89 examples/pb_remote/server/CMakeFiles/pb_remote_server_nrf52840_xxAA_s140_6.0.0.dir/__/__/__/models/foundation/config/src/packed_index_list.c.obj
 .debug_loc     0x000216dd     0x1373 examples/pb_remote/server/CMakeFiles/pb_remote_server_nrf52840_xxAA_s140_6.0.0.dir/__/__/__/models/foundation/health/src/health_server.c.obj
 .debug_loc     0x00022a50       0xb5 examples/pb_remote/server/CMakeFiles/pb_remote_server_nrf52840_xxAA_s140_6.0.0.dir/C_/sdks/nRF5_SDK_15.0.0_a53641a/components/libraries/util/app_error.c.obj
 .debug_loc     0x00022b05       0xc1 examples/pb_remote/server/CMakeFiles/pb_remote_server_nrf52840_xxAA_s140_6.0.0.dir/C_/sdks/nRF5_SDK_15.0.0_a53641a/components/libraries/util/app_util_platform.c.obj
 .debug_loc     0x00022bc6      0xa5d examples/pb_remote/server/CMakeFiles/pb_remote_server_nrf52840_xxAA_s140_6.0.0.dir/C_/sdks/nRF5_SDK_15.0.0_a53641a/components/libraries/timer/app_timer.c.obj
 .debug_loc     0x00023623       0x63 examples/pb_remote/server/CMakeFiles/pb_remote_server_nrf52840_xxAA_s140_6.0.0.dir/C_/sdks/nRF5_SDK_15.0.0_a53641a/components/libraries/util/app_error_handler_gcc.c.obj
 .debug_loc     0x00023686     0x1222 external/rtt/librtt_nrf52840_xxAA.a(SEGGER_RTT.c.obj)
 .debug_loc     0x000248a8      0x70f external/rtt/librtt_nrf52840_xxAA.a(SEGGER_RTT_printf.c.obj)
 .debug_loc     0x00024fb7     0x2449 external/micro-ecc/libuECC_nrf52840_xxAA.a(uECC.c.obj)

.debug_aranges  0x00000000     0x2738
 .debug_aranges
                0x00000000       0x38 examples/pb_remote/server/CMakeFiles/pb_remote_server_nrf52840_xxAA_s140_6.0.0.dir/src/main.c.obj
 .debug_aranges
                0x00000038       0x58 examples/pb_remote/server/CMakeFiles/pb_remote_server_nrf52840_xxAA_s140_6.0.0.dir/__/__/__/mesh/stack/src/mesh_stack.c.obj
 .debug_aranges
                0x00000090       0x48 examples/pb_remote/server/CMakeFiles/pb_remote_server_nrf52840_xxAA_s140_6.0.0.dir/__/__/common/src/mesh_softdevice_init.c.obj
 .debug_aranges
                0x000000d8       0x38 examples/pb_remote/server/CMakeFiles/pb_remote_server_nrf52840_xxAA_s140_6.0.0.dir/__/__/common/src/mesh_provisionee.c.obj
 .debug_aranges
                0x00000110       0x58 examples/pb_remote/server/CMakeFiles/pb_remote_server_nrf52840_xxAA_s140_6.0.0.dir/__/__/common/src/simple_hal.c.obj
 .debug_aranges
                0x00000168       0x28 examples/pb_remote/server/CMakeFiles/pb_remote_server_nrf52840_xxAA_s140_6.0.0.dir/__/__/nrf_mesh_weak.c.obj
 .debug_aranges
                0x00000190       0x20 examples/pb_remote/server/CMakeFiles/pb_remote_server_nrf52840_xxAA_s140_6.0.0.dir/__/__/common/src/app_error_weak.c.obj
 .debug_aranges
                0x000001b0       0x20 examples/pb_remote/server/CMakeFiles/pb_remote_server_nrf52840_xxAA_s140_6.0.0.dir/__/__/common/src/assertion_handler_weak.c.obj
 .debug_aranges
                0x000001d0       0x30 examples/pb_remote/server/CMakeFiles/pb_remote_server_nrf52840_xxAA_s140_6.0.0.dir/__/__/__/mesh/core/src/nrf_mesh_configure.c.obj
 .debug_aranges
                0x00000200       0x38 examples/pb_remote/server/CMakeFiles/pb_remote_server_nrf52840_xxAA_s140_6.0.0.dir/__/__/__/mesh/core/src/msg_cache.c.obj
 .debug_aranges
                0x00000238      0x110 examples/pb_remote/server/CMakeFiles/pb_remote_server_nrf52840_xxAA_s140_6.0.0.dir/__/__/__/mesh/core/src/transport.c.obj
 .debug_aranges
                0x00000348       0x30 examples/pb_remote/server/CMakeFiles/pb_remote_server_nrf52840_xxAA_s140_6.0.0.dir/__/__/__/mesh/core/src/event.c.obj
 .debug_aranges
                0x00000378       0x68 examples/pb_remote/server/CMakeFiles/pb_remote_server_nrf52840_xxAA_s140_6.0.0.dir/__/__/__/mesh/core/src/packet_buffer.c.obj
 .debug_aranges
                0x000003e0       0xc8 examples/pb_remote/server/CMakeFiles/pb_remote_server_nrf52840_xxAA_s140_6.0.0.dir/__/__/__/mesh/core/src/flash_manager_defrag.c.obj
 .debug_aranges
                0x000004a8       0x60 examples/pb_remote/server/CMakeFiles/pb_remote_server_nrf52840_xxAA_s140_6.0.0.dir/__/__/__/mesh/core/src/fifo.c.obj
 .debug_aranges
                0x00000508       0x30 examples/pb_remote/server/CMakeFiles/pb_remote_server_nrf52840_xxAA_s140_6.0.0.dir/__/__/__/mesh/core/src/nrf_flash.c.obj
 .debug_aranges
                0x00000538       0x48 examples/pb_remote/server/CMakeFiles/pb_remote_server_nrf52840_xxAA_s140_6.0.0.dir/__/__/__/mesh/core/src/packet_mgr.c.obj
 .debug_aranges
                0x00000580       0xd8 examples/pb_remote/server/CMakeFiles/pb_remote_server_nrf52840_xxAA_s140_6.0.0.dir/__/__/__/mesh/core/src/net_state.c.obj
 .debug_aranges
                0x00000658       0x60 examples/pb_remote/server/CMakeFiles/pb_remote_server_nrf52840_xxAA_s140_6.0.0.dir/__/__/__/mesh/core/src/mesh_flash.c.obj
 .debug_aranges
                0x000006b8       0x30 examples/pb_remote/server/CMakeFiles/pb_remote_server_nrf52840_xxAA_s140_6.0.0.dir/__/__/__/mesh/core/src/nrf_mesh_utils.c.obj
 .debug_aranges
                0x000006e8       0x90 examples/pb_remote/server/CMakeFiles/pb_remote_server_nrf52840_xxAA_s140_6.0.0.dir/__/__/__/mesh/core/src/nrf_mesh.c.obj
 .debug_aranges
                0x00000778       0x38 examples/pb_remote/server/CMakeFiles/pb_remote_server_nrf52840_xxAA_s140_6.0.0.dir/__/__/__/mesh/core/src/queue.c.obj
 .debug_aranges
                0x000007b0       0x40 examples/pb_remote/server/CMakeFiles/pb_remote_server_nrf52840_xxAA_s140_6.0.0.dir/__/__/__/mesh/core/src/hal.c.obj
 .debug_aranges
                0x000007f0       0x30 examples/pb_remote/server/CMakeFiles/pb_remote_server_nrf52840_xxAA_s140_6.0.0.dir/__/__/__/mesh/core/src/aes_cmac.c.obj
 .debug_aranges
                0x00000820       0x68 examples/pb_remote/server/CMakeFiles/pb_remote_server_nrf52840_xxAA_s140_6.0.0.dir/__/__/__/mesh/core/src/timer_scheduler.c.obj
 .debug_aranges
                0x00000888       0x60 examples/pb_remote/server/CMakeFiles/pb_remote_server_nrf52840_xxAA_s140_6.0.0.dir/__/__/__/mesh/core/src/timer.c.obj
 .debug_aranges
                0x000008e8       0x40 examples/pb_remote/server/CMakeFiles/pb_remote_server_nrf52840_xxAA_s140_6.0.0.dir/__/__/__/mesh/core/src/rand.c.obj
 .debug_aranges
                0x00000928       0x20 examples/pb_remote/server/CMakeFiles/pb_remote_server_nrf52840_xxAA_s140_6.0.0.dir/__/__/__/mesh/core/src/mesh_opt.c.obj
 .debug_aranges
                0x00000948       0xb8 examples/pb_remote/server/CMakeFiles/pb_remote_server_nrf52840_xxAA_s140_6.0.0.dir/__/__/__/mesh/core/src/timeslot.c.obj
 .debug_aranges
                0x00000a00       0x98 examples/pb_remote/server/CMakeFiles/pb_remote_server_nrf52840_xxAA_s140_6.0.0.dir/__/__/__/mesh/core/src/bearer_event.c.obj
 .debug_aranges
                0x00000a98       0x78 examples/pb_remote/server/CMakeFiles/pb_remote_server_nrf52840_xxAA_s140_6.0.0.dir/__/__/__/mesh/core/src/enc.c.obj
 .debug_aranges
                0x00000b10       0x60 examples/pb_remote/server/CMakeFiles/pb_remote_server_nrf52840_xxAA_s140_6.0.0.dir/__/__/__/mesh/core/src/network.c.obj
 .debug_aranges
                0x00000b70       0x68 examples/pb_remote/server/CMakeFiles/pb_remote_server_nrf52840_xxAA_s140_6.0.0.dir/__/__/__/mesh/core/src/net_packet.c.obj
 .debug_aranges
                0x00000bd8       0x48 examples/pb_remote/server/CMakeFiles/pb_remote_server_nrf52840_xxAA_s140_6.0.0.dir/__/__/__/mesh/core/src/msqueue.c.obj
 .debug_aranges
                0x00000c20       0x40 examples/pb_remote/server/CMakeFiles/pb_remote_server_nrf52840_xxAA_s140_6.0.0.dir/__/__/__/mesh/core/src/nrf_mesh_keygen.c.obj
 .debug_aranges
                0x00000c60       0x48 examples/pb_remote/server/CMakeFiles/pb_remote_server_nrf52840_xxAA_s140_6.0.0.dir/__/__/__/mesh/core/src/list.c.obj
 .debug_aranges
                0x00000ca8       0x48 examples/pb_remote/server/CMakeFiles/pb_remote_server_nrf52840_xxAA_s140_6.0.0.dir/__/__/__/mesh/core/src/log.c.obj
 .debug_aranges
                0x00000cf0       0xf8 examples/pb_remote/server/CMakeFiles/pb_remote_server_nrf52840_xxAA_s140_6.0.0.dir/__/__/__/mesh/core/src/flash_manager.c.obj
 .debug_aranges
                0x00000de8       0x50 examples/pb_remote/server/CMakeFiles/pb_remote_server_nrf52840_xxAA_s140_6.0.0.dir/__/__/__/mesh/core/src/ccm_soft.c.obj
 .debug_aranges
                0x00000e38       0x40 examples/pb_remote/server/CMakeFiles/pb_remote_server_nrf52840_xxAA_s140_6.0.0.dir/__/__/__/mesh/core/src/replay_cache.c.obj
 .debug_aranges
                0x00000e78       0x28 examples/pb_remote/server/CMakeFiles/pb_remote_server_nrf52840_xxAA_s140_6.0.0.dir/__/__/__/mesh/core/src/beacon.c.obj
 .debug_aranges
                0x00000ea0       0x20 examples/pb_remote/server/CMakeFiles/pb_remote_server_nrf52840_xxAA_s140_6.0.0.dir/__/__/__/mesh/core/src/flash_manager_internal.c.obj
 .debug_aranges
                0x00000ec0       0x58 examples/pb_remote/server/CMakeFiles/pb_remote_server_nrf52840_xxAA_s140_6.0.0.dir/__/__/__/mesh/core/src/core_tx.c.obj
 .debug_aranges
                0x00000f18       0x98 examples/pb_remote/server/CMakeFiles/pb_remote_server_nrf52840_xxAA_s140_6.0.0.dir/__/__/__/mesh/core/src/heartbeat.c.obj
 .debug_aranges
                0x00000fb0       0x80 examples/pb_remote/server/CMakeFiles/pb_remote_server_nrf52840_xxAA_s140_6.0.0.dir/__/__/__/mesh/core/src/net_beacon.c.obj
 .debug_aranges
                0x00001030       0x90 examples/pb_remote/server/CMakeFiles/pb_remote_server_nrf52840_xxAA_s140_6.0.0.dir/__/__/__/mesh/core/src/mesh_config.c.obj
 .debug_aranges
                0x000010c0       0x58 examples/pb_remote/server/CMakeFiles/pb_remote_server_nrf52840_xxAA_s140_6.0.0.dir/__/__/__/mesh/core/src/mesh_config_backend.c.obj
 .debug_aranges
                0x00001118       0x80 examples/pb_remote/server/CMakeFiles/pb_remote_server_nrf52840_xxAA_s140_6.0.0.dir/__/__/__/mesh/core/src/mesh_config_flashman_glue.c.obj
 .debug_aranges
                0x00001198       0xa0 examples/pb_remote/server/CMakeFiles/pb_remote_server_nrf52840_xxAA_s140_6.0.0.dir/__/__/__/mesh/core/src/core_tx_adv.c.obj
 .debug_aranges
                0x00001238       0x30 examples/pb_remote/server/CMakeFiles/pb_remote_server_nrf52840_xxAA_s140_6.0.0.dir/__/__/__/mesh/bearer/src/ad_listener.c.obj
 .debug_aranges
                0x00001268       0x58 examples/pb_remote/server/CMakeFiles/pb_remote_server_nrf52840_xxAA_s140_6.0.0.dir/__/__/__/mesh/bearer/src/ad_type_filter.c.obj
 .debug_aranges
                0x000012c0       0xb8 examples/pb_remote/server/CMakeFiles/pb_remote_server_nrf52840_xxAA_s140_6.0.0.dir/__/__/__/mesh/bearer/src/advertiser.c.obj
 .debug_aranges
                0x00001378       0x88 examples/pb_remote/server/CMakeFiles/pb_remote_server_nrf52840_xxAA_s140_6.0.0.dir/__/__/__/mesh/bearer/src/bearer_handler.c.obj
 .debug_aranges
                0x00001400       0x30 examples/pb_remote/server/CMakeFiles/pb_remote_server_nrf52840_xxAA_s140_6.0.0.dir/__/__/__/mesh/bearer/src/broadcast.c.obj
 .debug_aranges
                0x00001430       0x38 examples/pb_remote/server/CMakeFiles/pb_remote_server_nrf52840_xxAA_s140_6.0.0.dir/__/__/__/mesh/bearer/src/filter_engine.c.obj
 .debug_aranges
                0x00001468       0x40 examples/pb_remote/server/CMakeFiles/pb_remote_server_nrf52840_xxAA_s140_6.0.0.dir/__/__/__/mesh/bearer/src/radio_config.c.obj
 .debug_aranges
                0x000014a8       0xe8 examples/pb_remote/server/CMakeFiles/pb_remote_server_nrf52840_xxAA_s140_6.0.0.dir/__/__/__/mesh/bearer/src/scanner.c.obj
 .debug_aranges
                0x00001590       0x70 examples/pb_remote/server/CMakeFiles/pb_remote_server_nrf52840_xxAA_s140_6.0.0.dir/__/__/__/mesh/bearer/src/mesh_pa_lna.c.obj
 .debug_aranges
                0x00001600       0x70 examples/pb_remote/server/CMakeFiles/pb_remote_server_nrf52840_xxAA_s140_6.0.0.dir/__/__/__/mesh/prov/src/prov_provisionee.c.obj
 .debug_aranges
                0x00001670       0x88 examples/pb_remote/server/CMakeFiles/pb_remote_server_nrf52840_xxAA_s140_6.0.0.dir/__/__/__/mesh/prov/src/nrf_mesh_prov.c.obj
 .debug_aranges
                0x000016f8       0x80 examples/pb_remote/server/CMakeFiles/pb_remote_server_nrf52840_xxAA_s140_6.0.0.dir/__/__/__/mesh/prov/src/provisioning.c.obj
 .debug_aranges
                0x00001778       0x38 examples/pb_remote/server/CMakeFiles/pb_remote_server_nrf52840_xxAA_s140_6.0.0.dir/__/__/__/mesh/prov/src/prov_beacon.c.obj
 .debug_aranges
                0x000017b0       0x90 examples/pb_remote/server/CMakeFiles/pb_remote_server_nrf52840_xxAA_s140_6.0.0.dir/__/__/__/mesh/prov/src/prov_utils.c.obj
 .debug_aranges
                0x00001840       0xd0 examples/pb_remote/server/CMakeFiles/pb_remote_server_nrf52840_xxAA_s140_6.0.0.dir/__/__/__/mesh/prov/src/prov_bearer_adv.c.obj
 .debug_aranges
                0x00001910      0x118 examples/pb_remote/server/CMakeFiles/pb_remote_server_nrf52840_xxAA_s140_6.0.0.dir/__/__/__/models/experimental/pb_remote/src/pb_remote_server.c.obj
 .debug_aranges
                0x00001a28       0x50 examples/pb_remote/server/CMakeFiles/pb_remote_server_nrf52840_xxAA_s140_6.0.0.dir/__/__/__/mesh/access/src/access_publish.c.obj
 .debug_aranges
                0x00001a78      0x1e0 examples/pb_remote/server/CMakeFiles/pb_remote_server_nrf52840_xxAA_s140_6.0.0.dir/__/__/__/mesh/access/src/access.c.obj
 .debug_aranges
                0x00001c58       0x58 examples/pb_remote/server/CMakeFiles/pb_remote_server_nrf52840_xxAA_s140_6.0.0.dir/__/__/__/mesh/access/src/access_reliable.c.obj
 .debug_aranges
                0x00001cb0       0x38 examples/pb_remote/server/CMakeFiles/pb_remote_server_nrf52840_xxAA_s140_6.0.0.dir/__/__/__/mesh/access/src/access_loopback.c.obj
 .debug_aranges
                0x00001ce8      0x328 examples/pb_remote/server/CMakeFiles/pb_remote_server_nrf52840_xxAA_s140_6.0.0.dir/__/__/__/mesh/access/src/device_state_manager.c.obj
 .debug_aranges
                0x00002010       0x20 examples/pb_remote/server/CMakeFiles/pb_remote_server_nrf52840_xxAA_s140_6.0.0.dir/__/__/__/models/foundation/config/src/composition_data.c.obj
 .debug_aranges
                0x00002030      0x218 examples/pb_remote/server/CMakeFiles/pb_remote_server_nrf52840_xxAA_s140_6.0.0.dir/__/__/__/models/foundation/config/src/config_server.c.obj
 .debug_aranges
                0x00002248       0x20 examples/pb_remote/server/CMakeFiles/pb_remote_server_nrf52840_xxAA_s140_6.0.0.dir/__/__/__/models/foundation/config/src/packed_index_list.c.obj
 .debug_aranges
                0x00002268       0xc8 examples/pb_remote/server/CMakeFiles/pb_remote_server_nrf52840_xxAA_s140_6.0.0.dir/__/__/__/models/foundation/health/src/health_server.c.obj
 .debug_aranges
                0x00002330       0x30 examples/pb_remote/server/CMakeFiles/pb_remote_server_nrf52840_xxAA_s140_6.0.0.dir/C_/sdks/nRF5_SDK_15.0.0_a53641a/modules/nrfx/mdk/system_nrf52840.c.obj
 .debug_aranges
                0x00002360       0x28 examples/pb_remote/server/CMakeFiles/pb_remote_server_nrf52840_xxAA_s140_6.0.0.dir/C_/sdks/nRF5_SDK_15.0.0_a53641a/components/libraries/util/app_error.c.obj
 .debug_aranges
                0x00002388       0x48 examples/pb_remote/server/CMakeFiles/pb_remote_server_nrf52840_xxAA_s140_6.0.0.dir/C_/sdks/nRF5_SDK_15.0.0_a53641a/components/libraries/util/app_util_platform.c.obj
 .debug_aranges
                0x000023d0       0x90 examples/pb_remote/server/CMakeFiles/pb_remote_server_nrf52840_xxAA_s140_6.0.0.dir/C_/sdks/nRF5_SDK_15.0.0_a53641a/components/libraries/timer/app_timer.c.obj
 .debug_aranges
                0x00002460       0x20 examples/pb_remote/server/CMakeFiles/pb_remote_server_nrf52840_xxAA_s140_6.0.0.dir/C_/sdks/nRF5_SDK_15.0.0_a53641a/components/libraries/util/app_error_handler_gcc.c.obj
 .debug_aranges
                0x00002480       0xd8 external/rtt/librtt_nrf52840_xxAA.a(SEGGER_RTT.c.obj)
 .debug_aranges
                0x00002558       0x38 external/rtt/librtt_nrf52840_xxAA.a(SEGGER_RTT_printf.c.obj)
 .debug_aranges
                0x00002590      0x1a8 external/micro-ecc/libuECC_nrf52840_xxAA.a(uECC.c.obj)

.debug_ranges   0x00000000     0x69a8
 .debug_ranges  0x00000000      0x168 examples/pb_remote/server/CMakeFiles/pb_remote_server_nrf52840_xxAA_s140_6.0.0.dir/src/main.c.obj
 .debug_ranges  0x00000168       0x78 examples/pb_remote/server/CMakeFiles/pb_remote_server_nrf52840_xxAA_s140_6.0.0.dir/__/__/__/mesh/stack/src/mesh_stack.c.obj
 .debug_ranges  0x000001e0       0xe8 examples/pb_remote/server/CMakeFiles/pb_remote_server_nrf52840_xxAA_s140_6.0.0.dir/__/__/common/src/mesh_softdevice_init.c.obj
 .debug_ranges  0x000002c8       0x58 examples/pb_remote/server/CMakeFiles/pb_remote_server_nrf52840_xxAA_s140_6.0.0.dir/__/__/common/src/mesh_provisionee.c.obj
 .debug_ranges  0x00000320       0x98 examples/pb_remote/server/CMakeFiles/pb_remote_server_nrf52840_xxAA_s140_6.0.0.dir/__/__/common/src/simple_hal.c.obj
 .debug_ranges  0x000003b8       0x18 examples/pb_remote/server/CMakeFiles/pb_remote_server_nrf52840_xxAA_s140_6.0.0.dir/__/__/nrf_mesh_weak.c.obj
 .debug_ranges  0x000003d0       0xb8 examples/pb_remote/server/CMakeFiles/pb_remote_server_nrf52840_xxAA_s140_6.0.0.dir/__/__/common/src/app_error_weak.c.obj
 .debug_ranges  0x00000488       0x10 examples/pb_remote/server/CMakeFiles/pb_remote_server_nrf52840_xxAA_s140_6.0.0.dir/__/__/common/src/assertion_handler_weak.c.obj
 .debug_ranges  0x00000498       0x20 examples/pb_remote/server/CMakeFiles/pb_remote_server_nrf52840_xxAA_s140_6.0.0.dir/__/__/__/mesh/core/src/nrf_mesh_configure.c.obj
 .debug_ranges  0x000004b8       0x48 examples/pb_remote/server/CMakeFiles/pb_remote_server_nrf52840_xxAA_s140_6.0.0.dir/__/__/__/mesh/core/src/msg_cache.c.obj
 .debug_ranges  0x00000500      0x5d0 examples/pb_remote/server/CMakeFiles/pb_remote_server_nrf52840_xxAA_s140_6.0.0.dir/__/__/__/mesh/core/src/transport.c.obj
 .debug_ranges  0x00000ad0       0x50 examples/pb_remote/server/CMakeFiles/pb_remote_server_nrf52840_xxAA_s140_6.0.0.dir/__/__/__/mesh/core/src/event.c.obj
 .debug_ranges  0x00000b20      0x128 examples/pb_remote/server/CMakeFiles/pb_remote_server_nrf52840_xxAA_s140_6.0.0.dir/__/__/__/mesh/core/src/packet_buffer.c.obj
 .debug_ranges  0x00000c48      0x230 examples/pb_remote/server/CMakeFiles/pb_remote_server_nrf52840_xxAA_s140_6.0.0.dir/__/__/__/mesh/core/src/flash_manager_defrag.c.obj
 .debug_ranges  0x00000e78       0x68 examples/pb_remote/server/CMakeFiles/pb_remote_server_nrf52840_xxAA_s140_6.0.0.dir/__/__/__/mesh/core/src/fifo.c.obj
 .debug_ranges  0x00000ee0       0x38 examples/pb_remote/server/CMakeFiles/pb_remote_server_nrf52840_xxAA_s140_6.0.0.dir/__/__/__/mesh/core/src/nrf_flash.c.obj
 .debug_ranges  0x00000f18       0xe0 examples/pb_remote/server/CMakeFiles/pb_remote_server_nrf52840_xxAA_s140_6.0.0.dir/__/__/__/mesh/core/src/packet_mgr.c.obj
 .debug_ranges  0x00000ff8      0x200 examples/pb_remote/server/CMakeFiles/pb_remote_server_nrf52840_xxAA_s140_6.0.0.dir/__/__/__/mesh/core/src/net_state.c.obj
 .debug_ranges  0x000011f8      0x1c8 examples/pb_remote/server/CMakeFiles/pb_remote_server_nrf52840_xxAA_s140_6.0.0.dir/__/__/__/mesh/core/src/mesh_flash.c.obj
 .debug_ranges  0x000013c0       0x20 examples/pb_remote/server/CMakeFiles/pb_remote_server_nrf52840_xxAA_s140_6.0.0.dir/__/__/__/mesh/core/src/nrf_mesh_utils.c.obj
 .debug_ranges  0x000013e0      0x118 examples/pb_remote/server/CMakeFiles/pb_remote_server_nrf52840_xxAA_s140_6.0.0.dir/__/__/__/mesh/core/src/nrf_mesh.c.obj
 .debug_ranges  0x000014f8       0x28 examples/pb_remote/server/CMakeFiles/pb_remote_server_nrf52840_xxAA_s140_6.0.0.dir/__/__/__/mesh/core/src/queue.c.obj
 .debug_ranges  0x00001520       0x30 examples/pb_remote/server/CMakeFiles/pb_remote_server_nrf52840_xxAA_s140_6.0.0.dir/__/__/__/mesh/core/src/hal.c.obj
 .debug_ranges  0x00001550      0x120 examples/pb_remote/server/CMakeFiles/pb_remote_server_nrf52840_xxAA_s140_6.0.0.dir/__/__/__/mesh/core/src/aes_cmac.c.obj
 .debug_ranges  0x00001670       0xa8 examples/pb_remote/server/CMakeFiles/pb_remote_server_nrf52840_xxAA_s140_6.0.0.dir/__/__/__/mesh/core/src/timer_scheduler.c.obj
 .debug_ranges  0x00001718       0xd8 examples/pb_remote/server/CMakeFiles/pb_remote_server_nrf52840_xxAA_s140_6.0.0.dir/__/__/__/mesh/core/src/timer.c.obj
 .debug_ranges  0x000017f0       0x30 examples/pb_remote/server/CMakeFiles/pb_remote_server_nrf52840_xxAA_s140_6.0.0.dir/__/__/__/mesh/core/src/rand.c.obj
 .debug_ranges  0x00001820       0x10 examples/pb_remote/server/CMakeFiles/pb_remote_server_nrf52840_xxAA_s140_6.0.0.dir/__/__/__/mesh/core/src/mesh_opt.c.obj
 .debug_ranges  0x00001830      0x168 examples/pb_remote/server/CMakeFiles/pb_remote_server_nrf52840_xxAA_s140_6.0.0.dir/__/__/__/mesh/core/src/timeslot.c.obj
 .debug_ranges  0x00001998      0x110 examples/pb_remote/server/CMakeFiles/pb_remote_server_nrf52840_xxAA_s140_6.0.0.dir/__/__/__/mesh/core/src/bearer_event.c.obj
 .debug_ranges  0x00001aa8       0xb8 examples/pb_remote/server/CMakeFiles/pb_remote_server_nrf52840_xxAA_s140_6.0.0.dir/__/__/__/mesh/core/src/enc.c.obj
 .debug_ranges  0x00001b60      0x148 examples/pb_remote/server/CMakeFiles/pb_remote_server_nrf52840_xxAA_s140_6.0.0.dir/__/__/__/mesh/core/src/network.c.obj
 .debug_ranges  0x00001ca8      0x160 examples/pb_remote/server/CMakeFiles/pb_remote_server_nrf52840_xxAA_s140_6.0.0.dir/__/__/__/mesh/core/src/net_packet.c.obj
 .debug_ranges  0x00001e08       0x50 examples/pb_remote/server/CMakeFiles/pb_remote_server_nrf52840_xxAA_s140_6.0.0.dir/__/__/__/mesh/core/src/msqueue.c.obj
 .debug_ranges  0x00001e58       0x30 examples/pb_remote/server/CMakeFiles/pb_remote_server_nrf52840_xxAA_s140_6.0.0.dir/__/__/__/mesh/core/src/nrf_mesh_keygen.c.obj
 .debug_ranges  0x00001e88       0x78 examples/pb_remote/server/CMakeFiles/pb_remote_server_nrf52840_xxAA_s140_6.0.0.dir/__/__/__/mesh/core/src/list.c.obj
 .debug_ranges  0x00001f00       0x38 examples/pb_remote/server/CMakeFiles/pb_remote_server_nrf52840_xxAA_s140_6.0.0.dir/__/__/__/mesh/core/src/log.c.obj
 .debug_ranges  0x00001f38      0x388 examples/pb_remote/server/CMakeFiles/pb_remote_server_nrf52840_xxAA_s140_6.0.0.dir/__/__/__/mesh/core/src/flash_manager.c.obj
 .debug_ranges  0x000022c0       0xa0 examples/pb_remote/server/CMakeFiles/pb_remote_server_nrf52840_xxAA_s140_6.0.0.dir/__/__/__/mesh/core/src/ccm_soft.c.obj
 .debug_ranges  0x00002360       0x30 examples/pb_remote/server/CMakeFiles/pb_remote_server_nrf52840_xxAA_s140_6.0.0.dir/__/__/__/mesh/core/src/replay_cache.c.obj
 .debug_ranges  0x00002390       0x90 examples/pb_remote/server/CMakeFiles/pb_remote_server_nrf52840_xxAA_s140_6.0.0.dir/__/__/__/mesh/core/src/beacon.c.obj
 .debug_ranges  0x00002420       0x10 examples/pb_remote/server/CMakeFiles/pb_remote_server_nrf52840_xxAA_s140_6.0.0.dir/__/__/__/mesh/core/src/flash_manager_internal.c.obj
 .debug_ranges  0x00002430       0xf8 examples/pb_remote/server/CMakeFiles/pb_remote_server_nrf52840_xxAA_s140_6.0.0.dir/__/__/__/mesh/core/src/core_tx.c.obj
 .debug_ranges  0x00002528       0xf8 examples/pb_remote/server/CMakeFiles/pb_remote_server_nrf52840_xxAA_s140_6.0.0.dir/__/__/__/mesh/core/src/heartbeat.c.obj
 .debug_ranges  0x00002620      0x188 examples/pb_remote/server/CMakeFiles/pb_remote_server_nrf52840_xxAA_s140_6.0.0.dir/__/__/__/mesh/core/src/net_beacon.c.obj
 .debug_ranges  0x000027a8      0x208 examples/pb_remote/server/CMakeFiles/pb_remote_server_nrf52840_xxAA_s140_6.0.0.dir/__/__/__/mesh/core/src/mesh_config.c.obj
 .debug_ranges  0x000029b0       0xe0 examples/pb_remote/server/CMakeFiles/pb_remote_server_nrf52840_xxAA_s140_6.0.0.dir/__/__/__/mesh/core/src/mesh_config_backend.c.obj
 .debug_ranges  0x00002a90       0x70 examples/pb_remote/server/CMakeFiles/pb_remote_server_nrf52840_xxAA_s140_6.0.0.dir/__/__/__/mesh/core/src/mesh_config_flashman_glue.c.obj
 .debug_ranges  0x00002b00      0x190 examples/pb_remote/server/CMakeFiles/pb_remote_server_nrf52840_xxAA_s140_6.0.0.dir/__/__/__/mesh/core/src/core_tx_adv.c.obj
 .debug_ranges  0x00002c90      0x110 examples/pb_remote/server/CMakeFiles/pb_remote_server_nrf52840_xxAA_s140_6.0.0.dir/__/__/__/mesh/bearer/src/ad_listener.c.obj
 .debug_ranges  0x00002da0       0xd0 examples/pb_remote/server/CMakeFiles/pb_remote_server_nrf52840_xxAA_s140_6.0.0.dir/__/__/__/mesh/bearer/src/ad_type_filter.c.obj
 .debug_ranges  0x00002e70      0x218 examples/pb_remote/server/CMakeFiles/pb_remote_server_nrf52840_xxAA_s140_6.0.0.dir/__/__/__/mesh/bearer/src/advertiser.c.obj
 .debug_ranges  0x00003088      0x180 examples/pb_remote/server/CMakeFiles/pb_remote_server_nrf52840_xxAA_s140_6.0.0.dir/__/__/__/mesh/bearer/src/bearer_handler.c.obj
 .debug_ranges  0x00003208       0xc0 examples/pb_remote/server/CMakeFiles/pb_remote_server_nrf52840_xxAA_s140_6.0.0.dir/__/__/__/mesh/bearer/src/broadcast.c.obj
 .debug_ranges  0x000032c8       0x48 examples/pb_remote/server/CMakeFiles/pb_remote_server_nrf52840_xxAA_s140_6.0.0.dir/__/__/__/mesh/bearer/src/filter_engine.c.obj
 .debug_ranges  0x00003310       0x48 examples/pb_remote/server/CMakeFiles/pb_remote_server_nrf52840_xxAA_s140_6.0.0.dir/__/__/__/mesh/bearer/src/radio_config.c.obj
 .debug_ranges  0x00003358      0x1a8 examples/pb_remote/server/CMakeFiles/pb_remote_server_nrf52840_xxAA_s140_6.0.0.dir/__/__/__/mesh/bearer/src/scanner.c.obj
 .debug_ranges  0x00003500       0xb8 examples/pb_remote/server/CMakeFiles/pb_remote_server_nrf52840_xxAA_s140_6.0.0.dir/__/__/__/mesh/bearer/src/mesh_pa_lna.c.obj
 .debug_ranges  0x000035b8      0x1b0 examples/pb_remote/server/CMakeFiles/pb_remote_server_nrf52840_xxAA_s140_6.0.0.dir/__/__/__/mesh/prov/src/prov_provisionee.c.obj
 .debug_ranges  0x00003768      0x130 examples/pb_remote/server/CMakeFiles/pb_remote_server_nrf52840_xxAA_s140_6.0.0.dir/__/__/__/mesh/prov/src/nrf_mesh_prov.c.obj
 .debug_ranges  0x00003898       0x70 examples/pb_remote/server/CMakeFiles/pb_remote_server_nrf52840_xxAA_s140_6.0.0.dir/__/__/__/mesh/prov/src/provisioning.c.obj
 .debug_ranges  0x00003908       0x40 examples/pb_remote/server/CMakeFiles/pb_remote_server_nrf52840_xxAA_s140_6.0.0.dir/__/__/__/mesh/prov/src/prov_beacon.c.obj
 .debug_ranges  0x00003948       0xd8 examples/pb_remote/server/CMakeFiles/pb_remote_server_nrf52840_xxAA_s140_6.0.0.dir/__/__/__/mesh/prov/src/prov_utils.c.obj
 .debug_ranges  0x00003a20      0x4a0 examples/pb_remote/server/CMakeFiles/pb_remote_server_nrf52840_xxAA_s140_6.0.0.dir/__/__/__/mesh/prov/src/prov_bearer_adv.c.obj
 .debug_ranges  0x00003ec0      0x560 examples/pb_remote/server/CMakeFiles/pb_remote_server_nrf52840_xxAA_s140_6.0.0.dir/__/__/__/models/experimental/pb_remote/src/pb_remote_server.c.obj
 .debug_ranges  0x00004420      0x118 examples/pb_remote/server/CMakeFiles/pb_remote_server_nrf52840_xxAA_s140_6.0.0.dir/__/__/__/mesh/access/src/access_publish.c.obj
 .debug_ranges  0x00004538      0x7c8 examples/pb_remote/server/CMakeFiles/pb_remote_server_nrf52840_xxAA_s140_6.0.0.dir/__/__/__/mesh/access/src/access.c.obj
 .debug_ranges  0x00004d00      0x188 examples/pb_remote/server/CMakeFiles/pb_remote_server_nrf52840_xxAA_s140_6.0.0.dir/__/__/__/mesh/access/src/access_reliable.c.obj
 .debug_ranges  0x00004e88       0x28 examples/pb_remote/server/CMakeFiles/pb_remote_server_nrf52840_xxAA_s140_6.0.0.dir/__/__/__/mesh/access/src/access_loopback.c.obj
 .debug_ranges  0x00004eb0      0x7e8 examples/pb_remote/server/CMakeFiles/pb_remote_server_nrf52840_xxAA_s140_6.0.0.dir/__/__/__/mesh/access/src/device_state_manager.c.obj
 .debug_ranges  0x00005698       0xa8 examples/pb_remote/server/CMakeFiles/pb_remote_server_nrf52840_xxAA_s140_6.0.0.dir/__/__/__/models/foundation/config/src/composition_data.c.obj
 .debug_ranges  0x00005740      0x788 examples/pb_remote/server/CMakeFiles/pb_remote_server_nrf52840_xxAA_s140_6.0.0.dir/__/__/__/models/foundation/config/src/config_server.c.obj
 .debug_ranges  0x00005ec8       0x10 examples/pb_remote/server/CMakeFiles/pb_remote_server_nrf52840_xxAA_s140_6.0.0.dir/__/__/__/models/foundation/config/src/packed_index_list.c.obj
 .debug_ranges  0x00005ed8      0x260 examples/pb_remote/server/CMakeFiles/pb_remote_server_nrf52840_xxAA_s140_6.0.0.dir/__/__/__/models/foundation/health/src/health_server.c.obj
 .debug_ranges  0x00006138       0x20 examples/pb_remote/server/CMakeFiles/pb_remote_server_nrf52840_xxAA_s140_6.0.0.dir/C_/sdks/nRF5_SDK_15.0.0_a53641a/modules/nrfx/mdk/system_nrf52840.c.obj
 .debug_ranges  0x00006158       0x18 examples/pb_remote/server/CMakeFiles/pb_remote_server_nrf52840_xxAA_s140_6.0.0.dir/C_/sdks/nRF5_SDK_15.0.0_a53641a/components/libraries/util/app_error.c.obj
 .debug_ranges  0x00006170       0x38 examples/pb_remote/server/CMakeFiles/pb_remote_server_nrf52840_xxAA_s140_6.0.0.dir/C_/sdks/nRF5_SDK_15.0.0_a53641a/components/libraries/util/app_util_platform.c.obj
 .debug_ranges  0x000061a8      0x390 examples/pb_remote/server/CMakeFiles/pb_remote_server_nrf52840_xxAA_s140_6.0.0.dir/C_/sdks/nRF5_SDK_15.0.0_a53641a/components/libraries/timer/app_timer.c.obj
 .debug_ranges  0x00006538       0x10 examples/pb_remote/server/CMakeFiles/pb_remote_server_nrf52840_xxAA_s140_6.0.0.dir/C_/sdks/nRF5_SDK_15.0.0_a53641a/components/libraries/util/app_error_handler_gcc.c.obj
 .debug_ranges  0x00006548      0x130 external/rtt/librtt_nrf52840_xxAA.a(SEGGER_RTT.c.obj)
 .debug_ranges  0x00006678       0x48 external/rtt/librtt_nrf52840_xxAA.a(SEGGER_RTT_printf.c.obj)
 .debug_ranges  0x000066c0      0x2e8 external/micro-ecc/libuECC_nrf52840_xxAA.a(uECC.c.obj)

.debug_line     0x00000000    0x1ad1a
 .debug_line    0x00000000      0x840 examples/pb_remote/server/CMakeFiles/pb_remote_server_nrf52840_xxAA_s140_6.0.0.dir/src/main.c.obj
 .debug_line    0x00000840      0x593 examples/pb_remote/server/CMakeFiles/pb_remote_server_nrf52840_xxAA_s140_6.0.0.dir/__/__/__/mesh/stack/src/mesh_stack.c.obj
 .debug_line    0x00000dd3      0x423 examples/pb_remote/server/CMakeFiles/pb_remote_server_nrf52840_xxAA_s140_6.0.0.dir/__/__/common/src/mesh_softdevice_init.c.obj
 .debug_line    0x000011f6      0x548 examples/pb_remote/server/CMakeFiles/pb_remote_server_nrf52840_xxAA_s140_6.0.0.dir/__/__/common/src/mesh_provisionee.c.obj
 .debug_line    0x0000173e      0x440 examples/pb_remote/server/CMakeFiles/pb_remote_server_nrf52840_xxAA_s140_6.0.0.dir/__/__/common/src/simple_hal.c.obj
 .debug_line    0x00001b7e      0x224 examples/pb_remote/server/CMakeFiles/pb_remote_server_nrf52840_xxAA_s140_6.0.0.dir/__/__/nrf_mesh_weak.c.obj
 .debug_line    0x00001da2      0x46b examples/pb_remote/server/CMakeFiles/pb_remote_server_nrf52840_xxAA_s140_6.0.0.dir/__/__/common/src/app_error_weak.c.obj
 .debug_line    0x0000220d      0x225 examples/pb_remote/server/CMakeFiles/pb_remote_server_nrf52840_xxAA_s140_6.0.0.dir/__/__/common/src/assertion_handler_weak.c.obj
 .debug_line    0x00002432      0x217 examples/pb_remote/server/CMakeFiles/pb_remote_server_nrf52840_xxAA_s140_6.0.0.dir/__/__/__/mesh/core/src/nrf_mesh_configure.c.obj
 .debug_line    0x00002649      0x297 examples/pb_remote/server/CMakeFiles/pb_remote_server_nrf52840_xxAA_s140_6.0.0.dir/__/__/__/mesh/core/src/msg_cache.c.obj
 .debug_line    0x000028e0      0xd16 examples/pb_remote/server/CMakeFiles/pb_remote_server_nrf52840_xxAA_s140_6.0.0.dir/__/__/__/mesh/core/src/transport.c.obj
 .debug_line    0x000035f6      0x396 examples/pb_remote/server/CMakeFiles/pb_remote_server_nrf52840_xxAA_s140_6.0.0.dir/__/__/__/mesh/core/src/event.c.obj
 .debug_line    0x0000398c      0x506 examples/pb_remote/server/CMakeFiles/pb_remote_server_nrf52840_xxAA_s140_6.0.0.dir/__/__/__/mesh/core/src/packet_buffer.c.obj
 .debug_line    0x00003e92      0x70b examples/pb_remote/server/CMakeFiles/pb_remote_server_nrf52840_xxAA_s140_6.0.0.dir/__/__/__/mesh/core/src/flash_manager_defrag.c.obj
 .debug_line    0x0000459d      0x361 examples/pb_remote/server/CMakeFiles/pb_remote_server_nrf52840_xxAA_s140_6.0.0.dir/__/__/__/mesh/core/src/fifo.c.obj
 .debug_line    0x000048fe      0x275 examples/pb_remote/server/CMakeFiles/pb_remote_server_nrf52840_xxAA_s140_6.0.0.dir/__/__/__/mesh/core/src/nrf_flash.c.obj
 .debug_line    0x00004b73      0x44b examples/pb_remote/server/CMakeFiles/pb_remote_server_nrf52840_xxAA_s140_6.0.0.dir/__/__/__/mesh/core/src/packet_mgr.c.obj
 .debug_line    0x00004fbe      0x738 examples/pb_remote/server/CMakeFiles/pb_remote_server_nrf52840_xxAA_s140_6.0.0.dir/__/__/__/mesh/core/src/net_state.c.obj
 .debug_line    0x000056f6      0x545 examples/pb_remote/server/CMakeFiles/pb_remote_server_nrf52840_xxAA_s140_6.0.0.dir/__/__/__/mesh/core/src/mesh_flash.c.obj
 .debug_line    0x00005c3b      0x28b examples/pb_remote/server/CMakeFiles/pb_remote_server_nrf52840_xxAA_s140_6.0.0.dir/__/__/__/mesh/core/src/nrf_mesh_utils.c.obj
 .debug_line    0x00005ec6      0x7fe examples/pb_remote/server/CMakeFiles/pb_remote_server_nrf52840_xxAA_s140_6.0.0.dir/__/__/__/mesh/core/src/nrf_mesh.c.obj
 .debug_line    0x000066c4      0x2c3 examples/pb_remote/server/CMakeFiles/pb_remote_server_nrf52840_xxAA_s140_6.0.0.dir/__/__/__/mesh/core/src/queue.c.obj
 .debug_line    0x00006987      0x232 examples/pb_remote/server/CMakeFiles/pb_remote_server_nrf52840_xxAA_s140_6.0.0.dir/__/__/__/mesh/core/src/hal.c.obj
 .debug_line    0x00006bb9      0x347 examples/pb_remote/server/CMakeFiles/pb_remote_server_nrf52840_xxAA_s140_6.0.0.dir/__/__/__/mesh/core/src/aes_cmac.c.obj
 .debug_line    0x00006f00      0x3b9 examples/pb_remote/server/CMakeFiles/pb_remote_server_nrf52840_xxAA_s140_6.0.0.dir/__/__/__/mesh/core/src/timer_scheduler.c.obj
 .debug_line    0x000072b9      0x3a1 examples/pb_remote/server/CMakeFiles/pb_remote_server_nrf52840_xxAA_s140_6.0.0.dir/__/__/__/mesh/core/src/timer.c.obj
 .debug_line    0x0000765a      0x268 examples/pb_remote/server/CMakeFiles/pb_remote_server_nrf52840_xxAA_s140_6.0.0.dir/__/__/__/mesh/core/src/rand.c.obj
 .debug_line    0x000078c2      0x2b8 examples/pb_remote/server/CMakeFiles/pb_remote_server_nrf52840_xxAA_s140_6.0.0.dir/__/__/__/mesh/core/src/mesh_opt.c.obj
 .debug_line    0x00007b7a      0x590 examples/pb_remote/server/CMakeFiles/pb_remote_server_nrf52840_xxAA_s140_6.0.0.dir/__/__/__/mesh/core/src/timeslot.c.obj
 .debug_line    0x0000810a      0x567 examples/pb_remote/server/CMakeFiles/pb_remote_server_nrf52840_xxAA_s140_6.0.0.dir/__/__/__/mesh/core/src/bearer_event.c.obj
 .debug_line    0x00008671      0x4c7 examples/pb_remote/server/CMakeFiles/pb_remote_server_nrf52840_xxAA_s140_6.0.0.dir/__/__/__/mesh/core/src/enc.c.obj
 .debug_line    0x00008b38      0x5dc examples/pb_remote/server/CMakeFiles/pb_remote_server_nrf52840_xxAA_s140_6.0.0.dir/__/__/__/mesh/core/src/network.c.obj
 .debug_line    0x00009114      0x58e examples/pb_remote/server/CMakeFiles/pb_remote_server_nrf52840_xxAA_s140_6.0.0.dir/__/__/__/mesh/core/src/net_packet.c.obj
 .debug_line    0x000096a2      0x332 examples/pb_remote/server/CMakeFiles/pb_remote_server_nrf52840_xxAA_s140_6.0.0.dir/__/__/__/mesh/core/src/msqueue.c.obj
 .debug_line    0x000099d4      0x225 examples/pb_remote/server/CMakeFiles/pb_remote_server_nrf52840_xxAA_s140_6.0.0.dir/__/__/__/mesh/core/src/nrf_mesh_keygen.c.obj
 .debug_line    0x00009bf9      0x2cf examples/pb_remote/server/CMakeFiles/pb_remote_server_nrf52840_xxAA_s140_6.0.0.dir/__/__/__/mesh/core/src/list.c.obj
 .debug_line    0x00009ec8      0x26f examples/pb_remote/server/CMakeFiles/pb_remote_server_nrf52840_xxAA_s140_6.0.0.dir/__/__/__/mesh/core/src/log.c.obj
 .debug_line    0x0000a137      0x933 examples/pb_remote/server/CMakeFiles/pb_remote_server_nrf52840_xxAA_s140_6.0.0.dir/__/__/__/mesh/core/src/flash_manager.c.obj
 .debug_line    0x0000aa6a      0x3e2 examples/pb_remote/server/CMakeFiles/pb_remote_server_nrf52840_xxAA_s140_6.0.0.dir/__/__/__/mesh/core/src/ccm_soft.c.obj
 .debug_line    0x0000ae4c      0x1b9 examples/pb_remote/server/CMakeFiles/pb_remote_server_nrf52840_xxAA_s140_6.0.0.dir/__/__/__/mesh/core/src/replay_cache.c.obj
 .debug_line    0x0000b005      0x4c1 examples/pb_remote/server/CMakeFiles/pb_remote_server_nrf52840_xxAA_s140_6.0.0.dir/__/__/__/mesh/core/src/beacon.c.obj
 .debug_line    0x0000b4c6      0x2ab examples/pb_remote/server/CMakeFiles/pb_remote_server_nrf52840_xxAA_s140_6.0.0.dir/__/__/__/mesh/core/src/flash_manager_internal.c.obj
 .debug_line    0x0000b771      0x3d8 examples/pb_remote/server/CMakeFiles/pb_remote_server_nrf52840_xxAA_s140_6.0.0.dir/__/__/__/mesh/core/src/core_tx.c.obj
 .debug_line    0x0000bb49      0x6a8 examples/pb_remote/server/CMakeFiles/pb_remote_server_nrf52840_xxAA_s140_6.0.0.dir/__/__/__/mesh/core/src/heartbeat.c.obj
 .debug_line    0x0000c1f1      0x6e0 examples/pb_remote/server/CMakeFiles/pb_remote_server_nrf52840_xxAA_s140_6.0.0.dir/__/__/__/mesh/core/src/net_beacon.c.obj
 .debug_line    0x0000c8d1      0x5fa examples/pb_remote/server/CMakeFiles/pb_remote_server_nrf52840_xxAA_s140_6.0.0.dir/__/__/__/mesh/core/src/mesh_config.c.obj
 .debug_line    0x0000cecb      0x4b7 examples/pb_remote/server/CMakeFiles/pb_remote_server_nrf52840_xxAA_s140_6.0.0.dir/__/__/__/mesh/core/src/mesh_config_backend.c.obj
 .debug_line    0x0000d382      0x510 examples/pb_remote/server/CMakeFiles/pb_remote_server_nrf52840_xxAA_s140_6.0.0.dir/__/__/__/mesh/core/src/mesh_config_flashman_glue.c.obj
 .debug_line    0x0000d892      0x661 examples/pb_remote/server/CMakeFiles/pb_remote_server_nrf52840_xxAA_s140_6.0.0.dir/__/__/__/mesh/core/src/core_tx_adv.c.obj
 .debug_line    0x0000def3      0x370 examples/pb_remote/server/CMakeFiles/pb_remote_server_nrf52840_xxAA_s140_6.0.0.dir/__/__/__/mesh/bearer/src/ad_listener.c.obj
 .debug_line    0x0000e263      0x41c examples/pb_remote/server/CMakeFiles/pb_remote_server_nrf52840_xxAA_s140_6.0.0.dir/__/__/__/mesh/bearer/src/ad_type_filter.c.obj
 .debug_line    0x0000e67f      0x71e examples/pb_remote/server/CMakeFiles/pb_remote_server_nrf52840_xxAA_s140_6.0.0.dir/__/__/__/mesh/bearer/src/advertiser.c.obj
 .debug_line    0x0000ed9d      0x5de examples/pb_remote/server/CMakeFiles/pb_remote_server_nrf52840_xxAA_s140_6.0.0.dir/__/__/__/mesh/bearer/src/bearer_handler.c.obj
 .debug_line    0x0000f37b      0x3af examples/pb_remote/server/CMakeFiles/pb_remote_server_nrf52840_xxAA_s140_6.0.0.dir/__/__/__/mesh/bearer/src/broadcast.c.obj
 .debug_line    0x0000f72a      0x35f examples/pb_remote/server/CMakeFiles/pb_remote_server_nrf52840_xxAA_s140_6.0.0.dir/__/__/__/mesh/bearer/src/filter_engine.c.obj
 .debug_line    0x0000fa89      0x289 examples/pb_remote/server/CMakeFiles/pb_remote_server_nrf52840_xxAA_s140_6.0.0.dir/__/__/__/mesh/bearer/src/radio_config.c.obj
 .debug_line    0x0000fd12      0x70b examples/pb_remote/server/CMakeFiles/pb_remote_server_nrf52840_xxAA_s140_6.0.0.dir/__/__/__/mesh/bearer/src/scanner.c.obj
 .debug_line    0x0001041d      0x319 examples/pb_remote/server/CMakeFiles/pb_remote_server_nrf52840_xxAA_s140_6.0.0.dir/__/__/__/mesh/bearer/src/mesh_pa_lna.c.obj
 .debug_line    0x00010736      0x6a3 examples/pb_remote/server/CMakeFiles/pb_remote_server_nrf52840_xxAA_s140_6.0.0.dir/__/__/__/mesh/prov/src/prov_provisionee.c.obj
 .debug_line    0x00010dd9      0x58e examples/pb_remote/server/CMakeFiles/pb_remote_server_nrf52840_xxAA_s140_6.0.0.dir/__/__/__/mesh/prov/src/nrf_mesh_prov.c.obj
 .debug_line    0x00011367      0x3eb examples/pb_remote/server/CMakeFiles/pb_remote_server_nrf52840_xxAA_s140_6.0.0.dir/__/__/__/mesh/prov/src/provisioning.c.obj
 .debug_line    0x00011752      0x49a examples/pb_remote/server/CMakeFiles/pb_remote_server_nrf52840_xxAA_s140_6.0.0.dir/__/__/__/mesh/prov/src/prov_beacon.c.obj
 .debug_line    0x00011bec      0x53f examples/pb_remote/server/CMakeFiles/pb_remote_server_nrf52840_xxAA_s140_6.0.0.dir/__/__/__/mesh/prov/src/prov_utils.c.obj
 .debug_line    0x0001212b      0xb46 examples/pb_remote/server/CMakeFiles/pb_remote_server_nrf52840_xxAA_s140_6.0.0.dir/__/__/__/mesh/prov/src/prov_bearer_adv.c.obj
 .debug_line    0x00012c71      0xfdc examples/pb_remote/server/CMakeFiles/pb_remote_server_nrf52840_xxAA_s140_6.0.0.dir/__/__/__/models/experimental/pb_remote/src/pb_remote_server.c.obj
 .debug_line    0x00013c4d      0x44b examples/pb_remote/server/CMakeFiles/pb_remote_server_nrf52840_xxAA_s140_6.0.0.dir/__/__/__/mesh/access/src/access_publish.c.obj
 .debug_line    0x00014098      0xfc7 examples/pb_remote/server/CMakeFiles/pb_remote_server_nrf52840_xxAA_s140_6.0.0.dir/__/__/__/mesh/access/src/access.c.obj
 .debug_line    0x0001505f      0x56d examples/pb_remote/server/CMakeFiles/pb_remote_server_nrf52840_xxAA_s140_6.0.0.dir/__/__/__/mesh/access/src/access_reliable.c.obj
 .debug_line    0x000155cc      0x3a1 examples/pb_remote/server/CMakeFiles/pb_remote_server_nrf52840_xxAA_s140_6.0.0.dir/__/__/__/mesh/access/src/access_loopback.c.obj
 .debug_line    0x0001596d     0x1413 examples/pb_remote/server/CMakeFiles/pb_remote_server_nrf52840_xxAA_s140_6.0.0.dir/__/__/__/mesh/access/src/device_state_manager.c.obj
 .debug_line    0x00016d80      0x2f5 examples/pb_remote/server/CMakeFiles/pb_remote_server_nrf52840_xxAA_s140_6.0.0.dir/__/__/__/models/foundation/config/src/composition_data.c.obj
 .debug_line    0x00017075     0x13c6 examples/pb_remote/server/CMakeFiles/pb_remote_server_nrf52840_xxAA_s140_6.0.0.dir/__/__/__/models/foundation/config/src/config_server.c.obj
 .debug_line    0x0001843b       0xf0 examples/pb_remote/server/CMakeFiles/pb_remote_server_nrf52840_xxAA_s140_6.0.0.dir/__/__/__/models/foundation/config/src/packed_index_list.c.obj
 .debug_line    0x0001852b      0x688 examples/pb_remote/server/CMakeFiles/pb_remote_server_nrf52840_xxAA_s140_6.0.0.dir/__/__/__/models/foundation/health/src/health_server.c.obj
 .debug_line    0x00018bb3      0x1fb examples/pb_remote/server/CMakeFiles/pb_remote_server_nrf52840_xxAA_s140_6.0.0.dir/C_/sdks/nRF5_SDK_15.0.0_a53641a/modules/nrfx/mdk/system_nrf52840.c.obj
 .debug_line    0x00018dae      0x25d examples/pb_remote/server/CMakeFiles/pb_remote_server_nrf52840_xxAA_s140_6.0.0.dir/C_/sdks/nRF5_SDK_15.0.0_a53641a/components/libraries/util/app_error.c.obj
 .debug_line    0x0001900b      0x337 examples/pb_remote/server/CMakeFiles/pb_remote_server_nrf52840_xxAA_s140_6.0.0.dir/C_/sdks/nRF5_SDK_15.0.0_a53641a/components/libraries/util/app_util_platform.c.obj
 .debug_line    0x00019342      0x6b9 examples/pb_remote/server/CMakeFiles/pb_remote_server_nrf52840_xxAA_s140_6.0.0.dir/C_/sdks/nRF5_SDK_15.0.0_a53641a/components/libraries/timer/app_timer.c.obj
 .debug_line    0x000199fb      0x202 examples/pb_remote/server/CMakeFiles/pb_remote_server_nrf52840_xxAA_s140_6.0.0.dir/C_/sdks/nRF5_SDK_15.0.0_a53641a/components/libraries/util/app_error_handler_gcc.c.obj
 .debug_line    0x00019bfd      0x4b4 external/rtt/librtt_nrf52840_xxAA.a(SEGGER_RTT.c.obj)
 .debug_line    0x0001a0b1      0x276 external/rtt/librtt_nrf52840_xxAA.a(SEGGER_RTT_printf.c.obj)
 .debug_line    0x0001a327      0x9f3 external/micro-ecc/libuECC_nrf52840_xxAA.a(uECC.c.obj)

.debug_str      0x00000000    0x16799
 .debug_str     0x00000000     0x2d76 examples/pb_remote/server/CMakeFiles/pb_remote_server_nrf52840_xxAA_s140_6.0.0.dir/src/main.c.obj
                               0x32cf (size before relaxing)
 .debug_str     0x00002d76     0x136d examples/pb_remote/server/CMakeFiles/pb_remote_server_nrf52840_xxAA_s140_6.0.0.dir/__/__/__/mesh/stack/src/mesh_stack.c.obj
                               0x29f2 (size before relaxing)
 .debug_str     0x000040e3      0x6b8 examples/pb_remote/server/CMakeFiles/pb_remote_server_nrf52840_xxAA_s140_6.0.0.dir/__/__/common/src/mesh_softdevice_init.c.obj
                               0x1632 (size before relaxing)
 .debug_str     0x0000479b     0x102d examples/pb_remote/server/CMakeFiles/pb_remote_server_nrf52840_xxAA_s140_6.0.0.dir/__/__/common/src/mesh_provisionee.c.obj
                               0x2713 (size before relaxing)
 .debug_str     0x000057c8      0x291 examples/pb_remote/server/CMakeFiles/pb_remote_server_nrf52840_xxAA_s140_6.0.0.dir/__/__/common/src/simple_hal.c.obj
                                0xdd0 (size before relaxing)
 .debug_str     0x00005a59       0x3c examples/pb_remote/server/CMakeFiles/pb_remote_server_nrf52840_xxAA_s140_6.0.0.dir/__/__/nrf_mesh_weak.c.obj
                                0x649 (size before relaxing)
 .debug_str     0x00005a95       0xa0 examples/pb_remote/server/CMakeFiles/pb_remote_server_nrf52840_xxAA_s140_6.0.0.dir/__/__/common/src/app_error_weak.c.obj
                                0x85d (size before relaxing)
 .debug_str     0x00005b35       0x30 examples/pb_remote/server/CMakeFiles/pb_remote_server_nrf52840_xxAA_s140_6.0.0.dir/__/__/common/src/assertion_handler_weak.c.obj
                                0x672 (size before relaxing)
 .debug_str     0x00005b65      0x1ac examples/pb_remote/server/CMakeFiles/pb_remote_server_nrf52840_xxAA_s140_6.0.0.dir/__/__/__/mesh/core/src/nrf_mesh_configure.c.obj
                                0x7ed (size before relaxing)
 .debug_str     0x00005d11       0xbb examples/pb_remote/server/CMakeFiles/pb_remote_server_nrf52840_xxAA_s140_6.0.0.dir/__/__/__/mesh/core/src/msg_cache.c.obj
                                0x6e6 (size before relaxing)
 .debug_str     0x00005dcc     0x15ce examples/pb_remote/server/CMakeFiles/pb_remote_server_nrf52840_xxAA_s140_6.0.0.dir/__/__/__/mesh/core/src/transport.c.obj
                               0x3293 (size before relaxing)
 .debug_str     0x0000739a      0x106 examples/pb_remote/server/CMakeFiles/pb_remote_server_nrf52840_xxAA_s140_6.0.0.dir/__/__/__/mesh/core/src/event.c.obj
                               0x193f (size before relaxing)
 .debug_str     0x000074a0      0x30d examples/pb_remote/server/CMakeFiles/pb_remote_server_nrf52840_xxAA_s140_6.0.0.dir/__/__/__/mesh/core/src/packet_buffer.c.obj
                                0xb48 (size before relaxing)
 .debug_str     0x000077ad      0x914 examples/pb_remote/server/CMakeFiles/pb_remote_server_nrf52840_xxAA_s140_6.0.0.dir/__/__/__/mesh/core/src/flash_manager_defrag.c.obj
                               0x11ba (size before relaxing)
 .debug_str     0x000080c1       0xa5 examples/pb_remote/server/CMakeFiles/pb_remote_server_nrf52840_xxAA_s140_6.0.0.dir/__/__/__/mesh/core/src/fifo.c.obj
                                0x6db (size before relaxing)
 .debug_str     0x00008166       0xd9 examples/pb_remote/server/CMakeFiles/pb_remote_server_nrf52840_xxAA_s140_6.0.0.dir/__/__/__/mesh/core/src/nrf_flash.c.obj
                                0x721 (size before relaxing)
 .debug_str     0x0000823f      0x287 examples/pb_remote/server/CMakeFiles/pb_remote_server_nrf52840_xxAA_s140_6.0.0.dir/__/__/__/mesh/core/src/packet_mgr.c.obj
                                0x9d2 (size before relaxing)
 .debug_str     0x000084c6      0x582 examples/pb_remote/server/CMakeFiles/pb_remote_server_nrf52840_xxAA_s140_6.0.0.dir/__/__/__/mesh/core/src/net_state.c.obj
                               0x22e9 (size before relaxing)
 .debug_str     0x00008a48      0x387 examples/pb_remote/server/CMakeFiles/pb_remote_server_nrf52840_xxAA_s140_6.0.0.dir/__/__/__/mesh/core/src/mesh_flash.c.obj
                                0xd36 (size before relaxing)
 .debug_str     0x00008dcf       0x9b examples/pb_remote/server/CMakeFiles/pb_remote_server_nrf52840_xxAA_s140_6.0.0.dir/__/__/__/mesh/core/src/nrf_mesh_utils.c.obj
                                0x77e (size before relaxing)
 .debug_str     0x00008e6a      0x5fe examples/pb_remote/server/CMakeFiles/pb_remote_server_nrf52840_xxAA_s140_6.0.0.dir/__/__/__/mesh/core/src/nrf_mesh.c.obj
                               0x22fe (size before relaxing)
 .debug_str     0x00009468       0x53 examples/pb_remote/server/CMakeFiles/pb_remote_server_nrf52840_xxAA_s140_6.0.0.dir/__/__/__/mesh/core/src/queue.c.obj
                                0x6b0 (size before relaxing)
 .debug_str     0x000094bb       0xac examples/pb_remote/server/CMakeFiles/pb_remote_server_nrf52840_xxAA_s140_6.0.0.dir/__/__/__/mesh/core/src/hal.c.obj
                                0xb08 (size before relaxing)
 .debug_str     0x00009567      0x16e examples/pb_remote/server/CMakeFiles/pb_remote_server_nrf52840_xxAA_s140_6.0.0.dir/__/__/__/mesh/core/src/aes_cmac.c.obj
                                0xc3c (size before relaxing)
 .debug_str     0x000096d5      0x13b examples/pb_remote/server/CMakeFiles/pb_remote_server_nrf52840_xxAA_s140_6.0.0.dir/__/__/__/mesh/core/src/timer_scheduler.c.obj
                                0x8ad (size before relaxing)
 .debug_str     0x00009810      0x222 examples/pb_remote/server/CMakeFiles/pb_remote_server_nrf52840_xxAA_s140_6.0.0.dir/__/__/__/mesh/core/src/timer.c.obj
                                0x8ae (size before relaxing)
 .debug_str     0x00009a32       0xac examples/pb_remote/server/CMakeFiles/pb_remote_server_nrf52840_xxAA_s140_6.0.0.dir/__/__/__/mesh/core/src/rand.c.obj
                                0x76e (size before relaxing)
 .debug_str     0x00009ade      0x165 examples/pb_remote/server/CMakeFiles/pb_remote_server_nrf52840_xxAA_s140_6.0.0.dir/__/__/__/mesh/core/src/mesh_opt.c.obj
                                0xac2 (size before relaxing)
 .debug_str     0x00009c43      0x8fe examples/pb_remote/server/CMakeFiles/pb_remote_server_nrf52840_xxAA_s140_6.0.0.dir/__/__/__/mesh/core/src/timeslot.c.obj
                               0x194c (size before relaxing)
 .debug_str     0x0000a541      0x2a7 examples/pb_remote/server/CMakeFiles/pb_remote_server_nrf52840_xxAA_s140_6.0.0.dir/__/__/__/mesh/core/src/bearer_event.c.obj
                                0xf47 (size before relaxing)
 .debug_str     0x0000a7e8      0x16e examples/pb_remote/server/CMakeFiles/pb_remote_server_nrf52840_xxAA_s140_6.0.0.dir/__/__/__/mesh/core/src/enc.c.obj
                                0xf13 (size before relaxing)
 .debug_str     0x0000a956      0x336 examples/pb_remote/server/CMakeFiles/pb_remote_server_nrf52840_xxAA_s140_6.0.0.dir/__/__/__/mesh/core/src/network.c.obj
                               0x165c (size before relaxing)
 .debug_str     0x0000ac8c      0x30f examples/pb_remote/server/CMakeFiles/pb_remote_server_nrf52840_xxAA_s140_6.0.0.dir/__/__/__/mesh/core/src/net_packet.c.obj
                                0xeb3 (size before relaxing)
 .debug_str     0x0000af9b       0x53 examples/pb_remote/server/CMakeFiles/pb_remote_server_nrf52840_xxAA_s140_6.0.0.dir/__/__/__/mesh/core/src/msqueue.c.obj
                                0x6ec (size before relaxing)
 .debug_str     0x0000afee       0xc8 examples/pb_remote/server/CMakeFiles/pb_remote_server_nrf52840_xxAA_s140_6.0.0.dir/__/__/__/mesh/core/src/nrf_mesh_keygen.c.obj
                                0x397 (size before relaxing)
 .debug_str     0x0000b0b6       0x6a examples/pb_remote/server/CMakeFiles/pb_remote_server_nrf52840_xxAA_s140_6.0.0.dir/__/__/__/mesh/core/src/list.c.obj
                                0x2be (size before relaxing)
 .debug_str     0x0000b120      0x189 examples/pb_remote/server/CMakeFiles/pb_remote_server_nrf52840_xxAA_s140_6.0.0.dir/__/__/__/mesh/core/src/log.c.obj
                                0x7d0 (size before relaxing)
 .debug_str     0x0000b2a9      0x566 examples/pb_remote/server/CMakeFiles/pb_remote_server_nrf52840_xxAA_s140_6.0.0.dir/__/__/__/mesh/core/src/flash_manager.c.obj
                               0x15a5 (size before relaxing)
 .debug_str     0x0000b80f       0xd2 examples/pb_remote/server/CMakeFiles/pb_remote_server_nrf52840_xxAA_s140_6.0.0.dir/__/__/__/mesh/core/src/ccm_soft.c.obj
                                0xd1c (size before relaxing)
 .debug_str     0x0000b8e1       0x92 examples/pb_remote/server/CMakeFiles/pb_remote_server_nrf52840_xxAA_s140_6.0.0.dir/__/__/__/mesh/core/src/replay_cache.c.obj
                                0x68d (size before relaxing)
 .debug_str     0x0000b973       0xd4 examples/pb_remote/server/CMakeFiles/pb_remote_server_nrf52840_xxAA_s140_6.0.0.dir/__/__/__/mesh/core/src/beacon.c.obj
                               0x116a (size before relaxing)
 .debug_str     0x0000ba47       0x38 examples/pb_remote/server/CMakeFiles/pb_remote_server_nrf52840_xxAA_s140_6.0.0.dir/__/__/__/mesh/core/src/flash_manager_internal.c.obj
                                0x7d1 (size before relaxing)
 .debug_str     0x0000ba7f      0x2be examples/pb_remote/server/CMakeFiles/pb_remote_server_nrf52840_xxAA_s140_6.0.0.dir/__/__/__/mesh/core/src/core_tx.c.obj
                                0xc1c (size before relaxing)
 .debug_str     0x0000bd3d      0x645 examples/pb_remote/server/CMakeFiles/pb_remote_server_nrf52840_xxAA_s140_6.0.0.dir/__/__/__/mesh/core/src/heartbeat.c.obj
                               0x255c (size before relaxing)
 .debug_str     0x0000c382      0x2b9 examples/pb_remote/server/CMakeFiles/pb_remote_server_nrf52840_xxAA_s140_6.0.0.dir/__/__/__/mesh/core/src/net_beacon.c.obj
                               0x25cd (size before relaxing)
 .debug_str     0x0000c63b      0x467 examples/pb_remote/server/CMakeFiles/pb_remote_server_nrf52840_xxAA_s140_6.0.0.dir/__/__/__/mesh/core/src/mesh_config.c.obj
                               0x2293 (size before relaxing)
 .debug_str     0x0000caa2      0x23f examples/pb_remote/server/CMakeFiles/pb_remote_server_nrf52840_xxAA_s140_6.0.0.dir/__/__/__/mesh/core/src/mesh_config_backend.c.obj
                               0x1047 (size before relaxing)
 .debug_str     0x0000cce1       0xa0 examples/pb_remote/server/CMakeFiles/pb_remote_server_nrf52840_xxAA_s140_6.0.0.dir/__/__/__/mesh/core/src/mesh_config_flashman_glue.c.obj
                               0x203a (size before relaxing)
 .debug_str     0x0000cd81      0x393 examples/pb_remote/server/CMakeFiles/pb_remote_server_nrf52840_xxAA_s140_6.0.0.dir/__/__/__/mesh/core/src/core_tx_adv.c.obj
                               0x1920 (size before relaxing)
 .debug_str     0x0000d114      0x185 examples/pb_remote/server/CMakeFiles/pb_remote_server_nrf52840_xxAA_s140_6.0.0.dir/__/__/__/mesh/bearer/src/ad_listener.c.obj
                                0xc0e (size before relaxing)
 .debug_str     0x0000d299      0x162 examples/pb_remote/server/CMakeFiles/pb_remote_server_nrf52840_xxAA_s140_6.0.0.dir/__/__/__/mesh/bearer/src/ad_type_filter.c.obj
                                0x9cc (size before relaxing)
 .debug_str     0x0000d3fb      0x2ef examples/pb_remote/server/CMakeFiles/pb_remote_server_nrf52840_xxAA_s140_6.0.0.dir/__/__/__/mesh/bearer/src/advertiser.c.obj
                               0x15e0 (size before relaxing)
 .debug_str     0x0000d6ea      0x4e3 examples/pb_remote/server/CMakeFiles/pb_remote_server_nrf52840_xxAA_s140_6.0.0.dir/__/__/__/mesh/bearer/src/bearer_handler.c.obj
                               0x132a (size before relaxing)
 .debug_str     0x0000dbcd      0x219 examples/pb_remote/server/CMakeFiles/pb_remote_server_nrf52840_xxAA_s140_6.0.0.dir/__/__/__/mesh/bearer/src/broadcast.c.obj
                               0x1189 (size before relaxing)
 .debug_str     0x0000dde6       0x72 examples/pb_remote/server/CMakeFiles/pb_remote_server_nrf52840_xxAA_s140_6.0.0.dir/__/__/__/mesh/bearer/src/filter_engine.c.obj
                                0x839 (size before relaxing)
 .debug_str     0x0000de58       0x79 examples/pb_remote/server/CMakeFiles/pb_remote_server_nrf52840_xxAA_s140_6.0.0.dir/__/__/__/mesh/bearer/src/radio_config.c.obj
                                0x928 (size before relaxing)
 .debug_str     0x0000ded1      0x49c examples/pb_remote/server/CMakeFiles/pb_remote_server_nrf52840_xxAA_s140_6.0.0.dir/__/__/__/mesh/bearer/src/scanner.c.obj
                               0x1b43 (size before relaxing)
 .debug_str     0x0000e36d      0x15f examples/pb_remote/server/CMakeFiles/pb_remote_server_nrf52840_xxAA_s140_6.0.0.dir/__/__/__/mesh/bearer/src/mesh_pa_lna.c.obj
                                0x922 (size before relaxing)
 .debug_str     0x0000e4cc      0x613 examples/pb_remote/server/CMakeFiles/pb_remote_server_nrf52840_xxAA_s140_6.0.0.dir/__/__/__/mesh/prov/src/prov_provisionee.c.obj
                               0x2312 (size before relaxing)
 .debug_str     0x0000eadf      0x251 examples/pb_remote/server/CMakeFiles/pb_remote_server_nrf52840_xxAA_s140_6.0.0.dir/__/__/__/mesh/prov/src/nrf_mesh_prov.c.obj
                               0x1ec5 (size before relaxing)
 .debug_str     0x0000ed30       0xc8 examples/pb_remote/server/CMakeFiles/pb_remote_server_nrf52840_xxAA_s140_6.0.0.dir/__/__/__/mesh/prov/src/provisioning.c.obj
                                0xf56 (size before relaxing)
 .debug_str     0x0000edf8       0xb1 examples/pb_remote/server/CMakeFiles/pb_remote_server_nrf52840_xxAA_s140_6.0.0.dir/__/__/__/mesh/prov/src/prov_beacon.c.obj
                               0x1a8b (size before relaxing)
 .debug_str     0x0000eea9      0x27f examples/pb_remote/server/CMakeFiles/pb_remote_server_nrf52840_xxAA_s140_6.0.0.dir/__/__/__/mesh/prov/src/prov_utils.c.obj
                               0x22a7 (size before relaxing)
 .debug_str     0x0000f128      0x40a examples/pb_remote/server/CMakeFiles/pb_remote_server_nrf52840_xxAA_s140_6.0.0.dir/__/__/__/mesh/prov/src/prov_bearer_adv.c.obj
                               0x1c27 (size before relaxing)
 .debug_str     0x0000f532     0x13b2 examples/pb_remote/server/CMakeFiles/pb_remote_server_nrf52840_xxAA_s140_6.0.0.dir/__/__/__/models/experimental/pb_remote/src/pb_remote_server.c.obj
                               0x3683 (size before relaxing)
 .debug_str     0x000108e4      0x29c examples/pb_remote/server/CMakeFiles/pb_remote_server_nrf52840_xxAA_s140_6.0.0.dir/__/__/__/mesh/access/src/access_publish.c.obj
                                0xb8e (size before relaxing)
 .debug_str     0x00010b80      0xc05 examples/pb_remote/server/CMakeFiles/pb_remote_server_nrf52840_xxAA_s140_6.0.0.dir/__/__/__/mesh/access/src/access.c.obj
                               0x322a (size before relaxing)
 .debug_str     0x00011785      0x134 examples/pb_remote/server/CMakeFiles/pb_remote_server_nrf52840_xxAA_s140_6.0.0.dir/__/__/__/mesh/access/src/access_reliable.c.obj
                                0xf9c (size before relaxing)
 .debug_str     0x000118b9       0x87 examples/pb_remote/server/CMakeFiles/pb_remote_server_nrf52840_xxAA_s140_6.0.0.dir/__/__/__/mesh/access/src/access_loopback.c.obj
                                0xbb5 (size before relaxing)
 .debug_str     0x00011940      0xecb examples/pb_remote/server/CMakeFiles/pb_remote_server_nrf52840_xxAA_s140_6.0.0.dir/__/__/__/mesh/access/src/device_state_manager.c.obj
                               0x3442 (size before relaxing)
 .debug_str     0x0001280b      0x1a3 examples/pb_remote/server/CMakeFiles/pb_remote_server_nrf52840_xxAA_s140_6.0.0.dir/__/__/__/models/foundation/config/src/composition_data.c.obj
                                0x8e8 (size before relaxing)
 .debug_str     0x000129ae     0x20da examples/pb_remote/server/CMakeFiles/pb_remote_server_nrf52840_xxAA_s140_6.0.0.dir/__/__/__/models/foundation/config/src/config_server.c.obj
                               0x51aa (size before relaxing)
 .debug_str     0x00014a88       0x74 examples/pb_remote/server/CMakeFiles/pb_remote_server_nrf52840_xxAA_s140_6.0.0.dir/__/__/__/models/foundation/config/src/packed_index_list.c.obj
                                0x258 (size before relaxing)
 .debug_str     0x00014afc      0x5bd examples/pb_remote/server/CMakeFiles/pb_remote_server_nrf52840_xxAA_s140_6.0.0.dir/__/__/__/models/foundation/health/src/health_server.c.obj
                               0x1659 (size before relaxing)
 .debug_str     0x000150b9      0x3be examples/pb_remote/server/CMakeFiles/pb_remote_server_nrf52840_xxAA_s140_6.0.0.dir/C_/sdks/nRF5_SDK_15.0.0_a53641a/modules/nrfx/mdk/system_nrf52840.c.obj
                                0x914 (size before relaxing)
 .debug_str     0x00015477       0x9f examples/pb_remote/server/CMakeFiles/pb_remote_server_nrf52840_xxAA_s140_6.0.0.dir/C_/sdks/nRF5_SDK_15.0.0_a53641a/components/libraries/util/app_error.c.obj
                                0x727 (size before relaxing)
 .debug_str     0x00015516      0x1e5 examples/pb_remote/server/CMakeFiles/pb_remote_server_nrf52840_xxAA_s140_6.0.0.dir/C_/sdks/nRF5_SDK_15.0.0_a53641a/components/libraries/util/app_util_platform.c.obj
                                0xc90 (size before relaxing)
 .debug_str     0x000156fb      0x60b examples/pb_remote/server/CMakeFiles/pb_remote_server_nrf52840_xxAA_s140_6.0.0.dir/C_/sdks/nRF5_SDK_15.0.0_a53641a/components/libraries/timer/app_timer.c.obj
                               0x1298 (size before relaxing)
 .debug_str     0x00015d06       0x52 examples/pb_remote/server/CMakeFiles/pb_remote_server_nrf52840_xxAA_s140_6.0.0.dir/C_/sdks/nRF5_SDK_15.0.0_a53641a/components/libraries/util/app_error_handler_gcc.c.obj
                                0x68c (size before relaxing)
 .debug_str     0x00015d58      0x2d1 external/rtt/librtt_nrf52840_xxAA.a(SEGGER_RTT.c.obj)
                                0x922 (size before relaxing)
 .debug_str     0x00016029       0xdf external/rtt/librtt_nrf52840_xxAA.a(SEGGER_RTT_printf.c.obj)
                                0x792 (size before relaxing)
 .debug_str     0x00016108      0x691 external/micro-ecc/libuECC_nrf52840_xxAA.a(uECC.c.obj)
                                0x880 (size before relaxing)

.debug_frame    0x00000000     0x7988
 .debug_frame   0x00000000       0x88 examples/pb_remote/server/CMakeFiles/pb_remote_server_nrf52840_xxAA_s140_6.0.0.dir/src/main.c.obj
 .debug_frame   0x00000088       0xec examples/pb_remote/server/CMakeFiles/pb_remote_server_nrf52840_xxAA_s140_6.0.0.dir/__/__/__/mesh/stack/src/mesh_stack.c.obj
 .debug_frame   0x00000174       0x90 examples/pb_remote/server/CMakeFiles/pb_remote_server_nrf52840_xxAA_s140_6.0.0.dir/__/__/common/src/mesh_softdevice_init.c.obj
 .debug_frame   0x00000204       0x80 examples/pb_remote/server/CMakeFiles/pb_remote_server_nrf52840_xxAA_s140_6.0.0.dir/__/__/common/src/mesh_provisionee.c.obj
 .debug_frame   0x00000284       0xc8 examples/pb_remote/server/CMakeFiles/pb_remote_server_nrf52840_xxAA_s140_6.0.0.dir/__/__/common/src/simple_hal.c.obj
 .debug_frame   0x0000034c       0x30 examples/pb_remote/server/CMakeFiles/pb_remote_server_nrf52840_xxAA_s140_6.0.0.dir/__/__/nrf_mesh_weak.c.obj
 .debug_frame   0x0000037c       0x34 examples/pb_remote/server/CMakeFiles/pb_remote_server_nrf52840_xxAA_s140_6.0.0.dir/__/__/common/src/app_error_weak.c.obj
 .debug_frame   0x000003b0       0x28 examples/pb_remote/server/CMakeFiles/pb_remote_server_nrf52840_xxAA_s140_6.0.0.dir/__/__/common/src/assertion_handler_weak.c.obj
 .debug_frame   0x000003d8       0x4c examples/pb_remote/server/CMakeFiles/pb_remote_server_nrf52840_xxAA_s140_6.0.0.dir/__/__/__/mesh/core/src/nrf_mesh_configure.c.obj
 .debug_frame   0x00000424       0x6c examples/pb_remote/server/CMakeFiles/pb_remote_server_nrf52840_xxAA_s140_6.0.0.dir/__/__/__/mesh/core/src/msg_cache.c.obj
 .debug_frame   0x00000490      0x3fc examples/pb_remote/server/CMakeFiles/pb_remote_server_nrf52840_xxAA_s140_6.0.0.dir/__/__/__/mesh/core/src/transport.c.obj
 .debug_frame   0x0000088c       0x68 examples/pb_remote/server/CMakeFiles/pb_remote_server_nrf52840_xxAA_s140_6.0.0.dir/__/__/__/mesh/core/src/event.c.obj
 .debug_frame   0x000008f4      0x12c examples/pb_remote/server/CMakeFiles/pb_remote_server_nrf52840_xxAA_s140_6.0.0.dir/__/__/__/mesh/core/src/packet_buffer.c.obj
 .debug_frame   0x00000a20      0x24c examples/pb_remote/server/CMakeFiles/pb_remote_server_nrf52840_xxAA_s140_6.0.0.dir/__/__/__/mesh/core/src/flash_manager_defrag.c.obj
 .debug_frame   0x00000c6c       0xd0 examples/pb_remote/server/CMakeFiles/pb_remote_server_nrf52840_xxAA_s140_6.0.0.dir/__/__/__/mesh/core/src/fifo.c.obj
 .debug_frame   0x00000d3c       0x54 examples/pb_remote/server/CMakeFiles/pb_remote_server_nrf52840_xxAA_s140_6.0.0.dir/__/__/__/mesh/core/src/nrf_flash.c.obj
 .debug_frame   0x00000d90       0xa0 examples/pb_remote/server/CMakeFiles/pb_remote_server_nrf52840_xxAA_s140_6.0.0.dir/__/__/__/mesh/core/src/packet_mgr.c.obj
 .debug_frame   0x00000e30      0x2b0 examples/pb_remote/server/CMakeFiles/pb_remote_server_nrf52840_xxAA_s140_6.0.0.dir/__/__/__/mesh/core/src/net_state.c.obj
 .debug_frame   0x000010e0      0x150 examples/pb_remote/server/CMakeFiles/pb_remote_server_nrf52840_xxAA_s140_6.0.0.dir/__/__/__/mesh/core/src/mesh_flash.c.obj
 .debug_frame   0x00001230       0x50 examples/pb_remote/server/CMakeFiles/pb_remote_server_nrf52840_xxAA_s140_6.0.0.dir/__/__/__/mesh/core/src/nrf_mesh_utils.c.obj
 .debug_frame   0x00001280      0x188 examples/pb_remote/server/CMakeFiles/pb_remote_server_nrf52840_xxAA_s140_6.0.0.dir/__/__/__/mesh/core/src/nrf_mesh.c.obj
 .debug_frame   0x00001408       0x74 examples/pb_remote/server/CMakeFiles/pb_remote_server_nrf52840_xxAA_s140_6.0.0.dir/__/__/__/mesh/core/src/queue.c.obj
 .debug_frame   0x0000147c       0x68 examples/pb_remote/server/CMakeFiles/pb_remote_server_nrf52840_xxAA_s140_6.0.0.dir/__/__/__/mesh/core/src/hal.c.obj
 .debug_frame   0x000014e4       0x6c examples/pb_remote/server/CMakeFiles/pb_remote_server_nrf52840_xxAA_s140_6.0.0.dir/__/__/__/mesh/core/src/aes_cmac.c.obj
 .debug_frame   0x00001550      0x110 examples/pb_remote/server/CMakeFiles/pb_remote_server_nrf52840_xxAA_s140_6.0.0.dir/__/__/__/mesh/core/src/timer_scheduler.c.obj
 .debug_frame   0x00001660      0x10c examples/pb_remote/server/CMakeFiles/pb_remote_server_nrf52840_xxAA_s140_6.0.0.dir/__/__/__/mesh/core/src/timer.c.obj
 .debug_frame   0x0000176c       0x84 examples/pb_remote/server/CMakeFiles/pb_remote_server_nrf52840_xxAA_s140_6.0.0.dir/__/__/__/mesh/core/src/rand.c.obj
 .debug_frame   0x000017f0       0x20 examples/pb_remote/server/CMakeFiles/pb_remote_server_nrf52840_xxAA_s140_6.0.0.dir/__/__/__/mesh/core/src/mesh_opt.c.obj
 .debug_frame   0x00001810      0x1a0 examples/pb_remote/server/CMakeFiles/pb_remote_server_nrf52840_xxAA_s140_6.0.0.dir/__/__/__/mesh/core/src/timeslot.c.obj
 .debug_frame   0x000019b0      0x1c0 examples/pb_remote/server/CMakeFiles/pb_remote_server_nrf52840_xxAA_s140_6.0.0.dir/__/__/__/mesh/core/src/bearer_event.c.obj
 .debug_frame   0x00001b70      0x15c examples/pb_remote/server/CMakeFiles/pb_remote_server_nrf52840_xxAA_s140_6.0.0.dir/__/__/__/mesh/core/src/enc.c.obj
 .debug_frame   0x00001ccc      0x128 examples/pb_remote/server/CMakeFiles/pb_remote_server_nrf52840_xxAA_s140_6.0.0.dir/__/__/__/mesh/core/src/network.c.obj
 .debug_frame   0x00001df4      0x114 examples/pb_remote/server/CMakeFiles/pb_remote_server_nrf52840_xxAA_s140_6.0.0.dir/__/__/__/mesh/core/src/net_packet.c.obj
 .debug_frame   0x00001f08       0xb4 examples/pb_remote/server/CMakeFiles/pb_remote_server_nrf52840_xxAA_s140_6.0.0.dir/__/__/__/mesh/core/src/msqueue.c.obj
 .debug_frame   0x00001fbc       0xb4 examples/pb_remote/server/CMakeFiles/pb_remote_server_nrf52840_xxAA_s140_6.0.0.dir/__/__/__/mesh/core/src/nrf_mesh_keygen.c.obj
 .debug_frame   0x00002070       0xc8 examples/pb_remote/server/CMakeFiles/pb_remote_server_nrf52840_xxAA_s140_6.0.0.dir/__/__/__/mesh/core/src/list.c.obj
 .debug_frame   0x00002138       0xb0 examples/pb_remote/server/CMakeFiles/pb_remote_server_nrf52840_xxAA_s140_6.0.0.dir/__/__/__/mesh/core/src/log.c.obj
 .debug_frame   0x000021e8      0x320 examples/pb_remote/server/CMakeFiles/pb_remote_server_nrf52840_xxAA_s140_6.0.0.dir/__/__/__/mesh/core/src/flash_manager.c.obj
 .debug_frame   0x00002508       0xf4 examples/pb_remote/server/CMakeFiles/pb_remote_server_nrf52840_xxAA_s140_6.0.0.dir/__/__/__/mesh/core/src/ccm_soft.c.obj
 .debug_frame   0x000025fc       0x80 examples/pb_remote/server/CMakeFiles/pb_remote_server_nrf52840_xxAA_s140_6.0.0.dir/__/__/__/mesh/core/src/replay_cache.c.obj
 .debug_frame   0x0000267c       0x60 examples/pb_remote/server/CMakeFiles/pb_remote_server_nrf52840_xxAA_s140_6.0.0.dir/__/__/__/mesh/core/src/beacon.c.obj
 .debug_frame   0x000026dc       0x34 examples/pb_remote/server/CMakeFiles/pb_remote_server_nrf52840_xxAA_s140_6.0.0.dir/__/__/__/mesh/core/src/flash_manager_internal.c.obj
 .debug_frame   0x00002710       0xf0 examples/pb_remote/server/CMakeFiles/pb_remote_server_nrf52840_xxAA_s140_6.0.0.dir/__/__/__/mesh/core/src/core_tx.c.obj
 .debug_frame   0x00002800      0x1b8 examples/pb_remote/server/CMakeFiles/pb_remote_server_nrf52840_xxAA_s140_6.0.0.dir/__/__/__/mesh/core/src/heartbeat.c.obj
 .debug_frame   0x000029b8      0x190 examples/pb_remote/server/CMakeFiles/pb_remote_server_nrf52840_xxAA_s140_6.0.0.dir/__/__/__/mesh/core/src/net_beacon.c.obj
 .debug_frame   0x00002b48      0x1d0 examples/pb_remote/server/CMakeFiles/pb_remote_server_nrf52840_xxAA_s140_6.0.0.dir/__/__/__/mesh/core/src/mesh_config.c.obj
 .debug_frame   0x00002d18      0x110 examples/pb_remote/server/CMakeFiles/pb_remote_server_nrf52840_xxAA_s140_6.0.0.dir/__/__/__/mesh/core/src/mesh_config_backend.c.obj
 .debug_frame   0x00002e28      0x164 examples/pb_remote/server/CMakeFiles/pb_remote_server_nrf52840_xxAA_s140_6.0.0.dir/__/__/__/mesh/core/src/mesh_config_flashman_glue.c.obj
 .debug_frame   0x00002f8c      0x200 examples/pb_remote/server/CMakeFiles/pb_remote_server_nrf52840_xxAA_s140_6.0.0.dir/__/__/__/mesh/core/src/core_tx_adv.c.obj
 .debug_frame   0x0000318c       0x6c examples/pb_remote/server/CMakeFiles/pb_remote_server_nrf52840_xxAA_s140_6.0.0.dir/__/__/__/mesh/bearer/src/ad_listener.c.obj
 .debug_frame   0x000031f8       0xa8 examples/pb_remote/server/CMakeFiles/pb_remote_server_nrf52840_xxAA_s140_6.0.0.dir/__/__/__/mesh/bearer/src/ad_type_filter.c.obj
 .debug_frame   0x000032a0      0x284 examples/pb_remote/server/CMakeFiles/pb_remote_server_nrf52840_xxAA_s140_6.0.0.dir/__/__/__/mesh/bearer/src/advertiser.c.obj
 .debug_frame   0x00003524      0x1c8 examples/pb_remote/server/CMakeFiles/pb_remote_server_nrf52840_xxAA_s140_6.0.0.dir/__/__/__/mesh/bearer/src/bearer_handler.c.obj
 .debug_frame   0x000036ec       0x7c examples/pb_remote/server/CMakeFiles/pb_remote_server_nrf52840_xxAA_s140_6.0.0.dir/__/__/__/mesh/bearer/src/broadcast.c.obj
 .debug_frame   0x00003768       0x74 examples/pb_remote/server/CMakeFiles/pb_remote_server_nrf52840_xxAA_s140_6.0.0.dir/__/__/__/mesh/bearer/src/filter_engine.c.obj
 .debug_frame   0x000037dc       0x94 examples/pb_remote/server/CMakeFiles/pb_remote_server_nrf52840_xxAA_s140_6.0.0.dir/__/__/__/mesh/bearer/src/radio_config.c.obj
 .debug_frame   0x00003870      0x2cc examples/pb_remote/server/CMakeFiles/pb_remote_server_nrf52840_xxAA_s140_6.0.0.dir/__/__/__/mesh/bearer/src/scanner.c.obj
 .debug_frame   0x00003b3c      0x10c examples/pb_remote/server/CMakeFiles/pb_remote_server_nrf52840_xxAA_s140_6.0.0.dir/__/__/__/mesh/bearer/src/mesh_pa_lna.c.obj
 .debug_frame   0x00003c48      0x198 examples/pb_remote/server/CMakeFiles/pb_remote_server_nrf52840_xxAA_s140_6.0.0.dir/__/__/__/mesh/prov/src/prov_provisionee.c.obj
 .debug_frame   0x00003de0      0x160 examples/pb_remote/server/CMakeFiles/pb_remote_server_nrf52840_xxAA_s140_6.0.0.dir/__/__/__/mesh/prov/src/nrf_mesh_prov.c.obj
 .debug_frame   0x00003f40      0x170 examples/pb_remote/server/CMakeFiles/pb_remote_server_nrf52840_xxAA_s140_6.0.0.dir/__/__/__/mesh/prov/src/provisioning.c.obj
 .debug_frame   0x000040b0       0x84 examples/pb_remote/server/CMakeFiles/pb_remote_server_nrf52840_xxAA_s140_6.0.0.dir/__/__/__/mesh/prov/src/prov_beacon.c.obj
 .debug_frame   0x00004134      0x1b0 examples/pb_remote/server/CMakeFiles/pb_remote_server_nrf52840_xxAA_s140_6.0.0.dir/__/__/__/mesh/prov/src/prov_utils.c.obj
 .debug_frame   0x000042e4      0x32c examples/pb_remote/server/CMakeFiles/pb_remote_server_nrf52840_xxAA_s140_6.0.0.dir/__/__/__/mesh/prov/src/prov_bearer_adv.c.obj
 .debug_frame   0x00004610      0x448 examples/pb_remote/server/CMakeFiles/pb_remote_server_nrf52840_xxAA_s140_6.0.0.dir/__/__/__/models/experimental/pb_remote/src/pb_remote_server.c.obj
 .debug_frame   0x00004a58      0x114 examples/pb_remote/server/CMakeFiles/pb_remote_server_nrf52840_xxAA_s140_6.0.0.dir/__/__/__/mesh/access/src/access_publish.c.obj
 .debug_frame   0x00004b6c      0x5e8 examples/pb_remote/server/CMakeFiles/pb_remote_server_nrf52840_xxAA_s140_6.0.0.dir/__/__/__/mesh/access/src/access.c.obj
 .debug_frame   0x00005154      0x138 examples/pb_remote/server/CMakeFiles/pb_remote_server_nrf52840_xxAA_s140_6.0.0.dir/__/__/__/mesh/access/src/access_reliable.c.obj
 .debug_frame   0x0000528c       0x70 examples/pb_remote/server/CMakeFiles/pb_remote_server_nrf52840_xxAA_s140_6.0.0.dir/__/__/__/mesh/access/src/access_loopback.c.obj
 .debug_frame   0x000052fc      0xae0 examples/pb_remote/server/CMakeFiles/pb_remote_server_nrf52840_xxAA_s140_6.0.0.dir/__/__/__/mesh/access/src/device_state_manager.c.obj
 .debug_frame   0x00005ddc       0x40 examples/pb_remote/server/CMakeFiles/pb_remote_server_nrf52840_xxAA_s140_6.0.0.dir/__/__/__/models/foundation/config/src/composition_data.c.obj
 .debug_frame   0x00005e1c      0x8d8 examples/pb_remote/server/CMakeFiles/pb_remote_server_nrf52840_xxAA_s140_6.0.0.dir/__/__/__/models/foundation/config/src/config_server.c.obj
 .debug_frame   0x000066f4       0x2c examples/pb_remote/server/CMakeFiles/pb_remote_server_nrf52840_xxAA_s140_6.0.0.dir/__/__/__/models/foundation/config/src/packed_index_list.c.obj
 .debug_frame   0x00006720      0x2a0 examples/pb_remote/server/CMakeFiles/pb_remote_server_nrf52840_xxAA_s140_6.0.0.dir/__/__/__/models/foundation/health/src/health_server.c.obj
 .debug_frame   0x000069c0       0x48 examples/pb_remote/server/CMakeFiles/pb_remote_server_nrf52840_xxAA_s140_6.0.0.dir/C_/sdks/nRF5_SDK_15.0.0_a53641a/modules/nrfx/mdk/system_nrf52840.c.obj
 .debug_frame   0x00006a08       0x44 examples/pb_remote/server/CMakeFiles/pb_remote_server_nrf52840_xxAA_s140_6.0.0.dir/C_/sdks/nRF5_SDK_15.0.0_a53641a/components/libraries/util/app_error.c.obj
 .debug_frame   0x00006a4c       0x84 examples/pb_remote/server/CMakeFiles/pb_remote_server_nrf52840_xxAA_s140_6.0.0.dir/C_/sdks/nRF5_SDK_15.0.0_a53641a/components/libraries/util/app_util_platform.c.obj
 .debug_frame   0x00006ad0      0x16c examples/pb_remote/server/CMakeFiles/pb_remote_server_nrf52840_xxAA_s140_6.0.0.dir/C_/sdks/nRF5_SDK_15.0.0_a53641a/components/libraries/timer/app_timer.c.obj
 .debug_frame   0x00006c3c       0x20 examples/pb_remote/server/CMakeFiles/pb_remote_server_nrf52840_xxAA_s140_6.0.0.dir/C_/sdks/nRF5_SDK_15.0.0_a53641a/components/libraries/util/app_error_handler_gcc.c.obj
 .debug_frame   0x00006c5c      0x2d8 external/rtt/librtt_nrf52840_xxAA.a(SEGGER_RTT.c.obj)
 .debug_frame   0x00006f34       0xac external/rtt/librtt_nrf52840_xxAA.a(SEGGER_RTT_printf.c.obj)
 .debug_frame   0x00006fe0      0x684 external/micro-ecc/libuECC_nrf52840_xxAA.a(uECC.c.obj)
 .debug_frame   0x00007664       0x2c c:/arm_gcc/bin/../lib/gcc/arm-none-eabi/6.3.1/thumb/v7e-m/fpv4-sp/hard\libgcc.a(_aeabi_uldivmod.o)
 .debug_frame   0x00007690       0x34 c:/arm_gcc/bin/../lib/gcc/arm-none-eabi/6.3.1/thumb/v7e-m/fpv4-sp/hard\libgcc.a(_udivmoddi4.o)
 .debug_frame   0x000076c4       0x28 c:/arm_gcc/bin/../lib/gcc/arm-none-eabi/6.3.1/../../../../arm-none-eabi/lib/thumb/v7e-m/fpv4-sp/hard\libg_nano.a(lib_a-exit.o)
 .debug_frame   0x000076ec       0x2c c:/arm_gcc/bin/../lib/gcc/arm-none-eabi/6.3.1/../../../../arm-none-eabi/lib/thumb/v7e-m/fpv4-sp/hard\libg_nano.a(lib_a-init.o)
 .debug_frame   0x00007718       0x30 c:/arm_gcc/bin/../lib/gcc/arm-none-eabi/6.3.1/../../../../arm-none-eabi/lib/thumb/v7e-m/fpv4-sp/hard\libg_nano.a(lib_a-malloc.o)
 .debug_frame   0x00007748       0x28 c:/arm_gcc/bin/../lib/gcc/arm-none-eabi/6.3.1/../../../../arm-none-eabi/lib/thumb/v7e-m/fpv4-sp/hard\libg_nano.a(lib_a-memcmp.o)
 .debug_frame   0x00007770       0x28 c:/arm_gcc/bin/../lib/gcc/arm-none-eabi/6.3.1/../../../../arm-none-eabi/lib/thumb/v7e-m/fpv4-sp/hard\libg_nano.a(lib_a-memcpy-stub.o)
 .debug_frame   0x00007798       0x20 c:/arm_gcc/bin/../lib/gcc/arm-none-eabi/6.3.1/../../../../arm-none-eabi/lib/thumb/v7e-m/fpv4-sp/hard\libg_nano.a(lib_a-memset.o)
 .debug_frame   0x000077b8       0x38 c:/arm_gcc/bin/../lib/gcc/arm-none-eabi/6.3.1/../../../../arm-none-eabi/lib/thumb/v7e-m/fpv4-sp/hard\libg_nano.a(lib_a-nano-freer.o)
 .debug_frame   0x000077f0       0x2c c:/arm_gcc/bin/../lib/gcc/arm-none-eabi/6.3.1/../../../../arm-none-eabi/lib/thumb/v7e-m/fpv4-sp/hard\libg_nano.a(lib_a-nano-mallocr.o)
 .debug_frame   0x0000781c       0x2c c:/arm_gcc/bin/../lib/gcc/arm-none-eabi/6.3.1/../../../../arm-none-eabi/lib/thumb/v7e-m/fpv4-sp/hard\libg_nano.a(lib_a-sbrkr.o)
 .debug_frame   0x00007848       0x20 c:/arm_gcc/bin/../lib/gcc/arm-none-eabi/6.3.1/../../../../arm-none-eabi/lib/thumb/v7e-m/fpv4-sp/hard\libg_nano.a(lib_a-strcpy.o)
 .debug_frame   0x00007868       0x34 c:/arm_gcc/bin/../lib/gcc/arm-none-eabi/6.3.1/../../../../arm-none-eabi/lib/thumb/v7e-m/fpv4-sp/hard\libg_nano.a(lib_a-strrchr.o)
 .debug_frame   0x0000789c       0x30 c:/arm_gcc/bin/../lib/gcc/arm-none-eabi/6.3.1/../../../../arm-none-eabi/lib/thumb/v7e-m/fpv4-sp/hard\libg_nano.a(lib_a-mlock.o)
 .debug_frame   0x000078cc       0x5c c:/arm_gcc/bin/../lib/gcc/arm-none-eabi/6.3.1/../../../../arm-none-eabi/lib/thumb/v7e-m/fpv4-sp/hard\libg_nano.a(lib_a-reent.o)
 .debug_frame   0x00007928       0x20 c:/arm_gcc/bin/../lib/gcc/arm-none-eabi/6.3.1/../../../../arm-none-eabi/lib/thumb/v7e-m/fpv4-sp/hard\libg_nano.a(lib_a-strchr.o)
 .debug_frame   0x00007948       0x20 c:/arm_gcc/bin/../lib/gcc/arm-none-eabi/6.3.1/../../../../arm-none-eabi/lib/thumb/v7e-m/fpv4-sp/hard\libnosys.a(sbrk.o)
 .debug_frame   0x00007968       0x20 c:/arm_gcc/bin/../lib/gcc/arm-none-eabi/6.3.1/../../../../arm-none-eabi/lib/thumb/v7e-m/fpv4-sp/hard\libnosys.a(_exit.o)
