Archive member included to satisfy reference by file (symbol)

external/rtt/librtt_nrf52832_xxAA.a(SEGGER_RTT.c.obj)
                              examples/pb_remote/server/CMakeFiles/pb_remote_server_nrf52832_xxAA_s132_6.0.0.dir/__/__/__/mesh/core/src/log.c.obj (SEGGER_RTT_Write)
external/rtt/librtt_nrf52832_xxAA.a(SEGGER_RTT_printf.c.obj)
                              examples/pb_remote/server/CMakeFiles/pb_remote_server_nrf52832_xxAA_s132_6.0.0.dir/__/__/__/mesh/core/src/log.c.obj (SEGGER_RTT_vprintf)
external/micro-ecc/libuECC_nrf52832_xxAA.a(uECC.c.obj)
                              examples/pb_remote/server/CMakeFiles/pb_remote_server_nrf52832_xxAA_s132_6.0.0.dir/__/__/__/mesh/prov/src/prov_utils.c.obj (uECC_secp256r1)
c:/mesh/arm_gcc/bin/../lib/gcc/arm-none-eabi/6.3.1/thumb/v7e-m/fpv4-sp/hard\libgcc.a(_aeabi_uldivmod.o)
                              examples/pb_remote/server/CMakeFiles/pb_remote_server_nrf52832_xxAA_s132_6.0.0.dir/__/__/common/src/simple_hal.c.obj (__aeabi_uldivmod)
c:/mesh/arm_gcc/bin/../lib/gcc/arm-none-eabi/6.3.1/thumb/v7e-m/fpv4-sp/hard\libgcc.a(_udivmoddi4.o)
                              c:/mesh/arm_gcc/bin/../lib/gcc/arm-none-eabi/6.3.1/thumb/v7e-m/fpv4-sp/hard\libgcc.a(_aeabi_uldivmod.o) (__udivmoddi4)
c:/mesh/arm_gcc/bin/../lib/gcc/arm-none-eabi/6.3.1/thumb/v7e-m/fpv4-sp/hard\libgcc.a(_dvmd_tls.o)
                              c:/mesh/arm_gcc/bin/../lib/gcc/arm-none-eabi/6.3.1/thumb/v7e-m/fpv4-sp/hard\libgcc.a(_aeabi_uldivmod.o) (__aeabi_ldiv0)
c:/mesh/arm_gcc/bin/../lib/gcc/arm-none-eabi/6.3.1/../../../../arm-none-eabi/lib/thumb/v7e-m/fpv4-sp/hard\libg_nano.a(lib_a-exit.o)
                              c:/mesh/arm_gcc/bin/../lib/gcc/arm-none-eabi/6.3.1/../../../../arm-none-eabi/lib/thumb/v7e-m/fpv4-sp/hard/crt0.o (exit)
c:/mesh/arm_gcc/bin/../lib/gcc/arm-none-eabi/6.3.1/../../../../arm-none-eabi/lib/thumb/v7e-m/fpv4-sp/hard\libg_nano.a(lib_a-impure.o)
                              c:/mesh/arm_gcc/bin/../lib/gcc/arm-none-eabi/6.3.1/../../../../arm-none-eabi/lib/thumb/v7e-m/fpv4-sp/hard\libg_nano.a(lib_a-exit.o) (_global_impure_ptr)
c:/mesh/arm_gcc/bin/../lib/gcc/arm-none-eabi/6.3.1/../../../../arm-none-eabi/lib/thumb/v7e-m/fpv4-sp/hard\libg_nano.a(lib_a-init.o)
                              c:/mesh/arm_gcc/bin/../lib/gcc/arm-none-eabi/6.3.1/../../../../arm-none-eabi/lib/thumb/v7e-m/fpv4-sp/hard/crt0.o (__libc_init_array)
c:/mesh/arm_gcc/bin/../lib/gcc/arm-none-eabi/6.3.1/../../../../arm-none-eabi/lib/thumb/v7e-m/fpv4-sp/hard\libg_nano.a(lib_a-malloc.o)
                              examples/pb_remote/server/CMakeFiles/pb_remote_server_nrf52832_xxAA_s132_6.0.0.dir/__/__/__/mesh/core/src/transport.c.obj (malloc)
c:/mesh/arm_gcc/bin/../lib/gcc/arm-none-eabi/6.3.1/../../../../arm-none-eabi/lib/thumb/v7e-m/fpv4-sp/hard\libg_nano.a(lib_a-memcmp.o)
                              examples/pb_remote/server/CMakeFiles/pb_remote_server_nrf52832_xxAA_s132_6.0.0.dir/__/__/__/mesh/core/src/cache.c.obj (memcmp)
c:/mesh/arm_gcc/bin/../lib/gcc/arm-none-eabi/6.3.1/../../../../arm-none-eabi/lib/thumb/v7e-m/fpv4-sp/hard\libg_nano.a(lib_a-memcpy-stub.o)
                              examples/pb_remote/server/CMakeFiles/pb_remote_server_nrf52832_xxAA_s132_6.0.0.dir/__/__/__/mesh/core/src/nrf_mesh_configure.c.obj (memcpy)
c:/mesh/arm_gcc/bin/../lib/gcc/arm-none-eabi/6.3.1/../../../../arm-none-eabi/lib/thumb/v7e-m/fpv4-sp/hard\libg_nano.a(lib_a-memset.o)
                              c:/mesh/arm_gcc/bin/../lib/gcc/arm-none-eabi/6.3.1/../../../../arm-none-eabi/lib/thumb/v7e-m/fpv4-sp/hard/crt0.o (memset)
c:/mesh/arm_gcc/bin/../lib/gcc/arm-none-eabi/6.3.1/../../../../arm-none-eabi/lib/thumb/v7e-m/fpv4-sp/hard\libg_nano.a(lib_a-nano-freer.o)
                              c:/mesh/arm_gcc/bin/../lib/gcc/arm-none-eabi/6.3.1/../../../../arm-none-eabi/lib/thumb/v7e-m/fpv4-sp/hard\libg_nano.a(lib_a-malloc.o) (_free_r)
c:/mesh/arm_gcc/bin/../lib/gcc/arm-none-eabi/6.3.1/../../../../arm-none-eabi/lib/thumb/v7e-m/fpv4-sp/hard\libg_nano.a(lib_a-nano-mallocr.o)
                              c:/mesh/arm_gcc/bin/../lib/gcc/arm-none-eabi/6.3.1/../../../../arm-none-eabi/lib/thumb/v7e-m/fpv4-sp/hard\libg_nano.a(lib_a-malloc.o) (_malloc_r)
c:/mesh/arm_gcc/bin/../lib/gcc/arm-none-eabi/6.3.1/../../../../arm-none-eabi/lib/thumb/v7e-m/fpv4-sp/hard\libg_nano.a(lib_a-sbrkr.o)
                              c:/mesh/arm_gcc/bin/../lib/gcc/arm-none-eabi/6.3.1/../../../../arm-none-eabi/lib/thumb/v7e-m/fpv4-sp/hard\libg_nano.a(lib_a-nano-mallocr.o) (_sbrk_r)
c:/mesh/arm_gcc/bin/../lib/gcc/arm-none-eabi/6.3.1/../../../../arm-none-eabi/lib/thumb/v7e-m/fpv4-sp/hard\libg_nano.a(lib_a-strcpy.o)
                              external/rtt/librtt_nrf52832_xxAA.a(SEGGER_RTT.c.obj) (strcpy)
c:/mesh/arm_gcc/bin/../lib/gcc/arm-none-eabi/6.3.1/../../../../arm-none-eabi/lib/thumb/v7e-m/fpv4-sp/hard\libg_nano.a(lib_a-strlen.o)
                              examples/pb_remote/server/CMakeFiles/pb_remote_server_nrf52832_xxAA_s132_6.0.0.dir/__/__/__/mesh/prov/src/prov_beacon.c.obj (strlen)
c:/mesh/arm_gcc/bin/../lib/gcc/arm-none-eabi/6.3.1/../../../../arm-none-eabi/lib/thumb/v7e-m/fpv4-sp/hard\libg_nano.a(lib_a-strrchr.o)
                              examples/pb_remote/server/CMakeFiles/pb_remote_server_nrf52832_xxAA_s132_6.0.0.dir/src/main.c.obj (strrchr)
c:/mesh/arm_gcc/bin/../lib/gcc/arm-none-eabi/6.3.1/../../../../arm-none-eabi/lib/thumb/v7e-m/fpv4-sp/hard\libg_nano.a(lib_a-mlock.o)
                              c:/mesh/arm_gcc/bin/../lib/gcc/arm-none-eabi/6.3.1/../../../../arm-none-eabi/lib/thumb/v7e-m/fpv4-sp/hard\libg_nano.a(lib_a-nano-freer.o) (__malloc_lock)
c:/mesh/arm_gcc/bin/../lib/gcc/arm-none-eabi/6.3.1/../../../../arm-none-eabi/lib/thumb/v7e-m/fpv4-sp/hard\libg_nano.a(lib_a-reent.o)
                              c:/mesh/arm_gcc/bin/../lib/gcc/arm-none-eabi/6.3.1/../../../../arm-none-eabi/lib/thumb/v7e-m/fpv4-sp/hard\libg_nano.a(lib_a-sbrkr.o) (errno)
c:/mesh/arm_gcc/bin/../lib/gcc/arm-none-eabi/6.3.1/../../../../arm-none-eabi/lib/thumb/v7e-m/fpv4-sp/hard\libg_nano.a(lib_a-strchr.o)
                              c:/mesh/arm_gcc/bin/../lib/gcc/arm-none-eabi/6.3.1/../../../../arm-none-eabi/lib/thumb/v7e-m/fpv4-sp/hard\libg_nano.a(lib_a-strrchr.o) (strchr)
c:/mesh/arm_gcc/bin/../lib/gcc/arm-none-eabi/6.3.1/../../../../arm-none-eabi/lib/thumb/v7e-m/fpv4-sp/hard\libnosys.a(sbrk.o)
                              c:/mesh/arm_gcc/bin/../lib/gcc/arm-none-eabi/6.3.1/../../../../arm-none-eabi/lib/thumb/v7e-m/fpv4-sp/hard\libg_nano.a(lib_a-sbrkr.o) (_sbrk)
c:/mesh/arm_gcc/bin/../lib/gcc/arm-none-eabi/6.3.1/../../../../arm-none-eabi/lib/thumb/v7e-m/fpv4-sp/hard\libnosys.a(_exit.o)
                              c:/mesh/arm_gcc/bin/../lib/gcc/arm-none-eabi/6.3.1/../../../../arm-none-eabi/lib/thumb/v7e-m/fpv4-sp/hard\libg_nano.a(lib_a-exit.o) (_exit)

Allocating common symbols
Common symbol       size              file

nrf_nvic_state      0xc               examples/pb_remote/server/CMakeFiles/pb_remote_server_nrf52832_xxAA_s132_6.0.0.dir/C_/b/nRF5_SDK_15.0.0_a53641a/components/libraries/util/app_util_platform.c.obj
m_packet            0x24              examples/pb_remote/server/CMakeFiles/pb_remote_server_nrf52832_xxAA_s132_6.0.0.dir/__/__/__/mesh/core/src/core_tx.c.obj
errno               0x4               c:/mesh/arm_gcc/bin/../lib/gcc/arm-none-eabi/6.3.1/../../../../arm-none-eabi/lib/thumb/v7e-m/fpv4-sp/hard\libg_nano.a(lib_a-reent.o)
_SEGGER_RTT         0x78              external/rtt/librtt_nrf52832_xxAA.a(SEGGER_RTT.c.obj)

Discarded input sections

 .text          0x00000000        0x0 c:/mesh/arm_gcc/bin/../lib/gcc/arm-none-eabi/6.3.1/thumb/v7e-m/fpv4-sp/hard/crti.o
 .data          0x00000000        0x0 c:/mesh/arm_gcc/bin/../lib/gcc/arm-none-eabi/6.3.1/thumb/v7e-m/fpv4-sp/hard/crti.o
 .bss           0x00000000        0x0 c:/mesh/arm_gcc/bin/../lib/gcc/arm-none-eabi/6.3.1/thumb/v7e-m/fpv4-sp/hard/crti.o
 .data          0x00000000        0x4 c:/mesh/arm_gcc/bin/../lib/gcc/arm-none-eabi/6.3.1/thumb/v7e-m/fpv4-sp/hard/crtbegin.o
 .data          0x00000000        0x0 c:/mesh/arm_gcc/bin/../lib/gcc/arm-none-eabi/6.3.1/../../../../arm-none-eabi/lib/thumb/v7e-m/fpv4-sp/hard/crt0.o
 .bss           0x00000000        0x0 c:/mesh/arm_gcc/bin/../lib/gcc/arm-none-eabi/6.3.1/../../../../arm-none-eabi/lib/thumb/v7e-m/fpv4-sp/hard/crt0.o
 .ARM.extab     0x00000000        0x0 c:/mesh/arm_gcc/bin/../lib/gcc/arm-none-eabi/6.3.1/../../../../arm-none-eabi/lib/thumb/v7e-m/fpv4-sp/hard/crt0.o
 .text          0x00000000        0x0 examples/pb_remote/server/CMakeFiles/pb_remote_server_nrf52832_xxAA_s132_6.0.0.dir/src/main.c.obj
 .data          0x00000000        0x0 examples/pb_remote/server/CMakeFiles/pb_remote_server_nrf52832_xxAA_s132_6.0.0.dir/src/main.c.obj
 .bss           0x00000000        0x0 examples/pb_remote/server/CMakeFiles/pb_remote_server_nrf52832_xxAA_s132_6.0.0.dir/src/main.c.obj
 .text          0x00000000        0x0 examples/pb_remote/server/CMakeFiles/pb_remote_server_nrf52832_xxAA_s132_6.0.0.dir/__/__/__/mesh/stack/src/mesh_stack.c.obj
 .data          0x00000000        0x0 examples/pb_remote/server/CMakeFiles/pb_remote_server_nrf52832_xxAA_s132_6.0.0.dir/__/__/__/mesh/stack/src/mesh_stack.c.obj
 .bss           0x00000000        0x0 examples/pb_remote/server/CMakeFiles/pb_remote_server_nrf52832_xxAA_s132_6.0.0.dir/__/__/__/mesh/stack/src/mesh_stack.c.obj
 .text.mesh_evt_handler
                0x00000000        0xe examples/pb_remote/server/CMakeFiles/pb_remote_server_nrf52832_xxAA_s132_6.0.0.dir/__/__/__/mesh/stack/src/mesh_stack.c.obj
 .text.mesh_stack_device_reset
                0x00000000       0x20 examples/pb_remote/server/CMakeFiles/pb_remote_server_nrf52832_xxAA_s132_6.0.0.dir/__/__/__/mesh/stack/src/mesh_stack.c.obj
 .data.s_evt_handler.11064
                0x00000000        0xc examples/pb_remote/server/CMakeFiles/pb_remote_server_nrf52832_xxAA_s132_6.0.0.dir/__/__/__/mesh/stack/src/mesh_stack.c.obj
 .text          0x00000000        0x0 examples/pb_remote/server/CMakeFiles/pb_remote_server_nrf52832_xxAA_s132_6.0.0.dir/__/__/common/src/mesh_softdevice_init.c.obj
 .data          0x00000000        0x0 examples/pb_remote/server/CMakeFiles/pb_remote_server_nrf52832_xxAA_s132_6.0.0.dir/__/__/common/src/mesh_softdevice_init.c.obj
 .bss           0x00000000        0x0 examples/pb_remote/server/CMakeFiles/pb_remote_server_nrf52832_xxAA_s132_6.0.0.dir/__/__/common/src/mesh_softdevice_init.c.obj
 .text          0x00000000        0x0 examples/pb_remote/server/CMakeFiles/pb_remote_server_nrf52832_xxAA_s132_6.0.0.dir/__/__/common/src/mesh_provisionee.c.obj
 .data          0x00000000        0x0 examples/pb_remote/server/CMakeFiles/pb_remote_server_nrf52832_xxAA_s132_6.0.0.dir/__/__/common/src/mesh_provisionee.c.obj
 .bss           0x00000000        0x0 examples/pb_remote/server/CMakeFiles/pb_remote_server_nrf52832_xxAA_s132_6.0.0.dir/__/__/common/src/mesh_provisionee.c.obj
 .text          0x00000000        0x0 examples/pb_remote/server/CMakeFiles/pb_remote_server_nrf52832_xxAA_s132_6.0.0.dir/__/__/common/src/simple_hal.c.obj
 .data          0x00000000        0x0 examples/pb_remote/server/CMakeFiles/pb_remote_server_nrf52832_xxAA_s132_6.0.0.dir/__/__/common/src/simple_hal.c.obj
 .bss           0x00000000        0x0 examples/pb_remote/server/CMakeFiles/pb_remote_server_nrf52832_xxAA_s132_6.0.0.dir/__/__/common/src/simple_hal.c.obj
 .text.hal_led_pin_get
                0x00000000       0x18 examples/pb_remote/server/CMakeFiles/pb_remote_server_nrf52832_xxAA_s132_6.0.0.dir/__/__/common/src/simple_hal.c.obj
 .text.hal_led_pin_set
                0x00000000       0x16 examples/pb_remote/server/CMakeFiles/pb_remote_server_nrf52832_xxAA_s132_6.0.0.dir/__/__/common/src/simple_hal.c.obj
 .text.hal_buttons_init
                0x00000000       0x50 examples/pb_remote/server/CMakeFiles/pb_remote_server_nrf52832_xxAA_s132_6.0.0.dir/__/__/common/src/simple_hal.c.obj
 .text          0x00000000        0x0 examples/pb_remote/server/CMakeFiles/pb_remote_server_nrf52832_xxAA_s132_6.0.0.dir/__/__/nrf_mesh_weak.c.obj
 .data          0x00000000        0x0 examples/pb_remote/server/CMakeFiles/pb_remote_server_nrf52832_xxAA_s132_6.0.0.dir/__/__/nrf_mesh_weak.c.obj
 .bss           0x00000000        0x0 examples/pb_remote/server/CMakeFiles/pb_remote_server_nrf52832_xxAA_s132_6.0.0.dir/__/__/nrf_mesh_weak.c.obj
 .text._weak_handler_ptr
                0x00000000        0x4 examples/pb_remote/server/CMakeFiles/pb_remote_server_nrf52832_xxAA_s132_6.0.0.dir/__/__/nrf_mesh_weak.c.obj
 .text          0x00000000        0x0 examples/pb_remote/server/CMakeFiles/pb_remote_server_nrf52832_xxAA_s132_6.0.0.dir/__/__/common/src/app_error_weak.c.obj
 .data          0x00000000        0x0 examples/pb_remote/server/CMakeFiles/pb_remote_server_nrf52832_xxAA_s132_6.0.0.dir/__/__/common/src/app_error_weak.c.obj
 .bss           0x00000000        0x0 examples/pb_remote/server/CMakeFiles/pb_remote_server_nrf52832_xxAA_s132_6.0.0.dir/__/__/common/src/app_error_weak.c.obj
 .text          0x00000000        0x0 examples/pb_remote/server/CMakeFiles/pb_remote_server_nrf52832_xxAA_s132_6.0.0.dir/__/__/common/src/assertion_handler_weak.c.obj
 .data          0x00000000        0x0 examples/pb_remote/server/CMakeFiles/pb_remote_server_nrf52832_xxAA_s132_6.0.0.dir/__/__/common/src/assertion_handler_weak.c.obj
 .bss           0x00000000        0x0 examples/pb_remote/server/CMakeFiles/pb_remote_server_nrf52832_xxAA_s132_6.0.0.dir/__/__/common/src/assertion_handler_weak.c.obj
 .text          0x00000000        0x0 examples/pb_remote/server/CMakeFiles/pb_remote_server_nrf52832_xxAA_s132_6.0.0.dir/__/__/__/mesh/core/src/internal_event.c.obj
 .data          0x00000000        0x0 examples/pb_remote/server/CMakeFiles/pb_remote_server_nrf52832_xxAA_s132_6.0.0.dir/__/__/__/mesh/core/src/internal_event.c.obj
 .bss           0x00000000        0x0 examples/pb_remote/server/CMakeFiles/pb_remote_server_nrf52832_xxAA_s132_6.0.0.dir/__/__/__/mesh/core/src/internal_event.c.obj
 .debug_info    0x00000000      0x8f2 examples/pb_remote/server/CMakeFiles/pb_remote_server_nrf52832_xxAA_s132_6.0.0.dir/__/__/__/mesh/core/src/internal_event.c.obj
 .debug_abbrev  0x00000000      0x192 examples/pb_remote/server/CMakeFiles/pb_remote_server_nrf52832_xxAA_s132_6.0.0.dir/__/__/__/mesh/core/src/internal_event.c.obj
 .debug_aranges
                0x00000000       0x18 examples/pb_remote/server/CMakeFiles/pb_remote_server_nrf52832_xxAA_s132_6.0.0.dir/__/__/__/mesh/core/src/internal_event.c.obj
 .debug_line    0x00000000      0x1a3 examples/pb_remote/server/CMakeFiles/pb_remote_server_nrf52832_xxAA_s132_6.0.0.dir/__/__/__/mesh/core/src/internal_event.c.obj
 .debug_str     0x00000000      0x602 examples/pb_remote/server/CMakeFiles/pb_remote_server_nrf52832_xxAA_s132_6.0.0.dir/__/__/__/mesh/core/src/internal_event.c.obj
 .comment       0x00000000       0x80 examples/pb_remote/server/CMakeFiles/pb_remote_server_nrf52832_xxAA_s132_6.0.0.dir/__/__/__/mesh/core/src/internal_event.c.obj
 .ARM.attributes
                0x00000000       0x39 examples/pb_remote/server/CMakeFiles/pb_remote_server_nrf52832_xxAA_s132_6.0.0.dir/__/__/__/mesh/core/src/internal_event.c.obj
 .text          0x00000000        0x0 examples/pb_remote/server/CMakeFiles/pb_remote_server_nrf52832_xxAA_s132_6.0.0.dir/__/__/__/mesh/core/src/nrf_mesh_configure.c.obj
 .data          0x00000000        0x0 examples/pb_remote/server/CMakeFiles/pb_remote_server_nrf52832_xxAA_s132_6.0.0.dir/__/__/__/mesh/core/src/nrf_mesh_configure.c.obj
 .bss           0x00000000        0x0 examples/pb_remote/server/CMakeFiles/pb_remote_server_nrf52832_xxAA_s132_6.0.0.dir/__/__/__/mesh/core/src/nrf_mesh_configure.c.obj
 .text          0x00000000        0x0 examples/pb_remote/server/CMakeFiles/pb_remote_server_nrf52832_xxAA_s132_6.0.0.dir/__/__/__/mesh/core/src/aes.c.obj
 .data          0x00000000        0x0 examples/pb_remote/server/CMakeFiles/pb_remote_server_nrf52832_xxAA_s132_6.0.0.dir/__/__/__/mesh/core/src/aes.c.obj
 .bss           0x00000000        0x0 examples/pb_remote/server/CMakeFiles/pb_remote_server_nrf52832_xxAA_s132_6.0.0.dir/__/__/__/mesh/core/src/aes.c.obj
 .debug_info    0x00000000       0xb3 examples/pb_remote/server/CMakeFiles/pb_remote_server_nrf52832_xxAA_s132_6.0.0.dir/__/__/__/mesh/core/src/aes.c.obj
 .debug_abbrev  0x00000000       0x5c examples/pb_remote/server/CMakeFiles/pb_remote_server_nrf52832_xxAA_s132_6.0.0.dir/__/__/__/mesh/core/src/aes.c.obj
 .debug_aranges
                0x00000000       0x18 examples/pb_remote/server/CMakeFiles/pb_remote_server_nrf52832_xxAA_s132_6.0.0.dir/__/__/__/mesh/core/src/aes.c.obj
 .debug_line    0x00000000      0x124 examples/pb_remote/server/CMakeFiles/pb_remote_server_nrf52832_xxAA_s132_6.0.0.dir/__/__/__/mesh/core/src/aes.c.obj
 .debug_str     0x00000000      0x1f4 examples/pb_remote/server/CMakeFiles/pb_remote_server_nrf52832_xxAA_s132_6.0.0.dir/__/__/__/mesh/core/src/aes.c.obj
 .comment       0x00000000       0x80 examples/pb_remote/server/CMakeFiles/pb_remote_server_nrf52832_xxAA_s132_6.0.0.dir/__/__/__/mesh/core/src/aes.c.obj
 .ARM.attributes
                0x00000000       0x39 examples/pb_remote/server/CMakeFiles/pb_remote_server_nrf52832_xxAA_s132_6.0.0.dir/__/__/__/mesh/core/src/aes.c.obj
 .text          0x00000000        0x0 examples/pb_remote/server/CMakeFiles/pb_remote_server_nrf52832_xxAA_s132_6.0.0.dir/__/__/__/mesh/core/src/msg_cache.c.obj
 .data          0x00000000        0x0 examples/pb_remote/server/CMakeFiles/pb_remote_server_nrf52832_xxAA_s132_6.0.0.dir/__/__/__/mesh/core/src/msg_cache.c.obj
 .bss           0x00000000        0x0 examples/pb_remote/server/CMakeFiles/pb_remote_server_nrf52832_xxAA_s132_6.0.0.dir/__/__/__/mesh/core/src/msg_cache.c.obj
 .text.msg_cache_clear
                0x00000000       0x18 examples/pb_remote/server/CMakeFiles/pb_remote_server_nrf52832_xxAA_s132_6.0.0.dir/__/__/__/mesh/core/src/msg_cache.c.obj
 .text          0x00000000        0x0 examples/pb_remote/server/CMakeFiles/pb_remote_server_nrf52832_xxAA_s132_6.0.0.dir/__/__/__/mesh/core/src/transport.c.obj
 .data          0x00000000        0x0 examples/pb_remote/server/CMakeFiles/pb_remote_server_nrf52832_xxAA_s132_6.0.0.dir/__/__/__/mesh/core/src/transport.c.obj
 .bss           0x00000000        0x0 examples/pb_remote/server/CMakeFiles/pb_remote_server_nrf52832_xxAA_s132_6.0.0.dir/__/__/__/mesh/core/src/transport.c.obj
 .text.transport_sar_mem_funcs_set
                0x00000000       0x44 examples/pb_remote/server/CMakeFiles/pb_remote_server_nrf52832_xxAA_s132_6.0.0.dir/__/__/__/mesh/core/src/transport.c.obj
 .text          0x00000000        0x0 examples/pb_remote/server/CMakeFiles/pb_remote_server_nrf52832_xxAA_s132_6.0.0.dir/__/__/__/mesh/core/src/event.c.obj
 .data          0x00000000        0x0 examples/pb_remote/server/CMakeFiles/pb_remote_server_nrf52832_xxAA_s132_6.0.0.dir/__/__/__/mesh/core/src/event.c.obj
 .bss           0x00000000        0x0 examples/pb_remote/server/CMakeFiles/pb_remote_server_nrf52832_xxAA_s132_6.0.0.dir/__/__/__/mesh/core/src/event.c.obj
 .text          0x00000000        0x0 examples/pb_remote/server/CMakeFiles/pb_remote_server_nrf52832_xxAA_s132_6.0.0.dir/__/__/__/mesh/core/src/packet_buffer.c.obj
 .data          0x00000000        0x0 examples/pb_remote/server/CMakeFiles/pb_remote_server_nrf52832_xxAA_s132_6.0.0.dir/__/__/__/mesh/core/src/packet_buffer.c.obj
 .bss           0x00000000        0x0 examples/pb_remote/server/CMakeFiles/pb_remote_server_nrf52832_xxAA_s132_6.0.0.dir/__/__/__/mesh/core/src/packet_buffer.c.obj
 .text.packet_buffer_max_packet_len_get
                0x00000000       0x20 examples/pb_remote/server/CMakeFiles/pb_remote_server_nrf52832_xxAA_s132_6.0.0.dir/__/__/__/mesh/core/src/packet_buffer.c.obj
 .text          0x00000000        0x0 examples/pb_remote/server/CMakeFiles/pb_remote_server_nrf52832_xxAA_s132_6.0.0.dir/__/__/__/mesh/core/src/flash_manager_defrag.c.obj
 .data          0x00000000        0x0 examples/pb_remote/server/CMakeFiles/pb_remote_server_nrf52832_xxAA_s132_6.0.0.dir/__/__/__/mesh/core/src/flash_manager_defrag.c.obj
 .bss           0x00000000        0x0 examples/pb_remote/server/CMakeFiles/pb_remote_server_nrf52832_xxAA_s132_6.0.0.dir/__/__/__/mesh/core/src/flash_manager_defrag.c.obj
 .text.flash_manager_defragging
                0x00000000       0x38 examples/pb_remote/server/CMakeFiles/pb_remote_server_nrf52832_xxAA_s132_6.0.0.dir/__/__/__/mesh/core/src/flash_manager_defrag.c.obj
 .text          0x00000000        0x0 examples/pb_remote/server/CMakeFiles/pb_remote_server_nrf52832_xxAA_s132_6.0.0.dir/__/__/__/mesh/core/src/fifo.c.obj
 .data          0x00000000        0x0 examples/pb_remote/server/CMakeFiles/pb_remote_server_nrf52832_xxAA_s132_6.0.0.dir/__/__/__/mesh/core/src/fifo.c.obj
 .bss           0x00000000        0x0 examples/pb_remote/server/CMakeFiles/pb_remote_server_nrf52832_xxAA_s132_6.0.0.dir/__/__/__/mesh/core/src/fifo.c.obj
 .text.fifo_peek_at
                0x00000000       0x50 examples/pb_remote/server/CMakeFiles/pb_remote_server_nrf52832_xxAA_s132_6.0.0.dir/__/__/__/mesh/core/src/fifo.c.obj
 .text.fifo_peek
                0x00000000        0x6 examples/pb_remote/server/CMakeFiles/pb_remote_server_nrf52832_xxAA_s132_6.0.0.dir/__/__/__/mesh/core/src/fifo.c.obj
 .text.fifo_is_full
                0x00000000       0x10 examples/pb_remote/server/CMakeFiles/pb_remote_server_nrf52832_xxAA_s132_6.0.0.dir/__/__/__/mesh/core/src/fifo.c.obj
 .text.fifo_is_empty
                0x00000000        0xc examples/pb_remote/server/CMakeFiles/pb_remote_server_nrf52832_xxAA_s132_6.0.0.dir/__/__/__/mesh/core/src/fifo.c.obj
 .text          0x00000000        0x0 examples/pb_remote/server/CMakeFiles/pb_remote_server_nrf52832_xxAA_s132_6.0.0.dir/__/__/__/mesh/core/src/nrf_flash.c.obj
 .data          0x00000000        0x0 examples/pb_remote/server/CMakeFiles/pb_remote_server_nrf52832_xxAA_s132_6.0.0.dir/__/__/__/mesh/core/src/nrf_flash.c.obj
 .bss           0x00000000        0x0 examples/pb_remote/server/CMakeFiles/pb_remote_server_nrf52832_xxAA_s132_6.0.0.dir/__/__/__/mesh/core/src/nrf_flash.c.obj
 .text          0x00000000        0x0 examples/pb_remote/server/CMakeFiles/pb_remote_server_nrf52832_xxAA_s132_6.0.0.dir/__/__/__/mesh/core/src/packet_mgr.c.obj
 .data          0x00000000        0x0 examples/pb_remote/server/CMakeFiles/pb_remote_server_nrf52832_xxAA_s132_6.0.0.dir/__/__/__/mesh/core/src/packet_mgr.c.obj
 .bss           0x00000000        0x0 examples/pb_remote/server/CMakeFiles/pb_remote_server_nrf52832_xxAA_s132_6.0.0.dir/__/__/__/mesh/core/src/packet_mgr.c.obj
 .text.packet_mgr_alloc
                0x00000000      0x17c examples/pb_remote/server/CMakeFiles/pb_remote_server_nrf52832_xxAA_s132_6.0.0.dir/__/__/__/mesh/core/src/packet_mgr.c.obj
 .text.packet_mgr_free
                0x00000000       0x58 examples/pb_remote/server/CMakeFiles/pb_remote_server_nrf52832_xxAA_s132_6.0.0.dir/__/__/__/mesh/core/src/packet_mgr.c.obj
 .text.packet_mgr_get_free_space
                0x00000000       0x1c examples/pb_remote/server/CMakeFiles/pb_remote_server_nrf52832_xxAA_s132_6.0.0.dir/__/__/__/mesh/core/src/packet_mgr.c.obj
 .text.packet_mgr_refcount_get
                0x00000000        0x6 examples/pb_remote/server/CMakeFiles/pb_remote_server_nrf52832_xxAA_s132_6.0.0.dir/__/__/__/mesh/core/src/packet_mgr.c.obj
 .text.packet_mgr_size_get
                0x00000000        0x6 examples/pb_remote/server/CMakeFiles/pb_remote_server_nrf52832_xxAA_s132_6.0.0.dir/__/__/__/mesh/core/src/packet_mgr.c.obj
 .text          0x00000000        0x0 examples/pb_remote/server/CMakeFiles/pb_remote_server_nrf52832_xxAA_s132_6.0.0.dir/__/__/__/mesh/core/src/net_state.c.obj
 .data          0x00000000        0x0 examples/pb_remote/server/CMakeFiles/pb_remote_server_nrf52832_xxAA_s132_6.0.0.dir/__/__/__/mesh/core/src/net_state.c.obj
 .bss           0x00000000        0x0 examples/pb_remote/server/CMakeFiles/pb_remote_server_nrf52832_xxAA_s132_6.0.0.dir/__/__/__/mesh/core/src/net_state.c.obj
 .text.net_state_iv_update_test_mode_set
                0x00000000        0xc examples/pb_remote/server/CMakeFiles/pb_remote_server_nrf52832_xxAA_s132_6.0.0.dir/__/__/__/mesh/core/src/net_state.c.obj
 .text.net_state_test_mode_transition_run
                0x00000000       0x2c examples/pb_remote/server/CMakeFiles/pb_remote_server_nrf52832_xxAA_s132_6.0.0.dir/__/__/__/mesh/core/src/net_state.c.obj
 .text          0x00000000        0x0 examples/pb_remote/server/CMakeFiles/pb_remote_server_nrf52832_xxAA_s132_6.0.0.dir/__/__/__/mesh/core/src/mesh_flash.c.obj
 .data          0x00000000        0x0 examples/pb_remote/server/CMakeFiles/pb_remote_server_nrf52832_xxAA_s132_6.0.0.dir/__/__/__/mesh/core/src/mesh_flash.c.obj
 .bss           0x00000000        0x0 examples/pb_remote/server/CMakeFiles/pb_remote_server_nrf52832_xxAA_s132_6.0.0.dir/__/__/__/mesh/core/src/mesh_flash.c.obj
 .text.mesh_flash_op_available_slots
                0x00000000       0x2c examples/pb_remote/server/CMakeFiles/pb_remote_server_nrf52832_xxAA_s132_6.0.0.dir/__/__/__/mesh/core/src/mesh_flash.c.obj
 .text.mesh_flash_in_progress
                0x00000000       0x34 examples/pb_remote/server/CMakeFiles/pb_remote_server_nrf52832_xxAA_s132_6.0.0.dir/__/__/__/mesh/core/src/mesh_flash.c.obj
 .text.mesh_flash_set_suspended
                0x00000000       0x74 examples/pb_remote/server/CMakeFiles/pb_remote_server_nrf52832_xxAA_s132_6.0.0.dir/__/__/__/mesh/core/src/mesh_flash.c.obj
 .bss.suspend_count.10128
                0x00000000        0x4 examples/pb_remote/server/CMakeFiles/pb_remote_server_nrf52832_xxAA_s132_6.0.0.dir/__/__/__/mesh/core/src/mesh_flash.c.obj
 .text          0x00000000        0x0 examples/pb_remote/server/CMakeFiles/pb_remote_server_nrf52832_xxAA_s132_6.0.0.dir/__/__/__/mesh/core/src/nrf_mesh_utils.c.obj
 .data          0x00000000        0x0 examples/pb_remote/server/CMakeFiles/pb_remote_server_nrf52832_xxAA_s132_6.0.0.dir/__/__/__/mesh/core/src/nrf_mesh_utils.c.obj
 .bss           0x00000000        0x0 examples/pb_remote/server/CMakeFiles/pb_remote_server_nrf52832_xxAA_s132_6.0.0.dir/__/__/__/mesh/core/src/nrf_mesh_utils.c.obj
 .text.nrf_mesh_rand_get
                0x00000000       0x10 examples/pb_remote/server/CMakeFiles/pb_remote_server_nrf52832_xxAA_s132_6.0.0.dir/__/__/__/mesh/core/src/nrf_mesh_utils.c.obj
 .text.nrf_mesh_gap_address_type_get
                0x00000000       0x30 examples/pb_remote/server/CMakeFiles/pb_remote_server_nrf52832_xxAA_s132_6.0.0.dir/__/__/__/mesh/core/src/nrf_mesh_utils.c.obj
 .text          0x00000000        0x0 examples/pb_remote/server/CMakeFiles/pb_remote_server_nrf52832_xxAA_s132_6.0.0.dir/__/__/__/mesh/core/src/nrf_mesh.c.obj
 .data          0x00000000        0x0 examples/pb_remote/server/CMakeFiles/pb_remote_server_nrf52832_xxAA_s132_6.0.0.dir/__/__/__/mesh/core/src/nrf_mesh.c.obj
 .bss           0x00000000        0x0 examples/pb_remote/server/CMakeFiles/pb_remote_server_nrf52832_xxAA_s132_6.0.0.dir/__/__/__/mesh/core/src/nrf_mesh.c.obj
 .text.nrf_mesh_disable
                0x00000000       0x28 examples/pb_remote/server/CMakeFiles/pb_remote_server_nrf52832_xxAA_s132_6.0.0.dir/__/__/__/mesh/core/src/nrf_mesh.c.obj
 .text.nrf_mesh_process
                0x00000000        0x4 examples/pb_remote/server/CMakeFiles/pb_remote_server_nrf52832_xxAA_s132_6.0.0.dir/__/__/__/mesh/core/src/nrf_mesh.c.obj
 .text.nrf_mesh_evt_handler_remove
                0x00000000        0x4 examples/pb_remote/server/CMakeFiles/pb_remote_server_nrf52832_xxAA_s132_6.0.0.dir/__/__/__/mesh/core/src/nrf_mesh.c.obj
 .text.nrf_mesh_rx_cb_set
                0x00000000        0xc examples/pb_remote/server/CMakeFiles/pb_remote_server_nrf52832_xxAA_s132_6.0.0.dir/__/__/__/mesh/core/src/nrf_mesh.c.obj
 .text.nrf_mesh_rx_cb_clear
                0x00000000        0xc examples/pb_remote/server/CMakeFiles/pb_remote_server_nrf52832_xxAA_s132_6.0.0.dir/__/__/__/mesh/core/src/nrf_mesh.c.obj
 .text          0x00000000        0x0 examples/pb_remote/server/CMakeFiles/pb_remote_server_nrf52832_xxAA_s132_6.0.0.dir/__/__/__/mesh/core/src/queue.c.obj
 .data          0x00000000        0x0 examples/pb_remote/server/CMakeFiles/pb_remote_server_nrf52832_xxAA_s132_6.0.0.dir/__/__/__/mesh/core/src/queue.c.obj
 .bss           0x00000000        0x0 examples/pb_remote/server/CMakeFiles/pb_remote_server_nrf52832_xxAA_s132_6.0.0.dir/__/__/__/mesh/core/src/queue.c.obj
 .text          0x00000000        0x0 examples/pb_remote/server/CMakeFiles/pb_remote_server_nrf52832_xxAA_s132_6.0.0.dir/__/__/__/mesh/core/src/hal.c.obj
 .data          0x00000000        0x0 examples/pb_remote/server/CMakeFiles/pb_remote_server_nrf52832_xxAA_s132_6.0.0.dir/__/__/__/mesh/core/src/hal.c.obj
 .bss           0x00000000        0x0 examples/pb_remote/server/CMakeFiles/pb_remote_server_nrf52832_xxAA_s132_6.0.0.dir/__/__/__/mesh/core/src/hal.c.obj
 .text.sd_power_reset_reason_clr
                0x00000000        0x4 examples/pb_remote/server/CMakeFiles/pb_remote_server_nrf52832_xxAA_s132_6.0.0.dir/__/__/__/mesh/core/src/hal.c.obj
 .text.sd_power_gpregret_set
                0x00000000        0x4 examples/pb_remote/server/CMakeFiles/pb_remote_server_nrf52832_xxAA_s132_6.0.0.dir/__/__/__/mesh/core/src/hal.c.obj
 .text.hal_device_reset
                0x00000000       0x38 examples/pb_remote/server/CMakeFiles/pb_remote_server_nrf52832_xxAA_s132_6.0.0.dir/__/__/__/mesh/core/src/hal.c.obj
 .text          0x00000000        0x0 examples/pb_remote/server/CMakeFiles/pb_remote_server_nrf52832_xxAA_s132_6.0.0.dir/__/__/__/mesh/core/src/aes_cmac.c.obj
 .data          0x00000000        0x0 examples/pb_remote/server/CMakeFiles/pb_remote_server_nrf52832_xxAA_s132_6.0.0.dir/__/__/__/mesh/core/src/aes_cmac.c.obj
 .bss           0x00000000        0x0 examples/pb_remote/server/CMakeFiles/pb_remote_server_nrf52832_xxAA_s132_6.0.0.dir/__/__/__/mesh/core/src/aes_cmac.c.obj
 .text          0x00000000        0x0 examples/pb_remote/server/CMakeFiles/pb_remote_server_nrf52832_xxAA_s132_6.0.0.dir/__/__/__/mesh/core/src/timer_scheduler.c.obj
 .data          0x00000000        0x0 examples/pb_remote/server/CMakeFiles/pb_remote_server_nrf52832_xxAA_s132_6.0.0.dir/__/__/__/mesh/core/src/timer_scheduler.c.obj
 .bss           0x00000000        0x0 examples/pb_remote/server/CMakeFiles/pb_remote_server_nrf52832_xxAA_s132_6.0.0.dir/__/__/__/mesh/core/src/timer_scheduler.c.obj
 .text          0x00000000        0x0 examples/pb_remote/server/CMakeFiles/pb_remote_server_nrf52832_xxAA_s132_6.0.0.dir/__/__/__/mesh/core/src/timer.c.obj
 .data          0x00000000        0x0 examples/pb_remote/server/CMakeFiles/pb_remote_server_nrf52832_xxAA_s132_6.0.0.dir/__/__/__/mesh/core/src/timer.c.obj
 .bss           0x00000000        0x0 examples/pb_remote/server/CMakeFiles/pb_remote_server_nrf52832_xxAA_s132_6.0.0.dir/__/__/__/mesh/core/src/timer.c.obj
 .text.timer_order_cb_ppi
                0x00000000       0xc4 examples/pb_remote/server/CMakeFiles/pb_remote_server_nrf52832_xxAA_s132_6.0.0.dir/__/__/__/mesh/core/src/timer.c.obj
 .text.timer_order_ppi
                0x00000000       0xc0 examples/pb_remote/server/CMakeFiles/pb_remote_server_nrf52832_xxAA_s132_6.0.0.dir/__/__/__/mesh/core/src/timer.c.obj
 .text.timer_abort
                0x00000000       0x78 examples/pb_remote/server/CMakeFiles/pb_remote_server_nrf52832_xxAA_s132_6.0.0.dir/__/__/__/mesh/core/src/timer.c.obj
 .text          0x00000000        0x0 examples/pb_remote/server/CMakeFiles/pb_remote_server_nrf52832_xxAA_s132_6.0.0.dir/__/__/__/mesh/core/src/ticker.c.obj
 .data          0x00000000        0x0 examples/pb_remote/server/CMakeFiles/pb_remote_server_nrf52832_xxAA_s132_6.0.0.dir/__/__/__/mesh/core/src/ticker.c.obj
 .bss           0x00000000        0x0 examples/pb_remote/server/CMakeFiles/pb_remote_server_nrf52832_xxAA_s132_6.0.0.dir/__/__/__/mesh/core/src/ticker.c.obj
 .text.ticker_get
                0x00000000        0xc examples/pb_remote/server/CMakeFiles/pb_remote_server_nrf52832_xxAA_s132_6.0.0.dir/__/__/__/mesh/core/src/ticker.c.obj
 .text          0x00000000        0x0 examples/pb_remote/server/CMakeFiles/pb_remote_server_nrf52832_xxAA_s132_6.0.0.dir/__/__/__/mesh/core/src/rand.c.obj
 .data          0x00000000        0x0 examples/pb_remote/server/CMakeFiles/pb_remote_server_nrf52832_xxAA_s132_6.0.0.dir/__/__/__/mesh/core/src/rand.c.obj
 .bss           0x00000000        0x0 examples/pb_remote/server/CMakeFiles/pb_remote_server_nrf52832_xxAA_s132_6.0.0.dir/__/__/__/mesh/core/src/rand.c.obj
 .text          0x00000000        0x0 examples/pb_remote/server/CMakeFiles/pb_remote_server_nrf52832_xxAA_s132_6.0.0.dir/__/__/__/mesh/core/src/nrf_mesh_opt.c.obj
 .data          0x00000000        0x0 examples/pb_remote/server/CMakeFiles/pb_remote_server_nrf52832_xxAA_s132_6.0.0.dir/__/__/__/mesh/core/src/nrf_mesh_opt.c.obj
 .bss           0x00000000        0x0 examples/pb_remote/server/CMakeFiles/pb_remote_server_nrf52832_xxAA_s132_6.0.0.dir/__/__/__/mesh/core/src/nrf_mesh_opt.c.obj
 .text          0x00000000        0x0 examples/pb_remote/server/CMakeFiles/pb_remote_server_nrf52832_xxAA_s132_6.0.0.dir/__/__/__/mesh/core/src/timeslot.c.obj
 .data          0x00000000        0x0 examples/pb_remote/server/CMakeFiles/pb_remote_server_nrf52832_xxAA_s132_6.0.0.dir/__/__/__/mesh/core/src/timeslot.c.obj
 .bss           0x00000000        0x0 examples/pb_remote/server/CMakeFiles/pb_remote_server_nrf52832_xxAA_s132_6.0.0.dir/__/__/__/mesh/core/src/timeslot.c.obj
 .text.timeslot_end_time_get
                0x00000000       0x10 examples/pb_remote/server/CMakeFiles/pb_remote_server_nrf52832_xxAA_s132_6.0.0.dir/__/__/__/mesh/core/src/timeslot.c.obj
 .text.timeslot_is_in_ts
                0x00000000        0xc examples/pb_remote/server/CMakeFiles/pb_remote_server_nrf52832_xxAA_s132_6.0.0.dir/__/__/__/mesh/core/src/timeslot.c.obj
 .text.timeslot_restart
                0x00000000       0x10 examples/pb_remote/server/CMakeFiles/pb_remote_server_nrf52832_xxAA_s132_6.0.0.dir/__/__/__/mesh/core/src/timeslot.c.obj
 .text          0x00000000        0x0 examples/pb_remote/server/CMakeFiles/pb_remote_server_nrf52832_xxAA_s132_6.0.0.dir/__/__/__/mesh/core/src/bearer_event.c.obj
 .data          0x00000000        0x0 examples/pb_remote/server/CMakeFiles/pb_remote_server_nrf52832_xxAA_s132_6.0.0.dir/__/__/__/mesh/core/src/bearer_event.c.obj
 .bss           0x00000000        0x0 examples/pb_remote/server/CMakeFiles/pb_remote_server_nrf52832_xxAA_s132_6.0.0.dir/__/__/__/mesh/core/src/bearer_event.c.obj
 .text.bearer_event_generic_post
                0x00000000       0x24 examples/pb_remote/server/CMakeFiles/pb_remote_server_nrf52832_xxAA_s132_6.0.0.dir/__/__/__/mesh/core/src/bearer_event.c.obj
 .text.bearer_event_timer_sch_post
                0x00000000       0x26 examples/pb_remote/server/CMakeFiles/pb_remote_server_nrf52832_xxAA_s132_6.0.0.dir/__/__/__/mesh/core/src/bearer_event.c.obj
 .text.bearer_event_in_correct_irq_priority
                0x00000000       0x48 examples/pb_remote/server/CMakeFiles/pb_remote_server_nrf52832_xxAA_s132_6.0.0.dir/__/__/__/mesh/core/src/bearer_event.c.obj
 .text          0x00000000        0x0 examples/pb_remote/server/CMakeFiles/pb_remote_server_nrf52832_xxAA_s132_6.0.0.dir/__/__/__/mesh/core/src/enc.c.obj
 .data          0x00000000        0x0 examples/pb_remote/server/CMakeFiles/pb_remote_server_nrf52832_xxAA_s132_6.0.0.dir/__/__/__/mesh/core/src/enc.c.obj
 .bss           0x00000000        0x0 examples/pb_remote/server/CMakeFiles/pb_remote_server_nrf52832_xxAA_s132_6.0.0.dir/__/__/__/mesh/core/src/enc.c.obj
 .text.enc_key_generate
                0x00000000        0x6 examples/pb_remote/server/CMakeFiles/pb_remote_server_nrf52832_xxAA_s132_6.0.0.dir/__/__/__/mesh/core/src/enc.c.obj
 .text          0x00000000        0x0 examples/pb_remote/server/CMakeFiles/pb_remote_server_nrf52832_xxAA_s132_6.0.0.dir/__/__/__/mesh/core/src/network.c.obj
 .data          0x00000000        0x0 examples/pb_remote/server/CMakeFiles/pb_remote_server_nrf52832_xxAA_s132_6.0.0.dir/__/__/__/mesh/core/src/network.c.obj
 .bss           0x00000000        0x0 examples/pb_remote/server/CMakeFiles/pb_remote_server_nrf52832_xxAA_s132_6.0.0.dir/__/__/__/mesh/core/src/network.c.obj
 .text.network_packet_discard
                0x00000000       0x1e examples/pb_remote/server/CMakeFiles/pb_remote_server_nrf52832_xxAA_s132_6.0.0.dir/__/__/__/mesh/core/src/network.c.obj
 .text          0x00000000        0x0 examples/pb_remote/server/CMakeFiles/pb_remote_server_nrf52832_xxAA_s132_6.0.0.dir/__/__/__/mesh/core/src/net_packet.c.obj
 .data          0x00000000        0x0 examples/pb_remote/server/CMakeFiles/pb_remote_server_nrf52832_xxAA_s132_6.0.0.dir/__/__/__/mesh/core/src/net_packet.c.obj
 .bss           0x00000000        0x0 examples/pb_remote/server/CMakeFiles/pb_remote_server_nrf52832_xxAA_s132_6.0.0.dir/__/__/__/mesh/core/src/net_packet.c.obj
 .text.net_packet_enc_start_get
                0x00000000        0x4 examples/pb_remote/server/CMakeFiles/pb_remote_server_nrf52832_xxAA_s132_6.0.0.dir/__/__/__/mesh/core/src/net_packet.c.obj
 .text.net_packet_payload_get
                0x00000000        0x4 examples/pb_remote/server/CMakeFiles/pb_remote_server_nrf52832_xxAA_s132_6.0.0.dir/__/__/__/mesh/core/src/net_packet.c.obj
 .text          0x00000000        0x0 examples/pb_remote/server/CMakeFiles/pb_remote_server_nrf52832_xxAA_s132_6.0.0.dir/__/__/__/mesh/core/src/msqueue.c.obj
 .data          0x00000000        0x0 examples/pb_remote/server/CMakeFiles/pb_remote_server_nrf52832_xxAA_s132_6.0.0.dir/__/__/__/mesh/core/src/msqueue.c.obj
 .bss           0x00000000        0x0 examples/pb_remote/server/CMakeFiles/pb_remote_server_nrf52832_xxAA_s132_6.0.0.dir/__/__/__/mesh/core/src/msqueue.c.obj
 .text          0x00000000        0x0 examples/pb_remote/server/CMakeFiles/pb_remote_server_nrf52832_xxAA_s132_6.0.0.dir/__/__/__/mesh/core/src/nrf_mesh_keygen.c.obj
 .data          0x00000000        0x0 examples/pb_remote/server/CMakeFiles/pb_remote_server_nrf52832_xxAA_s132_6.0.0.dir/__/__/__/mesh/core/src/nrf_mesh_keygen.c.obj
 .bss           0x00000000        0x0 examples/pb_remote/server/CMakeFiles/pb_remote_server_nrf52832_xxAA_s132_6.0.0.dir/__/__/__/mesh/core/src/nrf_mesh_keygen.c.obj
 .text.nrf_mesh_keygen_identitykey
                0x00000000       0x4c examples/pb_remote/server/CMakeFiles/pb_remote_server_nrf52832_xxAA_s132_6.0.0.dir/__/__/__/mesh/core/src/nrf_mesh_keygen.c.obj
 .text          0x00000000        0x0 examples/pb_remote/server/CMakeFiles/pb_remote_server_nrf52832_xxAA_s132_6.0.0.dir/__/__/__/mesh/core/src/cache.c.obj
 .data          0x00000000        0x0 examples/pb_remote/server/CMakeFiles/pb_remote_server_nrf52832_xxAA_s132_6.0.0.dir/__/__/__/mesh/core/src/cache.c.obj
 .bss           0x00000000        0x0 examples/pb_remote/server/CMakeFiles/pb_remote_server_nrf52832_xxAA_s132_6.0.0.dir/__/__/__/mesh/core/src/cache.c.obj
 .text.erase_at
                0x00000000       0x1c examples/pb_remote/server/CMakeFiles/pb_remote_server_nrf52832_xxAA_s132_6.0.0.dir/__/__/__/mesh/core/src/cache.c.obj
 .text.cache_init
                0x00000000       0x1e examples/pb_remote/server/CMakeFiles/pb_remote_server_nrf52832_xxAA_s132_6.0.0.dir/__/__/__/mesh/core/src/cache.c.obj
 .text.cache_has_elem
                0x00000000       0x3e examples/pb_remote/server/CMakeFiles/pb_remote_server_nrf52832_xxAA_s132_6.0.0.dir/__/__/__/mesh/core/src/cache.c.obj
 .text.cache_put
                0x00000000       0x2a examples/pb_remote/server/CMakeFiles/pb_remote_server_nrf52832_xxAA_s132_6.0.0.dir/__/__/__/mesh/core/src/cache.c.obj
 .text.cache_erase_elem
                0x00000000       0x4c examples/pb_remote/server/CMakeFiles/pb_remote_server_nrf52832_xxAA_s132_6.0.0.dir/__/__/__/mesh/core/src/cache.c.obj
 .debug_info    0x00000000      0xbe1 examples/pb_remote/server/CMakeFiles/pb_remote_server_nrf52832_xxAA_s132_6.0.0.dir/__/__/__/mesh/core/src/cache.c.obj
 .debug_abbrev  0x00000000      0x2a3 examples/pb_remote/server/CMakeFiles/pb_remote_server_nrf52832_xxAA_s132_6.0.0.dir/__/__/__/mesh/core/src/cache.c.obj
 .debug_loc     0x00000000      0x29b examples/pb_remote/server/CMakeFiles/pb_remote_server_nrf52832_xxAA_s132_6.0.0.dir/__/__/__/mesh/core/src/cache.c.obj
 .debug_aranges
                0x00000000       0x40 examples/pb_remote/server/CMakeFiles/pb_remote_server_nrf52832_xxAA_s132_6.0.0.dir/__/__/__/mesh/core/src/cache.c.obj
 .debug_ranges  0x00000000       0x80 examples/pb_remote/server/CMakeFiles/pb_remote_server_nrf52832_xxAA_s132_6.0.0.dir/__/__/__/mesh/core/src/cache.c.obj
 .debug_line    0x00000000      0x21e examples/pb_remote/server/CMakeFiles/pb_remote_server_nrf52832_xxAA_s132_6.0.0.dir/__/__/__/mesh/core/src/cache.c.obj
 .debug_str     0x00000000      0x6af examples/pb_remote/server/CMakeFiles/pb_remote_server_nrf52832_xxAA_s132_6.0.0.dir/__/__/__/mesh/core/src/cache.c.obj
 .comment       0x00000000       0x80 examples/pb_remote/server/CMakeFiles/pb_remote_server_nrf52832_xxAA_s132_6.0.0.dir/__/__/__/mesh/core/src/cache.c.obj
 .debug_frame   0x00000000       0xb0 examples/pb_remote/server/CMakeFiles/pb_remote_server_nrf52832_xxAA_s132_6.0.0.dir/__/__/__/mesh/core/src/cache.c.obj
 .ARM.attributes
                0x00000000       0x39 examples/pb_remote/server/CMakeFiles/pb_remote_server_nrf52832_xxAA_s132_6.0.0.dir/__/__/__/mesh/core/src/cache.c.obj
 .text          0x00000000        0x0 examples/pb_remote/server/CMakeFiles/pb_remote_server_nrf52832_xxAA_s132_6.0.0.dir/__/__/__/mesh/core/src/list.c.obj
 .data          0x00000000        0x0 examples/pb_remote/server/CMakeFiles/pb_remote_server_nrf52832_xxAA_s132_6.0.0.dir/__/__/__/mesh/core/src/list.c.obj
 .bss           0x00000000        0x0 examples/pb_remote/server/CMakeFiles/pb_remote_server_nrf52832_xxAA_s132_6.0.0.dir/__/__/__/mesh/core/src/list.c.obj
 .text.list_size_get
                0x00000000       0x12 examples/pb_remote/server/CMakeFiles/pb_remote_server_nrf52832_xxAA_s132_6.0.0.dir/__/__/__/mesh/core/src/list.c.obj
 .text.list_sorted_add
                0x00000000       0x6c examples/pb_remote/server/CMakeFiles/pb_remote_server_nrf52832_xxAA_s132_6.0.0.dir/__/__/__/mesh/core/src/list.c.obj
 .text          0x00000000        0x0 examples/pb_remote/server/CMakeFiles/pb_remote_server_nrf52832_xxAA_s132_6.0.0.dir/__/__/__/mesh/core/src/log.c.obj
 .data          0x00000000        0x0 examples/pb_remote/server/CMakeFiles/pb_remote_server_nrf52832_xxAA_s132_6.0.0.dir/__/__/__/mesh/core/src/log.c.obj
 .bss           0x00000000        0x0 examples/pb_remote/server/CMakeFiles/pb_remote_server_nrf52832_xxAA_s132_6.0.0.dir/__/__/__/mesh/core/src/log.c.obj
 .text.log_callback_logview
                0x00000000       0x38 examples/pb_remote/server/CMakeFiles/pb_remote_server_nrf52832_xxAA_s132_6.0.0.dir/__/__/__/mesh/core/src/log.c.obj
 .text.log_set_callback
                0x00000000        0xc examples/pb_remote/server/CMakeFiles/pb_remote_server_nrf52832_xxAA_s132_6.0.0.dir/__/__/__/mesh/core/src/log.c.obj
 .rodata.log_callback_logview.str1.1
                0x00000000        0xf examples/pb_remote/server/CMakeFiles/pb_remote_server_nrf52832_xxAA_s132_6.0.0.dir/__/__/__/mesh/core/src/log.c.obj
 .text          0x00000000        0x0 examples/pb_remote/server/CMakeFiles/pb_remote_server_nrf52832_xxAA_s132_6.0.0.dir/__/__/__/mesh/core/src/flash_manager.c.obj
 .data          0x00000000        0x0 examples/pb_remote/server/CMakeFiles/pb_remote_server_nrf52832_xxAA_s132_6.0.0.dir/__/__/__/mesh/core/src/flash_manager.c.obj
 .bss           0x00000000        0x0 examples/pb_remote/server/CMakeFiles/pb_remote_server_nrf52832_xxAA_s132_6.0.0.dir/__/__/__/mesh/core/src/flash_manager.c.obj
 .text.flash_manager_entry_count_get
                0x00000000       0x50 examples/pb_remote/server/CMakeFiles/pb_remote_server_nrf52832_xxAA_s132_6.0.0.dir/__/__/__/mesh/core/src/flash_manager.c.obj
 .text.flash_manager_entry_release
                0x00000000       0x2c examples/pb_remote/server/CMakeFiles/pb_remote_server_nrf52832_xxAA_s132_6.0.0.dir/__/__/__/mesh/core/src/flash_manager.c.obj
 .text          0x00000000        0x0 examples/pb_remote/server/CMakeFiles/pb_remote_server_nrf52832_xxAA_s132_6.0.0.dir/__/__/__/mesh/core/src/ccm_soft.c.obj
 .data          0x00000000        0x0 examples/pb_remote/server/CMakeFiles/pb_remote_server_nrf52832_xxAA_s132_6.0.0.dir/__/__/__/mesh/core/src/ccm_soft.c.obj
 .bss           0x00000000        0x0 examples/pb_remote/server/CMakeFiles/pb_remote_server_nrf52832_xxAA_s132_6.0.0.dir/__/__/__/mesh/core/src/ccm_soft.c.obj
 .text          0x00000000        0x0 examples/pb_remote/server/CMakeFiles/pb_remote_server_nrf52832_xxAA_s132_6.0.0.dir/__/__/__/mesh/core/src/toolchain.c.obj
 .data          0x00000000        0x0 examples/pb_remote/server/CMakeFiles/pb_remote_server_nrf52832_xxAA_s132_6.0.0.dir/__/__/__/mesh/core/src/toolchain.c.obj
 .bss           0x00000000        0x0 examples/pb_remote/server/CMakeFiles/pb_remote_server_nrf52832_xxAA_s132_6.0.0.dir/__/__/__/mesh/core/src/toolchain.c.obj
 .debug_info    0x00000000       0xb3 examples/pb_remote/server/CMakeFiles/pb_remote_server_nrf52832_xxAA_s132_6.0.0.dir/__/__/__/mesh/core/src/toolchain.c.obj
 .debug_abbrev  0x00000000       0x5c examples/pb_remote/server/CMakeFiles/pb_remote_server_nrf52832_xxAA_s132_6.0.0.dir/__/__/__/mesh/core/src/toolchain.c.obj
 .debug_aranges
                0x00000000       0x18 examples/pb_remote/server/CMakeFiles/pb_remote_server_nrf52832_xxAA_s132_6.0.0.dir/__/__/__/mesh/core/src/toolchain.c.obj
 .debug_line    0x00000000      0x124 examples/pb_remote/server/CMakeFiles/pb_remote_server_nrf52832_xxAA_s132_6.0.0.dir/__/__/__/mesh/core/src/toolchain.c.obj
 .debug_str     0x00000000      0x1fa examples/pb_remote/server/CMakeFiles/pb_remote_server_nrf52832_xxAA_s132_6.0.0.dir/__/__/__/mesh/core/src/toolchain.c.obj
 .comment       0x00000000       0x80 examples/pb_remote/server/CMakeFiles/pb_remote_server_nrf52832_xxAA_s132_6.0.0.dir/__/__/__/mesh/core/src/toolchain.c.obj
 .ARM.attributes
                0x00000000       0x39 examples/pb_remote/server/CMakeFiles/pb_remote_server_nrf52832_xxAA_s132_6.0.0.dir/__/__/__/mesh/core/src/toolchain.c.obj
 .text          0x00000000        0x0 examples/pb_remote/server/CMakeFiles/pb_remote_server_nrf52832_xxAA_s132_6.0.0.dir/__/__/__/mesh/core/src/replay_cache.c.obj
 .data          0x00000000        0x0 examples/pb_remote/server/CMakeFiles/pb_remote_server_nrf52832_xxAA_s132_6.0.0.dir/__/__/__/mesh/core/src/replay_cache.c.obj
 .bss           0x00000000        0x0 examples/pb_remote/server/CMakeFiles/pb_remote_server_nrf52832_xxAA_s132_6.0.0.dir/__/__/__/mesh/core/src/replay_cache.c.obj
 .text.replay_cache_on_iv_update
                0x00000000       0x24 examples/pb_remote/server/CMakeFiles/pb_remote_server_nrf52832_xxAA_s132_6.0.0.dir/__/__/__/mesh/core/src/replay_cache.c.obj
 .text          0x00000000        0x0 examples/pb_remote/server/CMakeFiles/pb_remote_server_nrf52832_xxAA_s132_6.0.0.dir/__/__/__/mesh/core/src/beacon.c.obj
 .data          0x00000000        0x0 examples/pb_remote/server/CMakeFiles/pb_remote_server_nrf52832_xxAA_s132_6.0.0.dir/__/__/__/mesh/core/src/beacon.c.obj
 .bss           0x00000000        0x0 examples/pb_remote/server/CMakeFiles/pb_remote_server_nrf52832_xxAA_s132_6.0.0.dir/__/__/__/mesh/core/src/beacon.c.obj
 .text          0x00000000        0x0 examples/pb_remote/server/CMakeFiles/pb_remote_server_nrf52832_xxAA_s132_6.0.0.dir/__/__/__/mesh/core/src/flash_manager_internal.c.obj
 .data          0x00000000        0x0 examples/pb_remote/server/CMakeFiles/pb_remote_server_nrf52832_xxAA_s132_6.0.0.dir/__/__/__/mesh/core/src/flash_manager_internal.c.obj
 .bss           0x00000000        0x0 examples/pb_remote/server/CMakeFiles/pb_remote_server_nrf52832_xxAA_s132_6.0.0.dir/__/__/__/mesh/core/src/flash_manager_internal.c.obj
 .text          0x00000000        0x0 examples/pb_remote/server/CMakeFiles/pb_remote_server_nrf52832_xxAA_s132_6.0.0.dir/__/__/__/mesh/core/src/core_tx.c.obj
 .data          0x00000000        0x0 examples/pb_remote/server/CMakeFiles/pb_remote_server_nrf52832_xxAA_s132_6.0.0.dir/__/__/__/mesh/core/src/core_tx.c.obj
 .bss           0x00000000        0x0 examples/pb_remote/server/CMakeFiles/pb_remote_server_nrf52832_xxAA_s132_6.0.0.dir/__/__/__/mesh/core/src/core_tx.c.obj
 .text.core_tx_bearer_type_get
                0x00000000       0x1c examples/pb_remote/server/CMakeFiles/pb_remote_server_nrf52832_xxAA_s132_6.0.0.dir/__/__/__/mesh/core/src/core_tx.c.obj
 .text.core_tx_bearer_count_get
                0x00000000        0xc examples/pb_remote/server/CMakeFiles/pb_remote_server_nrf52832_xxAA_s132_6.0.0.dir/__/__/__/mesh/core/src/core_tx.c.obj
 .text          0x00000000        0x0 examples/pb_remote/server/CMakeFiles/pb_remote_server_nrf52832_xxAA_s132_6.0.0.dir/__/__/__/mesh/core/src/heartbeat.c.obj
 .data          0x00000000        0x0 examples/pb_remote/server/CMakeFiles/pb_remote_server_nrf52832_xxAA_s132_6.0.0.dir/__/__/__/mesh/core/src/heartbeat.c.obj
 .bss           0x00000000        0x0 examples/pb_remote/server/CMakeFiles/pb_remote_server_nrf52832_xxAA_s132_6.0.0.dir/__/__/__/mesh/core/src/heartbeat.c.obj
 .text          0x00000000        0x0 examples/pb_remote/server/CMakeFiles/pb_remote_server_nrf52832_xxAA_s132_6.0.0.dir/__/__/__/mesh/core/src/net_beacon.c.obj
 .data          0x00000000        0x0 examples/pb_remote/server/CMakeFiles/pb_remote_server_nrf52832_xxAA_s132_6.0.0.dir/__/__/__/mesh/core/src/net_beacon.c.obj
 .bss           0x00000000        0x0 examples/pb_remote/server/CMakeFiles/pb_remote_server_nrf52832_xxAA_s132_6.0.0.dir/__/__/__/mesh/core/src/net_beacon.c.obj
 .text.net_beacon_build
                0x00000000       0x24 examples/pb_remote/server/CMakeFiles/pb_remote_server_nrf52832_xxAA_s132_6.0.0.dir/__/__/__/mesh/core/src/net_beacon.c.obj
 .text          0x00000000        0x0 examples/pb_remote/server/CMakeFiles/pb_remote_server_nrf52832_xxAA_s132_6.0.0.dir/__/__/__/mesh/core/src/fsm.c.obj
 .data          0x00000000        0x0 examples/pb_remote/server/CMakeFiles/pb_remote_server_nrf52832_xxAA_s132_6.0.0.dir/__/__/__/mesh/core/src/fsm.c.obj
 .bss           0x00000000        0x0 examples/pb_remote/server/CMakeFiles/pb_remote_server_nrf52832_xxAA_s132_6.0.0.dir/__/__/__/mesh/core/src/fsm.c.obj
 .text.fsm_event_post_try
                0x00000000      0x1ec examples/pb_remote/server/CMakeFiles/pb_remote_server_nrf52832_xxAA_s132_6.0.0.dir/__/__/__/mesh/core/src/fsm.c.obj
 .text.fsm_init
                0x00000000       0xcc examples/pb_remote/server/CMakeFiles/pb_remote_server_nrf52832_xxAA_s132_6.0.0.dir/__/__/__/mesh/core/src/fsm.c.obj
 .text.fsm_event_post
                0x00000000       0xac examples/pb_remote/server/CMakeFiles/pb_remote_server_nrf52832_xxAA_s132_6.0.0.dir/__/__/__/mesh/core/src/fsm.c.obj
 .text.fsm_is_processing
                0x00000000        0xa examples/pb_remote/server/CMakeFiles/pb_remote_server_nrf52832_xxAA_s132_6.0.0.dir/__/__/__/mesh/core/src/fsm.c.obj
 .rodata.fsm_event_post.str1.1
                0x00000000        0xb examples/pb_remote/server/CMakeFiles/pb_remote_server_nrf52832_xxAA_s132_6.0.0.dir/__/__/__/mesh/core/src/fsm.c.obj
 .rodata.fsm_event_post_try.str1.1
                0x00000000       0x41 examples/pb_remote/server/CMakeFiles/pb_remote_server_nrf52832_xxAA_s132_6.0.0.dir/__/__/__/mesh/core/src/fsm.c.obj
 .rodata.fsm_init.str1.1
                0x00000000        0xa examples/pb_remote/server/CMakeFiles/pb_remote_server_nrf52832_xxAA_s132_6.0.0.dir/__/__/__/mesh/core/src/fsm.c.obj
 .debug_info    0x00000000     0x132d examples/pb_remote/server/CMakeFiles/pb_remote_server_nrf52832_xxAA_s132_6.0.0.dir/__/__/__/mesh/core/src/fsm.c.obj
 .debug_abbrev  0x00000000      0x345 examples/pb_remote/server/CMakeFiles/pb_remote_server_nrf52832_xxAA_s132_6.0.0.dir/__/__/__/mesh/core/src/fsm.c.obj
 .debug_loc     0x00000000      0x3fd examples/pb_remote/server/CMakeFiles/pb_remote_server_nrf52832_xxAA_s132_6.0.0.dir/__/__/__/mesh/core/src/fsm.c.obj
 .debug_aranges
                0x00000000       0x38 examples/pb_remote/server/CMakeFiles/pb_remote_server_nrf52832_xxAA_s132_6.0.0.dir/__/__/__/mesh/core/src/fsm.c.obj
 .debug_ranges  0x00000000       0xe0 examples/pb_remote/server/CMakeFiles/pb_remote_server_nrf52832_xxAA_s132_6.0.0.dir/__/__/__/mesh/core/src/fsm.c.obj
 .debug_line    0x00000000      0x3d6 examples/pb_remote/server/CMakeFiles/pb_remote_server_nrf52832_xxAA_s132_6.0.0.dir/__/__/__/mesh/core/src/fsm.c.obj
 .debug_str     0x00000000      0x984 examples/pb_remote/server/CMakeFiles/pb_remote_server_nrf52832_xxAA_s132_6.0.0.dir/__/__/__/mesh/core/src/fsm.c.obj
 .comment       0x00000000       0x80 examples/pb_remote/server/CMakeFiles/pb_remote_server_nrf52832_xxAA_s132_6.0.0.dir/__/__/__/mesh/core/src/fsm.c.obj
 .debug_frame   0x00000000       0x9c examples/pb_remote/server/CMakeFiles/pb_remote_server_nrf52832_xxAA_s132_6.0.0.dir/__/__/__/mesh/core/src/fsm.c.obj
 .ARM.attributes
                0x00000000       0x39 examples/pb_remote/server/CMakeFiles/pb_remote_server_nrf52832_xxAA_s132_6.0.0.dir/__/__/__/mesh/core/src/fsm.c.obj
 .text          0x00000000        0x0 examples/pb_remote/server/CMakeFiles/pb_remote_server_nrf52832_xxAA_s132_6.0.0.dir/__/__/__/mesh/core/src/core_tx_adv.c.obj
 .data          0x00000000        0x0 examples/pb_remote/server/CMakeFiles/pb_remote_server_nrf52832_xxAA_s132_6.0.0.dir/__/__/__/mesh/core/src/core_tx_adv.c.obj
 .bss           0x00000000        0x0 examples/pb_remote/server/CMakeFiles/pb_remote_server_nrf52832_xxAA_s132_6.0.0.dir/__/__/__/mesh/core/src/core_tx_adv.c.obj
 .text.core_tx_adv_address_set
                0x00000000       0x28 examples/pb_remote/server/CMakeFiles/pb_remote_server_nrf52832_xxAA_s132_6.0.0.dir/__/__/__/mesh/core/src/core_tx_adv.c.obj
 .text          0x00000000        0x0 examples/pb_remote/server/CMakeFiles/pb_remote_server_nrf52832_xxAA_s132_6.0.0.dir/__/__/__/mesh/bearer/src/ad_listener.c.obj
 .data          0x00000000        0x0 examples/pb_remote/server/CMakeFiles/pb_remote_server_nrf52832_xxAA_s132_6.0.0.dir/__/__/__/mesh/bearer/src/ad_listener.c.obj
 .bss           0x00000000        0x0 examples/pb_remote/server/CMakeFiles/pb_remote_server_nrf52832_xxAA_s132_6.0.0.dir/__/__/__/mesh/bearer/src/ad_listener.c.obj
 .text.ad_listener_unsubscribe
                0x00000000       0x6c examples/pb_remote/server/CMakeFiles/pb_remote_server_nrf52832_xxAA_s132_6.0.0.dir/__/__/__/mesh/bearer/src/ad_listener.c.obj
 .text          0x00000000        0x0 examples/pb_remote/server/CMakeFiles/pb_remote_server_nrf52832_xxAA_s132_6.0.0.dir/__/__/__/mesh/bearer/src/ad_type_filter.c.obj
 .data          0x00000000        0x0 examples/pb_remote/server/CMakeFiles/pb_remote_server_nrf52832_xxAA_s132_6.0.0.dir/__/__/__/mesh/bearer/src/ad_type_filter.c.obj
 .bss           0x00000000        0x0 examples/pb_remote/server/CMakeFiles/pb_remote_server_nrf52832_xxAA_s132_6.0.0.dir/__/__/__/mesh/bearer/src/ad_type_filter.c.obj
 .text.bearer_adtype_remove
                0x00000000       0x20 examples/pb_remote/server/CMakeFiles/pb_remote_server_nrf52832_xxAA_s132_6.0.0.dir/__/__/__/mesh/bearer/src/ad_type_filter.c.obj
 .text.bearer_adtype_clear
                0x00000000       0x10 examples/pb_remote/server/CMakeFiles/pb_remote_server_nrf52832_xxAA_s132_6.0.0.dir/__/__/__/mesh/bearer/src/ad_type_filter.c.obj
 .text.bearer_invalid_length_amount_get
                0x00000000        0xc examples/pb_remote/server/CMakeFiles/pb_remote_server_nrf52832_xxAA_s132_6.0.0.dir/__/__/__/mesh/bearer/src/ad_type_filter.c.obj
 .text.bearer_adtype_filtered_amount_get
                0x00000000        0xc examples/pb_remote/server/CMakeFiles/pb_remote_server_nrf52832_xxAA_s132_6.0.0.dir/__/__/__/mesh/bearer/src/ad_type_filter.c.obj
 .text          0x00000000        0x0 examples/pb_remote/server/CMakeFiles/pb_remote_server_nrf52832_xxAA_s132_6.0.0.dir/__/__/__/mesh/bearer/src/adv_packet_filter.c.obj
 .data          0x00000000        0x0 examples/pb_remote/server/CMakeFiles/pb_remote_server_nrf52832_xxAA_s132_6.0.0.dir/__/__/__/mesh/bearer/src/adv_packet_filter.c.obj
 .bss           0x00000000        0x0 examples/pb_remote/server/CMakeFiles/pb_remote_server_nrf52832_xxAA_s132_6.0.0.dir/__/__/__/mesh/bearer/src/adv_packet_filter.c.obj
 .text.adv_filter_handle
                0x00000000       0x3c examples/pb_remote/server/CMakeFiles/pb_remote_server_nrf52832_xxAA_s132_6.0.0.dir/__/__/__/mesh/bearer/src/adv_packet_filter.c.obj
 .text.bearer_adv_packet_filtering_set
                0x00000000       0x1c examples/pb_remote/server/CMakeFiles/pb_remote_server_nrf52832_xxAA_s132_6.0.0.dir/__/__/__/mesh/bearer/src/adv_packet_filter.c.obj
 .text.bearer_adv_packet_remove
                0x00000000       0x18 examples/pb_remote/server/CMakeFiles/pb_remote_server_nrf52832_xxAA_s132_6.0.0.dir/__/__/__/mesh/bearer/src/adv_packet_filter.c.obj
 .text.bearer_adv_packet_add
                0x00000000       0x14 examples/pb_remote/server/CMakeFiles/pb_remote_server_nrf52832_xxAA_s132_6.0.0.dir/__/__/__/mesh/bearer/src/adv_packet_filter.c.obj
 .text.bearer_adv_packet_clear
                0x00000000        0xc examples/pb_remote/server/CMakeFiles/pb_remote_server_nrf52832_xxAA_s132_6.0.0.dir/__/__/__/mesh/bearer/src/adv_packet_filter.c.obj
 .text.bearer_adv_packet_filter_mode_set
                0x00000000       0x18 examples/pb_remote/server/CMakeFiles/pb_remote_server_nrf52832_xxAA_s132_6.0.0.dir/__/__/__/mesh/bearer/src/adv_packet_filter.c.obj
 .text.bearer_adv_packet_filtered_amount_get
                0x00000000        0xc examples/pb_remote/server/CMakeFiles/pb_remote_server_nrf52832_xxAA_s132_6.0.0.dir/__/__/__/mesh/bearer/src/adv_packet_filter.c.obj
 .bss.m_adv_packet_filter
                0x00000000       0x14 examples/pb_remote/server/CMakeFiles/pb_remote_server_nrf52832_xxAA_s132_6.0.0.dir/__/__/__/mesh/bearer/src/adv_packet_filter.c.obj
 .debug_info    0x00000000      0xd97 examples/pb_remote/server/CMakeFiles/pb_remote_server_nrf52832_xxAA_s132_6.0.0.dir/__/__/__/mesh/bearer/src/adv_packet_filter.c.obj
 .debug_abbrev  0x00000000      0x2c9 examples/pb_remote/server/CMakeFiles/pb_remote_server_nrf52832_xxAA_s132_6.0.0.dir/__/__/__/mesh/bearer/src/adv_packet_filter.c.obj
 .debug_loc     0x00000000      0x1c0 examples/pb_remote/server/CMakeFiles/pb_remote_server_nrf52832_xxAA_s132_6.0.0.dir/__/__/__/mesh/bearer/src/adv_packet_filter.c.obj
 .debug_aranges
                0x00000000       0x50 examples/pb_remote/server/CMakeFiles/pb_remote_server_nrf52832_xxAA_s132_6.0.0.dir/__/__/__/mesh/bearer/src/adv_packet_filter.c.obj
 .debug_ranges  0x00000000       0x40 examples/pb_remote/server/CMakeFiles/pb_remote_server_nrf52832_xxAA_s132_6.0.0.dir/__/__/__/mesh/bearer/src/adv_packet_filter.c.obj
 .debug_line    0x00000000      0x35b examples/pb_remote/server/CMakeFiles/pb_remote_server_nrf52832_xxAA_s132_6.0.0.dir/__/__/__/mesh/bearer/src/adv_packet_filter.c.obj
 .debug_str     0x00000000      0xa28 examples/pb_remote/server/CMakeFiles/pb_remote_server_nrf52832_xxAA_s132_6.0.0.dir/__/__/__/mesh/bearer/src/adv_packet_filter.c.obj
 .comment       0x00000000       0x80 examples/pb_remote/server/CMakeFiles/pb_remote_server_nrf52832_xxAA_s132_6.0.0.dir/__/__/__/mesh/bearer/src/adv_packet_filter.c.obj
 .debug_frame   0x00000000       0x88 examples/pb_remote/server/CMakeFiles/pb_remote_server_nrf52832_xxAA_s132_6.0.0.dir/__/__/__/mesh/bearer/src/adv_packet_filter.c.obj
 .ARM.attributes
                0x00000000       0x39 examples/pb_remote/server/CMakeFiles/pb_remote_server_nrf52832_xxAA_s132_6.0.0.dir/__/__/__/mesh/bearer/src/adv_packet_filter.c.obj
 .text          0x00000000        0x0 examples/pb_remote/server/CMakeFiles/pb_remote_server_nrf52832_xxAA_s132_6.0.0.dir/__/__/__/mesh/bearer/src/advertiser.c.obj
 .data          0x00000000        0x0 examples/pb_remote/server/CMakeFiles/pb_remote_server_nrf52832_xxAA_s132_6.0.0.dir/__/__/__/mesh/bearer/src/advertiser.c.obj
 .bss           0x00000000        0x0 examples/pb_remote/server/CMakeFiles/pb_remote_server_nrf52832_xxAA_s132_6.0.0.dir/__/__/__/mesh/bearer/src/advertiser.c.obj
 .text.advertiser_disable
                0x00000000        0xa examples/pb_remote/server/CMakeFiles/pb_remote_server_nrf52832_xxAA_s132_6.0.0.dir/__/__/__/mesh/bearer/src/advertiser.c.obj
 .text.advertiser_channels_set
                0x00000000       0x60 examples/pb_remote/server/CMakeFiles/pb_remote_server_nrf52832_xxAA_s132_6.0.0.dir/__/__/__/mesh/bearer/src/advertiser.c.obj
 .text.advertiser_address_set
                0x00000000       0x3c examples/pb_remote/server/CMakeFiles/pb_remote_server_nrf52832_xxAA_s132_6.0.0.dir/__/__/__/mesh/bearer/src/advertiser.c.obj
 .text.advertiser_config_set
                0x00000000       0x36 examples/pb_remote/server/CMakeFiles/pb_remote_server_nrf52832_xxAA_s132_6.0.0.dir/__/__/__/mesh/bearer/src/advertiser.c.obj
 .text.advertiser_config_get
                0x00000000       0x20 examples/pb_remote/server/CMakeFiles/pb_remote_server_nrf52832_xxAA_s132_6.0.0.dir/__/__/__/mesh/bearer/src/advertiser.c.obj
 .text          0x00000000        0x0 examples/pb_remote/server/CMakeFiles/pb_remote_server_nrf52832_xxAA_s132_6.0.0.dir/__/__/__/mesh/bearer/src/bearer_handler.c.obj
 .data          0x00000000        0x0 examples/pb_remote/server/CMakeFiles/pb_remote_server_nrf52832_xxAA_s132_6.0.0.dir/__/__/__/mesh/bearer/src/bearer_handler.c.obj
 .bss           0x00000000        0x0 examples/pb_remote/server/CMakeFiles/pb_remote_server_nrf52832_xxAA_s132_6.0.0.dir/__/__/__/mesh/bearer/src/bearer_handler.c.obj
 .text.bearer_handler_stop
                0x00000000       0x20 examples/pb_remote/server/CMakeFiles/pb_remote_server_nrf52832_xxAA_s132_6.0.0.dir/__/__/__/mesh/bearer/src/bearer_handler.c.obj
 .text.bearer_handler_action_fire
                0x00000000       0x9c examples/pb_remote/server/CMakeFiles/pb_remote_server_nrf52832_xxAA_s132_6.0.0.dir/__/__/__/mesh/bearer/src/bearer_handler.c.obj
 .text          0x00000000        0x0 examples/pb_remote/server/CMakeFiles/pb_remote_server_nrf52832_xxAA_s132_6.0.0.dir/__/__/__/mesh/bearer/src/broadcast.c.obj
 .data          0x00000000        0x0 examples/pb_remote/server/CMakeFiles/pb_remote_server_nrf52832_xxAA_s132_6.0.0.dir/__/__/__/mesh/bearer/src/broadcast.c.obj
 .bss           0x00000000        0x0 examples/pb_remote/server/CMakeFiles/pb_remote_server_nrf52832_xxAA_s132_6.0.0.dir/__/__/__/mesh/bearer/src/broadcast.c.obj
 .text          0x00000000        0x0 examples/pb_remote/server/CMakeFiles/pb_remote_server_nrf52832_xxAA_s132_6.0.0.dir/__/__/__/mesh/bearer/src/filter_engine.c.obj
 .data          0x00000000        0x0 examples/pb_remote/server/CMakeFiles/pb_remote_server_nrf52832_xxAA_s132_6.0.0.dir/__/__/__/mesh/bearer/src/filter_engine.c.obj
 .bss           0x00000000        0x0 examples/pb_remote/server/CMakeFiles/pb_remote_server_nrf52832_xxAA_s132_6.0.0.dir/__/__/__/mesh/bearer/src/filter_engine.c.obj
 .text.fen_accepted_amount_get
                0x00000000        0xc examples/pb_remote/server/CMakeFiles/pb_remote_server_nrf52832_xxAA_s132_6.0.0.dir/__/__/__/mesh/bearer/src/filter_engine.c.obj
 .text          0x00000000        0x0 examples/pb_remote/server/CMakeFiles/pb_remote_server_nrf52832_xxAA_s132_6.0.0.dir/__/__/__/mesh/bearer/src/gap_address_filter.c.obj
 .data          0x00000000        0x0 examples/pb_remote/server/CMakeFiles/pb_remote_server_nrf52832_xxAA_s132_6.0.0.dir/__/__/__/mesh/bearer/src/gap_address_filter.c.obj
 .bss           0x00000000        0x0 examples/pb_remote/server/CMakeFiles/pb_remote_server_nrf52832_xxAA_s132_6.0.0.dir/__/__/__/mesh/bearer/src/gap_address_filter.c.obj
 .text.gap_address_filter_handle
                0x00000000       0xa6 examples/pb_remote/server/CMakeFiles/pb_remote_server_nrf52832_xxAA_s132_6.0.0.dir/__/__/__/mesh/bearer/src/gap_address_filter.c.obj
 .text.gap_addr_filter_set
                0x00000000       0x40 examples/pb_remote/server/CMakeFiles/pb_remote_server_nrf52832_xxAA_s132_6.0.0.dir/__/__/__/mesh/bearer/src/gap_address_filter.c.obj
 .text.bearer_filter_gap_addr_whitelist_set
                0x00000000        0x6 examples/pb_remote/server/CMakeFiles/pb_remote_server_nrf52832_xxAA_s132_6.0.0.dir/__/__/__/mesh/bearer/src/gap_address_filter.c.obj
 .text.bearer_filter_gap_addr_blacklist_set
                0x00000000        0x6 examples/pb_remote/server/CMakeFiles/pb_remote_server_nrf52832_xxAA_s132_6.0.0.dir/__/__/__/mesh/bearer/src/gap_address_filter.c.obj
 .text.bearer_filter_gap_addr_range_set
                0x00000000       0x38 examples/pb_remote/server/CMakeFiles/pb_remote_server_nrf52832_xxAA_s132_6.0.0.dir/__/__/__/mesh/bearer/src/gap_address_filter.c.obj
 .text.bearer_filter_gap_addr_clear
                0x00000000       0x20 examples/pb_remote/server/CMakeFiles/pb_remote_server_nrf52832_xxAA_s132_6.0.0.dir/__/__/__/mesh/bearer/src/gap_address_filter.c.obj
 .text.bearer_gap_addr_filtered_amount_get
                0x00000000        0xc examples/pb_remote/server/CMakeFiles/pb_remote_server_nrf52832_xxAA_s132_6.0.0.dir/__/__/__/mesh/bearer/src/gap_address_filter.c.obj
 .bss.m_addr_filter
                0x00000000       0x18 examples/pb_remote/server/CMakeFiles/pb_remote_server_nrf52832_xxAA_s132_6.0.0.dir/__/__/__/mesh/bearer/src/gap_address_filter.c.obj
 .debug_info    0x00000000      0xebb examples/pb_remote/server/CMakeFiles/pb_remote_server_nrf52832_xxAA_s132_6.0.0.dir/__/__/__/mesh/bearer/src/gap_address_filter.c.obj
 .debug_abbrev  0x00000000      0x2f4 examples/pb_remote/server/CMakeFiles/pb_remote_server_nrf52832_xxAA_s132_6.0.0.dir/__/__/__/mesh/bearer/src/gap_address_filter.c.obj
 .debug_loc     0x00000000      0x3e8 examples/pb_remote/server/CMakeFiles/pb_remote_server_nrf52832_xxAA_s132_6.0.0.dir/__/__/__/mesh/bearer/src/gap_address_filter.c.obj
 .debug_aranges
                0x00000000       0x50 examples/pb_remote/server/CMakeFiles/pb_remote_server_nrf52832_xxAA_s132_6.0.0.dir/__/__/__/mesh/bearer/src/gap_address_filter.c.obj
 .debug_ranges  0x00000000       0x58 examples/pb_remote/server/CMakeFiles/pb_remote_server_nrf52832_xxAA_s132_6.0.0.dir/__/__/__/mesh/bearer/src/gap_address_filter.c.obj
 .debug_line    0x00000000      0x3b3 examples/pb_remote/server/CMakeFiles/pb_remote_server_nrf52832_xxAA_s132_6.0.0.dir/__/__/__/mesh/bearer/src/gap_address_filter.c.obj
 .debug_str     0x00000000      0x982 examples/pb_remote/server/CMakeFiles/pb_remote_server_nrf52832_xxAA_s132_6.0.0.dir/__/__/__/mesh/bearer/src/gap_address_filter.c.obj
 .comment       0x00000000       0x80 examples/pb_remote/server/CMakeFiles/pb_remote_server_nrf52832_xxAA_s132_6.0.0.dir/__/__/__/mesh/bearer/src/gap_address_filter.c.obj
 .debug_frame   0x00000000       0xb4 examples/pb_remote/server/CMakeFiles/pb_remote_server_nrf52832_xxAA_s132_6.0.0.dir/__/__/__/mesh/bearer/src/gap_address_filter.c.obj
 .ARM.attributes
                0x00000000       0x39 examples/pb_remote/server/CMakeFiles/pb_remote_server_nrf52832_xxAA_s132_6.0.0.dir/__/__/__/mesh/bearer/src/gap_address_filter.c.obj
 .text          0x00000000        0x0 examples/pb_remote/server/CMakeFiles/pb_remote_server_nrf52832_xxAA_s132_6.0.0.dir/__/__/__/mesh/bearer/src/radio_config.c.obj
 .data          0x00000000        0x0 examples/pb_remote/server/CMakeFiles/pb_remote_server_nrf52832_xxAA_s132_6.0.0.dir/__/__/__/mesh/bearer/src/radio_config.c.obj
 .bss           0x00000000        0x0 examples/pb_remote/server/CMakeFiles/pb_remote_server_nrf52832_xxAA_s132_6.0.0.dir/__/__/__/mesh/bearer/src/radio_config.c.obj
 .text.radio_config_access_addr_get
                0x00000000       0x4c examples/pb_remote/server/CMakeFiles/pb_remote_server_nrf52832_xxAA_s132_6.0.0.dir/__/__/__/mesh/bearer/src/radio_config.c.obj
 .text          0x00000000        0x0 examples/pb_remote/server/CMakeFiles/pb_remote_server_nrf52832_xxAA_s132_6.0.0.dir/__/__/__/mesh/bearer/src/rssi_filter.c.obj
 .data          0x00000000        0x0 examples/pb_remote/server/CMakeFiles/pb_remote_server_nrf52832_xxAA_s132_6.0.0.dir/__/__/__/mesh/bearer/src/rssi_filter.c.obj
 .bss           0x00000000        0x0 examples/pb_remote/server/CMakeFiles/pb_remote_server_nrf52832_xxAA_s132_6.0.0.dir/__/__/__/mesh/bearer/src/rssi_filter.c.obj
 .text.rssi_filter_handle
                0x00000000       0x20 examples/pb_remote/server/CMakeFiles/pb_remote_server_nrf52832_xxAA_s132_6.0.0.dir/__/__/__/mesh/bearer/src/rssi_filter.c.obj
 .text.bearer_rssi_filtering_set
                0x00000000       0x34 examples/pb_remote/server/CMakeFiles/pb_remote_server_nrf52832_xxAA_s132_6.0.0.dir/__/__/__/mesh/bearer/src/rssi_filter.c.obj
 .text.bearer_rssi_filtered_amount_get
                0x00000000        0xc examples/pb_remote/server/CMakeFiles/pb_remote_server_nrf52832_xxAA_s132_6.0.0.dir/__/__/__/mesh/bearer/src/rssi_filter.c.obj
 .bss.m_rssi_filter
                0x00000000       0x18 examples/pb_remote/server/CMakeFiles/pb_remote_server_nrf52832_xxAA_s132_6.0.0.dir/__/__/__/mesh/bearer/src/rssi_filter.c.obj
 .debug_info    0x00000000      0xc73 examples/pb_remote/server/CMakeFiles/pb_remote_server_nrf52832_xxAA_s132_6.0.0.dir/__/__/__/mesh/bearer/src/rssi_filter.c.obj
 .debug_abbrev  0x00000000      0x28e examples/pb_remote/server/CMakeFiles/pb_remote_server_nrf52832_xxAA_s132_6.0.0.dir/__/__/__/mesh/bearer/src/rssi_filter.c.obj
 .debug_loc     0x00000000       0xb3 examples/pb_remote/server/CMakeFiles/pb_remote_server_nrf52832_xxAA_s132_6.0.0.dir/__/__/__/mesh/bearer/src/rssi_filter.c.obj
 .debug_aranges
                0x00000000       0x30 examples/pb_remote/server/CMakeFiles/pb_remote_server_nrf52832_xxAA_s132_6.0.0.dir/__/__/__/mesh/bearer/src/rssi_filter.c.obj
 .debug_ranges  0x00000000       0x20 examples/pb_remote/server/CMakeFiles/pb_remote_server_nrf52832_xxAA_s132_6.0.0.dir/__/__/__/mesh/bearer/src/rssi_filter.c.obj
 .debug_line    0x00000000      0x2d0 examples/pb_remote/server/CMakeFiles/pb_remote_server_nrf52832_xxAA_s132_6.0.0.dir/__/__/__/mesh/bearer/src/rssi_filter.c.obj
 .debug_str     0x00000000      0x83d examples/pb_remote/server/CMakeFiles/pb_remote_server_nrf52832_xxAA_s132_6.0.0.dir/__/__/__/mesh/bearer/src/rssi_filter.c.obj
 .comment       0x00000000       0x80 examples/pb_remote/server/CMakeFiles/pb_remote_server_nrf52832_xxAA_s132_6.0.0.dir/__/__/__/mesh/bearer/src/rssi_filter.c.obj
 .debug_frame   0x00000000       0x54 examples/pb_remote/server/CMakeFiles/pb_remote_server_nrf52832_xxAA_s132_6.0.0.dir/__/__/__/mesh/bearer/src/rssi_filter.c.obj
 .ARM.attributes
                0x00000000       0x39 examples/pb_remote/server/CMakeFiles/pb_remote_server_nrf52832_xxAA_s132_6.0.0.dir/__/__/__/mesh/bearer/src/rssi_filter.c.obj
 .text          0x00000000        0x0 examples/pb_remote/server/CMakeFiles/pb_remote_server_nrf52832_xxAA_s132_6.0.0.dir/__/__/__/mesh/bearer/src/scanner.c.obj
 .data          0x00000000        0x0 examples/pb_remote/server/CMakeFiles/pb_remote_server_nrf52832_xxAA_s132_6.0.0.dir/__/__/__/mesh/bearer/src/scanner.c.obj
 .bss           0x00000000        0x0 examples/pb_remote/server/CMakeFiles/pb_remote_server_nrf52832_xxAA_s132_6.0.0.dir/__/__/__/mesh/bearer/src/scanner.c.obj
 .text.scanner_rx_callback_set
                0x00000000       0x20 examples/pb_remote/server/CMakeFiles/pb_remote_server_nrf52832_xxAA_s132_6.0.0.dir/__/__/__/mesh/bearer/src/scanner.c.obj
 .text.scanner_disable
                0x00000000       0x3c examples/pb_remote/server/CMakeFiles/pb_remote_server_nrf52832_xxAA_s132_6.0.0.dir/__/__/__/mesh/bearer/src/scanner.c.obj
 .text.scanner_is_enabled
                0x00000000       0x10 examples/pb_remote/server/CMakeFiles/pb_remote_server_nrf52832_xxAA_s132_6.0.0.dir/__/__/__/mesh/bearer/src/scanner.c.obj
 .text.scanner_stats_get
                0x00000000        0x8 examples/pb_remote/server/CMakeFiles/pb_remote_server_nrf52832_xxAA_s132_6.0.0.dir/__/__/__/mesh/bearer/src/scanner.c.obj
 .text.scanner_config_radio_mode_set
                0x00000000       0x10 examples/pb_remote/server/CMakeFiles/pb_remote_server_nrf52832_xxAA_s132_6.0.0.dir/__/__/__/mesh/bearer/src/scanner.c.obj
 .text          0x00000000        0x0 examples/pb_remote/server/CMakeFiles/pb_remote_server_nrf52832_xxAA_s132_6.0.0.dir/__/__/__/mesh/bearer/src/mesh_pa_lna.c.obj
 .data          0x00000000        0x0 examples/pb_remote/server/CMakeFiles/pb_remote_server_nrf52832_xxAA_s132_6.0.0.dir/__/__/__/mesh/bearer/src/mesh_pa_lna.c.obj
 .bss           0x00000000        0x0 examples/pb_remote/server/CMakeFiles/pb_remote_server_nrf52832_xxAA_s132_6.0.0.dir/__/__/__/mesh/bearer/src/mesh_pa_lna.c.obj
 .text.unlikely.pin_init
                0x00000000       0x32 examples/pb_remote/server/CMakeFiles/pb_remote_server_nrf52832_xxAA_s132_6.0.0.dir/__/__/__/mesh/bearer/src/mesh_pa_lna.c.obj
 .text.mesh_pa_lna_gpiote_enable
                0x00000000       0x68 examples/pb_remote/server/CMakeFiles/pb_remote_server_nrf52832_xxAA_s132_6.0.0.dir/__/__/__/mesh/bearer/src/mesh_pa_lna.c.obj
 .text.mesh_pa_lna_gpiote_params_get
                0x00000000       0x10 examples/pb_remote/server/CMakeFiles/pb_remote_server_nrf52832_xxAA_s132_6.0.0.dir/__/__/__/mesh/bearer/src/mesh_pa_lna.c.obj
 .text.mesh_pa_lna_gpiote_disable
                0x00000000       0x20 examples/pb_remote/server/CMakeFiles/pb_remote_server_nrf52832_xxAA_s132_6.0.0.dir/__/__/__/mesh/bearer/src/mesh_pa_lna.c.obj
 .text          0x00000000        0x0 examples/pb_remote/server/CMakeFiles/pb_remote_server_nrf52832_xxAA_s132_6.0.0.dir/__/__/__/mesh/prov/src/prov_provisionee.c.obj
 .data          0x00000000        0x0 examples/pb_remote/server/CMakeFiles/pb_remote_server_nrf52832_xxAA_s132_6.0.0.dir/__/__/__/mesh/prov/src/prov_provisionee.c.obj
 .bss           0x00000000        0x0 examples/pb_remote/server/CMakeFiles/pb_remote_server_nrf52832_xxAA_s132_6.0.0.dir/__/__/__/mesh/prov/src/prov_provisionee.c.obj
 .text.prov_provisionee_shared_secret
                0x00000000       0x28 examples/pb_remote/server/CMakeFiles/pb_remote_server_nrf52832_xxAA_s132_6.0.0.dir/__/__/__/mesh/prov/src/prov_provisionee.c.obj
 .text          0x00000000        0x0 examples/pb_remote/server/CMakeFiles/pb_remote_server_nrf52832_xxAA_s132_6.0.0.dir/__/__/__/mesh/prov/src/nrf_mesh_prov.c.obj
 .data          0x00000000        0x0 examples/pb_remote/server/CMakeFiles/pb_remote_server_nrf52832_xxAA_s132_6.0.0.dir/__/__/__/mesh/prov/src/nrf_mesh_prov.c.obj
 .bss           0x00000000        0x0 examples/pb_remote/server/CMakeFiles/pb_remote_server_nrf52832_xxAA_s132_6.0.0.dir/__/__/__/mesh/prov/src/nrf_mesh_prov.c.obj
 .text.nrf_mesh_prov_provision
                0x00000000       0x4e examples/pb_remote/server/CMakeFiles/pb_remote_server_nrf52832_xxAA_s132_6.0.0.dir/__/__/__/mesh/prov/src/nrf_mesh_prov.c.obj
 .text.nrf_mesh_prov_oob_use
                0x00000000       0x18 examples/pb_remote/server/CMakeFiles/pb_remote_server_nrf52832_xxAA_s132_6.0.0.dir/__/__/__/mesh/prov/src/nrf_mesh_prov.c.obj
 .text.nrf_mesh_prov_shared_secret_provide
                0x00000000        0xe examples/pb_remote/server/CMakeFiles/pb_remote_server_nrf52832_xxAA_s132_6.0.0.dir/__/__/__/mesh/prov/src/nrf_mesh_prov.c.obj
 .text.nrf_mesh_prov_pubkey_provide
                0x00000000       0x10 examples/pb_remote/server/CMakeFiles/pb_remote_server_nrf52832_xxAA_s132_6.0.0.dir/__/__/__/mesh/prov/src/nrf_mesh_prov.c.obj
 .text          0x00000000        0x0 examples/pb_remote/server/CMakeFiles/pb_remote_server_nrf52832_xxAA_s132_6.0.0.dir/__/__/__/mesh/prov/src/provisioning.c.obj
 .data          0x00000000        0x0 examples/pb_remote/server/CMakeFiles/pb_remote_server_nrf52832_xxAA_s132_6.0.0.dir/__/__/__/mesh/prov/src/provisioning.c.obj
 .bss           0x00000000        0x0 examples/pb_remote/server/CMakeFiles/pb_remote_server_nrf52832_xxAA_s132_6.0.0.dir/__/__/__/mesh/prov/src/provisioning.c.obj
 .text.prov_tx_invite
                0x00000000       0x28 examples/pb_remote/server/CMakeFiles/pb_remote_server_nrf52832_xxAA_s132_6.0.0.dir/__/__/__/mesh/prov/src/provisioning.c.obj
 .text.prov_tx_start
                0x00000000       0x20 examples/pb_remote/server/CMakeFiles/pb_remote_server_nrf52832_xxAA_s132_6.0.0.dir/__/__/__/mesh/prov/src/provisioning.c.obj
 .text.prov_tx_data
                0x00000000        0x6 examples/pb_remote/server/CMakeFiles/pb_remote_server_nrf52832_xxAA_s132_6.0.0.dir/__/__/__/mesh/prov/src/provisioning.c.obj
 .text.prov_tx  0x00000000        0x4 examples/pb_remote/server/CMakeFiles/pb_remote_server_nrf52832_xxAA_s132_6.0.0.dir/__/__/__/mesh/prov/src/provisioning.c.obj
 .text          0x00000000        0x0 examples/pb_remote/server/CMakeFiles/pb_remote_server_nrf52832_xxAA_s132_6.0.0.dir/__/__/__/mesh/prov/src/prov_beacon.c.obj
 .data          0x00000000        0x0 examples/pb_remote/server/CMakeFiles/pb_remote_server_nrf52832_xxAA_s132_6.0.0.dir/__/__/__/mesh/prov/src/prov_beacon.c.obj
 .bss           0x00000000        0x0 examples/pb_remote/server/CMakeFiles/pb_remote_server_nrf52832_xxAA_s132_6.0.0.dir/__/__/__/mesh/prov/src/prov_beacon.c.obj
 .text          0x00000000        0x0 examples/pb_remote/server/CMakeFiles/pb_remote_server_nrf52832_xxAA_s132_6.0.0.dir/__/__/__/mesh/prov/src/prov_utils.c.obj
 .data          0x00000000        0x0 examples/pb_remote/server/CMakeFiles/pb_remote_server_nrf52832_xxAA_s132_6.0.0.dir/__/__/__/mesh/prov/src/prov_utils.c.obj
 .bss           0x00000000        0x0 examples/pb_remote/server/CMakeFiles/pb_remote_server_nrf52832_xxAA_s132_6.0.0.dir/__/__/__/mesh/prov/src/prov_utils.c.obj
 .text          0x00000000        0x0 examples/pb_remote/server/CMakeFiles/pb_remote_server_nrf52832_xxAA_s132_6.0.0.dir/__/__/__/mesh/prov/src/prov_bearer_adv.c.obj
 .data          0x00000000        0x0 examples/pb_remote/server/CMakeFiles/pb_remote_server_nrf52832_xxAA_s132_6.0.0.dir/__/__/__/mesh/prov/src/prov_bearer_adv.c.obj
 .bss           0x00000000        0x0 examples/pb_remote/server/CMakeFiles/pb_remote_server_nrf52832_xxAA_s132_6.0.0.dir/__/__/__/mesh/prov/src/prov_bearer_adv.c.obj
 .text          0x00000000        0x0 examples/pb_remote/server/CMakeFiles/pb_remote_server_nrf52832_xxAA_s132_6.0.0.dir/__/__/__/models/pb_remote/src/pb_remote_server.c.obj
 .data          0x00000000        0x0 examples/pb_remote/server/CMakeFiles/pb_remote_server_nrf52832_xxAA_s132_6.0.0.dir/__/__/__/models/pb_remote/src/pb_remote_server.c.obj
 .bss           0x00000000        0x0 examples/pb_remote/server/CMakeFiles/pb_remote_server_nrf52832_xxAA_s132_6.0.0.dir/__/__/__/models/pb_remote/src/pb_remote_server.c.obj
 .text.pb_remote_server_disable
                0x00000000        0xa examples/pb_remote/server/CMakeFiles/pb_remote_server_nrf52832_xxAA_s132_6.0.0.dir/__/__/__/models/pb_remote/src/pb_remote_server.c.obj
 .text.pb_remote_server_return_to_scan_set
                0x00000000        0xe examples/pb_remote/server/CMakeFiles/pb_remote_server_nrf52832_xxAA_s132_6.0.0.dir/__/__/__/models/pb_remote/src/pb_remote_server.c.obj
 .text          0x00000000        0x0 examples/pb_remote/server/CMakeFiles/pb_remote_server_nrf52832_xxAA_s132_6.0.0.dir/__/__/__/mesh/access/src/access_publish.c.obj
 .data          0x00000000        0x0 examples/pb_remote/server/CMakeFiles/pb_remote_server_nrf52832_xxAA_s132_6.0.0.dir/__/__/__/mesh/access/src/access_publish.c.obj
 .bss           0x00000000        0x0 examples/pb_remote/server/CMakeFiles/pb_remote_server_nrf52832_xxAA_s132_6.0.0.dir/__/__/__/mesh/access/src/access_publish.c.obj
 .text          0x00000000        0x0 examples/pb_remote/server/CMakeFiles/pb_remote_server_nrf52832_xxAA_s132_6.0.0.dir/__/__/__/mesh/access/src/access.c.obj
 .data          0x00000000        0x0 examples/pb_remote/server/CMakeFiles/pb_remote_server_nrf52832_xxAA_s132_6.0.0.dir/__/__/__/mesh/access/src/access.c.obj
 .bss           0x00000000        0x0 examples/pb_remote/server/CMakeFiles/pb_remote_server_nrf52832_xxAA_s132_6.0.0.dir/__/__/__/mesh/access/src/access.c.obj
 .text.access_model_subscription_list_alloc
                0x00000000       0x54 examples/pb_remote/server/CMakeFiles/pb_remote_server_nrf52832_xxAA_s132_6.0.0.dir/__/__/__/mesh/access/src/access.c.obj
 .text.access_model_subscription_lists_share
                0x00000000       0x4c examples/pb_remote/server/CMakeFiles/pb_remote_server_nrf52832_xxAA_s132_6.0.0.dir/__/__/__/mesh/access/src/access.c.obj
 .text.access_element_location_set
                0x00000000       0x20 examples/pb_remote/server/CMakeFiles/pb_remote_server_nrf52832_xxAA_s132_6.0.0.dir/__/__/__/mesh/access/src/access.c.obj
 .text          0x00000000        0x0 examples/pb_remote/server/CMakeFiles/pb_remote_server_nrf52832_xxAA_s132_6.0.0.dir/__/__/__/mesh/access/src/access_reliable.c.obj
 .data          0x00000000        0x0 examples/pb_remote/server/CMakeFiles/pb_remote_server_nrf52832_xxAA_s132_6.0.0.dir/__/__/__/mesh/access/src/access_reliable.c.obj
 .bss           0x00000000        0x0 examples/pb_remote/server/CMakeFiles/pb_remote_server_nrf52832_xxAA_s132_6.0.0.dir/__/__/__/mesh/access/src/access_reliable.c.obj
 .text          0x00000000        0x0 examples/pb_remote/server/CMakeFiles/pb_remote_server_nrf52832_xxAA_s132_6.0.0.dir/__/__/__/mesh/access/src/access_loopback.c.obj
 .data          0x00000000        0x0 examples/pb_remote/server/CMakeFiles/pb_remote_server_nrf52832_xxAA_s132_6.0.0.dir/__/__/__/mesh/access/src/access_loopback.c.obj
 .bss           0x00000000        0x0 examples/pb_remote/server/CMakeFiles/pb_remote_server_nrf52832_xxAA_s132_6.0.0.dir/__/__/__/mesh/access/src/access_loopback.c.obj
 .text          0x00000000        0x0 examples/pb_remote/server/CMakeFiles/pb_remote_server_nrf52832_xxAA_s132_6.0.0.dir/__/__/__/mesh/access/src/device_state_manager.c.obj
 .data          0x00000000        0x0 examples/pb_remote/server/CMakeFiles/pb_remote_server_nrf52832_xxAA_s132_6.0.0.dir/__/__/__/mesh/access/src/device_state_manager.c.obj
 .bss           0x00000000        0x0 examples/pb_remote/server/CMakeFiles/pb_remote_server_nrf52832_xxAA_s132_6.0.0.dir/__/__/__/mesh/access/src/device_state_manager.c.obj
 .text.dsm_has_unflashed_data
                0x00000000       0x24 examples/pb_remote/server/CMakeFiles/pb_remote_server_nrf52832_xxAA_s132_6.0.0.dir/__/__/__/mesh/access/src/device_state_manager.c.obj
 .text.dsm_address_subscription_get
                0x00000000       0x34 examples/pb_remote/server/CMakeFiles/pb_remote_server_nrf52832_xxAA_s132_6.0.0.dir/__/__/__/mesh/access/src/device_state_manager.c.obj
 .text.dsm_address_subscription_count_get
                0x00000000       0x58 examples/pb_remote/server/CMakeFiles/pb_remote_server_nrf52832_xxAA_s132_6.0.0.dir/__/__/__/mesh/access/src/device_state_manager.c.obj
 .text.dsm_address_get_all
                0x00000000       0x64 examples/pb_remote/server/CMakeFiles/pb_remote_server_nrf52832_xxAA_s132_6.0.0.dir/__/__/__/mesh/access/src/device_state_manager.c.obj
 .text.dsm_subnet_handle_to_netkey_index
                0x00000000       0x30 examples/pb_remote/server/CMakeFiles/pb_remote_server_nrf52832_xxAA_s132_6.0.0.dir/__/__/__/mesh/access/src/device_state_manager.c.obj
 .text.dsm_subnet_key_get
                0x00000000       0x44 examples/pb_remote/server/CMakeFiles/pb_remote_server_nrf52832_xxAA_s132_6.0.0.dir/__/__/__/mesh/access/src/device_state_manager.c.obj
 .text.dsm_devkey_delete
                0x00000000       0x38 examples/pb_remote/server/CMakeFiles/pb_remote_server_nrf52832_xxAA_s132_6.0.0.dir/__/__/__/mesh/access/src/device_state_manager.c.obj
 .text.dsm_devkey_handle_get
                0x00000000       0x34 examples/pb_remote/server/CMakeFiles/pb_remote_server_nrf52832_xxAA_s132_6.0.0.dir/__/__/__/mesh/access/src/device_state_manager.c.obj
 .text.dsm_beacon_info_get
                0x00000000       0x2c examples/pb_remote/server/CMakeFiles/pb_remote_server_nrf52832_xxAA_s132_6.0.0.dir/__/__/__/mesh/access/src/device_state_manager.c.obj
 .text          0x00000000        0x0 examples/pb_remote/server/CMakeFiles/pb_remote_server_nrf52832_xxAA_s132_6.0.0.dir/__/__/__/models/config/src/composition_data.c.obj
 .data          0x00000000        0x0 examples/pb_remote/server/CMakeFiles/pb_remote_server_nrf52832_xxAA_s132_6.0.0.dir/__/__/__/models/config/src/composition_data.c.obj
 .bss           0x00000000        0x0 examples/pb_remote/server/CMakeFiles/pb_remote_server_nrf52832_xxAA_s132_6.0.0.dir/__/__/__/models/config/src/composition_data.c.obj
 .text          0x00000000        0x0 examples/pb_remote/server/CMakeFiles/pb_remote_server_nrf52832_xxAA_s132_6.0.0.dir/__/__/__/models/config/src/config_server.c.obj
 .data          0x00000000        0x0 examples/pb_remote/server/CMakeFiles/pb_remote_server_nrf52832_xxAA_s132_6.0.0.dir/__/__/__/models/config/src/config_server.c.obj
 .bss           0x00000000        0x0 examples/pb_remote/server/CMakeFiles/pb_remote_server_nrf52832_xxAA_s132_6.0.0.dir/__/__/__/models/config/src/config_server.c.obj
 .text          0x00000000        0x0 examples/pb_remote/server/CMakeFiles/pb_remote_server_nrf52832_xxAA_s132_6.0.0.dir/__/__/__/models/config/src/packed_index_list.c.obj
 .data          0x00000000        0x0 examples/pb_remote/server/CMakeFiles/pb_remote_server_nrf52832_xxAA_s132_6.0.0.dir/__/__/__/models/config/src/packed_index_list.c.obj
 .bss           0x00000000        0x0 examples/pb_remote/server/CMakeFiles/pb_remote_server_nrf52832_xxAA_s132_6.0.0.dir/__/__/__/models/config/src/packed_index_list.c.obj
 .text          0x00000000        0x0 examples/pb_remote/server/CMakeFiles/pb_remote_server_nrf52832_xxAA_s132_6.0.0.dir/__/__/__/models/health/src/health_server.c.obj
 .data          0x00000000        0x0 examples/pb_remote/server/CMakeFiles/pb_remote_server_nrf52832_xxAA_s132_6.0.0.dir/__/__/__/models/health/src/health_server.c.obj
 .bss           0x00000000        0x0 examples/pb_remote/server/CMakeFiles/pb_remote_server_nrf52832_xxAA_s132_6.0.0.dir/__/__/__/models/health/src/health_server.c.obj
 .text.health_server_fault_is_set
                0x00000000       0x1c examples/pb_remote/server/CMakeFiles/pb_remote_server_nrf52832_xxAA_s132_6.0.0.dir/__/__/__/models/health/src/health_server.c.obj
 .text.health_server_fault_count_get
                0x00000000        0xc examples/pb_remote/server/CMakeFiles/pb_remote_server_nrf52832_xxAA_s132_6.0.0.dir/__/__/__/models/health/src/health_server.c.obj
 .text.health_server_fault_register
                0x00000000       0xca examples/pb_remote/server/CMakeFiles/pb_remote_server_nrf52832_xxAA_s132_6.0.0.dir/__/__/__/models/health/src/health_server.c.obj
 .text.health_server_fault_clear
                0x00000000       0x48 examples/pb_remote/server/CMakeFiles/pb_remote_server_nrf52832_xxAA_s132_6.0.0.dir/__/__/__/models/health/src/health_server.c.obj
 .text.health_server_attention_get
                0x00000000        0x6 examples/pb_remote/server/CMakeFiles/pb_remote_server_nrf52832_xxAA_s132_6.0.0.dir/__/__/__/models/health/src/health_server.c.obj
 .text.health_server_attention_set
                0x00000000        0x4 examples/pb_remote/server/CMakeFiles/pb_remote_server_nrf52832_xxAA_s132_6.0.0.dir/__/__/__/models/health/src/health_server.c.obj
 .text          0x00000000        0x0 examples/pb_remote/server/CMakeFiles/pb_remote_server_nrf52832_xxAA_s132_6.0.0.dir/C_/b/nRF5_SDK_15.0.0_a53641a/modules/nrfx/mdk/system_nrf52.c.obj
 .data          0x00000000        0x0 examples/pb_remote/server/CMakeFiles/pb_remote_server_nrf52832_xxAA_s132_6.0.0.dir/C_/b/nRF5_SDK_15.0.0_a53641a/modules/nrfx/mdk/system_nrf52.c.obj
 .bss           0x00000000        0x0 examples/pb_remote/server/CMakeFiles/pb_remote_server_nrf52832_xxAA_s132_6.0.0.dir/C_/b/nRF5_SDK_15.0.0_a53641a/modules/nrfx/mdk/system_nrf52.c.obj
 .text.SystemCoreClockUpdate
                0x00000000       0x10 examples/pb_remote/server/CMakeFiles/pb_remote_server_nrf52832_xxAA_s132_6.0.0.dir/C_/b/nRF5_SDK_15.0.0_a53641a/modules/nrfx/mdk/system_nrf52.c.obj
 .data          0x00000000        0x0 examples/pb_remote/server/CMakeFiles/pb_remote_server_nrf52832_xxAA_s132_6.0.0.dir/C_/b/nRF5_SDK_15.0.0_a53641a/modules/nrfx/mdk/gcc_startup_nrf52.S.obj
 .bss           0x00000000        0x0 examples/pb_remote/server/CMakeFiles/pb_remote_server_nrf52832_xxAA_s132_6.0.0.dir/C_/b/nRF5_SDK_15.0.0_a53641a/modules/nrfx/mdk/gcc_startup_nrf52.S.obj
 .text          0x00000000        0x0 examples/pb_remote/server/CMakeFiles/pb_remote_server_nrf52832_xxAA_s132_6.0.0.dir/C_/b/nRF5_SDK_15.0.0_a53641a/components/libraries/util/app_error.c.obj
 .data          0x00000000        0x0 examples/pb_remote/server/CMakeFiles/pb_remote_server_nrf52832_xxAA_s132_6.0.0.dir/C_/b/nRF5_SDK_15.0.0_a53641a/components/libraries/util/app_error.c.obj
 .bss           0x00000000        0x0 examples/pb_remote/server/CMakeFiles/pb_remote_server_nrf52832_xxAA_s132_6.0.0.dir/C_/b/nRF5_SDK_15.0.0_a53641a/components/libraries/util/app_error.c.obj
 .text.app_error_save_and_stop
                0x00000000       0x58 examples/pb_remote/server/CMakeFiles/pb_remote_server_nrf52832_xxAA_s132_6.0.0.dir/C_/b/nRF5_SDK_15.0.0_a53641a/components/libraries/util/app_error.c.obj
 .bss.m_error_data.7863
                0x00000000       0x20 examples/pb_remote/server/CMakeFiles/pb_remote_server_nrf52832_xxAA_s132_6.0.0.dir/C_/b/nRF5_SDK_15.0.0_a53641a/components/libraries/util/app_error.c.obj
 .text          0x00000000        0x0 examples/pb_remote/server/CMakeFiles/pb_remote_server_nrf52832_xxAA_s132_6.0.0.dir/C_/b/nRF5_SDK_15.0.0_a53641a/components/libraries/util/app_util_platform.c.obj
 .data          0x00000000        0x0 examples/pb_remote/server/CMakeFiles/pb_remote_server_nrf52832_xxAA_s132_6.0.0.dir/C_/b/nRF5_SDK_15.0.0_a53641a/components/libraries/util/app_util_platform.c.obj
 .bss           0x00000000        0x0 examples/pb_remote/server/CMakeFiles/pb_remote_server_nrf52832_xxAA_s132_6.0.0.dir/C_/b/nRF5_SDK_15.0.0_a53641a/components/libraries/util/app_util_platform.c.obj
 .text.app_util_disable_irq
                0x00000000       0x10 examples/pb_remote/server/CMakeFiles/pb_remote_server_nrf52832_xxAA_s132_6.0.0.dir/C_/b/nRF5_SDK_15.0.0_a53641a/components/libraries/util/app_util_platform.c.obj
 .text.app_util_enable_irq
                0x00000000       0x14 examples/pb_remote/server/CMakeFiles/pb_remote_server_nrf52832_xxAA_s132_6.0.0.dir/C_/b/nRF5_SDK_15.0.0_a53641a/components/libraries/util/app_util_platform.c.obj
 .text.privilege_level_get
                0x00000000       0x1a examples/pb_remote/server/CMakeFiles/pb_remote_server_nrf52832_xxAA_s132_6.0.0.dir/C_/b/nRF5_SDK_15.0.0_a53641a/components/libraries/util/app_util_platform.c.obj
 .text.current_int_priority_get
                0x00000000       0x38 examples/pb_remote/server/CMakeFiles/pb_remote_server_nrf52832_xxAA_s132_6.0.0.dir/C_/b/nRF5_SDK_15.0.0_a53641a/components/libraries/util/app_util_platform.c.obj
 .bss.m_in_critical_region
                0x00000000        0x4 examples/pb_remote/server/CMakeFiles/pb_remote_server_nrf52832_xxAA_s132_6.0.0.dir/C_/b/nRF5_SDK_15.0.0_a53641a/components/libraries/util/app_util_platform.c.obj
 .text          0x00000000        0x0 examples/pb_remote/server/CMakeFiles/pb_remote_server_nrf52832_xxAA_s132_6.0.0.dir/C_/b/nRF5_SDK_15.0.0_a53641a/components/libraries/timer/app_timer.c.obj
 .data          0x00000000        0x0 examples/pb_remote/server/CMakeFiles/pb_remote_server_nrf52832_xxAA_s132_6.0.0.dir/C_/b/nRF5_SDK_15.0.0_a53641a/components/libraries/timer/app_timer.c.obj
 .bss           0x00000000        0x0 examples/pb_remote/server/CMakeFiles/pb_remote_server_nrf52832_xxAA_s132_6.0.0.dir/C_/b/nRF5_SDK_15.0.0_a53641a/components/libraries/timer/app_timer.c.obj
 .text.app_timer_stop_all
                0x00000000       0x18 examples/pb_remote/server/CMakeFiles/pb_remote_server_nrf52832_xxAA_s132_6.0.0.dir/C_/b/nRF5_SDK_15.0.0_a53641a/components/libraries/timer/app_timer.c.obj
 .text.app_timer_cnt_get
                0x00000000        0xc examples/pb_remote/server/CMakeFiles/pb_remote_server_nrf52832_xxAA_s132_6.0.0.dir/C_/b/nRF5_SDK_15.0.0_a53641a/components/libraries/timer/app_timer.c.obj
 .text.app_timer_cnt_diff_compute
                0x00000000        0x8 examples/pb_remote/server/CMakeFiles/pb_remote_server_nrf52832_xxAA_s132_6.0.0.dir/C_/b/nRF5_SDK_15.0.0_a53641a/components/libraries/timer/app_timer.c.obj
 .text.app_timer_pause
                0x00000000        0xc examples/pb_remote/server/CMakeFiles/pb_remote_server_nrf52832_xxAA_s132_6.0.0.dir/C_/b/nRF5_SDK_15.0.0_a53641a/components/libraries/timer/app_timer.c.obj
 .text.app_timer_resume
                0x00000000        0xc examples/pb_remote/server/CMakeFiles/pb_remote_server_nrf52832_xxAA_s132_6.0.0.dir/C_/b/nRF5_SDK_15.0.0_a53641a/components/libraries/timer/app_timer.c.obj
 .text          0x00000000        0x0 examples/pb_remote/server/CMakeFiles/pb_remote_server_nrf52832_xxAA_s132_6.0.0.dir/C_/b/nRF5_SDK_15.0.0_a53641a/components/libraries/util/app_error_handler_gcc.c.obj
 .data          0x00000000        0x0 examples/pb_remote/server/CMakeFiles/pb_remote_server_nrf52832_xxAA_s132_6.0.0.dir/C_/b/nRF5_SDK_15.0.0_a53641a/components/libraries/util/app_error_handler_gcc.c.obj
 .bss           0x00000000        0x0 examples/pb_remote/server/CMakeFiles/pb_remote_server_nrf52832_xxAA_s132_6.0.0.dir/C_/b/nRF5_SDK_15.0.0_a53641a/components/libraries/util/app_error_handler_gcc.c.obj
 .text          0x00000000        0x0 external/rtt/librtt_nrf52832_xxAA.a(SEGGER_RTT.c.obj)
 .data          0x00000000        0x0 external/rtt/librtt_nrf52832_xxAA.a(SEGGER_RTT.c.obj)
 .bss           0x00000000        0x0 external/rtt/librtt_nrf52832_xxAA.a(SEGGER_RTT.c.obj)
 .text._PostTerminalSwitch.constprop.0
                0x00000000       0x28 external/rtt/librtt_nrf52832_xxAA.a(SEGGER_RTT.c.obj)
 .text.SEGGER_RTT_ReadNoLock
                0x00000000       0x88 external/rtt/librtt_nrf52832_xxAA.a(SEGGER_RTT.c.obj)
 .text.SEGGER_RTT_Read
                0x00000000       0x1c external/rtt/librtt_nrf52832_xxAA.a(SEGGER_RTT.c.obj)
 .text.SEGGER_RTT_WriteSkipNoLock
                0x00000000       0xb4 external/rtt/librtt_nrf52832_xxAA.a(SEGGER_RTT.c.obj)
 .text.SEGGER_RTT_WriteString
                0x00000000       0x1a external/rtt/librtt_nrf52832_xxAA.a(SEGGER_RTT.c.obj)
 .text.SEGGER_RTT_GetKey
                0x00000000       0x20 external/rtt/librtt_nrf52832_xxAA.a(SEGGER_RTT.c.obj)
 .text.SEGGER_RTT_WaitKey
                0x00000000        0xc external/rtt/librtt_nrf52832_xxAA.a(SEGGER_RTT.c.obj)
 .text.SEGGER_RTT_HasKey
                0x00000000       0x1c external/rtt/librtt_nrf52832_xxAA.a(SEGGER_RTT.c.obj)
 .text.SEGGER_RTT_HasData
                0x00000000       0x14 external/rtt/librtt_nrf52832_xxAA.a(SEGGER_RTT.c.obj)
 .text.SEGGER_RTT_AllocDownBuffer
                0x00000000       0x68 external/rtt/librtt_nrf52832_xxAA.a(SEGGER_RTT.c.obj)
 .text.SEGGER_RTT_AllocUpBuffer
                0x00000000       0x70 external/rtt/librtt_nrf52832_xxAA.a(SEGGER_RTT.c.obj)
 .text.SEGGER_RTT_ConfigUpBuffer
                0x00000000       0x68 external/rtt/librtt_nrf52832_xxAA.a(SEGGER_RTT.c.obj)
 .text.SEGGER_RTT_ConfigDownBuffer
                0x00000000       0x60 external/rtt/librtt_nrf52832_xxAA.a(SEGGER_RTT.c.obj)
 .text.SEGGER_RTT_SetNameUpBuffer
                0x00000000       0x3c external/rtt/librtt_nrf52832_xxAA.a(SEGGER_RTT.c.obj)
 .text.SEGGER_RTT_SetNameDownBuffer
                0x00000000       0x3c external/rtt/librtt_nrf52832_xxAA.a(SEGGER_RTT.c.obj)
 .text.SEGGER_RTT_Init
                0x00000000       0x10 external/rtt/librtt_nrf52832_xxAA.a(SEGGER_RTT.c.obj)
 .text.SEGGER_RTT_SetTerminal
                0x00000000       0x84 external/rtt/librtt_nrf52832_xxAA.a(SEGGER_RTT.c.obj)
 .text.SEGGER_RTT_TerminalOut
                0x00000000       0xa0 external/rtt/librtt_nrf52832_xxAA.a(SEGGER_RTT.c.obj)
 .bss._ActiveTerminal
                0x00000000        0x1 external/rtt/librtt_nrf52832_xxAA.a(SEGGER_RTT.c.obj)
 .rodata._aTerminalId
                0x00000000       0x10 external/rtt/librtt_nrf52832_xxAA.a(SEGGER_RTT.c.obj)
 .text          0x00000000        0x0 external/rtt/librtt_nrf52832_xxAA.a(SEGGER_RTT_printf.c.obj)
 .data          0x00000000        0x0 external/rtt/librtt_nrf52832_xxAA.a(SEGGER_RTT_printf.c.obj)
 .bss           0x00000000        0x0 external/rtt/librtt_nrf52832_xxAA.a(SEGGER_RTT_printf.c.obj)
 .text          0x00000000        0x0 external/micro-ecc/libuECC_nrf52832_xxAA.a(uECC.c.obj)
 .data          0x00000000        0x0 external/micro-ecc/libuECC_nrf52832_xxAA.a(uECC.c.obj)
 .bss           0x00000000        0x0 external/micro-ecc/libuECC_nrf52832_xxAA.a(uECC.c.obj)
 .text.uECC_vli_modMult
                0x00000000      0x148 external/micro-ecc/libuECC_nrf52832_xxAA.a(uECC.c.obj)
 .text.HMAC_init
                0x00000000       0x46 external/micro-ecc/libuECC_nrf52832_xxAA.a(uECC.c.obj)
 .text.HMAC_update
                0x00000000        0x4 external/micro-ecc/libuECC_nrf52832_xxAA.a(uECC.c.obj)
 .text.HMAC_finish
                0x00000000       0x62 external/micro-ecc/libuECC_nrf52832_xxAA.a(uECC.c.obj)
 .text.update_V
                0x00000000       0x24 external/micro-ecc/libuECC_nrf52832_xxAA.a(uECC.c.obj)
 .text.bits2int
                0x00000000       0x88 external/micro-ecc/libuECC_nrf52832_xxAA.a(uECC.c.obj)
 .text.uECC_sign_with_k
                0x00000000      0x17c external/micro-ecc/libuECC_nrf52832_xxAA.a(uECC.c.obj)
 .text.uECC_set_rng
                0x00000000        0xc external/micro-ecc/libuECC_nrf52832_xxAA.a(uECC.c.obj)
 .text.uECC_get_rng
                0x00000000        0xc external/micro-ecc/libuECC_nrf52832_xxAA.a(uECC.c.obj)
 .text.uECC_curve_private_key_size
                0x00000000        0xe external/micro-ecc/libuECC_nrf52832_xxAA.a(uECC.c.obj)
 .text.uECC_curve_public_key_size
                0x00000000        0x8 external/micro-ecc/libuECC_nrf52832_xxAA.a(uECC.c.obj)
 .text.uECC_compute_public_key
                0x00000000       0x7e external/micro-ecc/libuECC_nrf52832_xxAA.a(uECC.c.obj)
 .text.uECC_sign
                0x00000000       0x56 external/micro-ecc/libuECC_nrf52832_xxAA.a(uECC.c.obj)
 .text.uECC_sign_deterministic
                0x00000000      0x192 external/micro-ecc/libuECC_nrf52832_xxAA.a(uECC.c.obj)
 .text.uECC_verify
                0x00000000      0x2f0 external/micro-ecc/libuECC_nrf52832_xxAA.a(uECC.c.obj)
 .data          0x00000000        0x0 c:/mesh/arm_gcc/bin/../lib/gcc/arm-none-eabi/6.3.1/thumb/v7e-m/fpv4-sp/hard\libgcc.a(_aeabi_uldivmod.o)
 .bss           0x00000000        0x0 c:/mesh/arm_gcc/bin/../lib/gcc/arm-none-eabi/6.3.1/thumb/v7e-m/fpv4-sp/hard\libgcc.a(_aeabi_uldivmod.o)
 .data          0x00000000        0x0 c:/mesh/arm_gcc/bin/../lib/gcc/arm-none-eabi/6.3.1/thumb/v7e-m/fpv4-sp/hard\libgcc.a(_udivmoddi4.o)
 .bss           0x00000000        0x0 c:/mesh/arm_gcc/bin/../lib/gcc/arm-none-eabi/6.3.1/thumb/v7e-m/fpv4-sp/hard\libgcc.a(_udivmoddi4.o)
 .ARM.extab     0x00000000        0x0 c:/mesh/arm_gcc/bin/../lib/gcc/arm-none-eabi/6.3.1/thumb/v7e-m/fpv4-sp/hard\libgcc.a(_udivmoddi4.o)
 .data          0x00000000        0x0 c:/mesh/arm_gcc/bin/../lib/gcc/arm-none-eabi/6.3.1/thumb/v7e-m/fpv4-sp/hard\libgcc.a(_dvmd_tls.o)
 .bss           0x00000000        0x0 c:/mesh/arm_gcc/bin/../lib/gcc/arm-none-eabi/6.3.1/thumb/v7e-m/fpv4-sp/hard\libgcc.a(_dvmd_tls.o)
 .text          0x00000000        0x0 c:/mesh/arm_gcc/bin/../lib/gcc/arm-none-eabi/6.3.1/../../../../arm-none-eabi/lib/thumb/v7e-m/fpv4-sp/hard\libg_nano.a(lib_a-exit.o)
 .data          0x00000000        0x0 c:/mesh/arm_gcc/bin/../lib/gcc/arm-none-eabi/6.3.1/../../../../arm-none-eabi/lib/thumb/v7e-m/fpv4-sp/hard\libg_nano.a(lib_a-exit.o)
 .bss           0x00000000        0x0 c:/mesh/arm_gcc/bin/../lib/gcc/arm-none-eabi/6.3.1/../../../../arm-none-eabi/lib/thumb/v7e-m/fpv4-sp/hard\libg_nano.a(lib_a-exit.o)
 .text          0x00000000        0x0 c:/mesh/arm_gcc/bin/../lib/gcc/arm-none-eabi/6.3.1/../../../../arm-none-eabi/lib/thumb/v7e-m/fpv4-sp/hard\libg_nano.a(lib_a-impure.o)
 .data          0x00000000        0x0 c:/mesh/arm_gcc/bin/../lib/gcc/arm-none-eabi/6.3.1/../../../../arm-none-eabi/lib/thumb/v7e-m/fpv4-sp/hard\libg_nano.a(lib_a-impure.o)
 .bss           0x00000000        0x0 c:/mesh/arm_gcc/bin/../lib/gcc/arm-none-eabi/6.3.1/../../../../arm-none-eabi/lib/thumb/v7e-m/fpv4-sp/hard\libg_nano.a(lib_a-impure.o)
 .text          0x00000000        0x0 c:/mesh/arm_gcc/bin/../lib/gcc/arm-none-eabi/6.3.1/../../../../arm-none-eabi/lib/thumb/v7e-m/fpv4-sp/hard\libg_nano.a(lib_a-init.o)
 .data          0x00000000        0x0 c:/mesh/arm_gcc/bin/../lib/gcc/arm-none-eabi/6.3.1/../../../../arm-none-eabi/lib/thumb/v7e-m/fpv4-sp/hard\libg_nano.a(lib_a-init.o)
 .bss           0x00000000        0x0 c:/mesh/arm_gcc/bin/../lib/gcc/arm-none-eabi/6.3.1/../../../../arm-none-eabi/lib/thumb/v7e-m/fpv4-sp/hard\libg_nano.a(lib_a-init.o)
 .text          0x00000000        0x0 c:/mesh/arm_gcc/bin/../lib/gcc/arm-none-eabi/6.3.1/../../../../arm-none-eabi/lib/thumb/v7e-m/fpv4-sp/hard\libg_nano.a(lib_a-malloc.o)
 .data          0x00000000        0x0 c:/mesh/arm_gcc/bin/../lib/gcc/arm-none-eabi/6.3.1/../../../../arm-none-eabi/lib/thumb/v7e-m/fpv4-sp/hard\libg_nano.a(lib_a-malloc.o)
 .bss           0x00000000        0x0 c:/mesh/arm_gcc/bin/../lib/gcc/arm-none-eabi/6.3.1/../../../../arm-none-eabi/lib/thumb/v7e-m/fpv4-sp/hard\libg_nano.a(lib_a-malloc.o)
 .text          0x00000000        0x0 c:/mesh/arm_gcc/bin/../lib/gcc/arm-none-eabi/6.3.1/../../../../arm-none-eabi/lib/thumb/v7e-m/fpv4-sp/hard\libg_nano.a(lib_a-memcmp.o)
 .data          0x00000000        0x0 c:/mesh/arm_gcc/bin/../lib/gcc/arm-none-eabi/6.3.1/../../../../arm-none-eabi/lib/thumb/v7e-m/fpv4-sp/hard\libg_nano.a(lib_a-memcmp.o)
 .bss           0x00000000        0x0 c:/mesh/arm_gcc/bin/../lib/gcc/arm-none-eabi/6.3.1/../../../../arm-none-eabi/lib/thumb/v7e-m/fpv4-sp/hard\libg_nano.a(lib_a-memcmp.o)
 .text          0x00000000        0x0 c:/mesh/arm_gcc/bin/../lib/gcc/arm-none-eabi/6.3.1/../../../../arm-none-eabi/lib/thumb/v7e-m/fpv4-sp/hard\libg_nano.a(lib_a-memcpy-stub.o)
 .data          0x00000000        0x0 c:/mesh/arm_gcc/bin/../lib/gcc/arm-none-eabi/6.3.1/../../../../arm-none-eabi/lib/thumb/v7e-m/fpv4-sp/hard\libg_nano.a(lib_a-memcpy-stub.o)
 .bss           0x00000000        0x0 c:/mesh/arm_gcc/bin/../lib/gcc/arm-none-eabi/6.3.1/../../../../arm-none-eabi/lib/thumb/v7e-m/fpv4-sp/hard\libg_nano.a(lib_a-memcpy-stub.o)
 .text          0x00000000        0x0 c:/mesh/arm_gcc/bin/../lib/gcc/arm-none-eabi/6.3.1/../../../../arm-none-eabi/lib/thumb/v7e-m/fpv4-sp/hard\libg_nano.a(lib_a-memset.o)
 .data          0x00000000        0x0 c:/mesh/arm_gcc/bin/../lib/gcc/arm-none-eabi/6.3.1/../../../../arm-none-eabi/lib/thumb/v7e-m/fpv4-sp/hard\libg_nano.a(lib_a-memset.o)
 .bss           0x00000000        0x0 c:/mesh/arm_gcc/bin/../lib/gcc/arm-none-eabi/6.3.1/../../../../arm-none-eabi/lib/thumb/v7e-m/fpv4-sp/hard\libg_nano.a(lib_a-memset.o)
 .text          0x00000000        0x0 c:/mesh/arm_gcc/bin/../lib/gcc/arm-none-eabi/6.3.1/../../../../arm-none-eabi/lib/thumb/v7e-m/fpv4-sp/hard\libg_nano.a(lib_a-nano-freer.o)
 .data          0x00000000        0x0 c:/mesh/arm_gcc/bin/../lib/gcc/arm-none-eabi/6.3.1/../../../../arm-none-eabi/lib/thumb/v7e-m/fpv4-sp/hard\libg_nano.a(lib_a-nano-freer.o)
 .bss           0x00000000        0x0 c:/mesh/arm_gcc/bin/../lib/gcc/arm-none-eabi/6.3.1/../../../../arm-none-eabi/lib/thumb/v7e-m/fpv4-sp/hard\libg_nano.a(lib_a-nano-freer.o)
 .text          0x00000000        0x0 c:/mesh/arm_gcc/bin/../lib/gcc/arm-none-eabi/6.3.1/../../../../arm-none-eabi/lib/thumb/v7e-m/fpv4-sp/hard\libg_nano.a(lib_a-nano-mallocr.o)
 .data          0x00000000        0x0 c:/mesh/arm_gcc/bin/../lib/gcc/arm-none-eabi/6.3.1/../../../../arm-none-eabi/lib/thumb/v7e-m/fpv4-sp/hard\libg_nano.a(lib_a-nano-mallocr.o)
 .bss           0x00000000        0x0 c:/mesh/arm_gcc/bin/../lib/gcc/arm-none-eabi/6.3.1/../../../../arm-none-eabi/lib/thumb/v7e-m/fpv4-sp/hard\libg_nano.a(lib_a-nano-mallocr.o)
 .text          0x00000000        0x0 c:/mesh/arm_gcc/bin/../lib/gcc/arm-none-eabi/6.3.1/../../../../arm-none-eabi/lib/thumb/v7e-m/fpv4-sp/hard\libg_nano.a(lib_a-sbrkr.o)
 .data          0x00000000        0x0 c:/mesh/arm_gcc/bin/../lib/gcc/arm-none-eabi/6.3.1/../../../../arm-none-eabi/lib/thumb/v7e-m/fpv4-sp/hard\libg_nano.a(lib_a-sbrkr.o)
 .bss           0x00000000        0x0 c:/mesh/arm_gcc/bin/../lib/gcc/arm-none-eabi/6.3.1/../../../../arm-none-eabi/lib/thumb/v7e-m/fpv4-sp/hard\libg_nano.a(lib_a-sbrkr.o)
 .text          0x00000000        0x0 c:/mesh/arm_gcc/bin/../lib/gcc/arm-none-eabi/6.3.1/../../../../arm-none-eabi/lib/thumb/v7e-m/fpv4-sp/hard\libg_nano.a(lib_a-strcpy.o)
 .data          0x00000000        0x0 c:/mesh/arm_gcc/bin/../lib/gcc/arm-none-eabi/6.3.1/../../../../arm-none-eabi/lib/thumb/v7e-m/fpv4-sp/hard\libg_nano.a(lib_a-strcpy.o)
 .bss           0x00000000        0x0 c:/mesh/arm_gcc/bin/../lib/gcc/arm-none-eabi/6.3.1/../../../../arm-none-eabi/lib/thumb/v7e-m/fpv4-sp/hard\libg_nano.a(lib_a-strcpy.o)
 .data          0x00000000        0x0 c:/mesh/arm_gcc/bin/../lib/gcc/arm-none-eabi/6.3.1/../../../../arm-none-eabi/lib/thumb/v7e-m/fpv4-sp/hard\libg_nano.a(lib_a-strlen.o)
 .bss           0x00000000        0x0 c:/mesh/arm_gcc/bin/../lib/gcc/arm-none-eabi/6.3.1/../../../../arm-none-eabi/lib/thumb/v7e-m/fpv4-sp/hard\libg_nano.a(lib_a-strlen.o)
 .text          0x00000000        0x0 c:/mesh/arm_gcc/bin/../lib/gcc/arm-none-eabi/6.3.1/../../../../arm-none-eabi/lib/thumb/v7e-m/fpv4-sp/hard\libg_nano.a(lib_a-strrchr.o)
 .data          0x00000000        0x0 c:/mesh/arm_gcc/bin/../lib/gcc/arm-none-eabi/6.3.1/../../../../arm-none-eabi/lib/thumb/v7e-m/fpv4-sp/hard\libg_nano.a(lib_a-strrchr.o)
 .bss           0x00000000        0x0 c:/mesh/arm_gcc/bin/../lib/gcc/arm-none-eabi/6.3.1/../../../../arm-none-eabi/lib/thumb/v7e-m/fpv4-sp/hard\libg_nano.a(lib_a-strrchr.o)
 .text          0x00000000        0x0 c:/mesh/arm_gcc/bin/../lib/gcc/arm-none-eabi/6.3.1/../../../../arm-none-eabi/lib/thumb/v7e-m/fpv4-sp/hard\libg_nano.a(lib_a-mlock.o)
 .data          0x00000000        0x0 c:/mesh/arm_gcc/bin/../lib/gcc/arm-none-eabi/6.3.1/../../../../arm-none-eabi/lib/thumb/v7e-m/fpv4-sp/hard\libg_nano.a(lib_a-mlock.o)
 .bss           0x00000000        0x0 c:/mesh/arm_gcc/bin/../lib/gcc/arm-none-eabi/6.3.1/../../../../arm-none-eabi/lib/thumb/v7e-m/fpv4-sp/hard\libg_nano.a(lib_a-mlock.o)
 .text          0x00000000        0x0 c:/mesh/arm_gcc/bin/../lib/gcc/arm-none-eabi/6.3.1/../../../../arm-none-eabi/lib/thumb/v7e-m/fpv4-sp/hard\libg_nano.a(lib_a-reent.o)
 .data          0x00000000        0x0 c:/mesh/arm_gcc/bin/../lib/gcc/arm-none-eabi/6.3.1/../../../../arm-none-eabi/lib/thumb/v7e-m/fpv4-sp/hard\libg_nano.a(lib_a-reent.o)
 .bss           0x00000000        0x0 c:/mesh/arm_gcc/bin/../lib/gcc/arm-none-eabi/6.3.1/../../../../arm-none-eabi/lib/thumb/v7e-m/fpv4-sp/hard\libg_nano.a(lib_a-reent.o)
 .text.cleanup_glue
                0x00000000       0x1a c:/mesh/arm_gcc/bin/../lib/gcc/arm-none-eabi/6.3.1/../../../../arm-none-eabi/lib/thumb/v7e-m/fpv4-sp/hard\libg_nano.a(lib_a-reent.o)
 .text._reclaim_reent
                0x00000000       0xb8 c:/mesh/arm_gcc/bin/../lib/gcc/arm-none-eabi/6.3.1/../../../../arm-none-eabi/lib/thumb/v7e-m/fpv4-sp/hard\libg_nano.a(lib_a-reent.o)
 .text          0x00000000        0x0 c:/mesh/arm_gcc/bin/../lib/gcc/arm-none-eabi/6.3.1/../../../../arm-none-eabi/lib/thumb/v7e-m/fpv4-sp/hard\libg_nano.a(lib_a-strchr.o)
 .data          0x00000000        0x0 c:/mesh/arm_gcc/bin/../lib/gcc/arm-none-eabi/6.3.1/../../../../arm-none-eabi/lib/thumb/v7e-m/fpv4-sp/hard\libg_nano.a(lib_a-strchr.o)
 .bss           0x00000000        0x0 c:/mesh/arm_gcc/bin/../lib/gcc/arm-none-eabi/6.3.1/../../../../arm-none-eabi/lib/thumb/v7e-m/fpv4-sp/hard\libg_nano.a(lib_a-strchr.o)
 .text          0x00000000        0x0 c:/mesh/arm_gcc/bin/../lib/gcc/arm-none-eabi/6.3.1/thumb/v7e-m/fpv4-sp/hard/crtend.o
 .data          0x00000000        0x0 c:/mesh/arm_gcc/bin/../lib/gcc/arm-none-eabi/6.3.1/thumb/v7e-m/fpv4-sp/hard/crtend.o
 .bss           0x00000000        0x0 c:/mesh/arm_gcc/bin/../lib/gcc/arm-none-eabi/6.3.1/thumb/v7e-m/fpv4-sp/hard/crtend.o
 .text          0x00000000        0x0 c:/mesh/arm_gcc/bin/../lib/gcc/arm-none-eabi/6.3.1/thumb/v7e-m/fpv4-sp/hard/crtn.o
 .data          0x00000000        0x0 c:/mesh/arm_gcc/bin/../lib/gcc/arm-none-eabi/6.3.1/thumb/v7e-m/fpv4-sp/hard/crtn.o
 .bss           0x00000000        0x0 c:/mesh/arm_gcc/bin/../lib/gcc/arm-none-eabi/6.3.1/thumb/v7e-m/fpv4-sp/hard/crtn.o
 .text          0x00000000        0x0 c:/mesh/arm_gcc/bin/../lib/gcc/arm-none-eabi/6.3.1/../../../../arm-none-eabi/lib/thumb/v7e-m/fpv4-sp/hard\libnosys.a(sbrk.o)
 .data          0x00000000        0x0 c:/mesh/arm_gcc/bin/../lib/gcc/arm-none-eabi/6.3.1/../../../../arm-none-eabi/lib/thumb/v7e-m/fpv4-sp/hard\libnosys.a(sbrk.o)
 .bss           0x00000000        0x0 c:/mesh/arm_gcc/bin/../lib/gcc/arm-none-eabi/6.3.1/../../../../arm-none-eabi/lib/thumb/v7e-m/fpv4-sp/hard\libnosys.a(sbrk.o)
 .text          0x00000000        0x0 c:/mesh/arm_gcc/bin/../lib/gcc/arm-none-eabi/6.3.1/../../../../arm-none-eabi/lib/thumb/v7e-m/fpv4-sp/hard\libnosys.a(_exit.o)
 .data          0x00000000        0x0 c:/mesh/arm_gcc/bin/../lib/gcc/arm-none-eabi/6.3.1/../../../../arm-none-eabi/lib/thumb/v7e-m/fpv4-sp/hard\libnosys.a(_exit.o)
 .bss           0x00000000        0x0 c:/mesh/arm_gcc/bin/../lib/gcc/arm-none-eabi/6.3.1/../../../../arm-none-eabi/lib/thumb/v7e-m/fpv4-sp/hard\libnosys.a(_exit.o)

Memory Configuration

Name             Origin             Length             Attributes
FLASH            0x00026000         0x00051000         xr
RAM              0x20002da0         0x0000cf60         xrw
*default*        0x00000000         0xffffffff

Linker script and memory map


.text           0x00026000    0x14fa4
 *(.isr_vector)
 .isr_vector    0x00026000      0x200 examples/pb_remote/server/CMakeFiles/pb_remote_server_nrf52832_xxAA_s132_6.0.0.dir/C_/b/nRF5_SDK_15.0.0_a53641a/modules/nrfx/mdk/gcc_startup_nrf52.S.obj
                0x00026000                __isr_vector
 *(.text*)
 .text          0x00026200       0x6c c:/mesh/arm_gcc/bin/../lib/gcc/arm-none-eabi/6.3.1/thumb/v7e-m/fpv4-sp/hard/crtbegin.o
 .text          0x0002626c       0x74 c:/mesh/arm_gcc/bin/../lib/gcc/arm-none-eabi/6.3.1/../../../../arm-none-eabi/lib/thumb/v7e-m/fpv4-sp/hard/crt0.o
                0x0002626c                _start
                0x0002626c                _mainCRTStartup
 .text.sd_app_evt_wait
                0x000262e0        0x4 examples/pb_remote/server/CMakeFiles/pb_remote_server_nrf52832_xxAA_s132_6.0.0.dir/src/main.c.obj
 .text.provisioning_complete_cb
                0x000262e4      0x15c examples/pb_remote/server/CMakeFiles/pb_remote_server_nrf52832_xxAA_s132_6.0.0.dir/src/main.c.obj
 .text.models_init_cb
                0x00026440       0x80 examples/pb_remote/server/CMakeFiles/pb_remote_server_nrf52832_xxAA_s132_6.0.0.dir/src/main.c.obj
 .text.startup.main
                0x000264c0      0x190 examples/pb_remote/server/CMakeFiles/pb_remote_server_nrf52832_xxAA_s132_6.0.0.dir/src/main.c.obj
                0x000264c0                main
 .text.mesh_stack_start
                0x00026650        0x4 examples/pb_remote/server/CMakeFiles/pb_remote_server_nrf52832_xxAA_s132_6.0.0.dir/__/__/__/mesh/stack/src/mesh_stack.c.obj
                0x00026650                mesh_stack_start
 .text.mesh_stack_provisioning_data_store
                0x00026654       0x6c examples/pb_remote/server/CMakeFiles/pb_remote_server_nrf52832_xxAA_s132_6.0.0.dir/__/__/__/mesh/stack/src/mesh_stack.c.obj
                0x00026654                mesh_stack_provisioning_data_store
 .text.mesh_stack_config_clear
                0x000266c0       0x12 examples/pb_remote/server/CMakeFiles/pb_remote_server_nrf52832_xxAA_s132_6.0.0.dir/__/__/__/mesh/stack/src/mesh_stack.c.obj
                0x000266c0                mesh_stack_config_clear
 .text.mesh_stack_is_device_provisioned
                0x000266d2       0x18 examples/pb_remote/server/CMakeFiles/pb_remote_server_nrf52832_xxAA_s132_6.0.0.dir/__/__/__/mesh/stack/src/mesh_stack.c.obj
                0x000266d2                mesh_stack_is_device_provisioned
 *fill*         0x000266ea        0x2 
 .text.mesh_stack_init
                0x000266ec       0x60 examples/pb_remote/server/CMakeFiles/pb_remote_server_nrf52832_xxAA_s132_6.0.0.dir/__/__/__/mesh/stack/src/mesh_stack.c.obj
                0x000266ec                mesh_stack_init
 .text.sd_evt_get
                0x0002674c        0x4 examples/pb_remote/server/CMakeFiles/pb_remote_server_nrf52832_xxAA_s132_6.0.0.dir/__/__/common/src/mesh_softdevice_init.c.obj
 .text.sd_softdevice_enable
                0x00026750        0x4 examples/pb_remote/server/CMakeFiles/pb_remote_server_nrf52832_xxAA_s132_6.0.0.dir/__/__/common/src/mesh_softdevice_init.c.obj
 .text.sd_ble_enable
                0x00026754        0x4 examples/pb_remote/server/CMakeFiles/pb_remote_server_nrf52832_xxAA_s132_6.0.0.dir/__/__/common/src/mesh_softdevice_init.c.obj
 .text.sd_ble_cfg_set
                0x00026758        0x4 examples/pb_remote/server/CMakeFiles/pb_remote_server_nrf52832_xxAA_s132_6.0.0.dir/__/__/common/src/mesh_softdevice_init.c.obj
 .text.SWI2_EGU2_IRQHandler
                0x0002675c       0x18 examples/pb_remote/server/CMakeFiles/pb_remote_server_nrf52832_xxAA_s132_6.0.0.dir/__/__/common/src/mesh_softdevice_init.c.obj
                0x0002675c                SWI2_EGU2_IRQHandler
 .text.mesh_softdevice_init
                0x00026774      0x1ac examples/pb_remote/server/CMakeFiles/pb_remote_server_nrf52832_xxAA_s132_6.0.0.dir/__/__/common/src/mesh_softdevice_init.c.obj
                0x00026774                mesh_softdevice_init
 .text.provisionee_start
                0x00026920       0x18 examples/pb_remote/server/CMakeFiles/pb_remote_server_nrf52832_xxAA_s132_6.0.0.dir/__/__/common/src/mesh_provisionee.c.obj
 .text.prov_evt_handler
                0x00026938       0x64 examples/pb_remote/server/CMakeFiles/pb_remote_server_nrf52832_xxAA_s132_6.0.0.dir/__/__/common/src/mesh_provisionee.c.obj
 .text.mesh_provisionee_prov_start
                0x0002699c       0x78 examples/pb_remote/server/CMakeFiles/pb_remote_server_nrf52832_xxAA_s132_6.0.0.dir/__/__/common/src/mesh_provisionee.c.obj
                0x0002699c                mesh_provisionee_prov_start
 .text.led_timeout_handler
                0x00026a14       0x40 examples/pb_remote/server/CMakeFiles/pb_remote_server_nrf52832_xxAA_s132_6.0.0.dir/__/__/common/src/simple_hal.c.obj
 .text.hal_led_mask_set
                0x00026a54       0x12 examples/pb_remote/server/CMakeFiles/pb_remote_server_nrf52832_xxAA_s132_6.0.0.dir/__/__/common/src/simple_hal.c.obj
                0x00026a54                hal_led_mask_set
 *fill*         0x00026a66        0x2 
 .text.hal_led_blink_ms
                0x00026a68       0x5c examples/pb_remote/server/CMakeFiles/pb_remote_server_nrf52832_xxAA_s132_6.0.0.dir/__/__/common/src/simple_hal.c.obj
                0x00026a68                hal_led_blink_ms
 .text.hal_leds_init
                0x00026ac4       0x58 examples/pb_remote/server/CMakeFiles/pb_remote_server_nrf52832_xxAA_s132_6.0.0.dir/__/__/common/src/simple_hal.c.obj
                0x00026ac4                hal_leds_init
 .text.GPIOTE_IRQHandler
                0x00026b1c       0x60 examples/pb_remote/server/CMakeFiles/pb_remote_server_nrf52832_xxAA_s132_6.0.0.dir/__/__/common/src/simple_hal.c.obj
                0x00026b1c                GPIOTE_IRQHandler
 .text._weak_handler
                0x00026b7c        0x4 examples/pb_remote/server/CMakeFiles/pb_remote_server_nrf52832_xxAA_s132_6.0.0.dir/__/__/nrf_mesh_weak.c.obj
                0x00026b7c                nrf_mesh_dfu_init
                0x00026b7c                nrf_mesh_dfu_jump_to_bootloader
                0x00026b7c                nrf_mesh_dfu_rx
                0x00026b7c                prov_provisioner_provision
                0x00026b7c                nrf_mesh_dfu_bank_info_get
                0x00026b7c                prov_provisioner_oob_pubkey
                0x00026b7c                nrf_mesh_dfu_request
                0x00026b7c                nrf_mesh_dfu_bank_flash
                0x00026b7c                _weak_handler
                0x00026b7c                nrf_mesh_dfu_relay
                0x00026b7c                nrf_mesh_dfu_abort
                0x00026b7c                mesh_flash_op_execute
                0x00026b7c                prov_provisionee_init
                0x00026b7c                nrf_mesh_dfu_state_get
                0x00026b7c                prov_provisioner_shared_secret
                0x00026b7c                prov_provisioner_auth_data
                0x00026b7c                prov_provisioner_oob_use
 .text.app_error_fault_handler
                0x00026b80      0x204 examples/pb_remote/server/CMakeFiles/pb_remote_server_nrf52832_xxAA_s132_6.0.0.dir/__/__/common/src/app_error_weak.c.obj
                0x00026b80                app_error_fault_handler
 .text.mesh_assertion_handler
                0x00026d84       0x24 examples/pb_remote/server/CMakeFiles/pb_remote_server_nrf52832_xxAA_s132_6.0.0.dir/__/__/common/src/assertion_handler_weak.c.obj
                0x00026d84                mesh_assertion_handler
 .text.nrf_mesh_configure_device_uuid_set
                0x00026da8       0x10 examples/pb_remote/server/CMakeFiles/pb_remote_server_nrf52832_xxAA_s132_6.0.0.dir/__/__/__/mesh/core/src/nrf_mesh_configure.c.obj
                0x00026da8                nrf_mesh_configure_device_uuid_set
 .text.nrf_mesh_configure_device_uuid_reset
                0x00026db8       0x28 examples/pb_remote/server/CMakeFiles/pb_remote_server_nrf52832_xxAA_s132_6.0.0.dir/__/__/__/mesh/core/src/nrf_mesh_configure.c.obj
                0x00026db8                nrf_mesh_configure_device_uuid_reset
 .text.nrf_mesh_configure_device_uuid_get
                0x00026de0        0x8 examples/pb_remote/server/CMakeFiles/pb_remote_server_nrf52832_xxAA_s132_6.0.0.dir/__/__/__/mesh/core/src/nrf_mesh_configure.c.obj
                0x00026de0                nrf_mesh_configure_device_uuid_get
 .text.msg_cache_init
                0x00026de8       0x24 examples/pb_remote/server/CMakeFiles/pb_remote_server_nrf52832_xxAA_s132_6.0.0.dir/__/__/__/mesh/core/src/msg_cache.c.obj
                0x00026de8                msg_cache_init
 .text.msg_cache_entry_exists
                0x00026e0c       0x3c examples/pb_remote/server/CMakeFiles/pb_remote_server_nrf52832_xxAA_s132_6.0.0.dir/__/__/__/mesh/core/src/msg_cache.c.obj
                0x00026e0c                msg_cache_entry_exists
 .text.msg_cache_entry_add
                0x00026e48       0x2c examples/pb_remote/server/CMakeFiles/pb_remote_server_nrf52832_xxAA_s132_6.0.0.dir/__/__/__/mesh/core/src/msg_cache.c.obj
                0x00026e48                msg_cache_entry_add
 .text.seqauth_sequence_number_get
                0x00026e74       0x12 examples/pb_remote/server/CMakeFiles/pb_remote_server_nrf52832_xxAA_s132_6.0.0.dir/__/__/__/mesh/core/src/transport.c.obj
 *fill*         0x00026e86        0x2 
 .text.control_packet_callback_get
                0x00026e88       0x44 examples/pb_remote/server/CMakeFiles/pb_remote_server_nrf52832_xxAA_s132_6.0.0.dir/__/__/__/mesh/core/src/transport.c.obj
 .text.tx_complete
                0x00026ecc       0x2c examples/pb_remote/server/CMakeFiles/pb_remote_server_nrf52832_xxAA_s132_6.0.0.dir/__/__/__/mesh/core/src/transport.c.obj
 .text.block_ack_full
                0x00026ef8       0x1a examples/pb_remote/server/CMakeFiles/pb_remote_server_nrf52832_xxAA_s132_6.0.0.dir/__/__/__/mesh/core/src/transport.c.obj
 *fill*         0x00026f12        0x2 
 .text.sar_rx_session_mark_as_handled
                0x00026f14       0x48 examples/pb_remote/server/CMakeFiles/pb_remote_server_nrf52832_xxAA_s132_6.0.0.dir/__/__/__/mesh/core/src/transport.c.obj
 .text.upper_trs_packet_encrypt
                0x00026f5c       0x90 examples/pb_remote/server/CMakeFiles/pb_remote_server_nrf52832_xxAA_s132_6.0.0.dir/__/__/__/mesh/core/src/transport.c.obj
 .text.sar_ctx_free
                0x00026fec       0x3c examples/pb_remote/server/CMakeFiles/pb_remote_server_nrf52832_xxAA_s132_6.0.0.dir/__/__/__/mesh/core/src/transport.c.obj
 .text.sar_ctx_tx_complete
                0x00027028       0x2e examples/pb_remote/server/CMakeFiles/pb_remote_server_nrf52832_xxAA_s132_6.0.0.dir/__/__/__/mesh/core/src/transport.c.obj
 *fill*         0x00027056        0x2 
 .text.sar_ctx_alloc
                0x00027058       0xa8 examples/pb_remote/server/CMakeFiles/pb_remote_server_nrf52832_xxAA_s132_6.0.0.dir/__/__/__/mesh/core/src/transport.c.obj
 .text.test_transport_decrypt
                0x00027100       0x88 examples/pb_remote/server/CMakeFiles/pb_remote_server_nrf52832_xxAA_s132_6.0.0.dir/__/__/__/mesh/core/src/transport.c.obj
 .text.upper_transport_access_packet_in
                0x00027188      0x19c examples/pb_remote/server/CMakeFiles/pb_remote_server_nrf52832_xxAA_s132_6.0.0.dir/__/__/__/mesh/core/src/transport.c.obj
 .text.trs_packet_header_build
                0x00027324       0xa6 examples/pb_remote/server/CMakeFiles/pb_remote_server_nrf52832_xxAA_s132_6.0.0.dir/__/__/__/mesh/core/src/transport.c.obj
 *fill*         0x000273ca        0x2 
 .text.tx_retry_timer_reset
                0x000273cc       0x44 examples/pb_remote/server/CMakeFiles/pb_remote_server_nrf52832_xxAA_s132_6.0.0.dir/__/__/__/mesh/core/src/transport.c.obj
 .text.sar_ctx_cancel
                0x00027410       0xa8 examples/pb_remote/server/CMakeFiles/pb_remote_server_nrf52832_xxAA_s132_6.0.0.dir/__/__/__/mesh/core/src/transport.c.obj
 .text.abort_timeout
                0x000274b8        0x8 examples/pb_remote/server/CMakeFiles/pb_remote_server_nrf52832_xxAA_s132_6.0.0.dir/__/__/__/mesh/core/src/transport.c.obj
 .text.trs_sar_packet_out
                0x000274c0       0xda examples/pb_remote/server/CMakeFiles/pb_remote_server_nrf52832_xxAA_s132_6.0.0.dir/__/__/__/mesh/core/src/transport.c.obj
 .text.retry_timeout
                0x0002759a       0x46 examples/pb_remote/server/CMakeFiles/pb_remote_server_nrf52832_xxAA_s132_6.0.0.dir/__/__/__/mesh/core/src/transport.c.obj
 .text.upper_transport_packet_in
                0x000275e0      0x150 examples/pb_remote/server/CMakeFiles/pb_remote_server_nrf52832_xxAA_s132_6.0.0.dir/__/__/__/mesh/core/src/transport.c.obj
 .text.upper_transport_tx
                0x00027730      0x1e4 examples/pb_remote/server/CMakeFiles/pb_remote_server_nrf52832_xxAA_s132_6.0.0.dir/__/__/__/mesh/core/src/transport.c.obj
 .text.transport_sar_mem_funcs_reset
                0x00027914       0x28 examples/pb_remote/server/CMakeFiles/pb_remote_server_nrf52832_xxAA_s132_6.0.0.dir/__/__/__/mesh/core/src/transport.c.obj
                0x00027914                transport_sar_mem_funcs_reset
 .text.transport_init
                0x0002793c       0x8c examples/pb_remote/server/CMakeFiles/pb_remote_server_nrf52832_xxAA_s132_6.0.0.dir/__/__/__/mesh/core/src/transport.c.obj
                0x0002793c                transport_init
 .text.transport_tx
                0x000279c8       0xb4 examples/pb_remote/server/CMakeFiles/pb_remote_server_nrf52832_xxAA_s132_6.0.0.dir/__/__/__/mesh/core/src/transport.c.obj
                0x000279c8                transport_tx
 .text.transport_control_tx
                0x00027a7c       0x8e examples/pb_remote/server/CMakeFiles/pb_remote_server_nrf52832_xxAA_s132_6.0.0.dir/__/__/__/mesh/core/src/transport.c.obj
                0x00027a7c                transport_control_tx
 *fill*         0x00027b0a        0x2 
 .text.sar_ack_send
                0x00027b0c       0xa0 examples/pb_remote/server/CMakeFiles/pb_remote_server_nrf52832_xxAA_s132_6.0.0.dir/__/__/__/mesh/core/src/transport.c.obj
 .text.transport_sar_process
                0x00027bac       0x74 examples/pb_remote/server/CMakeFiles/pb_remote_server_nrf52832_xxAA_s132_6.0.0.dir/__/__/__/mesh/core/src/transport.c.obj
 .text.transport_packet_in
                0x00027c20      0x434 examples/pb_remote/server/CMakeFiles/pb_remote_server_nrf52832_xxAA_s132_6.0.0.dir/__/__/__/mesh/core/src/transport.c.obj
                0x00027c20                transport_packet_in
 .text.ack_timeout
                0x00028054       0x28 examples/pb_remote/server/CMakeFiles/pb_remote_server_nrf52832_xxAA_s132_6.0.0.dir/__/__/__/mesh/core/src/transport.c.obj
 .text.transport_opt_set
                0x0002807c       0xd0 examples/pb_remote/server/CMakeFiles/pb_remote_server_nrf52832_xxAA_s132_6.0.0.dir/__/__/__/mesh/core/src/transport.c.obj
                0x0002807c                transport_opt_set
 .text.transport_opt_get
                0x0002814c       0x68 examples/pb_remote/server/CMakeFiles/pb_remote_server_nrf52832_xxAA_s132_6.0.0.dir/__/__/__/mesh/core/src/transport.c.obj
                0x0002814c                transport_opt_get
 .text.transport_control_packet_consumer_add
                0x000281b4       0x5c examples/pb_remote/server/CMakeFiles/pb_remote_server_nrf52832_xxAA_s132_6.0.0.dir/__/__/__/mesh/core/src/transport.c.obj
                0x000281b4                transport_control_packet_consumer_add
 .text.event_handle
                0x00028210       0x54 examples/pb_remote/server/CMakeFiles/pb_remote_server_nrf52832_xxAA_s132_6.0.0.dir/__/__/__/mesh/core/src/event.c.obj
                0x00028210                event_handle
 .text.event_handler_add
                0x00028264       0x20 examples/pb_remote/server/CMakeFiles/pb_remote_server_nrf52832_xxAA_s132_6.0.0.dir/__/__/__/mesh/core/src/event.c.obj
                0x00028264                event_handler_add
 .text.event_handler_remove
                0x00028284       0x34 examples/pb_remote/server/CMakeFiles/pb_remote_server_nrf52832_xxAA_s132_6.0.0.dir/__/__/__/mesh/core/src/event.c.obj
                0x00028284                event_handler_remove
 .text.m_index_increment
                0x000282b8       0x1e examples/pb_remote/server/CMakeFiles/pb_remote_server_nrf52832_xxAA_s132_6.0.0.dir/__/__/__/mesh/core/src/packet_buffer.c.obj
 .text.packet_buffer_init
                0x000282d6       0xac examples/pb_remote/server/CMakeFiles/pb_remote_server_nrf52832_xxAA_s132_6.0.0.dir/__/__/__/mesh/core/src/packet_buffer.c.obj
                0x000282d6                packet_buffer_init
 .text.packet_buffer_flush
                0x00028382       0x60 examples/pb_remote/server/CMakeFiles/pb_remote_server_nrf52832_xxAA_s132_6.0.0.dir/__/__/__/mesh/core/src/packet_buffer.c.obj
                0x00028382                packet_buffer_flush
 .text.packet_buffer_reserve
                0x000283e2       0x96 examples/pb_remote/server/CMakeFiles/pb_remote_server_nrf52832_xxAA_s132_6.0.0.dir/__/__/__/mesh/core/src/packet_buffer.c.obj
                0x000283e2                packet_buffer_reserve
 .text.packet_buffer_commit
                0x00028478       0x58 examples/pb_remote/server/CMakeFiles/pb_remote_server_nrf52832_xxAA_s132_6.0.0.dir/__/__/__/mesh/core/src/packet_buffer.c.obj
                0x00028478                packet_buffer_commit
 .text.packet_buffer_pop
                0x000284d0       0x3c examples/pb_remote/server/CMakeFiles/pb_remote_server_nrf52832_xxAA_s132_6.0.0.dir/__/__/__/mesh/core/src/packet_buffer.c.obj
                0x000284d0                packet_buffer_pop
 .text.packet_buffer_can_pop
                0x0002850c       0x1c examples/pb_remote/server/CMakeFiles/pb_remote_server_nrf52832_xxAA_s132_6.0.0.dir/__/__/__/mesh/core/src/packet_buffer.c.obj
                0x0002850c                packet_buffer_can_pop
 .text.packet_buffer_packets_ready_to_pop
                0x00028528       0x3a examples/pb_remote/server/CMakeFiles/pb_remote_server_nrf52832_xxAA_s132_6.0.0.dir/__/__/__/mesh/core/src/packet_buffer.c.obj
                0x00028528                packet_buffer_packets_ready_to_pop
 .text.packet_buffer_free
                0x00028562       0x6e examples/pb_remote/server/CMakeFiles/pb_remote_server_nrf52832_xxAA_s132_6.0.0.dir/__/__/__/mesh/core/src/packet_buffer.c.obj
                0x00028562                packet_buffer_free
 .text.get_last_page
                0x000285d0       0x14 examples/pb_remote/server/CMakeFiles/pb_remote_server_nrf52832_xxAA_s132_6.0.0.dir/__/__/__/mesh/core/src/flash_manager_defrag.c.obj
 .text.defrag_on_end
                0x000285e4       0x1c examples/pb_remote/server/CMakeFiles/pb_remote_server_nrf52832_xxAA_s132_6.0.0.dir/__/__/__/mesh/core/src/flash_manager_defrag.c.obj
 .text.execute_procedure_step
                0x00028600       0x7c examples/pb_remote/server/CMakeFiles/pb_remote_server_nrf52832_xxAA_s132_6.0.0.dir/__/__/__/mesh/core/src/flash_manager_defrag.c.obj
 .text.get_next_entry
                0x0002867c       0x34 examples/pb_remote/server/CMakeFiles/pb_remote_server_nrf52832_xxAA_s132_6.0.0.dir/__/__/__/mesh/core/src/flash_manager_defrag.c.obj
 .text.get_next_data_entry
                0x000286b0       0x26 examples/pb_remote/server/CMakeFiles/pb_remote_server_nrf52832_xxAA_s132_6.0.0.dir/__/__/__/mesh/core/src/flash_manager_defrag.c.obj
 *fill*         0x000286d6        0x2 
 .text.on_flash_op_end
                0x000286d8       0x30 examples/pb_remote/server/CMakeFiles/pb_remote_server_nrf52832_xxAA_s132_6.0.0.dir/__/__/__/mesh/core/src/flash_manager_defrag.c.obj
 .text.check_for_invalid_entries
                0x00028708       0x38 examples/pb_remote/server/CMakeFiles/pb_remote_server_nrf52832_xxAA_s132_6.0.0.dir/__/__/__/mesh/core/src/flash_manager_defrag.c.obj
 .text.erase_recovery_area
                0x00028740       0x34 examples/pb_remote/server/CMakeFiles/pb_remote_server_nrf52832_xxAA_s132_6.0.0.dir/__/__/__/mesh/core/src/flash_manager_defrag.c.obj
 .text.flash.constprop.6
                0x00028774       0x24 examples/pb_remote/server/CMakeFiles/pb_remote_server_nrf52832_xxAA_s132_6.0.0.dir/__/__/__/mesh/core/src/flash_manager_defrag.c.obj
 .text.seal_storage_page
                0x00028798       0x50 examples/pb_remote/server/CMakeFiles/pb_remote_server_nrf52832_xxAA_s132_6.0.0.dir/__/__/__/mesh/core/src/flash_manager_defrag.c.obj
 .text.invalidate_duplicate_entries
                0x000287e8       0x9c examples/pb_remote/server/CMakeFiles/pb_remote_server_nrf52832_xxAA_s132_6.0.0.dir/__/__/__/mesh/core/src/flash_manager_defrag.c.obj
 .text.copy_metadata
                0x00028884       0x3c examples/pb_remote/server/CMakeFiles/pb_remote_server_nrf52832_xxAA_s132_6.0.0.dir/__/__/__/mesh/core/src/flash_manager_defrag.c.obj
 .text.write_defrag_start_pointer
                0x000288c0       0x20 examples/pb_remote/server/CMakeFiles/pb_remote_server_nrf52832_xxAA_s132_6.0.0.dir/__/__/__/mesh/core/src/flash_manager_defrag.c.obj
 .text.write_back
                0x000288e0       0x28 examples/pb_remote/server/CMakeFiles/pb_remote_server_nrf52832_xxAA_s132_6.0.0.dir/__/__/__/mesh/core/src/flash_manager_defrag.c.obj
 .text.post_process
                0x00028908       0x40 examples/pb_remote/server/CMakeFiles/pb_remote_server_nrf52832_xxAA_s132_6.0.0.dir/__/__/__/mesh/core/src/flash_manager_defrag.c.obj
 .text.backup_entries
                0x00028948       0xf8 examples/pb_remote/server/CMakeFiles/pb_remote_server_nrf52832_xxAA_s132_6.0.0.dir/__/__/__/mesh/core/src/flash_manager_defrag.c.obj
 .text.erase_source
                0x00028a40       0x34 examples/pb_remote/server/CMakeFiles/pb_remote_server_nrf52832_xxAA_s132_6.0.0.dir/__/__/__/mesh/core/src/flash_manager_defrag.c.obj
 .text.flash_manager_defrag_init
                0x00028a74       0x8c examples/pb_remote/server/CMakeFiles/pb_remote_server_nrf52832_xxAA_s132_6.0.0.dir/__/__/__/mesh/core/src/flash_manager_defrag.c.obj
                0x00028a74                flash_manager_defrag_init
 .text.flash_manager_defrag_is_running
                0x00028b00       0x10 examples/pb_remote/server/CMakeFiles/pb_remote_server_nrf52832_xxAA_s132_6.0.0.dir/__/__/__/mesh/core/src/flash_manager_defrag.c.obj
                0x00028b00                flash_manager_defrag_is_running
 .text.flash_manager_defrag
                0x00028b10       0x44 examples/pb_remote/server/CMakeFiles/pb_remote_server_nrf52832_xxAA_s132_6.0.0.dir/__/__/__/mesh/core/src/flash_manager_defrag.c.obj
                0x00028b10                flash_manager_defrag
 .text.flash_manager_defrag_recovery_page_get
                0x00028b54        0xc examples/pb_remote/server/CMakeFiles/pb_remote_server_nrf52832_xxAA_s132_6.0.0.dir/__/__/__/mesh/core/src/flash_manager_defrag.c.obj
                0x00028b54                flash_manager_defrag_recovery_page_get
 .text.fifo_init
                0x00028b60       0x34 examples/pb_remote/server/CMakeFiles/pb_remote_server_nrf52832_xxAA_s132_6.0.0.dir/__/__/__/mesh/core/src/fifo.c.obj
                0x00028b60                fifo_init
 .text.fifo_push
                0x00028b94       0x50 examples/pb_remote/server/CMakeFiles/pb_remote_server_nrf52832_xxAA_s132_6.0.0.dir/__/__/__/mesh/core/src/fifo.c.obj
                0x00028b94                fifo_push
 .text.fifo_pop
                0x00028be4       0x52 examples/pb_remote/server/CMakeFiles/pb_remote_server_nrf52832_xxAA_s132_6.0.0.dir/__/__/__/mesh/core/src/fifo.c.obj
                0x00028be4                fifo_pop
 .text.fifo_flush
                0x00028c36        0x6 examples/pb_remote/server/CMakeFiles/pb_remote_server_nrf52832_xxAA_s132_6.0.0.dir/__/__/__/mesh/core/src/fifo.c.obj
                0x00028c36                fifo_flush
 .text.fifo_get_len
                0x00028c3c        0x8 examples/pb_remote/server/CMakeFiles/pb_remote_server_nrf52832_xxAA_s132_6.0.0.dir/__/__/__/mesh/core/src/fifo.c.obj
                0x00028c3c                fifo_get_len
 .text.wait_for_ready
                0x00028c44       0x10 examples/pb_remote/server/CMakeFiles/pb_remote_server_nrf52832_xxAA_s132_6.0.0.dir/__/__/__/mesh/core/src/nrf_flash.c.obj
 .text.nrf_flash_erase
                0x00028c54       0x50 examples/pb_remote/server/CMakeFiles/pb_remote_server_nrf52832_xxAA_s132_6.0.0.dir/__/__/__/mesh/core/src/nrf_flash.c.obj
                0x00028c54                nrf_flash_erase
 .text.nrf_flash_write
                0x00028ca4       0x50 examples/pb_remote/server/CMakeFiles/pb_remote_server_nrf52832_xxAA_s132_6.0.0.dir/__/__/__/mesh/core/src/nrf_flash.c.obj
                0x00028ca4                nrf_flash_write
 .text.packet_mgr_init
                0x00028cf4       0x4c examples/pb_remote/server/CMakeFiles/pb_remote_server_nrf52832_xxAA_s132_6.0.0.dir/__/__/__/mesh/core/src/packet_mgr.c.obj
                0x00028cf4                packet_mgr_init
 .text.flash_store_iv_index
                0x00028d40       0x38 examples/pb_remote/server/CMakeFiles/pb_remote_server_nrf52832_xxAA_s132_6.0.0.dir/__/__/__/mesh/core/src/net_state.c.obj
 .text.flash_mem_available
                0x00028d78       0x14 examples/pb_remote/server/CMakeFiles/pb_remote_server_nrf52832_xxAA_s132_6.0.0.dir/__/__/__/mesh/core/src/net_state.c.obj
 .text.seqnum_block_allocate
                0x00028d8c       0x4c examples/pb_remote/server/CMakeFiles/pb_remote_server_nrf52832_xxAA_s132_6.0.0.dir/__/__/__/mesh/core/src/net_state.c.obj
 .text.net_state_reset
                0x00028dd8       0x3c examples/pb_remote/server/CMakeFiles/pb_remote_server_nrf52832_xxAA_s132_6.0.0.dir/__/__/__/mesh/core/src/net_state.c.obj
                0x00028dd8                net_state_reset
 .text.flash_write_complete
                0x00028e14       0x64 examples/pb_remote/server/CMakeFiles/pb_remote_server_nrf52832_xxAA_s132_6.0.0.dir/__/__/__/mesh/core/src/net_state.c.obj
 .text.net_state_recover_from_flash
                0x00028e78       0x8c examples/pb_remote/server/CMakeFiles/pb_remote_server_nrf52832_xxAA_s132_6.0.0.dir/__/__/__/mesh/core/src/net_state.c.obj
                0x00028e78                net_state_recover_from_flash
 .text.net_state_flash_area_get
                0x00028f04        0xc examples/pb_remote/server/CMakeFiles/pb_remote_server_nrf52832_xxAA_s132_6.0.0.dir/__/__/__/mesh/core/src/net_state.c.obj
                0x00028f04                net_state_flash_area_get
 .text.init_flash_storage
                0x00028f10       0x40 examples/pb_remote/server/CMakeFiles/pb_remote_server_nrf52832_xxAA_s132_6.0.0.dir/__/__/__/mesh/core/src/net_state.c.obj
 .text.net_state_init
                0x00028f50       0x5c examples/pb_remote/server/CMakeFiles/pb_remote_server_nrf52832_xxAA_s132_6.0.0.dir/__/__/__/mesh/core/src/net_state.c.obj
                0x00028f50                net_state_init
 .text.net_state_iv_update_start
                0x00028fac       0x68 examples/pb_remote/server/CMakeFiles/pb_remote_server_nrf52832_xxAA_s132_6.0.0.dir/__/__/__/mesh/core/src/net_state.c.obj
                0x00028fac                net_state_iv_update_start
 .text.iv_update_trigger_if_pending
                0x00029014       0x80 examples/pb_remote/server/CMakeFiles/pb_remote_server_nrf52832_xxAA_s132_6.0.0.dir/__/__/__/mesh/core/src/net_state.c.obj
 .text.mesh_evt_handler
                0x00029094       0xa0 examples/pb_remote/server/CMakeFiles/pb_remote_server_nrf52832_xxAA_s132_6.0.0.dir/__/__/__/mesh/core/src/net_state.c.obj
 .text.iv_update_timer_handler
                0x00029134       0x68 examples/pb_remote/server/CMakeFiles/pb_remote_server_nrf52832_xxAA_s132_6.0.0.dir/__/__/__/mesh/core/src/net_state.c.obj
 .text.net_state_seqnum_alloc
                0x0002919c       0x68 examples/pb_remote/server/CMakeFiles/pb_remote_server_nrf52832_xxAA_s132_6.0.0.dir/__/__/__/mesh/core/src/net_state.c.obj
                0x0002919c                net_state_seqnum_alloc
 .text.net_state_iv_index_lock
                0x00029204       0x3c examples/pb_remote/server/CMakeFiles/pb_remote_server_nrf52832_xxAA_s132_6.0.0.dir/__/__/__/mesh/core/src/net_state.c.obj
                0x00029204                net_state_iv_index_lock
 .text.net_state_key_refresh_phase_changed
                0x00029240       0x20 examples/pb_remote/server/CMakeFiles/pb_remote_server_nrf52832_xxAA_s132_6.0.0.dir/__/__/__/mesh/core/src/net_state.c.obj
                0x00029240                net_state_key_refresh_phase_changed
 .text.net_state_beacon_iv_index_get
                0x00029260        0xc examples/pb_remote/server/CMakeFiles/pb_remote_server_nrf52832_xxAA_s132_6.0.0.dir/__/__/__/mesh/core/src/net_state.c.obj
                0x00029260                net_state_beacon_iv_index_get
 .text.net_state_tx_iv_index_get
                0x0002926c       0x14 examples/pb_remote/server/CMakeFiles/pb_remote_server_nrf52832_xxAA_s132_6.0.0.dir/__/__/__/mesh/core/src/net_state.c.obj
                0x0002926c                net_state_tx_iv_index_get
 .text.net_state_rx_iv_index_get
                0x00029280       0x18 examples/pb_remote/server/CMakeFiles/pb_remote_server_nrf52832_xxAA_s132_6.0.0.dir/__/__/__/mesh/core/src/net_state.c.obj
                0x00029280                net_state_rx_iv_index_get
 .text.net_state_iv_update_get
                0x00029298        0xc examples/pb_remote/server/CMakeFiles/pb_remote_server_nrf52832_xxAA_s132_6.0.0.dir/__/__/__/mesh/core/src/net_state.c.obj
                0x00029298                net_state_iv_update_get
 .text.net_state_iv_index_set
                0x000292a4       0x30 examples/pb_remote/server/CMakeFiles/pb_remote_server_nrf52832_xxAA_s132_6.0.0.dir/__/__/__/mesh/core/src/net_state.c.obj
                0x000292a4                net_state_iv_index_set
 .text.send_end_events
                0x000292d4       0x84 examples/pb_remote/server/CMakeFiles/pb_remote_server_nrf52832_xxAA_s132_6.0.0.dir/__/__/__/mesh/core/src/mesh_flash.c.obj
 .text.flash_op_schedule
                0x00029358       0x88 examples/pb_remote/server/CMakeFiles/pb_remote_server_nrf52832_xxAA_s132_6.0.0.dir/__/__/__/mesh/core/src/mesh_flash.c.obj
 .text.flash_op_start
                0x000293e0      0x13c examples/pb_remote/server/CMakeFiles/pb_remote_server_nrf52832_xxAA_s132_6.0.0.dir/__/__/__/mesh/core/src/mesh_flash.c.obj
 .text.mesh_flash_init
                0x0002951c       0x88 examples/pb_remote/server/CMakeFiles/pb_remote_server_nrf52832_xxAA_s132_6.0.0.dir/__/__/__/mesh/core/src/mesh_flash.c.obj
                0x0002951c                mesh_flash_init
 .text.mesh_flash_user_callback_set
                0x000295a4       0x20 examples/pb_remote/server/CMakeFiles/pb_remote_server_nrf52832_xxAA_s132_6.0.0.dir/__/__/__/mesh/core/src/mesh_flash.c.obj
                0x000295a4                mesh_flash_user_callback_set
 .text.mesh_flash_op_push
                0x000295c4       0xe4 examples/pb_remote/server/CMakeFiles/pb_remote_server_nrf52832_xxAA_s132_6.0.0.dir/__/__/__/mesh/core/src/mesh_flash.c.obj
                0x000295c4                mesh_flash_op_push
 .text.nrf_mesh_address_type_get
                0x000296a8       0x10 examples/pb_remote/server/CMakeFiles/pb_remote_server_nrf52832_xxAA_s132_6.0.0.dir/__/__/__/mesh/core/src/nrf_mesh_utils.c.obj
                0x000296a8                nrf_mesh_address_type_get
 .text.sd_softdevice_is_enabled
                0x000296b8        0x4 examples/pb_remote/server/CMakeFiles/pb_remote_server_nrf52832_xxAA_s132_6.0.0.dir/__/__/__/mesh/core/src/nrf_mesh.c.obj
 .text.nrf_mesh_listen
                0x000296bc      0x138 examples/pb_remote/server/CMakeFiles/pb_remote_server_nrf52832_xxAA_s132_6.0.0.dir/__/__/__/mesh/core/src/nrf_mesh.c.obj
 .text.flash_stable_cb
                0x000297f4       0x20 examples/pb_remote/server/CMakeFiles/pb_remote_server_nrf52832_xxAA_s132_6.0.0.dir/__/__/__/mesh/core/src/nrf_mesh.c.obj
 .text.scanner_packet_process_cb
                0x00029814       0x8c examples/pb_remote/server/CMakeFiles/pb_remote_server_nrf52832_xxAA_s132_6.0.0.dir/__/__/__/mesh/core/src/nrf_mesh.c.obj
 .text.nrf_mesh_init
                0x000298a0       0xd8 examples/pb_remote/server/CMakeFiles/pb_remote_server_nrf52832_xxAA_s132_6.0.0.dir/__/__/__/mesh/core/src/nrf_mesh.c.obj
                0x000298a0                nrf_mesh_init
 .text.nrf_mesh_enable
                0x00029978       0x3c examples/pb_remote/server/CMakeFiles/pb_remote_server_nrf52832_xxAA_s132_6.0.0.dir/__/__/__/mesh/core/src/nrf_mesh.c.obj
                0x00029978                nrf_mesh_enable
 .text.nrf_mesh_packet_send
                0x000299b4       0x7c examples/pb_remote/server/CMakeFiles/pb_remote_server_nrf52832_xxAA_s132_6.0.0.dir/__/__/__/mesh/core/src/nrf_mesh.c.obj
                0x000299b4                nrf_mesh_packet_send
 .text.nrf_mesh_evt_handler_add
                0x00029a30        0x4 examples/pb_remote/server/CMakeFiles/pb_remote_server_nrf52832_xxAA_s132_6.0.0.dir/__/__/__/mesh/core/src/nrf_mesh.c.obj
                0x00029a30                nrf_mesh_evt_handler_add
 .text.nrf_mesh_on_sd_evt
                0x00029a34        0xa examples/pb_remote/server/CMakeFiles/pb_remote_server_nrf52832_xxAA_s132_6.0.0.dir/__/__/__/mesh/core/src/nrf_mesh.c.obj
                0x00029a34                nrf_mesh_on_sd_evt
 .text.nrf_mesh_subnet_added
                0x00029a3e        0x2 examples/pb_remote/server/CMakeFiles/pb_remote_server_nrf52832_xxAA_s132_6.0.0.dir/__/__/__/mesh/core/src/nrf_mesh.c.obj
                0x00029a3e                nrf_mesh_subnet_added
 .text.nrf_mesh_unique_token_get
                0x00029a40       0x18 examples/pb_remote/server/CMakeFiles/pb_remote_server_nrf52832_xxAA_s132_6.0.0.dir/__/__/__/mesh/core/src/nrf_mesh.c.obj
                0x00029a40                nrf_mesh_unique_token_get
 .text.queue_init
                0x00029a58       0x14 examples/pb_remote/server/CMakeFiles/pb_remote_server_nrf52832_xxAA_s132_6.0.0.dir/__/__/__/mesh/core/src/queue.c.obj
                0x00029a58                queue_init
 .text.queue_push
                0x00029a6c       0x34 examples/pb_remote/server/CMakeFiles/pb_remote_server_nrf52832_xxAA_s132_6.0.0.dir/__/__/__/mesh/core/src/queue.c.obj
                0x00029a6c                queue_push
 .text.queue_pop
                0x00029aa0       0x26 examples/pb_remote/server/CMakeFiles/pb_remote_server_nrf52832_xxAA_s132_6.0.0.dir/__/__/__/mesh/core/src/queue.c.obj
                0x00029aa0                queue_pop
 .text.queue_peek
                0x00029ac6       0x10 examples/pb_remote/server/CMakeFiles/pb_remote_server_nrf52832_xxAA_s132_6.0.0.dir/__/__/__/mesh/core/src/queue.c.obj
                0x00029ac6                queue_peek
 *fill*         0x00029ad6        0x2 
 .text.hal_lfclk_ppm_get
                0x00029ad8       0x14 examples/pb_remote/server/CMakeFiles/pb_remote_server_nrf52832_xxAA_s132_6.0.0.dir/__/__/__/mesh/core/src/hal.c.obj
                0x00029ad8                hal_lfclk_ppm_get
 .text.sd_ecb_block_encrypt
                0x00029aec        0x4 examples/pb_remote/server/CMakeFiles/pb_remote_server_nrf52832_xxAA_s132_6.0.0.dir/__/__/__/mesh/core/src/aes_cmac.c.obj
 .text.utils_xor.constprop.1
                0x00029af0       0x20 examples/pb_remote/server/CMakeFiles/pb_remote_server_nrf52832_xxAA_s132_6.0.0.dir/__/__/__/mesh/core/src/aes_cmac.c.obj
 .text.aes_cmac
                0x00029b10      0x112 examples/pb_remote/server/CMakeFiles/pb_remote_server_nrf52832_xxAA_s132_6.0.0.dir/__/__/__/mesh/core/src/aes_cmac.c.obj
                0x00029b10                aes_cmac
 *fill*         0x00029c22        0x2 
 .text.add_to_add_list
                0x00029c24       0x30 examples/pb_remote/server/CMakeFiles/pb_remote_server_nrf52832_xxAA_s132_6.0.0.dir/__/__/__/mesh/core/src/timer_scheduler.c.obj
 .text.process_dirty_events
                0x00029c54       0x5c examples/pb_remote/server/CMakeFiles/pb_remote_server_nrf52832_xxAA_s132_6.0.0.dir/__/__/__/mesh/core/src/timer_scheduler.c.obj
 .text.timer_cb
                0x00029cb0        0xc examples/pb_remote/server/CMakeFiles/pb_remote_server_nrf52832_xxAA_s132_6.0.0.dir/__/__/__/mesh/core/src/timer_scheduler.c.obj
 .text.add_evt.constprop.1
                0x00029cbc       0x58 examples/pb_remote/server/CMakeFiles/pb_remote_server_nrf52832_xxAA_s132_6.0.0.dir/__/__/__/mesh/core/src/timer_scheduler.c.obj
 .text.process_add_list
                0x00029d14       0x3c examples/pb_remote/server/CMakeFiles/pb_remote_server_nrf52832_xxAA_s132_6.0.0.dir/__/__/__/mesh/core/src/timer_scheduler.c.obj
 .text.flag_event_cb
                0x00029d50       0xd8 examples/pb_remote/server/CMakeFiles/pb_remote_server_nrf52832_xxAA_s132_6.0.0.dir/__/__/__/mesh/core/src/timer_scheduler.c.obj
 .text.timer_sch_init
                0x00029e28       0x24 examples/pb_remote/server/CMakeFiles/pb_remote_server_nrf52832_xxAA_s132_6.0.0.dir/__/__/__/mesh/core/src/timer_scheduler.c.obj
                0x00029e28                timer_sch_init
 .text.timer_sch_schedule
                0x00029e4c       0x3c examples/pb_remote/server/CMakeFiles/pb_remote_server_nrf52832_xxAA_s132_6.0.0.dir/__/__/__/mesh/core/src/timer_scheduler.c.obj
                0x00029e4c                timer_sch_schedule
 .text.timer_sch_abort
                0x00029e88       0x58 examples/pb_remote/server/CMakeFiles/pb_remote_server_nrf52832_xxAA_s132_6.0.0.dir/__/__/__/mesh/core/src/timer_scheduler.c.obj
                0x00029e88                timer_sch_abort
 .text.timer_sch_reschedule
                0x00029ee0       0x64 examples/pb_remote/server/CMakeFiles/pb_remote_server_nrf52832_xxAA_s132_6.0.0.dir/__/__/__/mesh/core/src/timer_scheduler.c.obj
                0x00029ee0                timer_sch_reschedule
 .text.timer_mut_unlock
                0x00029f44       0x10 examples/pb_remote/server/CMakeFiles/pb_remote_server_nrf52832_xxAA_s132_6.0.0.dir/__/__/__/mesh/core/src/timer.c.obj
 .text.timer_order_cb
                0x00029f54       0x94 examples/pb_remote/server/CMakeFiles/pb_remote_server_nrf52832_xxAA_s132_6.0.0.dir/__/__/__/mesh/core/src/timer.c.obj
                0x00029f54                timer_order_cb
 .text.timer_now
                0x00029fe8       0x48 examples/pb_remote/server/CMakeFiles/pb_remote_server_nrf52832_xxAA_s132_6.0.0.dir/__/__/__/mesh/core/src/timer.c.obj
                0x00029fe8                timer_now
 .text.timer_event_handler
                0x0002a030       0x84 examples/pb_remote/server/CMakeFiles/pb_remote_server_nrf52832_xxAA_s132_6.0.0.dir/__/__/__/mesh/core/src/timer.c.obj
                0x0002a030                timer_event_handler
 .text.timer_on_ts_begin
                0x0002a0b4       0xf4 examples/pb_remote/server/CMakeFiles/pb_remote_server_nrf52832_xxAA_s132_6.0.0.dir/__/__/__/mesh/core/src/timer.c.obj
                0x0002a0b4                timer_on_ts_begin
 .text.timer_on_ts_end
                0x0002a1a8       0x60 examples/pb_remote/server/CMakeFiles/pb_remote_server_nrf52832_xxAA_s132_6.0.0.dir/__/__/__/mesh/core/src/timer.c.obj
                0x0002a1a8                timer_on_ts_end
 .text.timer_cb
                0x0002a208       0x10 examples/pb_remote/server/CMakeFiles/pb_remote_server_nrf52832_xxAA_s132_6.0.0.dir/__/__/__/mesh/core/src/ticker.c.obj
 .text.ticker_init
                0x0002a218       0x3c examples/pb_remote/server/CMakeFiles/pb_remote_server_nrf52832_xxAA_s132_6.0.0.dir/__/__/__/mesh/core/src/ticker.c.obj
                0x0002a218                ticker_init
 .text.sd_rand_application_bytes_available_get
                0x0002a254        0x4 examples/pb_remote/server/CMakeFiles/pb_remote_server_nrf52832_xxAA_s132_6.0.0.dir/__/__/__/mesh/core/src/rand.c.obj
 .text.sd_rand_application_vector_get
                0x0002a258        0x4 examples/pb_remote/server/CMakeFiles/pb_remote_server_nrf52832_xxAA_s132_6.0.0.dir/__/__/__/mesh/core/src/rand.c.obj
 .text.rand_prng_get
                0x0002a25c       0x22 examples/pb_remote/server/CMakeFiles/pb_remote_server_nrf52832_xxAA_s132_6.0.0.dir/__/__/__/mesh/core/src/rand.c.obj
                0x0002a25c                rand_prng_get
 .text.rand_hw_rng_get
                0x0002a27e       0x44 examples/pb_remote/server/CMakeFiles/pb_remote_server_nrf52832_xxAA_s132_6.0.0.dir/__/__/__/mesh/core/src/rand.c.obj
                0x0002a27e                rand_hw_rng_get
 *fill*         0x0002a2c2        0x2 
 .text.rand_prng_seed
                0x0002a2c4       0x34 examples/pb_remote/server/CMakeFiles/pb_remote_server_nrf52832_xxAA_s132_6.0.0.dir/__/__/__/mesh/core/src/rand.c.obj
                0x0002a2c4                rand_prng_seed
 .text.nrf_mesh_opt_set
                0x0002a2f8       0x26 examples/pb_remote/server/CMakeFiles/pb_remote_server_nrf52832_xxAA_s132_6.0.0.dir/__/__/__/mesh/core/src/nrf_mesh_opt.c.obj
                0x0002a2f8                nrf_mesh_opt_set
 .text.nrf_mesh_opt_get
                0x0002a31e       0x26 examples/pb_remote/server/CMakeFiles/pb_remote_server_nrf52832_xxAA_s132_6.0.0.dir/__/__/__/mesh/core/src/nrf_mesh_opt.c.obj
                0x0002a31e                nrf_mesh_opt_get
 .text.sd_radio_session_open
                0x0002a344        0x4 examples/pb_remote/server/CMakeFiles/pb_remote_server_nrf52832_xxAA_s132_6.0.0.dir/__/__/__/mesh/core/src/timeslot.c.obj
 .text.sd_radio_session_close
                0x0002a348        0x4 examples/pb_remote/server/CMakeFiles/pb_remote_server_nrf52832_xxAA_s132_6.0.0.dir/__/__/__/mesh/core/src/timeslot.c.obj
 .text.sd_radio_request
                0x0002a34c        0x4 examples/pb_remote/server/CMakeFiles/pb_remote_server_nrf52832_xxAA_s132_6.0.0.dir/__/__/__/mesh/core/src/timeslot.c.obj
 .text.end_timer_handler
                0x0002a350       0x24 examples/pb_remote/server/CMakeFiles/pb_remote_server_nrf52832_xxAA_s132_6.0.0.dir/__/__/__/mesh/core/src/timeslot.c.obj
 .text.get_end_time.constprop.10
                0x0002a374       0x28 examples/pb_remote/server/CMakeFiles/pb_remote_server_nrf52832_xxAA_s132_6.0.0.dir/__/__/__/mesh/core/src/timeslot.c.obj
 .text.handle_extend_end.constprop.3
                0x0002a39c       0xb4 examples/pb_remote/server/CMakeFiles/pb_remote_server_nrf52832_xxAA_s132_6.0.0.dir/__/__/__/mesh/core/src/timeslot.c.obj
 .text.radio_signal_callback
                0x0002a450      0x138 examples/pb_remote/server/CMakeFiles/pb_remote_server_nrf52832_xxAA_s132_6.0.0.dir/__/__/__/mesh/core/src/timeslot.c.obj
 .text.timeslot_sd_event_handler
                0x0002a588       0x38 examples/pb_remote/server/CMakeFiles/pb_remote_server_nrf52832_xxAA_s132_6.0.0.dir/__/__/__/mesh/core/src/timeslot.c.obj
                0x0002a588                timeslot_sd_event_handler
 .text.timeslot_init
                0x0002a5c0       0x48 examples/pb_remote/server/CMakeFiles/pb_remote_server_nrf52832_xxAA_s132_6.0.0.dir/__/__/__/mesh/core/src/timeslot.c.obj
                0x0002a5c0                timeslot_init
 .text.timeslot_start
                0x0002a608       0x20 examples/pb_remote/server/CMakeFiles/pb_remote_server_nrf52832_xxAA_s132_6.0.0.dir/__/__/__/mesh/core/src/timeslot.c.obj
                0x0002a608                timeslot_start
 .text.timeslot_end_is_pending
                0x0002a628       0x24 examples/pb_remote/server/CMakeFiles/pb_remote_server_nrf52832_xxAA_s132_6.0.0.dir/__/__/__/mesh/core/src/timeslot.c.obj
                0x0002a628                timeslot_end_is_pending
 .text.timeslot_start_time_get
                0x0002a64c        0xc examples/pb_remote/server/CMakeFiles/pb_remote_server_nrf52832_xxAA_s132_6.0.0.dir/__/__/__/mesh/core/src/timeslot.c.obj
                0x0002a64c                timeslot_start_time_get
 .text.timeslot_remaining_time_get
                0x0002a658       0x20 examples/pb_remote/server/CMakeFiles/pb_remote_server_nrf52832_xxAA_s132_6.0.0.dir/__/__/__/mesh/core/src/timeslot.c.obj
                0x0002a658                timeslot_remaining_time_get
 .text.timeslot_is_in_cb
                0x0002a678        0xc examples/pb_remote/server/CMakeFiles/pb_remote_server_nrf52832_xxAA_s132_6.0.0.dir/__/__/__/mesh/core/src/timeslot.c.obj
                0x0002a678                timeslot_is_in_cb
 .text.timeslot_trigger
                0x0002a684       0x24 examples/pb_remote/server/CMakeFiles/pb_remote_server_nrf52832_xxAA_s132_6.0.0.dir/__/__/__/mesh/core/src/timeslot.c.obj
                0x0002a684                timeslot_trigger
 .text.timeslot_stop
                0x0002a6a8       0x10 examples/pb_remote/server/CMakeFiles/pb_remote_server_nrf52832_xxAA_s132_6.0.0.dir/__/__/__/mesh/core/src/timeslot.c.obj
                0x0002a6a8                timeslot_stop
 .text.timeslot_state_lock
                0x0002a6b8       0x28 examples/pb_remote/server/CMakeFiles/pb_remote_server_nrf52832_xxAA_s132_6.0.0.dir/__/__/__/mesh/core/src/timeslot.c.obj
                0x0002a6b8                timeslot_state_lock
 .text.trigger_event_handler
                0x0002a6e0       0x1c examples/pb_remote/server/CMakeFiles/pb_remote_server_nrf52832_xxAA_s132_6.0.0.dir/__/__/__/mesh/core/src/bearer_event.c.obj
 .text.evt_push
                0x0002a6fc       0x1c examples/pb_remote/server/CMakeFiles/pb_remote_server_nrf52832_xxAA_s132_6.0.0.dir/__/__/__/mesh/core/src/bearer_event.c.obj
 .text.bearer_event_init
                0x0002a718       0x48 examples/pb_remote/server/CMakeFiles/pb_remote_server_nrf52832_xxAA_s132_6.0.0.dir/__/__/__/mesh/core/src/bearer_event.c.obj
                0x0002a718                bearer_event_init
 .text.bearer_event_timer_post
                0x0002a760       0x24 examples/pb_remote/server/CMakeFiles/pb_remote_server_nrf52832_xxAA_s132_6.0.0.dir/__/__/__/mesh/core/src/bearer_event.c.obj
                0x0002a760                bearer_event_timer_post
 .text.bearer_event_critical_section_begin
                0x0002a784       0x44 examples/pb_remote/server/CMakeFiles/pb_remote_server_nrf52832_xxAA_s132_6.0.0.dir/__/__/__/mesh/core/src/bearer_event.c.obj
                0x0002a784                bearer_event_critical_section_begin
 .text.bearer_event_critical_section_end
                0x0002a7c8       0x40 examples/pb_remote/server/CMakeFiles/pb_remote_server_nrf52832_xxAA_s132_6.0.0.dir/__/__/__/mesh/core/src/bearer_event.c.obj
                0x0002a7c8                bearer_event_critical_section_end
 .text.bearer_event_flag_add
                0x0002a808       0x3c examples/pb_remote/server/CMakeFiles/pb_remote_server_nrf52832_xxAA_s132_6.0.0.dir/__/__/__/mesh/core/src/bearer_event.c.obj
                0x0002a808                bearer_event_flag_add
 .text.bearer_event_flag_set
                0x0002a844       0x44 examples/pb_remote/server/CMakeFiles/pb_remote_server_nrf52832_xxAA_s132_6.0.0.dir/__/__/__/mesh/core/src/bearer_event.c.obj
                0x0002a844                bearer_event_flag_set
 .text.bearer_event_sequential_add
                0x0002a888       0x2e examples/pb_remote/server/CMakeFiles/pb_remote_server_nrf52832_xxAA_s132_6.0.0.dir/__/__/__/mesh/core/src/bearer_event.c.obj
                0x0002a888                bearer_event_sequential_add
 *fill*         0x0002a8b6        0x2 
 .text.bearer_event_sequential_post
                0x0002a8b8       0x44 examples/pb_remote/server/CMakeFiles/pb_remote_server_nrf52832_xxAA_s132_6.0.0.dir/__/__/__/mesh/core/src/bearer_event.c.obj
                0x0002a8b8                bearer_event_sequential_post
 .text.bearer_event_sequential_pending
                0x0002a8fc       0x10 examples/pb_remote/server/CMakeFiles/pb_remote_server_nrf52832_xxAA_s132_6.0.0.dir/__/__/__/mesh/core/src/bearer_event.c.obj
                0x0002a8fc                bearer_event_sequential_pending
 .text.bearer_event_handler
                0x0002a90c       0xe8 examples/pb_remote/server/CMakeFiles/pb_remote_server_nrf52832_xxAA_s132_6.0.0.dir/__/__/__/mesh/core/src/bearer_event.c.obj
                0x0002a90c                bearer_event_handler
 .text.QDEC_IRQHandler
                0x0002a9f4        0x4 examples/pb_remote/server/CMakeFiles/pb_remote_server_nrf52832_xxAA_s132_6.0.0.dir/__/__/__/mesh/core/src/bearer_event.c.obj
                0x0002a9f4                QDEC_IRQHandler
 .text.sd_ecb_block_encrypt
                0x0002a9f8        0x4 examples/pb_remote/server/CMakeFiles/pb_remote_server_nrf52832_xxAA_s132_6.0.0.dir/__/__/__/mesh/core/src/enc.c.obj
 .text.enc_aes_encrypt
                0x0002a9fc       0x32 examples/pb_remote/server/CMakeFiles/pb_remote_server_nrf52832_xxAA_s132_6.0.0.dir/__/__/__/mesh/core/src/enc.c.obj
                0x0002a9fc                enc_aes_encrypt
 .text.enc_aes_cmac
                0x0002aa2e        0x4 examples/pb_remote/server/CMakeFiles/pb_remote_server_nrf52832_xxAA_s132_6.0.0.dir/__/__/__/mesh/core/src/enc.c.obj
                0x0002aa2e                enc_aes_cmac
 .text.enc_aes_ccm_encrypt
                0x0002aa32        0x4 examples/pb_remote/server/CMakeFiles/pb_remote_server_nrf52832_xxAA_s132_6.0.0.dir/__/__/__/mesh/core/src/enc.c.obj
                0x0002aa32                enc_aes_ccm_encrypt
 .text.enc_aes_ccm_decrypt
                0x0002aa36        0x4 examples/pb_remote/server/CMakeFiles/pb_remote_server_nrf52832_xxAA_s132_6.0.0.dir/__/__/__/mesh/core/src/enc.c.obj
                0x0002aa36                enc_aes_ccm_decrypt
 .text.enc_nonce_generate
                0x0002aa3a       0xbc examples/pb_remote/server/CMakeFiles/pb_remote_server_nrf52832_xxAA_s132_6.0.0.dir/__/__/__/mesh/core/src/enc.c.obj
                0x0002aa3a                enc_nonce_generate
 .text.enc_s1   0x0002aaf6       0x2c examples/pb_remote/server/CMakeFiles/pb_remote_server_nrf52832_xxAA_s132_6.0.0.dir/__/__/__/mesh/core/src/enc.c.obj
                0x0002aaf6                enc_s1
 .text.enc_k1   0x0002ab22       0x3c examples/pb_remote/server/CMakeFiles/pb_remote_server_nrf52832_xxAA_s132_6.0.0.dir/__/__/__/mesh/core/src/enc.c.obj
                0x0002ab22                enc_k1
 *fill*         0x0002ab5e        0x2 
 .text.enc_k2   0x0002ab60       0xc8 examples/pb_remote/server/CMakeFiles/pb_remote_server_nrf52832_xxAA_s132_6.0.0.dir/__/__/__/mesh/core/src/enc.c.obj
                0x0002ab60                enc_k2
 .text.enc_k3   0x0002ac28       0x5c examples/pb_remote/server/CMakeFiles/pb_remote_server_nrf52832_xxAA_s132_6.0.0.dir/__/__/__/mesh/core/src/enc.c.obj
                0x0002ac28                enc_k3
 .text.enc_k4   0x0002ac84       0x54 examples/pb_remote/server/CMakeFiles/pb_remote_server_nrf52832_xxAA_s132_6.0.0.dir/__/__/__/mesh/core/src/enc.c.obj
                0x0002ac84                enc_k4
 .text.allocate_packet
                0x0002acd8       0x6a examples/pb_remote/server/CMakeFiles/pb_remote_server_nrf52832_xxAA_s132_6.0.0.dir/__/__/__/mesh/core/src/network.c.obj
 *fill*         0x0002ad42        0x2 
 .text.network_init
                0x0002ad44       0x2c examples/pb_remote/server/CMakeFiles/pb_remote_server_nrf52832_xxAA_s132_6.0.0.dir/__/__/__/mesh/core/src/network.c.obj
                0x0002ad44                network_init
 .text.network_opt_set
                0x0002ad70       0x84 examples/pb_remote/server/CMakeFiles/pb_remote_server_nrf52832_xxAA_s132_6.0.0.dir/__/__/__/mesh/core/src/network.c.obj
                0x0002ad70                network_opt_set
 .text.network_opt_get
                0x0002adf4       0x4c examples/pb_remote/server/CMakeFiles/pb_remote_server_nrf52832_xxAA_s132_6.0.0.dir/__/__/__/mesh/core/src/network.c.obj
                0x0002adf4                network_opt_get
 .text.network_packet_alloc
                0x0002ae40       0x30 examples/pb_remote/server/CMakeFiles/pb_remote_server_nrf52832_xxAA_s132_6.0.0.dir/__/__/__/mesh/core/src/network.c.obj
                0x0002ae40                network_packet_alloc
 .text.network_packet_send
                0x0002ae70       0x46 examples/pb_remote/server/CMakeFiles/pb_remote_server_nrf52832_xxAA_s132_6.0.0.dir/__/__/__/mesh/core/src/network.c.obj
                0x0002ae70                network_packet_send
 *fill*         0x0002aeb6        0x2 
 .text.network_packet_in
                0x0002aeb8      0x168 examples/pb_remote/server/CMakeFiles/pb_remote_server_nrf52832_xxAA_s132_6.0.0.dir/__/__/__/mesh/core/src/network.c.obj
                0x0002aeb8                network_packet_in
 .text.nonce_type_get
                0x0002b020       0x16 examples/pb_remote/server/CMakeFiles/pb_remote_server_nrf52832_xxAA_s132_6.0.0.dir/__/__/__/mesh/core/src/net_packet.c.obj
 .text.header_transfuscate
                0x0002b036       0x54 examples/pb_remote/server/CMakeFiles/pb_remote_server_nrf52832_xxAA_s132_6.0.0.dir/__/__/__/mesh/core/src/net_packet.c.obj
 *fill*         0x0002b08a        0x2 
 .text.net_packet_decrypt
                0x0002b08c      0x224 examples/pb_remote/server/CMakeFiles/pb_remote_server_nrf52832_xxAA_s132_6.0.0.dir/__/__/__/mesh/core/src/net_packet.c.obj
                0x0002b08c                net_packet_decrypt
 .text.net_packet_encrypt
                0x0002b2b0       0x7e examples/pb_remote/server/CMakeFiles/pb_remote_server_nrf52832_xxAA_s132_6.0.0.dir/__/__/__/mesh/core/src/net_packet.c.obj
                0x0002b2b0                net_packet_encrypt
 .text.net_packet_header_set
                0x0002b32e       0xaa examples/pb_remote/server/CMakeFiles/pb_remote_server_nrf52832_xxAA_s132_6.0.0.dir/__/__/__/mesh/core/src/net_packet.c.obj
                0x0002b32e                net_packet_header_set
 .text.net_packet_payload_len_get
                0x0002b3d8       0x10 examples/pb_remote/server/CMakeFiles/pb_remote_server_nrf52832_xxAA_s132_6.0.0.dir/__/__/__/mesh/core/src/net_packet.c.obj
                0x0002b3d8                net_packet_payload_len_get
 .text.net_packet_from_payload
                0x0002b3e8        0x4 examples/pb_remote/server/CMakeFiles/pb_remote_server_nrf52832_xxAA_s132_6.0.0.dir/__/__/__/mesh/core/src/net_packet.c.obj
                0x0002b3e8                net_packet_from_payload
 .text.net_packet_obfuscation_start_get
                0x0002b3ec        0x4 examples/pb_remote/server/CMakeFiles/pb_remote_server_nrf52832_xxAA_s132_6.0.0.dir/__/__/__/mesh/core/src/net_packet.c.obj
                0x0002b3ec                net_packet_obfuscation_start_get
 .text.stage_get_available
                0x0002b3f0       0x24 examples/pb_remote/server/CMakeFiles/pb_remote_server_nrf52832_xxAA_s132_6.0.0.dir/__/__/__/mesh/core/src/msqueue.c.obj
 .text.msq_get  0x0002b414       0x38 examples/pb_remote/server/CMakeFiles/pb_remote_server_nrf52832_xxAA_s132_6.0.0.dir/__/__/__/mesh/core/src/msqueue.c.obj
                0x0002b414                msq_get
 .text.msq_move
                0x0002b44c       0x2e examples/pb_remote/server/CMakeFiles/pb_remote_server_nrf52832_xxAA_s132_6.0.0.dir/__/__/__/mesh/core/src/msqueue.c.obj
                0x0002b44c                msq_move
 .text.msq_reset
                0x0002b47a       0x20 examples/pb_remote/server/CMakeFiles/pb_remote_server_nrf52832_xxAA_s132_6.0.0.dir/__/__/__/mesh/core/src/msqueue.c.obj
                0x0002b47a                msq_reset
 .text.msq_init
                0x0002b49a       0x4a examples/pb_remote/server/CMakeFiles/pb_remote_server_nrf52832_xxAA_s132_6.0.0.dir/__/__/__/mesh/core/src/msqueue.c.obj
                0x0002b49a                msq_init
 .text.msq_available
                0x0002b4e4       0x26 examples/pb_remote/server/CMakeFiles/pb_remote_server_nrf52832_xxAA_s132_6.0.0.dir/__/__/__/mesh/core/src/msqueue.c.obj
                0x0002b4e4                msq_available
 .text.nrf_mesh_keygen_aid
                0x0002b50a       0x12 examples/pb_remote/server/CMakeFiles/pb_remote_server_nrf52832_xxAA_s132_6.0.0.dir/__/__/__/mesh/core/src/nrf_mesh_keygen.c.obj
                0x0002b50a                nrf_mesh_keygen_aid
 .text.nrf_mesh_keygen_network_secmat
                0x0002b51c       0x20 examples/pb_remote/server/CMakeFiles/pb_remote_server_nrf52832_xxAA_s132_6.0.0.dir/__/__/__/mesh/core/src/nrf_mesh_keygen.c.obj
                0x0002b51c                nrf_mesh_keygen_network_secmat
 .text.nrf_mesh_keygen_beacon_secmat
                0x0002b53c       0x50 examples/pb_remote/server/CMakeFiles/pb_remote_server_nrf52832_xxAA_s132_6.0.0.dir/__/__/__/mesh/core/src/nrf_mesh_keygen.c.obj
                0x0002b53c                nrf_mesh_keygen_beacon_secmat
 .text.nrf_mesh_keygen_virtual_address
                0x0002b58c       0x50 examples/pb_remote/server/CMakeFiles/pb_remote_server_nrf52832_xxAA_s132_6.0.0.dir/__/__/__/mesh/core/src/nrf_mesh_keygen.c.obj
                0x0002b58c                nrf_mesh_keygen_virtual_address
 .text.list_insert
                0x0002b5dc       0x1c examples/pb_remote/server/CMakeFiles/pb_remote_server_nrf52832_xxAA_s132_6.0.0.dir/__/__/__/mesh/core/src/list.c.obj
 .text.list_add
                0x0002b5f8       0x42 examples/pb_remote/server/CMakeFiles/pb_remote_server_nrf52832_xxAA_s132_6.0.0.dir/__/__/__/mesh/core/src/list.c.obj
                0x0002b5f8                list_add
 .text.list_remove
                0x0002b63a       0x3a examples/pb_remote/server/CMakeFiles/pb_remote_server_nrf52832_xxAA_s132_6.0.0.dir/__/__/__/mesh/core/src/list.c.obj
                0x0002b63a                list_remove
 .text.list_compare_add
                0x0002b674       0x56 examples/pb_remote/server/CMakeFiles/pb_remote_server_nrf52832_xxAA_s132_6.0.0.dir/__/__/__/mesh/core/src/list.c.obj
                0x0002b674                list_compare_add
 *fill*         0x0002b6ca        0x2 
 .text.log_callback_rtt
                0x0002b6cc       0x2c examples/pb_remote/server/CMakeFiles/pb_remote_server_nrf52832_xxAA_s132_6.0.0.dir/__/__/__/mesh/core/src/log.c.obj
                0x0002b6cc                log_callback_rtt
 .text.log_init
                0x0002b6f8       0x1c examples/pb_remote/server/CMakeFiles/pb_remote_server_nrf52832_xxAA_s132_6.0.0.dir/__/__/__/mesh/core/src/log.c.obj
                0x0002b6f8                log_init
 .text.log_vprintf
                0x0002b714       0x18 examples/pb_remote/server/CMakeFiles/pb_remote_server_nrf52832_xxAA_s132_6.0.0.dir/__/__/__/mesh/core/src/log.c.obj
                0x0002b714                log_vprintf
 .text.log_printf
                0x0002b72c       0x18 examples/pb_remote/server/CMakeFiles/pb_remote_server_nrf52832_xxAA_s132_6.0.0.dir/__/__/__/mesh/core/src/log.c.obj
                0x0002b72c                log_printf
 .text.get_area_end
                0x0002b744        0xc examples/pb_remote/server/CMakeFiles/pb_remote_server_nrf52832_xxAA_s132_6.0.0.dir/__/__/__/mesh/core/src/flash_manager.c.obj
 .text.handle_matches_filter
                0x0002b750       0x26 examples/pb_remote/server/CMakeFiles/pb_remote_server_nrf52832_xxAA_s132_6.0.0.dir/__/__/__/mesh/core/src/flash_manager.c.obj
 .text.flash_area_is_blank
                0x0002b776       0x34 examples/pb_remote/server/CMakeFiles/pb_remote_server_nrf52832_xxAA_s132_6.0.0.dir/__/__/__/mesh/core/src/flash_manager.c.obj
 *fill*         0x0002b7aa        0x2 
 .text.get_packet_buffer
                0x0002b7ac       0x20 examples/pb_remote/server/CMakeFiles/pb_remote_server_nrf52832_xxAA_s132_6.0.0.dir/__/__/__/mesh/core/src/flash_manager.c.obj
 .text.flash    0x0002b7cc       0x1c examples/pb_remote/server/CMakeFiles/pb_remote_server_nrf52832_xxAA_s132_6.0.0.dir/__/__/__/mesh/core/src/flash_manager.c.obj
 .text.free_packet_buffer
                0x0002b7e8       0x3c examples/pb_remote/server/CMakeFiles/pb_remote_server_nrf52832_xxAA_s132_6.0.0.dir/__/__/__/mesh/core/src/flash_manager.c.obj
 .text.reserve_action_buffer
                0x0002b824       0x24 examples/pb_remote/server/CMakeFiles/pb_remote_server_nrf52832_xxAA_s132_6.0.0.dir/__/__/__/mesh/core/src/flash_manager.c.obj
 .text.commit_action_buffer
                0x0002b848       0x18 examples/pb_remote/server/CMakeFiles/pb_remote_server_nrf52832_xxAA_s132_6.0.0.dir/__/__/__/mesh/core/src/flash_manager.c.obj
 .text.schedule_processing
                0x0002b860        0xc examples/pb_remote/server/CMakeFiles/pb_remote_server_nrf52832_xxAA_s132_6.0.0.dir/__/__/__/mesh/core/src/flash_manager.c.obj
 .text.get_next_entry
                0x0002b86c       0x34 examples/pb_remote/server/CMakeFiles/pb_remote_server_nrf52832_xxAA_s132_6.0.0.dir/__/__/__/mesh/core/src/flash_manager.c.obj
 .text.get_last_entry.isra.1
                0x0002b8a0       0x30 examples/pb_remote/server/CMakeFiles/pb_remote_server_nrf52832_xxAA_s132_6.0.0.dir/__/__/__/mesh/core/src/flash_manager.c.obj
 .text.process_action_queue
                0x0002b8d0      0x3b0 examples/pb_remote/server/CMakeFiles/pb_remote_server_nrf52832_xxAA_s132_6.0.0.dir/__/__/__/mesh/core/src/flash_manager.c.obj
 .text.flash_op_ended_callback
                0x0002bc80       0x24 examples/pb_remote/server/CMakeFiles/pb_remote_server_nrf52832_xxAA_s132_6.0.0.dir/__/__/__/mesh/core/src/flash_manager.c.obj
 .text.flash_manager_init
                0x0002bca4       0x68 examples/pb_remote/server/CMakeFiles/pb_remote_server_nrf52832_xxAA_s132_6.0.0.dir/__/__/__/mesh/core/src/flash_manager.c.obj
                0x0002bca4                flash_manager_init
 .text.flash_manager_remove
                0x0002bd0c       0x24 examples/pb_remote/server/CMakeFiles/pb_remote_server_nrf52832_xxAA_s132_6.0.0.dir/__/__/__/mesh/core/src/flash_manager.c.obj
                0x0002bd0c                flash_manager_remove
 .text.flash_manager_entry_get
                0x0002bd30       0x3c examples/pb_remote/server/CMakeFiles/pb_remote_server_nrf52832_xxAA_s132_6.0.0.dir/__/__/__/mesh/core/src/flash_manager.c.obj
                0x0002bd30                flash_manager_entry_get
 .text.flash_manager_entry_next_get
                0x0002bd6c       0x60 examples/pb_remote/server/CMakeFiles/pb_remote_server_nrf52832_xxAA_s132_6.0.0.dir/__/__/__/mesh/core/src/flash_manager.c.obj
                0x0002bd6c                flash_manager_entry_next_get
 .text.flash_manager_entry_alloc
                0x0002bdcc       0x5c examples/pb_remote/server/CMakeFiles/pb_remote_server_nrf52832_xxAA_s132_6.0.0.dir/__/__/__/mesh/core/src/flash_manager.c.obj
                0x0002bdcc                flash_manager_entry_alloc
 .text.flash_manager_entry_commit
                0x0002be28       0x2c examples/pb_remote/server/CMakeFiles/pb_remote_server_nrf52832_xxAA_s132_6.0.0.dir/__/__/__/mesh/core/src/flash_manager.c.obj
                0x0002be28                flash_manager_entry_commit
 .text.flash_manager_entry_invalidate
                0x0002be54       0x4e examples/pb_remote/server/CMakeFiles/pb_remote_server_nrf52832_xxAA_s132_6.0.0.dir/__/__/__/mesh/core/src/flash_manager.c.obj
                0x0002be54                flash_manager_entry_invalidate
 .text.flash_manager_add
                0x0002bea2      0x1f6 examples/pb_remote/server/CMakeFiles/pb_remote_server_nrf52832_xxAA_s132_6.0.0.dir/__/__/__/mesh/core/src/flash_manager.c.obj
                0x0002bea2                flash_manager_add
 .text.flash_manager_mem_listener_register
                0x0002c098       0x30 examples/pb_remote/server/CMakeFiles/pb_remote_server_nrf52832_xxAA_s132_6.0.0.dir/__/__/__/mesh/core/src/flash_manager.c.obj
                0x0002c098                flash_manager_mem_listener_register
 .text.flash_manager_is_stable
                0x0002c0c8       0x24 examples/pb_remote/server/CMakeFiles/pb_remote_server_nrf52832_xxAA_s132_6.0.0.dir/__/__/__/mesh/core/src/flash_manager.c.obj
                0x0002c0c8                flash_manager_is_stable
 .text.flash_manager_on_defrag_end
                0x0002c0ec       0x4c examples/pb_remote/server/CMakeFiles/pb_remote_server_nrf52832_xxAA_s132_6.0.0.dir/__/__/__/mesh/core/src/flash_manager.c.obj
                0x0002c0ec                flash_manager_on_defrag_end
 .text.flash_manager_recovery_page_get
                0x0002c138        0x4 examples/pb_remote/server/CMakeFiles/pb_remote_server_nrf52832_xxAA_s132_6.0.0.dir/__/__/__/mesh/core/src/flash_manager.c.obj
                0x0002c138                flash_manager_recovery_page_get
 .text.flash_manager_action_queue_empty_cb_set
                0x0002c13c       0x1c examples/pb_remote/server/CMakeFiles/pb_remote_server_nrf52832_xxAA_s132_6.0.0.dir/__/__/__/mesh/core/src/flash_manager.c.obj
                0x0002c13c                flash_manager_action_queue_empty_cb_set
 .text.utils_xor
                0x0002c158       0x14 examples/pb_remote/server/CMakeFiles/pb_remote_server_nrf52832_xxAA_s132_6.0.0.dir/__/__/__/mesh/core/src/ccm_soft.c.obj
 .text.sd_ecb_block_encrypt
                0x0002c16c        0x4 examples/pb_remote/server/CMakeFiles/pb_remote_server_nrf52832_xxAA_s132_6.0.0.dir/__/__/__/mesh/core/src/ccm_soft.c.obj
 .text.ccm_soft_crypt
                0x0002c170       0x4c examples/pb_remote/server/CMakeFiles/pb_remote_server_nrf52832_xxAA_s132_6.0.0.dir/__/__/__/mesh/core/src/ccm_soft.c.obj
 .text.ccm_soft_authenticate_blocks
                0x0002c1bc       0x6c examples/pb_remote/server/CMakeFiles/pb_remote_server_nrf52832_xxAA_s132_6.0.0.dir/__/__/__/mesh/core/src/ccm_soft.c.obj
 .text.ccm_soft_authenticate
                0x0002c228       0x94 examples/pb_remote/server/CMakeFiles/pb_remote_server_nrf52832_xxAA_s132_6.0.0.dir/__/__/__/mesh/core/src/ccm_soft.c.obj
 .text.ccm_soft_encrypt
                0x0002c2bc       0x54 examples/pb_remote/server/CMakeFiles/pb_remote_server_nrf52832_xxAA_s132_6.0.0.dir/__/__/__/mesh/core/src/ccm_soft.c.obj
                0x0002c2bc                ccm_soft_encrypt
 .text.ccm_soft_decrypt
                0x0002c310       0x98 examples/pb_remote/server/CMakeFiles/pb_remote_server_nrf52832_xxAA_s132_6.0.0.dir/__/__/__/mesh/core/src/ccm_soft.c.obj
                0x0002c310                ccm_soft_decrypt
 .text.replay_cache_add
                0x0002c3a8       0x50 examples/pb_remote/server/CMakeFiles/pb_remote_server_nrf52832_xxAA_s132_6.0.0.dir/__/__/__/mesh/core/src/replay_cache.c.obj
                0x0002c3a8                replay_cache_add
 .text.replay_cache_has_elem
                0x0002c3f8       0x38 examples/pb_remote/server/CMakeFiles/pb_remote_server_nrf52832_xxAA_s132_6.0.0.dir/__/__/__/mesh/core/src/replay_cache.c.obj
                0x0002c3f8                replay_cache_has_elem
 .text.replay_cache_clear
                0x0002c430       0x20 examples/pb_remote/server/CMakeFiles/pb_remote_server_nrf52832_xxAA_s132_6.0.0.dir/__/__/__/mesh/core/src/replay_cache.c.obj
                0x0002c430                replay_cache_clear
 .text.replay_cache_init
                0x0002c450        0x4 examples/pb_remote/server/CMakeFiles/pb_remote_server_nrf52832_xxAA_s132_6.0.0.dir/__/__/__/mesh/core/src/replay_cache.c.obj
                0x0002c450                replay_cache_init
 .text.beacon_create
                0x0002c454       0x46 examples/pb_remote/server/CMakeFiles/pb_remote_server_nrf52832_xxAA_s132_6.0.0.dir/__/__/__/mesh/core/src/beacon.c.obj
                0x0002c454                beacon_create
 *fill*         0x0002c49a        0x2 
 .text.beacon_packet_in
                0x0002c49c      0x154 examples/pb_remote/server/CMakeFiles/pb_remote_server_nrf52832_xxAA_s132_6.0.0.dir/__/__/__/mesh/core/src/beacon.c.obj
                0x0002c49c                beacon_packet_in
 .text.entry_get
                0x0002c5f0       0x78 examples/pb_remote/server/CMakeFiles/pb_remote_server_nrf52832_xxAA_s132_6.0.0.dir/__/__/__/mesh/core/src/flash_manager_internal.c.obj
                0x0002c5f0                entry_get
 .text.core_tx_complete_cb_set
                0x0002c668        0xc examples/pb_remote/server/CMakeFiles/pb_remote_server_nrf52832_xxAA_s132_6.0.0.dir/__/__/__/mesh/core/src/core_tx.c.obj
                0x0002c668                core_tx_complete_cb_set
 .text.core_tx_packet_alloc
                0x0002c674       0x98 examples/pb_remote/server/CMakeFiles/pb_remote_server_nrf52832_xxAA_s132_6.0.0.dir/__/__/__/mesh/core/src/core_tx.c.obj
                0x0002c674                core_tx_packet_alloc
 .text.core_tx_packet_send
                0x0002c70c       0x4c examples/pb_remote/server/CMakeFiles/pb_remote_server_nrf52832_xxAA_s132_6.0.0.dir/__/__/__/mesh/core/src/core_tx.c.obj
                0x0002c70c                core_tx_packet_send
 .text.core_tx_packet_discard
                0x0002c758       0x40 examples/pb_remote/server/CMakeFiles/pb_remote_server_nrf52832_xxAA_s132_6.0.0.dir/__/__/__/mesh/core/src/core_tx.c.obj
                0x0002c758                core_tx_packet_discard
 .text.core_tx_complete
                0x0002c798       0x34 examples/pb_remote/server/CMakeFiles/pb_remote_server_nrf52832_xxAA_s132_6.0.0.dir/__/__/__/mesh/core/src/core_tx.c.obj
                0x0002c798                core_tx_complete
 .text.core_tx_bearer_add
                0x0002c7cc       0x70 examples/pb_remote/server/CMakeFiles/pb_remote_server_nrf52832_xxAA_s132_6.0.0.dir/__/__/__/mesh/core/src/core_tx.c.obj
                0x0002c7cc                core_tx_bearer_add
 .text.heartbeat_subscription_timer_cb
                0x0002c83c       0x1c examples/pb_remote/server/CMakeFiles/pb_remote_server_nrf52832_xxAA_s132_6.0.0.dir/__/__/__/mesh/core/src/heartbeat.c.obj
 .text.heartbeat_opcode_handle
                0x0002c858       0x88 examples/pb_remote/server/CMakeFiles/pb_remote_server_nrf52832_xxAA_s132_6.0.0.dir/__/__/__/mesh/core/src/heartbeat.c.obj
 .text.heartbeat_send
                0x0002c8e0       0xb2 examples/pb_remote/server/CMakeFiles/pb_remote_server_nrf52832_xxAA_s132_6.0.0.dir/__/__/__/mesh/core/src/heartbeat.c.obj
 *fill*         0x0002c992        0x2 
 .text.heartbeat_publication_timer_cb
                0x0002c994       0xa8 examples/pb_remote/server/CMakeFiles/pb_remote_server_nrf52832_xxAA_s132_6.0.0.dir/__/__/__/mesh/core/src/heartbeat.c.obj
 .text.heartbeat_core_evt_cb
                0x0002ca3c       0x7c examples/pb_remote/server/CMakeFiles/pb_remote_server_nrf52832_xxAA_s132_6.0.0.dir/__/__/__/mesh/core/src/heartbeat.c.obj
 .text.heartbeat_on_feature_change_trigger
                0x0002cab8       0x44 examples/pb_remote/server/CMakeFiles/pb_remote_server_nrf52832_xxAA_s132_6.0.0.dir/__/__/__/mesh/core/src/heartbeat.c.obj
                0x0002cab8                heartbeat_on_feature_change_trigger
 .text.heartbeat_init
                0x0002cafc       0x78 examples/pb_remote/server/CMakeFiles/pb_remote_server_nrf52832_xxAA_s132_6.0.0.dir/__/__/__/mesh/core/src/heartbeat.c.obj
                0x0002cafc                heartbeat_init
 .text.heartbeat_subscription_set
                0x0002cb74       0xa4 examples/pb_remote/server/CMakeFiles/pb_remote_server_nrf52832_xxAA_s132_6.0.0.dir/__/__/__/mesh/core/src/heartbeat.c.obj
                0x0002cb74                heartbeat_subscription_set
 .text.heartbeat_subscription_get
                0x0002cc18        0x8 examples/pb_remote/server/CMakeFiles/pb_remote_server_nrf52832_xxAA_s132_6.0.0.dir/__/__/__/mesh/core/src/heartbeat.c.obj
                0x0002cc18                heartbeat_subscription_get
 .text.heartbeat_config_server_cb_set
                0x0002cc20       0x28 examples/pb_remote/server/CMakeFiles/pb_remote_server_nrf52832_xxAA_s132_6.0.0.dir/__/__/__/mesh/core/src/heartbeat.c.obj
                0x0002cc20                heartbeat_config_server_cb_set
 .text.heartbeat_publication_state_updated
                0x0002cc48       0x74 examples/pb_remote/server/CMakeFiles/pb_remote_server_nrf52832_xxAA_s132_6.0.0.dir/__/__/__/mesh/core/src/heartbeat.c.obj
                0x0002cc48                heartbeat_publication_state_updated
 .text.make_network_beacon_packet
                0x0002ccbc       0x50 examples/pb_remote/server/CMakeFiles/pb_remote_server_nrf52832_xxAA_s132_6.0.0.dir/__/__/__/mesh/core/src/net_beacon.c.obj
 .text.beacon_tx
                0x0002cd0c      0x12c examples/pb_remote/server/CMakeFiles/pb_remote_server_nrf52832_xxAA_s132_6.0.0.dir/__/__/__/mesh/core/src/net_beacon.c.obj
 .text.tx_complete_cb
                0x0002ce38        0xe examples/pb_remote/server/CMakeFiles/pb_remote_server_nrf52832_xxAA_s132_6.0.0.dir/__/__/__/mesh/core/src/net_beacon.c.obj
 .text.beacon_tx_timeout
                0x0002ce46        0x4 examples/pb_remote/server/CMakeFiles/pb_remote_server_nrf52832_xxAA_s132_6.0.0.dir/__/__/__/mesh/core/src/net_beacon.c.obj
 .text.is_valid_beacon_pkt.part.0
                0x0002ce4a       0x30 examples/pb_remote/server/CMakeFiles/pb_remote_server_nrf52832_xxAA_s132_6.0.0.dir/__/__/__/mesh/core/src/net_beacon.c.obj
 *fill*         0x0002ce7a        0x2 
 .text.net_beacon_init
                0x0002ce7c       0x94 examples/pb_remote/server/CMakeFiles/pb_remote_server_nrf52832_xxAA_s132_6.0.0.dir/__/__/__/mesh/core/src/net_beacon.c.obj
                0x0002ce7c                net_beacon_init
 .text.net_beacon_state_set
                0x0002cf10       0x34 examples/pb_remote/server/CMakeFiles/pb_remote_server_nrf52832_xxAA_s132_6.0.0.dir/__/__/__/mesh/core/src/net_beacon.c.obj
                0x0002cf10                net_beacon_state_set
 .text.net_beacon_state_get
                0x0002cf44        0xc examples/pb_remote/server/CMakeFiles/pb_remote_server_nrf52832_xxAA_s132_6.0.0.dir/__/__/__/mesh/core/src/net_beacon.c.obj
                0x0002cf44                net_beacon_state_get
 .text.net_beacon_packet_in
                0x0002cf50       0xf2 examples/pb_remote/server/CMakeFiles/pb_remote_server_nrf52832_xxAA_s132_6.0.0.dir/__/__/__/mesh/core/src/net_beacon.c.obj
                0x0002cf50                net_beacon_packet_in
 *fill*         0x0002d042        0x2 
 .text.packet_discard
                0x0002d044       0x40 examples/pb_remote/server/CMakeFiles/pb_remote_server_nrf52832_xxAA_s132_6.0.0.dir/__/__/__/mesh/core/src/core_tx_adv.c.obj
 .text.packet_send
                0x0002d084       0x58 examples/pb_remote/server/CMakeFiles/pb_remote_server_nrf52832_xxAA_s132_6.0.0.dir/__/__/__/mesh/core/src/core_tx_adv.c.obj
 .text.packet_alloc
                0x0002d0dc       0x58 examples/pb_remote/server/CMakeFiles/pb_remote_server_nrf52832_xxAA_s132_6.0.0.dir/__/__/__/mesh/core/src/core_tx_adv.c.obj
 .text.adv_tx_complete_callback
                0x0002d134       0x20 examples/pb_remote/server/CMakeFiles/pb_remote_server_nrf52832_xxAA_s132_6.0.0.dir/__/__/__/mesh/core/src/core_tx_adv.c.obj
 .text.core_tx_adv_init
                0x0002d154       0x60 examples/pb_remote/server/CMakeFiles/pb_remote_server_nrf52832_xxAA_s132_6.0.0.dir/__/__/__/mesh/core/src/core_tx_adv.c.obj
                0x0002d154                core_tx_adv_init
 .text.core_tx_adv_count_set
                0x0002d1b4       0x28 examples/pb_remote/server/CMakeFiles/pb_remote_server_nrf52832_xxAA_s132_6.0.0.dir/__/__/__/mesh/core/src/core_tx_adv.c.obj
                0x0002d1b4                core_tx_adv_count_set
 .text.core_tx_adv_count_get
                0x0002d1dc       0x1c examples/pb_remote/server/CMakeFiles/pb_remote_server_nrf52832_xxAA_s132_6.0.0.dir/__/__/__/mesh/core/src/core_tx_adv.c.obj
                0x0002d1dc                core_tx_adv_count_get
 .text.core_tx_adv_interval_set
                0x0002d1f8       0x28 examples/pb_remote/server/CMakeFiles/pb_remote_server_nrf52832_xxAA_s132_6.0.0.dir/__/__/__/mesh/core/src/core_tx_adv.c.obj
                0x0002d1f8                core_tx_adv_interval_set
 .text.core_tx_adv_interval_get
                0x0002d220       0x28 examples/pb_remote/server/CMakeFiles/pb_remote_server_nrf52832_xxAA_s132_6.0.0.dir/__/__/__/mesh/core/src/core_tx_adv.c.obj
                0x0002d220                core_tx_adv_interval_get
 .text.core_tx_adv_tx_power_set
                0x0002d248       0x28 examples/pb_remote/server/CMakeFiles/pb_remote_server_nrf52832_xxAA_s132_6.0.0.dir/__/__/__/mesh/core/src/core_tx_adv.c.obj
                0x0002d248                core_tx_adv_tx_power_set
 .text.ad_listener_subscribe
                0x0002d270       0x5c examples/pb_remote/server/CMakeFiles/pb_remote_server_nrf52832_xxAA_s132_6.0.0.dir/__/__/__/mesh/bearer/src/ad_listener.c.obj
                0x0002d270                ad_listener_subscribe
 .text.ad_listener_process
                0x0002d2cc       0x64 examples/pb_remote/server/CMakeFiles/pb_remote_server_nrf52832_xxAA_s132_6.0.0.dir/__/__/__/mesh/bearer/src/ad_listener.c.obj
                0x0002d2cc                ad_listener_process
 .text.adtype_filter_handle
                0x0002d330       0x64 examples/pb_remote/server/CMakeFiles/pb_remote_server_nrf52832_xxAA_s132_6.0.0.dir/__/__/__/mesh/bearer/src/ad_type_filter.c.obj
 .text.bearer_adtype_filtering_set
                0x0002d394       0x1c examples/pb_remote/server/CMakeFiles/pb_remote_server_nrf52832_xxAA_s132_6.0.0.dir/__/__/__/mesh/bearer/src/ad_type_filter.c.obj
                0x0002d394                bearer_adtype_filtering_set
 .text.bearer_adtype_add
                0x0002d3b0       0x20 examples/pb_remote/server/CMakeFiles/pb_remote_server_nrf52832_xxAA_s132_6.0.0.dir/__/__/__/mesh/bearer/src/ad_type_filter.c.obj
                0x0002d3b0                bearer_adtype_add
 .text.bearer_adtype_mode_set
                0x0002d3d0       0x18 examples/pb_remote/server/CMakeFiles/pb_remote_server_nrf52832_xxAA_s132_6.0.0.dir/__/__/__/mesh/bearer/src/ad_type_filter.c.obj
                0x0002d3d0                bearer_adtype_mode_set
 .text.tx_complete_event_callback
                0x0002d3e8       0x28 examples/pb_remote/server/CMakeFiles/pb_remote_server_nrf52832_xxAA_s132_6.0.0.dir/__/__/__/mesh/bearer/src/advertiser.c.obj
 .text.set_gap_addr_type
                0x0002d410       0x26 examples/pb_remote/server/CMakeFiles/pb_remote_server_nrf52832_xxAA_s132_6.0.0.dir/__/__/__/mesh/bearer/src/advertiser.c.obj
 .text.broadcast_complete_cb
                0x0002d436       0x46 examples/pb_remote/server/CMakeFiles/pb_remote_server_nrf52832_xxAA_s132_6.0.0.dir/__/__/__/mesh/bearer/src/advertiser.c.obj
 .text.schedule_first_time
                0x0002d47c       0x28 examples/pb_remote/server/CMakeFiles/pb_remote_server_nrf52832_xxAA_s132_6.0.0.dir/__/__/__/mesh/bearer/src/advertiser.c.obj
 .text.timeout_event
                0x0002d4a4      0x10c examples/pb_remote/server/CMakeFiles/pb_remote_server_nrf52832_xxAA_s132_6.0.0.dir/__/__/__/mesh/bearer/src/advertiser.c.obj
 .text.advertiser_init
                0x0002d5b0        0xc examples/pb_remote/server/CMakeFiles/pb_remote_server_nrf52832_xxAA_s132_6.0.0.dir/__/__/__/mesh/bearer/src/advertiser.c.obj
                0x0002d5b0                advertiser_init
 .text.advertiser_enable
                0x0002d5bc       0x2a examples/pb_remote/server/CMakeFiles/pb_remote_server_nrf52832_xxAA_s132_6.0.0.dir/__/__/__/mesh/bearer/src/advertiser.c.obj
                0x0002d5bc                advertiser_enable
 .text.advertiser_packet_alloc
                0x0002d5e6       0x76 examples/pb_remote/server/CMakeFiles/pb_remote_server_nrf52832_xxAA_s132_6.0.0.dir/__/__/__/mesh/bearer/src/advertiser.c.obj
                0x0002d5e6                advertiser_packet_alloc
 .text.advertiser_packet_send
                0x0002d65c       0x62 examples/pb_remote/server/CMakeFiles/pb_remote_server_nrf52832_xxAA_s132_6.0.0.dir/__/__/__/mesh/bearer/src/advertiser.c.obj
                0x0002d65c                advertiser_packet_send
 .text.advertiser_packet_discard
                0x0002d6be       0x1e examples/pb_remote/server/CMakeFiles/pb_remote_server_nrf52832_xxAA_s132_6.0.0.dir/__/__/__/mesh/bearer/src/advertiser.c.obj
                0x0002d6be                advertiser_packet_discard
 .text.advertiser_interval_set
                0x0002d6dc       0x54 examples/pb_remote/server/CMakeFiles/pb_remote_server_nrf52832_xxAA_s132_6.0.0.dir/__/__/__/mesh/bearer/src/advertiser.c.obj
                0x0002d6dc                advertiser_interval_set
 .text.advertiser_tx_power_set
                0x0002d730       0x14 examples/pb_remote/server/CMakeFiles/pb_remote_server_nrf52832_xxAA_s132_6.0.0.dir/__/__/__/mesh/bearer/src/advertiser.c.obj
                0x0002d730                advertiser_tx_power_set
 .text.advertiser_flush
                0x0002d744       0x1e examples/pb_remote/server/CMakeFiles/pb_remote_server_nrf52832_xxAA_s132_6.0.0.dir/__/__/__/mesh/bearer/src/advertiser.c.obj
                0x0002d744                advertiser_flush
 *fill*         0x0002d762        0x2 
 .text.advertiser_address_default_get
                0x0002d764       0x38 examples/pb_remote/server/CMakeFiles/pb_remote_server_nrf52832_xxAA_s132_6.0.0.dir/__/__/__/mesh/bearer/src/advertiser.c.obj
                0x0002d764                advertiser_address_default_get
 .text.advertiser_instance_init
                0x0002d79c       0xa4 examples/pb_remote/server/CMakeFiles/pb_remote_server_nrf52832_xxAA_s132_6.0.0.dir/__/__/__/mesh/bearer/src/advertiser.c.obj
                0x0002d79c                advertiser_instance_init
 .text.action_timer_start
                0x0002d840       0x90 examples/pb_remote/server/CMakeFiles/pb_remote_server_nrf52832_xxAA_s132_6.0.0.dir/__/__/__/mesh/bearer/src/bearer_handler.c.obj
 .text.action_switch
                0x0002d8d0       0xe8 examples/pb_remote/server/CMakeFiles/pb_remote_server_nrf52832_xxAA_s132_6.0.0.dir/__/__/__/mesh/bearer/src/bearer_handler.c.obj
 .text.end_handle
                0x0002d9b8       0x44 examples/pb_remote/server/CMakeFiles/pb_remote_server_nrf52832_xxAA_s132_6.0.0.dir/__/__/__/mesh/bearer/src/bearer_handler.c.obj
 .text.TIMER2_IRQHandler
                0x0002d9fc       0x58 examples/pb_remote/server/CMakeFiles/pb_remote_server_nrf52832_xxAA_s132_6.0.0.dir/__/__/__/mesh/bearer/src/bearer_handler.c.obj
                0x0002d9fc                TIMER2_IRQHandler
 .text.bearer_handler_init
                0x0002da54       0x44 examples/pb_remote/server/CMakeFiles/pb_remote_server_nrf52832_xxAA_s132_6.0.0.dir/__/__/__/mesh/bearer/src/bearer_handler.c.obj
                0x0002da54                bearer_handler_init
 .text.bearer_handler_start
                0x0002da98       0x1c examples/pb_remote/server/CMakeFiles/pb_remote_server_nrf52832_xxAA_s132_6.0.0.dir/__/__/__/mesh/bearer/src/bearer_handler.c.obj
                0x0002da98                bearer_handler_start
 .text.bearer_handler_action_enqueue
                0x0002dab4       0x6c examples/pb_remote/server/CMakeFiles/pb_remote_server_nrf52832_xxAA_s132_6.0.0.dir/__/__/__/mesh/bearer/src/bearer_handler.c.obj
                0x0002dab4                bearer_handler_action_enqueue
 .text.bearer_handler_action_end
                0x0002db20       0x48 examples/pb_remote/server/CMakeFiles/pb_remote_server_nrf52832_xxAA_s132_6.0.0.dir/__/__/__/mesh/bearer/src/bearer_handler.c.obj
                0x0002db20                bearer_handler_action_end
 .text.bearer_handler_radio_irq_handler
                0x0002db68       0x64 examples/pb_remote/server/CMakeFiles/pb_remote_server_nrf52832_xxAA_s132_6.0.0.dir/__/__/__/mesh/bearer/src/bearer_handler.c.obj
                0x0002db68                bearer_handler_radio_irq_handler
 .text.bearer_handler_timer_irq_handler
                0x0002dbcc       0x24 examples/pb_remote/server/CMakeFiles/pb_remote_server_nrf52832_xxAA_s132_6.0.0.dir/__/__/__/mesh/bearer/src/bearer_handler.c.obj
                0x0002dbcc                bearer_handler_timer_irq_handler
 .text.bearer_handler_on_ts_begin
                0x0002dbf0       0x38 examples/pb_remote/server/CMakeFiles/pb_remote_server_nrf52832_xxAA_s132_6.0.0.dir/__/__/__/mesh/bearer/src/bearer_handler.c.obj
                0x0002dbf0                bearer_handler_on_ts_begin
 .text.bearer_handler_on_ts_end
                0x0002dc28       0x70 examples/pb_remote/server/CMakeFiles/pb_remote_server_nrf52832_xxAA_s132_6.0.0.dir/__/__/__/mesh/bearer/src/bearer_handler.c.obj
                0x0002dc28                bearer_handler_on_ts_end
 .text.broadcast_start
                0x0002dc98       0xac examples/pb_remote/server/CMakeFiles/pb_remote_server_nrf52832_xxAA_s132_6.0.0.dir/__/__/__/mesh/bearer/src/broadcast.c.obj
 .text.radio_irq_handler
                0x0002dd44       0xa4 examples/pb_remote/server/CMakeFiles/pb_remote_server_nrf52832_xxAA_s132_6.0.0.dir/__/__/__/mesh/bearer/src/broadcast.c.obj
 .text.broadcast_send
                0x0002dde8       0x6c examples/pb_remote/server/CMakeFiles/pb_remote_server_nrf52832_xxAA_s132_6.0.0.dir/__/__/__/mesh/bearer/src/broadcast.c.obj
                0x0002dde8                broadcast_send
 .text.fen_filter_start
                0x0002de54       0x28 examples/pb_remote/server/CMakeFiles/pb_remote_server_nrf52832_xxAA_s132_6.0.0.dir/__/__/__/mesh/bearer/src/filter_engine.c.obj
                0x0002de54                fen_filter_start
 .text.fen_filter_stop
                0x0002de7c       0x20 examples/pb_remote/server/CMakeFiles/pb_remote_server_nrf52832_xxAA_s132_6.0.0.dir/__/__/__/mesh/bearer/src/filter_engine.c.obj
                0x0002de7c                fen_filter_stop
 .text.fen_filters_apply
                0x0002de9c       0x34 examples/pb_remote/server/CMakeFiles/pb_remote_server_nrf52832_xxAA_s132_6.0.0.dir/__/__/__/mesh/bearer/src/filter_engine.c.obj
                0x0002de9c                fen_filters_apply
 .text.radio_config_reset
                0x0002ded0       0x40 examples/pb_remote/server/CMakeFiles/pb_remote_server_nrf52832_xxAA_s132_6.0.0.dir/__/__/__/mesh/bearer/src/radio_config.c.obj
                0x0002ded0                radio_config_reset
 .text.radio_config_channel_set
                0x0002df10       0x28 examples/pb_remote/server/CMakeFiles/pb_remote_server_nrf52832_xxAA_s132_6.0.0.dir/__/__/__/mesh/bearer/src/radio_config.c.obj
                0x0002df10                radio_config_channel_set
 .text.radio_config_config
                0x0002df38       0x90 examples/pb_remote/server/CMakeFiles/pb_remote_server_nrf52832_xxAA_s132_6.0.0.dir/__/__/__/mesh/bearer/src/radio_config.c.obj
                0x0002df38                radio_config_config
 .text.radio_config_access_addr_set
                0x0002dfc8       0x50 examples/pb_remote/server/CMakeFiles/pb_remote_server_nrf52832_xxAA_s132_6.0.0.dir/__/__/__/mesh/bearer/src/radio_config.c.obj
                0x0002dfc8                radio_config_access_addr_set
 .text.radio_trigger
                0x0002e018       0x24 examples/pb_remote/server/CMakeFiles/pb_remote_server_nrf52832_xxAA_s132_6.0.0.dir/__/__/__/mesh/bearer/src/scanner.c.obj
 .text.scan_window_end
                0x0002e03c       0x10 examples/pb_remote/server/CMakeFiles/pb_remote_server_nrf52832_xxAA_s132_6.0.0.dir/__/__/__/mesh/bearer/src/scanner.c.obj
 .text.scan_window_start
                0x0002e04c       0x24 examples/pb_remote/server/CMakeFiles/pb_remote_server_nrf52832_xxAA_s132_6.0.0.dir/__/__/__/mesh/bearer/src/scanner.c.obj
 .text.radio_configure
                0x0002e070       0x78 examples/pb_remote/server/CMakeFiles/pb_remote_server_nrf52832_xxAA_s132_6.0.0.dir/__/__/__/mesh/bearer/src/scanner.c.obj
 .text.radio_set_packet
                0x0002e0e8       0x4c examples/pb_remote/server/CMakeFiles/pb_remote_server_nrf52832_xxAA_s132_6.0.0.dir/__/__/__/mesh/bearer/src/scanner.c.obj
 .text.radio_start
                0x0002e134       0x78 examples/pb_remote/server/CMakeFiles/pb_remote_server_nrf52832_xxAA_s132_6.0.0.dir/__/__/__/mesh/bearer/src/scanner.c.obj
 .text.radio_stop
                0x0002e1ac       0x38 examples/pb_remote/server/CMakeFiles/pb_remote_server_nrf52832_xxAA_s132_6.0.0.dir/__/__/__/mesh/bearer/src/scanner.c.obj
 .text.schedule_timers
                0x0002e1e4       0x38 examples/pb_remote/server/CMakeFiles/pb_remote_server_nrf52832_xxAA_s132_6.0.0.dir/__/__/__/mesh/bearer/src/scanner.c.obj
 .text.scanner_radio_start
                0x0002e21c       0x2c examples/pb_remote/server/CMakeFiles/pb_remote_server_nrf52832_xxAA_s132_6.0.0.dir/__/__/__/mesh/bearer/src/scanner.c.obj
                0x0002e21c                scanner_radio_start
 .text.scanner_radio_stop
                0x0002e248       0x10 examples/pb_remote/server/CMakeFiles/pb_remote_server_nrf52832_xxAA_s132_6.0.0.dir/__/__/__/mesh/bearer/src/scanner.c.obj
                0x0002e248                scanner_radio_stop
 .text.scanner_radio_irq_handler
                0x0002e258      0x13c examples/pb_remote/server/CMakeFiles/pb_remote_server_nrf52832_xxAA_s132_6.0.0.dir/__/__/__/mesh/bearer/src/scanner.c.obj
                0x0002e258                scanner_radio_irq_handler
 .text.scanner_timer_irq_handler
                0x0002e394       0x30 examples/pb_remote/server/CMakeFiles/pb_remote_server_nrf52832_xxAA_s132_6.0.0.dir/__/__/__/mesh/bearer/src/scanner.c.obj
                0x0002e394                scanner_timer_irq_handler
 .text.scanner_enable
                0x0002e3c4       0x24 examples/pb_remote/server/CMakeFiles/pb_remote_server_nrf52832_xxAA_s132_6.0.0.dir/__/__/__/mesh/bearer/src/scanner.c.obj
                0x0002e3c4                scanner_enable
 .text.scanner_packet_release
                0x0002e3e8       0x2c examples/pb_remote/server/CMakeFiles/pb_remote_server_nrf52832_xxAA_s132_6.0.0.dir/__/__/__/mesh/bearer/src/scanner.c.obj
                0x0002e3e8                scanner_packet_release
 .text.scanner_rx
                0x0002e414       0x30 examples/pb_remote/server/CMakeFiles/pb_remote_server_nrf52832_xxAA_s132_6.0.0.dir/__/__/__/mesh/bearer/src/scanner.c.obj
                0x0002e414                scanner_rx
 .text.scanner_rx_pending
                0x0002e444        0xc examples/pb_remote/server/CMakeFiles/pb_remote_server_nrf52832_xxAA_s132_6.0.0.dir/__/__/__/mesh/bearer/src/scanner.c.obj
                0x0002e444                scanner_rx_pending
 .text.scanner_config_scan_time_set
                0x0002e450       0x4c examples/pb_remote/server/CMakeFiles/pb_remote_server_nrf52832_xxAA_s132_6.0.0.dir/__/__/__/mesh/bearer/src/scanner.c.obj
                0x0002e450                scanner_config_scan_time_set
 .text.scanner_config_channels_set
                0x0002e49c       0x50 examples/pb_remote/server/CMakeFiles/pb_remote_server_nrf52832_xxAA_s132_6.0.0.dir/__/__/__/mesh/bearer/src/scanner.c.obj
                0x0002e49c                scanner_config_channels_set
 .text.scanner_config_access_addresses_set
                0x0002e4ec       0x38 examples/pb_remote/server/CMakeFiles/pb_remote_server_nrf52832_xxAA_s132_6.0.0.dir/__/__/__/mesh/bearer/src/scanner.c.obj
                0x0002e4ec                scanner_config_access_addresses_set
 .text.scanner_config_reset
                0x0002e524       0x50 examples/pb_remote/server/CMakeFiles/pb_remote_server_nrf52832_xxAA_s132_6.0.0.dir/__/__/__/mesh/bearer/src/scanner.c.obj
                0x0002e524                scanner_config_reset
 .text.scanner_init
                0x0002e574       0x54 examples/pb_remote/server/CMakeFiles/pb_remote_server_nrf52832_xxAA_s132_6.0.0.dir/__/__/__/mesh/bearer/src/scanner.c.obj
                0x0002e574                scanner_init
 .text.pin_clear
                0x0002e5c8       0x26 examples/pb_remote/server/CMakeFiles/pb_remote_server_nrf52832_xxAA_s132_6.0.0.dir/__/__/__/mesh/bearer/src/mesh_pa_lna.c.obj
 *fill*         0x0002e5ee        0x2 
 .text.ppi_setup.isra.0
                0x0002e5f0       0x3c examples/pb_remote/server/CMakeFiles/pb_remote_server_nrf52832_xxAA_s132_6.0.0.dir/__/__/__/mesh/bearer/src/mesh_pa_lna.c.obj
 .text.mesh_pa_setup_start
                0x0002e62c       0x5c examples/pb_remote/server/CMakeFiles/pb_remote_server_nrf52832_xxAA_s132_6.0.0.dir/__/__/__/mesh/bearer/src/mesh_pa_lna.c.obj
                0x0002e62c                mesh_pa_setup_start
 .text.mesh_lna_setup_start
                0x0002e688       0x5c examples/pb_remote/server/CMakeFiles/pb_remote_server_nrf52832_xxAA_s132_6.0.0.dir/__/__/__/mesh/bearer/src/mesh_pa_lna.c.obj
                0x0002e688                mesh_lna_setup_start
 .text.mesh_pa_lna_disable_start
                0x0002e6e4       0x1c examples/pb_remote/server/CMakeFiles/pb_remote_server_nrf52832_xxAA_s132_6.0.0.dir/__/__/__/mesh/bearer/src/mesh_pa_lna.c.obj
                0x0002e6e4                mesh_pa_lna_disable_start
 .text.mesh_pa_lna_setup_stop
                0x0002e700       0x4c examples/pb_remote/server/CMakeFiles/pb_remote_server_nrf52832_xxAA_s132_6.0.0.dir/__/__/__/mesh/bearer/src/mesh_pa_lna.c.obj
                0x0002e700                mesh_pa_lna_setup_stop
 .text.mesh_pa_lna_cleanup
                0x0002e74c       0x48 examples/pb_remote/server/CMakeFiles/pb_remote_server_nrf52832_xxAA_s132_6.0.0.dir/__/__/__/mesh/bearer/src/mesh_pa_lna.c.obj
                0x0002e74c                mesh_pa_lna_cleanup
 .text.complete_provisioning
                0x0002e794       0x24 examples/pb_remote/server/CMakeFiles/pb_remote_server_nrf52832_xxAA_s132_6.0.0.dir/__/__/__/mesh/prov/src/prov_provisionee.c.obj
 .text.prov_provisionee_cb_link_established
                0x0002e7b8       0x36 examples/pb_remote/server/CMakeFiles/pb_remote_server_nrf52832_xxAA_s132_6.0.0.dir/__/__/__/mesh/prov/src/prov_provisionee.c.obj
 .text.prov_provisionee_cb_link_closed
                0x0002e7ee       0x34 examples/pb_remote/server/CMakeFiles/pb_remote_server_nrf52832_xxAA_s132_6.0.0.dir/__/__/__/mesh/prov/src/prov_provisionee.c.obj
 .text.request_authentication
                0x0002e822       0x8a examples/pb_remote/server/CMakeFiles/pb_remote_server_nrf52832_xxAA_s132_6.0.0.dir/__/__/__/mesh/prov/src/prov_provisionee.c.obj
 .text.send_failed
                0x0002e8ac       0x3a examples/pb_remote/server/CMakeFiles/pb_remote_server_nrf52832_xxAA_s132_6.0.0.dir/__/__/__/mesh/prov/src/prov_provisionee.c.obj
 .text.start_authentication
                0x0002e8e6       0x52 examples/pb_remote/server/CMakeFiles/pb_remote_server_nrf52832_xxAA_s132_6.0.0.dir/__/__/__/mesh/prov/src/prov_provisionee.c.obj
 .text.prov_provisionee_cb_ack_received
                0x0002e938       0xc8 examples/pb_remote/server/CMakeFiles/pb_remote_server_nrf52832_xxAA_s132_6.0.0.dir/__/__/__/mesh/prov/src/prov_provisionee.c.obj
 .text.prov_provisionee_pkt_in
                0x0002ea00      0x2f0 examples/pb_remote/server/CMakeFiles/pb_remote_server_nrf52832_xxAA_s132_6.0.0.dir/__/__/__/mesh/prov/src/prov_provisionee.c.obj
 .text.prov_provisionee_listen
                0x0002ecf0       0x30 examples/pb_remote/server/CMakeFiles/pb_remote_server_nrf52832_xxAA_s132_6.0.0.dir/__/__/__/mesh/prov/src/prov_provisionee.c.obj
                0x0002ecf0                prov_provisionee_listen
 .text.prov_provisionee_auth_data
                0x0002ed20       0x98 examples/pb_remote/server/CMakeFiles/pb_remote_server_nrf52832_xxAA_s132_6.0.0.dir/__/__/__/mesh/prov/src/prov_provisionee.c.obj
                0x0002ed20                prov_provisionee_auth_data
 .text.bearer_compare_callback
                0x0002edb8        0xc examples/pb_remote/server/CMakeFiles/pb_remote_server_nrf52832_xxAA_s132_6.0.0.dir/__/__/__/mesh/prov/src/nrf_mesh_prov.c.obj
 .text.bitfield_next_get.part.0.constprop.4
                0x0002edc4       0x34 examples/pb_remote/server/CMakeFiles/pb_remote_server_nrf52832_xxAA_s132_6.0.0.dir/__/__/__/mesh/prov/src/nrf_mesh_prov.c.obj
 .text.nrf_mesh_prov_init
                0x0002edf8       0x32 examples/pb_remote/server/CMakeFiles/pb_remote_server_nrf52832_xxAA_s132_6.0.0.dir/__/__/__/mesh/prov/src/nrf_mesh_prov.c.obj
                0x0002edf8                nrf_mesh_prov_init
 *fill*         0x0002ee2a        0x2 
 .text.nrf_mesh_prov_bearer_add
                0x0002ee2c       0x28 examples/pb_remote/server/CMakeFiles/pb_remote_server_nrf52832_xxAA_s132_6.0.0.dir/__/__/__/mesh/prov/src/nrf_mesh_prov.c.obj
                0x0002ee2c                nrf_mesh_prov_bearer_add
 .text.nrf_mesh_prov_generate_keys
                0x0002ee54        0x4 examples/pb_remote/server/CMakeFiles/pb_remote_server_nrf52832_xxAA_s132_6.0.0.dir/__/__/__/mesh/prov/src/nrf_mesh_prov.c.obj
                0x0002ee54                nrf_mesh_prov_generate_keys
 .text.nrf_mesh_prov_listen_stop
                0x0002ee58       0x2e examples/pb_remote/server/CMakeFiles/pb_remote_server_nrf52832_xxAA_s132_6.0.0.dir/__/__/__/mesh/prov/src/nrf_mesh_prov.c.obj
                0x0002ee58                nrf_mesh_prov_listen_stop
 .text.nrf_mesh_prov_listen
                0x0002ee86       0x88 examples/pb_remote/server/CMakeFiles/pb_remote_server_nrf52832_xxAA_s132_6.0.0.dir/__/__/__/mesh/prov/src/nrf_mesh_prov.c.obj
                0x0002ee86                nrf_mesh_prov_listen
 .text.nrf_mesh_prov_auth_data_provide
                0x0002ef0e        0xe examples/pb_remote/server/CMakeFiles/pb_remote_server_nrf52832_xxAA_s132_6.0.0.dir/__/__/__/mesh/prov/src/nrf_mesh_prov.c.obj
                0x0002ef0e                nrf_mesh_prov_auth_data_provide
 .text.nrf_mesh_prov_scan_start
                0x0002ef1c       0x10 examples/pb_remote/server/CMakeFiles/pb_remote_server_nrf52832_xxAA_s132_6.0.0.dir/__/__/__/mesh/prov/src/nrf_mesh_prov.c.obj
                0x0002ef1c                nrf_mesh_prov_scan_start
 .text.nrf_mesh_prov_scan_stop
                0x0002ef2c        0x4 examples/pb_remote/server/CMakeFiles/pb_remote_server_nrf52832_xxAA_s132_6.0.0.dir/__/__/__/mesh/prov/src/nrf_mesh_prov.c.obj
                0x0002ef2c                nrf_mesh_prov_scan_stop
 .text.send_data
                0x0002ef30       0x28 examples/pb_remote/server/CMakeFiles/pb_remote_server_nrf52832_xxAA_s132_6.0.0.dir/__/__/__/mesh/prov/src/provisioning.c.obj
 .text.prov_packet_length_valid
                0x0002ef58       0x1c examples/pb_remote/server/CMakeFiles/pb_remote_server_nrf52832_xxAA_s132_6.0.0.dir/__/__/__/mesh/prov/src/provisioning.c.obj
                0x0002ef58                prov_packet_length_valid
 .text.prov_tx_capabilities
                0x0002ef74       0x1e examples/pb_remote/server/CMakeFiles/pb_remote_server_nrf52832_xxAA_s132_6.0.0.dir/__/__/__/mesh/prov/src/provisioning.c.obj
                0x0002ef74                prov_tx_capabilities
 .text.prov_tx_public_key
                0x0002ef92       0x26 examples/pb_remote/server/CMakeFiles/pb_remote_server_nrf52832_xxAA_s132_6.0.0.dir/__/__/__/mesh/prov/src/provisioning.c.obj
                0x0002ef92                prov_tx_public_key
 .text.prov_tx_input_complete
                0x0002efb8       0x16 examples/pb_remote/server/CMakeFiles/pb_remote_server_nrf52832_xxAA_s132_6.0.0.dir/__/__/__/mesh/prov/src/provisioning.c.obj
                0x0002efb8                prov_tx_input_complete
 .text.prov_tx_confirmation
                0x0002efce       0x26 examples/pb_remote/server/CMakeFiles/pb_remote_server_nrf52832_xxAA_s132_6.0.0.dir/__/__/__/mesh/prov/src/provisioning.c.obj
                0x0002efce                prov_tx_confirmation
 .text.prov_tx_random
                0x0002eff4       0x26 examples/pb_remote/server/CMakeFiles/pb_remote_server_nrf52832_xxAA_s132_6.0.0.dir/__/__/__/mesh/prov/src/provisioning.c.obj
                0x0002eff4                prov_tx_random
 .text.prov_tx_complete
                0x0002f01a       0x16 examples/pb_remote/server/CMakeFiles/pb_remote_server_nrf52832_xxAA_s132_6.0.0.dir/__/__/__/mesh/prov/src/provisioning.c.obj
                0x0002f01a                prov_tx_complete
 .text.prov_tx_failed
                0x0002f030       0x1a examples/pb_remote/server/CMakeFiles/pb_remote_server_nrf52832_xxAA_s132_6.0.0.dir/__/__/__/mesh/prov/src/provisioning.c.obj
                0x0002f030                prov_tx_failed
 .text.prov_beacon_unprov_build
                0x0002f04a       0x54 examples/pb_remote/server/CMakeFiles/pb_remote_server_nrf52832_xxAA_s132_6.0.0.dir/__/__/__/mesh/prov/src/prov_beacon.c.obj
                0x0002f04a                prov_beacon_unprov_build
 *fill*         0x0002f09e        0x2 
 .text.prov_beacon_unprov_packet_in
                0x0002f0a0       0x88 examples/pb_remote/server/CMakeFiles/pb_remote_server_nrf52832_xxAA_s132_6.0.0.dir/__/__/__/mesh/prov/src/prov_beacon.c.obj
                0x0002f0a0                prov_beacon_unprov_packet_in
 .text.prov_beacon_scan_start
                0x0002f128       0x18 examples/pb_remote/server/CMakeFiles/pb_remote_server_nrf52832_xxAA_s132_6.0.0.dir/__/__/__/mesh/prov/src/prov_beacon.c.obj
                0x0002f128                prov_beacon_scan_start
 .text.prov_beacon_scan_stop
                0x0002f140        0xc examples/pb_remote/server/CMakeFiles/pb_remote_server_nrf52832_xxAA_s132_6.0.0.dir/__/__/__/mesh/prov/src/prov_beacon.c.obj
                0x0002f140                prov_beacon_scan_stop
 .text.oob_gen_alphanumeric
                0x0002f14c       0x34 examples/pb_remote/server/CMakeFiles/pb_remote_server_nrf52832_xxAA_s132_6.0.0.dir/__/__/__/mesh/prov/src/prov_utils.c.obj
 .text.oob_gen_numeric
                0x0002f180       0x3c examples/pb_remote/server/CMakeFiles/pb_remote_server_nrf52832_xxAA_s132_6.0.0.dir/__/__/__/mesh/prov/src/prov_utils.c.obj
 .text.prov_utils_opt_set
                0x0002f1bc       0x20 examples/pb_remote/server/CMakeFiles/pb_remote_server_nrf52832_xxAA_s132_6.0.0.dir/__/__/__/mesh/prov/src/prov_utils.c.obj
                0x0002f1bc                prov_utils_opt_set
 .text.prov_utils_opt_get
                0x0002f1dc       0x1c examples/pb_remote/server/CMakeFiles/pb_remote_server_nrf52832_xxAA_s132_6.0.0.dir/__/__/__/mesh/prov/src/prov_utils.c.obj
                0x0002f1dc                prov_utils_opt_get
 .text.prov_utils_use_ecdh_offloading
                0x0002f1f8        0xc examples/pb_remote/server/CMakeFiles/pb_remote_server_nrf52832_xxAA_s132_6.0.0.dir/__/__/__/mesh/prov/src/prov_utils.c.obj
                0x0002f1f8                prov_utils_use_ecdh_offloading
 .text.prov_utils_authentication_values_derive
                0x0002f204       0xa0 examples/pb_remote/server/CMakeFiles/pb_remote_server_nrf52832_xxAA_s132_6.0.0.dir/__/__/__/mesh/prov/src/prov_utils.c.obj
                0x0002f204                prov_utils_authentication_values_derive
 .text.prov_utils_keys_generate
                0x0002f2a4       0x1e examples/pb_remote/server/CMakeFiles/pb_remote_server_nrf52832_xxAA_s132_6.0.0.dir/__/__/__/mesh/prov/src/prov_utils.c.obj
                0x0002f2a4                prov_utils_keys_generate
 *fill*         0x0002f2c2        0x2 
 .text.prov_utils_derive_keys
                0x0002f2c4       0xac examples/pb_remote/server/CMakeFiles/pb_remote_server_nrf52832_xxAA_s132_6.0.0.dir/__/__/__/mesh/prov/src/prov_utils.c.obj
                0x0002f2c4                prov_utils_derive_keys
 .text.prov_utils_calculate_shared_secret
                0x0002f370       0x36 examples/pb_remote/server/CMakeFiles/pb_remote_server_nrf52832_xxAA_s132_6.0.0.dir/__/__/__/mesh/prov/src/prov_utils.c.obj
                0x0002f370                prov_utils_calculate_shared_secret
 .text.prov_utils_generate_oob_data
                0x0002f3a6       0x8a examples/pb_remote/server/CMakeFiles/pb_remote_server_nrf52832_xxAA_s132_6.0.0.dir/__/__/__/mesh/prov/src/prov_utils.c.obj
                0x0002f3a6                prov_utils_generate_oob_data
 .text.prov_utils_confirmation_check
                0x0002f430       0x5c examples/pb_remote/server/CMakeFiles/pb_remote_server_nrf52832_xxAA_s132_6.0.0.dir/__/__/__/mesh/prov/src/prov_utils.c.obj
                0x0002f430                prov_utils_confirmation_check
 .text.link_timeout_cb
                0x0002f48c       0x10 examples/pb_remote/server/CMakeFiles/pb_remote_server_nrf52832_xxAA_s132_6.0.0.dir/__/__/__/mesh/prov/src/prov_bearer_adv.c.obj
 .text.remove_active_bearer
                0x0002f49c       0x4c examples/pb_remote/server/CMakeFiles/pb_remote_server_nrf52832_xxAA_s132_6.0.0.dir/__/__/__/mesh/prov/src/prov_bearer_adv.c.obj
 .text.close_link
                0x0002f4e8       0x58 examples/pb_remote/server/CMakeFiles/pb_remote_server_nrf52832_xxAA_s132_6.0.0.dir/__/__/__/mesh/prov/src/prov_bearer_adv.c.obj
 .text.prov_bearer_adv_listen_stop
                0x0002f540       0x30 examples/pb_remote/server/CMakeFiles/pb_remote_server_nrf52832_xxAA_s132_6.0.0.dir/__/__/__/mesh/prov/src/prov_bearer_adv.c.obj
 .text.send_packet
                0x0002f570       0x5e examples/pb_remote/server/CMakeFiles/pb_remote_server_nrf52832_xxAA_s132_6.0.0.dir/__/__/__/mesh/prov/src/prov_bearer_adv.c.obj
 .text.prov_buffer_tx
                0x0002f5ce      0x134 examples/pb_remote/server/CMakeFiles/pb_remote_server_nrf52832_xxAA_s132_6.0.0.dir/__/__/__/mesh/prov/src/prov_bearer_adv.c.obj
 .text.send_link_close
                0x0002f702       0x38 examples/pb_remote/server/CMakeFiles/pb_remote_server_nrf52832_xxAA_s132_6.0.0.dir/__/__/__/mesh/prov/src/prov_bearer_adv.c.obj
 .text.prov_bearer_adv_link_close
                0x0002f73a       0x56 examples/pb_remote/server/CMakeFiles/pb_remote_server_nrf52832_xxAA_s132_6.0.0.dir/__/__/__/mesh/prov/src/prov_bearer_adv.c.obj
 .text.send_transaction_ack
                0x0002f790       0x24 examples/pb_remote/server/CMakeFiles/pb_remote_server_nrf52832_xxAA_s132_6.0.0.dir/__/__/__/mesh/prov/src/prov_bearer_adv.c.obj
 .text.send_link_ack
                0x0002f7b4       0x32 examples/pb_remote/server/CMakeFiles/pb_remote_server_nrf52832_xxAA_s132_6.0.0.dir/__/__/__/mesh/prov/src/prov_bearer_adv.c.obj
 .text.reset_timeout_timer
                0x0002f7e6       0x1a examples/pb_remote/server/CMakeFiles/pb_remote_server_nrf52832_xxAA_s132_6.0.0.dir/__/__/__/mesh/prov/src/prov_bearer_adv.c.obj
 .text.tx_complete_cb
                0x0002f800       0x1c examples/pb_remote/server/CMakeFiles/pb_remote_server_nrf52832_xxAA_s132_6.0.0.dir/__/__/__/mesh/prov/src/prov_bearer_adv.c.obj
 .text.tx_retry_cb
                0x0002f81c       0xcc examples/pb_remote/server/CMakeFiles/pb_remote_server_nrf52832_xxAA_s132_6.0.0.dir/__/__/__/mesh/prov/src/prov_bearer_adv.c.obj
 .text.add_active_bearer
                0x0002f8e8       0x80 examples/pb_remote/server/CMakeFiles/pb_remote_server_nrf52832_xxAA_s132_6.0.0.dir/__/__/__/mesh/prov/src/prov_bearer_adv.c.obj
 .text.prov_bearer_adv_link_open
                0x0002f968       0xec examples/pb_remote/server/CMakeFiles/pb_remote_server_nrf52832_xxAA_s132_6.0.0.dir/__/__/__/mesh/prov/src/prov_bearer_adv.c.obj
 .text.async_process
                0x0002fa54       0x50 examples/pb_remote/server/CMakeFiles/pb_remote_server_nrf52832_xxAA_s132_6.0.0.dir/__/__/__/mesh/prov/src/prov_bearer_adv.c.obj
 .text.prov_bearer_adv_listen
                0x0002faa4       0xd8 examples/pb_remote/server/CMakeFiles/pb_remote_server_nrf52832_xxAA_s132_6.0.0.dir/__/__/__/mesh/prov/src/prov_bearer_adv.c.obj
 .text.calculate_3GPP_CRC
                0x0002fb7c       0x24 examples/pb_remote/server/CMakeFiles/pb_remote_server_nrf52832_xxAA_s132_6.0.0.dir/__/__/__/mesh/prov/src/prov_bearer_adv.c.obj
                0x0002fb7c                calculate_3GPP_CRC
 .text.prov_bearer_adv_tx
                0x0002fba0       0xb4 examples/pb_remote/server/CMakeFiles/pb_remote_server_nrf52832_xxAA_s132_6.0.0.dir/__/__/__/mesh/prov/src/prov_bearer_adv.c.obj
 .text.prov_buffer_rx
                0x0002fc54       0x6e examples/pb_remote/server/CMakeFiles/pb_remote_server_nrf52832_xxAA_s132_6.0.0.dir/__/__/__/mesh/prov/src/prov_bearer_adv.c.obj
 *fill*         0x0002fcc2        0x2 
 .text.nrf_mesh_prov_bearer_adv_interface_get
                0x0002fcc4       0x3c examples/pb_remote/server/CMakeFiles/pb_remote_server_nrf52832_xxAA_s132_6.0.0.dir/__/__/__/mesh/prov/src/prov_bearer_adv.c.obj
                0x0002fcc4                nrf_mesh_prov_bearer_adv_interface_get
 .text.prov_bearer_adv_packet_in
                0x0002fd00      0x7f8 examples/pb_remote/server/CMakeFiles/pb_remote_server_nrf52832_xxAA_s132_6.0.0.dir/__/__/__/mesh/prov/src/prov_bearer_adv.c.obj
                0x0002fd00                prov_bearer_adv_packet_in
 .text.pb_remote_server_event_transfer_status_cb
                0x000304f8       0xf0 examples/pb_remote/server/CMakeFiles/pb_remote_server_nrf52832_xxAA_s132_6.0.0.dir/__/__/__/models/pb_remote/src/pb_remote_server.c.obj
 .text.pb_remote_server_event_link_status_cb
                0x000305e8      0x1cc examples/pb_remote/server/CMakeFiles/pb_remote_server_nrf52832_xxAA_s132_6.0.0.dir/__/__/__/models/pb_remote/src/pb_remote_server.c.obj
 .text.pb_remote_server_event_scan_report_status_cb
                0x000307b4       0x80 examples/pb_remote/server/CMakeFiles/pb_remote_server_nrf52832_xxAA_s132_6.0.0.dir/__/__/__/models/pb_remote/src/pb_remote_server.c.obj
 .text.do_state_change
                0x00030834       0x78 examples/pb_remote/server/CMakeFiles/pb_remote_server_nrf52832_xxAA_s132_6.0.0.dir/__/__/__/models/pb_remote/src/pb_remote_server.c.obj
 .text.pb_remote_server_process
                0x000308ac      0x208 examples/pb_remote/server/CMakeFiles/pb_remote_server_nrf52832_xxAA_s132_6.0.0.dir/__/__/__/models/pb_remote/src/pb_remote_server.c.obj
 .text.server_reliable_status_cb
                0x00030ab4      0x158 examples/pb_remote/server/CMakeFiles/pb_remote_server_nrf52832_xxAA_s132_6.0.0.dir/__/__/__/models/pb_remote/src/pb_remote_server.c.obj
 .text.pb_adv_link_closed_cb
                0x00030c0c       0x3c examples/pb_remote/server/CMakeFiles/pb_remote_server_nrf52832_xxAA_s132_6.0.0.dir/__/__/__/models/pb_remote/src/pb_remote_server.c.obj
 .text.pb_adv_link_opened_cb
                0x00030c48       0x34 examples/pb_remote/server/CMakeFiles/pb_remote_server_nrf52832_xxAA_s132_6.0.0.dir/__/__/__/models/pb_remote/src/pb_remote_server.c.obj
 .text.pb_adv_ack_cb
                0x00030c7c       0x34 examples/pb_remote/server/CMakeFiles/pb_remote_server_nrf52832_xxAA_s132_6.0.0.dir/__/__/__/models/pb_remote/src/pb_remote_server.c.obj
 .text.pb_adv_rx_cb
                0x00030cb0       0x48 examples/pb_remote/server/CMakeFiles/pb_remote_server_nrf52832_xxAA_s132_6.0.0.dir/__/__/__/models/pb_remote/src/pb_remote_server.c.obj
 .text.prov_evt_handler
                0x00030cf8       0x40 examples/pb_remote/server/CMakeFiles/pb_remote_server_nrf52832_xxAA_s132_6.0.0.dir/__/__/__/models/pb_remote/src/pb_remote_server.c.obj
 .text.pb_remote_server_event_tx_failed_cb
                0x00030d38       0x2c examples/pb_remote/server/CMakeFiles/pb_remote_server_nrf52832_xxAA_s132_6.0.0.dir/__/__/__/models/pb_remote/src/pb_remote_server.c.obj
 .text.send_reliable_msg
                0x00030d64       0x40 examples/pb_remote/server/CMakeFiles/pb_remote_server_nrf52832_xxAA_s132_6.0.0.dir/__/__/__/models/pb_remote/src/pb_remote_server.c.obj
 .text.pb_remote_server_event_local_packet_cb
                0x00030da4      0x114 examples/pb_remote/server/CMakeFiles/pb_remote_server_nrf52832_xxAA_s132_6.0.0.dir/__/__/__/models/pb_remote/src/pb_remote_server.c.obj
 .text.pb_remote_server_event_local_ack_cb
                0x00030eb8       0x8c examples/pb_remote/server/CMakeFiles/pb_remote_server_nrf52832_xxAA_s132_6.0.0.dir/__/__/__/models/pb_remote/src/pb_remote_server.c.obj
 .text.pb_remote_server_event_link_established_cb
                0x00030f44       0x94 examples/pb_remote/server/CMakeFiles/pb_remote_server_nrf52832_xxAA_s132_6.0.0.dir/__/__/__/models/pb_remote/src/pb_remote_server.c.obj
 .text.pb_remote_server_event_link_closed_cb
                0x00030fd8       0xdc examples/pb_remote/server/CMakeFiles/pb_remote_server_nrf52832_xxAA_s132_6.0.0.dir/__/__/__/models/pb_remote/src/pb_remote_server.c.obj
 .text.pb_remote_server_event_unprov_uuid_cb
                0x000310b4      0x178 examples/pb_remote/server/CMakeFiles/pb_remote_server_nrf52832_xxAA_s132_6.0.0.dir/__/__/__/models/pb_remote/src/pb_remote_server.c.obj
 .text.send_reply.isra.8
                0x0003122c       0x18 examples/pb_remote/server/CMakeFiles/pb_remote_server_nrf52832_xxAA_s132_6.0.0.dir/__/__/__/models/pb_remote/src/pb_remote_server.c.obj
 .text.pb_remote_server_event_packet_transfer_cb
                0x00031244      0x114 examples/pb_remote/server/CMakeFiles/pb_remote_server_nrf52832_xxAA_s132_6.0.0.dir/__/__/__/models/pb_remote/src/pb_remote_server.c.obj
 .text.pb_remote_server_event_scan_start_cb
                0x00031358       0xac examples/pb_remote/server/CMakeFiles/pb_remote_server_nrf52832_xxAA_s132_6.0.0.dir/__/__/__/models/pb_remote/src/pb_remote_server.c.obj
 .text.remote_server_access_rx_cb
                0x00031404      0x188 examples/pb_remote/server/CMakeFiles/pb_remote_server_nrf52832_xxAA_s132_6.0.0.dir/__/__/__/models/pb_remote/src/pb_remote_server.c.obj
 .text.pb_remote_server_event_link_close_cb
                0x0003158c       0xf4 examples/pb_remote/server/CMakeFiles/pb_remote_server_nrf52832_xxAA_s132_6.0.0.dir/__/__/__/models/pb_remote/src/pb_remote_server.c.obj
 .text.local_link_open.isra.14
                0x00031680       0xf8 examples/pb_remote/server/CMakeFiles/pb_remote_server_nrf52832_xxAA_s132_6.0.0.dir/__/__/__/models/pb_remote/src/pb_remote_server.c.obj
 .text.pb_remote_server_event_link_open_cb
                0x00031778       0xb4 examples/pb_remote/server/CMakeFiles/pb_remote_server_nrf52832_xxAA_s132_6.0.0.dir/__/__/__/models/pb_remote/src/pb_remote_server.c.obj
 .text.pb_remote_server_event_scan_cancel_cb
                0x0003182c       0x8c examples/pb_remote/server/CMakeFiles/pb_remote_server_nrf52832_xxAA_s132_6.0.0.dir/__/__/__/models/pb_remote/src/pb_remote_server.c.obj
 .text.pb_remote_server_event_scan_start_filter_cb
                0x000318b8      0x144 examples/pb_remote/server/CMakeFiles/pb_remote_server_nrf52832_xxAA_s132_6.0.0.dir/__/__/__/models/pb_remote/src/pb_remote_server.c.obj
 .text.pb_remote_server_init
                0x000319fc       0xa8 examples/pb_remote/server/CMakeFiles/pb_remote_server_nrf52832_xxAA_s132_6.0.0.dir/__/__/__/models/pb_remote/src/pb_remote_server.c.obj
                0x000319fc                pb_remote_server_init
 .text.pb_remote_server_enable
                0x00031aa4       0x28 examples/pb_remote/server/CMakeFiles/pb_remote_server_nrf52832_xxAA_s132_6.0.0.dir/__/__/__/models/pb_remote/src/pb_remote_server.c.obj
                0x00031aa4                pb_remote_server_enable
 .text.pb_remote_server_prov_bearer_set
                0x00031acc       0x18 examples/pb_remote/server/CMakeFiles/pb_remote_server_nrf52832_xxAA_s132_6.0.0.dir/__/__/__/models/pb_remote/src/pb_remote_server.c.obj
                0x00031acc                pb_remote_server_prov_bearer_set
 .text.add_to_publication_list
                0x00031ae4       0x78 examples/pb_remote/server/CMakeFiles/pb_remote_server_nrf52832_xxAA_s132_6.0.0.dir/__/__/__/mesh/access/src/access_publish.c.obj
 .text.step_resolution_to_us
                0x00031b5c       0x38 examples/pb_remote/server/CMakeFiles/pb_remote_server_nrf52832_xxAA_s132_6.0.0.dir/__/__/__/mesh/access/src/access_publish.c.obj
 .text.schedule_publication_timer
                0x00031b94      0x184 examples/pb_remote/server/CMakeFiles/pb_remote_server_nrf52832_xxAA_s132_6.0.0.dir/__/__/__/mesh/access/src/access_publish.c.obj
 .text.publish_timer_tick
                0x00031d18       0xa8 examples/pb_remote/server/CMakeFiles/pb_remote_server_nrf52832_xxAA_s132_6.0.0.dir/__/__/__/mesh/access/src/access_publish.c.obj
 .text.access_publish_init
                0x00031dc0       0x38 examples/pb_remote/server/CMakeFiles/pb_remote_server_nrf52832_xxAA_s132_6.0.0.dir/__/__/__/mesh/access/src/access_publish.c.obj
                0x00031dc0                access_publish_init
 .text.access_publish_period_set
                0x00031df8       0x60 examples/pb_remote/server/CMakeFiles/pb_remote_server_nrf52832_xxAA_s132_6.0.0.dir/__/__/__/mesh/access/src/access_publish.c.obj
                0x00031df8                access_publish_period_set
 .text.access_publish_period_get
                0x00031e58       0x22 examples/pb_remote/server/CMakeFiles/pb_remote_server_nrf52832_xxAA_s132_6.0.0.dir/__/__/__/mesh/access/src/access_publish.c.obj
                0x00031e58                access_publish_period_get
 .text.bitfield_get
                0x00031e7a       0x1a examples/pb_remote/server/CMakeFiles/pb_remote_server_nrf52832_xxAA_s132_6.0.0.dir/__/__/__/mesh/access/src/access.c.obj
 .text.is_valid_opcode
                0x00031e94       0x42 examples/pb_remote/server/CMakeFiles/pb_remote_server_nrf52832_xxAA_s132_6.0.0.dir/__/__/__/mesh/access/src/access.c.obj
 *fill*         0x00031ed6        0x2 
 .text.model_handle_valid_and_allocated
                0x00031ed8       0x20 examples/pb_remote/server/CMakeFiles/pb_remote_server_nrf52832_xxAA_s132_6.0.0.dir/__/__/__/mesh/access/src/access.c.obj
 .text.flash_manager_mem_available
                0x00031ef8        0x2 examples/pb_remote/server/CMakeFiles/pb_remote_server_nrf52832_xxAA_s132_6.0.0.dir/__/__/__/mesh/access/src/access.c.obj
 *fill*         0x00031efa        0x2 
 .text.restore_acquired_subscription
                0x00031efc       0x30 examples/pb_remote/server/CMakeFiles/pb_remote_server_nrf52832_xxAA_s132_6.0.0.dir/__/__/__/mesh/access/src/access.c.obj
 .text.restore_acquired_element
                0x00031f2c       0x1c examples/pb_remote/server/CMakeFiles/pb_remote_server_nrf52832_xxAA_s132_6.0.0.dir/__/__/__/mesh/access/src/access.c.obj
 .text.restore_flash_data
                0x00031f48       0x50 examples/pb_remote/server/CMakeFiles/pb_remote_server_nrf52832_xxAA_s132_6.0.0.dir/__/__/__/mesh/access/src/access.c.obj
 .text.flash_invalidate_complete
                0x00031f98        0x6 examples/pb_remote/server/CMakeFiles/pb_remote_server_nrf52832_xxAA_s132_6.0.0.dir/__/__/__/mesh/access/src/access.c.obj
 *fill*         0x00031f9e        0x2 
 .text.access_flash_config_clear
                0x00031fa0       0x28 examples/pb_remote/server/CMakeFiles/pb_remote_server_nrf52832_xxAA_s132_6.0.0.dir/__/__/__/mesh/access/src/access.c.obj
 .text.access_flash_config_store
                0x00031fc8      0x138 examples/pb_remote/server/CMakeFiles/pb_remote_server_nrf52832_xxAA_s132_6.0.0.dir/__/__/__/mesh/access/src/access.c.obj
                0x00031fc8                access_flash_config_store
 .text.access_state_clear
                0x00032100       0x48 examples/pb_remote/server/CMakeFiles/pb_remote_server_nrf52832_xxAA_s132_6.0.0.dir/__/__/__/mesh/access/src/access.c.obj
 .text.add_flash_manager
                0x00032148       0x58 examples/pb_remote/server/CMakeFiles/pb_remote_server_nrf52832_xxAA_s132_6.0.0.dir/__/__/__/mesh/access/src/access.c.obj
 .text.flash_remove_complete
                0x000321a0       0x58 examples/pb_remote/server/CMakeFiles/pb_remote_server_nrf52832_xxAA_s132_6.0.0.dir/__/__/__/mesh/access/src/access.c.obj
 .text.flash_write_complete
                0x000321f8       0x46 examples/pb_remote/server/CMakeFiles/pb_remote_server_nrf52832_xxAA_s132_6.0.0.dir/__/__/__/mesh/access/src/access.c.obj
 *fill*         0x0003223e        0x2 
 .text.unlikely.bitfield_next_get.part.0.constprop.5
                0x00032240       0x34 examples/pb_remote/server/CMakeFiles/pb_remote_server_nrf52832_xxAA_s132_6.0.0.dir/__/__/__/mesh/access/src/access.c.obj
 .text.packet_tx
                0x00032274      0x31c examples/pb_remote/server/CMakeFiles/pb_remote_server_nrf52832_xxAA_s132_6.0.0.dir/__/__/__/mesh/access/src/access.c.obj
 .text.restore_acquired_model
                0x00032590       0x94 examples/pb_remote/server/CMakeFiles/pb_remote_server_nrf52832_xxAA_s132_6.0.0.dir/__/__/__/mesh/access/src/access.c.obj
 .text.access_flash_config_load
                0x00032624      0x118 examples/pb_remote/server/CMakeFiles/pb_remote_server_nrf52832_xxAA_s132_6.0.0.dir/__/__/__/mesh/access/src/access.c.obj
                0x00032624                access_flash_config_load
 .text.access_incoming_handle
                0x0003273c      0x104 examples/pb_remote/server/CMakeFiles/pb_remote_server_nrf52832_xxAA_s132_6.0.0.dir/__/__/__/mesh/access/src/access.c.obj
                0x0003273c                access_incoming_handle
 .text.mesh_evt_cb
                0x00032840      0x134 examples/pb_remote/server/CMakeFiles/pb_remote_server_nrf52832_xxAA_s132_6.0.0.dir/__/__/__/mesh/access/src/access.c.obj
 .text.access_clear
                0x00032974       0x12 examples/pb_remote/server/CMakeFiles/pb_remote_server_nrf52832_xxAA_s132_6.0.0.dir/__/__/__/mesh/access/src/access.c.obj
                0x00032974                access_clear
 *fill*         0x00032986        0x2 
 .text.access_init
                0x00032988       0x2c examples/pb_remote/server/CMakeFiles/pb_remote_server_nrf52832_xxAA_s132_6.0.0.dir/__/__/__/mesh/access/src/access.c.obj
                0x00032988                access_init
 .text.access_model_add
                0x000329b4      0x1b8 examples/pb_remote/server/CMakeFiles/pb_remote_server_nrf52832_xxAA_s132_6.0.0.dir/__/__/__/mesh/access/src/access.c.obj
                0x000329b4                access_model_add
 .text.access_model_publish
                0x00032b6c        0xc examples/pb_remote/server/CMakeFiles/pb_remote_server_nrf52832_xxAA_s132_6.0.0.dir/__/__/__/mesh/access/src/access.c.obj
                0x00032b6c                access_model_publish
 .text.access_model_reply
                0x00032b78       0x12 examples/pb_remote/server/CMakeFiles/pb_remote_server_nrf52832_xxAA_s132_6.0.0.dir/__/__/__/mesh/access/src/access.c.obj
                0x00032b78                access_model_reply
 *fill*         0x00032b8a        0x2 
 .text.access_model_publish_address_set
                0x00032b8c       0x3c examples/pb_remote/server/CMakeFiles/pb_remote_server_nrf52832_xxAA_s132_6.0.0.dir/__/__/__/mesh/access/src/access.c.obj
                0x00032b8c                access_model_publish_address_set
 .text.access_model_publish_address_get
                0x00032bc8       0x28 examples/pb_remote/server/CMakeFiles/pb_remote_server_nrf52832_xxAA_s132_6.0.0.dir/__/__/__/mesh/access/src/access.c.obj
                0x00032bc8                access_model_publish_address_get
 .text.access_model_publish_retransmit_set
                0x00032bf0       0x4c examples/pb_remote/server/CMakeFiles/pb_remote_server_nrf52832_xxAA_s132_6.0.0.dir/__/__/__/mesh/access/src/access.c.obj
                0x00032bf0                access_model_publish_retransmit_set
 .text.access_model_publish_retransmit_get
                0x00032c3c       0x2c examples/pb_remote/server/CMakeFiles/pb_remote_server_nrf52832_xxAA_s132_6.0.0.dir/__/__/__/mesh/access/src/access.c.obj
                0x00032c3c                access_model_publish_retransmit_get
 .text.access_model_publish_period_set
                0x00032c68       0x6c examples/pb_remote/server/CMakeFiles/pb_remote_server_nrf52832_xxAA_s132_6.0.0.dir/__/__/__/mesh/access/src/access.c.obj
                0x00032c68                access_model_publish_period_set
 .text.access_model_publish_period_get
                0x00032cd4       0x3c examples/pb_remote/server/CMakeFiles/pb_remote_server_nrf52832_xxAA_s132_6.0.0.dir/__/__/__/mesh/access/src/access.c.obj
                0x00032cd4                access_model_publish_period_get
 .text.access_model_subscription_add
                0x00032d10       0x60 examples/pb_remote/server/CMakeFiles/pb_remote_server_nrf52832_xxAA_s132_6.0.0.dir/__/__/__/mesh/access/src/access.c.obj
                0x00032d10                access_model_subscription_add
 .text.access_model_subscription_remove
                0x00032d70       0x60 examples/pb_remote/server/CMakeFiles/pb_remote_server_nrf52832_xxAA_s132_6.0.0.dir/__/__/__/mesh/access/src/access.c.obj
                0x00032d70                access_model_subscription_remove
 .text.access_model_subscriptions_get
                0x00032dd0       0x80 examples/pb_remote/server/CMakeFiles/pb_remote_server_nrf52832_xxAA_s132_6.0.0.dir/__/__/__/mesh/access/src/access.c.obj
                0x00032dd0                access_model_subscriptions_get
 .text.access_model_application_bind
                0x00032e50       0x50 examples/pb_remote/server/CMakeFiles/pb_remote_server_nrf52832_xxAA_s132_6.0.0.dir/__/__/__/mesh/access/src/access.c.obj
                0x00032e50                access_model_application_bind
 .text.access_model_application_unbind
                0x00032ea0       0x50 examples/pb_remote/server/CMakeFiles/pb_remote_server_nrf52832_xxAA_s132_6.0.0.dir/__/__/__/mesh/access/src/access.c.obj
                0x00032ea0                access_model_application_unbind
 .text.access_model_applications_get
                0x00032ef0       0x58 examples/pb_remote/server/CMakeFiles/pb_remote_server_nrf52832_xxAA_s132_6.0.0.dir/__/__/__/mesh/access/src/access.c.obj
                0x00032ef0                access_model_applications_get
 .text.access_model_publish_application_set
                0x00032f48       0x3c examples/pb_remote/server/CMakeFiles/pb_remote_server_nrf52832_xxAA_s132_6.0.0.dir/__/__/__/mesh/access/src/access.c.obj
                0x00032f48                access_model_publish_application_set
 .text.access_model_publish_application_get
                0x00032f84       0x28 examples/pb_remote/server/CMakeFiles/pb_remote_server_nrf52832_xxAA_s132_6.0.0.dir/__/__/__/mesh/access/src/access.c.obj
                0x00032f84                access_model_publish_application_get
 .text.access_default_ttl_set
                0x00032fac       0x18 examples/pb_remote/server/CMakeFiles/pb_remote_server_nrf52832_xxAA_s132_6.0.0.dir/__/__/__/mesh/access/src/access.c.obj
                0x00032fac                access_default_ttl_set
 .text.access_default_ttl_get
                0x00032fc4        0xc examples/pb_remote/server/CMakeFiles/pb_remote_server_nrf52832_xxAA_s132_6.0.0.dir/__/__/__/mesh/access/src/access.c.obj
                0x00032fc4                access_default_ttl_get
 .text.access_model_publish_ttl_set
                0x00032fd0       0x40 examples/pb_remote/server/CMakeFiles/pb_remote_server_nrf52832_xxAA_s132_6.0.0.dir/__/__/__/mesh/access/src/access.c.obj
                0x00032fd0                access_model_publish_ttl_set
 .text.access_model_publish_ttl_get
                0x00033010       0x28 examples/pb_remote/server/CMakeFiles/pb_remote_server_nrf52832_xxAA_s132_6.0.0.dir/__/__/__/mesh/access/src/access.c.obj
                0x00033010                access_model_publish_ttl_get
 .text.access_element_location_get
                0x00033038       0x18 examples/pb_remote/server/CMakeFiles/pb_remote_server_nrf52832_xxAA_s132_6.0.0.dir/__/__/__/mesh/access/src/access.c.obj
                0x00033038                access_element_location_get
 .text.access_element_sig_model_count_get
                0x00033050       0x18 examples/pb_remote/server/CMakeFiles/pb_remote_server_nrf52832_xxAA_s132_6.0.0.dir/__/__/__/mesh/access/src/access.c.obj
                0x00033050                access_element_sig_model_count_get
 .text.access_element_vendor_model_count_get
                0x00033068       0x18 examples/pb_remote/server/CMakeFiles/pb_remote_server_nrf52832_xxAA_s132_6.0.0.dir/__/__/__/mesh/access/src/access.c.obj
                0x00033068                access_element_vendor_model_count_get
 .text.access_model_id_get
                0x00033080       0x2c examples/pb_remote/server/CMakeFiles/pb_remote_server_nrf52832_xxAA_s132_6.0.0.dir/__/__/__/mesh/access/src/access.c.obj
                0x00033080                access_model_id_get
 .text.access_handle_get
                0x000330ac       0x4c examples/pb_remote/server/CMakeFiles/pb_remote_server_nrf52832_xxAA_s132_6.0.0.dir/__/__/__/mesh/access/src/access.c.obj
                0x000330ac                access_handle_get
 .text.access_element_models_get
                0x000330f8       0x48 examples/pb_remote/server/CMakeFiles/pb_remote_server_nrf52832_xxAA_s132_6.0.0.dir/__/__/__/mesh/access/src/access.c.obj
                0x000330f8                access_element_models_get
 .text.access_model_p_args_get
                0x00033140       0x28 examples/pb_remote/server/CMakeFiles/pb_remote_server_nrf52832_xxAA_s132_6.0.0.dir/__/__/__/mesh/access/src/access.c.obj
                0x00033140                access_model_p_args_get
 .text.access_model_publication_stop
                0x00033168       0x70 examples/pb_remote/server/CMakeFiles/pb_remote_server_nrf52832_xxAA_s132_6.0.0.dir/__/__/__/mesh/access/src/access.c.obj
                0x00033168                access_model_publication_stop
 .text.access_model_publication_by_appkey_stop
                0x000331d8       0x36 examples/pb_remote/server/CMakeFiles/pb_remote_server_nrf52832_xxAA_s132_6.0.0.dir/__/__/__/mesh/access/src/access.c.obj
                0x000331d8                access_model_publication_by_appkey_stop
 *fill*         0x0003320e        0x2 
 .text.reliable_timer_cb
                0x00033210      0x11c examples/pb_remote/server/CMakeFiles/pb_remote_server_nrf52832_xxAA_s132_6.0.0.dir/__/__/__/mesh/access/src/access_reliable.c.obj
 .text.remove_and_reschedule
                0x0003332c       0xac examples/pb_remote/server/CMakeFiles/pb_remote_server_nrf52832_xxAA_s132_6.0.0.dir/__/__/__/mesh/access/src/access_reliable.c.obj
 .text.access_reliable_message_rx_cb
                0x000333d8       0x68 examples/pb_remote/server/CMakeFiles/pb_remote_server_nrf52832_xxAA_s132_6.0.0.dir/__/__/__/mesh/access/src/access_reliable.c.obj
                0x000333d8                access_reliable_message_rx_cb
 .text.access_reliable_init
                0x00033440       0x1c examples/pb_remote/server/CMakeFiles/pb_remote_server_nrf52832_xxAA_s132_6.0.0.dir/__/__/__/mesh/access/src/access_reliable.c.obj
                0x00033440                access_reliable_init
 .text.access_reliable_cancel_all
                0x0003345c       0x60 examples/pb_remote/server/CMakeFiles/pb_remote_server_nrf52832_xxAA_s132_6.0.0.dir/__/__/__/mesh/access/src/access_reliable.c.obj
                0x0003345c                access_reliable_cancel_all
 .text.access_model_reliable_cancel
                0x000334bc       0x68 examples/pb_remote/server/CMakeFiles/pb_remote_server_nrf52832_xxAA_s132_6.0.0.dir/__/__/__/mesh/access/src/access_reliable.c.obj
                0x000334bc                access_model_reliable_cancel
 .text.access_model_reliable_publish
                0x00033524      0x1b8 examples/pb_remote/server/CMakeFiles/pb_remote_server_nrf52832_xxAA_s132_6.0.0.dir/__/__/__/mesh/access/src/access_reliable.c.obj
                0x00033524                access_model_reliable_publish
 .text.access_loopback_process
                0x000336dc       0x28 examples/pb_remote/server/CMakeFiles/pb_remote_server_nrf52832_xxAA_s132_6.0.0.dir/__/__/__/mesh/access/src/access_loopback.c.obj
 .text.is_access_loopback
                0x00033704        0x4 examples/pb_remote/server/CMakeFiles/pb_remote_server_nrf52832_xxAA_s132_6.0.0.dir/__/__/__/mesh/access/src/access_loopback.c.obj
                0x00033704                is_access_loopback
 .text.access_loopback_init
                0x00033708       0x18 examples/pb_remote/server/CMakeFiles/pb_remote_server_nrf52832_xxAA_s132_6.0.0.dir/__/__/__/mesh/access/src/access_loopback.c.obj
                0x00033708                access_loopback_init
 .text.access_loopback_handle
                0x00033720       0x80 examples/pb_remote/server/CMakeFiles/pb_remote_server_nrf52832_xxAA_s132_6.0.0.dir/__/__/__/mesh/access/src/access_loopback.c.obj
                0x00033720                access_loopback_handle
 .text.bitfield_get
                0x000337a0       0x1a examples/pb_remote/server/CMakeFiles/pb_remote_server_nrf52832_xxAA_s132_6.0.0.dir/__/__/__/mesh/access/src/device_state_manager.c.obj
 .text.bitfield_set
                0x000337ba       0x18 examples/pb_remote/server/CMakeFiles/pb_remote_server_nrf52832_xxAA_s132_6.0.0.dir/__/__/__/mesh/access/src/device_state_manager.c.obj
 .text.bitfield_clear
                0x000337d2       0x1a examples/pb_remote/server/CMakeFiles/pb_remote_server_nrf52832_xxAA_s132_6.0.0.dir/__/__/__/mesh/access/src/device_state_manager.c.obj
 .text.bitfield_is_all_clear
                0x000337ec       0x3c examples/pb_remote/server/CMakeFiles/pb_remote_server_nrf52832_xxAA_s132_6.0.0.dir/__/__/__/mesh/access/src/device_state_manager.c.obj
 .text.address_handle_virtual_valid
                0x00033828       0x14 examples/pb_remote/server/CMakeFiles/pb_remote_server_nrf52832_xxAA_s132_6.0.0.dir/__/__/__/mesh/access/src/device_state_manager.c.obj
 .text.net_key_handle_get
                0x0003383c       0x38 examples/pb_remote/server/CMakeFiles/pb_remote_server_nrf52832_xxAA_s132_6.0.0.dir/__/__/__/mesh/access/src/device_state_manager.c.obj
 .text.dev_key_handle_get
                0x00033874       0x30 examples/pb_remote/server/CMakeFiles/pb_remote_server_nrf52832_xxAA_s132_6.0.0.dir/__/__/__/mesh/access/src/device_state_manager.c.obj
 .text.app_key_handle_get
                0x000338a4       0x38 examples/pb_remote/server/CMakeFiles/pb_remote_server_nrf52832_xxAA_s132_6.0.0.dir/__/__/__/mesh/access/src/device_state_manager.c.obj
 .text.addr_nonvirtual_to_flash_entry
                0x000338dc       0x10 examples/pb_remote/server/CMakeFiles/pb_remote_server_nrf52832_xxAA_s132_6.0.0.dir/__/__/__/mesh/access/src/device_state_manager.c.obj
 .text.devkey_set
                0x000338ec       0x4c examples/pb_remote/server/CMakeFiles/pb_remote_server_nrf52832_xxAA_s132_6.0.0.dir/__/__/__/mesh/access/src/device_state_manager.c.obj
 .text.devkey_to_dsm_entry
                0x00033938       0x16 examples/pb_remote/server/CMakeFiles/pb_remote_server_nrf52832_xxAA_s132_6.0.0.dir/__/__/__/mesh/access/src/device_state_manager.c.obj
 *fill*         0x0003394e        0x2 
 .text.devkey_to_flash_entry
                0x00033950       0x28 examples/pb_remote/server/CMakeFiles/pb_remote_server_nrf52832_xxAA_s132_6.0.0.dir/__/__/__/mesh/access/src/device_state_manager.c.obj
 .text.addr_virtual_to_flash_entry
                0x00033978       0x18 examples/pb_remote/server/CMakeFiles/pb_remote_server_nrf52832_xxAA_s132_6.0.0.dir/__/__/__/mesh/access/src/device_state_manager.c.obj
 .text.addr_unicast_to_dsm_entry
                0x00033990        0xc examples/pb_remote/server/CMakeFiles/pb_remote_server_nrf52832_xxAA_s132_6.0.0.dir/__/__/__/mesh/access/src/device_state_manager.c.obj
 .text.addr_unicast_to_flash_entry
                0x0003399c       0x10 examples/pb_remote/server/CMakeFiles/pb_remote_server_nrf52832_xxAA_s132_6.0.0.dir/__/__/__/mesh/access/src/device_state_manager.c.obj
 .text.flash_mem_listener_callback
                0x000339ac       0x14 examples/pb_remote/server/CMakeFiles/pb_remote_server_nrf52832_xxAA_s132_6.0.0.dir/__/__/__/mesh/access/src/device_state_manager.c.obj
 .text.get_subnet_handle
                0x000339c0       0x34 examples/pb_remote/server/CMakeFiles/pb_remote_server_nrf52832_xxAA_s132_6.0.0.dir/__/__/__/mesh/access/src/device_state_manager.c.obj
 .text.appkey_set
                0x000339f4       0x70 examples/pb_remote/server/CMakeFiles/pb_remote_server_nrf52832_xxAA_s132_6.0.0.dir/__/__/__/mesh/access/src/device_state_manager.c.obj
 .text.appkey_to_flash_entry
                0x00033a64       0x54 examples/pb_remote/server/CMakeFiles/pb_remote_server_nrf52832_xxAA_s132_6.0.0.dir/__/__/__/mesh/access/src/device_state_manager.c.obj
 .text.subnet_to_flash_entry
                0x00033ab8       0x60 examples/pb_remote/server/CMakeFiles/pb_remote_server_nrf52832_xxAA_s132_6.0.0.dir/__/__/__/mesh/access/src/device_state_manager.c.obj
 .text.bitfield_clear_all
                0x00033b18        0xe examples/pb_remote/server/CMakeFiles/pb_remote_server_nrf52832_xxAA_s132_6.0.0.dir/__/__/__/mesh/access/src/device_state_manager.c.obj
 *fill*         0x00033b26        0x2 
 .text.subnet_set
                0x00033b28       0x98 examples/pb_remote/server/CMakeFiles/pb_remote_server_nrf52832_xxAA_s132_6.0.0.dir/__/__/__/mesh/access/src/device_state_manager.c.obj
 .text.virtual_address_set
                0x00033bc0       0x48 examples/pb_remote/server/CMakeFiles/pb_remote_server_nrf52832_xxAA_s132_6.0.0.dir/__/__/__/mesh/access/src/device_state_manager.c.obj
 .text.addr_virtual_to_dsm_entry
                0x00033c08        0xc examples/pb_remote/server/CMakeFiles/pb_remote_server_nrf52832_xxAA_s132_6.0.0.dir/__/__/__/mesh/access/src/device_state_manager.c.obj
 .text.reset_flash_area
                0x00033c14       0x28 examples/pb_remote/server/CMakeFiles/pb_remote_server_nrf52832_xxAA_s132_6.0.0.dir/__/__/__/mesh/access/src/device_state_manager.c.obj
 .text.flash_save
                0x00033c3c       0x7c examples/pb_remote/server/CMakeFiles/pb_remote_server_nrf52832_xxAA_s132_6.0.0.dir/__/__/__/mesh/access/src/device_state_manager.c.obj
 .text.flash_invalidate
                0x00033cb8       0x64 examples/pb_remote/server/CMakeFiles/pb_remote_server_nrf52832_xxAA_s132_6.0.0.dir/__/__/__/mesh/access/src/device_state_manager.c.obj
 .text.flash_update_all
                0x00033d1c       0x6c examples/pb_remote/server/CMakeFiles/pb_remote_server_nrf52832_xxAA_s132_6.0.0.dir/__/__/__/mesh/access/src/device_state_manager.c.obj
 .text.virtual_address_uuid_index_get
                0x00033d88       0x3c examples/pb_remote/server/CMakeFiles/pb_remote_server_nrf52832_xxAA_s132_6.0.0.dir/__/__/__/mesh/access/src/device_state_manager.c.obj
 .text.add_address_virtual
                0x00033dc4       0x70 examples/pb_remote/server/CMakeFiles/pb_remote_server_nrf52832_xxAA_s132_6.0.0.dir/__/__/__/mesh/access/src/device_state_manager.c.obj
 .text.get_subnet_handle_by_beacon_info
                0x00033e34       0x24 examples/pb_remote/server/CMakeFiles/pb_remote_server_nrf52832_xxAA_s132_6.0.0.dir/__/__/__/mesh/access/src/device_state_manager.c.obj
 .text.get_app_handle
                0x00033e58       0x34 examples/pb_remote/server/CMakeFiles/pb_remote_server_nrf52832_xxAA_s132_6.0.0.dir/__/__/__/mesh/access/src/device_state_manager.c.obj
 .text.appkey_to_dsm_entry
                0x00033e8c       0x68 examples/pb_remote/server/CMakeFiles/pb_remote_server_nrf52832_xxAA_s132_6.0.0.dir/__/__/__/mesh/access/src/device_state_manager.c.obj
 .text.subnet_to_dsm_entry
                0x00033ef4       0x68 examples/pb_remote/server/CMakeFiles/pb_remote_server_nrf52832_xxAA_s132_6.0.0.dir/__/__/__/mesh/access/src/device_state_manager.c.obj
 .text.flash_operation_complete
                0x00033f5c       0x4c examples/pb_remote/server/CMakeFiles/pb_remote_server_nrf52832_xxAA_s132_6.0.0.dir/__/__/__/mesh/access/src/device_state_manager.c.obj
 .text.flash_invalidate_complete
                0x00033fa8        0x8 examples/pb_remote/server/CMakeFiles/pb_remote_server_nrf52832_xxAA_s132_6.0.0.dir/__/__/__/mesh/access/src/device_state_manager.c.obj
 .text.flash_write_complete
                0x00033fb0        0x8 examples/pb_remote/server/CMakeFiles/pb_remote_server_nrf52832_xxAA_s132_6.0.0.dir/__/__/__/mesh/access/src/device_state_manager.c.obj
 .text.add_address.part.8
                0x00033fb8      0x144 examples/pb_remote/server/CMakeFiles/pb_remote_server_nrf52832_xxAA_s132_6.0.0.dir/__/__/__/mesh/access/src/device_state_manager.c.obj
 .text.bitfield_next_get.part.0.constprop.17
                0x000340fc       0x38 examples/pb_remote/server/CMakeFiles/pb_remote_server_nrf52832_xxAA_s132_6.0.0.dir/__/__/__/mesh/access/src/device_state_manager.c.obj
 .text.address_handle_valid
                0x00034134       0x28 examples/pb_remote/server/CMakeFiles/pb_remote_server_nrf52832_xxAA_s132_6.0.0.dir/__/__/__/mesh/access/src/device_state_manager.c.obj
 .text.address_handle_nonvirtual_valid
                0x0003415c       0x14 examples/pb_remote/server/CMakeFiles/pb_remote_server_nrf52832_xxAA_s132_6.0.0.dir/__/__/__/mesh/access/src/device_state_manager.c.obj
 .text.address_delete_if_unused
                0x00034170       0x78 examples/pb_remote/server/CMakeFiles/pb_remote_server_nrf52832_xxAA_s132_6.0.0.dir/__/__/__/mesh/access/src/device_state_manager.c.obj
 .text.addr_nonvirtual_to_dsm_entry
                0x000341e8       0x38 examples/pb_remote/server/CMakeFiles/pb_remote_server_nrf52832_xxAA_s132_6.0.0.dir/__/__/__/mesh/access/src/device_state_manager.c.obj
 .text.dsm_flash_config_load
                0x00034220      0x120 examples/pb_remote/server/CMakeFiles/pb_remote_server_nrf52832_xxAA_s132_6.0.0.dir/__/__/__/mesh/access/src/device_state_manager.c.obj
                0x00034220                dsm_flash_config_load
 .text.dsm_flash_area_get
                0x00034340        0xc examples/pb_remote/server/CMakeFiles/pb_remote_server_nrf52832_xxAA_s132_6.0.0.dir/__/__/__/mesh/access/src/device_state_manager.c.obj
                0x00034340                dsm_flash_area_get
 .text.build_flash_area
                0x0003434c       0x8c examples/pb_remote/server/CMakeFiles/pb_remote_server_nrf52832_xxAA_s132_6.0.0.dir/__/__/__/mesh/access/src/device_state_manager.c.obj
 .text.flash_remove_complete
                0x000343d8        0x4 examples/pb_remote/server/CMakeFiles/pb_remote_server_nrf52832_xxAA_s132_6.0.0.dir/__/__/__/mesh/access/src/device_state_manager.c.obj
 .text.dsm_clear
                0x000343dc       0xa8 examples/pb_remote/server/CMakeFiles/pb_remote_server_nrf52832_xxAA_s132_6.0.0.dir/__/__/__/mesh/access/src/device_state_manager.c.obj
                0x000343dc                dsm_clear
 .text.dsm_init
                0x00034484       0x3c examples/pb_remote/server/CMakeFiles/pb_remote_server_nrf52832_xxAA_s132_6.0.0.dir/__/__/__/mesh/access/src/device_state_manager.c.obj
                0x00034484                dsm_init
 .text.dsm_local_unicast_addresses_set
                0x000344c0       0x78 examples/pb_remote/server/CMakeFiles/pb_remote_server_nrf52832_xxAA_s132_6.0.0.dir/__/__/__/mesh/access/src/device_state_manager.c.obj
                0x000344c0                dsm_local_unicast_addresses_set
 .text.dsm_local_unicast_addresses_get
                0x00034538       0x20 examples/pb_remote/server/CMakeFiles/pb_remote_server_nrf52832_xxAA_s132_6.0.0.dir/__/__/__/mesh/access/src/device_state_manager.c.obj
                0x00034538                dsm_local_unicast_addresses_get
 .text.dsm_address_publish_add
                0x00034558        0xc examples/pb_remote/server/CMakeFiles/pb_remote_server_nrf52832_xxAA_s132_6.0.0.dir/__/__/__/mesh/access/src/device_state_manager.c.obj
                0x00034558                dsm_address_publish_add
 .text.dsm_address_publish_add_handle
                0x00034564       0x38 examples/pb_remote/server/CMakeFiles/pb_remote_server_nrf52832_xxAA_s132_6.0.0.dir/__/__/__/mesh/access/src/device_state_manager.c.obj
                0x00034564                dsm_address_publish_add_handle
 .text.dsm_address_publish_virtual_add
                0x0003459c        0x6 examples/pb_remote/server/CMakeFiles/pb_remote_server_nrf52832_xxAA_s132_6.0.0.dir/__/__/__/mesh/access/src/device_state_manager.c.obj
                0x0003459c                dsm_address_publish_virtual_add
 *fill*         0x000345a2        0x2 
 .text.dsm_address_publish_remove
                0x000345a4       0x40 examples/pb_remote/server/CMakeFiles/pb_remote_server_nrf52832_xxAA_s132_6.0.0.dir/__/__/__/mesh/access/src/device_state_manager.c.obj
                0x000345a4                dsm_address_publish_remove
 .text.dsm_address_subscription_add
                0x000345e4        0xc examples/pb_remote/server/CMakeFiles/pb_remote_server_nrf52832_xxAA_s132_6.0.0.dir/__/__/__/mesh/access/src/device_state_manager.c.obj
                0x000345e4                dsm_address_subscription_add
 .text.dsm_address_subscription_virtual_add
                0x000345f0        0x6 examples/pb_remote/server/CMakeFiles/pb_remote_server_nrf52832_xxAA_s132_6.0.0.dir/__/__/__/mesh/access/src/device_state_manager.c.obj
                0x000345f0                dsm_address_subscription_virtual_add
 *fill*         0x000345f6        0x2 
 .text.dsm_address_subscription_add_handle
                0x000345f8       0x38 examples/pb_remote/server/CMakeFiles/pb_remote_server_nrf52832_xxAA_s132_6.0.0.dir/__/__/__/mesh/access/src/device_state_manager.c.obj
                0x000345f8                dsm_address_subscription_add_handle
 .text.dsm_address_get
                0x00034630       0x5c examples/pb_remote/server/CMakeFiles/pb_remote_server_nrf52832_xxAA_s132_6.0.0.dir/__/__/__/mesh/access/src/device_state_manager.c.obj
                0x00034630                dsm_address_get
 .text.dsm_address_subscription_remove
                0x0003468c       0x58 examples/pb_remote/server/CMakeFiles/pb_remote_server_nrf52832_xxAA_s132_6.0.0.dir/__/__/__/mesh/access/src/device_state_manager.c.obj
                0x0003468c                dsm_address_subscription_remove
 .text.dsm_address_handle_get
                0x000346e4       0x98 examples/pb_remote/server/CMakeFiles/pb_remote_server_nrf52832_xxAA_s132_6.0.0.dir/__/__/__/mesh/access/src/device_state_manager.c.obj
                0x000346e4                dsm_address_handle_get
 .text.dsm_net_key_index_to_subnet_handle
                0x0003477c       0x1c examples/pb_remote/server/CMakeFiles/pb_remote_server_nrf52832_xxAA_s132_6.0.0.dir/__/__/__/mesh/access/src/device_state_manager.c.obj
                0x0003477c                dsm_net_key_index_to_subnet_handle
 .text.dsm_subnet_handle_get
                0x00034798        0xc examples/pb_remote/server/CMakeFiles/pb_remote_server_nrf52832_xxAA_s132_6.0.0.dir/__/__/__/mesh/access/src/device_state_manager.c.obj
                0x00034798                dsm_subnet_handle_get
 .text.dsm_appkey_index_to_appkey_handle
                0x000347a4       0x1c examples/pb_remote/server/CMakeFiles/pb_remote_server_nrf52832_xxAA_s132_6.0.0.dir/__/__/__/mesh/access/src/device_state_manager.c.obj
                0x000347a4                dsm_appkey_index_to_appkey_handle
 .text.dsm_appkey_handle_get
                0x000347c0        0xc examples/pb_remote/server/CMakeFiles/pb_remote_server_nrf52832_xxAA_s132_6.0.0.dir/__/__/__/mesh/access/src/device_state_manager.c.obj
                0x000347c0                dsm_appkey_handle_get
 .text.dsm_appkey_handle_to_appkey_index
                0x000347cc       0x30 examples/pb_remote/server/CMakeFiles/pb_remote_server_nrf52832_xxAA_s132_6.0.0.dir/__/__/__/mesh/access/src/device_state_manager.c.obj
                0x000347cc                dsm_appkey_handle_to_appkey_index
 .text.dsm_appkey_handle_to_subnet_handle
                0x000347fc       0x64 examples/pb_remote/server/CMakeFiles/pb_remote_server_nrf52832_xxAA_s132_6.0.0.dir/__/__/__/mesh/access/src/device_state_manager.c.obj
                0x000347fc                dsm_appkey_handle_to_subnet_handle
 .text.dsm_subnet_add
                0x00034860       0x78 examples/pb_remote/server/CMakeFiles/pb_remote_server_nrf52832_xxAA_s132_6.0.0.dir/__/__/__/mesh/access/src/device_state_manager.c.obj
                0x00034860                dsm_subnet_add
 .text.dsm_subnet_kr_phase_get
                0x000348d8       0x2c examples/pb_remote/server/CMakeFiles/pb_remote_server_nrf52832_xxAA_s132_6.0.0.dir/__/__/__/mesh/access/src/device_state_manager.c.obj
                0x000348d8                dsm_subnet_kr_phase_get
 .text.dsm_subnet_update
                0x00034904       0xa4 examples/pb_remote/server/CMakeFiles/pb_remote_server_nrf52832_xxAA_s132_6.0.0.dir/__/__/__/mesh/access/src/device_state_manager.c.obj
                0x00034904                dsm_subnet_update
 .text.dsm_subnet_update_swap_keys
                0x000349a8       0x50 examples/pb_remote/server/CMakeFiles/pb_remote_server_nrf52832_xxAA_s132_6.0.0.dir/__/__/__/mesh/access/src/device_state_manager.c.obj
                0x000349a8                dsm_subnet_update_swap_keys
 .text.dsm_subnet_update_commit
                0x000349f8       0xbc examples/pb_remote/server/CMakeFiles/pb_remote_server_nrf52832_xxAA_s132_6.0.0.dir/__/__/__/mesh/access/src/device_state_manager.c.obj
                0x000349f8                dsm_subnet_update_commit
 .text.mesh_evt_handler
                0x00034ab4       0x4c examples/pb_remote/server/CMakeFiles/pb_remote_server_nrf52832_xxAA_s132_6.0.0.dir/__/__/__/mesh/access/src/device_state_manager.c.obj
 .text.dsm_subnet_get_all
                0x00034b00       0x3c examples/pb_remote/server/CMakeFiles/pb_remote_server_nrf52832_xxAA_s132_6.0.0.dir/__/__/__/mesh/access/src/device_state_manager.c.obj
                0x00034b00                dsm_subnet_get_all
 .text.dsm_devkey_add
                0x00034b3c       0x78 examples/pb_remote/server/CMakeFiles/pb_remote_server_nrf52832_xxAA_s132_6.0.0.dir/__/__/__/mesh/access/src/device_state_manager.c.obj
                0x00034b3c                dsm_devkey_add
 .text.dsm_appkey_add
                0x00034bb4       0x7c examples/pb_remote/server/CMakeFiles/pb_remote_server_nrf52832_xxAA_s132_6.0.0.dir/__/__/__/mesh/access/src/device_state_manager.c.obj
                0x00034bb4                dsm_appkey_add
 .text.dsm_appkey_update
                0x00034c30       0x90 examples/pb_remote/server/CMakeFiles/pb_remote_server_nrf52832_xxAA_s132_6.0.0.dir/__/__/__/mesh/access/src/device_state_manager.c.obj
                0x00034c30                dsm_appkey_update
 .text.dsm_appkey_delete
                0x00034cc0       0x2c examples/pb_remote/server/CMakeFiles/pb_remote_server_nrf52832_xxAA_s132_6.0.0.dir/__/__/__/mesh/access/src/device_state_manager.c.obj
                0x00034cc0                dsm_appkey_delete
 .text.dsm_subnet_delete
                0x00034cec       0x84 examples/pb_remote/server/CMakeFiles/pb_remote_server_nrf52832_xxAA_s132_6.0.0.dir/__/__/__/mesh/access/src/device_state_manager.c.obj
                0x00034cec                dsm_subnet_delete
 .text.dsm_appkey_get_all
                0x00034d70       0x58 examples/pb_remote/server/CMakeFiles/pb_remote_server_nrf52832_xxAA_s132_6.0.0.dir/__/__/__/mesh/access/src/device_state_manager.c.obj
                0x00034d70                dsm_appkey_get_all
 .text.dsm_tx_secmat_get
                0x00034dc8       0xa4 examples/pb_remote/server/CMakeFiles/pb_remote_server_nrf52832_xxAA_s132_6.0.0.dir/__/__/__/mesh/access/src/device_state_manager.c.obj
                0x00034dc8                dsm_tx_secmat_get
 .text.dsm_net_secmat_from_keyindex_get
                0x00034e6c       0x30 examples/pb_remote/server/CMakeFiles/pb_remote_server_nrf52832_xxAA_s132_6.0.0.dir/__/__/__/mesh/access/src/device_state_manager.c.obj
                0x00034e6c                dsm_net_secmat_from_keyindex_get
 .text.nrf_mesh_net_secmat_next_get
                0x00034e9c       0x90 examples/pb_remote/server/CMakeFiles/pb_remote_server_nrf52832_xxAA_s132_6.0.0.dir/__/__/__/mesh/access/src/device_state_manager.c.obj
                0x00034e9c                nrf_mesh_net_secmat_next_get
 .text.nrf_mesh_app_secmat_next_get
                0x00034f2c       0x70 examples/pb_remote/server/CMakeFiles/pb_remote_server_nrf52832_xxAA_s132_6.0.0.dir/__/__/__/mesh/access/src/device_state_manager.c.obj
                0x00034f2c                nrf_mesh_app_secmat_next_get
 .text.nrf_mesh_devkey_secmat_get
                0x00034f9c       0x28 examples/pb_remote/server/CMakeFiles/pb_remote_server_nrf52832_xxAA_s132_6.0.0.dir/__/__/__/mesh/access/src/device_state_manager.c.obj
                0x00034f9c                nrf_mesh_devkey_secmat_get
 .text.nrf_mesh_beacon_info_next_get
                0x00034fc4       0xb4 examples/pb_remote/server/CMakeFiles/pb_remote_server_nrf52832_xxAA_s132_6.0.0.dir/__/__/__/mesh/access/src/device_state_manager.c.obj
                0x00034fc4                nrf_mesh_beacon_info_next_get
 .text.nrf_mesh_rx_address_get
                0x00035078      0x130 examples/pb_remote/server/CMakeFiles/pb_remote_server_nrf52832_xxAA_s132_6.0.0.dir/__/__/__/mesh/access/src/device_state_manager.c.obj
                0x00035078                nrf_mesh_rx_address_get
 .text.dsm_address_is_rx
                0x000351a8       0x48 examples/pb_remote/server/CMakeFiles/pb_remote_server_nrf52832_xxAA_s132_6.0.0.dir/__/__/__/mesh/access/src/device_state_manager.c.obj
                0x000351a8                dsm_address_is_rx
 .text.nrf_mesh_unicast_address_get
                0x000351f0       0x20 examples/pb_remote/server/CMakeFiles/pb_remote_server_nrf52832_xxAA_s132_6.0.0.dir/__/__/__/mesh/access/src/device_state_manager.c.obj
                0x000351f0                nrf_mesh_unicast_address_get
 .text.config_composition_data_get
                0x00035210      0x188 examples/pb_remote/server/CMakeFiles/pb_remote_server_nrf52832_xxAA_s132_6.0.0.dir/__/__/__/models/config/src/composition_data.c.obj
                0x00035210                config_composition_data_get
 .text.app_evt_send
                0x00035398       0x10 examples/pb_remote/server/CMakeFiles/pb_remote_server_nrf52832_xxAA_s132_6.0.0.dir/__/__/__/models/config/src/config_server.c.obj
 .text.config_server_heartbeat_publication_count_decrement
                0x000353a8       0x1c examples/pb_remote/server/CMakeFiles/pb_remote_server_nrf52832_xxAA_s132_6.0.0.dir/__/__/__/models/config/src/config_server.c.obj
 .text.get_element_index
                0x000353c4       0x26 examples/pb_remote/server/CMakeFiles/pb_remote_server_nrf52832_xxAA_s132_6.0.0.dir/__/__/__/models/config/src/config_server.c.obj
 *fill*         0x000353ea        0x2 
 .text.config_server_heartbeat_publication_params_get
                0x000353ec       0x34 examples/pb_remote/server/CMakeFiles/pb_remote_server_nrf52832_xxAA_s132_6.0.0.dir/__/__/__/models/config/src/config_server.c.obj
 .text.send_reply
                0x00035420       0x34 examples/pb_remote/server/CMakeFiles/pb_remote_server_nrf52832_xxAA_s132_6.0.0.dir/__/__/__/models/config/src/config_server.c.obj
 .text.send_network_transmit_status
                0x00035454       0x76 examples/pb_remote/server/CMakeFiles/pb_remote_server_nrf52832_xxAA_s132_6.0.0.dir/__/__/__/models/config/src/config_server.c.obj
 .text.handle_config_network_transmit_set
                0x000354ca       0x82 examples/pb_remote/server/CMakeFiles/pb_remote_server_nrf52832_xxAA_s132_6.0.0.dir/__/__/__/models/config/src/config_server.c.obj
 .text.handle_config_network_transmit_get
                0x0003554c        0xa examples/pb_remote/server/CMakeFiles/pb_remote_server_nrf52832_xxAA_s132_6.0.0.dir/__/__/__/models/config/src/config_server.c.obj
 *fill*         0x00035556        0x2 
 .text.handle_node_reset
                0x00035558       0x34 examples/pb_remote/server/CMakeFiles/pb_remote_server_nrf52832_xxAA_s132_6.0.0.dir/__/__/__/models/config/src/config_server.c.obj
 .text.send_netkey_status
                0x0003558c       0x2c examples/pb_remote/server/CMakeFiles/pb_remote_server_nrf52832_xxAA_s132_6.0.0.dir/__/__/__/models/config/src/config_server.c.obj
 .text.send_relay_status
                0x000355b8       0xa8 examples/pb_remote/server/CMakeFiles/pb_remote_server_nrf52832_xxAA_s132_6.0.0.dir/__/__/__/models/config/src/config_server.c.obj
 .text.handle_config_relay_set
                0x00035660       0xb6 examples/pb_remote/server/CMakeFiles/pb_remote_server_nrf52832_xxAA_s132_6.0.0.dir/__/__/__/models/config/src/config_server.c.obj
 .text.handle_config_relay_get
                0x00035716        0xa examples/pb_remote/server/CMakeFiles/pb_remote_server_nrf52832_xxAA_s132_6.0.0.dir/__/__/__/models/config/src/config_server.c.obj
 .text.send_subscription_status
                0x00035720       0x42 examples/pb_remote/server/CMakeFiles/pb_remote_server_nrf52832_xxAA_s132_6.0.0.dir/__/__/__/models/config/src/config_server.c.obj
 .text.send_appkey_status
                0x00035762       0x3a examples/pb_remote/server/CMakeFiles/pb_remote_server_nrf52832_xxAA_s132_6.0.0.dir/__/__/__/models/config/src/config_server.c.obj
 .text.handle_netkey_get
                0x0003579c       0x50 examples/pb_remote/server/CMakeFiles/pb_remote_server_nrf52832_xxAA_s132_6.0.0.dir/__/__/__/models/config/src/config_server.c.obj
 .text.handle_netkey_delete
                0x000357ec       0xbc examples/pb_remote/server/CMakeFiles/pb_remote_server_nrf52832_xxAA_s132_6.0.0.dir/__/__/__/models/config/src/config_server.c.obj
 .text.handle_netkey_add_update
                0x000358a8       0x78 examples/pb_remote/server/CMakeFiles/pb_remote_server_nrf52832_xxAA_s132_6.0.0.dir/__/__/__/models/config/src/config_server.c.obj
 .text.status_error_sub_send
                0x00035920      0x124 examples/pb_remote/server/CMakeFiles/pb_remote_server_nrf52832_xxAA_s132_6.0.0.dir/__/__/__/models/config/src/config_server.c.obj
 .text.delete_all_subscriptions
                0x00035a44       0x66 examples/pb_remote/server/CMakeFiles/pb_remote_server_nrf52832_xxAA_s132_6.0.0.dir/__/__/__/models/config/src/config_server.c.obj
 .text.send_publication_status
                0x00035aaa      0x170 examples/pb_remote/server/CMakeFiles/pb_remote_server_nrf52832_xxAA_s132_6.0.0.dir/__/__/__/models/config/src/config_server.c.obj
 .text.handle_config_key_refresh_phase_set
                0x00035c1a       0xc8 examples/pb_remote/server/CMakeFiles/pb_remote_server_nrf52832_xxAA_s132_6.0.0.dir/__/__/__/models/config/src/config_server.c.obj
 .text.handle_config_default_ttl_set
                0x00035ce2       0x50 examples/pb_remote/server/CMakeFiles/pb_remote_server_nrf52832_xxAA_s132_6.0.0.dir/__/__/__/models/config/src/config_server.c.obj
 .text.send_net_beacon_state
                0x00035d32       0x2c examples/pb_remote/server/CMakeFiles/pb_remote_server_nrf52832_xxAA_s132_6.0.0.dir/__/__/__/models/config/src/config_server.c.obj
 .text.handle_config_beacon_get
                0x00035d5e        0xa examples/pb_remote/server/CMakeFiles/pb_remote_server_nrf52832_xxAA_s132_6.0.0.dir/__/__/__/models/config/src/config_server.c.obj
 .text.handle_heartbeat_publication_set
                0x00035d68      0x12c examples/pb_remote/server/CMakeFiles/pb_remote_server_nrf52832_xxAA_s132_6.0.0.dir/__/__/__/models/config/src/config_server.c.obj
 .text.mesh_event_cb
                0x00035e94       0x70 examples/pb_remote/server/CMakeFiles/pb_remote_server_nrf52832_xxAA_s132_6.0.0.dir/__/__/__/models/config/src/config_server.c.obj
 .text.handle_node_identity_set
                0x00035f04       0x3e examples/pb_remote/server/CMakeFiles/pb_remote_server_nrf52832_xxAA_s132_6.0.0.dir/__/__/__/models/config/src/config_server.c.obj
 .text.handle_node_identity_get
                0x00035f42       0x3c examples/pb_remote/server/CMakeFiles/pb_remote_server_nrf52832_xxAA_s132_6.0.0.dir/__/__/__/models/config/src/config_server.c.obj
 .text.handle_config_gatt_proxy_get.part.9
                0x00035f7e       0x2a examples/pb_remote/server/CMakeFiles/pb_remote_server_nrf52832_xxAA_s132_6.0.0.dir/__/__/__/models/config/src/config_server.c.obj
 .text.handle_config_gatt_proxy_set
                0x00035fa8       0x14 examples/pb_remote/server/CMakeFiles/pb_remote_server_nrf52832_xxAA_s132_6.0.0.dir/__/__/__/models/config/src/config_server.c.obj
 .text.handle_config_gatt_proxy_get
                0x00035fbc        0xa examples/pb_remote/server/CMakeFiles/pb_remote_server_nrf52832_xxAA_s132_6.0.0.dir/__/__/__/models/config/src/config_server.c.obj
 .text.handle_config_friend_get.part.11
                0x00035fc6       0x2a examples/pb_remote/server/CMakeFiles/pb_remote_server_nrf52832_xxAA_s132_6.0.0.dir/__/__/__/models/config/src/config_server.c.obj
 .text.handle_config_friend_set
                0x00035ff0       0x14 examples/pb_remote/server/CMakeFiles/pb_remote_server_nrf52832_xxAA_s132_6.0.0.dir/__/__/__/models/config/src/config_server.c.obj
 .text.handle_config_friend_get
                0x00036004        0xa examples/pb_remote/server/CMakeFiles/pb_remote_server_nrf52832_xxAA_s132_6.0.0.dir/__/__/__/models/config/src/config_server.c.obj
 .text.status_error_pub_send
                0x0003600e       0x9c examples/pb_remote/server/CMakeFiles/pb_remote_server_nrf52832_xxAA_s132_6.0.0.dir/__/__/__/models/config/src/config_server.c.obj
 .text.handle_config_key_refresh_phase_get
                0x000360aa       0x58 examples/pb_remote/server/CMakeFiles/pb_remote_server_nrf52832_xxAA_s132_6.0.0.dir/__/__/__/models/config/src/config_server.c.obj
 .text.handle_config_default_ttl_get
                0x00036102       0x30 examples/pb_remote/server/CMakeFiles/pb_remote_server_nrf52832_xxAA_s132_6.0.0.dir/__/__/__/models/config/src/config_server.c.obj
 .text.handle_config_beacon_set
                0x00036132       0x42 examples/pb_remote/server/CMakeFiles/pb_remote_server_nrf52832_xxAA_s132_6.0.0.dir/__/__/__/models/config/src/config_server.c.obj
 .text.handle_composition_data_get
                0x00036174       0x50 examples/pb_remote/server/CMakeFiles/pb_remote_server_nrf52832_xxAA_s132_6.0.0.dir/__/__/__/models/config/src/config_server.c.obj
 .text.handle_appkey_delete
                0x000361c4       0xc2 examples/pb_remote/server/CMakeFiles/pb_remote_server_nrf52832_xxAA_s132_6.0.0.dir/__/__/__/models/config/src/config_server.c.obj
 .text.get_subscription_list.constprop.25
                0x00036286       0x50 examples/pb_remote/server/CMakeFiles/pb_remote_server_nrf52832_xxAA_s132_6.0.0.dir/__/__/__/models/config/src/config_server.c.obj
 .text.handle_appkey_get
                0x000362d6       0xb8 examples/pb_remote/server/CMakeFiles/pb_remote_server_nrf52832_xxAA_s132_6.0.0.dir/__/__/__/models/config/src/config_server.c.obj
 .text.heartbeat_subscription_count_encode
                0x0003638e       0x26 examples/pb_remote/server/CMakeFiles/pb_remote_server_nrf52832_xxAA_s132_6.0.0.dir/__/__/__/models/config/src/config_server.c.obj
 .text.handle_appkey_add
                0x000363b4       0xba examples/pb_remote/server/CMakeFiles/pb_remote_server_nrf52832_xxAA_s132_6.0.0.dir/__/__/__/models/config/src/config_server.c.obj
 .text.handle_appkey_update
                0x0003646e       0xbc examples/pb_remote/server/CMakeFiles/pb_remote_server_nrf52832_xxAA_s132_6.0.0.dir/__/__/__/models/config/src/config_server.c.obj
 .text.heartbeat_pubsub_period_encode
                0x0003652a       0x26 examples/pb_remote/server/CMakeFiles/pb_remote_server_nrf52832_xxAA_s132_6.0.0.dir/__/__/__/models/config/src/config_server.c.obj
 .text.handle_heartbeat_publication_get
                0x00036550       0x80 examples/pb_remote/server/CMakeFiles/pb_remote_server_nrf52832_xxAA_s132_6.0.0.dir/__/__/__/models/config/src/config_server.c.obj
 .text.handle_heartbeat_subscription_get
                0x000365d0       0x84 examples/pb_remote/server/CMakeFiles/pb_remote_server_nrf52832_xxAA_s132_6.0.0.dir/__/__/__/models/config/src/config_server.c.obj
 .text.handle_heartbeat_subscription_set
                0x00036654       0xa8 examples/pb_remote/server/CMakeFiles/pb_remote_server_nrf52832_xxAA_s132_6.0.0.dir/__/__/__/models/config/src/config_server.c.obj
 .text.handle_config_model_publication_get
                0x000366fc       0x94 examples/pb_remote/server/CMakeFiles/pb_remote_server_nrf52832_xxAA_s132_6.0.0.dir/__/__/__/models/config/src/config_server.c.obj
 .text.handle_config_model_subscription_delete_all
                0x00036790       0xca examples/pb_remote/server/CMakeFiles/pb_remote_server_nrf52832_xxAA_s132_6.0.0.dir/__/__/__/models/config/src/config_server.c.obj
 .text.handle_config_sig_model_subscription_get
                0x0003685a       0xbe examples/pb_remote/server/CMakeFiles/pb_remote_server_nrf52832_xxAA_s132_6.0.0.dir/__/__/__/models/config/src/config_server.c.obj
 .text.handle_config_vendor_model_subscription_get
                0x00036918      0x100 examples/pb_remote/server/CMakeFiles/pb_remote_server_nrf52832_xxAA_s132_6.0.0.dir/__/__/__/models/config/src/config_server.c.obj
 .text.handle_config_model_subscription_virtual_address_delete
                0x00036a18      0x110 examples/pb_remote/server/CMakeFiles/pb_remote_server_nrf52832_xxAA_s132_6.0.0.dir/__/__/__/models/config/src/config_server.c.obj
 .text.handle_config_model_subscription_virtual_address_add
                0x00036b28      0x10e examples/pb_remote/server/CMakeFiles/pb_remote_server_nrf52832_xxAA_s132_6.0.0.dir/__/__/__/models/config/src/config_server.c.obj
 .text.handle_config_model_subscription_delete
                0x00036c36      0x116 examples/pb_remote/server/CMakeFiles/pb_remote_server_nrf52832_xxAA_s132_6.0.0.dir/__/__/__/models/config/src/config_server.c.obj
 .text.handle_config_model_subscription_add
                0x00036d4c      0x114 examples/pb_remote/server/CMakeFiles/pb_remote_server_nrf52832_xxAA_s132_6.0.0.dir/__/__/__/models/config/src/config_server.c.obj
 .text.handle_config_model_subscription_virtual_address_overwrite
                0x00036e60      0x128 examples/pb_remote/server/CMakeFiles/pb_remote_server_nrf52832_xxAA_s132_6.0.0.dir/__/__/__/models/config/src/config_server.c.obj
 .text.handle_model_app_get
                0x00036f88      0x1a4 examples/pb_remote/server/CMakeFiles/pb_remote_server_nrf52832_xxAA_s132_6.0.0.dir/__/__/__/models/config/src/config_server.c.obj
 .text.handle_config_model_subscription_overwrite
                0x0003712c      0x122 examples/pb_remote/server/CMakeFiles/pb_remote_server_nrf52832_xxAA_s132_6.0.0.dir/__/__/__/models/config/src/config_server.c.obj
 .text.handle_model_app_bind_unbind
                0x0003724e      0x17a examples/pb_remote/server/CMakeFiles/pb_remote_server_nrf52832_xxAA_s132_6.0.0.dir/__/__/__/models/config/src/config_server.c.obj
 .text.handle_config_model_publication_set
                0x000373c8      0x2ce examples/pb_remote/server/CMakeFiles/pb_remote_server_nrf52832_xxAA_s132_6.0.0.dir/__/__/__/models/config/src/config_server.c.obj
 *fill*         0x00037696        0x2 
 .text.config_server_init
                0x00037698       0x64 examples/pb_remote/server/CMakeFiles/pb_remote_server_nrf52832_xxAA_s132_6.0.0.dir/__/__/__/models/config/src/config_server.c.obj
                0x00037698                config_server_init
 .text.config_server_bind
                0x000376fc       0x10 examples/pb_remote/server/CMakeFiles/pb_remote_server_nrf52832_xxAA_s132_6.0.0.dir/__/__/__/models/config/src/config_server.c.obj
                0x000376fc                config_server_bind
 .text.packed_index_list_create
                0x0003770c       0x32 examples/pb_remote/server/CMakeFiles/pb_remote_server_nrf52832_xxAA_s132_6.0.0.dir/__/__/__/models/config/src/packed_index_list.c.obj
                0x0003770c                packed_index_list_create
 *fill*         0x0003773e        0x2 
 .text.attention_timer_set
                0x00037740       0x8c examples/pb_remote/server/CMakeFiles/pb_remote_server_nrf52832_xxAA_s132_6.0.0.dir/__/__/__/models/health/src/health_server.c.obj
 .text.attention_timer_handler
                0x000377cc       0x5c examples/pb_remote/server/CMakeFiles/pb_remote_server_nrf52832_xxAA_s132_6.0.0.dir/__/__/__/models/health/src/health_server.c.obj
 .text.send_attention_status
                0x00037828       0x4a examples/pb_remote/server/CMakeFiles/pb_remote_server_nrf52832_xxAA_s132_6.0.0.dir/__/__/__/models/health/src/health_server.c.obj
 .text.handle_attention_get
                0x00037872        0xc examples/pb_remote/server/CMakeFiles/pb_remote_server_nrf52832_xxAA_s132_6.0.0.dir/__/__/__/models/health/src/health_server.c.obj
 .text.send_period_status
                0x0003787e       0x48 examples/pb_remote/server/CMakeFiles/pb_remote_server_nrf52832_xxAA_s132_6.0.0.dir/__/__/__/models/health/src/health_server.c.obj
 .text.handle_period_get
                0x000378c6        0xc examples/pb_remote/server/CMakeFiles/pb_remote_server_nrf52832_xxAA_s132_6.0.0.dir/__/__/__/models/health/src/health_server.c.obj
 .text.handle_attention_set
                0x000378d2       0x2e examples/pb_remote/server/CMakeFiles/pb_remote_server_nrf52832_xxAA_s132_6.0.0.dir/__/__/__/models/health/src/health_server.c.obj
 .text.handle_period_set
                0x00037900       0x22 examples/pb_remote/server/CMakeFiles/pb_remote_server_nrf52832_xxAA_s132_6.0.0.dir/__/__/__/models/health/src/health_server.c.obj
 *fill*         0x00037922        0x2 
 .text.bitfield_next_get.part.0.constprop.9
                0x00037924       0x44 examples/pb_remote/server/CMakeFiles/pb_remote_server_nrf52832_xxAA_s132_6.0.0.dir/__/__/__/models/health/src/health_server.c.obj
 .text.bitfield_popcount.constprop.7
                0x00037968       0x28 examples/pb_remote/server/CMakeFiles/pb_remote_server_nrf52832_xxAA_s132_6.0.0.dir/__/__/__/models/health/src/health_server.c.obj
 .text.send_fault_status
                0x00037990       0xa8 examples/pb_remote/server/CMakeFiles/pb_remote_server_nrf52832_xxAA_s132_6.0.0.dir/__/__/__/models/health/src/health_server.c.obj
 .text.health_publish_timeout_handler
                0x00037a38        0xa examples/pb_remote/server/CMakeFiles/pb_remote_server_nrf52832_xxAA_s132_6.0.0.dir/__/__/__/models/health/src/health_server.c.obj
 .text.handle_fault_test
                0x00037a42       0x68 examples/pb_remote/server/CMakeFiles/pb_remote_server_nrf52832_xxAA_s132_6.0.0.dir/__/__/__/models/health/src/health_server.c.obj
 .text.handle_fault_get
                0x00037aaa       0x32 examples/pb_remote/server/CMakeFiles/pb_remote_server_nrf52832_xxAA_s132_6.0.0.dir/__/__/__/models/health/src/health_server.c.obj
 .text.handle_fault_clear
                0x00037adc       0x48 examples/pb_remote/server/CMakeFiles/pb_remote_server_nrf52832_xxAA_s132_6.0.0.dir/__/__/__/models/health/src/health_server.c.obj
 .text.health_server_init
                0x00037b24       0x6c examples/pb_remote/server/CMakeFiles/pb_remote_server_nrf52832_xxAA_s132_6.0.0.dir/__/__/__/models/health/src/health_server.c.obj
                0x00037b24                health_server_init
 .text.errata_57
                0x00037b90       0x34 examples/pb_remote/server/CMakeFiles/pb_remote_server_nrf52832_xxAA_s132_6.0.0.dir/C_/b/nRF5_SDK_15.0.0_a53641a/modules/nrfx/mdk/system_nrf52.c.obj
 .text.errata_136
                0x00037bc4       0x40 examples/pb_remote/server/CMakeFiles/pb_remote_server_nrf52832_xxAA_s132_6.0.0.dir/C_/b/nRF5_SDK_15.0.0_a53641a/modules/nrfx/mdk/system_nrf52.c.obj
 .text.SystemInit
                0x00037c04      0x264 examples/pb_remote/server/CMakeFiles/pb_remote_server_nrf52832_xxAA_s132_6.0.0.dir/C_/b/nRF5_SDK_15.0.0_a53641a/modules/nrfx/mdk/system_nrf52.c.obj
                0x00037c04                SystemInit
 .text          0x00037e68       0x3c examples/pb_remote/server/CMakeFiles/pb_remote_server_nrf52832_xxAA_s132_6.0.0.dir/C_/b/nRF5_SDK_15.0.0_a53641a/modules/nrfx/mdk/gcc_startup_nrf52.S.obj
                0x00037e68                Reset_Handler
                0x00037e90                NMI_Handler
                0x00037e92                HardFault_Handler
                0x00037e94                MemoryManagement_Handler
                0x00037e96                BusFault_Handler
                0x00037e98                UsageFault_Handler
                0x00037e9a                SVC_Handler
                0x00037e9c                DebugMon_Handler
                0x00037e9e                PendSV_Handler
                0x00037ea0                SysTick_Handler
                0x00037ea2                TEMP_IRQHandler
                0x00037ea2                TIMER3_IRQHandler
                0x00037ea2                FPU_IRQHandler
                0x00037ea2                SPIM0_SPIS0_TWIM0_TWIS0_SPI0_TWI0_IRQHandler
                0x00037ea2                POWER_CLOCK_IRQHandler
                0x00037ea2                PDM_IRQHandler
                0x00037ea2                TIMER4_IRQHandler
                0x00037ea2                I2S_IRQHandler
                0x00037ea2                SWI4_EGU4_IRQHandler
                0x00037ea2                TIMER0_IRQHandler
                0x00037ea2                RTC0_IRQHandler
                0x00037ea2                UARTE0_UART0_IRQHandler
                0x00037ea2                PWM2_IRQHandler
                0x00037ea2                ECB_IRQHandler
                0x00037ea2                SPIM1_SPIS1_TWIM1_TWIS1_SPI1_TWI1_IRQHandler
                0x00037ea2                Default_Handler
                0x00037ea2                SAADC_IRQHandler
                0x00037ea2                CCM_AAR_IRQHandler
                0x00037ea2                WDT_IRQHandler
                0x00037ea2                RADIO_IRQHandler
                0x00037ea2                SWI5_EGU5_IRQHandler
                0x00037ea2                RNG_IRQHandler
                0x00037ea2                RTC2_IRQHandler
                0x00037ea2                PWM0_IRQHandler
                0x00037ea2                SWI3_EGU3_IRQHandler
                0x00037ea2                SWI1_EGU1_IRQHandler
                0x00037ea2                SPIM2_SPIS2_SPI2_IRQHandler
                0x00037ea2                NFCT_IRQHandler
                0x00037ea2                TIMER1_IRQHandler
                0x00037ea2                MWU_IRQHandler
                0x00037ea2                PWM1_IRQHandler
                0x00037ea2                COMP_LPCOMP_IRQHandler
 .text.app_error_handler_bare
                0x00037ea4       0x1a examples/pb_remote/server/CMakeFiles/pb_remote_server_nrf52832_xxAA_s132_6.0.0.dir/C_/b/nRF5_SDK_15.0.0_a53641a/components/libraries/util/app_error.c.obj
                0x00037ea4                app_error_handler_bare
 *fill*         0x00037ebe        0x2 
 .text.app_util_critical_region_enter
                0x00037ec0       0x48 examples/pb_remote/server/CMakeFiles/pb_remote_server_nrf52832_xxAA_s132_6.0.0.dir/C_/b/nRF5_SDK_15.0.0_a53641a/components/libraries/util/app_util_platform.c.obj
                0x00037ec0                app_util_critical_region_enter
 .text.app_util_critical_region_exit
                0x00037f08       0x2c examples/pb_remote/server/CMakeFiles/pb_remote_server_nrf52832_xxAA_s132_6.0.0.dir/C_/b/nRF5_SDK_15.0.0_a53641a/components/libraries/util/app_util_platform.c.obj
                0x00037f08                app_util_critical_region_exit
 .text.user_op_alloc
                0x00037f34       0x2c examples/pb_remote/server/CMakeFiles/pb_remote_server_nrf52832_xxAA_s132_6.0.0.dir/C_/b/nRF5_SDK_15.0.0_a53641a/components/libraries/timer/app_timer.c.obj
 .text.timer_stop_op_schedule
                0x00037f60       0x50 examples/pb_remote/server/CMakeFiles/pb_remote_server_nrf52832_xxAA_s132_6.0.0.dir/C_/b/nRF5_SDK_15.0.0_a53641a/components/libraries/timer/app_timer.c.obj
 .text.nrfx_coredep_delay_us.part.0.constprop.4
                0x00037fb0       0x10 examples/pb_remote/server/CMakeFiles/pb_remote_server_nrf52832_xxAA_s132_6.0.0.dir/C_/b/nRF5_SDK_15.0.0_a53641a/components/libraries/timer/app_timer.c.obj
 .text.rtc1_stop
                0x00037fc0       0x44 examples/pb_remote/server/CMakeFiles/pb_remote_server_nrf52832_xxAA_s132_6.0.0.dir/C_/b/nRF5_SDK_15.0.0_a53641a/components/libraries/timer/app_timer.c.obj
 .text.RTC1_IRQHandler
                0x00038004       0x9c examples/pb_remote/server/CMakeFiles/pb_remote_server_nrf52832_xxAA_s132_6.0.0.dir/C_/b/nRF5_SDK_15.0.0_a53641a/components/libraries/timer/app_timer.c.obj
                0x00038004                RTC1_IRQHandler
 .text.SWI0_EGU0_IRQHandler
                0x000380a0      0x2a4 examples/pb_remote/server/CMakeFiles/pb_remote_server_nrf52832_xxAA_s132_6.0.0.dir/C_/b/nRF5_SDK_15.0.0_a53641a/components/libraries/timer/app_timer.c.obj
                0x000380a0                SWI0_EGU0_IRQHandler
 .text.app_timer_init
                0x00038344       0x64 examples/pb_remote/server/CMakeFiles/pb_remote_server_nrf52832_xxAA_s132_6.0.0.dir/C_/b/nRF5_SDK_15.0.0_a53641a/components/libraries/timer/app_timer.c.obj
                0x00038344                app_timer_init
 .text.app_timer_create
                0x000383a8       0x24 examples/pb_remote/server/CMakeFiles/pb_remote_server_nrf52832_xxAA_s132_6.0.0.dir/C_/b/nRF5_SDK_15.0.0_a53641a/components/libraries/timer/app_timer.c.obj
                0x000383a8                app_timer_create
 .text.app_timer_start
                0x000383cc       0x8c examples/pb_remote/server/CMakeFiles/pb_remote_server_nrf52832_xxAA_s132_6.0.0.dir/C_/b/nRF5_SDK_15.0.0_a53641a/components/libraries/timer/app_timer.c.obj
                0x000383cc                app_timer_start
 .text.app_timer_stop
                0x00038458       0x20 examples/pb_remote/server/CMakeFiles/pb_remote_server_nrf52832_xxAA_s132_6.0.0.dir/C_/b/nRF5_SDK_15.0.0_a53641a/components/libraries/timer/app_timer.c.obj
                0x00038458                app_timer_stop
 .text.app_error_handler
                0x00038478       0x1a examples/pb_remote/server/CMakeFiles/pb_remote_server_nrf52832_xxAA_s132_6.0.0.dir/C_/b/nRF5_SDK_15.0.0_a53641a/components/libraries/util/app_error_handler_gcc.c.obj
                0x00038478                app_error_handler
 .text._GetAvailWriteSpace
                0x00038492       0x1c external/rtt/librtt_nrf52832_xxAA.a(SEGGER_RTT.c.obj)
 .text._WriteNoCheck
                0x000384ae       0x3c external/rtt/librtt_nrf52832_xxAA.a(SEGGER_RTT.c.obj)
 .text._WriteBlocking
                0x000384ea       0x52 external/rtt/librtt_nrf52832_xxAA.a(SEGGER_RTT.c.obj)
 .text._DoInit  0x0003853c       0x60 external/rtt/librtt_nrf52832_xxAA.a(SEGGER_RTT.c.obj)
 .text.SEGGER_RTT_WriteNoLock
                0x0003859c       0x68 external/rtt/librtt_nrf52832_xxAA.a(SEGGER_RTT.c.obj)
                0x0003859c                SEGGER_RTT_WriteNoLock
 .text.SEGGER_RTT_Write
                0x00038604       0x34 external/rtt/librtt_nrf52832_xxAA.a(SEGGER_RTT.c.obj)
                0x00038604                SEGGER_RTT_Write
 .text._StoreChar
                0x00038638       0x3e external/rtt/librtt_nrf52832_xxAA.a(SEGGER_RTT_printf.c.obj)
 *fill*         0x00038676        0x2 
 .text._PrintUnsigned
                0x00038678       0xd0 external/rtt/librtt_nrf52832_xxAA.a(SEGGER_RTT_printf.c.obj)
 .text.SEGGER_RTT_vprintf
                0x00038748      0x246 external/rtt/librtt_nrf52832_xxAA.a(SEGGER_RTT_printf.c.obj)
                0x00038748                SEGGER_RTT_vprintf
 .text.SEGGER_RTT_printf
                0x0003898e       0x1e external/rtt/librtt_nrf52832_xxAA.a(SEGGER_RTT_printf.c.obj)
                0x0003898e                SEGGER_RTT_printf
 .text.uECC_vli_mult
                0x000389ac       0x64 external/micro-ecc/libuECC_nrf52832_xxAA.a(uECC.c.obj)
 .text.uECC_vli_clear
                0x00038a10       0x16 external/micro-ecc/libuECC_nrf52832_xxAA.a(uECC.c.obj)
 .text.uECC_vli_isZero
                0x00038a26       0x1e external/micro-ecc/libuECC_nrf52832_xxAA.a(uECC.c.obj)
 .text.uECC_vli_testBit
                0x00038a44       0x14 external/micro-ecc/libuECC_nrf52832_xxAA.a(uECC.c.obj)
 .text.uECC_vli_numBits
                0x00038a58       0x3a external/micro-ecc/libuECC_nrf52832_xxAA.a(uECC.c.obj)
 .text.uECC_vli_set
                0x00038a92       0x18 external/micro-ecc/libuECC_nrf52832_xxAA.a(uECC.c.obj)
 .text.uECC_vli_cmp_unsafe
                0x00038aaa       0x28 external/micro-ecc/libuECC_nrf52832_xxAA.a(uECC.c.obj)
 .text.uECC_vli_rshift1
                0x00038ad2       0x1c external/micro-ecc/libuECC_nrf52832_xxAA.a(uECC.c.obj)
 .text.uECC_vli_modMult_fast
                0x00038aee       0x20 external/micro-ecc/libuECC_nrf52832_xxAA.a(uECC.c.obj)
 .text.uECC_vli_modSquare_fast
                0x00038b0e        0x8 external/micro-ecc/libuECC_nrf52832_xxAA.a(uECC.c.obj)
 .text.apply_z  0x00038b16       0x3e external/micro-ecc/libuECC_nrf52832_xxAA.a(uECC.c.obj)
 .text.uECC_vli_nativeToBytes
                0x00038b54       0x28 external/micro-ecc/libuECC_nrf52832_xxAA.a(uECC.c.obj)
 .text.uECC_vli_bytesToNative
                0x00038b7c       0x40 external/micro-ecc/libuECC_nrf52832_xxAA.a(uECC.c.obj)
 .text.default_RNG
                0x00038bbc        0xc external/micro-ecc/libuECC_nrf52832_xxAA.a(uECC.c.obj)
 .text.uECC_vli_add.isra.0
                0x00038bc8       0x4a external/micro-ecc/libuECC_nrf52832_xxAA.a(uECC.c.obj)
 .text.regularize_k
                0x00038c12       0x50 external/micro-ecc/libuECC_nrf52832_xxAA.a(uECC.c.obj)
 .text.uECC_vli_sub.isra.1
                0x00038c62       0x4e external/micro-ecc/libuECC_nrf52832_xxAA.a(uECC.c.obj)
 .text.uECC_vli_cmp
                0x00038cb0       0x30 external/micro-ecc/libuECC_nrf52832_xxAA.a(uECC.c.obj)
 .text.uECC_generate_random_int
                0x00038ce0       0x78 external/micro-ecc/libuECC_nrf52832_xxAA.a(uECC.c.obj)
 .text.uECC_vli_modAdd
                0x00038d58       0x2e external/micro-ecc/libuECC_nrf52832_xxAA.a(uECC.c.obj)
 *fill*         0x00038d86        0x2 
 .text.vli_mmod_fast_secp256r1
                0x00038d88      0x194 external/micro-ecc/libuECC_nrf52832_xxAA.a(uECC.c.obj)
 .text.uECC_vli_modSub.isra.2
                0x00038f1c       0x1c external/micro-ecc/libuECC_nrf52832_xxAA.a(uECC.c.obj)
 .text.double_jacobian_default
                0x00038f38      0x14a external/micro-ecc/libuECC_nrf52832_xxAA.a(uECC.c.obj)
 .text.x_side_default
                0x00039082       0x5a external/micro-ecc/libuECC_nrf52832_xxAA.a(uECC.c.obj)
 .text.XYcZ_add
                0x000390dc       0xbc external/micro-ecc/libuECC_nrf52832_xxAA.a(uECC.c.obj)
 .text.XYcZ_addC
                0x00039198      0x10a external/micro-ecc/libuECC_nrf52832_xxAA.a(uECC.c.obj)
 .text.vli_modInv_update
                0x000392a2       0x36 external/micro-ecc/libuECC_nrf52832_xxAA.a(uECC.c.obj)
 .text.uECC_vli_modInv
                0x000392d8      0x102 external/micro-ecc/libuECC_nrf52832_xxAA.a(uECC.c.obj)
 .text.EccPoint_mult
                0x000393da      0x19e external/micro-ecc/libuECC_nrf52832_xxAA.a(uECC.c.obj)
 .text.EccPoint_compute_public_key
                0x00039578       0x54 external/micro-ecc/libuECC_nrf52832_xxAA.a(uECC.c.obj)
 .text.uECC_secp256r1
                0x000395cc        0x8 external/micro-ecc/libuECC_nrf52832_xxAA.a(uECC.c.obj)
                0x000395cc                uECC_secp256r1
 .text.uECC_make_key
                0x000395d4       0x7e external/micro-ecc/libuECC_nrf52832_xxAA.a(uECC.c.obj)
                0x000395d4                uECC_make_key
 *fill*         0x00039652        0x2 
 .text.uECC_shared_secret
                0x00039654       0xbc external/micro-ecc/libuECC_nrf52832_xxAA.a(uECC.c.obj)
                0x00039654                uECC_shared_secret
 .text.uECC_valid_point
                0x00039710       0x86 external/micro-ecc/libuECC_nrf52832_xxAA.a(uECC.c.obj)
                0x00039710                uECC_valid_point
 .text.uECC_valid_public_key
                0x00039796       0x32 external/micro-ecc/libuECC_nrf52832_xxAA.a(uECC.c.obj)
                0x00039796                uECC_valid_public_key
 .text          0x000397c8       0x30 c:/mesh/arm_gcc/bin/../lib/gcc/arm-none-eabi/6.3.1/thumb/v7e-m/fpv4-sp/hard\libgcc.a(_aeabi_uldivmod.o)
                0x000397c8                __aeabi_uldivmod
 .text          0x000397f8      0x2dc c:/mesh/arm_gcc/bin/../lib/gcc/arm-none-eabi/6.3.1/thumb/v7e-m/fpv4-sp/hard\libgcc.a(_udivmoddi4.o)
                0x000397f8                __udivmoddi4
 .text          0x00039ad4        0x4 c:/mesh/arm_gcc/bin/../lib/gcc/arm-none-eabi/6.3.1/thumb/v7e-m/fpv4-sp/hard\libgcc.a(_dvmd_tls.o)
                0x00039ad4                __aeabi_idiv0
                0x00039ad4                __aeabi_ldiv0
 .text.exit     0x00039ad8       0x28 c:/mesh/arm_gcc/bin/../lib/gcc/arm-none-eabi/6.3.1/../../../../arm-none-eabi/lib/thumb/v7e-m/fpv4-sp/hard\libg_nano.a(lib_a-exit.o)
                0x00039ad8                exit
 .text.__libc_init_array
                0x00039b00       0x48 c:/mesh/arm_gcc/bin/../lib/gcc/arm-none-eabi/6.3.1/../../../../arm-none-eabi/lib/thumb/v7e-m/fpv4-sp/hard\libg_nano.a(lib_a-init.o)
                0x00039b00                __libc_init_array
 .text.malloc   0x00039b48       0x10 c:/mesh/arm_gcc/bin/../lib/gcc/arm-none-eabi/6.3.1/../../../../arm-none-eabi/lib/thumb/v7e-m/fpv4-sp/hard\libg_nano.a(lib_a-malloc.o)
                0x00039b48                malloc
 .text.free     0x00039b58       0x10 c:/mesh/arm_gcc/bin/../lib/gcc/arm-none-eabi/6.3.1/../../../../arm-none-eabi/lib/thumb/v7e-m/fpv4-sp/hard\libg_nano.a(lib_a-malloc.o)
                0x00039b58                free
 .text.memcmp   0x00039b68       0x1e c:/mesh/arm_gcc/bin/../lib/gcc/arm-none-eabi/6.3.1/../../../../arm-none-eabi/lib/thumb/v7e-m/fpv4-sp/hard\libg_nano.a(lib_a-memcmp.o)
                0x00039b68                memcmp
 .text.memcpy   0x00039b86       0x16 c:/mesh/arm_gcc/bin/../lib/gcc/arm-none-eabi/6.3.1/../../../../arm-none-eabi/lib/thumb/v7e-m/fpv4-sp/hard\libg_nano.a(lib_a-memcpy-stub.o)
                0x00039b86                memcpy
 .text.memset   0x00039b9c       0x10 c:/mesh/arm_gcc/bin/../lib/gcc/arm-none-eabi/6.3.1/../../../../arm-none-eabi/lib/thumb/v7e-m/fpv4-sp/hard\libg_nano.a(lib_a-memset.o)
                0x00039b9c                memset
 .text._free_r  0x00039bac       0x9c c:/mesh/arm_gcc/bin/../lib/gcc/arm-none-eabi/6.3.1/../../../../arm-none-eabi/lib/thumb/v7e-m/fpv4-sp/hard\libg_nano.a(lib_a-nano-freer.o)
                0x00039bac                _free_r
 .text._malloc_r
                0x00039c48       0xbc c:/mesh/arm_gcc/bin/../lib/gcc/arm-none-eabi/6.3.1/../../../../arm-none-eabi/lib/thumb/v7e-m/fpv4-sp/hard\libg_nano.a(lib_a-nano-mallocr.o)
                0x00039c48                _malloc_r
 .text._sbrk_r  0x00039d04       0x20 c:/mesh/arm_gcc/bin/../lib/gcc/arm-none-eabi/6.3.1/../../../../arm-none-eabi/lib/thumb/v7e-m/fpv4-sp/hard\libg_nano.a(lib_a-sbrkr.o)
                0x00039d04                _sbrk_r
 .text.strcpy   0x00039d24       0x10 c:/mesh/arm_gcc/bin/../lib/gcc/arm-none-eabi/6.3.1/../../../../arm-none-eabi/lib/thumb/v7e-m/fpv4-sp/hard\libg_nano.a(lib_a-strcpy.o)
                0x00039d24                strcpy
 .text          0x00039d34       0x10 c:/mesh/arm_gcc/bin/../lib/gcc/arm-none-eabi/6.3.1/../../../../arm-none-eabi/lib/thumb/v7e-m/fpv4-sp/hard\libg_nano.a(lib_a-strlen.o)
                0x00039d34                strlen
 .text.strrchr  0x00039d44       0x26 c:/mesh/arm_gcc/bin/../lib/gcc/arm-none-eabi/6.3.1/../../../../arm-none-eabi/lib/thumb/v7e-m/fpv4-sp/hard\libg_nano.a(lib_a-strrchr.o)
                0x00039d44                strrchr
 .text.__malloc_lock
                0x00039d6a        0x2 c:/mesh/arm_gcc/bin/../lib/gcc/arm-none-eabi/6.3.1/../../../../arm-none-eabi/lib/thumb/v7e-m/fpv4-sp/hard\libg_nano.a(lib_a-mlock.o)
                0x00039d6a                __malloc_lock
 .text.__malloc_unlock
                0x00039d6c        0x2 c:/mesh/arm_gcc/bin/../lib/gcc/arm-none-eabi/6.3.1/../../../../arm-none-eabi/lib/thumb/v7e-m/fpv4-sp/hard\libg_nano.a(lib_a-mlock.o)
                0x00039d6c                __malloc_unlock
 .text.strchr   0x00039d6e       0x1c c:/mesh/arm_gcc/bin/../lib/gcc/arm-none-eabi/6.3.1/../../../../arm-none-eabi/lib/thumb/v7e-m/fpv4-sp/hard\libg_nano.a(lib_a-strchr.o)
                0x00039d6e                strchr
 *fill*         0x00039d8a        0x2 
 .text._sbrk    0x00039d8c       0x1c c:/mesh/arm_gcc/bin/../lib/gcc/arm-none-eabi/6.3.1/../../../../arm-none-eabi/lib/thumb/v7e-m/fpv4-sp/hard\libnosys.a(sbrk.o)
                0x00039d8c                _sbrk
 .text._exit    0x00039da8        0x4 c:/mesh/arm_gcc/bin/../lib/gcc/arm-none-eabi/6.3.1/../../../../arm-none-eabi/lib/thumb/v7e-m/fpv4-sp/hard\libnosys.a(_exit.o)
                0x00039da8                _exit
 *(.init)
 .init          0x00039dac        0x4 c:/mesh/arm_gcc/bin/../lib/gcc/arm-none-eabi/6.3.1/thumb/v7e-m/fpv4-sp/hard/crti.o
                0x00039dac                _init
 .init          0x00039db0        0x8 c:/mesh/arm_gcc/bin/../lib/gcc/arm-none-eabi/6.3.1/thumb/v7e-m/fpv4-sp/hard/crtn.o
 *(.fini)
 .fini          0x00039db8        0x4 c:/mesh/arm_gcc/bin/../lib/gcc/arm-none-eabi/6.3.1/thumb/v7e-m/fpv4-sp/hard/crti.o
                0x00039db8                _fini
 .fini          0x00039dbc        0x8 c:/mesh/arm_gcc/bin/../lib/gcc/arm-none-eabi/6.3.1/thumb/v7e-m/fpv4-sp/hard/crtn.o
 *crtbegin.o(.ctors)
 *crtbegin?.o(.ctors)
 *(EXCLUDE_FILE(*crtend.o *crtend?.o) .ctors)
 *(SORT(.ctors.*))
 *(.ctors)
 *crtbegin.o(.dtors)
 *crtbegin?.o(.dtors)
 *(EXCLUDE_FILE(*crtend.o *crtend?.o) .dtors)
 *(SORT(.dtors.*))
 *(.dtors)
 *(.rodata*)
 .rodata        0x00039dc4        0xc examples/pb_remote/server/CMakeFiles/pb_remote_server_nrf52832_xxAA_s132_6.0.0.dir/src/main.c.obj
 .rodata.main.str1.1
                0x00039dd0       0x44 examples/pb_remote/server/CMakeFiles/pb_remote_server_nrf52832_xxAA_s132_6.0.0.dir/src/main.c.obj
 .rodata.models_init_cb.str1.1
                0x00039e14       0x20 examples/pb_remote/server/CMakeFiles/pb_remote_server_nrf52832_xxAA_s132_6.0.0.dir/src/main.c.obj
 .rodata.provisioning_complete_cb.str1.1
                0x00039e34       0x42 examples/pb_remote/server/CMakeFiles/pb_remote_server_nrf52832_xxAA_s132_6.0.0.dir/src/main.c.obj
 .rodata.static_auth_data.12832
                0x00039e76       0x10 examples/pb_remote/server/CMakeFiles/pb_remote_server_nrf52832_xxAA_s132_6.0.0.dir/src/main.c.obj
 .rodata.mesh_softdevice_init.str1.1
                0x00039e86       0x94 examples/pb_remote/server/CMakeFiles/pb_remote_server_nrf52832_xxAA_s132_6.0.0.dir/__/__/common/src/mesh_softdevice_init.c.obj
 .rodata        0x00039f1a        0xb examples/pb_remote/server/CMakeFiles/pb_remote_server_nrf52832_xxAA_s132_6.0.0.dir/__/__/common/src/mesh_provisionee.c.obj
 *fill*         0x00039f25        0x3 
 .rodata.m_blink_timer
                0x00039f28        0x4 examples/pb_remote/server/CMakeFiles/pb_remote_server_nrf52832_xxAA_s132_6.0.0.dir/__/__/common/src/simple_hal.c.obj
 .rodata.m_buttons_list
                0x00039f2c        0x4 examples/pb_remote/server/CMakeFiles/pb_remote_server_nrf52832_xxAA_s132_6.0.0.dir/__/__/common/src/simple_hal.c.obj
 .rodata.app_error_fault_handler.str1.1
                0x00039f30       0xbd examples/pb_remote/server/CMakeFiles/pb_remote_server_nrf52832_xxAA_s132_6.0.0.dir/__/__/common/src/app_error_weak.c.obj
 .rodata.mesh_assertion_handler.str1.1
                0x00039fed       0xbd examples/pb_remote/server/CMakeFiles/pb_remote_server_nrf52832_xxAA_s132_6.0.0.dir/__/__/common/src/assertion_handler_weak.c.obj
                                  0x1 (size before relaxing)
 .rodata.sar_ctx_cancel.str1.1
                0x00039fed       0x23 examples/pb_remote/server/CMakeFiles/pb_remote_server_nrf52832_xxAA_s132_6.0.0.dir/__/__/__/mesh/core/src/transport.c.obj
 .rodata.test_transport_decrypt.str1.1
                0x0003a010       0x30 examples/pb_remote/server/CMakeFiles/pb_remote_server_nrf52832_xxAA_s132_6.0.0.dir/__/__/__/mesh/core/src/transport.c.obj
 .rodata.transport_packet_in.str1.1
                0x0003a040       0x24 examples/pb_remote/server/CMakeFiles/pb_remote_server_nrf52832_xxAA_s132_6.0.0.dir/__/__/__/mesh/core/src/transport.c.obj
 .rodata.upper_transport_access_packet_in.str1.1
                0x0003a064       0x29 examples/pb_remote/server/CMakeFiles/pb_remote_server_nrf52832_xxAA_s132_6.0.0.dir/__/__/__/mesh/core/src/transport.c.obj
 .rodata.upper_transport_packet_in.str1.1
                0x0003a08d       0x2e examples/pb_remote/server/CMakeFiles/pb_remote_server_nrf52832_xxAA_s132_6.0.0.dir/__/__/__/mesh/core/src/transport.c.obj
 .rodata.upper_transport_tx.str1.1
                0x0003a0bb       0x16 examples/pb_remote/server/CMakeFiles/pb_remote_server_nrf52832_xxAA_s132_6.0.0.dir/__/__/__/mesh/core/src/transport.c.obj
 *fill*         0x0003a0d1        0x3 
 .rodata.m_procedure_steps
                0x0003a0d4       0x28 examples/pb_remote/server/CMakeFiles/pb_remote_server_nrf52832_xxAA_s132_6.0.0.dir/__/__/__/mesh/core/src/flash_manager_defrag.c.obj
 .rodata.m_all_operations
                0x0003a0fc       0x10 examples/pb_remote/server/CMakeFiles/pb_remote_server_nrf52832_xxAA_s132_6.0.0.dir/__/__/__/mesh/core/src/mesh_flash.c.obj
 .rodata.types_lookup.9061
                0x0003a10c        0x4 examples/pb_remote/server/CMakeFiles/pb_remote_server_nrf52832_xxAA_s132_6.0.0.dir/__/__/__/mesh/core/src/nrf_mesh_utils.c.obj
 .rodata.__func__.11554
                0x0003a110       0x15 examples/pb_remote/server/CMakeFiles/pb_remote_server_nrf52832_xxAA_s132_6.0.0.dir/__/__/__/mesh/core/src/nrf_mesh.c.obj
 .rodata.nrf_mesh_listen.str1.1
                0x0003a125       0x70 examples/pb_remote/server/CMakeFiles/pb_remote_server_nrf52832_xxAA_s132_6.0.0.dir/__/__/__/mesh/core/src/nrf_mesh.c.obj
 .rodata.nrf_mesh_packet_send.str1.1
                0x0003a195       0x70 examples/pb_remote/server/CMakeFiles/pb_remote_server_nrf52832_xxAA_s132_6.0.0.dir/__/__/__/mesh/core/src/nrf_mesh.c.obj
                                  0x4 (size before relaxing)
 *fill*         0x0003a195        0x1 
 .rodata.CSWTCH.8
                0x0003a196       0x10 examples/pb_remote/server/CMakeFiles/pb_remote_server_nrf52832_xxAA_s132_6.0.0.dir/__/__/__/mesh/core/src/hal.c.obj
 .rodata        0x0003a1a6       0x15 examples/pb_remote/server/CMakeFiles/pb_remote_server_nrf52832_xxAA_s132_6.0.0.dir/__/__/__/mesh/core/src/enc.c.obj
 .rodata.network_packet_in.str1.1
                0x0003a1bb       0x48 examples/pb_remote/server/CMakeFiles/pb_remote_server_nrf52832_xxAA_s132_6.0.0.dir/__/__/__/mesh/core/src/network.c.obj
 .rodata.net_packet_decrypt.str1.1
                0x0003a203       0x31 examples/pb_remote/server/CMakeFiles/pb_remote_server_nrf52832_xxAA_s132_6.0.0.dir/__/__/__/mesh/core/src/net_packet.c.obj
                                 0x39 (size before relaxing)
 .rodata        0x0003a234        0x7 examples/pb_remote/server/CMakeFiles/pb_remote_server_nrf52832_xxAA_s132_6.0.0.dir/__/__/__/mesh/core/src/nrf_mesh_keygen.c.obj
 .rodata.log_callback_rtt.str1.1
                0x0003a23b       0x15 examples/pb_remote/server/CMakeFiles/pb_remote_server_nrf52832_xxAA_s132_6.0.0.dir/__/__/__/mesh/core/src/log.c.obj
 .rodata.str1.1
                0x0003a250       0x11 examples/pb_remote/server/CMakeFiles/pb_remote_server_nrf52832_xxAA_s132_6.0.0.dir/__/__/__/mesh/core/src/log.c.obj
 *fill*         0x0003a261        0x3 
 .rodata.INVALID_HEADER
                0x0003a264        0x4 examples/pb_remote/server/CMakeFiles/pb_remote_server_nrf52832_xxAA_s132_6.0.0.dir/__/__/__/mesh/core/src/flash_manager.c.obj
                0x0003a264                INVALID_HEADER
 .rodata.PADDING_HEADER
                0x0003a268        0x4 examples/pb_remote/server/CMakeFiles/pb_remote_server_nrf52832_xxAA_s132_6.0.0.dir/__/__/__/mesh/core/src/flash_manager.c.obj
                0x0003a268                PADDING_HEADER
 .rodata.SEAL_HEADER
                0x0003a26c        0x4 examples/pb_remote/server/CMakeFiles/pb_remote_server_nrf52832_xxAA_s132_6.0.0.dir/__/__/__/mesh/core/src/flash_manager.c.obj
                0x0003a26c                SEAL_HEADER
 .rodata.beacon_packet_in.str1.1
                0x0003a270       0x51 examples/pb_remote/server/CMakeFiles/pb_remote_server_nrf52832_xxAA_s132_6.0.0.dir/__/__/__/mesh/core/src/beacon.c.obj
                                 0x59 (size before relaxing)
 *fill*         0x0003a2c1        0x3 
 .rodata.cp_handler
                0x0003a2c4        0x8 examples/pb_remote/server/CMakeFiles/pb_remote_server_nrf52832_xxAA_s132_6.0.0.dir/__/__/__/mesh/core/src/heartbeat.c.obj
 .rodata.beacon_tx.str1.1
                0x0003a2cc       0x35 examples/pb_remote/server/CMakeFiles/pb_remote_server_nrf52832_xxAA_s132_6.0.0.dir/__/__/__/mesh/core/src/net_beacon.c.obj
 .rodata.net_beacon_init.str1.1
                0x0003a301        0x5 examples/pb_remote/server/CMakeFiles/pb_remote_server_nrf52832_xxAA_s132_6.0.0.dir/__/__/__/mesh/core/src/net_beacon.c.obj
 *fill*         0x0003a306        0x2 
 .rodata.m_interface
                0x0003a308        0xc examples/pb_remote/server/CMakeFiles/pb_remote_server_nrf52832_xxAA_s132_6.0.0.dir/__/__/__/mesh/core/src/core_tx_adv.c.obj
 .rodata.radio_mode_to_us_per_byte.9470
                0x0003a314        0x6 examples/pb_remote/server/CMakeFiles/pb_remote_server_nrf52832_xxAA_s132_6.0.0.dir/__/__/__/mesh/bearer/src/broadcast.c.obj
 .rodata.channel_rf_offsets.8695
                0x0003a31a       0x28 examples/pb_remote/server/CMakeFiles/pb_remote_server_nrf52832_xxAA_s132_6.0.0.dir/__/__/__/mesh/bearer/src/radio_config.c.obj
 .rodata        0x0003a342        0x3 examples/pb_remote/server/CMakeFiles/pb_remote_server_nrf52832_xxAA_s132_6.0.0.dir/__/__/__/mesh/bearer/src/scanner.c.obj
 *fill*         0x0003a345        0x3 
 .rodata.m_prov_callbacks
                0x0003a348       0x10 examples/pb_remote/server/CMakeFiles/pb_remote_server_nrf52832_xxAA_s132_6.0.0.dir/__/__/__/mesh/prov/src/prov_provisionee.c.obj
 .rodata.prov_provisionee_cb_ack_received.str1.1
                0x0003a358       0x53 examples/pb_remote/server/CMakeFiles/pb_remote_server_nrf52832_xxAA_s132_6.0.0.dir/__/__/__/mesh/prov/src/prov_provisionee.c.obj
 .rodata.multiply_de_bruijn_bit_position.9315
                0x0003a3ab       0x20 examples/pb_remote/server/CMakeFiles/pb_remote_server_nrf52832_xxAA_s132_6.0.0.dir/__/__/__/mesh/prov/src/nrf_mesh_prov.c.obj
 .rodata.pdu_sizes.11248
                0x0003a3cb        0xa examples/pb_remote/server/CMakeFiles/pb_remote_server_nrf52832_xxAA_s132_6.0.0.dir/__/__/__/mesh/prov/src/provisioning.c.obj
 .rodata.alphanumeric.11353
                0x0003a3d5       0x25 examples/pb_remote/server/CMakeFiles/pb_remote_server_nrf52832_xxAA_s132_6.0.0.dir/__/__/__/mesh/prov/src/prov_utils.c.obj
 *fill*         0x0003a3fa        0x2 
 .rodata.numeric_max.11347
                0x0003a3fc       0x24 examples/pb_remote/server/CMakeFiles/pb_remote_server_nrf52832_xxAA_s132_6.0.0.dir/__/__/__/mesh/prov/src/prov_utils.c.obj
 .rodata.prov_utils_authentication_values_derive.str1.1
                0x0003a420        0x5 examples/pb_remote/server/CMakeFiles/pb_remote_server_nrf52832_xxAA_s132_6.0.0.dir/__/__/__/mesh/prov/src/prov_utils.c.obj
 .rodata.prov_utils_derive_keys.str1.1
                0x0003a425        0xf examples/pb_remote/server/CMakeFiles/pb_remote_server_nrf52832_xxAA_s132_6.0.0.dir/__/__/__/mesh/prov/src/prov_utils.c.obj
 .rodata.add_active_bearer.str1.1
                0x0003a434       0x2c examples/pb_remote/server/CMakeFiles/pb_remote_server_nrf52832_xxAA_s132_6.0.0.dir/__/__/__/mesh/prov/src/prov_bearer_adv.c.obj
 .rodata.crctable.10980
                0x0003a460      0x100 examples/pb_remote/server/CMakeFiles/pb_remote_server_nrf52832_xxAA_s132_6.0.0.dir/__/__/__/mesh/prov/src/prov_bearer_adv.c.obj
 .rodata.interface.11210
                0x0003a560       0x14 examples/pb_remote/server/CMakeFiles/pb_remote_server_nrf52832_xxAA_s132_6.0.0.dir/__/__/__/mesh/prov/src/prov_bearer_adv.c.obj
 .rodata.prov_bearer_adv_packet_in.str1.1
                0x0003a574      0x26e examples/pb_remote/server/CMakeFiles/pb_remote_server_nrf52832_xxAA_s132_6.0.0.dir/__/__/__/mesh/prov/src/prov_bearer_adv.c.obj
 .rodata.tx_retry_cb.str1.1
                0x0003a7e2       0x37 examples/pb_remote/server/CMakeFiles/pb_remote_server_nrf52832_xxAA_s132_6.0.0.dir/__/__/__/mesh/prov/src/prov_bearer_adv.c.obj
 *fill*         0x0003a819        0x1 
 .rodata        0x0003a81a       0x30 examples/pb_remote/server/CMakeFiles/pb_remote_server_nrf52832_xxAA_s132_6.0.0.dir/__/__/__/models/pb_remote/src/pb_remote_server.c.obj
 .rodata.do_state_change.str1.1
                0x0003a84a       0x1e examples/pb_remote/server/CMakeFiles/pb_remote_server_nrf52832_xxAA_s132_6.0.0.dir/__/__/__/models/pb_remote/src/pb_remote_server.c.obj
 .rodata.local_link_open.isra.14.str1.1
                0x0003a868       0x27 examples/pb_remote/server/CMakeFiles/pb_remote_server_nrf52832_xxAA_s132_6.0.0.dir/__/__/__/models/pb_remote/src/pb_remote_server.c.obj
 *fill*         0x0003a88f        0x1 
 .rodata.m_opcode_handlers
                0x0003a890       0x48 examples/pb_remote/server/CMakeFiles/pb_remote_server_nrf52832_xxAA_s132_6.0.0.dir/__/__/__/models/pb_remote/src/pb_remote_server.c.obj
 .rodata.m_pb_remote_server_event_handler_callbacks
                0x0003a8d8       0x3c examples/pb_remote/server/CMakeFiles/pb_remote_server_nrf52832_xxAA_s132_6.0.0.dir/__/__/__/models/pb_remote/src/pb_remote_server.c.obj
 .rodata.pb_remote_server_event_link_close_cb.str1.1
                0x0003a914       0x1d examples/pb_remote/server/CMakeFiles/pb_remote_server_nrf52832_xxAA_s132_6.0.0.dir/__/__/__/models/pb_remote/src/pb_remote_server.c.obj
 .rodata.pb_remote_server_event_link_established_cb.str1.1
                0x0003a931       0x2f examples/pb_remote/server/CMakeFiles/pb_remote_server_nrf52832_xxAA_s132_6.0.0.dir/__/__/__/models/pb_remote/src/pb_remote_server.c.obj
 .rodata.pb_remote_server_event_link_status_cb.str1.1
                0x0003a960       0x8d examples/pb_remote/server/CMakeFiles/pb_remote_server_nrf52832_xxAA_s132_6.0.0.dir/__/__/__/models/pb_remote/src/pb_remote_server.c.obj
 .rodata.pb_remote_server_event_local_ack_cb.str1.1
                0x0003a9ed       0x16 examples/pb_remote/server/CMakeFiles/pb_remote_server_nrf52832_xxAA_s132_6.0.0.dir/__/__/__/models/pb_remote/src/pb_remote_server.c.obj
 .rodata.pb_remote_server_event_local_packet_cb.str1.1
                0x0003aa03       0x2a examples/pb_remote/server/CMakeFiles/pb_remote_server_nrf52832_xxAA_s132_6.0.0.dir/__/__/__/models/pb_remote/src/pb_remote_server.c.obj
 .rodata.pb_remote_server_event_packet_transfer_cb.str1.1
                0x0003aa2d       0x2d examples/pb_remote/server/CMakeFiles/pb_remote_server_nrf52832_xxAA_s132_6.0.0.dir/__/__/__/models/pb_remote/src/pb_remote_server.c.obj
 .rodata.pb_remote_server_event_scan_report_status_cb.str1.1
                0x0003aa5a       0x1e examples/pb_remote/server/CMakeFiles/pb_remote_server_nrf52832_xxAA_s132_6.0.0.dir/__/__/__/models/pb_remote/src/pb_remote_server.c.obj
 .rodata.pb_remote_server_event_scan_start_filter_cb.str1.1
                0x0003aa78        0xe examples/pb_remote/server/CMakeFiles/pb_remote_server_nrf52832_xxAA_s132_6.0.0.dir/__/__/__/models/pb_remote/src/pb_remote_server.c.obj
                                 0x16 (size before relaxing)
 .rodata.pb_remote_server_event_transfer_status_cb.str1.1
                0x0003aa86       0x69 examples/pb_remote/server/CMakeFiles/pb_remote_server_nrf52832_xxAA_s132_6.0.0.dir/__/__/__/models/pb_remote/src/pb_remote_server.c.obj
 .rodata.pb_remote_server_event_unprov_uuid_cb.str1.1
                0x0003aaef       0x19 examples/pb_remote/server/CMakeFiles/pb_remote_server_nrf52832_xxAA_s132_6.0.0.dir/__/__/__/models/pb_remote/src/pb_remote_server.c.obj
 .rodata.pb_remote_server_process.str1.1
                0x0003ab08        0xc examples/pb_remote/server/CMakeFiles/pb_remote_server_nrf52832_xxAA_s132_6.0.0.dir/__/__/__/models/pb_remote/src/pb_remote_server.c.obj
 .rodata.prov_callbacks.12131
                0x0003ab14       0x10 examples/pb_remote/server/CMakeFiles/pb_remote_server_nrf52832_xxAA_s132_6.0.0.dir/__/__/__/models/pb_remote/src/pb_remote_server.c.obj
 .rodata.server_reliable_status_cb.str1.1
                0x0003ab24       0x5f examples/pb_remote/server/CMakeFiles/pb_remote_server_nrf52832_xxAA_s132_6.0.0.dir/__/__/__/models/pb_remote/src/pb_remote_server.c.obj
 .rodata.mesh_evt_cb.str1.1
                0x0003ab83       0x13 examples/pb_remote/server/CMakeFiles/pb_remote_server_nrf52832_xxAA_s132_6.0.0.dir/__/__/__/mesh/access/src/access.c.obj
 .rodata.multiply_de_bruijn_bit_position.9267
                0x0003ab96       0x20 examples/pb_remote/server/CMakeFiles/pb_remote_server_nrf52832_xxAA_s132_6.0.0.dir/__/__/__/mesh/access/src/access.c.obj
 .rodata.packet_tx.str1.1
                0x0003abb6       0x38 examples/pb_remote/server/CMakeFiles/pb_remote_server_nrf52832_xxAA_s132_6.0.0.dir/__/__/__/mesh/access/src/access.c.obj
                                 0x40 (size before relaxing)
 *fill*         0x0003abee        0x2 
 .rodata.m_flash_groups
                0x0003abf0       0xa8 examples/pb_remote/server/CMakeFiles/pb_remote_server_nrf52832_xxAA_s132_6.0.0.dir/__/__/__/mesh/access/src/device_state_manager.c.obj
 .rodata.multiply_de_bruijn_bit_position.9373
                0x0003ac98       0x20 examples/pb_remote/server/CMakeFiles/pb_remote_server_nrf52832_xxAA_s132_6.0.0.dir/__/__/__/mesh/access/src/device_state_manager.c.obj
 .rodata        0x0003acb8        0x8 examples/pb_remote/server/CMakeFiles/pb_remote_server_nrf52832_xxAA_s132_6.0.0.dir/__/__/__/models/config/src/config_server.c.obj
 .rodata.CSWTCH.123
                0x0003acc0       0x10 examples/pb_remote/server/CMakeFiles/pb_remote_server_nrf52832_xxAA_s132_6.0.0.dir/__/__/__/models/config/src/config_server.c.obj
 .rodata.opcode_handlers
                0x0003acd0      0x170 examples/pb_remote/server/CMakeFiles/pb_remote_server_nrf52832_xxAA_s132_6.0.0.dir/__/__/__/models/config/src/config_server.c.obj
 .rodata.m_opcode_handlers
                0x0003ae40       0x58 examples/pb_remote/server/CMakeFiles/pb_remote_server_nrf52832_xxAA_s132_6.0.0.dir/__/__/__/models/health/src/health_server.c.obj
 .rodata.multiply_de_bruijn_bit_position.9311
                0x0003ae98       0x20 examples/pb_remote/server/CMakeFiles/pb_remote_server_nrf52832_xxAA_s132_6.0.0.dir/__/__/__/models/health/src/health_server.c.obj
 *fill*         0x0003aeb8        0x8 
 .rodata.delay_bytecode.9013
                0x0003aec0        0x6 examples/pb_remote/server/CMakeFiles/pb_remote_server_nrf52832_xxAA_s132_6.0.0.dir/C_/b/nRF5_SDK_15.0.0_a53641a/components/libraries/timer/app_timer.c.obj
 .rodata._DoInit.str1.1
                0x0003aec6       0x14 external/rtt/librtt_nrf52832_xxAA.a(SEGGER_RTT.c.obj)
 .rodata._aV2C.5497
                0x0003aeda       0x10 external/rtt/librtt_nrf52832_xxAA.a(SEGGER_RTT_printf.c.obj)
 *fill*         0x0003aeea        0x2 
 .rodata.curve_secp256r1
                0x0003aeec       0xb0 external/micro-ecc/libuECC_nrf52832_xxAA.a(uECC.c.obj)
 .rodata._global_impure_ptr
                0x0003af9c        0x4 c:/mesh/arm_gcc/bin/../lib/gcc/arm-none-eabi/6.3.1/../../../../arm-none-eabi/lib/thumb/v7e-m/fpv4-sp/hard\libg_nano.a(lib_a-impure.o)
                0x0003af9c                _global_impure_ptr
 *(.eh_frame*)
 .eh_frame      0x0003afa0        0x0 c:/mesh/arm_gcc/bin/../lib/gcc/arm-none-eabi/6.3.1/thumb/v7e-m/fpv4-sp/hard/crtbegin.o
 .eh_frame      0x0003afa0        0x4 c:/mesh/arm_gcc/bin/../lib/gcc/arm-none-eabi/6.3.1/thumb/v7e-m/fpv4-sp/hard/crtend.o

.glue_7         0x0003afa4        0x0
 .glue_7        0x0003afa4        0x0 linker stubs

.glue_7t        0x0003afa4        0x0
 .glue_7t       0x0003afa4        0x0 linker stubs

.vfp11_veneer   0x0003afa4        0x0
 .vfp11_veneer  0x0003afa4        0x0 linker stubs

.v4_bx          0x0003afa4        0x0
 .v4_bx         0x0003afa4        0x0 linker stubs

.iplt           0x0003afa4        0x0
 .iplt          0x0003afa4        0x0 c:/mesh/arm_gcc/bin/../lib/gcc/arm-none-eabi/6.3.1/thumb/v7e-m/fpv4-sp/hard/crtbegin.o

.pwr_mgmt_data  0x0003afa4        0x0
                [!provide]                PROVIDE (__start_pwr_mgmt_data, .)
 *(SORT(.pwr_mgmt_data*))
                [!provide]                PROVIDE (__stop_pwr_mgmt_data, .)

.log_const_data
                0x0003afa4        0x0
                [!provide]                PROVIDE (__start_log_const_data, .)
 *(.log_const_data)
                [!provide]                PROVIDE (__stop_log_const_data, .)

.cli_command    0x0003afa4        0x0
                [!provide]                PROVIDE (__start_cli_command, .)
 *(.cli_command)
                [!provide]                PROVIDE (__stop_cli_command, .)

.sdh_stack_observers
                0x0003afa4        0x0
                [!provide]                PROVIDE (__start_sdh_stack_observers, .)
 *(SORT(.sdh_stack_observers*))
                [!provide]                PROVIDE (__stop_sdh_stack_observers, .)

.sdh_req_observers
                0x0003afa4        0x0
                [!provide]                PROVIDE (__start_sdh_req_observers, .)
 *(SORT(.sdh_req_observers*))
                [!provide]                PROVIDE (__stop_sdh_req_observers, .)

.sdh_state_observers
                0x0003afa4        0x0
                [!provide]                PROVIDE (__start_sdh_state_observers, .)
 *(SORT(.sdh_state_observers*))
                [!provide]                PROVIDE (__stop_sdh_state_observers, .)

.sdh_ant_observers
                0x0003afa4        0x0
                [!provide]                PROVIDE (__start_sdh_ant_observers, .)
 *(SORT(.sdh_ant_observers*))
                [!provide]                PROVIDE (__stop_sdh_ant_observers, .)

.sdh_ble_observers
                0x0003afa4        0x0
                [!provide]                PROVIDE (__start_sdh_ble_observers, .)
 *(SORT(.sdh_ble_observers*))
                [!provide]                PROVIDE (__stop_sdh_ble_observers, .)

.sdh_soc_observers
                0x0003afa4        0x0
                [!provide]                PROVIDE (__start_sdh_soc_observers, .)
 *(SORT(.sdh_soc_observers*))
                [!provide]                PROVIDE (__stop_sdh_soc_observers, .)

.ARM.extab
 *(.ARM.extab* .gnu.linkonce.armextab.*)
                0x0003afa4                __exidx_start = .

.ARM.exidx      0x0003afa4        0x8
 *(.ARM.exidx* .gnu.linkonce.armexidx.*)
 .ARM.exidx     0x0003afa4        0x8 c:/mesh/arm_gcc/bin/../lib/gcc/arm-none-eabi/6.3.1/../../../../arm-none-eabi/lib/thumb/v7e-m/fpv4-sp/hard/crt0.o
 .ARM.exidx     0x0003afac        0x0 c:/mesh/arm_gcc/bin/../lib/gcc/arm-none-eabi/6.3.1/thumb/v7e-m/fpv4-sp/hard\libgcc.a(_udivmoddi4.o)
                                  0x8 (size before relaxing)
                0x0003afac                __exidx_end = .
                0x0003afac                __etext = .

.rel.dyn        0x0003afac        0x0
 .rel.iplt      0x0003afac        0x0 c:/mesh/arm_gcc/bin/../lib/gcc/arm-none-eabi/6.3.1/thumb/v7e-m/fpv4-sp/hard/crtbegin.o

.data           0x20002da0      0x140 load address 0x0003afac
                0x20002da0                __data_start__ = .
 *(vtable)
 *(.data*)
 .data.wait.8936
                0x20002da0        0x1 examples/pb_remote/server/CMakeFiles/pb_remote_server_nrf52832_xxAA_s132_6.0.0.dir/__/__/common/src/app_error_weak.c.obj
 *fill*         0x20002da1        0x3 
 .data.mem_listener.9840
                0x20002da4       0x10 examples/pb_remote/server/CMakeFiles/pb_remote_server_nrf52832_xxAA_s132_6.0.0.dir/__/__/__/mesh/core/src/net_state.c.obj
 .data.mem_listener.9845
                0x20002db4       0x10 examples/pb_remote/server/CMakeFiles/pb_remote_server_nrf52832_xxAA_s132_6.0.0.dir/__/__/__/mesh/core/src/net_state.c.obj
 .data.mem_listener.9859
                0x20002dc4       0x10 examples/pb_remote/server/CMakeFiles/pb_remote_server_nrf52832_xxAA_s132_6.0.0.dir/__/__/__/mesh/core/src/net_state.c.obj
 .data.mem_listener.9876
                0x20002dd4       0x10 examples/pb_remote/server/CMakeFiles/pb_remote_server_nrf52832_xxAA_s132_6.0.0.dir/__/__/__/mesh/core/src/net_state.c.obj
 .data.m_nrf_mesh_listener
                0x20002de4        0xc examples/pb_remote/server/CMakeFiles/pb_remote_server_nrf52832_xxAA_s132_6.0.0.dir/__/__/__/mesh/core/src/nrf_mesh.c.obj
 .data.g_log_dbg_lvl
                0x20002df0        0x4 examples/pb_remote/server/CMakeFiles/pb_remote_server_nrf52832_xxAA_s132_6.0.0.dir/__/__/__/mesh/core/src/log.c.obj
                0x20002df0                g_log_dbg_lvl
 .data.g_log_dbg_msk
                0x20002df4        0x4 examples/pb_remote/server/CMakeFiles/pb_remote_server_nrf52832_xxAA_s132_6.0.0.dir/__/__/__/mesh/core/src/log.c.obj
                0x20002df4                g_log_dbg_msk
 .data.g_log_hex_digits
                0x20002df8        0x4 examples/pb_remote/server/CMakeFiles/pb_remote_server_nrf52832_xxAA_s132_6.0.0.dir/__/__/__/mesh/core/src/log.c.obj
                0x20002df8                g_log_hex_digits
 .data.m_log_callback
                0x20002dfc        0x4 examples/pb_remote/server/CMakeFiles/pb_remote_server_nrf52832_xxAA_s132_6.0.0.dir/__/__/__/mesh/core/src/log.c.obj
                0x20002dfc                m_log_callback
 .data.m_async_process_flag
                0x20002e00        0x4 examples/pb_remote/server/CMakeFiles/pb_remote_server_nrf52832_xxAA_s132_6.0.0.dir/__/__/__/mesh/prov/src/prov_bearer_adv.c.obj
 .data.flash_add_mem_available_struct.10414
                0x20002e04       0x10 examples/pb_remote/server/CMakeFiles/pb_remote_server_nrf52832_xxAA_s132_6.0.0.dir/__/__/__/mesh/access/src/access.c.obj
 .data.flash_clear_mem_available_struct.10503
                0x20002e14       0x10 examples/pb_remote/server/CMakeFiles/pb_remote_server_nrf52832_xxAA_s132_6.0.0.dir/__/__/__/mesh/access/src/access.c.obj
 .data.flash_store_mem_available_struct.10527
                0x20002e24       0x10 examples/pb_remote/server/CMakeFiles/pb_remote_server_nrf52832_xxAA_s132_6.0.0.dir/__/__/__/mesh/access/src/access.c.obj
 .data.m_default_ttl
                0x20002e34        0x1 examples/pb_remote/server/CMakeFiles/pb_remote_server_nrf52832_xxAA_s132_6.0.0.dir/__/__/__/mesh/access/src/access.c.obj
 *fill*         0x20002e35        0x3 
 .data.mem_listener.10767
                0x20002e38       0x10 examples/pb_remote/server/CMakeFiles/pb_remote_server_nrf52832_xxAA_s132_6.0.0.dir/__/__/__/mesh/access/src/device_state_manager.c.obj
 .data.mem_listener.10793
                0x20002e48       0x10 examples/pb_remote/server/CMakeFiles/pb_remote_server_nrf52832_xxAA_s132_6.0.0.dir/__/__/__/mesh/access/src/device_state_manager.c.obj
 .data.m_config_server_handle
                0x20002e58        0x2 examples/pb_remote/server/CMakeFiles/pb_remote_server_nrf52832_xxAA_s132_6.0.0.dir/__/__/__/models/config/src/config_server.c.obj
 *fill*         0x20002e5a        0x2 
 .data.m_mesh_evt_handler
                0x20002e5c        0xc examples/pb_remote/server/CMakeFiles/pb_remote_server_nrf52832_xxAA_s132_6.0.0.dir/__/__/__/models/config/src/config_server.c.obj
 .data.SystemCoreClock
                0x20002e68        0x4 examples/pb_remote/server/CMakeFiles/pb_remote_server_nrf52832_xxAA_s132_6.0.0.dir/C_/b/nRF5_SDK_15.0.0_a53641a/modules/nrfx/mdk/system_nrf52.c.obj
                0x20002e68                SystemCoreClock
 .data.g_rng_function
                0x20002e6c        0x4 external/micro-ecc/libuECC_nrf52832_xxAA.a(uECC.c.obj)
 .data._impure_ptr
                0x20002e70        0x4 c:/mesh/arm_gcc/bin/../lib/gcc/arm-none-eabi/6.3.1/../../../../arm-none-eabi/lib/thumb/v7e-m/fpv4-sp/hard\libg_nano.a(lib_a-impure.o)
                0x20002e70                _impure_ptr
 .data.impure_data
                0x20002e74       0x60 c:/mesh/arm_gcc/bin/../lib/gcc/arm-none-eabi/6.3.1/../../../../arm-none-eabi/lib/thumb/v7e-m/fpv4-sp/hard\libg_nano.a(lib_a-impure.o)
                0x20002ed4                . = ALIGN (0x4)
                0x20002ed4                PROVIDE (__preinit_array_start, .)
 *(.preinit_array)
                0x20002ed4                PROVIDE (__preinit_array_end, .)
                0x20002ed4                . = ALIGN (0x4)
                0x20002ed4                PROVIDE (__init_array_start, .)
 *(SORT(.init_array.*))
 *(.init_array)
 .init_array    0x20002ed4        0x4 c:/mesh/arm_gcc/bin/../lib/gcc/arm-none-eabi/6.3.1/thumb/v7e-m/fpv4-sp/hard/crtbegin.o
                0x20002ed8                PROVIDE (__init_array_end, .)
                0x20002ed8                . = ALIGN (0x4)
                [!provide]                PROVIDE (__fini_array_start, .)
 *(SORT(.fini_array.*))
 *(.fini_array)
 .fini_array    0x20002ed8        0x4 c:/mesh/arm_gcc/bin/../lib/gcc/arm-none-eabi/6.3.1/thumb/v7e-m/fpv4-sp/hard/crtbegin.o
                [!provide]                PROVIDE (__fini_array_end, .)
 *(.jcr*)
 .jcr           0x20002edc        0x0 c:/mesh/arm_gcc/bin/../lib/gcc/arm-none-eabi/6.3.1/thumb/v7e-m/fpv4-sp/hard/crtbegin.o
 .jcr           0x20002edc        0x4 c:/mesh/arm_gcc/bin/../lib/gcc/arm-none-eabi/6.3.1/thumb/v7e-m/fpv4-sp/hard/crtend.o
                0x20002ee0                . = ALIGN (0x4)
                0x20002ee0                __data_end__ = .
LOAD c:/mesh/arm_gcc/bin/../lib/gcc/arm-none-eabi/6.3.1/thumb/v7e-m/fpv4-sp/hard/crti.o
LOAD c:/mesh/arm_gcc/bin/../lib/gcc/arm-none-eabi/6.3.1/thumb/v7e-m/fpv4-sp/hard/crtbegin.o
LOAD c:/mesh/arm_gcc/bin/../lib/gcc/arm-none-eabi/6.3.1/../../../../arm-none-eabi/lib/thumb/v7e-m/fpv4-sp/hard/crt0.o
LOAD examples/pb_remote/server/CMakeFiles/pb_remote_server_nrf52832_xxAA_s132_6.0.0.dir/src/main.c.obj
LOAD examples/pb_remote/server/CMakeFiles/pb_remote_server_nrf52832_xxAA_s132_6.0.0.dir/__/__/__/mesh/stack/src/mesh_stack.c.obj
LOAD examples/pb_remote/server/CMakeFiles/pb_remote_server_nrf52832_xxAA_s132_6.0.0.dir/__/__/common/src/mesh_softdevice_init.c.obj
LOAD examples/pb_remote/server/CMakeFiles/pb_remote_server_nrf52832_xxAA_s132_6.0.0.dir/__/__/common/src/mesh_provisionee.c.obj
LOAD examples/pb_remote/server/CMakeFiles/pb_remote_server_nrf52832_xxAA_s132_6.0.0.dir/__/__/common/src/simple_hal.c.obj
LOAD examples/pb_remote/server/CMakeFiles/pb_remote_server_nrf52832_xxAA_s132_6.0.0.dir/__/__/nrf_mesh_weak.c.obj
LOAD examples/pb_remote/server/CMakeFiles/pb_remote_server_nrf52832_xxAA_s132_6.0.0.dir/__/__/common/src/app_error_weak.c.obj
LOAD examples/pb_remote/server/CMakeFiles/pb_remote_server_nrf52832_xxAA_s132_6.0.0.dir/__/__/common/src/assertion_handler_weak.c.obj
LOAD examples/pb_remote/server/CMakeFiles/pb_remote_server_nrf52832_xxAA_s132_6.0.0.dir/__/__/__/mesh/core/src/internal_event.c.obj
LOAD examples/pb_remote/server/CMakeFiles/pb_remote_server_nrf52832_xxAA_s132_6.0.0.dir/__/__/__/mesh/core/src/nrf_mesh_configure.c.obj
LOAD examples/pb_remote/server/CMakeFiles/pb_remote_server_nrf52832_xxAA_s132_6.0.0.dir/__/__/__/mesh/core/src/aes.c.obj
LOAD examples/pb_remote/server/CMakeFiles/pb_remote_server_nrf52832_xxAA_s132_6.0.0.dir/__/__/__/mesh/core/src/msg_cache.c.obj
LOAD examples/pb_remote/server/CMakeFiles/pb_remote_server_nrf52832_xxAA_s132_6.0.0.dir/__/__/__/mesh/core/src/transport.c.obj
LOAD examples/pb_remote/server/CMakeFiles/pb_remote_server_nrf52832_xxAA_s132_6.0.0.dir/__/__/__/mesh/core/src/event.c.obj
LOAD examples/pb_remote/server/CMakeFiles/pb_remote_server_nrf52832_xxAA_s132_6.0.0.dir/__/__/__/mesh/core/src/packet_buffer.c.obj
LOAD examples/pb_remote/server/CMakeFiles/pb_remote_server_nrf52832_xxAA_s132_6.0.0.dir/__/__/__/mesh/core/src/flash_manager_defrag.c.obj
LOAD examples/pb_remote/server/CMakeFiles/pb_remote_server_nrf52832_xxAA_s132_6.0.0.dir/__/__/__/mesh/core/src/fifo.c.obj
LOAD examples/pb_remote/server/CMakeFiles/pb_remote_server_nrf52832_xxAA_s132_6.0.0.dir/__/__/__/mesh/core/src/nrf_flash.c.obj
LOAD examples/pb_remote/server/CMakeFiles/pb_remote_server_nrf52832_xxAA_s132_6.0.0.dir/__/__/__/mesh/core/src/packet_mgr.c.obj
LOAD examples/pb_remote/server/CMakeFiles/pb_remote_server_nrf52832_xxAA_s132_6.0.0.dir/__/__/__/mesh/core/src/net_state.c.obj
LOAD examples/pb_remote/server/CMakeFiles/pb_remote_server_nrf52832_xxAA_s132_6.0.0.dir/__/__/__/mesh/core/src/mesh_flash.c.obj
LOAD examples/pb_remote/server/CMakeFiles/pb_remote_server_nrf52832_xxAA_s132_6.0.0.dir/__/__/__/mesh/core/src/nrf_mesh_utils.c.obj
LOAD examples/pb_remote/server/CMakeFiles/pb_remote_server_nrf52832_xxAA_s132_6.0.0.dir/__/__/__/mesh/core/src/nrf_mesh.c.obj
LOAD examples/pb_remote/server/CMakeFiles/pb_remote_server_nrf52832_xxAA_s132_6.0.0.dir/__/__/__/mesh/core/src/queue.c.obj
LOAD examples/pb_remote/server/CMakeFiles/pb_remote_server_nrf52832_xxAA_s132_6.0.0.dir/__/__/__/mesh/core/src/hal.c.obj
LOAD examples/pb_remote/server/CMakeFiles/pb_remote_server_nrf52832_xxAA_s132_6.0.0.dir/__/__/__/mesh/core/src/aes_cmac.c.obj
LOAD examples/pb_remote/server/CMakeFiles/pb_remote_server_nrf52832_xxAA_s132_6.0.0.dir/__/__/__/mesh/core/src/timer_scheduler.c.obj
LOAD examples/pb_remote/server/CMakeFiles/pb_remote_server_nrf52832_xxAA_s132_6.0.0.dir/__/__/__/mesh/core/src/timer.c.obj
LOAD examples/pb_remote/server/CMakeFiles/pb_remote_server_nrf52832_xxAA_s132_6.0.0.dir/__/__/__/mesh/core/src/ticker.c.obj
LOAD examples/pb_remote/server/CMakeFiles/pb_remote_server_nrf52832_xxAA_s132_6.0.0.dir/__/__/__/mesh/core/src/rand.c.obj
LOAD examples/pb_remote/server/CMakeFiles/pb_remote_server_nrf52832_xxAA_s132_6.0.0.dir/__/__/__/mesh/core/src/nrf_mesh_opt.c.obj
LOAD examples/pb_remote/server/CMakeFiles/pb_remote_server_nrf52832_xxAA_s132_6.0.0.dir/__/__/__/mesh/core/src/timeslot.c.obj
LOAD examples/pb_remote/server/CMakeFiles/pb_remote_server_nrf52832_xxAA_s132_6.0.0.dir/__/__/__/mesh/core/src/bearer_event.c.obj
LOAD examples/pb_remote/server/CMakeFiles/pb_remote_server_nrf52832_xxAA_s132_6.0.0.dir/__/__/__/mesh/core/src/enc.c.obj
LOAD examples/pb_remote/server/CMakeFiles/pb_remote_server_nrf52832_xxAA_s132_6.0.0.dir/__/__/__/mesh/core/src/network.c.obj
LOAD examples/pb_remote/server/CMakeFiles/pb_remote_server_nrf52832_xxAA_s132_6.0.0.dir/__/__/__/mesh/core/src/net_packet.c.obj
LOAD examples/pb_remote/server/CMakeFiles/pb_remote_server_nrf52832_xxAA_s132_6.0.0.dir/__/__/__/mesh/core/src/msqueue.c.obj
LOAD examples/pb_remote/server/CMakeFiles/pb_remote_server_nrf52832_xxAA_s132_6.0.0.dir/__/__/__/mesh/core/src/nrf_mesh_keygen.c.obj
LOAD examples/pb_remote/server/CMakeFiles/pb_remote_server_nrf52832_xxAA_s132_6.0.0.dir/__/__/__/mesh/core/src/cache.c.obj
LOAD examples/pb_remote/server/CMakeFiles/pb_remote_server_nrf52832_xxAA_s132_6.0.0.dir/__/__/__/mesh/core/src/list.c.obj
LOAD examples/pb_remote/server/CMakeFiles/pb_remote_server_nrf52832_xxAA_s132_6.0.0.dir/__/__/__/mesh/core/src/log.c.obj
LOAD examples/pb_remote/server/CMakeFiles/pb_remote_server_nrf52832_xxAA_s132_6.0.0.dir/__/__/__/mesh/core/src/flash_manager.c.obj
LOAD examples/pb_remote/server/CMakeFiles/pb_remote_server_nrf52832_xxAA_s132_6.0.0.dir/__/__/__/mesh/core/src/ccm_soft.c.obj
LOAD examples/pb_remote/server/CMakeFiles/pb_remote_server_nrf52832_xxAA_s132_6.0.0.dir/__/__/__/mesh/core/src/toolchain.c.obj
LOAD examples/pb_remote/server/CMakeFiles/pb_remote_server_nrf52832_xxAA_s132_6.0.0.dir/__/__/__/mesh/core/src/replay_cache.c.obj
LOAD examples/pb_remote/server/CMakeFiles/pb_remote_server_nrf52832_xxAA_s132_6.0.0.dir/__/__/__/mesh/core/src/beacon.c.obj
LOAD examples/pb_remote/server/CMakeFiles/pb_remote_server_nrf52832_xxAA_s132_6.0.0.dir/__/__/__/mesh/core/src/flash_manager_internal.c.obj
LOAD examples/pb_remote/server/CMakeFiles/pb_remote_server_nrf52832_xxAA_s132_6.0.0.dir/__/__/__/mesh/core/src/core_tx.c.obj
LOAD examples/pb_remote/server/CMakeFiles/pb_remote_server_nrf52832_xxAA_s132_6.0.0.dir/__/__/__/mesh/core/src/heartbeat.c.obj
LOAD examples/pb_remote/server/CMakeFiles/pb_remote_server_nrf52832_xxAA_s132_6.0.0.dir/__/__/__/mesh/core/src/net_beacon.c.obj
LOAD examples/pb_remote/server/CMakeFiles/pb_remote_server_nrf52832_xxAA_s132_6.0.0.dir/__/__/__/mesh/core/src/fsm.c.obj
LOAD examples/pb_remote/server/CMakeFiles/pb_remote_server_nrf52832_xxAA_s132_6.0.0.dir/__/__/__/mesh/core/src/core_tx_adv.c.obj
LOAD examples/pb_remote/server/CMakeFiles/pb_remote_server_nrf52832_xxAA_s132_6.0.0.dir/__/__/__/mesh/bearer/src/ad_listener.c.obj
LOAD examples/pb_remote/server/CMakeFiles/pb_remote_server_nrf52832_xxAA_s132_6.0.0.dir/__/__/__/mesh/bearer/src/ad_type_filter.c.obj
LOAD examples/pb_remote/server/CMakeFiles/pb_remote_server_nrf52832_xxAA_s132_6.0.0.dir/__/__/__/mesh/bearer/src/adv_packet_filter.c.obj
LOAD examples/pb_remote/server/CMakeFiles/pb_remote_server_nrf52832_xxAA_s132_6.0.0.dir/__/__/__/mesh/bearer/src/advertiser.c.obj
LOAD examples/pb_remote/server/CMakeFiles/pb_remote_server_nrf52832_xxAA_s132_6.0.0.dir/__/__/__/mesh/bearer/src/bearer_handler.c.obj
LOAD examples/pb_remote/server/CMakeFiles/pb_remote_server_nrf52832_xxAA_s132_6.0.0.dir/__/__/__/mesh/bearer/src/broadcast.c.obj
LOAD examples/pb_remote/server/CMakeFiles/pb_remote_server_nrf52832_xxAA_s132_6.0.0.dir/__/__/__/mesh/bearer/src/filter_engine.c.obj
LOAD examples/pb_remote/server/CMakeFiles/pb_remote_server_nrf52832_xxAA_s132_6.0.0.dir/__/__/__/mesh/bearer/src/gap_address_filter.c.obj
LOAD examples/pb_remote/server/CMakeFiles/pb_remote_server_nrf52832_xxAA_s132_6.0.0.dir/__/__/__/mesh/bearer/src/radio_config.c.obj
LOAD examples/pb_remote/server/CMakeFiles/pb_remote_server_nrf52832_xxAA_s132_6.0.0.dir/__/__/__/mesh/bearer/src/rssi_filter.c.obj
LOAD examples/pb_remote/server/CMakeFiles/pb_remote_server_nrf52832_xxAA_s132_6.0.0.dir/__/__/__/mesh/bearer/src/scanner.c.obj
LOAD examples/pb_remote/server/CMakeFiles/pb_remote_server_nrf52832_xxAA_s132_6.0.0.dir/__/__/__/mesh/bearer/src/mesh_pa_lna.c.obj
LOAD examples/pb_remote/server/CMakeFiles/pb_remote_server_nrf52832_xxAA_s132_6.0.0.dir/__/__/__/mesh/prov/src/prov_provisionee.c.obj
LOAD examples/pb_remote/server/CMakeFiles/pb_remote_server_nrf52832_xxAA_s132_6.0.0.dir/__/__/__/mesh/prov/src/nrf_mesh_prov.c.obj
LOAD examples/pb_remote/server/CMakeFiles/pb_remote_server_nrf52832_xxAA_s132_6.0.0.dir/__/__/__/mesh/prov/src/provisioning.c.obj
LOAD examples/pb_remote/server/CMakeFiles/pb_remote_server_nrf52832_xxAA_s132_6.0.0.dir/__/__/__/mesh/prov/src/prov_beacon.c.obj
LOAD examples/pb_remote/server/CMakeFiles/pb_remote_server_nrf52832_xxAA_s132_6.0.0.dir/__/__/__/mesh/prov/src/prov_utils.c.obj
LOAD examples/pb_remote/server/CMakeFiles/pb_remote_server_nrf52832_xxAA_s132_6.0.0.dir/__/__/__/mesh/prov/src/prov_bearer_adv.c.obj
LOAD examples/pb_remote/server/CMakeFiles/pb_remote_server_nrf52832_xxAA_s132_6.0.0.dir/__/__/__/models/pb_remote/src/pb_remote_server.c.obj
LOAD examples/pb_remote/server/CMakeFiles/pb_remote_server_nrf52832_xxAA_s132_6.0.0.dir/__/__/__/mesh/access/src/access_publish.c.obj
LOAD examples/pb_remote/server/CMakeFiles/pb_remote_server_nrf52832_xxAA_s132_6.0.0.dir/__/__/__/mesh/access/src/access.c.obj
LOAD examples/pb_remote/server/CMakeFiles/pb_remote_server_nrf52832_xxAA_s132_6.0.0.dir/__/__/__/mesh/access/src/access_reliable.c.obj
LOAD examples/pb_remote/server/CMakeFiles/pb_remote_server_nrf52832_xxAA_s132_6.0.0.dir/__/__/__/mesh/access/src/access_loopback.c.obj
LOAD examples/pb_remote/server/CMakeFiles/pb_remote_server_nrf52832_xxAA_s132_6.0.0.dir/__/__/__/mesh/access/src/device_state_manager.c.obj
LOAD examples/pb_remote/server/CMakeFiles/pb_remote_server_nrf52832_xxAA_s132_6.0.0.dir/__/__/__/models/config/src/composition_data.c.obj
LOAD examples/pb_remote/server/CMakeFiles/pb_remote_server_nrf52832_xxAA_s132_6.0.0.dir/__/__/__/models/config/src/config_server.c.obj
LOAD examples/pb_remote/server/CMakeFiles/pb_remote_server_nrf52832_xxAA_s132_6.0.0.dir/__/__/__/models/config/src/packed_index_list.c.obj
LOAD examples/pb_remote/server/CMakeFiles/pb_remote_server_nrf52832_xxAA_s132_6.0.0.dir/__/__/__/models/health/src/health_server.c.obj
LOAD examples/pb_remote/server/CMakeFiles/pb_remote_server_nrf52832_xxAA_s132_6.0.0.dir/C_/b/nRF5_SDK_15.0.0_a53641a/modules/nrfx/mdk/system_nrf52.c.obj
LOAD examples/pb_remote/server/CMakeFiles/pb_remote_server_nrf52832_xxAA_s132_6.0.0.dir/C_/b/nRF5_SDK_15.0.0_a53641a/modules/nrfx/mdk/gcc_startup_nrf52.S.obj
LOAD examples/pb_remote/server/CMakeFiles/pb_remote_server_nrf52832_xxAA_s132_6.0.0.dir/C_/b/nRF5_SDK_15.0.0_a53641a/components/libraries/util/app_error.c.obj
LOAD examples/pb_remote/server/CMakeFiles/pb_remote_server_nrf52832_xxAA_s132_6.0.0.dir/C_/b/nRF5_SDK_15.0.0_a53641a/components/libraries/util/app_util_platform.c.obj
LOAD examples/pb_remote/server/CMakeFiles/pb_remote_server_nrf52832_xxAA_s132_6.0.0.dir/C_/b/nRF5_SDK_15.0.0_a53641a/components/libraries/timer/app_timer.c.obj
LOAD examples/pb_remote/server/CMakeFiles/pb_remote_server_nrf52832_xxAA_s132_6.0.0.dir/C_/b/nRF5_SDK_15.0.0_a53641a/components/libraries/util/app_error_handler_gcc.c.obj
LOAD external/rtt/librtt_nrf52832_xxAA.a
LOAD external/micro-ecc/libuECC_nrf52832_xxAA.a
START GROUP
LOAD c:/mesh/arm_gcc/bin/../lib/gcc/arm-none-eabi/6.3.1/thumb/v7e-m/fpv4-sp/hard\libgcc.a
LOAD c:/mesh/arm_gcc/bin/../lib/gcc/arm-none-eabi/6.3.1/../../../../arm-none-eabi/lib/thumb/v7e-m/fpv4-sp/hard\libg_nano.a
LOAD c:/mesh/arm_gcc/bin/../lib/gcc/arm-none-eabi/6.3.1/../../../../arm-none-eabi/lib/thumb/v7e-m/fpv4-sp/hard\libc_nano.a
END GROUP
START GROUP
LOAD c:/mesh/arm_gcc/bin/../lib/gcc/arm-none-eabi/6.3.1/thumb/v7e-m/fpv4-sp/hard\libgcc.a
LOAD c:/mesh/arm_gcc/bin/../lib/gcc/arm-none-eabi/6.3.1/../../../../arm-none-eabi/lib/thumb/v7e-m/fpv4-sp/hard\libc_nano.a
END GROUP
LOAD c:/mesh/arm_gcc/bin/../lib/gcc/arm-none-eabi/6.3.1/thumb/v7e-m/fpv4-sp/hard/crtend.o
LOAD c:/mesh/arm_gcc/bin/../lib/gcc/arm-none-eabi/6.3.1/thumb/v7e-m/fpv4-sp/hard/crtn.o
START GROUP
LOAD c:/mesh/arm_gcc/bin/../lib/gcc/arm-none-eabi/6.3.1/thumb/v7e-m/fpv4-sp/hard\libgcc.a
LOAD c:/mesh/arm_gcc/bin/../lib/gcc/arm-none-eabi/6.3.1/../../../../arm-none-eabi/lib/thumb/v7e-m/fpv4-sp/hard\libc.a
LOAD c:/mesh/arm_gcc/bin/../lib/gcc/arm-none-eabi/6.3.1/../../../../arm-none-eabi/lib/thumb/v7e-m/fpv4-sp/hard\libnosys.a
END GROUP

.igot.plt       0x20002ee0        0x0 load address 0x0003b0ec
 .igot.plt      0x20002ee0        0x0 c:/mesh/arm_gcc/bin/../lib/gcc/arm-none-eabi/6.3.1/thumb/v7e-m/fpv4-sp/hard/crtbegin.o
                0x20002ee0                . = ALIGN (0x4)

.svc_data       0x20002ee0        0x0
                [!provide]                PROVIDE (__start_svc_data, .)
 *(.svc_data)
                [!provide]                PROVIDE (__stop_svc_data, .)

.fs_data        0x20002ee0        0x0
                [!provide]                PROVIDE (__start_fs_data, .)
 *(.fs_data)
                [!provide]                PROVIDE (__stop_fs_data, .)

.log_dynamic_data
                0x20002ee0        0x0
                [!provide]                PROVIDE (__start_log_dynamic_data, .)
 *(.log_dynamic_data)
                [!provide]                PROVIDE (__stop_log_dynamic_data, .)

.cli_sorted_cmd_ptrs
                0x20002ee0        0x0
                [!provide]                PROVIDE (__start_cli_sorted_cmd_ptrs, .)
 *(.cli_sorted_cmd_ptrs)
                [!provide]                PROVIDE (__stop_cli_sorted_cmd_ptrs, .)

.bss            0x20002ee0     0x3458 load address 0x0003b0f0
                0x20002ee0                . = ALIGN (0x4)
                0x20002ee0                __bss_start__ = .
 *(.bss*)
 .bss           0x20002ee0       0x1c c:/mesh/arm_gcc/bin/../lib/gcc/arm-none-eabi/6.3.1/thumb/v7e-m/fpv4-sp/hard/crtbegin.o
 .bss.m_appkey_handle
                0x20002efc        0x2 examples/pb_remote/server/CMakeFiles/pb_remote_server_nrf52832_xxAA_s132_6.0.0.dir/src/main.c.obj
 .bss.m_device_provisioned
                0x20002efe        0x1 examples/pb_remote/server/CMakeFiles/pb_remote_server_nrf52832_xxAA_s132_6.0.0.dir/src/main.c.obj
 *fill*         0x20002eff        0x1 
 .bss.m_prov_bearer_adv
                0x20002f00      0x1c8 examples/pb_remote/server/CMakeFiles/pb_remote_server_nrf52832_xxAA_s132_6.0.0.dir/src/main.c.obj
 .bss.m_provisioner_address_handle
                0x200030c8        0x2 examples/pb_remote/server/CMakeFiles/pb_remote_server_nrf52832_xxAA_s132_6.0.0.dir/src/main.c.obj
 *fill*         0x200030ca        0x2 
 .bss.m_remote_server
                0x200030cc       0x2c examples/pb_remote/server/CMakeFiles/pb_remote_server_nrf52832_xxAA_s132_6.0.0.dir/src/main.c.obj
 .bss.m_health_server
                0x200030f8       0x5c examples/pb_remote/server/CMakeFiles/pb_remote_server_nrf52832_xxAA_s132_6.0.0.dir/__/__/__/mesh/stack/src/mesh_stack.c.obj
 .bss.m_device_provisioned
                0x20003154        0x1 examples/pb_remote/server/CMakeFiles/pb_remote_server_nrf52832_xxAA_s132_6.0.0.dir/__/__/common/src/mesh_provisionee.c.obj
 *fill*         0x20003155        0x3 
 .bss.m_params  0x20003158        0xc examples/pb_remote/server/CMakeFiles/pb_remote_server_nrf52832_xxAA_s132_6.0.0.dir/__/__/common/src/mesh_provisionee.c.obj
 .bss.m_private_key
                0x20003164       0x20 examples/pb_remote/server/CMakeFiles/pb_remote_server_nrf52832_xxAA_s132_6.0.0.dir/__/__/common/src/mesh_provisionee.c.obj
 .bss.m_prov_bearer_adv
                0x20003184      0x1c8 examples/pb_remote/server/CMakeFiles/pb_remote_server_nrf52832_xxAA_s132_6.0.0.dir/__/__/common/src/mesh_provisionee.c.obj
 .bss.m_prov_ctx
                0x2000334c      0x134 examples/pb_remote/server/CMakeFiles/pb_remote_server_nrf52832_xxAA_s132_6.0.0.dir/__/__/common/src/mesh_provisionee.c.obj
 .bss.m_public_key
                0x20003480       0x40 examples/pb_remote/server/CMakeFiles/pb_remote_server_nrf52832_xxAA_s132_6.0.0.dir/__/__/common/src/mesh_provisionee.c.obj
 .bss.m_blink_count
                0x200034c0        0x4 examples/pb_remote/server/CMakeFiles/pb_remote_server_nrf52832_xxAA_s132_6.0.0.dir/__/__/common/src/simple_hal.c.obj
 .bss.m_blink_mask
                0x200034c4        0x4 examples/pb_remote/server/CMakeFiles/pb_remote_server_nrf52832_xxAA_s132_6.0.0.dir/__/__/common/src/simple_hal.c.obj
 .bss.m_blink_timer_data
                0x200034c8       0x20 examples/pb_remote/server/CMakeFiles/pb_remote_server_nrf52832_xxAA_s132_6.0.0.dir/__/__/common/src/simple_hal.c.obj
 .bss.m_button_handler_cb
                0x200034e8        0x4 examples/pb_remote/server/CMakeFiles/pb_remote_server_nrf52832_xxAA_s132_6.0.0.dir/__/__/common/src/simple_hal.c.obj
 .bss.m_last_button_press
                0x200034ec        0x4 examples/pb_remote/server/CMakeFiles/pb_remote_server_nrf52832_xxAA_s132_6.0.0.dir/__/__/common/src/simple_hal.c.obj
 .bss.m_uuid    0x200034f0       0x10 examples/pb_remote/server/CMakeFiles/pb_remote_server_nrf52832_xxAA_s132_6.0.0.dir/__/__/__/mesh/core/src/nrf_mesh_configure.c.obj
 .bss.m_msg_cache
                0x20003500      0x100 examples/pb_remote/server/CMakeFiles/pb_remote_server_nrf52832_xxAA_s132_6.0.0.dir/__/__/__/mesh/core/src/msg_cache.c.obj
 .bss.m_msg_cache_head
                0x20003600        0x4 examples/pb_remote/server/CMakeFiles/pb_remote_server_nrf52832_xxAA_s132_6.0.0.dir/__/__/__/mesh/core/src/msg_cache.c.obj
 .bss.m_control_packet_consumer_count
                0x20003604        0x4 examples/pb_remote/server/CMakeFiles/pb_remote_server_nrf52832_xxAA_s132_6.0.0.dir/__/__/__/mesh/core/src/transport.c.obj
 .bss.m_control_packet_consumers
                0x20003608        0x8 examples/pb_remote/server/CMakeFiles/pb_remote_server_nrf52832_xxAA_s132_6.0.0.dir/__/__/__/mesh/core/src/transport.c.obj
 .bss.m_sar_alloc
                0x20003610        0x4 examples/pb_remote/server/CMakeFiles/pb_remote_server_nrf52832_xxAA_s132_6.0.0.dir/__/__/__/mesh/core/src/transport.c.obj
 .bss.m_sar_process_flag
                0x20003614        0x4 examples/pb_remote/server/CMakeFiles/pb_remote_server_nrf52832_xxAA_s132_6.0.0.dir/__/__/__/mesh/core/src/transport.c.obj
 .bss.m_sar_release
                0x20003618        0x4 examples/pb_remote/server/CMakeFiles/pb_remote_server_nrf52832_xxAA_s132_6.0.0.dir/__/__/__/mesh/core/src/transport.c.obj
 .bss.m_sar_session_cache
                0x2000361c       0x40 examples/pb_remote/server/CMakeFiles/pb_remote_server_nrf52832_xxAA_s132_6.0.0.dir/__/__/__/mesh/core/src/transport.c.obj
 .bss.m_sar_session_cache_head
                0x2000365c        0x4 examples/pb_remote/server/CMakeFiles/pb_remote_server_nrf52832_xxAA_s132_6.0.0.dir/__/__/__/mesh/core/src/transport.c.obj
 .bss.m_trs_config
                0x20003660       0x18 examples/pb_remote/server/CMakeFiles/pb_remote_server_nrf52832_xxAA_s132_6.0.0.dir/__/__/__/mesh/core/src/transport.c.obj
 .bss.m_trs_sar_sessions
                0x20003678      0x1b0 examples/pb_remote/server/CMakeFiles/pb_remote_server_nrf52832_xxAA_s132_6.0.0.dir/__/__/__/mesh/core/src/transport.c.obj
 .bss.m_event_handler_state
                0x20003828        0x1 examples/pb_remote/server/CMakeFiles/pb_remote_server_nrf52832_xxAA_s132_6.0.0.dir/__/__/__/mesh/core/src/event.c.obj
 *fill*         0x20003829        0x3 
 .bss.mp_evt_handlers_head
                0x2000382c        0x4 examples/pb_remote/server/CMakeFiles/pb_remote_server_nrf52832_xxAA_s132_6.0.0.dir/__/__/__/mesh/core/src/event.c.obj
 .bss.m_defrag  0x20003830       0x1c examples/pb_remote/server/CMakeFiles/pb_remote_server_nrf52832_xxAA_s132_6.0.0.dir/__/__/__/mesh/core/src/flash_manager_defrag.c.obj
 .bss.m_token   0x2000384c        0x2 examples/pb_remote/server/CMakeFiles/pb_remote_server_nrf52832_xxAA_s132_6.0.0.dir/__/__/__/mesh/core/src/flash_manager_defrag.c.obj
 *fill*         0x2000384e        0x2 
 .bss.mp_recovery_area
                0x20003850        0x4 examples/pb_remote/server/CMakeFiles/pb_remote_server_nrf52832_xxAA_s132_6.0.0.dir/__/__/__/mesh/core/src/flash_manager_defrag.c.obj
 .bss.p_null_ptr.10244
                0x20003854        0x4 examples/pb_remote/server/CMakeFiles/pb_remote_server_nrf52832_xxAA_s132_6.0.0.dir/__/__/__/mesh/core/src/flash_manager_defrag.c.obj
 .bss.m_pool    0x20003858     0x1000 examples/pb_remote/server/CMakeFiles/pb_remote_server_nrf52832_xxAA_s132_6.0.0.dir/__/__/__/mesh/core/src/packet_mgr.c.obj
 .bss.mp_free_head
                0x20004858        0x4 examples/pb_remote/server/CMakeFiles/pb_remote_server_nrf52832_xxAA_s132_6.0.0.dir/__/__/__/mesh/core/src/packet_mgr.c.obj
 .bss.iv_state_set.9926
                0x2000485c        0x1 examples/pb_remote/server/CMakeFiles/pb_remote_server_nrf52832_xxAA_s132_6.0.0.dir/__/__/__/mesh/core/src/net_state.c.obj
 *fill*         0x2000485d        0x3 
 .bss.lock_count.9902
                0x20004860        0x4 examples/pb_remote/server/CMakeFiles/pb_remote_server_nrf52832_xxAA_s132_6.0.0.dir/__/__/__/mesh/core/src/net_state.c.obj
 .bss.m_flash_manager
                0x20004864       0x24 examples/pb_remote/server/CMakeFiles/pb_remote_server_nrf52832_xxAA_s132_6.0.0.dir/__/__/__/mesh/core/src/net_state.c.obj
 .bss.m_iv_update_timer
                0x20004888       0x18 examples/pb_remote/server/CMakeFiles/pb_remote_server_nrf52832_xxAA_s132_6.0.0.dir/__/__/__/mesh/core/src/net_state.c.obj
 .bss.m_mesh_evt_handler
                0x200048a0        0xc examples/pb_remote/server/CMakeFiles/pb_remote_server_nrf52832_xxAA_s132_6.0.0.dir/__/__/__/mesh/core/src/net_state.c.obj
 .bss.m_net_state
                0x200048ac       0x14 examples/pb_remote/server/CMakeFiles/pb_remote_server_nrf52832_xxAA_s132_6.0.0.dir/__/__/__/mesh/core/src/net_state.c.obj
 .bss.m_seqnum_allocation_in_progress
                0x200048c0        0x1 examples/pb_remote/server/CMakeFiles/pb_remote_server_nrf52832_xxAA_s132_6.0.0.dir/__/__/__/mesh/core/src/net_state.c.obj
 .bss.m_test_mode
                0x200048c1        0x1 examples/pb_remote/server/CMakeFiles/pb_remote_server_nrf52832_xxAA_s132_6.0.0.dir/__/__/__/mesh/core/src/net_state.c.obj
 *fill*         0x200048c2        0x2 
 .bss.m_event_flag
                0x200048c4        0x4 examples/pb_remote/server/CMakeFiles/pb_remote_server_nrf52832_xxAA_s132_6.0.0.dir/__/__/__/mesh/core/src/mesh_flash.c.obj
 .bss.m_suspended
                0x200048c8        0x1 examples/pb_remote/server/CMakeFiles/pb_remote_server_nrf52832_xxAA_s132_6.0.0.dir/__/__/__/mesh/core/src/mesh_flash.c.obj
 *fill*         0x200048c9        0x3 
 .bss.m_users   0x200048cc      0x234 examples/pb_remote/server/CMakeFiles/pb_remote_server_nrf52832_xxAA_s132_6.0.0.dir/__/__/__/mesh/core/src/mesh_flash.c.obj
 .bss.m_is_enabled
                0x20004b00        0x1 examples/pb_remote/server/CMakeFiles/pb_remote_server_nrf52832_xxAA_s132_6.0.0.dir/__/__/__/mesh/core/src/nrf_mesh.c.obj
 .bss.m_is_initialized
                0x20004b01        0x1 examples/pb_remote/server/CMakeFiles/pb_remote_server_nrf52832_xxAA_s132_6.0.0.dir/__/__/__/mesh/core/src/nrf_mesh.c.obj
 *fill*         0x20004b02        0x2 
 .bss.m_rx_cb   0x20004b04        0x4 examples/pb_remote/server/CMakeFiles/pb_remote_server_nrf52832_xxAA_s132_6.0.0.dir/__/__/__/mesh/core/src/nrf_mesh.c.obj
 .bss.m_tx_token
                0x20004b08        0x4 examples/pb_remote/server/CMakeFiles/pb_remote_server_nrf52832_xxAA_s132_6.0.0.dir/__/__/__/mesh/core/src/nrf_mesh.c.obj
 .bss.m_event_flag
                0x20004b0c        0x4 examples/pb_remote/server/CMakeFiles/pb_remote_server_nrf52832_xxAA_s132_6.0.0.dir/__/__/__/mesh/core/src/timer_scheduler.c.obj
 .bss.m_scheduler
                0x20004b10       0x10 examples/pb_remote/server/CMakeFiles/pb_remote_server_nrf52832_xxAA_s132_6.0.0.dir/__/__/__/mesh/core/src/timer_scheduler.c.obj
 .bss.m_attributes
                0x20004b20        0x3 examples/pb_remote/server/CMakeFiles/pb_remote_server_nrf52832_xxAA_s132_6.0.0.dir/__/__/__/mesh/core/src/timer.c.obj
 *fill*         0x20004b23        0x1 
 .bss.m_callbacks
                0x20004b24        0xc examples/pb_remote/server/CMakeFiles/pb_remote_server_nrf52832_xxAA_s132_6.0.0.dir/__/__/__/mesh/core/src/timer.c.obj
 .bss.m_is_in_ts
                0x20004b30        0x1 examples/pb_remote/server/CMakeFiles/pb_remote_server_nrf52832_xxAA_s132_6.0.0.dir/__/__/__/mesh/core/src/timer.c.obj
 *fill*         0x20004b31        0x3 
 .bss.m_reference_time
                0x20004b34        0x4 examples/pb_remote/server/CMakeFiles/pb_remote_server_nrf52832_xxAA_s132_6.0.0.dir/__/__/__/mesh/core/src/timer.c.obj
 .bss.m_timeouts
                0x20004b38        0xc examples/pb_remote/server/CMakeFiles/pb_remote_server_nrf52832_xxAA_s132_6.0.0.dir/__/__/__/mesh/core/src/timer.c.obj
 .bss.m_timer_mut
                0x20004b44        0x4 examples/pb_remote/server/CMakeFiles/pb_remote_server_nrf52832_xxAA_s132_6.0.0.dir/__/__/__/mesh/core/src/timer.c.obj
 .bss.m_ts_end_time
                0x20004b48        0x4 examples/pb_remote/server/CMakeFiles/pb_remote_server_nrf52832_xxAA_s132_6.0.0.dir/__/__/__/mesh/core/src/timer.c.obj
 .bss.mp_ppi_tasks
                0x20004b4c        0xc examples/pb_remote/server/CMakeFiles/pb_remote_server_nrf52832_xxAA_s132_6.0.0.dir/__/__/__/mesh/core/src/timer.c.obj
 .bss.m_current_time
                0x20004b58        0x4 examples/pb_remote/server/CMakeFiles/pb_remote_server_nrf52832_xxAA_s132_6.0.0.dir/__/__/__/mesh/core/src/ticker.c.obj
 .bss.m_timer   0x20004b5c       0x18 examples/pb_remote/server/CMakeFiles/pb_remote_server_nrf52832_xxAA_s132_6.0.0.dir/__/__/__/mesh/core/src/ticker.c.obj
 .bss.m_current_timeslot
                0x20004b74       0x1c examples/pb_remote/server/CMakeFiles/pb_remote_server_nrf52832_xxAA_s132_6.0.0.dir/__/__/__/mesh/core/src/timeslot.c.obj
 .bss.m_lfclk_ppm
                0x20004b90        0x4 examples/pb_remote/server/CMakeFiles/pb_remote_server_nrf52832_xxAA_s132_6.0.0.dir/__/__/__/mesh/core/src/timeslot.c.obj
 .bss.m_radio_request_earliest
                0x20004b94       0x10 examples/pb_remote/server/CMakeFiles/pb_remote_server_nrf52832_xxAA_s132_6.0.0.dir/__/__/__/mesh/core/src/timeslot.c.obj
 .bss.m_state_lock
                0x20004ba4        0x1 examples/pb_remote/server/CMakeFiles/pb_remote_server_nrf52832_xxAA_s132_6.0.0.dir/__/__/__/mesh/core/src/timeslot.c.obj
 .bss.m_timeslot_forced_command
                0x20004ba5        0x1 examples/pb_remote/server/CMakeFiles/pb_remote_server_nrf52832_xxAA_s132_6.0.0.dir/__/__/__/mesh/core/src/timeslot.c.obj
 *fill*         0x20004ba6        0x2 
 .bss.s_last_rtc_value.9304
                0x20004ba8        0x8 examples/pb_remote/server/CMakeFiles/pb_remote_server_nrf52832_xxAA_s132_6.0.0.dir/__/__/__/mesh/core/src/timeslot.c.obj
 .bss.m_bearer_event_fifo
                0x20004bb0       0x14 examples/pb_remote/server/CMakeFiles/pb_remote_server_nrf52832_xxAA_s132_6.0.0.dir/__/__/__/mesh/core/src/bearer_event.c.obj
 .bss.m_bearer_event_fifo_buffer
                0x20004bc4      0x100 examples/pb_remote/server/CMakeFiles/pb_remote_server_nrf52832_xxAA_s132_6.0.0.dir/__/__/__/mesh/core/src/bearer_event.c.obj
 .bss.m_critical
                0x20004cc4        0x4 examples/pb_remote/server/CMakeFiles/pb_remote_server_nrf52832_xxAA_s132_6.0.0.dir/__/__/__/mesh/core/src/bearer_event.c.obj
 .bss.m_flag_count
                0x20004cc8        0x4 examples/pb_remote/server/CMakeFiles/pb_remote_server_nrf52832_xxAA_s132_6.0.0.dir/__/__/__/mesh/core/src/bearer_event.c.obj
 .bss.m_flag_event_callbacks
                0x20004ccc       0x24 examples/pb_remote/server/CMakeFiles/pb_remote_server_nrf52832_xxAA_s132_6.0.0.dir/__/__/__/mesh/core/src/bearer_event.c.obj
 .bss.m_flags   0x20004cf0        0x4 examples/pb_remote/server/CMakeFiles/pb_remote_server_nrf52832_xxAA_s132_6.0.0.dir/__/__/__/mesh/core/src/bearer_event.c.obj
 .bss.m_irq_priority
                0x20004cf4        0x1 examples/pb_remote/server/CMakeFiles/pb_remote_server_nrf52832_xxAA_s132_6.0.0.dir/__/__/__/mesh/core/src/bearer_event.c.obj
 *fill*         0x20004cf5        0x3 
 .bss.m_sequential_event_queue
                0x20004cf8        0x8 examples/pb_remote/server/CMakeFiles/pb_remote_server_nrf52832_xxAA_s132_6.0.0.dir/__/__/__/mesh/core/src/bearer_event.c.obj
 .bss.s_recursion_guard.9432
                0x20004d00        0x1 examples/pb_remote/server/CMakeFiles/pb_remote_server_nrf52832_xxAA_s132_6.0.0.dir/__/__/__/mesh/core/src/bearer_event.c.obj
 *fill*         0x20004d01        0x3 
 .bss.m_relay_check_cb
                0x20004d04        0x4 examples/pb_remote/server/CMakeFiles/pb_remote_server_nrf52832_xxAA_s132_6.0.0.dir/__/__/__/mesh/core/src/network.c.obj
 .bss.m_relay_enable
                0x20004d08        0x1 examples/pb_remote/server/CMakeFiles/pb_remote_server_nrf52832_xxAA_s132_6.0.0.dir/__/__/__/mesh/core/src/network.c.obj
 *fill*         0x20004d09        0x3 
 .bss.m_action_queue
                0x20004d0c        0xc examples/pb_remote/server/CMakeFiles/pb_remote_server_nrf52832_xxAA_s132_6.0.0.dir/__/__/__/mesh/core/src/flash_manager.c.obj
 .bss.m_action_queue_buffer
                0x20004d18      0x104 examples/pb_remote/server/CMakeFiles/pb_remote_server_nrf52832_xxAA_s132_6.0.0.dir/__/__/__/mesh/core/src/flash_manager.c.obj
 .bss.m_action_state
                0x20004e1c        0x1 examples/pb_remote/server/CMakeFiles/pb_remote_server_nrf52832_xxAA_s132_6.0.0.dir/__/__/__/mesh/core/src/flash_manager.c.obj
 *fill*         0x20004e1d        0x3 
 .bss.m_memory_listener_queue
                0x20004e20        0x8 examples/pb_remote/server/CMakeFiles/pb_remote_server_nrf52832_xxAA_s132_6.0.0.dir/__/__/__/mesh/core/src/flash_manager.c.obj
 .bss.m_processing_flag
                0x20004e28        0x4 examples/pb_remote/server/CMakeFiles/pb_remote_server_nrf52832_xxAA_s132_6.0.0.dir/__/__/__/mesh/core/src/flash_manager.c.obj
 .bss.m_queue_empty_cb
                0x20004e2c        0x4 examples/pb_remote/server/CMakeFiles/pb_remote_server_nrf52832_xxAA_s132_6.0.0.dir/__/__/__/mesh/core/src/flash_manager.c.obj
 .bss.m_state   0x20004e30        0x1 examples/pb_remote/server/CMakeFiles/pb_remote_server_nrf52832_xxAA_s132_6.0.0.dir/__/__/__/mesh/core/src/flash_manager.c.obj
 *fill*         0x20004e31        0x1 
 .bss.m_token   0x20004e32        0x2 examples/pb_remote/server/CMakeFiles/pb_remote_server_nrf52832_xxAA_s132_6.0.0.dir/__/__/__/mesh/core/src/flash_manager.c.obj
 .bss.p_current.11152
                0x20004e34        0x4 examples/pb_remote/server/CMakeFiles/pb_remote_server_nrf52832_xxAA_s132_6.0.0.dir/__/__/__/mesh/core/src/flash_manager.c.obj
 .bss.result.11153
                0x20004e38        0x1 examples/pb_remote/server/CMakeFiles/pb_remote_server_nrf52832_xxAA_s132_6.0.0.dir/__/__/__/mesh/core/src/flash_manager.c.obj
 .bss.m_cache_index
                0x20004e39        0x1 examples/pb_remote/server/CMakeFiles/pb_remote_server_nrf52832_xxAA_s132_6.0.0.dir/__/__/__/mesh/core/src/replay_cache.c.obj
 *fill*         0x20004e3a        0x2 
 .bss.m_replay_cache
                0x20004e3c      0x200 examples/pb_remote/server/CMakeFiles/pb_remote_server_nrf52832_xxAA_s132_6.0.0.dir/__/__/__/mesh/core/src/replay_cache.c.obj
 .bss.m_bearer_count
                0x2000503c        0x1 examples/pb_remote/server/CMakeFiles/pb_remote_server_nrf52832_xxAA_s132_6.0.0.dir/__/__/__/mesh/core/src/core_tx.c.obj
 *fill*         0x2000503d        0x3 
 .bss.m_tx_complete_callback
                0x20005040        0x4 examples/pb_remote/server/CMakeFiles/pb_remote_server_nrf52832_xxAA_s132_6.0.0.dir/__/__/__/mesh/core/src/core_tx.c.obj
 .bss.mp_bearers
                0x20005044        0x4 examples/pb_remote/server/CMakeFiles/pb_remote_server_nrf52832_xxAA_s132_6.0.0.dir/__/__/__/mesh/core/src/core_tx.c.obj
 .bss.m_hb_core_evt_handler
                0x20005048        0xc examples/pb_remote/server/CMakeFiles/pb_remote_server_nrf52832_xxAA_s132_6.0.0.dir/__/__/__/mesh/core/src/heartbeat.c.obj
 .bss.m_hb_pending_feat_msg
                0x20005054        0x1 examples/pb_remote/server/CMakeFiles/pb_remote_server_nrf52832_xxAA_s132_6.0.0.dir/__/__/__/mesh/core/src/heartbeat.c.obj
 .bss.m_hb_pending_pub_msg
                0x20005055        0x1 examples/pb_remote/server/CMakeFiles/pb_remote_server_nrf52832_xxAA_s132_6.0.0.dir/__/__/__/mesh/core/src/heartbeat.c.obj
 .bss.m_heartbeat_init_done
                0x20005056        0x1 examples/pb_remote/server/CMakeFiles/pb_remote_server_nrf52832_xxAA_s132_6.0.0.dir/__/__/__/mesh/core/src/heartbeat.c.obj
 *fill*         0x20005057        0x1 
 .bss.m_heartbeat_subscription
                0x20005058       0x10 examples/pb_remote/server/CMakeFiles/pb_remote_server_nrf52832_xxAA_s132_6.0.0.dir/__/__/__/mesh/core/src/heartbeat.c.obj
 .bss.m_publication_count_decrement_cb
                0x20005068        0x4 examples/pb_remote/server/CMakeFiles/pb_remote_server_nrf52832_xxAA_s132_6.0.0.dir/__/__/__/mesh/core/src/heartbeat.c.obj
 .bss.m_publication_get_cb
                0x2000506c        0x4 examples/pb_remote/server/CMakeFiles/pb_remote_server_nrf52832_xxAA_s132_6.0.0.dir/__/__/__/mesh/core/src/heartbeat.c.obj
 .bss.m_publication_timer
                0x20005070       0x1c examples/pb_remote/server/CMakeFiles/pb_remote_server_nrf52832_xxAA_s132_6.0.0.dir/__/__/__/mesh/core/src/heartbeat.c.obj
 .bss.m_subscription_timer
                0x2000508c       0x18 examples/pb_remote/server/CMakeFiles/pb_remote_server_nrf52832_xxAA_s132_6.0.0.dir/__/__/__/mesh/core/src/heartbeat.c.obj
 .bss.m_adv     0x200050a4       0x9c examples/pb_remote/server/CMakeFiles/pb_remote_server_nrf52832_xxAA_s132_6.0.0.dir/__/__/__/mesh/core/src/net_beacon.c.obj
 .bss.m_adv_buf
                0x20005140       0x34 examples/pb_remote/server/CMakeFiles/pb_remote_server_nrf52832_xxAA_s132_6.0.0.dir/__/__/__/mesh/core/src/net_beacon.c.obj
 .bss.m_beacon_salt
                0x20005174       0x10 examples/pb_remote/server/CMakeFiles/pb_remote_server_nrf52832_xxAA_s132_6.0.0.dir/__/__/__/mesh/core/src/net_beacon.c.obj
 .bss.m_enabled
                0x20005184        0x1 examples/pb_remote/server/CMakeFiles/pb_remote_server_nrf52832_xxAA_s132_6.0.0.dir/__/__/__/mesh/core/src/net_beacon.c.obj
 *fill*         0x20005185        0x3 
 .bss.m_tx_timer
                0x20005188       0x18 examples/pb_remote/server/CMakeFiles/pb_remote_server_nrf52832_xxAA_s132_6.0.0.dir/__/__/__/mesh/core/src/net_beacon.c.obj
 .bss.mp_beacon_info
                0x200051a0        0x4 examples/pb_remote/server/CMakeFiles/pb_remote_server_nrf52832_xxAA_s132_6.0.0.dir/__/__/__/mesh/core/src/net_beacon.c.obj
 .bss.m_bearer  0x200051a4        0xc examples/pb_remote/server/CMakeFiles/pb_remote_server_nrf52832_xxAA_s132_6.0.0.dir/__/__/__/mesh/core/src/core_tx_adv.c.obj
 .bss.m_bearer_roles
                0x200051b0      0x140 examples/pb_remote/server/CMakeFiles/pb_remote_server_nrf52832_xxAA_s132_6.0.0.dir/__/__/__/mesh/core/src/core_tx_adv.c.obj
 .bss.m_current_alloc
                0x200052f0        0x8 examples/pb_remote/server/CMakeFiles/pb_remote_server_nrf52832_xxAA_s132_6.0.0.dir/__/__/__/mesh/core/src/core_tx_adv.c.obj
 .bss.m_originator_adv_packet_buffer
                0x200052f8      0x100 examples/pb_remote/server/CMakeFiles/pb_remote_server_nrf52832_xxAA_s132_6.0.0.dir/__/__/__/mesh/core/src/core_tx_adv.c.obj
 .bss.m_relay_adv_packet_buffer
                0x200053f8       0x80 examples/pb_remote/server/CMakeFiles/pb_remote_server_nrf52832_xxAA_s132_6.0.0.dir/__/__/__/mesh/core/src/core_tx_adv.c.obj
 .bss.m_subscribers
                0x20005478        0x4 examples/pb_remote/server/CMakeFiles/pb_remote_server_nrf52832_xxAA_s132_6.0.0.dir/__/__/__/mesh/bearer/src/ad_listener.c.obj
 .bss.m_adtype_filter
                0x2000547c       0x38 examples/pb_remote/server/CMakeFiles/pb_remote_server_nrf52832_xxAA_s132_6.0.0.dir/__/__/__/mesh/bearer/src/ad_type_filter.c.obj
 .bss.m_adv_prng
                0x200054b4       0x10 examples/pb_remote/server/CMakeFiles/pb_remote_server_nrf52832_xxAA_s132_6.0.0.dir/__/__/__/mesh/bearer/src/advertiser.c.obj
 .bss.m_action_ended
                0x200054c4        0x1 examples/pb_remote/server/CMakeFiles/pb_remote_server_nrf52832_xxAA_s132_6.0.0.dir/__/__/__/mesh/bearer/src/bearer_handler.c.obj
 *fill*         0x200054c5        0x3 
 .bss.m_action_queue
                0x200054c8        0x8 examples/pb_remote/server/CMakeFiles/pb_remote_server_nrf52832_xxAA_s132_6.0.0.dir/__/__/__/mesh/bearer/src/bearer_handler.c.obj
 .bss.m_end_time
                0x200054d0        0x4 examples/pb_remote/server/CMakeFiles/pb_remote_server_nrf52832_xxAA_s132_6.0.0.dir/__/__/__/mesh/bearer/src/bearer_handler.c.obj
 .bss.m_in_callback
                0x200054d4        0x1 examples/pb_remote/server/CMakeFiles/pb_remote_server_nrf52832_xxAA_s132_6.0.0.dir/__/__/__/mesh/bearer/src/bearer_handler.c.obj
 .bss.m_scanner_is_active
                0x200054d5        0x1 examples/pb_remote/server/CMakeFiles/pb_remote_server_nrf52832_xxAA_s132_6.0.0.dir/__/__/__/mesh/bearer/src/bearer_handler.c.obj
 .bss.m_stopped
                0x200054d6        0x1 examples/pb_remote/server/CMakeFiles/pb_remote_server_nrf52832_xxAA_s132_6.0.0.dir/__/__/__/mesh/bearer/src/bearer_handler.c.obj
 *fill*         0x200054d7        0x1 
 .bss.mp_action
                0x200054d8        0x4 examples/pb_remote/server/CMakeFiles/pb_remote_server_nrf52832_xxAA_s132_6.0.0.dir/__/__/__/mesh/bearer/src/bearer_handler.c.obj
 .bss.m_action_start_time
                0x200054dc        0x4 examples/pb_remote/server/CMakeFiles/pb_remote_server_nrf52832_xxAA_s132_6.0.0.dir/__/__/__/mesh/bearer/src/broadcast.c.obj
 .bss.m_next_channel_index
                0x200054e0        0x1 examples/pb_remote/server/CMakeFiles/pb_remote_server_nrf52832_xxAA_s132_6.0.0.dir/__/__/__/mesh/bearer/src/broadcast.c.obj
 *fill*         0x200054e1        0x3 
 .bss.m_accepted_amount
                0x200054e4        0x4 examples/pb_remote/server/CMakeFiles/pb_remote_server_nrf52832_xxAA_s132_6.0.0.dir/__/__/__/mesh/bearer/src/filter_engine.c.obj
 .bss.m_filter_list_head
                0x200054e8        0x4 examples/pb_remote/server/CMakeFiles/pb_remote_server_nrf52832_xxAA_s132_6.0.0.dir/__/__/__/mesh/bearer/src/filter_engine.c.obj
 .bss.m_scanner
                0x200054ec      0x298 examples/pb_remote/server/CMakeFiles/pb_remote_server_nrf52832_xxAA_s132_6.0.0.dir/__/__/__/mesh/bearer/src/scanner.c.obj
 .bss.m_gpiote  0x20005784        0x6 examples/pb_remote/server/CMakeFiles/pb_remote_server_nrf52832_xxAA_s132_6.0.0.dir/__/__/__/mesh/bearer/src/mesh_pa_lna.c.obj
 *fill*         0x2000578a        0x2 
 .bss.m_event_handler
                0x2000578c        0x4 examples/pb_remote/server/CMakeFiles/pb_remote_server_nrf52832_xxAA_s132_6.0.0.dir/__/__/__/mesh/prov/src/prov_beacon.c.obj
 .bss.m_offload_ecdh
                0x20005790        0x1 examples/pb_remote/server/CMakeFiles/pb_remote_server_nrf52832_xxAA_s132_6.0.0.dir/__/__/__/mesh/prov/src/prov_utils.c.obj
 *fill*         0x20005791        0x3 
 .bss.mp_bearer_head
                0x20005794        0x4 examples/pb_remote/server/CMakeFiles/pb_remote_server_nrf52832_xxAA_s132_6.0.0.dir/__/__/__/mesh/prov/src/prov_bearer_adv.c.obj
 .bss.m_is_interrupting
                0x20005798        0x1 examples/pb_remote/server/CMakeFiles/pb_remote_server_nrf52832_xxAA_s132_6.0.0.dir/__/__/__/models/pb_remote/src/pb_remote_server.c.obj
 .bss.m_packet  0x20005799       0x41 examples/pb_remote/server/CMakeFiles/pb_remote_server_nrf52832_xxAA_s132_6.0.0.dir/__/__/__/models/pb_remote/src/pb_remote_server.c.obj
 *fill*         0x200057da        0x2 
 .bss.m_pbr_server_alt_event_queue
                0x200057dc       0x14 examples/pb_remote/server/CMakeFiles/pb_remote_server_nrf52832_xxAA_s132_6.0.0.dir/__/__/__/models/pb_remote/src/pb_remote_server.c.obj
 .bss.m_pbr_server_alt_event_queue_buffer
                0x200057f0       0x90 examples/pb_remote/server/CMakeFiles/pb_remote_server_nrf52832_xxAA_s132_6.0.0.dir/__/__/__/models/pb_remote/src/pb_remote_server.c.obj
 .bss.m_pbr_server_event_queue
                0x20005880       0x14 examples/pb_remote/server/CMakeFiles/pb_remote_server_nrf52832_xxAA_s132_6.0.0.dir/__/__/__/models/pb_remote/src/pb_remote_server.c.obj
 .bss.m_pbr_server_event_queue_buffer
                0x20005894       0x90 examples/pb_remote/server/CMakeFiles/pb_remote_server_nrf52832_xxAA_s132_6.0.0.dir/__/__/__/models/pb_remote/src/pb_remote_server.c.obj
 .bss.m_uuid_list
                0x20005924       0x33 examples/pb_remote/server/CMakeFiles/pb_remote_server_nrf52832_xxAA_s132_6.0.0.dir/__/__/__/models/pb_remote/src/pb_remote_server.c.obj
 *fill*         0x20005957        0x1 
 .bss.mp_pb_remote_server_model
                0x20005958        0x4 examples/pb_remote/server/CMakeFiles/pb_remote_server_nrf52832_xxAA_s132_6.0.0.dir/__/__/__/models/pb_remote/src/pb_remote_server.c.obj
 .bss.m_publish_timer
                0x2000595c       0x18 examples/pb_remote/server/CMakeFiles/pb_remote_server_nrf52832_xxAA_s132_6.0.0.dir/__/__/__/mesh/access/src/access_publish.c.obj
 .bss.m_publish_timer_counter
                0x20005974        0x4 examples/pb_remote/server/CMakeFiles/pb_remote_server_nrf52832_xxAA_s132_6.0.0.dir/__/__/__/mesh/access/src/access_publish.c.obj
 .bss.m_publish_timer_running
                0x20005978        0x1 examples/pb_remote/server/CMakeFiles/pb_remote_server_nrf52832_xxAA_s132_6.0.0.dir/__/__/__/mesh/access/src/access_publish.c.obj
 .bss.m_timer_resolution
                0x20005979        0x1 examples/pb_remote/server/CMakeFiles/pb_remote_server_nrf52832_xxAA_s132_6.0.0.dir/__/__/__/mesh/access/src/access_publish.c.obj
 *fill*         0x2000597a        0x2 
 .bss.mp_publication_list
                0x2000597c        0x4 examples/pb_remote/server/CMakeFiles/pb_remote_server_nrf52832_xxAA_s132_6.0.0.dir/__/__/__/mesh/access/src/access_publish.c.obj
 .bss.m_element_pool
                0x20005980        0x6 examples/pb_remote/server/CMakeFiles/pb_remote_server_nrf52832_xxAA_s132_6.0.0.dir/__/__/__/mesh/access/src/access.c.obj
 *fill*         0x20005986        0x2 
 .bss.m_evt_handler
                0x20005988        0xc examples/pb_remote/server/CMakeFiles/pb_remote_server_nrf52832_xxAA_s132_6.0.0.dir/__/__/__/mesh/access/src/access.c.obj
 .bss.m_flash_manager
                0x20005994       0x24 examples/pb_remote/server/CMakeFiles/pb_remote_server_nrf52832_xxAA_s132_6.0.0.dir/__/__/__/mesh/access/src/access.c.obj
 .bss.m_flash_not_ready
                0x200059b8        0x1 examples/pb_remote/server/CMakeFiles/pb_remote_server_nrf52832_xxAA_s132_6.0.0.dir/__/__/__/mesh/access/src/access.c.obj
 .bss.m_metadata_stored
                0x200059b9        0x1 examples/pb_remote/server/CMakeFiles/pb_remote_server_nrf52832_xxAA_s132_6.0.0.dir/__/__/__/mesh/access/src/access.c.obj
 *fill*         0x200059ba        0x2 
 .bss.m_model_pool
                0x200059bc       0x9c examples/pb_remote/server/CMakeFiles/pb_remote_server_nrf52832_xxAA_s132_6.0.0.dir/__/__/__/mesh/access/src/access.c.obj
 .bss.m_subscription_list_pool
                0x20005a58       0x18 examples/pb_remote/server/CMakeFiles/pb_remote_server_nrf52832_xxAA_s132_6.0.0.dir/__/__/__/mesh/access/src/access.c.obj
 .bss.m_reliable
                0x20005a70       0xa0 examples/pb_remote/server/CMakeFiles/pb_remote_server_nrf52832_xxAA_s132_6.0.0.dir/__/__/__/mesh/access/src/access_reliable.c.obj
 .bss.m_access_loopback_flag
                0x20005b10        0x4 examples/pb_remote/server/CMakeFiles/pb_remote_server_nrf52832_xxAA_s132_6.0.0.dir/__/__/__/mesh/access/src/access_loopback.c.obj
 .bss.mp_loopback_list_head
                0x20005b14        0x4 examples/pb_remote/server/CMakeFiles/pb_remote_server_nrf52832_xxAA_s132_6.0.0.dir/__/__/__/mesh/access/src/access_loopback.c.obj
 .bss.m_addr_nonvirtual_allocated
                0x20005b18        0x4 examples/pb_remote/server/CMakeFiles/pb_remote_server_nrf52832_xxAA_s132_6.0.0.dir/__/__/__/mesh/access/src/device_state_manager.c.obj
 .bss.m_addr_nonvirtual_needs_flashing
                0x20005b1c        0x4 examples/pb_remote/server/CMakeFiles/pb_remote_server_nrf52832_xxAA_s132_6.0.0.dir/__/__/__/mesh/access/src/device_state_manager.c.obj
 .bss.m_addr_unicast_allocated
                0x20005b20        0x4 examples/pb_remote/server/CMakeFiles/pb_remote_server_nrf52832_xxAA_s132_6.0.0.dir/__/__/__/mesh/access/src/device_state_manager.c.obj
 .bss.m_addr_unicast_needs_flashing
                0x20005b24        0x4 examples/pb_remote/server/CMakeFiles/pb_remote_server_nrf52832_xxAA_s132_6.0.0.dir/__/__/__/mesh/access/src/device_state_manager.c.obj
 .bss.m_addr_virtual_allocated
                0x20005b28        0x4 examples/pb_remote/server/CMakeFiles/pb_remote_server_nrf52832_xxAA_s132_6.0.0.dir/__/__/__/mesh/access/src/device_state_manager.c.obj
 .bss.m_addr_virtual_needs_flashing
                0x20005b2c        0x4 examples/pb_remote/server/CMakeFiles/pb_remote_server_nrf52832_xxAA_s132_6.0.0.dir/__/__/__/mesh/access/src/device_state_manager.c.obj
 .bss.m_addresses
                0x20005b30       0x10 examples/pb_remote/server/CMakeFiles/pb_remote_server_nrf52832_xxAA_s132_6.0.0.dir/__/__/__/mesh/access/src/device_state_manager.c.obj
 .bss.m_appkey_allocated
                0x20005b40        0x4 examples/pb_remote/server/CMakeFiles/pb_remote_server_nrf52832_xxAA_s132_6.0.0.dir/__/__/__/mesh/access/src/device_state_manager.c.obj
 .bss.m_appkey_needs_flashing
                0x20005b44        0x4 examples/pb_remote/server/CMakeFiles/pb_remote_server_nrf52832_xxAA_s132_6.0.0.dir/__/__/__/mesh/access/src/device_state_manager.c.obj
 .bss.m_appkeys
                0x20005b48       0x2a examples/pb_remote/server/CMakeFiles/pb_remote_server_nrf52832_xxAA_s132_6.0.0.dir/__/__/__/mesh/access/src/device_state_manager.c.obj
 *fill*         0x20005b72        0x2 
 .bss.m_devkey_allocated
                0x20005b74        0x4 examples/pb_remote/server/CMakeFiles/pb_remote_server_nrf52832_xxAA_s132_6.0.0.dir/__/__/__/mesh/access/src/device_state_manager.c.obj
 .bss.m_devkey_needs_flashing
                0x20005b78        0x4 examples/pb_remote/server/CMakeFiles/pb_remote_server_nrf52832_xxAA_s132_6.0.0.dir/__/__/__/mesh/access/src/device_state_manager.c.obj
 .bss.m_devkeys
                0x20005b7c       0x16 examples/pb_remote/server/CMakeFiles/pb_remote_server_nrf52832_xxAA_s132_6.0.0.dir/__/__/__/mesh/access/src/device_state_manager.c.obj
 .bss.m_flash_is_available
                0x20005b92        0x1 examples/pb_remote/server/CMakeFiles/pb_remote_server_nrf52832_xxAA_s132_6.0.0.dir/__/__/__/mesh/access/src/device_state_manager.c.obj
 *fill*         0x20005b93        0x1 
 .bss.m_flash_manager
                0x20005b94       0x24 examples/pb_remote/server/CMakeFiles/pb_remote_server_nrf52832_xxAA_s132_6.0.0.dir/__/__/__/mesh/access/src/device_state_manager.c.obj
 .bss.m_flash_mem_listener_update_all
                0x20005bb8       0x10 examples/pb_remote/server/CMakeFiles/pb_remote_server_nrf52832_xxAA_s132_6.0.0.dir/__/__/__/mesh/access/src/device_state_manager.c.obj
 .bss.m_has_primary_subnet
                0x20005bc8        0x1 examples/pb_remote/server/CMakeFiles/pb_remote_server_nrf52832_xxAA_s132_6.0.0.dir/__/__/__/mesh/access/src/device_state_manager.c.obj
 *fill*         0x20005bc9        0x1 
 .bss.m_local_unicast_addr
                0x20005bca        0x4 examples/pb_remote/server/CMakeFiles/pb_remote_server_nrf52832_xxAA_s132_6.0.0.dir/__/__/__/mesh/access/src/device_state_manager.c.obj
 *fill*         0x20005bce        0x2 
 .bss.m_mesh_evt_handler
                0x20005bd0        0xc examples/pb_remote/server/CMakeFiles/pb_remote_server_nrf52832_xxAA_s132_6.0.0.dir/__/__/__/mesh/access/src/device_state_manager.c.obj
 .bss.m_subnet_allocated
                0x20005bdc        0x4 examples/pb_remote/server/CMakeFiles/pb_remote_server_nrf52832_xxAA_s132_6.0.0.dir/__/__/__/mesh/access/src/device_state_manager.c.obj
 .bss.m_subnet_needs_flashing
                0x20005be0        0x4 examples/pb_remote/server/CMakeFiles/pb_remote_server_nrf52832_xxAA_s132_6.0.0.dir/__/__/__/mesh/access/src/device_state_manager.c.obj
 .bss.m_subnets
                0x20005be4       0xa8 examples/pb_remote/server/CMakeFiles/pb_remote_server_nrf52832_xxAA_s132_6.0.0.dir/__/__/__/mesh/access/src/device_state_manager.c.obj
 .bss.m_virtual_addresses
                0x20005c8c       0x14 examples/pb_remote/server/CMakeFiles/pb_remote_server_nrf52832_xxAA_s132_6.0.0.dir/__/__/__/mesh/access/src/device_state_manager.c.obj
 .bss.m_evt_cb  0x20005ca0        0x4 examples/pb_remote/server/CMakeFiles/pb_remote_server_nrf52832_xxAA_s132_6.0.0.dir/__/__/__/models/config/src/config_server.c.obj
 .bss.m_heartbeat_publication
                0x20005ca4       0x14 examples/pb_remote/server/CMakeFiles/pb_remote_server_nrf52832_xxAA_s132_6.0.0.dir/__/__/__/models/config/src/config_server.c.obj
 .bss.m_node_reset_pending
                0x20005cb8        0x1 examples/pb_remote/server/CMakeFiles/pb_remote_server_nrf52832_xxAA_s132_6.0.0.dir/__/__/__/models/config/src/config_server.c.obj
 *fill*         0x20005cb9        0x3 
 .bss.m_reset_token
                0x20005cbc        0x4 examples/pb_remote/server/CMakeFiles/pb_remote_server_nrf52832_xxAA_s132_6.0.0.dir/__/__/__/models/config/src/config_server.c.obj
 .bss.m_attention_timer
                0x20005cc0       0x18 examples/pb_remote/server/CMakeFiles/pb_remote_server_nrf52832_xxAA_s132_6.0.0.dir/__/__/__/models/health/src/health_server.c.obj
 .bss.mp_attention_list
                0x20005cd8        0x4 examples/pb_remote/server/CMakeFiles/pb_remote_server_nrf52832_xxAA_s132_6.0.0.dir/__/__/__/models/health/src/health_server.c.obj
 .bss.m_op_queue
                0x20005cdc      0x10c examples/pb_remote/server/CMakeFiles/pb_remote_server_nrf52832_xxAA_s132_6.0.0.dir/C_/b/nRF5_SDK_15.0.0_a53641a/components/libraries/timer/app_timer.c.obj
 .bss.m_rtc1_reset
                0x20005de8        0x1 examples/pb_remote/server/CMakeFiles/pb_remote_server_nrf52832_xxAA_s132_6.0.0.dir/C_/b/nRF5_SDK_15.0.0_a53641a/components/libraries/timer/app_timer.c.obj
 .bss.m_rtc1_running
                0x20005de9        0x1 examples/pb_remote/server/CMakeFiles/pb_remote_server_nrf52832_xxAA_s132_6.0.0.dir/C_/b/nRF5_SDK_15.0.0_a53641a/components/libraries/timer/app_timer.c.obj
 *fill*         0x20005dea        0x2 
 .bss.m_ticks_elapsed
                0x20005dec        0x8 examples/pb_remote/server/CMakeFiles/pb_remote_server_nrf52832_xxAA_s132_6.0.0.dir/C_/b/nRF5_SDK_15.0.0_a53641a/components/libraries/timer/app_timer.c.obj
 .bss.m_ticks_elapsed_q_read_ind
                0x20005df4        0x1 examples/pb_remote/server/CMakeFiles/pb_remote_server_nrf52832_xxAA_s132_6.0.0.dir/C_/b/nRF5_SDK_15.0.0_a53641a/components/libraries/timer/app_timer.c.obj
 .bss.m_ticks_elapsed_q_write_ind
                0x20005df5        0x1 examples/pb_remote/server/CMakeFiles/pb_remote_server_nrf52832_xxAA_s132_6.0.0.dir/C_/b/nRF5_SDK_15.0.0_a53641a/components/libraries/timer/app_timer.c.obj
 *fill*         0x20005df6        0x2 
 .bss.m_ticks_latest
                0x20005df8        0x4 examples/pb_remote/server/CMakeFiles/pb_remote_server_nrf52832_xxAA_s132_6.0.0.dir/C_/b/nRF5_SDK_15.0.0_a53641a/components/libraries/timer/app_timer.c.obj
 .bss.mp_timer_id_head
                0x20005dfc        0x4 examples/pb_remote/server/CMakeFiles/pb_remote_server_nrf52832_xxAA_s132_6.0.0.dir/C_/b/nRF5_SDK_15.0.0_a53641a/components/libraries/timer/app_timer.c.obj
 .bss._acDownBuffer
                0x20005e00       0x80 external/rtt/librtt_nrf52832_xxAA.a(SEGGER_RTT.c.obj)
 .bss._acUpBuffer
                0x20005e80      0x400 external/rtt/librtt_nrf52832_xxAA.a(SEGGER_RTT.c.obj)
 .bss.__malloc_free_list
                0x20006280        0x4 c:/mesh/arm_gcc/bin/../lib/gcc/arm-none-eabi/6.3.1/../../../../arm-none-eabi/lib/thumb/v7e-m/fpv4-sp/hard\libg_nano.a(lib_a-nano-mallocr.o)
                0x20006280                __malloc_free_list
 .bss.__malloc_sbrk_start
                0x20006284        0x4 c:/mesh/arm_gcc/bin/../lib/gcc/arm-none-eabi/6.3.1/../../../../arm-none-eabi/lib/thumb/v7e-m/fpv4-sp/hard\libg_nano.a(lib_a-nano-mallocr.o)
                0x20006284                __malloc_sbrk_start
 .bss.heap_end.5239
                0x20006288        0x4 c:/mesh/arm_gcc/bin/../lib/gcc/arm-none-eabi/6.3.1/../../../../arm-none-eabi/lib/thumb/v7e-m/fpv4-sp/hard\libnosys.a(sbrk.o)
 *(COMMON)
 COMMON         0x2000628c       0x24 examples/pb_remote/server/CMakeFiles/pb_remote_server_nrf52832_xxAA_s132_6.0.0.dir/__/__/__/mesh/core/src/core_tx.c.obj
                0x2000628c                m_packet
 COMMON         0x200062b0        0xc examples/pb_remote/server/CMakeFiles/pb_remote_server_nrf52832_xxAA_s132_6.0.0.dir/C_/b/nRF5_SDK_15.0.0_a53641a/components/libraries/util/app_util_platform.c.obj
                0x200062b0                nrf_nvic_state
 COMMON         0x200062bc       0x78 external/rtt/librtt_nrf52832_xxAA.a(SEGGER_RTT.c.obj)
                0x200062bc                _SEGGER_RTT
 COMMON         0x20006334        0x4 c:/mesh/arm_gcc/bin/../lib/gcc/arm-none-eabi/6.3.1/../../../../arm-none-eabi/lib/thumb/v7e-m/fpv4-sp/hard\libg_nano.a(lib_a-reent.o)
                0x20006334                errno
                0x20006338                . = ALIGN (0x4)
                0x20006338                __bss_end__ = .

.heap           0x20006338     0x2000
                0x20006338                __HeapBase = .
                0x20006338                __end__ = .
                0x20006338                PROVIDE (end, .)
 *(.heap*)
 .heap          0x20006338     0x2000 examples/pb_remote/server/CMakeFiles/pb_remote_server_nrf52832_xxAA_s132_6.0.0.dir/C_/b/nRF5_SDK_15.0.0_a53641a/modules/nrfx/mdk/gcc_startup_nrf52.S.obj
                0x20008338                __HeapLimit = .

.stack_dummy    0x20006338     0x2000
 *(.stack*)
 .stack         0x20006338     0x2000 examples/pb_remote/server/CMakeFiles/pb_remote_server_nrf52832_xxAA_s132_6.0.0.dir/C_/b/nRF5_SDK_15.0.0_a53641a/modules/nrfx/mdk/gcc_startup_nrf52.S.obj
                0x2000fd00                __StackTop = (ORIGIN (RAM) + LENGTH (RAM))
                0x2000dd00                __StackLimit = (__StackTop - SIZEOF (.stack_dummy))
                0x2000fd00                PROVIDE (__stack, __StackTop)
                0x00000001                ASSERT ((__StackLimit >= __HeapLimit), region RAM overflowed with stack)
                0x00000140                DataInitFlashUsed = (__bss_start__ - __data_start__)
                0x00014fac                CodeFlashUsed = (__etext - ORIGIN (FLASH))
                0x000150ec                TotalFlashUsed = (CodeFlashUsed + DataInitFlashUsed)
                0x00000001                ASSERT ((TotalFlashUsed <= LENGTH (FLASH)), region FLASH overflowed with .data and user data)
OUTPUT(examples\pb_remote\server\pb_remote_server_nrf52832_xxAA_s132_6.0.0.elf elf32-littlearm)

.ARM.attributes
                0x00000000       0x30
 .ARM.attributes
                0x00000000       0x22 c:/mesh/arm_gcc/bin/../lib/gcc/arm-none-eabi/6.3.1/thumb/v7e-m/fpv4-sp/hard/crti.o
 .ARM.attributes
                0x00000022       0x34 c:/mesh/arm_gcc/bin/../lib/gcc/arm-none-eabi/6.3.1/thumb/v7e-m/fpv4-sp/hard/crtbegin.o
 .ARM.attributes
                0x00000056       0x20 c:/mesh/arm_gcc/bin/../lib/gcc/arm-none-eabi/6.3.1/../../../../arm-none-eabi/lib/thumb/v7e-m/fpv4-sp/hard/crt0.o
 .ARM.attributes
                0x00000076       0x39 examples/pb_remote/server/CMakeFiles/pb_remote_server_nrf52832_xxAA_s132_6.0.0.dir/src/main.c.obj
 .ARM.attributes
                0x000000af       0x39 examples/pb_remote/server/CMakeFiles/pb_remote_server_nrf52832_xxAA_s132_6.0.0.dir/__/__/__/mesh/stack/src/mesh_stack.c.obj
 .ARM.attributes
                0x000000e8       0x39 examples/pb_remote/server/CMakeFiles/pb_remote_server_nrf52832_xxAA_s132_6.0.0.dir/__/__/common/src/mesh_softdevice_init.c.obj
 .ARM.attributes
                0x00000121       0x39 examples/pb_remote/server/CMakeFiles/pb_remote_server_nrf52832_xxAA_s132_6.0.0.dir/__/__/common/src/mesh_provisionee.c.obj
 .ARM.attributes
                0x0000015a       0x39 examples/pb_remote/server/CMakeFiles/pb_remote_server_nrf52832_xxAA_s132_6.0.0.dir/__/__/common/src/simple_hal.c.obj
 .ARM.attributes
                0x00000193       0x39 examples/pb_remote/server/CMakeFiles/pb_remote_server_nrf52832_xxAA_s132_6.0.0.dir/__/__/nrf_mesh_weak.c.obj
 .ARM.attributes
                0x000001cc       0x39 examples/pb_remote/server/CMakeFiles/pb_remote_server_nrf52832_xxAA_s132_6.0.0.dir/__/__/common/src/app_error_weak.c.obj
 .ARM.attributes
                0x00000205       0x39 examples/pb_remote/server/CMakeFiles/pb_remote_server_nrf52832_xxAA_s132_6.0.0.dir/__/__/common/src/assertion_handler_weak.c.obj
 .ARM.attributes
                0x0000023e       0x39 examples/pb_remote/server/CMakeFiles/pb_remote_server_nrf52832_xxAA_s132_6.0.0.dir/__/__/__/mesh/core/src/nrf_mesh_configure.c.obj
 .ARM.attributes
                0x00000277       0x39 examples/pb_remote/server/CMakeFiles/pb_remote_server_nrf52832_xxAA_s132_6.0.0.dir/__/__/__/mesh/core/src/msg_cache.c.obj
 .ARM.attributes
                0x000002b0       0x39 examples/pb_remote/server/CMakeFiles/pb_remote_server_nrf52832_xxAA_s132_6.0.0.dir/__/__/__/mesh/core/src/transport.c.obj
 .ARM.attributes
                0x000002e9       0x39 examples/pb_remote/server/CMakeFiles/pb_remote_server_nrf52832_xxAA_s132_6.0.0.dir/__/__/__/mesh/core/src/event.c.obj
 .ARM.attributes
                0x00000322       0x39 examples/pb_remote/server/CMakeFiles/pb_remote_server_nrf52832_xxAA_s132_6.0.0.dir/__/__/__/mesh/core/src/packet_buffer.c.obj
 .ARM.attributes
                0x0000035b       0x39 examples/pb_remote/server/CMakeFiles/pb_remote_server_nrf52832_xxAA_s132_6.0.0.dir/__/__/__/mesh/core/src/flash_manager_defrag.c.obj
 .ARM.attributes
                0x00000394       0x39 examples/pb_remote/server/CMakeFiles/pb_remote_server_nrf52832_xxAA_s132_6.0.0.dir/__/__/__/mesh/core/src/fifo.c.obj
 .ARM.attributes
                0x000003cd       0x39 examples/pb_remote/server/CMakeFiles/pb_remote_server_nrf52832_xxAA_s132_6.0.0.dir/__/__/__/mesh/core/src/nrf_flash.c.obj
 .ARM.attributes
                0x00000406       0x39 examples/pb_remote/server/CMakeFiles/pb_remote_server_nrf52832_xxAA_s132_6.0.0.dir/__/__/__/mesh/core/src/packet_mgr.c.obj
 .ARM.attributes
                0x0000043f       0x39 examples/pb_remote/server/CMakeFiles/pb_remote_server_nrf52832_xxAA_s132_6.0.0.dir/__/__/__/mesh/core/src/net_state.c.obj
 .ARM.attributes
                0x00000478       0x39 examples/pb_remote/server/CMakeFiles/pb_remote_server_nrf52832_xxAA_s132_6.0.0.dir/__/__/__/mesh/core/src/mesh_flash.c.obj
 .ARM.attributes
                0x000004b1       0x39 examples/pb_remote/server/CMakeFiles/pb_remote_server_nrf52832_xxAA_s132_6.0.0.dir/__/__/__/mesh/core/src/nrf_mesh_utils.c.obj
 .ARM.attributes
                0x000004ea       0x39 examples/pb_remote/server/CMakeFiles/pb_remote_server_nrf52832_xxAA_s132_6.0.0.dir/__/__/__/mesh/core/src/nrf_mesh.c.obj
 .ARM.attributes
                0x00000523       0x39 examples/pb_remote/server/CMakeFiles/pb_remote_server_nrf52832_xxAA_s132_6.0.0.dir/__/__/__/mesh/core/src/queue.c.obj
 .ARM.attributes
                0x0000055c       0x39 examples/pb_remote/server/CMakeFiles/pb_remote_server_nrf52832_xxAA_s132_6.0.0.dir/__/__/__/mesh/core/src/hal.c.obj
 .ARM.attributes
                0x00000595       0x39 examples/pb_remote/server/CMakeFiles/pb_remote_server_nrf52832_xxAA_s132_6.0.0.dir/__/__/__/mesh/core/src/aes_cmac.c.obj
 .ARM.attributes
                0x000005ce       0x39 examples/pb_remote/server/CMakeFiles/pb_remote_server_nrf52832_xxAA_s132_6.0.0.dir/__/__/__/mesh/core/src/timer_scheduler.c.obj
 .ARM.attributes
                0x00000607       0x39 examples/pb_remote/server/CMakeFiles/pb_remote_server_nrf52832_xxAA_s132_6.0.0.dir/__/__/__/mesh/core/src/timer.c.obj
 .ARM.attributes
                0x00000640       0x39 examples/pb_remote/server/CMakeFiles/pb_remote_server_nrf52832_xxAA_s132_6.0.0.dir/__/__/__/mesh/core/src/ticker.c.obj
 .ARM.attributes
                0x00000679       0x39 examples/pb_remote/server/CMakeFiles/pb_remote_server_nrf52832_xxAA_s132_6.0.0.dir/__/__/__/mesh/core/src/rand.c.obj
 .ARM.attributes
                0x000006b2       0x39 examples/pb_remote/server/CMakeFiles/pb_remote_server_nrf52832_xxAA_s132_6.0.0.dir/__/__/__/mesh/core/src/nrf_mesh_opt.c.obj
 .ARM.attributes
                0x000006eb       0x39 examples/pb_remote/server/CMakeFiles/pb_remote_server_nrf52832_xxAA_s132_6.0.0.dir/__/__/__/mesh/core/src/timeslot.c.obj
 .ARM.attributes
                0x00000724       0x39 examples/pb_remote/server/CMakeFiles/pb_remote_server_nrf52832_xxAA_s132_6.0.0.dir/__/__/__/mesh/core/src/bearer_event.c.obj
 .ARM.attributes
                0x0000075d       0x39 examples/pb_remote/server/CMakeFiles/pb_remote_server_nrf52832_xxAA_s132_6.0.0.dir/__/__/__/mesh/core/src/enc.c.obj
 .ARM.attributes
                0x00000796       0x39 examples/pb_remote/server/CMakeFiles/pb_remote_server_nrf52832_xxAA_s132_6.0.0.dir/__/__/__/mesh/core/src/network.c.obj
 .ARM.attributes
                0x000007cf       0x39 examples/pb_remote/server/CMakeFiles/pb_remote_server_nrf52832_xxAA_s132_6.0.0.dir/__/__/__/mesh/core/src/net_packet.c.obj
 .ARM.attributes
                0x00000808       0x39 examples/pb_remote/server/CMakeFiles/pb_remote_server_nrf52832_xxAA_s132_6.0.0.dir/__/__/__/mesh/core/src/msqueue.c.obj
 .ARM.attributes
                0x00000841       0x39 examples/pb_remote/server/CMakeFiles/pb_remote_server_nrf52832_xxAA_s132_6.0.0.dir/__/__/__/mesh/core/src/nrf_mesh_keygen.c.obj
 .ARM.attributes
                0x0000087a       0x39 examples/pb_remote/server/CMakeFiles/pb_remote_server_nrf52832_xxAA_s132_6.0.0.dir/__/__/__/mesh/core/src/list.c.obj
 .ARM.attributes
                0x000008b3       0x39 examples/pb_remote/server/CMakeFiles/pb_remote_server_nrf52832_xxAA_s132_6.0.0.dir/__/__/__/mesh/core/src/log.c.obj
 .ARM.attributes
                0x000008ec       0x39 examples/pb_remote/server/CMakeFiles/pb_remote_server_nrf52832_xxAA_s132_6.0.0.dir/__/__/__/mesh/core/src/flash_manager.c.obj
 .ARM.attributes
                0x00000925       0x39 examples/pb_remote/server/CMakeFiles/pb_remote_server_nrf52832_xxAA_s132_6.0.0.dir/__/__/__/mesh/core/src/ccm_soft.c.obj
 .ARM.attributes
                0x0000095e       0x39 examples/pb_remote/server/CMakeFiles/pb_remote_server_nrf52832_xxAA_s132_6.0.0.dir/__/__/__/mesh/core/src/replay_cache.c.obj
 .ARM.attributes
                0x00000997       0x39 examples/pb_remote/server/CMakeFiles/pb_remote_server_nrf52832_xxAA_s132_6.0.0.dir/__/__/__/mesh/core/src/beacon.c.obj
 .ARM.attributes
                0x000009d0       0x39 examples/pb_remote/server/CMakeFiles/pb_remote_server_nrf52832_xxAA_s132_6.0.0.dir/__/__/__/mesh/core/src/flash_manager_internal.c.obj
 .ARM.attributes
                0x00000a09       0x39 examples/pb_remote/server/CMakeFiles/pb_remote_server_nrf52832_xxAA_s132_6.0.0.dir/__/__/__/mesh/core/src/core_tx.c.obj
 .ARM.attributes
                0x00000a42       0x39 examples/pb_remote/server/CMakeFiles/pb_remote_server_nrf52832_xxAA_s132_6.0.0.dir/__/__/__/mesh/core/src/heartbeat.c.obj
 .ARM.attributes
                0x00000a7b       0x39 examples/pb_remote/server/CMakeFiles/pb_remote_server_nrf52832_xxAA_s132_6.0.0.dir/__/__/__/mesh/core/src/net_beacon.c.obj
 .ARM.attributes
                0x00000ab4       0x39 examples/pb_remote/server/CMakeFiles/pb_remote_server_nrf52832_xxAA_s132_6.0.0.dir/__/__/__/mesh/core/src/core_tx_adv.c.obj
 .ARM.attributes
                0x00000aed       0x39 examples/pb_remote/server/CMakeFiles/pb_remote_server_nrf52832_xxAA_s132_6.0.0.dir/__/__/__/mesh/bearer/src/ad_listener.c.obj
 .ARM.attributes
                0x00000b26       0x39 examples/pb_remote/server/CMakeFiles/pb_remote_server_nrf52832_xxAA_s132_6.0.0.dir/__/__/__/mesh/bearer/src/ad_type_filter.c.obj
 .ARM.attributes
                0x00000b5f       0x39 examples/pb_remote/server/CMakeFiles/pb_remote_server_nrf52832_xxAA_s132_6.0.0.dir/__/__/__/mesh/bearer/src/advertiser.c.obj
 .ARM.attributes
                0x00000b98       0x39 examples/pb_remote/server/CMakeFiles/pb_remote_server_nrf52832_xxAA_s132_6.0.0.dir/__/__/__/mesh/bearer/src/bearer_handler.c.obj
 .ARM.attributes
                0x00000bd1       0x39 examples/pb_remote/server/CMakeFiles/pb_remote_server_nrf52832_xxAA_s132_6.0.0.dir/__/__/__/mesh/bearer/src/broadcast.c.obj
 .ARM.attributes
                0x00000c0a       0x39 examples/pb_remote/server/CMakeFiles/pb_remote_server_nrf52832_xxAA_s132_6.0.0.dir/__/__/__/mesh/bearer/src/filter_engine.c.obj
 .ARM.attributes
                0x00000c43       0x39 examples/pb_remote/server/CMakeFiles/pb_remote_server_nrf52832_xxAA_s132_6.0.0.dir/__/__/__/mesh/bearer/src/radio_config.c.obj
 .ARM.attributes
                0x00000c7c       0x39 examples/pb_remote/server/CMakeFiles/pb_remote_server_nrf52832_xxAA_s132_6.0.0.dir/__/__/__/mesh/bearer/src/scanner.c.obj
 .ARM.attributes
                0x00000cb5       0x39 examples/pb_remote/server/CMakeFiles/pb_remote_server_nrf52832_xxAA_s132_6.0.0.dir/__/__/__/mesh/bearer/src/mesh_pa_lna.c.obj
 .ARM.attributes
                0x00000cee       0x39 examples/pb_remote/server/CMakeFiles/pb_remote_server_nrf52832_xxAA_s132_6.0.0.dir/__/__/__/mesh/prov/src/prov_provisionee.c.obj
 .ARM.attributes
                0x00000d27       0x39 examples/pb_remote/server/CMakeFiles/pb_remote_server_nrf52832_xxAA_s132_6.0.0.dir/__/__/__/mesh/prov/src/nrf_mesh_prov.c.obj
 .ARM.attributes
                0x00000d60       0x39 examples/pb_remote/server/CMakeFiles/pb_remote_server_nrf52832_xxAA_s132_6.0.0.dir/__/__/__/mesh/prov/src/provisioning.c.obj
 .ARM.attributes
                0x00000d99       0x39 examples/pb_remote/server/CMakeFiles/pb_remote_server_nrf52832_xxAA_s132_6.0.0.dir/__/__/__/mesh/prov/src/prov_beacon.c.obj
 .ARM.attributes
                0x00000dd2       0x39 examples/pb_remote/server/CMakeFiles/pb_remote_server_nrf52832_xxAA_s132_6.0.0.dir/__/__/__/mesh/prov/src/prov_utils.c.obj
 .ARM.attributes
                0x00000e0b       0x39 examples/pb_remote/server/CMakeFiles/pb_remote_server_nrf52832_xxAA_s132_6.0.0.dir/__/__/__/mesh/prov/src/prov_bearer_adv.c.obj
 .ARM.attributes
                0x00000e44       0x39 examples/pb_remote/server/CMakeFiles/pb_remote_server_nrf52832_xxAA_s132_6.0.0.dir/__/__/__/models/pb_remote/src/pb_remote_server.c.obj
 .ARM.attributes
                0x00000e7d       0x39 examples/pb_remote/server/CMakeFiles/pb_remote_server_nrf52832_xxAA_s132_6.0.0.dir/__/__/__/mesh/access/src/access_publish.c.obj
 .ARM.attributes
                0x00000eb6       0x39 examples/pb_remote/server/CMakeFiles/pb_remote_server_nrf52832_xxAA_s132_6.0.0.dir/__/__/__/mesh/access/src/access.c.obj
 .ARM.attributes
                0x00000eef       0x39 examples/pb_remote/server/CMakeFiles/pb_remote_server_nrf52832_xxAA_s132_6.0.0.dir/__/__/__/mesh/access/src/access_reliable.c.obj
 .ARM.attributes
                0x00000f28       0x39 examples/pb_remote/server/CMakeFiles/pb_remote_server_nrf52832_xxAA_s132_6.0.0.dir/__/__/__/mesh/access/src/access_loopback.c.obj
 .ARM.attributes
                0x00000f61       0x39 examples/pb_remote/server/CMakeFiles/pb_remote_server_nrf52832_xxAA_s132_6.0.0.dir/__/__/__/mesh/access/src/device_state_manager.c.obj
 .ARM.attributes
                0x00000f9a       0x39 examples/pb_remote/server/CMakeFiles/pb_remote_server_nrf52832_xxAA_s132_6.0.0.dir/__/__/__/models/config/src/composition_data.c.obj
 .ARM.attributes
                0x00000fd3       0x39 examples/pb_remote/server/CMakeFiles/pb_remote_server_nrf52832_xxAA_s132_6.0.0.dir/__/__/__/models/config/src/config_server.c.obj
 .ARM.attributes
                0x0000100c       0x39 examples/pb_remote/server/CMakeFiles/pb_remote_server_nrf52832_xxAA_s132_6.0.0.dir/__/__/__/models/config/src/packed_index_list.c.obj
 .ARM.attributes
                0x00001045       0x39 examples/pb_remote/server/CMakeFiles/pb_remote_server_nrf52832_xxAA_s132_6.0.0.dir/__/__/__/models/health/src/health_server.c.obj
 .ARM.attributes
                0x0000107e       0x39 examples/pb_remote/server/CMakeFiles/pb_remote_server_nrf52832_xxAA_s132_6.0.0.dir/C_/b/nRF5_SDK_15.0.0_a53641a/modules/nrfx/mdk/system_nrf52.c.obj
 .ARM.attributes
                0x000010b7       0x20 examples/pb_remote/server/CMakeFiles/pb_remote_server_nrf52832_xxAA_s132_6.0.0.dir/C_/b/nRF5_SDK_15.0.0_a53641a/modules/nrfx/mdk/gcc_startup_nrf52.S.obj
 .ARM.attributes
                0x000010d7       0x39 examples/pb_remote/server/CMakeFiles/pb_remote_server_nrf52832_xxAA_s132_6.0.0.dir/C_/b/nRF5_SDK_15.0.0_a53641a/components/libraries/util/app_error.c.obj
 .ARM.attributes
                0x00001110       0x39 examples/pb_remote/server/CMakeFiles/pb_remote_server_nrf52832_xxAA_s132_6.0.0.dir/C_/b/nRF5_SDK_15.0.0_a53641a/components/libraries/util/app_util_platform.c.obj
 .ARM.attributes
                0x00001149       0x39 examples/pb_remote/server/CMakeFiles/pb_remote_server_nrf52832_xxAA_s132_6.0.0.dir/C_/b/nRF5_SDK_15.0.0_a53641a/components/libraries/timer/app_timer.c.obj
 .ARM.attributes
                0x00001182       0x39 examples/pb_remote/server/CMakeFiles/pb_remote_server_nrf52832_xxAA_s132_6.0.0.dir/C_/b/nRF5_SDK_15.0.0_a53641a/components/libraries/util/app_error_handler_gcc.c.obj
 .ARM.attributes
                0x000011bb       0x39 external/rtt/librtt_nrf52832_xxAA.a(SEGGER_RTT.c.obj)
 .ARM.attributes
                0x000011f4       0x39 external/rtt/librtt_nrf52832_xxAA.a(SEGGER_RTT_printf.c.obj)
 .ARM.attributes
                0x0000122d       0x39 external/micro-ecc/libuECC_nrf52832_xxAA.a(uECC.c.obj)
 .ARM.attributes
                0x00001266       0x22 c:/mesh/arm_gcc/bin/../lib/gcc/arm-none-eabi/6.3.1/thumb/v7e-m/fpv4-sp/hard\libgcc.a(_aeabi_uldivmod.o)
 .ARM.attributes
                0x00001288       0x34 c:/mesh/arm_gcc/bin/../lib/gcc/arm-none-eabi/6.3.1/thumb/v7e-m/fpv4-sp/hard\libgcc.a(_udivmoddi4.o)
 .ARM.attributes
                0x000012bc       0x22 c:/mesh/arm_gcc/bin/../lib/gcc/arm-none-eabi/6.3.1/thumb/v7e-m/fpv4-sp/hard\libgcc.a(_dvmd_tls.o)
 .ARM.attributes
                0x000012de       0x34 c:/mesh/arm_gcc/bin/../lib/gcc/arm-none-eabi/6.3.1/../../../../arm-none-eabi/lib/thumb/v7e-m/fpv4-sp/hard\libg_nano.a(lib_a-exit.o)
 .ARM.attributes
                0x00001312       0x34 c:/mesh/arm_gcc/bin/../lib/gcc/arm-none-eabi/6.3.1/../../../../arm-none-eabi/lib/thumb/v7e-m/fpv4-sp/hard\libg_nano.a(lib_a-impure.o)
 .ARM.attributes
                0x00001346       0x34 c:/mesh/arm_gcc/bin/../lib/gcc/arm-none-eabi/6.3.1/../../../../arm-none-eabi/lib/thumb/v7e-m/fpv4-sp/hard\libg_nano.a(lib_a-init.o)
 .ARM.attributes
                0x0000137a       0x34 c:/mesh/arm_gcc/bin/../lib/gcc/arm-none-eabi/6.3.1/../../../../arm-none-eabi/lib/thumb/v7e-m/fpv4-sp/hard\libg_nano.a(lib_a-malloc.o)
 .ARM.attributes
                0x000013ae       0x34 c:/mesh/arm_gcc/bin/../lib/gcc/arm-none-eabi/6.3.1/../../../../arm-none-eabi/lib/thumb/v7e-m/fpv4-sp/hard\libg_nano.a(lib_a-memcmp.o)
 .ARM.attributes
                0x000013e2       0x34 c:/mesh/arm_gcc/bin/../lib/gcc/arm-none-eabi/6.3.1/../../../../arm-none-eabi/lib/thumb/v7e-m/fpv4-sp/hard\libg_nano.a(lib_a-memcpy-stub.o)
 .ARM.attributes
                0x00001416       0x34 c:/mesh/arm_gcc/bin/../lib/gcc/arm-none-eabi/6.3.1/../../../../arm-none-eabi/lib/thumb/v7e-m/fpv4-sp/hard\libg_nano.a(lib_a-memset.o)
 .ARM.attributes
                0x0000144a       0x34 c:/mesh/arm_gcc/bin/../lib/gcc/arm-none-eabi/6.3.1/../../../../arm-none-eabi/lib/thumb/v7e-m/fpv4-sp/hard\libg_nano.a(lib_a-nano-freer.o)
 .ARM.attributes
                0x0000147e       0x34 c:/mesh/arm_gcc/bin/../lib/gcc/arm-none-eabi/6.3.1/../../../../arm-none-eabi/lib/thumb/v7e-m/fpv4-sp/hard\libg_nano.a(lib_a-nano-mallocr.o)
 .ARM.attributes
                0x000014b2       0x34 c:/mesh/arm_gcc/bin/../lib/gcc/arm-none-eabi/6.3.1/../../../../arm-none-eabi/lib/thumb/v7e-m/fpv4-sp/hard\libg_nano.a(lib_a-sbrkr.o)
 .ARM.attributes
                0x000014e6       0x34 c:/mesh/arm_gcc/bin/../lib/gcc/arm-none-eabi/6.3.1/../../../../arm-none-eabi/lib/thumb/v7e-m/fpv4-sp/hard\libg_nano.a(lib_a-strcpy.o)
 .ARM.attributes
                0x0000151a       0x1b c:/mesh/arm_gcc/bin/../lib/gcc/arm-none-eabi/6.3.1/../../../../arm-none-eabi/lib/thumb/v7e-m/fpv4-sp/hard\libg_nano.a(lib_a-strlen.o)
 .ARM.attributes
                0x00001535       0x34 c:/mesh/arm_gcc/bin/../lib/gcc/arm-none-eabi/6.3.1/../../../../arm-none-eabi/lib/thumb/v7e-m/fpv4-sp/hard\libg_nano.a(lib_a-strrchr.o)
 .ARM.attributes
                0x00001569       0x34 c:/mesh/arm_gcc/bin/../lib/gcc/arm-none-eabi/6.3.1/../../../../arm-none-eabi/lib/thumb/v7e-m/fpv4-sp/hard\libg_nano.a(lib_a-mlock.o)
 .ARM.attributes
                0x0000159d       0x34 c:/mesh/arm_gcc/bin/../lib/gcc/arm-none-eabi/6.3.1/../../../../arm-none-eabi/lib/thumb/v7e-m/fpv4-sp/hard\libg_nano.a(lib_a-reent.o)
 .ARM.attributes
                0x000015d1       0x34 c:/mesh/arm_gcc/bin/../lib/gcc/arm-none-eabi/6.3.1/../../../../arm-none-eabi/lib/thumb/v7e-m/fpv4-sp/hard\libg_nano.a(lib_a-strchr.o)
 .ARM.attributes
                0x00001605       0x34 c:/mesh/arm_gcc/bin/../lib/gcc/arm-none-eabi/6.3.1/thumb/v7e-m/fpv4-sp/hard/crtend.o
 .ARM.attributes
                0x00001639       0x22 c:/mesh/arm_gcc/bin/../lib/gcc/arm-none-eabi/6.3.1/thumb/v7e-m/fpv4-sp/hard/crtn.o
 .ARM.attributes
                0x0000165b       0x34 c:/mesh/arm_gcc/bin/../lib/gcc/arm-none-eabi/6.3.1/../../../../arm-none-eabi/lib/thumb/v7e-m/fpv4-sp/hard\libnosys.a(sbrk.o)
 .ARM.attributes
                0x0000168f       0x34 c:/mesh/arm_gcc/bin/../lib/gcc/arm-none-eabi/6.3.1/../../../../arm-none-eabi/lib/thumb/v7e-m/fpv4-sp/hard\libnosys.a(_exit.o)

.comment        0x00000000       0x7f
 .comment       0x00000000       0x7f examples/pb_remote/server/CMakeFiles/pb_remote_server_nrf52832_xxAA_s132_6.0.0.dir/src/main.c.obj
                                 0x80 (size before relaxing)
 .comment       0x0000007f       0x80 examples/pb_remote/server/CMakeFiles/pb_remote_server_nrf52832_xxAA_s132_6.0.0.dir/__/__/__/mesh/stack/src/mesh_stack.c.obj
 .comment       0x0000007f       0x80 examples/pb_remote/server/CMakeFiles/pb_remote_server_nrf52832_xxAA_s132_6.0.0.dir/__/__/common/src/mesh_softdevice_init.c.obj
 .comment       0x0000007f       0x80 examples/pb_remote/server/CMakeFiles/pb_remote_server_nrf52832_xxAA_s132_6.0.0.dir/__/__/common/src/mesh_provisionee.c.obj
 .comment       0x0000007f       0x80 examples/pb_remote/server/CMakeFiles/pb_remote_server_nrf52832_xxAA_s132_6.0.0.dir/__/__/common/src/simple_hal.c.obj
 .comment       0x0000007f       0x80 examples/pb_remote/server/CMakeFiles/pb_remote_server_nrf52832_xxAA_s132_6.0.0.dir/__/__/nrf_mesh_weak.c.obj
 .comment       0x0000007f       0x80 examples/pb_remote/server/CMakeFiles/pb_remote_server_nrf52832_xxAA_s132_6.0.0.dir/__/__/common/src/app_error_weak.c.obj
 .comment       0x0000007f       0x80 examples/pb_remote/server/CMakeFiles/pb_remote_server_nrf52832_xxAA_s132_6.0.0.dir/__/__/common/src/assertion_handler_weak.c.obj
 .comment       0x0000007f       0x80 examples/pb_remote/server/CMakeFiles/pb_remote_server_nrf52832_xxAA_s132_6.0.0.dir/__/__/__/mesh/core/src/nrf_mesh_configure.c.obj
 .comment       0x0000007f       0x80 examples/pb_remote/server/CMakeFiles/pb_remote_server_nrf52832_xxAA_s132_6.0.0.dir/__/__/__/mesh/core/src/msg_cache.c.obj
 .comment       0x0000007f       0x80 examples/pb_remote/server/CMakeFiles/pb_remote_server_nrf52832_xxAA_s132_6.0.0.dir/__/__/__/mesh/core/src/transport.c.obj
 .comment       0x0000007f       0x80 examples/pb_remote/server/CMakeFiles/pb_remote_server_nrf52832_xxAA_s132_6.0.0.dir/__/__/__/mesh/core/src/event.c.obj
 .comment       0x0000007f       0x80 examples/pb_remote/server/CMakeFiles/pb_remote_server_nrf52832_xxAA_s132_6.0.0.dir/__/__/__/mesh/core/src/packet_buffer.c.obj
 .comment       0x0000007f       0x80 examples/pb_remote/server/CMakeFiles/pb_remote_server_nrf52832_xxAA_s132_6.0.0.dir/__/__/__/mesh/core/src/flash_manager_defrag.c.obj
 .comment       0x0000007f       0x80 examples/pb_remote/server/CMakeFiles/pb_remote_server_nrf52832_xxAA_s132_6.0.0.dir/__/__/__/mesh/core/src/fifo.c.obj
 .comment       0x0000007f       0x80 examples/pb_remote/server/CMakeFiles/pb_remote_server_nrf52832_xxAA_s132_6.0.0.dir/__/__/__/mesh/core/src/nrf_flash.c.obj
 .comment       0x0000007f       0x80 examples/pb_remote/server/CMakeFiles/pb_remote_server_nrf52832_xxAA_s132_6.0.0.dir/__/__/__/mesh/core/src/packet_mgr.c.obj
 .comment       0x0000007f       0x80 examples/pb_remote/server/CMakeFiles/pb_remote_server_nrf52832_xxAA_s132_6.0.0.dir/__/__/__/mesh/core/src/net_state.c.obj
 .comment       0x0000007f       0x80 examples/pb_remote/server/CMakeFiles/pb_remote_server_nrf52832_xxAA_s132_6.0.0.dir/__/__/__/mesh/core/src/mesh_flash.c.obj
 .comment       0x0000007f       0x80 examples/pb_remote/server/CMakeFiles/pb_remote_server_nrf52832_xxAA_s132_6.0.0.dir/__/__/__/mesh/core/src/nrf_mesh_utils.c.obj
 .comment       0x0000007f       0x80 examples/pb_remote/server/CMakeFiles/pb_remote_server_nrf52832_xxAA_s132_6.0.0.dir/__/__/__/mesh/core/src/nrf_mesh.c.obj
 .comment       0x0000007f       0x80 examples/pb_remote/server/CMakeFiles/pb_remote_server_nrf52832_xxAA_s132_6.0.0.dir/__/__/__/mesh/core/src/queue.c.obj
 .comment       0x0000007f       0x80 examples/pb_remote/server/CMakeFiles/pb_remote_server_nrf52832_xxAA_s132_6.0.0.dir/__/__/__/mesh/core/src/hal.c.obj
 .comment       0x0000007f       0x80 examples/pb_remote/server/CMakeFiles/pb_remote_server_nrf52832_xxAA_s132_6.0.0.dir/__/__/__/mesh/core/src/aes_cmac.c.obj
 .comment       0x0000007f       0x80 examples/pb_remote/server/CMakeFiles/pb_remote_server_nrf52832_xxAA_s132_6.0.0.dir/__/__/__/mesh/core/src/timer_scheduler.c.obj
 .comment       0x0000007f       0x80 examples/pb_remote/server/CMakeFiles/pb_remote_server_nrf52832_xxAA_s132_6.0.0.dir/__/__/__/mesh/core/src/timer.c.obj
 .comment       0x0000007f       0x80 examples/pb_remote/server/CMakeFiles/pb_remote_server_nrf52832_xxAA_s132_6.0.0.dir/__/__/__/mesh/core/src/ticker.c.obj
 .comment       0x0000007f       0x80 examples/pb_remote/server/CMakeFiles/pb_remote_server_nrf52832_xxAA_s132_6.0.0.dir/__/__/__/mesh/core/src/rand.c.obj
 .comment       0x0000007f       0x80 examples/pb_remote/server/CMakeFiles/pb_remote_server_nrf52832_xxAA_s132_6.0.0.dir/__/__/__/mesh/core/src/nrf_mesh_opt.c.obj
 .comment       0x0000007f       0x80 examples/pb_remote/server/CMakeFiles/pb_remote_server_nrf52832_xxAA_s132_6.0.0.dir/__/__/__/mesh/core/src/timeslot.c.obj
 .comment       0x0000007f       0x80 examples/pb_remote/server/CMakeFiles/pb_remote_server_nrf52832_xxAA_s132_6.0.0.dir/__/__/__/mesh/core/src/bearer_event.c.obj
 .comment       0x0000007f       0x80 examples/pb_remote/server/CMakeFiles/pb_remote_server_nrf52832_xxAA_s132_6.0.0.dir/__/__/__/mesh/core/src/enc.c.obj
 .comment       0x0000007f       0x80 examples/pb_remote/server/CMakeFiles/pb_remote_server_nrf52832_xxAA_s132_6.0.0.dir/__/__/__/mesh/core/src/network.c.obj
 .comment       0x0000007f       0x80 examples/pb_remote/server/CMakeFiles/pb_remote_server_nrf52832_xxAA_s132_6.0.0.dir/__/__/__/mesh/core/src/net_packet.c.obj
 .comment       0x0000007f       0x80 examples/pb_remote/server/CMakeFiles/pb_remote_server_nrf52832_xxAA_s132_6.0.0.dir/__/__/__/mesh/core/src/msqueue.c.obj
 .comment       0x0000007f       0x80 examples/pb_remote/server/CMakeFiles/pb_remote_server_nrf52832_xxAA_s132_6.0.0.dir/__/__/__/mesh/core/src/nrf_mesh_keygen.c.obj
 .comment       0x0000007f       0x80 examples/pb_remote/server/CMakeFiles/pb_remote_server_nrf52832_xxAA_s132_6.0.0.dir/__/__/__/mesh/core/src/list.c.obj
 .comment       0x0000007f       0x80 examples/pb_remote/server/CMakeFiles/pb_remote_server_nrf52832_xxAA_s132_6.0.0.dir/__/__/__/mesh/core/src/log.c.obj
 .comment       0x0000007f       0x80 examples/pb_remote/server/CMakeFiles/pb_remote_server_nrf52832_xxAA_s132_6.0.0.dir/__/__/__/mesh/core/src/flash_manager.c.obj
 .comment       0x0000007f       0x80 examples/pb_remote/server/CMakeFiles/pb_remote_server_nrf52832_xxAA_s132_6.0.0.dir/__/__/__/mesh/core/src/ccm_soft.c.obj
 .comment       0x0000007f       0x80 examples/pb_remote/server/CMakeFiles/pb_remote_server_nrf52832_xxAA_s132_6.0.0.dir/__/__/__/mesh/core/src/replay_cache.c.obj
 .comment       0x0000007f       0x80 examples/pb_remote/server/CMakeFiles/pb_remote_server_nrf52832_xxAA_s132_6.0.0.dir/__/__/__/mesh/core/src/beacon.c.obj
 .comment       0x0000007f       0x80 examples/pb_remote/server/CMakeFiles/pb_remote_server_nrf52832_xxAA_s132_6.0.0.dir/__/__/__/mesh/core/src/flash_manager_internal.c.obj
 .comment       0x0000007f       0x80 examples/pb_remote/server/CMakeFiles/pb_remote_server_nrf52832_xxAA_s132_6.0.0.dir/__/__/__/mesh/core/src/core_tx.c.obj
 .comment       0x0000007f       0x80 examples/pb_remote/server/CMakeFiles/pb_remote_server_nrf52832_xxAA_s132_6.0.0.dir/__/__/__/mesh/core/src/heartbeat.c.obj
 .comment       0x0000007f       0x80 examples/pb_remote/server/CMakeFiles/pb_remote_server_nrf52832_xxAA_s132_6.0.0.dir/__/__/__/mesh/core/src/net_beacon.c.obj
 .comment       0x0000007f       0x80 examples/pb_remote/server/CMakeFiles/pb_remote_server_nrf52832_xxAA_s132_6.0.0.dir/__/__/__/mesh/core/src/core_tx_adv.c.obj
 .comment       0x0000007f       0x80 examples/pb_remote/server/CMakeFiles/pb_remote_server_nrf52832_xxAA_s132_6.0.0.dir/__/__/__/mesh/bearer/src/ad_listener.c.obj
 .comment       0x0000007f       0x80 examples/pb_remote/server/CMakeFiles/pb_remote_server_nrf52832_xxAA_s132_6.0.0.dir/__/__/__/mesh/bearer/src/ad_type_filter.c.obj
 .comment       0x0000007f       0x80 examples/pb_remote/server/CMakeFiles/pb_remote_server_nrf52832_xxAA_s132_6.0.0.dir/__/__/__/mesh/bearer/src/advertiser.c.obj
 .comment       0x0000007f       0x80 examples/pb_remote/server/CMakeFiles/pb_remote_server_nrf52832_xxAA_s132_6.0.0.dir/__/__/__/mesh/bearer/src/bearer_handler.c.obj
 .comment       0x0000007f       0x80 examples/pb_remote/server/CMakeFiles/pb_remote_server_nrf52832_xxAA_s132_6.0.0.dir/__/__/__/mesh/bearer/src/broadcast.c.obj
 .comment       0x0000007f       0x80 examples/pb_remote/server/CMakeFiles/pb_remote_server_nrf52832_xxAA_s132_6.0.0.dir/__/__/__/mesh/bearer/src/filter_engine.c.obj
 .comment       0x0000007f       0x80 examples/pb_remote/server/CMakeFiles/pb_remote_server_nrf52832_xxAA_s132_6.0.0.dir/__/__/__/mesh/bearer/src/radio_config.c.obj
 .comment       0x0000007f       0x80 examples/pb_remote/server/CMakeFiles/pb_remote_server_nrf52832_xxAA_s132_6.0.0.dir/__/__/__/mesh/bearer/src/scanner.c.obj
 .comment       0x0000007f       0x80 examples/pb_remote/server/CMakeFiles/pb_remote_server_nrf52832_xxAA_s132_6.0.0.dir/__/__/__/mesh/bearer/src/mesh_pa_lna.c.obj
 .comment       0x0000007f       0x80 examples/pb_remote/server/CMakeFiles/pb_remote_server_nrf52832_xxAA_s132_6.0.0.dir/__/__/__/mesh/prov/src/prov_provisionee.c.obj
 .comment       0x0000007f       0x80 examples/pb_remote/server/CMakeFiles/pb_remote_server_nrf52832_xxAA_s132_6.0.0.dir/__/__/__/mesh/prov/src/nrf_mesh_prov.c.obj
 .comment       0x0000007f       0x80 examples/pb_remote/server/CMakeFiles/pb_remote_server_nrf52832_xxAA_s132_6.0.0.dir/__/__/__/mesh/prov/src/provisioning.c.obj
 .comment       0x0000007f       0x80 examples/pb_remote/server/CMakeFiles/pb_remote_server_nrf52832_xxAA_s132_6.0.0.dir/__/__/__/mesh/prov/src/prov_beacon.c.obj
 .comment       0x0000007f       0x80 examples/pb_remote/server/CMakeFiles/pb_remote_server_nrf52832_xxAA_s132_6.0.0.dir/__/__/__/mesh/prov/src/prov_utils.c.obj
 .comment       0x0000007f       0x80 examples/pb_remote/server/CMakeFiles/pb_remote_server_nrf52832_xxAA_s132_6.0.0.dir/__/__/__/mesh/prov/src/prov_bearer_adv.c.obj
 .comment       0x0000007f       0x80 examples/pb_remote/server/CMakeFiles/pb_remote_server_nrf52832_xxAA_s132_6.0.0.dir/__/__/__/models/pb_remote/src/pb_remote_server.c.obj
 .comment       0x0000007f       0x80 examples/pb_remote/server/CMakeFiles/pb_remote_server_nrf52832_xxAA_s132_6.0.0.dir/__/__/__/mesh/access/src/access_publish.c.obj
 .comment       0x0000007f       0x80 examples/pb_remote/server/CMakeFiles/pb_remote_server_nrf52832_xxAA_s132_6.0.0.dir/__/__/__/mesh/access/src/access.c.obj
 .comment       0x0000007f       0x80 examples/pb_remote/server/CMakeFiles/pb_remote_server_nrf52832_xxAA_s132_6.0.0.dir/__/__/__/mesh/access/src/access_reliable.c.obj
 .comment       0x0000007f       0x80 examples/pb_remote/server/CMakeFiles/pb_remote_server_nrf52832_xxAA_s132_6.0.0.dir/__/__/__/mesh/access/src/access_loopback.c.obj
 .comment       0x0000007f       0x80 examples/pb_remote/server/CMakeFiles/pb_remote_server_nrf52832_xxAA_s132_6.0.0.dir/__/__/__/mesh/access/src/device_state_manager.c.obj
 .comment       0x0000007f       0x80 examples/pb_remote/server/CMakeFiles/pb_remote_server_nrf52832_xxAA_s132_6.0.0.dir/__/__/__/models/config/src/composition_data.c.obj
 .comment       0x0000007f       0x80 examples/pb_remote/server/CMakeFiles/pb_remote_server_nrf52832_xxAA_s132_6.0.0.dir/__/__/__/models/config/src/config_server.c.obj
 .comment       0x0000007f       0x80 examples/pb_remote/server/CMakeFiles/pb_remote_server_nrf52832_xxAA_s132_6.0.0.dir/__/__/__/models/config/src/packed_index_list.c.obj
 .comment       0x0000007f       0x80 examples/pb_remote/server/CMakeFiles/pb_remote_server_nrf52832_xxAA_s132_6.0.0.dir/__/__/__/models/health/src/health_server.c.obj
 .comment       0x0000007f       0x80 examples/pb_remote/server/CMakeFiles/pb_remote_server_nrf52832_xxAA_s132_6.0.0.dir/C_/b/nRF5_SDK_15.0.0_a53641a/modules/nrfx/mdk/system_nrf52.c.obj
 .comment       0x0000007f       0x80 examples/pb_remote/server/CMakeFiles/pb_remote_server_nrf52832_xxAA_s132_6.0.0.dir/C_/b/nRF5_SDK_15.0.0_a53641a/components/libraries/util/app_error.c.obj
 .comment       0x0000007f       0x80 examples/pb_remote/server/CMakeFiles/pb_remote_server_nrf52832_xxAA_s132_6.0.0.dir/C_/b/nRF5_SDK_15.0.0_a53641a/components/libraries/util/app_util_platform.c.obj
 .comment       0x0000007f       0x80 examples/pb_remote/server/CMakeFiles/pb_remote_server_nrf52832_xxAA_s132_6.0.0.dir/C_/b/nRF5_SDK_15.0.0_a53641a/components/libraries/timer/app_timer.c.obj
 .comment       0x0000007f       0x80 examples/pb_remote/server/CMakeFiles/pb_remote_server_nrf52832_xxAA_s132_6.0.0.dir/C_/b/nRF5_SDK_15.0.0_a53641a/components/libraries/util/app_error_handler_gcc.c.obj
 .comment       0x0000007f       0x80 external/rtt/librtt_nrf52832_xxAA.a(SEGGER_RTT.c.obj)
 .comment       0x0000007f       0x80 external/rtt/librtt_nrf52832_xxAA.a(SEGGER_RTT_printf.c.obj)
 .comment       0x0000007f       0x80 external/micro-ecc/libuECC_nrf52832_xxAA.a(uECC.c.obj)

.debug_info     0x00000000    0x869eb
 .debug_info    0x00000000     0x31ca examples/pb_remote/server/CMakeFiles/pb_remote_server_nrf52832_xxAA_s132_6.0.0.dir/src/main.c.obj
 .debug_info    0x000031ca     0x2332 examples/pb_remote/server/CMakeFiles/pb_remote_server_nrf52832_xxAA_s132_6.0.0.dir/__/__/__/mesh/stack/src/mesh_stack.c.obj
 .debug_info    0x000054fc     0x1b6a examples/pb_remote/server/CMakeFiles/pb_remote_server_nrf52832_xxAA_s132_6.0.0.dir/__/__/common/src/mesh_softdevice_init.c.obj
 .debug_info    0x00007066     0x2188 examples/pb_remote/server/CMakeFiles/pb_remote_server_nrf52832_xxAA_s132_6.0.0.dir/__/__/common/src/mesh_provisionee.c.obj
 .debug_info    0x000091ee     0x15ff examples/pb_remote/server/CMakeFiles/pb_remote_server_nrf52832_xxAA_s132_6.0.0.dir/__/__/common/src/simple_hal.c.obj
 .debug_info    0x0000a7ed      0x924 examples/pb_remote/server/CMakeFiles/pb_remote_server_nrf52832_xxAA_s132_6.0.0.dir/__/__/nrf_mesh_weak.c.obj
 .debug_info    0x0000b111     0x106b examples/pb_remote/server/CMakeFiles/pb_remote_server_nrf52832_xxAA_s132_6.0.0.dir/__/__/common/src/app_error_weak.c.obj
 .debug_info    0x0000c17c      0x99b examples/pb_remote/server/CMakeFiles/pb_remote_server_nrf52832_xxAA_s132_6.0.0.dir/__/__/common/src/assertion_handler_weak.c.obj
 .debug_info    0x0000cb17      0xd04 examples/pb_remote/server/CMakeFiles/pb_remote_server_nrf52832_xxAA_s132_6.0.0.dir/__/__/__/mesh/core/src/nrf_mesh_configure.c.obj
 .debug_info    0x0000d81b      0xa5a examples/pb_remote/server/CMakeFiles/pb_remote_server_nrf52832_xxAA_s132_6.0.0.dir/__/__/__/mesh/core/src/msg_cache.c.obj
 .debug_info    0x0000e275     0x5091 examples/pb_remote/server/CMakeFiles/pb_remote_server_nrf52832_xxAA_s132_6.0.0.dir/__/__/__/mesh/core/src/transport.c.obj
 .debug_info    0x00013306     0x17e1 examples/pb_remote/server/CMakeFiles/pb_remote_server_nrf52832_xxAA_s132_6.0.0.dir/__/__/__/mesh/core/src/event.c.obj
 .debug_info    0x00014ae7     0x1927 examples/pb_remote/server/CMakeFiles/pb_remote_server_nrf52832_xxAA_s132_6.0.0.dir/__/__/__/mesh/core/src/packet_buffer.c.obj
 .debug_info    0x0001640e     0x1fec examples/pb_remote/server/CMakeFiles/pb_remote_server_nrf52832_xxAA_s132_6.0.0.dir/__/__/__/mesh/core/src/flash_manager_defrag.c.obj
 .debug_info    0x000183fa      0xd19 examples/pb_remote/server/CMakeFiles/pb_remote_server_nrf52832_xxAA_s132_6.0.0.dir/__/__/__/mesh/core/src/fifo.c.obj
 .debug_info    0x00019113      0xb20 examples/pb_remote/server/CMakeFiles/pb_remote_server_nrf52832_xxAA_s132_6.0.0.dir/__/__/__/mesh/core/src/nrf_flash.c.obj
 .debug_info    0x00019c33     0x118d examples/pb_remote/server/CMakeFiles/pb_remote_server_nrf52832_xxAA_s132_6.0.0.dir/__/__/__/mesh/core/src/packet_mgr.c.obj
 .debug_info    0x0001adc0     0x2825 examples/pb_remote/server/CMakeFiles/pb_remote_server_nrf52832_xxAA_s132_6.0.0.dir/__/__/__/mesh/core/src/net_state.c.obj
 .debug_info    0x0001d5e5     0x1948 examples/pb_remote/server/CMakeFiles/pb_remote_server_nrf52832_xxAA_s132_6.0.0.dir/__/__/__/mesh/core/src/mesh_flash.c.obj
 .debug_info    0x0001ef2d      0xa78 examples/pb_remote/server/CMakeFiles/pb_remote_server_nrf52832_xxAA_s132_6.0.0.dir/__/__/__/mesh/core/src/nrf_mesh_utils.c.obj
 .debug_info    0x0001f9a5     0x25db examples/pb_remote/server/CMakeFiles/pb_remote_server_nrf52832_xxAA_s132_6.0.0.dir/__/__/__/mesh/core/src/nrf_mesh.c.obj
 .debug_info    0x00021f80      0xb11 examples/pb_remote/server/CMakeFiles/pb_remote_server_nrf52832_xxAA_s132_6.0.0.dir/__/__/__/mesh/core/src/queue.c.obj
 .debug_info    0x00022a91      0x54f examples/pb_remote/server/CMakeFiles/pb_remote_server_nrf52832_xxAA_s132_6.0.0.dir/__/__/__/mesh/core/src/hal.c.obj
 .debug_info    0x00022fe0      0xf4c examples/pb_remote/server/CMakeFiles/pb_remote_server_nrf52832_xxAA_s132_6.0.0.dir/__/__/__/mesh/core/src/aes_cmac.c.obj
 .debug_info    0x00023f2c     0x10e0 examples/pb_remote/server/CMakeFiles/pb_remote_server_nrf52832_xxAA_s132_6.0.0.dir/__/__/__/mesh/core/src/timer_scheduler.c.obj
 .debug_info    0x0002500c      0xd90 examples/pb_remote/server/CMakeFiles/pb_remote_server_nrf52832_xxAA_s132_6.0.0.dir/__/__/__/mesh/core/src/timer.c.obj
 .debug_info    0x00025d9c      0x20b examples/pb_remote/server/CMakeFiles/pb_remote_server_nrf52832_xxAA_s132_6.0.0.dir/__/__/__/mesh/core/src/ticker.c.obj
 .debug_info    0x00025fa7      0x408 examples/pb_remote/server/CMakeFiles/pb_remote_server_nrf52832_xxAA_s132_6.0.0.dir/__/__/__/mesh/core/src/rand.c.obj
 .debug_info    0x000263af      0xb03 examples/pb_remote/server/CMakeFiles/pb_remote_server_nrf52832_xxAA_s132_6.0.0.dir/__/__/__/mesh/core/src/nrf_mesh_opt.c.obj
 .debug_info    0x00026eb2     0x1a1c examples/pb_remote/server/CMakeFiles/pb_remote_server_nrf52832_xxAA_s132_6.0.0.dir/__/__/__/mesh/core/src/timeslot.c.obj
 .debug_info    0x000288ce     0x1a78 examples/pb_remote/server/CMakeFiles/pb_remote_server_nrf52832_xxAA_s132_6.0.0.dir/__/__/__/mesh/core/src/bearer_event.c.obj
 .debug_info    0x0002a346     0x190b examples/pb_remote/server/CMakeFiles/pb_remote_server_nrf52832_xxAA_s132_6.0.0.dir/__/__/__/mesh/core/src/enc.c.obj
 .debug_info    0x0002bc51     0x1b41 examples/pb_remote/server/CMakeFiles/pb_remote_server_nrf52832_xxAA_s132_6.0.0.dir/__/__/__/mesh/core/src/network.c.obj
 .debug_info    0x0002d792     0x1cad examples/pb_remote/server/CMakeFiles/pb_remote_server_nrf52832_xxAA_s132_6.0.0.dir/__/__/__/mesh/core/src/net_packet.c.obj
 .debug_info    0x0002f43f      0xd86 examples/pb_remote/server/CMakeFiles/pb_remote_server_nrf52832_xxAA_s132_6.0.0.dir/__/__/__/mesh/core/src/msqueue.c.obj
 .debug_info    0x000301c5      0x4c8 examples/pb_remote/server/CMakeFiles/pb_remote_server_nrf52832_xxAA_s132_6.0.0.dir/__/__/__/mesh/core/src/nrf_mesh_keygen.c.obj
 .debug_info    0x0003068d      0x506 examples/pb_remote/server/CMakeFiles/pb_remote_server_nrf52832_xxAA_s132_6.0.0.dir/__/__/__/mesh/core/src/list.c.obj
 .debug_info    0x00030b93      0xe28 examples/pb_remote/server/CMakeFiles/pb_remote_server_nrf52832_xxAA_s132_6.0.0.dir/__/__/__/mesh/core/src/log.c.obj
 .debug_info    0x000319bb     0x3024 examples/pb_remote/server/CMakeFiles/pb_remote_server_nrf52832_xxAA_s132_6.0.0.dir/__/__/__/mesh/core/src/flash_manager.c.obj
 .debug_info    0x000349df     0x12c8 examples/pb_remote/server/CMakeFiles/pb_remote_server_nrf52832_xxAA_s132_6.0.0.dir/__/__/__/mesh/core/src/ccm_soft.c.obj
 .debug_info    0x00035ca7      0xa93 examples/pb_remote/server/CMakeFiles/pb_remote_server_nrf52832_xxAA_s132_6.0.0.dir/__/__/__/mesh/core/src/replay_cache.c.obj
 .debug_info    0x0003673a     0x1796 examples/pb_remote/server/CMakeFiles/pb_remote_server_nrf52832_xxAA_s132_6.0.0.dir/__/__/__/mesh/core/src/beacon.c.obj
 .debug_info    0x00037ed0      0xb9b examples/pb_remote/server/CMakeFiles/pb_remote_server_nrf52832_xxAA_s132_6.0.0.dir/__/__/__/mesh/core/src/flash_manager_internal.c.obj
 .debug_info    0x00038a6b     0x126f examples/pb_remote/server/CMakeFiles/pb_remote_server_nrf52832_xxAA_s132_6.0.0.dir/__/__/__/mesh/core/src/core_tx.c.obj
 .debug_info    0x00039cda     0x2520 examples/pb_remote/server/CMakeFiles/pb_remote_server_nrf52832_xxAA_s132_6.0.0.dir/__/__/__/mesh/core/src/heartbeat.c.obj
 .debug_info    0x0003c1fa     0x28c4 examples/pb_remote/server/CMakeFiles/pb_remote_server_nrf52832_xxAA_s132_6.0.0.dir/__/__/__/mesh/core/src/net_beacon.c.obj
 .debug_info    0x0003eabe     0x1a01 examples/pb_remote/server/CMakeFiles/pb_remote_server_nrf52832_xxAA_s132_6.0.0.dir/__/__/__/mesh/core/src/core_tx_adv.c.obj
 .debug_info    0x000404bf     0x115d examples/pb_remote/server/CMakeFiles/pb_remote_server_nrf52832_xxAA_s132_6.0.0.dir/__/__/__/mesh/bearer/src/ad_listener.c.obj
 .debug_info    0x0004161c      0xfbe examples/pb_remote/server/CMakeFiles/pb_remote_server_nrf52832_xxAA_s132_6.0.0.dir/__/__/__/mesh/bearer/src/ad_type_filter.c.obj
 .debug_info    0x000425da     0x25f5 examples/pb_remote/server/CMakeFiles/pb_remote_server_nrf52832_xxAA_s132_6.0.0.dir/__/__/__/mesh/bearer/src/advertiser.c.obj
 .debug_info    0x00044bcf     0x21a5 examples/pb_remote/server/CMakeFiles/pb_remote_server_nrf52832_xxAA_s132_6.0.0.dir/__/__/__/mesh/bearer/src/bearer_handler.c.obj
 .debug_info    0x00046d74     0x1a23 examples/pb_remote/server/CMakeFiles/pb_remote_server_nrf52832_xxAA_s132_6.0.0.dir/__/__/__/mesh/bearer/src/broadcast.c.obj
 .debug_info    0x00048797      0xcff examples/pb_remote/server/CMakeFiles/pb_remote_server_nrf52832_xxAA_s132_6.0.0.dir/__/__/__/mesh/bearer/src/filter_engine.c.obj
 .debug_info    0x00049496      0x8e4 examples/pb_remote/server/CMakeFiles/pb_remote_server_nrf52832_xxAA_s132_6.0.0.dir/__/__/__/mesh/bearer/src/radio_config.c.obj
 .debug_info    0x00049d7a     0x2750 examples/pb_remote/server/CMakeFiles/pb_remote_server_nrf52832_xxAA_s132_6.0.0.dir/__/__/__/mesh/bearer/src/scanner.c.obj
 .debug_info    0x0004c4ca      0xf2b examples/pb_remote/server/CMakeFiles/pb_remote_server_nrf52832_xxAA_s132_6.0.0.dir/__/__/__/mesh/bearer/src/mesh_pa_lna.c.obj
 .debug_info    0x0004d3f5     0x2823 examples/pb_remote/server/CMakeFiles/pb_remote_server_nrf52832_xxAA_s132_6.0.0.dir/__/__/__/mesh/prov/src/prov_provisionee.c.obj
 .debug_info    0x0004fc18     0x1ed2 examples/pb_remote/server/CMakeFiles/pb_remote_server_nrf52832_xxAA_s132_6.0.0.dir/__/__/__/mesh/prov/src/nrf_mesh_prov.c.obj
 .debug_info    0x00051aea     0x1586 examples/pb_remote/server/CMakeFiles/pb_remote_server_nrf52832_xxAA_s132_6.0.0.dir/__/__/__/mesh/prov/src/provisioning.c.obj
 .debug_info    0x00053070     0x1a5f examples/pb_remote/server/CMakeFiles/pb_remote_server_nrf52832_xxAA_s132_6.0.0.dir/__/__/__/mesh/prov/src/prov_beacon.c.obj
 .debug_info    0x00054acf     0x205e examples/pb_remote/server/CMakeFiles/pb_remote_server_nrf52832_xxAA_s132_6.0.0.dir/__/__/__/mesh/prov/src/prov_utils.c.obj
 .debug_info    0x00056b2d     0x3ac9 examples/pb_remote/server/CMakeFiles/pb_remote_server_nrf52832_xxAA_s132_6.0.0.dir/__/__/__/mesh/prov/src/prov_bearer_adv.c.obj
 .debug_info    0x0005a5f6     0x5078 examples/pb_remote/server/CMakeFiles/pb_remote_server_nrf52832_xxAA_s132_6.0.0.dir/__/__/__/models/pb_remote/src/pb_remote_server.c.obj
 .debug_info    0x0005f66e     0x1155 examples/pb_remote/server/CMakeFiles/pb_remote_server_nrf52832_xxAA_s132_6.0.0.dir/__/__/__/mesh/access/src/access_publish.c.obj
 .debug_info    0x000607c3     0x4a4b examples/pb_remote/server/CMakeFiles/pb_remote_server_nrf52832_xxAA_s132_6.0.0.dir/__/__/__/mesh/access/src/access.c.obj
 .debug_info    0x0006520e     0x19db examples/pb_remote/server/CMakeFiles/pb_remote_server_nrf52832_xxAA_s132_6.0.0.dir/__/__/__/mesh/access/src/access_reliable.c.obj
 .debug_info    0x00066be9      0xfbf examples/pb_remote/server/CMakeFiles/pb_remote_server_nrf52832_xxAA_s132_6.0.0.dir/__/__/__/mesh/access/src/access_loopback.c.obj
 .debug_info    0x00067ba8     0x679f examples/pb_remote/server/CMakeFiles/pb_remote_server_nrf52832_xxAA_s132_6.0.0.dir/__/__/__/mesh/access/src/device_state_manager.c.obj
 .debug_info    0x0006e347      0xed3 examples/pb_remote/server/CMakeFiles/pb_remote_server_nrf52832_xxAA_s132_6.0.0.dir/__/__/__/models/config/src/composition_data.c.obj
 .debug_info    0x0006f21a     0x8bce examples/pb_remote/server/CMakeFiles/pb_remote_server_nrf52832_xxAA_s132_6.0.0.dir/__/__/__/models/config/src/config_server.c.obj
 .debug_info    0x00077de8      0x126 examples/pb_remote/server/CMakeFiles/pb_remote_server_nrf52832_xxAA_s132_6.0.0.dir/__/__/__/models/config/src/packed_index_list.c.obj
 .debug_info    0x00077f0e     0x2629 examples/pb_remote/server/CMakeFiles/pb_remote_server_nrf52832_xxAA_s132_6.0.0.dir/__/__/__/models/health/src/health_server.c.obj
 .debug_info    0x0007a537     0x10f2 examples/pb_remote/server/CMakeFiles/pb_remote_server_nrf52832_xxAA_s132_6.0.0.dir/C_/b/nRF5_SDK_15.0.0_a53641a/modules/nrfx/mdk/system_nrf52.c.obj
 .debug_info    0x0007b629      0xaee examples/pb_remote/server/CMakeFiles/pb_remote_server_nrf52832_xxAA_s132_6.0.0.dir/C_/b/nRF5_SDK_15.0.0_a53641a/components/libraries/util/app_error.c.obj
 .debug_info    0x0007c117     0x1199 examples/pb_remote/server/CMakeFiles/pb_remote_server_nrf52832_xxAA_s132_6.0.0.dir/C_/b/nRF5_SDK_15.0.0_a53641a/components/libraries/util/app_util_platform.c.obj
 .debug_info    0x0007d2b0     0x21dd examples/pb_remote/server/CMakeFiles/pb_remote_server_nrf52832_xxAA_s132_6.0.0.dir/C_/b/nRF5_SDK_15.0.0_a53641a/components/libraries/timer/app_timer.c.obj
 .debug_info    0x0007f48d      0x974 examples/pb_remote/server/CMakeFiles/pb_remote_server_nrf52832_xxAA_s132_6.0.0.dir/C_/b/nRF5_SDK_15.0.0_a53641a/components/libraries/util/app_error_handler_gcc.c.obj
 .debug_info    0x0007fe01     0x1818 external/rtt/librtt_nrf52832_xxAA.a(SEGGER_RTT.c.obj)
 .debug_info    0x00081619      0xec1 external/rtt/librtt_nrf52832_xxAA.a(SEGGER_RTT_printf.c.obj)
 .debug_info    0x000824da     0x4511 external/micro-ecc/libuECC_nrf52832_xxAA.a(uECC.c.obj)

.debug_abbrev   0x00000000    0x115ba
 .debug_abbrev  0x00000000      0x46b examples/pb_remote/server/CMakeFiles/pb_remote_server_nrf52832_xxAA_s132_6.0.0.dir/src/main.c.obj
 .debug_abbrev  0x0000046b      0x36b examples/pb_remote/server/CMakeFiles/pb_remote_server_nrf52832_xxAA_s132_6.0.0.dir/__/__/__/mesh/stack/src/mesh_stack.c.obj
 .debug_abbrev  0x000007d6      0x432 examples/pb_remote/server/CMakeFiles/pb_remote_server_nrf52832_xxAA_s132_6.0.0.dir/__/__/common/src/mesh_softdevice_init.c.obj
 .debug_abbrev  0x00000c08      0x312 examples/pb_remote/server/CMakeFiles/pb_remote_server_nrf52832_xxAA_s132_6.0.0.dir/__/__/common/src/mesh_provisionee.c.obj
 .debug_abbrev  0x00000f1a      0x3a3 examples/pb_remote/server/CMakeFiles/pb_remote_server_nrf52832_xxAA_s132_6.0.0.dir/__/__/common/src/simple_hal.c.obj
 .debug_abbrev  0x000012bd      0x1ae examples/pb_remote/server/CMakeFiles/pb_remote_server_nrf52832_xxAA_s132_6.0.0.dir/__/__/nrf_mesh_weak.c.obj
 .debug_abbrev  0x0000146b      0x2de examples/pb_remote/server/CMakeFiles/pb_remote_server_nrf52832_xxAA_s132_6.0.0.dir/__/__/common/src/app_error_weak.c.obj
 .debug_abbrev  0x00001749      0x1f6 examples/pb_remote/server/CMakeFiles/pb_remote_server_nrf52832_xxAA_s132_6.0.0.dir/__/__/common/src/assertion_handler_weak.c.obj
 .debug_abbrev  0x0000193f      0x24b examples/pb_remote/server/CMakeFiles/pb_remote_server_nrf52832_xxAA_s132_6.0.0.dir/__/__/__/mesh/core/src/nrf_mesh_configure.c.obj
 .debug_abbrev  0x00001b8a      0x25d examples/pb_remote/server/CMakeFiles/pb_remote_server_nrf52832_xxAA_s132_6.0.0.dir/__/__/__/mesh/core/src/msg_cache.c.obj
 .debug_abbrev  0x00001de7      0x5f5 examples/pb_remote/server/CMakeFiles/pb_remote_server_nrf52832_xxAA_s132_6.0.0.dir/__/__/__/mesh/core/src/transport.c.obj
 .debug_abbrev  0x000023dc      0x314 examples/pb_remote/server/CMakeFiles/pb_remote_server_nrf52832_xxAA_s132_6.0.0.dir/__/__/__/mesh/core/src/event.c.obj
 .debug_abbrev  0x000026f0      0x45f examples/pb_remote/server/CMakeFiles/pb_remote_server_nrf52832_xxAA_s132_6.0.0.dir/__/__/__/mesh/core/src/packet_buffer.c.obj
 .debug_abbrev  0x00002b4f      0x50e examples/pb_remote/server/CMakeFiles/pb_remote_server_nrf52832_xxAA_s132_6.0.0.dir/__/__/__/mesh/core/src/flash_manager_defrag.c.obj
 .debug_abbrev  0x0000305d      0x2f2 examples/pb_remote/server/CMakeFiles/pb_remote_server_nrf52832_xxAA_s132_6.0.0.dir/__/__/__/mesh/core/src/fifo.c.obj
 .debug_abbrev  0x0000334f      0x21f examples/pb_remote/server/CMakeFiles/pb_remote_server_nrf52832_xxAA_s132_6.0.0.dir/__/__/__/mesh/core/src/nrf_flash.c.obj
 .debug_abbrev  0x0000356e      0x3b1 examples/pb_remote/server/CMakeFiles/pb_remote_server_nrf52832_xxAA_s132_6.0.0.dir/__/__/__/mesh/core/src/packet_mgr.c.obj
 .debug_abbrev  0x0000391f      0x552 examples/pb_remote/server/CMakeFiles/pb_remote_server_nrf52832_xxAA_s132_6.0.0.dir/__/__/__/mesh/core/src/net_state.c.obj
 .debug_abbrev  0x00003e71      0x453 examples/pb_remote/server/CMakeFiles/pb_remote_server_nrf52832_xxAA_s132_6.0.0.dir/__/__/__/mesh/core/src/mesh_flash.c.obj
 .debug_abbrev  0x000042c4      0x242 examples/pb_remote/server/CMakeFiles/pb_remote_server_nrf52832_xxAA_s132_6.0.0.dir/__/__/__/mesh/core/src/nrf_mesh_utils.c.obj
 .debug_abbrev  0x00004506      0x490 examples/pb_remote/server/CMakeFiles/pb_remote_server_nrf52832_xxAA_s132_6.0.0.dir/__/__/__/mesh/core/src/nrf_mesh.c.obj
 .debug_abbrev  0x00004996      0x247 examples/pb_remote/server/CMakeFiles/pb_remote_server_nrf52832_xxAA_s132_6.0.0.dir/__/__/__/mesh/core/src/queue.c.obj
 .debug_abbrev  0x00004bdd      0x1eb examples/pb_remote/server/CMakeFiles/pb_remote_server_nrf52832_xxAA_s132_6.0.0.dir/__/__/__/mesh/core/src/hal.c.obj
 .debug_abbrev  0x00004dc8      0x341 examples/pb_remote/server/CMakeFiles/pb_remote_server_nrf52832_xxAA_s132_6.0.0.dir/__/__/__/mesh/core/src/aes_cmac.c.obj
 .debug_abbrev  0x00005109      0x3bc examples/pb_remote/server/CMakeFiles/pb_remote_server_nrf52832_xxAA_s132_6.0.0.dir/__/__/__/mesh/core/src/timer_scheduler.c.obj
 .debug_abbrev  0x000054c5      0x337 examples/pb_remote/server/CMakeFiles/pb_remote_server_nrf52832_xxAA_s132_6.0.0.dir/__/__/__/mesh/core/src/timer.c.obj
 .debug_abbrev  0x000057fc      0x152 examples/pb_remote/server/CMakeFiles/pb_remote_server_nrf52832_xxAA_s132_6.0.0.dir/__/__/__/mesh/core/src/ticker.c.obj
 .debug_abbrev  0x0000594e      0x194 examples/pb_remote/server/CMakeFiles/pb_remote_server_nrf52832_xxAA_s132_6.0.0.dir/__/__/__/mesh/core/src/rand.c.obj
 .debug_abbrev  0x00005ae2      0x24a examples/pb_remote/server/CMakeFiles/pb_remote_server_nrf52832_xxAA_s132_6.0.0.dir/__/__/__/mesh/core/src/nrf_mesh_opt.c.obj
 .debug_abbrev  0x00005d2c      0x4a4 examples/pb_remote/server/CMakeFiles/pb_remote_server_nrf52832_xxAA_s132_6.0.0.dir/__/__/__/mesh/core/src/timeslot.c.obj
 .debug_abbrev  0x000061d0      0x4b5 examples/pb_remote/server/CMakeFiles/pb_remote_server_nrf52832_xxAA_s132_6.0.0.dir/__/__/__/mesh/core/src/bearer_event.c.obj
 .debug_abbrev  0x00006685      0x3be examples/pb_remote/server/CMakeFiles/pb_remote_server_nrf52832_xxAA_s132_6.0.0.dir/__/__/__/mesh/core/src/enc.c.obj
 .debug_abbrev  0x00006a43      0x496 examples/pb_remote/server/CMakeFiles/pb_remote_server_nrf52832_xxAA_s132_6.0.0.dir/__/__/__/mesh/core/src/network.c.obj
 .debug_abbrev  0x00006ed9      0x4a1 examples/pb_remote/server/CMakeFiles/pb_remote_server_nrf52832_xxAA_s132_6.0.0.dir/__/__/__/mesh/core/src/net_packet.c.obj
 .debug_abbrev  0x0000737a      0x2c0 examples/pb_remote/server/CMakeFiles/pb_remote_server_nrf52832_xxAA_s132_6.0.0.dir/__/__/__/mesh/core/src/msqueue.c.obj
 .debug_abbrev  0x0000763a      0x163 examples/pb_remote/server/CMakeFiles/pb_remote_server_nrf52832_xxAA_s132_6.0.0.dir/__/__/__/mesh/core/src/nrf_mesh_keygen.c.obj
 .debug_abbrev  0x0000779d      0x1a4 examples/pb_remote/server/CMakeFiles/pb_remote_server_nrf52832_xxAA_s132_6.0.0.dir/__/__/__/mesh/core/src/list.c.obj
 .debug_abbrev  0x00007941      0x24e examples/pb_remote/server/CMakeFiles/pb_remote_server_nrf52832_xxAA_s132_6.0.0.dir/__/__/__/mesh/core/src/log.c.obj
 .debug_abbrev  0x00007b8f      0x524 examples/pb_remote/server/CMakeFiles/pb_remote_server_nrf52832_xxAA_s132_6.0.0.dir/__/__/__/mesh/core/src/flash_manager.c.obj
 .debug_abbrev  0x000080b3      0x38c examples/pb_remote/server/CMakeFiles/pb_remote_server_nrf52832_xxAA_s132_6.0.0.dir/__/__/__/mesh/core/src/ccm_soft.c.obj
 .debug_abbrev  0x0000843f      0x270 examples/pb_remote/server/CMakeFiles/pb_remote_server_nrf52832_xxAA_s132_6.0.0.dir/__/__/__/mesh/core/src/replay_cache.c.obj
 .debug_abbrev  0x000086af      0x2c4 examples/pb_remote/server/CMakeFiles/pb_remote_server_nrf52832_xxAA_s132_6.0.0.dir/__/__/__/mesh/core/src/beacon.c.obj
 .debug_abbrev  0x00008973      0x288 examples/pb_remote/server/CMakeFiles/pb_remote_server_nrf52832_xxAA_s132_6.0.0.dir/__/__/__/mesh/core/src/flash_manager_internal.c.obj
 .debug_abbrev  0x00008bfb      0x2ed examples/pb_remote/server/CMakeFiles/pb_remote_server_nrf52832_xxAA_s132_6.0.0.dir/__/__/__/mesh/core/src/core_tx.c.obj
 .debug_abbrev  0x00008ee8      0x4af examples/pb_remote/server/CMakeFiles/pb_remote_server_nrf52832_xxAA_s132_6.0.0.dir/__/__/__/mesh/core/src/heartbeat.c.obj
 .debug_abbrev  0x00009397      0x4ac examples/pb_remote/server/CMakeFiles/pb_remote_server_nrf52832_xxAA_s132_6.0.0.dir/__/__/__/mesh/core/src/net_beacon.c.obj
 .debug_abbrev  0x00009843      0x308 examples/pb_remote/server/CMakeFiles/pb_remote_server_nrf52832_xxAA_s132_6.0.0.dir/__/__/__/mesh/core/src/core_tx_adv.c.obj
 .debug_abbrev  0x00009b4b      0x341 examples/pb_remote/server/CMakeFiles/pb_remote_server_nrf52832_xxAA_s132_6.0.0.dir/__/__/__/mesh/bearer/src/ad_listener.c.obj
 .debug_abbrev  0x00009e8c      0x368 examples/pb_remote/server/CMakeFiles/pb_remote_server_nrf52832_xxAA_s132_6.0.0.dir/__/__/__/mesh/bearer/src/ad_type_filter.c.obj
 .debug_abbrev  0x0000a1f4      0x4e4 examples/pb_remote/server/CMakeFiles/pb_remote_server_nrf52832_xxAA_s132_6.0.0.dir/__/__/__/mesh/bearer/src/advertiser.c.obj
 .debug_abbrev  0x0000a6d8      0x476 examples/pb_remote/server/CMakeFiles/pb_remote_server_nrf52832_xxAA_s132_6.0.0.dir/__/__/__/mesh/bearer/src/bearer_handler.c.obj
 .debug_abbrev  0x0000ab4e      0x3b9 examples/pb_remote/server/CMakeFiles/pb_remote_server_nrf52832_xxAA_s132_6.0.0.dir/__/__/__/mesh/bearer/src/broadcast.c.obj
 .debug_abbrev  0x0000af07      0x2a6 examples/pb_remote/server/CMakeFiles/pb_remote_server_nrf52832_xxAA_s132_6.0.0.dir/__/__/__/mesh/bearer/src/filter_engine.c.obj
 .debug_abbrev  0x0000b1ad      0x1d5 examples/pb_remote/server/CMakeFiles/pb_remote_server_nrf52832_xxAA_s132_6.0.0.dir/__/__/__/mesh/bearer/src/radio_config.c.obj
 .debug_abbrev  0x0000b382      0x52a examples/pb_remote/server/CMakeFiles/pb_remote_server_nrf52832_xxAA_s132_6.0.0.dir/__/__/__/mesh/bearer/src/scanner.c.obj
 .debug_abbrev  0x0000b8ac      0x2bd examples/pb_remote/server/CMakeFiles/pb_remote_server_nrf52832_xxAA_s132_6.0.0.dir/__/__/__/mesh/bearer/src/mesh_pa_lna.c.obj
 .debug_abbrev  0x0000bb69      0x491 examples/pb_remote/server/CMakeFiles/pb_remote_server_nrf52832_xxAA_s132_6.0.0.dir/__/__/__/mesh/prov/src/prov_provisionee.c.obj
 .debug_abbrev  0x0000bffa      0x434 examples/pb_remote/server/CMakeFiles/pb_remote_server_nrf52832_xxAA_s132_6.0.0.dir/__/__/__/mesh/prov/src/nrf_mesh_prov.c.obj
 .debug_abbrev  0x0000c42e      0x2a9 examples/pb_remote/server/CMakeFiles/pb_remote_server_nrf52832_xxAA_s132_6.0.0.dir/__/__/__/mesh/prov/src/provisioning.c.obj
 .debug_abbrev  0x0000c6d7      0x2c8 examples/pb_remote/server/CMakeFiles/pb_remote_server_nrf52832_xxAA_s132_6.0.0.dir/__/__/__/mesh/prov/src/prov_beacon.c.obj
 .debug_abbrev  0x0000c99f      0x3c1 examples/pb_remote/server/CMakeFiles/pb_remote_server_nrf52832_xxAA_s132_6.0.0.dir/__/__/__/mesh/prov/src/prov_utils.c.obj
 .debug_abbrev  0x0000cd60      0x4eb examples/pb_remote/server/CMakeFiles/pb_remote_server_nrf52832_xxAA_s132_6.0.0.dir/__/__/__/mesh/prov/src/prov_bearer_adv.c.obj
 .debug_abbrev  0x0000d24b      0x4a6 examples/pb_remote/server/CMakeFiles/pb_remote_server_nrf52832_xxAA_s132_6.0.0.dir/__/__/__/models/pb_remote/src/pb_remote_server.c.obj
 .debug_abbrev  0x0000d6f1      0x434 examples/pb_remote/server/CMakeFiles/pb_remote_server_nrf52832_xxAA_s132_6.0.0.dir/__/__/__/mesh/access/src/access_publish.c.obj
 .debug_abbrev  0x0000db25      0x61f examples/pb_remote/server/CMakeFiles/pb_remote_server_nrf52832_xxAA_s132_6.0.0.dir/__/__/__/mesh/access/src/access.c.obj
 .debug_abbrev  0x0000e144      0x43b examples/pb_remote/server/CMakeFiles/pb_remote_server_nrf52832_xxAA_s132_6.0.0.dir/__/__/__/mesh/access/src/access_reliable.c.obj
 .debug_abbrev  0x0000e57f      0x2be examples/pb_remote/server/CMakeFiles/pb_remote_server_nrf52832_xxAA_s132_6.0.0.dir/__/__/__/mesh/access/src/access_loopback.c.obj
 .debug_abbrev  0x0000e83d      0x60d examples/pb_remote/server/CMakeFiles/pb_remote_server_nrf52832_xxAA_s132_6.0.0.dir/__/__/__/mesh/access/src/device_state_manager.c.obj
 .debug_abbrev  0x0000ee4a      0x2db examples/pb_remote/server/CMakeFiles/pb_remote_server_nrf52832_xxAA_s132_6.0.0.dir/__/__/__/models/config/src/composition_data.c.obj
 .debug_abbrev  0x0000f125      0x55a examples/pb_remote/server/CMakeFiles/pb_remote_server_nrf52832_xxAA_s132_6.0.0.dir/__/__/__/models/config/src/config_server.c.obj
 .debug_abbrev  0x0000f67f       0x95 examples/pb_remote/server/CMakeFiles/pb_remote_server_nrf52832_xxAA_s132_6.0.0.dir/__/__/__/models/config/src/packed_index_list.c.obj
 .debug_abbrev  0x0000f714      0x4cf examples/pb_remote/server/CMakeFiles/pb_remote_server_nrf52832_xxAA_s132_6.0.0.dir/__/__/__/models/health/src/health_server.c.obj
 .debug_abbrev  0x0000fbe3      0x200 examples/pb_remote/server/CMakeFiles/pb_remote_server_nrf52832_xxAA_s132_6.0.0.dir/C_/b/nRF5_SDK_15.0.0_a53641a/modules/nrfx/mdk/system_nrf52.c.obj
 .debug_abbrev  0x0000fde3      0x232 examples/pb_remote/server/CMakeFiles/pb_remote_server_nrf52832_xxAA_s132_6.0.0.dir/C_/b/nRF5_SDK_15.0.0_a53641a/components/libraries/util/app_error.c.obj
 .debug_abbrev  0x00010015      0x35b examples/pb_remote/server/CMakeFiles/pb_remote_server_nrf52832_xxAA_s132_6.0.0.dir/C_/b/nRF5_SDK_15.0.0_a53641a/components/libraries/util/app_util_platform.c.obj
 .debug_abbrev  0x00010370      0x502 examples/pb_remote/server/CMakeFiles/pb_remote_server_nrf52832_xxAA_s132_6.0.0.dir/C_/b/nRF5_SDK_15.0.0_a53641a/components/libraries/timer/app_timer.c.obj
 .debug_abbrev  0x00010872      0x1bd examples/pb_remote/server/CMakeFiles/pb_remote_server_nrf52832_xxAA_s132_6.0.0.dir/C_/b/nRF5_SDK_15.0.0_a53641a/components/libraries/util/app_error_handler_gcc.c.obj
 .debug_abbrev  0x00010a2f      0x3a9 external/rtt/librtt_nrf52832_xxAA.a(SEGGER_RTT.c.obj)
 .debug_abbrev  0x00010dd8      0x32e external/rtt/librtt_nrf52832_xxAA.a(SEGGER_RTT_printf.c.obj)
 .debug_abbrev  0x00011106      0x4b4 external/micro-ecc/libuECC_nrf52832_xxAA.a(uECC.c.obj)

.debug_loc      0x00000000    0x2585e
 .debug_loc     0x00000000      0x185 examples/pb_remote/server/CMakeFiles/pb_remote_server_nrf52832_xxAA_s132_6.0.0.dir/src/main.c.obj
 .debug_loc     0x00000185      0x175 examples/pb_remote/server/CMakeFiles/pb_remote_server_nrf52832_xxAA_s132_6.0.0.dir/__/__/__/mesh/stack/src/mesh_stack.c.obj
 .debug_loc     0x000002fa      0x21b examples/pb_remote/server/CMakeFiles/pb_remote_server_nrf52832_xxAA_s132_6.0.0.dir/__/__/common/src/mesh_softdevice_init.c.obj
 .debug_loc     0x00000515      0x10a examples/pb_remote/server/CMakeFiles/pb_remote_server_nrf52832_xxAA_s132_6.0.0.dir/__/__/common/src/mesh_provisionee.c.obj
 .debug_loc     0x0000061f      0x243 examples/pb_remote/server/CMakeFiles/pb_remote_server_nrf52832_xxAA_s132_6.0.0.dir/__/__/common/src/simple_hal.c.obj
 .debug_loc     0x00000862      0x18c examples/pb_remote/server/CMakeFiles/pb_remote_server_nrf52832_xxAA_s132_6.0.0.dir/__/__/common/src/app_error_weak.c.obj
 .debug_loc     0x000009ee       0x2c examples/pb_remote/server/CMakeFiles/pb_remote_server_nrf52832_xxAA_s132_6.0.0.dir/__/__/common/src/assertion_handler_weak.c.obj
 .debug_loc     0x00000a1a       0x2c examples/pb_remote/server/CMakeFiles/pb_remote_server_nrf52832_xxAA_s132_6.0.0.dir/__/__/__/mesh/core/src/nrf_mesh_configure.c.obj
 .debug_loc     0x00000a46      0x10d examples/pb_remote/server/CMakeFiles/pb_remote_server_nrf52832_xxAA_s132_6.0.0.dir/__/__/__/mesh/core/src/msg_cache.c.obj
 .debug_loc     0x00000b53     0x259a examples/pb_remote/server/CMakeFiles/pb_remote_server_nrf52832_xxAA_s132_6.0.0.dir/__/__/__/mesh/core/src/transport.c.obj
 .debug_loc     0x000030ed      0x124 examples/pb_remote/server/CMakeFiles/pb_remote_server_nrf52832_xxAA_s132_6.0.0.dir/__/__/__/mesh/core/src/event.c.obj
 .debug_loc     0x00003211      0x816 examples/pb_remote/server/CMakeFiles/pb_remote_server_nrf52832_xxAA_s132_6.0.0.dir/__/__/__/mesh/core/src/packet_buffer.c.obj
 .debug_loc     0x00003a27      0x7fe examples/pb_remote/server/CMakeFiles/pb_remote_server_nrf52832_xxAA_s132_6.0.0.dir/__/__/__/mesh/core/src/flash_manager_defrag.c.obj
 .debug_loc     0x00004225      0x4f6 examples/pb_remote/server/CMakeFiles/pb_remote_server_nrf52832_xxAA_s132_6.0.0.dir/__/__/__/mesh/core/src/fifo.c.obj
 .debug_loc     0x0000471b      0x17a examples/pb_remote/server/CMakeFiles/pb_remote_server_nrf52832_xxAA_s132_6.0.0.dir/__/__/__/mesh/core/src/nrf_flash.c.obj
 .debug_loc     0x00004895      0x6c1 examples/pb_remote/server/CMakeFiles/pb_remote_server_nrf52832_xxAA_s132_6.0.0.dir/__/__/__/mesh/core/src/packet_mgr.c.obj
 .debug_loc     0x00004f56      0x936 examples/pb_remote/server/CMakeFiles/pb_remote_server_nrf52832_xxAA_s132_6.0.0.dir/__/__/__/mesh/core/src/net_state.c.obj
 .debug_loc     0x0000588c      0x8be examples/pb_remote/server/CMakeFiles/pb_remote_server_nrf52832_xxAA_s132_6.0.0.dir/__/__/__/mesh/core/src/mesh_flash.c.obj
 .debug_loc     0x0000614a       0xf8 examples/pb_remote/server/CMakeFiles/pb_remote_server_nrf52832_xxAA_s132_6.0.0.dir/__/__/__/mesh/core/src/nrf_mesh_utils.c.obj
 .debug_loc     0x00006242      0x4f8 examples/pb_remote/server/CMakeFiles/pb_remote_server_nrf52832_xxAA_s132_6.0.0.dir/__/__/__/mesh/core/src/nrf_mesh.c.obj
 .debug_loc     0x0000673a       0xf5 examples/pb_remote/server/CMakeFiles/pb_remote_server_nrf52832_xxAA_s132_6.0.0.dir/__/__/__/mesh/core/src/queue.c.obj
 .debug_loc     0x0000682f       0x84 examples/pb_remote/server/CMakeFiles/pb_remote_server_nrf52832_xxAA_s132_6.0.0.dir/__/__/__/mesh/core/src/hal.c.obj
 .debug_loc     0x000068b3      0x3d8 examples/pb_remote/server/CMakeFiles/pb_remote_server_nrf52832_xxAA_s132_6.0.0.dir/__/__/__/mesh/core/src/aes_cmac.c.obj
 .debug_loc     0x00006c8b      0x2d1 examples/pb_remote/server/CMakeFiles/pb_remote_server_nrf52832_xxAA_s132_6.0.0.dir/__/__/__/mesh/core/src/timer_scheduler.c.obj
 .debug_loc     0x00006f5c      0x5f9 examples/pb_remote/server/CMakeFiles/pb_remote_server_nrf52832_xxAA_s132_6.0.0.dir/__/__/__/mesh/core/src/timer.c.obj
 .debug_loc     0x00007555      0x14e examples/pb_remote/server/CMakeFiles/pb_remote_server_nrf52832_xxAA_s132_6.0.0.dir/__/__/__/mesh/core/src/rand.c.obj
 .debug_loc     0x000076a3      0x194 examples/pb_remote/server/CMakeFiles/pb_remote_server_nrf52832_xxAA_s132_6.0.0.dir/__/__/__/mesh/core/src/nrf_mesh_opt.c.obj
 .debug_loc     0x00007837      0x344 examples/pb_remote/server/CMakeFiles/pb_remote_server_nrf52832_xxAA_s132_6.0.0.dir/__/__/__/mesh/core/src/timeslot.c.obj
 .debug_loc     0x00007b7b      0x526 examples/pb_remote/server/CMakeFiles/pb_remote_server_nrf52832_xxAA_s132_6.0.0.dir/__/__/__/mesh/core/src/bearer_event.c.obj
 .debug_loc     0x000080a1      0x8e7 examples/pb_remote/server/CMakeFiles/pb_remote_server_nrf52832_xxAA_s132_6.0.0.dir/__/__/__/mesh/core/src/enc.c.obj
 .debug_loc     0x00008988      0x60c examples/pb_remote/server/CMakeFiles/pb_remote_server_nrf52832_xxAA_s132_6.0.0.dir/__/__/__/mesh/core/src/network.c.obj
 .debug_loc     0x00008f94      0x817 examples/pb_remote/server/CMakeFiles/pb_remote_server_nrf52832_xxAA_s132_6.0.0.dir/__/__/__/mesh/core/src/net_packet.c.obj
 .debug_loc     0x000097ab      0x2ed examples/pb_remote/server/CMakeFiles/pb_remote_server_nrf52832_xxAA_s132_6.0.0.dir/__/__/__/mesh/core/src/msqueue.c.obj
 .debug_loc     0x00009a98      0x1ee examples/pb_remote/server/CMakeFiles/pb_remote_server_nrf52832_xxAA_s132_6.0.0.dir/__/__/__/mesh/core/src/nrf_mesh_keygen.c.obj
 .debug_loc     0x00009c86      0x3bf examples/pb_remote/server/CMakeFiles/pb_remote_server_nrf52832_xxAA_s132_6.0.0.dir/__/__/__/mesh/core/src/list.c.obj
 .debug_loc     0x0000a045      0x348 examples/pb_remote/server/CMakeFiles/pb_remote_server_nrf52832_xxAA_s132_6.0.0.dir/__/__/__/mesh/core/src/log.c.obj
 .debug_loc     0x0000a38d     0x1439 examples/pb_remote/server/CMakeFiles/pb_remote_server_nrf52832_xxAA_s132_6.0.0.dir/__/__/__/mesh/core/src/flash_manager.c.obj
 .debug_loc     0x0000b7c6      0x4b6 examples/pb_remote/server/CMakeFiles/pb_remote_server_nrf52832_xxAA_s132_6.0.0.dir/__/__/__/mesh/core/src/ccm_soft.c.obj
 .debug_loc     0x0000bc7c      0x141 examples/pb_remote/server/CMakeFiles/pb_remote_server_nrf52832_xxAA_s132_6.0.0.dir/__/__/__/mesh/core/src/replay_cache.c.obj
 .debug_loc     0x0000bdbd      0x30d examples/pb_remote/server/CMakeFiles/pb_remote_server_nrf52832_xxAA_s132_6.0.0.dir/__/__/__/mesh/core/src/beacon.c.obj
 .debug_loc     0x0000c0ca       0xe3 examples/pb_remote/server/CMakeFiles/pb_remote_server_nrf52832_xxAA_s132_6.0.0.dir/__/__/__/mesh/core/src/flash_manager_internal.c.obj
 .debug_loc     0x0000c1ad      0x3b8 examples/pb_remote/server/CMakeFiles/pb_remote_server_nrf52832_xxAA_s132_6.0.0.dir/__/__/__/mesh/core/src/core_tx.c.obj
 .debug_loc     0x0000c565      0x57b examples/pb_remote/server/CMakeFiles/pb_remote_server_nrf52832_xxAA_s132_6.0.0.dir/__/__/__/mesh/core/src/heartbeat.c.obj
 .debug_loc     0x0000cae0      0x5f5 examples/pb_remote/server/CMakeFiles/pb_remote_server_nrf52832_xxAA_s132_6.0.0.dir/__/__/__/mesh/core/src/net_beacon.c.obj
 .debug_loc     0x0000d0d5      0x41f examples/pb_remote/server/CMakeFiles/pb_remote_server_nrf52832_xxAA_s132_6.0.0.dir/__/__/__/mesh/core/src/core_tx_adv.c.obj
 .debug_loc     0x0000d4f4      0x40d examples/pb_remote/server/CMakeFiles/pb_remote_server_nrf52832_xxAA_s132_6.0.0.dir/__/__/__/mesh/bearer/src/ad_listener.c.obj
 .debug_loc     0x0000d901      0x3ae examples/pb_remote/server/CMakeFiles/pb_remote_server_nrf52832_xxAA_s132_6.0.0.dir/__/__/__/mesh/bearer/src/ad_type_filter.c.obj
 .debug_loc     0x0000dcaf      0xcff examples/pb_remote/server/CMakeFiles/pb_remote_server_nrf52832_xxAA_s132_6.0.0.dir/__/__/__/mesh/bearer/src/advertiser.c.obj
 .debug_loc     0x0000e9ae      0x438 examples/pb_remote/server/CMakeFiles/pb_remote_server_nrf52832_xxAA_s132_6.0.0.dir/__/__/__/mesh/bearer/src/bearer_handler.c.obj
 .debug_loc     0x0000ede6      0x320 examples/pb_remote/server/CMakeFiles/pb_remote_server_nrf52832_xxAA_s132_6.0.0.dir/__/__/__/mesh/bearer/src/broadcast.c.obj
 .debug_loc     0x0000f106       0xde examples/pb_remote/server/CMakeFiles/pb_remote_server_nrf52832_xxAA_s132_6.0.0.dir/__/__/__/mesh/bearer/src/filter_engine.c.obj
 .debug_loc     0x0000f1e4      0x232 examples/pb_remote/server/CMakeFiles/pb_remote_server_nrf52832_xxAA_s132_6.0.0.dir/__/__/__/mesh/bearer/src/radio_config.c.obj
 .debug_loc     0x0000f416      0x48a examples/pb_remote/server/CMakeFiles/pb_remote_server_nrf52832_xxAA_s132_6.0.0.dir/__/__/__/mesh/bearer/src/scanner.c.obj
 .debug_loc     0x0000f8a0      0x1d6 examples/pb_remote/server/CMakeFiles/pb_remote_server_nrf52832_xxAA_s132_6.0.0.dir/__/__/__/mesh/bearer/src/mesh_pa_lna.c.obj
 .debug_loc     0x0000fa76      0x766 examples/pb_remote/server/CMakeFiles/pb_remote_server_nrf52832_xxAA_s132_6.0.0.dir/__/__/__/mesh/prov/src/prov_provisionee.c.obj
 .debug_loc     0x000101dc      0xa4b examples/pb_remote/server/CMakeFiles/pb_remote_server_nrf52832_xxAA_s132_6.0.0.dir/__/__/__/mesh/prov/src/nrf_mesh_prov.c.obj
 .debug_loc     0x00010c27      0x490 examples/pb_remote/server/CMakeFiles/pb_remote_server_nrf52832_xxAA_s132_6.0.0.dir/__/__/__/mesh/prov/src/provisioning.c.obj
 .debug_loc     0x000110b7      0x18c examples/pb_remote/server/CMakeFiles/pb_remote_server_nrf52832_xxAA_s132_6.0.0.dir/__/__/__/mesh/prov/src/prov_beacon.c.obj
 .debug_loc     0x00011243      0x40b examples/pb_remote/server/CMakeFiles/pb_remote_server_nrf52832_xxAA_s132_6.0.0.dir/__/__/__/mesh/prov/src/prov_utils.c.obj
 .debug_loc     0x0001164e     0x1457 examples/pb_remote/server/CMakeFiles/pb_remote_server_nrf52832_xxAA_s132_6.0.0.dir/__/__/__/mesh/prov/src/prov_bearer_adv.c.obj
 .debug_loc     0x00012aa5     0x14cb examples/pb_remote/server/CMakeFiles/pb_remote_server_nrf52832_xxAA_s132_6.0.0.dir/__/__/__/models/pb_remote/src/pb_remote_server.c.obj
 .debug_loc     0x00013f70      0x4d4 examples/pb_remote/server/CMakeFiles/pb_remote_server_nrf52832_xxAA_s132_6.0.0.dir/__/__/__/mesh/access/src/access_publish.c.obj
 .debug_loc     0x00014444     0x2325 examples/pb_remote/server/CMakeFiles/pb_remote_server_nrf52832_xxAA_s132_6.0.0.dir/__/__/__/mesh/access/src/access.c.obj
 .debug_loc     0x00016769      0x784 examples/pb_remote/server/CMakeFiles/pb_remote_server_nrf52832_xxAA_s132_6.0.0.dir/__/__/__/mesh/access/src/access_reliable.c.obj
 .debug_loc     0x00016eed       0x81 examples/pb_remote/server/CMakeFiles/pb_remote_server_nrf52832_xxAA_s132_6.0.0.dir/__/__/__/mesh/access/src/access_loopback.c.obj
 .debug_loc     0x00016f6e     0x3b4f examples/pb_remote/server/CMakeFiles/pb_remote_server_nrf52832_xxAA_s132_6.0.0.dir/__/__/__/mesh/access/src/device_state_manager.c.obj
 .debug_loc     0x0001aabd      0x26f examples/pb_remote/server/CMakeFiles/pb_remote_server_nrf52832_xxAA_s132_6.0.0.dir/__/__/__/models/config/src/composition_data.c.obj
 .debug_loc     0x0001ad2c     0x4d86 examples/pb_remote/server/CMakeFiles/pb_remote_server_nrf52832_xxAA_s132_6.0.0.dir/__/__/__/models/config/src/config_server.c.obj
 .debug_loc     0x0001fab2       0x89 examples/pb_remote/server/CMakeFiles/pb_remote_server_nrf52832_xxAA_s132_6.0.0.dir/__/__/__/models/config/src/packed_index_list.c.obj
 .debug_loc     0x0001fb3b     0x1373 examples/pb_remote/server/CMakeFiles/pb_remote_server_nrf52832_xxAA_s132_6.0.0.dir/__/__/__/models/health/src/health_server.c.obj
 .debug_loc     0x00020eae       0xb5 examples/pb_remote/server/CMakeFiles/pb_remote_server_nrf52832_xxAA_s132_6.0.0.dir/C_/b/nRF5_SDK_15.0.0_a53641a/components/libraries/util/app_error.c.obj
 .debug_loc     0x00020f63       0xc1 examples/pb_remote/server/CMakeFiles/pb_remote_server_nrf52832_xxAA_s132_6.0.0.dir/C_/b/nRF5_SDK_15.0.0_a53641a/components/libraries/util/app_util_platform.c.obj
 .debug_loc     0x00021024      0xa5d examples/pb_remote/server/CMakeFiles/pb_remote_server_nrf52832_xxAA_s132_6.0.0.dir/C_/b/nRF5_SDK_15.0.0_a53641a/components/libraries/timer/app_timer.c.obj
 .debug_loc     0x00021a81       0x63 examples/pb_remote/server/CMakeFiles/pb_remote_server_nrf52832_xxAA_s132_6.0.0.dir/C_/b/nRF5_SDK_15.0.0_a53641a/components/libraries/util/app_error_handler_gcc.c.obj
 .debug_loc     0x00021ae4     0x1222 external/rtt/librtt_nrf52832_xxAA.a(SEGGER_RTT.c.obj)
 .debug_loc     0x00022d06      0x70f external/rtt/librtt_nrf52832_xxAA.a(SEGGER_RTT_printf.c.obj)
 .debug_loc     0x00023415     0x2449 external/micro-ecc/libuECC_nrf52832_xxAA.a(uECC.c.obj)

.debug_aranges  0x00000000     0x2548
 .debug_aranges
                0x00000000       0x38 examples/pb_remote/server/CMakeFiles/pb_remote_server_nrf52832_xxAA_s132_6.0.0.dir/src/main.c.obj
 .debug_aranges
                0x00000038       0x50 examples/pb_remote/server/CMakeFiles/pb_remote_server_nrf52832_xxAA_s132_6.0.0.dir/__/__/__/mesh/stack/src/mesh_stack.c.obj
 .debug_aranges
                0x00000088       0x48 examples/pb_remote/server/CMakeFiles/pb_remote_server_nrf52832_xxAA_s132_6.0.0.dir/__/__/common/src/mesh_softdevice_init.c.obj
 .debug_aranges
                0x000000d0       0x30 examples/pb_remote/server/CMakeFiles/pb_remote_server_nrf52832_xxAA_s132_6.0.0.dir/__/__/common/src/mesh_provisionee.c.obj
 .debug_aranges
                0x00000100       0x58 examples/pb_remote/server/CMakeFiles/pb_remote_server_nrf52832_xxAA_s132_6.0.0.dir/__/__/common/src/simple_hal.c.obj
 .debug_aranges
                0x00000158       0x28 examples/pb_remote/server/CMakeFiles/pb_remote_server_nrf52832_xxAA_s132_6.0.0.dir/__/__/nrf_mesh_weak.c.obj
 .debug_aranges
                0x00000180       0x20 examples/pb_remote/server/CMakeFiles/pb_remote_server_nrf52832_xxAA_s132_6.0.0.dir/__/__/common/src/app_error_weak.c.obj
 .debug_aranges
                0x000001a0       0x20 examples/pb_remote/server/CMakeFiles/pb_remote_server_nrf52832_xxAA_s132_6.0.0.dir/__/__/common/src/assertion_handler_weak.c.obj
 .debug_aranges
                0x000001c0       0x30 examples/pb_remote/server/CMakeFiles/pb_remote_server_nrf52832_xxAA_s132_6.0.0.dir/__/__/__/mesh/core/src/nrf_mesh_configure.c.obj
 .debug_aranges
                0x000001f0       0x38 examples/pb_remote/server/CMakeFiles/pb_remote_server_nrf52832_xxAA_s132_6.0.0.dir/__/__/__/mesh/core/src/msg_cache.c.obj
 .debug_aranges
                0x00000228      0x110 examples/pb_remote/server/CMakeFiles/pb_remote_server_nrf52832_xxAA_s132_6.0.0.dir/__/__/__/mesh/core/src/transport.c.obj
 .debug_aranges
                0x00000338       0x30 examples/pb_remote/server/CMakeFiles/pb_remote_server_nrf52832_xxAA_s132_6.0.0.dir/__/__/__/mesh/core/src/event.c.obj
 .debug_aranges
                0x00000368       0x68 examples/pb_remote/server/CMakeFiles/pb_remote_server_nrf52832_xxAA_s132_6.0.0.dir/__/__/__/mesh/core/src/packet_buffer.c.obj
 .debug_aranges
                0x000003d0       0xc8 examples/pb_remote/server/CMakeFiles/pb_remote_server_nrf52832_xxAA_s132_6.0.0.dir/__/__/__/mesh/core/src/flash_manager_defrag.c.obj
 .debug_aranges
                0x00000498       0x60 examples/pb_remote/server/CMakeFiles/pb_remote_server_nrf52832_xxAA_s132_6.0.0.dir/__/__/__/mesh/core/src/fifo.c.obj
 .debug_aranges
                0x000004f8       0x30 examples/pb_remote/server/CMakeFiles/pb_remote_server_nrf52832_xxAA_s132_6.0.0.dir/__/__/__/mesh/core/src/nrf_flash.c.obj
 .debug_aranges
                0x00000528       0x48 examples/pb_remote/server/CMakeFiles/pb_remote_server_nrf52832_xxAA_s132_6.0.0.dir/__/__/__/mesh/core/src/packet_mgr.c.obj
 .debug_aranges
                0x00000570       0xd0 examples/pb_remote/server/CMakeFiles/pb_remote_server_nrf52832_xxAA_s132_6.0.0.dir/__/__/__/mesh/core/src/net_state.c.obj
 .debug_aranges
                0x00000640       0x60 examples/pb_remote/server/CMakeFiles/pb_remote_server_nrf52832_xxAA_s132_6.0.0.dir/__/__/__/mesh/core/src/mesh_flash.c.obj
 .debug_aranges
                0x000006a0       0x30 examples/pb_remote/server/CMakeFiles/pb_remote_server_nrf52832_xxAA_s132_6.0.0.dir/__/__/__/mesh/core/src/nrf_mesh_utils.c.obj
 .debug_aranges
                0x000006d0       0x98 examples/pb_remote/server/CMakeFiles/pb_remote_server_nrf52832_xxAA_s132_6.0.0.dir/__/__/__/mesh/core/src/nrf_mesh.c.obj
 .debug_aranges
                0x00000768       0x38 examples/pb_remote/server/CMakeFiles/pb_remote_server_nrf52832_xxAA_s132_6.0.0.dir/__/__/__/mesh/core/src/queue.c.obj
 .debug_aranges
                0x000007a0       0x38 examples/pb_remote/server/CMakeFiles/pb_remote_server_nrf52832_xxAA_s132_6.0.0.dir/__/__/__/mesh/core/src/hal.c.obj
 .debug_aranges
                0x000007d8       0x30 examples/pb_remote/server/CMakeFiles/pb_remote_server_nrf52832_xxAA_s132_6.0.0.dir/__/__/__/mesh/core/src/aes_cmac.c.obj
 .debug_aranges
                0x00000808       0x68 examples/pb_remote/server/CMakeFiles/pb_remote_server_nrf52832_xxAA_s132_6.0.0.dir/__/__/__/mesh/core/src/timer_scheduler.c.obj
 .debug_aranges
                0x00000870       0x60 examples/pb_remote/server/CMakeFiles/pb_remote_server_nrf52832_xxAA_s132_6.0.0.dir/__/__/__/mesh/core/src/timer.c.obj
 .debug_aranges
                0x000008d0       0x30 examples/pb_remote/server/CMakeFiles/pb_remote_server_nrf52832_xxAA_s132_6.0.0.dir/__/__/__/mesh/core/src/ticker.c.obj
 .debug_aranges
                0x00000900       0x40 examples/pb_remote/server/CMakeFiles/pb_remote_server_nrf52832_xxAA_s132_6.0.0.dir/__/__/__/mesh/core/src/rand.c.obj
 .debug_aranges
                0x00000940       0x28 examples/pb_remote/server/CMakeFiles/pb_remote_server_nrf52832_xxAA_s132_6.0.0.dir/__/__/__/mesh/core/src/nrf_mesh_opt.c.obj
 .debug_aranges
                0x00000968       0xb8 examples/pb_remote/server/CMakeFiles/pb_remote_server_nrf52832_xxAA_s132_6.0.0.dir/__/__/__/mesh/core/src/timeslot.c.obj
 .debug_aranges
                0x00000a20       0x98 examples/pb_remote/server/CMakeFiles/pb_remote_server_nrf52832_xxAA_s132_6.0.0.dir/__/__/__/mesh/core/src/bearer_event.c.obj
 .debug_aranges
                0x00000ab8       0x78 examples/pb_remote/server/CMakeFiles/pb_remote_server_nrf52832_xxAA_s132_6.0.0.dir/__/__/__/mesh/core/src/enc.c.obj
 .debug_aranges
                0x00000b30       0x58 examples/pb_remote/server/CMakeFiles/pb_remote_server_nrf52832_xxAA_s132_6.0.0.dir/__/__/__/mesh/core/src/network.c.obj
 .debug_aranges
                0x00000b88       0x68 examples/pb_remote/server/CMakeFiles/pb_remote_server_nrf52832_xxAA_s132_6.0.0.dir/__/__/__/mesh/core/src/net_packet.c.obj
 .debug_aranges
                0x00000bf0       0x48 examples/pb_remote/server/CMakeFiles/pb_remote_server_nrf52832_xxAA_s132_6.0.0.dir/__/__/__/mesh/core/src/msqueue.c.obj
 .debug_aranges
                0x00000c38       0x40 examples/pb_remote/server/CMakeFiles/pb_remote_server_nrf52832_xxAA_s132_6.0.0.dir/__/__/__/mesh/core/src/nrf_mesh_keygen.c.obj
 .debug_aranges
                0x00000c78       0x48 examples/pb_remote/server/CMakeFiles/pb_remote_server_nrf52832_xxAA_s132_6.0.0.dir/__/__/__/mesh/core/src/list.c.obj
 .debug_aranges
                0x00000cc0       0x48 examples/pb_remote/server/CMakeFiles/pb_remote_server_nrf52832_xxAA_s132_6.0.0.dir/__/__/__/mesh/core/src/log.c.obj
 .debug_aranges
                0x00000d08       0xf8 examples/pb_remote/server/CMakeFiles/pb_remote_server_nrf52832_xxAA_s132_6.0.0.dir/__/__/__/mesh/core/src/flash_manager.c.obj
 .debug_aranges
                0x00000e00       0x50 examples/pb_remote/server/CMakeFiles/pb_remote_server_nrf52832_xxAA_s132_6.0.0.dir/__/__/__/mesh/core/src/ccm_soft.c.obj
 .debug_aranges
                0x00000e50       0x40 examples/pb_remote/server/CMakeFiles/pb_remote_server_nrf52832_xxAA_s132_6.0.0.dir/__/__/__/mesh/core/src/replay_cache.c.obj
 .debug_aranges
                0x00000e90       0x28 examples/pb_remote/server/CMakeFiles/pb_remote_server_nrf52832_xxAA_s132_6.0.0.dir/__/__/__/mesh/core/src/beacon.c.obj
 .debug_aranges
                0x00000eb8       0x20 examples/pb_remote/server/CMakeFiles/pb_remote_server_nrf52832_xxAA_s132_6.0.0.dir/__/__/__/mesh/core/src/flash_manager_internal.c.obj
 .debug_aranges
                0x00000ed8       0x58 examples/pb_remote/server/CMakeFiles/pb_remote_server_nrf52832_xxAA_s132_6.0.0.dir/__/__/__/mesh/core/src/core_tx.c.obj
 .debug_aranges
                0x00000f30       0x70 examples/pb_remote/server/CMakeFiles/pb_remote_server_nrf52832_xxAA_s132_6.0.0.dir/__/__/__/mesh/core/src/heartbeat.c.obj
 .debug_aranges
                0x00000fa0       0x68 examples/pb_remote/server/CMakeFiles/pb_remote_server_nrf52832_xxAA_s132_6.0.0.dir/__/__/__/mesh/core/src/net_beacon.c.obj
 .debug_aranges
                0x00001008       0x70 examples/pb_remote/server/CMakeFiles/pb_remote_server_nrf52832_xxAA_s132_6.0.0.dir/__/__/__/mesh/core/src/core_tx_adv.c.obj
 .debug_aranges
                0x00001078       0x30 examples/pb_remote/server/CMakeFiles/pb_remote_server_nrf52832_xxAA_s132_6.0.0.dir/__/__/__/mesh/bearer/src/ad_listener.c.obj
 .debug_aranges
                0x000010a8       0x58 examples/pb_remote/server/CMakeFiles/pb_remote_server_nrf52832_xxAA_s132_6.0.0.dir/__/__/__/mesh/bearer/src/ad_type_filter.c.obj
 .debug_aranges
                0x00001100       0xb8 examples/pb_remote/server/CMakeFiles/pb_remote_server_nrf52832_xxAA_s132_6.0.0.dir/__/__/__/mesh/bearer/src/advertiser.c.obj
 .debug_aranges
                0x000011b8       0x88 examples/pb_remote/server/CMakeFiles/pb_remote_server_nrf52832_xxAA_s132_6.0.0.dir/__/__/__/mesh/bearer/src/bearer_handler.c.obj
 .debug_aranges
                0x00001240       0x30 examples/pb_remote/server/CMakeFiles/pb_remote_server_nrf52832_xxAA_s132_6.0.0.dir/__/__/__/mesh/bearer/src/broadcast.c.obj
 .debug_aranges
                0x00001270       0x38 examples/pb_remote/server/CMakeFiles/pb_remote_server_nrf52832_xxAA_s132_6.0.0.dir/__/__/__/mesh/bearer/src/filter_engine.c.obj
 .debug_aranges
                0x000012a8       0x40 examples/pb_remote/server/CMakeFiles/pb_remote_server_nrf52832_xxAA_s132_6.0.0.dir/__/__/__/mesh/bearer/src/radio_config.c.obj
 .debug_aranges
                0x000012e8       0xe8 examples/pb_remote/server/CMakeFiles/pb_remote_server_nrf52832_xxAA_s132_6.0.0.dir/__/__/__/mesh/bearer/src/scanner.c.obj
 .debug_aranges
                0x000013d0       0x70 examples/pb_remote/server/CMakeFiles/pb_remote_server_nrf52832_xxAA_s132_6.0.0.dir/__/__/__/mesh/bearer/src/mesh_pa_lna.c.obj
 .debug_aranges
                0x00001440       0x70 examples/pb_remote/server/CMakeFiles/pb_remote_server_nrf52832_xxAA_s132_6.0.0.dir/__/__/__/mesh/prov/src/prov_provisionee.c.obj
 .debug_aranges
                0x000014b0       0x88 examples/pb_remote/server/CMakeFiles/pb_remote_server_nrf52832_xxAA_s132_6.0.0.dir/__/__/__/mesh/prov/src/nrf_mesh_prov.c.obj
 .debug_aranges
                0x00001538       0x80 examples/pb_remote/server/CMakeFiles/pb_remote_server_nrf52832_xxAA_s132_6.0.0.dir/__/__/__/mesh/prov/src/provisioning.c.obj
 .debug_aranges
                0x000015b8       0x38 examples/pb_remote/server/CMakeFiles/pb_remote_server_nrf52832_xxAA_s132_6.0.0.dir/__/__/__/mesh/prov/src/prov_beacon.c.obj
 .debug_aranges
                0x000015f0       0x70 examples/pb_remote/server/CMakeFiles/pb_remote_server_nrf52832_xxAA_s132_6.0.0.dir/__/__/__/mesh/prov/src/prov_utils.c.obj
 .debug_aranges
                0x00001660       0xc8 examples/pb_remote/server/CMakeFiles/pb_remote_server_nrf52832_xxAA_s132_6.0.0.dir/__/__/__/mesh/prov/src/prov_bearer_adv.c.obj
 .debug_aranges
                0x00001728      0x118 examples/pb_remote/server/CMakeFiles/pb_remote_server_nrf52832_xxAA_s132_6.0.0.dir/__/__/__/models/pb_remote/src/pb_remote_server.c.obj
 .debug_aranges
                0x00001840       0x50 examples/pb_remote/server/CMakeFiles/pb_remote_server_nrf52832_xxAA_s132_6.0.0.dir/__/__/__/mesh/access/src/access_publish.c.obj
 .debug_aranges
                0x00001890      0x1d0 examples/pb_remote/server/CMakeFiles/pb_remote_server_nrf52832_xxAA_s132_6.0.0.dir/__/__/__/mesh/access/src/access.c.obj
 .debug_aranges
                0x00001a60       0x50 examples/pb_remote/server/CMakeFiles/pb_remote_server_nrf52832_xxAA_s132_6.0.0.dir/__/__/__/mesh/access/src/access_reliable.c.obj
 .debug_aranges
                0x00001ab0       0x38 examples/pb_remote/server/CMakeFiles/pb_remote_server_nrf52832_xxAA_s132_6.0.0.dir/__/__/__/mesh/access/src/access_loopback.c.obj
 .debug_aranges
                0x00001ae8      0x328 examples/pb_remote/server/CMakeFiles/pb_remote_server_nrf52832_xxAA_s132_6.0.0.dir/__/__/__/mesh/access/src/device_state_manager.c.obj
 .debug_aranges
                0x00001e10       0x20 examples/pb_remote/server/CMakeFiles/pb_remote_server_nrf52832_xxAA_s132_6.0.0.dir/__/__/__/models/config/src/composition_data.c.obj
 .debug_aranges
                0x00001e30      0x220 examples/pb_remote/server/CMakeFiles/pb_remote_server_nrf52832_xxAA_s132_6.0.0.dir/__/__/__/models/config/src/config_server.c.obj
 .debug_aranges
                0x00002050       0x20 examples/pb_remote/server/CMakeFiles/pb_remote_server_nrf52832_xxAA_s132_6.0.0.dir/__/__/__/models/config/src/packed_index_list.c.obj
 .debug_aranges
                0x00002070       0xc8 examples/pb_remote/server/CMakeFiles/pb_remote_server_nrf52832_xxAA_s132_6.0.0.dir/__/__/__/models/health/src/health_server.c.obj
 .debug_aranges
                0x00002138       0x38 examples/pb_remote/server/CMakeFiles/pb_remote_server_nrf52832_xxAA_s132_6.0.0.dir/C_/b/nRF5_SDK_15.0.0_a53641a/modules/nrfx/mdk/system_nrf52.c.obj
 .debug_aranges
                0x00002170       0x28 examples/pb_remote/server/CMakeFiles/pb_remote_server_nrf52832_xxAA_s132_6.0.0.dir/C_/b/nRF5_SDK_15.0.0_a53641a/components/libraries/util/app_error.c.obj
 .debug_aranges
                0x00002198       0x48 examples/pb_remote/server/CMakeFiles/pb_remote_server_nrf52832_xxAA_s132_6.0.0.dir/C_/b/nRF5_SDK_15.0.0_a53641a/components/libraries/util/app_util_platform.c.obj
 .debug_aranges
                0x000021e0       0x90 examples/pb_remote/server/CMakeFiles/pb_remote_server_nrf52832_xxAA_s132_6.0.0.dir/C_/b/nRF5_SDK_15.0.0_a53641a/components/libraries/timer/app_timer.c.obj
 .debug_aranges
                0x00002270       0x20 examples/pb_remote/server/CMakeFiles/pb_remote_server_nrf52832_xxAA_s132_6.0.0.dir/C_/b/nRF5_SDK_15.0.0_a53641a/components/libraries/util/app_error_handler_gcc.c.obj
 .debug_aranges
                0x00002290       0xd8 external/rtt/librtt_nrf52832_xxAA.a(SEGGER_RTT.c.obj)
 .debug_aranges
                0x00002368       0x38 external/rtt/librtt_nrf52832_xxAA.a(SEGGER_RTT_printf.c.obj)
 .debug_aranges
                0x000023a0      0x1a8 external/micro-ecc/libuECC_nrf52832_xxAA.a(uECC.c.obj)

.debug_ranges   0x00000000     0x6348
 .debug_ranges  0x00000000       0xc0 examples/pb_remote/server/CMakeFiles/pb_remote_server_nrf52832_xxAA_s132_6.0.0.dir/src/main.c.obj
 .debug_ranges  0x000000c0       0x70 examples/pb_remote/server/CMakeFiles/pb_remote_server_nrf52832_xxAA_s132_6.0.0.dir/__/__/__/mesh/stack/src/mesh_stack.c.obj
 .debug_ranges  0x00000130       0xe8 examples/pb_remote/server/CMakeFiles/pb_remote_server_nrf52832_xxAA_s132_6.0.0.dir/__/__/common/src/mesh_softdevice_init.c.obj
 .debug_ranges  0x00000218       0x50 examples/pb_remote/server/CMakeFiles/pb_remote_server_nrf52832_xxAA_s132_6.0.0.dir/__/__/common/src/mesh_provisionee.c.obj
 .debug_ranges  0x00000268       0x98 examples/pb_remote/server/CMakeFiles/pb_remote_server_nrf52832_xxAA_s132_6.0.0.dir/__/__/common/src/simple_hal.c.obj
 .debug_ranges  0x00000300       0x18 examples/pb_remote/server/CMakeFiles/pb_remote_server_nrf52832_xxAA_s132_6.0.0.dir/__/__/nrf_mesh_weak.c.obj
 .debug_ranges  0x00000318       0xb8 examples/pb_remote/server/CMakeFiles/pb_remote_server_nrf52832_xxAA_s132_6.0.0.dir/__/__/common/src/app_error_weak.c.obj
 .debug_ranges  0x000003d0       0x10 examples/pb_remote/server/CMakeFiles/pb_remote_server_nrf52832_xxAA_s132_6.0.0.dir/__/__/common/src/assertion_handler_weak.c.obj
 .debug_ranges  0x000003e0       0x20 examples/pb_remote/server/CMakeFiles/pb_remote_server_nrf52832_xxAA_s132_6.0.0.dir/__/__/__/mesh/core/src/nrf_mesh_configure.c.obj
 .debug_ranges  0x00000400       0x48 examples/pb_remote/server/CMakeFiles/pb_remote_server_nrf52832_xxAA_s132_6.0.0.dir/__/__/__/mesh/core/src/msg_cache.c.obj
 .debug_ranges  0x00000448      0x5d0 examples/pb_remote/server/CMakeFiles/pb_remote_server_nrf52832_xxAA_s132_6.0.0.dir/__/__/__/mesh/core/src/transport.c.obj
 .debug_ranges  0x00000a18       0x50 examples/pb_remote/server/CMakeFiles/pb_remote_server_nrf52832_xxAA_s132_6.0.0.dir/__/__/__/mesh/core/src/event.c.obj
 .debug_ranges  0x00000a68      0x128 examples/pb_remote/server/CMakeFiles/pb_remote_server_nrf52832_xxAA_s132_6.0.0.dir/__/__/__/mesh/core/src/packet_buffer.c.obj
 .debug_ranges  0x00000b90      0x230 examples/pb_remote/server/CMakeFiles/pb_remote_server_nrf52832_xxAA_s132_6.0.0.dir/__/__/__/mesh/core/src/flash_manager_defrag.c.obj
 .debug_ranges  0x00000dc0       0x68 examples/pb_remote/server/CMakeFiles/pb_remote_server_nrf52832_xxAA_s132_6.0.0.dir/__/__/__/mesh/core/src/fifo.c.obj
 .debug_ranges  0x00000e28       0x38 examples/pb_remote/server/CMakeFiles/pb_remote_server_nrf52832_xxAA_s132_6.0.0.dir/__/__/__/mesh/core/src/nrf_flash.c.obj
 .debug_ranges  0x00000e60       0xe0 examples/pb_remote/server/CMakeFiles/pb_remote_server_nrf52832_xxAA_s132_6.0.0.dir/__/__/__/mesh/core/src/packet_mgr.c.obj
 .debug_ranges  0x00000f40      0x1f8 examples/pb_remote/server/CMakeFiles/pb_remote_server_nrf52832_xxAA_s132_6.0.0.dir/__/__/__/mesh/core/src/net_state.c.obj
 .debug_ranges  0x00001138      0x1c8 examples/pb_remote/server/CMakeFiles/pb_remote_server_nrf52832_xxAA_s132_6.0.0.dir/__/__/__/mesh/core/src/mesh_flash.c.obj
 .debug_ranges  0x00001300       0x20 examples/pb_remote/server/CMakeFiles/pb_remote_server_nrf52832_xxAA_s132_6.0.0.dir/__/__/__/mesh/core/src/nrf_mesh_utils.c.obj
 .debug_ranges  0x00001320       0xe8 examples/pb_remote/server/CMakeFiles/pb_remote_server_nrf52832_xxAA_s132_6.0.0.dir/__/__/__/mesh/core/src/nrf_mesh.c.obj
 .debug_ranges  0x00001408       0x28 examples/pb_remote/server/CMakeFiles/pb_remote_server_nrf52832_xxAA_s132_6.0.0.dir/__/__/__/mesh/core/src/queue.c.obj
 .debug_ranges  0x00001430       0x28 examples/pb_remote/server/CMakeFiles/pb_remote_server_nrf52832_xxAA_s132_6.0.0.dir/__/__/__/mesh/core/src/hal.c.obj
 .debug_ranges  0x00001458      0x120 examples/pb_remote/server/CMakeFiles/pb_remote_server_nrf52832_xxAA_s132_6.0.0.dir/__/__/__/mesh/core/src/aes_cmac.c.obj
 .debug_ranges  0x00001578       0xf0 examples/pb_remote/server/CMakeFiles/pb_remote_server_nrf52832_xxAA_s132_6.0.0.dir/__/__/__/mesh/core/src/timer_scheduler.c.obj
 .debug_ranges  0x00001668       0xd8 examples/pb_remote/server/CMakeFiles/pb_remote_server_nrf52832_xxAA_s132_6.0.0.dir/__/__/__/mesh/core/src/timer.c.obj
 .debug_ranges  0x00001740       0x20 examples/pb_remote/server/CMakeFiles/pb_remote_server_nrf52832_xxAA_s132_6.0.0.dir/__/__/__/mesh/core/src/ticker.c.obj
 .debug_ranges  0x00001760       0x30 examples/pb_remote/server/CMakeFiles/pb_remote_server_nrf52832_xxAA_s132_6.0.0.dir/__/__/__/mesh/core/src/rand.c.obj
 .debug_ranges  0x00001790       0x18 examples/pb_remote/server/CMakeFiles/pb_remote_server_nrf52832_xxAA_s132_6.0.0.dir/__/__/__/mesh/core/src/nrf_mesh_opt.c.obj
 .debug_ranges  0x000017a8      0x168 examples/pb_remote/server/CMakeFiles/pb_remote_server_nrf52832_xxAA_s132_6.0.0.dir/__/__/__/mesh/core/src/timeslot.c.obj
 .debug_ranges  0x00001910       0xf8 examples/pb_remote/server/CMakeFiles/pb_remote_server_nrf52832_xxAA_s132_6.0.0.dir/__/__/__/mesh/core/src/bearer_event.c.obj
 .debug_ranges  0x00001a08       0xb8 examples/pb_remote/server/CMakeFiles/pb_remote_server_nrf52832_xxAA_s132_6.0.0.dir/__/__/__/mesh/core/src/enc.c.obj
 .debug_ranges  0x00001ac0       0xe8 examples/pb_remote/server/CMakeFiles/pb_remote_server_nrf52832_xxAA_s132_6.0.0.dir/__/__/__/mesh/core/src/network.c.obj
 .debug_ranges  0x00001ba8      0x160 examples/pb_remote/server/CMakeFiles/pb_remote_server_nrf52832_xxAA_s132_6.0.0.dir/__/__/__/mesh/core/src/net_packet.c.obj
 .debug_ranges  0x00001d08       0x50 examples/pb_remote/server/CMakeFiles/pb_remote_server_nrf52832_xxAA_s132_6.0.0.dir/__/__/__/mesh/core/src/msqueue.c.obj
 .debug_ranges  0x00001d58       0x30 examples/pb_remote/server/CMakeFiles/pb_remote_server_nrf52832_xxAA_s132_6.0.0.dir/__/__/__/mesh/core/src/nrf_mesh_keygen.c.obj
 .debug_ranges  0x00001d88       0x78 examples/pb_remote/server/CMakeFiles/pb_remote_server_nrf52832_xxAA_s132_6.0.0.dir/__/__/__/mesh/core/src/list.c.obj
 .debug_ranges  0x00001e00       0x38 examples/pb_remote/server/CMakeFiles/pb_remote_server_nrf52832_xxAA_s132_6.0.0.dir/__/__/__/mesh/core/src/log.c.obj
 .debug_ranges  0x00001e38      0x388 examples/pb_remote/server/CMakeFiles/pb_remote_server_nrf52832_xxAA_s132_6.0.0.dir/__/__/__/mesh/core/src/flash_manager.c.obj
 .debug_ranges  0x000021c0       0xa0 examples/pb_remote/server/CMakeFiles/pb_remote_server_nrf52832_xxAA_s132_6.0.0.dir/__/__/__/mesh/core/src/ccm_soft.c.obj
 .debug_ranges  0x00002260       0x30 examples/pb_remote/server/CMakeFiles/pb_remote_server_nrf52832_xxAA_s132_6.0.0.dir/__/__/__/mesh/core/src/replay_cache.c.obj
 .debug_ranges  0x00002290       0x90 examples/pb_remote/server/CMakeFiles/pb_remote_server_nrf52832_xxAA_s132_6.0.0.dir/__/__/__/mesh/core/src/beacon.c.obj
 .debug_ranges  0x00002320       0x10 examples/pb_remote/server/CMakeFiles/pb_remote_server_nrf52832_xxAA_s132_6.0.0.dir/__/__/__/mesh/core/src/flash_manager_internal.c.obj
 .debug_ranges  0x00002330       0xf8 examples/pb_remote/server/CMakeFiles/pb_remote_server_nrf52832_xxAA_s132_6.0.0.dir/__/__/__/mesh/core/src/core_tx.c.obj
 .debug_ranges  0x00002428       0xc0 examples/pb_remote/server/CMakeFiles/pb_remote_server_nrf52832_xxAA_s132_6.0.0.dir/__/__/__/mesh/core/src/heartbeat.c.obj
 .debug_ranges  0x000024e8      0x170 examples/pb_remote/server/CMakeFiles/pb_remote_server_nrf52832_xxAA_s132_6.0.0.dir/__/__/__/mesh/core/src/net_beacon.c.obj
 .debug_ranges  0x00002658       0x60 examples/pb_remote/server/CMakeFiles/pb_remote_server_nrf52832_xxAA_s132_6.0.0.dir/__/__/__/mesh/core/src/core_tx_adv.c.obj
 .debug_ranges  0x000026b8      0x110 examples/pb_remote/server/CMakeFiles/pb_remote_server_nrf52832_xxAA_s132_6.0.0.dir/__/__/__/mesh/bearer/src/ad_listener.c.obj
 .debug_ranges  0x000027c8       0xd0 examples/pb_remote/server/CMakeFiles/pb_remote_server_nrf52832_xxAA_s132_6.0.0.dir/__/__/__/mesh/bearer/src/ad_type_filter.c.obj
 .debug_ranges  0x00002898      0x248 examples/pb_remote/server/CMakeFiles/pb_remote_server_nrf52832_xxAA_s132_6.0.0.dir/__/__/__/mesh/bearer/src/advertiser.c.obj
 .debug_ranges  0x00002ae0      0x180 examples/pb_remote/server/CMakeFiles/pb_remote_server_nrf52832_xxAA_s132_6.0.0.dir/__/__/__/mesh/bearer/src/bearer_handler.c.obj
 .debug_ranges  0x00002c60       0xc0 examples/pb_remote/server/CMakeFiles/pb_remote_server_nrf52832_xxAA_s132_6.0.0.dir/__/__/__/mesh/bearer/src/broadcast.c.obj
 .debug_ranges  0x00002d20       0x48 examples/pb_remote/server/CMakeFiles/pb_remote_server_nrf52832_xxAA_s132_6.0.0.dir/__/__/__/mesh/bearer/src/filter_engine.c.obj
 .debug_ranges  0x00002d68       0x48 examples/pb_remote/server/CMakeFiles/pb_remote_server_nrf52832_xxAA_s132_6.0.0.dir/__/__/__/mesh/bearer/src/radio_config.c.obj
 .debug_ranges  0x00002db0      0x1a8 examples/pb_remote/server/CMakeFiles/pb_remote_server_nrf52832_xxAA_s132_6.0.0.dir/__/__/__/mesh/bearer/src/scanner.c.obj
 .debug_ranges  0x00002f58       0xb8 examples/pb_remote/server/CMakeFiles/pb_remote_server_nrf52832_xxAA_s132_6.0.0.dir/__/__/__/mesh/bearer/src/mesh_pa_lna.c.obj
 .debug_ranges  0x00003010      0x148 examples/pb_remote/server/CMakeFiles/pb_remote_server_nrf52832_xxAA_s132_6.0.0.dir/__/__/__/mesh/prov/src/prov_provisionee.c.obj
 .debug_ranges  0x00003158      0x130 examples/pb_remote/server/CMakeFiles/pb_remote_server_nrf52832_xxAA_s132_6.0.0.dir/__/__/__/mesh/prov/src/nrf_mesh_prov.c.obj
 .debug_ranges  0x00003288       0x70 examples/pb_remote/server/CMakeFiles/pb_remote_server_nrf52832_xxAA_s132_6.0.0.dir/__/__/__/mesh/prov/src/provisioning.c.obj
 .debug_ranges  0x000032f8       0x40 examples/pb_remote/server/CMakeFiles/pb_remote_server_nrf52832_xxAA_s132_6.0.0.dir/__/__/__/mesh/prov/src/prov_beacon.c.obj
 .debug_ranges  0x00003338       0xb8 examples/pb_remote/server/CMakeFiles/pb_remote_server_nrf52832_xxAA_s132_6.0.0.dir/__/__/__/mesh/prov/src/prov_utils.c.obj
 .debug_ranges  0x000033f0      0x498 examples/pb_remote/server/CMakeFiles/pb_remote_server_nrf52832_xxAA_s132_6.0.0.dir/__/__/__/mesh/prov/src/prov_bearer_adv.c.obj
 .debug_ranges  0x00003888      0x560 examples/pb_remote/server/CMakeFiles/pb_remote_server_nrf52832_xxAA_s132_6.0.0.dir/__/__/__/models/pb_remote/src/pb_remote_server.c.obj
 .debug_ranges  0x00003de8      0x118 examples/pb_remote/server/CMakeFiles/pb_remote_server_nrf52832_xxAA_s132_6.0.0.dir/__/__/__/mesh/access/src/access_publish.c.obj
 .debug_ranges  0x00003f00      0x7b8 examples/pb_remote/server/CMakeFiles/pb_remote_server_nrf52832_xxAA_s132_6.0.0.dir/__/__/__/mesh/access/src/access.c.obj
 .debug_ranges  0x000046b8      0x160 examples/pb_remote/server/CMakeFiles/pb_remote_server_nrf52832_xxAA_s132_6.0.0.dir/__/__/__/mesh/access/src/access_reliable.c.obj
 .debug_ranges  0x00004818       0x28 examples/pb_remote/server/CMakeFiles/pb_remote_server_nrf52832_xxAA_s132_6.0.0.dir/__/__/__/mesh/access/src/access_loopback.c.obj
 .debug_ranges  0x00004840      0x7e8 examples/pb_remote/server/CMakeFiles/pb_remote_server_nrf52832_xxAA_s132_6.0.0.dir/__/__/__/mesh/access/src/device_state_manager.c.obj
 .debug_ranges  0x00005028       0xa8 examples/pb_remote/server/CMakeFiles/pb_remote_server_nrf52832_xxAA_s132_6.0.0.dir/__/__/__/models/config/src/composition_data.c.obj
 .debug_ranges  0x000050d0      0x790 examples/pb_remote/server/CMakeFiles/pb_remote_server_nrf52832_xxAA_s132_6.0.0.dir/__/__/__/models/config/src/config_server.c.obj
 .debug_ranges  0x00005860       0x10 examples/pb_remote/server/CMakeFiles/pb_remote_server_nrf52832_xxAA_s132_6.0.0.dir/__/__/__/models/config/src/packed_index_list.c.obj
 .debug_ranges  0x00005870      0x260 examples/pb_remote/server/CMakeFiles/pb_remote_server_nrf52832_xxAA_s132_6.0.0.dir/__/__/__/models/health/src/health_server.c.obj
 .debug_ranges  0x00005ad0       0x28 examples/pb_remote/server/CMakeFiles/pb_remote_server_nrf52832_xxAA_s132_6.0.0.dir/C_/b/nRF5_SDK_15.0.0_a53641a/modules/nrfx/mdk/system_nrf52.c.obj
 .debug_ranges  0x00005af8       0x18 examples/pb_remote/server/CMakeFiles/pb_remote_server_nrf52832_xxAA_s132_6.0.0.dir/C_/b/nRF5_SDK_15.0.0_a53641a/components/libraries/util/app_error.c.obj
 .debug_ranges  0x00005b10       0x38 examples/pb_remote/server/CMakeFiles/pb_remote_server_nrf52832_xxAA_s132_6.0.0.dir/C_/b/nRF5_SDK_15.0.0_a53641a/components/libraries/util/app_util_platform.c.obj
 .debug_ranges  0x00005b48      0x390 examples/pb_remote/server/CMakeFiles/pb_remote_server_nrf52832_xxAA_s132_6.0.0.dir/C_/b/nRF5_SDK_15.0.0_a53641a/components/libraries/timer/app_timer.c.obj
 .debug_ranges  0x00005ed8       0x10 examples/pb_remote/server/CMakeFiles/pb_remote_server_nrf52832_xxAA_s132_6.0.0.dir/C_/b/nRF5_SDK_15.0.0_a53641a/components/libraries/util/app_error_handler_gcc.c.obj
 .debug_ranges  0x00005ee8      0x130 external/rtt/librtt_nrf52832_xxAA.a(SEGGER_RTT.c.obj)
 .debug_ranges  0x00006018       0x48 external/rtt/librtt_nrf52832_xxAA.a(SEGGER_RTT_printf.c.obj)
 .debug_ranges  0x00006060      0x2e8 external/micro-ecc/libuECC_nrf52832_xxAA.a(uECC.c.obj)

.debug_line     0x00000000    0x18ab4
 .debug_line    0x00000000      0x7dd examples/pb_remote/server/CMakeFiles/pb_remote_server_nrf52832_xxAA_s132_6.0.0.dir/src/main.c.obj
 .debug_line    0x000007dd      0x49d examples/pb_remote/server/CMakeFiles/pb_remote_server_nrf52832_xxAA_s132_6.0.0.dir/__/__/__/mesh/stack/src/mesh_stack.c.obj
 .debug_line    0x00000c7a      0x428 examples/pb_remote/server/CMakeFiles/pb_remote_server_nrf52832_xxAA_s132_6.0.0.dir/__/__/common/src/mesh_softdevice_init.c.obj
 .debug_line    0x000010a2      0x4dc examples/pb_remote/server/CMakeFiles/pb_remote_server_nrf52832_xxAA_s132_6.0.0.dir/__/__/common/src/mesh_provisionee.c.obj
 .debug_line    0x0000157e      0x437 examples/pb_remote/server/CMakeFiles/pb_remote_server_nrf52832_xxAA_s132_6.0.0.dir/__/__/common/src/simple_hal.c.obj
 .debug_line    0x000019b5      0x1e2 examples/pb_remote/server/CMakeFiles/pb_remote_server_nrf52832_xxAA_s132_6.0.0.dir/__/__/nrf_mesh_weak.c.obj
 .debug_line    0x00001b97      0x46d examples/pb_remote/server/CMakeFiles/pb_remote_server_nrf52832_xxAA_s132_6.0.0.dir/__/__/common/src/app_error_weak.c.obj
 .debug_line    0x00002004      0x228 examples/pb_remote/server/CMakeFiles/pb_remote_server_nrf52832_xxAA_s132_6.0.0.dir/__/__/common/src/assertion_handler_weak.c.obj
 .debug_line    0x0000222c      0x21f examples/pb_remote/server/CMakeFiles/pb_remote_server_nrf52832_xxAA_s132_6.0.0.dir/__/__/__/mesh/core/src/nrf_mesh_configure.c.obj
 .debug_line    0x0000244b      0x255 examples/pb_remote/server/CMakeFiles/pb_remote_server_nrf52832_xxAA_s132_6.0.0.dir/__/__/__/mesh/core/src/msg_cache.c.obj
 .debug_line    0x000026a0      0xcaf examples/pb_remote/server/CMakeFiles/pb_remote_server_nrf52832_xxAA_s132_6.0.0.dir/__/__/__/mesh/core/src/transport.c.obj
 .debug_line    0x0000334f      0x2f3 examples/pb_remote/server/CMakeFiles/pb_remote_server_nrf52832_xxAA_s132_6.0.0.dir/__/__/__/mesh/core/src/event.c.obj
 .debug_line    0x00003642      0x4a9 examples/pb_remote/server/CMakeFiles/pb_remote_server_nrf52832_xxAA_s132_6.0.0.dir/__/__/__/mesh/core/src/packet_buffer.c.obj
 .debug_line    0x00003aeb      0x6cb examples/pb_remote/server/CMakeFiles/pb_remote_server_nrf52832_xxAA_s132_6.0.0.dir/__/__/__/mesh/core/src/flash_manager_defrag.c.obj
 .debug_line    0x000041b6      0x36c examples/pb_remote/server/CMakeFiles/pb_remote_server_nrf52832_xxAA_s132_6.0.0.dir/__/__/__/mesh/core/src/fifo.c.obj
 .debug_line    0x00004522      0x230 examples/pb_remote/server/CMakeFiles/pb_remote_server_nrf52832_xxAA_s132_6.0.0.dir/__/__/__/mesh/core/src/nrf_flash.c.obj
 .debug_line    0x00004752      0x40b examples/pb_remote/server/CMakeFiles/pb_remote_server_nrf52832_xxAA_s132_6.0.0.dir/__/__/__/mesh/core/src/packet_mgr.c.obj
 .debug_line    0x00004b5d      0x6b4 examples/pb_remote/server/CMakeFiles/pb_remote_server_nrf52832_xxAA_s132_6.0.0.dir/__/__/__/mesh/core/src/net_state.c.obj
 .debug_line    0x00005211      0x508 examples/pb_remote/server/CMakeFiles/pb_remote_server_nrf52832_xxAA_s132_6.0.0.dir/__/__/__/mesh/core/src/mesh_flash.c.obj
 .debug_line    0x00005719      0x249 examples/pb_remote/server/CMakeFiles/pb_remote_server_nrf52832_xxAA_s132_6.0.0.dir/__/__/__/mesh/core/src/nrf_mesh_utils.c.obj
 .debug_line    0x00005962      0x758 examples/pb_remote/server/CMakeFiles/pb_remote_server_nrf52832_xxAA_s132_6.0.0.dir/__/__/__/mesh/core/src/nrf_mesh.c.obj
 .debug_line    0x000060ba      0x281 examples/pb_remote/server/CMakeFiles/pb_remote_server_nrf52832_xxAA_s132_6.0.0.dir/__/__/__/mesh/core/src/queue.c.obj
 .debug_line    0x0000633b      0x20d examples/pb_remote/server/CMakeFiles/pb_remote_server_nrf52832_xxAA_s132_6.0.0.dir/__/__/__/mesh/core/src/hal.c.obj
 .debug_line    0x00006548      0x307 examples/pb_remote/server/CMakeFiles/pb_remote_server_nrf52832_xxAA_s132_6.0.0.dir/__/__/__/mesh/core/src/aes_cmac.c.obj
 .debug_line    0x0000684f      0x41f examples/pb_remote/server/CMakeFiles/pb_remote_server_nrf52832_xxAA_s132_6.0.0.dir/__/__/__/mesh/core/src/timer_scheduler.c.obj
 .debug_line    0x00006c6e      0x39f examples/pb_remote/server/CMakeFiles/pb_remote_server_nrf52832_xxAA_s132_6.0.0.dir/__/__/__/mesh/core/src/timer.c.obj
 .debug_line    0x0000700d      0x124 examples/pb_remote/server/CMakeFiles/pb_remote_server_nrf52832_xxAA_s132_6.0.0.dir/__/__/__/mesh/core/src/ticker.c.obj
 .debug_line    0x00007131      0x266 examples/pb_remote/server/CMakeFiles/pb_remote_server_nrf52832_xxAA_s132_6.0.0.dir/__/__/__/mesh/core/src/rand.c.obj
 .debug_line    0x00007397      0x257 examples/pb_remote/server/CMakeFiles/pb_remote_server_nrf52832_xxAA_s132_6.0.0.dir/__/__/__/mesh/core/src/nrf_mesh_opt.c.obj
 .debug_line    0x000075ee      0x548 examples/pb_remote/server/CMakeFiles/pb_remote_server_nrf52832_xxAA_s132_6.0.0.dir/__/__/__/mesh/core/src/timeslot.c.obj
 .debug_line    0x00007b36      0x507 examples/pb_remote/server/CMakeFiles/pb_remote_server_nrf52832_xxAA_s132_6.0.0.dir/__/__/__/mesh/core/src/bearer_event.c.obj
 .debug_line    0x0000803d      0x487 examples/pb_remote/server/CMakeFiles/pb_remote_server_nrf52832_xxAA_s132_6.0.0.dir/__/__/__/mesh/core/src/enc.c.obj
 .debug_line    0x000084c4      0x552 examples/pb_remote/server/CMakeFiles/pb_remote_server_nrf52832_xxAA_s132_6.0.0.dir/__/__/__/mesh/core/src/network.c.obj
 .debug_line    0x00008a16      0x54e examples/pb_remote/server/CMakeFiles/pb_remote_server_nrf52832_xxAA_s132_6.0.0.dir/__/__/__/mesh/core/src/net_packet.c.obj
 .debug_line    0x00008f64      0x2f0 examples/pb_remote/server/CMakeFiles/pb_remote_server_nrf52832_xxAA_s132_6.0.0.dir/__/__/__/mesh/core/src/msqueue.c.obj
 .debug_line    0x00009254      0x226 examples/pb_remote/server/CMakeFiles/pb_remote_server_nrf52832_xxAA_s132_6.0.0.dir/__/__/__/mesh/core/src/nrf_mesh_keygen.c.obj
 .debug_line    0x0000947a      0x2d0 examples/pb_remote/server/CMakeFiles/pb_remote_server_nrf52832_xxAA_s132_6.0.0.dir/__/__/__/mesh/core/src/list.c.obj
 .debug_line    0x0000974a      0x275 examples/pb_remote/server/CMakeFiles/pb_remote_server_nrf52832_xxAA_s132_6.0.0.dir/__/__/__/mesh/core/src/log.c.obj
 .debug_line    0x000099bf      0x8f6 examples/pb_remote/server/CMakeFiles/pb_remote_server_nrf52832_xxAA_s132_6.0.0.dir/__/__/__/mesh/core/src/flash_manager.c.obj
 .debug_line    0x0000a2b5      0x3a2 examples/pb_remote/server/CMakeFiles/pb_remote_server_nrf52832_xxAA_s132_6.0.0.dir/__/__/__/mesh/core/src/ccm_soft.c.obj
 .debug_line    0x0000a657      0x1cd examples/pb_remote/server/CMakeFiles/pb_remote_server_nrf52832_xxAA_s132_6.0.0.dir/__/__/__/mesh/core/src/replay_cache.c.obj
 .debug_line    0x0000a824      0x47e examples/pb_remote/server/CMakeFiles/pb_remote_server_nrf52832_xxAA_s132_6.0.0.dir/__/__/__/mesh/core/src/beacon.c.obj
 .debug_line    0x0000aca2      0x269 examples/pb_remote/server/CMakeFiles/pb_remote_server_nrf52832_xxAA_s132_6.0.0.dir/__/__/__/mesh/core/src/flash_manager_internal.c.obj
 .debug_line    0x0000af0b      0x396 examples/pb_remote/server/CMakeFiles/pb_remote_server_nrf52832_xxAA_s132_6.0.0.dir/__/__/__/mesh/core/src/core_tx.c.obj
 .debug_line    0x0000b2a1      0x5ab examples/pb_remote/server/CMakeFiles/pb_remote_server_nrf52832_xxAA_s132_6.0.0.dir/__/__/__/mesh/core/src/heartbeat.c.obj
 .debug_line    0x0000b84c      0x5e8 examples/pb_remote/server/CMakeFiles/pb_remote_server_nrf52832_xxAA_s132_6.0.0.dir/__/__/__/mesh/core/src/net_beacon.c.obj
 .debug_line    0x0000be34      0x4ce examples/pb_remote/server/CMakeFiles/pb_remote_server_nrf52832_xxAA_s132_6.0.0.dir/__/__/__/mesh/core/src/core_tx_adv.c.obj
 .debug_line    0x0000c302      0x32b examples/pb_remote/server/CMakeFiles/pb_remote_server_nrf52832_xxAA_s132_6.0.0.dir/__/__/__/mesh/bearer/src/ad_listener.c.obj
 .debug_line    0x0000c62d      0x3dc examples/pb_remote/server/CMakeFiles/pb_remote_server_nrf52832_xxAA_s132_6.0.0.dir/__/__/__/mesh/bearer/src/ad_type_filter.c.obj
 .debug_line    0x0000ca09      0x6e1 examples/pb_remote/server/CMakeFiles/pb_remote_server_nrf52832_xxAA_s132_6.0.0.dir/__/__/__/mesh/bearer/src/advertiser.c.obj
 .debug_line    0x0000d0ea      0x599 examples/pb_remote/server/CMakeFiles/pb_remote_server_nrf52832_xxAA_s132_6.0.0.dir/__/__/__/mesh/bearer/src/bearer_handler.c.obj
 .debug_line    0x0000d683      0x36a examples/pb_remote/server/CMakeFiles/pb_remote_server_nrf52832_xxAA_s132_6.0.0.dir/__/__/__/mesh/bearer/src/broadcast.c.obj
 .debug_line    0x0000d9ed      0x31a examples/pb_remote/server/CMakeFiles/pb_remote_server_nrf52832_xxAA_s132_6.0.0.dir/__/__/__/mesh/bearer/src/filter_engine.c.obj
 .debug_line    0x0000dd07      0x287 examples/pb_remote/server/CMakeFiles/pb_remote_server_nrf52832_xxAA_s132_6.0.0.dir/__/__/__/mesh/bearer/src/radio_config.c.obj
 .debug_line    0x0000df8e      0x6c8 examples/pb_remote/server/CMakeFiles/pb_remote_server_nrf52832_xxAA_s132_6.0.0.dir/__/__/__/mesh/bearer/src/scanner.c.obj
 .debug_line    0x0000e656      0x314 examples/pb_remote/server/CMakeFiles/pb_remote_server_nrf52832_xxAA_s132_6.0.0.dir/__/__/__/mesh/bearer/src/mesh_pa_lna.c.obj
 .debug_line    0x0000e96a      0x61b examples/pb_remote/server/CMakeFiles/pb_remote_server_nrf52832_xxAA_s132_6.0.0.dir/__/__/__/mesh/prov/src/prov_provisionee.c.obj
 .debug_line    0x0000ef85      0x54e examples/pb_remote/server/CMakeFiles/pb_remote_server_nrf52832_xxAA_s132_6.0.0.dir/__/__/__/mesh/prov/src/nrf_mesh_prov.c.obj
 .debug_line    0x0000f4d3      0x3ae examples/pb_remote/server/CMakeFiles/pb_remote_server_nrf52832_xxAA_s132_6.0.0.dir/__/__/__/mesh/prov/src/provisioning.c.obj
 .debug_line    0x0000f881      0x44e examples/pb_remote/server/CMakeFiles/pb_remote_server_nrf52832_xxAA_s132_6.0.0.dir/__/__/__/mesh/prov/src/prov_beacon.c.obj
 .debug_line    0x0000fccf      0x493 examples/pb_remote/server/CMakeFiles/pb_remote_server_nrf52832_xxAA_s132_6.0.0.dir/__/__/__/mesh/prov/src/prov_utils.c.obj
 .debug_line    0x00010162      0xb15 examples/pb_remote/server/CMakeFiles/pb_remote_server_nrf52832_xxAA_s132_6.0.0.dir/__/__/__/mesh/prov/src/prov_bearer_adv.c.obj
 .debug_line    0x00010c77      0xf73 examples/pb_remote/server/CMakeFiles/pb_remote_server_nrf52832_xxAA_s132_6.0.0.dir/__/__/__/models/pb_remote/src/pb_remote_server.c.obj
 .debug_line    0x00011bea      0x40e examples/pb_remote/server/CMakeFiles/pb_remote_server_nrf52832_xxAA_s132_6.0.0.dir/__/__/__/mesh/access/src/access_publish.c.obj
 .debug_line    0x00011ff8      0xf1d examples/pb_remote/server/CMakeFiles/pb_remote_server_nrf52832_xxAA_s132_6.0.0.dir/__/__/__/mesh/access/src/access.c.obj
 .debug_line    0x00012f15      0x513 examples/pb_remote/server/CMakeFiles/pb_remote_server_nrf52832_xxAA_s132_6.0.0.dir/__/__/__/mesh/access/src/access_reliable.c.obj
 .debug_line    0x00013428      0x361 examples/pb_remote/server/CMakeFiles/pb_remote_server_nrf52832_xxAA_s132_6.0.0.dir/__/__/__/mesh/access/src/access_loopback.c.obj
 .debug_line    0x00013789     0x1391 examples/pb_remote/server/CMakeFiles/pb_remote_server_nrf52832_xxAA_s132_6.0.0.dir/__/__/__/mesh/access/src/device_state_manager.c.obj
 .debug_line    0x00014b1a      0x2ea examples/pb_remote/server/CMakeFiles/pb_remote_server_nrf52832_xxAA_s132_6.0.0.dir/__/__/__/models/config/src/composition_data.c.obj
 .debug_line    0x00014e04     0x1371 examples/pb_remote/server/CMakeFiles/pb_remote_server_nrf52832_xxAA_s132_6.0.0.dir/__/__/__/models/config/src/config_server.c.obj
 .debug_line    0x00016175       0xef examples/pb_remote/server/CMakeFiles/pb_remote_server_nrf52832_xxAA_s132_6.0.0.dir/__/__/__/models/config/src/packed_index_list.c.obj
 .debug_line    0x00016264      0x67a examples/pb_remote/server/CMakeFiles/pb_remote_server_nrf52832_xxAA_s132_6.0.0.dir/__/__/__/models/health/src/health_server.c.obj
 .debug_line    0x000168de      0x243 examples/pb_remote/server/CMakeFiles/pb_remote_server_nrf52832_xxAA_s132_6.0.0.dir/C_/b/nRF5_SDK_15.0.0_a53641a/modules/nrfx/mdk/system_nrf52.c.obj
 .debug_line    0x00016b21      0x260 examples/pb_remote/server/CMakeFiles/pb_remote_server_nrf52832_xxAA_s132_6.0.0.dir/C_/b/nRF5_SDK_15.0.0_a53641a/components/libraries/util/app_error.c.obj
 .debug_line    0x00016d81      0x334 examples/pb_remote/server/CMakeFiles/pb_remote_server_nrf52832_xxAA_s132_6.0.0.dir/C_/b/nRF5_SDK_15.0.0_a53641a/components/libraries/util/app_util_platform.c.obj
 .debug_line    0x000170b5      0x6b5 examples/pb_remote/server/CMakeFiles/pb_remote_server_nrf52832_xxAA_s132_6.0.0.dir/C_/b/nRF5_SDK_15.0.0_a53641a/components/libraries/timer/app_timer.c.obj
 .debug_line    0x0001776a      0x205 examples/pb_remote/server/CMakeFiles/pb_remote_server_nrf52832_xxAA_s132_6.0.0.dir/C_/b/nRF5_SDK_15.0.0_a53641a/components/libraries/util/app_error_handler_gcc.c.obj
 .debug_line    0x0001796f      0x4c3 external/rtt/librtt_nrf52832_xxAA.a(SEGGER_RTT.c.obj)
 .debug_line    0x00017e32      0x285 external/rtt/librtt_nrf52832_xxAA.a(SEGGER_RTT_printf.c.obj)
 .debug_line    0x000180b7      0x9fd external/micro-ecc/libuECC_nrf52832_xxAA.a(uECC.c.obj)

.debug_str      0x00000000    0x151c9
 .debug_str     0x00000000     0x2c5f examples/pb_remote/server/CMakeFiles/pb_remote_server_nrf52832_xxAA_s132_6.0.0.dir/src/main.c.obj
                               0x318d (size before relaxing)
 .debug_str     0x00002c5f     0x111a examples/pb_remote/server/CMakeFiles/pb_remote_server_nrf52832_xxAA_s132_6.0.0.dir/__/__/__/mesh/stack/src/mesh_stack.c.obj
                               0x2746 (size before relaxing)
 .debug_str     0x00003d79      0x6b8 examples/pb_remote/server/CMakeFiles/pb_remote_server_nrf52832_xxAA_s132_6.0.0.dir/__/__/common/src/mesh_softdevice_init.c.obj
                               0x155c (size before relaxing)
 .debug_str     0x00004431      0xdcc examples/pb_remote/server/CMakeFiles/pb_remote_server_nrf52832_xxAA_s132_6.0.0.dir/__/__/common/src/mesh_provisionee.c.obj
                               0x246e (size before relaxing)
 .debug_str     0x000051fd      0x291 examples/pb_remote/server/CMakeFiles/pb_remote_server_nrf52832_xxAA_s132_6.0.0.dir/__/__/common/src/simple_hal.c.obj
                                0xd8b (size before relaxing)
 .debug_str     0x0000548e       0x3c examples/pb_remote/server/CMakeFiles/pb_remote_server_nrf52832_xxAA_s132_6.0.0.dir/__/__/nrf_mesh_weak.c.obj
                                0x61c (size before relaxing)
 .debug_str     0x000054ca       0xa0 examples/pb_remote/server/CMakeFiles/pb_remote_server_nrf52832_xxAA_s132_6.0.0.dir/__/__/common/src/app_error_weak.c.obj
                                0x85d (size before relaxing)
 .debug_str     0x0000556a       0x30 examples/pb_remote/server/CMakeFiles/pb_remote_server_nrf52832_xxAA_s132_6.0.0.dir/__/__/common/src/assertion_handler_weak.c.obj
                                0x672 (size before relaxing)
 .debug_str     0x0000559a      0x160 examples/pb_remote/server/CMakeFiles/pb_remote_server_nrf52832_xxAA_s132_6.0.0.dir/__/__/__/mesh/core/src/nrf_mesh_configure.c.obj
                                0x77e (size before relaxing)
 .debug_str     0x000056fa       0xbb examples/pb_remote/server/CMakeFiles/pb_remote_server_nrf52832_xxAA_s132_6.0.0.dir/__/__/__/mesh/core/src/msg_cache.c.obj
                                0x6b9 (size before relaxing)
 .debug_str     0x000057b5     0x1648 examples/pb_remote/server/CMakeFiles/pb_remote_server_nrf52832_xxAA_s132_6.0.0.dir/__/__/__/mesh/core/src/transport.c.obj
                               0x3148 (size before relaxing)
 .debug_str     0x00006dfd      0x106 examples/pb_remote/server/CMakeFiles/pb_remote_server_nrf52832_xxAA_s132_6.0.0.dir/__/__/__/mesh/core/src/event.c.obj
                               0x1753 (size before relaxing)
 .debug_str     0x00006f03      0x30d examples/pb_remote/server/CMakeFiles/pb_remote_server_nrf52832_xxAA_s132_6.0.0.dir/__/__/__/mesh/core/src/packet_buffer.c.obj
                                0xaac (size before relaxing)
 .debug_str     0x00007210      0x8fa examples/pb_remote/server/CMakeFiles/pb_remote_server_nrf52832_xxAA_s132_6.0.0.dir/__/__/__/mesh/core/src/flash_manager_defrag.c.obj
                               0x1104 (size before relaxing)
 .debug_str     0x00007b0a       0xa5 examples/pb_remote/server/CMakeFiles/pb_remote_server_nrf52832_xxAA_s132_6.0.0.dir/__/__/__/mesh/core/src/fifo.c.obj
                                0x6db (size before relaxing)
 .debug_str     0x00007baf       0xaa examples/pb_remote/server/CMakeFiles/pb_remote_server_nrf52832_xxAA_s132_6.0.0.dir/__/__/__/mesh/core/src/nrf_flash.c.obj
                                0x6bb (size before relaxing)
 .debug_str     0x00007c59      0x287 examples/pb_remote/server/CMakeFiles/pb_remote_server_nrf52832_xxAA_s132_6.0.0.dir/__/__/__/mesh/core/src/packet_mgr.c.obj
                                0x9a5 (size before relaxing)
 .debug_str     0x00007ee0      0x585 examples/pb_remote/server/CMakeFiles/pb_remote_server_nrf52832_xxAA_s132_6.0.0.dir/__/__/__/mesh/core/src/net_state.c.obj
                               0x216e (size before relaxing)
 .debug_str     0x00008465      0x387 examples/pb_remote/server/CMakeFiles/pb_remote_server_nrf52832_xxAA_s132_6.0.0.dir/__/__/__/mesh/core/src/mesh_flash.c.obj
                                0xd09 (size before relaxing)
 .debug_str     0x000087ec       0x9b examples/pb_remote/server/CMakeFiles/pb_remote_server_nrf52832_xxAA_s132_6.0.0.dir/__/__/__/mesh/core/src/nrf_mesh_utils.c.obj
                                0x751 (size before relaxing)
 .debug_str     0x00008887      0x613 examples/pb_remote/server/CMakeFiles/pb_remote_server_nrf52832_xxAA_s132_6.0.0.dir/__/__/__/mesh/core/src/nrf_mesh.c.obj
                               0x2167 (size before relaxing)
 .debug_str     0x00008e9a       0x53 examples/pb_remote/server/CMakeFiles/pb_remote_server_nrf52832_xxAA_s132_6.0.0.dir/__/__/__/mesh/core/src/queue.c.obj
                                0x683 (size before relaxing)
 .debug_str     0x00008eed       0xb5 examples/pb_remote/server/CMakeFiles/pb_remote_server_nrf52832_xxAA_s132_6.0.0.dir/__/__/__/mesh/core/src/hal.c.obj
                                0x749 (size before relaxing)
 .debug_str     0x00008fa2      0x16e examples/pb_remote/server/CMakeFiles/pb_remote_server_nrf52832_xxAA_s132_6.0.0.dir/__/__/__/mesh/core/src/aes_cmac.c.obj
                                0xb7e (size before relaxing)
 .debug_str     0x00009110      0x146 examples/pb_remote/server/CMakeFiles/pb_remote_server_nrf52832_xxAA_s132_6.0.0.dir/__/__/__/mesh/core/src/timer_scheduler.c.obj
                                0x934 (size before relaxing)
 .debug_str     0x00009256      0x22c examples/pb_remote/server/CMakeFiles/pb_remote_server_nrf52832_xxAA_s132_6.0.0.dir/__/__/__/mesh/core/src/timer.c.obj
                                0x869 (size before relaxing)
 .debug_str     0x00009482       0x42 examples/pb_remote/server/CMakeFiles/pb_remote_server_nrf52832_xxAA_s132_6.0.0.dir/__/__/__/mesh/core/src/ticker.c.obj
                                0x34c (size before relaxing)
 .debug_str     0x000094c4       0xac examples/pb_remote/server/CMakeFiles/pb_remote_server_nrf52832_xxAA_s132_6.0.0.dir/__/__/__/mesh/core/src/rand.c.obj
                                0x6dd (size before relaxing)
 .debug_str     0x00009570       0x88 examples/pb_remote/server/CMakeFiles/pb_remote_server_nrf52832_xxAA_s132_6.0.0.dir/__/__/__/mesh/core/src/nrf_mesh_opt.c.obj
                                0x932 (size before relaxing)
 .debug_str     0x000095f8      0x8ab examples/pb_remote/server/CMakeFiles/pb_remote_server_nrf52832_xxAA_s132_6.0.0.dir/__/__/__/mesh/core/src/timeslot.c.obj
                               0x17f6 (size before relaxing)
 .debug_str     0x00009ea3      0x2d6 examples/pb_remote/server/CMakeFiles/pb_remote_server_nrf52832_xxAA_s132_6.0.0.dir/__/__/__/mesh/core/src/bearer_event.c.obj
                                0xeb9 (size before relaxing)
 .debug_str     0x0000a179      0x16e examples/pb_remote/server/CMakeFiles/pb_remote_server_nrf52832_xxAA_s132_6.0.0.dir/__/__/__/mesh/core/src/enc.c.obj
                                0xe55 (size before relaxing)
 .debug_str     0x0000a2e7      0x312 examples/pb_remote/server/CMakeFiles/pb_remote_server_nrf52832_xxAA_s132_6.0.0.dir/__/__/__/mesh/core/src/network.c.obj
                               0x1446 (size before relaxing)
 .debug_str     0x0000a5f9      0x30f examples/pb_remote/server/CMakeFiles/pb_remote_server_nrf52832_xxAA_s132_6.0.0.dir/__/__/__/mesh/core/src/net_packet.c.obj
                                0xe86 (size before relaxing)
 .debug_str     0x0000a908       0x53 examples/pb_remote/server/CMakeFiles/pb_remote_server_nrf52832_xxAA_s132_6.0.0.dir/__/__/__/mesh/core/src/msqueue.c.obj
                                0x6bf (size before relaxing)
 .debug_str     0x0000a95b       0xc8 examples/pb_remote/server/CMakeFiles/pb_remote_server_nrf52832_xxAA_s132_6.0.0.dir/__/__/__/mesh/core/src/nrf_mesh_keygen.c.obj
                                0x397 (size before relaxing)
 .debug_str     0x0000aa23       0x6a examples/pb_remote/server/CMakeFiles/pb_remote_server_nrf52832_xxAA_s132_6.0.0.dir/__/__/__/mesh/core/src/list.c.obj
                                0x2be (size before relaxing)
 .debug_str     0x0000aa8d      0x189 examples/pb_remote/server/CMakeFiles/pb_remote_server_nrf52832_xxAA_s132_6.0.0.dir/__/__/__/mesh/core/src/log.c.obj
                                0x7d0 (size before relaxing)
 .debug_str     0x0000ac16      0x52b examples/pb_remote/server/CMakeFiles/pb_remote_server_nrf52832_xxAA_s132_6.0.0.dir/__/__/__/mesh/core/src/flash_manager.c.obj
                               0x1578 (size before relaxing)
 .debug_str     0x0000b141       0xd2 examples/pb_remote/server/CMakeFiles/pb_remote_server_nrf52832_xxAA_s132_6.0.0.dir/__/__/__/mesh/core/src/ccm_soft.c.obj
                                0xc5e (size before relaxing)
 .debug_str     0x0000b213       0x92 examples/pb_remote/server/CMakeFiles/pb_remote_server_nrf52832_xxAA_s132_6.0.0.dir/__/__/__/mesh/core/src/replay_cache.c.obj
                                0x68d (size before relaxing)
 .debug_str     0x0000b2a5       0xd4 examples/pb_remote/server/CMakeFiles/pb_remote_server_nrf52832_xxAA_s132_6.0.0.dir/__/__/__/mesh/core/src/beacon.c.obj
                               0x1130 (size before relaxing)
 .debug_str     0x0000b379       0x38 examples/pb_remote/server/CMakeFiles/pb_remote_server_nrf52832_xxAA_s132_6.0.0.dir/__/__/__/mesh/core/src/flash_manager_internal.c.obj
                                0x7a4 (size before relaxing)
 .debug_str     0x0000b3b1      0x2be examples/pb_remote/server/CMakeFiles/pb_remote_server_nrf52832_xxAA_s132_6.0.0.dir/__/__/__/mesh/core/src/core_tx.c.obj
                                0xbef (size before relaxing)
 .debug_str     0x0000b66f      0x418 examples/pb_remote/server/CMakeFiles/pb_remote_server_nrf52832_xxAA_s132_6.0.0.dir/__/__/__/mesh/core/src/heartbeat.c.obj
                               0x22a8 (size before relaxing)
 .debug_str     0x0000ba87      0x25c examples/pb_remote/server/CMakeFiles/pb_remote_server_nrf52832_xxAA_s132_6.0.0.dir/__/__/__/mesh/core/src/net_beacon.c.obj
                               0x20cd (size before relaxing)
 .debug_str     0x0000bce3      0x11f examples/pb_remote/server/CMakeFiles/pb_remote_server_nrf52832_xxAA_s132_6.0.0.dir/__/__/__/mesh/core/src/core_tx_adv.c.obj
                               0x1337 (size before relaxing)
 .debug_str     0x0000be02      0x185 examples/pb_remote/server/CMakeFiles/pb_remote_server_nrf52832_xxAA_s132_6.0.0.dir/__/__/__/mesh/bearer/src/ad_listener.c.obj
                                0xbe1 (size before relaxing)
 .debug_str     0x0000bf87      0x162 examples/pb_remote/server/CMakeFiles/pb_remote_server_nrf52832_xxAA_s132_6.0.0.dir/__/__/__/mesh/bearer/src/ad_type_filter.c.obj
                                0x99f (size before relaxing)
 .debug_str     0x0000c0e9      0x321 examples/pb_remote/server/CMakeFiles/pb_remote_server_nrf52832_xxAA_s132_6.0.0.dir/__/__/__/mesh/bearer/src/advertiser.c.obj
                               0x1537 (size before relaxing)
 .debug_str     0x0000c40a      0x3af examples/pb_remote/server/CMakeFiles/pb_remote_server_nrf52832_xxAA_s132_6.0.0.dir/__/__/__/mesh/bearer/src/bearer_handler.c.obj
                               0x1182 (size before relaxing)
 .debug_str     0x0000c7b9      0x219 examples/pb_remote/server/CMakeFiles/pb_remote_server_nrf52832_xxAA_s132_6.0.0.dir/__/__/__/mesh/bearer/src/broadcast.c.obj
                                0xfae (size before relaxing)
 .debug_str     0x0000c9d2       0x72 examples/pb_remote/server/CMakeFiles/pb_remote_server_nrf52832_xxAA_s132_6.0.0.dir/__/__/__/mesh/bearer/src/filter_engine.c.obj
                                0x80c (size before relaxing)
 .debug_str     0x0000ca44       0x79 examples/pb_remote/server/CMakeFiles/pb_remote_server_nrf52832_xxAA_s132_6.0.0.dir/__/__/__/mesh/bearer/src/radio_config.c.obj
                                0x77a (size before relaxing)
 .debug_str     0x0000cabd      0x49c examples/pb_remote/server/CMakeFiles/pb_remote_server_nrf52832_xxAA_s132_6.0.0.dir/__/__/__/mesh/bearer/src/scanner.c.obj
                               0x198e (size before relaxing)
 .debug_str     0x0000cf59      0x15f examples/pb_remote/server/CMakeFiles/pb_remote_server_nrf52832_xxAA_s132_6.0.0.dir/__/__/__/mesh/bearer/src/mesh_pa_lna.c.obj
                                0x7ec (size before relaxing)
 .debug_str     0x0000d0b8      0x5c9 examples/pb_remote/server/CMakeFiles/pb_remote_server_nrf52832_xxAA_s132_6.0.0.dir/__/__/__/mesh/prov/src/prov_provisionee.c.obj
                               0x21d9 (size before relaxing)
 .debug_str     0x0000d681      0x26b examples/pb_remote/server/CMakeFiles/pb_remote_server_nrf52832_xxAA_s132_6.0.0.dir/__/__/__/mesh/prov/src/nrf_mesh_prov.c.obj
                               0x1dda (size before relaxing)
 .debug_str     0x0000d8ec       0xed examples/pb_remote/server/CMakeFiles/pb_remote_server_nrf52832_xxAA_s132_6.0.0.dir/__/__/__/mesh/prov/src/provisioning.c.obj
                                0xf29 (size before relaxing)
 .debug_str     0x0000d9d9       0xb1 examples/pb_remote/server/CMakeFiles/pb_remote_server_nrf52832_xxAA_s132_6.0.0.dir/__/__/__/mesh/prov/src/prov_beacon.c.obj
                               0x1989 (size before relaxing)
 .debug_str     0x0000da8a      0x19e examples/pb_remote/server/CMakeFiles/pb_remote_server_nrf52832_xxAA_s132_6.0.0.dir/__/__/__/mesh/prov/src/prov_utils.c.obj
                               0x1f46 (size before relaxing)
 .debug_str     0x0000dc28      0x40a examples/pb_remote/server/CMakeFiles/pb_remote_server_nrf52832_xxAA_s132_6.0.0.dir/__/__/__/mesh/prov/src/prov_bearer_adv.c.obj
                               0x1bed (size before relaxing)
 .debug_str     0x0000e032     0x13a5 examples/pb_remote/server/CMakeFiles/pb_remote_server_nrf52832_xxAA_s132_6.0.0.dir/__/__/__/models/pb_remote/src/pb_remote_server.c.obj
                               0x3581 (size before relaxing)
 .debug_str     0x0000f3d7      0x2a4 examples/pb_remote/server/CMakeFiles/pb_remote_server_nrf52832_xxAA_s132_6.0.0.dir/__/__/__/mesh/access/src/access_publish.c.obj
                                0xbcc (size before relaxing)
 .debug_str     0x0000f67b      0xbd6 examples/pb_remote/server/CMakeFiles/pb_remote_server_nrf52832_xxAA_s132_6.0.0.dir/__/__/__/mesh/access/src/access.c.obj
                               0x300a (size before relaxing)
 .debug_str     0x00010251      0x12f examples/pb_remote/server/CMakeFiles/pb_remote_server_nrf52832_xxAA_s132_6.0.0.dir/__/__/__/mesh/access/src/access_reliable.c.obj
                               0x1006 (size before relaxing)
 .debug_str     0x00010380       0x87 examples/pb_remote/server/CMakeFiles/pb_remote_server_nrf52832_xxAA_s132_6.0.0.dir/__/__/__/mesh/access/src/access_loopback.c.obj
                                0xb88 (size before relaxing)
 .debug_str     0x00010407      0xefd examples/pb_remote/server/CMakeFiles/pb_remote_server_nrf52832_xxAA_s132_6.0.0.dir/__/__/__/mesh/access/src/device_state_manager.c.obj
                               0x3354 (size before relaxing)
 .debug_str     0x00011304      0x198 examples/pb_remote/server/CMakeFiles/pb_remote_server_nrf52832_xxAA_s132_6.0.0.dir/__/__/__/models/config/src/composition_data.c.obj
                                0x8dd (size before relaxing)
 .debug_str     0x0001149c     0x2116 examples/pb_remote/server/CMakeFiles/pb_remote_server_nrf52832_xxAA_s132_6.0.0.dir/__/__/__/models/config/src/config_server.c.obj
                               0x50df (size before relaxing)
 .debug_str     0x000135b2       0x69 examples/pb_remote/server/CMakeFiles/pb_remote_server_nrf52832_xxAA_s132_6.0.0.dir/__/__/__/models/config/src/packed_index_list.c.obj
                                0x24d (size before relaxing)
 .debug_str     0x0001361b      0x5b2 examples/pb_remote/server/CMakeFiles/pb_remote_server_nrf52832_xxAA_s132_6.0.0.dir/__/__/__/models/health/src/health_server.c.obj
                               0x16b9 (size before relaxing)
 .debug_str     0x00013bcd      0x2e6 examples/pb_remote/server/CMakeFiles/pb_remote_server_nrf52832_xxAA_s132_6.0.0.dir/C_/b/nRF5_SDK_15.0.0_a53641a/modules/nrfx/mdk/system_nrf52.c.obj
                                0x762 (size before relaxing)
 .debug_str     0x00013eb3       0x9c examples/pb_remote/server/CMakeFiles/pb_remote_server_nrf52832_xxAA_s132_6.0.0.dir/C_/b/nRF5_SDK_15.0.0_a53641a/components/libraries/util/app_error.c.obj
                                0x724 (size before relaxing)
 .debug_str     0x00013f4f      0x1e2 examples/pb_remote/server/CMakeFiles/pb_remote_server_nrf52832_xxAA_s132_6.0.0.dir/C_/b/nRF5_SDK_15.0.0_a53641a/components/libraries/util/app_util_platform.c.obj
                                0xc48 (size before relaxing)
 .debug_str     0x00014131      0x608 examples/pb_remote/server/CMakeFiles/pb_remote_server_nrf52832_xxAA_s132_6.0.0.dir/C_/b/nRF5_SDK_15.0.0_a53641a/components/libraries/timer/app_timer.c.obj
                               0x1250 (size before relaxing)
 .debug_str     0x00014739       0x4f examples/pb_remote/server/CMakeFiles/pb_remote_server_nrf52832_xxAA_s132_6.0.0.dir/C_/b/nRF5_SDK_15.0.0_a53641a/components/libraries/util/app_error_handler_gcc.c.obj
                                0x689 (size before relaxing)
 .debug_str     0x00014788      0x2d1 external/rtt/librtt_nrf52832_xxAA.a(SEGGER_RTT.c.obj)
                                0x922 (size before relaxing)
 .debug_str     0x00014a59       0xdf external/rtt/librtt_nrf52832_xxAA.a(SEGGER_RTT_printf.c.obj)
                                0x792 (size before relaxing)
 .debug_str     0x00014b38      0x691 external/micro-ecc/libuECC_nrf52832_xxAA.a(uECC.c.obj)
                                0x880 (size before relaxing)

.debug_frame    0x00000000     0x7370
 .debug_frame   0x00000000       0x84 examples/pb_remote/server/CMakeFiles/pb_remote_server_nrf52832_xxAA_s132_6.0.0.dir/src/main.c.obj
 .debug_frame   0x00000084       0xcc examples/pb_remote/server/CMakeFiles/pb_remote_server_nrf52832_xxAA_s132_6.0.0.dir/__/__/__/mesh/stack/src/mesh_stack.c.obj
 .debug_frame   0x00000150       0x90 examples/pb_remote/server/CMakeFiles/pb_remote_server_nrf52832_xxAA_s132_6.0.0.dir/__/__/common/src/mesh_softdevice_init.c.obj
 .debug_frame   0x000001e0       0x70 examples/pb_remote/server/CMakeFiles/pb_remote_server_nrf52832_xxAA_s132_6.0.0.dir/__/__/common/src/mesh_provisionee.c.obj
 .debug_frame   0x00000250       0xc8 examples/pb_remote/server/CMakeFiles/pb_remote_server_nrf52832_xxAA_s132_6.0.0.dir/__/__/common/src/simple_hal.c.obj
 .debug_frame   0x00000318       0x30 examples/pb_remote/server/CMakeFiles/pb_remote_server_nrf52832_xxAA_s132_6.0.0.dir/__/__/nrf_mesh_weak.c.obj
 .debug_frame   0x00000348       0x34 examples/pb_remote/server/CMakeFiles/pb_remote_server_nrf52832_xxAA_s132_6.0.0.dir/__/__/common/src/app_error_weak.c.obj
 .debug_frame   0x0000037c       0x28 examples/pb_remote/server/CMakeFiles/pb_remote_server_nrf52832_xxAA_s132_6.0.0.dir/__/__/common/src/assertion_handler_weak.c.obj
 .debug_frame   0x000003a4       0x4c examples/pb_remote/server/CMakeFiles/pb_remote_server_nrf52832_xxAA_s132_6.0.0.dir/__/__/__/mesh/core/src/nrf_mesh_configure.c.obj
 .debug_frame   0x000003f0       0x6c examples/pb_remote/server/CMakeFiles/pb_remote_server_nrf52832_xxAA_s132_6.0.0.dir/__/__/__/mesh/core/src/msg_cache.c.obj
 .debug_frame   0x0000045c      0x404 examples/pb_remote/server/CMakeFiles/pb_remote_server_nrf52832_xxAA_s132_6.0.0.dir/__/__/__/mesh/core/src/transport.c.obj
 .debug_frame   0x00000860       0x68 examples/pb_remote/server/CMakeFiles/pb_remote_server_nrf52832_xxAA_s132_6.0.0.dir/__/__/__/mesh/core/src/event.c.obj
 .debug_frame   0x000008c8      0x128 examples/pb_remote/server/CMakeFiles/pb_remote_server_nrf52832_xxAA_s132_6.0.0.dir/__/__/__/mesh/core/src/packet_buffer.c.obj
 .debug_frame   0x000009f0      0x24c examples/pb_remote/server/CMakeFiles/pb_remote_server_nrf52832_xxAA_s132_6.0.0.dir/__/__/__/mesh/core/src/flash_manager_defrag.c.obj
 .debug_frame   0x00000c3c       0xd0 examples/pb_remote/server/CMakeFiles/pb_remote_server_nrf52832_xxAA_s132_6.0.0.dir/__/__/__/mesh/core/src/fifo.c.obj
 .debug_frame   0x00000d0c       0x54 examples/pb_remote/server/CMakeFiles/pb_remote_server_nrf52832_xxAA_s132_6.0.0.dir/__/__/__/mesh/core/src/nrf_flash.c.obj
 .debug_frame   0x00000d60       0xa0 examples/pb_remote/server/CMakeFiles/pb_remote_server_nrf52832_xxAA_s132_6.0.0.dir/__/__/__/mesh/core/src/packet_mgr.c.obj
 .debug_frame   0x00000e00      0x298 examples/pb_remote/server/CMakeFiles/pb_remote_server_nrf52832_xxAA_s132_6.0.0.dir/__/__/__/mesh/core/src/net_state.c.obj
 .debug_frame   0x00001098      0x150 examples/pb_remote/server/CMakeFiles/pb_remote_server_nrf52832_xxAA_s132_6.0.0.dir/__/__/__/mesh/core/src/mesh_flash.c.obj
 .debug_frame   0x000011e8       0x50 examples/pb_remote/server/CMakeFiles/pb_remote_server_nrf52832_xxAA_s132_6.0.0.dir/__/__/__/mesh/core/src/nrf_mesh_utils.c.obj
 .debug_frame   0x00001238      0x1a0 examples/pb_remote/server/CMakeFiles/pb_remote_server_nrf52832_xxAA_s132_6.0.0.dir/__/__/__/mesh/core/src/nrf_mesh.c.obj
 .debug_frame   0x000013d8       0x74 examples/pb_remote/server/CMakeFiles/pb_remote_server_nrf52832_xxAA_s132_6.0.0.dir/__/__/__/mesh/core/src/queue.c.obj
 .debug_frame   0x0000144c       0x58 examples/pb_remote/server/CMakeFiles/pb_remote_server_nrf52832_xxAA_s132_6.0.0.dir/__/__/__/mesh/core/src/hal.c.obj
 .debug_frame   0x000014a4       0x6c examples/pb_remote/server/CMakeFiles/pb_remote_server_nrf52832_xxAA_s132_6.0.0.dir/__/__/__/mesh/core/src/aes_cmac.c.obj
 .debug_frame   0x00001510      0x134 examples/pb_remote/server/CMakeFiles/pb_remote_server_nrf52832_xxAA_s132_6.0.0.dir/__/__/__/mesh/core/src/timer_scheduler.c.obj
 .debug_frame   0x00001644      0x10c examples/pb_remote/server/CMakeFiles/pb_remote_server_nrf52832_xxAA_s132_6.0.0.dir/__/__/__/mesh/core/src/timer.c.obj
 .debug_frame   0x00001750       0x4c examples/pb_remote/server/CMakeFiles/pb_remote_server_nrf52832_xxAA_s132_6.0.0.dir/__/__/__/mesh/core/src/ticker.c.obj
 .debug_frame   0x0000179c       0x84 examples/pb_remote/server/CMakeFiles/pb_remote_server_nrf52832_xxAA_s132_6.0.0.dir/__/__/__/mesh/core/src/rand.c.obj
 .debug_frame   0x00001820       0x30 examples/pb_remote/server/CMakeFiles/pb_remote_server_nrf52832_xxAA_s132_6.0.0.dir/__/__/__/mesh/core/src/nrf_mesh_opt.c.obj
 .debug_frame   0x00001850      0x1a0 examples/pb_remote/server/CMakeFiles/pb_remote_server_nrf52832_xxAA_s132_6.0.0.dir/__/__/__/mesh/core/src/timeslot.c.obj
 .debug_frame   0x000019f0      0x1bc examples/pb_remote/server/CMakeFiles/pb_remote_server_nrf52832_xxAA_s132_6.0.0.dir/__/__/__/mesh/core/src/bearer_event.c.obj
 .debug_frame   0x00001bac      0x15c examples/pb_remote/server/CMakeFiles/pb_remote_server_nrf52832_xxAA_s132_6.0.0.dir/__/__/__/mesh/core/src/enc.c.obj
 .debug_frame   0x00001d08      0x100 examples/pb_remote/server/CMakeFiles/pb_remote_server_nrf52832_xxAA_s132_6.0.0.dir/__/__/__/mesh/core/src/network.c.obj
 .debug_frame   0x00001e08      0x114 examples/pb_remote/server/CMakeFiles/pb_remote_server_nrf52832_xxAA_s132_6.0.0.dir/__/__/__/mesh/core/src/net_packet.c.obj
 .debug_frame   0x00001f1c       0xb4 examples/pb_remote/server/CMakeFiles/pb_remote_server_nrf52832_xxAA_s132_6.0.0.dir/__/__/__/mesh/core/src/msqueue.c.obj
 .debug_frame   0x00001fd0       0xb4 examples/pb_remote/server/CMakeFiles/pb_remote_server_nrf52832_xxAA_s132_6.0.0.dir/__/__/__/mesh/core/src/nrf_mesh_keygen.c.obj
 .debug_frame   0x00002084       0xc8 examples/pb_remote/server/CMakeFiles/pb_remote_server_nrf52832_xxAA_s132_6.0.0.dir/__/__/__/mesh/core/src/list.c.obj
 .debug_frame   0x0000214c       0xb0 examples/pb_remote/server/CMakeFiles/pb_remote_server_nrf52832_xxAA_s132_6.0.0.dir/__/__/__/mesh/core/src/log.c.obj
 .debug_frame   0x000021fc      0x320 examples/pb_remote/server/CMakeFiles/pb_remote_server_nrf52832_xxAA_s132_6.0.0.dir/__/__/__/mesh/core/src/flash_manager.c.obj
 .debug_frame   0x0000251c       0xf4 examples/pb_remote/server/CMakeFiles/pb_remote_server_nrf52832_xxAA_s132_6.0.0.dir/__/__/__/mesh/core/src/ccm_soft.c.obj
 .debug_frame   0x00002610       0x80 examples/pb_remote/server/CMakeFiles/pb_remote_server_nrf52832_xxAA_s132_6.0.0.dir/__/__/__/mesh/core/src/replay_cache.c.obj
 .debug_frame   0x00002690       0x60 examples/pb_remote/server/CMakeFiles/pb_remote_server_nrf52832_xxAA_s132_6.0.0.dir/__/__/__/mesh/core/src/beacon.c.obj
 .debug_frame   0x000026f0       0x34 examples/pb_remote/server/CMakeFiles/pb_remote_server_nrf52832_xxAA_s132_6.0.0.dir/__/__/__/mesh/core/src/flash_manager_internal.c.obj
 .debug_frame   0x00002724       0xf0 examples/pb_remote/server/CMakeFiles/pb_remote_server_nrf52832_xxAA_s132_6.0.0.dir/__/__/__/mesh/core/src/core_tx.c.obj
 .debug_frame   0x00002814      0x160 examples/pb_remote/server/CMakeFiles/pb_remote_server_nrf52832_xxAA_s132_6.0.0.dir/__/__/__/mesh/core/src/heartbeat.c.obj
 .debug_frame   0x00002974      0x138 examples/pb_remote/server/CMakeFiles/pb_remote_server_nrf52832_xxAA_s132_6.0.0.dir/__/__/__/mesh/core/src/net_beacon.c.obj
 .debug_frame   0x00002aac      0x150 examples/pb_remote/server/CMakeFiles/pb_remote_server_nrf52832_xxAA_s132_6.0.0.dir/__/__/__/mesh/core/src/core_tx_adv.c.obj
 .debug_frame   0x00002bfc       0x6c examples/pb_remote/server/CMakeFiles/pb_remote_server_nrf52832_xxAA_s132_6.0.0.dir/__/__/__/mesh/bearer/src/ad_listener.c.obj
 .debug_frame   0x00002c68       0xa8 examples/pb_remote/server/CMakeFiles/pb_remote_server_nrf52832_xxAA_s132_6.0.0.dir/__/__/__/mesh/bearer/src/ad_type_filter.c.obj
 .debug_frame   0x00002d10      0x284 examples/pb_remote/server/CMakeFiles/pb_remote_server_nrf52832_xxAA_s132_6.0.0.dir/__/__/__/mesh/bearer/src/advertiser.c.obj
 .debug_frame   0x00002f94      0x1c8 examples/pb_remote/server/CMakeFiles/pb_remote_server_nrf52832_xxAA_s132_6.0.0.dir/__/__/__/mesh/bearer/src/bearer_handler.c.obj
 .debug_frame   0x0000315c       0x7c examples/pb_remote/server/CMakeFiles/pb_remote_server_nrf52832_xxAA_s132_6.0.0.dir/__/__/__/mesh/bearer/src/broadcast.c.obj
 .debug_frame   0x000031d8       0x74 examples/pb_remote/server/CMakeFiles/pb_remote_server_nrf52832_xxAA_s132_6.0.0.dir/__/__/__/mesh/bearer/src/filter_engine.c.obj
 .debug_frame   0x0000324c       0x94 examples/pb_remote/server/CMakeFiles/pb_remote_server_nrf52832_xxAA_s132_6.0.0.dir/__/__/__/mesh/bearer/src/radio_config.c.obj
 .debug_frame   0x000032e0      0x2cc examples/pb_remote/server/CMakeFiles/pb_remote_server_nrf52832_xxAA_s132_6.0.0.dir/__/__/__/mesh/bearer/src/scanner.c.obj
 .debug_frame   0x000035ac      0x10c examples/pb_remote/server/CMakeFiles/pb_remote_server_nrf52832_xxAA_s132_6.0.0.dir/__/__/__/mesh/bearer/src/mesh_pa_lna.c.obj
 .debug_frame   0x000036b8      0x198 examples/pb_remote/server/CMakeFiles/pb_remote_server_nrf52832_xxAA_s132_6.0.0.dir/__/__/__/mesh/prov/src/prov_provisionee.c.obj
 .debug_frame   0x00003850      0x160 examples/pb_remote/server/CMakeFiles/pb_remote_server_nrf52832_xxAA_s132_6.0.0.dir/__/__/__/mesh/prov/src/nrf_mesh_prov.c.obj
 .debug_frame   0x000039b0      0x170 examples/pb_remote/server/CMakeFiles/pb_remote_server_nrf52832_xxAA_s132_6.0.0.dir/__/__/__/mesh/prov/src/provisioning.c.obj
 .debug_frame   0x00003b20       0x84 examples/pb_remote/server/CMakeFiles/pb_remote_server_nrf52832_xxAA_s132_6.0.0.dir/__/__/__/mesh/prov/src/prov_beacon.c.obj
 .debug_frame   0x00003ba4      0x150 examples/pb_remote/server/CMakeFiles/pb_remote_server_nrf52832_xxAA_s132_6.0.0.dir/__/__/__/mesh/prov/src/prov_utils.c.obj
 .debug_frame   0x00003cf4      0x324 examples/pb_remote/server/CMakeFiles/pb_remote_server_nrf52832_xxAA_s132_6.0.0.dir/__/__/__/mesh/prov/src/prov_bearer_adv.c.obj
 .debug_frame   0x00004018      0x448 examples/pb_remote/server/CMakeFiles/pb_remote_server_nrf52832_xxAA_s132_6.0.0.dir/__/__/__/models/pb_remote/src/pb_remote_server.c.obj
 .debug_frame   0x00004460      0x114 examples/pb_remote/server/CMakeFiles/pb_remote_server_nrf52832_xxAA_s132_6.0.0.dir/__/__/__/mesh/access/src/access_publish.c.obj
 .debug_frame   0x00004574      0x5b8 examples/pb_remote/server/CMakeFiles/pb_remote_server_nrf52832_xxAA_s132_6.0.0.dir/__/__/__/mesh/access/src/access.c.obj
 .debug_frame   0x00004b2c      0x124 examples/pb_remote/server/CMakeFiles/pb_remote_server_nrf52832_xxAA_s132_6.0.0.dir/__/__/__/mesh/access/src/access_reliable.c.obj
 .debug_frame   0x00004c50       0x70 examples/pb_remote/server/CMakeFiles/pb_remote_server_nrf52832_xxAA_s132_6.0.0.dir/__/__/__/mesh/access/src/access_loopback.c.obj
 .debug_frame   0x00004cc0      0xae0 examples/pb_remote/server/CMakeFiles/pb_remote_server_nrf52832_xxAA_s132_6.0.0.dir/__/__/__/mesh/access/src/device_state_manager.c.obj
 .debug_frame   0x000057a0       0x40 examples/pb_remote/server/CMakeFiles/pb_remote_server_nrf52832_xxAA_s132_6.0.0.dir/__/__/__/models/config/src/composition_data.c.obj
 .debug_frame   0x000057e0      0x8ec examples/pb_remote/server/CMakeFiles/pb_remote_server_nrf52832_xxAA_s132_6.0.0.dir/__/__/__/models/config/src/config_server.c.obj
 .debug_frame   0x000060cc       0x2c examples/pb_remote/server/CMakeFiles/pb_remote_server_nrf52832_xxAA_s132_6.0.0.dir/__/__/__/models/config/src/packed_index_list.c.obj
 .debug_frame   0x000060f8      0x2a0 examples/pb_remote/server/CMakeFiles/pb_remote_server_nrf52832_xxAA_s132_6.0.0.dir/__/__/__/models/health/src/health_server.c.obj
 .debug_frame   0x00006398       0x58 examples/pb_remote/server/CMakeFiles/pb_remote_server_nrf52832_xxAA_s132_6.0.0.dir/C_/b/nRF5_SDK_15.0.0_a53641a/modules/nrfx/mdk/system_nrf52.c.obj
 .debug_frame   0x000063f0       0x44 examples/pb_remote/server/CMakeFiles/pb_remote_server_nrf52832_xxAA_s132_6.0.0.dir/C_/b/nRF5_SDK_15.0.0_a53641a/components/libraries/util/app_error.c.obj
 .debug_frame   0x00006434       0x84 examples/pb_remote/server/CMakeFiles/pb_remote_server_nrf52832_xxAA_s132_6.0.0.dir/C_/b/nRF5_SDK_15.0.0_a53641a/components/libraries/util/app_util_platform.c.obj
 .debug_frame   0x000064b8      0x16c examples/pb_remote/server/CMakeFiles/pb_remote_server_nrf52832_xxAA_s132_6.0.0.dir/C_/b/nRF5_SDK_15.0.0_a53641a/components/libraries/timer/app_timer.c.obj
 .debug_frame   0x00006624       0x20 examples/pb_remote/server/CMakeFiles/pb_remote_server_nrf52832_xxAA_s132_6.0.0.dir/C_/b/nRF5_SDK_15.0.0_a53641a/components/libraries/util/app_error_handler_gcc.c.obj
 .debug_frame   0x00006644      0x2d8 external/rtt/librtt_nrf52832_xxAA.a(SEGGER_RTT.c.obj)
 .debug_frame   0x0000691c       0xac external/rtt/librtt_nrf52832_xxAA.a(SEGGER_RTT_printf.c.obj)
 .debug_frame   0x000069c8      0x684 external/micro-ecc/libuECC_nrf52832_xxAA.a(uECC.c.obj)
 .debug_frame   0x0000704c       0x2c c:/mesh/arm_gcc/bin/../lib/gcc/arm-none-eabi/6.3.1/thumb/v7e-m/fpv4-sp/hard\libgcc.a(_aeabi_uldivmod.o)
 .debug_frame   0x00007078       0x34 c:/mesh/arm_gcc/bin/../lib/gcc/arm-none-eabi/6.3.1/thumb/v7e-m/fpv4-sp/hard\libgcc.a(_udivmoddi4.o)
 .debug_frame   0x000070ac       0x28 c:/mesh/arm_gcc/bin/../lib/gcc/arm-none-eabi/6.3.1/../../../../arm-none-eabi/lib/thumb/v7e-m/fpv4-sp/hard\libg_nano.a(lib_a-exit.o)
 .debug_frame   0x000070d4       0x2c c:/mesh/arm_gcc/bin/../lib/gcc/arm-none-eabi/6.3.1/../../../../arm-none-eabi/lib/thumb/v7e-m/fpv4-sp/hard\libg_nano.a(lib_a-init.o)
 .debug_frame   0x00007100       0x30 c:/mesh/arm_gcc/bin/../lib/gcc/arm-none-eabi/6.3.1/../../../../arm-none-eabi/lib/thumb/v7e-m/fpv4-sp/hard\libg_nano.a(lib_a-malloc.o)
 .debug_frame   0x00007130       0x28 c:/mesh/arm_gcc/bin/../lib/gcc/arm-none-eabi/6.3.1/../../../../arm-none-eabi/lib/thumb/v7e-m/fpv4-sp/hard\libg_nano.a(lib_a-memcmp.o)
 .debug_frame   0x00007158       0x28 c:/mesh/arm_gcc/bin/../lib/gcc/arm-none-eabi/6.3.1/../../../../arm-none-eabi/lib/thumb/v7e-m/fpv4-sp/hard\libg_nano.a(lib_a-memcpy-stub.o)
 .debug_frame   0x00007180       0x20 c:/mesh/arm_gcc/bin/../lib/gcc/arm-none-eabi/6.3.1/../../../../arm-none-eabi/lib/thumb/v7e-m/fpv4-sp/hard\libg_nano.a(lib_a-memset.o)
 .debug_frame   0x000071a0       0x38 c:/mesh/arm_gcc/bin/../lib/gcc/arm-none-eabi/6.3.1/../../../../arm-none-eabi/lib/thumb/v7e-m/fpv4-sp/hard\libg_nano.a(lib_a-nano-freer.o)
 .debug_frame   0x000071d8       0x2c c:/mesh/arm_gcc/bin/../lib/gcc/arm-none-eabi/6.3.1/../../../../arm-none-eabi/lib/thumb/v7e-m/fpv4-sp/hard\libg_nano.a(lib_a-nano-mallocr.o)
 .debug_frame   0x00007204       0x2c c:/mesh/arm_gcc/bin/../lib/gcc/arm-none-eabi/6.3.1/../../../../arm-none-eabi/lib/thumb/v7e-m/fpv4-sp/hard\libg_nano.a(lib_a-sbrkr.o)
 .debug_frame   0x00007230       0x20 c:/mesh/arm_gcc/bin/../lib/gcc/arm-none-eabi/6.3.1/../../../../arm-none-eabi/lib/thumb/v7e-m/fpv4-sp/hard\libg_nano.a(lib_a-strcpy.o)
 .debug_frame   0x00007250       0x34 c:/mesh/arm_gcc/bin/../lib/gcc/arm-none-eabi/6.3.1/../../../../arm-none-eabi/lib/thumb/v7e-m/fpv4-sp/hard\libg_nano.a(lib_a-strrchr.o)
 .debug_frame   0x00007284       0x30 c:/mesh/arm_gcc/bin/../lib/gcc/arm-none-eabi/6.3.1/../../../../arm-none-eabi/lib/thumb/v7e-m/fpv4-sp/hard\libg_nano.a(lib_a-mlock.o)
 .debug_frame   0x000072b4       0x5c c:/mesh/arm_gcc/bin/../lib/gcc/arm-none-eabi/6.3.1/../../../../arm-none-eabi/lib/thumb/v7e-m/fpv4-sp/hard\libg_nano.a(lib_a-reent.o)
 .debug_frame   0x00007310       0x20 c:/mesh/arm_gcc/bin/../lib/gcc/arm-none-eabi/6.3.1/../../../../arm-none-eabi/lib/thumb/v7e-m/fpv4-sp/hard\libg_nano.a(lib_a-strchr.o)
 .debug_frame   0x00007330       0x20 c:/mesh/arm_gcc/bin/../lib/gcc/arm-none-eabi/6.3.1/../../../../arm-none-eabi/lib/thumb/v7e-m/fpv4-sp/hard\libnosys.a(sbrk.o)
 .debug_frame   0x00007350       0x20 c:/mesh/arm_gcc/bin/../lib/gcc/arm-none-eabi/6.3.1/../../../../arm-none-eabi/lib/thumb/v7e-m/fpv4-sp/hard\libnosys.a(_exit.o)
