Archive member included to satisfy reference by file (symbol)

external/rtt/librtt_nrf52840_xxAA.a(SEGGER_RTT.c.obj)
                              examples/beaconing/CMakeFiles/beaconing_nrf52840_xxAA_s140_6.0.0.dir/__/__/mesh/core/src/log.c.obj (SEGGER_RTT_Write)
external/rtt/librtt_nrf52840_xxAA.a(SEGGER_RTT_printf.c.obj)
                              examples/beaconing/CMakeFiles/beaconing_nrf52840_xxAA_s140_6.0.0.dir/__/__/mesh/core/src/log.c.obj (SEGGER_RTT_vprintf)
external/micro-ecc/libuECC_nrf52840_xxAA.a(uECC.c.obj)
                              examples/beaconing/CMakeFiles/beaconing_nrf52840_xxAA_s140_6.0.0.dir/__/__/mesh/prov/src/prov_utils.c.obj (uECC_secp256r1)
c:/mesh/arm_gcc/bin/../lib/gcc/arm-none-eabi/6.3.1/../../../../arm-none-eabi/lib/thumb/v7e-m/fpv4-sp/hard\libg_nano.a(lib_a-exit.o)
                              c:/mesh/arm_gcc/bin/../lib/gcc/arm-none-eabi/6.3.1/../../../../arm-none-eabi/lib/thumb/v7e-m/fpv4-sp/hard/crt0.o (exit)
c:/mesh/arm_gcc/bin/../lib/gcc/arm-none-eabi/6.3.1/../../../../arm-none-eabi/lib/thumb/v7e-m/fpv4-sp/hard\libg_nano.a(lib_a-impure.o)
                              c:/mesh/arm_gcc/bin/../lib/gcc/arm-none-eabi/6.3.1/../../../../arm-none-eabi/lib/thumb/v7e-m/fpv4-sp/hard\libg_nano.a(lib_a-exit.o) (_global_impure_ptr)
c:/mesh/arm_gcc/bin/../lib/gcc/arm-none-eabi/6.3.1/../../../../arm-none-eabi/lib/thumb/v7e-m/fpv4-sp/hard\libg_nano.a(lib_a-init.o)
                              c:/mesh/arm_gcc/bin/../lib/gcc/arm-none-eabi/6.3.1/../../../../arm-none-eabi/lib/thumb/v7e-m/fpv4-sp/hard/crt0.o (__libc_init_array)
c:/mesh/arm_gcc/bin/../lib/gcc/arm-none-eabi/6.3.1/../../../../arm-none-eabi/lib/thumb/v7e-m/fpv4-sp/hard\libg_nano.a(lib_a-malloc.o)
                              examples/beaconing/CMakeFiles/beaconing_nrf52840_xxAA_s140_6.0.0.dir/__/__/mesh/core/src/transport.c.obj (malloc)
c:/mesh/arm_gcc/bin/../lib/gcc/arm-none-eabi/6.3.1/../../../../arm-none-eabi/lib/thumb/v7e-m/fpv4-sp/hard\libg_nano.a(lib_a-memcmp.o)
                              examples/beaconing/CMakeFiles/beaconing_nrf52840_xxAA_s140_6.0.0.dir/__/__/mesh/access/src/device_state_manager.c.obj (memcmp)
c:/mesh/arm_gcc/bin/../lib/gcc/arm-none-eabi/6.3.1/../../../../arm-none-eabi/lib/thumb/v7e-m/fpv4-sp/hard\libg_nano.a(lib_a-memcpy-stub.o)
                              examples/beaconing/CMakeFiles/beaconing_nrf52840_xxAA_s140_6.0.0.dir/src/main.c.obj (memcpy)
c:/mesh/arm_gcc/bin/../lib/gcc/arm-none-eabi/6.3.1/../../../../arm-none-eabi/lib/thumb/v7e-m/fpv4-sp/hard\libg_nano.a(lib_a-memset.o)
                              c:/mesh/arm_gcc/bin/../lib/gcc/arm-none-eabi/6.3.1/../../../../arm-none-eabi/lib/thumb/v7e-m/fpv4-sp/hard/crt0.o (memset)
c:/mesh/arm_gcc/bin/../lib/gcc/arm-none-eabi/6.3.1/../../../../arm-none-eabi/lib/thumb/v7e-m/fpv4-sp/hard\libg_nano.a(lib_a-nano-freer.o)
                              c:/mesh/arm_gcc/bin/../lib/gcc/arm-none-eabi/6.3.1/../../../../arm-none-eabi/lib/thumb/v7e-m/fpv4-sp/hard\libg_nano.a(lib_a-malloc.o) (_free_r)
c:/mesh/arm_gcc/bin/../lib/gcc/arm-none-eabi/6.3.1/../../../../arm-none-eabi/lib/thumb/v7e-m/fpv4-sp/hard\libg_nano.a(lib_a-nano-mallocr.o)
                              c:/mesh/arm_gcc/bin/../lib/gcc/arm-none-eabi/6.3.1/../../../../arm-none-eabi/lib/thumb/v7e-m/fpv4-sp/hard\libg_nano.a(lib_a-malloc.o) (_malloc_r)
c:/mesh/arm_gcc/bin/../lib/gcc/arm-none-eabi/6.3.1/../../../../arm-none-eabi/lib/thumb/v7e-m/fpv4-sp/hard\libg_nano.a(lib_a-sbrkr.o)
                              c:/mesh/arm_gcc/bin/../lib/gcc/arm-none-eabi/6.3.1/../../../../arm-none-eabi/lib/thumb/v7e-m/fpv4-sp/hard\libg_nano.a(lib_a-nano-mallocr.o) (_sbrk_r)
c:/mesh/arm_gcc/bin/../lib/gcc/arm-none-eabi/6.3.1/../../../../arm-none-eabi/lib/thumb/v7e-m/fpv4-sp/hard\libg_nano.a(lib_a-sprintf.o)
                              examples/beaconing/CMakeFiles/beaconing_nrf52840_xxAA_s140_6.0.0.dir/src/main.c.obj (sprintf)
c:/mesh/arm_gcc/bin/../lib/gcc/arm-none-eabi/6.3.1/../../../../arm-none-eabi/lib/thumb/v7e-m/fpv4-sp/hard\libg_nano.a(lib_a-strcpy.o)
                              external/rtt/librtt_nrf52840_xxAA.a(SEGGER_RTT.c.obj) (strcpy)
c:/mesh/arm_gcc/bin/../lib/gcc/arm-none-eabi/6.3.1/../../../../arm-none-eabi/lib/thumb/v7e-m/fpv4-sp/hard\libg_nano.a(lib_a-strlen.o)
                              examples/beaconing/CMakeFiles/beaconing_nrf52840_xxAA_s140_6.0.0.dir/__/__/mesh/prov/src/prov_beacon.c.obj (strlen)
c:/mesh/arm_gcc/bin/../lib/gcc/arm-none-eabi/6.3.1/../../../../arm-none-eabi/lib/thumb/v7e-m/fpv4-sp/hard\libg_nano.a(lib_a-strrchr.o)
                              examples/beaconing/CMakeFiles/beaconing_nrf52840_xxAA_s140_6.0.0.dir/src/main.c.obj (strrchr)
c:/mesh/arm_gcc/bin/../lib/gcc/arm-none-eabi/6.3.1/../../../../arm-none-eabi/lib/thumb/v7e-m/fpv4-sp/hard\libg_nano.a(lib_a-mlock.o)
                              c:/mesh/arm_gcc/bin/../lib/gcc/arm-none-eabi/6.3.1/../../../../arm-none-eabi/lib/thumb/v7e-m/fpv4-sp/hard\libg_nano.a(lib_a-nano-freer.o) (__malloc_lock)
c:/mesh/arm_gcc/bin/../lib/gcc/arm-none-eabi/6.3.1/../../../../arm-none-eabi/lib/thumb/v7e-m/fpv4-sp/hard\libg_nano.a(lib_a-nano-svfprintf.o)
                              c:/mesh/arm_gcc/bin/../lib/gcc/arm-none-eabi/6.3.1/../../../../arm-none-eabi/lib/thumb/v7e-m/fpv4-sp/hard\libg_nano.a(lib_a-sprintf.o) (_svfprintf_r)
c:/mesh/arm_gcc/bin/../lib/gcc/arm-none-eabi/6.3.1/../../../../arm-none-eabi/lib/thumb/v7e-m/fpv4-sp/hard\libg_nano.a(lib_a-nano-vfprintf_i.o)
                              c:/mesh/arm_gcc/bin/../lib/gcc/arm-none-eabi/6.3.1/../../../../arm-none-eabi/lib/thumb/v7e-m/fpv4-sp/hard\libg_nano.a(lib_a-nano-svfprintf.o) (_printf_i)
c:/mesh/arm_gcc/bin/../lib/gcc/arm-none-eabi/6.3.1/../../../../arm-none-eabi/lib/thumb/v7e-m/fpv4-sp/hard\libg_nano.a(lib_a-reent.o)
                              c:/mesh/arm_gcc/bin/../lib/gcc/arm-none-eabi/6.3.1/../../../../arm-none-eabi/lib/thumb/v7e-m/fpv4-sp/hard\libg_nano.a(lib_a-sbrkr.o) (errno)
c:/mesh/arm_gcc/bin/../lib/gcc/arm-none-eabi/6.3.1/../../../../arm-none-eabi/lib/thumb/v7e-m/fpv4-sp/hard\libg_nano.a(lib_a-strchr.o)
                              c:/mesh/arm_gcc/bin/../lib/gcc/arm-none-eabi/6.3.1/../../../../arm-none-eabi/lib/thumb/v7e-m/fpv4-sp/hard\libg_nano.a(lib_a-strrchr.o) (strchr)
c:/mesh/arm_gcc/bin/../lib/gcc/arm-none-eabi/6.3.1/../../../../arm-none-eabi/lib/thumb/v7e-m/fpv4-sp/hard\libg_nano.a(lib_a-memchr.o)
                              c:/mesh/arm_gcc/bin/../lib/gcc/arm-none-eabi/6.3.1/../../../../arm-none-eabi/lib/thumb/v7e-m/fpv4-sp/hard\libg_nano.a(lib_a-nano-svfprintf.o) (memchr)
c:/mesh/arm_gcc/bin/../lib/gcc/arm-none-eabi/6.3.1/../../../../arm-none-eabi/lib/thumb/v7e-m/fpv4-sp/hard\libg_nano.a(lib_a-memmove.o)
                              c:/mesh/arm_gcc/bin/../lib/gcc/arm-none-eabi/6.3.1/../../../../arm-none-eabi/lib/thumb/v7e-m/fpv4-sp/hard\libg_nano.a(lib_a-nano-svfprintf.o) (memmove)
c:/mesh/arm_gcc/bin/../lib/gcc/arm-none-eabi/6.3.1/../../../../arm-none-eabi/lib/thumb/v7e-m/fpv4-sp/hard\libg_nano.a(lib_a-nano-reallocr.o)
                              c:/mesh/arm_gcc/bin/../lib/gcc/arm-none-eabi/6.3.1/../../../../arm-none-eabi/lib/thumb/v7e-m/fpv4-sp/hard\libg_nano.a(lib_a-nano-svfprintf.o) (_realloc_r)
c:/mesh/arm_gcc/bin/../lib/gcc/arm-none-eabi/6.3.1/../../../../arm-none-eabi/lib/thumb/v7e-m/fpv4-sp/hard\libg_nano.a(lib_a-nano-msizer.o)
                              c:/mesh/arm_gcc/bin/../lib/gcc/arm-none-eabi/6.3.1/../../../../arm-none-eabi/lib/thumb/v7e-m/fpv4-sp/hard\libg_nano.a(lib_a-nano-reallocr.o) (_malloc_usable_size_r)
c:/mesh/arm_gcc/bin/../lib/gcc/arm-none-eabi/6.3.1/../../../../arm-none-eabi/lib/thumb/v7e-m/fpv4-sp/hard\libnosys.a(sbrk.o)
                              c:/mesh/arm_gcc/bin/../lib/gcc/arm-none-eabi/6.3.1/../../../../arm-none-eabi/lib/thumb/v7e-m/fpv4-sp/hard\libg_nano.a(lib_a-sbrkr.o) (_sbrk)
c:/mesh/arm_gcc/bin/../lib/gcc/arm-none-eabi/6.3.1/../../../../arm-none-eabi/lib/thumb/v7e-m/fpv4-sp/hard\libnosys.a(_exit.o)
                              c:/mesh/arm_gcc/bin/../lib/gcc/arm-none-eabi/6.3.1/../../../../arm-none-eabi/lib/thumb/v7e-m/fpv4-sp/hard\libg_nano.a(lib_a-exit.o) (_exit)

Allocating common symbols
Common symbol       size              file

nrf_nvic_state      0xc               examples/beaconing/CMakeFiles/beaconing_nrf52840_xxAA_s140_6.0.0.dir/__/common/src/mesh_softdevice_init.c.obj
m_packet            0x24              examples/beaconing/CMakeFiles/beaconing_nrf52840_xxAA_s140_6.0.0.dir/__/__/mesh/core/src/core_tx.c.obj
errno               0x4               c:/mesh/arm_gcc/bin/../lib/gcc/arm-none-eabi/6.3.1/../../../../arm-none-eabi/lib/thumb/v7e-m/fpv4-sp/hard\libg_nano.a(lib_a-reent.o)
_SEGGER_RTT         0x78              external/rtt/librtt_nrf52840_xxAA.a(SEGGER_RTT.c.obj)

Discarded input sections

 .text          0x00000000        0x0 c:/mesh/arm_gcc/bin/../lib/gcc/arm-none-eabi/6.3.1/thumb/v7e-m/fpv4-sp/hard/crti.o
 .data          0x00000000        0x0 c:/mesh/arm_gcc/bin/../lib/gcc/arm-none-eabi/6.3.1/thumb/v7e-m/fpv4-sp/hard/crti.o
 .bss           0x00000000        0x0 c:/mesh/arm_gcc/bin/../lib/gcc/arm-none-eabi/6.3.1/thumb/v7e-m/fpv4-sp/hard/crti.o
 .data          0x00000000        0x4 c:/mesh/arm_gcc/bin/../lib/gcc/arm-none-eabi/6.3.1/thumb/v7e-m/fpv4-sp/hard/crtbegin.o
 .data          0x00000000        0x0 c:/mesh/arm_gcc/bin/../lib/gcc/arm-none-eabi/6.3.1/../../../../arm-none-eabi/lib/thumb/v7e-m/fpv4-sp/hard/crt0.o
 .bss           0x00000000        0x0 c:/mesh/arm_gcc/bin/../lib/gcc/arm-none-eabi/6.3.1/../../../../arm-none-eabi/lib/thumb/v7e-m/fpv4-sp/hard/crt0.o
 .ARM.extab     0x00000000        0x0 c:/mesh/arm_gcc/bin/../lib/gcc/arm-none-eabi/6.3.1/../../../../arm-none-eabi/lib/thumb/v7e-m/fpv4-sp/hard/crt0.o
 .text          0x00000000        0x0 examples/beaconing/CMakeFiles/beaconing_nrf52840_xxAA_s140_6.0.0.dir/src/main.c.obj
 .data          0x00000000        0x0 examples/beaconing/CMakeFiles/beaconing_nrf52840_xxAA_s140_6.0.0.dir/src/main.c.obj
 .bss           0x00000000        0x0 examples/beaconing/CMakeFiles/beaconing_nrf52840_xxAA_s140_6.0.0.dir/src/main.c.obj
 .text          0x00000000        0x0 examples/beaconing/CMakeFiles/beaconing_nrf52840_xxAA_s140_6.0.0.dir/__/__/mesh/stack/src/mesh_stack.c.obj
 .data          0x00000000        0x0 examples/beaconing/CMakeFiles/beaconing_nrf52840_xxAA_s140_6.0.0.dir/__/__/mesh/stack/src/mesh_stack.c.obj
 .bss           0x00000000        0x0 examples/beaconing/CMakeFiles/beaconing_nrf52840_xxAA_s140_6.0.0.dir/__/__/mesh/stack/src/mesh_stack.c.obj
 .text          0x00000000        0x0 examples/beaconing/CMakeFiles/beaconing_nrf52840_xxAA_s140_6.0.0.dir/__/common/src/mesh_softdevice_init.c.obj
 .data          0x00000000        0x0 examples/beaconing/CMakeFiles/beaconing_nrf52840_xxAA_s140_6.0.0.dir/__/common/src/mesh_softdevice_init.c.obj
 .bss           0x00000000        0x0 examples/beaconing/CMakeFiles/beaconing_nrf52840_xxAA_s140_6.0.0.dir/__/common/src/mesh_softdevice_init.c.obj
 .text          0x00000000        0x0 examples/beaconing/CMakeFiles/beaconing_nrf52840_xxAA_s140_6.0.0.dir/__/common/src/mesh_provisionee.c.obj
 .data          0x00000000        0x0 examples/beaconing/CMakeFiles/beaconing_nrf52840_xxAA_s140_6.0.0.dir/__/common/src/mesh_provisionee.c.obj
 .bss           0x00000000        0x0 examples/beaconing/CMakeFiles/beaconing_nrf52840_xxAA_s140_6.0.0.dir/__/common/src/mesh_provisionee.c.obj
 .text          0x00000000        0x0 examples/beaconing/CMakeFiles/beaconing_nrf52840_xxAA_s140_6.0.0.dir/__/common/src/simple_hal.c.obj
 .data          0x00000000        0x0 examples/beaconing/CMakeFiles/beaconing_nrf52840_xxAA_s140_6.0.0.dir/__/common/src/simple_hal.c.obj
 .bss           0x00000000        0x0 examples/beaconing/CMakeFiles/beaconing_nrf52840_xxAA_s140_6.0.0.dir/__/common/src/simple_hal.c.obj
 .text.hal_led_pin_get
                0x00000000       0x18 examples/beaconing/CMakeFiles/beaconing_nrf52840_xxAA_s140_6.0.0.dir/__/common/src/simple_hal.c.obj
 .text.hal_led_pin_set
                0x00000000       0x16 examples/beaconing/CMakeFiles/beaconing_nrf52840_xxAA_s140_6.0.0.dir/__/common/src/simple_hal.c.obj
 .text.hal_buttons_init
                0x00000000       0x50 examples/beaconing/CMakeFiles/beaconing_nrf52840_xxAA_s140_6.0.0.dir/__/common/src/simple_hal.c.obj
 .text          0x00000000        0x0 examples/beaconing/CMakeFiles/beaconing_nrf52840_xxAA_s140_6.0.0.dir/__/__/mesh/access/src/access_publish.c.obj
 .data          0x00000000        0x0 examples/beaconing/CMakeFiles/beaconing_nrf52840_xxAA_s140_6.0.0.dir/__/__/mesh/access/src/access_publish.c.obj
 .bss           0x00000000        0x0 examples/beaconing/CMakeFiles/beaconing_nrf52840_xxAA_s140_6.0.0.dir/__/__/mesh/access/src/access_publish.c.obj
 .text          0x00000000        0x0 examples/beaconing/CMakeFiles/beaconing_nrf52840_xxAA_s140_6.0.0.dir/__/__/mesh/access/src/access.c.obj
 .data          0x00000000        0x0 examples/beaconing/CMakeFiles/beaconing_nrf52840_xxAA_s140_6.0.0.dir/__/__/mesh/access/src/access.c.obj
 .bss           0x00000000        0x0 examples/beaconing/CMakeFiles/beaconing_nrf52840_xxAA_s140_6.0.0.dir/__/__/mesh/access/src/access.c.obj
 .text.access_model_subscription_list_alloc
                0x00000000       0x50 examples/beaconing/CMakeFiles/beaconing_nrf52840_xxAA_s140_6.0.0.dir/__/__/mesh/access/src/access.c.obj
 .text.access_model_subscription_lists_share
                0x00000000       0x4c examples/beaconing/CMakeFiles/beaconing_nrf52840_xxAA_s140_6.0.0.dir/__/__/mesh/access/src/access.c.obj
 .text.access_element_location_set
                0x00000000       0x20 examples/beaconing/CMakeFiles/beaconing_nrf52840_xxAA_s140_6.0.0.dir/__/__/mesh/access/src/access.c.obj
 .text          0x00000000        0x0 examples/beaconing/CMakeFiles/beaconing_nrf52840_xxAA_s140_6.0.0.dir/__/__/mesh/access/src/access_reliable.c.obj
 .data          0x00000000        0x0 examples/beaconing/CMakeFiles/beaconing_nrf52840_xxAA_s140_6.0.0.dir/__/__/mesh/access/src/access_reliable.c.obj
 .bss           0x00000000        0x0 examples/beaconing/CMakeFiles/beaconing_nrf52840_xxAA_s140_6.0.0.dir/__/__/mesh/access/src/access_reliable.c.obj
 .text.access_model_reliable_publish
                0x00000000      0x1bc examples/beaconing/CMakeFiles/beaconing_nrf52840_xxAA_s140_6.0.0.dir/__/__/mesh/access/src/access_reliable.c.obj
 .text          0x00000000        0x0 examples/beaconing/CMakeFiles/beaconing_nrf52840_xxAA_s140_6.0.0.dir/__/__/mesh/access/src/device_state_manager.c.obj
 .data          0x00000000        0x0 examples/beaconing/CMakeFiles/beaconing_nrf52840_xxAA_s140_6.0.0.dir/__/__/mesh/access/src/device_state_manager.c.obj
 .bss           0x00000000        0x0 examples/beaconing/CMakeFiles/beaconing_nrf52840_xxAA_s140_6.0.0.dir/__/__/mesh/access/src/device_state_manager.c.obj
 .text.dsm_has_unflashed_data
                0x00000000       0x24 examples/beaconing/CMakeFiles/beaconing_nrf52840_xxAA_s140_6.0.0.dir/__/__/mesh/access/src/device_state_manager.c.obj
 .text.dsm_address_subscription_count_get
                0x00000000       0x58 examples/beaconing/CMakeFiles/beaconing_nrf52840_xxAA_s140_6.0.0.dir/__/__/mesh/access/src/device_state_manager.c.obj
 .text.dsm_address_get_all
                0x00000000       0x74 examples/beaconing/CMakeFiles/beaconing_nrf52840_xxAA_s140_6.0.0.dir/__/__/mesh/access/src/device_state_manager.c.obj
 .text.dsm_subnet_handle_to_netkey_index
                0x00000000       0x34 examples/beaconing/CMakeFiles/beaconing_nrf52840_xxAA_s140_6.0.0.dir/__/__/mesh/access/src/device_state_manager.c.obj
 .text.dsm_devkey_delete
                0x00000000       0x38 examples/beaconing/CMakeFiles/beaconing_nrf52840_xxAA_s140_6.0.0.dir/__/__/mesh/access/src/device_state_manager.c.obj
 .text.dsm_devkey_handle_get
                0x00000000       0x34 examples/beaconing/CMakeFiles/beaconing_nrf52840_xxAA_s140_6.0.0.dir/__/__/mesh/access/src/device_state_manager.c.obj
 .text.dsm_beacon_info_get
                0x00000000       0x38 examples/beaconing/CMakeFiles/beaconing_nrf52840_xxAA_s140_6.0.0.dir/__/__/mesh/access/src/device_state_manager.c.obj
 .text          0x00000000        0x0 examples/beaconing/CMakeFiles/beaconing_nrf52840_xxAA_s140_6.0.0.dir/__/nrf_mesh_weak.c.obj
 .data          0x00000000        0x0 examples/beaconing/CMakeFiles/beaconing_nrf52840_xxAA_s140_6.0.0.dir/__/nrf_mesh_weak.c.obj
 .bss           0x00000000        0x0 examples/beaconing/CMakeFiles/beaconing_nrf52840_xxAA_s140_6.0.0.dir/__/nrf_mesh_weak.c.obj
 .text._weak_handler_ptr
                0x00000000        0x4 examples/beaconing/CMakeFiles/beaconing_nrf52840_xxAA_s140_6.0.0.dir/__/nrf_mesh_weak.c.obj
 .text          0x00000000        0x0 examples/beaconing/CMakeFiles/beaconing_nrf52840_xxAA_s140_6.0.0.dir/__/common/src/app_error_weak.c.obj
 .data          0x00000000        0x0 examples/beaconing/CMakeFiles/beaconing_nrf52840_xxAA_s140_6.0.0.dir/__/common/src/app_error_weak.c.obj
 .bss           0x00000000        0x0 examples/beaconing/CMakeFiles/beaconing_nrf52840_xxAA_s140_6.0.0.dir/__/common/src/app_error_weak.c.obj
 .text          0x00000000        0x0 examples/beaconing/CMakeFiles/beaconing_nrf52840_xxAA_s140_6.0.0.dir/__/common/src/assertion_handler_weak.c.obj
 .data          0x00000000        0x0 examples/beaconing/CMakeFiles/beaconing_nrf52840_xxAA_s140_6.0.0.dir/__/common/src/assertion_handler_weak.c.obj
 .bss           0x00000000        0x0 examples/beaconing/CMakeFiles/beaconing_nrf52840_xxAA_s140_6.0.0.dir/__/common/src/assertion_handler_weak.c.obj
 .text          0x00000000        0x0 examples/beaconing/CMakeFiles/beaconing_nrf52840_xxAA_s140_6.0.0.dir/__/__/models/config/src/composition_data.c.obj
 .data          0x00000000        0x0 examples/beaconing/CMakeFiles/beaconing_nrf52840_xxAA_s140_6.0.0.dir/__/__/models/config/src/composition_data.c.obj
 .bss           0x00000000        0x0 examples/beaconing/CMakeFiles/beaconing_nrf52840_xxAA_s140_6.0.0.dir/__/__/models/config/src/composition_data.c.obj
 .text          0x00000000        0x0 examples/beaconing/CMakeFiles/beaconing_nrf52840_xxAA_s140_6.0.0.dir/__/__/models/config/src/config_server.c.obj
 .data          0x00000000        0x0 examples/beaconing/CMakeFiles/beaconing_nrf52840_xxAA_s140_6.0.0.dir/__/__/models/config/src/config_server.c.obj
 .bss           0x00000000        0x0 examples/beaconing/CMakeFiles/beaconing_nrf52840_xxAA_s140_6.0.0.dir/__/__/models/config/src/config_server.c.obj
 .text          0x00000000        0x0 examples/beaconing/CMakeFiles/beaconing_nrf52840_xxAA_s140_6.0.0.dir/__/__/models/config/src/packed_index_list.c.obj
 .data          0x00000000        0x0 examples/beaconing/CMakeFiles/beaconing_nrf52840_xxAA_s140_6.0.0.dir/__/__/models/config/src/packed_index_list.c.obj
 .bss           0x00000000        0x0 examples/beaconing/CMakeFiles/beaconing_nrf52840_xxAA_s140_6.0.0.dir/__/__/models/config/src/packed_index_list.c.obj
 .text          0x00000000        0x0 examples/beaconing/CMakeFiles/beaconing_nrf52840_xxAA_s140_6.0.0.dir/__/__/models/health/src/health_server.c.obj
 .data          0x00000000        0x0 examples/beaconing/CMakeFiles/beaconing_nrf52840_xxAA_s140_6.0.0.dir/__/__/models/health/src/health_server.c.obj
 .bss           0x00000000        0x0 examples/beaconing/CMakeFiles/beaconing_nrf52840_xxAA_s140_6.0.0.dir/__/__/models/health/src/health_server.c.obj
 .text.health_server_fault_is_set
                0x00000000       0x1c examples/beaconing/CMakeFiles/beaconing_nrf52840_xxAA_s140_6.0.0.dir/__/__/models/health/src/health_server.c.obj
 .text.health_server_fault_count_get
                0x00000000        0xc examples/beaconing/CMakeFiles/beaconing_nrf52840_xxAA_s140_6.0.0.dir/__/__/models/health/src/health_server.c.obj
 .text.health_server_fault_register
                0x00000000       0xca examples/beaconing/CMakeFiles/beaconing_nrf52840_xxAA_s140_6.0.0.dir/__/__/models/health/src/health_server.c.obj
 .text.health_server_fault_clear
                0x00000000       0x48 examples/beaconing/CMakeFiles/beaconing_nrf52840_xxAA_s140_6.0.0.dir/__/__/models/health/src/health_server.c.obj
 .text.health_server_attention_get
                0x00000000        0x6 examples/beaconing/CMakeFiles/beaconing_nrf52840_xxAA_s140_6.0.0.dir/__/__/models/health/src/health_server.c.obj
 .text.health_server_attention_set
                0x00000000        0x4 examples/beaconing/CMakeFiles/beaconing_nrf52840_xxAA_s140_6.0.0.dir/__/__/models/health/src/health_server.c.obj
 .text          0x00000000        0x0 examples/beaconing/CMakeFiles/beaconing_nrf52840_xxAA_s140_6.0.0.dir/__/__/mesh/prov/src/prov_provisionee.c.obj
 .data          0x00000000        0x0 examples/beaconing/CMakeFiles/beaconing_nrf52840_xxAA_s140_6.0.0.dir/__/__/mesh/prov/src/prov_provisionee.c.obj
 .bss           0x00000000        0x0 examples/beaconing/CMakeFiles/beaconing_nrf52840_xxAA_s140_6.0.0.dir/__/__/mesh/prov/src/prov_provisionee.c.obj
 .text.prov_provisionee_shared_secret
                0x00000000       0x28 examples/beaconing/CMakeFiles/beaconing_nrf52840_xxAA_s140_6.0.0.dir/__/__/mesh/prov/src/prov_provisionee.c.obj
 .text          0x00000000        0x0 examples/beaconing/CMakeFiles/beaconing_nrf52840_xxAA_s140_6.0.0.dir/__/__/mesh/prov/src/nrf_mesh_prov.c.obj
 .data          0x00000000        0x0 examples/beaconing/CMakeFiles/beaconing_nrf52840_xxAA_s140_6.0.0.dir/__/__/mesh/prov/src/nrf_mesh_prov.c.obj
 .bss           0x00000000        0x0 examples/beaconing/CMakeFiles/beaconing_nrf52840_xxAA_s140_6.0.0.dir/__/__/mesh/prov/src/nrf_mesh_prov.c.obj
 .text.nrf_mesh_prov_provision
                0x00000000       0x4e examples/beaconing/CMakeFiles/beaconing_nrf52840_xxAA_s140_6.0.0.dir/__/__/mesh/prov/src/nrf_mesh_prov.c.obj
 .text.nrf_mesh_prov_oob_use
                0x00000000       0x18 examples/beaconing/CMakeFiles/beaconing_nrf52840_xxAA_s140_6.0.0.dir/__/__/mesh/prov/src/nrf_mesh_prov.c.obj
 .text.nrf_mesh_prov_shared_secret_provide
                0x00000000        0xe examples/beaconing/CMakeFiles/beaconing_nrf52840_xxAA_s140_6.0.0.dir/__/__/mesh/prov/src/nrf_mesh_prov.c.obj
 .text.nrf_mesh_prov_pubkey_provide
                0x00000000       0x10 examples/beaconing/CMakeFiles/beaconing_nrf52840_xxAA_s140_6.0.0.dir/__/__/mesh/prov/src/nrf_mesh_prov.c.obj
 .text.nrf_mesh_prov_scan_start
                0x00000000       0x10 examples/beaconing/CMakeFiles/beaconing_nrf52840_xxAA_s140_6.0.0.dir/__/__/mesh/prov/src/nrf_mesh_prov.c.obj
 .text.nrf_mesh_prov_scan_stop
                0x00000000        0x4 examples/beaconing/CMakeFiles/beaconing_nrf52840_xxAA_s140_6.0.0.dir/__/__/mesh/prov/src/nrf_mesh_prov.c.obj
 .text          0x00000000        0x0 examples/beaconing/CMakeFiles/beaconing_nrf52840_xxAA_s140_6.0.0.dir/__/__/mesh/prov/src/provisioning.c.obj
 .data          0x00000000        0x0 examples/beaconing/CMakeFiles/beaconing_nrf52840_xxAA_s140_6.0.0.dir/__/__/mesh/prov/src/provisioning.c.obj
 .bss           0x00000000        0x0 examples/beaconing/CMakeFiles/beaconing_nrf52840_xxAA_s140_6.0.0.dir/__/__/mesh/prov/src/provisioning.c.obj
 .text.prov_tx_invite
                0x00000000       0x28 examples/beaconing/CMakeFiles/beaconing_nrf52840_xxAA_s140_6.0.0.dir/__/__/mesh/prov/src/provisioning.c.obj
 .text.prov_tx_start
                0x00000000       0x20 examples/beaconing/CMakeFiles/beaconing_nrf52840_xxAA_s140_6.0.0.dir/__/__/mesh/prov/src/provisioning.c.obj
 .text.prov_tx_data
                0x00000000        0x6 examples/beaconing/CMakeFiles/beaconing_nrf52840_xxAA_s140_6.0.0.dir/__/__/mesh/prov/src/provisioning.c.obj
 .text.prov_tx  0x00000000        0x4 examples/beaconing/CMakeFiles/beaconing_nrf52840_xxAA_s140_6.0.0.dir/__/__/mesh/prov/src/provisioning.c.obj
 .text          0x00000000        0x0 examples/beaconing/CMakeFiles/beaconing_nrf52840_xxAA_s140_6.0.0.dir/__/__/mesh/prov/src/prov_beacon.c.obj
 .data          0x00000000        0x0 examples/beaconing/CMakeFiles/beaconing_nrf52840_xxAA_s140_6.0.0.dir/__/__/mesh/prov/src/prov_beacon.c.obj
 .bss           0x00000000        0x0 examples/beaconing/CMakeFiles/beaconing_nrf52840_xxAA_s140_6.0.0.dir/__/__/mesh/prov/src/prov_beacon.c.obj
 .text.prov_beacon_scan_start
                0x00000000       0x18 examples/beaconing/CMakeFiles/beaconing_nrf52840_xxAA_s140_6.0.0.dir/__/__/mesh/prov/src/prov_beacon.c.obj
 .text.prov_beacon_scan_stop
                0x00000000        0xc examples/beaconing/CMakeFiles/beaconing_nrf52840_xxAA_s140_6.0.0.dir/__/__/mesh/prov/src/prov_beacon.c.obj
 .text          0x00000000        0x0 examples/beaconing/CMakeFiles/beaconing_nrf52840_xxAA_s140_6.0.0.dir/__/__/mesh/prov/src/prov_utils.c.obj
 .data          0x00000000        0x0 examples/beaconing/CMakeFiles/beaconing_nrf52840_xxAA_s140_6.0.0.dir/__/__/mesh/prov/src/prov_utils.c.obj
 .bss           0x00000000        0x0 examples/beaconing/CMakeFiles/beaconing_nrf52840_xxAA_s140_6.0.0.dir/__/__/mesh/prov/src/prov_utils.c.obj
 .text          0x00000000        0x0 examples/beaconing/CMakeFiles/beaconing_nrf52840_xxAA_s140_6.0.0.dir/__/__/mesh/prov/src/prov_bearer_adv.c.obj
 .data          0x00000000        0x0 examples/beaconing/CMakeFiles/beaconing_nrf52840_xxAA_s140_6.0.0.dir/__/__/mesh/prov/src/prov_bearer_adv.c.obj
 .bss           0x00000000        0x0 examples/beaconing/CMakeFiles/beaconing_nrf52840_xxAA_s140_6.0.0.dir/__/__/mesh/prov/src/prov_bearer_adv.c.obj
 .text          0x00000000        0x0 examples/beaconing/CMakeFiles/beaconing_nrf52840_xxAA_s140_6.0.0.dir/__/__/mesh/core/src/internal_event.c.obj
 .data          0x00000000        0x0 examples/beaconing/CMakeFiles/beaconing_nrf52840_xxAA_s140_6.0.0.dir/__/__/mesh/core/src/internal_event.c.obj
 .bss           0x00000000        0x0 examples/beaconing/CMakeFiles/beaconing_nrf52840_xxAA_s140_6.0.0.dir/__/__/mesh/core/src/internal_event.c.obj
 .debug_info    0x00000000      0x8f2 examples/beaconing/CMakeFiles/beaconing_nrf52840_xxAA_s140_6.0.0.dir/__/__/mesh/core/src/internal_event.c.obj
 .debug_abbrev  0x00000000      0x192 examples/beaconing/CMakeFiles/beaconing_nrf52840_xxAA_s140_6.0.0.dir/__/__/mesh/core/src/internal_event.c.obj
 .debug_aranges
                0x00000000       0x18 examples/beaconing/CMakeFiles/beaconing_nrf52840_xxAA_s140_6.0.0.dir/__/__/mesh/core/src/internal_event.c.obj
 .debug_line    0x00000000      0x1a6 examples/beaconing/CMakeFiles/beaconing_nrf52840_xxAA_s140_6.0.0.dir/__/__/mesh/core/src/internal_event.c.obj
 .debug_str     0x00000000      0x602 examples/beaconing/CMakeFiles/beaconing_nrf52840_xxAA_s140_6.0.0.dir/__/__/mesh/core/src/internal_event.c.obj
 .comment       0x00000000       0x80 examples/beaconing/CMakeFiles/beaconing_nrf52840_xxAA_s140_6.0.0.dir/__/__/mesh/core/src/internal_event.c.obj
 .ARM.attributes
                0x00000000       0x39 examples/beaconing/CMakeFiles/beaconing_nrf52840_xxAA_s140_6.0.0.dir/__/__/mesh/core/src/internal_event.c.obj
 .text          0x00000000        0x0 examples/beaconing/CMakeFiles/beaconing_nrf52840_xxAA_s140_6.0.0.dir/__/__/mesh/core/src/nrf_mesh_configure.c.obj
 .data          0x00000000        0x0 examples/beaconing/CMakeFiles/beaconing_nrf52840_xxAA_s140_6.0.0.dir/__/__/mesh/core/src/nrf_mesh_configure.c.obj
 .bss           0x00000000        0x0 examples/beaconing/CMakeFiles/beaconing_nrf52840_xxAA_s140_6.0.0.dir/__/__/mesh/core/src/nrf_mesh_configure.c.obj
 .text          0x00000000        0x0 examples/beaconing/CMakeFiles/beaconing_nrf52840_xxAA_s140_6.0.0.dir/__/__/mesh/core/src/aes.c.obj
 .data          0x00000000        0x0 examples/beaconing/CMakeFiles/beaconing_nrf52840_xxAA_s140_6.0.0.dir/__/__/mesh/core/src/aes.c.obj
 .bss           0x00000000        0x0 examples/beaconing/CMakeFiles/beaconing_nrf52840_xxAA_s140_6.0.0.dir/__/__/mesh/core/src/aes.c.obj
 .text          0x00000000        0x0 examples/beaconing/CMakeFiles/beaconing_nrf52840_xxAA_s140_6.0.0.dir/__/__/mesh/core/src/msg_cache.c.obj
 .data          0x00000000        0x0 examples/beaconing/CMakeFiles/beaconing_nrf52840_xxAA_s140_6.0.0.dir/__/__/mesh/core/src/msg_cache.c.obj
 .bss           0x00000000        0x0 examples/beaconing/CMakeFiles/beaconing_nrf52840_xxAA_s140_6.0.0.dir/__/__/mesh/core/src/msg_cache.c.obj
 .text.msg_cache_clear
                0x00000000       0x18 examples/beaconing/CMakeFiles/beaconing_nrf52840_xxAA_s140_6.0.0.dir/__/__/mesh/core/src/msg_cache.c.obj
 .text          0x00000000        0x0 examples/beaconing/CMakeFiles/beaconing_nrf52840_xxAA_s140_6.0.0.dir/__/__/mesh/core/src/transport.c.obj
 .data          0x00000000        0x0 examples/beaconing/CMakeFiles/beaconing_nrf52840_xxAA_s140_6.0.0.dir/__/__/mesh/core/src/transport.c.obj
 .bss           0x00000000        0x0 examples/beaconing/CMakeFiles/beaconing_nrf52840_xxAA_s140_6.0.0.dir/__/__/mesh/core/src/transport.c.obj
 .text.transport_sar_mem_funcs_set
                0x00000000       0x44 examples/beaconing/CMakeFiles/beaconing_nrf52840_xxAA_s140_6.0.0.dir/__/__/mesh/core/src/transport.c.obj
 .text          0x00000000        0x0 examples/beaconing/CMakeFiles/beaconing_nrf52840_xxAA_s140_6.0.0.dir/__/__/mesh/core/src/event.c.obj
 .data          0x00000000        0x0 examples/beaconing/CMakeFiles/beaconing_nrf52840_xxAA_s140_6.0.0.dir/__/__/mesh/core/src/event.c.obj
 .bss           0x00000000        0x0 examples/beaconing/CMakeFiles/beaconing_nrf52840_xxAA_s140_6.0.0.dir/__/__/mesh/core/src/event.c.obj
 .text          0x00000000        0x0 examples/beaconing/CMakeFiles/beaconing_nrf52840_xxAA_s140_6.0.0.dir/__/__/mesh/core/src/packet_buffer.c.obj
 .data          0x00000000        0x0 examples/beaconing/CMakeFiles/beaconing_nrf52840_xxAA_s140_6.0.0.dir/__/__/mesh/core/src/packet_buffer.c.obj
 .bss           0x00000000        0x0 examples/beaconing/CMakeFiles/beaconing_nrf52840_xxAA_s140_6.0.0.dir/__/__/mesh/core/src/packet_buffer.c.obj
 .text.packet_buffer_max_packet_len_get
                0x00000000       0x20 examples/beaconing/CMakeFiles/beaconing_nrf52840_xxAA_s140_6.0.0.dir/__/__/mesh/core/src/packet_buffer.c.obj
 .text          0x00000000        0x0 examples/beaconing/CMakeFiles/beaconing_nrf52840_xxAA_s140_6.0.0.dir/__/__/mesh/core/src/flash_manager_defrag.c.obj
 .data          0x00000000        0x0 examples/beaconing/CMakeFiles/beaconing_nrf52840_xxAA_s140_6.0.0.dir/__/__/mesh/core/src/flash_manager_defrag.c.obj
 .bss           0x00000000        0x0 examples/beaconing/CMakeFiles/beaconing_nrf52840_xxAA_s140_6.0.0.dir/__/__/mesh/core/src/flash_manager_defrag.c.obj
 .text.flash_manager_defragging
                0x00000000       0x38 examples/beaconing/CMakeFiles/beaconing_nrf52840_xxAA_s140_6.0.0.dir/__/__/mesh/core/src/flash_manager_defrag.c.obj
 .text          0x00000000        0x0 examples/beaconing/CMakeFiles/beaconing_nrf52840_xxAA_s140_6.0.0.dir/__/__/mesh/core/src/fifo.c.obj
 .data          0x00000000        0x0 examples/beaconing/CMakeFiles/beaconing_nrf52840_xxAA_s140_6.0.0.dir/__/__/mesh/core/src/fifo.c.obj
 .bss           0x00000000        0x0 examples/beaconing/CMakeFiles/beaconing_nrf52840_xxAA_s140_6.0.0.dir/__/__/mesh/core/src/fifo.c.obj
 .text.fifo_peek_at
                0x00000000       0x50 examples/beaconing/CMakeFiles/beaconing_nrf52840_xxAA_s140_6.0.0.dir/__/__/mesh/core/src/fifo.c.obj
 .text.fifo_peek
                0x00000000        0x6 examples/beaconing/CMakeFiles/beaconing_nrf52840_xxAA_s140_6.0.0.dir/__/__/mesh/core/src/fifo.c.obj
 .text.fifo_flush
                0x00000000        0x6 examples/beaconing/CMakeFiles/beaconing_nrf52840_xxAA_s140_6.0.0.dir/__/__/mesh/core/src/fifo.c.obj
 .text.fifo_get_len
                0x00000000        0x8 examples/beaconing/CMakeFiles/beaconing_nrf52840_xxAA_s140_6.0.0.dir/__/__/mesh/core/src/fifo.c.obj
 .text.fifo_is_full
                0x00000000       0x10 examples/beaconing/CMakeFiles/beaconing_nrf52840_xxAA_s140_6.0.0.dir/__/__/mesh/core/src/fifo.c.obj
 .text.fifo_is_empty
                0x00000000        0xc examples/beaconing/CMakeFiles/beaconing_nrf52840_xxAA_s140_6.0.0.dir/__/__/mesh/core/src/fifo.c.obj
 .text          0x00000000        0x0 examples/beaconing/CMakeFiles/beaconing_nrf52840_xxAA_s140_6.0.0.dir/__/__/mesh/core/src/nrf_flash.c.obj
 .data          0x00000000        0x0 examples/beaconing/CMakeFiles/beaconing_nrf52840_xxAA_s140_6.0.0.dir/__/__/mesh/core/src/nrf_flash.c.obj
 .bss           0x00000000        0x0 examples/beaconing/CMakeFiles/beaconing_nrf52840_xxAA_s140_6.0.0.dir/__/__/mesh/core/src/nrf_flash.c.obj
 .text          0x00000000        0x0 examples/beaconing/CMakeFiles/beaconing_nrf52840_xxAA_s140_6.0.0.dir/__/__/mesh/core/src/packet_mgr.c.obj
 .data          0x00000000        0x0 examples/beaconing/CMakeFiles/beaconing_nrf52840_xxAA_s140_6.0.0.dir/__/__/mesh/core/src/packet_mgr.c.obj
 .bss           0x00000000        0x0 examples/beaconing/CMakeFiles/beaconing_nrf52840_xxAA_s140_6.0.0.dir/__/__/mesh/core/src/packet_mgr.c.obj
 .text.packet_mgr_alloc
                0x00000000      0x17c examples/beaconing/CMakeFiles/beaconing_nrf52840_xxAA_s140_6.0.0.dir/__/__/mesh/core/src/packet_mgr.c.obj
 .text.packet_mgr_free
                0x00000000       0x58 examples/beaconing/CMakeFiles/beaconing_nrf52840_xxAA_s140_6.0.0.dir/__/__/mesh/core/src/packet_mgr.c.obj
 .text.packet_mgr_get_free_space
                0x00000000       0x1c examples/beaconing/CMakeFiles/beaconing_nrf52840_xxAA_s140_6.0.0.dir/__/__/mesh/core/src/packet_mgr.c.obj
 .text.packet_mgr_refcount_get
                0x00000000        0x6 examples/beaconing/CMakeFiles/beaconing_nrf52840_xxAA_s140_6.0.0.dir/__/__/mesh/core/src/packet_mgr.c.obj
 .text.packet_mgr_size_get
                0x00000000        0x6 examples/beaconing/CMakeFiles/beaconing_nrf52840_xxAA_s140_6.0.0.dir/__/__/mesh/core/src/packet_mgr.c.obj
 .text          0x00000000        0x0 examples/beaconing/CMakeFiles/beaconing_nrf52840_xxAA_s140_6.0.0.dir/__/__/mesh/core/src/net_state.c.obj
 .data          0x00000000        0x0 examples/beaconing/CMakeFiles/beaconing_nrf52840_xxAA_s140_6.0.0.dir/__/__/mesh/core/src/net_state.c.obj
 .bss           0x00000000        0x0 examples/beaconing/CMakeFiles/beaconing_nrf52840_xxAA_s140_6.0.0.dir/__/__/mesh/core/src/net_state.c.obj
 .text.net_state_iv_update_test_mode_set
                0x00000000        0xc examples/beaconing/CMakeFiles/beaconing_nrf52840_xxAA_s140_6.0.0.dir/__/__/mesh/core/src/net_state.c.obj
 .text.net_state_test_mode_transition_run
                0x00000000       0x2c examples/beaconing/CMakeFiles/beaconing_nrf52840_xxAA_s140_6.0.0.dir/__/__/mesh/core/src/net_state.c.obj
 .text          0x00000000        0x0 examples/beaconing/CMakeFiles/beaconing_nrf52840_xxAA_s140_6.0.0.dir/__/__/mesh/core/src/mesh_flash.c.obj
 .data          0x00000000        0x0 examples/beaconing/CMakeFiles/beaconing_nrf52840_xxAA_s140_6.0.0.dir/__/__/mesh/core/src/mesh_flash.c.obj
 .bss           0x00000000        0x0 examples/beaconing/CMakeFiles/beaconing_nrf52840_xxAA_s140_6.0.0.dir/__/__/mesh/core/src/mesh_flash.c.obj
 .text.mesh_flash_op_available_slots
                0x00000000       0x2c examples/beaconing/CMakeFiles/beaconing_nrf52840_xxAA_s140_6.0.0.dir/__/__/mesh/core/src/mesh_flash.c.obj
 .text.mesh_flash_in_progress
                0x00000000       0x34 examples/beaconing/CMakeFiles/beaconing_nrf52840_xxAA_s140_6.0.0.dir/__/__/mesh/core/src/mesh_flash.c.obj
 .text.mesh_flash_set_suspended
                0x00000000       0x74 examples/beaconing/CMakeFiles/beaconing_nrf52840_xxAA_s140_6.0.0.dir/__/__/mesh/core/src/mesh_flash.c.obj
 .bss.suspend_count.10416
                0x00000000        0x4 examples/beaconing/CMakeFiles/beaconing_nrf52840_xxAA_s140_6.0.0.dir/__/__/mesh/core/src/mesh_flash.c.obj
 .text          0x00000000        0x0 examples/beaconing/CMakeFiles/beaconing_nrf52840_xxAA_s140_6.0.0.dir/__/__/mesh/core/src/nrf_mesh_utils.c.obj
 .data          0x00000000        0x0 examples/beaconing/CMakeFiles/beaconing_nrf52840_xxAA_s140_6.0.0.dir/__/__/mesh/core/src/nrf_mesh_utils.c.obj
 .bss           0x00000000        0x0 examples/beaconing/CMakeFiles/beaconing_nrf52840_xxAA_s140_6.0.0.dir/__/__/mesh/core/src/nrf_mesh_utils.c.obj
 .text.nrf_mesh_rand_get
                0x00000000       0x10 examples/beaconing/CMakeFiles/beaconing_nrf52840_xxAA_s140_6.0.0.dir/__/__/mesh/core/src/nrf_mesh_utils.c.obj
 .text.nrf_mesh_gap_address_type_get
                0x00000000       0x30 examples/beaconing/CMakeFiles/beaconing_nrf52840_xxAA_s140_6.0.0.dir/__/__/mesh/core/src/nrf_mesh_utils.c.obj
 .text          0x00000000        0x0 examples/beaconing/CMakeFiles/beaconing_nrf52840_xxAA_s140_6.0.0.dir/__/__/mesh/core/src/nrf_mesh.c.obj
 .data          0x00000000        0x0 examples/beaconing/CMakeFiles/beaconing_nrf52840_xxAA_s140_6.0.0.dir/__/__/mesh/core/src/nrf_mesh.c.obj
 .bss           0x00000000        0x0 examples/beaconing/CMakeFiles/beaconing_nrf52840_xxAA_s140_6.0.0.dir/__/__/mesh/core/src/nrf_mesh.c.obj
 .text.nrf_mesh_disable
                0x00000000       0x28 examples/beaconing/CMakeFiles/beaconing_nrf52840_xxAA_s140_6.0.0.dir/__/__/mesh/core/src/nrf_mesh.c.obj
 .text.nrf_mesh_process
                0x00000000        0x4 examples/beaconing/CMakeFiles/beaconing_nrf52840_xxAA_s140_6.0.0.dir/__/__/mesh/core/src/nrf_mesh.c.obj
 .text.nrf_mesh_evt_handler_remove
                0x00000000        0x4 examples/beaconing/CMakeFiles/beaconing_nrf52840_xxAA_s140_6.0.0.dir/__/__/mesh/core/src/nrf_mesh.c.obj
 .text.nrf_mesh_rx_cb_clear
                0x00000000        0xc examples/beaconing/CMakeFiles/beaconing_nrf52840_xxAA_s140_6.0.0.dir/__/__/mesh/core/src/nrf_mesh.c.obj
 .text          0x00000000        0x0 examples/beaconing/CMakeFiles/beaconing_nrf52840_xxAA_s140_6.0.0.dir/__/__/mesh/core/src/queue.c.obj
 .data          0x00000000        0x0 examples/beaconing/CMakeFiles/beaconing_nrf52840_xxAA_s140_6.0.0.dir/__/__/mesh/core/src/queue.c.obj
 .bss           0x00000000        0x0 examples/beaconing/CMakeFiles/beaconing_nrf52840_xxAA_s140_6.0.0.dir/__/__/mesh/core/src/queue.c.obj
 .text          0x00000000        0x0 examples/beaconing/CMakeFiles/beaconing_nrf52840_xxAA_s140_6.0.0.dir/__/__/mesh/core/src/hal.c.obj
 .data          0x00000000        0x0 examples/beaconing/CMakeFiles/beaconing_nrf52840_xxAA_s140_6.0.0.dir/__/__/mesh/core/src/hal.c.obj
 .bss           0x00000000        0x0 examples/beaconing/CMakeFiles/beaconing_nrf52840_xxAA_s140_6.0.0.dir/__/__/mesh/core/src/hal.c.obj
 .text          0x00000000        0x0 examples/beaconing/CMakeFiles/beaconing_nrf52840_xxAA_s140_6.0.0.dir/__/__/mesh/core/src/aes_cmac.c.obj
 .data          0x00000000        0x0 examples/beaconing/CMakeFiles/beaconing_nrf52840_xxAA_s140_6.0.0.dir/__/__/mesh/core/src/aes_cmac.c.obj
 .bss           0x00000000        0x0 examples/beaconing/CMakeFiles/beaconing_nrf52840_xxAA_s140_6.0.0.dir/__/__/mesh/core/src/aes_cmac.c.obj
 .text          0x00000000        0x0 examples/beaconing/CMakeFiles/beaconing_nrf52840_xxAA_s140_6.0.0.dir/__/__/mesh/core/src/timer_scheduler.c.obj
 .data          0x00000000        0x0 examples/beaconing/CMakeFiles/beaconing_nrf52840_xxAA_s140_6.0.0.dir/__/__/mesh/core/src/timer_scheduler.c.obj
 .bss           0x00000000        0x0 examples/beaconing/CMakeFiles/beaconing_nrf52840_xxAA_s140_6.0.0.dir/__/__/mesh/core/src/timer_scheduler.c.obj
 .text          0x00000000        0x0 examples/beaconing/CMakeFiles/beaconing_nrf52840_xxAA_s140_6.0.0.dir/__/__/mesh/core/src/timer.c.obj
 .data          0x00000000        0x0 examples/beaconing/CMakeFiles/beaconing_nrf52840_xxAA_s140_6.0.0.dir/__/__/mesh/core/src/timer.c.obj
 .bss           0x00000000        0x0 examples/beaconing/CMakeFiles/beaconing_nrf52840_xxAA_s140_6.0.0.dir/__/__/mesh/core/src/timer.c.obj
 .text.timer_order_cb_ppi
                0x00000000       0xc4 examples/beaconing/CMakeFiles/beaconing_nrf52840_xxAA_s140_6.0.0.dir/__/__/mesh/core/src/timer.c.obj
 .text.timer_order_ppi
                0x00000000       0xc0 examples/beaconing/CMakeFiles/beaconing_nrf52840_xxAA_s140_6.0.0.dir/__/__/mesh/core/src/timer.c.obj
 .text.timer_abort
                0x00000000       0x78 examples/beaconing/CMakeFiles/beaconing_nrf52840_xxAA_s140_6.0.0.dir/__/__/mesh/core/src/timer.c.obj
 .text          0x00000000        0x0 examples/beaconing/CMakeFiles/beaconing_nrf52840_xxAA_s140_6.0.0.dir/__/__/mesh/core/src/ticker.c.obj
 .data          0x00000000        0x0 examples/beaconing/CMakeFiles/beaconing_nrf52840_xxAA_s140_6.0.0.dir/__/__/mesh/core/src/ticker.c.obj
 .bss           0x00000000        0x0 examples/beaconing/CMakeFiles/beaconing_nrf52840_xxAA_s140_6.0.0.dir/__/__/mesh/core/src/ticker.c.obj
 .text.ticker_get
                0x00000000        0xc examples/beaconing/CMakeFiles/beaconing_nrf52840_xxAA_s140_6.0.0.dir/__/__/mesh/core/src/ticker.c.obj
 .text          0x00000000        0x0 examples/beaconing/CMakeFiles/beaconing_nrf52840_xxAA_s140_6.0.0.dir/__/__/mesh/core/src/rand.c.obj
 .data          0x00000000        0x0 examples/beaconing/CMakeFiles/beaconing_nrf52840_xxAA_s140_6.0.0.dir/__/__/mesh/core/src/rand.c.obj
 .bss           0x00000000        0x0 examples/beaconing/CMakeFiles/beaconing_nrf52840_xxAA_s140_6.0.0.dir/__/__/mesh/core/src/rand.c.obj
 .text          0x00000000        0x0 examples/beaconing/CMakeFiles/beaconing_nrf52840_xxAA_s140_6.0.0.dir/__/__/mesh/core/src/nrf_mesh_opt.c.obj
 .data          0x00000000        0x0 examples/beaconing/CMakeFiles/beaconing_nrf52840_xxAA_s140_6.0.0.dir/__/__/mesh/core/src/nrf_mesh_opt.c.obj
 .bss           0x00000000        0x0 examples/beaconing/CMakeFiles/beaconing_nrf52840_xxAA_s140_6.0.0.dir/__/__/mesh/core/src/nrf_mesh_opt.c.obj
 .text          0x00000000        0x0 examples/beaconing/CMakeFiles/beaconing_nrf52840_xxAA_s140_6.0.0.dir/__/__/mesh/core/src/timeslot.c.obj
 .data          0x00000000        0x0 examples/beaconing/CMakeFiles/beaconing_nrf52840_xxAA_s140_6.0.0.dir/__/__/mesh/core/src/timeslot.c.obj
 .bss           0x00000000        0x0 examples/beaconing/CMakeFiles/beaconing_nrf52840_xxAA_s140_6.0.0.dir/__/__/mesh/core/src/timeslot.c.obj
 .text.timeslot_end_time_get
                0x00000000       0x10 examples/beaconing/CMakeFiles/beaconing_nrf52840_xxAA_s140_6.0.0.dir/__/__/mesh/core/src/timeslot.c.obj
 .text.timeslot_is_in_ts
                0x00000000        0xc examples/beaconing/CMakeFiles/beaconing_nrf52840_xxAA_s140_6.0.0.dir/__/__/mesh/core/src/timeslot.c.obj
 .text.timeslot_restart
                0x00000000       0x10 examples/beaconing/CMakeFiles/beaconing_nrf52840_xxAA_s140_6.0.0.dir/__/__/mesh/core/src/timeslot.c.obj
 .text          0x00000000        0x0 examples/beaconing/CMakeFiles/beaconing_nrf52840_xxAA_s140_6.0.0.dir/__/__/mesh/core/src/bearer_event.c.obj
 .data          0x00000000        0x0 examples/beaconing/CMakeFiles/beaconing_nrf52840_xxAA_s140_6.0.0.dir/__/__/mesh/core/src/bearer_event.c.obj
 .bss           0x00000000        0x0 examples/beaconing/CMakeFiles/beaconing_nrf52840_xxAA_s140_6.0.0.dir/__/__/mesh/core/src/bearer_event.c.obj
 .text.bearer_event_generic_post
                0x00000000       0x24 examples/beaconing/CMakeFiles/beaconing_nrf52840_xxAA_s140_6.0.0.dir/__/__/mesh/core/src/bearer_event.c.obj
 .text.bearer_event_timer_sch_post
                0x00000000       0x26 examples/beaconing/CMakeFiles/beaconing_nrf52840_xxAA_s140_6.0.0.dir/__/__/mesh/core/src/bearer_event.c.obj
 .text.bearer_event_in_correct_irq_priority
                0x00000000       0x48 examples/beaconing/CMakeFiles/beaconing_nrf52840_xxAA_s140_6.0.0.dir/__/__/mesh/core/src/bearer_event.c.obj
 .text          0x00000000        0x0 examples/beaconing/CMakeFiles/beaconing_nrf52840_xxAA_s140_6.0.0.dir/__/__/mesh/core/src/enc.c.obj
 .data          0x00000000        0x0 examples/beaconing/CMakeFiles/beaconing_nrf52840_xxAA_s140_6.0.0.dir/__/__/mesh/core/src/enc.c.obj
 .bss           0x00000000        0x0 examples/beaconing/CMakeFiles/beaconing_nrf52840_xxAA_s140_6.0.0.dir/__/__/mesh/core/src/enc.c.obj
 .text.enc_key_generate
                0x00000000        0x6 examples/beaconing/CMakeFiles/beaconing_nrf52840_xxAA_s140_6.0.0.dir/__/__/mesh/core/src/enc.c.obj
 .text          0x00000000        0x0 examples/beaconing/CMakeFiles/beaconing_nrf52840_xxAA_s140_6.0.0.dir/__/__/mesh/core/src/network.c.obj
 .data          0x00000000        0x0 examples/beaconing/CMakeFiles/beaconing_nrf52840_xxAA_s140_6.0.0.dir/__/__/mesh/core/src/network.c.obj
 .bss           0x00000000        0x0 examples/beaconing/CMakeFiles/beaconing_nrf52840_xxAA_s140_6.0.0.dir/__/__/mesh/core/src/network.c.obj
 .text.network_packet_discard
                0x00000000       0x1e examples/beaconing/CMakeFiles/beaconing_nrf52840_xxAA_s140_6.0.0.dir/__/__/mesh/core/src/network.c.obj
 .text          0x00000000        0x0 examples/beaconing/CMakeFiles/beaconing_nrf52840_xxAA_s140_6.0.0.dir/__/__/mesh/core/src/net_packet.c.obj
 .data          0x00000000        0x0 examples/beaconing/CMakeFiles/beaconing_nrf52840_xxAA_s140_6.0.0.dir/__/__/mesh/core/src/net_packet.c.obj
 .bss           0x00000000        0x0 examples/beaconing/CMakeFiles/beaconing_nrf52840_xxAA_s140_6.0.0.dir/__/__/mesh/core/src/net_packet.c.obj
 .text.net_packet_enc_start_get
                0x00000000        0x4 examples/beaconing/CMakeFiles/beaconing_nrf52840_xxAA_s140_6.0.0.dir/__/__/mesh/core/src/net_packet.c.obj
 .text.net_packet_payload_get
                0x00000000        0x4 examples/beaconing/CMakeFiles/beaconing_nrf52840_xxAA_s140_6.0.0.dir/__/__/mesh/core/src/net_packet.c.obj
 .text          0x00000000        0x0 examples/beaconing/CMakeFiles/beaconing_nrf52840_xxAA_s140_6.0.0.dir/__/__/mesh/core/src/msqueue.c.obj
 .data          0x00000000        0x0 examples/beaconing/CMakeFiles/beaconing_nrf52840_xxAA_s140_6.0.0.dir/__/__/mesh/core/src/msqueue.c.obj
 .bss           0x00000000        0x0 examples/beaconing/CMakeFiles/beaconing_nrf52840_xxAA_s140_6.0.0.dir/__/__/mesh/core/src/msqueue.c.obj
 .text          0x00000000        0x0 examples/beaconing/CMakeFiles/beaconing_nrf52840_xxAA_s140_6.0.0.dir/__/__/mesh/core/src/nrf_mesh_keygen.c.obj
 .data          0x00000000        0x0 examples/beaconing/CMakeFiles/beaconing_nrf52840_xxAA_s140_6.0.0.dir/__/__/mesh/core/src/nrf_mesh_keygen.c.obj
 .bss           0x00000000        0x0 examples/beaconing/CMakeFiles/beaconing_nrf52840_xxAA_s140_6.0.0.dir/__/__/mesh/core/src/nrf_mesh_keygen.c.obj
 .text.nrf_mesh_keygen_identitykey
                0x00000000       0x4c examples/beaconing/CMakeFiles/beaconing_nrf52840_xxAA_s140_6.0.0.dir/__/__/mesh/core/src/nrf_mesh_keygen.c.obj
 .text          0x00000000        0x0 examples/beaconing/CMakeFiles/beaconing_nrf52840_xxAA_s140_6.0.0.dir/__/__/mesh/core/src/cache.c.obj
 .data          0x00000000        0x0 examples/beaconing/CMakeFiles/beaconing_nrf52840_xxAA_s140_6.0.0.dir/__/__/mesh/core/src/cache.c.obj
 .bss           0x00000000        0x0 examples/beaconing/CMakeFiles/beaconing_nrf52840_xxAA_s140_6.0.0.dir/__/__/mesh/core/src/cache.c.obj
 .text.erase_at
                0x00000000       0x1c examples/beaconing/CMakeFiles/beaconing_nrf52840_xxAA_s140_6.0.0.dir/__/__/mesh/core/src/cache.c.obj
 .text.cache_init
                0x00000000       0x1e examples/beaconing/CMakeFiles/beaconing_nrf52840_xxAA_s140_6.0.0.dir/__/__/mesh/core/src/cache.c.obj
 .text.cache_has_elem
                0x00000000       0x3e examples/beaconing/CMakeFiles/beaconing_nrf52840_xxAA_s140_6.0.0.dir/__/__/mesh/core/src/cache.c.obj
 .text.cache_put
                0x00000000       0x2a examples/beaconing/CMakeFiles/beaconing_nrf52840_xxAA_s140_6.0.0.dir/__/__/mesh/core/src/cache.c.obj
 .text.cache_erase_elem
                0x00000000       0x4c examples/beaconing/CMakeFiles/beaconing_nrf52840_xxAA_s140_6.0.0.dir/__/__/mesh/core/src/cache.c.obj
 .debug_info    0x00000000      0xbe1 examples/beaconing/CMakeFiles/beaconing_nrf52840_xxAA_s140_6.0.0.dir/__/__/mesh/core/src/cache.c.obj
 .debug_abbrev  0x00000000      0x2a3 examples/beaconing/CMakeFiles/beaconing_nrf52840_xxAA_s140_6.0.0.dir/__/__/mesh/core/src/cache.c.obj
 .debug_loc     0x00000000      0x29b examples/beaconing/CMakeFiles/beaconing_nrf52840_xxAA_s140_6.0.0.dir/__/__/mesh/core/src/cache.c.obj
 .debug_aranges
                0x00000000       0x40 examples/beaconing/CMakeFiles/beaconing_nrf52840_xxAA_s140_6.0.0.dir/__/__/mesh/core/src/cache.c.obj
 .debug_ranges  0x00000000       0x80 examples/beaconing/CMakeFiles/beaconing_nrf52840_xxAA_s140_6.0.0.dir/__/__/mesh/core/src/cache.c.obj
 .debug_line    0x00000000      0x21e examples/beaconing/CMakeFiles/beaconing_nrf52840_xxAA_s140_6.0.0.dir/__/__/mesh/core/src/cache.c.obj
 .debug_str     0x00000000      0x6af examples/beaconing/CMakeFiles/beaconing_nrf52840_xxAA_s140_6.0.0.dir/__/__/mesh/core/src/cache.c.obj
 .comment       0x00000000       0x80 examples/beaconing/CMakeFiles/beaconing_nrf52840_xxAA_s140_6.0.0.dir/__/__/mesh/core/src/cache.c.obj
 .debug_frame   0x00000000       0xb0 examples/beaconing/CMakeFiles/beaconing_nrf52840_xxAA_s140_6.0.0.dir/__/__/mesh/core/src/cache.c.obj
 .ARM.attributes
                0x00000000       0x39 examples/beaconing/CMakeFiles/beaconing_nrf52840_xxAA_s140_6.0.0.dir/__/__/mesh/core/src/cache.c.obj
 .text          0x00000000        0x0 examples/beaconing/CMakeFiles/beaconing_nrf52840_xxAA_s140_6.0.0.dir/__/__/mesh/core/src/uri.c.obj
 .data          0x00000000        0x0 examples/beaconing/CMakeFiles/beaconing_nrf52840_xxAA_s140_6.0.0.dir/__/__/mesh/core/src/uri.c.obj
 .bss           0x00000000        0x0 examples/beaconing/CMakeFiles/beaconing_nrf52840_xxAA_s140_6.0.0.dir/__/__/mesh/core/src/uri.c.obj
 .text.uri_data_parse
                0x00000000       0x78 examples/beaconing/CMakeFiles/beaconing_nrf52840_xxAA_s140_6.0.0.dir/__/__/mesh/core/src/uri.c.obj
 .text.uri_scheme_name_code_point
                0x00000000       0x5c examples/beaconing/CMakeFiles/beaconing_nrf52840_xxAA_s140_6.0.0.dir/__/__/mesh/core/src/uri.c.obj
 .text.uri_data_generate
                0x00000000       0x52 examples/beaconing/CMakeFiles/beaconing_nrf52840_xxAA_s140_6.0.0.dir/__/__/mesh/core/src/uri.c.obj
 .text.uri_scheme_name_string
                0x00000000       0x14 examples/beaconing/CMakeFiles/beaconing_nrf52840_xxAA_s140_6.0.0.dir/__/__/mesh/core/src/uri.c.obj
 .rodata.m_code_point_strings
                0x00000000      0x2ec examples/beaconing/CMakeFiles/beaconing_nrf52840_xxAA_s140_6.0.0.dir/__/__/mesh/core/src/uri.c.obj
 .rodata.str1.1
                0x00000000      0x566 examples/beaconing/CMakeFiles/beaconing_nrf52840_xxAA_s140_6.0.0.dir/__/__/mesh/core/src/uri.c.obj
 .debug_info    0x00000000      0xcac examples/beaconing/CMakeFiles/beaconing_nrf52840_xxAA_s140_6.0.0.dir/__/__/mesh/core/src/uri.c.obj
 .debug_abbrev  0x00000000      0x2e4 examples/beaconing/CMakeFiles/beaconing_nrf52840_xxAA_s140_6.0.0.dir/__/__/mesh/core/src/uri.c.obj
 .debug_loc     0x00000000      0x253 examples/beaconing/CMakeFiles/beaconing_nrf52840_xxAA_s140_6.0.0.dir/__/__/mesh/core/src/uri.c.obj
 .debug_aranges
                0x00000000       0x38 examples/beaconing/CMakeFiles/beaconing_nrf52840_xxAA_s140_6.0.0.dir/__/__/mesh/core/src/uri.c.obj
 .debug_ranges  0x00000000       0x48 examples/beaconing/CMakeFiles/beaconing_nrf52840_xxAA_s140_6.0.0.dir/__/__/mesh/core/src/uri.c.obj
 .debug_line    0x00000000      0x2b1 examples/beaconing/CMakeFiles/beaconing_nrf52840_xxAA_s140_6.0.0.dir/__/__/mesh/core/src/uri.c.obj
 .debug_str     0x00000000      0x6dd examples/beaconing/CMakeFiles/beaconing_nrf52840_xxAA_s140_6.0.0.dir/__/__/mesh/core/src/uri.c.obj
 .comment       0x00000000       0x80 examples/beaconing/CMakeFiles/beaconing_nrf52840_xxAA_s140_6.0.0.dir/__/__/mesh/core/src/uri.c.obj
 .debug_frame   0x00000000       0x84 examples/beaconing/CMakeFiles/beaconing_nrf52840_xxAA_s140_6.0.0.dir/__/__/mesh/core/src/uri.c.obj
 .ARM.attributes
                0x00000000       0x39 examples/beaconing/CMakeFiles/beaconing_nrf52840_xxAA_s140_6.0.0.dir/__/__/mesh/core/src/uri.c.obj
 .text          0x00000000        0x0 examples/beaconing/CMakeFiles/beaconing_nrf52840_xxAA_s140_6.0.0.dir/__/__/mesh/core/src/list.c.obj
 .data          0x00000000        0x0 examples/beaconing/CMakeFiles/beaconing_nrf52840_xxAA_s140_6.0.0.dir/__/__/mesh/core/src/list.c.obj
 .bss           0x00000000        0x0 examples/beaconing/CMakeFiles/beaconing_nrf52840_xxAA_s140_6.0.0.dir/__/__/mesh/core/src/list.c.obj
 .text.list_size_get
                0x00000000       0x12 examples/beaconing/CMakeFiles/beaconing_nrf52840_xxAA_s140_6.0.0.dir/__/__/mesh/core/src/list.c.obj
 .text.list_sorted_add
                0x00000000       0x6c examples/beaconing/CMakeFiles/beaconing_nrf52840_xxAA_s140_6.0.0.dir/__/__/mesh/core/src/list.c.obj
 .text          0x00000000        0x0 examples/beaconing/CMakeFiles/beaconing_nrf52840_xxAA_s140_6.0.0.dir/__/__/mesh/core/src/log.c.obj
 .data          0x00000000        0x0 examples/beaconing/CMakeFiles/beaconing_nrf52840_xxAA_s140_6.0.0.dir/__/__/mesh/core/src/log.c.obj
 .bss           0x00000000        0x0 examples/beaconing/CMakeFiles/beaconing_nrf52840_xxAA_s140_6.0.0.dir/__/__/mesh/core/src/log.c.obj
 .text.log_callback_logview
                0x00000000       0x38 examples/beaconing/CMakeFiles/beaconing_nrf52840_xxAA_s140_6.0.0.dir/__/__/mesh/core/src/log.c.obj
 .text.log_set_callback
                0x00000000        0xc examples/beaconing/CMakeFiles/beaconing_nrf52840_xxAA_s140_6.0.0.dir/__/__/mesh/core/src/log.c.obj
 .rodata.log_callback_logview.str1.1
                0x00000000        0xf examples/beaconing/CMakeFiles/beaconing_nrf52840_xxAA_s140_6.0.0.dir/__/__/mesh/core/src/log.c.obj
 .text          0x00000000        0x0 examples/beaconing/CMakeFiles/beaconing_nrf52840_xxAA_s140_6.0.0.dir/__/__/mesh/core/src/flash_manager.c.obj
 .data          0x00000000        0x0 examples/beaconing/CMakeFiles/beaconing_nrf52840_xxAA_s140_6.0.0.dir/__/__/mesh/core/src/flash_manager.c.obj
 .bss           0x00000000        0x0 examples/beaconing/CMakeFiles/beaconing_nrf52840_xxAA_s140_6.0.0.dir/__/__/mesh/core/src/flash_manager.c.obj
 .text.flash_manager_entry_count_get
                0x00000000       0x50 examples/beaconing/CMakeFiles/beaconing_nrf52840_xxAA_s140_6.0.0.dir/__/__/mesh/core/src/flash_manager.c.obj
 .text.flash_manager_entry_release
                0x00000000       0x2c examples/beaconing/CMakeFiles/beaconing_nrf52840_xxAA_s140_6.0.0.dir/__/__/mesh/core/src/flash_manager.c.obj
 .text          0x00000000        0x0 examples/beaconing/CMakeFiles/beaconing_nrf52840_xxAA_s140_6.0.0.dir/__/__/mesh/core/src/ccm_soft.c.obj
 .data          0x00000000        0x0 examples/beaconing/CMakeFiles/beaconing_nrf52840_xxAA_s140_6.0.0.dir/__/__/mesh/core/src/ccm_soft.c.obj
 .bss           0x00000000        0x0 examples/beaconing/CMakeFiles/beaconing_nrf52840_xxAA_s140_6.0.0.dir/__/__/mesh/core/src/ccm_soft.c.obj
 .text          0x00000000        0x0 examples/beaconing/CMakeFiles/beaconing_nrf52840_xxAA_s140_6.0.0.dir/__/__/mesh/core/src/toolchain.c.obj
 .data          0x00000000        0x0 examples/beaconing/CMakeFiles/beaconing_nrf52840_xxAA_s140_6.0.0.dir/__/__/mesh/core/src/toolchain.c.obj
 .bss           0x00000000        0x0 examples/beaconing/CMakeFiles/beaconing_nrf52840_xxAA_s140_6.0.0.dir/__/__/mesh/core/src/toolchain.c.obj
 .debug_info    0x00000000       0xb3 examples/beaconing/CMakeFiles/beaconing_nrf52840_xxAA_s140_6.0.0.dir/__/__/mesh/core/src/toolchain.c.obj
 .debug_abbrev  0x00000000       0x5c examples/beaconing/CMakeFiles/beaconing_nrf52840_xxAA_s140_6.0.0.dir/__/__/mesh/core/src/toolchain.c.obj
 .debug_aranges
                0x00000000       0x18 examples/beaconing/CMakeFiles/beaconing_nrf52840_xxAA_s140_6.0.0.dir/__/__/mesh/core/src/toolchain.c.obj
 .debug_line    0x00000000      0x127 examples/beaconing/CMakeFiles/beaconing_nrf52840_xxAA_s140_6.0.0.dir/__/__/mesh/core/src/toolchain.c.obj
 .debug_str     0x00000000      0x1fa examples/beaconing/CMakeFiles/beaconing_nrf52840_xxAA_s140_6.0.0.dir/__/__/mesh/core/src/toolchain.c.obj
 .comment       0x00000000       0x80 examples/beaconing/CMakeFiles/beaconing_nrf52840_xxAA_s140_6.0.0.dir/__/__/mesh/core/src/toolchain.c.obj
 .ARM.attributes
                0x00000000       0x39 examples/beaconing/CMakeFiles/beaconing_nrf52840_xxAA_s140_6.0.0.dir/__/__/mesh/core/src/toolchain.c.obj
 .text          0x00000000        0x0 examples/beaconing/CMakeFiles/beaconing_nrf52840_xxAA_s140_6.0.0.dir/__/__/mesh/core/src/replay_cache.c.obj
 .data          0x00000000        0x0 examples/beaconing/CMakeFiles/beaconing_nrf52840_xxAA_s140_6.0.0.dir/__/__/mesh/core/src/replay_cache.c.obj
 .bss           0x00000000        0x0 examples/beaconing/CMakeFiles/beaconing_nrf52840_xxAA_s140_6.0.0.dir/__/__/mesh/core/src/replay_cache.c.obj
 .text.replay_cache_on_iv_update
                0x00000000       0x24 examples/beaconing/CMakeFiles/beaconing_nrf52840_xxAA_s140_6.0.0.dir/__/__/mesh/core/src/replay_cache.c.obj
 .text          0x00000000        0x0 examples/beaconing/CMakeFiles/beaconing_nrf52840_xxAA_s140_6.0.0.dir/__/__/mesh/core/src/beacon.c.obj
 .data          0x00000000        0x0 examples/beaconing/CMakeFiles/beaconing_nrf52840_xxAA_s140_6.0.0.dir/__/__/mesh/core/src/beacon.c.obj
 .bss           0x00000000        0x0 examples/beaconing/CMakeFiles/beaconing_nrf52840_xxAA_s140_6.0.0.dir/__/__/mesh/core/src/beacon.c.obj
 .text          0x00000000        0x0 examples/beaconing/CMakeFiles/beaconing_nrf52840_xxAA_s140_6.0.0.dir/__/__/mesh/core/src/flash_manager_internal.c.obj
 .data          0x00000000        0x0 examples/beaconing/CMakeFiles/beaconing_nrf52840_xxAA_s140_6.0.0.dir/__/__/mesh/core/src/flash_manager_internal.c.obj
 .bss           0x00000000        0x0 examples/beaconing/CMakeFiles/beaconing_nrf52840_xxAA_s140_6.0.0.dir/__/__/mesh/core/src/flash_manager_internal.c.obj
 .text          0x00000000        0x0 examples/beaconing/CMakeFiles/beaconing_nrf52840_xxAA_s140_6.0.0.dir/__/__/mesh/core/src/core_tx.c.obj
 .data          0x00000000        0x0 examples/beaconing/CMakeFiles/beaconing_nrf52840_xxAA_s140_6.0.0.dir/__/__/mesh/core/src/core_tx.c.obj
 .bss           0x00000000        0x0 examples/beaconing/CMakeFiles/beaconing_nrf52840_xxAA_s140_6.0.0.dir/__/__/mesh/core/src/core_tx.c.obj
 .text.core_tx_bearer_type_get
                0x00000000       0x1c examples/beaconing/CMakeFiles/beaconing_nrf52840_xxAA_s140_6.0.0.dir/__/__/mesh/core/src/core_tx.c.obj
 .text.core_tx_bearer_count_get
                0x00000000        0xc examples/beaconing/CMakeFiles/beaconing_nrf52840_xxAA_s140_6.0.0.dir/__/__/mesh/core/src/core_tx.c.obj
 .text          0x00000000        0x0 examples/beaconing/CMakeFiles/beaconing_nrf52840_xxAA_s140_6.0.0.dir/__/__/mesh/core/src/heartbeat.c.obj
 .data          0x00000000        0x0 examples/beaconing/CMakeFiles/beaconing_nrf52840_xxAA_s140_6.0.0.dir/__/__/mesh/core/src/heartbeat.c.obj
 .bss           0x00000000        0x0 examples/beaconing/CMakeFiles/beaconing_nrf52840_xxAA_s140_6.0.0.dir/__/__/mesh/core/src/heartbeat.c.obj
 .text          0x00000000        0x0 examples/beaconing/CMakeFiles/beaconing_nrf52840_xxAA_s140_6.0.0.dir/__/__/mesh/core/src/net_beacon.c.obj
 .data          0x00000000        0x0 examples/beaconing/CMakeFiles/beaconing_nrf52840_xxAA_s140_6.0.0.dir/__/__/mesh/core/src/net_beacon.c.obj
 .bss           0x00000000        0x0 examples/beaconing/CMakeFiles/beaconing_nrf52840_xxAA_s140_6.0.0.dir/__/__/mesh/core/src/net_beacon.c.obj
 .text.net_beacon_build
                0x00000000       0x24 examples/beaconing/CMakeFiles/beaconing_nrf52840_xxAA_s140_6.0.0.dir/__/__/mesh/core/src/net_beacon.c.obj
 .text          0x00000000        0x0 examples/beaconing/CMakeFiles/beaconing_nrf52840_xxAA_s140_6.0.0.dir/__/__/mesh/core/src/fsm.c.obj
 .data          0x00000000        0x0 examples/beaconing/CMakeFiles/beaconing_nrf52840_xxAA_s140_6.0.0.dir/__/__/mesh/core/src/fsm.c.obj
 .bss           0x00000000        0x0 examples/beaconing/CMakeFiles/beaconing_nrf52840_xxAA_s140_6.0.0.dir/__/__/mesh/core/src/fsm.c.obj
 .text.fsm_event_post_try
                0x00000000      0x1ec examples/beaconing/CMakeFiles/beaconing_nrf52840_xxAA_s140_6.0.0.dir/__/__/mesh/core/src/fsm.c.obj
 .text.fsm_init
                0x00000000       0xcc examples/beaconing/CMakeFiles/beaconing_nrf52840_xxAA_s140_6.0.0.dir/__/__/mesh/core/src/fsm.c.obj
 .text.fsm_event_post
                0x00000000       0xac examples/beaconing/CMakeFiles/beaconing_nrf52840_xxAA_s140_6.0.0.dir/__/__/mesh/core/src/fsm.c.obj
 .text.fsm_is_processing
                0x00000000        0xa examples/beaconing/CMakeFiles/beaconing_nrf52840_xxAA_s140_6.0.0.dir/__/__/mesh/core/src/fsm.c.obj
 .rodata.fsm_event_post.str1.1
                0x00000000        0xb examples/beaconing/CMakeFiles/beaconing_nrf52840_xxAA_s140_6.0.0.dir/__/__/mesh/core/src/fsm.c.obj
 .rodata.fsm_event_post_try.str1.1
                0x00000000       0x41 examples/beaconing/CMakeFiles/beaconing_nrf52840_xxAA_s140_6.0.0.dir/__/__/mesh/core/src/fsm.c.obj
 .rodata.fsm_init.str1.1
                0x00000000        0xa examples/beaconing/CMakeFiles/beaconing_nrf52840_xxAA_s140_6.0.0.dir/__/__/mesh/core/src/fsm.c.obj
 .debug_info    0x00000000     0x132d examples/beaconing/CMakeFiles/beaconing_nrf52840_xxAA_s140_6.0.0.dir/__/__/mesh/core/src/fsm.c.obj
 .debug_abbrev  0x00000000      0x345 examples/beaconing/CMakeFiles/beaconing_nrf52840_xxAA_s140_6.0.0.dir/__/__/mesh/core/src/fsm.c.obj
 .debug_loc     0x00000000      0x3fd examples/beaconing/CMakeFiles/beaconing_nrf52840_xxAA_s140_6.0.0.dir/__/__/mesh/core/src/fsm.c.obj
 .debug_aranges
                0x00000000       0x38 examples/beaconing/CMakeFiles/beaconing_nrf52840_xxAA_s140_6.0.0.dir/__/__/mesh/core/src/fsm.c.obj
 .debug_ranges  0x00000000       0xe0 examples/beaconing/CMakeFiles/beaconing_nrf52840_xxAA_s140_6.0.0.dir/__/__/mesh/core/src/fsm.c.obj
 .debug_line    0x00000000      0x3dc examples/beaconing/CMakeFiles/beaconing_nrf52840_xxAA_s140_6.0.0.dir/__/__/mesh/core/src/fsm.c.obj
 .debug_str     0x00000000      0x984 examples/beaconing/CMakeFiles/beaconing_nrf52840_xxAA_s140_6.0.0.dir/__/__/mesh/core/src/fsm.c.obj
 .comment       0x00000000       0x80 examples/beaconing/CMakeFiles/beaconing_nrf52840_xxAA_s140_6.0.0.dir/__/__/mesh/core/src/fsm.c.obj
 .debug_frame   0x00000000       0x9c examples/beaconing/CMakeFiles/beaconing_nrf52840_xxAA_s140_6.0.0.dir/__/__/mesh/core/src/fsm.c.obj
 .ARM.attributes
                0x00000000       0x39 examples/beaconing/CMakeFiles/beaconing_nrf52840_xxAA_s140_6.0.0.dir/__/__/mesh/core/src/fsm.c.obj
 .text          0x00000000        0x0 examples/beaconing/CMakeFiles/beaconing_nrf52840_xxAA_s140_6.0.0.dir/__/__/mesh/core/src/core_tx_adv.c.obj
 .data          0x00000000        0x0 examples/beaconing/CMakeFiles/beaconing_nrf52840_xxAA_s140_6.0.0.dir/__/__/mesh/core/src/core_tx_adv.c.obj
 .bss           0x00000000        0x0 examples/beaconing/CMakeFiles/beaconing_nrf52840_xxAA_s140_6.0.0.dir/__/__/mesh/core/src/core_tx_adv.c.obj
 .text.core_tx_adv_address_set
                0x00000000       0x28 examples/beaconing/CMakeFiles/beaconing_nrf52840_xxAA_s140_6.0.0.dir/__/__/mesh/core/src/core_tx_adv.c.obj
 .text          0x00000000        0x0 examples/beaconing/CMakeFiles/beaconing_nrf52840_xxAA_s140_6.0.0.dir/__/__/mesh/bearer/src/ad_listener.c.obj
 .data          0x00000000        0x0 examples/beaconing/CMakeFiles/beaconing_nrf52840_xxAA_s140_6.0.0.dir/__/__/mesh/bearer/src/ad_listener.c.obj
 .bss           0x00000000        0x0 examples/beaconing/CMakeFiles/beaconing_nrf52840_xxAA_s140_6.0.0.dir/__/__/mesh/bearer/src/ad_listener.c.obj
 .text.ad_listener_unsubscribe
                0x00000000       0x6c examples/beaconing/CMakeFiles/beaconing_nrf52840_xxAA_s140_6.0.0.dir/__/__/mesh/bearer/src/ad_listener.c.obj
 .text          0x00000000        0x0 examples/beaconing/CMakeFiles/beaconing_nrf52840_xxAA_s140_6.0.0.dir/__/__/mesh/bearer/src/ad_type_filter.c.obj
 .data          0x00000000        0x0 examples/beaconing/CMakeFiles/beaconing_nrf52840_xxAA_s140_6.0.0.dir/__/__/mesh/bearer/src/ad_type_filter.c.obj
 .bss           0x00000000        0x0 examples/beaconing/CMakeFiles/beaconing_nrf52840_xxAA_s140_6.0.0.dir/__/__/mesh/bearer/src/ad_type_filter.c.obj
 .text.bearer_adtype_remove
                0x00000000       0x20 examples/beaconing/CMakeFiles/beaconing_nrf52840_xxAA_s140_6.0.0.dir/__/__/mesh/bearer/src/ad_type_filter.c.obj
 .text.bearer_adtype_clear
                0x00000000       0x10 examples/beaconing/CMakeFiles/beaconing_nrf52840_xxAA_s140_6.0.0.dir/__/__/mesh/bearer/src/ad_type_filter.c.obj
 .text.bearer_invalid_length_amount_get
                0x00000000        0xc examples/beaconing/CMakeFiles/beaconing_nrf52840_xxAA_s140_6.0.0.dir/__/__/mesh/bearer/src/ad_type_filter.c.obj
 .text.bearer_adtype_filtered_amount_get
                0x00000000        0xc examples/beaconing/CMakeFiles/beaconing_nrf52840_xxAA_s140_6.0.0.dir/__/__/mesh/bearer/src/ad_type_filter.c.obj
 .text          0x00000000        0x0 examples/beaconing/CMakeFiles/beaconing_nrf52840_xxAA_s140_6.0.0.dir/__/__/mesh/bearer/src/adv_packet_filter.c.obj
 .data          0x00000000        0x0 examples/beaconing/CMakeFiles/beaconing_nrf52840_xxAA_s140_6.0.0.dir/__/__/mesh/bearer/src/adv_packet_filter.c.obj
 .bss           0x00000000        0x0 examples/beaconing/CMakeFiles/beaconing_nrf52840_xxAA_s140_6.0.0.dir/__/__/mesh/bearer/src/adv_packet_filter.c.obj
 .text.adv_filter_handle
                0x00000000       0x3c examples/beaconing/CMakeFiles/beaconing_nrf52840_xxAA_s140_6.0.0.dir/__/__/mesh/bearer/src/adv_packet_filter.c.obj
 .text.bearer_adv_packet_filtering_set
                0x00000000       0x1c examples/beaconing/CMakeFiles/beaconing_nrf52840_xxAA_s140_6.0.0.dir/__/__/mesh/bearer/src/adv_packet_filter.c.obj
 .text.bearer_adv_packet_remove
                0x00000000       0x18 examples/beaconing/CMakeFiles/beaconing_nrf52840_xxAA_s140_6.0.0.dir/__/__/mesh/bearer/src/adv_packet_filter.c.obj
 .text.bearer_adv_packet_add
                0x00000000       0x14 examples/beaconing/CMakeFiles/beaconing_nrf52840_xxAA_s140_6.0.0.dir/__/__/mesh/bearer/src/adv_packet_filter.c.obj
 .text.bearer_adv_packet_clear
                0x00000000        0xc examples/beaconing/CMakeFiles/beaconing_nrf52840_xxAA_s140_6.0.0.dir/__/__/mesh/bearer/src/adv_packet_filter.c.obj
 .text.bearer_adv_packet_filter_mode_set
                0x00000000       0x18 examples/beaconing/CMakeFiles/beaconing_nrf52840_xxAA_s140_6.0.0.dir/__/__/mesh/bearer/src/adv_packet_filter.c.obj
 .text.bearer_adv_packet_filtered_amount_get
                0x00000000        0xc examples/beaconing/CMakeFiles/beaconing_nrf52840_xxAA_s140_6.0.0.dir/__/__/mesh/bearer/src/adv_packet_filter.c.obj
 .bss.m_adv_packet_filter
                0x00000000       0x14 examples/beaconing/CMakeFiles/beaconing_nrf52840_xxAA_s140_6.0.0.dir/__/__/mesh/bearer/src/adv_packet_filter.c.obj
 .debug_info    0x00000000      0xd97 examples/beaconing/CMakeFiles/beaconing_nrf52840_xxAA_s140_6.0.0.dir/__/__/mesh/bearer/src/adv_packet_filter.c.obj
 .debug_abbrev  0x00000000      0x2c9 examples/beaconing/CMakeFiles/beaconing_nrf52840_xxAA_s140_6.0.0.dir/__/__/mesh/bearer/src/adv_packet_filter.c.obj
 .debug_loc     0x00000000      0x1c0 examples/beaconing/CMakeFiles/beaconing_nrf52840_xxAA_s140_6.0.0.dir/__/__/mesh/bearer/src/adv_packet_filter.c.obj
 .debug_aranges
                0x00000000       0x50 examples/beaconing/CMakeFiles/beaconing_nrf52840_xxAA_s140_6.0.0.dir/__/__/mesh/bearer/src/adv_packet_filter.c.obj
 .debug_ranges  0x00000000       0x40 examples/beaconing/CMakeFiles/beaconing_nrf52840_xxAA_s140_6.0.0.dir/__/__/mesh/bearer/src/adv_packet_filter.c.obj
 .debug_line    0x00000000      0x35e examples/beaconing/CMakeFiles/beaconing_nrf52840_xxAA_s140_6.0.0.dir/__/__/mesh/bearer/src/adv_packet_filter.c.obj
 .debug_str     0x00000000      0xa28 examples/beaconing/CMakeFiles/beaconing_nrf52840_xxAA_s140_6.0.0.dir/__/__/mesh/bearer/src/adv_packet_filter.c.obj
 .comment       0x00000000       0x80 examples/beaconing/CMakeFiles/beaconing_nrf52840_xxAA_s140_6.0.0.dir/__/__/mesh/bearer/src/adv_packet_filter.c.obj
 .debug_frame   0x00000000       0x88 examples/beaconing/CMakeFiles/beaconing_nrf52840_xxAA_s140_6.0.0.dir/__/__/mesh/bearer/src/adv_packet_filter.c.obj
 .ARM.attributes
                0x00000000       0x39 examples/beaconing/CMakeFiles/beaconing_nrf52840_xxAA_s140_6.0.0.dir/__/__/mesh/bearer/src/adv_packet_filter.c.obj
 .text          0x00000000        0x0 examples/beaconing/CMakeFiles/beaconing_nrf52840_xxAA_s140_6.0.0.dir/__/__/mesh/bearer/src/advertiser.c.obj
 .data          0x00000000        0x0 examples/beaconing/CMakeFiles/beaconing_nrf52840_xxAA_s140_6.0.0.dir/__/__/mesh/bearer/src/advertiser.c.obj
 .bss           0x00000000        0x0 examples/beaconing/CMakeFiles/beaconing_nrf52840_xxAA_s140_6.0.0.dir/__/__/mesh/bearer/src/advertiser.c.obj
 .text.advertiser_disable
                0x00000000        0xa examples/beaconing/CMakeFiles/beaconing_nrf52840_xxAA_s140_6.0.0.dir/__/__/mesh/bearer/src/advertiser.c.obj
 .text.advertiser_channels_set
                0x00000000       0x60 examples/beaconing/CMakeFiles/beaconing_nrf52840_xxAA_s140_6.0.0.dir/__/__/mesh/bearer/src/advertiser.c.obj
 .text.advertiser_address_set
                0x00000000       0x3c examples/beaconing/CMakeFiles/beaconing_nrf52840_xxAA_s140_6.0.0.dir/__/__/mesh/bearer/src/advertiser.c.obj
 .text.advertiser_config_set
                0x00000000       0x36 examples/beaconing/CMakeFiles/beaconing_nrf52840_xxAA_s140_6.0.0.dir/__/__/mesh/bearer/src/advertiser.c.obj
 .text.advertiser_config_get
                0x00000000       0x20 examples/beaconing/CMakeFiles/beaconing_nrf52840_xxAA_s140_6.0.0.dir/__/__/mesh/bearer/src/advertiser.c.obj
 .text          0x00000000        0x0 examples/beaconing/CMakeFiles/beaconing_nrf52840_xxAA_s140_6.0.0.dir/__/__/mesh/bearer/src/bearer_handler.c.obj
 .data          0x00000000        0x0 examples/beaconing/CMakeFiles/beaconing_nrf52840_xxAA_s140_6.0.0.dir/__/__/mesh/bearer/src/bearer_handler.c.obj
 .bss           0x00000000        0x0 examples/beaconing/CMakeFiles/beaconing_nrf52840_xxAA_s140_6.0.0.dir/__/__/mesh/bearer/src/bearer_handler.c.obj
 .text.bearer_handler_stop
                0x00000000       0x20 examples/beaconing/CMakeFiles/beaconing_nrf52840_xxAA_s140_6.0.0.dir/__/__/mesh/bearer/src/bearer_handler.c.obj
 .text.bearer_handler_action_fire
                0x00000000       0x94 examples/beaconing/CMakeFiles/beaconing_nrf52840_xxAA_s140_6.0.0.dir/__/__/mesh/bearer/src/bearer_handler.c.obj
 .text          0x00000000        0x0 examples/beaconing/CMakeFiles/beaconing_nrf52840_xxAA_s140_6.0.0.dir/__/__/mesh/bearer/src/broadcast.c.obj
 .data          0x00000000        0x0 examples/beaconing/CMakeFiles/beaconing_nrf52840_xxAA_s140_6.0.0.dir/__/__/mesh/bearer/src/broadcast.c.obj
 .bss           0x00000000        0x0 examples/beaconing/CMakeFiles/beaconing_nrf52840_xxAA_s140_6.0.0.dir/__/__/mesh/bearer/src/broadcast.c.obj
 .text          0x00000000        0x0 examples/beaconing/CMakeFiles/beaconing_nrf52840_xxAA_s140_6.0.0.dir/__/__/mesh/bearer/src/filter_engine.c.obj
 .data          0x00000000        0x0 examples/beaconing/CMakeFiles/beaconing_nrf52840_xxAA_s140_6.0.0.dir/__/__/mesh/bearer/src/filter_engine.c.obj
 .bss           0x00000000        0x0 examples/beaconing/CMakeFiles/beaconing_nrf52840_xxAA_s140_6.0.0.dir/__/__/mesh/bearer/src/filter_engine.c.obj
 .text.fen_accepted_amount_get
                0x00000000        0xc examples/beaconing/CMakeFiles/beaconing_nrf52840_xxAA_s140_6.0.0.dir/__/__/mesh/bearer/src/filter_engine.c.obj
 .text          0x00000000        0x0 examples/beaconing/CMakeFiles/beaconing_nrf52840_xxAA_s140_6.0.0.dir/__/__/mesh/bearer/src/gap_address_filter.c.obj
 .data          0x00000000        0x0 examples/beaconing/CMakeFiles/beaconing_nrf52840_xxAA_s140_6.0.0.dir/__/__/mesh/bearer/src/gap_address_filter.c.obj
 .bss           0x00000000        0x0 examples/beaconing/CMakeFiles/beaconing_nrf52840_xxAA_s140_6.0.0.dir/__/__/mesh/bearer/src/gap_address_filter.c.obj
 .text.gap_address_filter_handle
                0x00000000       0xa6 examples/beaconing/CMakeFiles/beaconing_nrf52840_xxAA_s140_6.0.0.dir/__/__/mesh/bearer/src/gap_address_filter.c.obj
 .text.gap_addr_filter_set
                0x00000000       0x40 examples/beaconing/CMakeFiles/beaconing_nrf52840_xxAA_s140_6.0.0.dir/__/__/mesh/bearer/src/gap_address_filter.c.obj
 .text.bearer_filter_gap_addr_whitelist_set
                0x00000000        0x6 examples/beaconing/CMakeFiles/beaconing_nrf52840_xxAA_s140_6.0.0.dir/__/__/mesh/bearer/src/gap_address_filter.c.obj
 .text.bearer_filter_gap_addr_blacklist_set
                0x00000000        0x6 examples/beaconing/CMakeFiles/beaconing_nrf52840_xxAA_s140_6.0.0.dir/__/__/mesh/bearer/src/gap_address_filter.c.obj
 .text.bearer_filter_gap_addr_range_set
                0x00000000       0x38 examples/beaconing/CMakeFiles/beaconing_nrf52840_xxAA_s140_6.0.0.dir/__/__/mesh/bearer/src/gap_address_filter.c.obj
 .text.bearer_filter_gap_addr_clear
                0x00000000       0x20 examples/beaconing/CMakeFiles/beaconing_nrf52840_xxAA_s140_6.0.0.dir/__/__/mesh/bearer/src/gap_address_filter.c.obj
 .text.bearer_gap_addr_filtered_amount_get
                0x00000000        0xc examples/beaconing/CMakeFiles/beaconing_nrf52840_xxAA_s140_6.0.0.dir/__/__/mesh/bearer/src/gap_address_filter.c.obj
 .bss.m_addr_filter
                0x00000000       0x18 examples/beaconing/CMakeFiles/beaconing_nrf52840_xxAA_s140_6.0.0.dir/__/__/mesh/bearer/src/gap_address_filter.c.obj
 .debug_info    0x00000000      0xebb examples/beaconing/CMakeFiles/beaconing_nrf52840_xxAA_s140_6.0.0.dir/__/__/mesh/bearer/src/gap_address_filter.c.obj
 .debug_abbrev  0x00000000      0x2f4 examples/beaconing/CMakeFiles/beaconing_nrf52840_xxAA_s140_6.0.0.dir/__/__/mesh/bearer/src/gap_address_filter.c.obj
 .debug_loc     0x00000000      0x3e8 examples/beaconing/CMakeFiles/beaconing_nrf52840_xxAA_s140_6.0.0.dir/__/__/mesh/bearer/src/gap_address_filter.c.obj
 .debug_aranges
                0x00000000       0x50 examples/beaconing/CMakeFiles/beaconing_nrf52840_xxAA_s140_6.0.0.dir/__/__/mesh/bearer/src/gap_address_filter.c.obj
 .debug_ranges  0x00000000       0x58 examples/beaconing/CMakeFiles/beaconing_nrf52840_xxAA_s140_6.0.0.dir/__/__/mesh/bearer/src/gap_address_filter.c.obj
 .debug_line    0x00000000      0x3b6 examples/beaconing/CMakeFiles/beaconing_nrf52840_xxAA_s140_6.0.0.dir/__/__/mesh/bearer/src/gap_address_filter.c.obj
 .debug_str     0x00000000      0x982 examples/beaconing/CMakeFiles/beaconing_nrf52840_xxAA_s140_6.0.0.dir/__/__/mesh/bearer/src/gap_address_filter.c.obj
 .comment       0x00000000       0x80 examples/beaconing/CMakeFiles/beaconing_nrf52840_xxAA_s140_6.0.0.dir/__/__/mesh/bearer/src/gap_address_filter.c.obj
 .debug_frame   0x00000000       0xb4 examples/beaconing/CMakeFiles/beaconing_nrf52840_xxAA_s140_6.0.0.dir/__/__/mesh/bearer/src/gap_address_filter.c.obj
 .ARM.attributes
                0x00000000       0x39 examples/beaconing/CMakeFiles/beaconing_nrf52840_xxAA_s140_6.0.0.dir/__/__/mesh/bearer/src/gap_address_filter.c.obj
 .text          0x00000000        0x0 examples/beaconing/CMakeFiles/beaconing_nrf52840_xxAA_s140_6.0.0.dir/__/__/mesh/bearer/src/radio_config.c.obj
 .data          0x00000000        0x0 examples/beaconing/CMakeFiles/beaconing_nrf52840_xxAA_s140_6.0.0.dir/__/__/mesh/bearer/src/radio_config.c.obj
 .bss           0x00000000        0x0 examples/beaconing/CMakeFiles/beaconing_nrf52840_xxAA_s140_6.0.0.dir/__/__/mesh/bearer/src/radio_config.c.obj
 .text.radio_config_access_addr_get
                0x00000000       0x4c examples/beaconing/CMakeFiles/beaconing_nrf52840_xxAA_s140_6.0.0.dir/__/__/mesh/bearer/src/radio_config.c.obj
 .text          0x00000000        0x0 examples/beaconing/CMakeFiles/beaconing_nrf52840_xxAA_s140_6.0.0.dir/__/__/mesh/bearer/src/rssi_filter.c.obj
 .data          0x00000000        0x0 examples/beaconing/CMakeFiles/beaconing_nrf52840_xxAA_s140_6.0.0.dir/__/__/mesh/bearer/src/rssi_filter.c.obj
 .bss           0x00000000        0x0 examples/beaconing/CMakeFiles/beaconing_nrf52840_xxAA_s140_6.0.0.dir/__/__/mesh/bearer/src/rssi_filter.c.obj
 .text.rssi_filter_handle
                0x00000000       0x20 examples/beaconing/CMakeFiles/beaconing_nrf52840_xxAA_s140_6.0.0.dir/__/__/mesh/bearer/src/rssi_filter.c.obj
 .text.bearer_rssi_filtering_set
                0x00000000       0x34 examples/beaconing/CMakeFiles/beaconing_nrf52840_xxAA_s140_6.0.0.dir/__/__/mesh/bearer/src/rssi_filter.c.obj
 .text.bearer_rssi_filtered_amount_get
                0x00000000        0xc examples/beaconing/CMakeFiles/beaconing_nrf52840_xxAA_s140_6.0.0.dir/__/__/mesh/bearer/src/rssi_filter.c.obj
 .bss.m_rssi_filter
                0x00000000       0x18 examples/beaconing/CMakeFiles/beaconing_nrf52840_xxAA_s140_6.0.0.dir/__/__/mesh/bearer/src/rssi_filter.c.obj
 .debug_info    0x00000000      0xc73 examples/beaconing/CMakeFiles/beaconing_nrf52840_xxAA_s140_6.0.0.dir/__/__/mesh/bearer/src/rssi_filter.c.obj
 .debug_abbrev  0x00000000      0x28e examples/beaconing/CMakeFiles/beaconing_nrf52840_xxAA_s140_6.0.0.dir/__/__/mesh/bearer/src/rssi_filter.c.obj
 .debug_loc     0x00000000       0xb3 examples/beaconing/CMakeFiles/beaconing_nrf52840_xxAA_s140_6.0.0.dir/__/__/mesh/bearer/src/rssi_filter.c.obj
 .debug_aranges
                0x00000000       0x30 examples/beaconing/CMakeFiles/beaconing_nrf52840_xxAA_s140_6.0.0.dir/__/__/mesh/bearer/src/rssi_filter.c.obj
 .debug_ranges  0x00000000       0x20 examples/beaconing/CMakeFiles/beaconing_nrf52840_xxAA_s140_6.0.0.dir/__/__/mesh/bearer/src/rssi_filter.c.obj
 .debug_line    0x00000000      0x2d3 examples/beaconing/CMakeFiles/beaconing_nrf52840_xxAA_s140_6.0.0.dir/__/__/mesh/bearer/src/rssi_filter.c.obj
 .debug_str     0x00000000      0x83d examples/beaconing/CMakeFiles/beaconing_nrf52840_xxAA_s140_6.0.0.dir/__/__/mesh/bearer/src/rssi_filter.c.obj
 .comment       0x00000000       0x80 examples/beaconing/CMakeFiles/beaconing_nrf52840_xxAA_s140_6.0.0.dir/__/__/mesh/bearer/src/rssi_filter.c.obj
 .debug_frame   0x00000000       0x54 examples/beaconing/CMakeFiles/beaconing_nrf52840_xxAA_s140_6.0.0.dir/__/__/mesh/bearer/src/rssi_filter.c.obj
 .ARM.attributes
                0x00000000       0x39 examples/beaconing/CMakeFiles/beaconing_nrf52840_xxAA_s140_6.0.0.dir/__/__/mesh/bearer/src/rssi_filter.c.obj
 .text          0x00000000        0x0 examples/beaconing/CMakeFiles/beaconing_nrf52840_xxAA_s140_6.0.0.dir/__/__/mesh/bearer/src/scanner.c.obj
 .data          0x00000000        0x0 examples/beaconing/CMakeFiles/beaconing_nrf52840_xxAA_s140_6.0.0.dir/__/__/mesh/bearer/src/scanner.c.obj
 .bss           0x00000000        0x0 examples/beaconing/CMakeFiles/beaconing_nrf52840_xxAA_s140_6.0.0.dir/__/__/mesh/bearer/src/scanner.c.obj
 .text.scanner_rx_callback_set
                0x00000000       0x20 examples/beaconing/CMakeFiles/beaconing_nrf52840_xxAA_s140_6.0.0.dir/__/__/mesh/bearer/src/scanner.c.obj
 .text.scanner_disable
                0x00000000       0x3c examples/beaconing/CMakeFiles/beaconing_nrf52840_xxAA_s140_6.0.0.dir/__/__/mesh/bearer/src/scanner.c.obj
 .text.scanner_is_enabled
                0x00000000       0x10 examples/beaconing/CMakeFiles/beaconing_nrf52840_xxAA_s140_6.0.0.dir/__/__/mesh/bearer/src/scanner.c.obj
 .text.scanner_stats_get
                0x00000000        0x8 examples/beaconing/CMakeFiles/beaconing_nrf52840_xxAA_s140_6.0.0.dir/__/__/mesh/bearer/src/scanner.c.obj
 .text.scanner_config_radio_mode_set
                0x00000000       0x10 examples/beaconing/CMakeFiles/beaconing_nrf52840_xxAA_s140_6.0.0.dir/__/__/mesh/bearer/src/scanner.c.obj
 .text          0x00000000        0x0 examples/beaconing/CMakeFiles/beaconing_nrf52840_xxAA_s140_6.0.0.dir/C_/b/nRF5_SDK_15.0.0_a53641a/modules/nrfx/mdk/system_nrf52840.c.obj
 .data          0x00000000        0x0 examples/beaconing/CMakeFiles/beaconing_nrf52840_xxAA_s140_6.0.0.dir/C_/b/nRF5_SDK_15.0.0_a53641a/modules/nrfx/mdk/system_nrf52840.c.obj
 .bss           0x00000000        0x0 examples/beaconing/CMakeFiles/beaconing_nrf52840_xxAA_s140_6.0.0.dir/C_/b/nRF5_SDK_15.0.0_a53641a/modules/nrfx/mdk/system_nrf52840.c.obj
 .text.SystemCoreClockUpdate
                0x00000000       0x10 examples/beaconing/CMakeFiles/beaconing_nrf52840_xxAA_s140_6.0.0.dir/C_/b/nRF5_SDK_15.0.0_a53641a/modules/nrfx/mdk/system_nrf52840.c.obj
 .data          0x00000000        0x0 examples/beaconing/CMakeFiles/beaconing_nrf52840_xxAA_s140_6.0.0.dir/C_/b/nRF5_SDK_15.0.0_a53641a/modules/nrfx/mdk/gcc_startup_nrf52840.S.obj
 .bss           0x00000000        0x0 examples/beaconing/CMakeFiles/beaconing_nrf52840_xxAA_s140_6.0.0.dir/C_/b/nRF5_SDK_15.0.0_a53641a/modules/nrfx/mdk/gcc_startup_nrf52840.S.obj
 .text          0x00000000        0x0 examples/beaconing/CMakeFiles/beaconing_nrf52840_xxAA_s140_6.0.0.dir/C_/b/nRF5_SDK_15.0.0_a53641a/components/libraries/util/app_error.c.obj
 .data          0x00000000        0x0 examples/beaconing/CMakeFiles/beaconing_nrf52840_xxAA_s140_6.0.0.dir/C_/b/nRF5_SDK_15.0.0_a53641a/components/libraries/util/app_error.c.obj
 .bss           0x00000000        0x0 examples/beaconing/CMakeFiles/beaconing_nrf52840_xxAA_s140_6.0.0.dir/C_/b/nRF5_SDK_15.0.0_a53641a/components/libraries/util/app_error.c.obj
 .text.app_error_save_and_stop
                0x00000000       0x58 examples/beaconing/CMakeFiles/beaconing_nrf52840_xxAA_s140_6.0.0.dir/C_/b/nRF5_SDK_15.0.0_a53641a/components/libraries/util/app_error.c.obj
 .bss.m_error_data.8119
                0x00000000       0x20 examples/beaconing/CMakeFiles/beaconing_nrf52840_xxAA_s140_6.0.0.dir/C_/b/nRF5_SDK_15.0.0_a53641a/components/libraries/util/app_error.c.obj
 .text          0x00000000        0x0 examples/beaconing/CMakeFiles/beaconing_nrf52840_xxAA_s140_6.0.0.dir/C_/b/nRF5_SDK_15.0.0_a53641a/components/libraries/util/app_error_handler_gcc.c.obj
 .data          0x00000000        0x0 examples/beaconing/CMakeFiles/beaconing_nrf52840_xxAA_s140_6.0.0.dir/C_/b/nRF5_SDK_15.0.0_a53641a/components/libraries/util/app_error_handler_gcc.c.obj
 .bss           0x00000000        0x0 examples/beaconing/CMakeFiles/beaconing_nrf52840_xxAA_s140_6.0.0.dir/C_/b/nRF5_SDK_15.0.0_a53641a/components/libraries/util/app_error_handler_gcc.c.obj
 .text          0x00000000        0x0 external/rtt/librtt_nrf52840_xxAA.a(SEGGER_RTT.c.obj)
 .data          0x00000000        0x0 external/rtt/librtt_nrf52840_xxAA.a(SEGGER_RTT.c.obj)
 .bss           0x00000000        0x0 external/rtt/librtt_nrf52840_xxAA.a(SEGGER_RTT.c.obj)
 .text._PostTerminalSwitch.constprop.0
                0x00000000       0x28 external/rtt/librtt_nrf52840_xxAA.a(SEGGER_RTT.c.obj)
 .text.SEGGER_RTT_ReadNoLock
                0x00000000       0x88 external/rtt/librtt_nrf52840_xxAA.a(SEGGER_RTT.c.obj)
 .text.SEGGER_RTT_Read
                0x00000000       0x1c external/rtt/librtt_nrf52840_xxAA.a(SEGGER_RTT.c.obj)
 .text.SEGGER_RTT_WriteSkipNoLock
                0x00000000       0xb4 external/rtt/librtt_nrf52840_xxAA.a(SEGGER_RTT.c.obj)
 .text.SEGGER_RTT_WriteString
                0x00000000       0x1a external/rtt/librtt_nrf52840_xxAA.a(SEGGER_RTT.c.obj)
 .text.SEGGER_RTT_GetKey
                0x00000000       0x20 external/rtt/librtt_nrf52840_xxAA.a(SEGGER_RTT.c.obj)
 .text.SEGGER_RTT_WaitKey
                0x00000000        0xc external/rtt/librtt_nrf52840_xxAA.a(SEGGER_RTT.c.obj)
 .text.SEGGER_RTT_HasKey
                0x00000000       0x1c external/rtt/librtt_nrf52840_xxAA.a(SEGGER_RTT.c.obj)
 .text.SEGGER_RTT_HasData
                0x00000000       0x14 external/rtt/librtt_nrf52840_xxAA.a(SEGGER_RTT.c.obj)
 .text.SEGGER_RTT_AllocDownBuffer
                0x00000000       0x68 external/rtt/librtt_nrf52840_xxAA.a(SEGGER_RTT.c.obj)
 .text.SEGGER_RTT_AllocUpBuffer
                0x00000000       0x70 external/rtt/librtt_nrf52840_xxAA.a(SEGGER_RTT.c.obj)
 .text.SEGGER_RTT_ConfigUpBuffer
                0x00000000       0x68 external/rtt/librtt_nrf52840_xxAA.a(SEGGER_RTT.c.obj)
 .text.SEGGER_RTT_ConfigDownBuffer
                0x00000000       0x60 external/rtt/librtt_nrf52840_xxAA.a(SEGGER_RTT.c.obj)
 .text.SEGGER_RTT_SetNameUpBuffer
                0x00000000       0x3c external/rtt/librtt_nrf52840_xxAA.a(SEGGER_RTT.c.obj)
 .text.SEGGER_RTT_SetNameDownBuffer
                0x00000000       0x3c external/rtt/librtt_nrf52840_xxAA.a(SEGGER_RTT.c.obj)
 .text.SEGGER_RTT_Init
                0x00000000       0x10 external/rtt/librtt_nrf52840_xxAA.a(SEGGER_RTT.c.obj)
 .text.SEGGER_RTT_SetTerminal
                0x00000000       0x84 external/rtt/librtt_nrf52840_xxAA.a(SEGGER_RTT.c.obj)
 .text.SEGGER_RTT_TerminalOut
                0x00000000       0xa0 external/rtt/librtt_nrf52840_xxAA.a(SEGGER_RTT.c.obj)
 .bss._ActiveTerminal
                0x00000000        0x1 external/rtt/librtt_nrf52840_xxAA.a(SEGGER_RTT.c.obj)
 .rodata._aTerminalId
                0x00000000       0x10 external/rtt/librtt_nrf52840_xxAA.a(SEGGER_RTT.c.obj)
 .text          0x00000000        0x0 external/rtt/librtt_nrf52840_xxAA.a(SEGGER_RTT_printf.c.obj)
 .data          0x00000000        0x0 external/rtt/librtt_nrf52840_xxAA.a(SEGGER_RTT_printf.c.obj)
 .bss           0x00000000        0x0 external/rtt/librtt_nrf52840_xxAA.a(SEGGER_RTT_printf.c.obj)
 .text          0x00000000        0x0 external/micro-ecc/libuECC_nrf52840_xxAA.a(uECC.c.obj)
 .data          0x00000000        0x0 external/micro-ecc/libuECC_nrf52840_xxAA.a(uECC.c.obj)
 .bss           0x00000000        0x0 external/micro-ecc/libuECC_nrf52840_xxAA.a(uECC.c.obj)
 .text.uECC_vli_modMult
                0x00000000      0x148 external/micro-ecc/libuECC_nrf52840_xxAA.a(uECC.c.obj)
 .text.HMAC_init
                0x00000000       0x46 external/micro-ecc/libuECC_nrf52840_xxAA.a(uECC.c.obj)
 .text.HMAC_update
                0x00000000        0x4 external/micro-ecc/libuECC_nrf52840_xxAA.a(uECC.c.obj)
 .text.HMAC_finish
                0x00000000       0x62 external/micro-ecc/libuECC_nrf52840_xxAA.a(uECC.c.obj)
 .text.update_V
                0x00000000       0x24 external/micro-ecc/libuECC_nrf52840_xxAA.a(uECC.c.obj)
 .text.bits2int
                0x00000000       0x88 external/micro-ecc/libuECC_nrf52840_xxAA.a(uECC.c.obj)
 .text.uECC_sign_with_k
                0x00000000      0x17c external/micro-ecc/libuECC_nrf52840_xxAA.a(uECC.c.obj)
 .text.uECC_set_rng
                0x00000000        0xc external/micro-ecc/libuECC_nrf52840_xxAA.a(uECC.c.obj)
 .text.uECC_get_rng
                0x00000000        0xc external/micro-ecc/libuECC_nrf52840_xxAA.a(uECC.c.obj)
 .text.uECC_curve_private_key_size
                0x00000000        0xe external/micro-ecc/libuECC_nrf52840_xxAA.a(uECC.c.obj)
 .text.uECC_curve_public_key_size
                0x00000000        0x8 external/micro-ecc/libuECC_nrf52840_xxAA.a(uECC.c.obj)
 .text.uECC_compute_public_key
                0x00000000       0x7e external/micro-ecc/libuECC_nrf52840_xxAA.a(uECC.c.obj)
 .text.uECC_sign
                0x00000000       0x56 external/micro-ecc/libuECC_nrf52840_xxAA.a(uECC.c.obj)
 .text.uECC_sign_deterministic
                0x00000000      0x192 external/micro-ecc/libuECC_nrf52840_xxAA.a(uECC.c.obj)
 .text.uECC_verify
                0x00000000      0x2f0 external/micro-ecc/libuECC_nrf52840_xxAA.a(uECC.c.obj)
 .text          0x00000000        0x0 c:/mesh/arm_gcc/bin/../lib/gcc/arm-none-eabi/6.3.1/../../../../arm-none-eabi/lib/thumb/v7e-m/fpv4-sp/hard\libg_nano.a(lib_a-exit.o)
 .data          0x00000000        0x0 c:/mesh/arm_gcc/bin/../lib/gcc/arm-none-eabi/6.3.1/../../../../arm-none-eabi/lib/thumb/v7e-m/fpv4-sp/hard\libg_nano.a(lib_a-exit.o)
 .bss           0x00000000        0x0 c:/mesh/arm_gcc/bin/../lib/gcc/arm-none-eabi/6.3.1/../../../../arm-none-eabi/lib/thumb/v7e-m/fpv4-sp/hard\libg_nano.a(lib_a-exit.o)
 .text          0x00000000        0x0 c:/mesh/arm_gcc/bin/../lib/gcc/arm-none-eabi/6.3.1/../../../../arm-none-eabi/lib/thumb/v7e-m/fpv4-sp/hard\libg_nano.a(lib_a-impure.o)
 .data          0x00000000        0x0 c:/mesh/arm_gcc/bin/../lib/gcc/arm-none-eabi/6.3.1/../../../../arm-none-eabi/lib/thumb/v7e-m/fpv4-sp/hard\libg_nano.a(lib_a-impure.o)
 .bss           0x00000000        0x0 c:/mesh/arm_gcc/bin/../lib/gcc/arm-none-eabi/6.3.1/../../../../arm-none-eabi/lib/thumb/v7e-m/fpv4-sp/hard\libg_nano.a(lib_a-impure.o)
 .text          0x00000000        0x0 c:/mesh/arm_gcc/bin/../lib/gcc/arm-none-eabi/6.3.1/../../../../arm-none-eabi/lib/thumb/v7e-m/fpv4-sp/hard\libg_nano.a(lib_a-init.o)
 .data          0x00000000        0x0 c:/mesh/arm_gcc/bin/../lib/gcc/arm-none-eabi/6.3.1/../../../../arm-none-eabi/lib/thumb/v7e-m/fpv4-sp/hard\libg_nano.a(lib_a-init.o)
 .bss           0x00000000        0x0 c:/mesh/arm_gcc/bin/../lib/gcc/arm-none-eabi/6.3.1/../../../../arm-none-eabi/lib/thumb/v7e-m/fpv4-sp/hard\libg_nano.a(lib_a-init.o)
 .text          0x00000000        0x0 c:/mesh/arm_gcc/bin/../lib/gcc/arm-none-eabi/6.3.1/../../../../arm-none-eabi/lib/thumb/v7e-m/fpv4-sp/hard\libg_nano.a(lib_a-malloc.o)
 .data          0x00000000        0x0 c:/mesh/arm_gcc/bin/../lib/gcc/arm-none-eabi/6.3.1/../../../../arm-none-eabi/lib/thumb/v7e-m/fpv4-sp/hard\libg_nano.a(lib_a-malloc.o)
 .bss           0x00000000        0x0 c:/mesh/arm_gcc/bin/../lib/gcc/arm-none-eabi/6.3.1/../../../../arm-none-eabi/lib/thumb/v7e-m/fpv4-sp/hard\libg_nano.a(lib_a-malloc.o)
 .text          0x00000000        0x0 c:/mesh/arm_gcc/bin/../lib/gcc/arm-none-eabi/6.3.1/../../../../arm-none-eabi/lib/thumb/v7e-m/fpv4-sp/hard\libg_nano.a(lib_a-memcmp.o)
 .data          0x00000000        0x0 c:/mesh/arm_gcc/bin/../lib/gcc/arm-none-eabi/6.3.1/../../../../arm-none-eabi/lib/thumb/v7e-m/fpv4-sp/hard\libg_nano.a(lib_a-memcmp.o)
 .bss           0x00000000        0x0 c:/mesh/arm_gcc/bin/../lib/gcc/arm-none-eabi/6.3.1/../../../../arm-none-eabi/lib/thumb/v7e-m/fpv4-sp/hard\libg_nano.a(lib_a-memcmp.o)
 .text          0x00000000        0x0 c:/mesh/arm_gcc/bin/../lib/gcc/arm-none-eabi/6.3.1/../../../../arm-none-eabi/lib/thumb/v7e-m/fpv4-sp/hard\libg_nano.a(lib_a-memcpy-stub.o)
 .data          0x00000000        0x0 c:/mesh/arm_gcc/bin/../lib/gcc/arm-none-eabi/6.3.1/../../../../arm-none-eabi/lib/thumb/v7e-m/fpv4-sp/hard\libg_nano.a(lib_a-memcpy-stub.o)
 .bss           0x00000000        0x0 c:/mesh/arm_gcc/bin/../lib/gcc/arm-none-eabi/6.3.1/../../../../arm-none-eabi/lib/thumb/v7e-m/fpv4-sp/hard\libg_nano.a(lib_a-memcpy-stub.o)
 .text          0x00000000        0x0 c:/mesh/arm_gcc/bin/../lib/gcc/arm-none-eabi/6.3.1/../../../../arm-none-eabi/lib/thumb/v7e-m/fpv4-sp/hard\libg_nano.a(lib_a-memset.o)
 .data          0x00000000        0x0 c:/mesh/arm_gcc/bin/../lib/gcc/arm-none-eabi/6.3.1/../../../../arm-none-eabi/lib/thumb/v7e-m/fpv4-sp/hard\libg_nano.a(lib_a-memset.o)
 .bss           0x00000000        0x0 c:/mesh/arm_gcc/bin/../lib/gcc/arm-none-eabi/6.3.1/../../../../arm-none-eabi/lib/thumb/v7e-m/fpv4-sp/hard\libg_nano.a(lib_a-memset.o)
 .text          0x00000000        0x0 c:/mesh/arm_gcc/bin/../lib/gcc/arm-none-eabi/6.3.1/../../../../arm-none-eabi/lib/thumb/v7e-m/fpv4-sp/hard\libg_nano.a(lib_a-nano-freer.o)
 .data          0x00000000        0x0 c:/mesh/arm_gcc/bin/../lib/gcc/arm-none-eabi/6.3.1/../../../../arm-none-eabi/lib/thumb/v7e-m/fpv4-sp/hard\libg_nano.a(lib_a-nano-freer.o)
 .bss           0x00000000        0x0 c:/mesh/arm_gcc/bin/../lib/gcc/arm-none-eabi/6.3.1/../../../../arm-none-eabi/lib/thumb/v7e-m/fpv4-sp/hard\libg_nano.a(lib_a-nano-freer.o)
 .text          0x00000000        0x0 c:/mesh/arm_gcc/bin/../lib/gcc/arm-none-eabi/6.3.1/../../../../arm-none-eabi/lib/thumb/v7e-m/fpv4-sp/hard\libg_nano.a(lib_a-nano-mallocr.o)
 .data          0x00000000        0x0 c:/mesh/arm_gcc/bin/../lib/gcc/arm-none-eabi/6.3.1/../../../../arm-none-eabi/lib/thumb/v7e-m/fpv4-sp/hard\libg_nano.a(lib_a-nano-mallocr.o)
 .bss           0x00000000        0x0 c:/mesh/arm_gcc/bin/../lib/gcc/arm-none-eabi/6.3.1/../../../../arm-none-eabi/lib/thumb/v7e-m/fpv4-sp/hard\libg_nano.a(lib_a-nano-mallocr.o)
 .text          0x00000000        0x0 c:/mesh/arm_gcc/bin/../lib/gcc/arm-none-eabi/6.3.1/../../../../arm-none-eabi/lib/thumb/v7e-m/fpv4-sp/hard\libg_nano.a(lib_a-sbrkr.o)
 .data          0x00000000        0x0 c:/mesh/arm_gcc/bin/../lib/gcc/arm-none-eabi/6.3.1/../../../../arm-none-eabi/lib/thumb/v7e-m/fpv4-sp/hard\libg_nano.a(lib_a-sbrkr.o)
 .bss           0x00000000        0x0 c:/mesh/arm_gcc/bin/../lib/gcc/arm-none-eabi/6.3.1/../../../../arm-none-eabi/lib/thumb/v7e-m/fpv4-sp/hard\libg_nano.a(lib_a-sbrkr.o)
 .text          0x00000000        0x0 c:/mesh/arm_gcc/bin/../lib/gcc/arm-none-eabi/6.3.1/../../../../arm-none-eabi/lib/thumb/v7e-m/fpv4-sp/hard\libg_nano.a(lib_a-sprintf.o)
 .data          0x00000000        0x0 c:/mesh/arm_gcc/bin/../lib/gcc/arm-none-eabi/6.3.1/../../../../arm-none-eabi/lib/thumb/v7e-m/fpv4-sp/hard\libg_nano.a(lib_a-sprintf.o)
 .bss           0x00000000        0x0 c:/mesh/arm_gcc/bin/../lib/gcc/arm-none-eabi/6.3.1/../../../../arm-none-eabi/lib/thumb/v7e-m/fpv4-sp/hard\libg_nano.a(lib_a-sprintf.o)
 .text._sprintf_r
                0x00000000       0x40 c:/mesh/arm_gcc/bin/../lib/gcc/arm-none-eabi/6.3.1/../../../../arm-none-eabi/lib/thumb/v7e-m/fpv4-sp/hard\libg_nano.a(lib_a-sprintf.o)
 .text          0x00000000        0x0 c:/mesh/arm_gcc/bin/../lib/gcc/arm-none-eabi/6.3.1/../../../../arm-none-eabi/lib/thumb/v7e-m/fpv4-sp/hard\libg_nano.a(lib_a-strcpy.o)
 .data          0x00000000        0x0 c:/mesh/arm_gcc/bin/../lib/gcc/arm-none-eabi/6.3.1/../../../../arm-none-eabi/lib/thumb/v7e-m/fpv4-sp/hard\libg_nano.a(lib_a-strcpy.o)
 .bss           0x00000000        0x0 c:/mesh/arm_gcc/bin/../lib/gcc/arm-none-eabi/6.3.1/../../../../arm-none-eabi/lib/thumb/v7e-m/fpv4-sp/hard\libg_nano.a(lib_a-strcpy.o)
 .data          0x00000000        0x0 c:/mesh/arm_gcc/bin/../lib/gcc/arm-none-eabi/6.3.1/../../../../arm-none-eabi/lib/thumb/v7e-m/fpv4-sp/hard\libg_nano.a(lib_a-strlen.o)
 .bss           0x00000000        0x0 c:/mesh/arm_gcc/bin/../lib/gcc/arm-none-eabi/6.3.1/../../../../arm-none-eabi/lib/thumb/v7e-m/fpv4-sp/hard\libg_nano.a(lib_a-strlen.o)
 .text          0x00000000        0x0 c:/mesh/arm_gcc/bin/../lib/gcc/arm-none-eabi/6.3.1/../../../../arm-none-eabi/lib/thumb/v7e-m/fpv4-sp/hard\libg_nano.a(lib_a-strrchr.o)
 .data          0x00000000        0x0 c:/mesh/arm_gcc/bin/../lib/gcc/arm-none-eabi/6.3.1/../../../../arm-none-eabi/lib/thumb/v7e-m/fpv4-sp/hard\libg_nano.a(lib_a-strrchr.o)
 .bss           0x00000000        0x0 c:/mesh/arm_gcc/bin/../lib/gcc/arm-none-eabi/6.3.1/../../../../arm-none-eabi/lib/thumb/v7e-m/fpv4-sp/hard\libg_nano.a(lib_a-strrchr.o)
 .text          0x00000000        0x0 c:/mesh/arm_gcc/bin/../lib/gcc/arm-none-eabi/6.3.1/../../../../arm-none-eabi/lib/thumb/v7e-m/fpv4-sp/hard\libg_nano.a(lib_a-mlock.o)
 .data          0x00000000        0x0 c:/mesh/arm_gcc/bin/../lib/gcc/arm-none-eabi/6.3.1/../../../../arm-none-eabi/lib/thumb/v7e-m/fpv4-sp/hard\libg_nano.a(lib_a-mlock.o)
 .bss           0x00000000        0x0 c:/mesh/arm_gcc/bin/../lib/gcc/arm-none-eabi/6.3.1/../../../../arm-none-eabi/lib/thumb/v7e-m/fpv4-sp/hard\libg_nano.a(lib_a-mlock.o)
 .text          0x00000000        0x0 c:/mesh/arm_gcc/bin/../lib/gcc/arm-none-eabi/6.3.1/../../../../arm-none-eabi/lib/thumb/v7e-m/fpv4-sp/hard\libg_nano.a(lib_a-nano-svfprintf.o)
 .data          0x00000000        0x0 c:/mesh/arm_gcc/bin/../lib/gcc/arm-none-eabi/6.3.1/../../../../arm-none-eabi/lib/thumb/v7e-m/fpv4-sp/hard\libg_nano.a(lib_a-nano-svfprintf.o)
 .bss           0x00000000        0x0 c:/mesh/arm_gcc/bin/../lib/gcc/arm-none-eabi/6.3.1/../../../../arm-none-eabi/lib/thumb/v7e-m/fpv4-sp/hard\libg_nano.a(lib_a-nano-svfprintf.o)
 .text.__ssprint_r
                0x00000000       0xf4 c:/mesh/arm_gcc/bin/../lib/gcc/arm-none-eabi/6.3.1/../../../../arm-none-eabi/lib/thumb/v7e-m/fpv4-sp/hard\libg_nano.a(lib_a-nano-svfprintf.o)
 .text          0x00000000        0x0 c:/mesh/arm_gcc/bin/../lib/gcc/arm-none-eabi/6.3.1/../../../../arm-none-eabi/lib/thumb/v7e-m/fpv4-sp/hard\libg_nano.a(lib_a-nano-vfprintf_i.o)
 .data          0x00000000        0x0 c:/mesh/arm_gcc/bin/../lib/gcc/arm-none-eabi/6.3.1/../../../../arm-none-eabi/lib/thumb/v7e-m/fpv4-sp/hard\libg_nano.a(lib_a-nano-vfprintf_i.o)
 .bss           0x00000000        0x0 c:/mesh/arm_gcc/bin/../lib/gcc/arm-none-eabi/6.3.1/../../../../arm-none-eabi/lib/thumb/v7e-m/fpv4-sp/hard\libg_nano.a(lib_a-nano-vfprintf_i.o)
 .text          0x00000000        0x0 c:/mesh/arm_gcc/bin/../lib/gcc/arm-none-eabi/6.3.1/../../../../arm-none-eabi/lib/thumb/v7e-m/fpv4-sp/hard\libg_nano.a(lib_a-reent.o)
 .data          0x00000000        0x0 c:/mesh/arm_gcc/bin/../lib/gcc/arm-none-eabi/6.3.1/../../../../arm-none-eabi/lib/thumb/v7e-m/fpv4-sp/hard\libg_nano.a(lib_a-reent.o)
 .bss           0x00000000        0x0 c:/mesh/arm_gcc/bin/../lib/gcc/arm-none-eabi/6.3.1/../../../../arm-none-eabi/lib/thumb/v7e-m/fpv4-sp/hard\libg_nano.a(lib_a-reent.o)
 .text.cleanup_glue
                0x00000000       0x1a c:/mesh/arm_gcc/bin/../lib/gcc/arm-none-eabi/6.3.1/../../../../arm-none-eabi/lib/thumb/v7e-m/fpv4-sp/hard\libg_nano.a(lib_a-reent.o)
 .text._reclaim_reent
                0x00000000       0xb8 c:/mesh/arm_gcc/bin/../lib/gcc/arm-none-eabi/6.3.1/../../../../arm-none-eabi/lib/thumb/v7e-m/fpv4-sp/hard\libg_nano.a(lib_a-reent.o)
 .text          0x00000000        0x0 c:/mesh/arm_gcc/bin/../lib/gcc/arm-none-eabi/6.3.1/../../../../arm-none-eabi/lib/thumb/v7e-m/fpv4-sp/hard\libg_nano.a(lib_a-strchr.o)
 .data          0x00000000        0x0 c:/mesh/arm_gcc/bin/../lib/gcc/arm-none-eabi/6.3.1/../../../../arm-none-eabi/lib/thumb/v7e-m/fpv4-sp/hard\libg_nano.a(lib_a-strchr.o)
 .bss           0x00000000        0x0 c:/mesh/arm_gcc/bin/../lib/gcc/arm-none-eabi/6.3.1/../../../../arm-none-eabi/lib/thumb/v7e-m/fpv4-sp/hard\libg_nano.a(lib_a-strchr.o)
 .data          0x00000000        0x0 c:/mesh/arm_gcc/bin/../lib/gcc/arm-none-eabi/6.3.1/../../../../arm-none-eabi/lib/thumb/v7e-m/fpv4-sp/hard\libg_nano.a(lib_a-memchr.o)
 .bss           0x00000000        0x0 c:/mesh/arm_gcc/bin/../lib/gcc/arm-none-eabi/6.3.1/../../../../arm-none-eabi/lib/thumb/v7e-m/fpv4-sp/hard\libg_nano.a(lib_a-memchr.o)
 .text          0x00000000        0x0 c:/mesh/arm_gcc/bin/../lib/gcc/arm-none-eabi/6.3.1/../../../../arm-none-eabi/lib/thumb/v7e-m/fpv4-sp/hard\libg_nano.a(lib_a-memmove.o)
 .data          0x00000000        0x0 c:/mesh/arm_gcc/bin/../lib/gcc/arm-none-eabi/6.3.1/../../../../arm-none-eabi/lib/thumb/v7e-m/fpv4-sp/hard\libg_nano.a(lib_a-memmove.o)
 .bss           0x00000000        0x0 c:/mesh/arm_gcc/bin/../lib/gcc/arm-none-eabi/6.3.1/../../../../arm-none-eabi/lib/thumb/v7e-m/fpv4-sp/hard\libg_nano.a(lib_a-memmove.o)
 .text          0x00000000        0x0 c:/mesh/arm_gcc/bin/../lib/gcc/arm-none-eabi/6.3.1/../../../../arm-none-eabi/lib/thumb/v7e-m/fpv4-sp/hard\libg_nano.a(lib_a-nano-reallocr.o)
 .data          0x00000000        0x0 c:/mesh/arm_gcc/bin/../lib/gcc/arm-none-eabi/6.3.1/../../../../arm-none-eabi/lib/thumb/v7e-m/fpv4-sp/hard\libg_nano.a(lib_a-nano-reallocr.o)
 .bss           0x00000000        0x0 c:/mesh/arm_gcc/bin/../lib/gcc/arm-none-eabi/6.3.1/../../../../arm-none-eabi/lib/thumb/v7e-m/fpv4-sp/hard\libg_nano.a(lib_a-nano-reallocr.o)
 .text          0x00000000        0x0 c:/mesh/arm_gcc/bin/../lib/gcc/arm-none-eabi/6.3.1/../../../../arm-none-eabi/lib/thumb/v7e-m/fpv4-sp/hard\libg_nano.a(lib_a-nano-msizer.o)
 .data          0x00000000        0x0 c:/mesh/arm_gcc/bin/../lib/gcc/arm-none-eabi/6.3.1/../../../../arm-none-eabi/lib/thumb/v7e-m/fpv4-sp/hard\libg_nano.a(lib_a-nano-msizer.o)
 .bss           0x00000000        0x0 c:/mesh/arm_gcc/bin/../lib/gcc/arm-none-eabi/6.3.1/../../../../arm-none-eabi/lib/thumb/v7e-m/fpv4-sp/hard\libg_nano.a(lib_a-nano-msizer.o)
 .text          0x00000000        0x0 c:/mesh/arm_gcc/bin/../lib/gcc/arm-none-eabi/6.3.1/thumb/v7e-m/fpv4-sp/hard/crtend.o
 .data          0x00000000        0x0 c:/mesh/arm_gcc/bin/../lib/gcc/arm-none-eabi/6.3.1/thumb/v7e-m/fpv4-sp/hard/crtend.o
 .bss           0x00000000        0x0 c:/mesh/arm_gcc/bin/../lib/gcc/arm-none-eabi/6.3.1/thumb/v7e-m/fpv4-sp/hard/crtend.o
 .text          0x00000000        0x0 c:/mesh/arm_gcc/bin/../lib/gcc/arm-none-eabi/6.3.1/thumb/v7e-m/fpv4-sp/hard/crtn.o
 .data          0x00000000        0x0 c:/mesh/arm_gcc/bin/../lib/gcc/arm-none-eabi/6.3.1/thumb/v7e-m/fpv4-sp/hard/crtn.o
 .bss           0x00000000        0x0 c:/mesh/arm_gcc/bin/../lib/gcc/arm-none-eabi/6.3.1/thumb/v7e-m/fpv4-sp/hard/crtn.o
 .text          0x00000000        0x0 c:/mesh/arm_gcc/bin/../lib/gcc/arm-none-eabi/6.3.1/../../../../arm-none-eabi/lib/thumb/v7e-m/fpv4-sp/hard\libnosys.a(sbrk.o)
 .data          0x00000000        0x0 c:/mesh/arm_gcc/bin/../lib/gcc/arm-none-eabi/6.3.1/../../../../arm-none-eabi/lib/thumb/v7e-m/fpv4-sp/hard\libnosys.a(sbrk.o)
 .bss           0x00000000        0x0 c:/mesh/arm_gcc/bin/../lib/gcc/arm-none-eabi/6.3.1/../../../../arm-none-eabi/lib/thumb/v7e-m/fpv4-sp/hard\libnosys.a(sbrk.o)
 .text          0x00000000        0x0 c:/mesh/arm_gcc/bin/../lib/gcc/arm-none-eabi/6.3.1/../../../../arm-none-eabi/lib/thumb/v7e-m/fpv4-sp/hard\libnosys.a(_exit.o)
 .data          0x00000000        0x0 c:/mesh/arm_gcc/bin/../lib/gcc/arm-none-eabi/6.3.1/../../../../arm-none-eabi/lib/thumb/v7e-m/fpv4-sp/hard\libnosys.a(_exit.o)
 .bss           0x00000000        0x0 c:/mesh/arm_gcc/bin/../lib/gcc/arm-none-eabi/6.3.1/../../../../arm-none-eabi/lib/thumb/v7e-m/fpv4-sp/hard\libnosys.a(_exit.o)

Memory Configuration

Name             Origin             Length             Attributes
FLASH            0x00026000         0x000d1000         xr
RAM              0x200032c8         0x0003ca38         xrw
*default*        0x00000000         0xffffffff

Linker script and memory map


.text           0x00026000    0x13214
 *(.isr_vector)
 .isr_vector    0x00026000      0x200 examples/beaconing/CMakeFiles/beaconing_nrf52840_xxAA_s140_6.0.0.dir/C_/b/nRF5_SDK_15.0.0_a53641a/modules/nrfx/mdk/gcc_startup_nrf52840.S.obj
                0x00026000                __isr_vector
 *(.text*)
 .text          0x00026200       0x6c c:/mesh/arm_gcc/bin/../lib/gcc/arm-none-eabi/6.3.1/thumb/v7e-m/fpv4-sp/hard/crtbegin.o
 .text          0x0002626c       0x74 c:/mesh/arm_gcc/bin/../lib/gcc/arm-none-eabi/6.3.1/../../../../arm-none-eabi/lib/thumb/v7e-m/fpv4-sp/hard/crt0.o
                0x0002626c                _start
                0x0002626c                _mainCRTStartup
 .text.sd_app_evt_wait
                0x000262e0        0x4 examples/beaconing/CMakeFiles/beaconing_nrf52840_xxAA_s140_6.0.0.dir/src/main.c.obj
 .text.provisioning_complete_cb
                0x000262e4       0xd0 examples/beaconing/CMakeFiles/beaconing_nrf52840_xxAA_s140_6.0.0.dir/src/main.c.obj
 .text.rx_cb    0x000263b4      0x120 examples/beaconing/CMakeFiles/beaconing_nrf52840_xxAA_s140_6.0.0.dir/src/main.c.obj
 .text.config_server_evt_cb
                0x000264d4       0x80 examples/beaconing/CMakeFiles/beaconing_nrf52840_xxAA_s140_6.0.0.dir/src/main.c.obj
 .text.startup.main
                0x00026554      0x268 examples/beaconing/CMakeFiles/beaconing_nrf52840_xxAA_s140_6.0.0.dir/src/main.c.obj
                0x00026554                main
 .text.mesh_evt_handler
                0x000267bc        0xe examples/beaconing/CMakeFiles/beaconing_nrf52840_xxAA_s140_6.0.0.dir/__/__/mesh/stack/src/mesh_stack.c.obj
 .text.mesh_stack_start
                0x000267ca        0x4 examples/beaconing/CMakeFiles/beaconing_nrf52840_xxAA_s140_6.0.0.dir/__/__/mesh/stack/src/mesh_stack.c.obj
                0x000267ca                mesh_stack_start
 .text.mesh_stack_provisioning_data_store
                0x000267ce       0x6c examples/beaconing/CMakeFiles/beaconing_nrf52840_xxAA_s140_6.0.0.dir/__/__/mesh/stack/src/mesh_stack.c.obj
                0x000267ce                mesh_stack_provisioning_data_store
 .text.mesh_stack_config_clear
                0x0002683a       0x12 examples/beaconing/CMakeFiles/beaconing_nrf52840_xxAA_s140_6.0.0.dir/__/__/mesh/stack/src/mesh_stack.c.obj
                0x0002683a                mesh_stack_config_clear
 .text.mesh_stack_is_device_provisioned
                0x0002684c       0x18 examples/beaconing/CMakeFiles/beaconing_nrf52840_xxAA_s140_6.0.0.dir/__/__/mesh/stack/src/mesh_stack.c.obj
                0x0002684c                mesh_stack_is_device_provisioned
 .text.mesh_stack_init
                0x00026864       0x78 examples/beaconing/CMakeFiles/beaconing_nrf52840_xxAA_s140_6.0.0.dir/__/__/mesh/stack/src/mesh_stack.c.obj
                0x00026864                mesh_stack_init
 .text.mesh_stack_device_reset
                0x000268dc       0x20 examples/beaconing/CMakeFiles/beaconing_nrf52840_xxAA_s140_6.0.0.dir/__/__/mesh/stack/src/mesh_stack.c.obj
                0x000268dc                mesh_stack_device_reset
 .text.sd_evt_get
                0x000268fc        0x4 examples/beaconing/CMakeFiles/beaconing_nrf52840_xxAA_s140_6.0.0.dir/__/common/src/mesh_softdevice_init.c.obj
 .text.sd_softdevice_enable
                0x00026900        0x4 examples/beaconing/CMakeFiles/beaconing_nrf52840_xxAA_s140_6.0.0.dir/__/common/src/mesh_softdevice_init.c.obj
 .text.sd_ble_enable
                0x00026904        0x4 examples/beaconing/CMakeFiles/beaconing_nrf52840_xxAA_s140_6.0.0.dir/__/common/src/mesh_softdevice_init.c.obj
 .text.SWI2_EGU2_IRQHandler
                0x00026908       0x18 examples/beaconing/CMakeFiles/beaconing_nrf52840_xxAA_s140_6.0.0.dir/__/common/src/mesh_softdevice_init.c.obj
                0x00026908                SWI2_EGU2_IRQHandler
 .text.mesh_softdevice_init
                0x00026920      0x1c0 examples/beaconing/CMakeFiles/beaconing_nrf52840_xxAA_s140_6.0.0.dir/__/common/src/mesh_softdevice_init.c.obj
                0x00026920                mesh_softdevice_init
 .text.provisionee_start
                0x00026ae0       0x18 examples/beaconing/CMakeFiles/beaconing_nrf52840_xxAA_s140_6.0.0.dir/__/common/src/mesh_provisionee.c.obj
 .text.prov_evt_handler
                0x00026af8       0x64 examples/beaconing/CMakeFiles/beaconing_nrf52840_xxAA_s140_6.0.0.dir/__/common/src/mesh_provisionee.c.obj
 .text.mesh_provisionee_prov_start
                0x00026b5c       0x78 examples/beaconing/CMakeFiles/beaconing_nrf52840_xxAA_s140_6.0.0.dir/__/common/src/mesh_provisionee.c.obj
                0x00026b5c                mesh_provisionee_prov_start
 .text.hal_led_mask_set
                0x00026bd4       0x12 examples/beaconing/CMakeFiles/beaconing_nrf52840_xxAA_s140_6.0.0.dir/__/common/src/simple_hal.c.obj
                0x00026bd4                hal_led_mask_set
 *fill*         0x00026be6        0x2 
 .text.hal_led_blink_ms
                0x00026be8       0x44 examples/beaconing/CMakeFiles/beaconing_nrf52840_xxAA_s140_6.0.0.dir/__/common/src/simple_hal.c.obj
                0x00026be8                hal_led_blink_ms
 .text.hal_leds_init
                0x00026c2c       0x38 examples/beaconing/CMakeFiles/beaconing_nrf52840_xxAA_s140_6.0.0.dir/__/common/src/simple_hal.c.obj
                0x00026c2c                hal_leds_init
 .text.GPIOTE_IRQHandler
                0x00026c64       0x60 examples/beaconing/CMakeFiles/beaconing_nrf52840_xxAA_s140_6.0.0.dir/__/common/src/simple_hal.c.obj
                0x00026c64                GPIOTE_IRQHandler
 .text.add_to_publication_list
                0x00026cc4       0x78 examples/beaconing/CMakeFiles/beaconing_nrf52840_xxAA_s140_6.0.0.dir/__/__/mesh/access/src/access_publish.c.obj
 .text.step_resolution_to_us
                0x00026d3c       0x38 examples/beaconing/CMakeFiles/beaconing_nrf52840_xxAA_s140_6.0.0.dir/__/__/mesh/access/src/access_publish.c.obj
 .text.schedule_publication_timer
                0x00026d74      0x184 examples/beaconing/CMakeFiles/beaconing_nrf52840_xxAA_s140_6.0.0.dir/__/__/mesh/access/src/access_publish.c.obj
 .text.publish_timer_tick
                0x00026ef8       0xa8 examples/beaconing/CMakeFiles/beaconing_nrf52840_xxAA_s140_6.0.0.dir/__/__/mesh/access/src/access_publish.c.obj
 .text.access_publish_init
                0x00026fa0       0x38 examples/beaconing/CMakeFiles/beaconing_nrf52840_xxAA_s140_6.0.0.dir/__/__/mesh/access/src/access_publish.c.obj
                0x00026fa0                access_publish_init
 .text.access_publish_period_set
                0x00026fd8       0x60 examples/beaconing/CMakeFiles/beaconing_nrf52840_xxAA_s140_6.0.0.dir/__/__/mesh/access/src/access_publish.c.obj
                0x00026fd8                access_publish_period_set
 .text.access_publish_period_get
                0x00027038       0x22 examples/beaconing/CMakeFiles/beaconing_nrf52840_xxAA_s140_6.0.0.dir/__/__/mesh/access/src/access_publish.c.obj
                0x00027038                access_publish_period_get
 .text.bitfield_get
                0x0002705a       0x1a examples/beaconing/CMakeFiles/beaconing_nrf52840_xxAA_s140_6.0.0.dir/__/__/mesh/access/src/access.c.obj
 .text.is_valid_opcode
                0x00027074       0x42 examples/beaconing/CMakeFiles/beaconing_nrf52840_xxAA_s140_6.0.0.dir/__/__/mesh/access/src/access.c.obj
 *fill*         0x000270b6        0x2 
 .text.model_handle_valid_and_allocated
                0x000270b8       0x20 examples/beaconing/CMakeFiles/beaconing_nrf52840_xxAA_s140_6.0.0.dir/__/__/mesh/access/src/access.c.obj
 .text.flash_manager_mem_available
                0x000270d8        0x2 examples/beaconing/CMakeFiles/beaconing_nrf52840_xxAA_s140_6.0.0.dir/__/__/mesh/access/src/access.c.obj
 *fill*         0x000270da        0x2 
 .text.restore_acquired_subscription
                0x000270dc       0x30 examples/beaconing/CMakeFiles/beaconing_nrf52840_xxAA_s140_6.0.0.dir/__/__/mesh/access/src/access.c.obj
 .text.restore_acquired_element
                0x0002710c       0x1c examples/beaconing/CMakeFiles/beaconing_nrf52840_xxAA_s140_6.0.0.dir/__/__/mesh/access/src/access.c.obj
 .text.restore_flash_data
                0x00027128       0x50 examples/beaconing/CMakeFiles/beaconing_nrf52840_xxAA_s140_6.0.0.dir/__/__/mesh/access/src/access.c.obj
 .text.flash_invalidate_complete
                0x00027178        0x6 examples/beaconing/CMakeFiles/beaconing_nrf52840_xxAA_s140_6.0.0.dir/__/__/mesh/access/src/access.c.obj
 *fill*         0x0002717e        0x2 
 .text.access_flash_config_clear
                0x00027180       0x28 examples/beaconing/CMakeFiles/beaconing_nrf52840_xxAA_s140_6.0.0.dir/__/__/mesh/access/src/access.c.obj
 .text.access_flash_config_store
                0x000271a8      0x14c examples/beaconing/CMakeFiles/beaconing_nrf52840_xxAA_s140_6.0.0.dir/__/__/mesh/access/src/access.c.obj
                0x000271a8                access_flash_config_store
 .text.access_state_clear
                0x000272f4       0x4c examples/beaconing/CMakeFiles/beaconing_nrf52840_xxAA_s140_6.0.0.dir/__/__/mesh/access/src/access.c.obj
 .text.add_flash_manager
                0x00027340       0x58 examples/beaconing/CMakeFiles/beaconing_nrf52840_xxAA_s140_6.0.0.dir/__/__/mesh/access/src/access.c.obj
 .text.flash_remove_complete
                0x00027398       0x5c examples/beaconing/CMakeFiles/beaconing_nrf52840_xxAA_s140_6.0.0.dir/__/__/mesh/access/src/access.c.obj
 .text.flash_write_complete
                0x000273f4       0x46 examples/beaconing/CMakeFiles/beaconing_nrf52840_xxAA_s140_6.0.0.dir/__/__/mesh/access/src/access.c.obj
 *fill*         0x0002743a        0x2 
 .text.unlikely.bitfield_next_get.part.0.constprop.4
                0x0002743c       0x34 examples/beaconing/CMakeFiles/beaconing_nrf52840_xxAA_s140_6.0.0.dir/__/__/mesh/access/src/access.c.obj
 .text.restore_acquired_model
                0x00027470       0x94 examples/beaconing/CMakeFiles/beaconing_nrf52840_xxAA_s140_6.0.0.dir/__/__/mesh/access/src/access.c.obj
 .text.handle_incoming
                0x00027504      0x144 examples/beaconing/CMakeFiles/beaconing_nrf52840_xxAA_s140_6.0.0.dir/__/__/mesh/access/src/access.c.obj
 .text.mesh_evt_cb
                0x00027648      0x134 examples/beaconing/CMakeFiles/beaconing_nrf52840_xxAA_s140_6.0.0.dir/__/__/mesh/access/src/access.c.obj
 .text.packet_tx
                0x0002777c      0x380 examples/beaconing/CMakeFiles/beaconing_nrf52840_xxAA_s140_6.0.0.dir/__/__/mesh/access/src/access.c.obj
 .text.access_flash_config_load
                0x00027afc      0x118 examples/beaconing/CMakeFiles/beaconing_nrf52840_xxAA_s140_6.0.0.dir/__/__/mesh/access/src/access.c.obj
                0x00027afc                access_flash_config_load
 .text.access_clear
                0x00027c14       0x12 examples/beaconing/CMakeFiles/beaconing_nrf52840_xxAA_s140_6.0.0.dir/__/__/mesh/access/src/access.c.obj
                0x00027c14                access_clear
 *fill*         0x00027c26        0x2 
 .text.access_init
                0x00027c28       0x28 examples/beaconing/CMakeFiles/beaconing_nrf52840_xxAA_s140_6.0.0.dir/__/__/mesh/access/src/access.c.obj
                0x00027c28                access_init
 .text.access_model_add
                0x00027c50      0x1b4 examples/beaconing/CMakeFiles/beaconing_nrf52840_xxAA_s140_6.0.0.dir/__/__/mesh/access/src/access.c.obj
                0x00027c50                access_model_add
 .text.access_model_publish
                0x00027e04        0xc examples/beaconing/CMakeFiles/beaconing_nrf52840_xxAA_s140_6.0.0.dir/__/__/mesh/access/src/access.c.obj
                0x00027e04                access_model_publish
 .text.access_model_reply
                0x00027e10       0x12 examples/beaconing/CMakeFiles/beaconing_nrf52840_xxAA_s140_6.0.0.dir/__/__/mesh/access/src/access.c.obj
                0x00027e10                access_model_reply
 *fill*         0x00027e22        0x2 
 .text.access_model_publish_address_set
                0x00027e24       0x3c examples/beaconing/CMakeFiles/beaconing_nrf52840_xxAA_s140_6.0.0.dir/__/__/mesh/access/src/access.c.obj
                0x00027e24                access_model_publish_address_set
 .text.access_model_publish_address_get
                0x00027e60       0x28 examples/beaconing/CMakeFiles/beaconing_nrf52840_xxAA_s140_6.0.0.dir/__/__/mesh/access/src/access.c.obj
                0x00027e60                access_model_publish_address_get
 .text.access_model_publish_retransmit_set
                0x00027e88       0x4c examples/beaconing/CMakeFiles/beaconing_nrf52840_xxAA_s140_6.0.0.dir/__/__/mesh/access/src/access.c.obj
                0x00027e88                access_model_publish_retransmit_set
 .text.access_model_publish_retransmit_get
                0x00027ed4       0x2c examples/beaconing/CMakeFiles/beaconing_nrf52840_xxAA_s140_6.0.0.dir/__/__/mesh/access/src/access.c.obj
                0x00027ed4                access_model_publish_retransmit_get
 .text.access_model_publish_period_set
                0x00027f00       0x6c examples/beaconing/CMakeFiles/beaconing_nrf52840_xxAA_s140_6.0.0.dir/__/__/mesh/access/src/access.c.obj
                0x00027f00                access_model_publish_period_set
 .text.access_model_publish_period_get
                0x00027f6c       0x3c examples/beaconing/CMakeFiles/beaconing_nrf52840_xxAA_s140_6.0.0.dir/__/__/mesh/access/src/access.c.obj
                0x00027f6c                access_model_publish_period_get
 .text.access_model_subscription_add
                0x00027fa8       0x60 examples/beaconing/CMakeFiles/beaconing_nrf52840_xxAA_s140_6.0.0.dir/__/__/mesh/access/src/access.c.obj
                0x00027fa8                access_model_subscription_add
 .text.access_model_subscription_remove
                0x00028008       0x60 examples/beaconing/CMakeFiles/beaconing_nrf52840_xxAA_s140_6.0.0.dir/__/__/mesh/access/src/access.c.obj
                0x00028008                access_model_subscription_remove
 .text.access_model_subscriptions_get
                0x00028068       0x80 examples/beaconing/CMakeFiles/beaconing_nrf52840_xxAA_s140_6.0.0.dir/__/__/mesh/access/src/access.c.obj
                0x00028068                access_model_subscriptions_get
 .text.access_model_application_bind
                0x000280e8       0x50 examples/beaconing/CMakeFiles/beaconing_nrf52840_xxAA_s140_6.0.0.dir/__/__/mesh/access/src/access.c.obj
                0x000280e8                access_model_application_bind
 .text.access_model_application_unbind
                0x00028138       0x50 examples/beaconing/CMakeFiles/beaconing_nrf52840_xxAA_s140_6.0.0.dir/__/__/mesh/access/src/access.c.obj
                0x00028138                access_model_application_unbind
 .text.access_model_applications_get
                0x00028188       0x64 examples/beaconing/CMakeFiles/beaconing_nrf52840_xxAA_s140_6.0.0.dir/__/__/mesh/access/src/access.c.obj
                0x00028188                access_model_applications_get
 .text.access_model_publish_application_set
                0x000281ec       0x3c examples/beaconing/CMakeFiles/beaconing_nrf52840_xxAA_s140_6.0.0.dir/__/__/mesh/access/src/access.c.obj
                0x000281ec                access_model_publish_application_set
 .text.access_model_publish_application_get
                0x00028228       0x28 examples/beaconing/CMakeFiles/beaconing_nrf52840_xxAA_s140_6.0.0.dir/__/__/mesh/access/src/access.c.obj
                0x00028228                access_model_publish_application_get
 .text.access_default_ttl_set
                0x00028250       0x18 examples/beaconing/CMakeFiles/beaconing_nrf52840_xxAA_s140_6.0.0.dir/__/__/mesh/access/src/access.c.obj
                0x00028250                access_default_ttl_set
 .text.access_default_ttl_get
                0x00028268        0xc examples/beaconing/CMakeFiles/beaconing_nrf52840_xxAA_s140_6.0.0.dir/__/__/mesh/access/src/access.c.obj
                0x00028268                access_default_ttl_get
 .text.access_model_publish_ttl_set
                0x00028274       0x40 examples/beaconing/CMakeFiles/beaconing_nrf52840_xxAA_s140_6.0.0.dir/__/__/mesh/access/src/access.c.obj
                0x00028274                access_model_publish_ttl_set
 .text.access_model_publish_ttl_get
                0x000282b4       0x28 examples/beaconing/CMakeFiles/beaconing_nrf52840_xxAA_s140_6.0.0.dir/__/__/mesh/access/src/access.c.obj
                0x000282b4                access_model_publish_ttl_get
 .text.access_element_location_get
                0x000282dc       0x18 examples/beaconing/CMakeFiles/beaconing_nrf52840_xxAA_s140_6.0.0.dir/__/__/mesh/access/src/access.c.obj
                0x000282dc                access_element_location_get
 .text.access_element_sig_model_count_get
                0x000282f4       0x18 examples/beaconing/CMakeFiles/beaconing_nrf52840_xxAA_s140_6.0.0.dir/__/__/mesh/access/src/access.c.obj
                0x000282f4                access_element_sig_model_count_get
 .text.access_element_vendor_model_count_get
                0x0002830c       0x18 examples/beaconing/CMakeFiles/beaconing_nrf52840_xxAA_s140_6.0.0.dir/__/__/mesh/access/src/access.c.obj
                0x0002830c                access_element_vendor_model_count_get
 .text.access_model_id_get
                0x00028324       0x2c examples/beaconing/CMakeFiles/beaconing_nrf52840_xxAA_s140_6.0.0.dir/__/__/mesh/access/src/access.c.obj
                0x00028324                access_model_id_get
 .text.access_handle_get
                0x00028350       0x54 examples/beaconing/CMakeFiles/beaconing_nrf52840_xxAA_s140_6.0.0.dir/__/__/mesh/access/src/access.c.obj
                0x00028350                access_handle_get
 .text.access_element_models_get
                0x000283a4       0x48 examples/beaconing/CMakeFiles/beaconing_nrf52840_xxAA_s140_6.0.0.dir/__/__/mesh/access/src/access.c.obj
                0x000283a4                access_element_models_get
 .text.access_model_p_args_get
                0x000283ec       0x28 examples/beaconing/CMakeFiles/beaconing_nrf52840_xxAA_s140_6.0.0.dir/__/__/mesh/access/src/access.c.obj
                0x000283ec                access_model_p_args_get
 .text.access_model_publication_stop
                0x00028414       0x70 examples/beaconing/CMakeFiles/beaconing_nrf52840_xxAA_s140_6.0.0.dir/__/__/mesh/access/src/access.c.obj
                0x00028414                access_model_publication_stop
 .text.access_model_publication_by_appkey_stop
                0x00028484       0x36 examples/beaconing/CMakeFiles/beaconing_nrf52840_xxAA_s140_6.0.0.dir/__/__/mesh/access/src/access.c.obj
                0x00028484                access_model_publication_by_appkey_stop
 *fill*         0x000284ba        0x2 
 .text.reliable_timer_cb
                0x000284bc      0x11c examples/beaconing/CMakeFiles/beaconing_nrf52840_xxAA_s140_6.0.0.dir/__/__/mesh/access/src/access_reliable.c.obj
 .text.remove_and_reschedule
                0x000285d8       0xb8 examples/beaconing/CMakeFiles/beaconing_nrf52840_xxAA_s140_6.0.0.dir/__/__/mesh/access/src/access_reliable.c.obj
 .text.access_reliable_message_rx_cb
                0x00028690       0x68 examples/beaconing/CMakeFiles/beaconing_nrf52840_xxAA_s140_6.0.0.dir/__/__/mesh/access/src/access_reliable.c.obj
                0x00028690                access_reliable_message_rx_cb
 .text.access_reliable_init
                0x000286f8       0x1c examples/beaconing/CMakeFiles/beaconing_nrf52840_xxAA_s140_6.0.0.dir/__/__/mesh/access/src/access_reliable.c.obj
                0x000286f8                access_reliable_init
 .text.access_reliable_cancel_all
                0x00028714       0x60 examples/beaconing/CMakeFiles/beaconing_nrf52840_xxAA_s140_6.0.0.dir/__/__/mesh/access/src/access_reliable.c.obj
                0x00028714                access_reliable_cancel_all
 .text.access_model_reliable_cancel
                0x00028774       0x6c examples/beaconing/CMakeFiles/beaconing_nrf52840_xxAA_s140_6.0.0.dir/__/__/mesh/access/src/access_reliable.c.obj
                0x00028774                access_model_reliable_cancel
 .text.bitfield_get
                0x000287e0       0x1a examples/beaconing/CMakeFiles/beaconing_nrf52840_xxAA_s140_6.0.0.dir/__/__/mesh/access/src/device_state_manager.c.obj
 .text.bitfield_set
                0x000287fa       0x18 examples/beaconing/CMakeFiles/beaconing_nrf52840_xxAA_s140_6.0.0.dir/__/__/mesh/access/src/device_state_manager.c.obj
 .text.bitfield_clear
                0x00028812       0x1a examples/beaconing/CMakeFiles/beaconing_nrf52840_xxAA_s140_6.0.0.dir/__/__/mesh/access/src/device_state_manager.c.obj
 .text.bitfield_is_all_clear
                0x0002882c       0x3c examples/beaconing/CMakeFiles/beaconing_nrf52840_xxAA_s140_6.0.0.dir/__/__/mesh/access/src/device_state_manager.c.obj
 .text.address_handle_virtual_valid
                0x00028868       0x18 examples/beaconing/CMakeFiles/beaconing_nrf52840_xxAA_s140_6.0.0.dir/__/__/mesh/access/src/device_state_manager.c.obj
 .text.net_key_handle_get
                0x00028880       0x58 examples/beaconing/CMakeFiles/beaconing_nrf52840_xxAA_s140_6.0.0.dir/__/__/mesh/access/src/device_state_manager.c.obj
 .text.dev_key_handle_get
                0x000288d8       0x30 examples/beaconing/CMakeFiles/beaconing_nrf52840_xxAA_s140_6.0.0.dir/__/__/mesh/access/src/device_state_manager.c.obj
 .text.app_key_handle_get
                0x00028908       0x58 examples/beaconing/CMakeFiles/beaconing_nrf52840_xxAA_s140_6.0.0.dir/__/__/mesh/access/src/device_state_manager.c.obj
 .text.addr_nonvirtual_to_flash_entry
                0x00028960       0x10 examples/beaconing/CMakeFiles/beaconing_nrf52840_xxAA_s140_6.0.0.dir/__/__/mesh/access/src/device_state_manager.c.obj
 .text.devkey_set
                0x00028970       0x50 examples/beaconing/CMakeFiles/beaconing_nrf52840_xxAA_s140_6.0.0.dir/__/__/mesh/access/src/device_state_manager.c.obj
 .text.devkey_to_dsm_entry
                0x000289c0       0x18 examples/beaconing/CMakeFiles/beaconing_nrf52840_xxAA_s140_6.0.0.dir/__/__/mesh/access/src/device_state_manager.c.obj
 .text.devkey_to_flash_entry
                0x000289d8       0x28 examples/beaconing/CMakeFiles/beaconing_nrf52840_xxAA_s140_6.0.0.dir/__/__/mesh/access/src/device_state_manager.c.obj
 .text.addr_virtual_to_flash_entry
                0x00028a00       0x18 examples/beaconing/CMakeFiles/beaconing_nrf52840_xxAA_s140_6.0.0.dir/__/__/mesh/access/src/device_state_manager.c.obj
 .text.addr_unicast_to_dsm_entry
                0x00028a18        0xc examples/beaconing/CMakeFiles/beaconing_nrf52840_xxAA_s140_6.0.0.dir/__/__/mesh/access/src/device_state_manager.c.obj
 .text.addr_unicast_to_flash_entry
                0x00028a24       0x10 examples/beaconing/CMakeFiles/beaconing_nrf52840_xxAA_s140_6.0.0.dir/__/__/mesh/access/src/device_state_manager.c.obj
 .text.flash_mem_listener_callback
                0x00028a34       0x14 examples/beaconing/CMakeFiles/beaconing_nrf52840_xxAA_s140_6.0.0.dir/__/__/mesh/access/src/device_state_manager.c.obj
 .text.get_subnet_handle
                0x00028a48       0x40 examples/beaconing/CMakeFiles/beaconing_nrf52840_xxAA_s140_6.0.0.dir/__/__/mesh/access/src/device_state_manager.c.obj
 .text.appkey_set
                0x00028a88       0x70 examples/beaconing/CMakeFiles/beaconing_nrf52840_xxAA_s140_6.0.0.dir/__/__/mesh/access/src/device_state_manager.c.obj
 .text.appkey_to_flash_entry
                0x00028af8       0x54 examples/beaconing/CMakeFiles/beaconing_nrf52840_xxAA_s140_6.0.0.dir/__/__/mesh/access/src/device_state_manager.c.obj
 .text.subnet_to_flash_entry
                0x00028b4c       0x60 examples/beaconing/CMakeFiles/beaconing_nrf52840_xxAA_s140_6.0.0.dir/__/__/mesh/access/src/device_state_manager.c.obj
 .text.bitfield_clear_all
                0x00028bac        0xe examples/beaconing/CMakeFiles/beaconing_nrf52840_xxAA_s140_6.0.0.dir/__/__/mesh/access/src/device_state_manager.c.obj
 *fill*         0x00028bba        0x2 
 .text.subnet_set
                0x00028bbc       0x98 examples/beaconing/CMakeFiles/beaconing_nrf52840_xxAA_s140_6.0.0.dir/__/__/mesh/access/src/device_state_manager.c.obj
 .text.virtual_address_set
                0x00028c54       0x4c examples/beaconing/CMakeFiles/beaconing_nrf52840_xxAA_s140_6.0.0.dir/__/__/mesh/access/src/device_state_manager.c.obj
 .text.addr_virtual_to_dsm_entry
                0x00028ca0        0xe examples/beaconing/CMakeFiles/beaconing_nrf52840_xxAA_s140_6.0.0.dir/__/__/mesh/access/src/device_state_manager.c.obj
 *fill*         0x00028cae        0x2 
 .text.reset_flash_area
                0x00028cb0       0x28 examples/beaconing/CMakeFiles/beaconing_nrf52840_xxAA_s140_6.0.0.dir/__/__/mesh/access/src/device_state_manager.c.obj
 .text.flash_save
                0x00028cd8       0x7c examples/beaconing/CMakeFiles/beaconing_nrf52840_xxAA_s140_6.0.0.dir/__/__/mesh/access/src/device_state_manager.c.obj
 .text.flash_invalidate
                0x00028d54       0x64 examples/beaconing/CMakeFiles/beaconing_nrf52840_xxAA_s140_6.0.0.dir/__/__/mesh/access/src/device_state_manager.c.obj
 .text.flash_update_all
                0x00028db8       0x6c examples/beaconing/CMakeFiles/beaconing_nrf52840_xxAA_s140_6.0.0.dir/__/__/mesh/access/src/device_state_manager.c.obj
 .text.virtual_address_uuid_index_get
                0x00028e24       0x60 examples/beaconing/CMakeFiles/beaconing_nrf52840_xxAA_s140_6.0.0.dir/__/__/mesh/access/src/device_state_manager.c.obj
 .text.add_address_virtual
                0x00028e84       0x74 examples/beaconing/CMakeFiles/beaconing_nrf52840_xxAA_s140_6.0.0.dir/__/__/mesh/access/src/device_state_manager.c.obj
 .text.get_subnet_handle_by_beacon_info
                0x00028ef8       0x30 examples/beaconing/CMakeFiles/beaconing_nrf52840_xxAA_s140_6.0.0.dir/__/__/mesh/access/src/device_state_manager.c.obj
 .text.get_app_handle
                0x00028f28       0x44 examples/beaconing/CMakeFiles/beaconing_nrf52840_xxAA_s140_6.0.0.dir/__/__/mesh/access/src/device_state_manager.c.obj
 .text.appkey_to_dsm_entry
                0x00028f6c       0x68 examples/beaconing/CMakeFiles/beaconing_nrf52840_xxAA_s140_6.0.0.dir/__/__/mesh/access/src/device_state_manager.c.obj
 .text.subnet_to_dsm_entry
                0x00028fd4       0x68 examples/beaconing/CMakeFiles/beaconing_nrf52840_xxAA_s140_6.0.0.dir/__/__/mesh/access/src/device_state_manager.c.obj
 .text.flash_operation_complete
                0x0002903c       0x4c examples/beaconing/CMakeFiles/beaconing_nrf52840_xxAA_s140_6.0.0.dir/__/__/mesh/access/src/device_state_manager.c.obj
 .text.flash_invalidate_complete
                0x00029088        0x8 examples/beaconing/CMakeFiles/beaconing_nrf52840_xxAA_s140_6.0.0.dir/__/__/mesh/access/src/device_state_manager.c.obj
 .text.flash_write_complete
                0x00029090        0x8 examples/beaconing/CMakeFiles/beaconing_nrf52840_xxAA_s140_6.0.0.dir/__/__/mesh/access/src/device_state_manager.c.obj
 .text.add_address.part.8
                0x00029098      0x164 examples/beaconing/CMakeFiles/beaconing_nrf52840_xxAA_s140_6.0.0.dir/__/__/mesh/access/src/device_state_manager.c.obj
 .text.bitfield_next_get.part.0.constprop.17
                0x000291fc       0x3c examples/beaconing/CMakeFiles/beaconing_nrf52840_xxAA_s140_6.0.0.dir/__/__/mesh/access/src/device_state_manager.c.obj
 .text.address_handle_valid
                0x00029238       0x28 examples/beaconing/CMakeFiles/beaconing_nrf52840_xxAA_s140_6.0.0.dir/__/__/mesh/access/src/device_state_manager.c.obj
 .text.address_handle_nonvirtual_valid
                0x00029260       0x14 examples/beaconing/CMakeFiles/beaconing_nrf52840_xxAA_s140_6.0.0.dir/__/__/mesh/access/src/device_state_manager.c.obj
 .text.address_delete_if_unused
                0x00029274       0x78 examples/beaconing/CMakeFiles/beaconing_nrf52840_xxAA_s140_6.0.0.dir/__/__/mesh/access/src/device_state_manager.c.obj
 .text.addr_nonvirtual_to_dsm_entry
                0x000292ec       0x38 examples/beaconing/CMakeFiles/beaconing_nrf52840_xxAA_s140_6.0.0.dir/__/__/mesh/access/src/device_state_manager.c.obj
 .text.dsm_flash_config_load
                0x00029324      0x120 examples/beaconing/CMakeFiles/beaconing_nrf52840_xxAA_s140_6.0.0.dir/__/__/mesh/access/src/device_state_manager.c.obj
                0x00029324                dsm_flash_config_load
 .text.dsm_flash_area_get
                0x00029444        0xc examples/beaconing/CMakeFiles/beaconing_nrf52840_xxAA_s140_6.0.0.dir/__/__/mesh/access/src/device_state_manager.c.obj
                0x00029444                dsm_flash_area_get
 .text.build_flash_area
                0x00029450       0x8c examples/beaconing/CMakeFiles/beaconing_nrf52840_xxAA_s140_6.0.0.dir/__/__/mesh/access/src/device_state_manager.c.obj
 .text.flash_remove_complete
                0x000294dc        0x4 examples/beaconing/CMakeFiles/beaconing_nrf52840_xxAA_s140_6.0.0.dir/__/__/mesh/access/src/device_state_manager.c.obj
 .text.dsm_clear
                0x000294e0       0xb4 examples/beaconing/CMakeFiles/beaconing_nrf52840_xxAA_s140_6.0.0.dir/__/__/mesh/access/src/device_state_manager.c.obj
                0x000294e0                dsm_clear
 .text.dsm_init
                0x00029594       0x3c examples/beaconing/CMakeFiles/beaconing_nrf52840_xxAA_s140_6.0.0.dir/__/__/mesh/access/src/device_state_manager.c.obj
                0x00029594                dsm_init
 .text.dsm_local_unicast_addresses_set
                0x000295d0       0x78 examples/beaconing/CMakeFiles/beaconing_nrf52840_xxAA_s140_6.0.0.dir/__/__/mesh/access/src/device_state_manager.c.obj
                0x000295d0                dsm_local_unicast_addresses_set
 .text.dsm_local_unicast_addresses_get
                0x00029648       0x20 examples/beaconing/CMakeFiles/beaconing_nrf52840_xxAA_s140_6.0.0.dir/__/__/mesh/access/src/device_state_manager.c.obj
                0x00029648                dsm_local_unicast_addresses_get
 .text.dsm_address_publish_add
                0x00029668        0xc examples/beaconing/CMakeFiles/beaconing_nrf52840_xxAA_s140_6.0.0.dir/__/__/mesh/access/src/device_state_manager.c.obj
                0x00029668                dsm_address_publish_add
 .text.dsm_address_publish_add_handle
                0x00029674       0x38 examples/beaconing/CMakeFiles/beaconing_nrf52840_xxAA_s140_6.0.0.dir/__/__/mesh/access/src/device_state_manager.c.obj
                0x00029674                dsm_address_publish_add_handle
 .text.dsm_address_publish_virtual_add
                0x000296ac        0x6 examples/beaconing/CMakeFiles/beaconing_nrf52840_xxAA_s140_6.0.0.dir/__/__/mesh/access/src/device_state_manager.c.obj
                0x000296ac                dsm_address_publish_virtual_add
 *fill*         0x000296b2        0x2 
 .text.dsm_address_publish_remove
                0x000296b4       0x44 examples/beaconing/CMakeFiles/beaconing_nrf52840_xxAA_s140_6.0.0.dir/__/__/mesh/access/src/device_state_manager.c.obj
                0x000296b4                dsm_address_publish_remove
 .text.dsm_address_subscription_add
                0x000296f8        0xc examples/beaconing/CMakeFiles/beaconing_nrf52840_xxAA_s140_6.0.0.dir/__/__/mesh/access/src/device_state_manager.c.obj
                0x000296f8                dsm_address_subscription_add
 .text.dsm_address_subscription_virtual_add
                0x00029704        0x6 examples/beaconing/CMakeFiles/beaconing_nrf52840_xxAA_s140_6.0.0.dir/__/__/mesh/access/src/device_state_manager.c.obj
                0x00029704                dsm_address_subscription_virtual_add
 *fill*         0x0002970a        0x2 
 .text.dsm_address_subscription_add_handle
                0x0002970c       0x38 examples/beaconing/CMakeFiles/beaconing_nrf52840_xxAA_s140_6.0.0.dir/__/__/mesh/access/src/device_state_manager.c.obj
                0x0002970c                dsm_address_subscription_add_handle
 .text.dsm_address_subscription_get
                0x00029744       0x34 examples/beaconing/CMakeFiles/beaconing_nrf52840_xxAA_s140_6.0.0.dir/__/__/mesh/access/src/device_state_manager.c.obj
                0x00029744                dsm_address_subscription_get
 .text.dsm_address_get
                0x00029778       0x5c examples/beaconing/CMakeFiles/beaconing_nrf52840_xxAA_s140_6.0.0.dir/__/__/mesh/access/src/device_state_manager.c.obj
                0x00029778                dsm_address_get
 .text.dsm_address_subscription_remove
                0x000297d4       0x5c examples/beaconing/CMakeFiles/beaconing_nrf52840_xxAA_s140_6.0.0.dir/__/__/mesh/access/src/device_state_manager.c.obj
                0x000297d4                dsm_address_subscription_remove
 .text.dsm_address_handle_get
                0x00029830       0x98 examples/beaconing/CMakeFiles/beaconing_nrf52840_xxAA_s140_6.0.0.dir/__/__/mesh/access/src/device_state_manager.c.obj
                0x00029830                dsm_address_handle_get
 .text.dsm_net_key_index_to_subnet_handle
                0x000298c8       0x1c examples/beaconing/CMakeFiles/beaconing_nrf52840_xxAA_s140_6.0.0.dir/__/__/mesh/access/src/device_state_manager.c.obj
                0x000298c8                dsm_net_key_index_to_subnet_handle
 .text.dsm_subnet_handle_get
                0x000298e4        0xc examples/beaconing/CMakeFiles/beaconing_nrf52840_xxAA_s140_6.0.0.dir/__/__/mesh/access/src/device_state_manager.c.obj
                0x000298e4                dsm_subnet_handle_get
 .text.dsm_appkey_index_to_appkey_handle
                0x000298f0       0x1c examples/beaconing/CMakeFiles/beaconing_nrf52840_xxAA_s140_6.0.0.dir/__/__/mesh/access/src/device_state_manager.c.obj
                0x000298f0                dsm_appkey_index_to_appkey_handle
 .text.dsm_appkey_handle_get
                0x0002990c        0xc examples/beaconing/CMakeFiles/beaconing_nrf52840_xxAA_s140_6.0.0.dir/__/__/mesh/access/src/device_state_manager.c.obj
                0x0002990c                dsm_appkey_handle_get
 .text.dsm_appkey_handle_to_appkey_index
                0x00029918       0x34 examples/beaconing/CMakeFiles/beaconing_nrf52840_xxAA_s140_6.0.0.dir/__/__/mesh/access/src/device_state_manager.c.obj
                0x00029918                dsm_appkey_handle_to_appkey_index
 .text.dsm_appkey_handle_to_subnet_handle
                0x0002994c       0xa0 examples/beaconing/CMakeFiles/beaconing_nrf52840_xxAA_s140_6.0.0.dir/__/__/mesh/access/src/device_state_manager.c.obj
                0x0002994c                dsm_appkey_handle_to_subnet_handle
 .text.dsm_subnet_add
                0x000299ec       0x78 examples/beaconing/CMakeFiles/beaconing_nrf52840_xxAA_s140_6.0.0.dir/__/__/mesh/access/src/device_state_manager.c.obj
                0x000299ec                dsm_subnet_add
 .text.dsm_subnet_kr_phase_get
                0x00029a64       0x34 examples/beaconing/CMakeFiles/beaconing_nrf52840_xxAA_s140_6.0.0.dir/__/__/mesh/access/src/device_state_manager.c.obj
                0x00029a64                dsm_subnet_kr_phase_get
 .text.dsm_subnet_update
                0x00029a98       0xc8 examples/beaconing/CMakeFiles/beaconing_nrf52840_xxAA_s140_6.0.0.dir/__/__/mesh/access/src/device_state_manager.c.obj
                0x00029a98                dsm_subnet_update
 .text.dsm_subnet_update_swap_keys
                0x00029b60       0x5c examples/beaconing/CMakeFiles/beaconing_nrf52840_xxAA_s140_6.0.0.dir/__/__/mesh/access/src/device_state_manager.c.obj
                0x00029b60                dsm_subnet_update_swap_keys
 .text.dsm_subnet_update_commit
                0x00029bbc       0xf4 examples/beaconing/CMakeFiles/beaconing_nrf52840_xxAA_s140_6.0.0.dir/__/__/mesh/access/src/device_state_manager.c.obj
                0x00029bbc                dsm_subnet_update_commit
 .text.mesh_evt_handler
                0x00029cb0       0x4c examples/beaconing/CMakeFiles/beaconing_nrf52840_xxAA_s140_6.0.0.dir/__/__/mesh/access/src/device_state_manager.c.obj
 .text.dsm_subnet_get_all
                0x00029cfc       0x60 examples/beaconing/CMakeFiles/beaconing_nrf52840_xxAA_s140_6.0.0.dir/__/__/mesh/access/src/device_state_manager.c.obj
                0x00029cfc                dsm_subnet_get_all
 .text.dsm_devkey_add
                0x00029d5c       0x7c examples/beaconing/CMakeFiles/beaconing_nrf52840_xxAA_s140_6.0.0.dir/__/__/mesh/access/src/device_state_manager.c.obj
                0x00029d5c                dsm_devkey_add
 .text.dsm_appkey_add
                0x00029dd8       0x90 examples/beaconing/CMakeFiles/beaconing_nrf52840_xxAA_s140_6.0.0.dir/__/__/mesh/access/src/device_state_manager.c.obj
                0x00029dd8                dsm_appkey_add
 .text.dsm_appkey_update
                0x00029e68       0xa4 examples/beaconing/CMakeFiles/beaconing_nrf52840_xxAA_s140_6.0.0.dir/__/__/mesh/access/src/device_state_manager.c.obj
                0x00029e68                dsm_appkey_update
 .text.dsm_appkey_delete
                0x00029f0c       0x30 examples/beaconing/CMakeFiles/beaconing_nrf52840_xxAA_s140_6.0.0.dir/__/__/mesh/access/src/device_state_manager.c.obj
                0x00029f0c                dsm_appkey_delete
 .text.dsm_subnet_delete
                0x00029f3c       0xac examples/beaconing/CMakeFiles/beaconing_nrf52840_xxAA_s140_6.0.0.dir/__/__/mesh/access/src/device_state_manager.c.obj
                0x00029f3c                dsm_subnet_delete
 .text.dsm_appkey_get_all
                0x00029fe8       0x88 examples/beaconing/CMakeFiles/beaconing_nrf52840_xxAA_s140_6.0.0.dir/__/__/mesh/access/src/device_state_manager.c.obj
                0x00029fe8                dsm_appkey_get_all
 .text.dsm_tx_secmat_get
                0x0002a070       0xc4 examples/beaconing/CMakeFiles/beaconing_nrf52840_xxAA_s140_6.0.0.dir/__/__/mesh/access/src/device_state_manager.c.obj
                0x0002a070                dsm_tx_secmat_get
 .text.dsm_net_secmat_from_keyindex_get
                0x0002a134       0x3c examples/beaconing/CMakeFiles/beaconing_nrf52840_xxAA_s140_6.0.0.dir/__/__/mesh/access/src/device_state_manager.c.obj
                0x0002a134                dsm_net_secmat_from_keyindex_get
 .text.nrf_mesh_net_secmat_next_get
                0x0002a170       0xb4 examples/beaconing/CMakeFiles/beaconing_nrf52840_xxAA_s140_6.0.0.dir/__/__/mesh/access/src/device_state_manager.c.obj
                0x0002a170                nrf_mesh_net_secmat_next_get
 .text.nrf_mesh_app_secmat_next_get
                0x0002a224       0x88 examples/beaconing/CMakeFiles/beaconing_nrf52840_xxAA_s140_6.0.0.dir/__/__/mesh/access/src/device_state_manager.c.obj
                0x0002a224                nrf_mesh_app_secmat_next_get
 .text.nrf_mesh_devkey_secmat_get
                0x0002a2ac       0x28 examples/beaconing/CMakeFiles/beaconing_nrf52840_xxAA_s140_6.0.0.dir/__/__/mesh/access/src/device_state_manager.c.obj
                0x0002a2ac                nrf_mesh_devkey_secmat_get
 .text.nrf_mesh_beacon_info_next_get
                0x0002a2d4       0xd4 examples/beaconing/CMakeFiles/beaconing_nrf52840_xxAA_s140_6.0.0.dir/__/__/mesh/access/src/device_state_manager.c.obj
                0x0002a2d4                nrf_mesh_beacon_info_next_get
 .text.nrf_mesh_rx_address_get
                0x0002a3a8      0x118 examples/beaconing/CMakeFiles/beaconing_nrf52840_xxAA_s140_6.0.0.dir/__/__/mesh/access/src/device_state_manager.c.obj
                0x0002a3a8                nrf_mesh_rx_address_get
 .text.nrf_mesh_unicast_address_get
                0x0002a4c0       0x20 examples/beaconing/CMakeFiles/beaconing_nrf52840_xxAA_s140_6.0.0.dir/__/__/mesh/access/src/device_state_manager.c.obj
                0x0002a4c0                nrf_mesh_unicast_address_get
 .text._weak_handler
                0x0002a4e0        0x4 examples/beaconing/CMakeFiles/beaconing_nrf52840_xxAA_s140_6.0.0.dir/__/nrf_mesh_weak.c.obj
                0x0002a4e0                nrf_mesh_dfu_init
                0x0002a4e0                nrf_mesh_dfu_jump_to_bootloader
                0x0002a4e0                nrf_mesh_dfu_rx
                0x0002a4e0                prov_provisioner_provision
                0x0002a4e0                nrf_mesh_dfu_bank_info_get
                0x0002a4e0                prov_provisioner_oob_pubkey
                0x0002a4e0                nrf_mesh_dfu_request
                0x0002a4e0                nrf_mesh_dfu_bank_flash
                0x0002a4e0                _weak_handler
                0x0002a4e0                nrf_mesh_dfu_relay
                0x0002a4e0                nrf_mesh_dfu_abort
                0x0002a4e0                mesh_flash_op_execute
                0x0002a4e0                prov_provisionee_init
                0x0002a4e0                nrf_mesh_dfu_state_get
                0x0002a4e0                prov_provisioner_shared_secret
                0x0002a4e0                prov_provisioner_auth_data
                0x0002a4e0                prov_provisioner_oob_use
 .text.app_error_fault_handler
                0x0002a4e4      0x204 examples/beaconing/CMakeFiles/beaconing_nrf52840_xxAA_s140_6.0.0.dir/__/common/src/app_error_weak.c.obj
                0x0002a4e4                app_error_fault_handler
 .text.mesh_assertion_handler
                0x0002a6e8       0x24 examples/beaconing/CMakeFiles/beaconing_nrf52840_xxAA_s140_6.0.0.dir/__/common/src/assertion_handler_weak.c.obj
                0x0002a6e8                mesh_assertion_handler
 .text.config_composition_data_get
                0x0002a70c      0x186 examples/beaconing/CMakeFiles/beaconing_nrf52840_xxAA_s140_6.0.0.dir/__/__/models/config/src/composition_data.c.obj
                0x0002a70c                config_composition_data_get
 *fill*         0x0002a892        0x2 
 .text.app_evt_send
                0x0002a894       0x10 examples/beaconing/CMakeFiles/beaconing_nrf52840_xxAA_s140_6.0.0.dir/__/__/models/config/src/config_server.c.obj
 .text.config_server_heartbeat_publication_count_decrement
                0x0002a8a4       0x1c examples/beaconing/CMakeFiles/beaconing_nrf52840_xxAA_s140_6.0.0.dir/__/__/models/config/src/config_server.c.obj
 .text.get_element_index
                0x0002a8c0       0x26 examples/beaconing/CMakeFiles/beaconing_nrf52840_xxAA_s140_6.0.0.dir/__/__/models/config/src/config_server.c.obj
 *fill*         0x0002a8e6        0x2 
 .text.config_server_heartbeat_publication_params_get
                0x0002a8e8       0x34 examples/beaconing/CMakeFiles/beaconing_nrf52840_xxAA_s140_6.0.0.dir/__/__/models/config/src/config_server.c.obj
 .text.send_reply
                0x0002a91c       0x34 examples/beaconing/CMakeFiles/beaconing_nrf52840_xxAA_s140_6.0.0.dir/__/__/models/config/src/config_server.c.obj
 .text.send_network_transmit_status
                0x0002a950       0x72 examples/beaconing/CMakeFiles/beaconing_nrf52840_xxAA_s140_6.0.0.dir/__/__/models/config/src/config_server.c.obj
 .text.handle_config_network_transmit_set
                0x0002a9c2       0x82 examples/beaconing/CMakeFiles/beaconing_nrf52840_xxAA_s140_6.0.0.dir/__/__/models/config/src/config_server.c.obj
 .text.handle_config_network_transmit_get
                0x0002aa44        0xa examples/beaconing/CMakeFiles/beaconing_nrf52840_xxAA_s140_6.0.0.dir/__/__/models/config/src/config_server.c.obj
 *fill*         0x0002aa4e        0x2 
 .text.handle_node_reset
                0x0002aa50       0x1c examples/beaconing/CMakeFiles/beaconing_nrf52840_xxAA_s140_6.0.0.dir/__/__/models/config/src/config_server.c.obj
 .text.send_netkey_status
                0x0002aa6c       0x22 examples/beaconing/CMakeFiles/beaconing_nrf52840_xxAA_s140_6.0.0.dir/__/__/models/config/src/config_server.c.obj
 .text.send_relay_status
                0x0002aa8e       0xa6 examples/beaconing/CMakeFiles/beaconing_nrf52840_xxAA_s140_6.0.0.dir/__/__/models/config/src/config_server.c.obj
 .text.handle_config_relay_set
                0x0002ab34       0xb6 examples/beaconing/CMakeFiles/beaconing_nrf52840_xxAA_s140_6.0.0.dir/__/__/models/config/src/config_server.c.obj
 .text.handle_config_relay_get
                0x0002abea        0xa examples/beaconing/CMakeFiles/beaconing_nrf52840_xxAA_s140_6.0.0.dir/__/__/models/config/src/config_server.c.obj
 .text.send_subscription_status
                0x0002abf4       0x3a examples/beaconing/CMakeFiles/beaconing_nrf52840_xxAA_s140_6.0.0.dir/__/__/models/config/src/config_server.c.obj
 .text.send_appkey_status
                0x0002ac2e       0x30 examples/beaconing/CMakeFiles/beaconing_nrf52840_xxAA_s140_6.0.0.dir/__/__/models/config/src/config_server.c.obj
 .text.handle_netkey_get
                0x0002ac5e       0x4c examples/beaconing/CMakeFiles/beaconing_nrf52840_xxAA_s140_6.0.0.dir/__/__/models/config/src/config_server.c.obj
 .text.handle_netkey_delete
                0x0002acaa       0xbc examples/beaconing/CMakeFiles/beaconing_nrf52840_xxAA_s140_6.0.0.dir/__/__/models/config/src/config_server.c.obj
 *fill*         0x0002ad66        0x2 
 .text.handle_netkey_add_update
                0x0002ad68       0x78 examples/beaconing/CMakeFiles/beaconing_nrf52840_xxAA_s140_6.0.0.dir/__/__/models/config/src/config_server.c.obj
 .text.status_error_sub_send
                0x0002ade0      0x11e examples/beaconing/CMakeFiles/beaconing_nrf52840_xxAA_s140_6.0.0.dir/__/__/models/config/src/config_server.c.obj
 .text.delete_all_subscriptions
                0x0002aefe       0x66 examples/beaconing/CMakeFiles/beaconing_nrf52840_xxAA_s140_6.0.0.dir/__/__/models/config/src/config_server.c.obj
 .text.send_publication_status
                0x0002af64      0x16e examples/beaconing/CMakeFiles/beaconing_nrf52840_xxAA_s140_6.0.0.dir/__/__/models/config/src/config_server.c.obj
 .text.handle_config_key_refresh_phase_set
                0x0002b0d2       0xc6 examples/beaconing/CMakeFiles/beaconing_nrf52840_xxAA_s140_6.0.0.dir/__/__/models/config/src/config_server.c.obj
 .text.handle_config_default_ttl_set
                0x0002b198       0x4e examples/beaconing/CMakeFiles/beaconing_nrf52840_xxAA_s140_6.0.0.dir/__/__/models/config/src/config_server.c.obj
 .text.send_net_beacon_state
                0x0002b1e6       0x2a examples/beaconing/CMakeFiles/beaconing_nrf52840_xxAA_s140_6.0.0.dir/__/__/models/config/src/config_server.c.obj
 .text.handle_config_beacon_get
                0x0002b210        0xa examples/beaconing/CMakeFiles/beaconing_nrf52840_xxAA_s140_6.0.0.dir/__/__/models/config/src/config_server.c.obj
 *fill*         0x0002b21a        0x2 
 .text.handle_heartbeat_publication_set
                0x0002b21c      0x128 examples/beaconing/CMakeFiles/beaconing_nrf52840_xxAA_s140_6.0.0.dir/__/__/models/config/src/config_server.c.obj
 .text.mesh_event_cb
                0x0002b344       0x64 examples/beaconing/CMakeFiles/beaconing_nrf52840_xxAA_s140_6.0.0.dir/__/__/models/config/src/config_server.c.obj
 .text.handle_node_identity_set
                0x0002b3a8       0x32 examples/beaconing/CMakeFiles/beaconing_nrf52840_xxAA_s140_6.0.0.dir/__/__/models/config/src/config_server.c.obj
 .text.handle_node_identity_get
                0x0002b3da       0x2e examples/beaconing/CMakeFiles/beaconing_nrf52840_xxAA_s140_6.0.0.dir/__/__/models/config/src/config_server.c.obj
 .text.handle_config_gatt_proxy_set
                0x0002b408       0x2a examples/beaconing/CMakeFiles/beaconing_nrf52840_xxAA_s140_6.0.0.dir/__/__/models/config/src/config_server.c.obj
 .text.handle_config_friend_set
                0x0002b432       0x2a examples/beaconing/CMakeFiles/beaconing_nrf52840_xxAA_s140_6.0.0.dir/__/__/models/config/src/config_server.c.obj
 .text.status_error_pub_send
                0x0002b45c       0x9a examples/beaconing/CMakeFiles/beaconing_nrf52840_xxAA_s140_6.0.0.dir/__/__/models/config/src/config_server.c.obj
 .text.handle_config_key_refresh_phase_get
                0x0002b4f6       0x54 examples/beaconing/CMakeFiles/beaconing_nrf52840_xxAA_s140_6.0.0.dir/__/__/models/config/src/config_server.c.obj
 .text.handle_config_default_ttl_get
                0x0002b54a       0x2a examples/beaconing/CMakeFiles/beaconing_nrf52840_xxAA_s140_6.0.0.dir/__/__/models/config/src/config_server.c.obj
 .text.handle_config_beacon_set
                0x0002b574       0x42 examples/beaconing/CMakeFiles/beaconing_nrf52840_xxAA_s140_6.0.0.dir/__/__/models/config/src/config_server.c.obj
 .text.handle_composition_data_get
                0x0002b5b6       0x4c examples/beaconing/CMakeFiles/beaconing_nrf52840_xxAA_s140_6.0.0.dir/__/__/models/config/src/config_server.c.obj
 .text.handle_appkey_delete
                0x0002b602       0xc2 examples/beaconing/CMakeFiles/beaconing_nrf52840_xxAA_s140_6.0.0.dir/__/__/models/config/src/config_server.c.obj
 .text.get_subscription_list.constprop.25
                0x0002b6c4       0x50 examples/beaconing/CMakeFiles/beaconing_nrf52840_xxAA_s140_6.0.0.dir/__/__/models/config/src/config_server.c.obj
 .text.handle_appkey_get
                0x0002b714       0xb8 examples/beaconing/CMakeFiles/beaconing_nrf52840_xxAA_s140_6.0.0.dir/__/__/models/config/src/config_server.c.obj
 .text.heartbeat_subscription_count_encode
                0x0002b7cc       0x26 examples/beaconing/CMakeFiles/beaconing_nrf52840_xxAA_s140_6.0.0.dir/__/__/models/config/src/config_server.c.obj
 .text.handle_appkey_add
                0x0002b7f2       0xba examples/beaconing/CMakeFiles/beaconing_nrf52840_xxAA_s140_6.0.0.dir/__/__/models/config/src/config_server.c.obj
 .text.handle_appkey_update
                0x0002b8ac       0xbc examples/beaconing/CMakeFiles/beaconing_nrf52840_xxAA_s140_6.0.0.dir/__/__/models/config/src/config_server.c.obj
 .text.heartbeat_pubsub_period_encode
                0x0002b968       0x26 examples/beaconing/CMakeFiles/beaconing_nrf52840_xxAA_s140_6.0.0.dir/__/__/models/config/src/config_server.c.obj
 *fill*         0x0002b98e        0x2 
 .text.handle_heartbeat_publication_get
                0x0002b990       0x7c examples/beaconing/CMakeFiles/beaconing_nrf52840_xxAA_s140_6.0.0.dir/__/__/models/config/src/config_server.c.obj
 .text.handle_heartbeat_subscription_get
                0x0002ba0c       0x82 examples/beaconing/CMakeFiles/beaconing_nrf52840_xxAA_s140_6.0.0.dir/__/__/models/config/src/config_server.c.obj
 .text.handle_heartbeat_subscription_set
                0x0002ba8e       0xa4 examples/beaconing/CMakeFiles/beaconing_nrf52840_xxAA_s140_6.0.0.dir/__/__/models/config/src/config_server.c.obj
 .text.handle_config_model_publication_get
                0x0002bb32       0x94 examples/beaconing/CMakeFiles/beaconing_nrf52840_xxAA_s140_6.0.0.dir/__/__/models/config/src/config_server.c.obj
 .text.handle_config_model_subscription_delete_all
                0x0002bbc6       0xca examples/beaconing/CMakeFiles/beaconing_nrf52840_xxAA_s140_6.0.0.dir/__/__/models/config/src/config_server.c.obj
 .text.handle_config_sig_model_subscription_get
                0x0002bc90       0xc4 examples/beaconing/CMakeFiles/beaconing_nrf52840_xxAA_s140_6.0.0.dir/__/__/models/config/src/config_server.c.obj
 .text.handle_config_vendor_model_subscription_get
                0x0002bd54      0x100 examples/beaconing/CMakeFiles/beaconing_nrf52840_xxAA_s140_6.0.0.dir/__/__/models/config/src/config_server.c.obj
 .text.handle_config_model_subscription_virtual_address_delete
                0x0002be54      0x110 examples/beaconing/CMakeFiles/beaconing_nrf52840_xxAA_s140_6.0.0.dir/__/__/models/config/src/config_server.c.obj
 .text.handle_config_model_subscription_virtual_address_add
                0x0002bf64      0x10e examples/beaconing/CMakeFiles/beaconing_nrf52840_xxAA_s140_6.0.0.dir/__/__/models/config/src/config_server.c.obj
 .text.handle_config_model_subscription_delete
                0x0002c072      0x116 examples/beaconing/CMakeFiles/beaconing_nrf52840_xxAA_s140_6.0.0.dir/__/__/models/config/src/config_server.c.obj
 .text.handle_config_model_subscription_add
                0x0002c188      0x114 examples/beaconing/CMakeFiles/beaconing_nrf52840_xxAA_s140_6.0.0.dir/__/__/models/config/src/config_server.c.obj
 .text.handle_model_app_get
                0x0002c29c      0x19e examples/beaconing/CMakeFiles/beaconing_nrf52840_xxAA_s140_6.0.0.dir/__/__/models/config/src/config_server.c.obj
 .text.handle_config_model_subscription_virtual_address_overwrite
                0x0002c43a      0x128 examples/beaconing/CMakeFiles/beaconing_nrf52840_xxAA_s140_6.0.0.dir/__/__/models/config/src/config_server.c.obj
 .text.handle_config_model_subscription_overwrite
                0x0002c562      0x122 examples/beaconing/CMakeFiles/beaconing_nrf52840_xxAA_s140_6.0.0.dir/__/__/models/config/src/config_server.c.obj
 .text.handle_model_app_bind_unbind
                0x0002c684      0x174 examples/beaconing/CMakeFiles/beaconing_nrf52840_xxAA_s140_6.0.0.dir/__/__/models/config/src/config_server.c.obj
 .text.handle_config_gatt_proxy_get
                0x0002c7f8       0x20 examples/beaconing/CMakeFiles/beaconing_nrf52840_xxAA_s140_6.0.0.dir/__/__/models/config/src/config_server.c.obj
 .text.handle_config_friend_get
                0x0002c818       0x20 examples/beaconing/CMakeFiles/beaconing_nrf52840_xxAA_s140_6.0.0.dir/__/__/models/config/src/config_server.c.obj
 .text.handle_config_model_publication_set
                0x0002c838      0x2ce examples/beaconing/CMakeFiles/beaconing_nrf52840_xxAA_s140_6.0.0.dir/__/__/models/config/src/config_server.c.obj
 *fill*         0x0002cb06        0x2 
 .text.config_server_init
                0x0002cb08       0x64 examples/beaconing/CMakeFiles/beaconing_nrf52840_xxAA_s140_6.0.0.dir/__/__/models/config/src/config_server.c.obj
                0x0002cb08                config_server_init
 .text.config_server_bind
                0x0002cb6c       0x10 examples/beaconing/CMakeFiles/beaconing_nrf52840_xxAA_s140_6.0.0.dir/__/__/models/config/src/config_server.c.obj
                0x0002cb6c                config_server_bind
 .text.packed_index_list_create
                0x0002cb7c       0x32 examples/beaconing/CMakeFiles/beaconing_nrf52840_xxAA_s140_6.0.0.dir/__/__/models/config/src/packed_index_list.c.obj
                0x0002cb7c                packed_index_list_create
 *fill*         0x0002cbae        0x2 
 .text.attention_timer_set
                0x0002cbb0       0x8c examples/beaconing/CMakeFiles/beaconing_nrf52840_xxAA_s140_6.0.0.dir/__/__/models/health/src/health_server.c.obj
 .text.attention_timer_handler
                0x0002cc3c       0x5c examples/beaconing/CMakeFiles/beaconing_nrf52840_xxAA_s140_6.0.0.dir/__/__/models/health/src/health_server.c.obj
 .text.send_attention_status.isra.1
                0x0002cc98       0x44 examples/beaconing/CMakeFiles/beaconing_nrf52840_xxAA_s140_6.0.0.dir/__/__/models/health/src/health_server.c.obj
 .text.handle_attention_set
                0x0002ccdc       0x32 examples/beaconing/CMakeFiles/beaconing_nrf52840_xxAA_s140_6.0.0.dir/__/__/models/health/src/health_server.c.obj
 .text.send_period_status.isra.4
                0x0002cd0e       0x44 examples/beaconing/CMakeFiles/beaconing_nrf52840_xxAA_s140_6.0.0.dir/__/__/models/health/src/health_server.c.obj
 .text.handle_period_set
                0x0002cd52       0x28 examples/beaconing/CMakeFiles/beaconing_nrf52840_xxAA_s140_6.0.0.dir/__/__/models/health/src/health_server.c.obj
 *fill*         0x0002cd7a        0x2 
 .text.bitfield_next_get.part.0.constprop.13
                0x0002cd7c       0x44 examples/beaconing/CMakeFiles/beaconing_nrf52840_xxAA_s140_6.0.0.dir/__/__/models/health/src/health_server.c.obj
 .text.bitfield_popcount.constprop.11
                0x0002cdc0       0x28 examples/beaconing/CMakeFiles/beaconing_nrf52840_xxAA_s140_6.0.0.dir/__/__/models/health/src/health_server.c.obj
 .text.send_fault_status
                0x0002cde8       0xa8 examples/beaconing/CMakeFiles/beaconing_nrf52840_xxAA_s140_6.0.0.dir/__/__/models/health/src/health_server.c.obj
 .text.health_publish_timeout_handler
                0x0002ce90        0xa examples/beaconing/CMakeFiles/beaconing_nrf52840_xxAA_s140_6.0.0.dir/__/__/models/health/src/health_server.c.obj
 .text.handle_fault_test
                0x0002ce9a       0x68 examples/beaconing/CMakeFiles/beaconing_nrf52840_xxAA_s140_6.0.0.dir/__/__/models/health/src/health_server.c.obj
 .text.handle_fault_get
                0x0002cf02       0x32 examples/beaconing/CMakeFiles/beaconing_nrf52840_xxAA_s140_6.0.0.dir/__/__/models/health/src/health_server.c.obj
 .text.handle_fault_clear
                0x0002cf34       0x48 examples/beaconing/CMakeFiles/beaconing_nrf52840_xxAA_s140_6.0.0.dir/__/__/models/health/src/health_server.c.obj
 .text.handle_attention_get
                0x0002cf7c       0x14 examples/beaconing/CMakeFiles/beaconing_nrf52840_xxAA_s140_6.0.0.dir/__/__/models/health/src/health_server.c.obj
 .text.handle_period_get
                0x0002cf90       0x12 examples/beaconing/CMakeFiles/beaconing_nrf52840_xxAA_s140_6.0.0.dir/__/__/models/health/src/health_server.c.obj
 *fill*         0x0002cfa2        0x2 
 .text.health_server_init
                0x0002cfa4       0x6c examples/beaconing/CMakeFiles/beaconing_nrf52840_xxAA_s140_6.0.0.dir/__/__/models/health/src/health_server.c.obj
                0x0002cfa4                health_server_init
 .text.complete_provisioning
                0x0002d010       0x24 examples/beaconing/CMakeFiles/beaconing_nrf52840_xxAA_s140_6.0.0.dir/__/__/mesh/prov/src/prov_provisionee.c.obj
 .text.prov_provisionee_cb_link_established
                0x0002d034       0x36 examples/beaconing/CMakeFiles/beaconing_nrf52840_xxAA_s140_6.0.0.dir/__/__/mesh/prov/src/prov_provisionee.c.obj
 .text.prov_provisionee_cb_link_closed
                0x0002d06a       0x34 examples/beaconing/CMakeFiles/beaconing_nrf52840_xxAA_s140_6.0.0.dir/__/__/mesh/prov/src/prov_provisionee.c.obj
 .text.request_authentication
                0x0002d09e       0x8a examples/beaconing/CMakeFiles/beaconing_nrf52840_xxAA_s140_6.0.0.dir/__/__/mesh/prov/src/prov_provisionee.c.obj
 .text.send_failed
                0x0002d128       0x3a examples/beaconing/CMakeFiles/beaconing_nrf52840_xxAA_s140_6.0.0.dir/__/__/mesh/prov/src/prov_provisionee.c.obj
 .text.start_authentication
                0x0002d162       0x52 examples/beaconing/CMakeFiles/beaconing_nrf52840_xxAA_s140_6.0.0.dir/__/__/mesh/prov/src/prov_provisionee.c.obj
 .text.prov_provisionee_cb_ack_received
                0x0002d1b4       0xc8 examples/beaconing/CMakeFiles/beaconing_nrf52840_xxAA_s140_6.0.0.dir/__/__/mesh/prov/src/prov_provisionee.c.obj
 .text.prov_provisionee_pkt_in
                0x0002d27c      0x2e4 examples/beaconing/CMakeFiles/beaconing_nrf52840_xxAA_s140_6.0.0.dir/__/__/mesh/prov/src/prov_provisionee.c.obj
 .text.prov_provisionee_listen
                0x0002d560       0x30 examples/beaconing/CMakeFiles/beaconing_nrf52840_xxAA_s140_6.0.0.dir/__/__/mesh/prov/src/prov_provisionee.c.obj
                0x0002d560                prov_provisionee_listen
 .text.prov_provisionee_auth_data
                0x0002d590       0x98 examples/beaconing/CMakeFiles/beaconing_nrf52840_xxAA_s140_6.0.0.dir/__/__/mesh/prov/src/prov_provisionee.c.obj
                0x0002d590                prov_provisionee_auth_data
 .text.bearer_compare_callback
                0x0002d628        0xc examples/beaconing/CMakeFiles/beaconing_nrf52840_xxAA_s140_6.0.0.dir/__/__/mesh/prov/src/nrf_mesh_prov.c.obj
 .text.bitfield_next_get.part.0.constprop.4
                0x0002d634       0x34 examples/beaconing/CMakeFiles/beaconing_nrf52840_xxAA_s140_6.0.0.dir/__/__/mesh/prov/src/nrf_mesh_prov.c.obj
 .text.nrf_mesh_prov_init
                0x0002d668       0x32 examples/beaconing/CMakeFiles/beaconing_nrf52840_xxAA_s140_6.0.0.dir/__/__/mesh/prov/src/nrf_mesh_prov.c.obj
                0x0002d668                nrf_mesh_prov_init
 *fill*         0x0002d69a        0x2 
 .text.nrf_mesh_prov_bearer_add
                0x0002d69c       0x28 examples/beaconing/CMakeFiles/beaconing_nrf52840_xxAA_s140_6.0.0.dir/__/__/mesh/prov/src/nrf_mesh_prov.c.obj
                0x0002d69c                nrf_mesh_prov_bearer_add
 .text.nrf_mesh_prov_generate_keys
                0x0002d6c4        0x4 examples/beaconing/CMakeFiles/beaconing_nrf52840_xxAA_s140_6.0.0.dir/__/__/mesh/prov/src/nrf_mesh_prov.c.obj
                0x0002d6c4                nrf_mesh_prov_generate_keys
 .text.nrf_mesh_prov_listen_stop
                0x0002d6c8       0x2e examples/beaconing/CMakeFiles/beaconing_nrf52840_xxAA_s140_6.0.0.dir/__/__/mesh/prov/src/nrf_mesh_prov.c.obj
                0x0002d6c8                nrf_mesh_prov_listen_stop
 .text.nrf_mesh_prov_listen
                0x0002d6f6       0x88 examples/beaconing/CMakeFiles/beaconing_nrf52840_xxAA_s140_6.0.0.dir/__/__/mesh/prov/src/nrf_mesh_prov.c.obj
                0x0002d6f6                nrf_mesh_prov_listen
 .text.nrf_mesh_prov_auth_data_provide
                0x0002d77e        0xe examples/beaconing/CMakeFiles/beaconing_nrf52840_xxAA_s140_6.0.0.dir/__/__/mesh/prov/src/nrf_mesh_prov.c.obj
                0x0002d77e                nrf_mesh_prov_auth_data_provide
 .text.send_data
                0x0002d78c       0x28 examples/beaconing/CMakeFiles/beaconing_nrf52840_xxAA_s140_6.0.0.dir/__/__/mesh/prov/src/provisioning.c.obj
 .text.prov_packet_length_valid
                0x0002d7b4       0x1c examples/beaconing/CMakeFiles/beaconing_nrf52840_xxAA_s140_6.0.0.dir/__/__/mesh/prov/src/provisioning.c.obj
                0x0002d7b4                prov_packet_length_valid
 .text.prov_tx_capabilities
                0x0002d7d0       0x1e examples/beaconing/CMakeFiles/beaconing_nrf52840_xxAA_s140_6.0.0.dir/__/__/mesh/prov/src/provisioning.c.obj
                0x0002d7d0                prov_tx_capabilities
 .text.prov_tx_public_key
                0x0002d7ee       0x26 examples/beaconing/CMakeFiles/beaconing_nrf52840_xxAA_s140_6.0.0.dir/__/__/mesh/prov/src/provisioning.c.obj
                0x0002d7ee                prov_tx_public_key
 .text.prov_tx_input_complete
                0x0002d814       0x16 examples/beaconing/CMakeFiles/beaconing_nrf52840_xxAA_s140_6.0.0.dir/__/__/mesh/prov/src/provisioning.c.obj
                0x0002d814                prov_tx_input_complete
 .text.prov_tx_confirmation
                0x0002d82a       0x26 examples/beaconing/CMakeFiles/beaconing_nrf52840_xxAA_s140_6.0.0.dir/__/__/mesh/prov/src/provisioning.c.obj
                0x0002d82a                prov_tx_confirmation
 .text.prov_tx_random
                0x0002d850       0x26 examples/beaconing/CMakeFiles/beaconing_nrf52840_xxAA_s140_6.0.0.dir/__/__/mesh/prov/src/provisioning.c.obj
                0x0002d850                prov_tx_random
 .text.prov_tx_complete
                0x0002d876       0x16 examples/beaconing/CMakeFiles/beaconing_nrf52840_xxAA_s140_6.0.0.dir/__/__/mesh/prov/src/provisioning.c.obj
                0x0002d876                prov_tx_complete
 .text.prov_tx_failed
                0x0002d88c       0x1a examples/beaconing/CMakeFiles/beaconing_nrf52840_xxAA_s140_6.0.0.dir/__/__/mesh/prov/src/provisioning.c.obj
                0x0002d88c                prov_tx_failed
 .text.prov_beacon_unprov_build
                0x0002d8a6       0x54 examples/beaconing/CMakeFiles/beaconing_nrf52840_xxAA_s140_6.0.0.dir/__/__/mesh/prov/src/prov_beacon.c.obj
                0x0002d8a6                prov_beacon_unprov_build
 *fill*         0x0002d8fa        0x2 
 .text.prov_beacon_unprov_packet_in
                0x0002d8fc       0x88 examples/beaconing/CMakeFiles/beaconing_nrf52840_xxAA_s140_6.0.0.dir/__/__/mesh/prov/src/prov_beacon.c.obj
                0x0002d8fc                prov_beacon_unprov_packet_in
 .text.oob_gen_alphanumeric
                0x0002d984       0x34 examples/beaconing/CMakeFiles/beaconing_nrf52840_xxAA_s140_6.0.0.dir/__/__/mesh/prov/src/prov_utils.c.obj
 .text.oob_gen_numeric
                0x0002d9b8       0x3c examples/beaconing/CMakeFiles/beaconing_nrf52840_xxAA_s140_6.0.0.dir/__/__/mesh/prov/src/prov_utils.c.obj
 .text.prov_utils_opt_set
                0x0002d9f4       0x20 examples/beaconing/CMakeFiles/beaconing_nrf52840_xxAA_s140_6.0.0.dir/__/__/mesh/prov/src/prov_utils.c.obj
                0x0002d9f4                prov_utils_opt_set
 .text.prov_utils_opt_get
                0x0002da14       0x1c examples/beaconing/CMakeFiles/beaconing_nrf52840_xxAA_s140_6.0.0.dir/__/__/mesh/prov/src/prov_utils.c.obj
                0x0002da14                prov_utils_opt_get
 .text.prov_utils_use_ecdh_offloading
                0x0002da30        0xc examples/beaconing/CMakeFiles/beaconing_nrf52840_xxAA_s140_6.0.0.dir/__/__/mesh/prov/src/prov_utils.c.obj
                0x0002da30                prov_utils_use_ecdh_offloading
 .text.prov_utils_authentication_values_derive
                0x0002da3c       0xa0 examples/beaconing/CMakeFiles/beaconing_nrf52840_xxAA_s140_6.0.0.dir/__/__/mesh/prov/src/prov_utils.c.obj
                0x0002da3c                prov_utils_authentication_values_derive
 .text.prov_utils_keys_generate
                0x0002dadc       0x1e examples/beaconing/CMakeFiles/beaconing_nrf52840_xxAA_s140_6.0.0.dir/__/__/mesh/prov/src/prov_utils.c.obj
                0x0002dadc                prov_utils_keys_generate
 *fill*         0x0002dafa        0x2 
 .text.prov_utils_derive_keys
                0x0002dafc       0xac examples/beaconing/CMakeFiles/beaconing_nrf52840_xxAA_s140_6.0.0.dir/__/__/mesh/prov/src/prov_utils.c.obj
                0x0002dafc                prov_utils_derive_keys
 .text.prov_utils_calculate_shared_secret
                0x0002dba8       0x36 examples/beaconing/CMakeFiles/beaconing_nrf52840_xxAA_s140_6.0.0.dir/__/__/mesh/prov/src/prov_utils.c.obj
                0x0002dba8                prov_utils_calculate_shared_secret
 .text.prov_utils_generate_oob_data
                0x0002dbde       0x8a examples/beaconing/CMakeFiles/beaconing_nrf52840_xxAA_s140_6.0.0.dir/__/__/mesh/prov/src/prov_utils.c.obj
                0x0002dbde                prov_utils_generate_oob_data
 .text.prov_utils_confirmation_check
                0x0002dc68       0x5c examples/beaconing/CMakeFiles/beaconing_nrf52840_xxAA_s140_6.0.0.dir/__/__/mesh/prov/src/prov_utils.c.obj
                0x0002dc68                prov_utils_confirmation_check
 .text.link_timeout_cb
                0x0002dcc4       0x10 examples/beaconing/CMakeFiles/beaconing_nrf52840_xxAA_s140_6.0.0.dir/__/__/mesh/prov/src/prov_bearer_adv.c.obj
 .text.remove_active_bearer
                0x0002dcd4       0x4c examples/beaconing/CMakeFiles/beaconing_nrf52840_xxAA_s140_6.0.0.dir/__/__/mesh/prov/src/prov_bearer_adv.c.obj
 .text.close_link
                0x0002dd20       0x58 examples/beaconing/CMakeFiles/beaconing_nrf52840_xxAA_s140_6.0.0.dir/__/__/mesh/prov/src/prov_bearer_adv.c.obj
 .text.prov_bearer_adv_listen_stop
                0x0002dd78       0x30 examples/beaconing/CMakeFiles/beaconing_nrf52840_xxAA_s140_6.0.0.dir/__/__/mesh/prov/src/prov_bearer_adv.c.obj
 .text.send_packet
                0x0002dda8       0x5e examples/beaconing/CMakeFiles/beaconing_nrf52840_xxAA_s140_6.0.0.dir/__/__/mesh/prov/src/prov_bearer_adv.c.obj
 .text.prov_buffer_tx
                0x0002de06      0x134 examples/beaconing/CMakeFiles/beaconing_nrf52840_xxAA_s140_6.0.0.dir/__/__/mesh/prov/src/prov_bearer_adv.c.obj
 .text.send_link_close
                0x0002df3a       0x38 examples/beaconing/CMakeFiles/beaconing_nrf52840_xxAA_s140_6.0.0.dir/__/__/mesh/prov/src/prov_bearer_adv.c.obj
 .text.prov_bearer_adv_link_close
                0x0002df72       0x56 examples/beaconing/CMakeFiles/beaconing_nrf52840_xxAA_s140_6.0.0.dir/__/__/mesh/prov/src/prov_bearer_adv.c.obj
 .text.send_transaction_ack
                0x0002dfc8       0x24 examples/beaconing/CMakeFiles/beaconing_nrf52840_xxAA_s140_6.0.0.dir/__/__/mesh/prov/src/prov_bearer_adv.c.obj
 .text.send_link_ack
                0x0002dfec       0x32 examples/beaconing/CMakeFiles/beaconing_nrf52840_xxAA_s140_6.0.0.dir/__/__/mesh/prov/src/prov_bearer_adv.c.obj
 .text.reset_timeout_timer
                0x0002e01e       0x1a examples/beaconing/CMakeFiles/beaconing_nrf52840_xxAA_s140_6.0.0.dir/__/__/mesh/prov/src/prov_bearer_adv.c.obj
 .text.tx_complete_cb
                0x0002e038       0x1c examples/beaconing/CMakeFiles/beaconing_nrf52840_xxAA_s140_6.0.0.dir/__/__/mesh/prov/src/prov_bearer_adv.c.obj
 .text.tx_retry_cb
                0x0002e054       0xcc examples/beaconing/CMakeFiles/beaconing_nrf52840_xxAA_s140_6.0.0.dir/__/__/mesh/prov/src/prov_bearer_adv.c.obj
 .text.add_active_bearer
                0x0002e120       0x80 examples/beaconing/CMakeFiles/beaconing_nrf52840_xxAA_s140_6.0.0.dir/__/__/mesh/prov/src/prov_bearer_adv.c.obj
 .text.prov_bearer_adv_link_open
                0x0002e1a0       0xec examples/beaconing/CMakeFiles/beaconing_nrf52840_xxAA_s140_6.0.0.dir/__/__/mesh/prov/src/prov_bearer_adv.c.obj
 .text.async_process
                0x0002e28c       0x50 examples/beaconing/CMakeFiles/beaconing_nrf52840_xxAA_s140_6.0.0.dir/__/__/mesh/prov/src/prov_bearer_adv.c.obj
 .text.prov_bearer_adv_listen
                0x0002e2dc       0xd8 examples/beaconing/CMakeFiles/beaconing_nrf52840_xxAA_s140_6.0.0.dir/__/__/mesh/prov/src/prov_bearer_adv.c.obj
 .text.calculate_3GPP_CRC
                0x0002e3b4       0x24 examples/beaconing/CMakeFiles/beaconing_nrf52840_xxAA_s140_6.0.0.dir/__/__/mesh/prov/src/prov_bearer_adv.c.obj
                0x0002e3b4                calculate_3GPP_CRC
 .text.prov_bearer_adv_tx
                0x0002e3d8       0xb4 examples/beaconing/CMakeFiles/beaconing_nrf52840_xxAA_s140_6.0.0.dir/__/__/mesh/prov/src/prov_bearer_adv.c.obj
 .text.prov_buffer_rx
                0x0002e48c       0x6e examples/beaconing/CMakeFiles/beaconing_nrf52840_xxAA_s140_6.0.0.dir/__/__/mesh/prov/src/prov_bearer_adv.c.obj
 *fill*         0x0002e4fa        0x2 
 .text.nrf_mesh_prov_bearer_adv_interface_get
                0x0002e4fc       0x3c examples/beaconing/CMakeFiles/beaconing_nrf52840_xxAA_s140_6.0.0.dir/__/__/mesh/prov/src/prov_bearer_adv.c.obj
                0x0002e4fc                nrf_mesh_prov_bearer_adv_interface_get
 .text.prov_bearer_adv_packet_in
                0x0002e538      0x7f8 examples/beaconing/CMakeFiles/beaconing_nrf52840_xxAA_s140_6.0.0.dir/__/__/mesh/prov/src/prov_bearer_adv.c.obj
                0x0002e538                prov_bearer_adv_packet_in
 .text.nrf_mesh_configure_device_uuid_set
                0x0002ed30       0x10 examples/beaconing/CMakeFiles/beaconing_nrf52840_xxAA_s140_6.0.0.dir/__/__/mesh/core/src/nrf_mesh_configure.c.obj
                0x0002ed30                nrf_mesh_configure_device_uuid_set
 .text.nrf_mesh_configure_device_uuid_reset
                0x0002ed40       0x28 examples/beaconing/CMakeFiles/beaconing_nrf52840_xxAA_s140_6.0.0.dir/__/__/mesh/core/src/nrf_mesh_configure.c.obj
                0x0002ed40                nrf_mesh_configure_device_uuid_reset
 .text.nrf_mesh_configure_device_uuid_get
                0x0002ed68        0x8 examples/beaconing/CMakeFiles/beaconing_nrf52840_xxAA_s140_6.0.0.dir/__/__/mesh/core/src/nrf_mesh_configure.c.obj
                0x0002ed68                nrf_mesh_configure_device_uuid_get
 .text.sd_ecb_block_encrypt
                0x0002ed70        0x4 examples/beaconing/CMakeFiles/beaconing_nrf52840_xxAA_s140_6.0.0.dir/__/__/mesh/core/src/aes.c.obj
 .text.aes_encrypt
                0x0002ed74       0x32 examples/beaconing/CMakeFiles/beaconing_nrf52840_xxAA_s140_6.0.0.dir/__/__/mesh/core/src/aes.c.obj
                0x0002ed74                aes_encrypt
 *fill*         0x0002eda6        0x2 
 .text.msg_cache_init
                0x0002eda8       0x24 examples/beaconing/CMakeFiles/beaconing_nrf52840_xxAA_s140_6.0.0.dir/__/__/mesh/core/src/msg_cache.c.obj
                0x0002eda8                msg_cache_init
 .text.msg_cache_entry_exists
                0x0002edcc       0x3c examples/beaconing/CMakeFiles/beaconing_nrf52840_xxAA_s140_6.0.0.dir/__/__/mesh/core/src/msg_cache.c.obj
                0x0002edcc                msg_cache_entry_exists
 .text.msg_cache_entry_add
                0x0002ee08       0x2c examples/beaconing/CMakeFiles/beaconing_nrf52840_xxAA_s140_6.0.0.dir/__/__/mesh/core/src/msg_cache.c.obj
                0x0002ee08                msg_cache_entry_add
 .text.seqauth_sequence_number_get
                0x0002ee34       0x12 examples/beaconing/CMakeFiles/beaconing_nrf52840_xxAA_s140_6.0.0.dir/__/__/mesh/core/src/transport.c.obj
 *fill*         0x0002ee46        0x2 
 .text.control_packet_callback_get
                0x0002ee48       0x44 examples/beaconing/CMakeFiles/beaconing_nrf52840_xxAA_s140_6.0.0.dir/__/__/mesh/core/src/transport.c.obj
 .text.tx_complete
                0x0002ee8c       0x30 examples/beaconing/CMakeFiles/beaconing_nrf52840_xxAA_s140_6.0.0.dir/__/__/mesh/core/src/transport.c.obj
 .text.block_ack_full
                0x0002eebc       0x1a examples/beaconing/CMakeFiles/beaconing_nrf52840_xxAA_s140_6.0.0.dir/__/__/mesh/core/src/transport.c.obj
 *fill*         0x0002eed6        0x2 
 .text.sar_rx_session_mark_as_handled
                0x0002eed8       0x48 examples/beaconing/CMakeFiles/beaconing_nrf52840_xxAA_s140_6.0.0.dir/__/__/mesh/core/src/transport.c.obj
 .text.upper_trs_packet_encrypt
                0x0002ef20       0x90 examples/beaconing/CMakeFiles/beaconing_nrf52840_xxAA_s140_6.0.0.dir/__/__/mesh/core/src/transport.c.obj
 .text.sar_ctx_free
                0x0002efb0       0x3c examples/beaconing/CMakeFiles/beaconing_nrf52840_xxAA_s140_6.0.0.dir/__/__/mesh/core/src/transport.c.obj
 .text.sar_ctx_tx_complete
                0x0002efec       0x2e examples/beaconing/CMakeFiles/beaconing_nrf52840_xxAA_s140_6.0.0.dir/__/__/mesh/core/src/transport.c.obj
 *fill*         0x0002f01a        0x2 
 .text.sar_ctx_alloc
                0x0002f01c       0xa4 examples/beaconing/CMakeFiles/beaconing_nrf52840_xxAA_s140_6.0.0.dir/__/__/mesh/core/src/transport.c.obj
 .text.test_transport_decrypt
                0x0002f0c0       0x88 examples/beaconing/CMakeFiles/beaconing_nrf52840_xxAA_s140_6.0.0.dir/__/__/mesh/core/src/transport.c.obj
 .text.upper_transport_access_packet_in
                0x0002f148      0x19c examples/beaconing/CMakeFiles/beaconing_nrf52840_xxAA_s140_6.0.0.dir/__/__/mesh/core/src/transport.c.obj
 .text.trs_packet_header_build
                0x0002f2e4       0xa6 examples/beaconing/CMakeFiles/beaconing_nrf52840_xxAA_s140_6.0.0.dir/__/__/mesh/core/src/transport.c.obj
 *fill*         0x0002f38a        0x2 
 .text.tx_retry_timer_reset
                0x0002f38c       0x44 examples/beaconing/CMakeFiles/beaconing_nrf52840_xxAA_s140_6.0.0.dir/__/__/mesh/core/src/transport.c.obj
 .text.sar_ctx_cancel
                0x0002f3d0       0xa8 examples/beaconing/CMakeFiles/beaconing_nrf52840_xxAA_s140_6.0.0.dir/__/__/mesh/core/src/transport.c.obj
 .text.abort_timeout
                0x0002f478        0x8 examples/beaconing/CMakeFiles/beaconing_nrf52840_xxAA_s140_6.0.0.dir/__/__/mesh/core/src/transport.c.obj
 .text.trs_sar_packet_out
                0x0002f480       0xda examples/beaconing/CMakeFiles/beaconing_nrf52840_xxAA_s140_6.0.0.dir/__/__/mesh/core/src/transport.c.obj
 .text.retry_timeout
                0x0002f55a       0x46 examples/beaconing/CMakeFiles/beaconing_nrf52840_xxAA_s140_6.0.0.dir/__/__/mesh/core/src/transport.c.obj
 .text.upper_transport_packet_in
                0x0002f5a0      0x150 examples/beaconing/CMakeFiles/beaconing_nrf52840_xxAA_s140_6.0.0.dir/__/__/mesh/core/src/transport.c.obj
 .text.upper_transport_tx
                0x0002f6f0      0x1e4 examples/beaconing/CMakeFiles/beaconing_nrf52840_xxAA_s140_6.0.0.dir/__/__/mesh/core/src/transport.c.obj
 .text.transport_sar_mem_funcs_reset
                0x0002f8d4       0x28 examples/beaconing/CMakeFiles/beaconing_nrf52840_xxAA_s140_6.0.0.dir/__/__/mesh/core/src/transport.c.obj
                0x0002f8d4                transport_sar_mem_funcs_reset
 .text.transport_init
                0x0002f8fc       0x8c examples/beaconing/CMakeFiles/beaconing_nrf52840_xxAA_s140_6.0.0.dir/__/__/mesh/core/src/transport.c.obj
                0x0002f8fc                transport_init
 .text.transport_tx
                0x0002f988       0xb4 examples/beaconing/CMakeFiles/beaconing_nrf52840_xxAA_s140_6.0.0.dir/__/__/mesh/core/src/transport.c.obj
                0x0002f988                transport_tx
 .text.transport_control_tx
                0x0002fa3c       0x8e examples/beaconing/CMakeFiles/beaconing_nrf52840_xxAA_s140_6.0.0.dir/__/__/mesh/core/src/transport.c.obj
                0x0002fa3c                transport_control_tx
 *fill*         0x0002faca        0x2 
 .text.sar_ack_send
                0x0002facc       0xa0 examples/beaconing/CMakeFiles/beaconing_nrf52840_xxAA_s140_6.0.0.dir/__/__/mesh/core/src/transport.c.obj
 .text.transport_sar_process
                0x0002fb6c       0x74 examples/beaconing/CMakeFiles/beaconing_nrf52840_xxAA_s140_6.0.0.dir/__/__/mesh/core/src/transport.c.obj
 .text.transport_packet_in
                0x0002fbe0      0x434 examples/beaconing/CMakeFiles/beaconing_nrf52840_xxAA_s140_6.0.0.dir/__/__/mesh/core/src/transport.c.obj
                0x0002fbe0                transport_packet_in
 .text.ack_timeout
                0x00030014       0x28 examples/beaconing/CMakeFiles/beaconing_nrf52840_xxAA_s140_6.0.0.dir/__/__/mesh/core/src/transport.c.obj
 .text.transport_opt_set
                0x0003003c       0xd0 examples/beaconing/CMakeFiles/beaconing_nrf52840_xxAA_s140_6.0.0.dir/__/__/mesh/core/src/transport.c.obj
                0x0003003c                transport_opt_set
 .text.transport_opt_get
                0x0003010c       0x68 examples/beaconing/CMakeFiles/beaconing_nrf52840_xxAA_s140_6.0.0.dir/__/__/mesh/core/src/transport.c.obj
                0x0003010c                transport_opt_get
 .text.transport_control_packet_consumer_add
                0x00030174       0x5c examples/beaconing/CMakeFiles/beaconing_nrf52840_xxAA_s140_6.0.0.dir/__/__/mesh/core/src/transport.c.obj
                0x00030174                transport_control_packet_consumer_add
 .text.event_handle
                0x000301d0       0x24 examples/beaconing/CMakeFiles/beaconing_nrf52840_xxAA_s140_6.0.0.dir/__/__/mesh/core/src/event.c.obj
                0x000301d0                event_handle
 .text.event_handler_add
                0x000301f4       0x1c examples/beaconing/CMakeFiles/beaconing_nrf52840_xxAA_s140_6.0.0.dir/__/__/mesh/core/src/event.c.obj
                0x000301f4                event_handler_add
 .text.event_handler_remove
                0x00030210       0x1c examples/beaconing/CMakeFiles/beaconing_nrf52840_xxAA_s140_6.0.0.dir/__/__/mesh/core/src/event.c.obj
                0x00030210                event_handler_remove
 .text.m_index_increment
                0x0003022c       0x1e examples/beaconing/CMakeFiles/beaconing_nrf52840_xxAA_s140_6.0.0.dir/__/__/mesh/core/src/packet_buffer.c.obj
 .text.packet_buffer_init
                0x0003024a       0xac examples/beaconing/CMakeFiles/beaconing_nrf52840_xxAA_s140_6.0.0.dir/__/__/mesh/core/src/packet_buffer.c.obj
                0x0003024a                packet_buffer_init
 .text.packet_buffer_flush
                0x000302f6       0x60 examples/beaconing/CMakeFiles/beaconing_nrf52840_xxAA_s140_6.0.0.dir/__/__/mesh/core/src/packet_buffer.c.obj
                0x000302f6                packet_buffer_flush
 .text.packet_buffer_reserve
                0x00030356       0x96 examples/beaconing/CMakeFiles/beaconing_nrf52840_xxAA_s140_6.0.0.dir/__/__/mesh/core/src/packet_buffer.c.obj
                0x00030356                packet_buffer_reserve
 .text.packet_buffer_commit
                0x000303ec       0x58 examples/beaconing/CMakeFiles/beaconing_nrf52840_xxAA_s140_6.0.0.dir/__/__/mesh/core/src/packet_buffer.c.obj
                0x000303ec                packet_buffer_commit
 .text.packet_buffer_pop
                0x00030444       0x3c examples/beaconing/CMakeFiles/beaconing_nrf52840_xxAA_s140_6.0.0.dir/__/__/mesh/core/src/packet_buffer.c.obj
                0x00030444                packet_buffer_pop
 .text.packet_buffer_can_pop
                0x00030480       0x1c examples/beaconing/CMakeFiles/beaconing_nrf52840_xxAA_s140_6.0.0.dir/__/__/mesh/core/src/packet_buffer.c.obj
                0x00030480                packet_buffer_can_pop
 .text.packet_buffer_packets_ready_to_pop
                0x0003049c       0x3a examples/beaconing/CMakeFiles/beaconing_nrf52840_xxAA_s140_6.0.0.dir/__/__/mesh/core/src/packet_buffer.c.obj
                0x0003049c                packet_buffer_packets_ready_to_pop
 .text.packet_buffer_free
                0x000304d6       0x6e examples/beaconing/CMakeFiles/beaconing_nrf52840_xxAA_s140_6.0.0.dir/__/__/mesh/core/src/packet_buffer.c.obj
                0x000304d6                packet_buffer_free
 .text.get_last_page
                0x00030544       0x14 examples/beaconing/CMakeFiles/beaconing_nrf52840_xxAA_s140_6.0.0.dir/__/__/mesh/core/src/flash_manager_defrag.c.obj
 .text.defrag_on_end
                0x00030558       0x1c examples/beaconing/CMakeFiles/beaconing_nrf52840_xxAA_s140_6.0.0.dir/__/__/mesh/core/src/flash_manager_defrag.c.obj
 .text.execute_procedure_step
                0x00030574       0x7c examples/beaconing/CMakeFiles/beaconing_nrf52840_xxAA_s140_6.0.0.dir/__/__/mesh/core/src/flash_manager_defrag.c.obj
 .text.get_next_entry
                0x000305f0       0x34 examples/beaconing/CMakeFiles/beaconing_nrf52840_xxAA_s140_6.0.0.dir/__/__/mesh/core/src/flash_manager_defrag.c.obj
 .text.get_next_data_entry
                0x00030624       0x26 examples/beaconing/CMakeFiles/beaconing_nrf52840_xxAA_s140_6.0.0.dir/__/__/mesh/core/src/flash_manager_defrag.c.obj
 *fill*         0x0003064a        0x2 
 .text.on_flash_op_end
                0x0003064c       0x30 examples/beaconing/CMakeFiles/beaconing_nrf52840_xxAA_s140_6.0.0.dir/__/__/mesh/core/src/flash_manager_defrag.c.obj
 .text.check_for_invalid_entries
                0x0003067c       0x38 examples/beaconing/CMakeFiles/beaconing_nrf52840_xxAA_s140_6.0.0.dir/__/__/mesh/core/src/flash_manager_defrag.c.obj
 .text.erase_recovery_area
                0x000306b4       0x34 examples/beaconing/CMakeFiles/beaconing_nrf52840_xxAA_s140_6.0.0.dir/__/__/mesh/core/src/flash_manager_defrag.c.obj
 .text.flash.constprop.6
                0x000306e8       0x24 examples/beaconing/CMakeFiles/beaconing_nrf52840_xxAA_s140_6.0.0.dir/__/__/mesh/core/src/flash_manager_defrag.c.obj
 .text.seal_storage_page
                0x0003070c       0x50 examples/beaconing/CMakeFiles/beaconing_nrf52840_xxAA_s140_6.0.0.dir/__/__/mesh/core/src/flash_manager_defrag.c.obj
 .text.invalidate_duplicate_entries
                0x0003075c       0x9c examples/beaconing/CMakeFiles/beaconing_nrf52840_xxAA_s140_6.0.0.dir/__/__/mesh/core/src/flash_manager_defrag.c.obj
 .text.copy_metadata
                0x000307f8       0x3c examples/beaconing/CMakeFiles/beaconing_nrf52840_xxAA_s140_6.0.0.dir/__/__/mesh/core/src/flash_manager_defrag.c.obj
 .text.write_defrag_start_pointer
                0x00030834       0x20 examples/beaconing/CMakeFiles/beaconing_nrf52840_xxAA_s140_6.0.0.dir/__/__/mesh/core/src/flash_manager_defrag.c.obj
 .text.write_back
                0x00030854       0x28 examples/beaconing/CMakeFiles/beaconing_nrf52840_xxAA_s140_6.0.0.dir/__/__/mesh/core/src/flash_manager_defrag.c.obj
 .text.post_process
                0x0003087c       0x40 examples/beaconing/CMakeFiles/beaconing_nrf52840_xxAA_s140_6.0.0.dir/__/__/mesh/core/src/flash_manager_defrag.c.obj
 .text.backup_entries
                0x000308bc       0xf8 examples/beaconing/CMakeFiles/beaconing_nrf52840_xxAA_s140_6.0.0.dir/__/__/mesh/core/src/flash_manager_defrag.c.obj
 .text.erase_source
                0x000309b4       0x34 examples/beaconing/CMakeFiles/beaconing_nrf52840_xxAA_s140_6.0.0.dir/__/__/mesh/core/src/flash_manager_defrag.c.obj
 .text.flash_manager_defrag_init
                0x000309e8       0x8c examples/beaconing/CMakeFiles/beaconing_nrf52840_xxAA_s140_6.0.0.dir/__/__/mesh/core/src/flash_manager_defrag.c.obj
                0x000309e8                flash_manager_defrag_init
 .text.flash_manager_defrag_is_running
                0x00030a74       0x10 examples/beaconing/CMakeFiles/beaconing_nrf52840_xxAA_s140_6.0.0.dir/__/__/mesh/core/src/flash_manager_defrag.c.obj
                0x00030a74                flash_manager_defrag_is_running
 .text.flash_manager_defrag
                0x00030a84       0x44 examples/beaconing/CMakeFiles/beaconing_nrf52840_xxAA_s140_6.0.0.dir/__/__/mesh/core/src/flash_manager_defrag.c.obj
                0x00030a84                flash_manager_defrag
 .text.flash_manager_defrag_recovery_page_get
                0x00030ac8        0xc examples/beaconing/CMakeFiles/beaconing_nrf52840_xxAA_s140_6.0.0.dir/__/__/mesh/core/src/flash_manager_defrag.c.obj
                0x00030ac8                flash_manager_defrag_recovery_page_get
 .text.fifo_init
                0x00030ad4       0x34 examples/beaconing/CMakeFiles/beaconing_nrf52840_xxAA_s140_6.0.0.dir/__/__/mesh/core/src/fifo.c.obj
                0x00030ad4                fifo_init
 .text.fifo_push
                0x00030b08       0x50 examples/beaconing/CMakeFiles/beaconing_nrf52840_xxAA_s140_6.0.0.dir/__/__/mesh/core/src/fifo.c.obj
                0x00030b08                fifo_push
 .text.fifo_pop
                0x00030b58       0x52 examples/beaconing/CMakeFiles/beaconing_nrf52840_xxAA_s140_6.0.0.dir/__/__/mesh/core/src/fifo.c.obj
                0x00030b58                fifo_pop
 *fill*         0x00030baa        0x2 
 .text.wait_for_ready
                0x00030bac       0x10 examples/beaconing/CMakeFiles/beaconing_nrf52840_xxAA_s140_6.0.0.dir/__/__/mesh/core/src/nrf_flash.c.obj
 .text.nrf_flash_erase
                0x00030bbc       0x50 examples/beaconing/CMakeFiles/beaconing_nrf52840_xxAA_s140_6.0.0.dir/__/__/mesh/core/src/nrf_flash.c.obj
                0x00030bbc                nrf_flash_erase
 .text.nrf_flash_write
                0x00030c0c       0x50 examples/beaconing/CMakeFiles/beaconing_nrf52840_xxAA_s140_6.0.0.dir/__/__/mesh/core/src/nrf_flash.c.obj
                0x00030c0c                nrf_flash_write
 .text.packet_mgr_init
                0x00030c5c       0x4c examples/beaconing/CMakeFiles/beaconing_nrf52840_xxAA_s140_6.0.0.dir/__/__/mesh/core/src/packet_mgr.c.obj
                0x00030c5c                packet_mgr_init
 .text.flash_store_iv_index
                0x00030ca8       0x38 examples/beaconing/CMakeFiles/beaconing_nrf52840_xxAA_s140_6.0.0.dir/__/__/mesh/core/src/net_state.c.obj
 .text.flash_mem_available
                0x00030ce0       0x14 examples/beaconing/CMakeFiles/beaconing_nrf52840_xxAA_s140_6.0.0.dir/__/__/mesh/core/src/net_state.c.obj
 .text.seqnum_block_allocate
                0x00030cf4       0x4c examples/beaconing/CMakeFiles/beaconing_nrf52840_xxAA_s140_6.0.0.dir/__/__/mesh/core/src/net_state.c.obj
 .text.net_state_reset
                0x00030d40       0x3c examples/beaconing/CMakeFiles/beaconing_nrf52840_xxAA_s140_6.0.0.dir/__/__/mesh/core/src/net_state.c.obj
                0x00030d40                net_state_reset
 .text.flash_write_complete
                0x00030d7c       0x64 examples/beaconing/CMakeFiles/beaconing_nrf52840_xxAA_s140_6.0.0.dir/__/__/mesh/core/src/net_state.c.obj
 .text.net_state_recover_from_flash
                0x00030de0       0x8c examples/beaconing/CMakeFiles/beaconing_nrf52840_xxAA_s140_6.0.0.dir/__/__/mesh/core/src/net_state.c.obj
                0x00030de0                net_state_recover_from_flash
 .text.net_state_flash_area_get
                0x00030e6c        0xc examples/beaconing/CMakeFiles/beaconing_nrf52840_xxAA_s140_6.0.0.dir/__/__/mesh/core/src/net_state.c.obj
                0x00030e6c                net_state_flash_area_get
 .text.init_flash_storage
                0x00030e78       0x40 examples/beaconing/CMakeFiles/beaconing_nrf52840_xxAA_s140_6.0.0.dir/__/__/mesh/core/src/net_state.c.obj
 .text.net_state_init
                0x00030eb8       0x5c examples/beaconing/CMakeFiles/beaconing_nrf52840_xxAA_s140_6.0.0.dir/__/__/mesh/core/src/net_state.c.obj
                0x00030eb8                net_state_init
 .text.net_state_iv_update_start
                0x00030f14       0x68 examples/beaconing/CMakeFiles/beaconing_nrf52840_xxAA_s140_6.0.0.dir/__/__/mesh/core/src/net_state.c.obj
                0x00030f14                net_state_iv_update_start
 .text.iv_update_trigger_if_pending
                0x00030f7c       0x80 examples/beaconing/CMakeFiles/beaconing_nrf52840_xxAA_s140_6.0.0.dir/__/__/mesh/core/src/net_state.c.obj
 .text.mesh_evt_handler
                0x00030ffc       0xa0 examples/beaconing/CMakeFiles/beaconing_nrf52840_xxAA_s140_6.0.0.dir/__/__/mesh/core/src/net_state.c.obj
 .text.iv_update_timer_handler
                0x0003109c       0x68 examples/beaconing/CMakeFiles/beaconing_nrf52840_xxAA_s140_6.0.0.dir/__/__/mesh/core/src/net_state.c.obj
 .text.net_state_seqnum_alloc
                0x00031104       0x68 examples/beaconing/CMakeFiles/beaconing_nrf52840_xxAA_s140_6.0.0.dir/__/__/mesh/core/src/net_state.c.obj
                0x00031104                net_state_seqnum_alloc
 .text.net_state_iv_index_lock
                0x0003116c       0x3c examples/beaconing/CMakeFiles/beaconing_nrf52840_xxAA_s140_6.0.0.dir/__/__/mesh/core/src/net_state.c.obj
                0x0003116c                net_state_iv_index_lock
 .text.net_state_key_refresh_phase_changed
                0x000311a8       0x20 examples/beaconing/CMakeFiles/beaconing_nrf52840_xxAA_s140_6.0.0.dir/__/__/mesh/core/src/net_state.c.obj
                0x000311a8                net_state_key_refresh_phase_changed
 .text.net_state_beacon_iv_index_get
                0x000311c8        0xc examples/beaconing/CMakeFiles/beaconing_nrf52840_xxAA_s140_6.0.0.dir/__/__/mesh/core/src/net_state.c.obj
                0x000311c8                net_state_beacon_iv_index_get
 .text.net_state_tx_iv_index_get
                0x000311d4       0x14 examples/beaconing/CMakeFiles/beaconing_nrf52840_xxAA_s140_6.0.0.dir/__/__/mesh/core/src/net_state.c.obj
                0x000311d4                net_state_tx_iv_index_get
 .text.net_state_rx_iv_index_get
                0x000311e8       0x18 examples/beaconing/CMakeFiles/beaconing_nrf52840_xxAA_s140_6.0.0.dir/__/__/mesh/core/src/net_state.c.obj
                0x000311e8                net_state_rx_iv_index_get
 .text.net_state_iv_update_get
                0x00031200        0xc examples/beaconing/CMakeFiles/beaconing_nrf52840_xxAA_s140_6.0.0.dir/__/__/mesh/core/src/net_state.c.obj
                0x00031200                net_state_iv_update_get
 .text.net_state_iv_index_set
                0x0003120c       0x30 examples/beaconing/CMakeFiles/beaconing_nrf52840_xxAA_s140_6.0.0.dir/__/__/mesh/core/src/net_state.c.obj
                0x0003120c                net_state_iv_index_set
 .text.send_end_events
                0x0003123c       0x84 examples/beaconing/CMakeFiles/beaconing_nrf52840_xxAA_s140_6.0.0.dir/__/__/mesh/core/src/mesh_flash.c.obj
 .text.flash_op_schedule
                0x000312c0       0x88 examples/beaconing/CMakeFiles/beaconing_nrf52840_xxAA_s140_6.0.0.dir/__/__/mesh/core/src/mesh_flash.c.obj
 .text.flash_op_start
                0x00031348      0x13c examples/beaconing/CMakeFiles/beaconing_nrf52840_xxAA_s140_6.0.0.dir/__/__/mesh/core/src/mesh_flash.c.obj
 .text.mesh_flash_init
                0x00031484       0x88 examples/beaconing/CMakeFiles/beaconing_nrf52840_xxAA_s140_6.0.0.dir/__/__/mesh/core/src/mesh_flash.c.obj
                0x00031484                mesh_flash_init
 .text.mesh_flash_user_callback_set
                0x0003150c       0x20 examples/beaconing/CMakeFiles/beaconing_nrf52840_xxAA_s140_6.0.0.dir/__/__/mesh/core/src/mesh_flash.c.obj
                0x0003150c                mesh_flash_user_callback_set
 .text.mesh_flash_op_push
                0x0003152c       0xe4 examples/beaconing/CMakeFiles/beaconing_nrf52840_xxAA_s140_6.0.0.dir/__/__/mesh/core/src/mesh_flash.c.obj
                0x0003152c                mesh_flash_op_push
 .text.nrf_mesh_address_type_get
                0x00031610       0x10 examples/beaconing/CMakeFiles/beaconing_nrf52840_xxAA_s140_6.0.0.dir/__/__/mesh/core/src/nrf_mesh_utils.c.obj
                0x00031610                nrf_mesh_address_type_get
 .text.sd_softdevice_is_enabled
                0x00031620        0x4 examples/beaconing/CMakeFiles/beaconing_nrf52840_xxAA_s140_6.0.0.dir/__/__/mesh/core/src/nrf_mesh.c.obj
 .text.nrf_mesh_listen
                0x00031624      0x138 examples/beaconing/CMakeFiles/beaconing_nrf52840_xxAA_s140_6.0.0.dir/__/__/mesh/core/src/nrf_mesh.c.obj
 .text.flash_stable_cb
                0x0003175c       0x20 examples/beaconing/CMakeFiles/beaconing_nrf52840_xxAA_s140_6.0.0.dir/__/__/mesh/core/src/nrf_mesh.c.obj
 .text.scanner_packet_process_cb
                0x0003177c       0x8c examples/beaconing/CMakeFiles/beaconing_nrf52840_xxAA_s140_6.0.0.dir/__/__/mesh/core/src/nrf_mesh.c.obj
 .text.nrf_mesh_init
                0x00031808       0xd8 examples/beaconing/CMakeFiles/beaconing_nrf52840_xxAA_s140_6.0.0.dir/__/__/mesh/core/src/nrf_mesh.c.obj
                0x00031808                nrf_mesh_init
 .text.nrf_mesh_enable
                0x000318e0       0x3c examples/beaconing/CMakeFiles/beaconing_nrf52840_xxAA_s140_6.0.0.dir/__/__/mesh/core/src/nrf_mesh.c.obj
                0x000318e0                nrf_mesh_enable
 .text.nrf_mesh_packet_send
                0x0003191c       0x7c examples/beaconing/CMakeFiles/beaconing_nrf52840_xxAA_s140_6.0.0.dir/__/__/mesh/core/src/nrf_mesh.c.obj
                0x0003191c                nrf_mesh_packet_send
 .text.nrf_mesh_evt_handler_add
                0x00031998        0x4 examples/beaconing/CMakeFiles/beaconing_nrf52840_xxAA_s140_6.0.0.dir/__/__/mesh/core/src/nrf_mesh.c.obj
                0x00031998                nrf_mesh_evt_handler_add
 .text.nrf_mesh_on_sd_evt
                0x0003199c        0xa examples/beaconing/CMakeFiles/beaconing_nrf52840_xxAA_s140_6.0.0.dir/__/__/mesh/core/src/nrf_mesh.c.obj
                0x0003199c                nrf_mesh_on_sd_evt
 *fill*         0x000319a6        0x2 
 .text.nrf_mesh_rx_cb_set
                0x000319a8        0xc examples/beaconing/CMakeFiles/beaconing_nrf52840_xxAA_s140_6.0.0.dir/__/__/mesh/core/src/nrf_mesh.c.obj
                0x000319a8                nrf_mesh_rx_cb_set
 .text.nrf_mesh_subnet_added
                0x000319b4        0x2 examples/beaconing/CMakeFiles/beaconing_nrf52840_xxAA_s140_6.0.0.dir/__/__/mesh/core/src/nrf_mesh.c.obj
                0x000319b4                nrf_mesh_subnet_added
 .text.queue_init
                0x000319b6       0x14 examples/beaconing/CMakeFiles/beaconing_nrf52840_xxAA_s140_6.0.0.dir/__/__/mesh/core/src/queue.c.obj
                0x000319b6                queue_init
 .text.queue_push
                0x000319ca       0x34 examples/beaconing/CMakeFiles/beaconing_nrf52840_xxAA_s140_6.0.0.dir/__/__/mesh/core/src/queue.c.obj
                0x000319ca                queue_push
 .text.queue_pop
                0x000319fe       0x26 examples/beaconing/CMakeFiles/beaconing_nrf52840_xxAA_s140_6.0.0.dir/__/__/mesh/core/src/queue.c.obj
                0x000319fe                queue_pop
 .text.queue_peek
                0x00031a24       0x10 examples/beaconing/CMakeFiles/beaconing_nrf52840_xxAA_s140_6.0.0.dir/__/__/mesh/core/src/queue.c.obj
                0x00031a24                queue_peek
 .text.sd_power_reset_reason_clr
                0x00031a34        0x4 examples/beaconing/CMakeFiles/beaconing_nrf52840_xxAA_s140_6.0.0.dir/__/__/mesh/core/src/hal.c.obj
 .text.hal_device_reset
                0x00031a38       0x2c examples/beaconing/CMakeFiles/beaconing_nrf52840_xxAA_s140_6.0.0.dir/__/__/mesh/core/src/hal.c.obj
                0x00031a38                hal_device_reset
 .text.hal_lfclk_ppm_get
                0x00031a64       0x14 examples/beaconing/CMakeFiles/beaconing_nrf52840_xxAA_s140_6.0.0.dir/__/__/mesh/core/src/hal.c.obj
                0x00031a64                hal_lfclk_ppm_get
 .text.my_xor.constprop.1
                0x00031a78       0x20 examples/beaconing/CMakeFiles/beaconing_nrf52840_xxAA_s140_6.0.0.dir/__/__/mesh/core/src/aes_cmac.c.obj
 .text.utils_lshift.constprop.2
                0x00031a98       0x24 examples/beaconing/CMakeFiles/beaconing_nrf52840_xxAA_s140_6.0.0.dir/__/__/mesh/core/src/aes_cmac.c.obj
 .text.aes_cmac_subkey_generate
                0x00031abc       0x6c examples/beaconing/CMakeFiles/beaconing_nrf52840_xxAA_s140_6.0.0.dir/__/__/mesh/core/src/aes_cmac.c.obj
                0x00031abc                aes_cmac_subkey_generate
 .text.aes_cmac
                0x00031b28       0xbc examples/beaconing/CMakeFiles/beaconing_nrf52840_xxAA_s140_6.0.0.dir/__/__/mesh/core/src/aes_cmac.c.obj
                0x00031b28                aes_cmac
 .text.add_to_add_list
                0x00031be4       0x30 examples/beaconing/CMakeFiles/beaconing_nrf52840_xxAA_s140_6.0.0.dir/__/__/mesh/core/src/timer_scheduler.c.obj
 .text.process_dirty_events
                0x00031c14       0x5c examples/beaconing/CMakeFiles/beaconing_nrf52840_xxAA_s140_6.0.0.dir/__/__/mesh/core/src/timer_scheduler.c.obj
 .text.timer_cb
                0x00031c70        0xc examples/beaconing/CMakeFiles/beaconing_nrf52840_xxAA_s140_6.0.0.dir/__/__/mesh/core/src/timer_scheduler.c.obj
 .text.add_evt.constprop.1
                0x00031c7c       0x58 examples/beaconing/CMakeFiles/beaconing_nrf52840_xxAA_s140_6.0.0.dir/__/__/mesh/core/src/timer_scheduler.c.obj
 .text.process_add_list
                0x00031cd4       0x3c examples/beaconing/CMakeFiles/beaconing_nrf52840_xxAA_s140_6.0.0.dir/__/__/mesh/core/src/timer_scheduler.c.obj
 .text.flag_event_cb
                0x00031d10       0xd8 examples/beaconing/CMakeFiles/beaconing_nrf52840_xxAA_s140_6.0.0.dir/__/__/mesh/core/src/timer_scheduler.c.obj
 .text.timer_sch_init
                0x00031de8       0x24 examples/beaconing/CMakeFiles/beaconing_nrf52840_xxAA_s140_6.0.0.dir/__/__/mesh/core/src/timer_scheduler.c.obj
                0x00031de8                timer_sch_init
 .text.timer_sch_schedule
                0x00031e0c       0x3c examples/beaconing/CMakeFiles/beaconing_nrf52840_xxAA_s140_6.0.0.dir/__/__/mesh/core/src/timer_scheduler.c.obj
                0x00031e0c                timer_sch_schedule
 .text.timer_sch_abort
                0x00031e48       0x58 examples/beaconing/CMakeFiles/beaconing_nrf52840_xxAA_s140_6.0.0.dir/__/__/mesh/core/src/timer_scheduler.c.obj
                0x00031e48                timer_sch_abort
 .text.timer_sch_reschedule
                0x00031ea0       0x64 examples/beaconing/CMakeFiles/beaconing_nrf52840_xxAA_s140_6.0.0.dir/__/__/mesh/core/src/timer_scheduler.c.obj
                0x00031ea0                timer_sch_reschedule
 .text.timer_mut_unlock
                0x00031f04       0x10 examples/beaconing/CMakeFiles/beaconing_nrf52840_xxAA_s140_6.0.0.dir/__/__/mesh/core/src/timer.c.obj
 .text.timer_order_cb
                0x00031f14       0x94 examples/beaconing/CMakeFiles/beaconing_nrf52840_xxAA_s140_6.0.0.dir/__/__/mesh/core/src/timer.c.obj
                0x00031f14                timer_order_cb
 .text.timer_now
                0x00031fa8       0x48 examples/beaconing/CMakeFiles/beaconing_nrf52840_xxAA_s140_6.0.0.dir/__/__/mesh/core/src/timer.c.obj
                0x00031fa8                timer_now
 .text.timer_event_handler
                0x00031ff0       0x84 examples/beaconing/CMakeFiles/beaconing_nrf52840_xxAA_s140_6.0.0.dir/__/__/mesh/core/src/timer.c.obj
                0x00031ff0                timer_event_handler
 .text.timer_on_ts_begin
                0x00032074       0xf4 examples/beaconing/CMakeFiles/beaconing_nrf52840_xxAA_s140_6.0.0.dir/__/__/mesh/core/src/timer.c.obj
                0x00032074                timer_on_ts_begin
 .text.timer_on_ts_end
                0x00032168       0x60 examples/beaconing/CMakeFiles/beaconing_nrf52840_xxAA_s140_6.0.0.dir/__/__/mesh/core/src/timer.c.obj
                0x00032168                timer_on_ts_end
 .text.timer_cb
                0x000321c8       0x10 examples/beaconing/CMakeFiles/beaconing_nrf52840_xxAA_s140_6.0.0.dir/__/__/mesh/core/src/ticker.c.obj
 .text.ticker_init
                0x000321d8       0x3c examples/beaconing/CMakeFiles/beaconing_nrf52840_xxAA_s140_6.0.0.dir/__/__/mesh/core/src/ticker.c.obj
                0x000321d8                ticker_init
 .text.sd_rand_application_bytes_available_get
                0x00032214        0x4 examples/beaconing/CMakeFiles/beaconing_nrf52840_xxAA_s140_6.0.0.dir/__/__/mesh/core/src/rand.c.obj
 .text.sd_rand_application_vector_get
                0x00032218        0x4 examples/beaconing/CMakeFiles/beaconing_nrf52840_xxAA_s140_6.0.0.dir/__/__/mesh/core/src/rand.c.obj
 .text.rand_prng_get
                0x0003221c       0x22 examples/beaconing/CMakeFiles/beaconing_nrf52840_xxAA_s140_6.0.0.dir/__/__/mesh/core/src/rand.c.obj
                0x0003221c                rand_prng_get
 .text.rand_hw_rng_get
                0x0003223e       0x44 examples/beaconing/CMakeFiles/beaconing_nrf52840_xxAA_s140_6.0.0.dir/__/__/mesh/core/src/rand.c.obj
                0x0003223e                rand_hw_rng_get
 *fill*         0x00032282        0x2 
 .text.rand_prng_seed
                0x00032284       0x34 examples/beaconing/CMakeFiles/beaconing_nrf52840_xxAA_s140_6.0.0.dir/__/__/mesh/core/src/rand.c.obj
                0x00032284                rand_prng_seed
 .text.nrf_mesh_opt_set
                0x000322b8       0x26 examples/beaconing/CMakeFiles/beaconing_nrf52840_xxAA_s140_6.0.0.dir/__/__/mesh/core/src/nrf_mesh_opt.c.obj
                0x000322b8                nrf_mesh_opt_set
 .text.nrf_mesh_opt_get
                0x000322de       0x26 examples/beaconing/CMakeFiles/beaconing_nrf52840_xxAA_s140_6.0.0.dir/__/__/mesh/core/src/nrf_mesh_opt.c.obj
                0x000322de                nrf_mesh_opt_get
 .text.sd_radio_session_open
                0x00032304        0x4 examples/beaconing/CMakeFiles/beaconing_nrf52840_xxAA_s140_6.0.0.dir/__/__/mesh/core/src/timeslot.c.obj
 .text.sd_radio_session_close
                0x00032308        0x4 examples/beaconing/CMakeFiles/beaconing_nrf52840_xxAA_s140_6.0.0.dir/__/__/mesh/core/src/timeslot.c.obj
 .text.sd_radio_request
                0x0003230c        0x4 examples/beaconing/CMakeFiles/beaconing_nrf52840_xxAA_s140_6.0.0.dir/__/__/mesh/core/src/timeslot.c.obj
 .text.end_timer_handler
                0x00032310       0x24 examples/beaconing/CMakeFiles/beaconing_nrf52840_xxAA_s140_6.0.0.dir/__/__/mesh/core/src/timeslot.c.obj
 .text.get_end_time.constprop.10
                0x00032334       0x28 examples/beaconing/CMakeFiles/beaconing_nrf52840_xxAA_s140_6.0.0.dir/__/__/mesh/core/src/timeslot.c.obj
 .text.handle_extend_end.constprop.3
                0x0003235c       0xb4 examples/beaconing/CMakeFiles/beaconing_nrf52840_xxAA_s140_6.0.0.dir/__/__/mesh/core/src/timeslot.c.obj
 .text.radio_signal_callback
                0x00032410      0x138 examples/beaconing/CMakeFiles/beaconing_nrf52840_xxAA_s140_6.0.0.dir/__/__/mesh/core/src/timeslot.c.obj
 .text.timeslot_sd_event_handler
                0x00032548       0x38 examples/beaconing/CMakeFiles/beaconing_nrf52840_xxAA_s140_6.0.0.dir/__/__/mesh/core/src/timeslot.c.obj
                0x00032548                timeslot_sd_event_handler
 .text.timeslot_init
                0x00032580       0x48 examples/beaconing/CMakeFiles/beaconing_nrf52840_xxAA_s140_6.0.0.dir/__/__/mesh/core/src/timeslot.c.obj
                0x00032580                timeslot_init
 .text.timeslot_start
                0x000325c8       0x20 examples/beaconing/CMakeFiles/beaconing_nrf52840_xxAA_s140_6.0.0.dir/__/__/mesh/core/src/timeslot.c.obj
                0x000325c8                timeslot_start
 .text.timeslot_end_is_pending
                0x000325e8       0x24 examples/beaconing/CMakeFiles/beaconing_nrf52840_xxAA_s140_6.0.0.dir/__/__/mesh/core/src/timeslot.c.obj
                0x000325e8                timeslot_end_is_pending
 .text.timeslot_start_time_get
                0x0003260c        0xc examples/beaconing/CMakeFiles/beaconing_nrf52840_xxAA_s140_6.0.0.dir/__/__/mesh/core/src/timeslot.c.obj
                0x0003260c                timeslot_start_time_get
 .text.timeslot_remaining_time_get
                0x00032618       0x20 examples/beaconing/CMakeFiles/beaconing_nrf52840_xxAA_s140_6.0.0.dir/__/__/mesh/core/src/timeslot.c.obj
                0x00032618                timeslot_remaining_time_get
 .text.timeslot_is_in_cb
                0x00032638        0xc examples/beaconing/CMakeFiles/beaconing_nrf52840_xxAA_s140_6.0.0.dir/__/__/mesh/core/src/timeslot.c.obj
                0x00032638                timeslot_is_in_cb
 .text.timeslot_trigger
                0x00032644       0x24 examples/beaconing/CMakeFiles/beaconing_nrf52840_xxAA_s140_6.0.0.dir/__/__/mesh/core/src/timeslot.c.obj
                0x00032644                timeslot_trigger
 .text.timeslot_stop
                0x00032668       0x10 examples/beaconing/CMakeFiles/beaconing_nrf52840_xxAA_s140_6.0.0.dir/__/__/mesh/core/src/timeslot.c.obj
                0x00032668                timeslot_stop
 .text.timeslot_state_lock
                0x00032678       0x28 examples/beaconing/CMakeFiles/beaconing_nrf52840_xxAA_s140_6.0.0.dir/__/__/mesh/core/src/timeslot.c.obj
                0x00032678                timeslot_state_lock
 .text.trigger_event_handler
                0x000326a0       0x1c examples/beaconing/CMakeFiles/beaconing_nrf52840_xxAA_s140_6.0.0.dir/__/__/mesh/core/src/bearer_event.c.obj
 .text.evt_push
                0x000326bc       0x1c examples/beaconing/CMakeFiles/beaconing_nrf52840_xxAA_s140_6.0.0.dir/__/__/mesh/core/src/bearer_event.c.obj
 .text.bearer_event_init
                0x000326d8       0x48 examples/beaconing/CMakeFiles/beaconing_nrf52840_xxAA_s140_6.0.0.dir/__/__/mesh/core/src/bearer_event.c.obj
                0x000326d8                bearer_event_init
 .text.bearer_event_timer_post
                0x00032720       0x24 examples/beaconing/CMakeFiles/beaconing_nrf52840_xxAA_s140_6.0.0.dir/__/__/mesh/core/src/bearer_event.c.obj
                0x00032720                bearer_event_timer_post
 .text.bearer_event_critical_section_begin
                0x00032744       0x44 examples/beaconing/CMakeFiles/beaconing_nrf52840_xxAA_s140_6.0.0.dir/__/__/mesh/core/src/bearer_event.c.obj
                0x00032744                bearer_event_critical_section_begin
 .text.bearer_event_critical_section_end
                0x00032788       0x40 examples/beaconing/CMakeFiles/beaconing_nrf52840_xxAA_s140_6.0.0.dir/__/__/mesh/core/src/bearer_event.c.obj
                0x00032788                bearer_event_critical_section_end
 .text.bearer_event_flag_add
                0x000327c8       0x3c examples/beaconing/CMakeFiles/beaconing_nrf52840_xxAA_s140_6.0.0.dir/__/__/mesh/core/src/bearer_event.c.obj
                0x000327c8                bearer_event_flag_add
 .text.bearer_event_flag_set
                0x00032804       0x44 examples/beaconing/CMakeFiles/beaconing_nrf52840_xxAA_s140_6.0.0.dir/__/__/mesh/core/src/bearer_event.c.obj
                0x00032804                bearer_event_flag_set
 .text.bearer_event_sequential_add
                0x00032848       0x2e examples/beaconing/CMakeFiles/beaconing_nrf52840_xxAA_s140_6.0.0.dir/__/__/mesh/core/src/bearer_event.c.obj
                0x00032848                bearer_event_sequential_add
 *fill*         0x00032876        0x2 
 .text.bearer_event_sequential_post
                0x00032878       0x44 examples/beaconing/CMakeFiles/beaconing_nrf52840_xxAA_s140_6.0.0.dir/__/__/mesh/core/src/bearer_event.c.obj
                0x00032878                bearer_event_sequential_post
 .text.bearer_event_sequential_pending
                0x000328bc       0x10 examples/beaconing/CMakeFiles/beaconing_nrf52840_xxAA_s140_6.0.0.dir/__/__/mesh/core/src/bearer_event.c.obj
                0x000328bc                bearer_event_sequential_pending
 .text.bearer_event_handler
                0x000328cc       0xe8 examples/beaconing/CMakeFiles/beaconing_nrf52840_xxAA_s140_6.0.0.dir/__/__/mesh/core/src/bearer_event.c.obj
                0x000328cc                bearer_event_handler
 .text.QDEC_IRQHandler
                0x000329b4        0x4 examples/beaconing/CMakeFiles/beaconing_nrf52840_xxAA_s140_6.0.0.dir/__/__/mesh/core/src/bearer_event.c.obj
                0x000329b4                QDEC_IRQHandler
 .text.enc_aes_encrypt
                0x000329b8        0x4 examples/beaconing/CMakeFiles/beaconing_nrf52840_xxAA_s140_6.0.0.dir/__/__/mesh/core/src/enc.c.obj
                0x000329b8                enc_aes_encrypt
 .text.enc_aes_cmac
                0x000329bc        0x4 examples/beaconing/CMakeFiles/beaconing_nrf52840_xxAA_s140_6.0.0.dir/__/__/mesh/core/src/enc.c.obj
                0x000329bc                enc_aes_cmac
 .text.enc_aes_ccm_encrypt
                0x000329c0        0x4 examples/beaconing/CMakeFiles/beaconing_nrf52840_xxAA_s140_6.0.0.dir/__/__/mesh/core/src/enc.c.obj
                0x000329c0                enc_aes_ccm_encrypt
 .text.enc_aes_ccm_decrypt
                0x000329c4        0x4 examples/beaconing/CMakeFiles/beaconing_nrf52840_xxAA_s140_6.0.0.dir/__/__/mesh/core/src/enc.c.obj
                0x000329c4                enc_aes_ccm_decrypt
 .text.enc_nonce_generate
                0x000329c8       0xbc examples/beaconing/CMakeFiles/beaconing_nrf52840_xxAA_s140_6.0.0.dir/__/__/mesh/core/src/enc.c.obj
                0x000329c8                enc_nonce_generate
 .text.enc_s1   0x00032a84       0x2c examples/beaconing/CMakeFiles/beaconing_nrf52840_xxAA_s140_6.0.0.dir/__/__/mesh/core/src/enc.c.obj
                0x00032a84                enc_s1
 .text.enc_k1   0x00032ab0       0x3c examples/beaconing/CMakeFiles/beaconing_nrf52840_xxAA_s140_6.0.0.dir/__/__/mesh/core/src/enc.c.obj
                0x00032ab0                enc_k1
 .text.enc_k2   0x00032aec       0xc8 examples/beaconing/CMakeFiles/beaconing_nrf52840_xxAA_s140_6.0.0.dir/__/__/mesh/core/src/enc.c.obj
                0x00032aec                enc_k2
 .text.enc_k3   0x00032bb4       0x5c examples/beaconing/CMakeFiles/beaconing_nrf52840_xxAA_s140_6.0.0.dir/__/__/mesh/core/src/enc.c.obj
                0x00032bb4                enc_k3
 .text.enc_k4   0x00032c10       0x54 examples/beaconing/CMakeFiles/beaconing_nrf52840_xxAA_s140_6.0.0.dir/__/__/mesh/core/src/enc.c.obj
                0x00032c10                enc_k4
 .text.allocate_packet
                0x00032c64       0x6a examples/beaconing/CMakeFiles/beaconing_nrf52840_xxAA_s140_6.0.0.dir/__/__/mesh/core/src/network.c.obj
 *fill*         0x00032cce        0x2 
 .text.network_init
                0x00032cd0       0x2c examples/beaconing/CMakeFiles/beaconing_nrf52840_xxAA_s140_6.0.0.dir/__/__/mesh/core/src/network.c.obj
                0x00032cd0                network_init
 .text.network_opt_set
                0x00032cfc       0x70 examples/beaconing/CMakeFiles/beaconing_nrf52840_xxAA_s140_6.0.0.dir/__/__/mesh/core/src/network.c.obj
                0x00032cfc                network_opt_set
 .text.network_opt_get
                0x00032d6c       0x4c examples/beaconing/CMakeFiles/beaconing_nrf52840_xxAA_s140_6.0.0.dir/__/__/mesh/core/src/network.c.obj
                0x00032d6c                network_opt_get
 .text.network_packet_alloc
                0x00032db8       0x30 examples/beaconing/CMakeFiles/beaconing_nrf52840_xxAA_s140_6.0.0.dir/__/__/mesh/core/src/network.c.obj
                0x00032db8                network_packet_alloc
 .text.network_packet_send
                0x00032de8       0x46 examples/beaconing/CMakeFiles/beaconing_nrf52840_xxAA_s140_6.0.0.dir/__/__/mesh/core/src/network.c.obj
                0x00032de8                network_packet_send
 *fill*         0x00032e2e        0x2 
 .text.network_packet_in
                0x00032e30      0x168 examples/beaconing/CMakeFiles/beaconing_nrf52840_xxAA_s140_6.0.0.dir/__/__/mesh/core/src/network.c.obj
                0x00032e30                network_packet_in
 .text.nonce_type_get
                0x00032f98       0x16 examples/beaconing/CMakeFiles/beaconing_nrf52840_xxAA_s140_6.0.0.dir/__/__/mesh/core/src/net_packet.c.obj
 .text.header_transfuscate
                0x00032fae       0x54 examples/beaconing/CMakeFiles/beaconing_nrf52840_xxAA_s140_6.0.0.dir/__/__/mesh/core/src/net_packet.c.obj
 *fill*         0x00033002        0x2 
 .text.net_packet_decrypt
                0x00033004      0x224 examples/beaconing/CMakeFiles/beaconing_nrf52840_xxAA_s140_6.0.0.dir/__/__/mesh/core/src/net_packet.c.obj
                0x00033004                net_packet_decrypt
 .text.net_packet_encrypt
                0x00033228       0x7e examples/beaconing/CMakeFiles/beaconing_nrf52840_xxAA_s140_6.0.0.dir/__/__/mesh/core/src/net_packet.c.obj
                0x00033228                net_packet_encrypt
 .text.net_packet_header_set
                0x000332a6       0xaa examples/beaconing/CMakeFiles/beaconing_nrf52840_xxAA_s140_6.0.0.dir/__/__/mesh/core/src/net_packet.c.obj
                0x000332a6                net_packet_header_set
 .text.net_packet_payload_len_get
                0x00033350       0x10 examples/beaconing/CMakeFiles/beaconing_nrf52840_xxAA_s140_6.0.0.dir/__/__/mesh/core/src/net_packet.c.obj
                0x00033350                net_packet_payload_len_get
 .text.net_packet_from_payload
                0x00033360        0x4 examples/beaconing/CMakeFiles/beaconing_nrf52840_xxAA_s140_6.0.0.dir/__/__/mesh/core/src/net_packet.c.obj
                0x00033360                net_packet_from_payload
 .text.net_packet_obfuscation_start_get
                0x00033364        0x4 examples/beaconing/CMakeFiles/beaconing_nrf52840_xxAA_s140_6.0.0.dir/__/__/mesh/core/src/net_packet.c.obj
                0x00033364                net_packet_obfuscation_start_get
 .text.stage_get_available
                0x00033368       0x24 examples/beaconing/CMakeFiles/beaconing_nrf52840_xxAA_s140_6.0.0.dir/__/__/mesh/core/src/msqueue.c.obj
 .text.msq_get  0x0003338c       0x38 examples/beaconing/CMakeFiles/beaconing_nrf52840_xxAA_s140_6.0.0.dir/__/__/mesh/core/src/msqueue.c.obj
                0x0003338c                msq_get
 .text.msq_move
                0x000333c4       0x2e examples/beaconing/CMakeFiles/beaconing_nrf52840_xxAA_s140_6.0.0.dir/__/__/mesh/core/src/msqueue.c.obj
                0x000333c4                msq_move
 .text.msq_reset
                0x000333f2       0x20 examples/beaconing/CMakeFiles/beaconing_nrf52840_xxAA_s140_6.0.0.dir/__/__/mesh/core/src/msqueue.c.obj
                0x000333f2                msq_reset
 .text.msq_init
                0x00033412       0x4a examples/beaconing/CMakeFiles/beaconing_nrf52840_xxAA_s140_6.0.0.dir/__/__/mesh/core/src/msqueue.c.obj
                0x00033412                msq_init
 .text.msq_available
                0x0003345c       0x26 examples/beaconing/CMakeFiles/beaconing_nrf52840_xxAA_s140_6.0.0.dir/__/__/mesh/core/src/msqueue.c.obj
                0x0003345c                msq_available
 .text.nrf_mesh_keygen_aid
                0x00033482       0x12 examples/beaconing/CMakeFiles/beaconing_nrf52840_xxAA_s140_6.0.0.dir/__/__/mesh/core/src/nrf_mesh_keygen.c.obj
                0x00033482                nrf_mesh_keygen_aid
 .text.nrf_mesh_keygen_network_secmat
                0x00033494       0x20 examples/beaconing/CMakeFiles/beaconing_nrf52840_xxAA_s140_6.0.0.dir/__/__/mesh/core/src/nrf_mesh_keygen.c.obj
                0x00033494                nrf_mesh_keygen_network_secmat
 .text.nrf_mesh_keygen_beacon_secmat
                0x000334b4       0x50 examples/beaconing/CMakeFiles/beaconing_nrf52840_xxAA_s140_6.0.0.dir/__/__/mesh/core/src/nrf_mesh_keygen.c.obj
                0x000334b4                nrf_mesh_keygen_beacon_secmat
 .text.nrf_mesh_keygen_virtual_address
                0x00033504       0x50 examples/beaconing/CMakeFiles/beaconing_nrf52840_xxAA_s140_6.0.0.dir/__/__/mesh/core/src/nrf_mesh_keygen.c.obj
                0x00033504                nrf_mesh_keygen_virtual_address
 .text.list_insert
                0x00033554       0x1c examples/beaconing/CMakeFiles/beaconing_nrf52840_xxAA_s140_6.0.0.dir/__/__/mesh/core/src/list.c.obj
 .text.list_add
                0x00033570       0x42 examples/beaconing/CMakeFiles/beaconing_nrf52840_xxAA_s140_6.0.0.dir/__/__/mesh/core/src/list.c.obj
                0x00033570                list_add
 .text.list_remove
                0x000335b2       0x3a examples/beaconing/CMakeFiles/beaconing_nrf52840_xxAA_s140_6.0.0.dir/__/__/mesh/core/src/list.c.obj
                0x000335b2                list_remove
 .text.list_compare_add
                0x000335ec       0x56 examples/beaconing/CMakeFiles/beaconing_nrf52840_xxAA_s140_6.0.0.dir/__/__/mesh/core/src/list.c.obj
                0x000335ec                list_compare_add
 *fill*         0x00033642        0x2 
 .text.log_callback_rtt
                0x00033644       0x2c examples/beaconing/CMakeFiles/beaconing_nrf52840_xxAA_s140_6.0.0.dir/__/__/mesh/core/src/log.c.obj
                0x00033644                log_callback_rtt
 .text.log_init
                0x00033670       0x1c examples/beaconing/CMakeFiles/beaconing_nrf52840_xxAA_s140_6.0.0.dir/__/__/mesh/core/src/log.c.obj
                0x00033670                log_init
 .text.log_vprintf
                0x0003368c       0x18 examples/beaconing/CMakeFiles/beaconing_nrf52840_xxAA_s140_6.0.0.dir/__/__/mesh/core/src/log.c.obj
                0x0003368c                log_vprintf
 .text.log_printf
                0x000336a4       0x18 examples/beaconing/CMakeFiles/beaconing_nrf52840_xxAA_s140_6.0.0.dir/__/__/mesh/core/src/log.c.obj
                0x000336a4                log_printf
 .text.get_area_end
                0x000336bc        0xc examples/beaconing/CMakeFiles/beaconing_nrf52840_xxAA_s140_6.0.0.dir/__/__/mesh/core/src/flash_manager.c.obj
 .text.handle_matches_filter
                0x000336c8       0x26 examples/beaconing/CMakeFiles/beaconing_nrf52840_xxAA_s140_6.0.0.dir/__/__/mesh/core/src/flash_manager.c.obj
 .text.flash_area_is_blank
                0x000336ee       0x34 examples/beaconing/CMakeFiles/beaconing_nrf52840_xxAA_s140_6.0.0.dir/__/__/mesh/core/src/flash_manager.c.obj
 *fill*         0x00033722        0x2 
 .text.get_packet_buffer
                0x00033724       0x20 examples/beaconing/CMakeFiles/beaconing_nrf52840_xxAA_s140_6.0.0.dir/__/__/mesh/core/src/flash_manager.c.obj
 .text.flash    0x00033744       0x1c examples/beaconing/CMakeFiles/beaconing_nrf52840_xxAA_s140_6.0.0.dir/__/__/mesh/core/src/flash_manager.c.obj
 .text.free_packet_buffer
                0x00033760       0x3c examples/beaconing/CMakeFiles/beaconing_nrf52840_xxAA_s140_6.0.0.dir/__/__/mesh/core/src/flash_manager.c.obj
 .text.reserve_action_buffer
                0x0003379c       0x24 examples/beaconing/CMakeFiles/beaconing_nrf52840_xxAA_s140_6.0.0.dir/__/__/mesh/core/src/flash_manager.c.obj
 .text.commit_action_buffer
                0x000337c0       0x18 examples/beaconing/CMakeFiles/beaconing_nrf52840_xxAA_s140_6.0.0.dir/__/__/mesh/core/src/flash_manager.c.obj
 .text.schedule_processing
                0x000337d8        0xc examples/beaconing/CMakeFiles/beaconing_nrf52840_xxAA_s140_6.0.0.dir/__/__/mesh/core/src/flash_manager.c.obj
 .text.get_next_entry
                0x000337e4       0x34 examples/beaconing/CMakeFiles/beaconing_nrf52840_xxAA_s140_6.0.0.dir/__/__/mesh/core/src/flash_manager.c.obj
 .text.get_last_entry.isra.1
                0x00033818       0x30 examples/beaconing/CMakeFiles/beaconing_nrf52840_xxAA_s140_6.0.0.dir/__/__/mesh/core/src/flash_manager.c.obj
 .text.process_action_queue
                0x00033848      0x3b0 examples/beaconing/CMakeFiles/beaconing_nrf52840_xxAA_s140_6.0.0.dir/__/__/mesh/core/src/flash_manager.c.obj
 .text.flash_op_ended_callback
                0x00033bf8       0x24 examples/beaconing/CMakeFiles/beaconing_nrf52840_xxAA_s140_6.0.0.dir/__/__/mesh/core/src/flash_manager.c.obj
 .text.flash_manager_init
                0x00033c1c       0x68 examples/beaconing/CMakeFiles/beaconing_nrf52840_xxAA_s140_6.0.0.dir/__/__/mesh/core/src/flash_manager.c.obj
                0x00033c1c                flash_manager_init
 .text.flash_manager_remove
                0x00033c84       0x24 examples/beaconing/CMakeFiles/beaconing_nrf52840_xxAA_s140_6.0.0.dir/__/__/mesh/core/src/flash_manager.c.obj
                0x00033c84                flash_manager_remove
 .text.flash_manager_entry_get
                0x00033ca8       0x3c examples/beaconing/CMakeFiles/beaconing_nrf52840_xxAA_s140_6.0.0.dir/__/__/mesh/core/src/flash_manager.c.obj
                0x00033ca8                flash_manager_entry_get
 .text.flash_manager_entry_next_get
                0x00033ce4       0x60 examples/beaconing/CMakeFiles/beaconing_nrf52840_xxAA_s140_6.0.0.dir/__/__/mesh/core/src/flash_manager.c.obj
                0x00033ce4                flash_manager_entry_next_get
 .text.flash_manager_entry_alloc
                0x00033d44       0x5c examples/beaconing/CMakeFiles/beaconing_nrf52840_xxAA_s140_6.0.0.dir/__/__/mesh/core/src/flash_manager.c.obj
                0x00033d44                flash_manager_entry_alloc
 .text.flash_manager_entry_commit
                0x00033da0       0x2c examples/beaconing/CMakeFiles/beaconing_nrf52840_xxAA_s140_6.0.0.dir/__/__/mesh/core/src/flash_manager.c.obj
                0x00033da0                flash_manager_entry_commit
 .text.flash_manager_entry_invalidate
                0x00033dcc       0x4e examples/beaconing/CMakeFiles/beaconing_nrf52840_xxAA_s140_6.0.0.dir/__/__/mesh/core/src/flash_manager.c.obj
                0x00033dcc                flash_manager_entry_invalidate
 .text.flash_manager_add
                0x00033e1a      0x1f6 examples/beaconing/CMakeFiles/beaconing_nrf52840_xxAA_s140_6.0.0.dir/__/__/mesh/core/src/flash_manager.c.obj
                0x00033e1a                flash_manager_add
 .text.flash_manager_mem_listener_register
                0x00034010       0x30 examples/beaconing/CMakeFiles/beaconing_nrf52840_xxAA_s140_6.0.0.dir/__/__/mesh/core/src/flash_manager.c.obj
                0x00034010                flash_manager_mem_listener_register
 .text.flash_manager_is_stable
                0x00034040       0x24 examples/beaconing/CMakeFiles/beaconing_nrf52840_xxAA_s140_6.0.0.dir/__/__/mesh/core/src/flash_manager.c.obj
                0x00034040                flash_manager_is_stable
 .text.flash_manager_on_defrag_end
                0x00034064       0x4c examples/beaconing/CMakeFiles/beaconing_nrf52840_xxAA_s140_6.0.0.dir/__/__/mesh/core/src/flash_manager.c.obj
                0x00034064                flash_manager_on_defrag_end
 .text.flash_manager_recovery_page_get
                0x000340b0        0x4 examples/beaconing/CMakeFiles/beaconing_nrf52840_xxAA_s140_6.0.0.dir/__/__/mesh/core/src/flash_manager.c.obj
                0x000340b0                flash_manager_recovery_page_get
 .text.flash_manager_action_queue_empty_cb_set
                0x000340b4       0x1c examples/beaconing/CMakeFiles/beaconing_nrf52840_xxAA_s140_6.0.0.dir/__/__/mesh/core/src/flash_manager.c.obj
                0x000340b4                flash_manager_action_queue_empty_cb_set
 .text.utils_xor
                0x000340d0       0x14 examples/beaconing/CMakeFiles/beaconing_nrf52840_xxAA_s140_6.0.0.dir/__/__/mesh/core/src/ccm_soft.c.obj
 .text.ccm_soft_authenticate_blocks
                0x000340e4       0x68 examples/beaconing/CMakeFiles/beaconing_nrf52840_xxAA_s140_6.0.0.dir/__/__/mesh/core/src/ccm_soft.c.obj
 .text.utils_reverse_memcpy.constprop.0
                0x0003414c        0xa examples/beaconing/CMakeFiles/beaconing_nrf52840_xxAA_s140_6.0.0.dir/__/__/mesh/core/src/ccm_soft.c.obj
 .text.ccm_soft_authenticate
                0x00034156       0xa0 examples/beaconing/CMakeFiles/beaconing_nrf52840_xxAA_s140_6.0.0.dir/__/__/mesh/core/src/ccm_soft.c.obj
 .text.ccm_soft_crypt
                0x000341f6       0x6c examples/beaconing/CMakeFiles/beaconing_nrf52840_xxAA_s140_6.0.0.dir/__/__/mesh/core/src/ccm_soft.c.obj
 .text.ccm_soft_encrypt
                0x00034262       0x70 examples/beaconing/CMakeFiles/beaconing_nrf52840_xxAA_s140_6.0.0.dir/__/__/mesh/core/src/ccm_soft.c.obj
                0x00034262                ccm_soft_encrypt
 .text.ccm_soft_decrypt
                0x000342d2       0xfe examples/beaconing/CMakeFiles/beaconing_nrf52840_xxAA_s140_6.0.0.dir/__/__/mesh/core/src/ccm_soft.c.obj
                0x000342d2                ccm_soft_decrypt
 .text.replay_cache_add
                0x000343d0       0x50 examples/beaconing/CMakeFiles/beaconing_nrf52840_xxAA_s140_6.0.0.dir/__/__/mesh/core/src/replay_cache.c.obj
                0x000343d0                replay_cache_add
 .text.replay_cache_has_elem
                0x00034420       0x38 examples/beaconing/CMakeFiles/beaconing_nrf52840_xxAA_s140_6.0.0.dir/__/__/mesh/core/src/replay_cache.c.obj
                0x00034420                replay_cache_has_elem
 .text.replay_cache_clear
                0x00034458       0x20 examples/beaconing/CMakeFiles/beaconing_nrf52840_xxAA_s140_6.0.0.dir/__/__/mesh/core/src/replay_cache.c.obj
                0x00034458                replay_cache_clear
 .text.replay_cache_init
                0x00034478        0x4 examples/beaconing/CMakeFiles/beaconing_nrf52840_xxAA_s140_6.0.0.dir/__/__/mesh/core/src/replay_cache.c.obj
                0x00034478                replay_cache_init
 .text.beacon_create
                0x0003447c       0x46 examples/beaconing/CMakeFiles/beaconing_nrf52840_xxAA_s140_6.0.0.dir/__/__/mesh/core/src/beacon.c.obj
                0x0003447c                beacon_create
 *fill*         0x000344c2        0x2 
 .text.beacon_packet_in
                0x000344c4      0x154 examples/beaconing/CMakeFiles/beaconing_nrf52840_xxAA_s140_6.0.0.dir/__/__/mesh/core/src/beacon.c.obj
                0x000344c4                beacon_packet_in
 .text.entry_get
                0x00034618       0x78 examples/beaconing/CMakeFiles/beaconing_nrf52840_xxAA_s140_6.0.0.dir/__/__/mesh/core/src/flash_manager_internal.c.obj
                0x00034618                entry_get
 .text.core_tx_complete_cb_set
                0x00034690        0xc examples/beaconing/CMakeFiles/beaconing_nrf52840_xxAA_s140_6.0.0.dir/__/__/mesh/core/src/core_tx.c.obj
                0x00034690                core_tx_complete_cb_set
 .text.core_tx_packet_alloc
                0x0003469c       0x98 examples/beaconing/CMakeFiles/beaconing_nrf52840_xxAA_s140_6.0.0.dir/__/__/mesh/core/src/core_tx.c.obj
                0x0003469c                core_tx_packet_alloc
 .text.core_tx_packet_send
                0x00034734       0x4c examples/beaconing/CMakeFiles/beaconing_nrf52840_xxAA_s140_6.0.0.dir/__/__/mesh/core/src/core_tx.c.obj
                0x00034734                core_tx_packet_send
 .text.core_tx_packet_discard
                0x00034780       0x40 examples/beaconing/CMakeFiles/beaconing_nrf52840_xxAA_s140_6.0.0.dir/__/__/mesh/core/src/core_tx.c.obj
                0x00034780                core_tx_packet_discard
 .text.core_tx_complete
                0x000347c0       0x34 examples/beaconing/CMakeFiles/beaconing_nrf52840_xxAA_s140_6.0.0.dir/__/__/mesh/core/src/core_tx.c.obj
                0x000347c0                core_tx_complete
 .text.core_tx_bearer_add
                0x000347f4       0x70 examples/beaconing/CMakeFiles/beaconing_nrf52840_xxAA_s140_6.0.0.dir/__/__/mesh/core/src/core_tx.c.obj
                0x000347f4                core_tx_bearer_add
 .text.heartbeat_subscription_timer_cb
                0x00034864       0x1c examples/beaconing/CMakeFiles/beaconing_nrf52840_xxAA_s140_6.0.0.dir/__/__/mesh/core/src/heartbeat.c.obj
 .text.heartbeat_opcode_handle
                0x00034880       0x88 examples/beaconing/CMakeFiles/beaconing_nrf52840_xxAA_s140_6.0.0.dir/__/__/mesh/core/src/heartbeat.c.obj
 .text.heartbeat_send
                0x00034908       0xb0 examples/beaconing/CMakeFiles/beaconing_nrf52840_xxAA_s140_6.0.0.dir/__/__/mesh/core/src/heartbeat.c.obj
 .text.heartbeat_publication_timer_cb
                0x000349b8       0xa8 examples/beaconing/CMakeFiles/beaconing_nrf52840_xxAA_s140_6.0.0.dir/__/__/mesh/core/src/heartbeat.c.obj
 .text.heartbeat_core_evt_cb
                0x00034a60       0x7c examples/beaconing/CMakeFiles/beaconing_nrf52840_xxAA_s140_6.0.0.dir/__/__/mesh/core/src/heartbeat.c.obj
 .text.heartbeat_on_feature_change_trigger
                0x00034adc       0x44 examples/beaconing/CMakeFiles/beaconing_nrf52840_xxAA_s140_6.0.0.dir/__/__/mesh/core/src/heartbeat.c.obj
                0x00034adc                heartbeat_on_feature_change_trigger
 .text.heartbeat_init
                0x00034b20       0x78 examples/beaconing/CMakeFiles/beaconing_nrf52840_xxAA_s140_6.0.0.dir/__/__/mesh/core/src/heartbeat.c.obj
                0x00034b20                heartbeat_init
 .text.heartbeat_subscription_set
                0x00034b98       0xa4 examples/beaconing/CMakeFiles/beaconing_nrf52840_xxAA_s140_6.0.0.dir/__/__/mesh/core/src/heartbeat.c.obj
                0x00034b98                heartbeat_subscription_set
 .text.heartbeat_subscription_get
                0x00034c3c        0x8 examples/beaconing/CMakeFiles/beaconing_nrf52840_xxAA_s140_6.0.0.dir/__/__/mesh/core/src/heartbeat.c.obj
                0x00034c3c                heartbeat_subscription_get
 .text.heartbeat_config_server_cb_set
                0x00034c44       0x28 examples/beaconing/CMakeFiles/beaconing_nrf52840_xxAA_s140_6.0.0.dir/__/__/mesh/core/src/heartbeat.c.obj
                0x00034c44                heartbeat_config_server_cb_set
 .text.heartbeat_publication_state_updated
                0x00034c6c       0x74 examples/beaconing/CMakeFiles/beaconing_nrf52840_xxAA_s140_6.0.0.dir/__/__/mesh/core/src/heartbeat.c.obj
                0x00034c6c                heartbeat_publication_state_updated
 .text.make_network_beacon_packet
                0x00034ce0       0x50 examples/beaconing/CMakeFiles/beaconing_nrf52840_xxAA_s140_6.0.0.dir/__/__/mesh/core/src/net_beacon.c.obj
 .text.beacon_tx
                0x00034d30      0x12c examples/beaconing/CMakeFiles/beaconing_nrf52840_xxAA_s140_6.0.0.dir/__/__/mesh/core/src/net_beacon.c.obj
 .text.tx_complete_cb
                0x00034e5c        0xe examples/beaconing/CMakeFiles/beaconing_nrf52840_xxAA_s140_6.0.0.dir/__/__/mesh/core/src/net_beacon.c.obj
 .text.beacon_tx_timeout
                0x00034e6a        0x4 examples/beaconing/CMakeFiles/beaconing_nrf52840_xxAA_s140_6.0.0.dir/__/__/mesh/core/src/net_beacon.c.obj
 .text.is_valid_beacon_pkt.part.0
                0x00034e6e       0x30 examples/beaconing/CMakeFiles/beaconing_nrf52840_xxAA_s140_6.0.0.dir/__/__/mesh/core/src/net_beacon.c.obj
 *fill*         0x00034e9e        0x2 
 .text.net_beacon_init
                0x00034ea0       0x94 examples/beaconing/CMakeFiles/beaconing_nrf52840_xxAA_s140_6.0.0.dir/__/__/mesh/core/src/net_beacon.c.obj
                0x00034ea0                net_beacon_init
 .text.net_beacon_state_set
                0x00034f34       0x34 examples/beaconing/CMakeFiles/beaconing_nrf52840_xxAA_s140_6.0.0.dir/__/__/mesh/core/src/net_beacon.c.obj
                0x00034f34                net_beacon_state_set
 .text.net_beacon_state_get
                0x00034f68        0xc examples/beaconing/CMakeFiles/beaconing_nrf52840_xxAA_s140_6.0.0.dir/__/__/mesh/core/src/net_beacon.c.obj
                0x00034f68                net_beacon_state_get
 .text.net_beacon_packet_in
                0x00034f74       0xf2 examples/beaconing/CMakeFiles/beaconing_nrf52840_xxAA_s140_6.0.0.dir/__/__/mesh/core/src/net_beacon.c.obj
                0x00034f74                net_beacon_packet_in
 *fill*         0x00035066        0x2 
 .text.packet_discard
                0x00035068       0x40 examples/beaconing/CMakeFiles/beaconing_nrf52840_xxAA_s140_6.0.0.dir/__/__/mesh/core/src/core_tx_adv.c.obj
 .text.packet_send
                0x000350a8       0x58 examples/beaconing/CMakeFiles/beaconing_nrf52840_xxAA_s140_6.0.0.dir/__/__/mesh/core/src/core_tx_adv.c.obj
 .text.packet_alloc
                0x00035100       0x58 examples/beaconing/CMakeFiles/beaconing_nrf52840_xxAA_s140_6.0.0.dir/__/__/mesh/core/src/core_tx_adv.c.obj
 .text.adv_tx_complete_callback
                0x00035158       0x20 examples/beaconing/CMakeFiles/beaconing_nrf52840_xxAA_s140_6.0.0.dir/__/__/mesh/core/src/core_tx_adv.c.obj
 .text.core_tx_adv_init
                0x00035178       0x60 examples/beaconing/CMakeFiles/beaconing_nrf52840_xxAA_s140_6.0.0.dir/__/__/mesh/core/src/core_tx_adv.c.obj
                0x00035178                core_tx_adv_init
 .text.core_tx_adv_count_set
                0x000351d8       0x28 examples/beaconing/CMakeFiles/beaconing_nrf52840_xxAA_s140_6.0.0.dir/__/__/mesh/core/src/core_tx_adv.c.obj
                0x000351d8                core_tx_adv_count_set
 .text.core_tx_adv_count_get
                0x00035200       0x1c examples/beaconing/CMakeFiles/beaconing_nrf52840_xxAA_s140_6.0.0.dir/__/__/mesh/core/src/core_tx_adv.c.obj
                0x00035200                core_tx_adv_count_get
 .text.core_tx_adv_interval_set
                0x0003521c       0x28 examples/beaconing/CMakeFiles/beaconing_nrf52840_xxAA_s140_6.0.0.dir/__/__/mesh/core/src/core_tx_adv.c.obj
                0x0003521c                core_tx_adv_interval_set
 .text.core_tx_adv_interval_get
                0x00035244       0x28 examples/beaconing/CMakeFiles/beaconing_nrf52840_xxAA_s140_6.0.0.dir/__/__/mesh/core/src/core_tx_adv.c.obj
                0x00035244                core_tx_adv_interval_get
 .text.ad_listener_subscribe
                0x0003526c       0x5c examples/beaconing/CMakeFiles/beaconing_nrf52840_xxAA_s140_6.0.0.dir/__/__/mesh/bearer/src/ad_listener.c.obj
                0x0003526c                ad_listener_subscribe
 .text.ad_listener_process
                0x000352c8       0x64 examples/beaconing/CMakeFiles/beaconing_nrf52840_xxAA_s140_6.0.0.dir/__/__/mesh/bearer/src/ad_listener.c.obj
                0x000352c8                ad_listener_process
 .text.adtype_filter_handle
                0x0003532c       0x64 examples/beaconing/CMakeFiles/beaconing_nrf52840_xxAA_s140_6.0.0.dir/__/__/mesh/bearer/src/ad_type_filter.c.obj
 .text.bearer_adtype_filtering_set
                0x00035390       0x1c examples/beaconing/CMakeFiles/beaconing_nrf52840_xxAA_s140_6.0.0.dir/__/__/mesh/bearer/src/ad_type_filter.c.obj
                0x00035390                bearer_adtype_filtering_set
 .text.bearer_adtype_add
                0x000353ac       0x20 examples/beaconing/CMakeFiles/beaconing_nrf52840_xxAA_s140_6.0.0.dir/__/__/mesh/bearer/src/ad_type_filter.c.obj
                0x000353ac                bearer_adtype_add
 .text.bearer_adtype_mode_set
                0x000353cc       0x18 examples/beaconing/CMakeFiles/beaconing_nrf52840_xxAA_s140_6.0.0.dir/__/__/mesh/bearer/src/ad_type_filter.c.obj
                0x000353cc                bearer_adtype_mode_set
 .text.tx_complete_event_callback
                0x000353e4       0x28 examples/beaconing/CMakeFiles/beaconing_nrf52840_xxAA_s140_6.0.0.dir/__/__/mesh/bearer/src/advertiser.c.obj
 .text.set_gap_addr_type
                0x0003540c       0x26 examples/beaconing/CMakeFiles/beaconing_nrf52840_xxAA_s140_6.0.0.dir/__/__/mesh/bearer/src/advertiser.c.obj
 .text.broadcast_complete_cb
                0x00035432       0x46 examples/beaconing/CMakeFiles/beaconing_nrf52840_xxAA_s140_6.0.0.dir/__/__/mesh/bearer/src/advertiser.c.obj
 .text.schedule_first_time
                0x00035478       0x28 examples/beaconing/CMakeFiles/beaconing_nrf52840_xxAA_s140_6.0.0.dir/__/__/mesh/bearer/src/advertiser.c.obj
 .text.timeout_event
                0x000354a0      0x10c examples/beaconing/CMakeFiles/beaconing_nrf52840_xxAA_s140_6.0.0.dir/__/__/mesh/bearer/src/advertiser.c.obj
 .text.advertiser_init
                0x000355ac        0xc examples/beaconing/CMakeFiles/beaconing_nrf52840_xxAA_s140_6.0.0.dir/__/__/mesh/bearer/src/advertiser.c.obj
                0x000355ac                advertiser_init
 .text.advertiser_enable
                0x000355b8       0x2a examples/beaconing/CMakeFiles/beaconing_nrf52840_xxAA_s140_6.0.0.dir/__/__/mesh/bearer/src/advertiser.c.obj
                0x000355b8                advertiser_enable
 .text.advertiser_packet_alloc
                0x000355e2       0x76 examples/beaconing/CMakeFiles/beaconing_nrf52840_xxAA_s140_6.0.0.dir/__/__/mesh/bearer/src/advertiser.c.obj
                0x000355e2                advertiser_packet_alloc
 .text.advertiser_packet_send
                0x00035658       0x62 examples/beaconing/CMakeFiles/beaconing_nrf52840_xxAA_s140_6.0.0.dir/__/__/mesh/bearer/src/advertiser.c.obj
                0x00035658                advertiser_packet_send
 .text.advertiser_packet_discard
                0x000356ba       0x1e examples/beaconing/CMakeFiles/beaconing_nrf52840_xxAA_s140_6.0.0.dir/__/__/mesh/bearer/src/advertiser.c.obj
                0x000356ba                advertiser_packet_discard
 .text.advertiser_interval_set
                0x000356d8       0x54 examples/beaconing/CMakeFiles/beaconing_nrf52840_xxAA_s140_6.0.0.dir/__/__/mesh/bearer/src/advertiser.c.obj
                0x000356d8                advertiser_interval_set
 .text.advertiser_flush
                0x0003572c       0x1e examples/beaconing/CMakeFiles/beaconing_nrf52840_xxAA_s140_6.0.0.dir/__/__/mesh/bearer/src/advertiser.c.obj
                0x0003572c                advertiser_flush
 *fill*         0x0003574a        0x2 
 .text.advertiser_address_default_get
                0x0003574c       0x38 examples/beaconing/CMakeFiles/beaconing_nrf52840_xxAA_s140_6.0.0.dir/__/__/mesh/bearer/src/advertiser.c.obj
                0x0003574c                advertiser_address_default_get
 .text.advertiser_instance_init
                0x00035784       0xa4 examples/beaconing/CMakeFiles/beaconing_nrf52840_xxAA_s140_6.0.0.dir/__/__/mesh/bearer/src/advertiser.c.obj
                0x00035784                advertiser_instance_init
 .text.action_switch
                0x00035828       0xb4 examples/beaconing/CMakeFiles/beaconing_nrf52840_xxAA_s140_6.0.0.dir/__/__/mesh/bearer/src/bearer_handler.c.obj
 .text.bearer_handler_init
                0x000358dc       0x2c examples/beaconing/CMakeFiles/beaconing_nrf52840_xxAA_s140_6.0.0.dir/__/__/mesh/bearer/src/bearer_handler.c.obj
                0x000358dc                bearer_handler_init
 .text.bearer_handler_start
                0x00035908       0x1c examples/beaconing/CMakeFiles/beaconing_nrf52840_xxAA_s140_6.0.0.dir/__/__/mesh/bearer/src/bearer_handler.c.obj
                0x00035908                bearer_handler_start
 .text.bearer_handler_action_enqueue
                0x00035924       0x6c examples/beaconing/CMakeFiles/beaconing_nrf52840_xxAA_s140_6.0.0.dir/__/__/mesh/bearer/src/bearer_handler.c.obj
                0x00035924                bearer_handler_action_enqueue
 .text.bearer_handler_action_end
                0x00035990       0x5c examples/beaconing/CMakeFiles/beaconing_nrf52840_xxAA_s140_6.0.0.dir/__/__/mesh/bearer/src/bearer_handler.c.obj
                0x00035990                bearer_handler_action_end
 .text.bearer_handler_radio_irq_handler
                0x000359ec       0x48 examples/beaconing/CMakeFiles/beaconing_nrf52840_xxAA_s140_6.0.0.dir/__/__/mesh/bearer/src/bearer_handler.c.obj
                0x000359ec                bearer_handler_radio_irq_handler
 .text.bearer_handler_timer_irq_handler
                0x00035a34       0x24 examples/beaconing/CMakeFiles/beaconing_nrf52840_xxAA_s140_6.0.0.dir/__/__/mesh/bearer/src/bearer_handler.c.obj
                0x00035a34                bearer_handler_timer_irq_handler
 .text.bearer_handler_on_ts_begin
                0x00035a58       0x30 examples/beaconing/CMakeFiles/beaconing_nrf52840_xxAA_s140_6.0.0.dir/__/__/mesh/bearer/src/bearer_handler.c.obj
                0x00035a58                bearer_handler_on_ts_begin
 .text.bearer_handler_on_ts_end
                0x00035a88       0x34 examples/beaconing/CMakeFiles/beaconing_nrf52840_xxAA_s140_6.0.0.dir/__/__/mesh/bearer/src/bearer_handler.c.obj
                0x00035a88                bearer_handler_on_ts_end
 .text.radio_irq_handler
                0x00035abc       0x94 examples/beaconing/CMakeFiles/beaconing_nrf52840_xxAA_s140_6.0.0.dir/__/__/mesh/bearer/src/broadcast.c.obj
 .text.broadcast_start
                0x00035b50       0x8c examples/beaconing/CMakeFiles/beaconing_nrf52840_xxAA_s140_6.0.0.dir/__/__/mesh/bearer/src/broadcast.c.obj
 .text.broadcast_send
                0x00035bdc       0x6c examples/beaconing/CMakeFiles/beaconing_nrf52840_xxAA_s140_6.0.0.dir/__/__/mesh/bearer/src/broadcast.c.obj
                0x00035bdc                broadcast_send
 .text.fen_filter_start
                0x00035c48       0x28 examples/beaconing/CMakeFiles/beaconing_nrf52840_xxAA_s140_6.0.0.dir/__/__/mesh/bearer/src/filter_engine.c.obj
                0x00035c48                fen_filter_start
 .text.fen_filter_stop
                0x00035c70       0x20 examples/beaconing/CMakeFiles/beaconing_nrf52840_xxAA_s140_6.0.0.dir/__/__/mesh/bearer/src/filter_engine.c.obj
                0x00035c70                fen_filter_stop
 .text.fen_filters_apply
                0x00035c90       0x34 examples/beaconing/CMakeFiles/beaconing_nrf52840_xxAA_s140_6.0.0.dir/__/__/mesh/bearer/src/filter_engine.c.obj
                0x00035c90                fen_filters_apply
 .text.radio_config_reset
                0x00035cc4       0x34 examples/beaconing/CMakeFiles/beaconing_nrf52840_xxAA_s140_6.0.0.dir/__/__/mesh/bearer/src/radio_config.c.obj
                0x00035cc4                radio_config_reset
 .text.radio_config_channel_set
                0x00035cf8       0x28 examples/beaconing/CMakeFiles/beaconing_nrf52840_xxAA_s140_6.0.0.dir/__/__/mesh/bearer/src/radio_config.c.obj
                0x00035cf8                radio_config_channel_set
 .text.radio_config_config
                0x00035d20       0x90 examples/beaconing/CMakeFiles/beaconing_nrf52840_xxAA_s140_6.0.0.dir/__/__/mesh/bearer/src/radio_config.c.obj
                0x00035d20                radio_config_config
 .text.radio_config_access_addr_set
                0x00035db0       0x50 examples/beaconing/CMakeFiles/beaconing_nrf52840_xxAA_s140_6.0.0.dir/__/__/mesh/bearer/src/radio_config.c.obj
                0x00035db0                radio_config_access_addr_set
 .text.radio_trigger
                0x00035e00       0x24 examples/beaconing/CMakeFiles/beaconing_nrf52840_xxAA_s140_6.0.0.dir/__/__/mesh/bearer/src/scanner.c.obj
 .text.scan_window_end
                0x00035e24       0x10 examples/beaconing/CMakeFiles/beaconing_nrf52840_xxAA_s140_6.0.0.dir/__/__/mesh/bearer/src/scanner.c.obj
 .text.scan_window_start
                0x00035e34       0x24 examples/beaconing/CMakeFiles/beaconing_nrf52840_xxAA_s140_6.0.0.dir/__/__/mesh/bearer/src/scanner.c.obj
 .text.radio_configure
                0x00035e58       0x78 examples/beaconing/CMakeFiles/beaconing_nrf52840_xxAA_s140_6.0.0.dir/__/__/mesh/bearer/src/scanner.c.obj
 .text.radio_set_packet
                0x00035ed0       0x44 examples/beaconing/CMakeFiles/beaconing_nrf52840_xxAA_s140_6.0.0.dir/__/__/mesh/bearer/src/scanner.c.obj
 .text.radio_start
                0x00035f14       0x40 examples/beaconing/CMakeFiles/beaconing_nrf52840_xxAA_s140_6.0.0.dir/__/__/mesh/bearer/src/scanner.c.obj
 .text.radio_stop
                0x00035f54       0x30 examples/beaconing/CMakeFiles/beaconing_nrf52840_xxAA_s140_6.0.0.dir/__/__/mesh/bearer/src/scanner.c.obj
 .text.schedule_timers
                0x00035f84       0x38 examples/beaconing/CMakeFiles/beaconing_nrf52840_xxAA_s140_6.0.0.dir/__/__/mesh/bearer/src/scanner.c.obj
 .text.scanner_radio_start
                0x00035fbc       0x28 examples/beaconing/CMakeFiles/beaconing_nrf52840_xxAA_s140_6.0.0.dir/__/__/mesh/bearer/src/scanner.c.obj
                0x00035fbc                scanner_radio_start
 .text.scanner_radio_stop
                0x00035fe4       0x10 examples/beaconing/CMakeFiles/beaconing_nrf52840_xxAA_s140_6.0.0.dir/__/__/mesh/bearer/src/scanner.c.obj
                0x00035fe4                scanner_radio_stop
 .text.scanner_radio_irq_handler
                0x00035ff4      0x130 examples/beaconing/CMakeFiles/beaconing_nrf52840_xxAA_s140_6.0.0.dir/__/__/mesh/bearer/src/scanner.c.obj
                0x00035ff4                scanner_radio_irq_handler
 .text.scanner_enable
                0x00036124       0x24 examples/beaconing/CMakeFiles/beaconing_nrf52840_xxAA_s140_6.0.0.dir/__/__/mesh/bearer/src/scanner.c.obj
                0x00036124                scanner_enable
 .text.scanner_packet_release
                0x00036148       0x2c examples/beaconing/CMakeFiles/beaconing_nrf52840_xxAA_s140_6.0.0.dir/__/__/mesh/bearer/src/scanner.c.obj
                0x00036148                scanner_packet_release
 .text.scanner_rx
                0x00036174       0x30 examples/beaconing/CMakeFiles/beaconing_nrf52840_xxAA_s140_6.0.0.dir/__/__/mesh/bearer/src/scanner.c.obj
                0x00036174                scanner_rx
 .text.scanner_rx_pending
                0x000361a4        0xc examples/beaconing/CMakeFiles/beaconing_nrf52840_xxAA_s140_6.0.0.dir/__/__/mesh/bearer/src/scanner.c.obj
                0x000361a4                scanner_rx_pending
 .text.scanner_config_scan_time_set
                0x000361b0       0x4c examples/beaconing/CMakeFiles/beaconing_nrf52840_xxAA_s140_6.0.0.dir/__/__/mesh/bearer/src/scanner.c.obj
                0x000361b0                scanner_config_scan_time_set
 .text.scanner_config_channels_set
                0x000361fc       0x50 examples/beaconing/CMakeFiles/beaconing_nrf52840_xxAA_s140_6.0.0.dir/__/__/mesh/bearer/src/scanner.c.obj
                0x000361fc                scanner_config_channels_set
 .text.scanner_config_access_addresses_set
                0x0003624c       0x38 examples/beaconing/CMakeFiles/beaconing_nrf52840_xxAA_s140_6.0.0.dir/__/__/mesh/bearer/src/scanner.c.obj
                0x0003624c                scanner_config_access_addresses_set
 .text.scanner_config_reset
                0x00036284       0x50 examples/beaconing/CMakeFiles/beaconing_nrf52840_xxAA_s140_6.0.0.dir/__/__/mesh/bearer/src/scanner.c.obj
                0x00036284                scanner_config_reset
 .text.scanner_init
                0x000362d4       0x54 examples/beaconing/CMakeFiles/beaconing_nrf52840_xxAA_s140_6.0.0.dir/__/__/mesh/bearer/src/scanner.c.obj
                0x000362d4                scanner_init
 .text.errata_120
                0x00036328       0x20 examples/beaconing/CMakeFiles/beaconing_nrf52840_xxAA_s140_6.0.0.dir/C_/b/nRF5_SDK_15.0.0_a53641a/modules/nrfx/mdk/system_nrf52840.c.obj
 .text.SystemInit
                0x00036348      0x1b8 examples/beaconing/CMakeFiles/beaconing_nrf52840_xxAA_s140_6.0.0.dir/C_/b/nRF5_SDK_15.0.0_a53641a/modules/nrfx/mdk/system_nrf52840.c.obj
                0x00036348                SystemInit
 .text          0x00036500       0x3c examples/beaconing/CMakeFiles/beaconing_nrf52840_xxAA_s140_6.0.0.dir/C_/b/nRF5_SDK_15.0.0_a53641a/modules/nrfx/mdk/gcc_startup_nrf52840.S.obj
                0x00036500                Reset_Handler
                0x00036528                NMI_Handler
                0x0003652a                HardFault_Handler
                0x0003652c                MemoryManagement_Handler
                0x0003652e                BusFault_Handler
                0x00036530                UsageFault_Handler
                0x00036532                SVC_Handler
                0x00036534                DebugMon_Handler
                0x00036536                PendSV_Handler
                0x00036538                SysTick_Handler
                0x0003653a                RADIO_IRQHandler
                0x0003653a                PDM_IRQHandler
                0x0003653a                TEMP_IRQHandler
                0x0003653a                TIMER3_IRQHandler
                0x0003653a                PWM3_IRQHandler
                0x0003653a                FPU_IRQHandler
                0x0003653a                RTC0_IRQHandler
                0x0003653a                SPIM0_SPIS0_TWIM0_TWIS0_SPI0_TWI0_IRQHandler
                0x0003653a                PWM1_IRQHandler
                0x0003653a                UARTE0_UART0_IRQHandler
                0x0003653a                POWER_CLOCK_IRQHandler
                0x0003653a                CRYPTOCELL_IRQHandler
                0x0003653a                I2S_IRQHandler
                0x0003653a                SWI4_EGU4_IRQHandler
                0x0003653a                USBD_IRQHandler
                0x0003653a                TIMER2_IRQHandler
                0x0003653a                UARTE1_IRQHandler
                0x0003653a                TIMER1_IRQHandler
                0x0003653a                SPIM3_IRQHandler
                0x0003653a                PWM2_IRQHandler
                0x0003653a                ECB_IRQHandler
                0x0003653a                SPIM1_SPIS1_TWIM1_TWIS1_SPI1_TWI1_IRQHandler
                0x0003653a                Default_Handler
                0x0003653a                SAADC_IRQHandler
                0x0003653a                CCM_AAR_IRQHandler
                0x0003653a                WDT_IRQHandler
                0x0003653a                TIMER4_IRQHandler
                0x0003653a                SWI5_EGU5_IRQHandler
                0x0003653a                RNG_IRQHandler
                0x0003653a                RTC2_IRQHandler
                0x0003653a                PWM0_IRQHandler
                0x0003653a                SWI3_EGU3_IRQHandler
                0x0003653a                RTC1_IRQHandler
                0x0003653a                SWI1_EGU1_IRQHandler
                0x0003653a                SPIM2_SPIS2_SPI2_IRQHandler
                0x0003653a                NFCT_IRQHandler
                0x0003653a                SWI0_EGU0_IRQHandler
                0x0003653a                MWU_IRQHandler
                0x0003653a                TIMER0_IRQHandler
                0x0003653a                QSPI_IRQHandler
                0x0003653a                COMP_LPCOMP_IRQHandler
 .text.app_error_handler_bare
                0x0003653c       0x1a examples/beaconing/CMakeFiles/beaconing_nrf52840_xxAA_s140_6.0.0.dir/C_/b/nRF5_SDK_15.0.0_a53641a/components/libraries/util/app_error.c.obj
                0x0003653c                app_error_handler_bare
 .text.app_error_handler
                0x00036556       0x1a examples/beaconing/CMakeFiles/beaconing_nrf52840_xxAA_s140_6.0.0.dir/C_/b/nRF5_SDK_15.0.0_a53641a/components/libraries/util/app_error_handler_gcc.c.obj
                0x00036556                app_error_handler
 .text._GetAvailWriteSpace
                0x00036570       0x1c external/rtt/librtt_nrf52840_xxAA.a(SEGGER_RTT.c.obj)
 .text._WriteNoCheck
                0x0003658c       0x3c external/rtt/librtt_nrf52840_xxAA.a(SEGGER_RTT.c.obj)
 .text._WriteBlocking
                0x000365c8       0x52 external/rtt/librtt_nrf52840_xxAA.a(SEGGER_RTT.c.obj)
 *fill*         0x0003661a        0x2 
 .text._DoInit  0x0003661c       0x60 external/rtt/librtt_nrf52840_xxAA.a(SEGGER_RTT.c.obj)
 .text.SEGGER_RTT_WriteNoLock
                0x0003667c       0x68 external/rtt/librtt_nrf52840_xxAA.a(SEGGER_RTT.c.obj)
                0x0003667c                SEGGER_RTT_WriteNoLock
 .text.SEGGER_RTT_Write
                0x000366e4       0x34 external/rtt/librtt_nrf52840_xxAA.a(SEGGER_RTT.c.obj)
                0x000366e4                SEGGER_RTT_Write
 .text._StoreChar
                0x00036718       0x3e external/rtt/librtt_nrf52840_xxAA.a(SEGGER_RTT_printf.c.obj)
 *fill*         0x00036756        0x2 
 .text._PrintUnsigned
                0x00036758       0xd0 external/rtt/librtt_nrf52840_xxAA.a(SEGGER_RTT_printf.c.obj)
 .text.SEGGER_RTT_vprintf
                0x00036828      0x246 external/rtt/librtt_nrf52840_xxAA.a(SEGGER_RTT_printf.c.obj)
                0x00036828                SEGGER_RTT_vprintf
 .text.SEGGER_RTT_printf
                0x00036a6e       0x1e external/rtt/librtt_nrf52840_xxAA.a(SEGGER_RTT_printf.c.obj)
                0x00036a6e                SEGGER_RTT_printf
 .text.uECC_vli_mult
                0x00036a8c       0x64 external/micro-ecc/libuECC_nrf52840_xxAA.a(uECC.c.obj)
 .text.uECC_vli_clear
                0x00036af0       0x16 external/micro-ecc/libuECC_nrf52840_xxAA.a(uECC.c.obj)
 .text.uECC_vli_isZero
                0x00036b06       0x1e external/micro-ecc/libuECC_nrf52840_xxAA.a(uECC.c.obj)
 .text.uECC_vli_testBit
                0x00036b24       0x14 external/micro-ecc/libuECC_nrf52840_xxAA.a(uECC.c.obj)
 .text.uECC_vli_numBits
                0x00036b38       0x3a external/micro-ecc/libuECC_nrf52840_xxAA.a(uECC.c.obj)
 .text.uECC_vli_set
                0x00036b72       0x18 external/micro-ecc/libuECC_nrf52840_xxAA.a(uECC.c.obj)
 .text.uECC_vli_cmp_unsafe
                0x00036b8a       0x28 external/micro-ecc/libuECC_nrf52840_xxAA.a(uECC.c.obj)
 .text.uECC_vli_rshift1
                0x00036bb2       0x1c external/micro-ecc/libuECC_nrf52840_xxAA.a(uECC.c.obj)
 .text.uECC_vli_modMult_fast
                0x00036bce       0x20 external/micro-ecc/libuECC_nrf52840_xxAA.a(uECC.c.obj)
 .text.uECC_vli_modSquare_fast
                0x00036bee        0x8 external/micro-ecc/libuECC_nrf52840_xxAA.a(uECC.c.obj)
 .text.apply_z  0x00036bf6       0x3e external/micro-ecc/libuECC_nrf52840_xxAA.a(uECC.c.obj)
 .text.uECC_vli_nativeToBytes
                0x00036c34       0x28 external/micro-ecc/libuECC_nrf52840_xxAA.a(uECC.c.obj)
 .text.uECC_vli_bytesToNative
                0x00036c5c       0x40 external/micro-ecc/libuECC_nrf52840_xxAA.a(uECC.c.obj)
 .text.default_RNG
                0x00036c9c        0xc external/micro-ecc/libuECC_nrf52840_xxAA.a(uECC.c.obj)
 .text.uECC_vli_add.isra.0
                0x00036ca8       0x4a external/micro-ecc/libuECC_nrf52840_xxAA.a(uECC.c.obj)
 .text.regularize_k
                0x00036cf2       0x50 external/micro-ecc/libuECC_nrf52840_xxAA.a(uECC.c.obj)
 .text.uECC_vli_sub.isra.1
                0x00036d42       0x4e external/micro-ecc/libuECC_nrf52840_xxAA.a(uECC.c.obj)
 .text.uECC_vli_cmp
                0x00036d90       0x30 external/micro-ecc/libuECC_nrf52840_xxAA.a(uECC.c.obj)
 .text.uECC_generate_random_int
                0x00036dc0       0x78 external/micro-ecc/libuECC_nrf52840_xxAA.a(uECC.c.obj)
 .text.uECC_vli_modAdd
                0x00036e38       0x2e external/micro-ecc/libuECC_nrf52840_xxAA.a(uECC.c.obj)
 *fill*         0x00036e66        0x2 
 .text.vli_mmod_fast_secp256r1
                0x00036e68      0x194 external/micro-ecc/libuECC_nrf52840_xxAA.a(uECC.c.obj)
 .text.uECC_vli_modSub.isra.2
                0x00036ffc       0x1c external/micro-ecc/libuECC_nrf52840_xxAA.a(uECC.c.obj)
 .text.double_jacobian_default
                0x00037018      0x14a external/micro-ecc/libuECC_nrf52840_xxAA.a(uECC.c.obj)
 .text.x_side_default
                0x00037162       0x5a external/micro-ecc/libuECC_nrf52840_xxAA.a(uECC.c.obj)
 .text.XYcZ_add
                0x000371bc       0xbc external/micro-ecc/libuECC_nrf52840_xxAA.a(uECC.c.obj)
 .text.XYcZ_addC
                0x00037278      0x10a external/micro-ecc/libuECC_nrf52840_xxAA.a(uECC.c.obj)
 .text.vli_modInv_update
                0x00037382       0x36 external/micro-ecc/libuECC_nrf52840_xxAA.a(uECC.c.obj)
 .text.uECC_vli_modInv
                0x000373b8      0x102 external/micro-ecc/libuECC_nrf52840_xxAA.a(uECC.c.obj)
 .text.EccPoint_mult
                0x000374ba      0x19e external/micro-ecc/libuECC_nrf52840_xxAA.a(uECC.c.obj)
 .text.EccPoint_compute_public_key
                0x00037658       0x54 external/micro-ecc/libuECC_nrf52840_xxAA.a(uECC.c.obj)
 .text.uECC_secp256r1
                0x000376ac        0x8 external/micro-ecc/libuECC_nrf52840_xxAA.a(uECC.c.obj)
                0x000376ac                uECC_secp256r1
 .text.uECC_make_key
                0x000376b4       0x7e external/micro-ecc/libuECC_nrf52840_xxAA.a(uECC.c.obj)
                0x000376b4                uECC_make_key
 *fill*         0x00037732        0x2 
 .text.uECC_shared_secret
                0x00037734       0xbc external/micro-ecc/libuECC_nrf52840_xxAA.a(uECC.c.obj)
                0x00037734                uECC_shared_secret
 .text.uECC_valid_point
                0x000377f0       0x86 external/micro-ecc/libuECC_nrf52840_xxAA.a(uECC.c.obj)
                0x000377f0                uECC_valid_point
 .text.uECC_valid_public_key
                0x00037876       0x32 external/micro-ecc/libuECC_nrf52840_xxAA.a(uECC.c.obj)
                0x00037876                uECC_valid_public_key
 .text.exit     0x000378a8       0x28 c:/mesh/arm_gcc/bin/../lib/gcc/arm-none-eabi/6.3.1/../../../../arm-none-eabi/lib/thumb/v7e-m/fpv4-sp/hard\libg_nano.a(lib_a-exit.o)
                0x000378a8                exit
 .text.__libc_init_array
                0x000378d0       0x48 c:/mesh/arm_gcc/bin/../lib/gcc/arm-none-eabi/6.3.1/../../../../arm-none-eabi/lib/thumb/v7e-m/fpv4-sp/hard\libg_nano.a(lib_a-init.o)
                0x000378d0                __libc_init_array
 .text.malloc   0x00037918       0x10 c:/mesh/arm_gcc/bin/../lib/gcc/arm-none-eabi/6.3.1/../../../../arm-none-eabi/lib/thumb/v7e-m/fpv4-sp/hard\libg_nano.a(lib_a-malloc.o)
                0x00037918                malloc
 .text.free     0x00037928       0x10 c:/mesh/arm_gcc/bin/../lib/gcc/arm-none-eabi/6.3.1/../../../../arm-none-eabi/lib/thumb/v7e-m/fpv4-sp/hard\libg_nano.a(lib_a-malloc.o)
                0x00037928                free
 .text.memcmp   0x00037938       0x1e c:/mesh/arm_gcc/bin/../lib/gcc/arm-none-eabi/6.3.1/../../../../arm-none-eabi/lib/thumb/v7e-m/fpv4-sp/hard\libg_nano.a(lib_a-memcmp.o)
                0x00037938                memcmp
 .text.memcpy   0x00037956       0x16 c:/mesh/arm_gcc/bin/../lib/gcc/arm-none-eabi/6.3.1/../../../../arm-none-eabi/lib/thumb/v7e-m/fpv4-sp/hard\libg_nano.a(lib_a-memcpy-stub.o)
                0x00037956                memcpy
 .text.memset   0x0003796c       0x10 c:/mesh/arm_gcc/bin/../lib/gcc/arm-none-eabi/6.3.1/../../../../arm-none-eabi/lib/thumb/v7e-m/fpv4-sp/hard\libg_nano.a(lib_a-memset.o)
                0x0003796c                memset
 .text._free_r  0x0003797c       0x9c c:/mesh/arm_gcc/bin/../lib/gcc/arm-none-eabi/6.3.1/../../../../arm-none-eabi/lib/thumb/v7e-m/fpv4-sp/hard\libg_nano.a(lib_a-nano-freer.o)
                0x0003797c                _free_r
 .text._malloc_r
                0x00037a18       0xbc c:/mesh/arm_gcc/bin/../lib/gcc/arm-none-eabi/6.3.1/../../../../arm-none-eabi/lib/thumb/v7e-m/fpv4-sp/hard\libg_nano.a(lib_a-nano-mallocr.o)
                0x00037a18                _malloc_r
 .text._sbrk_r  0x00037ad4       0x20 c:/mesh/arm_gcc/bin/../lib/gcc/arm-none-eabi/6.3.1/../../../../arm-none-eabi/lib/thumb/v7e-m/fpv4-sp/hard\libg_nano.a(lib_a-sbrkr.o)
                0x00037ad4                _sbrk_r
 .text.sprintf  0x00037af4       0x48 c:/mesh/arm_gcc/bin/../lib/gcc/arm-none-eabi/6.3.1/../../../../arm-none-eabi/lib/thumb/v7e-m/fpv4-sp/hard\libg_nano.a(lib_a-sprintf.o)
                0x00037af4                siprintf
                0x00037af4                sprintf
 .text.strcpy   0x00037b3c       0x10 c:/mesh/arm_gcc/bin/../lib/gcc/arm-none-eabi/6.3.1/../../../../arm-none-eabi/lib/thumb/v7e-m/fpv4-sp/hard\libg_nano.a(lib_a-strcpy.o)
                0x00037b3c                strcpy
 .text          0x00037b4c       0x10 c:/mesh/arm_gcc/bin/../lib/gcc/arm-none-eabi/6.3.1/../../../../arm-none-eabi/lib/thumb/v7e-m/fpv4-sp/hard\libg_nano.a(lib_a-strlen.o)
                0x00037b4c                strlen
 .text.strrchr  0x00037b5c       0x26 c:/mesh/arm_gcc/bin/../lib/gcc/arm-none-eabi/6.3.1/../../../../arm-none-eabi/lib/thumb/v7e-m/fpv4-sp/hard\libg_nano.a(lib_a-strrchr.o)
                0x00037b5c                strrchr
 .text.__malloc_lock
                0x00037b82        0x2 c:/mesh/arm_gcc/bin/../lib/gcc/arm-none-eabi/6.3.1/../../../../arm-none-eabi/lib/thumb/v7e-m/fpv4-sp/hard\libg_nano.a(lib_a-mlock.o)
                0x00037b82                __malloc_lock
 .text.__malloc_unlock
                0x00037b84        0x2 c:/mesh/arm_gcc/bin/../lib/gcc/arm-none-eabi/6.3.1/../../../../arm-none-eabi/lib/thumb/v7e-m/fpv4-sp/hard\libg_nano.a(lib_a-mlock.o)
                0x00037b84                __malloc_unlock
 .text.__ssputs_r
                0x00037b86       0xb6 c:/mesh/arm_gcc/bin/../lib/gcc/arm-none-eabi/6.3.1/../../../../arm-none-eabi/lib/thumb/v7e-m/fpv4-sp/hard\libg_nano.a(lib_a-nano-svfprintf.o)
                0x00037b86                __ssputs_r
 .text._svfprintf_r
                0x00037c3c      0x1e8 c:/mesh/arm_gcc/bin/../lib/gcc/arm-none-eabi/6.3.1/../../../../arm-none-eabi/lib/thumb/v7e-m/fpv4-sp/hard\libg_nano.a(lib_a-nano-svfprintf.o)
                0x00037c3c                _svfiprintf_r
                0x00037c3c                _svfprintf_r
 .text._printf_common
                0x00037e24       0xec c:/mesh/arm_gcc/bin/../lib/gcc/arm-none-eabi/6.3.1/../../../../arm-none-eabi/lib/thumb/v7e-m/fpv4-sp/hard\libg_nano.a(lib_a-nano-vfprintf_i.o)
                0x00037e24                _printf_common
 .text._printf_i
                0x00037f10      0x240 c:/mesh/arm_gcc/bin/../lib/gcc/arm-none-eabi/6.3.1/../../../../arm-none-eabi/lib/thumb/v7e-m/fpv4-sp/hard\libg_nano.a(lib_a-nano-vfprintf_i.o)
                0x00037f10                _printf_i
 .text.strchr   0x00038150       0x1c c:/mesh/arm_gcc/bin/../lib/gcc/arm-none-eabi/6.3.1/../../../../arm-none-eabi/lib/thumb/v7e-m/fpv4-sp/hard\libg_nano.a(lib_a-strchr.o)
                0x00038150                strchr
 *fill*         0x0003816c        0x4 
 .text          0x00038170       0xa0 c:/mesh/arm_gcc/bin/../lib/gcc/arm-none-eabi/6.3.1/../../../../arm-none-eabi/lib/thumb/v7e-m/fpv4-sp/hard\libg_nano.a(lib_a-memchr.o)
                0x00038170                memchr
 .text.memmove  0x00038210       0x34 c:/mesh/arm_gcc/bin/../lib/gcc/arm-none-eabi/6.3.1/../../../../arm-none-eabi/lib/thumb/v7e-m/fpv4-sp/hard\libg_nano.a(lib_a-memmove.o)
                0x00038210                memmove
 .text._realloc_r
                0x00038244       0x4c c:/mesh/arm_gcc/bin/../lib/gcc/arm-none-eabi/6.3.1/../../../../arm-none-eabi/lib/thumb/v7e-m/fpv4-sp/hard\libg_nano.a(lib_a-nano-reallocr.o)
                0x00038244                _realloc_r
 .text._malloc_usable_size_r
                0x00038290       0x12 c:/mesh/arm_gcc/bin/../lib/gcc/arm-none-eabi/6.3.1/../../../../arm-none-eabi/lib/thumb/v7e-m/fpv4-sp/hard\libg_nano.a(lib_a-nano-msizer.o)
                0x00038290                _malloc_usable_size_r
 *fill*         0x000382a2        0x2 
 .text._sbrk    0x000382a4       0x1c c:/mesh/arm_gcc/bin/../lib/gcc/arm-none-eabi/6.3.1/../../../../arm-none-eabi/lib/thumb/v7e-m/fpv4-sp/hard\libnosys.a(sbrk.o)
                0x000382a4                _sbrk
 .text._exit    0x000382c0        0x4 c:/mesh/arm_gcc/bin/../lib/gcc/arm-none-eabi/6.3.1/../../../../arm-none-eabi/lib/thumb/v7e-m/fpv4-sp/hard\libnosys.a(_exit.o)
                0x000382c0                _exit
 *(.init)
 .init          0x000382c4        0x4 c:/mesh/arm_gcc/bin/../lib/gcc/arm-none-eabi/6.3.1/thumb/v7e-m/fpv4-sp/hard/crti.o
                0x000382c4                _init
 .init          0x000382c8        0x8 c:/mesh/arm_gcc/bin/../lib/gcc/arm-none-eabi/6.3.1/thumb/v7e-m/fpv4-sp/hard/crtn.o
 *(.fini)
 .fini          0x000382d0        0x4 c:/mesh/arm_gcc/bin/../lib/gcc/arm-none-eabi/6.3.1/thumb/v7e-m/fpv4-sp/hard/crti.o
                0x000382d0                _fini
 .fini          0x000382d4        0x8 c:/mesh/arm_gcc/bin/../lib/gcc/arm-none-eabi/6.3.1/thumb/v7e-m/fpv4-sp/hard/crtn.o
 *crtbegin.o(.ctors)
 *crtbegin?.o(.ctors)
 *(EXCLUDE_FILE(*crtend.o *crtend?.o) .ctors)
 *(SORT(.ctors.*))
 *(.ctors)
 *crtbegin.o(.dtors)
 *crtbegin?.o(.dtors)
 *(EXCLUDE_FILE(*crtend.o *crtend?.o) .dtors)
 *(SORT(.dtors.*))
 *(.dtors)
 *(.rodata*)
 .rodata.adv_data.12401
                0x000382dc       0x12 examples/beaconing/CMakeFiles/beaconing_nrf52840_xxAA_s140_6.0.0.dir/src/main.c.obj
 .rodata.config_server_evt_cb.str1.1
                0x000382ee       0x19 examples/beaconing/CMakeFiles/beaconing_nrf52840_xxAA_s140_6.0.0.dir/src/main.c.obj
 .rodata.main.str1.1
                0x00038307       0x6d examples/beaconing/CMakeFiles/beaconing_nrf52840_xxAA_s140_6.0.0.dir/src/main.c.obj
 .rodata.provisioning_complete_cb.str1.1
                0x00038374       0x52 examples/beaconing/CMakeFiles/beaconing_nrf52840_xxAA_s140_6.0.0.dir/src/main.c.obj
 .rodata.rx_cb.str1.1
                0x000383c6       0x4f examples/beaconing/CMakeFiles/beaconing_nrf52840_xxAA_s140_6.0.0.dir/src/main.c.obj
 .rodata.static_auth_data.12427
                0x00038415       0x10 examples/beaconing/CMakeFiles/beaconing_nrf52840_xxAA_s140_6.0.0.dir/src/main.c.obj
 .rodata.mesh_softdevice_init.str1.1
                0x00038425       0xa4 examples/beaconing/CMakeFiles/beaconing_nrf52840_xxAA_s140_6.0.0.dir/__/common/src/mesh_softdevice_init.c.obj
 .rodata        0x000384c9        0xb examples/beaconing/CMakeFiles/beaconing_nrf52840_xxAA_s140_6.0.0.dir/__/common/src/mesh_provisionee.c.obj
 *fill*         0x000384d4        0xc 
 .rodata.delay_bytecode.8707
                0x000384e0        0x6 examples/beaconing/CMakeFiles/beaconing_nrf52840_xxAA_s140_6.0.0.dir/__/common/src/simple_hal.c.obj
 .rodata.m_buttons_list
                0x000384e6        0x4 examples/beaconing/CMakeFiles/beaconing_nrf52840_xxAA_s140_6.0.0.dir/__/common/src/simple_hal.c.obj
 .rodata.mesh_evt_cb.str1.1
                0x000384ea       0x2f examples/beaconing/CMakeFiles/beaconing_nrf52840_xxAA_s140_6.0.0.dir/__/__/mesh/access/src/access.c.obj
 .rodata.multiply_de_bruijn_bit_position.9553
                0x00038519       0x20 examples/beaconing/CMakeFiles/beaconing_nrf52840_xxAA_s140_6.0.0.dir/__/__/mesh/access/src/access.c.obj
 .rodata.packet_tx.str1.1
                0x00038539       0x1c examples/beaconing/CMakeFiles/beaconing_nrf52840_xxAA_s140_6.0.0.dir/__/__/mesh/access/src/access.c.obj
                                 0x24 (size before relaxing)
 *fill*         0x00038555        0x3 
 .rodata.m_flash_groups
                0x00038558       0xa8 examples/beaconing/CMakeFiles/beaconing_nrf52840_xxAA_s140_6.0.0.dir/__/__/mesh/access/src/device_state_manager.c.obj
 .rodata.multiply_de_bruijn_bit_position.9659
                0x00038600       0x20 examples/beaconing/CMakeFiles/beaconing_nrf52840_xxAA_s140_6.0.0.dir/__/__/mesh/access/src/device_state_manager.c.obj
 .rodata.app_error_fault_handler.str1.1
                0x00038620       0xbd examples/beaconing/CMakeFiles/beaconing_nrf52840_xxAA_s140_6.0.0.dir/__/common/src/app_error_weak.c.obj
 .rodata.mesh_assertion_handler.str1.1
                0x000386dd       0xbd examples/beaconing/CMakeFiles/beaconing_nrf52840_xxAA_s140_6.0.0.dir/__/common/src/assertion_handler_weak.c.obj
                                  0x1 (size before relaxing)
 *fill*         0x000386dd        0x3 
 .rodata        0x000386e0        0x8 examples/beaconing/CMakeFiles/beaconing_nrf52840_xxAA_s140_6.0.0.dir/__/__/models/config/src/config_server.c.obj
 .rodata.CSWTCH.121
                0x000386e8       0x10 examples/beaconing/CMakeFiles/beaconing_nrf52840_xxAA_s140_6.0.0.dir/__/__/models/config/src/config_server.c.obj
 .rodata.opcode_handlers
                0x000386f8      0x170 examples/beaconing/CMakeFiles/beaconing_nrf52840_xxAA_s140_6.0.0.dir/__/__/models/config/src/config_server.c.obj
 .rodata.m_opcode_handlers
                0x00038868       0x58 examples/beaconing/CMakeFiles/beaconing_nrf52840_xxAA_s140_6.0.0.dir/__/__/models/health/src/health_server.c.obj
 .rodata.multiply_de_bruijn_bit_position.9597
                0x000388c0       0x20 examples/beaconing/CMakeFiles/beaconing_nrf52840_xxAA_s140_6.0.0.dir/__/__/models/health/src/health_server.c.obj
 .rodata.m_prov_callbacks
                0x000388e0       0x10 examples/beaconing/CMakeFiles/beaconing_nrf52840_xxAA_s140_6.0.0.dir/__/__/mesh/prov/src/prov_provisionee.c.obj
 .rodata.prov_provisionee_cb_ack_received.str1.1
                0x000388f0       0x53 examples/beaconing/CMakeFiles/beaconing_nrf52840_xxAA_s140_6.0.0.dir/__/__/mesh/prov/src/prov_provisionee.c.obj
 .rodata.multiply_de_bruijn_bit_position.9606
                0x00038943       0x20 examples/beaconing/CMakeFiles/beaconing_nrf52840_xxAA_s140_6.0.0.dir/__/__/mesh/prov/src/nrf_mesh_prov.c.obj
 .rodata.pdu_sizes.11531
                0x00038963        0xa examples/beaconing/CMakeFiles/beaconing_nrf52840_xxAA_s140_6.0.0.dir/__/__/mesh/prov/src/provisioning.c.obj
 .rodata.alphanumeric.11636
                0x0003896d       0x25 examples/beaconing/CMakeFiles/beaconing_nrf52840_xxAA_s140_6.0.0.dir/__/__/mesh/prov/src/prov_utils.c.obj
 *fill*         0x00038992        0x2 
 .rodata.numeric_max.11630
                0x00038994       0x24 examples/beaconing/CMakeFiles/beaconing_nrf52840_xxAA_s140_6.0.0.dir/__/__/mesh/prov/src/prov_utils.c.obj
 .rodata.prov_utils_authentication_values_derive.str1.1
                0x000389b8        0x5 examples/beaconing/CMakeFiles/beaconing_nrf52840_xxAA_s140_6.0.0.dir/__/__/mesh/prov/src/prov_utils.c.obj
 .rodata.prov_utils_derive_keys.str1.1
                0x000389bd        0xf examples/beaconing/CMakeFiles/beaconing_nrf52840_xxAA_s140_6.0.0.dir/__/__/mesh/prov/src/prov_utils.c.obj
 .rodata.add_active_bearer.str1.1
                0x000389cc       0x2c examples/beaconing/CMakeFiles/beaconing_nrf52840_xxAA_s140_6.0.0.dir/__/__/mesh/prov/src/prov_bearer_adv.c.obj
 .rodata.crctable.11265
                0x000389f8      0x100 examples/beaconing/CMakeFiles/beaconing_nrf52840_xxAA_s140_6.0.0.dir/__/__/mesh/prov/src/prov_bearer_adv.c.obj
 .rodata.interface.11495
                0x00038af8       0x14 examples/beaconing/CMakeFiles/beaconing_nrf52840_xxAA_s140_6.0.0.dir/__/__/mesh/prov/src/prov_bearer_adv.c.obj
 .rodata.prov_bearer_adv_packet_in.str1.1
                0x00038b0c      0x26e examples/beaconing/CMakeFiles/beaconing_nrf52840_xxAA_s140_6.0.0.dir/__/__/mesh/prov/src/prov_bearer_adv.c.obj
 .rodata.tx_retry_cb.str1.1
                0x00038d7a       0x37 examples/beaconing/CMakeFiles/beaconing_nrf52840_xxAA_s140_6.0.0.dir/__/__/mesh/prov/src/prov_bearer_adv.c.obj
 .rodata.sar_ctx_cancel.str1.1
                0x00038db1       0x23 examples/beaconing/CMakeFiles/beaconing_nrf52840_xxAA_s140_6.0.0.dir/__/__/mesh/core/src/transport.c.obj
 .rodata.test_transport_decrypt.str1.1
                0x00038dd4       0x30 examples/beaconing/CMakeFiles/beaconing_nrf52840_xxAA_s140_6.0.0.dir/__/__/mesh/core/src/transport.c.obj
 .rodata.transport_packet_in.str1.1
                0x00038e04       0x24 examples/beaconing/CMakeFiles/beaconing_nrf52840_xxAA_s140_6.0.0.dir/__/__/mesh/core/src/transport.c.obj
 .rodata.upper_transport_access_packet_in.str1.1
                0x00038e28       0x29 examples/beaconing/CMakeFiles/beaconing_nrf52840_xxAA_s140_6.0.0.dir/__/__/mesh/core/src/transport.c.obj
 .rodata.upper_transport_packet_in.str1.1
                0x00038e51       0x2e examples/beaconing/CMakeFiles/beaconing_nrf52840_xxAA_s140_6.0.0.dir/__/__/mesh/core/src/transport.c.obj
 .rodata.upper_transport_tx.str1.1
                0x00038e7f        0xe examples/beaconing/CMakeFiles/beaconing_nrf52840_xxAA_s140_6.0.0.dir/__/__/mesh/core/src/transport.c.obj
                                 0x16 (size before relaxing)
 *fill*         0x00038e8d        0x3 
 .rodata.m_procedure_steps
                0x00038e90       0x28 examples/beaconing/CMakeFiles/beaconing_nrf52840_xxAA_s140_6.0.0.dir/__/__/mesh/core/src/flash_manager_defrag.c.obj
 .rodata.m_all_operations
                0x00038eb8       0x10 examples/beaconing/CMakeFiles/beaconing_nrf52840_xxAA_s140_6.0.0.dir/__/__/mesh/core/src/mesh_flash.c.obj
 .rodata.types_lookup.9352
                0x00038ec8        0x4 examples/beaconing/CMakeFiles/beaconing_nrf52840_xxAA_s140_6.0.0.dir/__/__/mesh/core/src/nrf_mesh_utils.c.obj
 .rodata.__func__.11824
                0x00038ecc       0x15 examples/beaconing/CMakeFiles/beaconing_nrf52840_xxAA_s140_6.0.0.dir/__/__/mesh/core/src/nrf_mesh.c.obj
 .rodata.nrf_mesh_listen.str1.1
                0x00038ee1       0x70 examples/beaconing/CMakeFiles/beaconing_nrf52840_xxAA_s140_6.0.0.dir/__/__/mesh/core/src/nrf_mesh.c.obj
 .rodata.nrf_mesh_packet_send.str1.1
                0x00038f51       0x70 examples/beaconing/CMakeFiles/beaconing_nrf52840_xxAA_s140_6.0.0.dir/__/__/mesh/core/src/nrf_mesh.c.obj
                                  0x4 (size before relaxing)
 *fill*         0x00038f51        0x1 
 .rodata.CSWTCH.7
                0x00038f52       0x10 examples/beaconing/CMakeFiles/beaconing_nrf52840_xxAA_s140_6.0.0.dir/__/__/mesh/core/src/hal.c.obj
 .rodata.Rb.7608
                0x00038f62       0x10 examples/beaconing/CMakeFiles/beaconing_nrf52840_xxAA_s140_6.0.0.dir/__/__/mesh/core/src/aes_cmac.c.obj
 .rodata        0x00038f72       0x15 examples/beaconing/CMakeFiles/beaconing_nrf52840_xxAA_s140_6.0.0.dir/__/__/mesh/core/src/enc.c.obj
 .rodata.network_packet_in.str1.1
                0x00038f87       0x48 examples/beaconing/CMakeFiles/beaconing_nrf52840_xxAA_s140_6.0.0.dir/__/__/mesh/core/src/network.c.obj
 .rodata.net_packet_decrypt.str1.1
                0x00038fcf       0x31 examples/beaconing/CMakeFiles/beaconing_nrf52840_xxAA_s140_6.0.0.dir/__/__/mesh/core/src/net_packet.c.obj
                                 0x39 (size before relaxing)
 .rodata        0x00039000        0x7 examples/beaconing/CMakeFiles/beaconing_nrf52840_xxAA_s140_6.0.0.dir/__/__/mesh/core/src/nrf_mesh_keygen.c.obj
 .rodata.log_callback_rtt.str1.1
                0x00039007       0x15 examples/beaconing/CMakeFiles/beaconing_nrf52840_xxAA_s140_6.0.0.dir/__/__/mesh/core/src/log.c.obj
 .rodata.str1.1
                0x0003901c       0x11 examples/beaconing/CMakeFiles/beaconing_nrf52840_xxAA_s140_6.0.0.dir/__/__/mesh/core/src/log.c.obj
 *fill*         0x0003902d        0x3 
 .rodata.INVALID_HEADER
                0x00039030        0x4 examples/beaconing/CMakeFiles/beaconing_nrf52840_xxAA_s140_6.0.0.dir/__/__/mesh/core/src/flash_manager.c.obj
                0x00039030                INVALID_HEADER
 .rodata.PADDING_HEADER
                0x00039034        0x4 examples/beaconing/CMakeFiles/beaconing_nrf52840_xxAA_s140_6.0.0.dir/__/__/mesh/core/src/flash_manager.c.obj
                0x00039034                PADDING_HEADER
 .rodata.SEAL_HEADER
                0x00039038        0x4 examples/beaconing/CMakeFiles/beaconing_nrf52840_xxAA_s140_6.0.0.dir/__/__/mesh/core/src/flash_manager.c.obj
                0x00039038                SEAL_HEADER
 .rodata.beacon_packet_in.str1.1
                0x0003903c       0x51 examples/beaconing/CMakeFiles/beaconing_nrf52840_xxAA_s140_6.0.0.dir/__/__/mesh/core/src/beacon.c.obj
                                 0x59 (size before relaxing)
 *fill*         0x0003908d        0x3 
 .rodata.cp_handler
                0x00039090        0x8 examples/beaconing/CMakeFiles/beaconing_nrf52840_xxAA_s140_6.0.0.dir/__/__/mesh/core/src/heartbeat.c.obj
 .rodata.beacon_tx.str1.1
                0x00039098       0x35 examples/beaconing/CMakeFiles/beaconing_nrf52840_xxAA_s140_6.0.0.dir/__/__/mesh/core/src/net_beacon.c.obj
 .rodata.net_beacon_init.str1.1
                0x000390cd        0x5 examples/beaconing/CMakeFiles/beaconing_nrf52840_xxAA_s140_6.0.0.dir/__/__/mesh/core/src/net_beacon.c.obj
 *fill*         0x000390d2        0x2 
 .rodata.m_interface
                0x000390d4        0xc examples/beaconing/CMakeFiles/beaconing_nrf52840_xxAA_s140_6.0.0.dir/__/__/mesh/core/src/core_tx_adv.c.obj
 .rodata.radio_mode_to_us_per_byte.9745
                0x000390e0        0x6 examples/beaconing/CMakeFiles/beaconing_nrf52840_xxAA_s140_6.0.0.dir/__/__/mesh/bearer/src/broadcast.c.obj
 .rodata.channel_rf_offsets.8986
                0x000390e6       0x28 examples/beaconing/CMakeFiles/beaconing_nrf52840_xxAA_s140_6.0.0.dir/__/__/mesh/bearer/src/radio_config.c.obj
 .rodata        0x0003910e        0x3 examples/beaconing/CMakeFiles/beaconing_nrf52840_xxAA_s140_6.0.0.dir/__/__/mesh/bearer/src/scanner.c.obj
 .rodata._DoInit.str1.1
                0x00039111       0x14 external/rtt/librtt_nrf52840_xxAA.a(SEGGER_RTT.c.obj)
 .rodata._aV2C.5497
                0x00039125       0x10 external/rtt/librtt_nrf52840_xxAA.a(SEGGER_RTT_printf.c.obj)
 *fill*         0x00039135        0x3 
 .rodata.curve_secp256r1
                0x00039138       0xb0 external/micro-ecc/libuECC_nrf52840_xxAA.a(uECC.c.obj)
 .rodata._global_impure_ptr
                0x000391e8        0x4 c:/mesh/arm_gcc/bin/../lib/gcc/arm-none-eabi/6.3.1/../../../../arm-none-eabi/lib/thumb/v7e-m/fpv4-sp/hard\libg_nano.a(lib_a-impure.o)
                0x000391e8                _global_impure_ptr
 .rodata._svfprintf_r.str1.1
                0x000391ec       0x11 c:/mesh/arm_gcc/bin/../lib/gcc/arm-none-eabi/6.3.1/../../../../arm-none-eabi/lib/thumb/v7e-m/fpv4-sp/hard\libg_nano.a(lib_a-nano-svfprintf.o)
 .rodata._printf_i.str1.1
                0x000391fd       0x11 c:/mesh/arm_gcc/bin/../lib/gcc/arm-none-eabi/6.3.1/../../../../arm-none-eabi/lib/thumb/v7e-m/fpv4-sp/hard\libg_nano.a(lib_a-nano-vfprintf_i.o)
                                 0x22 (size before relaxing)
 *(.eh_frame*)
 *fill*         0x0003920e        0x2 
 .eh_frame      0x00039210        0x0 c:/mesh/arm_gcc/bin/../lib/gcc/arm-none-eabi/6.3.1/thumb/v7e-m/fpv4-sp/hard/crtbegin.o
 .eh_frame      0x00039210        0x4 c:/mesh/arm_gcc/bin/../lib/gcc/arm-none-eabi/6.3.1/thumb/v7e-m/fpv4-sp/hard/crtend.o

.glue_7         0x00039214        0x0
 .glue_7        0x00039214        0x0 linker stubs

.glue_7t        0x00039214        0x0
 .glue_7t       0x00039214        0x0 linker stubs

.vfp11_veneer   0x00039214        0x0
 .vfp11_veneer  0x00039214        0x0 linker stubs

.v4_bx          0x00039214        0x0
 .v4_bx         0x00039214        0x0 linker stubs

.iplt           0x00039214        0x0
 .iplt          0x00039214        0x0 c:/mesh/arm_gcc/bin/../lib/gcc/arm-none-eabi/6.3.1/thumb/v7e-m/fpv4-sp/hard/crtbegin.o

.pwr_mgmt_data  0x00039214        0x0
                [!provide]                PROVIDE (__start_pwr_mgmt_data, .)
 *(SORT(.pwr_mgmt_data*))
                [!provide]                PROVIDE (__stop_pwr_mgmt_data, .)

.log_const_data
                0x00039214        0x0
                [!provide]                PROVIDE (__start_log_const_data, .)
 *(.log_const_data)
                [!provide]                PROVIDE (__stop_log_const_data, .)

.cli_command    0x00039214        0x0
                [!provide]                PROVIDE (__start_cli_command, .)
 *(.cli_command)
                [!provide]                PROVIDE (__stop_cli_command, .)

.sdh_stack_observers
                0x00039214        0x0
                [!provide]                PROVIDE (__start_sdh_stack_observers, .)
 *(SORT(.sdh_stack_observers*))
                [!provide]                PROVIDE (__stop_sdh_stack_observers, .)

.sdh_req_observers
                0x00039214        0x0
                [!provide]                PROVIDE (__start_sdh_req_observers, .)
 *(SORT(.sdh_req_observers*))
                [!provide]                PROVIDE (__stop_sdh_req_observers, .)

.sdh_state_observers
                0x00039214        0x0
                [!provide]                PROVIDE (__start_sdh_state_observers, .)
 *(SORT(.sdh_state_observers*))
                [!provide]                PROVIDE (__stop_sdh_state_observers, .)

.sdh_ant_observers
                0x00039214        0x0
                [!provide]                PROVIDE (__start_sdh_ant_observers, .)
 *(SORT(.sdh_ant_observers*))
                [!provide]                PROVIDE (__stop_sdh_ant_observers, .)

.sdh_ble_observers
                0x00039214        0x0
                [!provide]                PROVIDE (__start_sdh_ble_observers, .)
 *(SORT(.sdh_ble_observers*))
                [!provide]                PROVIDE (__stop_sdh_ble_observers, .)

.sdh_soc_observers
                0x00039214        0x0
                [!provide]                PROVIDE (__start_sdh_soc_observers, .)
 *(SORT(.sdh_soc_observers*))
                [!provide]                PROVIDE (__stop_sdh_soc_observers, .)

.ARM.extab
 *(.ARM.extab* .gnu.linkonce.armextab.*)
                0x00039214                __exidx_start = .

.ARM.exidx      0x00039214        0x8
 *(.ARM.exidx* .gnu.linkonce.armexidx.*)
 .ARM.exidx     0x00039214        0x8 c:/mesh/arm_gcc/bin/../lib/gcc/arm-none-eabi/6.3.1/../../../../arm-none-eabi/lib/thumb/v7e-m/fpv4-sp/hard/crt0.o
                0x0003921c                __exidx_end = .
                0x0003921c                __etext = .

.rel.dyn        0x0003921c        0x0
 .rel.iplt      0x0003921c        0x0 c:/mesh/arm_gcc/bin/../lib/gcc/arm-none-eabi/6.3.1/thumb/v7e-m/fpv4-sp/hard/crtbegin.o

.data           0x200032c8      0x140 load address 0x0003921c
                0x200032c8                __data_start__ = .
 *(vtable)
 *(.data*)
 .data.s_evt_handler.11348
                0x200032c8        0x8 examples/beaconing/CMakeFiles/beaconing_nrf52840_xxAA_s140_6.0.0.dir/__/__/mesh/stack/src/mesh_stack.c.obj
 .data.flash_add_mem_available_struct.10677
                0x200032d0       0x10 examples/beaconing/CMakeFiles/beaconing_nrf52840_xxAA_s140_6.0.0.dir/__/__/mesh/access/src/access.c.obj
 .data.flash_clear_mem_available_struct.10766
                0x200032e0       0x10 examples/beaconing/CMakeFiles/beaconing_nrf52840_xxAA_s140_6.0.0.dir/__/__/mesh/access/src/access.c.obj
 .data.flash_store_mem_available_struct.10790
                0x200032f0       0x10 examples/beaconing/CMakeFiles/beaconing_nrf52840_xxAA_s140_6.0.0.dir/__/__/mesh/access/src/access.c.obj
 .data.m_default_ttl
                0x20003300        0x1 examples/beaconing/CMakeFiles/beaconing_nrf52840_xxAA_s140_6.0.0.dir/__/__/mesh/access/src/access.c.obj
 *fill*         0x20003301        0x3 
 .data.mem_listener.10966
                0x20003304       0x10 examples/beaconing/CMakeFiles/beaconing_nrf52840_xxAA_s140_6.0.0.dir/__/__/mesh/access/src/device_state_manager.c.obj
 .data.mem_listener.10992
                0x20003314       0x10 examples/beaconing/CMakeFiles/beaconing_nrf52840_xxAA_s140_6.0.0.dir/__/__/mesh/access/src/device_state_manager.c.obj
 .data.wait.9229
                0x20003324        0x1 examples/beaconing/CMakeFiles/beaconing_nrf52840_xxAA_s140_6.0.0.dir/__/common/src/app_error_weak.c.obj
 *fill*         0x20003325        0x1 
 .data.m_config_server_handle
                0x20003326        0x2 examples/beaconing/CMakeFiles/beaconing_nrf52840_xxAA_s140_6.0.0.dir/__/__/models/config/src/config_server.c.obj
 .data.m_mesh_evt_handler
                0x20003328        0x8 examples/beaconing/CMakeFiles/beaconing_nrf52840_xxAA_s140_6.0.0.dir/__/__/models/config/src/config_server.c.obj
 .data.m_async_process_flag
                0x20003330        0x4 examples/beaconing/CMakeFiles/beaconing_nrf52840_xxAA_s140_6.0.0.dir/__/__/mesh/prov/src/prov_bearer_adv.c.obj
 .data.mem_listener.10103
                0x20003334       0x10 examples/beaconing/CMakeFiles/beaconing_nrf52840_xxAA_s140_6.0.0.dir/__/__/mesh/core/src/net_state.c.obj
 .data.mem_listener.10108
                0x20003344       0x10 examples/beaconing/CMakeFiles/beaconing_nrf52840_xxAA_s140_6.0.0.dir/__/__/mesh/core/src/net_state.c.obj
 .data.mem_listener.10122
                0x20003354       0x10 examples/beaconing/CMakeFiles/beaconing_nrf52840_xxAA_s140_6.0.0.dir/__/__/mesh/core/src/net_state.c.obj
 .data.mem_listener.10139
                0x20003364       0x10 examples/beaconing/CMakeFiles/beaconing_nrf52840_xxAA_s140_6.0.0.dir/__/__/mesh/core/src/net_state.c.obj
 .data.m_nrf_mesh_listener
                0x20003374        0xc examples/beaconing/CMakeFiles/beaconing_nrf52840_xxAA_s140_6.0.0.dir/__/__/mesh/core/src/nrf_mesh.c.obj
 .data.g_log_dbg_lvl
                0x20003380        0x4 examples/beaconing/CMakeFiles/beaconing_nrf52840_xxAA_s140_6.0.0.dir/__/__/mesh/core/src/log.c.obj
                0x20003380                g_log_dbg_lvl
 .data.g_log_dbg_msk
                0x20003384        0x4 examples/beaconing/CMakeFiles/beaconing_nrf52840_xxAA_s140_6.0.0.dir/__/__/mesh/core/src/log.c.obj
                0x20003384                g_log_dbg_msk
 .data.g_log_hex_digits
                0x20003388        0x4 examples/beaconing/CMakeFiles/beaconing_nrf52840_xxAA_s140_6.0.0.dir/__/__/mesh/core/src/log.c.obj
                0x20003388                g_log_hex_digits
 .data.m_log_callback
                0x2000338c        0x4 examples/beaconing/CMakeFiles/beaconing_nrf52840_xxAA_s140_6.0.0.dir/__/__/mesh/core/src/log.c.obj
                0x2000338c                m_log_callback
 .data.SystemCoreClock
                0x20003390        0x4 examples/beaconing/CMakeFiles/beaconing_nrf52840_xxAA_s140_6.0.0.dir/C_/b/nRF5_SDK_15.0.0_a53641a/modules/nrfx/mdk/system_nrf52840.c.obj
                0x20003390                SystemCoreClock
 .data.g_rng_function
                0x20003394        0x4 external/micro-ecc/libuECC_nrf52840_xxAA.a(uECC.c.obj)
 .data._impure_ptr
                0x20003398        0x4 c:/mesh/arm_gcc/bin/../lib/gcc/arm-none-eabi/6.3.1/../../../../arm-none-eabi/lib/thumb/v7e-m/fpv4-sp/hard\libg_nano.a(lib_a-impure.o)
                0x20003398                _impure_ptr
 .data.impure_data
                0x2000339c       0x60 c:/mesh/arm_gcc/bin/../lib/gcc/arm-none-eabi/6.3.1/../../../../arm-none-eabi/lib/thumb/v7e-m/fpv4-sp/hard\libg_nano.a(lib_a-impure.o)
                0x200033fc                . = ALIGN (0x4)
                0x200033fc                PROVIDE (__preinit_array_start, .)
 *(.preinit_array)
                0x200033fc                PROVIDE (__preinit_array_end, .)
                0x200033fc                . = ALIGN (0x4)
                0x200033fc                PROVIDE (__init_array_start, .)
 *(SORT(.init_array.*))
 *(.init_array)
 .init_array    0x200033fc        0x4 c:/mesh/arm_gcc/bin/../lib/gcc/arm-none-eabi/6.3.1/thumb/v7e-m/fpv4-sp/hard/crtbegin.o
                0x20003400                PROVIDE (__init_array_end, .)
                0x20003400                . = ALIGN (0x4)
                [!provide]                PROVIDE (__fini_array_start, .)
 *(SORT(.fini_array.*))
 *(.fini_array)
 .fini_array    0x20003400        0x4 c:/mesh/arm_gcc/bin/../lib/gcc/arm-none-eabi/6.3.1/thumb/v7e-m/fpv4-sp/hard/crtbegin.o
                [!provide]                PROVIDE (__fini_array_end, .)
 *(.jcr*)
 .jcr           0x20003404        0x0 c:/mesh/arm_gcc/bin/../lib/gcc/arm-none-eabi/6.3.1/thumb/v7e-m/fpv4-sp/hard/crtbegin.o
 .jcr           0x20003404        0x4 c:/mesh/arm_gcc/bin/../lib/gcc/arm-none-eabi/6.3.1/thumb/v7e-m/fpv4-sp/hard/crtend.o
                0x20003408                . = ALIGN (0x4)
                0x20003408                __data_end__ = .
LOAD c:/mesh/arm_gcc/bin/../lib/gcc/arm-none-eabi/6.3.1/thumb/v7e-m/fpv4-sp/hard/crti.o
LOAD c:/mesh/arm_gcc/bin/../lib/gcc/arm-none-eabi/6.3.1/thumb/v7e-m/fpv4-sp/hard/crtbegin.o
LOAD c:/mesh/arm_gcc/bin/../lib/gcc/arm-none-eabi/6.3.1/../../../../arm-none-eabi/lib/thumb/v7e-m/fpv4-sp/hard/crt0.o
LOAD examples/beaconing/CMakeFiles/beaconing_nrf52840_xxAA_s140_6.0.0.dir/src/main.c.obj
LOAD examples/beaconing/CMakeFiles/beaconing_nrf52840_xxAA_s140_6.0.0.dir/__/__/mesh/stack/src/mesh_stack.c.obj
LOAD examples/beaconing/CMakeFiles/beaconing_nrf52840_xxAA_s140_6.0.0.dir/__/common/src/mesh_softdevice_init.c.obj
LOAD examples/beaconing/CMakeFiles/beaconing_nrf52840_xxAA_s140_6.0.0.dir/__/common/src/mesh_provisionee.c.obj
LOAD examples/beaconing/CMakeFiles/beaconing_nrf52840_xxAA_s140_6.0.0.dir/__/common/src/simple_hal.c.obj
LOAD examples/beaconing/CMakeFiles/beaconing_nrf52840_xxAA_s140_6.0.0.dir/__/__/mesh/access/src/access_publish.c.obj
LOAD examples/beaconing/CMakeFiles/beaconing_nrf52840_xxAA_s140_6.0.0.dir/__/__/mesh/access/src/access.c.obj
LOAD examples/beaconing/CMakeFiles/beaconing_nrf52840_xxAA_s140_6.0.0.dir/__/__/mesh/access/src/access_reliable.c.obj
LOAD examples/beaconing/CMakeFiles/beaconing_nrf52840_xxAA_s140_6.0.0.dir/__/__/mesh/access/src/device_state_manager.c.obj
LOAD examples/beaconing/CMakeFiles/beaconing_nrf52840_xxAA_s140_6.0.0.dir/__/nrf_mesh_weak.c.obj
LOAD examples/beaconing/CMakeFiles/beaconing_nrf52840_xxAA_s140_6.0.0.dir/__/common/src/app_error_weak.c.obj
LOAD examples/beaconing/CMakeFiles/beaconing_nrf52840_xxAA_s140_6.0.0.dir/__/common/src/assertion_handler_weak.c.obj
LOAD examples/beaconing/CMakeFiles/beaconing_nrf52840_xxAA_s140_6.0.0.dir/__/__/models/config/src/composition_data.c.obj
LOAD examples/beaconing/CMakeFiles/beaconing_nrf52840_xxAA_s140_6.0.0.dir/__/__/models/config/src/config_server.c.obj
LOAD examples/beaconing/CMakeFiles/beaconing_nrf52840_xxAA_s140_6.0.0.dir/__/__/models/config/src/packed_index_list.c.obj
LOAD examples/beaconing/CMakeFiles/beaconing_nrf52840_xxAA_s140_6.0.0.dir/__/__/models/health/src/health_server.c.obj
LOAD examples/beaconing/CMakeFiles/beaconing_nrf52840_xxAA_s140_6.0.0.dir/__/__/mesh/prov/src/prov_provisionee.c.obj
LOAD examples/beaconing/CMakeFiles/beaconing_nrf52840_xxAA_s140_6.0.0.dir/__/__/mesh/prov/src/nrf_mesh_prov.c.obj
LOAD examples/beaconing/CMakeFiles/beaconing_nrf52840_xxAA_s140_6.0.0.dir/__/__/mesh/prov/src/provisioning.c.obj
LOAD examples/beaconing/CMakeFiles/beaconing_nrf52840_xxAA_s140_6.0.0.dir/__/__/mesh/prov/src/prov_beacon.c.obj
LOAD examples/beaconing/CMakeFiles/beaconing_nrf52840_xxAA_s140_6.0.0.dir/__/__/mesh/prov/src/prov_utils.c.obj
LOAD examples/beaconing/CMakeFiles/beaconing_nrf52840_xxAA_s140_6.0.0.dir/__/__/mesh/prov/src/prov_bearer_adv.c.obj
LOAD examples/beaconing/CMakeFiles/beaconing_nrf52840_xxAA_s140_6.0.0.dir/__/__/mesh/core/src/internal_event.c.obj
LOAD examples/beaconing/CMakeFiles/beaconing_nrf52840_xxAA_s140_6.0.0.dir/__/__/mesh/core/src/nrf_mesh_configure.c.obj
LOAD examples/beaconing/CMakeFiles/beaconing_nrf52840_xxAA_s140_6.0.0.dir/__/__/mesh/core/src/aes.c.obj
LOAD examples/beaconing/CMakeFiles/beaconing_nrf52840_xxAA_s140_6.0.0.dir/__/__/mesh/core/src/msg_cache.c.obj
LOAD examples/beaconing/CMakeFiles/beaconing_nrf52840_xxAA_s140_6.0.0.dir/__/__/mesh/core/src/transport.c.obj
LOAD examples/beaconing/CMakeFiles/beaconing_nrf52840_xxAA_s140_6.0.0.dir/__/__/mesh/core/src/event.c.obj
LOAD examples/beaconing/CMakeFiles/beaconing_nrf52840_xxAA_s140_6.0.0.dir/__/__/mesh/core/src/packet_buffer.c.obj
LOAD examples/beaconing/CMakeFiles/beaconing_nrf52840_xxAA_s140_6.0.0.dir/__/__/mesh/core/src/flash_manager_defrag.c.obj
LOAD examples/beaconing/CMakeFiles/beaconing_nrf52840_xxAA_s140_6.0.0.dir/__/__/mesh/core/src/fifo.c.obj
LOAD examples/beaconing/CMakeFiles/beaconing_nrf52840_xxAA_s140_6.0.0.dir/__/__/mesh/core/src/nrf_flash.c.obj
LOAD examples/beaconing/CMakeFiles/beaconing_nrf52840_xxAA_s140_6.0.0.dir/__/__/mesh/core/src/packet_mgr.c.obj
LOAD examples/beaconing/CMakeFiles/beaconing_nrf52840_xxAA_s140_6.0.0.dir/__/__/mesh/core/src/net_state.c.obj
LOAD examples/beaconing/CMakeFiles/beaconing_nrf52840_xxAA_s140_6.0.0.dir/__/__/mesh/core/src/mesh_flash.c.obj
LOAD examples/beaconing/CMakeFiles/beaconing_nrf52840_xxAA_s140_6.0.0.dir/__/__/mesh/core/src/nrf_mesh_utils.c.obj
LOAD examples/beaconing/CMakeFiles/beaconing_nrf52840_xxAA_s140_6.0.0.dir/__/__/mesh/core/src/nrf_mesh.c.obj
LOAD examples/beaconing/CMakeFiles/beaconing_nrf52840_xxAA_s140_6.0.0.dir/__/__/mesh/core/src/queue.c.obj
LOAD examples/beaconing/CMakeFiles/beaconing_nrf52840_xxAA_s140_6.0.0.dir/__/__/mesh/core/src/hal.c.obj
LOAD examples/beaconing/CMakeFiles/beaconing_nrf52840_xxAA_s140_6.0.0.dir/__/__/mesh/core/src/aes_cmac.c.obj
LOAD examples/beaconing/CMakeFiles/beaconing_nrf52840_xxAA_s140_6.0.0.dir/__/__/mesh/core/src/timer_scheduler.c.obj
LOAD examples/beaconing/CMakeFiles/beaconing_nrf52840_xxAA_s140_6.0.0.dir/__/__/mesh/core/src/timer.c.obj
LOAD examples/beaconing/CMakeFiles/beaconing_nrf52840_xxAA_s140_6.0.0.dir/__/__/mesh/core/src/ticker.c.obj
LOAD examples/beaconing/CMakeFiles/beaconing_nrf52840_xxAA_s140_6.0.0.dir/__/__/mesh/core/src/rand.c.obj
LOAD examples/beaconing/CMakeFiles/beaconing_nrf52840_xxAA_s140_6.0.0.dir/__/__/mesh/core/src/nrf_mesh_opt.c.obj
LOAD examples/beaconing/CMakeFiles/beaconing_nrf52840_xxAA_s140_6.0.0.dir/__/__/mesh/core/src/timeslot.c.obj
LOAD examples/beaconing/CMakeFiles/beaconing_nrf52840_xxAA_s140_6.0.0.dir/__/__/mesh/core/src/bearer_event.c.obj
LOAD examples/beaconing/CMakeFiles/beaconing_nrf52840_xxAA_s140_6.0.0.dir/__/__/mesh/core/src/enc.c.obj
LOAD examples/beaconing/CMakeFiles/beaconing_nrf52840_xxAA_s140_6.0.0.dir/__/__/mesh/core/src/network.c.obj
LOAD examples/beaconing/CMakeFiles/beaconing_nrf52840_xxAA_s140_6.0.0.dir/__/__/mesh/core/src/net_packet.c.obj
LOAD examples/beaconing/CMakeFiles/beaconing_nrf52840_xxAA_s140_6.0.0.dir/__/__/mesh/core/src/msqueue.c.obj
LOAD examples/beaconing/CMakeFiles/beaconing_nrf52840_xxAA_s140_6.0.0.dir/__/__/mesh/core/src/nrf_mesh_keygen.c.obj
LOAD examples/beaconing/CMakeFiles/beaconing_nrf52840_xxAA_s140_6.0.0.dir/__/__/mesh/core/src/cache.c.obj
LOAD examples/beaconing/CMakeFiles/beaconing_nrf52840_xxAA_s140_6.0.0.dir/__/__/mesh/core/src/uri.c.obj
LOAD examples/beaconing/CMakeFiles/beaconing_nrf52840_xxAA_s140_6.0.0.dir/__/__/mesh/core/src/list.c.obj
LOAD examples/beaconing/CMakeFiles/beaconing_nrf52840_xxAA_s140_6.0.0.dir/__/__/mesh/core/src/log.c.obj
LOAD examples/beaconing/CMakeFiles/beaconing_nrf52840_xxAA_s140_6.0.0.dir/__/__/mesh/core/src/flash_manager.c.obj
LOAD examples/beaconing/CMakeFiles/beaconing_nrf52840_xxAA_s140_6.0.0.dir/__/__/mesh/core/src/ccm_soft.c.obj
LOAD examples/beaconing/CMakeFiles/beaconing_nrf52840_xxAA_s140_6.0.0.dir/__/__/mesh/core/src/toolchain.c.obj
LOAD examples/beaconing/CMakeFiles/beaconing_nrf52840_xxAA_s140_6.0.0.dir/__/__/mesh/core/src/replay_cache.c.obj
LOAD examples/beaconing/CMakeFiles/beaconing_nrf52840_xxAA_s140_6.0.0.dir/__/__/mesh/core/src/beacon.c.obj
LOAD examples/beaconing/CMakeFiles/beaconing_nrf52840_xxAA_s140_6.0.0.dir/__/__/mesh/core/src/flash_manager_internal.c.obj
LOAD examples/beaconing/CMakeFiles/beaconing_nrf52840_xxAA_s140_6.0.0.dir/__/__/mesh/core/src/core_tx.c.obj
LOAD examples/beaconing/CMakeFiles/beaconing_nrf52840_xxAA_s140_6.0.0.dir/__/__/mesh/core/src/heartbeat.c.obj
LOAD examples/beaconing/CMakeFiles/beaconing_nrf52840_xxAA_s140_6.0.0.dir/__/__/mesh/core/src/net_beacon.c.obj
LOAD examples/beaconing/CMakeFiles/beaconing_nrf52840_xxAA_s140_6.0.0.dir/__/__/mesh/core/src/fsm.c.obj
LOAD examples/beaconing/CMakeFiles/beaconing_nrf52840_xxAA_s140_6.0.0.dir/__/__/mesh/core/src/core_tx_adv.c.obj
LOAD examples/beaconing/CMakeFiles/beaconing_nrf52840_xxAA_s140_6.0.0.dir/__/__/mesh/bearer/src/ad_listener.c.obj
LOAD examples/beaconing/CMakeFiles/beaconing_nrf52840_xxAA_s140_6.0.0.dir/__/__/mesh/bearer/src/ad_type_filter.c.obj
LOAD examples/beaconing/CMakeFiles/beaconing_nrf52840_xxAA_s140_6.0.0.dir/__/__/mesh/bearer/src/adv_packet_filter.c.obj
LOAD examples/beaconing/CMakeFiles/beaconing_nrf52840_xxAA_s140_6.0.0.dir/__/__/mesh/bearer/src/advertiser.c.obj
LOAD examples/beaconing/CMakeFiles/beaconing_nrf52840_xxAA_s140_6.0.0.dir/__/__/mesh/bearer/src/bearer_handler.c.obj
LOAD examples/beaconing/CMakeFiles/beaconing_nrf52840_xxAA_s140_6.0.0.dir/__/__/mesh/bearer/src/broadcast.c.obj
LOAD examples/beaconing/CMakeFiles/beaconing_nrf52840_xxAA_s140_6.0.0.dir/__/__/mesh/bearer/src/filter_engine.c.obj
LOAD examples/beaconing/CMakeFiles/beaconing_nrf52840_xxAA_s140_6.0.0.dir/__/__/mesh/bearer/src/gap_address_filter.c.obj
LOAD examples/beaconing/CMakeFiles/beaconing_nrf52840_xxAA_s140_6.0.0.dir/__/__/mesh/bearer/src/radio_config.c.obj
LOAD examples/beaconing/CMakeFiles/beaconing_nrf52840_xxAA_s140_6.0.0.dir/__/__/mesh/bearer/src/rssi_filter.c.obj
LOAD examples/beaconing/CMakeFiles/beaconing_nrf52840_xxAA_s140_6.0.0.dir/__/__/mesh/bearer/src/scanner.c.obj
LOAD examples/beaconing/CMakeFiles/beaconing_nrf52840_xxAA_s140_6.0.0.dir/C_/b/nRF5_SDK_15.0.0_a53641a/modules/nrfx/mdk/system_nrf52840.c.obj
LOAD examples/beaconing/CMakeFiles/beaconing_nrf52840_xxAA_s140_6.0.0.dir/C_/b/nRF5_SDK_15.0.0_a53641a/modules/nrfx/mdk/gcc_startup_nrf52840.S.obj
LOAD examples/beaconing/CMakeFiles/beaconing_nrf52840_xxAA_s140_6.0.0.dir/C_/b/nRF5_SDK_15.0.0_a53641a/components/libraries/util/app_error.c.obj
LOAD examples/beaconing/CMakeFiles/beaconing_nrf52840_xxAA_s140_6.0.0.dir/C_/b/nRF5_SDK_15.0.0_a53641a/components/libraries/util/app_error_handler_gcc.c.obj
LOAD external/rtt/librtt_nrf52840_xxAA.a
LOAD external/micro-ecc/libuECC_nrf52840_xxAA.a
START GROUP
LOAD c:/mesh/arm_gcc/bin/../lib/gcc/arm-none-eabi/6.3.1/thumb/v7e-m/fpv4-sp/hard\libgcc.a
LOAD c:/mesh/arm_gcc/bin/../lib/gcc/arm-none-eabi/6.3.1/../../../../arm-none-eabi/lib/thumb/v7e-m/fpv4-sp/hard\libg_nano.a
LOAD c:/mesh/arm_gcc/bin/../lib/gcc/arm-none-eabi/6.3.1/../../../../arm-none-eabi/lib/thumb/v7e-m/fpv4-sp/hard\libc_nano.a
END GROUP
START GROUP
LOAD c:/mesh/arm_gcc/bin/../lib/gcc/arm-none-eabi/6.3.1/thumb/v7e-m/fpv4-sp/hard\libgcc.a
LOAD c:/mesh/arm_gcc/bin/../lib/gcc/arm-none-eabi/6.3.1/../../../../arm-none-eabi/lib/thumb/v7e-m/fpv4-sp/hard\libc_nano.a
END GROUP
LOAD c:/mesh/arm_gcc/bin/../lib/gcc/arm-none-eabi/6.3.1/thumb/v7e-m/fpv4-sp/hard/crtend.o
LOAD c:/mesh/arm_gcc/bin/../lib/gcc/arm-none-eabi/6.3.1/thumb/v7e-m/fpv4-sp/hard/crtn.o
START GROUP
LOAD c:/mesh/arm_gcc/bin/../lib/gcc/arm-none-eabi/6.3.1/thumb/v7e-m/fpv4-sp/hard\libgcc.a
LOAD c:/mesh/arm_gcc/bin/../lib/gcc/arm-none-eabi/6.3.1/../../../../arm-none-eabi/lib/thumb/v7e-m/fpv4-sp/hard\libc.a
LOAD c:/mesh/arm_gcc/bin/../lib/gcc/arm-none-eabi/6.3.1/../../../../arm-none-eabi/lib/thumb/v7e-m/fpv4-sp/hard\libnosys.a
END GROUP

.igot.plt       0x20003408        0x0 load address 0x0003935c
 .igot.plt      0x20003408        0x0 c:/mesh/arm_gcc/bin/../lib/gcc/arm-none-eabi/6.3.1/thumb/v7e-m/fpv4-sp/hard/crtbegin.o
                0x20003408                . = ALIGN (0x4)

.svc_data       0x20003408        0x0
                [!provide]                PROVIDE (__start_svc_data, .)
 *(.svc_data)
                [!provide]                PROVIDE (__stop_svc_data, .)

.fs_data        0x20003408        0x0
                [!provide]                PROVIDE (__start_fs_data, .)
 *(.fs_data)
                [!provide]                PROVIDE (__stop_fs_data, .)

.log_dynamic_data
                0x20003408        0x0
                [!provide]                PROVIDE (__start_log_dynamic_data, .)
 *(.log_dynamic_data)
                [!provide]                PROVIDE (__stop_log_dynamic_data, .)

.cli_sorted_cmd_ptrs
                0x20003408        0x0
                [!provide]                PROVIDE (__start_cli_sorted_cmd_ptrs, .)
 *(.cli_sorted_cmd_ptrs)
                [!provide]                PROVIDE (__stop_cli_sorted_cmd_ptrs, .)

.bss            0x20003408     0x33d0 load address 0x00039360
                0x20003408                . = ALIGN (0x4)
                0x20003408                __bss_start__ = .
 *(.bss*)
 .bss           0x20003408       0x1c c:/mesh/arm_gcc/bin/../lib/gcc/arm-none-eabi/6.3.1/thumb/v7e-m/fpv4-sp/hard/crtbegin.o
 .bss.m_adv_buffer
                0x20003424       0x80 examples/beaconing/CMakeFiles/beaconing_nrf52840_xxAA_s140_6.0.0.dir/src/main.c.obj
 .bss.m_advertiser
                0x200034a4       0x98 examples/beaconing/CMakeFiles/beaconing_nrf52840_xxAA_s140_6.0.0.dir/src/main.c.obj
 .bss.m_device_provisioned
                0x2000353c        0x1 examples/beaconing/CMakeFiles/beaconing_nrf52840_xxAA_s140_6.0.0.dir/src/main.c.obj
 *fill*         0x2000353d        0x3 
 .bss.m_health_server
                0x20003540       0x5c examples/beaconing/CMakeFiles/beaconing_nrf52840_xxAA_s140_6.0.0.dir/__/__/mesh/stack/src/mesh_stack.c.obj
 .bss.m_init_params
                0x2000359c       0x24 examples/beaconing/CMakeFiles/beaconing_nrf52840_xxAA_s140_6.0.0.dir/__/__/mesh/stack/src/mesh_stack.c.obj
 .bss.m_device_provisioned
                0x200035c0        0x1 examples/beaconing/CMakeFiles/beaconing_nrf52840_xxAA_s140_6.0.0.dir/__/common/src/mesh_provisionee.c.obj
 *fill*         0x200035c1        0x3 
 .bss.m_params  0x200035c4        0xc examples/beaconing/CMakeFiles/beaconing_nrf52840_xxAA_s140_6.0.0.dir/__/common/src/mesh_provisionee.c.obj
 .bss.m_private_key
                0x200035d0       0x20 examples/beaconing/CMakeFiles/beaconing_nrf52840_xxAA_s140_6.0.0.dir/__/common/src/mesh_provisionee.c.obj
 .bss.m_prov_bearer_adv
                0x200035f0      0x1c4 examples/beaconing/CMakeFiles/beaconing_nrf52840_xxAA_s140_6.0.0.dir/__/common/src/mesh_provisionee.c.obj
 .bss.m_prov_ctx
                0x200037b4      0x134 examples/beaconing/CMakeFiles/beaconing_nrf52840_xxAA_s140_6.0.0.dir/__/common/src/mesh_provisionee.c.obj
 .bss.m_public_key
                0x200038e8       0x40 examples/beaconing/CMakeFiles/beaconing_nrf52840_xxAA_s140_6.0.0.dir/__/common/src/mesh_provisionee.c.obj
 .bss.m_button_handler_cb
                0x20003928        0x4 examples/beaconing/CMakeFiles/beaconing_nrf52840_xxAA_s140_6.0.0.dir/__/common/src/simple_hal.c.obj
 .bss.m_last_button_press
                0x2000392c        0x4 examples/beaconing/CMakeFiles/beaconing_nrf52840_xxAA_s140_6.0.0.dir/__/common/src/simple_hal.c.obj
 .bss.m_publish_timer
                0x20003930       0x18 examples/beaconing/CMakeFiles/beaconing_nrf52840_xxAA_s140_6.0.0.dir/__/__/mesh/access/src/access_publish.c.obj
 .bss.m_publish_timer_counter
                0x20003948        0x4 examples/beaconing/CMakeFiles/beaconing_nrf52840_xxAA_s140_6.0.0.dir/__/__/mesh/access/src/access_publish.c.obj
 .bss.m_publish_timer_running
                0x2000394c        0x1 examples/beaconing/CMakeFiles/beaconing_nrf52840_xxAA_s140_6.0.0.dir/__/__/mesh/access/src/access_publish.c.obj
 .bss.m_timer_resolution
                0x2000394d        0x1 examples/beaconing/CMakeFiles/beaconing_nrf52840_xxAA_s140_6.0.0.dir/__/__/mesh/access/src/access_publish.c.obj
 *fill*         0x2000394e        0x2 
 .bss.mp_publication_list
                0x20003950        0x4 examples/beaconing/CMakeFiles/beaconing_nrf52840_xxAA_s140_6.0.0.dir/__/__/mesh/access/src/access_publish.c.obj
 .bss.m_element_pool
                0x20003954        0x6 examples/beaconing/CMakeFiles/beaconing_nrf52840_xxAA_s140_6.0.0.dir/__/__/mesh/access/src/access.c.obj
 *fill*         0x2000395a        0x2 
 .bss.m_evt_handler
                0x2000395c        0x8 examples/beaconing/CMakeFiles/beaconing_nrf52840_xxAA_s140_6.0.0.dir/__/__/mesh/access/src/access.c.obj
 .bss.m_flash_manager
                0x20003964       0x24 examples/beaconing/CMakeFiles/beaconing_nrf52840_xxAA_s140_6.0.0.dir/__/__/mesh/access/src/access.c.obj
 .bss.m_flash_not_ready
                0x20003988        0x1 examples/beaconing/CMakeFiles/beaconing_nrf52840_xxAA_s140_6.0.0.dir/__/__/mesh/access/src/access.c.obj
 .bss.m_metadata_stored
                0x20003989        0x1 examples/beaconing/CMakeFiles/beaconing_nrf52840_xxAA_s140_6.0.0.dir/__/__/mesh/access/src/access.c.obj
 *fill*         0x2000398a        0x2 
 .bss.m_model_pool
                0x2000398c       0x68 examples/beaconing/CMakeFiles/beaconing_nrf52840_xxAA_s140_6.0.0.dir/__/__/mesh/access/src/access.c.obj
 .bss.m_subscription_list_pool
                0x200039f4       0x10 examples/beaconing/CMakeFiles/beaconing_nrf52840_xxAA_s140_6.0.0.dir/__/__/mesh/access/src/access.c.obj
 .bss.m_reliable
                0x20003a04       0x74 examples/beaconing/CMakeFiles/beaconing_nrf52840_xxAA_s140_6.0.0.dir/__/__/mesh/access/src/access_reliable.c.obj
 .bss.m_addr_nonvirtual_allocated
                0x20003a78        0x4 examples/beaconing/CMakeFiles/beaconing_nrf52840_xxAA_s140_6.0.0.dir/__/__/mesh/access/src/device_state_manager.c.obj
 .bss.m_addr_nonvirtual_needs_flashing
                0x20003a7c        0x4 examples/beaconing/CMakeFiles/beaconing_nrf52840_xxAA_s140_6.0.0.dir/__/__/mesh/access/src/device_state_manager.c.obj
 .bss.m_addr_unicast_allocated
                0x20003a80        0x4 examples/beaconing/CMakeFiles/beaconing_nrf52840_xxAA_s140_6.0.0.dir/__/__/mesh/access/src/device_state_manager.c.obj
 .bss.m_addr_unicast_needs_flashing
                0x20003a84        0x4 examples/beaconing/CMakeFiles/beaconing_nrf52840_xxAA_s140_6.0.0.dir/__/__/mesh/access/src/device_state_manager.c.obj
 .bss.m_addr_virtual_allocated
                0x20003a88        0x4 examples/beaconing/CMakeFiles/beaconing_nrf52840_xxAA_s140_6.0.0.dir/__/__/mesh/access/src/device_state_manager.c.obj
 .bss.m_addr_virtual_needs_flashing
                0x20003a8c        0x4 examples/beaconing/CMakeFiles/beaconing_nrf52840_xxAA_s140_6.0.0.dir/__/__/mesh/access/src/device_state_manager.c.obj
 .bss.m_addresses
                0x20003a90       0x40 examples/beaconing/CMakeFiles/beaconing_nrf52840_xxAA_s140_6.0.0.dir/__/__/mesh/access/src/device_state_manager.c.obj
 .bss.m_appkey_allocated
                0x20003ad0        0x4 examples/beaconing/CMakeFiles/beaconing_nrf52840_xxAA_s140_6.0.0.dir/__/__/mesh/access/src/device_state_manager.c.obj
 .bss.m_appkey_needs_flashing
                0x20003ad4        0x4 examples/beaconing/CMakeFiles/beaconing_nrf52840_xxAA_s140_6.0.0.dir/__/__/mesh/access/src/device_state_manager.c.obj
 .bss.m_appkeys
                0x20003ad8      0x150 examples/beaconing/CMakeFiles/beaconing_nrf52840_xxAA_s140_6.0.0.dir/__/__/mesh/access/src/device_state_manager.c.obj
 .bss.m_devkey_allocated
                0x20003c28        0x4 examples/beaconing/CMakeFiles/beaconing_nrf52840_xxAA_s140_6.0.0.dir/__/__/mesh/access/src/device_state_manager.c.obj
 .bss.m_devkey_needs_flashing
                0x20003c2c        0x4 examples/beaconing/CMakeFiles/beaconing_nrf52840_xxAA_s140_6.0.0.dir/__/__/mesh/access/src/device_state_manager.c.obj
 .bss.m_devkeys
                0x20003c30       0x16 examples/beaconing/CMakeFiles/beaconing_nrf52840_xxAA_s140_6.0.0.dir/__/__/mesh/access/src/device_state_manager.c.obj
 .bss.m_flash_is_available
                0x20003c46        0x1 examples/beaconing/CMakeFiles/beaconing_nrf52840_xxAA_s140_6.0.0.dir/__/__/mesh/access/src/device_state_manager.c.obj
 *fill*         0x20003c47        0x1 
 .bss.m_flash_manager
                0x20003c48       0x24 examples/beaconing/CMakeFiles/beaconing_nrf52840_xxAA_s140_6.0.0.dir/__/__/mesh/access/src/device_state_manager.c.obj
 .bss.m_flash_mem_listener_update_all
                0x20003c6c       0x10 examples/beaconing/CMakeFiles/beaconing_nrf52840_xxAA_s140_6.0.0.dir/__/__/mesh/access/src/device_state_manager.c.obj
 .bss.m_has_primary_subnet
                0x20003c7c        0x1 examples/beaconing/CMakeFiles/beaconing_nrf52840_xxAA_s140_6.0.0.dir/__/__/mesh/access/src/device_state_manager.c.obj
 *fill*         0x20003c7d        0x1 
 .bss.m_local_unicast_addr
                0x20003c7e        0x4 examples/beaconing/CMakeFiles/beaconing_nrf52840_xxAA_s140_6.0.0.dir/__/__/mesh/access/src/device_state_manager.c.obj
 *fill*         0x20003c82        0x2 
 .bss.m_mesh_evt_handler
                0x20003c84        0x8 examples/beaconing/CMakeFiles/beaconing_nrf52840_xxAA_s140_6.0.0.dir/__/__/mesh/access/src/device_state_manager.c.obj
 .bss.m_subnet_allocated
                0x20003c8c        0x4 examples/beaconing/CMakeFiles/beaconing_nrf52840_xxAA_s140_6.0.0.dir/__/__/mesh/access/src/device_state_manager.c.obj
 .bss.m_subnet_needs_flashing
                0x20003c90        0x4 examples/beaconing/CMakeFiles/beaconing_nrf52840_xxAA_s140_6.0.0.dir/__/__/mesh/access/src/device_state_manager.c.obj
 .bss.m_subnets
                0x20003c94      0x2a0 examples/beaconing/CMakeFiles/beaconing_nrf52840_xxAA_s140_6.0.0.dir/__/__/mesh/access/src/device_state_manager.c.obj
 .bss.m_virtual_addresses
                0x20003f34       0xa0 examples/beaconing/CMakeFiles/beaconing_nrf52840_xxAA_s140_6.0.0.dir/__/__/mesh/access/src/device_state_manager.c.obj
 .bss.m_evt_cb  0x20003fd4        0x4 examples/beaconing/CMakeFiles/beaconing_nrf52840_xxAA_s140_6.0.0.dir/__/__/models/config/src/config_server.c.obj
 .bss.m_heartbeat_publication
                0x20003fd8       0x14 examples/beaconing/CMakeFiles/beaconing_nrf52840_xxAA_s140_6.0.0.dir/__/__/models/config/src/config_server.c.obj
 .bss.m_node_reset_pending
                0x20003fec        0x1 examples/beaconing/CMakeFiles/beaconing_nrf52840_xxAA_s140_6.0.0.dir/__/__/models/config/src/config_server.c.obj
 *fill*         0x20003fed        0x3 
 .bss.m_attention_timer
                0x20003ff0       0x18 examples/beaconing/CMakeFiles/beaconing_nrf52840_xxAA_s140_6.0.0.dir/__/__/models/health/src/health_server.c.obj
 .bss.mp_attention_list
                0x20004008        0x4 examples/beaconing/CMakeFiles/beaconing_nrf52840_xxAA_s140_6.0.0.dir/__/__/models/health/src/health_server.c.obj
 .bss.m_event_handler
                0x2000400c        0x4 examples/beaconing/CMakeFiles/beaconing_nrf52840_xxAA_s140_6.0.0.dir/__/__/mesh/prov/src/prov_beacon.c.obj
 .bss.m_offload_ecdh
                0x20004010        0x1 examples/beaconing/CMakeFiles/beaconing_nrf52840_xxAA_s140_6.0.0.dir/__/__/mesh/prov/src/prov_utils.c.obj
 *fill*         0x20004011        0x3 
 .bss.mp_bearer_head
                0x20004014        0x4 examples/beaconing/CMakeFiles/beaconing_nrf52840_xxAA_s140_6.0.0.dir/__/__/mesh/prov/src/prov_bearer_adv.c.obj
 .bss.m_uuid    0x20004018       0x10 examples/beaconing/CMakeFiles/beaconing_nrf52840_xxAA_s140_6.0.0.dir/__/__/mesh/core/src/nrf_mesh_configure.c.obj
 .bss.m_msg_cache
                0x20004028      0x100 examples/beaconing/CMakeFiles/beaconing_nrf52840_xxAA_s140_6.0.0.dir/__/__/mesh/core/src/msg_cache.c.obj
 .bss.m_msg_cache_head
                0x20004128        0x4 examples/beaconing/CMakeFiles/beaconing_nrf52840_xxAA_s140_6.0.0.dir/__/__/mesh/core/src/msg_cache.c.obj
 .bss.m_control_packet_consumer_count
                0x2000412c        0x4 examples/beaconing/CMakeFiles/beaconing_nrf52840_xxAA_s140_6.0.0.dir/__/__/mesh/core/src/transport.c.obj
 .bss.m_control_packet_consumers
                0x20004130        0x8 examples/beaconing/CMakeFiles/beaconing_nrf52840_xxAA_s140_6.0.0.dir/__/__/mesh/core/src/transport.c.obj
 .bss.m_sar_alloc
                0x20004138        0x4 examples/beaconing/CMakeFiles/beaconing_nrf52840_xxAA_s140_6.0.0.dir/__/__/mesh/core/src/transport.c.obj
 .bss.m_sar_process_flag
                0x2000413c        0x4 examples/beaconing/CMakeFiles/beaconing_nrf52840_xxAA_s140_6.0.0.dir/__/__/mesh/core/src/transport.c.obj
 .bss.m_sar_release
                0x20004140        0x4 examples/beaconing/CMakeFiles/beaconing_nrf52840_xxAA_s140_6.0.0.dir/__/__/mesh/core/src/transport.c.obj
 .bss.m_sar_session_cache
                0x20004144       0x40 examples/beaconing/CMakeFiles/beaconing_nrf52840_xxAA_s140_6.0.0.dir/__/__/mesh/core/src/transport.c.obj
 .bss.m_sar_session_cache_head
                0x20004184        0x4 examples/beaconing/CMakeFiles/beaconing_nrf52840_xxAA_s140_6.0.0.dir/__/__/mesh/core/src/transport.c.obj
 .bss.m_trs_config
                0x20004188       0x18 examples/beaconing/CMakeFiles/beaconing_nrf52840_xxAA_s140_6.0.0.dir/__/__/mesh/core/src/transport.c.obj
 .bss.m_trs_sar_sessions
                0x200041a0      0x1b0 examples/beaconing/CMakeFiles/beaconing_nrf52840_xxAA_s140_6.0.0.dir/__/__/mesh/core/src/transport.c.obj
 .bss.mp_evt_handlers_head
                0x20004350        0x4 examples/beaconing/CMakeFiles/beaconing_nrf52840_xxAA_s140_6.0.0.dir/__/__/mesh/core/src/event.c.obj
 .bss.m_defrag  0x20004354       0x1c examples/beaconing/CMakeFiles/beaconing_nrf52840_xxAA_s140_6.0.0.dir/__/__/mesh/core/src/flash_manager_defrag.c.obj
 .bss.m_token   0x20004370        0x2 examples/beaconing/CMakeFiles/beaconing_nrf52840_xxAA_s140_6.0.0.dir/__/__/mesh/core/src/flash_manager_defrag.c.obj
 *fill*         0x20004372        0x2 
 .bss.mp_recovery_area
                0x20004374        0x4 examples/beaconing/CMakeFiles/beaconing_nrf52840_xxAA_s140_6.0.0.dir/__/__/mesh/core/src/flash_manager_defrag.c.obj
 .bss.p_null_ptr.10534
                0x20004378        0x4 examples/beaconing/CMakeFiles/beaconing_nrf52840_xxAA_s140_6.0.0.dir/__/__/mesh/core/src/flash_manager_defrag.c.obj
 .bss.m_pool    0x2000437c     0x1000 examples/beaconing/CMakeFiles/beaconing_nrf52840_xxAA_s140_6.0.0.dir/__/__/mesh/core/src/packet_mgr.c.obj
 .bss.mp_free_head
                0x2000537c        0x4 examples/beaconing/CMakeFiles/beaconing_nrf52840_xxAA_s140_6.0.0.dir/__/__/mesh/core/src/packet_mgr.c.obj
 .bss.iv_state_set.10189
                0x20005380        0x1 examples/beaconing/CMakeFiles/beaconing_nrf52840_xxAA_s140_6.0.0.dir/__/__/mesh/core/src/net_state.c.obj
 *fill*         0x20005381        0x3 
 .bss.lock_count.10165
                0x20005384        0x4 examples/beaconing/CMakeFiles/beaconing_nrf52840_xxAA_s140_6.0.0.dir/__/__/mesh/core/src/net_state.c.obj
 .bss.m_flash_manager
                0x20005388       0x24 examples/beaconing/CMakeFiles/beaconing_nrf52840_xxAA_s140_6.0.0.dir/__/__/mesh/core/src/net_state.c.obj
 .bss.m_iv_update_timer
                0x200053ac       0x18 examples/beaconing/CMakeFiles/beaconing_nrf52840_xxAA_s140_6.0.0.dir/__/__/mesh/core/src/net_state.c.obj
 .bss.m_mesh_evt_handler
                0x200053c4        0x8 examples/beaconing/CMakeFiles/beaconing_nrf52840_xxAA_s140_6.0.0.dir/__/__/mesh/core/src/net_state.c.obj
 .bss.m_net_state
                0x200053cc       0x14 examples/beaconing/CMakeFiles/beaconing_nrf52840_xxAA_s140_6.0.0.dir/__/__/mesh/core/src/net_state.c.obj
 .bss.m_seqnum_allocation_in_progress
                0x200053e0        0x1 examples/beaconing/CMakeFiles/beaconing_nrf52840_xxAA_s140_6.0.0.dir/__/__/mesh/core/src/net_state.c.obj
 .bss.m_test_mode
                0x200053e1        0x1 examples/beaconing/CMakeFiles/beaconing_nrf52840_xxAA_s140_6.0.0.dir/__/__/mesh/core/src/net_state.c.obj
 *fill*         0x200053e2        0x2 
 .bss.m_event_flag
                0x200053e4        0x4 examples/beaconing/CMakeFiles/beaconing_nrf52840_xxAA_s140_6.0.0.dir/__/__/mesh/core/src/mesh_flash.c.obj
 .bss.m_suspended
                0x200053e8        0x1 examples/beaconing/CMakeFiles/beaconing_nrf52840_xxAA_s140_6.0.0.dir/__/__/mesh/core/src/mesh_flash.c.obj
 *fill*         0x200053e9        0x3 
 .bss.m_users   0x200053ec      0x228 examples/beaconing/CMakeFiles/beaconing_nrf52840_xxAA_s140_6.0.0.dir/__/__/mesh/core/src/mesh_flash.c.obj
 .bss.m_is_enabled
                0x20005614        0x1 examples/beaconing/CMakeFiles/beaconing_nrf52840_xxAA_s140_6.0.0.dir/__/__/mesh/core/src/nrf_mesh.c.obj
 .bss.m_is_initialized
                0x20005615        0x1 examples/beaconing/CMakeFiles/beaconing_nrf52840_xxAA_s140_6.0.0.dir/__/__/mesh/core/src/nrf_mesh.c.obj
 *fill*         0x20005616        0x2 
 .bss.m_rx_cb   0x20005618        0x4 examples/beaconing/CMakeFiles/beaconing_nrf52840_xxAA_s140_6.0.0.dir/__/__/mesh/core/src/nrf_mesh.c.obj
 .bss.m_128buf  0x2000561c       0x10 examples/beaconing/CMakeFiles/beaconing_nrf52840_xxAA_s140_6.0.0.dir/__/__/mesh/core/src/aes_cmac.c.obj
 .bss.m_subkey1
                0x2000562c       0x10 examples/beaconing/CMakeFiles/beaconing_nrf52840_xxAA_s140_6.0.0.dir/__/__/mesh/core/src/aes_cmac.c.obj
 .bss.m_subkey2
                0x2000563c       0x10 examples/beaconing/CMakeFiles/beaconing_nrf52840_xxAA_s140_6.0.0.dir/__/__/mesh/core/src/aes_cmac.c.obj
 .bss.m_event_flag
                0x2000564c        0x4 examples/beaconing/CMakeFiles/beaconing_nrf52840_xxAA_s140_6.0.0.dir/__/__/mesh/core/src/timer_scheduler.c.obj
 .bss.m_scheduler
                0x20005650       0x10 examples/beaconing/CMakeFiles/beaconing_nrf52840_xxAA_s140_6.0.0.dir/__/__/mesh/core/src/timer_scheduler.c.obj
 .bss.m_attributes
                0x20005660        0x3 examples/beaconing/CMakeFiles/beaconing_nrf52840_xxAA_s140_6.0.0.dir/__/__/mesh/core/src/timer.c.obj
 *fill*         0x20005663        0x1 
 .bss.m_callbacks
                0x20005664        0xc examples/beaconing/CMakeFiles/beaconing_nrf52840_xxAA_s140_6.0.0.dir/__/__/mesh/core/src/timer.c.obj
 .bss.m_is_in_ts
                0x20005670        0x1 examples/beaconing/CMakeFiles/beaconing_nrf52840_xxAA_s140_6.0.0.dir/__/__/mesh/core/src/timer.c.obj
 *fill*         0x20005671        0x3 
 .bss.m_reference_time
                0x20005674        0x4 examples/beaconing/CMakeFiles/beaconing_nrf52840_xxAA_s140_6.0.0.dir/__/__/mesh/core/src/timer.c.obj
 .bss.m_timeouts
                0x20005678        0xc examples/beaconing/CMakeFiles/beaconing_nrf52840_xxAA_s140_6.0.0.dir/__/__/mesh/core/src/timer.c.obj
 .bss.m_timer_mut
                0x20005684        0x4 examples/beaconing/CMakeFiles/beaconing_nrf52840_xxAA_s140_6.0.0.dir/__/__/mesh/core/src/timer.c.obj
 .bss.m_ts_end_time
                0x20005688        0x4 examples/beaconing/CMakeFiles/beaconing_nrf52840_xxAA_s140_6.0.0.dir/__/__/mesh/core/src/timer.c.obj
 .bss.mp_ppi_tasks
                0x2000568c        0xc examples/beaconing/CMakeFiles/beaconing_nrf52840_xxAA_s140_6.0.0.dir/__/__/mesh/core/src/timer.c.obj
 .bss.m_current_time
                0x20005698        0x4 examples/beaconing/CMakeFiles/beaconing_nrf52840_xxAA_s140_6.0.0.dir/__/__/mesh/core/src/ticker.c.obj
 .bss.m_timer   0x2000569c       0x18 examples/beaconing/CMakeFiles/beaconing_nrf52840_xxAA_s140_6.0.0.dir/__/__/mesh/core/src/ticker.c.obj
 .bss.m_current_timeslot
                0x200056b4       0x1c examples/beaconing/CMakeFiles/beaconing_nrf52840_xxAA_s140_6.0.0.dir/__/__/mesh/core/src/timeslot.c.obj
 .bss.m_lfclk_ppm
                0x200056d0        0x4 examples/beaconing/CMakeFiles/beaconing_nrf52840_xxAA_s140_6.0.0.dir/__/__/mesh/core/src/timeslot.c.obj
 .bss.m_radio_request_earliest
                0x200056d4       0x10 examples/beaconing/CMakeFiles/beaconing_nrf52840_xxAA_s140_6.0.0.dir/__/__/mesh/core/src/timeslot.c.obj
 .bss.m_state_lock
                0x200056e4        0x1 examples/beaconing/CMakeFiles/beaconing_nrf52840_xxAA_s140_6.0.0.dir/__/__/mesh/core/src/timeslot.c.obj
 .bss.m_timeslot_forced_command
                0x200056e5        0x1 examples/beaconing/CMakeFiles/beaconing_nrf52840_xxAA_s140_6.0.0.dir/__/__/mesh/core/src/timeslot.c.obj
 *fill*         0x200056e6        0x2 
 .bss.s_last_rtc_value.9592
                0x200056e8        0x8 examples/beaconing/CMakeFiles/beaconing_nrf52840_xxAA_s140_6.0.0.dir/__/__/mesh/core/src/timeslot.c.obj
 .bss.m_bearer_event_fifo
                0x200056f0       0x14 examples/beaconing/CMakeFiles/beaconing_nrf52840_xxAA_s140_6.0.0.dir/__/__/mesh/core/src/bearer_event.c.obj
 .bss.m_bearer_event_fifo_buffer
                0x20005704      0x100 examples/beaconing/CMakeFiles/beaconing_nrf52840_xxAA_s140_6.0.0.dir/__/__/mesh/core/src/bearer_event.c.obj
 .bss.m_critical
                0x20005804        0x4 examples/beaconing/CMakeFiles/beaconing_nrf52840_xxAA_s140_6.0.0.dir/__/__/mesh/core/src/bearer_event.c.obj
 .bss.m_flag_count
                0x20005808        0x4 examples/beaconing/CMakeFiles/beaconing_nrf52840_xxAA_s140_6.0.0.dir/__/__/mesh/core/src/bearer_event.c.obj
 .bss.m_flag_event_callbacks
                0x2000580c       0x20 examples/beaconing/CMakeFiles/beaconing_nrf52840_xxAA_s140_6.0.0.dir/__/__/mesh/core/src/bearer_event.c.obj
 .bss.m_flags   0x2000582c        0x4 examples/beaconing/CMakeFiles/beaconing_nrf52840_xxAA_s140_6.0.0.dir/__/__/mesh/core/src/bearer_event.c.obj
 .bss.m_irq_priority
                0x20005830        0x1 examples/beaconing/CMakeFiles/beaconing_nrf52840_xxAA_s140_6.0.0.dir/__/__/mesh/core/src/bearer_event.c.obj
 *fill*         0x20005831        0x3 
 .bss.m_sequential_event_queue
                0x20005834        0x8 examples/beaconing/CMakeFiles/beaconing_nrf52840_xxAA_s140_6.0.0.dir/__/__/mesh/core/src/bearer_event.c.obj
 .bss.s_recursion_guard.9723
                0x2000583c        0x1 examples/beaconing/CMakeFiles/beaconing_nrf52840_xxAA_s140_6.0.0.dir/__/__/mesh/core/src/bearer_event.c.obj
 *fill*         0x2000583d        0x3 
 .bss.m_relay_check_cb
                0x20005840        0x4 examples/beaconing/CMakeFiles/beaconing_nrf52840_xxAA_s140_6.0.0.dir/__/__/mesh/core/src/network.c.obj
 .bss.m_relay_enable
                0x20005844        0x1 examples/beaconing/CMakeFiles/beaconing_nrf52840_xxAA_s140_6.0.0.dir/__/__/mesh/core/src/network.c.obj
 *fill*         0x20005845        0x3 
 .bss.m_action_queue
                0x20005848        0xc examples/beaconing/CMakeFiles/beaconing_nrf52840_xxAA_s140_6.0.0.dir/__/__/mesh/core/src/flash_manager.c.obj
 .bss.m_action_queue_buffer
                0x20005854      0x104 examples/beaconing/CMakeFiles/beaconing_nrf52840_xxAA_s140_6.0.0.dir/__/__/mesh/core/src/flash_manager.c.obj
 .bss.m_action_state
                0x20005958        0x1 examples/beaconing/CMakeFiles/beaconing_nrf52840_xxAA_s140_6.0.0.dir/__/__/mesh/core/src/flash_manager.c.obj
 *fill*         0x20005959        0x3 
 .bss.m_memory_listener_queue
                0x2000595c        0x8 examples/beaconing/CMakeFiles/beaconing_nrf52840_xxAA_s140_6.0.0.dir/__/__/mesh/core/src/flash_manager.c.obj
 .bss.m_processing_flag
                0x20005964        0x4 examples/beaconing/CMakeFiles/beaconing_nrf52840_xxAA_s140_6.0.0.dir/__/__/mesh/core/src/flash_manager.c.obj
 .bss.m_queue_empty_cb
                0x20005968        0x4 examples/beaconing/CMakeFiles/beaconing_nrf52840_xxAA_s140_6.0.0.dir/__/__/mesh/core/src/flash_manager.c.obj
 .bss.m_state   0x2000596c        0x1 examples/beaconing/CMakeFiles/beaconing_nrf52840_xxAA_s140_6.0.0.dir/__/__/mesh/core/src/flash_manager.c.obj
 *fill*         0x2000596d        0x1 
 .bss.m_token   0x2000596e        0x2 examples/beaconing/CMakeFiles/beaconing_nrf52840_xxAA_s140_6.0.0.dir/__/__/mesh/core/src/flash_manager.c.obj
 .bss.p_current.11442
                0x20005970        0x4 examples/beaconing/CMakeFiles/beaconing_nrf52840_xxAA_s140_6.0.0.dir/__/__/mesh/core/src/flash_manager.c.obj
 .bss.result.11443
                0x20005974        0x1 examples/beaconing/CMakeFiles/beaconing_nrf52840_xxAA_s140_6.0.0.dir/__/__/mesh/core/src/flash_manager.c.obj
 .bss.m_cache_index
                0x20005975        0x1 examples/beaconing/CMakeFiles/beaconing_nrf52840_xxAA_s140_6.0.0.dir/__/__/mesh/core/src/replay_cache.c.obj
 *fill*         0x20005976        0x2 
 .bss.m_replay_cache
                0x20005978      0x200 examples/beaconing/CMakeFiles/beaconing_nrf52840_xxAA_s140_6.0.0.dir/__/__/mesh/core/src/replay_cache.c.obj
 .bss.m_bearer_count
                0x20005b78        0x1 examples/beaconing/CMakeFiles/beaconing_nrf52840_xxAA_s140_6.0.0.dir/__/__/mesh/core/src/core_tx.c.obj
 *fill*         0x20005b79        0x3 
 .bss.m_tx_complete_callback
                0x20005b7c        0x4 examples/beaconing/CMakeFiles/beaconing_nrf52840_xxAA_s140_6.0.0.dir/__/__/mesh/core/src/core_tx.c.obj
 .bss.mp_bearers
                0x20005b80        0x4 examples/beaconing/CMakeFiles/beaconing_nrf52840_xxAA_s140_6.0.0.dir/__/__/mesh/core/src/core_tx.c.obj
 .bss.m_hb_core_evt_handler
                0x20005b84        0x8 examples/beaconing/CMakeFiles/beaconing_nrf52840_xxAA_s140_6.0.0.dir/__/__/mesh/core/src/heartbeat.c.obj
 .bss.m_hb_pending_feat_msg
                0x20005b8c        0x1 examples/beaconing/CMakeFiles/beaconing_nrf52840_xxAA_s140_6.0.0.dir/__/__/mesh/core/src/heartbeat.c.obj
 .bss.m_hb_pending_pub_msg
                0x20005b8d        0x1 examples/beaconing/CMakeFiles/beaconing_nrf52840_xxAA_s140_6.0.0.dir/__/__/mesh/core/src/heartbeat.c.obj
 .bss.m_heartbeat_init_done
                0x20005b8e        0x1 examples/beaconing/CMakeFiles/beaconing_nrf52840_xxAA_s140_6.0.0.dir/__/__/mesh/core/src/heartbeat.c.obj
 *fill*         0x20005b8f        0x1 
 .bss.m_heartbeat_subscription
                0x20005b90       0x10 examples/beaconing/CMakeFiles/beaconing_nrf52840_xxAA_s140_6.0.0.dir/__/__/mesh/core/src/heartbeat.c.obj
 .bss.m_publication_count_decrement_cb
                0x20005ba0        0x4 examples/beaconing/CMakeFiles/beaconing_nrf52840_xxAA_s140_6.0.0.dir/__/__/mesh/core/src/heartbeat.c.obj
 .bss.m_publication_get_cb
                0x20005ba4        0x4 examples/beaconing/CMakeFiles/beaconing_nrf52840_xxAA_s140_6.0.0.dir/__/__/mesh/core/src/heartbeat.c.obj
 .bss.m_publication_timer
                0x20005ba8       0x1c examples/beaconing/CMakeFiles/beaconing_nrf52840_xxAA_s140_6.0.0.dir/__/__/mesh/core/src/heartbeat.c.obj
 .bss.m_subscription_timer
                0x20005bc4       0x18 examples/beaconing/CMakeFiles/beaconing_nrf52840_xxAA_s140_6.0.0.dir/__/__/mesh/core/src/heartbeat.c.obj
 .bss.m_adv     0x20005bdc       0x98 examples/beaconing/CMakeFiles/beaconing_nrf52840_xxAA_s140_6.0.0.dir/__/__/mesh/core/src/net_beacon.c.obj
 .bss.m_adv_buf
                0x20005c74       0x34 examples/beaconing/CMakeFiles/beaconing_nrf52840_xxAA_s140_6.0.0.dir/__/__/mesh/core/src/net_beacon.c.obj
 .bss.m_beacon_salt
                0x20005ca8       0x10 examples/beaconing/CMakeFiles/beaconing_nrf52840_xxAA_s140_6.0.0.dir/__/__/mesh/core/src/net_beacon.c.obj
 .bss.m_enabled
                0x20005cb8        0x1 examples/beaconing/CMakeFiles/beaconing_nrf52840_xxAA_s140_6.0.0.dir/__/__/mesh/core/src/net_beacon.c.obj
 *fill*         0x20005cb9        0x3 
 .bss.m_tx_timer
                0x20005cbc       0x18 examples/beaconing/CMakeFiles/beaconing_nrf52840_xxAA_s140_6.0.0.dir/__/__/mesh/core/src/net_beacon.c.obj
 .bss.mp_beacon_info
                0x20005cd4        0x4 examples/beaconing/CMakeFiles/beaconing_nrf52840_xxAA_s140_6.0.0.dir/__/__/mesh/core/src/net_beacon.c.obj
 .bss.m_bearer  0x20005cd8        0xc examples/beaconing/CMakeFiles/beaconing_nrf52840_xxAA_s140_6.0.0.dir/__/__/mesh/core/src/core_tx_adv.c.obj
 .bss.m_bearer_roles
                0x20005ce4      0x138 examples/beaconing/CMakeFiles/beaconing_nrf52840_xxAA_s140_6.0.0.dir/__/__/mesh/core/src/core_tx_adv.c.obj
 .bss.m_current_alloc
                0x20005e1c        0x8 examples/beaconing/CMakeFiles/beaconing_nrf52840_xxAA_s140_6.0.0.dir/__/__/mesh/core/src/core_tx_adv.c.obj
 .bss.m_originator_adv_packet_buffer
                0x20005e24      0x100 examples/beaconing/CMakeFiles/beaconing_nrf52840_xxAA_s140_6.0.0.dir/__/__/mesh/core/src/core_tx_adv.c.obj
 .bss.m_relay_adv_packet_buffer
                0x20005f24       0x80 examples/beaconing/CMakeFiles/beaconing_nrf52840_xxAA_s140_6.0.0.dir/__/__/mesh/core/src/core_tx_adv.c.obj
 .bss.m_subscribers
                0x20005fa4        0x4 examples/beaconing/CMakeFiles/beaconing_nrf52840_xxAA_s140_6.0.0.dir/__/__/mesh/bearer/src/ad_listener.c.obj
 .bss.m_adtype_filter
                0x20005fa8       0x38 examples/beaconing/CMakeFiles/beaconing_nrf52840_xxAA_s140_6.0.0.dir/__/__/mesh/bearer/src/ad_type_filter.c.obj
 .bss.m_adv_prng
                0x20005fe0       0x10 examples/beaconing/CMakeFiles/beaconing_nrf52840_xxAA_s140_6.0.0.dir/__/__/mesh/bearer/src/advertiser.c.obj
 .bss.m_action_queue
                0x20005ff0        0x8 examples/beaconing/CMakeFiles/beaconing_nrf52840_xxAA_s140_6.0.0.dir/__/__/mesh/bearer/src/bearer_handler.c.obj
 .bss.m_end_time
                0x20005ff8        0x4 examples/beaconing/CMakeFiles/beaconing_nrf52840_xxAA_s140_6.0.0.dir/__/__/mesh/bearer/src/bearer_handler.c.obj
 .bss.m_scanner_is_active
                0x20005ffc        0x1 examples/beaconing/CMakeFiles/beaconing_nrf52840_xxAA_s140_6.0.0.dir/__/__/mesh/bearer/src/bearer_handler.c.obj
 .bss.m_stopped
                0x20005ffd        0x1 examples/beaconing/CMakeFiles/beaconing_nrf52840_xxAA_s140_6.0.0.dir/__/__/mesh/bearer/src/bearer_handler.c.obj
 *fill*         0x20005ffe        0x2 
 .bss.mp_action
                0x20006000        0x4 examples/beaconing/CMakeFiles/beaconing_nrf52840_xxAA_s140_6.0.0.dir/__/__/mesh/bearer/src/bearer_handler.c.obj
 .bss.m_next_channel_index
                0x20006004        0x1 examples/beaconing/CMakeFiles/beaconing_nrf52840_xxAA_s140_6.0.0.dir/__/__/mesh/bearer/src/broadcast.c.obj
 *fill*         0x20006005        0x3 
 .bss.m_accepted_amount
                0x20006008        0x4 examples/beaconing/CMakeFiles/beaconing_nrf52840_xxAA_s140_6.0.0.dir/__/__/mesh/bearer/src/filter_engine.c.obj
 .bss.m_filter_list_head
                0x2000600c        0x4 examples/beaconing/CMakeFiles/beaconing_nrf52840_xxAA_s140_6.0.0.dir/__/__/mesh/bearer/src/filter_engine.c.obj
 .bss.m_scanner
                0x20006010      0x290 examples/beaconing/CMakeFiles/beaconing_nrf52840_xxAA_s140_6.0.0.dir/__/__/mesh/bearer/src/scanner.c.obj
 .bss._acDownBuffer
                0x200062a0       0x80 external/rtt/librtt_nrf52840_xxAA.a(SEGGER_RTT.c.obj)
 .bss._acUpBuffer
                0x20006320      0x400 external/rtt/librtt_nrf52840_xxAA.a(SEGGER_RTT.c.obj)
 .bss.__malloc_free_list
                0x20006720        0x4 c:/mesh/arm_gcc/bin/../lib/gcc/arm-none-eabi/6.3.1/../../../../arm-none-eabi/lib/thumb/v7e-m/fpv4-sp/hard\libg_nano.a(lib_a-nano-mallocr.o)
                0x20006720                __malloc_free_list
 .bss.__malloc_sbrk_start
                0x20006724        0x4 c:/mesh/arm_gcc/bin/../lib/gcc/arm-none-eabi/6.3.1/../../../../arm-none-eabi/lib/thumb/v7e-m/fpv4-sp/hard\libg_nano.a(lib_a-nano-mallocr.o)
                0x20006724                __malloc_sbrk_start
 .bss.heap_end.5239
                0x20006728        0x4 c:/mesh/arm_gcc/bin/../lib/gcc/arm-none-eabi/6.3.1/../../../../arm-none-eabi/lib/thumb/v7e-m/fpv4-sp/hard\libnosys.a(sbrk.o)
 *(COMMON)
 COMMON         0x2000672c        0xc examples/beaconing/CMakeFiles/beaconing_nrf52840_xxAA_s140_6.0.0.dir/__/common/src/mesh_softdevice_init.c.obj
                0x2000672c                nrf_nvic_state
 COMMON         0x20006738       0x24 examples/beaconing/CMakeFiles/beaconing_nrf52840_xxAA_s140_6.0.0.dir/__/__/mesh/core/src/core_tx.c.obj
                0x20006738                m_packet
 COMMON         0x2000675c       0x78 external/rtt/librtt_nrf52840_xxAA.a(SEGGER_RTT.c.obj)
                0x2000675c                _SEGGER_RTT
 COMMON         0x200067d4        0x4 c:/mesh/arm_gcc/bin/../lib/gcc/arm-none-eabi/6.3.1/../../../../arm-none-eabi/lib/thumb/v7e-m/fpv4-sp/hard\libg_nano.a(lib_a-reent.o)
                0x200067d4                errno
                0x200067d8                . = ALIGN (0x4)
                0x200067d8                __bss_end__ = .

.heap           0x200067d8     0x2000
                0x200067d8                __HeapBase = .
                0x200067d8                __end__ = .
                0x200067d8                PROVIDE (end, .)
 *(.heap*)
 .heap          0x200067d8     0x2000 examples/beaconing/CMakeFiles/beaconing_nrf52840_xxAA_s140_6.0.0.dir/C_/b/nRF5_SDK_15.0.0_a53641a/modules/nrfx/mdk/gcc_startup_nrf52840.S.obj
                0x200087d8                __HeapLimit = .

.stack_dummy    0x200067d8     0x2000
 *(.stack*)
 .stack         0x200067d8     0x2000 examples/beaconing/CMakeFiles/beaconing_nrf52840_xxAA_s140_6.0.0.dir/C_/b/nRF5_SDK_15.0.0_a53641a/modules/nrfx/mdk/gcc_startup_nrf52840.S.obj
                0x2003fd00                __StackTop = (ORIGIN (RAM) + LENGTH (RAM))
                0x2003dd00                __StackLimit = (__StackTop - SIZEOF (.stack_dummy))
                0x2003fd00                PROVIDE (__stack, __StackTop)
                0x00000001                ASSERT ((__StackLimit >= __HeapLimit), region RAM overflowed with stack)
                0x00000140                DataInitFlashUsed = (__bss_start__ - __data_start__)
                0x0001321c                CodeFlashUsed = (__etext - ORIGIN (FLASH))
                0x0001335c                TotalFlashUsed = (CodeFlashUsed + DataInitFlashUsed)
                0x00000001                ASSERT ((TotalFlashUsed <= LENGTH (FLASH)), region FLASH overflowed with .data and user data)
OUTPUT(examples\beaconing\beaconing_nrf52840_xxAA_s140_6.0.0.elf elf32-littlearm)

.ARM.attributes
                0x00000000       0x30
 .ARM.attributes
                0x00000000       0x22 c:/mesh/arm_gcc/bin/../lib/gcc/arm-none-eabi/6.3.1/thumb/v7e-m/fpv4-sp/hard/crti.o
 .ARM.attributes
                0x00000022       0x34 c:/mesh/arm_gcc/bin/../lib/gcc/arm-none-eabi/6.3.1/thumb/v7e-m/fpv4-sp/hard/crtbegin.o
 .ARM.attributes
                0x00000056       0x20 c:/mesh/arm_gcc/bin/../lib/gcc/arm-none-eabi/6.3.1/../../../../arm-none-eabi/lib/thumb/v7e-m/fpv4-sp/hard/crt0.o
 .ARM.attributes
                0x00000076       0x39 examples/beaconing/CMakeFiles/beaconing_nrf52840_xxAA_s140_6.0.0.dir/src/main.c.obj
 .ARM.attributes
                0x000000af       0x39 examples/beaconing/CMakeFiles/beaconing_nrf52840_xxAA_s140_6.0.0.dir/__/__/mesh/stack/src/mesh_stack.c.obj
 .ARM.attributes
                0x000000e8       0x39 examples/beaconing/CMakeFiles/beaconing_nrf52840_xxAA_s140_6.0.0.dir/__/common/src/mesh_softdevice_init.c.obj
 .ARM.attributes
                0x00000121       0x39 examples/beaconing/CMakeFiles/beaconing_nrf52840_xxAA_s140_6.0.0.dir/__/common/src/mesh_provisionee.c.obj
 .ARM.attributes
                0x0000015a       0x39 examples/beaconing/CMakeFiles/beaconing_nrf52840_xxAA_s140_6.0.0.dir/__/common/src/simple_hal.c.obj
 .ARM.attributes
                0x00000193       0x39 examples/beaconing/CMakeFiles/beaconing_nrf52840_xxAA_s140_6.0.0.dir/__/__/mesh/access/src/access_publish.c.obj
 .ARM.attributes
                0x000001cc       0x39 examples/beaconing/CMakeFiles/beaconing_nrf52840_xxAA_s140_6.0.0.dir/__/__/mesh/access/src/access.c.obj
 .ARM.attributes
                0x00000205       0x39 examples/beaconing/CMakeFiles/beaconing_nrf52840_xxAA_s140_6.0.0.dir/__/__/mesh/access/src/access_reliable.c.obj
 .ARM.attributes
                0x0000023e       0x39 examples/beaconing/CMakeFiles/beaconing_nrf52840_xxAA_s140_6.0.0.dir/__/__/mesh/access/src/device_state_manager.c.obj
 .ARM.attributes
                0x00000277       0x39 examples/beaconing/CMakeFiles/beaconing_nrf52840_xxAA_s140_6.0.0.dir/__/nrf_mesh_weak.c.obj
 .ARM.attributes
                0x000002b0       0x39 examples/beaconing/CMakeFiles/beaconing_nrf52840_xxAA_s140_6.0.0.dir/__/common/src/app_error_weak.c.obj
 .ARM.attributes
                0x000002e9       0x39 examples/beaconing/CMakeFiles/beaconing_nrf52840_xxAA_s140_6.0.0.dir/__/common/src/assertion_handler_weak.c.obj
 .ARM.attributes
                0x00000322       0x39 examples/beaconing/CMakeFiles/beaconing_nrf52840_xxAA_s140_6.0.0.dir/__/__/models/config/src/composition_data.c.obj
 .ARM.attributes
                0x0000035b       0x39 examples/beaconing/CMakeFiles/beaconing_nrf52840_xxAA_s140_6.0.0.dir/__/__/models/config/src/config_server.c.obj
 .ARM.attributes
                0x00000394       0x39 examples/beaconing/CMakeFiles/beaconing_nrf52840_xxAA_s140_6.0.0.dir/__/__/models/config/src/packed_index_list.c.obj
 .ARM.attributes
                0x000003cd       0x39 examples/beaconing/CMakeFiles/beaconing_nrf52840_xxAA_s140_6.0.0.dir/__/__/models/health/src/health_server.c.obj
 .ARM.attributes
                0x00000406       0x39 examples/beaconing/CMakeFiles/beaconing_nrf52840_xxAA_s140_6.0.0.dir/__/__/mesh/prov/src/prov_provisionee.c.obj
 .ARM.attributes
                0x0000043f       0x39 examples/beaconing/CMakeFiles/beaconing_nrf52840_xxAA_s140_6.0.0.dir/__/__/mesh/prov/src/nrf_mesh_prov.c.obj
 .ARM.attributes
                0x00000478       0x39 examples/beaconing/CMakeFiles/beaconing_nrf52840_xxAA_s140_6.0.0.dir/__/__/mesh/prov/src/provisioning.c.obj
 .ARM.attributes
                0x000004b1       0x39 examples/beaconing/CMakeFiles/beaconing_nrf52840_xxAA_s140_6.0.0.dir/__/__/mesh/prov/src/prov_beacon.c.obj
 .ARM.attributes
                0x000004ea       0x39 examples/beaconing/CMakeFiles/beaconing_nrf52840_xxAA_s140_6.0.0.dir/__/__/mesh/prov/src/prov_utils.c.obj
 .ARM.attributes
                0x00000523       0x39 examples/beaconing/CMakeFiles/beaconing_nrf52840_xxAA_s140_6.0.0.dir/__/__/mesh/prov/src/prov_bearer_adv.c.obj
 .ARM.attributes
                0x0000055c       0x39 examples/beaconing/CMakeFiles/beaconing_nrf52840_xxAA_s140_6.0.0.dir/__/__/mesh/core/src/nrf_mesh_configure.c.obj
 .ARM.attributes
                0x00000595       0x39 examples/beaconing/CMakeFiles/beaconing_nrf52840_xxAA_s140_6.0.0.dir/__/__/mesh/core/src/aes.c.obj
 .ARM.attributes
                0x000005ce       0x39 examples/beaconing/CMakeFiles/beaconing_nrf52840_xxAA_s140_6.0.0.dir/__/__/mesh/core/src/msg_cache.c.obj
 .ARM.attributes
                0x00000607       0x39 examples/beaconing/CMakeFiles/beaconing_nrf52840_xxAA_s140_6.0.0.dir/__/__/mesh/core/src/transport.c.obj
 .ARM.attributes
                0x00000640       0x39 examples/beaconing/CMakeFiles/beaconing_nrf52840_xxAA_s140_6.0.0.dir/__/__/mesh/core/src/event.c.obj
 .ARM.attributes
                0x00000679       0x39 examples/beaconing/CMakeFiles/beaconing_nrf52840_xxAA_s140_6.0.0.dir/__/__/mesh/core/src/packet_buffer.c.obj
 .ARM.attributes
                0x000006b2       0x39 examples/beaconing/CMakeFiles/beaconing_nrf52840_xxAA_s140_6.0.0.dir/__/__/mesh/core/src/flash_manager_defrag.c.obj
 .ARM.attributes
                0x000006eb       0x39 examples/beaconing/CMakeFiles/beaconing_nrf52840_xxAA_s140_6.0.0.dir/__/__/mesh/core/src/fifo.c.obj
 .ARM.attributes
                0x00000724       0x39 examples/beaconing/CMakeFiles/beaconing_nrf52840_xxAA_s140_6.0.0.dir/__/__/mesh/core/src/nrf_flash.c.obj
 .ARM.attributes
                0x0000075d       0x39 examples/beaconing/CMakeFiles/beaconing_nrf52840_xxAA_s140_6.0.0.dir/__/__/mesh/core/src/packet_mgr.c.obj
 .ARM.attributes
                0x00000796       0x39 examples/beaconing/CMakeFiles/beaconing_nrf52840_xxAA_s140_6.0.0.dir/__/__/mesh/core/src/net_state.c.obj
 .ARM.attributes
                0x000007cf       0x39 examples/beaconing/CMakeFiles/beaconing_nrf52840_xxAA_s140_6.0.0.dir/__/__/mesh/core/src/mesh_flash.c.obj
 .ARM.attributes
                0x00000808       0x39 examples/beaconing/CMakeFiles/beaconing_nrf52840_xxAA_s140_6.0.0.dir/__/__/mesh/core/src/nrf_mesh_utils.c.obj
 .ARM.attributes
                0x00000841       0x39 examples/beaconing/CMakeFiles/beaconing_nrf52840_xxAA_s140_6.0.0.dir/__/__/mesh/core/src/nrf_mesh.c.obj
 .ARM.attributes
                0x0000087a       0x39 examples/beaconing/CMakeFiles/beaconing_nrf52840_xxAA_s140_6.0.0.dir/__/__/mesh/core/src/queue.c.obj
 .ARM.attributes
                0x000008b3       0x39 examples/beaconing/CMakeFiles/beaconing_nrf52840_xxAA_s140_6.0.0.dir/__/__/mesh/core/src/hal.c.obj
 .ARM.attributes
                0x000008ec       0x39 examples/beaconing/CMakeFiles/beaconing_nrf52840_xxAA_s140_6.0.0.dir/__/__/mesh/core/src/aes_cmac.c.obj
 .ARM.attributes
                0x00000925       0x39 examples/beaconing/CMakeFiles/beaconing_nrf52840_xxAA_s140_6.0.0.dir/__/__/mesh/core/src/timer_scheduler.c.obj
 .ARM.attributes
                0x0000095e       0x39 examples/beaconing/CMakeFiles/beaconing_nrf52840_xxAA_s140_6.0.0.dir/__/__/mesh/core/src/timer.c.obj
 .ARM.attributes
                0x00000997       0x39 examples/beaconing/CMakeFiles/beaconing_nrf52840_xxAA_s140_6.0.0.dir/__/__/mesh/core/src/ticker.c.obj
 .ARM.attributes
                0x000009d0       0x39 examples/beaconing/CMakeFiles/beaconing_nrf52840_xxAA_s140_6.0.0.dir/__/__/mesh/core/src/rand.c.obj
 .ARM.attributes
                0x00000a09       0x39 examples/beaconing/CMakeFiles/beaconing_nrf52840_xxAA_s140_6.0.0.dir/__/__/mesh/core/src/nrf_mesh_opt.c.obj
 .ARM.attributes
                0x00000a42       0x39 examples/beaconing/CMakeFiles/beaconing_nrf52840_xxAA_s140_6.0.0.dir/__/__/mesh/core/src/timeslot.c.obj
 .ARM.attributes
                0x00000a7b       0x39 examples/beaconing/CMakeFiles/beaconing_nrf52840_xxAA_s140_6.0.0.dir/__/__/mesh/core/src/bearer_event.c.obj
 .ARM.attributes
                0x00000ab4       0x39 examples/beaconing/CMakeFiles/beaconing_nrf52840_xxAA_s140_6.0.0.dir/__/__/mesh/core/src/enc.c.obj
 .ARM.attributes
                0x00000aed       0x39 examples/beaconing/CMakeFiles/beaconing_nrf52840_xxAA_s140_6.0.0.dir/__/__/mesh/core/src/network.c.obj
 .ARM.attributes
                0x00000b26       0x39 examples/beaconing/CMakeFiles/beaconing_nrf52840_xxAA_s140_6.0.0.dir/__/__/mesh/core/src/net_packet.c.obj
 .ARM.attributes
                0x00000b5f       0x39 examples/beaconing/CMakeFiles/beaconing_nrf52840_xxAA_s140_6.0.0.dir/__/__/mesh/core/src/msqueue.c.obj
 .ARM.attributes
                0x00000b98       0x39 examples/beaconing/CMakeFiles/beaconing_nrf52840_xxAA_s140_6.0.0.dir/__/__/mesh/core/src/nrf_mesh_keygen.c.obj
 .ARM.attributes
                0x00000bd1       0x39 examples/beaconing/CMakeFiles/beaconing_nrf52840_xxAA_s140_6.0.0.dir/__/__/mesh/core/src/list.c.obj
 .ARM.attributes
                0x00000c0a       0x39 examples/beaconing/CMakeFiles/beaconing_nrf52840_xxAA_s140_6.0.0.dir/__/__/mesh/core/src/log.c.obj
 .ARM.attributes
                0x00000c43       0x39 examples/beaconing/CMakeFiles/beaconing_nrf52840_xxAA_s140_6.0.0.dir/__/__/mesh/core/src/flash_manager.c.obj
 .ARM.attributes
                0x00000c7c       0x39 examples/beaconing/CMakeFiles/beaconing_nrf52840_xxAA_s140_6.0.0.dir/__/__/mesh/core/src/ccm_soft.c.obj
 .ARM.attributes
                0x00000cb5       0x39 examples/beaconing/CMakeFiles/beaconing_nrf52840_xxAA_s140_6.0.0.dir/__/__/mesh/core/src/replay_cache.c.obj
 .ARM.attributes
                0x00000cee       0x39 examples/beaconing/CMakeFiles/beaconing_nrf52840_xxAA_s140_6.0.0.dir/__/__/mesh/core/src/beacon.c.obj
 .ARM.attributes
                0x00000d27       0x39 examples/beaconing/CMakeFiles/beaconing_nrf52840_xxAA_s140_6.0.0.dir/__/__/mesh/core/src/flash_manager_internal.c.obj
 .ARM.attributes
                0x00000d60       0x39 examples/beaconing/CMakeFiles/beaconing_nrf52840_xxAA_s140_6.0.0.dir/__/__/mesh/core/src/core_tx.c.obj
 .ARM.attributes
                0x00000d99       0x39 examples/beaconing/CMakeFiles/beaconing_nrf52840_xxAA_s140_6.0.0.dir/__/__/mesh/core/src/heartbeat.c.obj
 .ARM.attributes
                0x00000dd2       0x39 examples/beaconing/CMakeFiles/beaconing_nrf52840_xxAA_s140_6.0.0.dir/__/__/mesh/core/src/net_beacon.c.obj
 .ARM.attributes
                0x00000e0b       0x39 examples/beaconing/CMakeFiles/beaconing_nrf52840_xxAA_s140_6.0.0.dir/__/__/mesh/core/src/core_tx_adv.c.obj
 .ARM.attributes
                0x00000e44       0x39 examples/beaconing/CMakeFiles/beaconing_nrf52840_xxAA_s140_6.0.0.dir/__/__/mesh/bearer/src/ad_listener.c.obj
 .ARM.attributes
                0x00000e7d       0x39 examples/beaconing/CMakeFiles/beaconing_nrf52840_xxAA_s140_6.0.0.dir/__/__/mesh/bearer/src/ad_type_filter.c.obj
 .ARM.attributes
                0x00000eb6       0x39 examples/beaconing/CMakeFiles/beaconing_nrf52840_xxAA_s140_6.0.0.dir/__/__/mesh/bearer/src/advertiser.c.obj
 .ARM.attributes
                0x00000eef       0x39 examples/beaconing/CMakeFiles/beaconing_nrf52840_xxAA_s140_6.0.0.dir/__/__/mesh/bearer/src/bearer_handler.c.obj
 .ARM.attributes
                0x00000f28       0x39 examples/beaconing/CMakeFiles/beaconing_nrf52840_xxAA_s140_6.0.0.dir/__/__/mesh/bearer/src/broadcast.c.obj
 .ARM.attributes
                0x00000f61       0x39 examples/beaconing/CMakeFiles/beaconing_nrf52840_xxAA_s140_6.0.0.dir/__/__/mesh/bearer/src/filter_engine.c.obj
 .ARM.attributes
                0x00000f9a       0x39 examples/beaconing/CMakeFiles/beaconing_nrf52840_xxAA_s140_6.0.0.dir/__/__/mesh/bearer/src/radio_config.c.obj
 .ARM.attributes
                0x00000fd3       0x39 examples/beaconing/CMakeFiles/beaconing_nrf52840_xxAA_s140_6.0.0.dir/__/__/mesh/bearer/src/scanner.c.obj
 .ARM.attributes
                0x0000100c       0x39 examples/beaconing/CMakeFiles/beaconing_nrf52840_xxAA_s140_6.0.0.dir/C_/b/nRF5_SDK_15.0.0_a53641a/modules/nrfx/mdk/system_nrf52840.c.obj
 .ARM.attributes
                0x00001045       0x20 examples/beaconing/CMakeFiles/beaconing_nrf52840_xxAA_s140_6.0.0.dir/C_/b/nRF5_SDK_15.0.0_a53641a/modules/nrfx/mdk/gcc_startup_nrf52840.S.obj
 .ARM.attributes
                0x00001065       0x39 examples/beaconing/CMakeFiles/beaconing_nrf52840_xxAA_s140_6.0.0.dir/C_/b/nRF5_SDK_15.0.0_a53641a/components/libraries/util/app_error.c.obj
 .ARM.attributes
                0x0000109e       0x39 examples/beaconing/CMakeFiles/beaconing_nrf52840_xxAA_s140_6.0.0.dir/C_/b/nRF5_SDK_15.0.0_a53641a/components/libraries/util/app_error_handler_gcc.c.obj
 .ARM.attributes
                0x000010d7       0x39 external/rtt/librtt_nrf52840_xxAA.a(SEGGER_RTT.c.obj)
 .ARM.attributes
                0x00001110       0x39 external/rtt/librtt_nrf52840_xxAA.a(SEGGER_RTT_printf.c.obj)
 .ARM.attributes
                0x00001149       0x39 external/micro-ecc/libuECC_nrf52840_xxAA.a(uECC.c.obj)
 .ARM.attributes
                0x00001182       0x34 c:/mesh/arm_gcc/bin/../lib/gcc/arm-none-eabi/6.3.1/../../../../arm-none-eabi/lib/thumb/v7e-m/fpv4-sp/hard\libg_nano.a(lib_a-exit.o)
 .ARM.attributes
                0x000011b6       0x34 c:/mesh/arm_gcc/bin/../lib/gcc/arm-none-eabi/6.3.1/../../../../arm-none-eabi/lib/thumb/v7e-m/fpv4-sp/hard\libg_nano.a(lib_a-impure.o)
 .ARM.attributes
                0x000011ea       0x34 c:/mesh/arm_gcc/bin/../lib/gcc/arm-none-eabi/6.3.1/../../../../arm-none-eabi/lib/thumb/v7e-m/fpv4-sp/hard\libg_nano.a(lib_a-init.o)
 .ARM.attributes
                0x0000121e       0x34 c:/mesh/arm_gcc/bin/../lib/gcc/arm-none-eabi/6.3.1/../../../../arm-none-eabi/lib/thumb/v7e-m/fpv4-sp/hard\libg_nano.a(lib_a-malloc.o)
 .ARM.attributes
                0x00001252       0x34 c:/mesh/arm_gcc/bin/../lib/gcc/arm-none-eabi/6.3.1/../../../../arm-none-eabi/lib/thumb/v7e-m/fpv4-sp/hard\libg_nano.a(lib_a-memcmp.o)
 .ARM.attributes
                0x00001286       0x34 c:/mesh/arm_gcc/bin/../lib/gcc/arm-none-eabi/6.3.1/../../../../arm-none-eabi/lib/thumb/v7e-m/fpv4-sp/hard\libg_nano.a(lib_a-memcpy-stub.o)
 .ARM.attributes
                0x000012ba       0x34 c:/mesh/arm_gcc/bin/../lib/gcc/arm-none-eabi/6.3.1/../../../../arm-none-eabi/lib/thumb/v7e-m/fpv4-sp/hard\libg_nano.a(lib_a-memset.o)
 .ARM.attributes
                0x000012ee       0x34 c:/mesh/arm_gcc/bin/../lib/gcc/arm-none-eabi/6.3.1/../../../../arm-none-eabi/lib/thumb/v7e-m/fpv4-sp/hard\libg_nano.a(lib_a-nano-freer.o)
 .ARM.attributes
                0x00001322       0x34 c:/mesh/arm_gcc/bin/../lib/gcc/arm-none-eabi/6.3.1/../../../../arm-none-eabi/lib/thumb/v7e-m/fpv4-sp/hard\libg_nano.a(lib_a-nano-mallocr.o)
 .ARM.attributes
                0x00001356       0x34 c:/mesh/arm_gcc/bin/../lib/gcc/arm-none-eabi/6.3.1/../../../../arm-none-eabi/lib/thumb/v7e-m/fpv4-sp/hard\libg_nano.a(lib_a-sbrkr.o)
 .ARM.attributes
                0x0000138a       0x34 c:/mesh/arm_gcc/bin/../lib/gcc/arm-none-eabi/6.3.1/../../../../arm-none-eabi/lib/thumb/v7e-m/fpv4-sp/hard\libg_nano.a(lib_a-sprintf.o)
 .ARM.attributes
                0x000013be       0x34 c:/mesh/arm_gcc/bin/../lib/gcc/arm-none-eabi/6.3.1/../../../../arm-none-eabi/lib/thumb/v7e-m/fpv4-sp/hard\libg_nano.a(lib_a-strcpy.o)
 .ARM.attributes
                0x000013f2       0x1b c:/mesh/arm_gcc/bin/../lib/gcc/arm-none-eabi/6.3.1/../../../../arm-none-eabi/lib/thumb/v7e-m/fpv4-sp/hard\libg_nano.a(lib_a-strlen.o)
 .ARM.attributes
                0x0000140d       0x34 c:/mesh/arm_gcc/bin/../lib/gcc/arm-none-eabi/6.3.1/../../../../arm-none-eabi/lib/thumb/v7e-m/fpv4-sp/hard\libg_nano.a(lib_a-strrchr.o)
 .ARM.attributes
                0x00001441       0x34 c:/mesh/arm_gcc/bin/../lib/gcc/arm-none-eabi/6.3.1/../../../../arm-none-eabi/lib/thumb/v7e-m/fpv4-sp/hard\libg_nano.a(lib_a-mlock.o)
 .ARM.attributes
                0x00001475       0x34 c:/mesh/arm_gcc/bin/../lib/gcc/arm-none-eabi/6.3.1/../../../../arm-none-eabi/lib/thumb/v7e-m/fpv4-sp/hard\libg_nano.a(lib_a-nano-svfprintf.o)
 .ARM.attributes
                0x000014a9       0x34 c:/mesh/arm_gcc/bin/../lib/gcc/arm-none-eabi/6.3.1/../../../../arm-none-eabi/lib/thumb/v7e-m/fpv4-sp/hard\libg_nano.a(lib_a-nano-vfprintf_i.o)
 .ARM.attributes
                0x000014dd       0x34 c:/mesh/arm_gcc/bin/../lib/gcc/arm-none-eabi/6.3.1/../../../../arm-none-eabi/lib/thumb/v7e-m/fpv4-sp/hard\libg_nano.a(lib_a-reent.o)
 .ARM.attributes
                0x00001511       0x34 c:/mesh/arm_gcc/bin/../lib/gcc/arm-none-eabi/6.3.1/../../../../arm-none-eabi/lib/thumb/v7e-m/fpv4-sp/hard\libg_nano.a(lib_a-strchr.o)
 .ARM.attributes
                0x00001545       0x20 c:/mesh/arm_gcc/bin/../lib/gcc/arm-none-eabi/6.3.1/../../../../arm-none-eabi/lib/thumb/v7e-m/fpv4-sp/hard\libg_nano.a(lib_a-memchr.o)
 .ARM.attributes
                0x00001565       0x34 c:/mesh/arm_gcc/bin/../lib/gcc/arm-none-eabi/6.3.1/../../../../arm-none-eabi/lib/thumb/v7e-m/fpv4-sp/hard\libg_nano.a(lib_a-memmove.o)
 .ARM.attributes
                0x00001599       0x34 c:/mesh/arm_gcc/bin/../lib/gcc/arm-none-eabi/6.3.1/../../../../arm-none-eabi/lib/thumb/v7e-m/fpv4-sp/hard\libg_nano.a(lib_a-nano-reallocr.o)
 .ARM.attributes
                0x000015cd       0x34 c:/mesh/arm_gcc/bin/../lib/gcc/arm-none-eabi/6.3.1/../../../../arm-none-eabi/lib/thumb/v7e-m/fpv4-sp/hard\libg_nano.a(lib_a-nano-msizer.o)
 .ARM.attributes
                0x00001601       0x34 c:/mesh/arm_gcc/bin/../lib/gcc/arm-none-eabi/6.3.1/thumb/v7e-m/fpv4-sp/hard/crtend.o
 .ARM.attributes
                0x00001635       0x22 c:/mesh/arm_gcc/bin/../lib/gcc/arm-none-eabi/6.3.1/thumb/v7e-m/fpv4-sp/hard/crtn.o
 .ARM.attributes
                0x00001657       0x34 c:/mesh/arm_gcc/bin/../lib/gcc/arm-none-eabi/6.3.1/../../../../arm-none-eabi/lib/thumb/v7e-m/fpv4-sp/hard\libnosys.a(sbrk.o)
 .ARM.attributes
                0x0000168b       0x34 c:/mesh/arm_gcc/bin/../lib/gcc/arm-none-eabi/6.3.1/../../../../arm-none-eabi/lib/thumb/v7e-m/fpv4-sp/hard\libnosys.a(_exit.o)

.comment        0x00000000       0x7f
 .comment       0x00000000       0x7f examples/beaconing/CMakeFiles/beaconing_nrf52840_xxAA_s140_6.0.0.dir/src/main.c.obj
                                 0x80 (size before relaxing)
 .comment       0x0000007f       0x80 examples/beaconing/CMakeFiles/beaconing_nrf52840_xxAA_s140_6.0.0.dir/__/__/mesh/stack/src/mesh_stack.c.obj
 .comment       0x0000007f       0x80 examples/beaconing/CMakeFiles/beaconing_nrf52840_xxAA_s140_6.0.0.dir/__/common/src/mesh_softdevice_init.c.obj
 .comment       0x0000007f       0x80 examples/beaconing/CMakeFiles/beaconing_nrf52840_xxAA_s140_6.0.0.dir/__/common/src/mesh_provisionee.c.obj
 .comment       0x0000007f       0x80 examples/beaconing/CMakeFiles/beaconing_nrf52840_xxAA_s140_6.0.0.dir/__/common/src/simple_hal.c.obj
 .comment       0x0000007f       0x80 examples/beaconing/CMakeFiles/beaconing_nrf52840_xxAA_s140_6.0.0.dir/__/__/mesh/access/src/access_publish.c.obj
 .comment       0x0000007f       0x80 examples/beaconing/CMakeFiles/beaconing_nrf52840_xxAA_s140_6.0.0.dir/__/__/mesh/access/src/access.c.obj
 .comment       0x0000007f       0x80 examples/beaconing/CMakeFiles/beaconing_nrf52840_xxAA_s140_6.0.0.dir/__/__/mesh/access/src/access_reliable.c.obj
 .comment       0x0000007f       0x80 examples/beaconing/CMakeFiles/beaconing_nrf52840_xxAA_s140_6.0.0.dir/__/__/mesh/access/src/device_state_manager.c.obj
 .comment       0x0000007f       0x80 examples/beaconing/CMakeFiles/beaconing_nrf52840_xxAA_s140_6.0.0.dir/__/nrf_mesh_weak.c.obj
 .comment       0x0000007f       0x80 examples/beaconing/CMakeFiles/beaconing_nrf52840_xxAA_s140_6.0.0.dir/__/common/src/app_error_weak.c.obj
 .comment       0x0000007f       0x80 examples/beaconing/CMakeFiles/beaconing_nrf52840_xxAA_s140_6.0.0.dir/__/common/src/assertion_handler_weak.c.obj
 .comment       0x0000007f       0x80 examples/beaconing/CMakeFiles/beaconing_nrf52840_xxAA_s140_6.0.0.dir/__/__/models/config/src/composition_data.c.obj
 .comment       0x0000007f       0x80 examples/beaconing/CMakeFiles/beaconing_nrf52840_xxAA_s140_6.0.0.dir/__/__/models/config/src/config_server.c.obj
 .comment       0x0000007f       0x80 examples/beaconing/CMakeFiles/beaconing_nrf52840_xxAA_s140_6.0.0.dir/__/__/models/config/src/packed_index_list.c.obj
 .comment       0x0000007f       0x80 examples/beaconing/CMakeFiles/beaconing_nrf52840_xxAA_s140_6.0.0.dir/__/__/models/health/src/health_server.c.obj
 .comment       0x0000007f       0x80 examples/beaconing/CMakeFiles/beaconing_nrf52840_xxAA_s140_6.0.0.dir/__/__/mesh/prov/src/prov_provisionee.c.obj
 .comment       0x0000007f       0x80 examples/beaconing/CMakeFiles/beaconing_nrf52840_xxAA_s140_6.0.0.dir/__/__/mesh/prov/src/nrf_mesh_prov.c.obj
 .comment       0x0000007f       0x80 examples/beaconing/CMakeFiles/beaconing_nrf52840_xxAA_s140_6.0.0.dir/__/__/mesh/prov/src/provisioning.c.obj
 .comment       0x0000007f       0x80 examples/beaconing/CMakeFiles/beaconing_nrf52840_xxAA_s140_6.0.0.dir/__/__/mesh/prov/src/prov_beacon.c.obj
 .comment       0x0000007f       0x80 examples/beaconing/CMakeFiles/beaconing_nrf52840_xxAA_s140_6.0.0.dir/__/__/mesh/prov/src/prov_utils.c.obj
 .comment       0x0000007f       0x80 examples/beaconing/CMakeFiles/beaconing_nrf52840_xxAA_s140_6.0.0.dir/__/__/mesh/prov/src/prov_bearer_adv.c.obj
 .comment       0x0000007f       0x80 examples/beaconing/CMakeFiles/beaconing_nrf52840_xxAA_s140_6.0.0.dir/__/__/mesh/core/src/nrf_mesh_configure.c.obj
 .comment       0x0000007f       0x80 examples/beaconing/CMakeFiles/beaconing_nrf52840_xxAA_s140_6.0.0.dir/__/__/mesh/core/src/aes.c.obj
 .comment       0x0000007f       0x80 examples/beaconing/CMakeFiles/beaconing_nrf52840_xxAA_s140_6.0.0.dir/__/__/mesh/core/src/msg_cache.c.obj
 .comment       0x0000007f       0x80 examples/beaconing/CMakeFiles/beaconing_nrf52840_xxAA_s140_6.0.0.dir/__/__/mesh/core/src/transport.c.obj
 .comment       0x0000007f       0x80 examples/beaconing/CMakeFiles/beaconing_nrf52840_xxAA_s140_6.0.0.dir/__/__/mesh/core/src/event.c.obj
 .comment       0x0000007f       0x80 examples/beaconing/CMakeFiles/beaconing_nrf52840_xxAA_s140_6.0.0.dir/__/__/mesh/core/src/packet_buffer.c.obj
 .comment       0x0000007f       0x80 examples/beaconing/CMakeFiles/beaconing_nrf52840_xxAA_s140_6.0.0.dir/__/__/mesh/core/src/flash_manager_defrag.c.obj
 .comment       0x0000007f       0x80 examples/beaconing/CMakeFiles/beaconing_nrf52840_xxAA_s140_6.0.0.dir/__/__/mesh/core/src/fifo.c.obj
 .comment       0x0000007f       0x80 examples/beaconing/CMakeFiles/beaconing_nrf52840_xxAA_s140_6.0.0.dir/__/__/mesh/core/src/nrf_flash.c.obj
 .comment       0x0000007f       0x80 examples/beaconing/CMakeFiles/beaconing_nrf52840_xxAA_s140_6.0.0.dir/__/__/mesh/core/src/packet_mgr.c.obj
 .comment       0x0000007f       0x80 examples/beaconing/CMakeFiles/beaconing_nrf52840_xxAA_s140_6.0.0.dir/__/__/mesh/core/src/net_state.c.obj
 .comment       0x0000007f       0x80 examples/beaconing/CMakeFiles/beaconing_nrf52840_xxAA_s140_6.0.0.dir/__/__/mesh/core/src/mesh_flash.c.obj
 .comment       0x0000007f       0x80 examples/beaconing/CMakeFiles/beaconing_nrf52840_xxAA_s140_6.0.0.dir/__/__/mesh/core/src/nrf_mesh_utils.c.obj
 .comment       0x0000007f       0x80 examples/beaconing/CMakeFiles/beaconing_nrf52840_xxAA_s140_6.0.0.dir/__/__/mesh/core/src/nrf_mesh.c.obj
 .comment       0x0000007f       0x80 examples/beaconing/CMakeFiles/beaconing_nrf52840_xxAA_s140_6.0.0.dir/__/__/mesh/core/src/queue.c.obj
 .comment       0x0000007f       0x80 examples/beaconing/CMakeFiles/beaconing_nrf52840_xxAA_s140_6.0.0.dir/__/__/mesh/core/src/hal.c.obj
 .comment       0x0000007f       0x80 examples/beaconing/CMakeFiles/beaconing_nrf52840_xxAA_s140_6.0.0.dir/__/__/mesh/core/src/aes_cmac.c.obj
 .comment       0x0000007f       0x80 examples/beaconing/CMakeFiles/beaconing_nrf52840_xxAA_s140_6.0.0.dir/__/__/mesh/core/src/timer_scheduler.c.obj
 .comment       0x0000007f       0x80 examples/beaconing/CMakeFiles/beaconing_nrf52840_xxAA_s140_6.0.0.dir/__/__/mesh/core/src/timer.c.obj
 .comment       0x0000007f       0x80 examples/beaconing/CMakeFiles/beaconing_nrf52840_xxAA_s140_6.0.0.dir/__/__/mesh/core/src/ticker.c.obj
 .comment       0x0000007f       0x80 examples/beaconing/CMakeFiles/beaconing_nrf52840_xxAA_s140_6.0.0.dir/__/__/mesh/core/src/rand.c.obj
 .comment       0x0000007f       0x80 examples/beaconing/CMakeFiles/beaconing_nrf52840_xxAA_s140_6.0.0.dir/__/__/mesh/core/src/nrf_mesh_opt.c.obj
 .comment       0x0000007f       0x80 examples/beaconing/CMakeFiles/beaconing_nrf52840_xxAA_s140_6.0.0.dir/__/__/mesh/core/src/timeslot.c.obj
 .comment       0x0000007f       0x80 examples/beaconing/CMakeFiles/beaconing_nrf52840_xxAA_s140_6.0.0.dir/__/__/mesh/core/src/bearer_event.c.obj
 .comment       0x0000007f       0x80 examples/beaconing/CMakeFiles/beaconing_nrf52840_xxAA_s140_6.0.0.dir/__/__/mesh/core/src/enc.c.obj
 .comment       0x0000007f       0x80 examples/beaconing/CMakeFiles/beaconing_nrf52840_xxAA_s140_6.0.0.dir/__/__/mesh/core/src/network.c.obj
 .comment       0x0000007f       0x80 examples/beaconing/CMakeFiles/beaconing_nrf52840_xxAA_s140_6.0.0.dir/__/__/mesh/core/src/net_packet.c.obj
 .comment       0x0000007f       0x80 examples/beaconing/CMakeFiles/beaconing_nrf52840_xxAA_s140_6.0.0.dir/__/__/mesh/core/src/msqueue.c.obj
 .comment       0x0000007f       0x80 examples/beaconing/CMakeFiles/beaconing_nrf52840_xxAA_s140_6.0.0.dir/__/__/mesh/core/src/nrf_mesh_keygen.c.obj
 .comment       0x0000007f       0x80 examples/beaconing/CMakeFiles/beaconing_nrf52840_xxAA_s140_6.0.0.dir/__/__/mesh/core/src/list.c.obj
 .comment       0x0000007f       0x80 examples/beaconing/CMakeFiles/beaconing_nrf52840_xxAA_s140_6.0.0.dir/__/__/mesh/core/src/log.c.obj
 .comment       0x0000007f       0x80 examples/beaconing/CMakeFiles/beaconing_nrf52840_xxAA_s140_6.0.0.dir/__/__/mesh/core/src/flash_manager.c.obj
 .comment       0x0000007f       0x80 examples/beaconing/CMakeFiles/beaconing_nrf52840_xxAA_s140_6.0.0.dir/__/__/mesh/core/src/ccm_soft.c.obj
 .comment       0x0000007f       0x80 examples/beaconing/CMakeFiles/beaconing_nrf52840_xxAA_s140_6.0.0.dir/__/__/mesh/core/src/replay_cache.c.obj
 .comment       0x0000007f       0x80 examples/beaconing/CMakeFiles/beaconing_nrf52840_xxAA_s140_6.0.0.dir/__/__/mesh/core/src/beacon.c.obj
 .comment       0x0000007f       0x80 examples/beaconing/CMakeFiles/beaconing_nrf52840_xxAA_s140_6.0.0.dir/__/__/mesh/core/src/flash_manager_internal.c.obj
 .comment       0x0000007f       0x80 examples/beaconing/CMakeFiles/beaconing_nrf52840_xxAA_s140_6.0.0.dir/__/__/mesh/core/src/core_tx.c.obj
 .comment       0x0000007f       0x80 examples/beaconing/CMakeFiles/beaconing_nrf52840_xxAA_s140_6.0.0.dir/__/__/mesh/core/src/heartbeat.c.obj
 .comment       0x0000007f       0x80 examples/beaconing/CMakeFiles/beaconing_nrf52840_xxAA_s140_6.0.0.dir/__/__/mesh/core/src/net_beacon.c.obj
 .comment       0x0000007f       0x80 examples/beaconing/CMakeFiles/beaconing_nrf52840_xxAA_s140_6.0.0.dir/__/__/mesh/core/src/core_tx_adv.c.obj
 .comment       0x0000007f       0x80 examples/beaconing/CMakeFiles/beaconing_nrf52840_xxAA_s140_6.0.0.dir/__/__/mesh/bearer/src/ad_listener.c.obj
 .comment       0x0000007f       0x80 examples/beaconing/CMakeFiles/beaconing_nrf52840_xxAA_s140_6.0.0.dir/__/__/mesh/bearer/src/ad_type_filter.c.obj
 .comment       0x0000007f       0x80 examples/beaconing/CMakeFiles/beaconing_nrf52840_xxAA_s140_6.0.0.dir/__/__/mesh/bearer/src/advertiser.c.obj
 .comment       0x0000007f       0x80 examples/beaconing/CMakeFiles/beaconing_nrf52840_xxAA_s140_6.0.0.dir/__/__/mesh/bearer/src/bearer_handler.c.obj
 .comment       0x0000007f       0x80 examples/beaconing/CMakeFiles/beaconing_nrf52840_xxAA_s140_6.0.0.dir/__/__/mesh/bearer/src/broadcast.c.obj
 .comment       0x0000007f       0x80 examples/beaconing/CMakeFiles/beaconing_nrf52840_xxAA_s140_6.0.0.dir/__/__/mesh/bearer/src/filter_engine.c.obj
 .comment       0x0000007f       0x80 examples/beaconing/CMakeFiles/beaconing_nrf52840_xxAA_s140_6.0.0.dir/__/__/mesh/bearer/src/radio_config.c.obj
 .comment       0x0000007f       0x80 examples/beaconing/CMakeFiles/beaconing_nrf52840_xxAA_s140_6.0.0.dir/__/__/mesh/bearer/src/scanner.c.obj
 .comment       0x0000007f       0x80 examples/beaconing/CMakeFiles/beaconing_nrf52840_xxAA_s140_6.0.0.dir/C_/b/nRF5_SDK_15.0.0_a53641a/modules/nrfx/mdk/system_nrf52840.c.obj
 .comment       0x0000007f       0x80 examples/beaconing/CMakeFiles/beaconing_nrf52840_xxAA_s140_6.0.0.dir/C_/b/nRF5_SDK_15.0.0_a53641a/components/libraries/util/app_error.c.obj
 .comment       0x0000007f       0x80 examples/beaconing/CMakeFiles/beaconing_nrf52840_xxAA_s140_6.0.0.dir/C_/b/nRF5_SDK_15.0.0_a53641a/components/libraries/util/app_error_handler_gcc.c.obj
 .comment       0x0000007f       0x80 external/rtt/librtt_nrf52840_xxAA.a(SEGGER_RTT.c.obj)
 .comment       0x0000007f       0x80 external/rtt/librtt_nrf52840_xxAA.a(SEGGER_RTT_printf.c.obj)
 .comment       0x0000007f       0x80 external/micro-ecc/libuECC_nrf52840_xxAA.a(uECC.c.obj)

.debug_info     0x00000000    0x7c4b3
 .debug_info    0x00000000     0x2f5f examples/beaconing/CMakeFiles/beaconing_nrf52840_xxAA_s140_6.0.0.dir/src/main.c.obj
 .debug_info    0x00002f5f     0x230b examples/beaconing/CMakeFiles/beaconing_nrf52840_xxAA_s140_6.0.0.dir/__/__/mesh/stack/src/mesh_stack.c.obj
 .debug_info    0x0000526a     0x1756 examples/beaconing/CMakeFiles/beaconing_nrf52840_xxAA_s140_6.0.0.dir/__/common/src/mesh_softdevice_init.c.obj
 .debug_info    0x000069c0     0x2171 examples/beaconing/CMakeFiles/beaconing_nrf52840_xxAA_s140_6.0.0.dir/__/common/src/mesh_provisionee.c.obj
 .debug_info    0x00008b31     0x1590 examples/beaconing/CMakeFiles/beaconing_nrf52840_xxAA_s140_6.0.0.dir/__/common/src/simple_hal.c.obj
 .debug_info    0x0000a0c1     0x1155 examples/beaconing/CMakeFiles/beaconing_nrf52840_xxAA_s140_6.0.0.dir/__/__/mesh/access/src/access_publish.c.obj
 .debug_info    0x0000b216     0x4a41 examples/beaconing/CMakeFiles/beaconing_nrf52840_xxAA_s140_6.0.0.dir/__/__/mesh/access/src/access.c.obj
 .debug_info    0x0000fc57     0x19d3 examples/beaconing/CMakeFiles/beaconing_nrf52840_xxAA_s140_6.0.0.dir/__/__/mesh/access/src/access_reliable.c.obj
 .debug_info    0x0001162a     0x65d4 examples/beaconing/CMakeFiles/beaconing_nrf52840_xxAA_s140_6.0.0.dir/__/__/mesh/access/src/device_state_manager.c.obj
 .debug_info    0x00017bfe      0x924 examples/beaconing/CMakeFiles/beaconing_nrf52840_xxAA_s140_6.0.0.dir/__/nrf_mesh_weak.c.obj
 .debug_info    0x00018522     0x106b examples/beaconing/CMakeFiles/beaconing_nrf52840_xxAA_s140_6.0.0.dir/__/common/src/app_error_weak.c.obj
 .debug_info    0x0001958d      0x99b examples/beaconing/CMakeFiles/beaconing_nrf52840_xxAA_s140_6.0.0.dir/__/common/src/assertion_handler_weak.c.obj
 .debug_info    0x00019f28      0xece examples/beaconing/CMakeFiles/beaconing_nrf52840_xxAA_s140_6.0.0.dir/__/__/models/config/src/composition_data.c.obj
 .debug_info    0x0001adf6     0x8a90 examples/beaconing/CMakeFiles/beaconing_nrf52840_xxAA_s140_6.0.0.dir/__/__/models/config/src/config_server.c.obj
 .debug_info    0x00023886      0x126 examples/beaconing/CMakeFiles/beaconing_nrf52840_xxAA_s140_6.0.0.dir/__/__/models/config/src/packed_index_list.c.obj
 .debug_info    0x000239ac     0x270a examples/beaconing/CMakeFiles/beaconing_nrf52840_xxAA_s140_6.0.0.dir/__/__/models/health/src/health_server.c.obj
 .debug_info    0x000260b6     0x2823 examples/beaconing/CMakeFiles/beaconing_nrf52840_xxAA_s140_6.0.0.dir/__/__/mesh/prov/src/prov_provisionee.c.obj
 .debug_info    0x000288d9     0x1ed2 examples/beaconing/CMakeFiles/beaconing_nrf52840_xxAA_s140_6.0.0.dir/__/__/mesh/prov/src/nrf_mesh_prov.c.obj
 .debug_info    0x0002a7ab     0x1586 examples/beaconing/CMakeFiles/beaconing_nrf52840_xxAA_s140_6.0.0.dir/__/__/mesh/prov/src/provisioning.c.obj
 .debug_info    0x0002bd31     0x1a48 examples/beaconing/CMakeFiles/beaconing_nrf52840_xxAA_s140_6.0.0.dir/__/__/mesh/prov/src/prov_beacon.c.obj
 .debug_info    0x0002d779     0x2054 examples/beaconing/CMakeFiles/beaconing_nrf52840_xxAA_s140_6.0.0.dir/__/__/mesh/prov/src/prov_utils.c.obj
 .debug_info    0x0002f7cd     0x3ab2 examples/beaconing/CMakeFiles/beaconing_nrf52840_xxAA_s140_6.0.0.dir/__/__/mesh/prov/src/prov_bearer_adv.c.obj
 .debug_info    0x0003327f      0xdff examples/beaconing/CMakeFiles/beaconing_nrf52840_xxAA_s140_6.0.0.dir/__/__/mesh/core/src/nrf_mesh_configure.c.obj
 .debug_info    0x0003407e      0xbf0 examples/beaconing/CMakeFiles/beaconing_nrf52840_xxAA_s140_6.0.0.dir/__/__/mesh/core/src/aes.c.obj
 .debug_info    0x00034c6e      0xa5a examples/beaconing/CMakeFiles/beaconing_nrf52840_xxAA_s140_6.0.0.dir/__/__/mesh/core/src/msg_cache.c.obj
 .debug_info    0x000356c8     0x5086 examples/beaconing/CMakeFiles/beaconing_nrf52840_xxAA_s140_6.0.0.dir/__/__/mesh/core/src/transport.c.obj
 .debug_info    0x0003a74e     0x171f examples/beaconing/CMakeFiles/beaconing_nrf52840_xxAA_s140_6.0.0.dir/__/__/mesh/core/src/event.c.obj
 .debug_info    0x0003be6d     0x1a22 examples/beaconing/CMakeFiles/beaconing_nrf52840_xxAA_s140_6.0.0.dir/__/__/mesh/core/src/packet_buffer.c.obj
 .debug_info    0x0003d88f     0x212b examples/beaconing/CMakeFiles/beaconing_nrf52840_xxAA_s140_6.0.0.dir/__/__/mesh/core/src/flash_manager_defrag.c.obj
 .debug_info    0x0003f9ba      0xd19 examples/beaconing/CMakeFiles/beaconing_nrf52840_xxAA_s140_6.0.0.dir/__/__/mesh/core/src/fifo.c.obj
 .debug_info    0x000406d3      0xb58 examples/beaconing/CMakeFiles/beaconing_nrf52840_xxAA_s140_6.0.0.dir/__/__/mesh/core/src/nrf_flash.c.obj
 .debug_info    0x0004122b     0x118d examples/beaconing/CMakeFiles/beaconing_nrf52840_xxAA_s140_6.0.0.dir/__/__/mesh/core/src/packet_mgr.c.obj
 .debug_info    0x000423b8     0x27ed examples/beaconing/CMakeFiles/beaconing_nrf52840_xxAA_s140_6.0.0.dir/__/__/mesh/core/src/net_state.c.obj
 .debug_info    0x00044ba5     0x1931 examples/beaconing/CMakeFiles/beaconing_nrf52840_xxAA_s140_6.0.0.dir/__/__/mesh/core/src/mesh_flash.c.obj
 .debug_info    0x000464d6      0xa78 examples/beaconing/CMakeFiles/beaconing_nrf52840_xxAA_s140_6.0.0.dir/__/__/mesh/core/src/nrf_mesh_utils.c.obj
 .debug_info    0x00046f4e     0x25a6 examples/beaconing/CMakeFiles/beaconing_nrf52840_xxAA_s140_6.0.0.dir/__/__/mesh/core/src/nrf_mesh.c.obj
 .debug_info    0x000494f4      0xb11 examples/beaconing/CMakeFiles/beaconing_nrf52840_xxAA_s140_6.0.0.dir/__/__/mesh/core/src/queue.c.obj
 .debug_info    0x0004a005      0x51a examples/beaconing/CMakeFiles/beaconing_nrf52840_xxAA_s140_6.0.0.dir/__/__/mesh/core/src/hal.c.obj
 .debug_info    0x0004a51f      0xe48 examples/beaconing/CMakeFiles/beaconing_nrf52840_xxAA_s140_6.0.0.dir/__/__/mesh/core/src/aes_cmac.c.obj
 .debug_info    0x0004b367     0x10e0 examples/beaconing/CMakeFiles/beaconing_nrf52840_xxAA_s140_6.0.0.dir/__/__/mesh/core/src/timer_scheduler.c.obj
 .debug_info    0x0004c447      0xdb4 examples/beaconing/CMakeFiles/beaconing_nrf52840_xxAA_s140_6.0.0.dir/__/__/mesh/core/src/timer.c.obj
 .debug_info    0x0004d1fb      0x20b examples/beaconing/CMakeFiles/beaconing_nrf52840_xxAA_s140_6.0.0.dir/__/__/mesh/core/src/ticker.c.obj
 .debug_info    0x0004d406      0x426 examples/beaconing/CMakeFiles/beaconing_nrf52840_xxAA_s140_6.0.0.dir/__/__/mesh/core/src/rand.c.obj
 .debug_info    0x0004d82c      0xaf5 examples/beaconing/CMakeFiles/beaconing_nrf52840_xxAA_s140_6.0.0.dir/__/__/mesh/core/src/nrf_mesh_opt.c.obj
 .debug_info    0x0004e321     0x1a71 examples/beaconing/CMakeFiles/beaconing_nrf52840_xxAA_s140_6.0.0.dir/__/__/mesh/core/src/timeslot.c.obj
 .debug_info    0x0004fd92     0x1a9c examples/beaconing/CMakeFiles/beaconing_nrf52840_xxAA_s140_6.0.0.dir/__/__/mesh/core/src/bearer_event.c.obj
 .debug_info    0x0005182e     0x1703 examples/beaconing/CMakeFiles/beaconing_nrf52840_xxAA_s140_6.0.0.dir/__/__/mesh/core/src/enc.c.obj
 .debug_info    0x00052f31     0x1acb examples/beaconing/CMakeFiles/beaconing_nrf52840_xxAA_s140_6.0.0.dir/__/__/mesh/core/src/network.c.obj
 .debug_info    0x000549fc     0x1cad examples/beaconing/CMakeFiles/beaconing_nrf52840_xxAA_s140_6.0.0.dir/__/__/mesh/core/src/net_packet.c.obj
 .debug_info    0x000566a9      0xd86 examples/beaconing/CMakeFiles/beaconing_nrf52840_xxAA_s140_6.0.0.dir/__/__/mesh/core/src/msqueue.c.obj
 .debug_info    0x0005742f      0x4c7 examples/beaconing/CMakeFiles/beaconing_nrf52840_xxAA_s140_6.0.0.dir/__/__/mesh/core/src/nrf_mesh_keygen.c.obj
 .debug_info    0x000578f6      0x506 examples/beaconing/CMakeFiles/beaconing_nrf52840_xxAA_s140_6.0.0.dir/__/__/mesh/core/src/list.c.obj
 .debug_info    0x00057dfc      0xe28 examples/beaconing/CMakeFiles/beaconing_nrf52840_xxAA_s140_6.0.0.dir/__/__/mesh/core/src/log.c.obj
 .debug_info    0x00058c24     0x3024 examples/beaconing/CMakeFiles/beaconing_nrf52840_xxAA_s140_6.0.0.dir/__/__/mesh/core/src/flash_manager.c.obj
 .debug_info    0x0005bc48     0x10a3 examples/beaconing/CMakeFiles/beaconing_nrf52840_xxAA_s140_6.0.0.dir/__/__/mesh/core/src/ccm_soft.c.obj
 .debug_info    0x0005cceb      0xa93 examples/beaconing/CMakeFiles/beaconing_nrf52840_xxAA_s140_6.0.0.dir/__/__/mesh/core/src/replay_cache.c.obj
 .debug_info    0x0005d77e     0x177f examples/beaconing/CMakeFiles/beaconing_nrf52840_xxAA_s140_6.0.0.dir/__/__/mesh/core/src/beacon.c.obj
 .debug_info    0x0005eefd      0xb9b examples/beaconing/CMakeFiles/beaconing_nrf52840_xxAA_s140_6.0.0.dir/__/__/mesh/core/src/flash_manager_internal.c.obj
 .debug_info    0x0005fa98     0x126f examples/beaconing/CMakeFiles/beaconing_nrf52840_xxAA_s140_6.0.0.dir/__/__/mesh/core/src/core_tx.c.obj
 .debug_info    0x00060d07     0x24d8 examples/beaconing/CMakeFiles/beaconing_nrf52840_xxAA_s140_6.0.0.dir/__/__/mesh/core/src/heartbeat.c.obj
 .debug_info    0x000631df     0x28ac examples/beaconing/CMakeFiles/beaconing_nrf52840_xxAA_s140_6.0.0.dir/__/__/mesh/core/src/net_beacon.c.obj
 .debug_info    0x00065a8b     0x197b examples/beaconing/CMakeFiles/beaconing_nrf52840_xxAA_s140_6.0.0.dir/__/__/mesh/core/src/core_tx_adv.c.obj
 .debug_info    0x00067406     0x1164 examples/beaconing/CMakeFiles/beaconing_nrf52840_xxAA_s140_6.0.0.dir/__/__/mesh/bearer/src/ad_listener.c.obj
 .debug_info    0x0006856a      0xfbe examples/beaconing/CMakeFiles/beaconing_nrf52840_xxAA_s140_6.0.0.dir/__/__/mesh/bearer/src/ad_type_filter.c.obj
 .debug_info    0x00069528     0x267f examples/beaconing/CMakeFiles/beaconing_nrf52840_xxAA_s140_6.0.0.dir/__/__/mesh/bearer/src/advertiser.c.obj
 .debug_info    0x0006bba7     0x1b53 examples/beaconing/CMakeFiles/beaconing_nrf52840_xxAA_s140_6.0.0.dir/__/__/mesh/bearer/src/bearer_handler.c.obj
 .debug_info    0x0006d6fa     0x1af7 examples/beaconing/CMakeFiles/beaconing_nrf52840_xxAA_s140_6.0.0.dir/__/__/mesh/bearer/src/broadcast.c.obj
 .debug_info    0x0006f1f1      0xcff examples/beaconing/CMakeFiles/beaconing_nrf52840_xxAA_s140_6.0.0.dir/__/__/mesh/bearer/src/filter_engine.c.obj
 .debug_info    0x0006fef0      0xa35 examples/beaconing/CMakeFiles/beaconing_nrf52840_xxAA_s140_6.0.0.dir/__/__/mesh/bearer/src/radio_config.c.obj
 .debug_info    0x00070925     0x27a3 examples/beaconing/CMakeFiles/beaconing_nrf52840_xxAA_s140_6.0.0.dir/__/__/mesh/bearer/src/scanner.c.obj
 .debug_info    0x000730c8     0x139f examples/beaconing/CMakeFiles/beaconing_nrf52840_xxAA_s140_6.0.0.dir/C_/b/nRF5_SDK_15.0.0_a53641a/modules/nrfx/mdk/system_nrf52840.c.obj
 .debug_info    0x00074467      0xaee examples/beaconing/CMakeFiles/beaconing_nrf52840_xxAA_s140_6.0.0.dir/C_/b/nRF5_SDK_15.0.0_a53641a/components/libraries/util/app_error.c.obj
 .debug_info    0x00074f55      0x974 examples/beaconing/CMakeFiles/beaconing_nrf52840_xxAA_s140_6.0.0.dir/C_/b/nRF5_SDK_15.0.0_a53641a/components/libraries/util/app_error_handler_gcc.c.obj
 .debug_info    0x000758c9     0x1818 external/rtt/librtt_nrf52840_xxAA.a(SEGGER_RTT.c.obj)
 .debug_info    0x000770e1      0xec1 external/rtt/librtt_nrf52840_xxAA.a(SEGGER_RTT_printf.c.obj)
 .debug_info    0x00077fa2     0x4511 external/micro-ecc/libuECC_nrf52840_xxAA.a(uECC.c.obj)

.debug_abbrev   0x00000000    0x10387
 .debug_abbrev  0x00000000      0x4ca examples/beaconing/CMakeFiles/beaconing_nrf52840_xxAA_s140_6.0.0.dir/src/main.c.obj
 .debug_abbrev  0x000004ca      0x36b examples/beaconing/CMakeFiles/beaconing_nrf52840_xxAA_s140_6.0.0.dir/__/__/mesh/stack/src/mesh_stack.c.obj
 .debug_abbrev  0x00000835      0x40b examples/beaconing/CMakeFiles/beaconing_nrf52840_xxAA_s140_6.0.0.dir/__/common/src/mesh_softdevice_init.c.obj
 .debug_abbrev  0x00000c40      0x312 examples/beaconing/CMakeFiles/beaconing_nrf52840_xxAA_s140_6.0.0.dir/__/common/src/mesh_provisionee.c.obj
 .debug_abbrev  0x00000f52      0x36b examples/beaconing/CMakeFiles/beaconing_nrf52840_xxAA_s140_6.0.0.dir/__/common/src/simple_hal.c.obj
 .debug_abbrev  0x000012bd      0x434 examples/beaconing/CMakeFiles/beaconing_nrf52840_xxAA_s140_6.0.0.dir/__/__/mesh/access/src/access_publish.c.obj
 .debug_abbrev  0x000016f1      0x646 examples/beaconing/CMakeFiles/beaconing_nrf52840_xxAA_s140_6.0.0.dir/__/__/mesh/access/src/access.c.obj
 .debug_abbrev  0x00001d37      0x43b examples/beaconing/CMakeFiles/beaconing_nrf52840_xxAA_s140_6.0.0.dir/__/__/mesh/access/src/access_reliable.c.obj
 .debug_abbrev  0x00002172      0x604 examples/beaconing/CMakeFiles/beaconing_nrf52840_xxAA_s140_6.0.0.dir/__/__/mesh/access/src/device_state_manager.c.obj
 .debug_abbrev  0x00002776      0x1ae examples/beaconing/CMakeFiles/beaconing_nrf52840_xxAA_s140_6.0.0.dir/__/nrf_mesh_weak.c.obj
 .debug_abbrev  0x00002924      0x2de examples/beaconing/CMakeFiles/beaconing_nrf52840_xxAA_s140_6.0.0.dir/__/common/src/app_error_weak.c.obj
 .debug_abbrev  0x00002c02      0x1f6 examples/beaconing/CMakeFiles/beaconing_nrf52840_xxAA_s140_6.0.0.dir/__/common/src/assertion_handler_weak.c.obj
 .debug_abbrev  0x00002df8      0x2db examples/beaconing/CMakeFiles/beaconing_nrf52840_xxAA_s140_6.0.0.dir/__/__/models/config/src/composition_data.c.obj
 .debug_abbrev  0x000030d3      0x54e examples/beaconing/CMakeFiles/beaconing_nrf52840_xxAA_s140_6.0.0.dir/__/__/models/config/src/config_server.c.obj
 .debug_abbrev  0x00003621       0x95 examples/beaconing/CMakeFiles/beaconing_nrf52840_xxAA_s140_6.0.0.dir/__/__/models/config/src/packed_index_list.c.obj
 .debug_abbrev  0x000036b6      0x4d0 examples/beaconing/CMakeFiles/beaconing_nrf52840_xxAA_s140_6.0.0.dir/__/__/models/health/src/health_server.c.obj
 .debug_abbrev  0x00003b86      0x491 examples/beaconing/CMakeFiles/beaconing_nrf52840_xxAA_s140_6.0.0.dir/__/__/mesh/prov/src/prov_provisionee.c.obj
 .debug_abbrev  0x00004017      0x434 examples/beaconing/CMakeFiles/beaconing_nrf52840_xxAA_s140_6.0.0.dir/__/__/mesh/prov/src/nrf_mesh_prov.c.obj
 .debug_abbrev  0x0000444b      0x2a9 examples/beaconing/CMakeFiles/beaconing_nrf52840_xxAA_s140_6.0.0.dir/__/__/mesh/prov/src/provisioning.c.obj
 .debug_abbrev  0x000046f4      0x2c8 examples/beaconing/CMakeFiles/beaconing_nrf52840_xxAA_s140_6.0.0.dir/__/__/mesh/prov/src/prov_beacon.c.obj
 .debug_abbrev  0x000049bc      0x3ca examples/beaconing/CMakeFiles/beaconing_nrf52840_xxAA_s140_6.0.0.dir/__/__/mesh/prov/src/prov_utils.c.obj
 .debug_abbrev  0x00004d86      0x4eb examples/beaconing/CMakeFiles/beaconing_nrf52840_xxAA_s140_6.0.0.dir/__/__/mesh/prov/src/prov_bearer_adv.c.obj
 .debug_abbrev  0x00005271      0x254 examples/beaconing/CMakeFiles/beaconing_nrf52840_xxAA_s140_6.0.0.dir/__/__/mesh/core/src/nrf_mesh_configure.c.obj
 .debug_abbrev  0x000054c5      0x264 examples/beaconing/CMakeFiles/beaconing_nrf52840_xxAA_s140_6.0.0.dir/__/__/mesh/core/src/aes.c.obj
 .debug_abbrev  0x00005729      0x25d examples/beaconing/CMakeFiles/beaconing_nrf52840_xxAA_s140_6.0.0.dir/__/__/mesh/core/src/msg_cache.c.obj
 .debug_abbrev  0x00005986      0x5e8 examples/beaconing/CMakeFiles/beaconing_nrf52840_xxAA_s140_6.0.0.dir/__/__/mesh/core/src/transport.c.obj
 .debug_abbrev  0x00005f6e      0x2be examples/beaconing/CMakeFiles/beaconing_nrf52840_xxAA_s140_6.0.0.dir/__/__/mesh/core/src/event.c.obj
 .debug_abbrev  0x0000622c      0x468 examples/beaconing/CMakeFiles/beaconing_nrf52840_xxAA_s140_6.0.0.dir/__/__/mesh/core/src/packet_buffer.c.obj
 .debug_abbrev  0x00006694      0x50e examples/beaconing/CMakeFiles/beaconing_nrf52840_xxAA_s140_6.0.0.dir/__/__/mesh/core/src/flash_manager_defrag.c.obj
 .debug_abbrev  0x00006ba2      0x2f2 examples/beaconing/CMakeFiles/beaconing_nrf52840_xxAA_s140_6.0.0.dir/__/__/mesh/core/src/fifo.c.obj
 .debug_abbrev  0x00006e94      0x21f examples/beaconing/CMakeFiles/beaconing_nrf52840_xxAA_s140_6.0.0.dir/__/__/mesh/core/src/nrf_flash.c.obj
 .debug_abbrev  0x000070b3      0x3b1 examples/beaconing/CMakeFiles/beaconing_nrf52840_xxAA_s140_6.0.0.dir/__/__/mesh/core/src/packet_mgr.c.obj
 .debug_abbrev  0x00007464      0x552 examples/beaconing/CMakeFiles/beaconing_nrf52840_xxAA_s140_6.0.0.dir/__/__/mesh/core/src/net_state.c.obj
 .debug_abbrev  0x000079b6      0x453 examples/beaconing/CMakeFiles/beaconing_nrf52840_xxAA_s140_6.0.0.dir/__/__/mesh/core/src/mesh_flash.c.obj
 .debug_abbrev  0x00007e09      0x242 examples/beaconing/CMakeFiles/beaconing_nrf52840_xxAA_s140_6.0.0.dir/__/__/mesh/core/src/nrf_mesh_utils.c.obj
 .debug_abbrev  0x0000804b      0x476 examples/beaconing/CMakeFiles/beaconing_nrf52840_xxAA_s140_6.0.0.dir/__/__/mesh/core/src/nrf_mesh.c.obj
 .debug_abbrev  0x000084c1      0x247 examples/beaconing/CMakeFiles/beaconing_nrf52840_xxAA_s140_6.0.0.dir/__/__/mesh/core/src/queue.c.obj
 .debug_abbrev  0x00008708      0x1cf examples/beaconing/CMakeFiles/beaconing_nrf52840_xxAA_s140_6.0.0.dir/__/__/mesh/core/src/hal.c.obj
 .debug_abbrev  0x000088d7      0x332 examples/beaconing/CMakeFiles/beaconing_nrf52840_xxAA_s140_6.0.0.dir/__/__/mesh/core/src/aes_cmac.c.obj
 .debug_abbrev  0x00008c09      0x3bc examples/beaconing/CMakeFiles/beaconing_nrf52840_xxAA_s140_6.0.0.dir/__/__/mesh/core/src/timer_scheduler.c.obj
 .debug_abbrev  0x00008fc5      0x337 examples/beaconing/CMakeFiles/beaconing_nrf52840_xxAA_s140_6.0.0.dir/__/__/mesh/core/src/timer.c.obj
 .debug_abbrev  0x000092fc      0x152 examples/beaconing/CMakeFiles/beaconing_nrf52840_xxAA_s140_6.0.0.dir/__/__/mesh/core/src/ticker.c.obj
 .debug_abbrev  0x0000944e      0x194 examples/beaconing/CMakeFiles/beaconing_nrf52840_xxAA_s140_6.0.0.dir/__/__/mesh/core/src/rand.c.obj
 .debug_abbrev  0x000095e2      0x24a examples/beaconing/CMakeFiles/beaconing_nrf52840_xxAA_s140_6.0.0.dir/__/__/mesh/core/src/nrf_mesh_opt.c.obj
 .debug_abbrev  0x0000982c      0x4a4 examples/beaconing/CMakeFiles/beaconing_nrf52840_xxAA_s140_6.0.0.dir/__/__/mesh/core/src/timeslot.c.obj
 .debug_abbrev  0x00009cd0      0x4b5 examples/beaconing/CMakeFiles/beaconing_nrf52840_xxAA_s140_6.0.0.dir/__/__/mesh/core/src/bearer_event.c.obj
 .debug_abbrev  0x0000a185      0x375 examples/beaconing/CMakeFiles/beaconing_nrf52840_xxAA_s140_6.0.0.dir/__/__/mesh/core/src/enc.c.obj
 .debug_abbrev  0x0000a4fa      0x496 examples/beaconing/CMakeFiles/beaconing_nrf52840_xxAA_s140_6.0.0.dir/__/__/mesh/core/src/network.c.obj
 .debug_abbrev  0x0000a990      0x4a1 examples/beaconing/CMakeFiles/beaconing_nrf52840_xxAA_s140_6.0.0.dir/__/__/mesh/core/src/net_packet.c.obj
 .debug_abbrev  0x0000ae31      0x2c0 examples/beaconing/CMakeFiles/beaconing_nrf52840_xxAA_s140_6.0.0.dir/__/__/mesh/core/src/msqueue.c.obj
 .debug_abbrev  0x0000b0f1      0x156 examples/beaconing/CMakeFiles/beaconing_nrf52840_xxAA_s140_6.0.0.dir/__/__/mesh/core/src/nrf_mesh_keygen.c.obj
 .debug_abbrev  0x0000b247      0x1a4 examples/beaconing/CMakeFiles/beaconing_nrf52840_xxAA_s140_6.0.0.dir/__/__/mesh/core/src/list.c.obj
 .debug_abbrev  0x0000b3eb      0x24e examples/beaconing/CMakeFiles/beaconing_nrf52840_xxAA_s140_6.0.0.dir/__/__/mesh/core/src/log.c.obj
 .debug_abbrev  0x0000b639      0x524 examples/beaconing/CMakeFiles/beaconing_nrf52840_xxAA_s140_6.0.0.dir/__/__/mesh/core/src/flash_manager.c.obj
 .debug_abbrev  0x0000bb5d      0x2b3 examples/beaconing/CMakeFiles/beaconing_nrf52840_xxAA_s140_6.0.0.dir/__/__/mesh/core/src/ccm_soft.c.obj
 .debug_abbrev  0x0000be10      0x270 examples/beaconing/CMakeFiles/beaconing_nrf52840_xxAA_s140_6.0.0.dir/__/__/mesh/core/src/replay_cache.c.obj
 .debug_abbrev  0x0000c080      0x2c4 examples/beaconing/CMakeFiles/beaconing_nrf52840_xxAA_s140_6.0.0.dir/__/__/mesh/core/src/beacon.c.obj
 .debug_abbrev  0x0000c344      0x288 examples/beaconing/CMakeFiles/beaconing_nrf52840_xxAA_s140_6.0.0.dir/__/__/mesh/core/src/flash_manager_internal.c.obj
 .debug_abbrev  0x0000c5cc      0x2ed examples/beaconing/CMakeFiles/beaconing_nrf52840_xxAA_s140_6.0.0.dir/__/__/mesh/core/src/core_tx.c.obj
 .debug_abbrev  0x0000c8b9      0x4be examples/beaconing/CMakeFiles/beaconing_nrf52840_xxAA_s140_6.0.0.dir/__/__/mesh/core/src/heartbeat.c.obj
 .debug_abbrev  0x0000cd77      0x4ac examples/beaconing/CMakeFiles/beaconing_nrf52840_xxAA_s140_6.0.0.dir/__/__/mesh/core/src/net_beacon.c.obj
 .debug_abbrev  0x0000d223      0x2fa examples/beaconing/CMakeFiles/beaconing_nrf52840_xxAA_s140_6.0.0.dir/__/__/mesh/core/src/core_tx_adv.c.obj
 .debug_abbrev  0x0000d51d      0x341 examples/beaconing/CMakeFiles/beaconing_nrf52840_xxAA_s140_6.0.0.dir/__/__/mesh/bearer/src/ad_listener.c.obj
 .debug_abbrev  0x0000d85e      0x368 examples/beaconing/CMakeFiles/beaconing_nrf52840_xxAA_s140_6.0.0.dir/__/__/mesh/bearer/src/ad_type_filter.c.obj
 .debug_abbrev  0x0000dbc6      0x4ed examples/beaconing/CMakeFiles/beaconing_nrf52840_xxAA_s140_6.0.0.dir/__/__/mesh/bearer/src/advertiser.c.obj
 .debug_abbrev  0x0000e0b3      0x3e2 examples/beaconing/CMakeFiles/beaconing_nrf52840_xxAA_s140_6.0.0.dir/__/__/mesh/bearer/src/bearer_handler.c.obj
 .debug_abbrev  0x0000e495      0x3c8 examples/beaconing/CMakeFiles/beaconing_nrf52840_xxAA_s140_6.0.0.dir/__/__/mesh/bearer/src/broadcast.c.obj
 .debug_abbrev  0x0000e85d      0x2a6 examples/beaconing/CMakeFiles/beaconing_nrf52840_xxAA_s140_6.0.0.dir/__/__/mesh/bearer/src/filter_engine.c.obj
 .debug_abbrev  0x0000eb03      0x1d5 examples/beaconing/CMakeFiles/beaconing_nrf52840_xxAA_s140_6.0.0.dir/__/__/mesh/bearer/src/radio_config.c.obj
 .debug_abbrev  0x0000ecd8      0x52a examples/beaconing/CMakeFiles/beaconing_nrf52840_xxAA_s140_6.0.0.dir/__/__/mesh/bearer/src/scanner.c.obj
 .debug_abbrev  0x0000f202      0x20b examples/beaconing/CMakeFiles/beaconing_nrf52840_xxAA_s140_6.0.0.dir/C_/b/nRF5_SDK_15.0.0_a53641a/modules/nrfx/mdk/system_nrf52840.c.obj
 .debug_abbrev  0x0000f40d      0x232 examples/beaconing/CMakeFiles/beaconing_nrf52840_xxAA_s140_6.0.0.dir/C_/b/nRF5_SDK_15.0.0_a53641a/components/libraries/util/app_error.c.obj
 .debug_abbrev  0x0000f63f      0x1bd examples/beaconing/CMakeFiles/beaconing_nrf52840_xxAA_s140_6.0.0.dir/C_/b/nRF5_SDK_15.0.0_a53641a/components/libraries/util/app_error_handler_gcc.c.obj
 .debug_abbrev  0x0000f7fc      0x3a9 external/rtt/librtt_nrf52840_xxAA.a(SEGGER_RTT.c.obj)
 .debug_abbrev  0x0000fba5      0x32e external/rtt/librtt_nrf52840_xxAA.a(SEGGER_RTT_printf.c.obj)
 .debug_abbrev  0x0000fed3      0x4b4 external/micro-ecc/libuECC_nrf52840_xxAA.a(uECC.c.obj)

.debug_loc      0x00000000    0x2337a
 .debug_loc     0x00000000      0x1f8 examples/beaconing/CMakeFiles/beaconing_nrf52840_xxAA_s140_6.0.0.dir/src/main.c.obj
 .debug_loc     0x000001f8      0x192 examples/beaconing/CMakeFiles/beaconing_nrf52840_xxAA_s140_6.0.0.dir/__/__/mesh/stack/src/mesh_stack.c.obj
 .debug_loc     0x0000038a      0x1b3 examples/beaconing/CMakeFiles/beaconing_nrf52840_xxAA_s140_6.0.0.dir/__/common/src/mesh_softdevice_init.c.obj
 .debug_loc     0x0000053d      0x10a examples/beaconing/CMakeFiles/beaconing_nrf52840_xxAA_s140_6.0.0.dir/__/common/src/mesh_provisionee.c.obj
 .debug_loc     0x00000647      0x277 examples/beaconing/CMakeFiles/beaconing_nrf52840_xxAA_s140_6.0.0.dir/__/common/src/simple_hal.c.obj
 .debug_loc     0x000008be      0x4d4 examples/beaconing/CMakeFiles/beaconing_nrf52840_xxAA_s140_6.0.0.dir/__/__/mesh/access/src/access_publish.c.obj
 .debug_loc     0x00000d92     0x2460 examples/beaconing/CMakeFiles/beaconing_nrf52840_xxAA_s140_6.0.0.dir/__/__/mesh/access/src/access.c.obj
 .debug_loc     0x000031f2      0x886 examples/beaconing/CMakeFiles/beaconing_nrf52840_xxAA_s140_6.0.0.dir/__/__/mesh/access/src/access_reliable.c.obj
 .debug_loc     0x00003a78     0x39ce examples/beaconing/CMakeFiles/beaconing_nrf52840_xxAA_s140_6.0.0.dir/__/__/mesh/access/src/device_state_manager.c.obj
 .debug_loc     0x00007446      0x18c examples/beaconing/CMakeFiles/beaconing_nrf52840_xxAA_s140_6.0.0.dir/__/common/src/app_error_weak.c.obj
 .debug_loc     0x000075d2       0x2c examples/beaconing/CMakeFiles/beaconing_nrf52840_xxAA_s140_6.0.0.dir/__/common/src/assertion_handler_weak.c.obj
 .debug_loc     0x000075fe      0x26f examples/beaconing/CMakeFiles/beaconing_nrf52840_xxAA_s140_6.0.0.dir/__/__/models/config/src/composition_data.c.obj
 .debug_loc     0x0000786d     0x4c72 examples/beaconing/CMakeFiles/beaconing_nrf52840_xxAA_s140_6.0.0.dir/__/__/models/config/src/config_server.c.obj
 .debug_loc     0x0000c4df       0x89 examples/beaconing/CMakeFiles/beaconing_nrf52840_xxAA_s140_6.0.0.dir/__/__/models/config/src/packed_index_list.c.obj
 .debug_loc     0x0000c568     0x13e7 examples/beaconing/CMakeFiles/beaconing_nrf52840_xxAA_s140_6.0.0.dir/__/__/models/health/src/health_server.c.obj
 .debug_loc     0x0000d94f      0x766 examples/beaconing/CMakeFiles/beaconing_nrf52840_xxAA_s140_6.0.0.dir/__/__/mesh/prov/src/prov_provisionee.c.obj
 .debug_loc     0x0000e0b5      0xa4b examples/beaconing/CMakeFiles/beaconing_nrf52840_xxAA_s140_6.0.0.dir/__/__/mesh/prov/src/nrf_mesh_prov.c.obj
 .debug_loc     0x0000eb00      0x490 examples/beaconing/CMakeFiles/beaconing_nrf52840_xxAA_s140_6.0.0.dir/__/__/mesh/prov/src/provisioning.c.obj
 .debug_loc     0x0000ef90      0x18c examples/beaconing/CMakeFiles/beaconing_nrf52840_xxAA_s140_6.0.0.dir/__/__/mesh/prov/src/prov_beacon.c.obj
 .debug_loc     0x0000f11c      0x40b examples/beaconing/CMakeFiles/beaconing_nrf52840_xxAA_s140_6.0.0.dir/__/__/mesh/prov/src/prov_utils.c.obj
 .debug_loc     0x0000f527     0x1457 examples/beaconing/CMakeFiles/beaconing_nrf52840_xxAA_s140_6.0.0.dir/__/__/mesh/prov/src/prov_bearer_adv.c.obj
 .debug_loc     0x0001097e       0x2c examples/beaconing/CMakeFiles/beaconing_nrf52840_xxAA_s140_6.0.0.dir/__/__/mesh/core/src/nrf_mesh_configure.c.obj
 .debug_loc     0x000109aa       0x89 examples/beaconing/CMakeFiles/beaconing_nrf52840_xxAA_s140_6.0.0.dir/__/__/mesh/core/src/aes.c.obj
 .debug_loc     0x00010a33      0x10d examples/beaconing/CMakeFiles/beaconing_nrf52840_xxAA_s140_6.0.0.dir/__/__/mesh/core/src/msg_cache.c.obj
 .debug_loc     0x00010b40     0x259a examples/beaconing/CMakeFiles/beaconing_nrf52840_xxAA_s140_6.0.0.dir/__/__/mesh/core/src/transport.c.obj
 .debug_loc     0x000130da       0xff examples/beaconing/CMakeFiles/beaconing_nrf52840_xxAA_s140_6.0.0.dir/__/__/mesh/core/src/event.c.obj
 .debug_loc     0x000131d9      0x816 examples/beaconing/CMakeFiles/beaconing_nrf52840_xxAA_s140_6.0.0.dir/__/__/mesh/core/src/packet_buffer.c.obj
 .debug_loc     0x000139ef      0x7fe examples/beaconing/CMakeFiles/beaconing_nrf52840_xxAA_s140_6.0.0.dir/__/__/mesh/core/src/flash_manager_defrag.c.obj
 .debug_loc     0x000141ed      0x4f6 examples/beaconing/CMakeFiles/beaconing_nrf52840_xxAA_s140_6.0.0.dir/__/__/mesh/core/src/fifo.c.obj
 .debug_loc     0x000146e3      0x17a examples/beaconing/CMakeFiles/beaconing_nrf52840_xxAA_s140_6.0.0.dir/__/__/mesh/core/src/nrf_flash.c.obj
 .debug_loc     0x0001485d      0x6c1 examples/beaconing/CMakeFiles/beaconing_nrf52840_xxAA_s140_6.0.0.dir/__/__/mesh/core/src/packet_mgr.c.obj
 .debug_loc     0x00014f1e      0x936 examples/beaconing/CMakeFiles/beaconing_nrf52840_xxAA_s140_6.0.0.dir/__/__/mesh/core/src/net_state.c.obj
 .debug_loc     0x00015854      0x8be examples/beaconing/CMakeFiles/beaconing_nrf52840_xxAA_s140_6.0.0.dir/__/__/mesh/core/src/mesh_flash.c.obj
 .debug_loc     0x00016112       0xf8 examples/beaconing/CMakeFiles/beaconing_nrf52840_xxAA_s140_6.0.0.dir/__/__/mesh/core/src/nrf_mesh_utils.c.obj
 .debug_loc     0x0001620a      0x4f8 examples/beaconing/CMakeFiles/beaconing_nrf52840_xxAA_s140_6.0.0.dir/__/__/mesh/core/src/nrf_mesh.c.obj
 .debug_loc     0x00016702       0xf5 examples/beaconing/CMakeFiles/beaconing_nrf52840_xxAA_s140_6.0.0.dir/__/__/mesh/core/src/queue.c.obj
 .debug_loc     0x000167f7       0x63 examples/beaconing/CMakeFiles/beaconing_nrf52840_xxAA_s140_6.0.0.dir/__/__/mesh/core/src/hal.c.obj
 .debug_loc     0x0001685a      0x3f8 examples/beaconing/CMakeFiles/beaconing_nrf52840_xxAA_s140_6.0.0.dir/__/__/mesh/core/src/aes_cmac.c.obj
 .debug_loc     0x00016c52      0x2d1 examples/beaconing/CMakeFiles/beaconing_nrf52840_xxAA_s140_6.0.0.dir/__/__/mesh/core/src/timer_scheduler.c.obj
 .debug_loc     0x00016f23      0x5f9 examples/beaconing/CMakeFiles/beaconing_nrf52840_xxAA_s140_6.0.0.dir/__/__/mesh/core/src/timer.c.obj
 .debug_loc     0x0001751c      0x14e examples/beaconing/CMakeFiles/beaconing_nrf52840_xxAA_s140_6.0.0.dir/__/__/mesh/core/src/rand.c.obj
 .debug_loc     0x0001766a      0x194 examples/beaconing/CMakeFiles/beaconing_nrf52840_xxAA_s140_6.0.0.dir/__/__/mesh/core/src/nrf_mesh_opt.c.obj
 .debug_loc     0x000177fe      0x344 examples/beaconing/CMakeFiles/beaconing_nrf52840_xxAA_s140_6.0.0.dir/__/__/mesh/core/src/timeslot.c.obj
 .debug_loc     0x00017b42      0x526 examples/beaconing/CMakeFiles/beaconing_nrf52840_xxAA_s140_6.0.0.dir/__/__/mesh/core/src/bearer_event.c.obj
 .debug_loc     0x00018068      0x8c1 examples/beaconing/CMakeFiles/beaconing_nrf52840_xxAA_s140_6.0.0.dir/__/__/mesh/core/src/enc.c.obj
 .debug_loc     0x00018929      0x5da examples/beaconing/CMakeFiles/beaconing_nrf52840_xxAA_s140_6.0.0.dir/__/__/mesh/core/src/network.c.obj
 .debug_loc     0x00018f03      0x817 examples/beaconing/CMakeFiles/beaconing_nrf52840_xxAA_s140_6.0.0.dir/__/__/mesh/core/src/net_packet.c.obj
 .debug_loc     0x0001971a      0x2ed examples/beaconing/CMakeFiles/beaconing_nrf52840_xxAA_s140_6.0.0.dir/__/__/mesh/core/src/msqueue.c.obj
 .debug_loc     0x00019a07      0x1ee examples/beaconing/CMakeFiles/beaconing_nrf52840_xxAA_s140_6.0.0.dir/__/__/mesh/core/src/nrf_mesh_keygen.c.obj
 .debug_loc     0x00019bf5      0x3bf examples/beaconing/CMakeFiles/beaconing_nrf52840_xxAA_s140_6.0.0.dir/__/__/mesh/core/src/list.c.obj
 .debug_loc     0x00019fb4      0x348 examples/beaconing/CMakeFiles/beaconing_nrf52840_xxAA_s140_6.0.0.dir/__/__/mesh/core/src/log.c.obj
 .debug_loc     0x0001a2fc     0x1439 examples/beaconing/CMakeFiles/beaconing_nrf52840_xxAA_s140_6.0.0.dir/__/__/mesh/core/src/flash_manager.c.obj
 .debug_loc     0x0001b735      0x371 examples/beaconing/CMakeFiles/beaconing_nrf52840_xxAA_s140_6.0.0.dir/__/__/mesh/core/src/ccm_soft.c.obj
 .debug_loc     0x0001baa6      0x141 examples/beaconing/CMakeFiles/beaconing_nrf52840_xxAA_s140_6.0.0.dir/__/__/mesh/core/src/replay_cache.c.obj
 .debug_loc     0x0001bbe7      0x30d examples/beaconing/CMakeFiles/beaconing_nrf52840_xxAA_s140_6.0.0.dir/__/__/mesh/core/src/beacon.c.obj
 .debug_loc     0x0001bef4       0xe3 examples/beaconing/CMakeFiles/beaconing_nrf52840_xxAA_s140_6.0.0.dir/__/__/mesh/core/src/flash_manager_internal.c.obj
 .debug_loc     0x0001bfd7      0x3c5 examples/beaconing/CMakeFiles/beaconing_nrf52840_xxAA_s140_6.0.0.dir/__/__/mesh/core/src/core_tx.c.obj
 .debug_loc     0x0001c39c      0x570 examples/beaconing/CMakeFiles/beaconing_nrf52840_xxAA_s140_6.0.0.dir/__/__/mesh/core/src/heartbeat.c.obj
 .debug_loc     0x0001c90c      0x5f5 examples/beaconing/CMakeFiles/beaconing_nrf52840_xxAA_s140_6.0.0.dir/__/__/mesh/core/src/net_beacon.c.obj
 .debug_loc     0x0001cf01      0x3ca examples/beaconing/CMakeFiles/beaconing_nrf52840_xxAA_s140_6.0.0.dir/__/__/mesh/core/src/core_tx_adv.c.obj
 .debug_loc     0x0001d2cb      0x42e examples/beaconing/CMakeFiles/beaconing_nrf52840_xxAA_s140_6.0.0.dir/__/__/mesh/bearer/src/ad_listener.c.obj
 .debug_loc     0x0001d6f9      0x3ae examples/beaconing/CMakeFiles/beaconing_nrf52840_xxAA_s140_6.0.0.dir/__/__/mesh/bearer/src/ad_type_filter.c.obj
 .debug_loc     0x0001daa7      0xcb6 examples/beaconing/CMakeFiles/beaconing_nrf52840_xxAA_s140_6.0.0.dir/__/__/mesh/bearer/src/advertiser.c.obj
 .debug_loc     0x0001e75d      0x333 examples/beaconing/CMakeFiles/beaconing_nrf52840_xxAA_s140_6.0.0.dir/__/__/mesh/bearer/src/bearer_handler.c.obj
 .debug_loc     0x0001ea90      0x306 examples/beaconing/CMakeFiles/beaconing_nrf52840_xxAA_s140_6.0.0.dir/__/__/mesh/bearer/src/broadcast.c.obj
 .debug_loc     0x0001ed96       0xde examples/beaconing/CMakeFiles/beaconing_nrf52840_xxAA_s140_6.0.0.dir/__/__/mesh/bearer/src/filter_engine.c.obj
 .debug_loc     0x0001ee74      0x232 examples/beaconing/CMakeFiles/beaconing_nrf52840_xxAA_s140_6.0.0.dir/__/__/mesh/bearer/src/radio_config.c.obj
 .debug_loc     0x0001f0a6      0x442 examples/beaconing/CMakeFiles/beaconing_nrf52840_xxAA_s140_6.0.0.dir/__/__/mesh/bearer/src/scanner.c.obj
 .debug_loc     0x0001f4e8       0xb5 examples/beaconing/CMakeFiles/beaconing_nrf52840_xxAA_s140_6.0.0.dir/C_/b/nRF5_SDK_15.0.0_a53641a/components/libraries/util/app_error.c.obj
 .debug_loc     0x0001f59d       0x63 examples/beaconing/CMakeFiles/beaconing_nrf52840_xxAA_s140_6.0.0.dir/C_/b/nRF5_SDK_15.0.0_a53641a/components/libraries/util/app_error_handler_gcc.c.obj
 .debug_loc     0x0001f600     0x1222 external/rtt/librtt_nrf52840_xxAA.a(SEGGER_RTT.c.obj)
 .debug_loc     0x00020822      0x70f external/rtt/librtt_nrf52840_xxAA.a(SEGGER_RTT_printf.c.obj)
 .debug_loc     0x00020f31     0x2449 external/micro-ecc/libuECC_nrf52840_xxAA.a(uECC.c.obj)

.debug_aranges  0x00000000     0x2268
 .debug_aranges
                0x00000000       0x40 examples/beaconing/CMakeFiles/beaconing_nrf52840_xxAA_s140_6.0.0.dir/src/main.c.obj
 .debug_aranges
                0x00000040       0x50 examples/beaconing/CMakeFiles/beaconing_nrf52840_xxAA_s140_6.0.0.dir/__/__/mesh/stack/src/mesh_stack.c.obj
 .debug_aranges
                0x00000090       0x40 examples/beaconing/CMakeFiles/beaconing_nrf52840_xxAA_s140_6.0.0.dir/__/common/src/mesh_softdevice_init.c.obj
 .debug_aranges
                0x000000d0       0x30 examples/beaconing/CMakeFiles/beaconing_nrf52840_xxAA_s140_6.0.0.dir/__/common/src/mesh_provisionee.c.obj
 .debug_aranges
                0x00000100       0x50 examples/beaconing/CMakeFiles/beaconing_nrf52840_xxAA_s140_6.0.0.dir/__/common/src/simple_hal.c.obj
 .debug_aranges
                0x00000150       0x50 examples/beaconing/CMakeFiles/beaconing_nrf52840_xxAA_s140_6.0.0.dir/__/__/mesh/access/src/access_publish.c.obj
 .debug_aranges
                0x000001a0      0x1d0 examples/beaconing/CMakeFiles/beaconing_nrf52840_xxAA_s140_6.0.0.dir/__/__/mesh/access/src/access.c.obj
 .debug_aranges
                0x00000370       0x50 examples/beaconing/CMakeFiles/beaconing_nrf52840_xxAA_s140_6.0.0.dir/__/__/mesh/access/src/access_reliable.c.obj
 .debug_aranges
                0x000003c0      0x318 examples/beaconing/CMakeFiles/beaconing_nrf52840_xxAA_s140_6.0.0.dir/__/__/mesh/access/src/device_state_manager.c.obj
 .debug_aranges
                0x000006d8       0x28 examples/beaconing/CMakeFiles/beaconing_nrf52840_xxAA_s140_6.0.0.dir/__/nrf_mesh_weak.c.obj
 .debug_aranges
                0x00000700       0x20 examples/beaconing/CMakeFiles/beaconing_nrf52840_xxAA_s140_6.0.0.dir/__/common/src/app_error_weak.c.obj
 .debug_aranges
                0x00000720       0x20 examples/beaconing/CMakeFiles/beaconing_nrf52840_xxAA_s140_6.0.0.dir/__/common/src/assertion_handler_weak.c.obj
 .debug_aranges
                0x00000740       0x20 examples/beaconing/CMakeFiles/beaconing_nrf52840_xxAA_s140_6.0.0.dir/__/__/models/config/src/composition_data.c.obj
 .debug_aranges
                0x00000760      0x210 examples/beaconing/CMakeFiles/beaconing_nrf52840_xxAA_s140_6.0.0.dir/__/__/models/config/src/config_server.c.obj
 .debug_aranges
                0x00000970       0x20 examples/beaconing/CMakeFiles/beaconing_nrf52840_xxAA_s140_6.0.0.dir/__/__/models/config/src/packed_index_list.c.obj
 .debug_aranges
                0x00000990       0xc8 examples/beaconing/CMakeFiles/beaconing_nrf52840_xxAA_s140_6.0.0.dir/__/__/models/health/src/health_server.c.obj
 .debug_aranges
                0x00000a58       0x70 examples/beaconing/CMakeFiles/beaconing_nrf52840_xxAA_s140_6.0.0.dir/__/__/mesh/prov/src/prov_provisionee.c.obj
 .debug_aranges
                0x00000ac8       0x88 examples/beaconing/CMakeFiles/beaconing_nrf52840_xxAA_s140_6.0.0.dir/__/__/mesh/prov/src/nrf_mesh_prov.c.obj
 .debug_aranges
                0x00000b50       0x80 examples/beaconing/CMakeFiles/beaconing_nrf52840_xxAA_s140_6.0.0.dir/__/__/mesh/prov/src/provisioning.c.obj
 .debug_aranges
                0x00000bd0       0x38 examples/beaconing/CMakeFiles/beaconing_nrf52840_xxAA_s140_6.0.0.dir/__/__/mesh/prov/src/prov_beacon.c.obj
 .debug_aranges
                0x00000c08       0x70 examples/beaconing/CMakeFiles/beaconing_nrf52840_xxAA_s140_6.0.0.dir/__/__/mesh/prov/src/prov_utils.c.obj
 .debug_aranges
                0x00000c78       0xc8 examples/beaconing/CMakeFiles/beaconing_nrf52840_xxAA_s140_6.0.0.dir/__/__/mesh/prov/src/prov_bearer_adv.c.obj
 .debug_aranges
                0x00000d40       0x30 examples/beaconing/CMakeFiles/beaconing_nrf52840_xxAA_s140_6.0.0.dir/__/__/mesh/core/src/nrf_mesh_configure.c.obj
 .debug_aranges
                0x00000d70       0x28 examples/beaconing/CMakeFiles/beaconing_nrf52840_xxAA_s140_6.0.0.dir/__/__/mesh/core/src/aes.c.obj
 .debug_aranges
                0x00000d98       0x38 examples/beaconing/CMakeFiles/beaconing_nrf52840_xxAA_s140_6.0.0.dir/__/__/mesh/core/src/msg_cache.c.obj
 .debug_aranges
                0x00000dd0      0x110 examples/beaconing/CMakeFiles/beaconing_nrf52840_xxAA_s140_6.0.0.dir/__/__/mesh/core/src/transport.c.obj
 .debug_aranges
                0x00000ee0       0x30 examples/beaconing/CMakeFiles/beaconing_nrf52840_xxAA_s140_6.0.0.dir/__/__/mesh/core/src/event.c.obj
 .debug_aranges
                0x00000f10       0x68 examples/beaconing/CMakeFiles/beaconing_nrf52840_xxAA_s140_6.0.0.dir/__/__/mesh/core/src/packet_buffer.c.obj
 .debug_aranges
                0x00000f78       0xc8 examples/beaconing/CMakeFiles/beaconing_nrf52840_xxAA_s140_6.0.0.dir/__/__/mesh/core/src/flash_manager_defrag.c.obj
 .debug_aranges
                0x00001040       0x60 examples/beaconing/CMakeFiles/beaconing_nrf52840_xxAA_s140_6.0.0.dir/__/__/mesh/core/src/fifo.c.obj
 .debug_aranges
                0x000010a0       0x30 examples/beaconing/CMakeFiles/beaconing_nrf52840_xxAA_s140_6.0.0.dir/__/__/mesh/core/src/nrf_flash.c.obj
 .debug_aranges
                0x000010d0       0x48 examples/beaconing/CMakeFiles/beaconing_nrf52840_xxAA_s140_6.0.0.dir/__/__/mesh/core/src/packet_mgr.c.obj
 .debug_aranges
                0x00001118       0xd0 examples/beaconing/CMakeFiles/beaconing_nrf52840_xxAA_s140_6.0.0.dir/__/__/mesh/core/src/net_state.c.obj
 .debug_aranges
                0x000011e8       0x60 examples/beaconing/CMakeFiles/beaconing_nrf52840_xxAA_s140_6.0.0.dir/__/__/mesh/core/src/mesh_flash.c.obj
 .debug_aranges
                0x00001248       0x30 examples/beaconing/CMakeFiles/beaconing_nrf52840_xxAA_s140_6.0.0.dir/__/__/mesh/core/src/nrf_mesh_utils.c.obj
 .debug_aranges
                0x00001278       0x90 examples/beaconing/CMakeFiles/beaconing_nrf52840_xxAA_s140_6.0.0.dir/__/__/mesh/core/src/nrf_mesh.c.obj
 .debug_aranges
                0x00001308       0x38 examples/beaconing/CMakeFiles/beaconing_nrf52840_xxAA_s140_6.0.0.dir/__/__/mesh/core/src/queue.c.obj
 .debug_aranges
                0x00001340       0x30 examples/beaconing/CMakeFiles/beaconing_nrf52840_xxAA_s140_6.0.0.dir/__/__/mesh/core/src/hal.c.obj
 .debug_aranges
                0x00001370       0x38 examples/beaconing/CMakeFiles/beaconing_nrf52840_xxAA_s140_6.0.0.dir/__/__/mesh/core/src/aes_cmac.c.obj
 .debug_aranges
                0x000013a8       0x68 examples/beaconing/CMakeFiles/beaconing_nrf52840_xxAA_s140_6.0.0.dir/__/__/mesh/core/src/timer_scheduler.c.obj
 .debug_aranges
                0x00001410       0x60 examples/beaconing/CMakeFiles/beaconing_nrf52840_xxAA_s140_6.0.0.dir/__/__/mesh/core/src/timer.c.obj
 .debug_aranges
                0x00001470       0x30 examples/beaconing/CMakeFiles/beaconing_nrf52840_xxAA_s140_6.0.0.dir/__/__/mesh/core/src/ticker.c.obj
 .debug_aranges
                0x000014a0       0x40 examples/beaconing/CMakeFiles/beaconing_nrf52840_xxAA_s140_6.0.0.dir/__/__/mesh/core/src/rand.c.obj
 .debug_aranges
                0x000014e0       0x28 examples/beaconing/CMakeFiles/beaconing_nrf52840_xxAA_s140_6.0.0.dir/__/__/mesh/core/src/nrf_mesh_opt.c.obj
 .debug_aranges
                0x00001508       0xb8 examples/beaconing/CMakeFiles/beaconing_nrf52840_xxAA_s140_6.0.0.dir/__/__/mesh/core/src/timeslot.c.obj
 .debug_aranges
                0x000015c0       0x98 examples/beaconing/CMakeFiles/beaconing_nrf52840_xxAA_s140_6.0.0.dir/__/__/mesh/core/src/bearer_event.c.obj
 .debug_aranges
                0x00001658       0x70 examples/beaconing/CMakeFiles/beaconing_nrf52840_xxAA_s140_6.0.0.dir/__/__/mesh/core/src/enc.c.obj
 .debug_aranges
                0x000016c8       0x58 examples/beaconing/CMakeFiles/beaconing_nrf52840_xxAA_s140_6.0.0.dir/__/__/mesh/core/src/network.c.obj
 .debug_aranges
                0x00001720       0x68 examples/beaconing/CMakeFiles/beaconing_nrf52840_xxAA_s140_6.0.0.dir/__/__/mesh/core/src/net_packet.c.obj
 .debug_aranges
                0x00001788       0x48 examples/beaconing/CMakeFiles/beaconing_nrf52840_xxAA_s140_6.0.0.dir/__/__/mesh/core/src/msqueue.c.obj
 .debug_aranges
                0x000017d0       0x40 examples/beaconing/CMakeFiles/beaconing_nrf52840_xxAA_s140_6.0.0.dir/__/__/mesh/core/src/nrf_mesh_keygen.c.obj
 .debug_aranges
                0x00001810       0x48 examples/beaconing/CMakeFiles/beaconing_nrf52840_xxAA_s140_6.0.0.dir/__/__/mesh/core/src/list.c.obj
 .debug_aranges
                0x00001858       0x48 examples/beaconing/CMakeFiles/beaconing_nrf52840_xxAA_s140_6.0.0.dir/__/__/mesh/core/src/log.c.obj
 .debug_aranges
                0x000018a0       0xf8 examples/beaconing/CMakeFiles/beaconing_nrf52840_xxAA_s140_6.0.0.dir/__/__/mesh/core/src/flash_manager.c.obj
 .debug_aranges
                0x00001998       0x50 examples/beaconing/CMakeFiles/beaconing_nrf52840_xxAA_s140_6.0.0.dir/__/__/mesh/core/src/ccm_soft.c.obj
 .debug_aranges
                0x000019e8       0x40 examples/beaconing/CMakeFiles/beaconing_nrf52840_xxAA_s140_6.0.0.dir/__/__/mesh/core/src/replay_cache.c.obj
 .debug_aranges
                0x00001a28       0x28 examples/beaconing/CMakeFiles/beaconing_nrf52840_xxAA_s140_6.0.0.dir/__/__/mesh/core/src/beacon.c.obj
 .debug_aranges
                0x00001a50       0x20 examples/beaconing/CMakeFiles/beaconing_nrf52840_xxAA_s140_6.0.0.dir/__/__/mesh/core/src/flash_manager_internal.c.obj
 .debug_aranges
                0x00001a70       0x58 examples/beaconing/CMakeFiles/beaconing_nrf52840_xxAA_s140_6.0.0.dir/__/__/mesh/core/src/core_tx.c.obj
 .debug_aranges
                0x00001ac8       0x70 examples/beaconing/CMakeFiles/beaconing_nrf52840_xxAA_s140_6.0.0.dir/__/__/mesh/core/src/heartbeat.c.obj
 .debug_aranges
                0x00001b38       0x68 examples/beaconing/CMakeFiles/beaconing_nrf52840_xxAA_s140_6.0.0.dir/__/__/mesh/core/src/net_beacon.c.obj
 .debug_aranges
                0x00001ba0       0x68 examples/beaconing/CMakeFiles/beaconing_nrf52840_xxAA_s140_6.0.0.dir/__/__/mesh/core/src/core_tx_adv.c.obj
 .debug_aranges
                0x00001c08       0x30 examples/beaconing/CMakeFiles/beaconing_nrf52840_xxAA_s140_6.0.0.dir/__/__/mesh/bearer/src/ad_listener.c.obj
 .debug_aranges
                0x00001c38       0x58 examples/beaconing/CMakeFiles/beaconing_nrf52840_xxAA_s140_6.0.0.dir/__/__/mesh/bearer/src/ad_type_filter.c.obj
 .debug_aranges
                0x00001c90       0xb0 examples/beaconing/CMakeFiles/beaconing_nrf52840_xxAA_s140_6.0.0.dir/__/__/mesh/bearer/src/advertiser.c.obj
 .debug_aranges
                0x00001d40       0x70 examples/beaconing/CMakeFiles/beaconing_nrf52840_xxAA_s140_6.0.0.dir/__/__/mesh/bearer/src/bearer_handler.c.obj
 .debug_aranges
                0x00001db0       0x30 examples/beaconing/CMakeFiles/beaconing_nrf52840_xxAA_s140_6.0.0.dir/__/__/mesh/bearer/src/broadcast.c.obj
 .debug_aranges
                0x00001de0       0x38 examples/beaconing/CMakeFiles/beaconing_nrf52840_xxAA_s140_6.0.0.dir/__/__/mesh/bearer/src/filter_engine.c.obj
 .debug_aranges
                0x00001e18       0x40 examples/beaconing/CMakeFiles/beaconing_nrf52840_xxAA_s140_6.0.0.dir/__/__/mesh/bearer/src/radio_config.c.obj
 .debug_aranges
                0x00001e58       0xe0 examples/beaconing/CMakeFiles/beaconing_nrf52840_xxAA_s140_6.0.0.dir/__/__/mesh/bearer/src/scanner.c.obj
 .debug_aranges
                0x00001f38       0x30 examples/beaconing/CMakeFiles/beaconing_nrf52840_xxAA_s140_6.0.0.dir/C_/b/nRF5_SDK_15.0.0_a53641a/modules/nrfx/mdk/system_nrf52840.c.obj
 .debug_aranges
                0x00001f68       0x28 examples/beaconing/CMakeFiles/beaconing_nrf52840_xxAA_s140_6.0.0.dir/C_/b/nRF5_SDK_15.0.0_a53641a/components/libraries/util/app_error.c.obj
 .debug_aranges
                0x00001f90       0x20 examples/beaconing/CMakeFiles/beaconing_nrf52840_xxAA_s140_6.0.0.dir/C_/b/nRF5_SDK_15.0.0_a53641a/components/libraries/util/app_error_handler_gcc.c.obj
 .debug_aranges
                0x00001fb0       0xd8 external/rtt/librtt_nrf52840_xxAA.a(SEGGER_RTT.c.obj)
 .debug_aranges
                0x00002088       0x38 external/rtt/librtt_nrf52840_xxAA.a(SEGGER_RTT_printf.c.obj)
 .debug_aranges
                0x000020c0      0x1a8 external/micro-ecc/libuECC_nrf52840_xxAA.a(uECC.c.obj)

.debug_ranges   0x00000000     0x57f0
 .debug_ranges  0x00000000      0x1c8 examples/beaconing/CMakeFiles/beaconing_nrf52840_xxAA_s140_6.0.0.dir/src/main.c.obj
 .debug_ranges  0x000001c8       0x70 examples/beaconing/CMakeFiles/beaconing_nrf52840_xxAA_s140_6.0.0.dir/__/__/mesh/stack/src/mesh_stack.c.obj
 .debug_ranges  0x00000238       0xb0 examples/beaconing/CMakeFiles/beaconing_nrf52840_xxAA_s140_6.0.0.dir/__/common/src/mesh_softdevice_init.c.obj
 .debug_ranges  0x000002e8       0x50 examples/beaconing/CMakeFiles/beaconing_nrf52840_xxAA_s140_6.0.0.dir/__/common/src/mesh_provisionee.c.obj
 .debug_ranges  0x00000338       0xe0 examples/beaconing/CMakeFiles/beaconing_nrf52840_xxAA_s140_6.0.0.dir/__/common/src/simple_hal.c.obj
 .debug_ranges  0x00000418      0x118 examples/beaconing/CMakeFiles/beaconing_nrf52840_xxAA_s140_6.0.0.dir/__/__/mesh/access/src/access_publish.c.obj
 .debug_ranges  0x00000530      0x770 examples/beaconing/CMakeFiles/beaconing_nrf52840_xxAA_s140_6.0.0.dir/__/__/mesh/access/src/access.c.obj
 .debug_ranges  0x00000ca0      0x198 examples/beaconing/CMakeFiles/beaconing_nrf52840_xxAA_s140_6.0.0.dir/__/__/mesh/access/src/access_reliable.c.obj
 .debug_ranges  0x00000e38      0x808 examples/beaconing/CMakeFiles/beaconing_nrf52840_xxAA_s140_6.0.0.dir/__/__/mesh/access/src/device_state_manager.c.obj
 .debug_ranges  0x00001640       0x18 examples/beaconing/CMakeFiles/beaconing_nrf52840_xxAA_s140_6.0.0.dir/__/nrf_mesh_weak.c.obj
 .debug_ranges  0x00001658       0xb8 examples/beaconing/CMakeFiles/beaconing_nrf52840_xxAA_s140_6.0.0.dir/__/common/src/app_error_weak.c.obj
 .debug_ranges  0x00001710       0x10 examples/beaconing/CMakeFiles/beaconing_nrf52840_xxAA_s140_6.0.0.dir/__/common/src/assertion_handler_weak.c.obj
 .debug_ranges  0x00001720       0xa8 examples/beaconing/CMakeFiles/beaconing_nrf52840_xxAA_s140_6.0.0.dir/__/__/models/config/src/composition_data.c.obj
 .debug_ranges  0x000017c8      0x788 examples/beaconing/CMakeFiles/beaconing_nrf52840_xxAA_s140_6.0.0.dir/__/__/models/config/src/config_server.c.obj
 .debug_ranges  0x00001f50       0x10 examples/beaconing/CMakeFiles/beaconing_nrf52840_xxAA_s140_6.0.0.dir/__/__/models/config/src/packed_index_list.c.obj
 .debug_ranges  0x00001f60      0x260 examples/beaconing/CMakeFiles/beaconing_nrf52840_xxAA_s140_6.0.0.dir/__/__/models/health/src/health_server.c.obj
 .debug_ranges  0x000021c0      0x148 examples/beaconing/CMakeFiles/beaconing_nrf52840_xxAA_s140_6.0.0.dir/__/__/mesh/prov/src/prov_provisionee.c.obj
 .debug_ranges  0x00002308      0x130 examples/beaconing/CMakeFiles/beaconing_nrf52840_xxAA_s140_6.0.0.dir/__/__/mesh/prov/src/nrf_mesh_prov.c.obj
 .debug_ranges  0x00002438       0x70 examples/beaconing/CMakeFiles/beaconing_nrf52840_xxAA_s140_6.0.0.dir/__/__/mesh/prov/src/provisioning.c.obj
 .debug_ranges  0x000024a8       0x40 examples/beaconing/CMakeFiles/beaconing_nrf52840_xxAA_s140_6.0.0.dir/__/__/mesh/prov/src/prov_beacon.c.obj
 .debug_ranges  0x000024e8       0xa0 examples/beaconing/CMakeFiles/beaconing_nrf52840_xxAA_s140_6.0.0.dir/__/__/mesh/prov/src/prov_utils.c.obj
 .debug_ranges  0x00002588      0x498 examples/beaconing/CMakeFiles/beaconing_nrf52840_xxAA_s140_6.0.0.dir/__/__/mesh/prov/src/prov_bearer_adv.c.obj
 .debug_ranges  0x00002a20       0x20 examples/beaconing/CMakeFiles/beaconing_nrf52840_xxAA_s140_6.0.0.dir/__/__/mesh/core/src/nrf_mesh_configure.c.obj
 .debug_ranges  0x00002a40       0x18 examples/beaconing/CMakeFiles/beaconing_nrf52840_xxAA_s140_6.0.0.dir/__/__/mesh/core/src/aes.c.obj
 .debug_ranges  0x00002a58       0x48 examples/beaconing/CMakeFiles/beaconing_nrf52840_xxAA_s140_6.0.0.dir/__/__/mesh/core/src/msg_cache.c.obj
 .debug_ranges  0x00002aa0      0x5d0 examples/beaconing/CMakeFiles/beaconing_nrf52840_xxAA_s140_6.0.0.dir/__/__/mesh/core/src/transport.c.obj
 .debug_ranges  0x00003070       0x20 examples/beaconing/CMakeFiles/beaconing_nrf52840_xxAA_s140_6.0.0.dir/__/__/mesh/core/src/event.c.obj
 .debug_ranges  0x00003090      0x128 examples/beaconing/CMakeFiles/beaconing_nrf52840_xxAA_s140_6.0.0.dir/__/__/mesh/core/src/packet_buffer.c.obj
 .debug_ranges  0x000031b8      0x230 examples/beaconing/CMakeFiles/beaconing_nrf52840_xxAA_s140_6.0.0.dir/__/__/mesh/core/src/flash_manager_defrag.c.obj
 .debug_ranges  0x000033e8       0x68 examples/beaconing/CMakeFiles/beaconing_nrf52840_xxAA_s140_6.0.0.dir/__/__/mesh/core/src/fifo.c.obj
 .debug_ranges  0x00003450       0x38 examples/beaconing/CMakeFiles/beaconing_nrf52840_xxAA_s140_6.0.0.dir/__/__/mesh/core/src/nrf_flash.c.obj
 .debug_ranges  0x00003488       0xe0 examples/beaconing/CMakeFiles/beaconing_nrf52840_xxAA_s140_6.0.0.dir/__/__/mesh/core/src/packet_mgr.c.obj
 .debug_ranges  0x00003568      0x1f8 examples/beaconing/CMakeFiles/beaconing_nrf52840_xxAA_s140_6.0.0.dir/__/__/mesh/core/src/net_state.c.obj
 .debug_ranges  0x00003760      0x1c8 examples/beaconing/CMakeFiles/beaconing_nrf52840_xxAA_s140_6.0.0.dir/__/__/mesh/core/src/mesh_flash.c.obj
 .debug_ranges  0x00003928       0x20 examples/beaconing/CMakeFiles/beaconing_nrf52840_xxAA_s140_6.0.0.dir/__/__/mesh/core/src/nrf_mesh_utils.c.obj
 .debug_ranges  0x00003948       0xe0 examples/beaconing/CMakeFiles/beaconing_nrf52840_xxAA_s140_6.0.0.dir/__/__/mesh/core/src/nrf_mesh.c.obj
 .debug_ranges  0x00003a28       0x28 examples/beaconing/CMakeFiles/beaconing_nrf52840_xxAA_s140_6.0.0.dir/__/__/mesh/core/src/queue.c.obj
 .debug_ranges  0x00003a50       0x20 examples/beaconing/CMakeFiles/beaconing_nrf52840_xxAA_s140_6.0.0.dir/__/__/mesh/core/src/hal.c.obj
 .debug_ranges  0x00003a70       0x98 examples/beaconing/CMakeFiles/beaconing_nrf52840_xxAA_s140_6.0.0.dir/__/__/mesh/core/src/aes_cmac.c.obj
 .debug_ranges  0x00003b08       0xf0 examples/beaconing/CMakeFiles/beaconing_nrf52840_xxAA_s140_6.0.0.dir/__/__/mesh/core/src/timer_scheduler.c.obj
 .debug_ranges  0x00003bf8       0xd8 examples/beaconing/CMakeFiles/beaconing_nrf52840_xxAA_s140_6.0.0.dir/__/__/mesh/core/src/timer.c.obj
 .debug_ranges  0x00003cd0       0x20 examples/beaconing/CMakeFiles/beaconing_nrf52840_xxAA_s140_6.0.0.dir/__/__/mesh/core/src/ticker.c.obj
 .debug_ranges  0x00003cf0       0x30 examples/beaconing/CMakeFiles/beaconing_nrf52840_xxAA_s140_6.0.0.dir/__/__/mesh/core/src/rand.c.obj
 .debug_ranges  0x00003d20       0x18 examples/beaconing/CMakeFiles/beaconing_nrf52840_xxAA_s140_6.0.0.dir/__/__/mesh/core/src/nrf_mesh_opt.c.obj
 .debug_ranges  0x00003d38      0x168 examples/beaconing/CMakeFiles/beaconing_nrf52840_xxAA_s140_6.0.0.dir/__/__/mesh/core/src/timeslot.c.obj
 .debug_ranges  0x00003ea0       0xf8 examples/beaconing/CMakeFiles/beaconing_nrf52840_xxAA_s140_6.0.0.dir/__/__/mesh/core/src/bearer_event.c.obj
 .debug_ranges  0x00003f98       0xb0 examples/beaconing/CMakeFiles/beaconing_nrf52840_xxAA_s140_6.0.0.dir/__/__/mesh/core/src/enc.c.obj
 .debug_ranges  0x00004048       0xe8 examples/beaconing/CMakeFiles/beaconing_nrf52840_xxAA_s140_6.0.0.dir/__/__/mesh/core/src/network.c.obj
 .debug_ranges  0x00004130      0x160 examples/beaconing/CMakeFiles/beaconing_nrf52840_xxAA_s140_6.0.0.dir/__/__/mesh/core/src/net_packet.c.obj
 .debug_ranges  0x00004290       0x50 examples/beaconing/CMakeFiles/beaconing_nrf52840_xxAA_s140_6.0.0.dir/__/__/mesh/core/src/msqueue.c.obj
 .debug_ranges  0x000042e0       0x30 examples/beaconing/CMakeFiles/beaconing_nrf52840_xxAA_s140_6.0.0.dir/__/__/mesh/core/src/nrf_mesh_keygen.c.obj
 .debug_ranges  0x00004310       0x78 examples/beaconing/CMakeFiles/beaconing_nrf52840_xxAA_s140_6.0.0.dir/__/__/mesh/core/src/list.c.obj
 .debug_ranges  0x00004388       0x38 examples/beaconing/CMakeFiles/beaconing_nrf52840_xxAA_s140_6.0.0.dir/__/__/mesh/core/src/log.c.obj
 .debug_ranges  0x000043c0      0x388 examples/beaconing/CMakeFiles/beaconing_nrf52840_xxAA_s140_6.0.0.dir/__/__/mesh/core/src/flash_manager.c.obj
 .debug_ranges  0x00004748       0x40 examples/beaconing/CMakeFiles/beaconing_nrf52840_xxAA_s140_6.0.0.dir/__/__/mesh/core/src/ccm_soft.c.obj
 .debug_ranges  0x00004788       0x30 examples/beaconing/CMakeFiles/beaconing_nrf52840_xxAA_s140_6.0.0.dir/__/__/mesh/core/src/replay_cache.c.obj
 .debug_ranges  0x000047b8       0x90 examples/beaconing/CMakeFiles/beaconing_nrf52840_xxAA_s140_6.0.0.dir/__/__/mesh/core/src/beacon.c.obj
 .debug_ranges  0x00004848       0x10 examples/beaconing/CMakeFiles/beaconing_nrf52840_xxAA_s140_6.0.0.dir/__/__/mesh/core/src/flash_manager_internal.c.obj
 .debug_ranges  0x00004858       0xf8 examples/beaconing/CMakeFiles/beaconing_nrf52840_xxAA_s140_6.0.0.dir/__/__/mesh/core/src/core_tx.c.obj
 .debug_ranges  0x00004950       0xa8 examples/beaconing/CMakeFiles/beaconing_nrf52840_xxAA_s140_6.0.0.dir/__/__/mesh/core/src/heartbeat.c.obj
 .debug_ranges  0x000049f8      0x170 examples/beaconing/CMakeFiles/beaconing_nrf52840_xxAA_s140_6.0.0.dir/__/__/mesh/core/src/net_beacon.c.obj
 .debug_ranges  0x00004b68       0x58 examples/beaconing/CMakeFiles/beaconing_nrf52840_xxAA_s140_6.0.0.dir/__/__/mesh/core/src/core_tx_adv.c.obj
 .debug_ranges  0x00004bc0       0xf8 examples/beaconing/CMakeFiles/beaconing_nrf52840_xxAA_s140_6.0.0.dir/__/__/mesh/bearer/src/ad_listener.c.obj
 .debug_ranges  0x00004cb8       0xd0 examples/beaconing/CMakeFiles/beaconing_nrf52840_xxAA_s140_6.0.0.dir/__/__/mesh/bearer/src/ad_type_filter.c.obj
 .debug_ranges  0x00004d88      0x240 examples/beaconing/CMakeFiles/beaconing_nrf52840_xxAA_s140_6.0.0.dir/__/__/mesh/bearer/src/advertiser.c.obj
 .debug_ranges  0x00004fc8       0xb0 examples/beaconing/CMakeFiles/beaconing_nrf52840_xxAA_s140_6.0.0.dir/__/__/mesh/bearer/src/bearer_handler.c.obj
 .debug_ranges  0x00005078       0xa8 examples/beaconing/CMakeFiles/beaconing_nrf52840_xxAA_s140_6.0.0.dir/__/__/mesh/bearer/src/broadcast.c.obj
 .debug_ranges  0x00005120       0x48 examples/beaconing/CMakeFiles/beaconing_nrf52840_xxAA_s140_6.0.0.dir/__/__/mesh/bearer/src/filter_engine.c.obj
 .debug_ranges  0x00005168       0x48 examples/beaconing/CMakeFiles/beaconing_nrf52840_xxAA_s140_6.0.0.dir/__/__/mesh/bearer/src/radio_config.c.obj
 .debug_ranges  0x000051b0      0x198 examples/beaconing/CMakeFiles/beaconing_nrf52840_xxAA_s140_6.0.0.dir/__/__/mesh/bearer/src/scanner.c.obj
 .debug_ranges  0x00005348       0x20 examples/beaconing/CMakeFiles/beaconing_nrf52840_xxAA_s140_6.0.0.dir/C_/b/nRF5_SDK_15.0.0_a53641a/modules/nrfx/mdk/system_nrf52840.c.obj
 .debug_ranges  0x00005368       0x18 examples/beaconing/CMakeFiles/beaconing_nrf52840_xxAA_s140_6.0.0.dir/C_/b/nRF5_SDK_15.0.0_a53641a/components/libraries/util/app_error.c.obj
 .debug_ranges  0x00005380       0x10 examples/beaconing/CMakeFiles/beaconing_nrf52840_xxAA_s140_6.0.0.dir/C_/b/nRF5_SDK_15.0.0_a53641a/components/libraries/util/app_error_handler_gcc.c.obj
 .debug_ranges  0x00005390      0x130 external/rtt/librtt_nrf52840_xxAA.a(SEGGER_RTT.c.obj)
 .debug_ranges  0x000054c0       0x48 external/rtt/librtt_nrf52840_xxAA.a(SEGGER_RTT_printf.c.obj)
 .debug_ranges  0x00005508      0x2e8 external/micro-ecc/libuECC_nrf52840_xxAA.a(uECC.c.obj)

.debug_line     0x00000000    0x169e1
 .debug_line    0x00000000      0x749 examples/beaconing/CMakeFiles/beaconing_nrf52840_xxAA_s140_6.0.0.dir/src/main.c.obj
 .debug_line    0x00000749      0x499 examples/beaconing/CMakeFiles/beaconing_nrf52840_xxAA_s140_6.0.0.dir/__/__/mesh/stack/src/mesh_stack.c.obj
 .debug_line    0x00000be2      0x3da examples/beaconing/CMakeFiles/beaconing_nrf52840_xxAA_s140_6.0.0.dir/__/common/src/mesh_softdevice_init.c.obj
 .debug_line    0x00000fbc      0x4e1 examples/beaconing/CMakeFiles/beaconing_nrf52840_xxAA_s140_6.0.0.dir/__/common/src/mesh_provisionee.c.obj
 .debug_line    0x0000149d      0x472 examples/beaconing/CMakeFiles/beaconing_nrf52840_xxAA_s140_6.0.0.dir/__/common/src/simple_hal.c.obj
 .debug_line    0x0000190f      0x411 examples/beaconing/CMakeFiles/beaconing_nrf52840_xxAA_s140_6.0.0.dir/__/__/mesh/access/src/access_publish.c.obj
 .debug_line    0x00001d20      0xee9 examples/beaconing/CMakeFiles/beaconing_nrf52840_xxAA_s140_6.0.0.dir/__/__/mesh/access/src/access.c.obj
 .debug_line    0x00002c09      0x519 examples/beaconing/CMakeFiles/beaconing_nrf52840_xxAA_s140_6.0.0.dir/__/__/mesh/access/src/access_reliable.c.obj
 .debug_line    0x00003122     0x13d7 examples/beaconing/CMakeFiles/beaconing_nrf52840_xxAA_s140_6.0.0.dir/__/__/mesh/access/src/device_state_manager.c.obj
 .debug_line    0x000044f9      0x1e5 examples/beaconing/CMakeFiles/beaconing_nrf52840_xxAA_s140_6.0.0.dir/__/nrf_mesh_weak.c.obj
 .debug_line    0x000046de      0x473 examples/beaconing/CMakeFiles/beaconing_nrf52840_xxAA_s140_6.0.0.dir/__/common/src/app_error_weak.c.obj
 .debug_line    0x00004b51      0x22b examples/beaconing/CMakeFiles/beaconing_nrf52840_xxAA_s140_6.0.0.dir/__/common/src/assertion_handler_weak.c.obj
 .debug_line    0x00004d7c      0x2ed examples/beaconing/CMakeFiles/beaconing_nrf52840_xxAA_s140_6.0.0.dir/__/__/models/config/src/composition_data.c.obj
 .debug_line    0x00005069     0x1352 examples/beaconing/CMakeFiles/beaconing_nrf52840_xxAA_s140_6.0.0.dir/__/__/models/config/src/config_server.c.obj
 .debug_line    0x000063bb       0xef examples/beaconing/CMakeFiles/beaconing_nrf52840_xxAA_s140_6.0.0.dir/__/__/models/config/src/packed_index_list.c.obj
 .debug_line    0x000064aa      0x691 examples/beaconing/CMakeFiles/beaconing_nrf52840_xxAA_s140_6.0.0.dir/__/__/models/health/src/health_server.c.obj
 .debug_line    0x00006b3b      0x61e examples/beaconing/CMakeFiles/beaconing_nrf52840_xxAA_s140_6.0.0.dir/__/__/mesh/prov/src/prov_provisionee.c.obj
 .debug_line    0x00007159      0x551 examples/beaconing/CMakeFiles/beaconing_nrf52840_xxAA_s140_6.0.0.dir/__/__/mesh/prov/src/nrf_mesh_prov.c.obj
 .debug_line    0x000076aa      0x3b1 examples/beaconing/CMakeFiles/beaconing_nrf52840_xxAA_s140_6.0.0.dir/__/__/mesh/prov/src/provisioning.c.obj
 .debug_line    0x00007a5b      0x451 examples/beaconing/CMakeFiles/beaconing_nrf52840_xxAA_s140_6.0.0.dir/__/__/mesh/prov/src/prov_beacon.c.obj
 .debug_line    0x00007eac      0x48e examples/beaconing/CMakeFiles/beaconing_nrf52840_xxAA_s140_6.0.0.dir/__/__/mesh/prov/src/prov_utils.c.obj
 .debug_line    0x0000833a      0xb1b examples/beaconing/CMakeFiles/beaconing_nrf52840_xxAA_s140_6.0.0.dir/__/__/mesh/prov/src/prov_bearer_adv.c.obj
 .debug_line    0x00008e55      0x225 examples/beaconing/CMakeFiles/beaconing_nrf52840_xxAA_s140_6.0.0.dir/__/__/mesh/core/src/nrf_mesh_configure.c.obj
 .debug_line    0x0000907a      0x24a examples/beaconing/CMakeFiles/beaconing_nrf52840_xxAA_s140_6.0.0.dir/__/__/mesh/core/src/aes.c.obj
 .debug_line    0x000092c4      0x258 examples/beaconing/CMakeFiles/beaconing_nrf52840_xxAA_s140_6.0.0.dir/__/__/mesh/core/src/msg_cache.c.obj
 .debug_line    0x0000951c      0xcb7 examples/beaconing/CMakeFiles/beaconing_nrf52840_xxAA_s140_6.0.0.dir/__/__/mesh/core/src/transport.c.obj
 .debug_line    0x0000a1d3      0x2da examples/beaconing/CMakeFiles/beaconing_nrf52840_xxAA_s140_6.0.0.dir/__/__/mesh/core/src/event.c.obj
 .debug_line    0x0000a4ad      0x4af examples/beaconing/CMakeFiles/beaconing_nrf52840_xxAA_s140_6.0.0.dir/__/__/mesh/core/src/packet_buffer.c.obj
 .debug_line    0x0000a95c      0x6d1 examples/beaconing/CMakeFiles/beaconing_nrf52840_xxAA_s140_6.0.0.dir/__/__/mesh/core/src/flash_manager_defrag.c.obj
 .debug_line    0x0000b02d      0x36f examples/beaconing/CMakeFiles/beaconing_nrf52840_xxAA_s140_6.0.0.dir/__/__/mesh/core/src/fifo.c.obj
 .debug_line    0x0000b39c      0x236 examples/beaconing/CMakeFiles/beaconing_nrf52840_xxAA_s140_6.0.0.dir/__/__/mesh/core/src/nrf_flash.c.obj
 .debug_line    0x0000b5d2      0x40e examples/beaconing/CMakeFiles/beaconing_nrf52840_xxAA_s140_6.0.0.dir/__/__/mesh/core/src/packet_mgr.c.obj
 .debug_line    0x0000b9e0      0x6ad examples/beaconing/CMakeFiles/beaconing_nrf52840_xxAA_s140_6.0.0.dir/__/__/mesh/core/src/net_state.c.obj
 .debug_line    0x0000c08d      0x50b examples/beaconing/CMakeFiles/beaconing_nrf52840_xxAA_s140_6.0.0.dir/__/__/mesh/core/src/mesh_flash.c.obj
 .debug_line    0x0000c598      0x24c examples/beaconing/CMakeFiles/beaconing_nrf52840_xxAA_s140_6.0.0.dir/__/__/mesh/core/src/nrf_mesh_utils.c.obj
 .debug_line    0x0000c7e4      0x74d examples/beaconing/CMakeFiles/beaconing_nrf52840_xxAA_s140_6.0.0.dir/__/__/mesh/core/src/nrf_mesh.c.obj
 .debug_line    0x0000cf31      0x284 examples/beaconing/CMakeFiles/beaconing_nrf52840_xxAA_s140_6.0.0.dir/__/__/mesh/core/src/queue.c.obj
 .debug_line    0x0000d1b5      0x1fd examples/beaconing/CMakeFiles/beaconing_nrf52840_xxAA_s140_6.0.0.dir/__/__/mesh/core/src/hal.c.obj
 .debug_line    0x0000d3b2      0x2c9 examples/beaconing/CMakeFiles/beaconing_nrf52840_xxAA_s140_6.0.0.dir/__/__/mesh/core/src/aes_cmac.c.obj
 .debug_line    0x0000d67b      0x422 examples/beaconing/CMakeFiles/beaconing_nrf52840_xxAA_s140_6.0.0.dir/__/__/mesh/core/src/timer_scheduler.c.obj
 .debug_line    0x0000da9d      0x3a5 examples/beaconing/CMakeFiles/beaconing_nrf52840_xxAA_s140_6.0.0.dir/__/__/mesh/core/src/timer.c.obj
 .debug_line    0x0000de42      0x124 examples/beaconing/CMakeFiles/beaconing_nrf52840_xxAA_s140_6.0.0.dir/__/__/mesh/core/src/ticker.c.obj
 .debug_line    0x0000df66      0x269 examples/beaconing/CMakeFiles/beaconing_nrf52840_xxAA_s140_6.0.0.dir/__/__/mesh/core/src/rand.c.obj
 .debug_line    0x0000e1cf      0x25a examples/beaconing/CMakeFiles/beaconing_nrf52840_xxAA_s140_6.0.0.dir/__/__/mesh/core/src/nrf_mesh_opt.c.obj
 .debug_line    0x0000e429      0x54e examples/beaconing/CMakeFiles/beaconing_nrf52840_xxAA_s140_6.0.0.dir/__/__/mesh/core/src/timeslot.c.obj
 .debug_line    0x0000e977      0x50d examples/beaconing/CMakeFiles/beaconing_nrf52840_xxAA_s140_6.0.0.dir/__/__/mesh/core/src/bearer_event.c.obj
 .debug_line    0x0000ee84      0x416 examples/beaconing/CMakeFiles/beaconing_nrf52840_xxAA_s140_6.0.0.dir/__/__/mesh/core/src/enc.c.obj
 .debug_line    0x0000f29a      0x526 examples/beaconing/CMakeFiles/beaconing_nrf52840_xxAA_s140_6.0.0.dir/__/__/mesh/core/src/network.c.obj
 .debug_line    0x0000f7c0      0x554 examples/beaconing/CMakeFiles/beaconing_nrf52840_xxAA_s140_6.0.0.dir/__/__/mesh/core/src/net_packet.c.obj
 .debug_line    0x0000fd14      0x2f3 examples/beaconing/CMakeFiles/beaconing_nrf52840_xxAA_s140_6.0.0.dir/__/__/mesh/core/src/msqueue.c.obj
 .debug_line    0x00010007      0x229 examples/beaconing/CMakeFiles/beaconing_nrf52840_xxAA_s140_6.0.0.dir/__/__/mesh/core/src/nrf_mesh_keygen.c.obj
 .debug_line    0x00010230      0x2d3 examples/beaconing/CMakeFiles/beaconing_nrf52840_xxAA_s140_6.0.0.dir/__/__/mesh/core/src/list.c.obj
 .debug_line    0x00010503      0x278 examples/beaconing/CMakeFiles/beaconing_nrf52840_xxAA_s140_6.0.0.dir/__/__/mesh/core/src/log.c.obj
 .debug_line    0x0001077b      0x8f9 examples/beaconing/CMakeFiles/beaconing_nrf52840_xxAA_s140_6.0.0.dir/__/__/mesh/core/src/flash_manager.c.obj
 .debug_line    0x00011074      0x340 examples/beaconing/CMakeFiles/beaconing_nrf52840_xxAA_s140_6.0.0.dir/__/__/mesh/core/src/ccm_soft.c.obj
 .debug_line    0x000113b4      0x1cd examples/beaconing/CMakeFiles/beaconing_nrf52840_xxAA_s140_6.0.0.dir/__/__/mesh/core/src/replay_cache.c.obj
 .debug_line    0x00011581      0x484 examples/beaconing/CMakeFiles/beaconing_nrf52840_xxAA_s140_6.0.0.dir/__/__/mesh/core/src/beacon.c.obj
 .debug_line    0x00011a05      0x26c examples/beaconing/CMakeFiles/beaconing_nrf52840_xxAA_s140_6.0.0.dir/__/__/mesh/core/src/flash_manager_internal.c.obj
 .debug_line    0x00011c71      0x399 examples/beaconing/CMakeFiles/beaconing_nrf52840_xxAA_s140_6.0.0.dir/__/__/mesh/core/src/core_tx.c.obj
 .debug_line    0x0001200a      0x59a examples/beaconing/CMakeFiles/beaconing_nrf52840_xxAA_s140_6.0.0.dir/__/__/mesh/core/src/heartbeat.c.obj
 .debug_line    0x000125a4      0x5ee examples/beaconing/CMakeFiles/beaconing_nrf52840_xxAA_s140_6.0.0.dir/__/__/mesh/core/src/net_beacon.c.obj
 .debug_line    0x00012b92      0x4b3 examples/beaconing/CMakeFiles/beaconing_nrf52840_xxAA_s140_6.0.0.dir/__/__/mesh/core/src/core_tx_adv.c.obj
 .debug_line    0x00013045      0x32a examples/beaconing/CMakeFiles/beaconing_nrf52840_xxAA_s140_6.0.0.dir/__/__/mesh/bearer/src/ad_listener.c.obj
 .debug_line    0x0001336f      0x3df examples/beaconing/CMakeFiles/beaconing_nrf52840_xxAA_s140_6.0.0.dir/__/__/mesh/bearer/src/ad_type_filter.c.obj
 .debug_line    0x0001374e      0x6cd examples/beaconing/CMakeFiles/beaconing_nrf52840_xxAA_s140_6.0.0.dir/__/__/mesh/bearer/src/advertiser.c.obj
 .debug_line    0x00013e1b      0x49b examples/beaconing/CMakeFiles/beaconing_nrf52840_xxAA_s140_6.0.0.dir/__/__/mesh/bearer/src/bearer_handler.c.obj
 .debug_line    0x000142b6      0x357 examples/beaconing/CMakeFiles/beaconing_nrf52840_xxAA_s140_6.0.0.dir/__/__/mesh/bearer/src/broadcast.c.obj
 .debug_line    0x0001460d      0x31d examples/beaconing/CMakeFiles/beaconing_nrf52840_xxAA_s140_6.0.0.dir/__/__/mesh/bearer/src/filter_engine.c.obj
 .debug_line    0x0001492a      0x28c examples/beaconing/CMakeFiles/beaconing_nrf52840_xxAA_s140_6.0.0.dir/__/__/mesh/bearer/src/radio_config.c.obj
 .debug_line    0x00014bb6      0x67c examples/beaconing/CMakeFiles/beaconing_nrf52840_xxAA_s140_6.0.0.dir/__/__/mesh/bearer/src/scanner.c.obj
 .debug_line    0x00015232      0x1ff examples/beaconing/CMakeFiles/beaconing_nrf52840_xxAA_s140_6.0.0.dir/C_/b/nRF5_SDK_15.0.0_a53641a/modules/nrfx/mdk/system_nrf52840.c.obj
 .debug_line    0x00015431      0x263 examples/beaconing/CMakeFiles/beaconing_nrf52840_xxAA_s140_6.0.0.dir/C_/b/nRF5_SDK_15.0.0_a53641a/components/libraries/util/app_error.c.obj
 .debug_line    0x00015694      0x208 examples/beaconing/CMakeFiles/beaconing_nrf52840_xxAA_s140_6.0.0.dir/C_/b/nRF5_SDK_15.0.0_a53641a/components/libraries/util/app_error_handler_gcc.c.obj
 .debug_line    0x0001589c      0x4c3 external/rtt/librtt_nrf52840_xxAA.a(SEGGER_RTT.c.obj)
 .debug_line    0x00015d5f      0x285 external/rtt/librtt_nrf52840_xxAA.a(SEGGER_RTT_printf.c.obj)
 .debug_line    0x00015fe4      0x9fd external/micro-ecc/libuECC_nrf52840_xxAA.a(uECC.c.obj)

.debug_str      0x00000000    0x12faf
 .debug_str     0x00000000     0x25fb examples/beaconing/CMakeFiles/beaconing_nrf52840_xxAA_s140_6.0.0.dir/src/main.c.obj
                               0x2aa7 (size before relaxing)
 .debug_str     0x000025fb      0xedc examples/beaconing/CMakeFiles/beaconing_nrf52840_xxAA_s140_6.0.0.dir/__/__/mesh/stack/src/mesh_stack.c.obj
                               0x272e (size before relaxing)
 .debug_str     0x000034d7      0x317 examples/beaconing/CMakeFiles/beaconing_nrf52840_xxAA_s140_6.0.0.dir/__/common/src/mesh_softdevice_init.c.obj
                               0x1252 (size before relaxing)
 .debug_str     0x000037ee     0x130e examples/beaconing/CMakeFiles/beaconing_nrf52840_xxAA_s140_6.0.0.dir/__/common/src/mesh_provisionee.c.obj
                               0x2441 (size before relaxing)
 .debug_str     0x00004afc      0x1c3 examples/beaconing/CMakeFiles/beaconing_nrf52840_xxAA_s140_6.0.0.dir/__/common/src/simple_hal.c.obj
                                0xd30 (size before relaxing)
 .debug_str     0x00004cbf      0x365 examples/beaconing/CMakeFiles/beaconing_nrf52840_xxAA_s140_6.0.0.dir/__/__/mesh/access/src/access_publish.c.obj
                                0xbcc (size before relaxing)
 .debug_str     0x00005024     0x12da examples/beaconing/CMakeFiles/beaconing_nrf52840_xxAA_s140_6.0.0.dir/__/__/mesh/access/src/access.c.obj
                               0x2f65 (size before relaxing)
 .debug_str     0x000062fe      0x21a examples/beaconing/CMakeFiles/beaconing_nrf52840_xxAA_s140_6.0.0.dir/__/__/mesh/access/src/access_reliable.c.obj
                               0x1006 (size before relaxing)
 .debug_str     0x00006518     0x1127 examples/beaconing/CMakeFiles/beaconing_nrf52840_xxAA_s140_6.0.0.dir/__/__/mesh/access/src/device_state_manager.c.obj
                               0x3068 (size before relaxing)
 .debug_str     0x0000763f       0x3c examples/beaconing/CMakeFiles/beaconing_nrf52840_xxAA_s140_6.0.0.dir/__/nrf_mesh_weak.c.obj
                                0x61c (size before relaxing)
 .debug_str     0x0000767b       0xa0 examples/beaconing/CMakeFiles/beaconing_nrf52840_xxAA_s140_6.0.0.dir/__/common/src/app_error_weak.c.obj
                                0x85d (size before relaxing)
 .debug_str     0x0000771b       0x30 examples/beaconing/CMakeFiles/beaconing_nrf52840_xxAA_s140_6.0.0.dir/__/common/src/assertion_handler_weak.c.obj
                                0x672 (size before relaxing)
 .debug_str     0x0000774b      0x198 examples/beaconing/CMakeFiles/beaconing_nrf52840_xxAA_s140_6.0.0.dir/__/__/models/config/src/composition_data.c.obj
                                0x8dd (size before relaxing)
 .debug_str     0x000078e3     0x2407 examples/beaconing/CMakeFiles/beaconing_nrf52840_xxAA_s140_6.0.0.dir/__/__/models/config/src/config_server.c.obj
                               0x5005 (size before relaxing)
 .debug_str     0x00009cea       0x69 examples/beaconing/CMakeFiles/beaconing_nrf52840_xxAA_s140_6.0.0.dir/__/__/models/config/src/packed_index_list.c.obj
                                0x24d (size before relaxing)
 .debug_str     0x00009d53      0x5cd examples/beaconing/CMakeFiles/beaconing_nrf52840_xxAA_s140_6.0.0.dir/__/__/models/health/src/health_server.c.obj
                               0x169f (size before relaxing)
 .debug_str     0x0000a320      0x632 examples/beaconing/CMakeFiles/beaconing_nrf52840_xxAA_s140_6.0.0.dir/__/__/mesh/prov/src/prov_provisionee.c.obj
                               0x21e8 (size before relaxing)
 .debug_str     0x0000a952      0x258 examples/beaconing/CMakeFiles/beaconing_nrf52840_xxAA_s140_6.0.0.dir/__/__/mesh/prov/src/nrf_mesh_prov.c.obj
                               0x1dda (size before relaxing)
 .debug_str     0x0000abaa       0xed examples/beaconing/CMakeFiles/beaconing_nrf52840_xxAA_s140_6.0.0.dir/__/__/mesh/prov/src/provisioning.c.obj
                                0xf2b (size before relaxing)
 .debug_str     0x0000ac97      0x113 examples/beaconing/CMakeFiles/beaconing_nrf52840_xxAA_s140_6.0.0.dir/__/__/mesh/prov/src/prov_beacon.c.obj
                               0x195c (size before relaxing)
 .debug_str     0x0000adaa      0x200 examples/beaconing/CMakeFiles/beaconing_nrf52840_xxAA_s140_6.0.0.dir/__/__/mesh/prov/src/prov_utils.c.obj
                               0x1f04 (size before relaxing)
 .debug_str     0x0000afaa      0x4e4 examples/beaconing/CMakeFiles/beaconing_nrf52840_xxAA_s140_6.0.0.dir/__/__/mesh/prov/src/prov_bearer_adv.c.obj
                               0x1bc0 (size before relaxing)
 .debug_str     0x0000b48e      0x1a5 examples/beaconing/CMakeFiles/beaconing_nrf52840_xxAA_s140_6.0.0.dir/__/__/mesh/core/src/nrf_mesh_configure.c.obj
                                0x7ed (size before relaxing)
 .debug_str     0x0000b633       0xc1 examples/beaconing/CMakeFiles/beaconing_nrf52840_xxAA_s140_6.0.0.dir/__/__/mesh/core/src/aes.c.obj
                                0xb1a (size before relaxing)
 .debug_str     0x0000b6f4       0xbb examples/beaconing/CMakeFiles/beaconing_nrf52840_xxAA_s140_6.0.0.dir/__/__/mesh/core/src/msg_cache.c.obj
                                0x6b9 (size before relaxing)
 .debug_str     0x0000b7af     0x11aa examples/beaconing/CMakeFiles/beaconing_nrf52840_xxAA_s140_6.0.0.dir/__/__/mesh/core/src/transport.c.obj
                               0x3106 (size before relaxing)
 .debug_str     0x0000c959       0x82 examples/beaconing/CMakeFiles/beaconing_nrf52840_xxAA_s140_6.0.0.dir/__/__/mesh/core/src/event.c.obj
                               0x16b3 (size before relaxing)
 .debug_str     0x0000c9db      0x305 examples/beaconing/CMakeFiles/beaconing_nrf52840_xxAA_s140_6.0.0.dir/__/__/mesh/core/src/packet_buffer.c.obj
                                0xb1b (size before relaxing)
 .debug_str     0x0000cce0      0x652 examples/beaconing/CMakeFiles/beaconing_nrf52840_xxAA_s140_6.0.0.dir/__/__/mesh/core/src/flash_manager_defrag.c.obj
                               0x118d (size before relaxing)
 .debug_str     0x0000d332       0x9e examples/beaconing/CMakeFiles/beaconing_nrf52840_xxAA_s140_6.0.0.dir/__/__/mesh/core/src/fifo.c.obj
                                0x6db (size before relaxing)
 .debug_str     0x0000d3d0       0xd9 examples/beaconing/CMakeFiles/beaconing_nrf52840_xxAA_s140_6.0.0.dir/__/__/mesh/core/src/nrf_flash.c.obj
                                0x6f4 (size before relaxing)
 .debug_str     0x0000d4a9      0x276 examples/beaconing/CMakeFiles/beaconing_nrf52840_xxAA_s140_6.0.0.dir/__/__/mesh/core/src/packet_mgr.c.obj
                                0x9a5 (size before relaxing)
 .debug_str     0x0000d71f      0x3cf examples/beaconing/CMakeFiles/beaconing_nrf52840_xxAA_s140_6.0.0.dir/__/__/mesh/core/src/net_state.c.obj
                               0x2148 (size before relaxing)
 .debug_str     0x0000daee      0x387 examples/beaconing/CMakeFiles/beaconing_nrf52840_xxAA_s140_6.0.0.dir/__/__/mesh/core/src/mesh_flash.c.obj
                                0xcdc (size before relaxing)
 .debug_str     0x0000de75       0x8b examples/beaconing/CMakeFiles/beaconing_nrf52840_xxAA_s140_6.0.0.dir/__/__/mesh/core/src/nrf_mesh_utils.c.obj
                                0x751 (size before relaxing)
 .debug_str     0x0000df00      0x558 examples/beaconing/CMakeFiles/beaconing_nrf52840_xxAA_s140_6.0.0.dir/__/__/mesh/core/src/nrf_mesh.c.obj
                               0x2137 (size before relaxing)
 .debug_str     0x0000e458       0x5b examples/beaconing/CMakeFiles/beaconing_nrf52840_xxAA_s140_6.0.0.dir/__/__/mesh/core/src/queue.c.obj
                                0x683 (size before relaxing)
 .debug_str     0x0000e4b3       0x86 examples/beaconing/CMakeFiles/beaconing_nrf52840_xxAA_s140_6.0.0.dir/__/__/mesh/core/src/hal.c.obj
                                0x7ab (size before relaxing)
 .debug_str     0x0000e539       0xd0 examples/beaconing/CMakeFiles/beaconing_nrf52840_xxAA_s140_6.0.0.dir/__/__/mesh/core/src/aes_cmac.c.obj
                                0x715 (size before relaxing)
 .debug_str     0x0000e609      0x13d examples/beaconing/CMakeFiles/beaconing_nrf52840_xxAA_s140_6.0.0.dir/__/__/mesh/core/src/timer_scheduler.c.obj
                                0x934 (size before relaxing)
 .debug_str     0x0000e746      0x222 examples/beaconing/CMakeFiles/beaconing_nrf52840_xxAA_s140_6.0.0.dir/__/__/mesh/core/src/timer.c.obj
                                0x8ae (size before relaxing)
 .debug_str     0x0000e968       0x3c examples/beaconing/CMakeFiles/beaconing_nrf52840_xxAA_s140_6.0.0.dir/__/__/mesh/core/src/ticker.c.obj
                                0x34c (size before relaxing)
 .debug_str     0x0000e9a4       0xac examples/beaconing/CMakeFiles/beaconing_nrf52840_xxAA_s140_6.0.0.dir/__/__/mesh/core/src/rand.c.obj
                                0x76e (size before relaxing)
 .debug_str     0x0000ea50       0x40 examples/beaconing/CMakeFiles/beaconing_nrf52840_xxAA_s140_6.0.0.dir/__/__/mesh/core/src/nrf_mesh_opt.c.obj
                                0x8f0 (size before relaxing)
 .debug_str     0x0000ea90      0x902 examples/beaconing/CMakeFiles/beaconing_nrf52840_xxAA_s140_6.0.0.dir/__/__/mesh/core/src/timeslot.c.obj
                               0x191f (size before relaxing)
 .debug_str     0x0000f392      0x2a2 examples/beaconing/CMakeFiles/beaconing_nrf52840_xxAA_s140_6.0.0.dir/__/__/mesh/core/src/bearer_event.c.obj
                                0xefe (size before relaxing)
 .debug_str     0x0000f634      0x153 examples/beaconing/CMakeFiles/beaconing_nrf52840_xxAA_s140_6.0.0.dir/__/__/mesh/core/src/enc.c.obj
                                0x9ef (size before relaxing)
 .debug_str     0x0000f787      0x2f9 examples/beaconing/CMakeFiles/beaconing_nrf52840_xxAA_s140_6.0.0.dir/__/__/mesh/core/src/network.c.obj
                               0x12e8 (size before relaxing)
 .debug_str     0x0000fa80      0x2f2 examples/beaconing/CMakeFiles/beaconing_nrf52840_xxAA_s140_6.0.0.dir/__/__/mesh/core/src/net_packet.c.obj
                                0xe86 (size before relaxing)
 .debug_str     0x0000fd72       0x53 examples/beaconing/CMakeFiles/beaconing_nrf52840_xxAA_s140_6.0.0.dir/__/__/mesh/core/src/msqueue.c.obj
                                0x6bf (size before relaxing)
 .debug_str     0x0000fdc5       0x57 examples/beaconing/CMakeFiles/beaconing_nrf52840_xxAA_s140_6.0.0.dir/__/__/mesh/core/src/nrf_mesh_keygen.c.obj
                                0x397 (size before relaxing)
 .debug_str     0x0000fe1c       0x65 examples/beaconing/CMakeFiles/beaconing_nrf52840_xxAA_s140_6.0.0.dir/__/__/mesh/core/src/list.c.obj
                                0x2be (size before relaxing)
 .debug_str     0x0000fe81      0x189 examples/beaconing/CMakeFiles/beaconing_nrf52840_xxAA_s140_6.0.0.dir/__/__/mesh/core/src/log.c.obj
                                0x7d0 (size before relaxing)
 .debug_str     0x0001000a      0x4e4 examples/beaconing/CMakeFiles/beaconing_nrf52840_xxAA_s140_6.0.0.dir/__/__/mesh/core/src/flash_manager.c.obj
                               0x1578 (size before relaxing)
 .debug_str     0x000104ee       0x85 examples/beaconing/CMakeFiles/beaconing_nrf52840_xxAA_s140_6.0.0.dir/__/__/mesh/core/src/ccm_soft.c.obj
                                0x75d (size before relaxing)
 .debug_str     0x00010573       0x92 examples/beaconing/CMakeFiles/beaconing_nrf52840_xxAA_s140_6.0.0.dir/__/__/mesh/core/src/replay_cache.c.obj
                                0x68d (size before relaxing)
 .debug_str     0x00010605       0x8b examples/beaconing/CMakeFiles/beaconing_nrf52840_xxAA_s140_6.0.0.dir/__/__/mesh/core/src/beacon.c.obj
                               0x1103 (size before relaxing)
 .debug_str     0x00010690       0x38 examples/beaconing/CMakeFiles/beaconing_nrf52840_xxAA_s140_6.0.0.dir/__/__/mesh/core/src/flash_manager_internal.c.obj
                                0x7a4 (size before relaxing)
 .debug_str     0x000106c8      0x2be examples/beaconing/CMakeFiles/beaconing_nrf52840_xxAA_s140_6.0.0.dir/__/__/mesh/core/src/core_tx.c.obj
                                0xbef (size before relaxing)
 .debug_str     0x00010986      0x360 examples/beaconing/CMakeFiles/beaconing_nrf52840_xxAA_s140_6.0.0.dir/__/__/mesh/core/src/heartbeat.c.obj
                               0x2240 (size before relaxing)
 .debug_str     0x00010ce6      0x1ae examples/beaconing/CMakeFiles/beaconing_nrf52840_xxAA_s140_6.0.0.dir/__/__/mesh/core/src/net_beacon.c.obj
                               0x20a0 (size before relaxing)
 .debug_str     0x00010e94      0x107 examples/beaconing/CMakeFiles/beaconing_nrf52840_xxAA_s140_6.0.0.dir/__/__/mesh/core/src/core_tx_adv.c.obj
                               0x12d9 (size before relaxing)
 .debug_str     0x00010f9b      0x17e examples/beaconing/CMakeFiles/beaconing_nrf52840_xxAA_s140_6.0.0.dir/__/__/mesh/bearer/src/ad_listener.c.obj
                                0xbe2 (size before relaxing)
 .debug_str     0x00011119      0x14f examples/beaconing/CMakeFiles/beaconing_nrf52840_xxAA_s140_6.0.0.dir/__/__/mesh/bearer/src/ad_type_filter.c.obj
                                0x99f (size before relaxing)
 .debug_str     0x00011268      0x310 examples/beaconing/CMakeFiles/beaconing_nrf52840_xxAA_s140_6.0.0.dir/__/__/mesh/bearer/src/advertiser.c.obj
                               0x1561 (size before relaxing)
 .debug_str     0x00011578      0x45c examples/beaconing/CMakeFiles/beaconing_nrf52840_xxAA_s140_6.0.0.dir/__/__/mesh/bearer/src/bearer_handler.c.obj
                               0x10f0 (size before relaxing)
 .debug_str     0x000119d4      0x1ac examples/beaconing/CMakeFiles/beaconing_nrf52840_xxAA_s140_6.0.0.dir/__/__/mesh/bearer/src/broadcast.c.obj
                               0x1062 (size before relaxing)
 .debug_str     0x00011b80       0x72 examples/beaconing/CMakeFiles/beaconing_nrf52840_xxAA_s140_6.0.0.dir/__/__/mesh/bearer/src/filter_engine.c.obj
                                0x80c (size before relaxing)
 .debug_str     0x00011bf2       0x79 examples/beaconing/CMakeFiles/beaconing_nrf52840_xxAA_s140_6.0.0.dir/__/__/mesh/bearer/src/radio_config.c.obj
                                0x8b0 (size before relaxing)
 .debug_str     0x00011c6b      0x45d examples/beaconing/CMakeFiles/beaconing_nrf52840_xxAA_s140_6.0.0.dir/__/__/mesh/bearer/src/scanner.c.obj
                               0x1a39 (size before relaxing)
 .debug_str     0x000120c8      0x3bb examples/beaconing/CMakeFiles/beaconing_nrf52840_xxAA_s140_6.0.0.dir/C_/b/nRF5_SDK_15.0.0_a53641a/modules/nrfx/mdk/system_nrf52840.c.obj
                                0x911 (size before relaxing)
 .debug_str     0x00012483       0x9c examples/beaconing/CMakeFiles/beaconing_nrf52840_xxAA_s140_6.0.0.dir/C_/b/nRF5_SDK_15.0.0_a53641a/components/libraries/util/app_error.c.obj
                                0x724 (size before relaxing)
 .debug_str     0x0001251f       0x4f examples/beaconing/CMakeFiles/beaconing_nrf52840_xxAA_s140_6.0.0.dir/C_/b/nRF5_SDK_15.0.0_a53641a/components/libraries/util/app_error_handler_gcc.c.obj
                                0x689 (size before relaxing)
 .debug_str     0x0001256e      0x2d1 external/rtt/librtt_nrf52840_xxAA.a(SEGGER_RTT.c.obj)
                                0x922 (size before relaxing)
 .debug_str     0x0001283f       0xdf external/rtt/librtt_nrf52840_xxAA.a(SEGGER_RTT_printf.c.obj)
                                0x792 (size before relaxing)
 .debug_str     0x0001291e      0x691 external/micro-ecc/libuECC_nrf52840_xxAA.a(uECC.c.obj)
                                0x880 (size before relaxing)

.debug_frame    0x00000000     0x6c68
 .debug_frame   0x00000000       0xb4 examples/beaconing/CMakeFiles/beaconing_nrf52840_xxAA_s140_6.0.0.dir/src/main.c.obj
 .debug_frame   0x000000b4       0xcc examples/beaconing/CMakeFiles/beaconing_nrf52840_xxAA_s140_6.0.0.dir/__/__/mesh/stack/src/mesh_stack.c.obj
 .debug_frame   0x00000180       0x80 examples/beaconing/CMakeFiles/beaconing_nrf52840_xxAA_s140_6.0.0.dir/__/common/src/mesh_softdevice_init.c.obj
 .debug_frame   0x00000200       0x70 examples/beaconing/CMakeFiles/beaconing_nrf52840_xxAA_s140_6.0.0.dir/__/common/src/mesh_provisionee.c.obj
 .debug_frame   0x00000270       0xa0 examples/beaconing/CMakeFiles/beaconing_nrf52840_xxAA_s140_6.0.0.dir/__/common/src/simple_hal.c.obj
 .debug_frame   0x00000310      0x114 examples/beaconing/CMakeFiles/beaconing_nrf52840_xxAA_s140_6.0.0.dir/__/__/mesh/access/src/access_publish.c.obj
 .debug_frame   0x00000424      0x5b0 examples/beaconing/CMakeFiles/beaconing_nrf52840_xxAA_s140_6.0.0.dir/__/__/mesh/access/src/access.c.obj
 .debug_frame   0x000009d4      0x120 examples/beaconing/CMakeFiles/beaconing_nrf52840_xxAA_s140_6.0.0.dir/__/__/mesh/access/src/access_reliable.c.obj
 .debug_frame   0x00000af4      0xaf4 examples/beaconing/CMakeFiles/beaconing_nrf52840_xxAA_s140_6.0.0.dir/__/__/mesh/access/src/device_state_manager.c.obj
 .debug_frame   0x000015e8       0x30 examples/beaconing/CMakeFiles/beaconing_nrf52840_xxAA_s140_6.0.0.dir/__/nrf_mesh_weak.c.obj
 .debug_frame   0x00001618       0x34 examples/beaconing/CMakeFiles/beaconing_nrf52840_xxAA_s140_6.0.0.dir/__/common/src/app_error_weak.c.obj
 .debug_frame   0x0000164c       0x28 examples/beaconing/CMakeFiles/beaconing_nrf52840_xxAA_s140_6.0.0.dir/__/common/src/assertion_handler_weak.c.obj
 .debug_frame   0x00001674       0x40 examples/beaconing/CMakeFiles/beaconing_nrf52840_xxAA_s140_6.0.0.dir/__/__/models/config/src/composition_data.c.obj
 .debug_frame   0x000016b4      0x8bc examples/beaconing/CMakeFiles/beaconing_nrf52840_xxAA_s140_6.0.0.dir/__/__/models/config/src/config_server.c.obj
 .debug_frame   0x00001f70       0x2c examples/beaconing/CMakeFiles/beaconing_nrf52840_xxAA_s140_6.0.0.dir/__/__/models/config/src/packed_index_list.c.obj
 .debug_frame   0x00001f9c      0x2a0 examples/beaconing/CMakeFiles/beaconing_nrf52840_xxAA_s140_6.0.0.dir/__/__/models/health/src/health_server.c.obj
 .debug_frame   0x0000223c      0x198 examples/beaconing/CMakeFiles/beaconing_nrf52840_xxAA_s140_6.0.0.dir/__/__/mesh/prov/src/prov_provisionee.c.obj
 .debug_frame   0x000023d4      0x160 examples/beaconing/CMakeFiles/beaconing_nrf52840_xxAA_s140_6.0.0.dir/__/__/mesh/prov/src/nrf_mesh_prov.c.obj
 .debug_frame   0x00002534      0x170 examples/beaconing/CMakeFiles/beaconing_nrf52840_xxAA_s140_6.0.0.dir/__/__/mesh/prov/src/provisioning.c.obj
 .debug_frame   0x000026a4       0x84 examples/beaconing/CMakeFiles/beaconing_nrf52840_xxAA_s140_6.0.0.dir/__/__/mesh/prov/src/prov_beacon.c.obj
 .debug_frame   0x00002728      0x150 examples/beaconing/CMakeFiles/beaconing_nrf52840_xxAA_s140_6.0.0.dir/__/__/mesh/prov/src/prov_utils.c.obj
 .debug_frame   0x00002878      0x324 examples/beaconing/CMakeFiles/beaconing_nrf52840_xxAA_s140_6.0.0.dir/__/__/mesh/prov/src/prov_bearer_adv.c.obj
 .debug_frame   0x00002b9c       0x4c examples/beaconing/CMakeFiles/beaconing_nrf52840_xxAA_s140_6.0.0.dir/__/__/mesh/core/src/nrf_mesh_configure.c.obj
 .debug_frame   0x00002be8       0x40 examples/beaconing/CMakeFiles/beaconing_nrf52840_xxAA_s140_6.0.0.dir/__/__/mesh/core/src/aes.c.obj
 .debug_frame   0x00002c28       0x6c examples/beaconing/CMakeFiles/beaconing_nrf52840_xxAA_s140_6.0.0.dir/__/__/mesh/core/src/msg_cache.c.obj
 .debug_frame   0x00002c94      0x404 examples/beaconing/CMakeFiles/beaconing_nrf52840_xxAA_s140_6.0.0.dir/__/__/mesh/core/src/transport.c.obj
 .debug_frame   0x00003098       0x64 examples/beaconing/CMakeFiles/beaconing_nrf52840_xxAA_s140_6.0.0.dir/__/__/mesh/core/src/event.c.obj
 .debug_frame   0x000030fc      0x128 examples/beaconing/CMakeFiles/beaconing_nrf52840_xxAA_s140_6.0.0.dir/__/__/mesh/core/src/packet_buffer.c.obj
 .debug_frame   0x00003224      0x24c examples/beaconing/CMakeFiles/beaconing_nrf52840_xxAA_s140_6.0.0.dir/__/__/mesh/core/src/flash_manager_defrag.c.obj
 .debug_frame   0x00003470       0xd0 examples/beaconing/CMakeFiles/beaconing_nrf52840_xxAA_s140_6.0.0.dir/__/__/mesh/core/src/fifo.c.obj
 .debug_frame   0x00003540       0x54 examples/beaconing/CMakeFiles/beaconing_nrf52840_xxAA_s140_6.0.0.dir/__/__/mesh/core/src/nrf_flash.c.obj
 .debug_frame   0x00003594       0xa0 examples/beaconing/CMakeFiles/beaconing_nrf52840_xxAA_s140_6.0.0.dir/__/__/mesh/core/src/packet_mgr.c.obj
 .debug_frame   0x00003634      0x298 examples/beaconing/CMakeFiles/beaconing_nrf52840_xxAA_s140_6.0.0.dir/__/__/mesh/core/src/net_state.c.obj
 .debug_frame   0x000038cc      0x150 examples/beaconing/CMakeFiles/beaconing_nrf52840_xxAA_s140_6.0.0.dir/__/__/mesh/core/src/mesh_flash.c.obj
 .debug_frame   0x00003a1c       0x50 examples/beaconing/CMakeFiles/beaconing_nrf52840_xxAA_s140_6.0.0.dir/__/__/mesh/core/src/nrf_mesh_utils.c.obj
 .debug_frame   0x00003a6c      0x190 examples/beaconing/CMakeFiles/beaconing_nrf52840_xxAA_s140_6.0.0.dir/__/__/mesh/core/src/nrf_mesh.c.obj
 .debug_frame   0x00003bfc       0x74 examples/beaconing/CMakeFiles/beaconing_nrf52840_xxAA_s140_6.0.0.dir/__/__/mesh/core/src/queue.c.obj
 .debug_frame   0x00003c70       0x48 examples/beaconing/CMakeFiles/beaconing_nrf52840_xxAA_s140_6.0.0.dir/__/__/mesh/core/src/hal.c.obj
 .debug_frame   0x00003cb8       0xa4 examples/beaconing/CMakeFiles/beaconing_nrf52840_xxAA_s140_6.0.0.dir/__/__/mesh/core/src/aes_cmac.c.obj
 .debug_frame   0x00003d5c      0x134 examples/beaconing/CMakeFiles/beaconing_nrf52840_xxAA_s140_6.0.0.dir/__/__/mesh/core/src/timer_scheduler.c.obj
 .debug_frame   0x00003e90      0x10c examples/beaconing/CMakeFiles/beaconing_nrf52840_xxAA_s140_6.0.0.dir/__/__/mesh/core/src/timer.c.obj
 .debug_frame   0x00003f9c       0x4c examples/beaconing/CMakeFiles/beaconing_nrf52840_xxAA_s140_6.0.0.dir/__/__/mesh/core/src/ticker.c.obj
 .debug_frame   0x00003fe8       0x84 examples/beaconing/CMakeFiles/beaconing_nrf52840_xxAA_s140_6.0.0.dir/__/__/mesh/core/src/rand.c.obj
 .debug_frame   0x0000406c       0x30 examples/beaconing/CMakeFiles/beaconing_nrf52840_xxAA_s140_6.0.0.dir/__/__/mesh/core/src/nrf_mesh_opt.c.obj
 .debug_frame   0x0000409c      0x1a0 examples/beaconing/CMakeFiles/beaconing_nrf52840_xxAA_s140_6.0.0.dir/__/__/mesh/core/src/timeslot.c.obj
 .debug_frame   0x0000423c      0x1bc examples/beaconing/CMakeFiles/beaconing_nrf52840_xxAA_s140_6.0.0.dir/__/__/mesh/core/src/bearer_event.c.obj
 .debug_frame   0x000043f8      0x13c examples/beaconing/CMakeFiles/beaconing_nrf52840_xxAA_s140_6.0.0.dir/__/__/mesh/core/src/enc.c.obj
 .debug_frame   0x00004534      0x100 examples/beaconing/CMakeFiles/beaconing_nrf52840_xxAA_s140_6.0.0.dir/__/__/mesh/core/src/network.c.obj
 .debug_frame   0x00004634      0x114 examples/beaconing/CMakeFiles/beaconing_nrf52840_xxAA_s140_6.0.0.dir/__/__/mesh/core/src/net_packet.c.obj
 .debug_frame   0x00004748       0xb4 examples/beaconing/CMakeFiles/beaconing_nrf52840_xxAA_s140_6.0.0.dir/__/__/mesh/core/src/msqueue.c.obj
 .debug_frame   0x000047fc       0xb4 examples/beaconing/CMakeFiles/beaconing_nrf52840_xxAA_s140_6.0.0.dir/__/__/mesh/core/src/nrf_mesh_keygen.c.obj
 .debug_frame   0x000048b0       0xc8 examples/beaconing/CMakeFiles/beaconing_nrf52840_xxAA_s140_6.0.0.dir/__/__/mesh/core/src/list.c.obj
 .debug_frame   0x00004978       0xb0 examples/beaconing/CMakeFiles/beaconing_nrf52840_xxAA_s140_6.0.0.dir/__/__/mesh/core/src/log.c.obj
 .debug_frame   0x00004a28      0x320 examples/beaconing/CMakeFiles/beaconing_nrf52840_xxAA_s140_6.0.0.dir/__/__/mesh/core/src/flash_manager.c.obj
 .debug_frame   0x00004d48      0x10c examples/beaconing/CMakeFiles/beaconing_nrf52840_xxAA_s140_6.0.0.dir/__/__/mesh/core/src/ccm_soft.c.obj
 .debug_frame   0x00004e54       0x80 examples/beaconing/CMakeFiles/beaconing_nrf52840_xxAA_s140_6.0.0.dir/__/__/mesh/core/src/replay_cache.c.obj
 .debug_frame   0x00004ed4       0x60 examples/beaconing/CMakeFiles/beaconing_nrf52840_xxAA_s140_6.0.0.dir/__/__/mesh/core/src/beacon.c.obj
 .debug_frame   0x00004f34       0x34 examples/beaconing/CMakeFiles/beaconing_nrf52840_xxAA_s140_6.0.0.dir/__/__/mesh/core/src/flash_manager_internal.c.obj
 .debug_frame   0x00004f68       0xf0 examples/beaconing/CMakeFiles/beaconing_nrf52840_xxAA_s140_6.0.0.dir/__/__/mesh/core/src/core_tx.c.obj
 .debug_frame   0x00005058      0x160 examples/beaconing/CMakeFiles/beaconing_nrf52840_xxAA_s140_6.0.0.dir/__/__/mesh/core/src/heartbeat.c.obj
 .debug_frame   0x000051b8      0x138 examples/beaconing/CMakeFiles/beaconing_nrf52840_xxAA_s140_6.0.0.dir/__/__/mesh/core/src/net_beacon.c.obj
 .debug_frame   0x000052f0      0x12c examples/beaconing/CMakeFiles/beaconing_nrf52840_xxAA_s140_6.0.0.dir/__/__/mesh/core/src/core_tx_adv.c.obj
 .debug_frame   0x0000541c       0x6c examples/beaconing/CMakeFiles/beaconing_nrf52840_xxAA_s140_6.0.0.dir/__/__/mesh/bearer/src/ad_listener.c.obj
 .debug_frame   0x00005488       0xa8 examples/beaconing/CMakeFiles/beaconing_nrf52840_xxAA_s140_6.0.0.dir/__/__/mesh/bearer/src/ad_type_filter.c.obj
 .debug_frame   0x00005530      0x268 examples/beaconing/CMakeFiles/beaconing_nrf52840_xxAA_s140_6.0.0.dir/__/__/mesh/bearer/src/advertiser.c.obj
 .debug_frame   0x00005798      0x158 examples/beaconing/CMakeFiles/beaconing_nrf52840_xxAA_s140_6.0.0.dir/__/__/mesh/bearer/src/bearer_handler.c.obj
 .debug_frame   0x000058f0       0x70 examples/beaconing/CMakeFiles/beaconing_nrf52840_xxAA_s140_6.0.0.dir/__/__/mesh/bearer/src/broadcast.c.obj
 .debug_frame   0x00005960       0x74 examples/beaconing/CMakeFiles/beaconing_nrf52840_xxAA_s140_6.0.0.dir/__/__/mesh/bearer/src/filter_engine.c.obj
 .debug_frame   0x000059d4       0x94 examples/beaconing/CMakeFiles/beaconing_nrf52840_xxAA_s140_6.0.0.dir/__/__/mesh/bearer/src/radio_config.c.obj
 .debug_frame   0x00005a68      0x2a4 examples/beaconing/CMakeFiles/beaconing_nrf52840_xxAA_s140_6.0.0.dir/__/__/mesh/bearer/src/scanner.c.obj
 .debug_frame   0x00005d0c       0x48 examples/beaconing/CMakeFiles/beaconing_nrf52840_xxAA_s140_6.0.0.dir/C_/b/nRF5_SDK_15.0.0_a53641a/modules/nrfx/mdk/system_nrf52840.c.obj
 .debug_frame   0x00005d54       0x44 examples/beaconing/CMakeFiles/beaconing_nrf52840_xxAA_s140_6.0.0.dir/C_/b/nRF5_SDK_15.0.0_a53641a/components/libraries/util/app_error.c.obj
 .debug_frame   0x00005d98       0x20 examples/beaconing/CMakeFiles/beaconing_nrf52840_xxAA_s140_6.0.0.dir/C_/b/nRF5_SDK_15.0.0_a53641a/components/libraries/util/app_error_handler_gcc.c.obj
 .debug_frame   0x00005db8      0x2d8 external/rtt/librtt_nrf52840_xxAA.a(SEGGER_RTT.c.obj)
 .debug_frame   0x00006090       0xac external/rtt/librtt_nrf52840_xxAA.a(SEGGER_RTT_printf.c.obj)
 .debug_frame   0x0000613c      0x684 external/micro-ecc/libuECC_nrf52840_xxAA.a(uECC.c.obj)
 .debug_frame   0x000067c0       0x28 c:/mesh/arm_gcc/bin/../lib/gcc/arm-none-eabi/6.3.1/../../../../arm-none-eabi/lib/thumb/v7e-m/fpv4-sp/hard\libg_nano.a(lib_a-exit.o)
 .debug_frame   0x000067e8       0x2c c:/mesh/arm_gcc/bin/../lib/gcc/arm-none-eabi/6.3.1/../../../../arm-none-eabi/lib/thumb/v7e-m/fpv4-sp/hard\libg_nano.a(lib_a-init.o)
 .debug_frame   0x00006814       0x30 c:/mesh/arm_gcc/bin/../lib/gcc/arm-none-eabi/6.3.1/../../../../arm-none-eabi/lib/thumb/v7e-m/fpv4-sp/hard\libg_nano.a(lib_a-malloc.o)
 .debug_frame   0x00006844       0x28 c:/mesh/arm_gcc/bin/../lib/gcc/arm-none-eabi/6.3.1/../../../../arm-none-eabi/lib/thumb/v7e-m/fpv4-sp/hard\libg_nano.a(lib_a-memcmp.o)
 .debug_frame   0x0000686c       0x28 c:/mesh/arm_gcc/bin/../lib/gcc/arm-none-eabi/6.3.1/../../../../arm-none-eabi/lib/thumb/v7e-m/fpv4-sp/hard\libg_nano.a(lib_a-memcpy-stub.o)
 .debug_frame   0x00006894       0x20 c:/mesh/arm_gcc/bin/../lib/gcc/arm-none-eabi/6.3.1/../../../../arm-none-eabi/lib/thumb/v7e-m/fpv4-sp/hard\libg_nano.a(lib_a-memset.o)
 .debug_frame   0x000068b4       0x38 c:/mesh/arm_gcc/bin/../lib/gcc/arm-none-eabi/6.3.1/../../../../arm-none-eabi/lib/thumb/v7e-m/fpv4-sp/hard\libg_nano.a(lib_a-nano-freer.o)
 .debug_frame   0x000068ec       0x2c c:/mesh/arm_gcc/bin/../lib/gcc/arm-none-eabi/6.3.1/../../../../arm-none-eabi/lib/thumb/v7e-m/fpv4-sp/hard\libg_nano.a(lib_a-nano-mallocr.o)
 .debug_frame   0x00006918       0x2c c:/mesh/arm_gcc/bin/../lib/gcc/arm-none-eabi/6.3.1/../../../../arm-none-eabi/lib/thumb/v7e-m/fpv4-sp/hard\libg_nano.a(lib_a-sbrkr.o)
 .debug_frame   0x00006944       0x70 c:/mesh/arm_gcc/bin/../lib/gcc/arm-none-eabi/6.3.1/../../../../arm-none-eabi/lib/thumb/v7e-m/fpv4-sp/hard\libg_nano.a(lib_a-sprintf.o)
 .debug_frame   0x000069b4       0x20 c:/mesh/arm_gcc/bin/../lib/gcc/arm-none-eabi/6.3.1/../../../../arm-none-eabi/lib/thumb/v7e-m/fpv4-sp/hard\libg_nano.a(lib_a-strcpy.o)
 .debug_frame   0x000069d4       0x34 c:/mesh/arm_gcc/bin/../lib/gcc/arm-none-eabi/6.3.1/../../../../arm-none-eabi/lib/thumb/v7e-m/fpv4-sp/hard\libg_nano.a(lib_a-strrchr.o)
 .debug_frame   0x00006a08       0x30 c:/mesh/arm_gcc/bin/../lib/gcc/arm-none-eabi/6.3.1/../../../../arm-none-eabi/lib/thumb/v7e-m/fpv4-sp/hard\libg_nano.a(lib_a-mlock.o)
 .debug_frame   0x00006a38       0x90 c:/mesh/arm_gcc/bin/../lib/gcc/arm-none-eabi/6.3.1/../../../../arm-none-eabi/lib/thumb/v7e-m/fpv4-sp/hard\libg_nano.a(lib_a-nano-svfprintf.o)
 .debug_frame   0x00006ac8       0x60 c:/mesh/arm_gcc/bin/../lib/gcc/arm-none-eabi/6.3.1/../../../../arm-none-eabi/lib/thumb/v7e-m/fpv4-sp/hard\libg_nano.a(lib_a-nano-vfprintf_i.o)
 .debug_frame   0x00006b28       0x5c c:/mesh/arm_gcc/bin/../lib/gcc/arm-none-eabi/6.3.1/../../../../arm-none-eabi/lib/thumb/v7e-m/fpv4-sp/hard\libg_nano.a(lib_a-reent.o)
 .debug_frame   0x00006b84       0x20 c:/mesh/arm_gcc/bin/../lib/gcc/arm-none-eabi/6.3.1/../../../../arm-none-eabi/lib/thumb/v7e-m/fpv4-sp/hard\libg_nano.a(lib_a-strchr.o)
 .debug_frame   0x00006ba4       0x28 c:/mesh/arm_gcc/bin/../lib/gcc/arm-none-eabi/6.3.1/../../../../arm-none-eabi/lib/thumb/v7e-m/fpv4-sp/hard\libg_nano.a(lib_a-memmove.o)
 .debug_frame   0x00006bcc       0x3c c:/mesh/arm_gcc/bin/../lib/gcc/arm-none-eabi/6.3.1/../../../../arm-none-eabi/lib/thumb/v7e-m/fpv4-sp/hard\libg_nano.a(lib_a-nano-reallocr.o)
 .debug_frame   0x00006c08       0x20 c:/mesh/arm_gcc/bin/../lib/gcc/arm-none-eabi/6.3.1/../../../../arm-none-eabi/lib/thumb/v7e-m/fpv4-sp/hard\libg_nano.a(lib_a-nano-msizer.o)
 .debug_frame   0x00006c28       0x20 c:/mesh/arm_gcc/bin/../lib/gcc/arm-none-eabi/6.3.1/../../../../arm-none-eabi/lib/thumb/v7e-m/fpv4-sp/hard\libnosys.a(sbrk.o)
 .debug_frame   0x00006c48       0x20 c:/mesh/arm_gcc/bin/../lib/gcc/arm-none-eabi/6.3.1/../../../../arm-none-eabi/lib/thumb/v7e-m/fpv4-sp/hard\libnosys.a(_exit.o)
