Archive member included to satisfy reference by file (symbol)

mesh/core/libmesh_core_nrf51422_xxAC.a(internal_event.c.obj)
                              examples/dfu/CMakeFiles/dfu_nrf51422_xxAC_s130_2.0.1.dir/__/__/mesh/serial/src/serial_handler_device.c.obj (internal_event_init)
mesh/core/libmesh_core_nrf51422_xxAC.a(nrf_mesh_configure.c.obj)
                              examples/dfu/CMakeFiles/dfu_nrf51422_xxAC_s130_2.0.1.dir/__/__/mesh/serial/src/serial_handler_config.c.obj (nrf_mesh_configure_device_uuid_set)
mesh/core/libmesh_core_nrf51422_xxAC.a(event.c.obj)
                              examples/dfu/CMakeFiles/dfu_nrf51422_xxAC_s130_2.0.1.dir/__/__/mesh/access/src/access.c.obj (event_handle)
mesh/core/libmesh_core_nrf51422_xxAC.a(packet_buffer.c.obj)
                              examples/dfu/CMakeFiles/dfu_nrf51422_xxAC_s130_2.0.1.dir/__/__/mesh/serial/src/serial_bearer.c.obj (packet_buffer_max_packet_len_get)
mesh/core/libmesh_core_nrf51422_xxAC.a(fifo.c.obj)
                              mesh/core/libmesh_core_nrf51422_xxAC.a(internal_event.c.obj) (fifo_init)
mesh/core/libmesh_core_nrf51422_xxAC.a(net_state.c.obj)
                              examples/dfu/CMakeFiles/dfu_nrf51422_xxAC_s130_2.0.1.dir/__/__/mesh/serial/src/serial_handler_mesh.c.obj (net_state_reset)
mesh/core/libmesh_core_nrf51422_xxAC.a(mesh_flash.c.obj)
                              examples/dfu/CMakeFiles/dfu_nrf51422_xxAC_s130_2.0.1.dir/__/__/mesh/dfu/src/nrf_mesh_dfu.c.obj (mesh_flash_user_callback_set)
mesh/core/libmesh_core_nrf51422_xxAC.a(nrf_mesh_utils.c.obj)
                              examples/dfu/CMakeFiles/dfu_nrf51422_xxAC_s130_2.0.1.dir/__/__/mesh/access/src/device_state_manager.c.obj (nrf_mesh_address_type_get)
mesh/core/libmesh_core_nrf51422_xxAC.a(nrf_mesh.c.obj)
                              examples/dfu/CMakeFiles/dfu_nrf51422_xxAC_s130_2.0.1.dir/__/nrf_mesh_sdk.c.obj (nrf_mesh_init)
mesh/core/libmesh_core_nrf51422_xxAC.a(hal.c.obj)
                              examples/dfu/CMakeFiles/dfu_nrf51422_xxAC_s130_2.0.1.dir/__/__/mesh/serial/src/serial_handler_device.c.obj (hal_device_reset)
mesh/core/libmesh_core_nrf51422_xxAC.a(timer_scheduler.c.obj)
                              mesh/core/libmesh_core_nrf51422_xxAC.a(nrf_mesh.c.obj) (timer_sch_init)
mesh/core/libmesh_core_nrf51422_xxAC.a(timer.c.obj)
                              mesh/core/libmesh_core_nrf51422_xxAC.a(timer_scheduler.c.obj) (timer_order_cb)
mesh/core/libmesh_core_nrf51422_xxAC.a(ticker.c.obj)
                              mesh/core/libmesh_core_nrf51422_xxAC.a(nrf_mesh.c.obj) (ticker_init)
mesh/core/libmesh_core_nrf51422_xxAC.a(rand.c.obj)
                              examples/dfu/CMakeFiles/dfu_nrf51422_xxAC_s130_2.0.1.dir/__/__/mesh/dfu/src/nrf_mesh_dfu.c.obj (rand_prng_get)
mesh/core/libmesh_core_nrf51422_xxAC.a(timeslot.c.obj)
                              mesh/core/libmesh_core_nrf51422_xxAC.a(nrf_mesh.c.obj) (timeslot_sd_event_handler)
mesh/core/libmesh_core_nrf51422_xxAC.a(bearer_event.c.obj)
                              mesh/core/libmesh_core_nrf51422_xxAC.a(nrf_mesh.c.obj) (bearer_event_init)
mesh/core/libmesh_core_nrf51422_xxAC.a(enc.c.obj)
                              examples/dfu/CMakeFiles/dfu_nrf51422_xxAC_s130_2.0.1.dir/__/__/mesh/prov/src/prov_utils.c.obj (enc_aes_cmac)
mesh/core/libmesh_core_nrf51422_xxAC.a(network.c.obj)
                              mesh/core/libmesh_core_nrf51422_xxAC.a(nrf_mesh.c.obj) (network_init)
mesh/core/libmesh_core_nrf51422_xxAC.a(msqueue.c.obj)
                              mesh/core/libmesh_core_nrf51422_xxAC.a(mesh_flash.c.obj) (msq_get)
mesh/core/libmesh_core_nrf51422_xxAC.a(nrf_mesh_keygen.c.obj)
                              examples/dfu/CMakeFiles/dfu_nrf51422_xxAC_s130_2.0.1.dir/__/__/mesh/access/src/device_state_manager.c.obj (nrf_mesh_keygen_aid)
mesh/core/libmesh_core_nrf51422_xxAC.a(list.c.obj)
                              mesh/core/libmesh_core_nrf51422_xxAC.a(event.c.obj) (list_add)
mesh/core/libmesh_core_nrf51422_xxAC.a(log.c.obj)
                              examples/dfu/CMakeFiles/dfu_nrf51422_xxAC_s130_2.0.1.dir/src/main.c.obj (log_callback_rtt)
mesh/core/libmesh_core_nrf51422_xxAC.a(flash_manager.c.obj)
                              mesh/core/libmesh_core_nrf51422_xxAC.a(nrf_mesh.c.obj) (flash_manager_init)
mesh/core/libmesh_core_nrf51422_xxAC.a(ccm_soft.c.obj)
                              mesh/core/libmesh_core_nrf51422_xxAC.a(enc.c.obj) (ccm_soft_encrypt)
mesh/core/libmesh_core_nrf51422_xxAC.a(beacon.c.obj)
                              mesh/core/libmesh_core_nrf51422_xxAC.a(nrf_mesh.c.obj) (beacon_init)
mesh/core/libmesh_core_nrf51422_xxAC.a(flash_manager_internal.c.obj)
                              mesh/core/libmesh_core_nrf51422_xxAC.a(flash_manager.c.obj) (entry_get)
mesh/core/libmesh_core_nrf51422_xxAC.a(core_tx.c.obj)
                              mesh/core/libmesh_core_nrf51422_xxAC.a(network.c.obj) (core_tx_packet_alloc)
mesh/core/libmesh_core_nrf51422_xxAC.a(heartbeat.c.obj)
                              mesh/core/libmesh_core_nrf51422_xxAC.a(network.c.obj) (heartbeat_on_feature_change_trigger)
mesh/core/libmesh_core_nrf51422_xxAC.a(net_beacon.c.obj)
                              mesh/core/libmesh_core_nrf51422_xxAC.a(network.c.obj) (net_beacon_init)
mesh/core/libmesh_core_nrf51422_xxAC.a(core_tx_adv.c.obj)
                              mesh/core/libmesh_core_nrf51422_xxAC.a(nrf_mesh.c.obj) (core_tx_adv_init)
mesh/core/libmesh_core_nrf51422_xxAC.a(ad_listener.c.obj)
                              mesh/core/libmesh_core_nrf51422_xxAC.a(nrf_mesh.c.obj) (ad_listener_subscribe)
mesh/core/libmesh_core_nrf51422_xxAC.a(ad_type_filter.c.obj)
                              mesh/core/libmesh_core_nrf51422_xxAC.a(ad_listener.c.obj) (bearer_adtype_filtering_set)
mesh/core/libmesh_core_nrf51422_xxAC.a(advertiser.c.obj)
                              mesh/core/libmesh_core_nrf51422_xxAC.a(nrf_mesh.c.obj) (advertiser_init)
mesh/core/libmesh_core_nrf51422_xxAC.a(bearer_handler.c.obj)
                              mesh/core/libmesh_core_nrf51422_xxAC.a(nrf_mesh.c.obj) (bearer_handler_init)
mesh/core/libmesh_core_nrf51422_xxAC.a(broadcast.c.obj)
                              examples/dfu/CMakeFiles/dfu_nrf51422_xxAC_s130_2.0.1.dir/__/__/mesh/dfu/src/nrf_mesh_dfu.c.obj (broadcast_send)
mesh/core/libmesh_core_nrf51422_xxAC.a(filter_engine.c.obj)
                              mesh/core/libmesh_core_nrf51422_xxAC.a(ad_type_filter.c.obj) (fen_filter_start)
mesh/core/libmesh_core_nrf51422_xxAC.a(radio_config.c.obj)
                              mesh/core/libmesh_core_nrf51422_xxAC.a(broadcast.c.obj) (radio_config_reset)
mesh/core/libmesh_core_nrf51422_xxAC.a(scanner.c.obj)
                              mesh/core/libmesh_core_nrf51422_xxAC.a(bearer_handler.c.obj) (scanner_radio_start)
mesh/core/libmesh_core_nrf51422_xxAC.a(aes.c.obj)
                              mesh/core/libmesh_core_nrf51422_xxAC.a(enc.c.obj) (aes_encrypt)
mesh/core/libmesh_core_nrf51422_xxAC.a(msg_cache.c.obj)
                              mesh/core/libmesh_core_nrf51422_xxAC.a(nrf_mesh.c.obj) (msg_cache_init)
mesh/core/libmesh_core_nrf51422_xxAC.a(transport.c.obj)
                              mesh/core/libmesh_core_nrf51422_xxAC.a(nrf_mesh.c.obj) (transport_init)
mesh/core/libmesh_core_nrf51422_xxAC.a(flash_manager_defrag.c.obj)
                              mesh/core/libmesh_core_nrf51422_xxAC.a(flash_manager.c.obj) (flash_manager_defrag_init)
mesh/core/libmesh_core_nrf51422_xxAC.a(nrf_flash.c.obj)
                              mesh/core/libmesh_core_nrf51422_xxAC.a(mesh_flash.c.obj) (nrf_flash_erase)
mesh/core/libmesh_core_nrf51422_xxAC.a(packet_mgr.c.obj)
                              mesh/core/libmesh_core_nrf51422_xxAC.a(nrf_mesh.c.obj) (packet_mgr_init)
mesh/core/libmesh_core_nrf51422_xxAC.a(queue.c.obj)
                              mesh/core/libmesh_core_nrf51422_xxAC.a(bearer_event.c.obj) (queue_init)
mesh/core/libmesh_core_nrf51422_xxAC.a(aes_cmac.c.obj)
                              mesh/core/libmesh_core_nrf51422_xxAC.a(enc.c.obj) (aes_cmac)
mesh/core/libmesh_core_nrf51422_xxAC.a(nrf_mesh_opt.c.obj)
                              mesh/core/libmesh_core_nrf51422_xxAC.a(heartbeat.c.obj) (nrf_mesh_opt_get)
mesh/core/libmesh_core_nrf51422_xxAC.a(replay_cache.c.obj)
                              mesh/core/libmesh_core_nrf51422_xxAC.a(transport.c.obj) (replay_cache_add)
external/rtt/librtt_nrf51422_xxAC.a(SEGGER_RTT.c.obj)
                              mesh/core/libmesh_core_nrf51422_xxAC.a(log.c.obj) (SEGGER_RTT_Write)
external/rtt/librtt_nrf51422_xxAC.a(SEGGER_RTT_printf.c.obj)
                              mesh/core/libmesh_core_nrf51422_xxAC.a(log.c.obj) (SEGGER_RTT_vprintf)
external/micro-ecc/libuECC_nrf51422_xxAC.a(uECC.c.obj)
                              examples/dfu/CMakeFiles/dfu_nrf51422_xxAC_s130_2.0.1.dir/__/__/mesh/prov/src/prov_utils.c.obj (uECC_secp256r1)
c:/a/gcc_arm/6/bin/../lib/gcc/arm-none-eabi/6.3.1/thumb/v6-m\libgcc.a(_thumb1_case_uqi.o)
                              examples/dfu/CMakeFiles/dfu_nrf51422_xxAC_s130_2.0.1.dir/src/main.c.obj (__gnu_thumb1_case_uqi)
c:/a/gcc_arm/6/bin/../lib/gcc/arm-none-eabi/6.3.1/thumb/v6-m\libgcc.a(_thumb1_case_shi.o)
                              examples/dfu/CMakeFiles/dfu_nrf51422_xxAC_s130_2.0.1.dir/__/__/mesh/prov/src/prov_provisioner.c.obj (__gnu_thumb1_case_shi)
c:/a/gcc_arm/6/bin/../lib/gcc/arm-none-eabi/6.3.1/thumb/v6-m\libgcc.a(_thumb1_case_uhi.o)
                              examples/dfu/CMakeFiles/dfu_nrf51422_xxAC_s130_2.0.1.dir/__/__/mesh/serial/src/serial_handler_prov.c.obj (__gnu_thumb1_case_uhi)
c:/a/gcc_arm/6/bin/../lib/gcc/arm-none-eabi/6.3.1/thumb/v6-m\libgcc.a(_udivsi3.o)
                              examples/dfu/CMakeFiles/dfu_nrf51422_xxAC_s130_2.0.1.dir/__/__/mesh/access/src/access_publish.c.obj (__aeabi_uidiv)
c:/a/gcc_arm/6/bin/../lib/gcc/arm-none-eabi/6.3.1/thumb/v6-m\libgcc.a(_divsi3.o)
                              examples/dfu/CMakeFiles/dfu_nrf51422_xxAC_s130_2.0.1.dir/__/__/mesh/access/src/access_reliable.c.obj (__aeabi_idiv)
c:/a/gcc_arm/6/bin/../lib/gcc/arm-none-eabi/6.3.1/thumb/v6-m\libgcc.a(_dvmd_tls.o)
                              c:/a/gcc_arm/6/bin/../lib/gcc/arm-none-eabi/6.3.1/thumb/v6-m\libgcc.a(_udivsi3.o) (__aeabi_idiv0)
c:/a/gcc_arm/6/bin/../lib/gcc/arm-none-eabi/6.3.1/thumb/v6-m\libgcc.a(_muldi3.o)
                              mesh/core/libmesh_core_nrf51422_xxAC.a(timeslot.c.obj) (__aeabi_lmul)
c:/a/gcc_arm/6/bin/../lib/gcc/arm-none-eabi/6.3.1/../../../../arm-none-eabi/lib/thumb/v6-m\libg_nano.a(lib_a-exit.o)
                              c:/a/gcc_arm/6/bin/../lib/gcc/arm-none-eabi/6.3.1/../../../../arm-none-eabi/lib/thumb/v6-m/crt0.o (exit)
c:/a/gcc_arm/6/bin/../lib/gcc/arm-none-eabi/6.3.1/../../../../arm-none-eabi/lib/thumb/v6-m\libg_nano.a(lib_a-impure.o)
                              c:/a/gcc_arm/6/bin/../lib/gcc/arm-none-eabi/6.3.1/../../../../arm-none-eabi/lib/thumb/v6-m\libg_nano.a(lib_a-exit.o) (_global_impure_ptr)
c:/a/gcc_arm/6/bin/../lib/gcc/arm-none-eabi/6.3.1/../../../../arm-none-eabi/lib/thumb/v6-m\libg_nano.a(lib_a-init.o)
                              c:/a/gcc_arm/6/bin/../lib/gcc/arm-none-eabi/6.3.1/../../../../arm-none-eabi/lib/thumb/v6-m/crt0.o (__libc_init_array)
c:/a/gcc_arm/6/bin/../lib/gcc/arm-none-eabi/6.3.1/../../../../arm-none-eabi/lib/thumb/v6-m\libg_nano.a(lib_a-malloc.o)
                              mesh/core/libmesh_core_nrf51422_xxAC.a(transport.c.obj) (malloc)
c:/a/gcc_arm/6/bin/../lib/gcc/arm-none-eabi/6.3.1/../../../../arm-none-eabi/lib/thumb/v6-m\libg_nano.a(lib_a-memcmp.o)
                              examples/dfu/CMakeFiles/dfu_nrf51422_xxAC_s130_2.0.1.dir/__/__/mesh/access/src/device_state_manager.c.obj (memcmp)
c:/a/gcc_arm/6/bin/../lib/gcc/arm-none-eabi/6.3.1/../../../../arm-none-eabi/lib/thumb/v6-m\libg_nano.a(lib_a-memcpy-stub.o)
                              examples/dfu/CMakeFiles/dfu_nrf51422_xxAC_s130_2.0.1.dir/__/__/mesh/access/src/access.c.obj (memcpy)
c:/a/gcc_arm/6/bin/../lib/gcc/arm-none-eabi/6.3.1/../../../../arm-none-eabi/lib/thumb/v6-m\libg_nano.a(lib_a-memset.o)
                              c:/a/gcc_arm/6/bin/../lib/gcc/arm-none-eabi/6.3.1/../../../../arm-none-eabi/lib/thumb/v6-m/crt0.o (memset)
c:/a/gcc_arm/6/bin/../lib/gcc/arm-none-eabi/6.3.1/../../../../arm-none-eabi/lib/thumb/v6-m\libg_nano.a(lib_a-nano-freer.o)
                              c:/a/gcc_arm/6/bin/../lib/gcc/arm-none-eabi/6.3.1/../../../../arm-none-eabi/lib/thumb/v6-m\libg_nano.a(lib_a-malloc.o) (_free_r)
c:/a/gcc_arm/6/bin/../lib/gcc/arm-none-eabi/6.3.1/../../../../arm-none-eabi/lib/thumb/v6-m\libg_nano.a(lib_a-nano-mallocr.o)
                              c:/a/gcc_arm/6/bin/../lib/gcc/arm-none-eabi/6.3.1/../../../../arm-none-eabi/lib/thumb/v6-m\libg_nano.a(lib_a-malloc.o) (_malloc_r)
c:/a/gcc_arm/6/bin/../lib/gcc/arm-none-eabi/6.3.1/../../../../arm-none-eabi/lib/thumb/v6-m\libg_nano.a(lib_a-sbrkr.o)
                              c:/a/gcc_arm/6/bin/../lib/gcc/arm-none-eabi/6.3.1/../../../../arm-none-eabi/lib/thumb/v6-m\libg_nano.a(lib_a-nano-mallocr.o) (_sbrk_r)
c:/a/gcc_arm/6/bin/../lib/gcc/arm-none-eabi/6.3.1/../../../../arm-none-eabi/lib/thumb/v6-m\libg_nano.a(lib_a-strcpy.o)
                              external/rtt/librtt_nrf51422_xxAC.a(SEGGER_RTT.c.obj) (strcpy)
c:/a/gcc_arm/6/bin/../lib/gcc/arm-none-eabi/6.3.1/../../../../arm-none-eabi/lib/thumb/v6-m\libg_nano.a(lib_a-strlen.o)
                              examples/dfu/CMakeFiles/dfu_nrf51422_xxAC_s130_2.0.1.dir/__/__/mesh/prov/src/prov_beacon.c.obj (strlen)
c:/a/gcc_arm/6/bin/../lib/gcc/arm-none-eabi/6.3.1/../../../../arm-none-eabi/lib/thumb/v6-m\libg_nano.a(lib_a-strrchr.o)
                              examples/dfu/CMakeFiles/dfu_nrf51422_xxAC_s130_2.0.1.dir/src/main.c.obj (strrchr)
c:/a/gcc_arm/6/bin/../lib/gcc/arm-none-eabi/6.3.1/../../../../arm-none-eabi/lib/thumb/v6-m\libg_nano.a(lib_a-mlock.o)
                              c:/a/gcc_arm/6/bin/../lib/gcc/arm-none-eabi/6.3.1/../../../../arm-none-eabi/lib/thumb/v6-m\libg_nano.a(lib_a-nano-freer.o) (__malloc_lock)
c:/a/gcc_arm/6/bin/../lib/gcc/arm-none-eabi/6.3.1/../../../../arm-none-eabi/lib/thumb/v6-m\libg_nano.a(lib_a-reent.o)
                              c:/a/gcc_arm/6/bin/../lib/gcc/arm-none-eabi/6.3.1/../../../../arm-none-eabi/lib/thumb/v6-m\libg_nano.a(lib_a-sbrkr.o) (errno)
c:/a/gcc_arm/6/bin/../lib/gcc/arm-none-eabi/6.3.1/../../../../arm-none-eabi/lib/thumb/v6-m\libg_nano.a(lib_a-strchr.o)
                              c:/a/gcc_arm/6/bin/../lib/gcc/arm-none-eabi/6.3.1/../../../../arm-none-eabi/lib/thumb/v6-m\libg_nano.a(lib_a-strrchr.o) (strchr)
c:/a/gcc_arm/6/bin/../lib/gcc/arm-none-eabi/6.3.1/../../../../arm-none-eabi/lib/thumb/v6-m\libnosys.a(sbrk.o)
                              c:/a/gcc_arm/6/bin/../lib/gcc/arm-none-eabi/6.3.1/../../../../arm-none-eabi/lib/thumb/v6-m\libg_nano.a(lib_a-sbrkr.o) (_sbrk)
c:/a/gcc_arm/6/bin/../lib/gcc/arm-none-eabi/6.3.1/../../../../arm-none-eabi/lib/thumb/v6-m\libnosys.a(_exit.o)
                              c:/a/gcc_arm/6/bin/../lib/gcc/arm-none-eabi/6.3.1/../../../../arm-none-eabi/lib/thumb/v6-m\libg_nano.a(lib_a-exit.o) (_exit)

Allocating common symbols
Common symbol       size              file

nrf_nvic_state      0x8               examples/dfu/CMakeFiles/dfu_nrf51422_xxAC_s130_2.0.1.dir/__/nrf_mesh_sdk.c.obj
bank_addr           0x4               examples/dfu/CMakeFiles/dfu_nrf51422_xxAC_s130_2.0.1.dir/src/main.c.obj
rom_length          0x4               examples/dfu/CMakeFiles/dfu_nrf51422_xxAC_s130_2.0.1.dir/src/main.c.obj
m_cmd_handler       0x4               examples/dfu/CMakeFiles/dfu_nrf51422_xxAC_s130_2.0.1.dir/__/__/mesh/dfu/src/nrf_mesh_dfu.c.obj
errno               0x4               c:/a/gcc_arm/6/bin/../lib/gcc/arm-none-eabi/6.3.1/../../../../arm-none-eabi/lib/thumb/v6-m\libg_nano.a(lib_a-reent.o)
m_assertion_handler
                    0x4               mesh/core/libmesh_core_nrf51422_xxAC.a(nrf_mesh.c.obj)
_SEGGER_RTT         0x78              external/rtt/librtt_nrf51422_xxAC.a(SEGGER_RTT.c.obj)

Discarded input sections

 .text          0x00000000        0x0 c:/a/gcc_arm/6/bin/../lib/gcc/arm-none-eabi/6.3.1/thumb/v6-m/crti.o
 .data          0x00000000        0x0 c:/a/gcc_arm/6/bin/../lib/gcc/arm-none-eabi/6.3.1/thumb/v6-m/crti.o
 .bss           0x00000000        0x0 c:/a/gcc_arm/6/bin/../lib/gcc/arm-none-eabi/6.3.1/thumb/v6-m/crti.o
 .data          0x00000000        0x4 c:/a/gcc_arm/6/bin/../lib/gcc/arm-none-eabi/6.3.1/thumb/v6-m/crtbegin.o
 .data          0x00000000        0x0 c:/a/gcc_arm/6/bin/../lib/gcc/arm-none-eabi/6.3.1/../../../../arm-none-eabi/lib/thumb/v6-m/crt0.o
 .bss           0x00000000        0x0 c:/a/gcc_arm/6/bin/../lib/gcc/arm-none-eabi/6.3.1/../../../../arm-none-eabi/lib/thumb/v6-m/crt0.o
 .ARM.extab     0x00000000        0x0 c:/a/gcc_arm/6/bin/../lib/gcc/arm-none-eabi/6.3.1/../../../../arm-none-eabi/lib/thumb/v6-m/crt0.o
 .text          0x00000000        0x0 examples/dfu/CMakeFiles/dfu_nrf51422_xxAC_s130_2.0.1.dir/src/main.c.obj
 .data          0x00000000        0x0 examples/dfu/CMakeFiles/dfu_nrf51422_xxAC_s130_2.0.1.dir/src/main.c.obj
 .bss           0x00000000        0x0 examples/dfu/CMakeFiles/dfu_nrf51422_xxAC_s130_2.0.1.dir/src/main.c.obj
 .text          0x00000000        0x0 examples/dfu/CMakeFiles/dfu_nrf51422_xxAC_s130_2.0.1.dir/__/nrf_mesh_sdk.c.obj
 .data          0x00000000        0x0 examples/dfu/CMakeFiles/dfu_nrf51422_xxAC_s130_2.0.1.dir/__/nrf_mesh_sdk.c.obj
 .bss           0x00000000        0x0 examples/dfu/CMakeFiles/dfu_nrf51422_xxAC_s130_2.0.1.dir/__/nrf_mesh_sdk.c.obj
 .text          0x00000000        0x0 examples/dfu/CMakeFiles/dfu_nrf51422_xxAC_s130_2.0.1.dir/__/__/mesh/access/src/access_publish.c.obj
 .data          0x00000000        0x0 examples/dfu/CMakeFiles/dfu_nrf51422_xxAC_s130_2.0.1.dir/__/__/mesh/access/src/access_publish.c.obj
 .bss           0x00000000        0x0 examples/dfu/CMakeFiles/dfu_nrf51422_xxAC_s130_2.0.1.dir/__/__/mesh/access/src/access_publish.c.obj
 .text.publish_timer_tick
                0x00000000       0xac examples/dfu/CMakeFiles/dfu_nrf51422_xxAC_s130_2.0.1.dir/__/__/mesh/access/src/access_publish.c.obj
 .text.access_publish_init
                0x00000000       0x38 examples/dfu/CMakeFiles/dfu_nrf51422_xxAC_s130_2.0.1.dir/__/__/mesh/access/src/access_publish.c.obj
 .text          0x00000000        0x0 examples/dfu/CMakeFiles/dfu_nrf51422_xxAC_s130_2.0.1.dir/__/__/mesh/access/src/access.c.obj
 .data          0x00000000        0x0 examples/dfu/CMakeFiles/dfu_nrf51422_xxAC_s130_2.0.1.dir/__/__/mesh/access/src/access.c.obj
 .bss           0x00000000        0x0 examples/dfu/CMakeFiles/dfu_nrf51422_xxAC_s130_2.0.1.dir/__/__/mesh/access/src/access.c.obj
 .text.is_valid_opcode
                0x00000000       0x4c examples/dfu/CMakeFiles/dfu_nrf51422_xxAC_s130_2.0.1.dir/__/__/mesh/access/src/access.c.obj
 .text.flash_invalidate_complete
                0x00000000       0x18 examples/dfu/CMakeFiles/dfu_nrf51422_xxAC_s130_2.0.1.dir/__/__/mesh/access/src/access.c.obj
 .text.restore_acquired_subscription
                0x00000000       0x2c examples/dfu/CMakeFiles/dfu_nrf51422_xxAC_s130_2.0.1.dir/__/__/mesh/access/src/access.c.obj
 .text.restore_acquired_element
                0x00000000       0x1c examples/dfu/CMakeFiles/dfu_nrf51422_xxAC_s130_2.0.1.dir/__/__/mesh/access/src/access.c.obj
 .text.restore_flash_data
                0x00000000       0x5c examples/dfu/CMakeFiles/dfu_nrf51422_xxAC_s130_2.0.1.dir/__/__/mesh/access/src/access.c.obj
 .text.add_flash_manager
                0x00000000       0x5c examples/dfu/CMakeFiles/dfu_nrf51422_xxAC_s130_2.0.1.dir/__/__/mesh/access/src/access.c.obj
 .text.flash_remove_complete
                0x00000000       0x60 examples/dfu/CMakeFiles/dfu_nrf51422_xxAC_s130_2.0.1.dir/__/__/mesh/access/src/access.c.obj
 .text.flash_write_complete
                0x00000000       0x54 examples/dfu/CMakeFiles/dfu_nrf51422_xxAC_s130_2.0.1.dir/__/__/mesh/access/src/access.c.obj
 .text.unlikely.bitfield_next_get.part.0.constprop.3
                0x00000000       0x34 examples/dfu/CMakeFiles/dfu_nrf51422_xxAC_s130_2.0.1.dir/__/__/mesh/access/src/access.c.obj
 .text.restore_acquired_model
                0x00000000       0x88 examples/dfu/CMakeFiles/dfu_nrf51422_xxAC_s130_2.0.1.dir/__/__/mesh/access/src/access.c.obj
 .text.handle_incoming
                0x00000000      0x168 examples/dfu/CMakeFiles/dfu_nrf51422_xxAC_s130_2.0.1.dir/__/__/mesh/access/src/access.c.obj
 .text.mesh_evt_cb
                0x00000000      0x130 examples/dfu/CMakeFiles/dfu_nrf51422_xxAC_s130_2.0.1.dir/__/__/mesh/access/src/access.c.obj
 .text.packet_tx
                0x00000000      0x2fc examples/dfu/CMakeFiles/dfu_nrf51422_xxAC_s130_2.0.1.dir/__/__/mesh/access/src/access.c.obj
 .text.access_flash_config_load
                0x00000000      0x130 examples/dfu/CMakeFiles/dfu_nrf51422_xxAC_s130_2.0.1.dir/__/__/mesh/access/src/access.c.obj
 .text.access_init
                0x00000000       0x28 examples/dfu/CMakeFiles/dfu_nrf51422_xxAC_s130_2.0.1.dir/__/__/mesh/access/src/access.c.obj
 .text.access_model_add
                0x00000000      0x1ac examples/dfu/CMakeFiles/dfu_nrf51422_xxAC_s130_2.0.1.dir/__/__/mesh/access/src/access.c.obj
 .text.access_model_publish
                0x00000000       0x14 examples/dfu/CMakeFiles/dfu_nrf51422_xxAC_s130_2.0.1.dir/__/__/mesh/access/src/access.c.obj
 .text.access_model_reply
                0x00000000       0x1c examples/dfu/CMakeFiles/dfu_nrf51422_xxAC_s130_2.0.1.dir/__/__/mesh/access/src/access.c.obj
 .text.access_model_subscription_list_alloc
                0x00000000       0x54 examples/dfu/CMakeFiles/dfu_nrf51422_xxAC_s130_2.0.1.dir/__/__/mesh/access/src/access.c.obj
 .text.access_model_subscription_lists_share
                0x00000000       0x4c examples/dfu/CMakeFiles/dfu_nrf51422_xxAC_s130_2.0.1.dir/__/__/mesh/access/src/access.c.obj
 .text.access_default_ttl_set
                0x00000000       0x10 examples/dfu/CMakeFiles/dfu_nrf51422_xxAC_s130_2.0.1.dir/__/__/mesh/access/src/access.c.obj
 .text.access_default_ttl_get
                0x00000000        0xc examples/dfu/CMakeFiles/dfu_nrf51422_xxAC_s130_2.0.1.dir/__/__/mesh/access/src/access.c.obj
 .text.access_model_p_args_get
                0x00000000       0x2c examples/dfu/CMakeFiles/dfu_nrf51422_xxAC_s130_2.0.1.dir/__/__/mesh/access/src/access.c.obj
 .bss.m_evt_handler
                0x00000000        0x8 examples/dfu/CMakeFiles/dfu_nrf51422_xxAC_s130_2.0.1.dir/__/__/mesh/access/src/access.c.obj
 .data.flash_add_mem_available_struct.7714
                0x00000000       0x10 examples/dfu/CMakeFiles/dfu_nrf51422_xxAC_s130_2.0.1.dir/__/__/mesh/access/src/access.c.obj
 .data.m_default_ttl
                0x00000000        0x1 examples/dfu/CMakeFiles/dfu_nrf51422_xxAC_s130_2.0.1.dir/__/__/mesh/access/src/access.c.obj
 .rodata.mesh_evt_cb.str1.1
                0x00000000       0x2f examples/dfu/CMakeFiles/dfu_nrf51422_xxAC_s130_2.0.1.dir/__/__/mesh/access/src/access.c.obj
 .rodata.multiply_de_bruijn_bit_position.6642
                0x00000000       0x20 examples/dfu/CMakeFiles/dfu_nrf51422_xxAC_s130_2.0.1.dir/__/__/mesh/access/src/access.c.obj
 .rodata.packet_tx.str1.1
                0x00000000       0x13 examples/dfu/CMakeFiles/dfu_nrf51422_xxAC_s130_2.0.1.dir/__/__/mesh/access/src/access.c.obj
 .text          0x00000000        0x0 examples/dfu/CMakeFiles/dfu_nrf51422_xxAC_s130_2.0.1.dir/__/__/mesh/access/src/access_reliable.c.obj
 .data          0x00000000        0x0 examples/dfu/CMakeFiles/dfu_nrf51422_xxAC_s130_2.0.1.dir/__/__/mesh/access/src/access_reliable.c.obj
 .bss           0x00000000        0x0 examples/dfu/CMakeFiles/dfu_nrf51422_xxAC_s130_2.0.1.dir/__/__/mesh/access/src/access_reliable.c.obj
 .text.remove_and_reschedule
                0x00000000       0xe0 examples/dfu/CMakeFiles/dfu_nrf51422_xxAC_s130_2.0.1.dir/__/__/mesh/access/src/access_reliable.c.obj
 .text.reliable_timer_cb
                0x00000000      0x150 examples/dfu/CMakeFiles/dfu_nrf51422_xxAC_s130_2.0.1.dir/__/__/mesh/access/src/access_reliable.c.obj
 .text.access_reliable_message_rx_cb
                0x00000000       0x80 examples/dfu/CMakeFiles/dfu_nrf51422_xxAC_s130_2.0.1.dir/__/__/mesh/access/src/access_reliable.c.obj
 .text.access_reliable_init
                0x00000000       0x1c examples/dfu/CMakeFiles/dfu_nrf51422_xxAC_s130_2.0.1.dir/__/__/mesh/access/src/access_reliable.c.obj
 .text.access_model_reliable_cancel
                0x00000000       0x50 examples/dfu/CMakeFiles/dfu_nrf51422_xxAC_s130_2.0.1.dir/__/__/mesh/access/src/access_reliable.c.obj
 .text.access_model_reliable_publish
                0x00000000      0x1c4 examples/dfu/CMakeFiles/dfu_nrf51422_xxAC_s130_2.0.1.dir/__/__/mesh/access/src/access_reliable.c.obj
 .text          0x00000000        0x0 examples/dfu/CMakeFiles/dfu_nrf51422_xxAC_s130_2.0.1.dir/__/__/mesh/access/src/device_state_manager.c.obj
 .data          0x00000000        0x0 examples/dfu/CMakeFiles/dfu_nrf51422_xxAC_s130_2.0.1.dir/__/__/mesh/access/src/device_state_manager.c.obj
 .bss           0x00000000        0x0 examples/dfu/CMakeFiles/dfu_nrf51422_xxAC_s130_2.0.1.dir/__/__/mesh/access/src/device_state_manager.c.obj
 .text.bitfield_is_all_clear
                0x00000000       0x3a examples/dfu/CMakeFiles/dfu_nrf51422_xxAC_s130_2.0.1.dir/__/__/mesh/access/src/device_state_manager.c.obj
 .text.flash_update_all
                0x00000000       0x74 examples/dfu/CMakeFiles/dfu_nrf51422_xxAC_s130_2.0.1.dir/__/__/mesh/access/src/device_state_manager.c.obj
 .text.flash_operation_complete
                0x00000000       0x58 examples/dfu/CMakeFiles/dfu_nrf51422_xxAC_s130_2.0.1.dir/__/__/mesh/access/src/device_state_manager.c.obj
 .text.flash_invalidate_complete
                0x00000000        0xc examples/dfu/CMakeFiles/dfu_nrf51422_xxAC_s130_2.0.1.dir/__/__/mesh/access/src/device_state_manager.c.obj
 .text.flash_write_complete
                0x00000000        0xc examples/dfu/CMakeFiles/dfu_nrf51422_xxAC_s130_2.0.1.dir/__/__/mesh/access/src/device_state_manager.c.obj
 .text.dsm_flash_config_load
                0x00000000      0x124 examples/dfu/CMakeFiles/dfu_nrf51422_xxAC_s130_2.0.1.dir/__/__/mesh/access/src/device_state_manager.c.obj
 .text.dsm_has_unflashed_data
                0x00000000       0x28 examples/dfu/CMakeFiles/dfu_nrf51422_xxAC_s130_2.0.1.dir/__/__/mesh/access/src/device_state_manager.c.obj
 .text.dsm_flash_area_get
                0x00000000       0x10 examples/dfu/CMakeFiles/dfu_nrf51422_xxAC_s130_2.0.1.dir/__/__/mesh/access/src/device_state_manager.c.obj
 .text.build_flash_area
                0x00000000       0x90 examples/dfu/CMakeFiles/dfu_nrf51422_xxAC_s130_2.0.1.dir/__/__/mesh/access/src/device_state_manager.c.obj
 .text.flash_remove_complete
                0x00000000        0x8 examples/dfu/CMakeFiles/dfu_nrf51422_xxAC_s130_2.0.1.dir/__/__/mesh/access/src/device_state_manager.c.obj
 .text.dsm_init
                0x00000000       0x28 examples/dfu/CMakeFiles/dfu_nrf51422_xxAC_s130_2.0.1.dir/__/__/mesh/access/src/device_state_manager.c.obj
 .text.dsm_address_publish_add_handle
                0x00000000       0x38 examples/dfu/CMakeFiles/dfu_nrf51422_xxAC_s130_2.0.1.dir/__/__/mesh/access/src/device_state_manager.c.obj
 .text.dsm_address_subscription_add_handle
                0x00000000       0x38 examples/dfu/CMakeFiles/dfu_nrf51422_xxAC_s130_2.0.1.dir/__/__/mesh/access/src/device_state_manager.c.obj
 .text.dsm_address_subscription_count_get
                0x00000000       0x58 examples/dfu/CMakeFiles/dfu_nrf51422_xxAC_s130_2.0.1.dir/__/__/mesh/access/src/device_state_manager.c.obj
 .text.dsm_net_key_index_to_subnet_handle
                0x00000000       0x1c examples/dfu/CMakeFiles/dfu_nrf51422_xxAC_s130_2.0.1.dir/__/__/mesh/access/src/device_state_manager.c.obj
 .text.dsm_subnet_handle_to_netkey_index
                0x00000000       0x38 examples/dfu/CMakeFiles/dfu_nrf51422_xxAC_s130_2.0.1.dir/__/__/mesh/access/src/device_state_manager.c.obj
 .text.dsm_appkey_index_to_appkey_handle
                0x00000000       0x1c examples/dfu/CMakeFiles/dfu_nrf51422_xxAC_s130_2.0.1.dir/__/__/mesh/access/src/device_state_manager.c.obj
 .text.dsm_appkey_handle_to_appkey_index
                0x00000000       0x38 examples/dfu/CMakeFiles/dfu_nrf51422_xxAC_s130_2.0.1.dir/__/__/mesh/access/src/device_state_manager.c.obj
 .text.dsm_subnet_kr_phase_get
                0x00000000       0x34 examples/dfu/CMakeFiles/dfu_nrf51422_xxAC_s130_2.0.1.dir/__/__/mesh/access/src/device_state_manager.c.obj
 .text.dsm_devkey_handle_get
                0x00000000       0x30 examples/dfu/CMakeFiles/dfu_nrf51422_xxAC_s130_2.0.1.dir/__/__/mesh/access/src/device_state_manager.c.obj
 .text.dsm_beacon_secmat_get
                0x00000000       0x38 examples/dfu/CMakeFiles/dfu_nrf51422_xxAC_s130_2.0.1.dir/__/__/mesh/access/src/device_state_manager.c.obj
 .text.dsm_net_secmat_from_keyindex_get
                0x00000000       0x3c examples/dfu/CMakeFiles/dfu_nrf51422_xxAC_s130_2.0.1.dir/__/__/mesh/access/src/device_state_manager.c.obj
 .text.dsm_proxy_identity_get
                0x00000000        0x4 examples/dfu/CMakeFiles/dfu_nrf51422_xxAC_s130_2.0.1.dir/__/__/mesh/access/src/device_state_manager.c.obj
 .data.mem_listener.8048
                0x00000000       0x10 examples/dfu/CMakeFiles/dfu_nrf51422_xxAC_s130_2.0.1.dir/__/__/mesh/access/src/device_state_manager.c.obj
 .text          0x00000000        0x0 examples/dfu/CMakeFiles/dfu_nrf51422_xxAC_s130_2.0.1.dir/__/__/mesh/serial/src/serial_uart.c.obj
 .data          0x00000000        0x0 examples/dfu/CMakeFiles/dfu_nrf51422_xxAC_s130_2.0.1.dir/__/__/mesh/serial/src/serial_uart.c.obj
 .bss           0x00000000        0x0 examples/dfu/CMakeFiles/dfu_nrf51422_xxAC_s130_2.0.1.dir/__/__/mesh/serial/src/serial_uart.c.obj
 .text          0x00000000        0x0 examples/dfu/CMakeFiles/dfu_nrf51422_xxAC_s130_2.0.1.dir/__/__/mesh/serial/src/serial_bearer.c.obj
 .data          0x00000000        0x0 examples/dfu/CMakeFiles/dfu_nrf51422_xxAC_s130_2.0.1.dir/__/__/mesh/serial/src/serial_bearer.c.obj
 .bss           0x00000000        0x0 examples/dfu/CMakeFiles/dfu_nrf51422_xxAC_s130_2.0.1.dir/__/__/mesh/serial/src/serial_bearer.c.obj
 .text.serial_bearer_rx_pending
                0x00000000       0x10 examples/dfu/CMakeFiles/dfu_nrf51422_xxAC_s130_2.0.1.dir/__/__/mesh/serial/src/serial_bearer.c.obj
 .text          0x00000000        0x0 examples/dfu/CMakeFiles/dfu_nrf51422_xxAC_s130_2.0.1.dir/__/__/mesh/serial/src/serial_handler_common.c.obj
 .data          0x00000000        0x0 examples/dfu/CMakeFiles/dfu_nrf51422_xxAC_s130_2.0.1.dir/__/__/mesh/serial/src/serial_handler_common.c.obj
 .bss           0x00000000        0x0 examples/dfu/CMakeFiles/dfu_nrf51422_xxAC_s130_2.0.1.dir/__/__/mesh/serial/src/serial_handler_common.c.obj
 .text          0x00000000        0x0 examples/dfu/CMakeFiles/dfu_nrf51422_xxAC_s130_2.0.1.dir/__/__/mesh/serial/src/serial_handler_access.c.obj
 .data          0x00000000        0x0 examples/dfu/CMakeFiles/dfu_nrf51422_xxAC_s130_2.0.1.dir/__/__/mesh/serial/src/serial_handler_access.c.obj
 .bss           0x00000000        0x0 examples/dfu/CMakeFiles/dfu_nrf51422_xxAC_s130_2.0.1.dir/__/__/mesh/serial/src/serial_handler_access.c.obj
 .text          0x00000000        0x0 examples/dfu/CMakeFiles/dfu_nrf51422_xxAC_s130_2.0.1.dir/__/__/mesh/serial/src/serial_handler_config.c.obj
 .data          0x00000000        0x0 examples/dfu/CMakeFiles/dfu_nrf51422_xxAC_s130_2.0.1.dir/__/__/mesh/serial/src/serial_handler_config.c.obj
 .bss           0x00000000        0x0 examples/dfu/CMakeFiles/dfu_nrf51422_xxAC_s130_2.0.1.dir/__/__/mesh/serial/src/serial_handler_config.c.obj
 .text          0x00000000        0x0 examples/dfu/CMakeFiles/dfu_nrf51422_xxAC_s130_2.0.1.dir/__/__/mesh/serial/src/serial_handler_openmesh.c.obj
 .data          0x00000000        0x0 examples/dfu/CMakeFiles/dfu_nrf51422_xxAC_s130_2.0.1.dir/__/__/mesh/serial/src/serial_handler_openmesh.c.obj
 .bss           0x00000000        0x0 examples/dfu/CMakeFiles/dfu_nrf51422_xxAC_s130_2.0.1.dir/__/__/mesh/serial/src/serial_handler_openmesh.c.obj
 .text          0x00000000        0x0 examples/dfu/CMakeFiles/dfu_nrf51422_xxAC_s130_2.0.1.dir/__/__/mesh/serial/src/serial.c.obj
 .data          0x00000000        0x0 examples/dfu/CMakeFiles/dfu_nrf51422_xxAC_s130_2.0.1.dir/__/__/mesh/serial/src/serial.c.obj
 .bss           0x00000000        0x0 examples/dfu/CMakeFiles/dfu_nrf51422_xxAC_s130_2.0.1.dir/__/__/mesh/serial/src/serial.c.obj
 .text          0x00000000        0x0 examples/dfu/CMakeFiles/dfu_nrf51422_xxAC_s130_2.0.1.dir/__/__/mesh/serial/src/serial_handler_prov.c.obj
 .data          0x00000000        0x0 examples/dfu/CMakeFiles/dfu_nrf51422_xxAC_s130_2.0.1.dir/__/__/mesh/serial/src/serial_handler_prov.c.obj
 .bss           0x00000000        0x0 examples/dfu/CMakeFiles/dfu_nrf51422_xxAC_s130_2.0.1.dir/__/__/mesh/serial/src/serial_handler_prov.c.obj
 .text.serial_handler_prov_context_get
                0x00000000       0x1c examples/dfu/CMakeFiles/dfu_nrf51422_xxAC_s130_2.0.1.dir/__/__/mesh/serial/src/serial_handler_prov.c.obj
 .text.serial_handler_prov_keys_get
                0x00000000       0x14 examples/dfu/CMakeFiles/dfu_nrf51422_xxAC_s130_2.0.1.dir/__/__/mesh/serial/src/serial_handler_prov.c.obj
 .text.serial_handler_prov_oob_caps_get
                0x00000000        0xc examples/dfu/CMakeFiles/dfu_nrf51422_xxAC_s130_2.0.1.dir/__/__/mesh/serial/src/serial_handler_prov.c.obj
 .text          0x00000000        0x0 examples/dfu/CMakeFiles/dfu_nrf51422_xxAC_s130_2.0.1.dir/__/__/mesh/serial/src/serial_handler_dfu.c.obj
 .data          0x00000000        0x0 examples/dfu/CMakeFiles/dfu_nrf51422_xxAC_s130_2.0.1.dir/__/__/mesh/serial/src/serial_handler_dfu.c.obj
 .bss           0x00000000        0x0 examples/dfu/CMakeFiles/dfu_nrf51422_xxAC_s130_2.0.1.dir/__/__/mesh/serial/src/serial_handler_dfu.c.obj
 .text          0x00000000        0x0 examples/dfu/CMakeFiles/dfu_nrf51422_xxAC_s130_2.0.1.dir/__/__/mesh/serial/src/serial_handler_mesh.c.obj
 .data          0x00000000        0x0 examples/dfu/CMakeFiles/dfu_nrf51422_xxAC_s130_2.0.1.dir/__/__/mesh/serial/src/serial_handler_mesh.c.obj
 .bss           0x00000000        0x0 examples/dfu/CMakeFiles/dfu_nrf51422_xxAC_s130_2.0.1.dir/__/__/mesh/serial/src/serial_handler_mesh.c.obj
 .text          0x00000000        0x0 examples/dfu/CMakeFiles/dfu_nrf51422_xxAC_s130_2.0.1.dir/__/__/mesh/serial/src/serial_handler_models.c.obj
 .data          0x00000000        0x0 examples/dfu/CMakeFiles/dfu_nrf51422_xxAC_s130_2.0.1.dir/__/__/mesh/serial/src/serial_handler_models.c.obj
 .bss           0x00000000        0x0 examples/dfu/CMakeFiles/dfu_nrf51422_xxAC_s130_2.0.1.dir/__/__/mesh/serial/src/serial_handler_models.c.obj
 .text.serial_handler_models_register
                0x00000000       0x3c examples/dfu/CMakeFiles/dfu_nrf51422_xxAC_s130_2.0.1.dir/__/__/mesh/serial/src/serial_handler_models.c.obj
 .text          0x00000000        0x0 examples/dfu/CMakeFiles/dfu_nrf51422_xxAC_s130_2.0.1.dir/__/__/mesh/serial/src/serial_handler_device.c.obj
 .data          0x00000000        0x0 examples/dfu/CMakeFiles/dfu_nrf51422_xxAC_s130_2.0.1.dir/__/__/mesh/serial/src/serial_handler_device.c.obj
 .bss           0x00000000        0x0 examples/dfu/CMakeFiles/dfu_nrf51422_xxAC_s130_2.0.1.dir/__/__/mesh/serial/src/serial_handler_device.c.obj
 .text          0x00000000        0x0 examples/dfu/CMakeFiles/dfu_nrf51422_xxAC_s130_2.0.1.dir/__/__/mesh/serial/src/nrf_mesh_serial.c.obj
 .data          0x00000000        0x0 examples/dfu/CMakeFiles/dfu_nrf51422_xxAC_s130_2.0.1.dir/__/__/mesh/serial/src/nrf_mesh_serial.c.obj
 .bss           0x00000000        0x0 examples/dfu/CMakeFiles/dfu_nrf51422_xxAC_s130_2.0.1.dir/__/__/mesh/serial/src/nrf_mesh_serial.c.obj
 .text.nrf_mesh_serial_state_get
                0x00000000        0x8 examples/dfu/CMakeFiles/dfu_nrf51422_xxAC_s130_2.0.1.dir/__/__/mesh/serial/src/nrf_mesh_serial.c.obj
 .text.nrf_mesh_serial_tx
                0x00000000       0x60 examples/dfu/CMakeFiles/dfu_nrf51422_xxAC_s130_2.0.1.dir/__/__/mesh/serial/src/nrf_mesh_serial.c.obj
 .text          0x00000000        0x0 examples/dfu/CMakeFiles/dfu_nrf51422_xxAC_s130_2.0.1.dir/__/__/mesh/serial/src/serial_handler_app.c.obj
 .data          0x00000000        0x0 examples/dfu/CMakeFiles/dfu_nrf51422_xxAC_s130_2.0.1.dir/__/__/mesh/serial/src/serial_handler_app.c.obj
 .bss           0x00000000        0x0 examples/dfu/CMakeFiles/dfu_nrf51422_xxAC_s130_2.0.1.dir/__/__/mesh/serial/src/serial_handler_app.c.obj
 .text          0x00000000        0x0 examples/dfu/CMakeFiles/dfu_nrf51422_xxAC_s130_2.0.1.dir/__/__/mesh/prov/src/prov_provisioner.c.obj
 .data          0x00000000        0x0 examples/dfu/CMakeFiles/dfu_nrf51422_xxAC_s130_2.0.1.dir/__/__/mesh/prov/src/prov_provisioner.c.obj
 .bss           0x00000000        0x0 examples/dfu/CMakeFiles/dfu_nrf51422_xxAC_s130_2.0.1.dir/__/__/mesh/prov/src/prov_provisioner.c.obj
 .text.prov_provisioner_oob_pubkey
                0x00000000       0x32 examples/dfu/CMakeFiles/dfu_nrf51422_xxAC_s130_2.0.1.dir/__/__/mesh/prov/src/prov_provisioner.c.obj
 .text          0x00000000        0x0 examples/dfu/CMakeFiles/dfu_nrf51422_xxAC_s130_2.0.1.dir/__/__/mesh/prov/src/prov_provisionee.c.obj
 .data          0x00000000        0x0 examples/dfu/CMakeFiles/dfu_nrf51422_xxAC_s130_2.0.1.dir/__/__/mesh/prov/src/prov_provisionee.c.obj
 .bss           0x00000000        0x0 examples/dfu/CMakeFiles/dfu_nrf51422_xxAC_s130_2.0.1.dir/__/__/mesh/prov/src/prov_provisionee.c.obj
 .text          0x00000000        0x0 examples/dfu/CMakeFiles/dfu_nrf51422_xxAC_s130_2.0.1.dir/__/__/mesh/prov/src/nrf_mesh_prov.c.obj
 .data          0x00000000        0x0 examples/dfu/CMakeFiles/dfu_nrf51422_xxAC_s130_2.0.1.dir/__/__/mesh/prov/src/nrf_mesh_prov.c.obj
 .bss           0x00000000        0x0 examples/dfu/CMakeFiles/dfu_nrf51422_xxAC_s130_2.0.1.dir/__/__/mesh/prov/src/nrf_mesh_prov.c.obj
 .text.nrf_mesh_prov_pubkey_provide
                0x00000000       0x18 examples/dfu/CMakeFiles/dfu_nrf51422_xxAC_s130_2.0.1.dir/__/__/mesh/prov/src/nrf_mesh_prov.c.obj
 .text          0x00000000        0x0 examples/dfu/CMakeFiles/dfu_nrf51422_xxAC_s130_2.0.1.dir/__/__/mesh/prov/src/provisioning.c.obj
 .data          0x00000000        0x0 examples/dfu/CMakeFiles/dfu_nrf51422_xxAC_s130_2.0.1.dir/__/__/mesh/prov/src/provisioning.c.obj
 .bss           0x00000000        0x0 examples/dfu/CMakeFiles/dfu_nrf51422_xxAC_s130_2.0.1.dir/__/__/mesh/prov/src/provisioning.c.obj
 .text.prov_tx  0x00000000        0x8 examples/dfu/CMakeFiles/dfu_nrf51422_xxAC_s130_2.0.1.dir/__/__/mesh/prov/src/provisioning.c.obj
 .text          0x00000000        0x0 examples/dfu/CMakeFiles/dfu_nrf51422_xxAC_s130_2.0.1.dir/__/__/mesh/prov/src/prov_beacon.c.obj
 .data          0x00000000        0x0 examples/dfu/CMakeFiles/dfu_nrf51422_xxAC_s130_2.0.1.dir/__/__/mesh/prov/src/prov_beacon.c.obj
 .bss           0x00000000        0x0 examples/dfu/CMakeFiles/dfu_nrf51422_xxAC_s130_2.0.1.dir/__/__/mesh/prov/src/prov_beacon.c.obj
 .text          0x00000000        0x0 examples/dfu/CMakeFiles/dfu_nrf51422_xxAC_s130_2.0.1.dir/__/__/mesh/prov/src/prov_utils.c.obj
 .data          0x00000000        0x0 examples/dfu/CMakeFiles/dfu_nrf51422_xxAC_s130_2.0.1.dir/__/__/mesh/prov/src/prov_utils.c.obj
 .bss           0x00000000        0x0 examples/dfu/CMakeFiles/dfu_nrf51422_xxAC_s130_2.0.1.dir/__/__/mesh/prov/src/prov_utils.c.obj
 .text.prov_utils_opt_set
                0x00000000       0x20 examples/dfu/CMakeFiles/dfu_nrf51422_xxAC_s130_2.0.1.dir/__/__/mesh/prov/src/prov_utils.c.obj
 .text          0x00000000        0x0 examples/dfu/CMakeFiles/dfu_nrf51422_xxAC_s130_2.0.1.dir/__/__/mesh/prov/src/prov_bearer_adv.c.obj
 .data          0x00000000        0x0 examples/dfu/CMakeFiles/dfu_nrf51422_xxAC_s130_2.0.1.dir/__/__/mesh/prov/src/prov_bearer_adv.c.obj
 .bss           0x00000000        0x0 examples/dfu/CMakeFiles/dfu_nrf51422_xxAC_s130_2.0.1.dir/__/__/mesh/prov/src/prov_bearer_adv.c.obj
 .text          0x00000000        0x0 examples/dfu/CMakeFiles/dfu_nrf51422_xxAC_s130_2.0.1.dir/__/__/mesh/dfu/src/nrf_mesh_dfu.c.obj
 .data          0x00000000        0x0 examples/dfu/CMakeFiles/dfu_nrf51422_xxAC_s130_2.0.1.dir/__/__/mesh/dfu/src/nrf_mesh_dfu.c.obj
 .bss           0x00000000        0x0 examples/dfu/CMakeFiles/dfu_nrf51422_xxAC_s130_2.0.1.dir/__/__/mesh/dfu/src/nrf_mesh_dfu.c.obj
 .text          0x00000000        0x0 examples/dfu/CMakeFiles/dfu_nrf51422_xxAC_s130_2.0.1.dir/__/nrf_mesh_weak.c.obj
 .data          0x00000000        0x0 examples/dfu/CMakeFiles/dfu_nrf51422_xxAC_s130_2.0.1.dir/__/nrf_mesh_weak.c.obj
 .bss           0x00000000        0x0 examples/dfu/CMakeFiles/dfu_nrf51422_xxAC_s130_2.0.1.dir/__/nrf_mesh_weak.c.obj
 .text._weak_handler
                0x00000000        0x4 examples/dfu/CMakeFiles/dfu_nrf51422_xxAC_s130_2.0.1.dir/__/nrf_mesh_weak.c.obj
 .text._weak_handler_ptr
                0x00000000        0x4 examples/dfu/CMakeFiles/dfu_nrf51422_xxAC_s130_2.0.1.dir/__/nrf_mesh_weak.c.obj
 .debug_info    0x00000000      0x93a examples/dfu/CMakeFiles/dfu_nrf51422_xxAC_s130_2.0.1.dir/__/nrf_mesh_weak.c.obj
 .debug_abbrev  0x00000000      0x1a7 examples/dfu/CMakeFiles/dfu_nrf51422_xxAC_s130_2.0.1.dir/__/nrf_mesh_weak.c.obj
 .debug_aranges
                0x00000000       0x28 examples/dfu/CMakeFiles/dfu_nrf51422_xxAC_s130_2.0.1.dir/__/nrf_mesh_weak.c.obj
 .debug_ranges  0x00000000       0x18 examples/dfu/CMakeFiles/dfu_nrf51422_xxAC_s130_2.0.1.dir/__/nrf_mesh_weak.c.obj
 .debug_line    0x00000000      0x1d0 examples/dfu/CMakeFiles/dfu_nrf51422_xxAC_s130_2.0.1.dir/__/nrf_mesh_weak.c.obj
 .debug_str     0x00000000      0x62e examples/dfu/CMakeFiles/dfu_nrf51422_xxAC_s130_2.0.1.dir/__/nrf_mesh_weak.c.obj
 .comment       0x00000000       0x80 examples/dfu/CMakeFiles/dfu_nrf51422_xxAC_s130_2.0.1.dir/__/nrf_mesh_weak.c.obj
 .debug_frame   0x00000000       0x30 examples/dfu/CMakeFiles/dfu_nrf51422_xxAC_s130_2.0.1.dir/__/nrf_mesh_weak.c.obj
 .ARM.attributes
                0x00000000       0x31 examples/dfu/CMakeFiles/dfu_nrf51422_xxAC_s130_2.0.1.dir/__/nrf_mesh_weak.c.obj
 .text          0x00000000        0x0 examples/dfu/CMakeFiles/dfu_nrf51422_xxAC_s130_2.0.1.dir/__/__/external/nRF5_SDK_14.2.0_17b948a/components/toolchain/system_nrf51.c.obj
 .data          0x00000000        0x0 examples/dfu/CMakeFiles/dfu_nrf51422_xxAC_s130_2.0.1.dir/__/__/external/nRF5_SDK_14.2.0_17b948a/components/toolchain/system_nrf51.c.obj
 .bss           0x00000000        0x0 examples/dfu/CMakeFiles/dfu_nrf51422_xxAC_s130_2.0.1.dir/__/__/external/nRF5_SDK_14.2.0_17b948a/components/toolchain/system_nrf51.c.obj
 .text.SystemCoreClockUpdate
                0x00000000       0x10 examples/dfu/CMakeFiles/dfu_nrf51422_xxAC_s130_2.0.1.dir/__/__/external/nRF5_SDK_14.2.0_17b948a/components/toolchain/system_nrf51.c.obj
 .data.SystemCoreClock
                0x00000000        0x4 examples/dfu/CMakeFiles/dfu_nrf51422_xxAC_s130_2.0.1.dir/__/__/external/nRF5_SDK_14.2.0_17b948a/components/toolchain/system_nrf51.c.obj
 .data          0x00000000        0x0 examples/dfu/CMakeFiles/dfu_nrf51422_xxAC_s130_2.0.1.dir/__/__/external/nRF5_SDK_14.2.0_17b948a/components/toolchain/gcc/gcc_startup_nrf51.S.obj
 .bss           0x00000000        0x0 examples/dfu/CMakeFiles/dfu_nrf51422_xxAC_s130_2.0.1.dir/__/__/external/nRF5_SDK_14.2.0_17b948a/components/toolchain/gcc/gcc_startup_nrf51.S.obj
 .text          0x00000000        0x0 mesh/core/libmesh_core_nrf51422_xxAC.a(internal_event.c.obj)
 .data          0x00000000        0x0 mesh/core/libmesh_core_nrf51422_xxAC.a(internal_event.c.obj)
 .bss           0x00000000        0x0 mesh/core/libmesh_core_nrf51422_xxAC.a(internal_event.c.obj)
 .text.internal_event_pop
                0x00000000       0x20 mesh/core/libmesh_core_nrf51422_xxAC.a(internal_event.c.obj)
 .text          0x00000000        0x0 mesh/core/libmesh_core_nrf51422_xxAC.a(nrf_mesh_configure.c.obj)
 .data          0x00000000        0x0 mesh/core/libmesh_core_nrf51422_xxAC.a(nrf_mesh_configure.c.obj)
 .bss           0x00000000        0x0 mesh/core/libmesh_core_nrf51422_xxAC.a(nrf_mesh_configure.c.obj)
 .text          0x00000000        0x0 mesh/core/libmesh_core_nrf51422_xxAC.a(event.c.obj)
 .data          0x00000000        0x0 mesh/core/libmesh_core_nrf51422_xxAC.a(event.c.obj)
 .bss           0x00000000        0x0 mesh/core/libmesh_core_nrf51422_xxAC.a(event.c.obj)
 .text          0x00000000        0x0 mesh/core/libmesh_core_nrf51422_xxAC.a(packet_buffer.c.obj)
 .data          0x00000000        0x0 mesh/core/libmesh_core_nrf51422_xxAC.a(packet_buffer.c.obj)
 .bss           0x00000000        0x0 mesh/core/libmesh_core_nrf51422_xxAC.a(packet_buffer.c.obj)
 .text          0x00000000        0x0 mesh/core/libmesh_core_nrf51422_xxAC.a(fifo.c.obj)
 .data          0x00000000        0x0 mesh/core/libmesh_core_nrf51422_xxAC.a(fifo.c.obj)
 .bss           0x00000000        0x0 mesh/core/libmesh_core_nrf51422_xxAC.a(fifo.c.obj)
 .text.fifo_peek_at
                0x00000000       0x5a mesh/core/libmesh_core_nrf51422_xxAC.a(fifo.c.obj)
 .text.fifo_peek
                0x00000000        0xa mesh/core/libmesh_core_nrf51422_xxAC.a(fifo.c.obj)
 .text.fifo_flush
                0x00000000        0x6 mesh/core/libmesh_core_nrf51422_xxAC.a(fifo.c.obj)
 .text.fifo_get_len
                0x00000000        0x8 mesh/core/libmesh_core_nrf51422_xxAC.a(fifo.c.obj)
 .text.fifo_is_full
                0x00000000       0x12 mesh/core/libmesh_core_nrf51422_xxAC.a(fifo.c.obj)
 .text.fifo_is_empty
                0x00000000        0xe mesh/core/libmesh_core_nrf51422_xxAC.a(fifo.c.obj)
 .text          0x00000000        0x0 mesh/core/libmesh_core_nrf51422_xxAC.a(net_state.c.obj)
 .data          0x00000000        0x0 mesh/core/libmesh_core_nrf51422_xxAC.a(net_state.c.obj)
 .bss           0x00000000        0x0 mesh/core/libmesh_core_nrf51422_xxAC.a(net_state.c.obj)
 .text.net_state_iv_update_test_mode_set
                0x00000000        0xc mesh/core/libmesh_core_nrf51422_xxAC.a(net_state.c.obj)
 .text          0x00000000        0x0 mesh/core/libmesh_core_nrf51422_xxAC.a(mesh_flash.c.obj)
 .data          0x00000000        0x0 mesh/core/libmesh_core_nrf51422_xxAC.a(mesh_flash.c.obj)
 .bss           0x00000000        0x0 mesh/core/libmesh_core_nrf51422_xxAC.a(mesh_flash.c.obj)
 .text.mesh_flash_op_available_slots
                0x00000000       0x2c mesh/core/libmesh_core_nrf51422_xxAC.a(mesh_flash.c.obj)
 .text          0x00000000        0x0 mesh/core/libmesh_core_nrf51422_xxAC.a(nrf_mesh_utils.c.obj)
 .data          0x00000000        0x0 mesh/core/libmesh_core_nrf51422_xxAC.a(nrf_mesh_utils.c.obj)
 .bss           0x00000000        0x0 mesh/core/libmesh_core_nrf51422_xxAC.a(nrf_mesh_utils.c.obj)
 .text.nrf_mesh_rand_get
                0x00000000       0x14 mesh/core/libmesh_core_nrf51422_xxAC.a(nrf_mesh_utils.c.obj)
 .text.nrf_mesh_gap_address_type_get
                0x00000000       0x40 mesh/core/libmesh_core_nrf51422_xxAC.a(nrf_mesh_utils.c.obj)
 .text          0x00000000        0x0 mesh/core/libmesh_core_nrf51422_xxAC.a(nrf_mesh.c.obj)
 .data          0x00000000        0x0 mesh/core/libmesh_core_nrf51422_xxAC.a(nrf_mesh.c.obj)
 .bss           0x00000000        0x0 mesh/core/libmesh_core_nrf51422_xxAC.a(nrf_mesh.c.obj)
 .text.nrf_mesh_process
                0x00000000        0x8 mesh/core/libmesh_core_nrf51422_xxAC.a(nrf_mesh.c.obj)
 .text.nrf_mesh_evt_handler_remove
                0x00000000        0x8 mesh/core/libmesh_core_nrf51422_xxAC.a(nrf_mesh.c.obj)
 .text.nrf_mesh_rx_cb_set
                0x00000000        0xc mesh/core/libmesh_core_nrf51422_xxAC.a(nrf_mesh.c.obj)
 .text.nrf_mesh_rx_cb_clear
                0x00000000        0xc mesh/core/libmesh_core_nrf51422_xxAC.a(nrf_mesh.c.obj)
 .text          0x00000000        0x0 mesh/core/libmesh_core_nrf51422_xxAC.a(hal.c.obj)
 .data          0x00000000        0x0 mesh/core/libmesh_core_nrf51422_xxAC.a(hal.c.obj)
 .bss           0x00000000        0x0 mesh/core/libmesh_core_nrf51422_xxAC.a(hal.c.obj)
 .text          0x00000000        0x0 mesh/core/libmesh_core_nrf51422_xxAC.a(timer_scheduler.c.obj)
 .data          0x00000000        0x0 mesh/core/libmesh_core_nrf51422_xxAC.a(timer_scheduler.c.obj)
 .bss           0x00000000        0x0 mesh/core/libmesh_core_nrf51422_xxAC.a(timer_scheduler.c.obj)
 .text          0x00000000        0x0 mesh/core/libmesh_core_nrf51422_xxAC.a(timer.c.obj)
 .data          0x00000000        0x0 mesh/core/libmesh_core_nrf51422_xxAC.a(timer.c.obj)
 .bss           0x00000000        0x0 mesh/core/libmesh_core_nrf51422_xxAC.a(timer.c.obj)
 .text.timer_order_cb_ppi
                0x00000000       0xc8 mesh/core/libmesh_core_nrf51422_xxAC.a(timer.c.obj)
 .text.timer_order_ppi
                0x00000000       0xc4 mesh/core/libmesh_core_nrf51422_xxAC.a(timer.c.obj)
 .text.timer_abort
                0x00000000       0x7c mesh/core/libmesh_core_nrf51422_xxAC.a(timer.c.obj)
 .text          0x00000000        0x0 mesh/core/libmesh_core_nrf51422_xxAC.a(ticker.c.obj)
 .data          0x00000000        0x0 mesh/core/libmesh_core_nrf51422_xxAC.a(ticker.c.obj)
 .bss           0x00000000        0x0 mesh/core/libmesh_core_nrf51422_xxAC.a(ticker.c.obj)
 .text.ticker_get
                0x00000000        0xc mesh/core/libmesh_core_nrf51422_xxAC.a(ticker.c.obj)
 .text          0x00000000        0x0 mesh/core/libmesh_core_nrf51422_xxAC.a(rand.c.obj)
 .data          0x00000000        0x0 mesh/core/libmesh_core_nrf51422_xxAC.a(rand.c.obj)
 .bss           0x00000000        0x0 mesh/core/libmesh_core_nrf51422_xxAC.a(rand.c.obj)
 .text          0x00000000        0x0 mesh/core/libmesh_core_nrf51422_xxAC.a(timeslot.c.obj)
 .data          0x00000000        0x0 mesh/core/libmesh_core_nrf51422_xxAC.a(timeslot.c.obj)
 .bss           0x00000000        0x0 mesh/core/libmesh_core_nrf51422_xxAC.a(timeslot.c.obj)
 .text.timeslot_end_time_get
                0x00000000       0x18 mesh/core/libmesh_core_nrf51422_xxAC.a(timeslot.c.obj)
 .text.timeslot_is_in_ts
                0x00000000        0xc mesh/core/libmesh_core_nrf51422_xxAC.a(timeslot.c.obj)
 .text.timeslot_restart
                0x00000000       0x14 mesh/core/libmesh_core_nrf51422_xxAC.a(timeslot.c.obj)
 .text          0x00000000        0x0 mesh/core/libmesh_core_nrf51422_xxAC.a(bearer_event.c.obj)
 .data          0x00000000        0x0 mesh/core/libmesh_core_nrf51422_xxAC.a(bearer_event.c.obj)
 .bss           0x00000000        0x0 mesh/core/libmesh_core_nrf51422_xxAC.a(bearer_event.c.obj)
 .text.bearer_event_timer_sch_post
                0x00000000       0x38 mesh/core/libmesh_core_nrf51422_xxAC.a(bearer_event.c.obj)
 .text.bearer_event_in_correct_irq_priority
                0x00000000       0x60 mesh/core/libmesh_core_nrf51422_xxAC.a(bearer_event.c.obj)
 .text          0x00000000        0x0 mesh/core/libmesh_core_nrf51422_xxAC.a(enc.c.obj)
 .data          0x00000000        0x0 mesh/core/libmesh_core_nrf51422_xxAC.a(enc.c.obj)
 .bss           0x00000000        0x0 mesh/core/libmesh_core_nrf51422_xxAC.a(enc.c.obj)
 .text.enc_key_generate
                0x00000000        0xa mesh/core/libmesh_core_nrf51422_xxAC.a(enc.c.obj)
 .text          0x00000000        0x0 mesh/core/libmesh_core_nrf51422_xxAC.a(network.c.obj)
 .data          0x00000000        0x0 mesh/core/libmesh_core_nrf51422_xxAC.a(network.c.obj)
 .bss           0x00000000        0x0 mesh/core/libmesh_core_nrf51422_xxAC.a(network.c.obj)
 .text.network_opt_set
                0x00000000       0x68 mesh/core/libmesh_core_nrf51422_xxAC.a(network.c.obj)
 .text.network_packet_discard
                0x00000000       0x40 mesh/core/libmesh_core_nrf51422_xxAC.a(network.c.obj)
 .text          0x00000000        0x0 mesh/core/libmesh_core_nrf51422_xxAC.a(msqueue.c.obj)
 .data          0x00000000        0x0 mesh/core/libmesh_core_nrf51422_xxAC.a(msqueue.c.obj)
 .bss           0x00000000        0x0 mesh/core/libmesh_core_nrf51422_xxAC.a(msqueue.c.obj)
 .text          0x00000000        0x0 mesh/core/libmesh_core_nrf51422_xxAC.a(nrf_mesh_keygen.c.obj)
 .data          0x00000000        0x0 mesh/core/libmesh_core_nrf51422_xxAC.a(nrf_mesh_keygen.c.obj)
 .bss           0x00000000        0x0 mesh/core/libmesh_core_nrf51422_xxAC.a(nrf_mesh_keygen.c.obj)
 .text.nrf_mesh_keygen_identitykey
                0x00000000       0x4c mesh/core/libmesh_core_nrf51422_xxAC.a(nrf_mesh_keygen.c.obj)
 .text          0x00000000        0x0 mesh/core/libmesh_core_nrf51422_xxAC.a(list.c.obj)
 .data          0x00000000        0x0 mesh/core/libmesh_core_nrf51422_xxAC.a(list.c.obj)
 .bss           0x00000000        0x0 mesh/core/libmesh_core_nrf51422_xxAC.a(list.c.obj)
 .text.list_size_get
                0x00000000       0x12 mesh/core/libmesh_core_nrf51422_xxAC.a(list.c.obj)
 .text.list_sorted_add
                0x00000000       0x94 mesh/core/libmesh_core_nrf51422_xxAC.a(list.c.obj)
 .text          0x00000000        0x0 mesh/core/libmesh_core_nrf51422_xxAC.a(log.c.obj)
 .data          0x00000000        0x0 mesh/core/libmesh_core_nrf51422_xxAC.a(log.c.obj)
 .bss           0x00000000        0x0 mesh/core/libmesh_core_nrf51422_xxAC.a(log.c.obj)
 .text.log_callback_logview
                0x00000000       0x34 mesh/core/libmesh_core_nrf51422_xxAC.a(log.c.obj)
 .text.log_set_callback
                0x00000000        0xc mesh/core/libmesh_core_nrf51422_xxAC.a(log.c.obj)
 .rodata.log_callback_logview.str1.1
                0x00000000        0xf mesh/core/libmesh_core_nrf51422_xxAC.a(log.c.obj)
 .text          0x00000000        0x0 mesh/core/libmesh_core_nrf51422_xxAC.a(flash_manager.c.obj)
 .data          0x00000000        0x0 mesh/core/libmesh_core_nrf51422_xxAC.a(flash_manager.c.obj)
 .bss           0x00000000        0x0 mesh/core/libmesh_core_nrf51422_xxAC.a(flash_manager.c.obj)
 .text.flash_manager_entry_get
                0x00000000       0x4c mesh/core/libmesh_core_nrf51422_xxAC.a(flash_manager.c.obj)
 .text.flash_manager_entry_count_get
                0x00000000       0x5c mesh/core/libmesh_core_nrf51422_xxAC.a(flash_manager.c.obj)
 .text.flash_manager_entry_release
                0x00000000       0x10 mesh/core/libmesh_core_nrf51422_xxAC.a(flash_manager.c.obj)
 .text.flash_manager_action_queue_empty_cb_set
                0x00000000       0x2c mesh/core/libmesh_core_nrf51422_xxAC.a(flash_manager.c.obj)
 .text          0x00000000        0x0 mesh/core/libmesh_core_nrf51422_xxAC.a(ccm_soft.c.obj)
 .data          0x00000000        0x0 mesh/core/libmesh_core_nrf51422_xxAC.a(ccm_soft.c.obj)
 .bss           0x00000000        0x0 mesh/core/libmesh_core_nrf51422_xxAC.a(ccm_soft.c.obj)
 .text          0x00000000        0x0 mesh/core/libmesh_core_nrf51422_xxAC.a(beacon.c.obj)
 .data          0x00000000        0x0 mesh/core/libmesh_core_nrf51422_xxAC.a(beacon.c.obj)
 .bss           0x00000000        0x0 mesh/core/libmesh_core_nrf51422_xxAC.a(beacon.c.obj)
 .text          0x00000000        0x0 mesh/core/libmesh_core_nrf51422_xxAC.a(flash_manager_internal.c.obj)
 .data          0x00000000        0x0 mesh/core/libmesh_core_nrf51422_xxAC.a(flash_manager_internal.c.obj)
 .bss           0x00000000        0x0 mesh/core/libmesh_core_nrf51422_xxAC.a(flash_manager_internal.c.obj)
 .text          0x00000000        0x0 mesh/core/libmesh_core_nrf51422_xxAC.a(core_tx.c.obj)
 .data          0x00000000        0x0 mesh/core/libmesh_core_nrf51422_xxAC.a(core_tx.c.obj)
 .bss           0x00000000        0x0 mesh/core/libmesh_core_nrf51422_xxAC.a(core_tx.c.obj)
 .text          0x00000000        0x0 mesh/core/libmesh_core_nrf51422_xxAC.a(heartbeat.c.obj)
 .data          0x00000000        0x0 mesh/core/libmesh_core_nrf51422_xxAC.a(heartbeat.c.obj)
 .bss           0x00000000        0x0 mesh/core/libmesh_core_nrf51422_xxAC.a(heartbeat.c.obj)
 .text.heartbeat_on_feature_change_trigger
                0x00000000       0x58 mesh/core/libmesh_core_nrf51422_xxAC.a(heartbeat.c.obj)
 .text.heartbeat_subscription_set
                0x00000000       0x98 mesh/core/libmesh_core_nrf51422_xxAC.a(heartbeat.c.obj)
 .text.heartbeat_subscription_get
                0x00000000        0x8 mesh/core/libmesh_core_nrf51422_xxAC.a(heartbeat.c.obj)
 .text.heartbeat_config_server_cb_set
                0x00000000       0x44 mesh/core/libmesh_core_nrf51422_xxAC.a(heartbeat.c.obj)
 .text.heartbeat_publication_state_updated
                0x00000000       0x88 mesh/core/libmesh_core_nrf51422_xxAC.a(heartbeat.c.obj)
 .text          0x00000000        0x0 mesh/core/libmesh_core_nrf51422_xxAC.a(net_beacon.c.obj)
 .data          0x00000000        0x0 mesh/core/libmesh_core_nrf51422_xxAC.a(net_beacon.c.obj)
 .bss           0x00000000        0x0 mesh/core/libmesh_core_nrf51422_xxAC.a(net_beacon.c.obj)
 .text.net_beacon_state_set
                0x00000000       0x38 mesh/core/libmesh_core_nrf51422_xxAC.a(net_beacon.c.obj)
 .text.net_beacon_state_get
                0x00000000        0xc mesh/core/libmesh_core_nrf51422_xxAC.a(net_beacon.c.obj)
 .text          0x00000000        0x0 mesh/core/libmesh_core_nrf51422_xxAC.a(core_tx_adv.c.obj)
 .data          0x00000000        0x0 mesh/core/libmesh_core_nrf51422_xxAC.a(core_tx_adv.c.obj)
 .bss           0x00000000        0x0 mesh/core/libmesh_core_nrf51422_xxAC.a(core_tx_adv.c.obj)
 .text.core_tx_adv_count_set
                0x00000000       0x40 mesh/core/libmesh_core_nrf51422_xxAC.a(core_tx_adv.c.obj)
 .text.core_tx_adv_interval_set
                0x00000000       0x34 mesh/core/libmesh_core_nrf51422_xxAC.a(core_tx_adv.c.obj)
 .text.core_tx_adv_address_set
                0x00000000       0x34 mesh/core/libmesh_core_nrf51422_xxAC.a(core_tx_adv.c.obj)
 .text          0x00000000        0x0 mesh/core/libmesh_core_nrf51422_xxAC.a(ad_listener.c.obj)
 .data          0x00000000        0x0 mesh/core/libmesh_core_nrf51422_xxAC.a(ad_listener.c.obj)
 .bss           0x00000000        0x0 mesh/core/libmesh_core_nrf51422_xxAC.a(ad_listener.c.obj)
 .text.ad_listener_unsubscribe
                0x00000000       0x7c mesh/core/libmesh_core_nrf51422_xxAC.a(ad_listener.c.obj)
 .text          0x00000000        0x0 mesh/core/libmesh_core_nrf51422_xxAC.a(ad_type_filter.c.obj)
 .data          0x00000000        0x0 mesh/core/libmesh_core_nrf51422_xxAC.a(ad_type_filter.c.obj)
 .bss           0x00000000        0x0 mesh/core/libmesh_core_nrf51422_xxAC.a(ad_type_filter.c.obj)
 .text.bearer_adtype_remove
                0x00000000       0x20 mesh/core/libmesh_core_nrf51422_xxAC.a(ad_type_filter.c.obj)
 .text.bearer_adtype_clear
                0x00000000       0x14 mesh/core/libmesh_core_nrf51422_xxAC.a(ad_type_filter.c.obj)
 .text.bearer_invalid_length_amount_get
                0x00000000        0xc mesh/core/libmesh_core_nrf51422_xxAC.a(ad_type_filter.c.obj)
 .text.bearer_adtype_filtered_amount_get
                0x00000000        0xc mesh/core/libmesh_core_nrf51422_xxAC.a(ad_type_filter.c.obj)
 .text          0x00000000        0x0 mesh/core/libmesh_core_nrf51422_xxAC.a(advertiser.c.obj)
 .data          0x00000000        0x0 mesh/core/libmesh_core_nrf51422_xxAC.a(advertiser.c.obj)
 .bss           0x00000000        0x0 mesh/core/libmesh_core_nrf51422_xxAC.a(advertiser.c.obj)
 .text.advertiser_address_set
                0x00000000       0x58 mesh/core/libmesh_core_nrf51422_xxAC.a(advertiser.c.obj)
 .text.advertiser_config_set
                0x00000000       0x48 mesh/core/libmesh_core_nrf51422_xxAC.a(advertiser.c.obj)
 .text.advertiser_config_get
                0x00000000       0x30 mesh/core/libmesh_core_nrf51422_xxAC.a(advertiser.c.obj)
 .text          0x00000000        0x0 mesh/core/libmesh_core_nrf51422_xxAC.a(bearer_handler.c.obj)
 .data          0x00000000        0x0 mesh/core/libmesh_core_nrf51422_xxAC.a(bearer_handler.c.obj)
 .bss           0x00000000        0x0 mesh/core/libmesh_core_nrf51422_xxAC.a(bearer_handler.c.obj)
 .text.bearer_handler_action_fire
                0x00000000       0xcc mesh/core/libmesh_core_nrf51422_xxAC.a(bearer_handler.c.obj)
 .text          0x00000000        0x0 mesh/core/libmesh_core_nrf51422_xxAC.a(broadcast.c.obj)
 .data          0x00000000        0x0 mesh/core/libmesh_core_nrf51422_xxAC.a(broadcast.c.obj)
 .bss           0x00000000        0x0 mesh/core/libmesh_core_nrf51422_xxAC.a(broadcast.c.obj)
 .text          0x00000000        0x0 mesh/core/libmesh_core_nrf51422_xxAC.a(filter_engine.c.obj)
 .data          0x00000000        0x0 mesh/core/libmesh_core_nrf51422_xxAC.a(filter_engine.c.obj)
 .bss           0x00000000        0x0 mesh/core/libmesh_core_nrf51422_xxAC.a(filter_engine.c.obj)
 .text.fen_accepted_amount_get
                0x00000000        0xc mesh/core/libmesh_core_nrf51422_xxAC.a(filter_engine.c.obj)
 .text          0x00000000        0x0 mesh/core/libmesh_core_nrf51422_xxAC.a(radio_config.c.obj)
 .data          0x00000000        0x0 mesh/core/libmesh_core_nrf51422_xxAC.a(radio_config.c.obj)
 .bss           0x00000000        0x0 mesh/core/libmesh_core_nrf51422_xxAC.a(radio_config.c.obj)
 .text.radio_config_access_addr_get
                0x00000000       0x78 mesh/core/libmesh_core_nrf51422_xxAC.a(radio_config.c.obj)
 .text          0x00000000        0x0 mesh/core/libmesh_core_nrf51422_xxAC.a(scanner.c.obj)
 .data          0x00000000        0x0 mesh/core/libmesh_core_nrf51422_xxAC.a(scanner.c.obj)
 .bss           0x00000000        0x0 mesh/core/libmesh_core_nrf51422_xxAC.a(scanner.c.obj)
 .text.scanner_rx_callback_set
                0x00000000       0x30 mesh/core/libmesh_core_nrf51422_xxAC.a(scanner.c.obj)
 .text.scanner_is_enabled
                0x00000000       0x14 mesh/core/libmesh_core_nrf51422_xxAC.a(scanner.c.obj)
 .text.scanner_stats_get
                0x00000000        0xc mesh/core/libmesh_core_nrf51422_xxAC.a(scanner.c.obj)
 .text.scanner_config_radio_mode_set
                0x00000000       0x10 mesh/core/libmesh_core_nrf51422_xxAC.a(scanner.c.obj)
 .text          0x00000000        0x0 mesh/core/libmesh_core_nrf51422_xxAC.a(aes.c.obj)
 .data          0x00000000        0x0 mesh/core/libmesh_core_nrf51422_xxAC.a(aes.c.obj)
 .bss           0x00000000        0x0 mesh/core/libmesh_core_nrf51422_xxAC.a(aes.c.obj)
 .text          0x00000000        0x0 mesh/core/libmesh_core_nrf51422_xxAC.a(msg_cache.c.obj)
 .data          0x00000000        0x0 mesh/core/libmesh_core_nrf51422_xxAC.a(msg_cache.c.obj)
 .bss           0x00000000        0x0 mesh/core/libmesh_core_nrf51422_xxAC.a(msg_cache.c.obj)
 .text.msg_cache_clear
                0x00000000       0x18 mesh/core/libmesh_core_nrf51422_xxAC.a(msg_cache.c.obj)
 .text          0x00000000        0x0 mesh/core/libmesh_core_nrf51422_xxAC.a(transport.c.obj)
 .data          0x00000000        0x0 mesh/core/libmesh_core_nrf51422_xxAC.a(transport.c.obj)
 .bss           0x00000000        0x0 mesh/core/libmesh_core_nrf51422_xxAC.a(transport.c.obj)
 .text.transport_sar_mem_funcs_set
                0x00000000       0x3c mesh/core/libmesh_core_nrf51422_xxAC.a(transport.c.obj)
 .text.transport_opt_set
                0x00000000       0xcc mesh/core/libmesh_core_nrf51422_xxAC.a(transport.c.obj)
 .text          0x00000000        0x0 mesh/core/libmesh_core_nrf51422_xxAC.a(flash_manager_defrag.c.obj)
 .data          0x00000000        0x0 mesh/core/libmesh_core_nrf51422_xxAC.a(flash_manager_defrag.c.obj)
 .bss           0x00000000        0x0 mesh/core/libmesh_core_nrf51422_xxAC.a(flash_manager_defrag.c.obj)
 .text.flash_manager_defragging
                0x00000000       0x44 mesh/core/libmesh_core_nrf51422_xxAC.a(flash_manager_defrag.c.obj)
 .text          0x00000000        0x0 mesh/core/libmesh_core_nrf51422_xxAC.a(nrf_flash.c.obj)
 .data          0x00000000        0x0 mesh/core/libmesh_core_nrf51422_xxAC.a(nrf_flash.c.obj)
 .bss           0x00000000        0x0 mesh/core/libmesh_core_nrf51422_xxAC.a(nrf_flash.c.obj)
 .text          0x00000000        0x0 mesh/core/libmesh_core_nrf51422_xxAC.a(packet_mgr.c.obj)
 .data          0x00000000        0x0 mesh/core/libmesh_core_nrf51422_xxAC.a(packet_mgr.c.obj)
 .bss           0x00000000        0x0 mesh/core/libmesh_core_nrf51422_xxAC.a(packet_mgr.c.obj)
 .text.packet_mgr_alloc
                0x00000000      0x18c mesh/core/libmesh_core_nrf51422_xxAC.a(packet_mgr.c.obj)
 .text.packet_mgr_free
                0x00000000       0x6c mesh/core/libmesh_core_nrf51422_xxAC.a(packet_mgr.c.obj)
 .text.packet_mgr_get_free_space
                0x00000000       0x1c mesh/core/libmesh_core_nrf51422_xxAC.a(packet_mgr.c.obj)
 .text.packet_mgr_refcount_get
                0x00000000        0x6 mesh/core/libmesh_core_nrf51422_xxAC.a(packet_mgr.c.obj)
 .text.packet_mgr_size_get
                0x00000000        0x6 mesh/core/libmesh_core_nrf51422_xxAC.a(packet_mgr.c.obj)
 .text          0x00000000        0x0 mesh/core/libmesh_core_nrf51422_xxAC.a(queue.c.obj)
 .data          0x00000000        0x0 mesh/core/libmesh_core_nrf51422_xxAC.a(queue.c.obj)
 .bss           0x00000000        0x0 mesh/core/libmesh_core_nrf51422_xxAC.a(queue.c.obj)
 .text          0x00000000        0x0 mesh/core/libmesh_core_nrf51422_xxAC.a(aes_cmac.c.obj)
 .data          0x00000000        0x0 mesh/core/libmesh_core_nrf51422_xxAC.a(aes_cmac.c.obj)
 .bss           0x00000000        0x0 mesh/core/libmesh_core_nrf51422_xxAC.a(aes_cmac.c.obj)
 .text          0x00000000        0x0 mesh/core/libmesh_core_nrf51422_xxAC.a(nrf_mesh_opt.c.obj)
 .data          0x00000000        0x0 mesh/core/libmesh_core_nrf51422_xxAC.a(nrf_mesh_opt.c.obj)
 .bss           0x00000000        0x0 mesh/core/libmesh_core_nrf51422_xxAC.a(nrf_mesh_opt.c.obj)
 .text.nrf_mesh_opt_set
                0x00000000       0x34 mesh/core/libmesh_core_nrf51422_xxAC.a(nrf_mesh_opt.c.obj)
 .text          0x00000000        0x0 mesh/core/libmesh_core_nrf51422_xxAC.a(replay_cache.c.obj)
 .data          0x00000000        0x0 mesh/core/libmesh_core_nrf51422_xxAC.a(replay_cache.c.obj)
 .bss           0x00000000        0x0 mesh/core/libmesh_core_nrf51422_xxAC.a(replay_cache.c.obj)
 .text.replay_cache_on_iv_update
                0x00000000       0x28 mesh/core/libmesh_core_nrf51422_xxAC.a(replay_cache.c.obj)
 .text          0x00000000        0x0 external/rtt/librtt_nrf51422_xxAC.a(SEGGER_RTT.c.obj)
 .data          0x00000000        0x0 external/rtt/librtt_nrf51422_xxAC.a(SEGGER_RTT.c.obj)
 .bss           0x00000000        0x0 external/rtt/librtt_nrf51422_xxAC.a(SEGGER_RTT.c.obj)
 .text._PostTerminalSwitch.constprop.0
                0x00000000       0x20 external/rtt/librtt_nrf51422_xxAC.a(SEGGER_RTT.c.obj)
 .text.SEGGER_RTT_ReadNoLock
                0x00000000       0xa4 external/rtt/librtt_nrf51422_xxAC.a(SEGGER_RTT.c.obj)
 .text.SEGGER_RTT_Read
                0x00000000       0x1a external/rtt/librtt_nrf51422_xxAC.a(SEGGER_RTT.c.obj)
 .text.SEGGER_RTT_WriteSkipNoLock
                0x00000000       0xb0 external/rtt/librtt_nrf51422_xxAC.a(SEGGER_RTT.c.obj)
 .text.SEGGER_RTT_WriteString
                0x00000000       0x18 external/rtt/librtt_nrf51422_xxAC.a(SEGGER_RTT.c.obj)
 .text.SEGGER_RTT_GetKey
                0x00000000       0x1e external/rtt/librtt_nrf51422_xxAC.a(SEGGER_RTT.c.obj)
 .text.SEGGER_RTT_WaitKey
                0x00000000        0xc external/rtt/librtt_nrf51422_xxAC.a(SEGGER_RTT.c.obj)
 .text.SEGGER_RTT_HasKey
                0x00000000       0x20 external/rtt/librtt_nrf51422_xxAC.a(SEGGER_RTT.c.obj)
 .text.SEGGER_RTT_HasData
                0x00000000       0x14 external/rtt/librtt_nrf51422_xxAC.a(SEGGER_RTT.c.obj)
 .text.SEGGER_RTT_AllocDownBuffer
                0x00000000       0x64 external/rtt/librtt_nrf51422_xxAC.a(SEGGER_RTT.c.obj)
 .text.SEGGER_RTT_AllocUpBuffer
                0x00000000       0x68 external/rtt/librtt_nrf51422_xxAC.a(SEGGER_RTT.c.obj)
 .text.SEGGER_RTT_ConfigUpBuffer
                0x00000000       0x60 external/rtt/librtt_nrf51422_xxAC.a(SEGGER_RTT.c.obj)
 .text.SEGGER_RTT_ConfigDownBuffer
                0x00000000       0x5c external/rtt/librtt_nrf51422_xxAC.a(SEGGER_RTT.c.obj)
 .text.SEGGER_RTT_SetNameUpBuffer
                0x00000000       0x3c external/rtt/librtt_nrf51422_xxAC.a(SEGGER_RTT.c.obj)
 .text.SEGGER_RTT_SetNameDownBuffer
                0x00000000       0x3c external/rtt/librtt_nrf51422_xxAC.a(SEGGER_RTT.c.obj)
 .text.SEGGER_RTT_Init
                0x00000000       0x14 external/rtt/librtt_nrf51422_xxAC.a(SEGGER_RTT.c.obj)
 .text.SEGGER_RTT_SetTerminal
                0x00000000       0x80 external/rtt/librtt_nrf51422_xxAC.a(SEGGER_RTT.c.obj)
 .text.SEGGER_RTT_TerminalOut
                0x00000000       0xa0 external/rtt/librtt_nrf51422_xxAC.a(SEGGER_RTT.c.obj)
 .bss._ActiveTerminal
                0x00000000        0x1 external/rtt/librtt_nrf51422_xxAC.a(SEGGER_RTT.c.obj)
 .rodata._aTerminalId
                0x00000000       0x10 external/rtt/librtt_nrf51422_xxAC.a(SEGGER_RTT.c.obj)
 .text          0x00000000        0x0 external/rtt/librtt_nrf51422_xxAC.a(SEGGER_RTT_printf.c.obj)
 .data          0x00000000        0x0 external/rtt/librtt_nrf51422_xxAC.a(SEGGER_RTT_printf.c.obj)
 .bss           0x00000000        0x0 external/rtt/librtt_nrf51422_xxAC.a(SEGGER_RTT_printf.c.obj)
 .text          0x00000000        0x0 external/micro-ecc/libuECC_nrf51422_xxAC.a(uECC.c.obj)
 .data          0x00000000        0x0 external/micro-ecc/libuECC_nrf51422_xxAC.a(uECC.c.obj)
 .bss           0x00000000        0x0 external/micro-ecc/libuECC_nrf51422_xxAC.a(uECC.c.obj)
 .text.uECC_vli_modMult
                0x00000000      0x128 external/micro-ecc/libuECC_nrf51422_xxAC.a(uECC.c.obj)
 .text.HMAC_init
                0x00000000       0x40 external/micro-ecc/libuECC_nrf51422_xxAC.a(uECC.c.obj)
 .text.HMAC_update
                0x00000000        0x8 external/micro-ecc/libuECC_nrf51422_xxAC.a(uECC.c.obj)
 .text.HMAC_finish
                0x00000000       0x5c external/micro-ecc/libuECC_nrf51422_xxAC.a(uECC.c.obj)
 .text.update_V
                0x00000000       0x22 external/micro-ecc/libuECC_nrf51422_xxAC.a(uECC.c.obj)
 .text.bits2int
                0x00000000       0x8c external/micro-ecc/libuECC_nrf51422_xxAC.a(uECC.c.obj)
 .text.uECC_sign_with_k
                0x00000000      0x184 external/micro-ecc/libuECC_nrf51422_xxAC.a(uECC.c.obj)
 .text.uECC_set_rng
                0x00000000        0xc external/micro-ecc/libuECC_nrf51422_xxAC.a(uECC.c.obj)
 .text.uECC_get_rng
                0x00000000        0xc external/micro-ecc/libuECC_nrf51422_xxAC.a(uECC.c.obj)
 .text.uECC_curve_private_key_size
                0x00000000       0x12 external/micro-ecc/libuECC_nrf51422_xxAC.a(uECC.c.obj)
 .text.uECC_curve_public_key_size
                0x00000000        0x8 external/micro-ecc/libuECC_nrf51422_xxAC.a(uECC.c.obj)
 .text.uECC_compute_public_key
                0x00000000       0x88 external/micro-ecc/libuECC_nrf51422_xxAC.a(uECC.c.obj)
 .text.uECC_sign
                0x00000000       0x5a external/micro-ecc/libuECC_nrf51422_xxAC.a(uECC.c.obj)
 .text.uECC_sign_deterministic
                0x00000000      0x19c external/micro-ecc/libuECC_nrf51422_xxAC.a(uECC.c.obj)
 .text.uECC_verify
                0x00000000      0x2e4 external/micro-ecc/libuECC_nrf51422_xxAC.a(uECC.c.obj)
 .data          0x00000000        0x0 c:/a/gcc_arm/6/bin/../lib/gcc/arm-none-eabi/6.3.1/thumb/v6-m\libgcc.a(_thumb1_case_uqi.o)
 .bss           0x00000000        0x0 c:/a/gcc_arm/6/bin/../lib/gcc/arm-none-eabi/6.3.1/thumb/v6-m\libgcc.a(_thumb1_case_uqi.o)
 .data          0x00000000        0x0 c:/a/gcc_arm/6/bin/../lib/gcc/arm-none-eabi/6.3.1/thumb/v6-m\libgcc.a(_thumb1_case_shi.o)
 .bss           0x00000000        0x0 c:/a/gcc_arm/6/bin/../lib/gcc/arm-none-eabi/6.3.1/thumb/v6-m\libgcc.a(_thumb1_case_shi.o)
 .data          0x00000000        0x0 c:/a/gcc_arm/6/bin/../lib/gcc/arm-none-eabi/6.3.1/thumb/v6-m\libgcc.a(_thumb1_case_uhi.o)
 .bss           0x00000000        0x0 c:/a/gcc_arm/6/bin/../lib/gcc/arm-none-eabi/6.3.1/thumb/v6-m\libgcc.a(_thumb1_case_uhi.o)
 .data          0x00000000        0x0 c:/a/gcc_arm/6/bin/../lib/gcc/arm-none-eabi/6.3.1/thumb/v6-m\libgcc.a(_udivsi3.o)
 .bss           0x00000000        0x0 c:/a/gcc_arm/6/bin/../lib/gcc/arm-none-eabi/6.3.1/thumb/v6-m\libgcc.a(_udivsi3.o)
 .data          0x00000000        0x0 c:/a/gcc_arm/6/bin/../lib/gcc/arm-none-eabi/6.3.1/thumb/v6-m\libgcc.a(_divsi3.o)
 .bss           0x00000000        0x0 c:/a/gcc_arm/6/bin/../lib/gcc/arm-none-eabi/6.3.1/thumb/v6-m\libgcc.a(_divsi3.o)
 .data          0x00000000        0x0 c:/a/gcc_arm/6/bin/../lib/gcc/arm-none-eabi/6.3.1/thumb/v6-m\libgcc.a(_dvmd_tls.o)
 .bss           0x00000000        0x0 c:/a/gcc_arm/6/bin/../lib/gcc/arm-none-eabi/6.3.1/thumb/v6-m\libgcc.a(_dvmd_tls.o)
 .data          0x00000000        0x0 c:/a/gcc_arm/6/bin/../lib/gcc/arm-none-eabi/6.3.1/thumb/v6-m\libgcc.a(_muldi3.o)
 .bss           0x00000000        0x0 c:/a/gcc_arm/6/bin/../lib/gcc/arm-none-eabi/6.3.1/thumb/v6-m\libgcc.a(_muldi3.o)
 .text          0x00000000        0x0 c:/a/gcc_arm/6/bin/../lib/gcc/arm-none-eabi/6.3.1/../../../../arm-none-eabi/lib/thumb/v6-m\libg_nano.a(lib_a-exit.o)
 .data          0x00000000        0x0 c:/a/gcc_arm/6/bin/../lib/gcc/arm-none-eabi/6.3.1/../../../../arm-none-eabi/lib/thumb/v6-m\libg_nano.a(lib_a-exit.o)
 .bss           0x00000000        0x0 c:/a/gcc_arm/6/bin/../lib/gcc/arm-none-eabi/6.3.1/../../../../arm-none-eabi/lib/thumb/v6-m\libg_nano.a(lib_a-exit.o)
 .text          0x00000000        0x0 c:/a/gcc_arm/6/bin/../lib/gcc/arm-none-eabi/6.3.1/../../../../arm-none-eabi/lib/thumb/v6-m\libg_nano.a(lib_a-impure.o)
 .data          0x00000000        0x0 c:/a/gcc_arm/6/bin/../lib/gcc/arm-none-eabi/6.3.1/../../../../arm-none-eabi/lib/thumb/v6-m\libg_nano.a(lib_a-impure.o)
 .bss           0x00000000        0x0 c:/a/gcc_arm/6/bin/../lib/gcc/arm-none-eabi/6.3.1/../../../../arm-none-eabi/lib/thumb/v6-m\libg_nano.a(lib_a-impure.o)
 .text          0x00000000        0x0 c:/a/gcc_arm/6/bin/../lib/gcc/arm-none-eabi/6.3.1/../../../../arm-none-eabi/lib/thumb/v6-m\libg_nano.a(lib_a-init.o)
 .data          0x00000000        0x0 c:/a/gcc_arm/6/bin/../lib/gcc/arm-none-eabi/6.3.1/../../../../arm-none-eabi/lib/thumb/v6-m\libg_nano.a(lib_a-init.o)
 .bss           0x00000000        0x0 c:/a/gcc_arm/6/bin/../lib/gcc/arm-none-eabi/6.3.1/../../../../arm-none-eabi/lib/thumb/v6-m\libg_nano.a(lib_a-init.o)
 .text          0x00000000        0x0 c:/a/gcc_arm/6/bin/../lib/gcc/arm-none-eabi/6.3.1/../../../../arm-none-eabi/lib/thumb/v6-m\libg_nano.a(lib_a-malloc.o)
 .data          0x00000000        0x0 c:/a/gcc_arm/6/bin/../lib/gcc/arm-none-eabi/6.3.1/../../../../arm-none-eabi/lib/thumb/v6-m\libg_nano.a(lib_a-malloc.o)
 .bss           0x00000000        0x0 c:/a/gcc_arm/6/bin/../lib/gcc/arm-none-eabi/6.3.1/../../../../arm-none-eabi/lib/thumb/v6-m\libg_nano.a(lib_a-malloc.o)
 .text          0x00000000        0x0 c:/a/gcc_arm/6/bin/../lib/gcc/arm-none-eabi/6.3.1/../../../../arm-none-eabi/lib/thumb/v6-m\libg_nano.a(lib_a-memcmp.o)
 .data          0x00000000        0x0 c:/a/gcc_arm/6/bin/../lib/gcc/arm-none-eabi/6.3.1/../../../../arm-none-eabi/lib/thumb/v6-m\libg_nano.a(lib_a-memcmp.o)
 .bss           0x00000000        0x0 c:/a/gcc_arm/6/bin/../lib/gcc/arm-none-eabi/6.3.1/../../../../arm-none-eabi/lib/thumb/v6-m\libg_nano.a(lib_a-memcmp.o)
 .text          0x00000000        0x0 c:/a/gcc_arm/6/bin/../lib/gcc/arm-none-eabi/6.3.1/../../../../arm-none-eabi/lib/thumb/v6-m\libg_nano.a(lib_a-memcpy-stub.o)
 .data          0x00000000        0x0 c:/a/gcc_arm/6/bin/../lib/gcc/arm-none-eabi/6.3.1/../../../../arm-none-eabi/lib/thumb/v6-m\libg_nano.a(lib_a-memcpy-stub.o)
 .bss           0x00000000        0x0 c:/a/gcc_arm/6/bin/../lib/gcc/arm-none-eabi/6.3.1/../../../../arm-none-eabi/lib/thumb/v6-m\libg_nano.a(lib_a-memcpy-stub.o)
 .text          0x00000000        0x0 c:/a/gcc_arm/6/bin/../lib/gcc/arm-none-eabi/6.3.1/../../../../arm-none-eabi/lib/thumb/v6-m\libg_nano.a(lib_a-memset.o)
 .data          0x00000000        0x0 c:/a/gcc_arm/6/bin/../lib/gcc/arm-none-eabi/6.3.1/../../../../arm-none-eabi/lib/thumb/v6-m\libg_nano.a(lib_a-memset.o)
 .bss           0x00000000        0x0 c:/a/gcc_arm/6/bin/../lib/gcc/arm-none-eabi/6.3.1/../../../../arm-none-eabi/lib/thumb/v6-m\libg_nano.a(lib_a-memset.o)
 .text          0x00000000        0x0 c:/a/gcc_arm/6/bin/../lib/gcc/arm-none-eabi/6.3.1/../../../../arm-none-eabi/lib/thumb/v6-m\libg_nano.a(lib_a-nano-freer.o)
 .data          0x00000000        0x0 c:/a/gcc_arm/6/bin/../lib/gcc/arm-none-eabi/6.3.1/../../../../arm-none-eabi/lib/thumb/v6-m\libg_nano.a(lib_a-nano-freer.o)
 .bss           0x00000000        0x0 c:/a/gcc_arm/6/bin/../lib/gcc/arm-none-eabi/6.3.1/../../../../arm-none-eabi/lib/thumb/v6-m\libg_nano.a(lib_a-nano-freer.o)
 .text          0x00000000        0x0 c:/a/gcc_arm/6/bin/../lib/gcc/arm-none-eabi/6.3.1/../../../../arm-none-eabi/lib/thumb/v6-m\libg_nano.a(lib_a-nano-mallocr.o)
 .data          0x00000000        0x0 c:/a/gcc_arm/6/bin/../lib/gcc/arm-none-eabi/6.3.1/../../../../arm-none-eabi/lib/thumb/v6-m\libg_nano.a(lib_a-nano-mallocr.o)
 .bss           0x00000000        0x0 c:/a/gcc_arm/6/bin/../lib/gcc/arm-none-eabi/6.3.1/../../../../arm-none-eabi/lib/thumb/v6-m\libg_nano.a(lib_a-nano-mallocr.o)
 .text          0x00000000        0x0 c:/a/gcc_arm/6/bin/../lib/gcc/arm-none-eabi/6.3.1/../../../../arm-none-eabi/lib/thumb/v6-m\libg_nano.a(lib_a-sbrkr.o)
 .data          0x00000000        0x0 c:/a/gcc_arm/6/bin/../lib/gcc/arm-none-eabi/6.3.1/../../../../arm-none-eabi/lib/thumb/v6-m\libg_nano.a(lib_a-sbrkr.o)
 .bss           0x00000000        0x0 c:/a/gcc_arm/6/bin/../lib/gcc/arm-none-eabi/6.3.1/../../../../arm-none-eabi/lib/thumb/v6-m\libg_nano.a(lib_a-sbrkr.o)
 .text          0x00000000        0x0 c:/a/gcc_arm/6/bin/../lib/gcc/arm-none-eabi/6.3.1/../../../../arm-none-eabi/lib/thumb/v6-m\libg_nano.a(lib_a-strcpy.o)
 .data          0x00000000        0x0 c:/a/gcc_arm/6/bin/../lib/gcc/arm-none-eabi/6.3.1/../../../../arm-none-eabi/lib/thumb/v6-m\libg_nano.a(lib_a-strcpy.o)
 .bss           0x00000000        0x0 c:/a/gcc_arm/6/bin/../lib/gcc/arm-none-eabi/6.3.1/../../../../arm-none-eabi/lib/thumb/v6-m\libg_nano.a(lib_a-strcpy.o)
 .data          0x00000000        0x0 c:/a/gcc_arm/6/bin/../lib/gcc/arm-none-eabi/6.3.1/../../../../arm-none-eabi/lib/thumb/v6-m\libg_nano.a(lib_a-strlen.o)
 .bss           0x00000000        0x0 c:/a/gcc_arm/6/bin/../lib/gcc/arm-none-eabi/6.3.1/../../../../arm-none-eabi/lib/thumb/v6-m\libg_nano.a(lib_a-strlen.o)
 .text          0x00000000        0x0 c:/a/gcc_arm/6/bin/../lib/gcc/arm-none-eabi/6.3.1/../../../../arm-none-eabi/lib/thumb/v6-m\libg_nano.a(lib_a-strrchr.o)
 .data          0x00000000        0x0 c:/a/gcc_arm/6/bin/../lib/gcc/arm-none-eabi/6.3.1/../../../../arm-none-eabi/lib/thumb/v6-m\libg_nano.a(lib_a-strrchr.o)
 .bss           0x00000000        0x0 c:/a/gcc_arm/6/bin/../lib/gcc/arm-none-eabi/6.3.1/../../../../arm-none-eabi/lib/thumb/v6-m\libg_nano.a(lib_a-strrchr.o)
 .text          0x00000000        0x0 c:/a/gcc_arm/6/bin/../lib/gcc/arm-none-eabi/6.3.1/../../../../arm-none-eabi/lib/thumb/v6-m\libg_nano.a(lib_a-mlock.o)
 .data          0x00000000        0x0 c:/a/gcc_arm/6/bin/../lib/gcc/arm-none-eabi/6.3.1/../../../../arm-none-eabi/lib/thumb/v6-m\libg_nano.a(lib_a-mlock.o)
 .bss           0x00000000        0x0 c:/a/gcc_arm/6/bin/../lib/gcc/arm-none-eabi/6.3.1/../../../../arm-none-eabi/lib/thumb/v6-m\libg_nano.a(lib_a-mlock.o)
 .text          0x00000000        0x0 c:/a/gcc_arm/6/bin/../lib/gcc/arm-none-eabi/6.3.1/../../../../arm-none-eabi/lib/thumb/v6-m\libg_nano.a(lib_a-reent.o)
 .data          0x00000000        0x0 c:/a/gcc_arm/6/bin/../lib/gcc/arm-none-eabi/6.3.1/../../../../arm-none-eabi/lib/thumb/v6-m\libg_nano.a(lib_a-reent.o)
 .bss           0x00000000        0x0 c:/a/gcc_arm/6/bin/../lib/gcc/arm-none-eabi/6.3.1/../../../../arm-none-eabi/lib/thumb/v6-m\libg_nano.a(lib_a-reent.o)
 .text.cleanup_glue
                0x00000000       0x1a c:/a/gcc_arm/6/bin/../lib/gcc/arm-none-eabi/6.3.1/../../../../arm-none-eabi/lib/thumb/v6-m\libg_nano.a(lib_a-reent.o)
 .text._reclaim_reent
                0x00000000       0xcc c:/a/gcc_arm/6/bin/../lib/gcc/arm-none-eabi/6.3.1/../../../../arm-none-eabi/lib/thumb/v6-m\libg_nano.a(lib_a-reent.o)
 .text          0x00000000        0x0 c:/a/gcc_arm/6/bin/../lib/gcc/arm-none-eabi/6.3.1/../../../../arm-none-eabi/lib/thumb/v6-m\libg_nano.a(lib_a-strchr.o)
 .data          0x00000000        0x0 c:/a/gcc_arm/6/bin/../lib/gcc/arm-none-eabi/6.3.1/../../../../arm-none-eabi/lib/thumb/v6-m\libg_nano.a(lib_a-strchr.o)
 .bss           0x00000000        0x0 c:/a/gcc_arm/6/bin/../lib/gcc/arm-none-eabi/6.3.1/../../../../arm-none-eabi/lib/thumb/v6-m\libg_nano.a(lib_a-strchr.o)
 .text          0x00000000        0x0 c:/a/gcc_arm/6/bin/../lib/gcc/arm-none-eabi/6.3.1/thumb/v6-m/crtend.o
 .data          0x00000000        0x0 c:/a/gcc_arm/6/bin/../lib/gcc/arm-none-eabi/6.3.1/thumb/v6-m/crtend.o
 .bss           0x00000000        0x0 c:/a/gcc_arm/6/bin/../lib/gcc/arm-none-eabi/6.3.1/thumb/v6-m/crtend.o
 .text          0x00000000        0x0 c:/a/gcc_arm/6/bin/../lib/gcc/arm-none-eabi/6.3.1/thumb/v6-m/crtn.o
 .data          0x00000000        0x0 c:/a/gcc_arm/6/bin/../lib/gcc/arm-none-eabi/6.3.1/thumb/v6-m/crtn.o
 .bss           0x00000000        0x0 c:/a/gcc_arm/6/bin/../lib/gcc/arm-none-eabi/6.3.1/thumb/v6-m/crtn.o
 .text          0x00000000        0x0 c:/a/gcc_arm/6/bin/../lib/gcc/arm-none-eabi/6.3.1/../../../../arm-none-eabi/lib/thumb/v6-m\libnosys.a(sbrk.o)
 .data          0x00000000        0x0 c:/a/gcc_arm/6/bin/../lib/gcc/arm-none-eabi/6.3.1/../../../../arm-none-eabi/lib/thumb/v6-m\libnosys.a(sbrk.o)
 .bss           0x00000000        0x0 c:/a/gcc_arm/6/bin/../lib/gcc/arm-none-eabi/6.3.1/../../../../arm-none-eabi/lib/thumb/v6-m\libnosys.a(sbrk.o)
 .text          0x00000000        0x0 c:/a/gcc_arm/6/bin/../lib/gcc/arm-none-eabi/6.3.1/../../../../arm-none-eabi/lib/thumb/v6-m\libnosys.a(_exit.o)
 .data          0x00000000        0x0 c:/a/gcc_arm/6/bin/../lib/gcc/arm-none-eabi/6.3.1/../../../../arm-none-eabi/lib/thumb/v6-m\libnosys.a(_exit.o)
 .bss           0x00000000        0x0 c:/a/gcc_arm/6/bin/../lib/gcc/arm-none-eabi/6.3.1/../../../../arm-none-eabi/lib/thumb/v6-m\libnosys.a(_exit.o)

Memory Configuration

Name             Origin             Length             Attributes
FLASH            0x0001b000         0x0001f000         xr
RAM              0x200022d8         0x00005a28         xrw
*default*        0x00000000         0xffffffff

Linker script and memory map


.text           0x0001b000    0x13ef4
 *(.isr_vector)
 .isr_vector    0x0001b000       0xc0 examples/dfu/CMakeFiles/dfu_nrf51422_xxAC_s130_2.0.1.dir/__/__/external/nRF5_SDK_14.2.0_17b948a/components/toolchain/gcc/gcc_startup_nrf51.S.obj
                0x0001b000                __isr_vector
 *(.text*)
 .text          0x0001b0c0       0x60 c:/a/gcc_arm/6/bin/../lib/gcc/arm-none-eabi/6.3.1/thumb/v6-m/crtbegin.o
 .text          0x0001b120       0x78 c:/a/gcc_arm/6/bin/../lib/gcc/arm-none-eabi/6.3.1/../../../../arm-none-eabi/lib/thumb/v6-m/crt0.o
                0x0001b120                _start
                0x0001b120                _mainCRTStartup
 .text.sd_app_evt_wait
                0x0001b198        0x4 examples/dfu/CMakeFiles/dfu_nrf51422_xxAC_s130_2.0.1.dir/src/main.c.obj
 .text.mesh_evt_handler
                0x0001b19c       0xfc examples/dfu/CMakeFiles/dfu_nrf51422_xxAC_s130_2.0.1.dir/src/main.c.obj
 .text.startup.main
                0x0001b298      0x2fc examples/dfu/CMakeFiles/dfu_nrf51422_xxAC_s130_2.0.1.dir/src/main.c.obj
                0x0001b298                main
 .text.sd_evt_get
                0x0001b594        0x4 examples/dfu/CMakeFiles/dfu_nrf51422_xxAC_s130_2.0.1.dir/__/nrf_mesh_sdk.c.obj
 .text.sd_softdevice_enable
                0x0001b598        0x4 examples/dfu/CMakeFiles/dfu_nrf51422_xxAC_s130_2.0.1.dir/__/nrf_mesh_sdk.c.obj
 .text.sd_ble_enable
                0x0001b59c        0x4 examples/dfu/CMakeFiles/dfu_nrf51422_xxAC_s130_2.0.1.dir/__/nrf_mesh_sdk.c.obj
 .text.sd_ble_evt_get
                0x0001b5a0        0x4 examples/dfu/CMakeFiles/dfu_nrf51422_xxAC_s130_2.0.1.dir/__/nrf_mesh_sdk.c.obj
 .text.sleep_forever
                0x0001b5a4       0x24 examples/dfu/CMakeFiles/dfu_nrf51422_xxAC_s130_2.0.1.dir/__/nrf_mesh_sdk.c.obj
 .text.mesh_assert_handler
                0x0001b5c8       0x70 examples/dfu/CMakeFiles/dfu_nrf51422_xxAC_s130_2.0.1.dir/__/nrf_mesh_sdk.c.obj
                0x0001b5c8                mesh_assert_handler
 .text.softdevice_assert_handler
                0x0001b638       0x7c examples/dfu/CMakeFiles/dfu_nrf51422_xxAC_s130_2.0.1.dir/__/nrf_mesh_sdk.c.obj
                0x0001b638                softdevice_assert_handler
 .text.app_error_handler
                0x0001b6b4       0x7c examples/dfu/CMakeFiles/dfu_nrf51422_xxAC_s130_2.0.1.dir/__/nrf_mesh_sdk.c.obj
                0x0001b6b4                app_error_handler
 .text.HardFault_Handler
                0x0001b730       0x6c examples/dfu/CMakeFiles/dfu_nrf51422_xxAC_s130_2.0.1.dir/__/nrf_mesh_sdk.c.obj
                0x0001b730                HardFault_Handler
 .text.SWI2_IRQHandler
                0x0001b79c       0x38 examples/dfu/CMakeFiles/dfu_nrf51422_xxAC_s130_2.0.1.dir/__/nrf_mesh_sdk.c.obj
                0x0001b79c                SWI2_IRQHandler
 .text.mesh_softdevice_enable
                0x0001b7d4      0x12c examples/dfu/CMakeFiles/dfu_nrf51422_xxAC_s130_2.0.1.dir/__/nrf_mesh_sdk.c.obj
                0x0001b7d4                mesh_softdevice_enable
 .text.mesh_softdevice_setup
                0x0001b900       0x90 examples/dfu/CMakeFiles/dfu_nrf51422_xxAC_s130_2.0.1.dir/__/nrf_mesh_sdk.c.obj
                0x0001b900                mesh_softdevice_setup
 .text.mesh_core_setup
                0x0001b990      0x15c examples/dfu/CMakeFiles/dfu_nrf51422_xxAC_s130_2.0.1.dir/__/nrf_mesh_sdk.c.obj
                0x0001b990                mesh_core_setup
 .text.add_to_publication_list
                0x0001baec       0x60 examples/dfu/CMakeFiles/dfu_nrf51422_xxAC_s130_2.0.1.dir/__/__/mesh/access/src/access_publish.c.obj
 .text.step_resolution_to_us
                0x0001bb4c       0x48 examples/dfu/CMakeFiles/dfu_nrf51422_xxAC_s130_2.0.1.dir/__/__/mesh/access/src/access_publish.c.obj
 .text.schedule_publication_timer
                0x0001bb94      0x16c examples/dfu/CMakeFiles/dfu_nrf51422_xxAC_s130_2.0.1.dir/__/__/mesh/access/src/access_publish.c.obj
 .text.access_publish_period_set
                0x0001bd00       0x84 examples/dfu/CMakeFiles/dfu_nrf51422_xxAC_s130_2.0.1.dir/__/__/mesh/access/src/access_publish.c.obj
                0x0001bd00                access_publish_period_set
 .text.access_publish_period_get
                0x0001bd84       0x30 examples/dfu/CMakeFiles/dfu_nrf51422_xxAC_s130_2.0.1.dir/__/__/mesh/access/src/access_publish.c.obj
                0x0001bd84                access_publish_period_get
 .text.bitfield_get
                0x0001bdb4       0x18 examples/dfu/CMakeFiles/dfu_nrf51422_xxAC_s130_2.0.1.dir/__/__/mesh/access/src/access.c.obj
 .text.model_handle_valid_and_allocated
                0x0001bdcc       0x20 examples/dfu/CMakeFiles/dfu_nrf51422_xxAC_s130_2.0.1.dir/__/__/mesh/access/src/access.c.obj
 .text.flash_manager_mem_available
                0x0001bdec        0x6 examples/dfu/CMakeFiles/dfu_nrf51422_xxAC_s130_2.0.1.dir/__/__/mesh/access/src/access.c.obj
 *fill*         0x0001bdf2        0x2 
 .text.access_flash_config_clear
                0x0001bdf4       0x28 examples/dfu/CMakeFiles/dfu_nrf51422_xxAC_s130_2.0.1.dir/__/__/mesh/access/src/access.c.obj
 .text.access_flash_config_store
                0x0001be1c      0x144 examples/dfu/CMakeFiles/dfu_nrf51422_xxAC_s130_2.0.1.dir/__/__/mesh/access/src/access.c.obj
                0x0001be1c                access_flash_config_store
 .text.access_state_clear
                0x0001bf60       0x4c examples/dfu/CMakeFiles/dfu_nrf51422_xxAC_s130_2.0.1.dir/__/__/mesh/access/src/access.c.obj
 .text.access_clear
                0x0001bfac       0x10 examples/dfu/CMakeFiles/dfu_nrf51422_xxAC_s130_2.0.1.dir/__/__/mesh/access/src/access.c.obj
                0x0001bfac                access_clear
 .text.access_model_publish_address_set
                0x0001bfbc       0x3c examples/dfu/CMakeFiles/dfu_nrf51422_xxAC_s130_2.0.1.dir/__/__/mesh/access/src/access.c.obj
                0x0001bfbc                access_model_publish_address_set
 .text.access_model_publish_address_get
                0x0001bff8       0x2c examples/dfu/CMakeFiles/dfu_nrf51422_xxAC_s130_2.0.1.dir/__/__/mesh/access/src/access.c.obj
                0x0001bff8                access_model_publish_address_get
 .text.access_model_publish_period_set
                0x0001c024       0x80 examples/dfu/CMakeFiles/dfu_nrf51422_xxAC_s130_2.0.1.dir/__/__/mesh/access/src/access.c.obj
                0x0001c024                access_model_publish_period_set
 .text.access_model_publish_period_get
                0x0001c0a4       0x44 examples/dfu/CMakeFiles/dfu_nrf51422_xxAC_s130_2.0.1.dir/__/__/mesh/access/src/access.c.obj
                0x0001c0a4                access_model_publish_period_get
 .text.access_model_subscription_add
                0x0001c0e8       0x5c examples/dfu/CMakeFiles/dfu_nrf51422_xxAC_s130_2.0.1.dir/__/__/mesh/access/src/access.c.obj
                0x0001c0e8                access_model_subscription_add
 .text.access_model_subscription_remove
                0x0001c144       0x5c examples/dfu/CMakeFiles/dfu_nrf51422_xxAC_s130_2.0.1.dir/__/__/mesh/access/src/access.c.obj
                0x0001c144                access_model_subscription_remove
 .text.access_model_subscriptions_get
                0x0001c1a0       0x7c examples/dfu/CMakeFiles/dfu_nrf51422_xxAC_s130_2.0.1.dir/__/__/mesh/access/src/access.c.obj
                0x0001c1a0                access_model_subscriptions_get
 .text.access_model_application_bind
                0x0001c21c       0x50 examples/dfu/CMakeFiles/dfu_nrf51422_xxAC_s130_2.0.1.dir/__/__/mesh/access/src/access.c.obj
                0x0001c21c                access_model_application_bind
 .text.access_model_application_unbind
                0x0001c26c       0x50 examples/dfu/CMakeFiles/dfu_nrf51422_xxAC_s130_2.0.1.dir/__/__/mesh/access/src/access.c.obj
                0x0001c26c                access_model_application_unbind
 .text.access_model_applications_get
                0x0001c2bc       0x60 examples/dfu/CMakeFiles/dfu_nrf51422_xxAC_s130_2.0.1.dir/__/__/mesh/access/src/access.c.obj
                0x0001c2bc                access_model_applications_get
 .text.access_model_publish_application_set
                0x0001c31c       0x3c examples/dfu/CMakeFiles/dfu_nrf51422_xxAC_s130_2.0.1.dir/__/__/mesh/access/src/access.c.obj
                0x0001c31c                access_model_publish_application_set
 .text.access_model_publish_application_get
                0x0001c358       0x2c examples/dfu/CMakeFiles/dfu_nrf51422_xxAC_s130_2.0.1.dir/__/__/mesh/access/src/access.c.obj
                0x0001c358                access_model_publish_application_get
 .text.access_model_publish_ttl_set
                0x0001c384       0x44 examples/dfu/CMakeFiles/dfu_nrf51422_xxAC_s130_2.0.1.dir/__/__/mesh/access/src/access.c.obj
                0x0001c384                access_model_publish_ttl_set
 .text.access_model_publish_ttl_get
                0x0001c3c8       0x2c examples/dfu/CMakeFiles/dfu_nrf51422_xxAC_s130_2.0.1.dir/__/__/mesh/access/src/access.c.obj
                0x0001c3c8                access_model_publish_ttl_get
 .text.access_element_location_set
                0x0001c3f4       0x28 examples/dfu/CMakeFiles/dfu_nrf51422_xxAC_s130_2.0.1.dir/__/__/mesh/access/src/access.c.obj
                0x0001c3f4                access_element_location_set
 .text.access_element_location_get
                0x0001c41c       0x1c examples/dfu/CMakeFiles/dfu_nrf51422_xxAC_s130_2.0.1.dir/__/__/mesh/access/src/access.c.obj
                0x0001c41c                access_element_location_get
 .text.access_element_sig_model_count_get
                0x0001c438       0x1c examples/dfu/CMakeFiles/dfu_nrf51422_xxAC_s130_2.0.1.dir/__/__/mesh/access/src/access.c.obj
                0x0001c438                access_element_sig_model_count_get
 .text.access_element_vendor_model_count_get
                0x0001c454       0x1c examples/dfu/CMakeFiles/dfu_nrf51422_xxAC_s130_2.0.1.dir/__/__/mesh/access/src/access.c.obj
                0x0001c454                access_element_vendor_model_count_get
 .text.access_model_id_get
                0x0001c470       0x38 examples/dfu/CMakeFiles/dfu_nrf51422_xxAC_s130_2.0.1.dir/__/__/mesh/access/src/access.c.obj
                0x0001c470                access_model_id_get
 .text.access_handle_get
                0x0001c4a8       0x54 examples/dfu/CMakeFiles/dfu_nrf51422_xxAC_s130_2.0.1.dir/__/__/mesh/access/src/access.c.obj
                0x0001c4a8                access_handle_get
 .text.access_element_models_get
                0x0001c4fc       0x60 examples/dfu/CMakeFiles/dfu_nrf51422_xxAC_s130_2.0.1.dir/__/__/mesh/access/src/access.c.obj
                0x0001c4fc                access_element_models_get
 .text.access_reliable_cancel_all
                0x0001c55c       0x34 examples/dfu/CMakeFiles/dfu_nrf51422_xxAC_s130_2.0.1.dir/__/__/mesh/access/src/access_reliable.c.obj
                0x0001c55c                access_reliable_cancel_all
 .text.bitfield_get
                0x0001c590       0x18 examples/dfu/CMakeFiles/dfu_nrf51422_xxAC_s130_2.0.1.dir/__/__/mesh/access/src/device_state_manager.c.obj
 .text.bitfield_set
                0x0001c5a8       0x16 examples/dfu/CMakeFiles/dfu_nrf51422_xxAC_s130_2.0.1.dir/__/__/mesh/access/src/device_state_manager.c.obj
 .text.bitfield_clear
                0x0001c5be       0x16 examples/dfu/CMakeFiles/dfu_nrf51422_xxAC_s130_2.0.1.dir/__/__/mesh/access/src/device_state_manager.c.obj
 .text.address_handle_virtual_valid
                0x0001c5d4       0x1c examples/dfu/CMakeFiles/dfu_nrf51422_xxAC_s130_2.0.1.dir/__/__/mesh/access/src/device_state_manager.c.obj
 .text.net_key_handle_get
                0x0001c5f0       0x4c examples/dfu/CMakeFiles/dfu_nrf51422_xxAC_s130_2.0.1.dir/__/__/mesh/access/src/device_state_manager.c.obj
 .text.dev_key_handle_get
                0x0001c63c       0x34 examples/dfu/CMakeFiles/dfu_nrf51422_xxAC_s130_2.0.1.dir/__/__/mesh/access/src/device_state_manager.c.obj
 .text.app_key_handle_get
                0x0001c670       0x4c examples/dfu/CMakeFiles/dfu_nrf51422_xxAC_s130_2.0.1.dir/__/__/mesh/access/src/device_state_manager.c.obj
 .text.get_subnet_handle
                0x0001c6bc       0x54 examples/dfu/CMakeFiles/dfu_nrf51422_xxAC_s130_2.0.1.dir/__/__/mesh/access/src/device_state_manager.c.obj
 .text.addr_nonvirtual_to_flash_entry
                0x0001c710       0x10 examples/dfu/CMakeFiles/dfu_nrf51422_xxAC_s130_2.0.1.dir/__/__/mesh/access/src/device_state_manager.c.obj
 .text.flash_mem_listener_callback
                0x0001c720       0x20 examples/dfu/CMakeFiles/dfu_nrf51422_xxAC_s130_2.0.1.dir/__/__/mesh/access/src/device_state_manager.c.obj
 .text.devkey_set
                0x0001c740       0x4c examples/dfu/CMakeFiles/dfu_nrf51422_xxAC_s130_2.0.1.dir/__/__/mesh/access/src/device_state_manager.c.obj
 .text.devkey_to_dsm_entry
                0x0001c78c       0x14 examples/dfu/CMakeFiles/dfu_nrf51422_xxAC_s130_2.0.1.dir/__/__/mesh/access/src/device_state_manager.c.obj
 .text.devkey_to_flash_entry
                0x0001c7a0       0x28 examples/dfu/CMakeFiles/dfu_nrf51422_xxAC_s130_2.0.1.dir/__/__/mesh/access/src/device_state_manager.c.obj
 .text.addr_virtual_to_flash_entry
                0x0001c7c8       0x1c examples/dfu/CMakeFiles/dfu_nrf51422_xxAC_s130_2.0.1.dir/__/__/mesh/access/src/device_state_manager.c.obj
 .text.addr_unicast_to_dsm_entry
                0x0001c7e4       0x10 examples/dfu/CMakeFiles/dfu_nrf51422_xxAC_s130_2.0.1.dir/__/__/mesh/access/src/device_state_manager.c.obj
 .text.addr_unicast_to_flash_entry
                0x0001c7f4       0x14 examples/dfu/CMakeFiles/dfu_nrf51422_xxAC_s130_2.0.1.dir/__/__/mesh/access/src/device_state_manager.c.obj
 .text.appkey_set
                0x0001c808       0x84 examples/dfu/CMakeFiles/dfu_nrf51422_xxAC_s130_2.0.1.dir/__/__/mesh/access/src/device_state_manager.c.obj
 .text.appkey_to_flash_entry
                0x0001c88c       0x54 examples/dfu/CMakeFiles/dfu_nrf51422_xxAC_s130_2.0.1.dir/__/__/mesh/access/src/device_state_manager.c.obj
 .text.subnet_to_flash_entry
                0x0001c8e0       0x58 examples/dfu/CMakeFiles/dfu_nrf51422_xxAC_s130_2.0.1.dir/__/__/mesh/access/src/device_state_manager.c.obj
 .text.subnet_set
                0x0001c938       0xc0 examples/dfu/CMakeFiles/dfu_nrf51422_xxAC_s130_2.0.1.dir/__/__/mesh/access/src/device_state_manager.c.obj
 .text.virtual_address_set
                0x0001c9f8       0x58 examples/dfu/CMakeFiles/dfu_nrf51422_xxAC_s130_2.0.1.dir/__/__/mesh/access/src/device_state_manager.c.obj
 .text.addr_virtual_to_dsm_entry
                0x0001ca50       0x10 examples/dfu/CMakeFiles/dfu_nrf51422_xxAC_s130_2.0.1.dir/__/__/mesh/access/src/device_state_manager.c.obj
 .text.reset_flash_area
                0x0001ca60       0x28 examples/dfu/CMakeFiles/dfu_nrf51422_xxAC_s130_2.0.1.dir/__/__/mesh/access/src/device_state_manager.c.obj
 .text.flash_save
                0x0001ca88       0x8c examples/dfu/CMakeFiles/dfu_nrf51422_xxAC_s130_2.0.1.dir/__/__/mesh/access/src/device_state_manager.c.obj
 .text.flash_invalidate
                0x0001cb14       0x74 examples/dfu/CMakeFiles/dfu_nrf51422_xxAC_s130_2.0.1.dir/__/__/mesh/access/src/device_state_manager.c.obj
 .text.virtual_address_uuid_index_get
                0x0001cb88       0x58 examples/dfu/CMakeFiles/dfu_nrf51422_xxAC_s130_2.0.1.dir/__/__/mesh/access/src/device_state_manager.c.obj
 .text.add_address_virtual
                0x0001cbe0       0x80 examples/dfu/CMakeFiles/dfu_nrf51422_xxAC_s130_2.0.1.dir/__/__/mesh/access/src/device_state_manager.c.obj
 .text.get_subnet_handle_by_beacon_info
                0x0001cc60       0x48 examples/dfu/CMakeFiles/dfu_nrf51422_xxAC_s130_2.0.1.dir/__/__/mesh/access/src/device_state_manager.c.obj
 .text.get_app_handle
                0x0001cca8       0x54 examples/dfu/CMakeFiles/dfu_nrf51422_xxAC_s130_2.0.1.dir/__/__/mesh/access/src/device_state_manager.c.obj
 .text.appkey_to_dsm_entry
                0x0001ccfc       0x80 examples/dfu/CMakeFiles/dfu_nrf51422_xxAC_s130_2.0.1.dir/__/__/mesh/access/src/device_state_manager.c.obj
 .text.subnet_to_dsm_entry
                0x0001cd7c       0x7c examples/dfu/CMakeFiles/dfu_nrf51422_xxAC_s130_2.0.1.dir/__/__/mesh/access/src/device_state_manager.c.obj
 .text.add_address.part.7
                0x0001cdf8      0x150 examples/dfu/CMakeFiles/dfu_nrf51422_xxAC_s130_2.0.1.dir/__/__/mesh/access/src/device_state_manager.c.obj
 .text.address_handle_valid
                0x0001cf48       0x28 examples/dfu/CMakeFiles/dfu_nrf51422_xxAC_s130_2.0.1.dir/__/__/mesh/access/src/device_state_manager.c.obj
 .text.address_handle_nonvirtual_valid
                0x0001cf70       0x18 examples/dfu/CMakeFiles/dfu_nrf51422_xxAC_s130_2.0.1.dir/__/__/mesh/access/src/device_state_manager.c.obj
 .text.address_delete_if_unused
                0x0001cf88       0x7c examples/dfu/CMakeFiles/dfu_nrf51422_xxAC_s130_2.0.1.dir/__/__/mesh/access/src/device_state_manager.c.obj
 .text.addr_nonvirtual_to_dsm_entry
                0x0001d004       0x34 examples/dfu/CMakeFiles/dfu_nrf51422_xxAC_s130_2.0.1.dir/__/__/mesh/access/src/device_state_manager.c.obj
 .text.dsm_clear
                0x0001d038       0x74 examples/dfu/CMakeFiles/dfu_nrf51422_xxAC_s130_2.0.1.dir/__/__/mesh/access/src/device_state_manager.c.obj
                0x0001d038                dsm_clear
 .text.dsm_local_unicast_addresses_set
                0x0001d0ac       0x80 examples/dfu/CMakeFiles/dfu_nrf51422_xxAC_s130_2.0.1.dir/__/__/mesh/access/src/device_state_manager.c.obj
                0x0001d0ac                dsm_local_unicast_addresses_set
 .text.dsm_local_unicast_addresses_get
                0x0001d12c       0x2c examples/dfu/CMakeFiles/dfu_nrf51422_xxAC_s130_2.0.1.dir/__/__/mesh/access/src/device_state_manager.c.obj
                0x0001d12c                dsm_local_unicast_addresses_get
 .text.dsm_address_publish_add
                0x0001d158       0x14 examples/dfu/CMakeFiles/dfu_nrf51422_xxAC_s130_2.0.1.dir/__/__/mesh/access/src/device_state_manager.c.obj
                0x0001d158                dsm_address_publish_add
 .text.dsm_address_publish_virtual_add
                0x0001d16c        0xa examples/dfu/CMakeFiles/dfu_nrf51422_xxAC_s130_2.0.1.dir/__/__/mesh/access/src/device_state_manager.c.obj
                0x0001d16c                dsm_address_publish_virtual_add
 *fill*         0x0001d176        0x2 
 .text.dsm_address_publish_remove
                0x0001d178       0x44 examples/dfu/CMakeFiles/dfu_nrf51422_xxAC_s130_2.0.1.dir/__/__/mesh/access/src/device_state_manager.c.obj
                0x0001d178                dsm_address_publish_remove
 .text.dsm_address_subscription_add
                0x0001d1bc       0x14 examples/dfu/CMakeFiles/dfu_nrf51422_xxAC_s130_2.0.1.dir/__/__/mesh/access/src/device_state_manager.c.obj
                0x0001d1bc                dsm_address_subscription_add
 .text.dsm_address_subscription_virtual_add
                0x0001d1d0        0xa examples/dfu/CMakeFiles/dfu_nrf51422_xxAC_s130_2.0.1.dir/__/__/mesh/access/src/device_state_manager.c.obj
                0x0001d1d0                dsm_address_subscription_virtual_add
 *fill*         0x0001d1da        0x2 
 .text.dsm_address_subscription_get
                0x0001d1dc       0x34 examples/dfu/CMakeFiles/dfu_nrf51422_xxAC_s130_2.0.1.dir/__/__/mesh/access/src/device_state_manager.c.obj
                0x0001d1dc                dsm_address_subscription_get
 .text.dsm_address_get
                0x0001d210       0x60 examples/dfu/CMakeFiles/dfu_nrf51422_xxAC_s130_2.0.1.dir/__/__/mesh/access/src/device_state_manager.c.obj
                0x0001d210                dsm_address_get
 .text.dsm_address_subscription_remove
                0x0001d270       0x64 examples/dfu/CMakeFiles/dfu_nrf51422_xxAC_s130_2.0.1.dir/__/__/mesh/access/src/device_state_manager.c.obj
                0x0001d270                dsm_address_subscription_remove
 .text.dsm_address_get_all
                0x0001d2d4       0x68 examples/dfu/CMakeFiles/dfu_nrf51422_xxAC_s130_2.0.1.dir/__/__/mesh/access/src/device_state_manager.c.obj
                0x0001d2d4                dsm_address_get_all
 .text.dsm_address_handle_get
                0x0001d33c       0x98 examples/dfu/CMakeFiles/dfu_nrf51422_xxAC_s130_2.0.1.dir/__/__/mesh/access/src/device_state_manager.c.obj
                0x0001d33c                dsm_address_handle_get
 .text.dsm_subnet_handle_get
                0x0001d3d4       0x14 examples/dfu/CMakeFiles/dfu_nrf51422_xxAC_s130_2.0.1.dir/__/__/mesh/access/src/device_state_manager.c.obj
                0x0001d3d4                dsm_subnet_handle_get
 .text.dsm_appkey_handle_get
                0x0001d3e8       0x14 examples/dfu/CMakeFiles/dfu_nrf51422_xxAC_s130_2.0.1.dir/__/__/mesh/access/src/device_state_manager.c.obj
                0x0001d3e8                dsm_appkey_handle_get
 .text.dsm_subnet_add
                0x0001d3fc       0x60 examples/dfu/CMakeFiles/dfu_nrf51422_xxAC_s130_2.0.1.dir/__/__/mesh/access/src/device_state_manager.c.obj
                0x0001d3fc                dsm_subnet_add
 .text.dsm_subnet_update
                0x0001d45c       0xb8 examples/dfu/CMakeFiles/dfu_nrf51422_xxAC_s130_2.0.1.dir/__/__/mesh/access/src/device_state_manager.c.obj
                0x0001d45c                dsm_subnet_update
 .text.dsm_subnet_update_swap_keys
                0x0001d514       0x54 examples/dfu/CMakeFiles/dfu_nrf51422_xxAC_s130_2.0.1.dir/__/__/mesh/access/src/device_state_manager.c.obj
                0x0001d514                dsm_subnet_update_swap_keys
 .text.dsm_subnet_update_commit
                0x0001d568       0xe0 examples/dfu/CMakeFiles/dfu_nrf51422_xxAC_s130_2.0.1.dir/__/__/mesh/access/src/device_state_manager.c.obj
                0x0001d568                dsm_subnet_update_commit
 .text.net_beacon_callback
                0x0001d648       0x74 examples/dfu/CMakeFiles/dfu_nrf51422_xxAC_s130_2.0.1.dir/__/__/mesh/access/src/device_state_manager.c.obj
 .text.dsm_subnet_get_all
                0x0001d6bc       0x58 examples/dfu/CMakeFiles/dfu_nrf51422_xxAC_s130_2.0.1.dir/__/__/mesh/access/src/device_state_manager.c.obj
                0x0001d6bc                dsm_subnet_get_all
 .text.dsm_devkey_add
                0x0001d714       0x7c examples/dfu/CMakeFiles/dfu_nrf51422_xxAC_s130_2.0.1.dir/__/__/mesh/access/src/device_state_manager.c.obj
                0x0001d714                dsm_devkey_add
 .text.dsm_devkey_delete
                0x0001d790       0x3c examples/dfu/CMakeFiles/dfu_nrf51422_xxAC_s130_2.0.1.dir/__/__/mesh/access/src/device_state_manager.c.obj
                0x0001d790                dsm_devkey_delete
 .text.dsm_appkey_add
                0x0001d7cc       0x7c examples/dfu/CMakeFiles/dfu_nrf51422_xxAC_s130_2.0.1.dir/__/__/mesh/access/src/device_state_manager.c.obj
                0x0001d7cc                dsm_appkey_add
 .text.dsm_appkey_update
                0x0001d848       0xa0 examples/dfu/CMakeFiles/dfu_nrf51422_xxAC_s130_2.0.1.dir/__/__/mesh/access/src/device_state_manager.c.obj
                0x0001d848                dsm_appkey_update
 .text.dsm_appkey_delete
                0x0001d8e8       0x34 examples/dfu/CMakeFiles/dfu_nrf51422_xxAC_s130_2.0.1.dir/__/__/mesh/access/src/device_state_manager.c.obj
                0x0001d8e8                dsm_appkey_delete
 .text.dsm_subnet_delete
                0x0001d91c       0xa8 examples/dfu/CMakeFiles/dfu_nrf51422_xxAC_s130_2.0.1.dir/__/__/mesh/access/src/device_state_manager.c.obj
                0x0001d91c                dsm_subnet_delete
 .text.dsm_appkey_get_all
                0x0001d9c4       0x78 examples/dfu/CMakeFiles/dfu_nrf51422_xxAC_s130_2.0.1.dir/__/__/mesh/access/src/device_state_manager.c.obj
                0x0001d9c4                dsm_appkey_get_all
 .text.dsm_tx_secmat_get
                0x0001da3c      0x11c examples/dfu/CMakeFiles/dfu_nrf51422_xxAC_s130_2.0.1.dir/__/__/mesh/access/src/device_state_manager.c.obj
                0x0001da3c                dsm_tx_secmat_get
 .text.nrf_mesh_net_secmat_next_get
                0x0001db58       0xd0 examples/dfu/CMakeFiles/dfu_nrf51422_xxAC_s130_2.0.1.dir/__/__/mesh/access/src/device_state_manager.c.obj
                0x0001db58                nrf_mesh_net_secmat_next_get
 .text.nrf_mesh_app_secmat_next_get
                0x0001dc28       0xa0 examples/dfu/CMakeFiles/dfu_nrf51422_xxAC_s130_2.0.1.dir/__/__/mesh/access/src/device_state_manager.c.obj
                0x0001dc28                nrf_mesh_app_secmat_next_get
 .text.nrf_mesh_devkey_secmat_get
                0x0001dcc8       0x34 examples/dfu/CMakeFiles/dfu_nrf51422_xxAC_s130_2.0.1.dir/__/__/mesh/access/src/device_state_manager.c.obj
                0x0001dcc8                nrf_mesh_devkey_secmat_get
 .text.nrf_mesh_beacon_info_next_get
                0x0001dcfc       0xec examples/dfu/CMakeFiles/dfu_nrf51422_xxAC_s130_2.0.1.dir/__/__/mesh/access/src/device_state_manager.c.obj
                0x0001dcfc                nrf_mesh_beacon_info_next_get
 .text.nrf_mesh_rx_address_get
                0x0001dde8      0x108 examples/dfu/CMakeFiles/dfu_nrf51422_xxAC_s130_2.0.1.dir/__/__/mesh/access/src/device_state_manager.c.obj
                0x0001dde8                nrf_mesh_rx_address_get
 .text.serial_uart_init
                0x0001def0       0xd0 examples/dfu/CMakeFiles/dfu_nrf51422_xxAC_s130_2.0.1.dir/__/__/mesh/serial/src/serial_uart.c.obj
                0x0001def0                serial_uart_init
 .text.serial_uart_process
                0x0001dfc0       0x5c examples/dfu/CMakeFiles/dfu_nrf51422_xxAC_s130_2.0.1.dir/__/__/mesh/serial/src/serial_uart.c.obj
                0x0001dfc0                serial_uart_process
 .text.UART0_IRQHandler
                0x0001e01c        0x8 examples/dfu/CMakeFiles/dfu_nrf51422_xxAC_s130_2.0.1.dir/__/__/mesh/serial/src/serial_uart.c.obj
                0x0001e01c                UART0_IRQHandler
 .text.serial_uart_receive_set
                0x0001e024        0xc examples/dfu/CMakeFiles/dfu_nrf51422_xxAC_s130_2.0.1.dir/__/__/mesh/serial/src/serial_uart.c.obj
                0x0001e024                serial_uart_receive_set
 .text.do_transmit
                0x0001e030       0x50 examples/dfu/CMakeFiles/dfu_nrf51422_xxAC_s130_2.0.1.dir/__/__/mesh/serial/src/serial_bearer.c.obj
 .text.char_tx  0x0001e080       0x8c examples/dfu/CMakeFiles/dfu_nrf51422_xxAC_s130_2.0.1.dir/__/__/mesh/serial/src/serial_bearer.c.obj
 .text.serial_bearer_init
                0x0001e10c       0x84 examples/dfu/CMakeFiles/dfu_nrf51422_xxAC_s130_2.0.1.dir/__/__/mesh/serial/src/serial_bearer.c.obj
                0x0001e10c                serial_bearer_init
 .text.serial_bearer_packet_buffer_get
                0x0001e190       0x24 examples/dfu/CMakeFiles/dfu_nrf51422_xxAC_s130_2.0.1.dir/__/__/mesh/serial/src/serial_bearer.c.obj
                0x0001e190                serial_bearer_packet_buffer_get
 .text.serial_bearer_blocking_buffer_get
                0x0001e1b4       0x3c examples/dfu/CMakeFiles/dfu_nrf51422_xxAC_s130_2.0.1.dir/__/__/mesh/serial/src/serial_bearer.c.obj
                0x0001e1b4                serial_bearer_blocking_buffer_get
 .text.serial_bearer_tx
                0x0001e1f0       0x70 examples/dfu/CMakeFiles/dfu_nrf51422_xxAC_s130_2.0.1.dir/__/__/mesh/serial/src/serial_bearer.c.obj
                0x0001e1f0                serial_bearer_tx
 .text.send_cmd_response.constprop.5
                0x0001e260       0x26 examples/dfu/CMakeFiles/dfu_nrf51422_xxAC_s130_2.0.1.dir/__/__/mesh/serial/src/serial_bearer.c.obj
 *fill*         0x0001e286        0x2 
 .text.char_rx  0x0001e288       0xbc examples/dfu/CMakeFiles/dfu_nrf51422_xxAC_s130_2.0.1.dir/__/__/mesh/serial/src/serial_bearer.c.obj
 .text.serial_bearer_rx_get
                0x0001e344       0x38 examples/dfu/CMakeFiles/dfu_nrf51422_xxAC_s130_2.0.1.dir/__/__/mesh/serial/src/serial_bearer.c.obj
                0x0001e344                serial_bearer_rx_get
 .text.serial_handler_common_cmd_rsp_nodata_on_error
                0x0001e37c       0x2c examples/dfu/CMakeFiles/dfu_nrf51422_xxAC_s130_2.0.1.dir/__/__/mesh/serial/src/serial_handler_common.c.obj
                0x0001e37c                serial_handler_common_cmd_rsp_nodata_on_error
 .text.serial_handler_common_rx
                0x0001e3a8       0x4c examples/dfu/CMakeFiles/dfu_nrf51422_xxAC_s130_2.0.1.dir/__/__/mesh/serial/src/serial_handler_common.c.obj
                0x0001e3a8                serial_handler_common_rx
 .text.access_flash_store
                0x0001e3f4       0x16 examples/dfu/CMakeFiles/dfu_nrf51422_xxAC_s130_2.0.1.dir/__/__/mesh/serial/src/serial_handler_access.c.obj
 .text.elem_models_get
                0x0001e40a       0x44 examples/dfu/CMakeFiles/dfu_nrf51422_xxAC_s130_2.0.1.dir/__/__/mesh/serial/src/serial_handler_access.c.obj
 .text.handle_get
                0x0001e44e       0x36 examples/dfu/CMakeFiles/dfu_nrf51422_xxAC_s130_2.0.1.dir/__/__/mesh/serial/src/serial_handler_access.c.obj
 .text.model_id_get
                0x0001e484       0x20 examples/dfu/CMakeFiles/dfu_nrf51422_xxAC_s130_2.0.1.dir/__/__/mesh/serial/src/serial_handler_access.c.obj
 .text.elem_vendor_model_cnt_get
                0x0001e4a4       0x20 examples/dfu/CMakeFiles/dfu_nrf51422_xxAC_s130_2.0.1.dir/__/__/mesh/serial/src/serial_handler_access.c.obj
 .text.elem_sig_model_cnt_get
                0x0001e4c4       0x20 examples/dfu/CMakeFiles/dfu_nrf51422_xxAC_s130_2.0.1.dir/__/__/mesh/serial/src/serial_handler_access.c.obj
 .text.elem_loc_get
                0x0001e4e4       0x20 examples/dfu/CMakeFiles/dfu_nrf51422_xxAC_s130_2.0.1.dir/__/__/mesh/serial/src/serial_handler_access.c.obj
 .text.elem_loc_set
                0x0001e504       0x2c examples/dfu/CMakeFiles/dfu_nrf51422_xxAC_s130_2.0.1.dir/__/__/mesh/serial/src/serial_handler_access.c.obj
 .text.model_pub_ttl_get
                0x0001e530       0x20 examples/dfu/CMakeFiles/dfu_nrf51422_xxAC_s130_2.0.1.dir/__/__/mesh/serial/src/serial_handler_access.c.obj
 .text.model_pub_ttl_set
                0x0001e550       0x26 examples/dfu/CMakeFiles/dfu_nrf51422_xxAC_s130_2.0.1.dir/__/__/mesh/serial/src/serial_handler_access.c.obj
 .text.model_pub_app_get
                0x0001e576       0x20 examples/dfu/CMakeFiles/dfu_nrf51422_xxAC_s130_2.0.1.dir/__/__/mesh/serial/src/serial_handler_access.c.obj
 .text.model_pub_app_set
                0x0001e596       0x2c examples/dfu/CMakeFiles/dfu_nrf51422_xxAC_s130_2.0.1.dir/__/__/mesh/serial/src/serial_handler_access.c.obj
 .text.model_app_get
                0x0001e5c2       0x44 examples/dfu/CMakeFiles/dfu_nrf51422_xxAC_s130_2.0.1.dir/__/__/mesh/serial/src/serial_handler_access.c.obj
 .text.model_app_unbind
                0x0001e606       0x2c examples/dfu/CMakeFiles/dfu_nrf51422_xxAC_s130_2.0.1.dir/__/__/mesh/serial/src/serial_handler_access.c.obj
 .text.model_app_bind
                0x0001e632       0x2c examples/dfu/CMakeFiles/dfu_nrf51422_xxAC_s130_2.0.1.dir/__/__/mesh/serial/src/serial_handler_access.c.obj
 .text.model_subs_get
                0x0001e65e       0x44 examples/dfu/CMakeFiles/dfu_nrf51422_xxAC_s130_2.0.1.dir/__/__/mesh/serial/src/serial_handler_access.c.obj
 .text.model_subs_remove
                0x0001e6a2       0x2c examples/dfu/CMakeFiles/dfu_nrf51422_xxAC_s130_2.0.1.dir/__/__/mesh/serial/src/serial_handler_access.c.obj
 .text.model_subs_add
                0x0001e6ce       0x2c examples/dfu/CMakeFiles/dfu_nrf51422_xxAC_s130_2.0.1.dir/__/__/mesh/serial/src/serial_handler_access.c.obj
 .text.model_pub_period_get
                0x0001e6fa       0x24 examples/dfu/CMakeFiles/dfu_nrf51422_xxAC_s130_2.0.1.dir/__/__/mesh/serial/src/serial_handler_access.c.obj
 .text.model_pub_period_set
                0x0001e71e       0x28 examples/dfu/CMakeFiles/dfu_nrf51422_xxAC_s130_2.0.1.dir/__/__/mesh/serial/src/serial_handler_access.c.obj
 .text.model_pub_addr_get
                0x0001e746       0x20 examples/dfu/CMakeFiles/dfu_nrf51422_xxAC_s130_2.0.1.dir/__/__/mesh/serial/src/serial_handler_access.c.obj
 .text.model_pub_addr_set
                0x0001e766       0x2c examples/dfu/CMakeFiles/dfu_nrf51422_xxAC_s130_2.0.1.dir/__/__/mesh/serial/src/serial_handler_access.c.obj
 *fill*         0x0001e792        0x2 
 .text.serial_handler_access_rx
                0x0001e794       0x30 examples/dfu/CMakeFiles/dfu_nrf51422_xxAC_s130_2.0.1.dir/__/__/mesh/serial/src/serial_handler_access.c.obj
                0x0001e794                serial_handler_access_rx
 .text.serial_handler_config_rx
                0x0001e7c4       0xb0 examples/dfu/CMakeFiles/dfu_nrf51422_xxAC_s130_2.0.1.dir/__/__/mesh/serial/src/serial_handler_config.c.obj
                0x0001e7c4                serial_handler_config_rx
 .text.serial_handler_openmesh_rx
                0x0001e874       0x32 examples/dfu/CMakeFiles/dfu_nrf51422_xxAC_s130_2.0.1.dir/__/__/mesh/serial/src/serial_handler_openmesh.c.obj
                0x0001e874                serial_handler_openmesh_rx
 *fill*         0x0001e8a6        0x2 
 .text.serial_init
                0x0001e8a8       0x1c examples/dfu/CMakeFiles/dfu_nrf51422_xxAC_s130_2.0.1.dir/__/__/mesh/serial/src/serial.c.obj
                0x0001e8a8                serial_init
 .text.serial_packet_buffer_get
                0x0001e8c4       0x1c examples/dfu/CMakeFiles/dfu_nrf51422_xxAC_s130_2.0.1.dir/__/__/mesh/serial/src/serial.c.obj
                0x0001e8c4                serial_packet_buffer_get
 .text.serial_tx
                0x0001e8e0       0x2c examples/dfu/CMakeFiles/dfu_nrf51422_xxAC_s130_2.0.1.dir/__/__/mesh/serial/src/serial.c.obj
                0x0001e8e0                serial_tx
 .text.serial_start
                0x0001e90c      0x10c examples/dfu/CMakeFiles/dfu_nrf51422_xxAC_s130_2.0.1.dir/__/__/mesh/serial/src/serial.c.obj
                0x0001e90c                serial_start
 .text.serial_process_cmd
                0x0001ea18      0x128 examples/dfu/CMakeFiles/dfu_nrf51422_xxAC_s130_2.0.1.dir/__/__/mesh/serial/src/serial.c.obj
 .text.serial_process
                0x0001eb40       0x34 examples/dfu/CMakeFiles/dfu_nrf51422_xxAC_s130_2.0.1.dir/__/__/mesh/serial/src/serial.c.obj
                0x0001eb40                serial_process
 .text.serial_translate_error
                0x0001eb74       0x74 examples/dfu/CMakeFiles/dfu_nrf51422_xxAC_s130_2.0.1.dir/__/__/mesh/serial/src/serial.c.obj
                0x0001eb74                serial_translate_error
 .text.serial_state_get
                0x0001ebe8        0xc examples/dfu/CMakeFiles/dfu_nrf51422_xxAC_s130_2.0.1.dir/__/__/mesh/serial/src/serial.c.obj
                0x0001ebe8                serial_state_get
 .text.serial_cmd_rsp_send
                0x0001ebf4       0x6c examples/dfu/CMakeFiles/dfu_nrf51422_xxAC_s130_2.0.1.dir/__/__/mesh/serial/src/serial.c.obj
                0x0001ebf4                serial_cmd_rsp_send
 .text.find_context_id
                0x0001ec60       0x20 examples/dfu/CMakeFiles/dfu_nrf51422_xxAC_s130_2.0.1.dir/__/__/mesh/serial/src/serial_handler_prov.c.obj
 .text.serial_handler_prov_evt_in
                0x0001ec80      0x2bc examples/dfu/CMakeFiles/dfu_nrf51422_xxAC_s130_2.0.1.dir/__/__/mesh/serial/src/serial_handler_prov.c.obj
 .text.serial_handler_prov_init
                0x0001ef3c       0xec examples/dfu/CMakeFiles/dfu_nrf51422_xxAC_s130_2.0.1.dir/__/__/mesh/serial/src/serial_handler_prov.c.obj
                0x0001ef3c                serial_handler_prov_init
 .text.serial_handler_prov_pkt_in
                0x0001f028      0x25c examples/dfu/CMakeFiles/dfu_nrf51422_xxAC_s130_2.0.1.dir/__/__/mesh/serial/src/serial_handler_prov.c.obj
                0x0001f028                serial_handler_prov_pkt_in
 .text.serial_handler_mesh_evt_handle
                0x0001f284      0x1b8 examples/dfu/CMakeFiles/dfu_nrf51422_xxAC_s130_2.0.1.dir/__/__/mesh/serial/src/serial_handler_dfu.c.obj
 .text.serial_handler_dfu_init
                0x0001f43c       0x18 examples/dfu/CMakeFiles/dfu_nrf51422_xxAC_s130_2.0.1.dir/__/__/mesh/serial/src/serial_handler_dfu.c.obj
                0x0001f43c                serial_handler_dfu_init
 .text.serial_handler_dfu_rx
                0x0001f454      0x158 examples/dfu/CMakeFiles/dfu_nrf51422_xxAC_s130_2.0.1.dir/__/__/mesh/serial/src/serial_handler_dfu.c.obj
                0x0001f454                serial_handler_dfu_rx
 .text.serial_handler_mesh_evt_handle
                0x0001f5ac      0x158 examples/dfu/CMakeFiles/dfu_nrf51422_xxAC_s130_2.0.1.dir/__/__/mesh/serial/src/serial_handler_mesh.c.obj
 .text.handle_cmd_clear
                0x0001f704       0x1e examples/dfu/CMakeFiles/dfu_nrf51422_xxAC_s130_2.0.1.dir/__/__/mesh/serial/src/serial_handler_mesh.c.obj
 .text.handle_cmd_packet_send
                0x0001f722       0x92 examples/dfu/CMakeFiles/dfu_nrf51422_xxAC_s130_2.0.1.dir/__/__/mesh/serial/src/serial_handler_mesh.c.obj
 .text.handle_cmd_addr_virtual_count_max_get
                0x0001f7b4       0x14 examples/dfu/CMakeFiles/dfu_nrf51422_xxAC_s130_2.0.1.dir/__/__/mesh/serial/src/serial_handler_mesh.c.obj
 .text.handle_cmd_appkey_count_max_get
                0x0001f7c8        0x8 examples/dfu/CMakeFiles/dfu_nrf51422_xxAC_s130_2.0.1.dir/__/__/mesh/serial/src/serial_handler_mesh.c.obj
 .text.handle_cmd_addr_nonvirtual_count_max_get
                0x0001f7d0       0x14 examples/dfu/CMakeFiles/dfu_nrf51422_xxAC_s130_2.0.1.dir/__/__/mesh/serial/src/serial_handler_mesh.c.obj
 .text.handle_cmd_addr_local_unicast_get
                0x0001f7e4       0x24 examples/dfu/CMakeFiles/dfu_nrf51422_xxAC_s130_2.0.1.dir/__/__/mesh/serial/src/serial_handler_mesh.c.obj
 .text.handle_cmd_devkey_count_max_get
                0x0001f808       0x14 examples/dfu/CMakeFiles/dfu_nrf51422_xxAC_s130_2.0.1.dir/__/__/mesh/serial/src/serial_handler_mesh.c.obj
 .text.handle_cmd_subnet_count_max_get
                0x0001f81c       0x14 examples/dfu/CMakeFiles/dfu_nrf51422_xxAC_s130_2.0.1.dir/__/__/mesh/serial/src/serial_handler_mesh.c.obj
 .text.handle_cmd_addr_get_all
                0x0001f830       0x26 examples/dfu/CMakeFiles/dfu_nrf51422_xxAC_s130_2.0.1.dir/__/__/mesh/serial/src/serial_handler_mesh.c.obj
 .text.handle_cmd_addr_get
                0x0001f856       0x68 examples/dfu/CMakeFiles/dfu_nrf51422_xxAC_s130_2.0.1.dir/__/__/mesh/serial/src/serial_handler_mesh.c.obj
 .text.handle_cmd_addr_publication_remove
                0x0001f8be       0x28 examples/dfu/CMakeFiles/dfu_nrf51422_xxAC_s130_2.0.1.dir/__/__/mesh/serial/src/serial_handler_mesh.c.obj
 .text.handle_cmd_addr_publication_add_virtual
                0x0001f8e6       0x22 examples/dfu/CMakeFiles/dfu_nrf51422_xxAC_s130_2.0.1.dir/__/__/mesh/serial/src/serial_handler_mesh.c.obj
 .text.handle_cmd_addr_publication_add
                0x0001f908       0x28 examples/dfu/CMakeFiles/dfu_nrf51422_xxAC_s130_2.0.1.dir/__/__/mesh/serial/src/serial_handler_mesh.c.obj
 .text.handle_cmd_addr_subscription_remove
                0x0001f930       0x28 examples/dfu/CMakeFiles/dfu_nrf51422_xxAC_s130_2.0.1.dir/__/__/mesh/serial/src/serial_handler_mesh.c.obj
 .text.handle_cmd_addr_subscription_add_virtual
                0x0001f958       0x22 examples/dfu/CMakeFiles/dfu_nrf51422_xxAC_s130_2.0.1.dir/__/__/mesh/serial/src/serial_handler_mesh.c.obj
 .text.handle_cmd_addr_subscription_add
                0x0001f97a       0x28 examples/dfu/CMakeFiles/dfu_nrf51422_xxAC_s130_2.0.1.dir/__/__/mesh/serial/src/serial_handler_mesh.c.obj
 .text.handle_cmd_addr_local_unicast_set
                0x0001f9a2       0x2c examples/dfu/CMakeFiles/dfu_nrf51422_xxAC_s130_2.0.1.dir/__/__/mesh/serial/src/serial_handler_mesh.c.obj
 .text.handle_cmd_devkey_delete
                0x0001f9ce       0x28 examples/dfu/CMakeFiles/dfu_nrf51422_xxAC_s130_2.0.1.dir/__/__/mesh/serial/src/serial_handler_mesh.c.obj
 .text.handle_cmd_devkey_add
                0x0001f9f6       0x2a examples/dfu/CMakeFiles/dfu_nrf51422_xxAC_s130_2.0.1.dir/__/__/mesh/serial/src/serial_handler_mesh.c.obj
 .text.handle_cmd_appkey_get_all
                0x0001fa20       0x3c examples/dfu/CMakeFiles/dfu_nrf51422_xxAC_s130_2.0.1.dir/__/__/mesh/serial/src/serial_handler_mesh.c.obj
 .text.handle_cmd_appkey_delete
                0x0001fa5c       0x28 examples/dfu/CMakeFiles/dfu_nrf51422_xxAC_s130_2.0.1.dir/__/__/mesh/serial/src/serial_handler_mesh.c.obj
 .text.handle_cmd_appkey_update
                0x0001fa84       0x2a examples/dfu/CMakeFiles/dfu_nrf51422_xxAC_s130_2.0.1.dir/__/__/mesh/serial/src/serial_handler_mesh.c.obj
 .text.handle_cmd_appkey_add
                0x0001faae       0x32 examples/dfu/CMakeFiles/dfu_nrf51422_xxAC_s130_2.0.1.dir/__/__/mesh/serial/src/serial_handler_mesh.c.obj
 .text.handle_cmd_subnet_get_all
                0x0001fae0       0x2c examples/dfu/CMakeFiles/dfu_nrf51422_xxAC_s130_2.0.1.dir/__/__/mesh/serial/src/serial_handler_mesh.c.obj
 .text.handle_cmd_subnet_delete
                0x0001fb0c       0x28 examples/dfu/CMakeFiles/dfu_nrf51422_xxAC_s130_2.0.1.dir/__/__/mesh/serial/src/serial_handler_mesh.c.obj
 .text.handle_cmd_subnet_update
                0x0001fb34       0x2a examples/dfu/CMakeFiles/dfu_nrf51422_xxAC_s130_2.0.1.dir/__/__/mesh/serial/src/serial_handler_mesh.c.obj
 .text.handle_cmd_subnet_add
                0x0001fb5e       0x2a examples/dfu/CMakeFiles/dfu_nrf51422_xxAC_s130_2.0.1.dir/__/__/mesh/serial/src/serial_handler_mesh.c.obj
 .text.handle_cmd_disable
                0x0001fb88       0x16 examples/dfu/CMakeFiles/dfu_nrf51422_xxAC_s130_2.0.1.dir/__/__/mesh/serial/src/serial_handler_mesh.c.obj
 .text.handle_cmd_enable
                0x0001fb9e       0x16 examples/dfu/CMakeFiles/dfu_nrf51422_xxAC_s130_2.0.1.dir/__/__/mesh/serial/src/serial_handler_mesh.c.obj
 .text.serial_handler_mesh_init
                0x0001fbb4       0x18 examples/dfu/CMakeFiles/dfu_nrf51422_xxAC_s130_2.0.1.dir/__/__/mesh/serial/src/serial_handler_mesh.c.obj
                0x0001fbb4                serial_handler_mesh_init
 .text.serial_handler_mesh_rx
                0x0001fbcc       0x7c examples/dfu/CMakeFiles/dfu_nrf51422_xxAC_s130_2.0.1.dir/__/__/mesh/serial/src/serial_handler_mesh.c.obj
                0x0001fbcc                serial_handler_mesh_rx
 .text.registered_model_get
                0x0001fc48       0x3c examples/dfu/CMakeFiles/dfu_nrf51422_xxAC_s130_2.0.1.dir/__/__/mesh/serial/src/serial_handler_models.c.obj
 .text.model_command
                0x0001fc84       0x64 examples/dfu/CMakeFiles/dfu_nrf51422_xxAC_s130_2.0.1.dir/__/__/mesh/serial/src/serial_handler_models.c.obj
 .text.model_init
                0x0001fce8       0x36 examples/dfu/CMakeFiles/dfu_nrf51422_xxAC_s130_2.0.1.dir/__/__/mesh/serial/src/serial_handler_models.c.obj
 *fill*         0x0001fd1e        0x2 
 .text.models_get
                0x0001fd20       0x80 examples/dfu/CMakeFiles/dfu_nrf51422_xxAC_s130_2.0.1.dir/__/__/mesh/serial/src/serial_handler_models.c.obj
 .text.serial_handler_models_rx
                0x0001fda0       0x30 examples/dfu/CMakeFiles/dfu_nrf51422_xxAC_s130_2.0.1.dir/__/__/mesh/serial/src/serial_handler_models.c.obj
                0x0001fda0                serial_handler_models_rx
 .text.handle_cmd_device_beacon_params_get
                0x0001fdd0       0x94 examples/dfu/CMakeFiles/dfu_nrf51422_xxAC_s130_2.0.1.dir/__/__/mesh/serial/src/serial_handler_device.c.obj
 .text.handle_cmd_device_fw_info_get
                0x0001fe64       0x10 examples/dfu/CMakeFiles/dfu_nrf51422_xxAC_s130_2.0.1.dir/__/__/mesh/serial/src/serial_handler_device.c.obj
 .text.handle_cmd_device_serial_version_get
                0x0001fe74       0x14 examples/dfu/CMakeFiles/dfu_nrf51422_xxAC_s130_2.0.1.dir/__/__/mesh/serial/src/serial_handler_device.c.obj
 .text.handle_cmd_device_beacon_params_set
                0x0001fe88       0x88 examples/dfu/CMakeFiles/dfu_nrf51422_xxAC_s130_2.0.1.dir/__/__/mesh/serial/src/serial_handler_device.c.obj
 .text.handle_cmd_device_beacon_stop
                0x0001ff10       0x40 examples/dfu/CMakeFiles/dfu_nrf51422_xxAC_s130_2.0.1.dir/__/__/mesh/serial/src/serial_handler_device.c.obj
 .text.handle_cmd_device_beacon_start
                0x0001ff50       0x68 examples/dfu/CMakeFiles/dfu_nrf51422_xxAC_s130_2.0.1.dir/__/__/mesh/serial/src/serial_handler_device.c.obj
 .text.handle_cmd_device_radio_reset
                0x0001ffb8       0x18 examples/dfu/CMakeFiles/dfu_nrf51422_xxAC_s130_2.0.1.dir/__/__/mesh/serial/src/serial_handler_device.c.obj
 .text.handle_cmd_device_internal_events_report
                0x0001ffd0       0x1c examples/dfu/CMakeFiles/dfu_nrf51422_xxAC_s130_2.0.1.dir/__/__/mesh/serial/src/serial_handler_device.c.obj
 .text.event_report_cb
                0x0001ffec       0x5c examples/dfu/CMakeFiles/dfu_nrf51422_xxAC_s130_2.0.1.dir/__/__/mesh/serial/src/serial_handler_device.c.obj
 .text.handle_cmd_device_echo
                0x00020048       0x40 examples/dfu/CMakeFiles/dfu_nrf51422_xxAC_s130_2.0.1.dir/__/__/mesh/serial/src/serial_handler_device.c.obj
 .text.serial_handler_device_init
                0x00020088       0x18 examples/dfu/CMakeFiles/dfu_nrf51422_xxAC_s130_2.0.1.dir/__/__/mesh/serial/src/serial_handler_device.c.obj
                0x00020088                serial_handler_device_init
 .text.serial_handler_device_rx
                0x000200a0       0x30 examples/dfu/CMakeFiles/dfu_nrf51422_xxAC_s130_2.0.1.dir/__/__/mesh/serial/src/serial_handler_device.c.obj
                0x000200a0                serial_handler_device_rx
 .text.nrf_mesh_serial_init
                0x000200d0       0x38 examples/dfu/CMakeFiles/dfu_nrf51422_xxAC_s130_2.0.1.dir/__/__/mesh/serial/src/nrf_mesh_serial.c.obj
                0x000200d0                nrf_mesh_serial_init
 .text.nrf_mesh_serial_enable
                0x00020108        0x8 examples/dfu/CMakeFiles/dfu_nrf51422_xxAC_s130_2.0.1.dir/__/__/mesh/serial/src/nrf_mesh_serial.c.obj
                0x00020108                nrf_mesh_serial_enable
 .text.serial_handler_app_cb_set
                0x00020110        0xc examples/dfu/CMakeFiles/dfu_nrf51422_xxAC_s130_2.0.1.dir/__/__/mesh/serial/src/serial_handler_app.c.obj
                0x00020110                serial_handler_app_cb_set
 .text.serial_handler_app_rx
                0x0002011c       0x30 examples/dfu/CMakeFiles/dfu_nrf51422_xxAC_s130_2.0.1.dir/__/__/mesh/serial/src/serial_handler_app.c.obj
                0x0002011c                serial_handler_app_rx
 .text.prov_provisioner_cb_link_closed
                0x0002014c       0x26 examples/dfu/CMakeFiles/dfu_nrf51422_xxAC_s130_2.0.1.dir/__/__/mesh/prov/src/prov_provisioner.c.obj
 .text.prov_provisioner_cb_link_established
                0x00020172       0x40 examples/dfu/CMakeFiles/dfu_nrf51422_xxAC_s130_2.0.1.dir/__/__/mesh/prov/src/prov_provisioner.c.obj
 .text.prov_provisioner_cb_ack_received
                0x000201b2       0x48 examples/dfu/CMakeFiles/dfu_nrf51422_xxAC_s130_2.0.1.dir/__/__/mesh/prov/src/prov_provisioner.c.obj
 .text.send_confirmation
                0x000201fa       0x28 examples/dfu/CMakeFiles/dfu_nrf51422_xxAC_s130_2.0.1.dir/__/__/mesh/prov/src/prov_provisioner.c.obj
 .text.request_authentication
                0x00020222       0x7e examples/dfu/CMakeFiles/dfu_nrf51422_xxAC_s130_2.0.1.dir/__/__/mesh/prov/src/prov_provisioner.c.obj
 .text.prov_provisioner_pkt_in
                0x000202a0      0x2d6 examples/dfu/CMakeFiles/dfu_nrf51422_xxAC_s130_2.0.1.dir/__/__/mesh/prov/src/prov_provisioner.c.obj
 *fill*         0x00020576        0x2 
 .text.prov_provisioner_provision
                0x00020578       0x48 examples/dfu/CMakeFiles/dfu_nrf51422_xxAC_s130_2.0.1.dir/__/__/mesh/prov/src/prov_provisioner.c.obj
                0x00020578                prov_provisioner_provision
 .text.prov_provisioner_oob_use
                0x000205c0       0x70 examples/dfu/CMakeFiles/dfu_nrf51422_xxAC_s130_2.0.1.dir/__/__/mesh/prov/src/prov_provisioner.c.obj
                0x000205c0                prov_provisioner_oob_use
 .text.prov_provisioner_auth_data
                0x00020630       0x40 examples/dfu/CMakeFiles/dfu_nrf51422_xxAC_s130_2.0.1.dir/__/__/mesh/prov/src/prov_provisioner.c.obj
                0x00020630                prov_provisioner_auth_data
 .text.prov_provisioner_shared_secret
                0x00020670       0x28 examples/dfu/CMakeFiles/dfu_nrf51422_xxAC_s130_2.0.1.dir/__/__/mesh/prov/src/prov_provisioner.c.obj
                0x00020670                prov_provisioner_shared_secret
 .text.complete_provisioning
                0x00020698       0x5c examples/dfu/CMakeFiles/dfu_nrf51422_xxAC_s130_2.0.1.dir/__/__/mesh/prov/src/prov_provisionee.c.obj
 .text.prov_provisionee_cb_link_established
                0x000206f4       0x20 examples/dfu/CMakeFiles/dfu_nrf51422_xxAC_s130_2.0.1.dir/__/__/mesh/prov/src/prov_provisionee.c.obj
 .text.prov_provisionee_cb_link_closed
                0x00020714       0x34 examples/dfu/CMakeFiles/dfu_nrf51422_xxAC_s130_2.0.1.dir/__/__/mesh/prov/src/prov_provisionee.c.obj
 .text.request_authentication
                0x00020748       0x7c examples/dfu/CMakeFiles/dfu_nrf51422_xxAC_s130_2.0.1.dir/__/__/mesh/prov/src/prov_provisionee.c.obj
 .text.send_failed
                0x000207c4       0x3a examples/dfu/CMakeFiles/dfu_nrf51422_xxAC_s130_2.0.1.dir/__/__/mesh/prov/src/prov_provisionee.c.obj
 .text.start_authentication
                0x000207fe       0x56 examples/dfu/CMakeFiles/dfu_nrf51422_xxAC_s130_2.0.1.dir/__/__/mesh/prov/src/prov_provisionee.c.obj
 .text.prov_provisionee_cb_ack_received
                0x00020854       0xb8 examples/dfu/CMakeFiles/dfu_nrf51422_xxAC_s130_2.0.1.dir/__/__/mesh/prov/src/prov_provisionee.c.obj
 .text.prov_provisionee_pkt_in
                0x0002090c      0x294 examples/dfu/CMakeFiles/dfu_nrf51422_xxAC_s130_2.0.1.dir/__/__/mesh/prov/src/prov_provisionee.c.obj
 .text.prov_provisionee_init
                0x00020ba0       0x30 examples/dfu/CMakeFiles/dfu_nrf51422_xxAC_s130_2.0.1.dir/__/__/mesh/prov/src/prov_provisionee.c.obj
                0x00020ba0                prov_provisionee_init
 .text.prov_provisionee_auth_data
                0x00020bd0       0x74 examples/dfu/CMakeFiles/dfu_nrf51422_xxAC_s130_2.0.1.dir/__/__/mesh/prov/src/prov_provisionee.c.obj
                0x00020bd0                prov_provisionee_auth_data
 .text.prov_provisionee_shared_secret
                0x00020c44       0x28 examples/dfu/CMakeFiles/dfu_nrf51422_xxAC_s130_2.0.1.dir/__/__/mesh/prov/src/prov_provisionee.c.obj
                0x00020c44                prov_provisionee_shared_secret
 .text.bearer_compare_callback
                0x00020c6c        0xe examples/dfu/CMakeFiles/dfu_nrf51422_xxAC_s130_2.0.1.dir/__/__/mesh/prov/src/nrf_mesh_prov.c.obj
 .text.nrf_mesh_prov_init
                0x00020c7a       0x3e examples/dfu/CMakeFiles/dfu_nrf51422_xxAC_s130_2.0.1.dir/__/__/mesh/prov/src/nrf_mesh_prov.c.obj
                0x00020c7a                nrf_mesh_prov_init
 .text.nrf_mesh_prov_bearer_add
                0x00020cb8       0x24 examples/dfu/CMakeFiles/dfu_nrf51422_xxAC_s130_2.0.1.dir/__/__/mesh/prov/src/nrf_mesh_prov.c.obj
                0x00020cb8                nrf_mesh_prov_bearer_add
 .text.nrf_mesh_prov_generate_keys
                0x00020cdc        0x8 examples/dfu/CMakeFiles/dfu_nrf51422_xxAC_s130_2.0.1.dir/__/__/mesh/prov/src/nrf_mesh_prov.c.obj
                0x00020cdc                nrf_mesh_prov_generate_keys
 .text.nrf_mesh_prov_listen
                0x00020ce4       0x36 examples/dfu/CMakeFiles/dfu_nrf51422_xxAC_s130_2.0.1.dir/__/__/mesh/prov/src/nrf_mesh_prov.c.obj
                0x00020ce4                nrf_mesh_prov_listen
 *fill*         0x00020d1a        0x2 
 .text.nrf_mesh_prov_provision
                0x00020d1c       0x64 examples/dfu/CMakeFiles/dfu_nrf51422_xxAC_s130_2.0.1.dir/__/__/mesh/prov/src/nrf_mesh_prov.c.obj
                0x00020d1c                nrf_mesh_prov_provision
 .text.nrf_mesh_prov_oob_use
                0x00020d80       0x18 examples/dfu/CMakeFiles/dfu_nrf51422_xxAC_s130_2.0.1.dir/__/__/mesh/prov/src/nrf_mesh_prov.c.obj
                0x00020d80                nrf_mesh_prov_oob_use
 .text.nrf_mesh_prov_auth_data_provide
                0x00020d98       0x18 examples/dfu/CMakeFiles/dfu_nrf51422_xxAC_s130_2.0.1.dir/__/__/mesh/prov/src/nrf_mesh_prov.c.obj
                0x00020d98                nrf_mesh_prov_auth_data_provide
 .text.nrf_mesh_prov_shared_secret_provide
                0x00020db0       0x18 examples/dfu/CMakeFiles/dfu_nrf51422_xxAC_s130_2.0.1.dir/__/__/mesh/prov/src/nrf_mesh_prov.c.obj
                0x00020db0                nrf_mesh_prov_shared_secret_provide
 .text.nrf_mesh_prov_scan_start
                0x00020dc8       0x12 examples/dfu/CMakeFiles/dfu_nrf51422_xxAC_s130_2.0.1.dir/__/__/mesh/prov/src/nrf_mesh_prov.c.obj
                0x00020dc8                nrf_mesh_prov_scan_start
 .text.nrf_mesh_prov_scan_stop
                0x00020dda        0x8 examples/dfu/CMakeFiles/dfu_nrf51422_xxAC_s130_2.0.1.dir/__/__/mesh/prov/src/nrf_mesh_prov.c.obj
                0x00020dda                nrf_mesh_prov_scan_stop
 *fill*         0x00020de2        0x2 
 .text.send_data
                0x00020de4       0x44 examples/dfu/CMakeFiles/dfu_nrf51422_xxAC_s130_2.0.1.dir/__/__/mesh/prov/src/provisioning.c.obj
 .text.prov_packet_length_valid
                0x00020e28       0x20 examples/dfu/CMakeFiles/dfu_nrf51422_xxAC_s130_2.0.1.dir/__/__/mesh/prov/src/provisioning.c.obj
                0x00020e28                prov_packet_length_valid
 .text.prov_tx_invite
                0x00020e48       0x24 examples/dfu/CMakeFiles/dfu_nrf51422_xxAC_s130_2.0.1.dir/__/__/mesh/prov/src/provisioning.c.obj
                0x00020e48                prov_tx_invite
 .text.prov_tx_capabilities
                0x00020e6c       0x1c examples/dfu/CMakeFiles/dfu_nrf51422_xxAC_s130_2.0.1.dir/__/__/mesh/prov/src/provisioning.c.obj
                0x00020e6c                prov_tx_capabilities
 .text.prov_tx_start
                0x00020e88       0x1e examples/dfu/CMakeFiles/dfu_nrf51422_xxAC_s130_2.0.1.dir/__/__/mesh/prov/src/provisioning.c.obj
                0x00020e88                prov_tx_start
 .text.prov_tx_public_key
                0x00020ea6       0x24 examples/dfu/CMakeFiles/dfu_nrf51422_xxAC_s130_2.0.1.dir/__/__/mesh/prov/src/provisioning.c.obj
                0x00020ea6                prov_tx_public_key
 .text.prov_tx_input_complete
                0x00020eca       0x10 examples/dfu/CMakeFiles/dfu_nrf51422_xxAC_s130_2.0.1.dir/__/__/mesh/prov/src/provisioning.c.obj
                0x00020eca                prov_tx_input_complete
 .text.prov_tx_confirmation
                0x00020eda       0x24 examples/dfu/CMakeFiles/dfu_nrf51422_xxAC_s130_2.0.1.dir/__/__/mesh/prov/src/provisioning.c.obj
                0x00020eda                prov_tx_confirmation
 .text.prov_tx_random
                0x00020efe       0x24 examples/dfu/CMakeFiles/dfu_nrf51422_xxAC_s130_2.0.1.dir/__/__/mesh/prov/src/provisioning.c.obj
                0x00020efe                prov_tx_random
 .text.prov_tx_complete
                0x00020f22       0x10 examples/dfu/CMakeFiles/dfu_nrf51422_xxAC_s130_2.0.1.dir/__/__/mesh/prov/src/provisioning.c.obj
                0x00020f22                prov_tx_complete
 .text.prov_tx_failed
                0x00020f32       0x14 examples/dfu/CMakeFiles/dfu_nrf51422_xxAC_s130_2.0.1.dir/__/__/mesh/prov/src/provisioning.c.obj
                0x00020f32                prov_tx_failed
 .text.prov_tx_data
                0x00020f46        0xa examples/dfu/CMakeFiles/dfu_nrf51422_xxAC_s130_2.0.1.dir/__/__/mesh/prov/src/provisioning.c.obj
                0x00020f46                prov_tx_data
 .text.prov_beacon_unprov_build
                0x00020f50       0x52 examples/dfu/CMakeFiles/dfu_nrf51422_xxAC_s130_2.0.1.dir/__/__/mesh/prov/src/prov_beacon.c.obj
                0x00020f50                prov_beacon_unprov_build
 *fill*         0x00020fa2        0x2 
 .text.prov_beacon_unprov_packet_in
                0x00020fa4       0xb0 examples/dfu/CMakeFiles/dfu_nrf51422_xxAC_s130_2.0.1.dir/__/__/mesh/prov/src/prov_beacon.c.obj
                0x00020fa4                prov_beacon_unprov_packet_in
 .text.prov_beacon_scan_start
                0x00021054       0x24 examples/dfu/CMakeFiles/dfu_nrf51422_xxAC_s130_2.0.1.dir/__/__/mesh/prov/src/prov_beacon.c.obj
                0x00021054                prov_beacon_scan_start
 .text.prov_beacon_scan_stop
                0x00021078        0xc examples/dfu/CMakeFiles/dfu_nrf51422_xxAC_s130_2.0.1.dir/__/__/mesh/prov/src/prov_beacon.c.obj
                0x00021078                prov_beacon_scan_stop
 .text.oob_gen_alphanumeric
                0x00021084       0x34 examples/dfu/CMakeFiles/dfu_nrf51422_xxAC_s130_2.0.1.dir/__/__/mesh/prov/src/prov_utils.c.obj
 .text.oob_gen_numeric
                0x000210b8       0x30 examples/dfu/CMakeFiles/dfu_nrf51422_xxAC_s130_2.0.1.dir/__/__/mesh/prov/src/prov_utils.c.obj
 .text.prov_utils_opt_get
                0x000210e8       0x1c examples/dfu/CMakeFiles/dfu_nrf51422_xxAC_s130_2.0.1.dir/__/__/mesh/prov/src/prov_utils.c.obj
                0x000210e8                prov_utils_opt_get
 .text.prov_utils_use_ecdh_offloading
                0x00021104        0xc examples/dfu/CMakeFiles/dfu_nrf51422_xxAC_s130_2.0.1.dir/__/__/mesh/prov/src/prov_utils.c.obj
                0x00021104                prov_utils_use_ecdh_offloading
 .text.prov_utils_authentication_values_derive
                0x00021110       0xac examples/dfu/CMakeFiles/dfu_nrf51422_xxAC_s130_2.0.1.dir/__/__/mesh/prov/src/prov_utils.c.obj
                0x00021110                prov_utils_authentication_values_derive
 .text.prov_utils_keys_generate
                0x000211bc       0x20 examples/dfu/CMakeFiles/dfu_nrf51422_xxAC_s130_2.0.1.dir/__/__/mesh/prov/src/prov_utils.c.obj
                0x000211bc                prov_utils_keys_generate
 .text.prov_utils_derive_keys
                0x000211dc       0xac examples/dfu/CMakeFiles/dfu_nrf51422_xxAC_s130_2.0.1.dir/__/__/mesh/prov/src/prov_utils.c.obj
                0x000211dc                prov_utils_derive_keys
 .text.prov_utils_calculate_shared_secret
                0x00021288       0x38 examples/dfu/CMakeFiles/dfu_nrf51422_xxAC_s130_2.0.1.dir/__/__/mesh/prov/src/prov_utils.c.obj
                0x00021288                prov_utils_calculate_shared_secret
 .text.prov_utils_generate_oob_data
                0x000212c0       0x8c examples/dfu/CMakeFiles/dfu_nrf51422_xxAC_s130_2.0.1.dir/__/__/mesh/prov/src/prov_utils.c.obj
                0x000212c0                prov_utils_generate_oob_data
 .text.prov_utils_confirmation_check
                0x0002134c       0x5c examples/dfu/CMakeFiles/dfu_nrf51422_xxAC_s130_2.0.1.dir/__/__/mesh/prov/src/prov_utils.c.obj
                0x0002134c                prov_utils_confirmation_check
 .text.link_timeout_cb
                0x000213a8       0x12 examples/dfu/CMakeFiles/dfu_nrf51422_xxAC_s130_2.0.1.dir/__/__/mesh/prov/src/prov_bearer_adv.c.obj
 *fill*         0x000213ba        0x2 
 .text.remove_active_bearer
                0x000213bc       0x68 examples/dfu/CMakeFiles/dfu_nrf51422_xxAC_s130_2.0.1.dir/__/__/mesh/prov/src/prov_bearer_adv.c.obj
 .text.close_link
                0x00021424       0x74 examples/dfu/CMakeFiles/dfu_nrf51422_xxAC_s130_2.0.1.dir/__/__/mesh/prov/src/prov_bearer_adv.c.obj
 .text.prov_bearer_adv_listen_stop
                0x00021498       0x40 examples/dfu/CMakeFiles/dfu_nrf51422_xxAC_s130_2.0.1.dir/__/__/mesh/prov/src/prov_bearer_adv.c.obj
 .text.send_packet
                0x000214d8       0x70 examples/dfu/CMakeFiles/dfu_nrf51422_xxAC_s130_2.0.1.dir/__/__/mesh/prov/src/prov_bearer_adv.c.obj
 .text.prov_buffer_tx
                0x00021548      0x168 examples/dfu/CMakeFiles/dfu_nrf51422_xxAC_s130_2.0.1.dir/__/__/mesh/prov/src/prov_bearer_adv.c.obj
 .text.send_link_close
                0x000216b0       0x28 examples/dfu/CMakeFiles/dfu_nrf51422_xxAC_s130_2.0.1.dir/__/__/mesh/prov/src/prov_bearer_adv.c.obj
 .text.prov_bearer_adv_link_close
                0x000216d8       0x80 examples/dfu/CMakeFiles/dfu_nrf51422_xxAC_s130_2.0.1.dir/__/__/mesh/prov/src/prov_bearer_adv.c.obj
 .text.send_transaction_ack
                0x00021758       0x24 examples/dfu/CMakeFiles/dfu_nrf51422_xxAC_s130_2.0.1.dir/__/__/mesh/prov/src/prov_bearer_adv.c.obj
 .text.send_link_ack
                0x0002177c       0x26 examples/dfu/CMakeFiles/dfu_nrf51422_xxAC_s130_2.0.1.dir/__/__/mesh/prov/src/prov_bearer_adv.c.obj
 .text.reset_timeout_timer
                0x000217a2       0x1a examples/dfu/CMakeFiles/dfu_nrf51422_xxAC_s130_2.0.1.dir/__/__/mesh/prov/src/prov_bearer_adv.c.obj
 .text.tx_complete_cb
                0x000217bc       0x24 examples/dfu/CMakeFiles/dfu_nrf51422_xxAC_s130_2.0.1.dir/__/__/mesh/prov/src/prov_bearer_adv.c.obj
 .text.tx_retry_cb
                0x000217e0       0xd4 examples/dfu/CMakeFiles/dfu_nrf51422_xxAC_s130_2.0.1.dir/__/__/mesh/prov/src/prov_bearer_adv.c.obj
 .text.add_active_bearer
                0x000218b4       0x88 examples/dfu/CMakeFiles/dfu_nrf51422_xxAC_s130_2.0.1.dir/__/__/mesh/prov/src/prov_bearer_adv.c.obj
 .text.prov_bearer_adv_link_open
                0x0002193c      0x100 examples/dfu/CMakeFiles/dfu_nrf51422_xxAC_s130_2.0.1.dir/__/__/mesh/prov/src/prov_bearer_adv.c.obj
 .text.async_process
                0x00021a3c       0x5c examples/dfu/CMakeFiles/dfu_nrf51422_xxAC_s130_2.0.1.dir/__/__/mesh/prov/src/prov_bearer_adv.c.obj
 .text.prov_bearer_adv_listen
                0x00021a98      0x100 examples/dfu/CMakeFiles/dfu_nrf51422_xxAC_s130_2.0.1.dir/__/__/mesh/prov/src/prov_bearer_adv.c.obj
 .text.calculate_3GPP_CRC
                0x00021b98       0x24 examples/dfu/CMakeFiles/dfu_nrf51422_xxAC_s130_2.0.1.dir/__/__/mesh/prov/src/prov_bearer_adv.c.obj
                0x00021b98                calculate_3GPP_CRC
 .text.prov_bearer_adv_tx
                0x00021bbc       0xc4 examples/dfu/CMakeFiles/dfu_nrf51422_xxAC_s130_2.0.1.dir/__/__/mesh/prov/src/prov_bearer_adv.c.obj
 .text.prov_buffer_rx
                0x00021c80       0x80 examples/dfu/CMakeFiles/dfu_nrf51422_xxAC_s130_2.0.1.dir/__/__/mesh/prov/src/prov_bearer_adv.c.obj
 .text.nrf_mesh_prov_bearer_adv_interface_get
                0x00021d00       0x4c examples/dfu/CMakeFiles/dfu_nrf51422_xxAC_s130_2.0.1.dir/__/__/mesh/prov/src/prov_bearer_adv.c.obj
                0x00021d00                nrf_mesh_prov_bearer_adv_interface_get
 .text.prov_bearer_adv_packet_in
                0x00021d4c      0x8b4 examples/dfu/CMakeFiles/dfu_nrf51422_xxAC_s130_2.0.1.dir/__/__/mesh/prov/src/prov_bearer_adv.c.obj
                0x00021d4c                prov_bearer_adv_packet_in
 .text.tx_complete_cb
                0x00022600        0x2 examples/dfu/CMakeFiles/dfu_nrf51422_xxAC_s130_2.0.1.dir/__/__/mesh/dfu/src/nrf_mesh_dfu.c.obj
 *fill*         0x00022602        0x2 
 .text.reset_transfer_state
                0x00022604       0x24 examples/dfu/CMakeFiles/dfu_nrf51422_xxAC_s130_2.0.1.dir/__/__/mesh/dfu/src/nrf_mesh_dfu.c.obj
 .text.end_transfer
                0x00022628       0x38 examples/dfu/CMakeFiles/dfu_nrf51422_xxAC_s130_2.0.1.dir/__/__/mesh/dfu/src/nrf_mesh_dfu.c.obj
 .text.dfu_evt_handler
                0x00022660      0x81c examples/dfu/CMakeFiles/dfu_nrf51422_xxAC_s130_2.0.1.dir/__/__/mesh/dfu/src/nrf_mesh_dfu.c.obj
 .text.next_tx_timeout
                0x00022e7c       0x68 examples/dfu/CMakeFiles/dfu_nrf51422_xxAC_s130_2.0.1.dir/__/__/mesh/dfu/src/nrf_mesh_dfu.c.obj
 .text.tx_timeout
                0x00022ee4      0x118 examples/dfu/CMakeFiles/dfu_nrf51422_xxAC_s130_2.0.1.dir/__/__/mesh/dfu/src/nrf_mesh_dfu.c.obj
 .text.nrf_mesh_dfu_jump_to_bootloader
                0x00022ffc       0x40 examples/dfu/CMakeFiles/dfu_nrf51422_xxAC_s130_2.0.1.dir/__/__/mesh/dfu/src/nrf_mesh_dfu.c.obj
                0x00022ffc                nrf_mesh_dfu_jump_to_bootloader
 .text.nrf_mesh_dfu_state_get
                0x0002303c       0x40 examples/dfu/CMakeFiles/dfu_nrf51422_xxAC_s130_2.0.1.dir/__/__/mesh/dfu/src/nrf_mesh_dfu.c.obj
                0x0002303c                nrf_mesh_dfu_state_get
 .text.nrf_mesh_dfu_cmd_send
                0x0002307c       0x9c examples/dfu/CMakeFiles/dfu_nrf51422_xxAC_s130_2.0.1.dir/__/__/mesh/dfu/src/nrf_mesh_dfu.c.obj
                0x0002307c                nrf_mesh_dfu_cmd_send
 .text.nrf_mesh_dfu_init
                0x00023118      0x164 examples/dfu/CMakeFiles/dfu_nrf51422_xxAC_s130_2.0.1.dir/__/__/mesh/dfu/src/nrf_mesh_dfu.c.obj
                0x00023118                nrf_mesh_dfu_init
 .text.flash_op_complete
                0x0002327c      0x16c examples/dfu/CMakeFiles/dfu_nrf51422_xxAC_s130_2.0.1.dir/__/__/mesh/dfu/src/nrf_mesh_dfu.c.obj
 .text.abort_timeout
                0x000233e8       0x84 examples/dfu/CMakeFiles/dfu_nrf51422_xxAC_s130_2.0.1.dir/__/__/mesh/dfu/src/nrf_mesh_dfu.c.obj
 .text.timer_timeout
                0x0002346c       0x80 examples/dfu/CMakeFiles/dfu_nrf51422_xxAC_s130_2.0.1.dir/__/__/mesh/dfu/src/nrf_mesh_dfu.c.obj
 .text.nrf_mesh_dfu_rx
                0x000234ec       0xec examples/dfu/CMakeFiles/dfu_nrf51422_xxAC_s130_2.0.1.dir/__/__/mesh/dfu/src/nrf_mesh_dfu.c.obj
                0x000234ec                nrf_mesh_dfu_rx
 .text.nrf_mesh_dfu_request
                0x000235d8       0x90 examples/dfu/CMakeFiles/dfu_nrf51422_xxAC_s130_2.0.1.dir/__/__/mesh/dfu/src/nrf_mesh_dfu.c.obj
                0x000235d8                nrf_mesh_dfu_request
 .text.nrf_mesh_dfu_relay
                0x00023668       0x5c examples/dfu/CMakeFiles/dfu_nrf51422_xxAC_s130_2.0.1.dir/__/__/mesh/dfu/src/nrf_mesh_dfu.c.obj
                0x00023668                nrf_mesh_dfu_relay
 .text.nrf_mesh_dfu_abort
                0x000236c4       0x2c examples/dfu/CMakeFiles/dfu_nrf51422_xxAC_s130_2.0.1.dir/__/__/mesh/dfu/src/nrf_mesh_dfu.c.obj
                0x000236c4                nrf_mesh_dfu_abort
 .text.nrf_mesh_dfu_bank_info_get
                0x000236f0       0x2c examples/dfu/CMakeFiles/dfu_nrf51422_xxAC_s130_2.0.1.dir/__/__/mesh/dfu/src/nrf_mesh_dfu.c.obj
                0x000236f0                nrf_mesh_dfu_bank_info_get
 .text.nrf_mesh_dfu_bank_flash
                0x0002371c       0x24 examples/dfu/CMakeFiles/dfu_nrf51422_xxAC_s130_2.0.1.dir/__/__/mesh/dfu/src/nrf_mesh_dfu.c.obj
                0x0002371c                nrf_mesh_dfu_bank_flash
 .text.SystemInit
                0x00023740       0xe0 examples/dfu/CMakeFiles/dfu_nrf51422_xxAC_s130_2.0.1.dir/__/__/external/nRF5_SDK_14.2.0_17b948a/components/toolchain/system_nrf51.c.obj
                0x00023740                SystemInit
 .text          0x00023820       0x4c examples/dfu/CMakeFiles/dfu_nrf51422_xxAC_s130_2.0.1.dir/__/__/external/nRF5_SDK_14.2.0_17b948a/components/toolchain/gcc/gcc_startup_nrf51.S.obj
                0x00023820                Reset_Handler
                0x00023860                NMI_Handler
                0x00023864                SVC_Handler
                0x00023866                PendSV_Handler
                0x00023868                SysTick_Handler
                0x0002386a                GPIOTE_IRQHandler
                0x0002386a                RTC0_IRQHandler
                0x0002386a                POWER_CLOCK_IRQHandler
                0x0002386a                RADIO_IRQHandler
                0x0002386a                LPCOMP_IRQHandler
                0x0002386a                SWI4_IRQHandler
                0x0002386a                TEMP_IRQHandler
                0x0002386a                SPI0_TWI0_IRQHandler
                0x0002386a                TIMER0_IRQHandler
                0x0002386a                TIMER2_IRQHandler
                0x0002386a                SWI0_IRQHandler
                0x0002386a                TIMER1_IRQHandler
                0x0002386a                ECB_IRQHandler
                0x0002386a                Default_Handler
                0x0002386a                ADC_IRQHandler
                0x0002386a                SWI3_IRQHandler
                0x0002386a                CCM_AAR_IRQHandler
                0x0002386a                WDT_IRQHandler
                0x0002386a                SWI5_IRQHandler
                0x0002386a                RNG_IRQHandler
                0x0002386a                SPI1_TWI1_IRQHandler
                0x0002386a                RTC1_IRQHandler
                0x0002386a                SWI1_IRQHandler
 .text.internal_event_init
                0x0002386c       0x40 mesh/core/libmesh_core_nrf51422_xxAC.a(internal_event.c.obj)
                0x0002386c                internal_event_init
 .text.internal_event_push
                0x000238ac       0x30 mesh/core/libmesh_core_nrf51422_xxAC.a(internal_event.c.obj)
                0x000238ac                internal_event_push
 .text.nrf_mesh_configure_device_uuid_set
                0x000238dc       0x14 mesh/core/libmesh_core_nrf51422_xxAC.a(nrf_mesh_configure.c.obj)
                0x000238dc                nrf_mesh_configure_device_uuid_set
 .text.nrf_mesh_configure_device_uuid_reset
                0x000238f0       0x28 mesh/core/libmesh_core_nrf51422_xxAC.a(nrf_mesh_configure.c.obj)
                0x000238f0                nrf_mesh_configure_device_uuid_reset
 .text.nrf_mesh_configure_device_uuid_get
                0x00023918        0x8 mesh/core/libmesh_core_nrf51422_xxAC.a(nrf_mesh_configure.c.obj)
                0x00023918                nrf_mesh_configure_device_uuid_get
 .text.event_handle
                0x00023920       0x34 mesh/core/libmesh_core_nrf51422_xxAC.a(event.c.obj)
                0x00023920                event_handle
 .text.event_handler_add
                0x00023954       0x28 mesh/core/libmesh_core_nrf51422_xxAC.a(event.c.obj)
                0x00023954                event_handler_add
 .text.event_handler_remove
                0x0002397c       0x28 mesh/core/libmesh_core_nrf51422_xxAC.a(event.c.obj)
                0x0002397c                event_handler_remove
 .text.m_adjust_desired_packet_length
                0x000239a4       0x34 mesh/core/libmesh_core_nrf51422_xxAC.a(packet_buffer.c.obj)
 .text.m_index_increment.part.0
                0x000239d8       0x18 mesh/core/libmesh_core_nrf51422_xxAC.a(packet_buffer.c.obj)
 .text.m_free_popped_packet
                0x000239f0       0x64 mesh/core/libmesh_core_nrf51422_xxAC.a(packet_buffer.c.obj)
 .text.free_skipped_packets
                0x00023a54       0x1c mesh/core/libmesh_core_nrf51422_xxAC.a(packet_buffer.c.obj)
 .text.packet_buffer_max_packet_len_get
                0x00023a70       0x38 mesh/core/libmesh_core_nrf51422_xxAC.a(packet_buffer.c.obj)
                0x00023a70                packet_buffer_max_packet_len_get
 .text.packet_buffer_init
                0x00023aa8       0xe0 mesh/core/libmesh_core_nrf51422_xxAC.a(packet_buffer.c.obj)
                0x00023aa8                packet_buffer_init
 .text.packet_buffer_flush
                0x00023b88       0x60 mesh/core/libmesh_core_nrf51422_xxAC.a(packet_buffer.c.obj)
                0x00023b88                packet_buffer_flush
 .text.packet_buffer_reserve
                0x00023be8      0x11c mesh/core/libmesh_core_nrf51422_xxAC.a(packet_buffer.c.obj)
                0x00023be8                packet_buffer_reserve
 .text.packet_buffer_commit
                0x00023d04      0x10c mesh/core/libmesh_core_nrf51422_xxAC.a(packet_buffer.c.obj)
                0x00023d04                packet_buffer_commit
 .text.packet_buffer_pop
                0x00023e10       0x64 mesh/core/libmesh_core_nrf51422_xxAC.a(packet_buffer.c.obj)
                0x00023e10                packet_buffer_pop
 .text.packet_buffer_can_pop
                0x00023e74       0x2c mesh/core/libmesh_core_nrf51422_xxAC.a(packet_buffer.c.obj)
                0x00023e74                packet_buffer_can_pop
 .text.packet_buffer_packets_ready_to_pop
                0x00023ea0       0x58 mesh/core/libmesh_core_nrf51422_xxAC.a(packet_buffer.c.obj)
                0x00023ea0                packet_buffer_packets_ready_to_pop
 .text.packet_buffer_free
                0x00023ef8       0x94 mesh/core/libmesh_core_nrf51422_xxAC.a(packet_buffer.c.obj)
                0x00023ef8                packet_buffer_free
 .text.fifo_init
                0x00023f8c       0x5c mesh/core/libmesh_core_nrf51422_xxAC.a(fifo.c.obj)
                0x00023f8c                fifo_init
 .text.fifo_push
                0x00023fe8       0x5c mesh/core/libmesh_core_nrf51422_xxAC.a(fifo.c.obj)
                0x00023fe8                fifo_push
 .text.fifo_pop
                0x00024044       0x5c mesh/core/libmesh_core_nrf51422_xxAC.a(fifo.c.obj)
                0x00024044                fifo_pop
 .text.flash_mem_available
                0x000240a0       0x20 mesh/core/libmesh_core_nrf51422_xxAC.a(net_state.c.obj)
 .text.flash_store_iv_index
                0x000240c0       0x34 mesh/core/libmesh_core_nrf51422_xxAC.a(net_state.c.obj)
 .text.seqnum_block_allocate
                0x000240f4       0x50 mesh/core/libmesh_core_nrf51422_xxAC.a(net_state.c.obj)
 .text.net_state_reset
                0x00024144       0x3c mesh/core/libmesh_core_nrf51422_xxAC.a(net_state.c.obj)
                0x00024144                net_state_reset
 .text.flash_write_complete
                0x00024180       0x80 mesh/core/libmesh_core_nrf51422_xxAC.a(net_state.c.obj)
 .text.net_state_recover_from_flash
                0x00024200       0x94 mesh/core/libmesh_core_nrf51422_xxAC.a(net_state.c.obj)
                0x00024200                net_state_recover_from_flash
 .text.net_state_flash_area_get
                0x00024294       0x10 mesh/core/libmesh_core_nrf51422_xxAC.a(net_state.c.obj)
                0x00024294                net_state_flash_area_get
 .text.init_flash_storage
                0x000242a4       0x40 mesh/core/libmesh_core_nrf51422_xxAC.a(net_state.c.obj)
 .text.net_state_init
                0x000242e4       0x48 mesh/core/libmesh_core_nrf51422_xxAC.a(net_state.c.obj)
                0x000242e4                net_state_init
 .text.net_state_iv_update_start
                0x0002432c       0x64 mesh/core/libmesh_core_nrf51422_xxAC.a(net_state.c.obj)
                0x0002432c                net_state_iv_update_start
 .text.iv_update_trigger_if_pending
                0x00024390       0x94 mesh/core/libmesh_core_nrf51422_xxAC.a(net_state.c.obj)
 .text.iv_update_timer_handler
                0x00024424       0x80 mesh/core/libmesh_core_nrf51422_xxAC.a(net_state.c.obj)
 .text.net_state_seqnum_alloc
                0x000244a4       0x68 mesh/core/libmesh_core_nrf51422_xxAC.a(net_state.c.obj)
                0x000244a4                net_state_seqnum_alloc
 .text.net_state_iv_index_lock
                0x0002450c       0x4c mesh/core/libmesh_core_nrf51422_xxAC.a(net_state.c.obj)
                0x0002450c                net_state_iv_index_lock
 .text.net_state_key_refresh_phase_changed
                0x00024558       0x18 mesh/core/libmesh_core_nrf51422_xxAC.a(net_state.c.obj)
                0x00024558                net_state_key_refresh_phase_changed
 .text.net_state_beacon_received
                0x00024570       0x98 mesh/core/libmesh_core_nrf51422_xxAC.a(net_state.c.obj)
                0x00024570                net_state_beacon_received
 .text.net_state_beacon_iv_index_get
                0x00024608        0xc mesh/core/libmesh_core_nrf51422_xxAC.a(net_state.c.obj)
                0x00024608                net_state_beacon_iv_index_get
 .text.net_state_tx_iv_index_get
                0x00024614       0x14 mesh/core/libmesh_core_nrf51422_xxAC.a(net_state.c.obj)
                0x00024614                net_state_tx_iv_index_get
 .text.net_state_rx_iv_index_get
                0x00024628       0x14 mesh/core/libmesh_core_nrf51422_xxAC.a(net_state.c.obj)
                0x00024628                net_state_rx_iv_index_get
 .text.net_state_iv_update_get
                0x0002463c        0xc mesh/core/libmesh_core_nrf51422_xxAC.a(net_state.c.obj)
                0x0002463c                net_state_iv_update_get
 .text.send_end_events
                0x00024648       0x80 mesh/core/libmesh_core_nrf51422_xxAC.a(mesh_flash.c.obj)
 .text.flash_op_schedule
                0x000246c8       0xa0 mesh/core/libmesh_core_nrf51422_xxAC.a(mesh_flash.c.obj)
 .text.flash_op_start
                0x00024768      0x178 mesh/core/libmesh_core_nrf51422_xxAC.a(mesh_flash.c.obj)
 .text.mesh_flash_init
                0x000248e0       0x94 mesh/core/libmesh_core_nrf51422_xxAC.a(mesh_flash.c.obj)
                0x000248e0                mesh_flash_init
 .text.mesh_flash_user_callback_set
                0x00024974       0x30 mesh/core/libmesh_core_nrf51422_xxAC.a(mesh_flash.c.obj)
                0x00024974                mesh_flash_user_callback_set
 .text.mesh_flash_op_push
                0x000249a4      0x140 mesh/core/libmesh_core_nrf51422_xxAC.a(mesh_flash.c.obj)
                0x000249a4                mesh_flash_op_push
 .text.mesh_flash_in_progress
                0x00024ae4       0x38 mesh/core/libmesh_core_nrf51422_xxAC.a(mesh_flash.c.obj)
                0x00024ae4                mesh_flash_in_progress
 .text.mesh_flash_set_suspended
                0x00024b1c       0x90 mesh/core/libmesh_core_nrf51422_xxAC.a(mesh_flash.c.obj)
                0x00024b1c                mesh_flash_set_suspended
 .text.nrf_mesh_address_type_get
                0x00024bac       0x14 mesh/core/libmesh_core_nrf51422_xxAC.a(nrf_mesh_utils.c.obj)
                0x00024bac                nrf_mesh_address_type_get
 .text.sd_softdevice_is_enabled
                0x00024bc0        0x4 mesh/core/libmesh_core_nrf51422_xxAC.a(nrf_mesh.c.obj)
 .text.nrf_mesh_listen
                0x00024bc4      0x138 mesh/core/libmesh_core_nrf51422_xxAC.a(nrf_mesh.c.obj)
 .text.scanner_packet_process_cb
                0x00024cfc       0x84 mesh/core/libmesh_core_nrf51422_xxAC.a(nrf_mesh.c.obj)
 .text.nrf_mesh_init
                0x00024d80       0xd8 mesh/core/libmesh_core_nrf51422_xxAC.a(nrf_mesh.c.obj)
                0x00024d80                nrf_mesh_init
 .text.nrf_mesh_enable
                0x00024e58       0x4c mesh/core/libmesh_core_nrf51422_xxAC.a(nrf_mesh.c.obj)
                0x00024e58                nrf_mesh_enable
 .text.nrf_mesh_disable
                0x00024ea4       0x28 mesh/core/libmesh_core_nrf51422_xxAC.a(nrf_mesh.c.obj)
                0x00024ea4                nrf_mesh_disable
 .text.nrf_mesh_packet_send
                0x00024ecc        0x8 mesh/core/libmesh_core_nrf51422_xxAC.a(nrf_mesh.c.obj)
                0x00024ecc                nrf_mesh_packet_send
 .text.nrf_mesh_on_ble_evt
                0x00024ed4        0x4 mesh/core/libmesh_core_nrf51422_xxAC.a(nrf_mesh.c.obj)
                0x00024ed4                nrf_mesh_on_ble_evt
 .text.nrf_mesh_on_sd_evt
                0x00024ed8        0xa mesh/core/libmesh_core_nrf51422_xxAC.a(nrf_mesh.c.obj)
                0x00024ed8                nrf_mesh_on_sd_evt
 .text.nrf_mesh_evt_handler_add
                0x00024ee2        0x8 mesh/core/libmesh_core_nrf51422_xxAC.a(nrf_mesh.c.obj)
                0x00024ee2                nrf_mesh_evt_handler_add
 .text.sd_power_reset_reason_clr
                0x00024eea        0x4 mesh/core/libmesh_core_nrf51422_xxAC.a(hal.c.obj)
 .text.sd_power_gpregret_set
                0x00024eee        0x4 mesh/core/libmesh_core_nrf51422_xxAC.a(hal.c.obj)
 *fill*         0x00024ef2        0x2 
 .text.hal_device_reset
                0x00024ef4       0x2c mesh/core/libmesh_core_nrf51422_xxAC.a(hal.c.obj)
                0x00024ef4                hal_device_reset
 .text.hal_lfclk_ppm_get
                0x00024f20       0x14 mesh/core/libmesh_core_nrf51422_xxAC.a(hal.c.obj)
                0x00024f20                hal_lfclk_ppm_get
 .text.add_to_add_list
                0x00024f34       0x4c mesh/core/libmesh_core_nrf51422_xxAC.a(timer_scheduler.c.obj)
 .text.process_dirty_events
                0x00024f80       0x64 mesh/core/libmesh_core_nrf51422_xxAC.a(timer_scheduler.c.obj)
 .text.timer_cb
                0x00024fe4       0x10 mesh/core/libmesh_core_nrf51422_xxAC.a(timer_scheduler.c.obj)
 .text.add_evt.constprop.0
                0x00024ff4       0x70 mesh/core/libmesh_core_nrf51422_xxAC.a(timer_scheduler.c.obj)
 .text.process_add_list
                0x00025064       0x4c mesh/core/libmesh_core_nrf51422_xxAC.a(timer_scheduler.c.obj)
 .text.flag_event_cb
                0x000250b0      0x108 mesh/core/libmesh_core_nrf51422_xxAC.a(timer_scheduler.c.obj)
 .text.timer_sch_init
                0x000251b8       0x24 mesh/core/libmesh_core_nrf51422_xxAC.a(timer_scheduler.c.obj)
                0x000251b8                timer_sch_init
 .text.timer_sch_schedule
                0x000251dc       0x54 mesh/core/libmesh_core_nrf51422_xxAC.a(timer_scheduler.c.obj)
                0x000251dc                timer_sch_schedule
 .text.timer_sch_abort
                0x00025230       0x68 mesh/core/libmesh_core_nrf51422_xxAC.a(timer_scheduler.c.obj)
                0x00025230                timer_sch_abort
 .text.timer_sch_reschedule
                0x00025298       0x78 mesh/core/libmesh_core_nrf51422_xxAC.a(timer_scheduler.c.obj)
                0x00025298                timer_sch_reschedule
 .text.timer_mut_unlock
                0x00025310       0x10 mesh/core/libmesh_core_nrf51422_xxAC.a(timer.c.obj)
 .text.timer_order_cb
                0x00025320       0x90 mesh/core/libmesh_core_nrf51422_xxAC.a(timer.c.obj)
                0x00025320                timer_order_cb
 .text.timer_now
                0x000253b0       0x54 mesh/core/libmesh_core_nrf51422_xxAC.a(timer.c.obj)
                0x000253b0                timer_now
 .text.timer_event_handler
                0x00025404       0xa4 mesh/core/libmesh_core_nrf51422_xxAC.a(timer.c.obj)
                0x00025404                timer_event_handler
 .text.timer_on_ts_begin
                0x000254a8      0x104 mesh/core/libmesh_core_nrf51422_xxAC.a(timer.c.obj)
                0x000254a8                timer_on_ts_begin
 .text.timer_on_ts_end
                0x000255ac       0x64 mesh/core/libmesh_core_nrf51422_xxAC.a(timer.c.obj)
                0x000255ac                timer_on_ts_end
 .text.timer_cb
                0x00025610       0x10 mesh/core/libmesh_core_nrf51422_xxAC.a(ticker.c.obj)
 .text.ticker_init
                0x00025620       0x38 mesh/core/libmesh_core_nrf51422_xxAC.a(ticker.c.obj)
                0x00025620                ticker_init
 .text.sd_rand_application_bytes_available_get
                0x00025658        0x4 mesh/core/libmesh_core_nrf51422_xxAC.a(rand.c.obj)
 .text.sd_rand_application_vector_get
                0x0002565c        0x4 mesh/core/libmesh_core_nrf51422_xxAC.a(rand.c.obj)
 .text.rand_prng_get
                0x00025660       0x2e mesh/core/libmesh_core_nrf51422_xxAC.a(rand.c.obj)
                0x00025660                rand_prng_get
 *fill*         0x0002568e        0x2 
 .text.rand_hw_rng_get
                0x00025690       0x4c mesh/core/libmesh_core_nrf51422_xxAC.a(rand.c.obj)
                0x00025690                rand_hw_rng_get
 .text.rand_prng_seed
                0x000256dc       0x30 mesh/core/libmesh_core_nrf51422_xxAC.a(rand.c.obj)
                0x000256dc                rand_prng_seed
 .text.sd_radio_session_open
                0x0002570c        0x4 mesh/core/libmesh_core_nrf51422_xxAC.a(timeslot.c.obj)
 .text.sd_radio_session_close
                0x00025710        0x4 mesh/core/libmesh_core_nrf51422_xxAC.a(timeslot.c.obj)
 .text.sd_radio_request
                0x00025714        0x4 mesh/core/libmesh_core_nrf51422_xxAC.a(timeslot.c.obj)
 .text.end_timer_handler
                0x00025718       0x2c mesh/core/libmesh_core_nrf51422_xxAC.a(timeslot.c.obj)
 .text.get_end_time.constprop.10
                0x00025744       0x28 mesh/core/libmesh_core_nrf51422_xxAC.a(timeslot.c.obj)
 .text.handle_extend_end.constprop.3
                0x0002576c       0xc4 mesh/core/libmesh_core_nrf51422_xxAC.a(timeslot.c.obj)
 .text.radio_signal_callback
                0x00025830      0x160 mesh/core/libmesh_core_nrf51422_xxAC.a(timeslot.c.obj)
 .text.timeslot_sd_event_handler
                0x00025990       0x48 mesh/core/libmesh_core_nrf51422_xxAC.a(timeslot.c.obj)
                0x00025990                timeslot_sd_event_handler
 .text.timeslot_init
                0x000259d8       0x4c mesh/core/libmesh_core_nrf51422_xxAC.a(timeslot.c.obj)
                0x000259d8                timeslot_init
 .text.timeslot_start
                0x00025a24       0x1c mesh/core/libmesh_core_nrf51422_xxAC.a(timeslot.c.obj)
                0x00025a24                timeslot_start
 .text.timeslot_end_is_pending
                0x00025a40       0x2c mesh/core/libmesh_core_nrf51422_xxAC.a(timeslot.c.obj)
                0x00025a40                timeslot_end_is_pending
 .text.timeslot_start_time_get
                0x00025a6c        0xc mesh/core/libmesh_core_nrf51422_xxAC.a(timeslot.c.obj)
                0x00025a6c                timeslot_start_time_get
 .text.timeslot_remaining_time_get
                0x00025a78       0x24 mesh/core/libmesh_core_nrf51422_xxAC.a(timeslot.c.obj)
                0x00025a78                timeslot_remaining_time_get
 .text.timeslot_is_in_cb
                0x00025a9c        0xc mesh/core/libmesh_core_nrf51422_xxAC.a(timeslot.c.obj)
                0x00025a9c                timeslot_is_in_cb
 .text.timeslot_trigger
                0x00025aa8       0x28 mesh/core/libmesh_core_nrf51422_xxAC.a(timeslot.c.obj)
                0x00025aa8                timeslot_trigger
 .text.timeslot_stop
                0x00025ad0       0x14 mesh/core/libmesh_core_nrf51422_xxAC.a(timeslot.c.obj)
                0x00025ad0                timeslot_stop
 .text.timeslot_state_lock
                0x00025ae4       0x2c mesh/core/libmesh_core_nrf51422_xxAC.a(timeslot.c.obj)
                0x00025ae4                timeslot_state_lock
 .text.trigger_event_handler
                0x00025b10       0x1c mesh/core/libmesh_core_nrf51422_xxAC.a(bearer_event.c.obj)
 .text.evt_push
                0x00025b2c       0x20 mesh/core/libmesh_core_nrf51422_xxAC.a(bearer_event.c.obj)
 .text.bearer_event_init
                0x00025b4c       0x5c mesh/core/libmesh_core_nrf51422_xxAC.a(bearer_event.c.obj)
                0x00025b4c                bearer_event_init
 .text.bearer_event_generic_post
                0x00025ba8       0x34 mesh/core/libmesh_core_nrf51422_xxAC.a(bearer_event.c.obj)
                0x00025ba8                bearer_event_generic_post
 .text.bearer_event_timer_post
                0x00025bdc       0x34 mesh/core/libmesh_core_nrf51422_xxAC.a(bearer_event.c.obj)
                0x00025bdc                bearer_event_timer_post
 .text.bearer_event_critical_section_begin
                0x00025c10       0x54 mesh/core/libmesh_core_nrf51422_xxAC.a(bearer_event.c.obj)
                0x00025c10                bearer_event_critical_section_begin
 .text.bearer_event_critical_section_end
                0x00025c64       0x54 mesh/core/libmesh_core_nrf51422_xxAC.a(bearer_event.c.obj)
                0x00025c64                bearer_event_critical_section_end
 .text.bearer_event_flag_add
                0x00025cb8       0x54 mesh/core/libmesh_core_nrf51422_xxAC.a(bearer_event.c.obj)
                0x00025cb8                bearer_event_flag_add
 .text.bearer_event_flag_set
                0x00025d0c       0x50 mesh/core/libmesh_core_nrf51422_xxAC.a(bearer_event.c.obj)
                0x00025d0c                bearer_event_flag_set
 .text.bearer_event_sequential_add
                0x00025d5c       0x4c mesh/core/libmesh_core_nrf51422_xxAC.a(bearer_event.c.obj)
                0x00025d5c                bearer_event_sequential_add
 .text.bearer_event_sequential_post
                0x00025da8       0x60 mesh/core/libmesh_core_nrf51422_xxAC.a(bearer_event.c.obj)
                0x00025da8                bearer_event_sequential_post
 .text.bearer_event_sequential_pending
                0x00025e08       0x20 mesh/core/libmesh_core_nrf51422_xxAC.a(bearer_event.c.obj)
                0x00025e08                bearer_event_sequential_pending
 .text.bearer_event_handler
                0x00025e28       0xf8 mesh/core/libmesh_core_nrf51422_xxAC.a(bearer_event.c.obj)
                0x00025e28                bearer_event_handler
 .text.QDEC_IRQHandler
                0x00025f20        0x8 mesh/core/libmesh_core_nrf51422_xxAC.a(bearer_event.c.obj)
                0x00025f20                QDEC_IRQHandler
 .text.enc_aes_encrypt
                0x00025f28        0x8 mesh/core/libmesh_core_nrf51422_xxAC.a(enc.c.obj)
                0x00025f28                enc_aes_encrypt
 .text.enc_aes_cmac
                0x00025f30        0x8 mesh/core/libmesh_core_nrf51422_xxAC.a(enc.c.obj)
                0x00025f30                enc_aes_cmac
 .text.enc_aes_ccm_encrypt
                0x00025f38        0x8 mesh/core/libmesh_core_nrf51422_xxAC.a(enc.c.obj)
                0x00025f38                enc_aes_ccm_encrypt
 .text.enc_aes_ccm_decrypt
                0x00025f40        0x8 mesh/core/libmesh_core_nrf51422_xxAC.a(enc.c.obj)
                0x00025f40                enc_aes_ccm_decrypt
 .text.enc_nonce_generate
                0x00025f48       0xd8 mesh/core/libmesh_core_nrf51422_xxAC.a(enc.c.obj)
                0x00025f48                enc_nonce_generate
 .text.enc_s1   0x00026020       0x3c mesh/core/libmesh_core_nrf51422_xxAC.a(enc.c.obj)
                0x00026020                enc_s1
 .text.enc_k1   0x0002605c       0x58 mesh/core/libmesh_core_nrf51422_xxAC.a(enc.c.obj)
                0x0002605c                enc_k1
 .text.enc_k2   0x000260b4      0x110 mesh/core/libmesh_core_nrf51422_xxAC.a(enc.c.obj)
                0x000260b4                enc_k2
 .text.enc_k3   0x000261c4       0x70 mesh/core/libmesh_core_nrf51422_xxAC.a(enc.c.obj)
                0x000261c4                enc_k3
 .text.enc_k4   0x00026234       0x74 mesh/core/libmesh_core_nrf51422_xxAC.a(enc.c.obj)
                0x00026234                enc_k4
 .text.header_transfuscate
                0x000262a8       0x58 mesh/core/libmesh_core_nrf51422_xxAC.a(network.c.obj)
 .text.allocate_packet
                0x00026300      0x140 mesh/core/libmesh_core_nrf51422_xxAC.a(network.c.obj)
 .text.network_init
                0x00026440       0x2c mesh/core/libmesh_core_nrf51422_xxAC.a(network.c.obj)
                0x00026440                network_init
 .text.network_opt_get
                0x0002646c       0x4c mesh/core/libmesh_core_nrf51422_xxAC.a(network.c.obj)
                0x0002646c                network_opt_get
 .text.network_packet_alloc
                0x000264b8       0x58 mesh/core/libmesh_core_nrf51422_xxAC.a(network.c.obj)
                0x000264b8                network_packet_alloc
 .text.network_packet_send
                0x00026510      0x154 mesh/core/libmesh_core_nrf51422_xxAC.a(network.c.obj)
                0x00026510                network_packet_send
 .text.network_packet_in
                0x00026664      0x4e0 mesh/core/libmesh_core_nrf51422_xxAC.a(network.c.obj)
                0x00026664                network_packet_in
 .text.stage_get_available
                0x00026b44       0x26 mesh/core/libmesh_core_nrf51422_xxAC.a(msqueue.c.obj)
 *fill*         0x00026b6a        0x2 
 .text.msq_get  0x00026b6c       0x54 mesh/core/libmesh_core_nrf51422_xxAC.a(msqueue.c.obj)
                0x00026b6c                msq_get
 .text.msq_move
                0x00026bc0       0x4c mesh/core/libmesh_core_nrf51422_xxAC.a(msqueue.c.obj)
                0x00026bc0                msq_move
 .text.msq_reset
                0x00026c0c       0x30 mesh/core/libmesh_core_nrf51422_xxAC.a(msqueue.c.obj)
                0x00026c0c                msq_reset
 .text.msq_init
                0x00026c3c       0x88 mesh/core/libmesh_core_nrf51422_xxAC.a(msqueue.c.obj)
                0x00026c3c                msq_init
 .text.msq_available
                0x00026cc4       0x40 mesh/core/libmesh_core_nrf51422_xxAC.a(msqueue.c.obj)
                0x00026cc4                msq_available
 .text.nrf_mesh_keygen_aid
                0x00026d04       0x16 mesh/core/libmesh_core_nrf51422_xxAC.a(nrf_mesh_keygen.c.obj)
                0x00026d04                nrf_mesh_keygen_aid
 .text.nrf_mesh_keygen_network_secmat
                0x00026d1a       0x20 mesh/core/libmesh_core_nrf51422_xxAC.a(nrf_mesh_keygen.c.obj)
                0x00026d1a                nrf_mesh_keygen_network_secmat
 *fill*         0x00026d3a        0x2 
 .text.nrf_mesh_keygen_beacon_secmat
                0x00026d3c       0x54 mesh/core/libmesh_core_nrf51422_xxAC.a(nrf_mesh_keygen.c.obj)
                0x00026d3c                nrf_mesh_keygen_beacon_secmat
 .text.nrf_mesh_keygen_virtual_address
                0x00026d90       0x50 mesh/core/libmesh_core_nrf51422_xxAC.a(nrf_mesh_keygen.c.obj)
                0x00026d90                nrf_mesh_keygen_virtual_address
 .text.list_insert
                0x00026de0       0x30 mesh/core/libmesh_core_nrf51422_xxAC.a(list.c.obj)
 .text.list_add
                0x00026e10       0x68 mesh/core/libmesh_core_nrf51422_xxAC.a(list.c.obj)
                0x00026e10                list_add
 .text.list_remove
                0x00026e78       0x50 mesh/core/libmesh_core_nrf51422_xxAC.a(list.c.obj)
                0x00026e78                list_remove
 .text.list_compare_add
                0x00026ec8       0x84 mesh/core/libmesh_core_nrf51422_xxAC.a(list.c.obj)
                0x00026ec8                list_compare_add
 .text.log_callback_rtt
                0x00026f4c       0x28 mesh/core/libmesh_core_nrf51422_xxAC.a(log.c.obj)
                0x00026f4c                log_callback_rtt
 .text.log_init
                0x00026f74       0x1c mesh/core/libmesh_core_nrf51422_xxAC.a(log.c.obj)
                0x00026f74                log_init
 .text.log_vprintf
                0x00026f90       0x1c mesh/core/libmesh_core_nrf51422_xxAC.a(log.c.obj)
                0x00026f90                log_vprintf
 .text.log_printf
                0x00026fac       0x16 mesh/core/libmesh_core_nrf51422_xxAC.a(log.c.obj)
                0x00026fac                log_printf
 .text.get_area_end
                0x00026fc2        0xc mesh/core/libmesh_core_nrf51422_xxAC.a(flash_manager.c.obj)
 *fill*         0x00026fce        0x2 
 .text.handle_matches_filter
                0x00026fd0       0x28 mesh/core/libmesh_core_nrf51422_xxAC.a(flash_manager.c.obj)
 .text.get_packet_buffer
                0x00026ff8       0x30 mesh/core/libmesh_core_nrf51422_xxAC.a(flash_manager.c.obj)
 .text.get_entry_action
                0x00027028       0x30 mesh/core/libmesh_core_nrf51422_xxAC.a(flash_manager.c.obj)
 .text.flash_area_is_blank
                0x00027058       0x50 mesh/core/libmesh_core_nrf51422_xxAC.a(flash_manager.c.obj)
 .text.flash    0x000270a8       0x1e mesh/core/libmesh_core_nrf51422_xxAC.a(flash_manager.c.obj)
 *fill*         0x000270c6        0x2 
 .text.free_packet_buffer
                0x000270c8       0x4c mesh/core/libmesh_core_nrf51422_xxAC.a(flash_manager.c.obj)
 .text.reserve_action_buffer
                0x00027114       0x20 mesh/core/libmesh_core_nrf51422_xxAC.a(flash_manager.c.obj)
 .text.commit_action_buffer
                0x00027134       0x18 mesh/core/libmesh_core_nrf51422_xxAC.a(flash_manager.c.obj)
 .text.schedule_processing
                0x0002714c       0x10 mesh/core/libmesh_core_nrf51422_xxAC.a(flash_manager.c.obj)
 .text.get_next_entry
                0x0002715c       0x44 mesh/core/libmesh_core_nrf51422_xxAC.a(flash_manager.c.obj)
 .text.get_last_entry.isra.1
                0x000271a0       0x34 mesh/core/libmesh_core_nrf51422_xxAC.a(flash_manager.c.obj)
 .text.process_action_queue
                0x000271d4      0x4b0 mesh/core/libmesh_core_nrf51422_xxAC.a(flash_manager.c.obj)
 .text.flash_op_ended_callback
                0x00027684       0x24 mesh/core/libmesh_core_nrf51422_xxAC.a(flash_manager.c.obj)
 .text.flash_manager_init
                0x000276a8       0x68 mesh/core/libmesh_core_nrf51422_xxAC.a(flash_manager.c.obj)
                0x000276a8                flash_manager_init
 .text.flash_manager_remove
                0x00027710       0x24 mesh/core/libmesh_core_nrf51422_xxAC.a(flash_manager.c.obj)
                0x00027710                flash_manager_remove
 .text.flash_manager_entry_next_get
                0x00027734       0x74 mesh/core/libmesh_core_nrf51422_xxAC.a(flash_manager.c.obj)
                0x00027734                flash_manager_entry_next_get
 .text.flash_manager_entry_alloc
                0x000277a8       0x88 mesh/core/libmesh_core_nrf51422_xxAC.a(flash_manager.c.obj)
                0x000277a8                flash_manager_entry_alloc
 .text.flash_manager_entry_commit
                0x00027830       0x10 mesh/core/libmesh_core_nrf51422_xxAC.a(flash_manager.c.obj)
                0x00027830                flash_manager_entry_commit
 .text.flash_manager_entry_invalidate
                0x00027840       0x70 mesh/core/libmesh_core_nrf51422_xxAC.a(flash_manager.c.obj)
                0x00027840                flash_manager_entry_invalidate
 .text.flash_manager_add
                0x000278b0      0x250 mesh/core/libmesh_core_nrf51422_xxAC.a(flash_manager.c.obj)
                0x000278b0                flash_manager_add
 .text.flash_manager_mem_listener_register
                0x00027b00       0x48 mesh/core/libmesh_core_nrf51422_xxAC.a(flash_manager.c.obj)
                0x00027b00                flash_manager_mem_listener_register
 .text.flash_manager_is_stable
                0x00027b48       0x24 mesh/core/libmesh_core_nrf51422_xxAC.a(flash_manager.c.obj)
                0x00027b48                flash_manager_is_stable
 .text.flash_manager_on_defrag_end
                0x00027b6c       0x5c mesh/core/libmesh_core_nrf51422_xxAC.a(flash_manager.c.obj)
                0x00027b6c                flash_manager_on_defrag_end
 .text.flash_manager_recovery_page_get
                0x00027bc8        0x8 mesh/core/libmesh_core_nrf51422_xxAC.a(flash_manager.c.obj)
                0x00027bc8                flash_manager_recovery_page_get
 .text.utils_xor
                0x00027bd0       0x16 mesh/core/libmesh_core_nrf51422_xxAC.a(ccm_soft.c.obj)
 .text.ccm_soft_authenticate_blocks
                0x00027be6       0x66 mesh/core/libmesh_core_nrf51422_xxAC.a(ccm_soft.c.obj)
 .text.utils_reverse_memcpy.constprop.0
                0x00027c4c        0xa mesh/core/libmesh_core_nrf51422_xxAC.a(ccm_soft.c.obj)
 .text.ccm_soft_authenticate
                0x00027c56       0x94 mesh/core/libmesh_core_nrf51422_xxAC.a(ccm_soft.c.obj)
 .text.ccm_soft_crypt
                0x00027cea       0x58 mesh/core/libmesh_core_nrf51422_xxAC.a(ccm_soft.c.obj)
 .text.ccm_soft_encrypt
                0x00027d42       0x6e mesh/core/libmesh_core_nrf51422_xxAC.a(ccm_soft.c.obj)
                0x00027d42                ccm_soft_encrypt
 .text.ccm_soft_decrypt
                0x00027db0      0x10c mesh/core/libmesh_core_nrf51422_xxAC.a(ccm_soft.c.obj)
                0x00027db0                ccm_soft_decrypt
 .text.beacon_init
                0x00027ebc       0x4c mesh/core/libmesh_core_nrf51422_xxAC.a(beacon.c.obj)
                0x00027ebc                beacon_init
 .text.beacon_create
                0x00027f08       0x46 mesh/core/libmesh_core_nrf51422_xxAC.a(beacon.c.obj)
                0x00027f08                beacon_create
 *fill*         0x00027f4e        0x2 
 .text.beacon_tx
                0x00027f50       0x40 mesh/core/libmesh_core_nrf51422_xxAC.a(beacon.c.obj)
                0x00027f50                beacon_tx
 .text.beacon_packet_in
                0x00027f90      0x164 mesh/core/libmesh_core_nrf51422_xxAC.a(beacon.c.obj)
                0x00027f90                beacon_packet_in
 .text.entry_get
                0x000280f4       0x80 mesh/core/libmesh_core_nrf51422_xxAC.a(flash_manager_internal.c.obj)
                0x000280f4                entry_get
 .text.is_power_of_two
                0x00028174       0x14 mesh/core/libmesh_core_nrf51422_xxAC.a(core_tx.c.obj)
 .text.bearer_if_get
                0x00028188       0x4c mesh/core/libmesh_core_nrf51422_xxAC.a(core_tx.c.obj)
 .text.core_tx_complete_cb_set
                0x000281d4        0xc mesh/core/libmesh_core_nrf51422_xxAC.a(core_tx.c.obj)
                0x000281d4                core_tx_complete_cb_set
 .text.core_tx_packet_alloc
                0x000281e0       0x98 mesh/core/libmesh_core_nrf51422_xxAC.a(core_tx.c.obj)
                0x000281e0                core_tx_packet_alloc
 .text.core_tx_packet_send
                0x00028278       0x88 mesh/core/libmesh_core_nrf51422_xxAC.a(core_tx.c.obj)
                0x00028278                core_tx_packet_send
 .text.core_tx_packet_discard
                0x00028300       0x88 mesh/core/libmesh_core_nrf51422_xxAC.a(core_tx.c.obj)
                0x00028300                core_tx_packet_discard
 .text.core_tx_complete
                0x00028388       0x14 mesh/core/libmesh_core_nrf51422_xxAC.a(core_tx.c.obj)
                0x00028388                core_tx_complete
 .text.core_tx_bearer_register
                0x0002839c       0x90 mesh/core/libmesh_core_nrf51422_xxAC.a(core_tx.c.obj)
                0x0002839c                core_tx_bearer_register
 .text.heartbeat_subscription_timer_cb
                0x0002842c       0x1c mesh/core/libmesh_core_nrf51422_xxAC.a(heartbeat.c.obj)
 .text.heartbeat_opcode_handle
                0x00028448       0x74 mesh/core/libmesh_core_nrf51422_xxAC.a(heartbeat.c.obj)
 .text.heartbeat_send
                0x000284bc       0xcc mesh/core/libmesh_core_nrf51422_xxAC.a(heartbeat.c.obj)
 .text.heartbeat_core_evt_cb
                0x00028588       0xa4 mesh/core/libmesh_core_nrf51422_xxAC.a(heartbeat.c.obj)
 .text.heartbeat_publication_timer_cb
                0x0002862c       0xd4 mesh/core/libmesh_core_nrf51422_xxAC.a(heartbeat.c.obj)
 .text.heartbeat_init
                0x00028700       0x98 mesh/core/libmesh_core_nrf51422_xxAC.a(heartbeat.c.obj)
                0x00028700                heartbeat_init
 .text.make_network_beacon_cmac
                0x00028798       0x22 mesh/core/libmesh_core_nrf51422_xxAC.a(net_beacon.c.obj)
 *fill*         0x000287ba        0x2 
 .text.network_beacon_tx_cb
                0x000287bc      0x100 mesh/core/libmesh_core_nrf51422_xxAC.a(net_beacon.c.obj)
 .text.net_beacon_init
                0x000288bc       0x5c mesh/core/libmesh_core_nrf51422_xxAC.a(net_beacon.c.obj)
                0x000288bc                net_beacon_init
 .text.net_beacon_packet_in
                0x00028918      0x12c mesh/core/libmesh_core_nrf51422_xxAC.a(net_beacon.c.obj)
                0x00028918                net_beacon_packet_in
 .text.packet_discard
                0x00028a44       0x18 mesh/core/libmesh_core_nrf51422_xxAC.a(core_tx_adv.c.obj)
 .text.packet_send
                0x00028a5c       0x18 mesh/core/libmesh_core_nrf51422_xxAC.a(core_tx_adv.c.obj)
 .text.packet_alloc
                0x00028a74       0x40 mesh/core/libmesh_core_nrf51422_xxAC.a(core_tx_adv.c.obj)
 .text.adv_tx_complete_callback
                0x00028ab4       0x2c mesh/core/libmesh_core_nrf51422_xxAC.a(core_tx_adv.c.obj)
 .text.core_tx_adv_init
                0x00028ae0       0x58 mesh/core/libmesh_core_nrf51422_xxAC.a(core_tx_adv.c.obj)
                0x00028ae0                core_tx_adv_init
 .text.core_tx_adv_count_get
                0x00028b38       0x2c mesh/core/libmesh_core_nrf51422_xxAC.a(core_tx_adv.c.obj)
                0x00028b38                core_tx_adv_count_get
 .text.core_tx_adv_interval_get
                0x00028b64       0x34 mesh/core/libmesh_core_nrf51422_xxAC.a(core_tx_adv.c.obj)
                0x00028b64                core_tx_adv_interval_get
 .text.ad_listener_subscribe
                0x00028b98       0x68 mesh/core/libmesh_core_nrf51422_xxAC.a(ad_listener.c.obj)
                0x00028b98                ad_listener_subscribe
 .text.ad_listener_process
                0x00028c00       0x60 mesh/core/libmesh_core_nrf51422_xxAC.a(ad_listener.c.obj)
                0x00028c00                ad_listener_process
 .text.adtype_filter_handle
                0x00028c60       0x6c mesh/core/libmesh_core_nrf51422_xxAC.a(ad_type_filter.c.obj)
 .text.bearer_adtype_filtering_set
                0x00028ccc       0x24 mesh/core/libmesh_core_nrf51422_xxAC.a(ad_type_filter.c.obj)
                0x00028ccc                bearer_adtype_filtering_set
 .text.bearer_adtype_add
                0x00028cf0       0x20 mesh/core/libmesh_core_nrf51422_xxAC.a(ad_type_filter.c.obj)
                0x00028cf0                bearer_adtype_add
 .text.bearer_adtype_mode_set
                0x00028d10       0x28 mesh/core/libmesh_core_nrf51422_xxAC.a(ad_type_filter.c.obj)
                0x00028d10                bearer_adtype_mode_set
 .text.set_gap_addr_type
                0x00028d38       0x30 mesh/core/libmesh_core_nrf51422_xxAC.a(advertiser.c.obj)
 .text.tx_complete_event_callback
                0x00028d68       0x44 mesh/core/libmesh_core_nrf51422_xxAC.a(advertiser.c.obj)
 .text.broadcast_complete_cb
                0x00028dac       0x68 mesh/core/libmesh_core_nrf51422_xxAC.a(advertiser.c.obj)
 .text.schedule_first_time
                0x00028e14       0x28 mesh/core/libmesh_core_nrf51422_xxAC.a(advertiser.c.obj)
 .text.timeout_event
                0x00028e3c      0x12c mesh/core/libmesh_core_nrf51422_xxAC.a(advertiser.c.obj)
 .text.advertiser_init
                0x00028f68       0x10 mesh/core/libmesh_core_nrf51422_xxAC.a(advertiser.c.obj)
                0x00028f68                advertiser_init
 .text.advertiser_enable
                0x00028f78       0x2c mesh/core/libmesh_core_nrf51422_xxAC.a(advertiser.c.obj)
                0x00028f78                advertiser_enable
 .text.advertiser_disable
                0x00028fa4        0xe mesh/core/libmesh_core_nrf51422_xxAC.a(advertiser.c.obj)
                0x00028fa4                advertiser_disable
 *fill*         0x00028fb2        0x2 
 .text.advertiser_packet_alloc
                0x00028fb4       0xac mesh/core/libmesh_core_nrf51422_xxAC.a(advertiser.c.obj)
                0x00028fb4                advertiser_packet_alloc
 .text.advertiser_packet_send
                0x00029060       0x74 mesh/core/libmesh_core_nrf51422_xxAC.a(advertiser.c.obj)
                0x00029060                advertiser_packet_send
 .text.advertiser_packet_discard
                0x000290d4       0x2c mesh/core/libmesh_core_nrf51422_xxAC.a(advertiser.c.obj)
                0x000290d4                advertiser_packet_discard
 .text.advertiser_channels_set
                0x00029100       0x94 mesh/core/libmesh_core_nrf51422_xxAC.a(advertiser.c.obj)
                0x00029100                advertiser_channels_set
 .text.advertiser_interval_set
                0x00029194       0x68 mesh/core/libmesh_core_nrf51422_xxAC.a(advertiser.c.obj)
                0x00029194                advertiser_interval_set
 .text.advertiser_flush
                0x000291fc       0x22 mesh/core/libmesh_core_nrf51422_xxAC.a(advertiser.c.obj)
                0x000291fc                advertiser_flush
 *fill*         0x0002921e        0x2 
 .text.advertiser_address_default_get
                0x00029220       0x30 mesh/core/libmesh_core_nrf51422_xxAC.a(advertiser.c.obj)
                0x00029220                advertiser_address_default_get
 .text.advertiser_instance_init
                0x00029250       0xb4 mesh/core/libmesh_core_nrf51422_xxAC.a(advertiser.c.obj)
                0x00029250                advertiser_instance_init
 .text.action_switch
                0x00029304       0xc4 mesh/core/libmesh_core_nrf51422_xxAC.a(bearer_handler.c.obj)
 .text.bearer_handler_init
                0x000293c8       0x2c mesh/core/libmesh_core_nrf51422_xxAC.a(bearer_handler.c.obj)
                0x000293c8                bearer_handler_init
 .text.bearer_handler_start
                0x000293f4       0x1c mesh/core/libmesh_core_nrf51422_xxAC.a(bearer_handler.c.obj)
                0x000293f4                bearer_handler_start
 .text.bearer_handler_stop
                0x00029410       0x20 mesh/core/libmesh_core_nrf51422_xxAC.a(bearer_handler.c.obj)
                0x00029410                bearer_handler_stop
 .text.bearer_handler_action_enqueue
                0x00029430       0x9c mesh/core/libmesh_core_nrf51422_xxAC.a(bearer_handler.c.obj)
                0x00029430                bearer_handler_action_enqueue
 .text.bearer_handler_action_end
                0x000294cc       0x7c mesh/core/libmesh_core_nrf51422_xxAC.a(bearer_handler.c.obj)
                0x000294cc                bearer_handler_action_end
 .text.bearer_handler_radio_irq_handler
                0x00029548       0x6c mesh/core/libmesh_core_nrf51422_xxAC.a(bearer_handler.c.obj)
                0x00029548                bearer_handler_radio_irq_handler
 .text.bearer_handler_timer_irq_handler
                0x000295b4       0x30 mesh/core/libmesh_core_nrf51422_xxAC.a(bearer_handler.c.obj)
                0x000295b4                bearer_handler_timer_irq_handler
 .text.bearer_handler_on_ts_begin
                0x000295e4       0x4c mesh/core/libmesh_core_nrf51422_xxAC.a(bearer_handler.c.obj)
                0x000295e4                bearer_handler_on_ts_begin
 .text.bearer_handler_on_ts_end
                0x00029630       0x50 mesh/core/libmesh_core_nrf51422_xxAC.a(bearer_handler.c.obj)
                0x00029630                bearer_handler_on_ts_end
 .text.radio_irq_handler
                0x00029680       0xbc mesh/core/libmesh_core_nrf51422_xxAC.a(broadcast.c.obj)
 .text.broadcast_start
                0x0002973c       0x98 mesh/core/libmesh_core_nrf51422_xxAC.a(broadcast.c.obj)
 .text.broadcast_send
                0x000297d4       0x80 mesh/core/libmesh_core_nrf51422_xxAC.a(broadcast.c.obj)
                0x000297d4                broadcast_send
 .text.fen_filter_start
                0x00029854       0x40 mesh/core/libmesh_core_nrf51422_xxAC.a(filter_engine.c.obj)
                0x00029854                fen_filter_start
 .text.fen_filter_stop
                0x00029894       0x2c mesh/core/libmesh_core_nrf51422_xxAC.a(filter_engine.c.obj)
                0x00029894                fen_filter_stop
 .text.fen_filters_apply
                0x000298c0       0x34 mesh/core/libmesh_core_nrf51422_xxAC.a(filter_engine.c.obj)
                0x000298c0                fen_filters_apply
 .text.radio_config_reset
                0x000298f4       0x48 mesh/core/libmesh_core_nrf51422_xxAC.a(radio_config.c.obj)
                0x000298f4                radio_config_reset
 .text.radio_config_channel_set
                0x0002993c       0x3c mesh/core/libmesh_core_nrf51422_xxAC.a(radio_config.c.obj)
                0x0002993c                radio_config_channel_set
 .text.radio_config_config
                0x00029978       0xb0 mesh/core/libmesh_core_nrf51422_xxAC.a(radio_config.c.obj)
                0x00029978                radio_config_config
 .text.radio_config_access_addr_set
                0x00029a28       0x74 mesh/core/libmesh_core_nrf51422_xxAC.a(radio_config.c.obj)
                0x00029a28                radio_config_access_addr_set
 .text.radio_trigger
                0x00029a9c       0x24 mesh/core/libmesh_core_nrf51422_xxAC.a(scanner.c.obj)
 .text.scan_window_end
                0x00029ac0       0x14 mesh/core/libmesh_core_nrf51422_xxAC.a(scanner.c.obj)
 .text.scan_window_start
                0x00029ad4       0x28 mesh/core/libmesh_core_nrf51422_xxAC.a(scanner.c.obj)
 .text.radio_configure
                0x00029afc       0x88 mesh/core/libmesh_core_nrf51422_xxAC.a(scanner.c.obj)
 .text.radio_set_packet
                0x00029b84       0x58 mesh/core/libmesh_core_nrf51422_xxAC.a(scanner.c.obj)
 .text.radio_start
                0x00029bdc       0x54 mesh/core/libmesh_core_nrf51422_xxAC.a(scanner.c.obj)
 .text.radio_stop
                0x00029c30       0x38 mesh/core/libmesh_core_nrf51422_xxAC.a(scanner.c.obj)
 .text.schedule_timers
                0x00029c68       0x34 mesh/core/libmesh_core_nrf51422_xxAC.a(scanner.c.obj)
 .text.scanner_radio_start
                0x00029c9c       0x28 mesh/core/libmesh_core_nrf51422_xxAC.a(scanner.c.obj)
                0x00029c9c                scanner_radio_start
 .text.scanner_radio_stop
                0x00029cc4       0x14 mesh/core/libmesh_core_nrf51422_xxAC.a(scanner.c.obj)
                0x00029cc4                scanner_radio_stop
 .text.scanner_radio_irq_handler
                0x00029cd8      0x144 mesh/core/libmesh_core_nrf51422_xxAC.a(scanner.c.obj)
                0x00029cd8                scanner_radio_irq_handler
 .text.scanner_enable
                0x00029e1c       0x34 mesh/core/libmesh_core_nrf51422_xxAC.a(scanner.c.obj)
                0x00029e1c                scanner_enable
 .text.scanner_disable
                0x00029e50       0x44 mesh/core/libmesh_core_nrf51422_xxAC.a(scanner.c.obj)
                0x00029e50                scanner_disable
 .text.scanner_packet_release
                0x00029e94       0x38 mesh/core/libmesh_core_nrf51422_xxAC.a(scanner.c.obj)
                0x00029e94                scanner_packet_release
 .text.scanner_rx
                0x00029ecc       0x34 mesh/core/libmesh_core_nrf51422_xxAC.a(scanner.c.obj)
                0x00029ecc                scanner_rx
 .text.scanner_rx_pending
                0x00029f00       0x10 mesh/core/libmesh_core_nrf51422_xxAC.a(scanner.c.obj)
                0x00029f00                scanner_rx_pending
 .text.scanner_config_scan_time_set
                0x00029f10       0x6c mesh/core/libmesh_core_nrf51422_xxAC.a(scanner.c.obj)
                0x00029f10                scanner_config_scan_time_set
 .text.scanner_config_channels_set
                0x00029f7c       0x68 mesh/core/libmesh_core_nrf51422_xxAC.a(scanner.c.obj)
                0x00029f7c                scanner_config_channels_set
 .text.scanner_config_access_addresses_set
                0x00029fe4       0x44 mesh/core/libmesh_core_nrf51422_xxAC.a(scanner.c.obj)
                0x00029fe4                scanner_config_access_addresses_set
 .text.scanner_config_reset
                0x0002a028       0x44 mesh/core/libmesh_core_nrf51422_xxAC.a(scanner.c.obj)
                0x0002a028                scanner_config_reset
 .text.scanner_init
                0x0002a06c       0x54 mesh/core/libmesh_core_nrf51422_xxAC.a(scanner.c.obj)
                0x0002a06c                scanner_init
 .text.sd_ecb_block_encrypt
                0x0002a0c0        0x4 mesh/core/libmesh_core_nrf51422_xxAC.a(aes.c.obj)
 .text.aes_encrypt
                0x0002a0c4       0x30 mesh/core/libmesh_core_nrf51422_xxAC.a(aes.c.obj)
                0x0002a0c4                aes_encrypt
 .text.msg_cache_init
                0x0002a0f4       0x28 mesh/core/libmesh_core_nrf51422_xxAC.a(msg_cache.c.obj)
                0x0002a0f4                msg_cache_init
 .text.msg_cache_entry_exists
                0x0002a11c       0x40 mesh/core/libmesh_core_nrf51422_xxAC.a(msg_cache.c.obj)
                0x0002a11c                msg_cache_entry_exists
 .text.msg_cache_entry_add
                0x0002a15c       0x2c mesh/core/libmesh_core_nrf51422_xxAC.a(msg_cache.c.obj)
                0x0002a15c                msg_cache_entry_add
 .text.block_ack_full
                0x0002a188       0x2c mesh/core/libmesh_core_nrf51422_xxAC.a(transport.c.obj)
 .text.seqauth_sequence_number_get
                0x0002a1b4       0x18 mesh/core/libmesh_core_nrf51422_xxAC.a(transport.c.obj)
 .text.sar_rx_session_mark_as_handled
                0x0002a1cc       0x54 mesh/core/libmesh_core_nrf51422_xxAC.a(transport.c.obj)
 .text.sar_ctx_find
                0x0002a220       0x40 mesh/core/libmesh_core_nrf51422_xxAC.a(transport.c.obj)
 .text.control_packet_callback_get
                0x0002a260       0x44 mesh/core/libmesh_core_nrf51422_xxAC.a(transport.c.obj)
 .text.m_send_sar_cancel_event
                0x0002a2a4       0x26 mesh/core/libmesh_core_nrf51422_xxAC.a(transport.c.obj)
 *fill*         0x0002a2ca        0x2 
 .text.tx_complete
                0x0002a2cc       0x30 mesh/core/libmesh_core_nrf51422_xxAC.a(transport.c.obj)
 .text.upper_trs_packet_encrypt
                0x0002a2fc       0xc4 mesh/core/libmesh_core_nrf51422_xxAC.a(transport.c.obj)
 .text.sar_ctx_free
                0x0002a3c0       0x38 mesh/core/libmesh_core_nrf51422_xxAC.a(transport.c.obj)
 .text.sar_ctx_tx_complete
                0x0002a3f8       0xb8 mesh/core/libmesh_core_nrf51422_xxAC.a(transport.c.obj)
 .text.sar_ctx_cancel
                0x0002a4b0      0x110 mesh/core/libmesh_core_nrf51422_xxAC.a(transport.c.obj)
 .text.abort_timeout
                0x0002a5c0        0xc mesh/core/libmesh_core_nrf51422_xxAC.a(transport.c.obj)
 .text.sar_ctx_alloc
                0x0002a5cc       0xc8 mesh/core/libmesh_core_nrf51422_xxAC.a(transport.c.obj)
 .text.test_transport_decrypt
                0x0002a694       0x90 mesh/core/libmesh_core_nrf51422_xxAC.a(transport.c.obj)
 .text.upper_transport_access_packet_in
                0x0002a724      0x290 mesh/core/libmesh_core_nrf51422_xxAC.a(transport.c.obj)
 .text.trs_packet_header_build
                0x0002a9b4       0x96 mesh/core/libmesh_core_nrf51422_xxAC.a(transport.c.obj)
 *fill*         0x0002aa4a        0x2 
 .text.tx_retry_timer_reset
                0x0002aa4c       0x50 mesh/core/libmesh_core_nrf51422_xxAC.a(transport.c.obj)
 .text.trs_sar_packet_out
                0x0002aa9c      0x100 mesh/core/libmesh_core_nrf51422_xxAC.a(transport.c.obj)
 .text.retry_timeout
                0x0002ab9c       0x54 mesh/core/libmesh_core_nrf51422_xxAC.a(transport.c.obj)
 .text.upper_transport_packet_in
                0x0002abf0      0x1b0 mesh/core/libmesh_core_nrf51422_xxAC.a(transport.c.obj)
 .text.upper_transport_tx
                0x0002ada0      0x23c mesh/core/libmesh_core_nrf51422_xxAC.a(transport.c.obj)
 .text.transport_sar_mem_funcs_reset
                0x0002afdc       0x2c mesh/core/libmesh_core_nrf51422_xxAC.a(transport.c.obj)
                0x0002afdc                transport_sar_mem_funcs_reset
 .text.transport_init
                0x0002b008       0x7c mesh/core/libmesh_core_nrf51422_xxAC.a(transport.c.obj)
                0x0002b008                transport_init
 .text.transport_tx
                0x0002b084       0x94 mesh/core/libmesh_core_nrf51422_xxAC.a(transport.c.obj)
                0x0002b084                transport_tx
 .text.transport_control_tx
                0x0002b118       0x7c mesh/core/libmesh_core_nrf51422_xxAC.a(transport.c.obj)
                0x0002b118                transport_control_tx
 .text.sar_ack_send
                0x0002b194      0x10c mesh/core/libmesh_core_nrf51422_xxAC.a(transport.c.obj)
 .text.transport_sar_process
                0x0002b2a0       0x78 mesh/core/libmesh_core_nrf51422_xxAC.a(transport.c.obj)
 .text.transport_packet_in
                0x0002b318      0x518 mesh/core/libmesh_core_nrf51422_xxAC.a(transport.c.obj)
                0x0002b318                transport_packet_in
 .text.ack_timeout
                0x0002b830       0x3c mesh/core/libmesh_core_nrf51422_xxAC.a(transport.c.obj)
 .text.transport_opt_get
                0x0002b86c       0x58 mesh/core/libmesh_core_nrf51422_xxAC.a(transport.c.obj)
                0x0002b86c                transport_opt_get
 .text.transport_control_packet_consumer_add
                0x0002b8c4       0x64 mesh/core/libmesh_core_nrf51422_xxAC.a(transport.c.obj)
                0x0002b8c4                transport_control_packet_consumer_add
 .text.get_last_page
                0x0002b928       0x14 mesh/core/libmesh_core_nrf51422_xxAC.a(flash_manager_defrag.c.obj)
 .text.defrag_on_end
                0x0002b93c       0x1c mesh/core/libmesh_core_nrf51422_xxAC.a(flash_manager_defrag.c.obj)
 .text.execute_procedure_step
                0x0002b958       0xac mesh/core/libmesh_core_nrf51422_xxAC.a(flash_manager_defrag.c.obj)
 .text.get_next_entry
                0x0002ba04       0x44 mesh/core/libmesh_core_nrf51422_xxAC.a(flash_manager_defrag.c.obj)
 .text.get_next_data_entry
                0x0002ba48       0x24 mesh/core/libmesh_core_nrf51422_xxAC.a(flash_manager_defrag.c.obj)
 .text.on_flash_op_end
                0x0002ba6c       0x34 mesh/core/libmesh_core_nrf51422_xxAC.a(flash_manager_defrag.c.obj)
 .text.check_for_invalid_entries
                0x0002baa0       0x3c mesh/core/libmesh_core_nrf51422_xxAC.a(flash_manager_defrag.c.obj)
 .text.erase_recovery_area
                0x0002badc       0x30 mesh/core/libmesh_core_nrf51422_xxAC.a(flash_manager_defrag.c.obj)
 .text.flash.constprop.6
                0x0002bb0c       0x20 mesh/core/libmesh_core_nrf51422_xxAC.a(flash_manager_defrag.c.obj)
 .text.seal_storage_page
                0x0002bb2c       0x58 mesh/core/libmesh_core_nrf51422_xxAC.a(flash_manager_defrag.c.obj)
 .text.invalidate_duplicate_entries
                0x0002bb84       0x88 mesh/core/libmesh_core_nrf51422_xxAC.a(flash_manager_defrag.c.obj)
 .text.copy_metadata
                0x0002bc0c       0x40 mesh/core/libmesh_core_nrf51422_xxAC.a(flash_manager_defrag.c.obj)
 .text.write_defrag_start_pointer
                0x0002bc4c       0x20 mesh/core/libmesh_core_nrf51422_xxAC.a(flash_manager_defrag.c.obj)
 .text.write_back
                0x0002bc6c       0x2c mesh/core/libmesh_core_nrf51422_xxAC.a(flash_manager_defrag.c.obj)
 .text.post_process
                0x0002bc98       0x44 mesh/core/libmesh_core_nrf51422_xxAC.a(flash_manager_defrag.c.obj)
 .text.backup_entries
                0x0002bcdc      0x128 mesh/core/libmesh_core_nrf51422_xxAC.a(flash_manager_defrag.c.obj)
 .text.erase_source
                0x0002be04       0x30 mesh/core/libmesh_core_nrf51422_xxAC.a(flash_manager_defrag.c.obj)
 .text.flash_manager_defrag_init
                0x0002be34       0xa0 mesh/core/libmesh_core_nrf51422_xxAC.a(flash_manager_defrag.c.obj)
                0x0002be34                flash_manager_defrag_init
 .text.flash_manager_defrag_is_running
                0x0002bed4       0x10 mesh/core/libmesh_core_nrf51422_xxAC.a(flash_manager_defrag.c.obj)
                0x0002bed4                flash_manager_defrag_is_running
 .text.flash_manager_defrag
                0x0002bee4       0xdc mesh/core/libmesh_core_nrf51422_xxAC.a(flash_manager_defrag.c.obj)
                0x0002bee4                flash_manager_defrag
 .text.flash_manager_defrag_recovery_page_get
                0x0002bfc0        0xc mesh/core/libmesh_core_nrf51422_xxAC.a(flash_manager_defrag.c.obj)
                0x0002bfc0                flash_manager_defrag_recovery_page_get
 .text.wait_for_ready
                0x0002bfcc       0x14 mesh/core/libmesh_core_nrf51422_xxAC.a(nrf_flash.c.obj)
 .text.nrf_flash_erase
                0x0002bfe0       0x58 mesh/core/libmesh_core_nrf51422_xxAC.a(nrf_flash.c.obj)
                0x0002bfe0                nrf_flash_erase
 .text.nrf_flash_write
                0x0002c038       0x5c mesh/core/libmesh_core_nrf51422_xxAC.a(nrf_flash.c.obj)
                0x0002c038                nrf_flash_write
 .text.packet_mgr_init
                0x0002c094       0x54 mesh/core/libmesh_core_nrf51422_xxAC.a(packet_mgr.c.obj)
                0x0002c094                packet_mgr_init
 .text.queue_init
                0x0002c0e8       0x24 mesh/core/libmesh_core_nrf51422_xxAC.a(queue.c.obj)
                0x0002c0e8                queue_init
 .text.queue_push
                0x0002c10c       0x54 mesh/core/libmesh_core_nrf51422_xxAC.a(queue.c.obj)
                0x0002c10c                queue_push
 .text.queue_pop
                0x0002c160       0x3c mesh/core/libmesh_core_nrf51422_xxAC.a(queue.c.obj)
                0x0002c160                queue_pop
 .text.queue_peek
                0x0002c19c       0x20 mesh/core/libmesh_core_nrf51422_xxAC.a(queue.c.obj)
                0x0002c19c                queue_peek
 .text.my_xor.constprop.1
                0x0002c1bc       0x12 mesh/core/libmesh_core_nrf51422_xxAC.a(aes_cmac.c.obj)
 .text.utils_lshift.constprop.2
                0x0002c1ce       0x18 mesh/core/libmesh_core_nrf51422_xxAC.a(aes_cmac.c.obj)
 *fill*         0x0002c1e6        0x2 
 .text.aes_cmac_subkey_generate
                0x0002c1e8       0x64 mesh/core/libmesh_core_nrf51422_xxAC.a(aes_cmac.c.obj)
                0x0002c1e8                aes_cmac_subkey_generate
 .text.aes_cmac
                0x0002c24c       0xc0 mesh/core/libmesh_core_nrf51422_xxAC.a(aes_cmac.c.obj)
                0x0002c24c                aes_cmac
 .text.nrf_mesh_opt_get
                0x0002c30c       0x34 mesh/core/libmesh_core_nrf51422_xxAC.a(nrf_mesh_opt.c.obj)
                0x0002c30c                nrf_mesh_opt_get
 .text.replay_cache_add
                0x0002c340       0x68 mesh/core/libmesh_core_nrf51422_xxAC.a(replay_cache.c.obj)
                0x0002c340                replay_cache_add
 .text.replay_cache_has_room
                0x0002c3a8       0x38 mesh/core/libmesh_core_nrf51422_xxAC.a(replay_cache.c.obj)
                0x0002c3a8                replay_cache_has_room
 .text.replay_cache_has_elem
                0x0002c3e0       0x38 mesh/core/libmesh_core_nrf51422_xxAC.a(replay_cache.c.obj)
                0x0002c3e0                replay_cache_has_elem
 .text.replay_cache_clear
                0x0002c418       0x28 mesh/core/libmesh_core_nrf51422_xxAC.a(replay_cache.c.obj)
                0x0002c418                replay_cache_clear
 .text.replay_cache_init
                0x0002c440        0x8 mesh/core/libmesh_core_nrf51422_xxAC.a(replay_cache.c.obj)
                0x0002c440                replay_cache_init
 .text._GetAvailWriteSpace
                0x0002c448       0x12 external/rtt/librtt_nrf51422_xxAC.a(SEGGER_RTT.c.obj)
 .text._WriteNoCheck
                0x0002c45a       0x38 external/rtt/librtt_nrf51422_xxAC.a(SEGGER_RTT.c.obj)
 .text._WriteBlocking
                0x0002c492       0x5a external/rtt/librtt_nrf51422_xxAC.a(SEGGER_RTT.c.obj)
 .text._DoInit  0x0002c4ec       0x64 external/rtt/librtt_nrf51422_xxAC.a(SEGGER_RTT.c.obj)
 .text.SEGGER_RTT_WriteNoLock
                0x0002c550       0x6c external/rtt/librtt_nrf51422_xxAC.a(SEGGER_RTT.c.obj)
                0x0002c550                SEGGER_RTT_WriteNoLock
 .text.SEGGER_RTT_Write
                0x0002c5bc       0x34 external/rtt/librtt_nrf51422_xxAC.a(SEGGER_RTT.c.obj)
                0x0002c5bc                SEGGER_RTT_Write
 .text._StoreChar
                0x0002c5f0       0x3e external/rtt/librtt_nrf51422_xxAC.a(SEGGER_RTT_printf.c.obj)
 *fill*         0x0002c62e        0x2 
 .text._PrintUnsigned
                0x0002c630       0xe0 external/rtt/librtt_nrf51422_xxAC.a(SEGGER_RTT_printf.c.obj)
 .text.SEGGER_RTT_vprintf
                0x0002c710      0x25c external/rtt/librtt_nrf51422_xxAC.a(SEGGER_RTT_printf.c.obj)
                0x0002c710                SEGGER_RTT_vprintf
 .text.SEGGER_RTT_printf
                0x0002c96c       0x18 external/rtt/librtt_nrf51422_xxAC.a(SEGGER_RTT_printf.c.obj)
                0x0002c96c                SEGGER_RTT_printf
 .text.uECC_vli_mult
                0x0002c984       0x90 external/micro-ecc/libuECC_nrf51422_xxAC.a(uECC.c.obj)
 .text.uECC_vli_clear
                0x0002ca14       0x16 external/micro-ecc/libuECC_nrf51422_xxAC.a(uECC.c.obj)
 .text.uECC_vli_isZero
                0x0002ca2a       0x1c external/micro-ecc/libuECC_nrf51422_xxAC.a(uECC.c.obj)
 .text.uECC_vli_testBit
                0x0002ca46       0x12 external/micro-ecc/libuECC_nrf51422_xxAC.a(uECC.c.obj)
 .text.uECC_vli_numBits
                0x0002ca58       0x40 external/micro-ecc/libuECC_nrf51422_xxAC.a(uECC.c.obj)
 .text.uECC_vli_set
                0x0002ca98       0x16 external/micro-ecc/libuECC_nrf51422_xxAC.a(uECC.c.obj)
 .text.uECC_vli_cmp_unsafe
                0x0002caae       0x24 external/micro-ecc/libuECC_nrf51422_xxAC.a(uECC.c.obj)
 .text.uECC_vli_rshift1
                0x0002cad2       0x1e external/micro-ecc/libuECC_nrf51422_xxAC.a(uECC.c.obj)
 .text.uECC_vli_modMult_fast
                0x0002caf0       0x20 external/micro-ecc/libuECC_nrf51422_xxAC.a(uECC.c.obj)
 .text.uECC_vli_modSquare_fast
                0x0002cb10        0xc external/micro-ecc/libuECC_nrf51422_xxAC.a(uECC.c.obj)
 .text.apply_z  0x0002cb1c       0x3e external/micro-ecc/libuECC_nrf51422_xxAC.a(uECC.c.obj)
 .text.uECC_vli_nativeToBytes
                0x0002cb5a       0x24 external/micro-ecc/libuECC_nrf51422_xxAC.a(uECC.c.obj)
 .text.uECC_vli_bytesToNative
                0x0002cb7e       0x44 external/micro-ecc/libuECC_nrf51422_xxAC.a(uECC.c.obj)
 .text.default_RNG
                0x0002cbc2        0xc external/micro-ecc/libuECC_nrf51422_xxAC.a(uECC.c.obj)
 .text.uECC_vli_add.isra.0
                0x0002cbce       0x4a external/micro-ecc/libuECC_nrf51422_xxAC.a(uECC.c.obj)
 .text.regularize_k
                0x0002cc18       0x52 external/micro-ecc/libuECC_nrf51422_xxAC.a(uECC.c.obj)
 .text.uECC_vli_sub.isra.1
                0x0002cc6a       0x4c external/micro-ecc/libuECC_nrf51422_xxAC.a(uECC.c.obj)
 .text.uECC_vli_cmp
                0x0002ccb6       0x2a external/micro-ecc/libuECC_nrf51422_xxAC.a(uECC.c.obj)
 .text.uECC_generate_random_int
                0x0002cce0       0x78 external/micro-ecc/libuECC_nrf51422_xxAC.a(uECC.c.obj)
 .text.uECC_vli_modAdd
                0x0002cd58       0x2e external/micro-ecc/libuECC_nrf51422_xxAC.a(uECC.c.obj)
 *fill*         0x0002cd86        0x2 
 .text.vli_mmod_fast_secp256r1
                0x0002cd88      0x19c external/micro-ecc/libuECC_nrf51422_xxAC.a(uECC.c.obj)
 .text.uECC_vli_modSub.isra.2
                0x0002cf24       0x1a external/micro-ecc/libuECC_nrf51422_xxAC.a(uECC.c.obj)
 *fill*         0x0002cf3e        0x2 
 .text.double_jacobian_default
                0x0002cf40      0x14c external/micro-ecc/libuECC_nrf51422_xxAC.a(uECC.c.obj)
 .text.x_side_default
                0x0002d08c       0x58 external/micro-ecc/libuECC_nrf51422_xxAC.a(uECC.c.obj)
 .text.XYcZ_add
                0x0002d0e4       0xbe external/micro-ecc/libuECC_nrf51422_xxAC.a(uECC.c.obj)
 .text.XYcZ_addC
                0x0002d1a2      0x10c external/micro-ecc/libuECC_nrf51422_xxAC.a(uECC.c.obj)
 *fill*         0x0002d2ae        0x2 
 .text.vli_modInv_update
                0x0002d2b0       0x3c external/micro-ecc/libuECC_nrf51422_xxAC.a(uECC.c.obj)
 .text.uECC_vli_modInv
                0x0002d2ec      0x10a external/micro-ecc/libuECC_nrf51422_xxAC.a(uECC.c.obj)
 .text.EccPoint_mult
                0x0002d3f6      0x19c external/micro-ecc/libuECC_nrf51422_xxAC.a(uECC.c.obj)
 .text.EccPoint_compute_public_key
                0x0002d592       0x4c external/micro-ecc/libuECC_nrf51422_xxAC.a(uECC.c.obj)
 *fill*         0x0002d5de        0x2 
 .text.uECC_secp256r1
                0x0002d5e0        0x8 external/micro-ecc/libuECC_nrf51422_xxAC.a(uECC.c.obj)
                0x0002d5e0                uECC_secp256r1
 .text.uECC_make_key
                0x0002d5e8       0x84 external/micro-ecc/libuECC_nrf51422_xxAC.a(uECC.c.obj)
                0x0002d5e8                uECC_make_key
 .text.uECC_shared_secret
                0x0002d66c       0xc0 external/micro-ecc/libuECC_nrf51422_xxAC.a(uECC.c.obj)
                0x0002d66c                uECC_shared_secret
 .text.uECC_valid_point
                0x0002d72c       0x86 external/micro-ecc/libuECC_nrf51422_xxAC.a(uECC.c.obj)
                0x0002d72c                uECC_valid_point
 .text.uECC_valid_public_key
                0x0002d7b2       0x32 external/micro-ecc/libuECC_nrf51422_xxAC.a(uECC.c.obj)
                0x0002d7b2                uECC_valid_public_key
 .text          0x0002d7e4       0x14 c:/a/gcc_arm/6/bin/../lib/gcc/arm-none-eabi/6.3.1/thumb/v6-m\libgcc.a(_thumb1_case_uqi.o)
                0x0002d7e4                __gnu_thumb1_case_uqi
 .text          0x0002d7f8       0x14 c:/a/gcc_arm/6/bin/../lib/gcc/arm-none-eabi/6.3.1/thumb/v6-m\libgcc.a(_thumb1_case_shi.o)
                0x0002d7f8                __gnu_thumb1_case_shi
 .text          0x0002d80c       0x14 c:/a/gcc_arm/6/bin/../lib/gcc/arm-none-eabi/6.3.1/thumb/v6-m\libgcc.a(_thumb1_case_uhi.o)
                0x0002d80c                __gnu_thumb1_case_uhi
 .text          0x0002d820      0x114 c:/a/gcc_arm/6/bin/../lib/gcc/arm-none-eabi/6.3.1/thumb/v6-m\libgcc.a(_udivsi3.o)
                0x0002d820                __aeabi_uidiv
                0x0002d820                __udivsi3
                0x0002d92c                __aeabi_uidivmod
 .text          0x0002d934      0x1d4 c:/a/gcc_arm/6/bin/../lib/gcc/arm-none-eabi/6.3.1/thumb/v6-m\libgcc.a(_divsi3.o)
                0x0002d934                __divsi3
                0x0002d934                __aeabi_idiv
                0x0002db00                __aeabi_idivmod
 .text          0x0002db08        0x4 c:/a/gcc_arm/6/bin/../lib/gcc/arm-none-eabi/6.3.1/thumb/v6-m\libgcc.a(_dvmd_tls.o)
                0x0002db08                __aeabi_idiv0
                0x0002db08                __aeabi_ldiv0
 .text          0x0002db0c       0x54 c:/a/gcc_arm/6/bin/../lib/gcc/arm-none-eabi/6.3.1/thumb/v6-m\libgcc.a(_muldi3.o)
                0x0002db0c                __muldi3
                0x0002db0c                __aeabi_lmul
 .text.exit     0x0002db60       0x2c c:/a/gcc_arm/6/bin/../lib/gcc/arm-none-eabi/6.3.1/../../../../arm-none-eabi/lib/thumb/v6-m\libg_nano.a(lib_a-exit.o)
                0x0002db60                exit
 .text.__libc_init_array
                0x0002db8c       0x48 c:/a/gcc_arm/6/bin/../lib/gcc/arm-none-eabi/6.3.1/../../../../arm-none-eabi/lib/thumb/v6-m\libg_nano.a(lib_a-init.o)
                0x0002db8c                __libc_init_array
 .text.malloc   0x0002dbd4       0x14 c:/a/gcc_arm/6/bin/../lib/gcc/arm-none-eabi/6.3.1/../../../../arm-none-eabi/lib/thumb/v6-m\libg_nano.a(lib_a-malloc.o)
                0x0002dbd4                malloc
 .text.free     0x0002dbe8       0x14 c:/a/gcc_arm/6/bin/../lib/gcc/arm-none-eabi/6.3.1/../../../../arm-none-eabi/lib/thumb/v6-m\libg_nano.a(lib_a-malloc.o)
                0x0002dbe8                free
 .text.memcmp   0x0002dbfc       0x1e c:/a/gcc_arm/6/bin/../lib/gcc/arm-none-eabi/6.3.1/../../../../arm-none-eabi/lib/thumb/v6-m\libg_nano.a(lib_a-memcmp.o)
                0x0002dbfc                memcmp
 .text.memcpy   0x0002dc1a       0x12 c:/a/gcc_arm/6/bin/../lib/gcc/arm-none-eabi/6.3.1/../../../../arm-none-eabi/lib/thumb/v6-m\libg_nano.a(lib_a-memcpy-stub.o)
                0x0002dc1a                memcpy
 .text.memset   0x0002dc2c       0x10 c:/a/gcc_arm/6/bin/../lib/gcc/arm-none-eabi/6.3.1/../../../../arm-none-eabi/lib/thumb/v6-m\libg_nano.a(lib_a-memset.o)
                0x0002dc2c                memset
 .text._free_r  0x0002dc3c       0x94 c:/a/gcc_arm/6/bin/../lib/gcc/arm-none-eabi/6.3.1/../../../../arm-none-eabi/lib/thumb/v6-m\libg_nano.a(lib_a-nano-freer.o)
                0x0002dc3c                _free_r
 .text._malloc_r
                0x0002dcd0       0xbc c:/a/gcc_arm/6/bin/../lib/gcc/arm-none-eabi/6.3.1/../../../../arm-none-eabi/lib/thumb/v6-m\libg_nano.a(lib_a-nano-mallocr.o)
                0x0002dcd0                _malloc_r
 .text._sbrk_r  0x0002dd8c       0x24 c:/a/gcc_arm/6/bin/../lib/gcc/arm-none-eabi/6.3.1/../../../../arm-none-eabi/lib/thumb/v6-m\libg_nano.a(lib_a-sbrkr.o)
                0x0002dd8c                _sbrk_r
 .text.strcpy   0x0002ddb0       0x10 c:/a/gcc_arm/6/bin/../lib/gcc/arm-none-eabi/6.3.1/../../../../arm-none-eabi/lib/thumb/v6-m\libg_nano.a(lib_a-strcpy.o)
                0x0002ddb0                strcpy
 .text          0x0002ddc0        0xe c:/a/gcc_arm/6/bin/../lib/gcc/arm-none-eabi/6.3.1/../../../../arm-none-eabi/lib/thumb/v6-m\libg_nano.a(lib_a-strlen.o)
                0x0002ddc0                strlen
 .text.strrchr  0x0002ddce       0x24 c:/a/gcc_arm/6/bin/../lib/gcc/arm-none-eabi/6.3.1/../../../../arm-none-eabi/lib/thumb/v6-m\libg_nano.a(lib_a-strrchr.o)
                0x0002ddce                strrchr
 .text.__malloc_lock
                0x0002ddf2        0x2 c:/a/gcc_arm/6/bin/../lib/gcc/arm-none-eabi/6.3.1/../../../../arm-none-eabi/lib/thumb/v6-m\libg_nano.a(lib_a-mlock.o)
                0x0002ddf2                __malloc_lock
 .text.__malloc_unlock
                0x0002ddf4        0x2 c:/a/gcc_arm/6/bin/../lib/gcc/arm-none-eabi/6.3.1/../../../../arm-none-eabi/lib/thumb/v6-m\libg_nano.a(lib_a-mlock.o)
                0x0002ddf4                __malloc_unlock
 .text.strchr   0x0002ddf6       0x1c c:/a/gcc_arm/6/bin/../lib/gcc/arm-none-eabi/6.3.1/../../../../arm-none-eabi/lib/thumb/v6-m\libg_nano.a(lib_a-strchr.o)
                0x0002ddf6                strchr
 *fill*         0x0002de12        0x2 
 .text._sbrk    0x0002de14       0x1c c:/a/gcc_arm/6/bin/../lib/gcc/arm-none-eabi/6.3.1/../../../../arm-none-eabi/lib/thumb/v6-m\libnosys.a(sbrk.o)
                0x0002de14                _sbrk
 .text._exit    0x0002de30        0x4 c:/a/gcc_arm/6/bin/../lib/gcc/arm-none-eabi/6.3.1/../../../../arm-none-eabi/lib/thumb/v6-m\libnosys.a(_exit.o)
                0x0002de30                _exit
 *(.init)
 .init          0x0002de34        0x4 c:/a/gcc_arm/6/bin/../lib/gcc/arm-none-eabi/6.3.1/thumb/v6-m/crti.o
                0x0002de34                _init
 .init          0x0002de38        0x8 c:/a/gcc_arm/6/bin/../lib/gcc/arm-none-eabi/6.3.1/thumb/v6-m/crtn.o
 *(.fini)
 .fini          0x0002de40        0x4 c:/a/gcc_arm/6/bin/../lib/gcc/arm-none-eabi/6.3.1/thumb/v6-m/crti.o
                0x0002de40                _fini
 .fini          0x0002de44        0x8 c:/a/gcc_arm/6/bin/../lib/gcc/arm-none-eabi/6.3.1/thumb/v6-m/crtn.o
 *crtbegin.o(.ctors)
 *crtbegin?.o(.ctors)
 *(EXCLUDE_FILE(*crtend.o *crtend?.o) .ctors)
 *(SORT(.ctors.*))
 *(.ctors)
 *crtbegin.o(.dtors)
 *crtbegin?.o(.dtors)
 *(EXCLUDE_FILE(*crtend.o *crtend?.o) .dtors)
 *(SORT(.dtors.*))
 *(.dtors)
 *(.rodata*)
 .rodata.main.str1.1
                0x0002de4c       0x9d examples/dfu/CMakeFiles/dfu_nrf51422_xxAC_s130_2.0.1.dir/src/main.c.obj
 .rodata.mesh_evt_handler.str1.1
                0x0002dee9       0x1b examples/dfu/CMakeFiles/dfu_nrf51422_xxAC_s130_2.0.1.dir/src/main.c.obj
 .rodata.HardFault_Handler.str1.1
                0x0002df04        0xe examples/dfu/CMakeFiles/dfu_nrf51422_xxAC_s130_2.0.1.dir/__/nrf_mesh_sdk.c.obj
 .rodata.app_error_handler.str1.1
                0x0002df12       0x1d examples/dfu/CMakeFiles/dfu_nrf51422_xxAC_s130_2.0.1.dir/__/nrf_mesh_sdk.c.obj
 .rodata.mesh_assert_handler.str1.1
                0x0002df2f       0x34 examples/dfu/CMakeFiles/dfu_nrf51422_xxAC_s130_2.0.1.dir/__/nrf_mesh_sdk.c.obj
 .rodata.mesh_core_setup.str1.1
                0x0002df63       0x47 examples/dfu/CMakeFiles/dfu_nrf51422_xxAC_s130_2.0.1.dir/__/nrf_mesh_sdk.c.obj
 .rodata.mesh_softdevice_enable.str1.1
                0x0002dfaa       0x65 examples/dfu/CMakeFiles/dfu_nrf51422_xxAC_s130_2.0.1.dir/__/nrf_mesh_sdk.c.obj
 .rodata.softdevice_assert_handler.str1.1
                0x0002e00f       0x1d examples/dfu/CMakeFiles/dfu_nrf51422_xxAC_s130_2.0.1.dir/__/nrf_mesh_sdk.c.obj
 .rodata.m_flash_groups
                0x0002e02c       0xa8 examples/dfu/CMakeFiles/dfu_nrf51422_xxAC_s130_2.0.1.dir/__/__/mesh/access/src/device_state_manager.c.obj
 .rodata.m_cmd_handlers
                0x0002e0d4       0xb0 examples/dfu/CMakeFiles/dfu_nrf51422_xxAC_s130_2.0.1.dir/__/__/mesh/serial/src/serial_handler_access.c.obj
 .rodata.m_cmd_handlers
                0x0002e184       0x48 examples/dfu/CMakeFiles/dfu_nrf51422_xxAC_s130_2.0.1.dir/__/__/mesh/serial/src/serial.c.obj
 .rodata.serial_process_cmd.str1.1
                0x0002e1cc       0x17 examples/dfu/CMakeFiles/dfu_nrf51422_xxAC_s130_2.0.1.dir/__/__/mesh/serial/src/serial.c.obj
 .rodata.serial_start.str1.1
                0x0002e1e3       0x63 examples/dfu/CMakeFiles/dfu_nrf51422_xxAC_s130_2.0.1.dir/__/__/mesh/serial/src/serial.c.obj
 .rodata.serial_handler_prov_init.str1.1
                0x0002e246       0x4b examples/dfu/CMakeFiles/dfu_nrf51422_xxAC_s130_2.0.1.dir/__/__/mesh/serial/src/serial_handler_prov.c.obj
 .rodata.lengths.8599
                0x0002e291        0x7 examples/dfu/CMakeFiles/dfu_nrf51422_xxAC_s130_2.0.1.dir/__/__/mesh/serial/src/serial_handler_dfu.c.obj
 .rodata.m_handlers
                0x0002e298       0xe8 examples/dfu/CMakeFiles/dfu_nrf51422_xxAC_s130_2.0.1.dir/__/__/mesh/serial/src/serial_handler_mesh.c.obj
 .rodata.m_cmd_handlers
                0x0002e380       0x18 examples/dfu/CMakeFiles/dfu_nrf51422_xxAC_s130_2.0.1.dir/__/__/mesh/serial/src/serial_handler_models.c.obj
 .rodata.m_cmd_handlers
                0x0002e398       0x48 examples/dfu/CMakeFiles/dfu_nrf51422_xxAC_s130_2.0.1.dir/__/__/mesh/serial/src/serial_handler_device.c.obj
 .rodata.m_prov_callbacks
                0x0002e3e0       0x10 examples/dfu/CMakeFiles/dfu_nrf51422_xxAC_s130_2.0.1.dir/__/__/mesh/prov/src/prov_provisioner.c.obj
 .rodata.m_prov_callbacks
                0x0002e3f0       0x10 examples/dfu/CMakeFiles/dfu_nrf51422_xxAC_s130_2.0.1.dir/__/__/mesh/prov/src/prov_provisionee.c.obj
 .rodata.prov_provisionee_cb_ack_received.str1.1
                0x0002e400       0x53 examples/dfu/CMakeFiles/dfu_nrf51422_xxAC_s130_2.0.1.dir/__/__/mesh/prov/src/prov_provisionee.c.obj
 .rodata.pdu_sizes.8424
                0x0002e453        0xa examples/dfu/CMakeFiles/dfu_nrf51422_xxAC_s130_2.0.1.dir/__/__/mesh/prov/src/provisioning.c.obj
 .rodata.alphanumeric.8529
                0x0002e45d       0x25 examples/dfu/CMakeFiles/dfu_nrf51422_xxAC_s130_2.0.1.dir/__/__/mesh/prov/src/prov_utils.c.obj
 *fill*         0x0002e482        0x2 
 .rodata.numeric_max.8523
                0x0002e484       0x24 examples/dfu/CMakeFiles/dfu_nrf51422_xxAC_s130_2.0.1.dir/__/__/mesh/prov/src/prov_utils.c.obj
 .rodata.prov_utils_authentication_values_derive.str1.1
                0x0002e4a8        0x5 examples/dfu/CMakeFiles/dfu_nrf51422_xxAC_s130_2.0.1.dir/__/__/mesh/prov/src/prov_utils.c.obj
 .rodata.prov_utils_derive_keys.str1.1
                0x0002e4ad        0xf examples/dfu/CMakeFiles/dfu_nrf51422_xxAC_s130_2.0.1.dir/__/__/mesh/prov/src/prov_utils.c.obj
 .rodata.add_active_bearer.str1.1
                0x0002e4bc       0x2c examples/dfu/CMakeFiles/dfu_nrf51422_xxAC_s130_2.0.1.dir/__/__/mesh/prov/src/prov_bearer_adv.c.obj
 .rodata.crctable.8282
                0x0002e4e8      0x100 examples/dfu/CMakeFiles/dfu_nrf51422_xxAC_s130_2.0.1.dir/__/__/mesh/prov/src/prov_bearer_adv.c.obj
 .rodata.interface.8512
                0x0002e5e8       0x14 examples/dfu/CMakeFiles/dfu_nrf51422_xxAC_s130_2.0.1.dir/__/__/mesh/prov/src/prov_bearer_adv.c.obj
 .rodata.prov_bearer_adv_packet_in.str1.1
                0x0002e5fc      0x26e examples/dfu/CMakeFiles/dfu_nrf51422_xxAC_s130_2.0.1.dir/__/__/mesh/prov/src/prov_bearer_adv.c.obj
 .rodata.tx_retry_cb.str1.1
                0x0002e86a       0x37 examples/dfu/CMakeFiles/dfu_nrf51422_xxAC_s130_2.0.1.dir/__/__/mesh/prov/src/prov_bearer_adv.c.obj
 .rodata.abort_timeout.str1.1
                0x0002e8a1       0x19 examples/dfu/CMakeFiles/dfu_nrf51422_xxAC_s130_2.0.1.dir/__/__/mesh/dfu/src/nrf_mesh_dfu.c.obj
 .rodata.dfu_evt_handler.str1.1
                0x0002e8ba      0x182 examples/dfu/CMakeFiles/dfu_nrf51422_xxAC_s130_2.0.1.dir/__/__/mesh/dfu/src/nrf_mesh_dfu.c.obj
 .rodata.flash_op_complete.str1.1
                0x0002ea3c       0x3b examples/dfu/CMakeFiles/dfu_nrf51422_xxAC_s130_2.0.1.dir/__/__/mesh/dfu/src/nrf_mesh_dfu.c.obj
 .rodata.m_adv_channels
                0x0002ea77        0x3 examples/dfu/CMakeFiles/dfu_nrf51422_xxAC_s130_2.0.1.dir/__/__/mesh/dfu/src/nrf_mesh_dfu.c.obj
 .rodata.nrf_mesh_dfu_cmd_send.str1.1
                0x0002ea7a       0x18 examples/dfu/CMakeFiles/dfu_nrf51422_xxAC_s130_2.0.1.dir/__/__/mesh/dfu/src/nrf_mesh_dfu.c.obj
 .rodata.timer_timeout.str1.1
                0x0002ea92       0x18 examples/dfu/CMakeFiles/dfu_nrf51422_xxAC_s130_2.0.1.dir/__/__/mesh/dfu/src/nrf_mesh_dfu.c.obj
                                 0x13 (size before relaxing)
 *fill*         0x0002ea92        0x2 
 .rodata.m_all_operations
                0x0002ea94       0x10 mesh/core/libmesh_core_nrf51422_xxAC.a(mesh_flash.c.obj)
 .rodata.types_lookup.6447
                0x0002eaa4        0x4 mesh/core/libmesh_core_nrf51422_xxAC.a(nrf_mesh_utils.c.obj)
 .rodata.nrf_mesh_listen.str1.1
                0x0002eaa8       0x70 mesh/core/libmesh_core_nrf51422_xxAC.a(nrf_mesh.c.obj)
 .rodata.CSWTCH.9
                0x0002eb18       0x10 mesh/core/libmesh_core_nrf51422_xxAC.a(hal.c.obj)
 .rodata        0x0002eb28       0x15 mesh/core/libmesh_core_nrf51422_xxAC.a(enc.c.obj)
 .rodata.network_packet_in.str1.1
                0x0002eb3d       0x48 mesh/core/libmesh_core_nrf51422_xxAC.a(network.c.obj)
 .rodata.network_packet_send.str1.1
                0x0002eb85       0x49 mesh/core/libmesh_core_nrf51422_xxAC.a(network.c.obj)
 .rodata        0x0002ebce        0x7 mesh/core/libmesh_core_nrf51422_xxAC.a(nrf_mesh_keygen.c.obj)
 .rodata.log_callback_rtt.str1.1
                0x0002ebd5       0x15 mesh/core/libmesh_core_nrf51422_xxAC.a(log.c.obj)
 .rodata.str1.1
                0x0002ebea       0x11 mesh/core/libmesh_core_nrf51422_xxAC.a(log.c.obj)
 *fill*         0x0002ebfb        0x1 
 .rodata.INVALID_HEADER
                0x0002ebfc        0x4 mesh/core/libmesh_core_nrf51422_xxAC.a(flash_manager.c.obj)
                0x0002ebfc                INVALID_HEADER
 .rodata.PADDING_HEADER
                0x0002ec00        0x4 mesh/core/libmesh_core_nrf51422_xxAC.a(flash_manager.c.obj)
                0x0002ec00                PADDING_HEADER
 .rodata.SEAL_HEADER
                0x0002ec04        0x4 mesh/core/libmesh_core_nrf51422_xxAC.a(flash_manager.c.obj)
                0x0002ec04                SEAL_HEADER
 .rodata.process_action_queue.str1.1
                0x0002ec08       0x21 mesh/core/libmesh_core_nrf51422_xxAC.a(flash_manager.c.obj)
                                 0x4f (size before relaxing)
 .rodata.beacon_packet_in.str1.1
                0x0002ec29       0x51 mesh/core/libmesh_core_nrf51422_xxAC.a(beacon.c.obj)
                                 0x59 (size before relaxing)
 *fill*         0x0002ec7a        0x2 
 .rodata.cp_handler
                0x0002ec7c        0x8 mesh/core/libmesh_core_nrf51422_xxAC.a(heartbeat.c.obj)
 .rodata.net_beacon_init.str1.1
                0x0002ec84        0x5 mesh/core/libmesh_core_nrf51422_xxAC.a(net_beacon.c.obj)
 *fill*         0x0002ec89        0x3 
 .rodata.m_interface
                0x0002ec8c        0xc mesh/core/libmesh_core_nrf51422_xxAC.a(core_tx_adv.c.obj)
 .rodata.radio_mode_to_us_per_byte.6840
                0x0002ec98        0x4 mesh/core/libmesh_core_nrf51422_xxAC.a(broadcast.c.obj)
 .rodata.channel_rf_offsets.6081
                0x0002ec9c       0x28 mesh/core/libmesh_core_nrf51422_xxAC.a(radio_config.c.obj)
 .rodata        0x0002ecc4        0x3 mesh/core/libmesh_core_nrf51422_xxAC.a(scanner.c.obj)
 .rodata.sar_ctx_cancel.str1.1
                0x0002ecc7       0x18 mesh/core/libmesh_core_nrf51422_xxAC.a(transport.c.obj)
 .rodata.sar_ctx_tx_complete.str1.1
                0x0002ecdf       0x1d mesh/core/libmesh_core_nrf51422_xxAC.a(transport.c.obj)
                                 0x4b (size before relaxing)
 .rodata.test_transport_decrypt.str1.1
                0x0002ecfc       0x13 mesh/core/libmesh_core_nrf51422_xxAC.a(transport.c.obj)
 .rodata.transport_packet_in.str1.1
                0x0002ed0f       0x24 mesh/core/libmesh_core_nrf51422_xxAC.a(transport.c.obj)
 .rodata.upper_transport_access_packet_in.str1.1
                0x0002ed33       0x29 mesh/core/libmesh_core_nrf51422_xxAC.a(transport.c.obj)
 .rodata.upper_transport_packet_in.str1.1
                0x0002ed5c       0x2e mesh/core/libmesh_core_nrf51422_xxAC.a(transport.c.obj)
 .rodata.upper_transport_tx.str1.1
                0x0002ed8a       0x2c mesh/core/libmesh_core_nrf51422_xxAC.a(transport.c.obj)
                                 0x34 (size before relaxing)
 .rodata.flash_manager_defrag.str1.1
                0x0002edb6       0x28 mesh/core/libmesh_core_nrf51422_xxAC.a(flash_manager_defrag.c.obj)
                                 0x56 (size before relaxing)
 *fill*         0x0002edde        0x2 
 .rodata.m_procedure_steps
                0x0002ede0       0x28 mesh/core/libmesh_core_nrf51422_xxAC.a(flash_manager_defrag.c.obj)
 .rodata.Rb.5046
                0x0002ee08       0x10 mesh/core/libmesh_core_nrf51422_xxAC.a(aes_cmac.c.obj)
 .rodata._DoInit.str1.1
                0x0002ee18       0x14 external/rtt/librtt_nrf51422_xxAC.a(SEGGER_RTT.c.obj)
 .rodata._aV2C.4374
                0x0002ee2c       0x10 external/rtt/librtt_nrf51422_xxAC.a(SEGGER_RTT_printf.c.obj)
 .rodata.curve_secp256r1
                0x0002ee3c       0xb0 external/micro-ecc/libuECC_nrf51422_xxAC.a(uECC.c.obj)
 .rodata._global_impure_ptr
                0x0002eeec        0x4 c:/a/gcc_arm/6/bin/../lib/gcc/arm-none-eabi/6.3.1/../../../../arm-none-eabi/lib/thumb/v6-m\libg_nano.a(lib_a-impure.o)
                0x0002eeec                _global_impure_ptr
 *(.eh_frame*)
 .eh_frame      0x0002eef0        0x0 c:/a/gcc_arm/6/bin/../lib/gcc/arm-none-eabi/6.3.1/thumb/v6-m/crtbegin.o
 .eh_frame      0x0002eef0        0x4 c:/a/gcc_arm/6/bin/../lib/gcc/arm-none-eabi/6.3.1/thumb/v6-m/crtend.o

.glue_7         0x0002eef4        0x0
 .glue_7        0x0002eef4        0x0 linker stubs

.glue_7t        0x0002eef4        0x0
 .glue_7t       0x0002eef4        0x0 linker stubs

.vfp11_veneer   0x0002eef4        0x0
 .vfp11_veneer  0x0002eef4        0x0 linker stubs

.v4_bx          0x0002eef4        0x0
 .v4_bx         0x0002eef4        0x0 linker stubs

.iplt           0x0002eef4        0x0
 .iplt          0x0002eef4        0x0 c:/a/gcc_arm/6/bin/../lib/gcc/arm-none-eabi/6.3.1/thumb/v6-m/crtbegin.o

.pwr_mgmt_data  0x0002eef4        0x0
                [!provide]                PROVIDE (__start_pwr_mgmt_data, .)
 *(SORT(.pwr_mgmt_data*))
                [!provide]                PROVIDE (__stop_pwr_mgmt_data, .)

.log_const_data
                0x0002eef4        0x0
                [!provide]                PROVIDE (__start_log_const_data, .)
 *(.log_const_data)
                [!provide]                PROVIDE (__stop_log_const_data, .)

.cli_command    0x0002eef4        0x0
                [!provide]                PROVIDE (__start_cli_command, .)
 *(.cli_command)
                [!provide]                PROVIDE (__stop_cli_command, .)

.sdh_stack_observers
                0x0002eef4        0x0
                [!provide]                PROVIDE (__start_sdh_stack_observers, .)
 *(SORT(.sdh_stack_observers*))
                [!provide]                PROVIDE (__stop_sdh_stack_observers, .)

.sdh_req_observers
                0x0002eef4        0x0
                [!provide]                PROVIDE (__start_sdh_req_observers, .)
 *(SORT(.sdh_req_observers*))
                [!provide]                PROVIDE (__stop_sdh_req_observers, .)

.sdh_state_observers
                0x0002eef4        0x0
                [!provide]                PROVIDE (__start_sdh_state_observers, .)
 *(SORT(.sdh_state_observers*))
                [!provide]                PROVIDE (__stop_sdh_state_observers, .)

.sdh_ant_observers
                0x0002eef4        0x0
                [!provide]                PROVIDE (__start_sdh_ant_observers, .)
 *(SORT(.sdh_ant_observers*))
                [!provide]                PROVIDE (__stop_sdh_ant_observers, .)

.sdh_ble_observers
                0x0002eef4        0x0
                [!provide]                PROVIDE (__start_sdh_ble_observers, .)
 *(SORT(.sdh_ble_observers*))
                [!provide]                PROVIDE (__stop_sdh_ble_observers, .)

.sdh_soc_observers
                0x0002eef4        0x0
                [!provide]                PROVIDE (__start_sdh_soc_observers, .)
 *(SORT(.sdh_soc_observers*))
                [!provide]                PROVIDE (__stop_sdh_soc_observers, .)

.ARM.extab
 *(.ARM.extab* .gnu.linkonce.armextab.*)
                0x0002eef4                __exidx_start = .

.ARM.exidx      0x0002eef4        0x8
 *(.ARM.exidx* .gnu.linkonce.armexidx.*)
 .ARM.exidx     0x0002eef4        0x8 c:/a/gcc_arm/6/bin/../lib/gcc/arm-none-eabi/6.3.1/../../../../arm-none-eabi/lib/thumb/v6-m/crt0.o
                0x0002eefc                __exidx_end = .
                0x0002eefc                __etext = .

.rel.dyn        0x0002eefc        0x0
 .rel.iplt      0x0002eefc        0x0 c:/a/gcc_arm/6/bin/../lib/gcc/arm-none-eabi/6.3.1/thumb/v6-m/crtbegin.o

.data           0x200022d8      0x10c load address 0x0002eefc
                0x200022d8                __data_start__ = .
 *(vtable)
 *(.data*)
 .data.rom_base
                0x200022d8        0x4 examples/dfu/CMakeFiles/dfu_nrf51422_xxAC_s130_2.0.1.dir/src/main.c.obj
                0x200022d8                rom_base
 .data.rom_end  0x200022dc        0x4 examples/dfu/CMakeFiles/dfu_nrf51422_xxAC_s130_2.0.1.dir/src/main.c.obj
                0x200022dc                rom_end
 .data.flash_clear_mem_available_struct.7803
                0x200022e0       0x10 examples/dfu/CMakeFiles/dfu_nrf51422_xxAC_s130_2.0.1.dir/__/__/mesh/access/src/access.c.obj
 .data.flash_store_mem_available_struct.7827
                0x200022f0       0x10 examples/dfu/CMakeFiles/dfu_nrf51422_xxAC_s130_2.0.1.dir/__/__/mesh/access/src/access.c.obj
 .data.mem_listener.8022
                0x20002300       0x10 examples/dfu/CMakeFiles/dfu_nrf51422_xxAC_s130_2.0.1.dir/__/__/mesh/access/src/device_state_manager.c.obj
 .data.m_async_process_flag
                0x20002310        0x4 examples/dfu/CMakeFiles/dfu_nrf51422_xxAC_s130_2.0.1.dir/__/__/mesh/prov/src/prov_bearer_adv.c.obj
 .data.mem_listener.7168
                0x20002314       0x10 mesh/core/libmesh_core_nrf51422_xxAC.a(net_state.c.obj)
 .data.mem_listener.7173
                0x20002324       0x10 mesh/core/libmesh_core_nrf51422_xxAC.a(net_state.c.obj)
 .data.mem_listener.7187
                0x20002334       0x10 mesh/core/libmesh_core_nrf51422_xxAC.a(net_state.c.obj)
 .data.mem_listener.7204
                0x20002344       0x10 mesh/core/libmesh_core_nrf51422_xxAC.a(net_state.c.obj)
 .data.m_nrf_mesh_listener
                0x20002354        0xc mesh/core/libmesh_core_nrf51422_xxAC.a(nrf_mesh.c.obj)
 .data.g_log_dbg_lvl
                0x20002360        0x4 mesh/core/libmesh_core_nrf51422_xxAC.a(log.c.obj)
                0x20002360                g_log_dbg_lvl
 .data.g_log_dbg_msk
                0x20002364        0x4 mesh/core/libmesh_core_nrf51422_xxAC.a(log.c.obj)
                0x20002364                g_log_dbg_msk
 .data.g_log_hex_digits
                0x20002368        0x4 mesh/core/libmesh_core_nrf51422_xxAC.a(log.c.obj)
                0x20002368                g_log_hex_digits
 .data.m_log_callback
                0x2000236c        0x4 mesh/core/libmesh_core_nrf51422_xxAC.a(log.c.obj)
                0x2000236c                m_log_callback
 .data.g_rng_function
                0x20002370        0x4 external/micro-ecc/libuECC_nrf51422_xxAC.a(uECC.c.obj)
 .data._impure_ptr
                0x20002374        0x4 c:/a/gcc_arm/6/bin/../lib/gcc/arm-none-eabi/6.3.1/../../../../arm-none-eabi/lib/thumb/v6-m\libg_nano.a(lib_a-impure.o)
                0x20002374                _impure_ptr
 .data.impure_data
                0x20002378       0x60 c:/a/gcc_arm/6/bin/../lib/gcc/arm-none-eabi/6.3.1/../../../../arm-none-eabi/lib/thumb/v6-m\libg_nano.a(lib_a-impure.o)
                0x200023d8                . = ALIGN (0x4)
                0x200023d8                PROVIDE (__preinit_array_start, .)
 *(.preinit_array)
                0x200023d8                PROVIDE (__preinit_array_end, .)
                0x200023d8                . = ALIGN (0x4)
                0x200023d8                PROVIDE (__init_array_start, .)
 *(SORT(.init_array.*))
 *(.init_array)
 .init_array    0x200023d8        0x4 c:/a/gcc_arm/6/bin/../lib/gcc/arm-none-eabi/6.3.1/thumb/v6-m/crtbegin.o
                0x200023dc                PROVIDE (__init_array_end, .)
                0x200023dc                . = ALIGN (0x4)
                [!provide]                PROVIDE (__fini_array_start, .)
 *(SORT(.fini_array.*))
 *(.fini_array)
 .fini_array    0x200023dc        0x4 c:/a/gcc_arm/6/bin/../lib/gcc/arm-none-eabi/6.3.1/thumb/v6-m/crtbegin.o
                [!provide]                PROVIDE (__fini_array_end, .)
 *(.jcr*)
 .jcr           0x200023e0        0x0 c:/a/gcc_arm/6/bin/../lib/gcc/arm-none-eabi/6.3.1/thumb/v6-m/crtbegin.o
 .jcr           0x200023e0        0x4 c:/a/gcc_arm/6/bin/../lib/gcc/arm-none-eabi/6.3.1/thumb/v6-m/crtend.o
                0x200023e4                . = ALIGN (0x4)
                0x200023e4                __data_end__ = .
LOAD c:/a/gcc_arm/6/bin/../lib/gcc/arm-none-eabi/6.3.1/thumb/v6-m/crti.o
LOAD c:/a/gcc_arm/6/bin/../lib/gcc/arm-none-eabi/6.3.1/thumb/v6-m/crtbegin.o
LOAD c:/a/gcc_arm/6/bin/../lib/gcc/arm-none-eabi/6.3.1/../../../../arm-none-eabi/lib/thumb/v6-m/crt0.o
LOAD examples/dfu/CMakeFiles/dfu_nrf51422_xxAC_s130_2.0.1.dir/src/main.c.obj
LOAD examples/dfu/CMakeFiles/dfu_nrf51422_xxAC_s130_2.0.1.dir/__/nrf_mesh_sdk.c.obj
LOAD examples/dfu/CMakeFiles/dfu_nrf51422_xxAC_s130_2.0.1.dir/__/__/mesh/access/src/access_publish.c.obj
LOAD examples/dfu/CMakeFiles/dfu_nrf51422_xxAC_s130_2.0.1.dir/__/__/mesh/access/src/access.c.obj
LOAD examples/dfu/CMakeFiles/dfu_nrf51422_xxAC_s130_2.0.1.dir/__/__/mesh/access/src/access_reliable.c.obj
LOAD examples/dfu/CMakeFiles/dfu_nrf51422_xxAC_s130_2.0.1.dir/__/__/mesh/access/src/device_state_manager.c.obj
LOAD examples/dfu/CMakeFiles/dfu_nrf51422_xxAC_s130_2.0.1.dir/__/__/mesh/serial/src/serial_uart.c.obj
LOAD examples/dfu/CMakeFiles/dfu_nrf51422_xxAC_s130_2.0.1.dir/__/__/mesh/serial/src/serial_bearer.c.obj
LOAD examples/dfu/CMakeFiles/dfu_nrf51422_xxAC_s130_2.0.1.dir/__/__/mesh/serial/src/serial_handler_common.c.obj
LOAD examples/dfu/CMakeFiles/dfu_nrf51422_xxAC_s130_2.0.1.dir/__/__/mesh/serial/src/serial_handler_access.c.obj
LOAD examples/dfu/CMakeFiles/dfu_nrf51422_xxAC_s130_2.0.1.dir/__/__/mesh/serial/src/serial_handler_config.c.obj
LOAD examples/dfu/CMakeFiles/dfu_nrf51422_xxAC_s130_2.0.1.dir/__/__/mesh/serial/src/serial_handler_openmesh.c.obj
LOAD examples/dfu/CMakeFiles/dfu_nrf51422_xxAC_s130_2.0.1.dir/__/__/mesh/serial/src/serial.c.obj
LOAD examples/dfu/CMakeFiles/dfu_nrf51422_xxAC_s130_2.0.1.dir/__/__/mesh/serial/src/serial_handler_prov.c.obj
LOAD examples/dfu/CMakeFiles/dfu_nrf51422_xxAC_s130_2.0.1.dir/__/__/mesh/serial/src/serial_handler_dfu.c.obj
LOAD examples/dfu/CMakeFiles/dfu_nrf51422_xxAC_s130_2.0.1.dir/__/__/mesh/serial/src/serial_handler_mesh.c.obj
LOAD examples/dfu/CMakeFiles/dfu_nrf51422_xxAC_s130_2.0.1.dir/__/__/mesh/serial/src/serial_handler_models.c.obj
LOAD examples/dfu/CMakeFiles/dfu_nrf51422_xxAC_s130_2.0.1.dir/__/__/mesh/serial/src/serial_handler_device.c.obj
LOAD examples/dfu/CMakeFiles/dfu_nrf51422_xxAC_s130_2.0.1.dir/__/__/mesh/serial/src/nrf_mesh_serial.c.obj
LOAD examples/dfu/CMakeFiles/dfu_nrf51422_xxAC_s130_2.0.1.dir/__/__/mesh/serial/src/serial_handler_app.c.obj
LOAD examples/dfu/CMakeFiles/dfu_nrf51422_xxAC_s130_2.0.1.dir/__/__/mesh/prov/src/prov_provisioner.c.obj
LOAD examples/dfu/CMakeFiles/dfu_nrf51422_xxAC_s130_2.0.1.dir/__/__/mesh/prov/src/prov_provisionee.c.obj
LOAD examples/dfu/CMakeFiles/dfu_nrf51422_xxAC_s130_2.0.1.dir/__/__/mesh/prov/src/nrf_mesh_prov.c.obj
LOAD examples/dfu/CMakeFiles/dfu_nrf51422_xxAC_s130_2.0.1.dir/__/__/mesh/prov/src/provisioning.c.obj
LOAD examples/dfu/CMakeFiles/dfu_nrf51422_xxAC_s130_2.0.1.dir/__/__/mesh/prov/src/prov_beacon.c.obj
LOAD examples/dfu/CMakeFiles/dfu_nrf51422_xxAC_s130_2.0.1.dir/__/__/mesh/prov/src/prov_utils.c.obj
LOAD examples/dfu/CMakeFiles/dfu_nrf51422_xxAC_s130_2.0.1.dir/__/__/mesh/prov/src/prov_bearer_adv.c.obj
LOAD examples/dfu/CMakeFiles/dfu_nrf51422_xxAC_s130_2.0.1.dir/__/__/mesh/dfu/src/nrf_mesh_dfu.c.obj
LOAD examples/dfu/CMakeFiles/dfu_nrf51422_xxAC_s130_2.0.1.dir/__/nrf_mesh_weak.c.obj
LOAD examples/dfu/CMakeFiles/dfu_nrf51422_xxAC_s130_2.0.1.dir/__/__/external/nRF5_SDK_14.2.0_17b948a/components/toolchain/system_nrf51.c.obj
LOAD examples/dfu/CMakeFiles/dfu_nrf51422_xxAC_s130_2.0.1.dir/__/__/external/nRF5_SDK_14.2.0_17b948a/components/toolchain/gcc/gcc_startup_nrf51.S.obj
LOAD mesh/core/libmesh_core_nrf51422_xxAC.a
LOAD external/rtt/librtt_nrf51422_xxAC.a
LOAD external/micro-ecc/libuECC_nrf51422_xxAC.a
START GROUP
LOAD c:/a/gcc_arm/6/bin/../lib/gcc/arm-none-eabi/6.3.1/thumb/v6-m\libgcc.a
LOAD c:/a/gcc_arm/6/bin/../lib/gcc/arm-none-eabi/6.3.1/../../../../arm-none-eabi/lib/thumb/v6-m\libg_nano.a
LOAD c:/a/gcc_arm/6/bin/../lib/gcc/arm-none-eabi/6.3.1/../../../../arm-none-eabi/lib/thumb/v6-m\libc_nano.a
END GROUP
START GROUP
LOAD c:/a/gcc_arm/6/bin/../lib/gcc/arm-none-eabi/6.3.1/thumb/v6-m\libgcc.a
LOAD c:/a/gcc_arm/6/bin/../lib/gcc/arm-none-eabi/6.3.1/../../../../arm-none-eabi/lib/thumb/v6-m\libc_nano.a
END GROUP
LOAD c:/a/gcc_arm/6/bin/../lib/gcc/arm-none-eabi/6.3.1/thumb/v6-m/crtend.o
LOAD c:/a/gcc_arm/6/bin/../lib/gcc/arm-none-eabi/6.3.1/thumb/v6-m/crtn.o
START GROUP
LOAD c:/a/gcc_arm/6/bin/../lib/gcc/arm-none-eabi/6.3.1/thumb/v6-m\libgcc.a
LOAD c:/a/gcc_arm/6/bin/../lib/gcc/arm-none-eabi/6.3.1/../../../../arm-none-eabi/lib/thumb/v6-m\libc.a
LOAD c:/a/gcc_arm/6/bin/../lib/gcc/arm-none-eabi/6.3.1/../../../../arm-none-eabi/lib/thumb/v6-m\libnosys.a
END GROUP

.igot.plt       0x200023e4        0x0 load address 0x0002f008
 .igot.plt      0x200023e4        0x0 c:/a/gcc_arm/6/bin/../lib/gcc/arm-none-eabi/6.3.1/thumb/v6-m/crtbegin.o
                0x200023e4                . = ALIGN (0x4)

.svc_data       0x200023e4        0x0
                [!provide]                PROVIDE (__start_svc_data, .)
 *(.svc_data)
                [!provide]                PROVIDE (__stop_svc_data, .)

.fs_data        0x200023e4        0x0
                [!provide]                PROVIDE (__start_fs_data, .)
 *(.fs_data)
                [!provide]                PROVIDE (__stop_fs_data, .)

.log_dynamic_data
                0x200023e4        0x0
                [!provide]                PROVIDE (__start_log_dynamic_data, .)
 *(.log_dynamic_data)
                [!provide]                PROVIDE (__stop_log_dynamic_data, .)

.cli_sorted_cmd_ptrs
                0x200023e4        0x0
                [!provide]                PROVIDE (__start_cli_sorted_cmd_ptrs, .)
 *(.cli_sorted_cmd_ptrs)
                [!provide]                PROVIDE (__stop_cli_sorted_cmd_ptrs, .)

.bss            0x200023e8     0x3b48 load address 0x0002f010
                0x200023e8                . = ALIGN (0x4)
                0x200023e8                __bss_start__ = .
 *(.bss*)
 .bss           0x200023e8       0x1c c:/a/gcc_arm/6/bin/../lib/gcc/arm-none-eabi/6.3.1/thumb/v6-m/crtbegin.o
 .bss.m_evt_handler
                0x20002404        0x8 examples/dfu/CMakeFiles/dfu_nrf51422_xxAC_s130_2.0.1.dir/src/main.c.obj
 .bss.m_ble_evt_buffer
                0x2000240c       0x47 examples/dfu/CMakeFiles/dfu_nrf51422_xxAC_s130_2.0.1.dir/__/nrf_mesh_sdk.c.obj
 *fill*         0x20002453        0x1 
 .bss.m_publish_timer
                0x20002454       0x18 examples/dfu/CMakeFiles/dfu_nrf51422_xxAC_s130_2.0.1.dir/__/__/mesh/access/src/access_publish.c.obj
 .bss.m_publish_timer_counter
                0x2000246c        0x4 examples/dfu/CMakeFiles/dfu_nrf51422_xxAC_s130_2.0.1.dir/__/__/mesh/access/src/access_publish.c.obj
 .bss.m_publish_timer_running
                0x20002470        0x1 examples/dfu/CMakeFiles/dfu_nrf51422_xxAC_s130_2.0.1.dir/__/__/mesh/access/src/access_publish.c.obj
 .bss.m_timer_resolution
                0x20002471        0x1 examples/dfu/CMakeFiles/dfu_nrf51422_xxAC_s130_2.0.1.dir/__/__/mesh/access/src/access_publish.c.obj
 *fill*         0x20002472        0x2 
 .bss.mp_publication_list
                0x20002474        0x4 examples/dfu/CMakeFiles/dfu_nrf51422_xxAC_s130_2.0.1.dir/__/__/mesh/access/src/access_publish.c.obj
 .bss.m_element_pool
                0x20002478        0x6 examples/dfu/CMakeFiles/dfu_nrf51422_xxAC_s130_2.0.1.dir/__/__/mesh/access/src/access.c.obj
 *fill*         0x2000247e        0x2 
 .bss.m_flash_manager
                0x20002480       0x24 examples/dfu/CMakeFiles/dfu_nrf51422_xxAC_s130_2.0.1.dir/__/__/mesh/access/src/access.c.obj
 .bss.m_flash_not_ready
                0x200024a4        0x1 examples/dfu/CMakeFiles/dfu_nrf51422_xxAC_s130_2.0.1.dir/__/__/mesh/access/src/access.c.obj
 .bss.m_metadata_stored
                0x200024a5        0x1 examples/dfu/CMakeFiles/dfu_nrf51422_xxAC_s130_2.0.1.dir/__/__/mesh/access/src/access.c.obj
 *fill*         0x200024a6        0x2 
 .bss.m_model_pool
                0x200024a8       0x68 examples/dfu/CMakeFiles/dfu_nrf51422_xxAC_s130_2.0.1.dir/__/__/mesh/access/src/access.c.obj
 .bss.m_subscription_list_pool
                0x20002510       0x10 examples/dfu/CMakeFiles/dfu_nrf51422_xxAC_s130_2.0.1.dir/__/__/mesh/access/src/access.c.obj
 .bss.m_reliable
                0x20002520       0x74 examples/dfu/CMakeFiles/dfu_nrf51422_xxAC_s130_2.0.1.dir/__/__/mesh/access/src/access_reliable.c.obj
 .bss.m_addr_nonvirtual_allocated
                0x20002594        0x4 examples/dfu/CMakeFiles/dfu_nrf51422_xxAC_s130_2.0.1.dir/__/__/mesh/access/src/device_state_manager.c.obj
 .bss.m_addr_nonvirtual_needs_flashing
                0x20002598        0x4 examples/dfu/CMakeFiles/dfu_nrf51422_xxAC_s130_2.0.1.dir/__/__/mesh/access/src/device_state_manager.c.obj
 .bss.m_addr_unicast_allocated
                0x2000259c        0x4 examples/dfu/CMakeFiles/dfu_nrf51422_xxAC_s130_2.0.1.dir/__/__/mesh/access/src/device_state_manager.c.obj
 .bss.m_addr_unicast_needs_flashing
                0x200025a0        0x4 examples/dfu/CMakeFiles/dfu_nrf51422_xxAC_s130_2.0.1.dir/__/__/mesh/access/src/device_state_manager.c.obj
 .bss.m_addr_virtual_allocated
                0x200025a4        0x4 examples/dfu/CMakeFiles/dfu_nrf51422_xxAC_s130_2.0.1.dir/__/__/mesh/access/src/device_state_manager.c.obj
 .bss.m_addr_virtual_needs_flashing
                0x200025a8        0x4 examples/dfu/CMakeFiles/dfu_nrf51422_xxAC_s130_2.0.1.dir/__/__/mesh/access/src/device_state_manager.c.obj
 .bss.m_addresses
                0x200025ac       0x40 examples/dfu/CMakeFiles/dfu_nrf51422_xxAC_s130_2.0.1.dir/__/__/mesh/access/src/device_state_manager.c.obj
 .bss.m_appkey_allocated
                0x200025ec        0x4 examples/dfu/CMakeFiles/dfu_nrf51422_xxAC_s130_2.0.1.dir/__/__/mesh/access/src/device_state_manager.c.obj
 .bss.m_appkey_needs_flashing
                0x200025f0        0x4 examples/dfu/CMakeFiles/dfu_nrf51422_xxAC_s130_2.0.1.dir/__/__/mesh/access/src/device_state_manager.c.obj
 .bss.m_appkeys
                0x200025f4      0x150 examples/dfu/CMakeFiles/dfu_nrf51422_xxAC_s130_2.0.1.dir/__/__/mesh/access/src/device_state_manager.c.obj
 .bss.m_devkey_allocated
                0x20002744        0x4 examples/dfu/CMakeFiles/dfu_nrf51422_xxAC_s130_2.0.1.dir/__/__/mesh/access/src/device_state_manager.c.obj
 .bss.m_devkey_needs_flashing
                0x20002748        0x4 examples/dfu/CMakeFiles/dfu_nrf51422_xxAC_s130_2.0.1.dir/__/__/mesh/access/src/device_state_manager.c.obj
 .bss.m_devkeys
                0x2000274c       0x16 examples/dfu/CMakeFiles/dfu_nrf51422_xxAC_s130_2.0.1.dir/__/__/mesh/access/src/device_state_manager.c.obj
 .bss.m_flash_is_available
                0x20002762        0x1 examples/dfu/CMakeFiles/dfu_nrf51422_xxAC_s130_2.0.1.dir/__/__/mesh/access/src/device_state_manager.c.obj
 *fill*         0x20002763        0x1 
 .bss.m_flash_manager
                0x20002764       0x24 examples/dfu/CMakeFiles/dfu_nrf51422_xxAC_s130_2.0.1.dir/__/__/mesh/access/src/device_state_manager.c.obj
 .bss.m_flash_mem_listener_update_all
                0x20002788       0x10 examples/dfu/CMakeFiles/dfu_nrf51422_xxAC_s130_2.0.1.dir/__/__/mesh/access/src/device_state_manager.c.obj
 .bss.m_has_primary_subnet
                0x20002798        0x1 examples/dfu/CMakeFiles/dfu_nrf51422_xxAC_s130_2.0.1.dir/__/__/mesh/access/src/device_state_manager.c.obj
 *fill*         0x20002799        0x1 
 .bss.m_local_unicast_addr
                0x2000279a        0x4 examples/dfu/CMakeFiles/dfu_nrf51422_xxAC_s130_2.0.1.dir/__/__/mesh/access/src/device_state_manager.c.obj
 *fill*         0x2000279e        0x2 
 .bss.m_subnet_allocated
                0x200027a0        0x4 examples/dfu/CMakeFiles/dfu_nrf51422_xxAC_s130_2.0.1.dir/__/__/mesh/access/src/device_state_manager.c.obj
 .bss.m_subnet_needs_flashing
                0x200027a4        0x4 examples/dfu/CMakeFiles/dfu_nrf51422_xxAC_s130_2.0.1.dir/__/__/mesh/access/src/device_state_manager.c.obj
 .bss.m_subnets
                0x200027a8      0x2b0 examples/dfu/CMakeFiles/dfu_nrf51422_xxAC_s130_2.0.1.dir/__/__/mesh/access/src/device_state_manager.c.obj
 .bss.m_virtual_addresses
                0x20002a58       0xa0 examples/dfu/CMakeFiles/dfu_nrf51422_xxAC_s130_2.0.1.dir/__/__/mesh/access/src/device_state_manager.c.obj
 .bss.m_can_receive
                0x20002af8        0x1 examples/dfu/CMakeFiles/dfu_nrf51422_xxAC_s130_2.0.1.dir/__/__/mesh/serial/src/serial_uart.c.obj
 *fill*         0x20002af9        0x3 
 .bss.m_char_rx_cb
                0x20002afc        0x4 examples/dfu/CMakeFiles/dfu_nrf51422_xxAC_s130_2.0.1.dir/__/__/mesh/serial/src/serial_uart.c.obj
 .bss.m_char_tx_cb
                0x20002b00        0x4 examples/dfu/CMakeFiles/dfu_nrf51422_xxAC_s130_2.0.1.dir/__/__/mesh/serial/src/serial_uart.c.obj
 .bss.m_cur_tx_packet_index
                0x20002b04        0x2 examples/dfu/CMakeFiles/dfu_nrf51422_xxAC_s130_2.0.1.dir/__/__/mesh/serial/src/serial_bearer.c.obj
 *fill*         0x20002b06        0x2 
 .bss.m_event_flag
                0x20002b08        0x4 examples/dfu/CMakeFiles/dfu_nrf51422_xxAC_s130_2.0.1.dir/__/__/mesh/serial/src/serial_bearer.c.obj
 .bss.m_ignore_rx_count
                0x20002b0c        0x2 examples/dfu/CMakeFiles/dfu_nrf51422_xxAC_s130_2.0.1.dir/__/__/mesh/serial/src/serial_bearer.c.obj
 .bss.m_rx_buffer
                0x20002b0e       0xd0 examples/dfu/CMakeFiles/dfu_nrf51422_xxAC_s130_2.0.1.dir/__/__/mesh/serial/src/serial_bearer.c.obj
 *fill*         0x20002bde        0x2 
 .bss.m_rx_packet_buf
                0x20002be0        0xc examples/dfu/CMakeFiles/dfu_nrf51422_xxAC_s130_2.0.1.dir/__/__/mesh/serial/src/serial_bearer.c.obj
 .bss.m_serial_state
                0x20002bec        0x1 examples/dfu/CMakeFiles/dfu_nrf51422_xxAC_s130_2.0.1.dir/__/__/mesh/serial/src/serial_bearer.c.obj
 *fill*         0x20002bed        0x1 
 .bss.m_stored_pac_len
                0x20002bee        0x2 examples/dfu/CMakeFiles/dfu_nrf51422_xxAC_s130_2.0.1.dir/__/__/mesh/serial/src/serial_bearer.c.obj
 .bss.m_tx_buffer
                0x20002bf0       0xd0 examples/dfu/CMakeFiles/dfu_nrf51422_xxAC_s130_2.0.1.dir/__/__/mesh/serial/src/serial_bearer.c.obj
 .bss.m_tx_packet_buf
                0x20002cc0        0xc examples/dfu/CMakeFiles/dfu_nrf51422_xxAC_s130_2.0.1.dir/__/__/mesh/serial/src/serial_bearer.c.obj
 .bss.mp_current_rx_packet
                0x20002ccc        0x4 examples/dfu/CMakeFiles/dfu_nrf51422_xxAC_s130_2.0.1.dir/__/__/mesh/serial/src/serial_bearer.c.obj
 .bss.mp_current_tx_packet
                0x20002cd0        0x4 examples/dfu/CMakeFiles/dfu_nrf51422_xxAC_s130_2.0.1.dir/__/__/mesh/serial/src/serial_bearer.c.obj
 .bss.rx_index.8629
                0x20002cd4        0x2 examples/dfu/CMakeFiles/dfu_nrf51422_xxAC_s130_2.0.1.dir/__/__/mesh/serial/src/serial_bearer.c.obj
 .bss.m_cmd_handler_scheduled
                0x20002cd6        0x1 examples/dfu/CMakeFiles/dfu_nrf51422_xxAC_s130_2.0.1.dir/__/__/mesh/serial/src/serial.c.obj
 .bss.m_state   0x20002cd7        0x1 examples/dfu/CMakeFiles/dfu_nrf51422_xxAC_s130_2.0.1.dir/__/__/mesh/serial/src/serial.c.obj
 .bss.m_pb_adv_contexts
                0x20002cd8      0x380 examples/dfu/CMakeFiles/dfu_nrf51422_xxAC_s130_2.0.1.dir/__/__/mesh/serial/src/serial_handler_prov.c.obj
 .bss.m_private_key
                0x20003058       0x20 examples/dfu/CMakeFiles/dfu_nrf51422_xxAC_s130_2.0.1.dir/__/__/mesh/serial/src/serial_handler_prov.c.obj
 .bss.m_prov_contexts
                0x20003078      0x260 examples/dfu/CMakeFiles/dfu_nrf51422_xxAC_s130_2.0.1.dir/__/__/mesh/serial/src/serial_handler_prov.c.obj
 .bss.m_provisioning_caps
                0x200032d8        0xb examples/dfu/CMakeFiles/dfu_nrf51422_xxAC_s130_2.0.1.dir/__/__/mesh/serial/src/serial_handler_prov.c.obj
 .bss.m_public_key
                0x200032e3       0x40 examples/dfu/CMakeFiles/dfu_nrf51422_xxAC_s130_2.0.1.dir/__/__/mesh/serial/src/serial_handler_prov.c.obj
 .bss.m_scanning_running
                0x20003323        0x1 examples/dfu/CMakeFiles/dfu_nrf51422_xxAC_s130_2.0.1.dir/__/__/mesh/serial/src/serial_handler_prov.c.obj
 .bss.m_evt_handler
                0x20003324        0x8 examples/dfu/CMakeFiles/dfu_nrf51422_xxAC_s130_2.0.1.dir/__/__/mesh/serial/src/serial_handler_dfu.c.obj
 .bss.m_evt_handler
                0x2000332c        0x8 examples/dfu/CMakeFiles/dfu_nrf51422_xxAC_s130_2.0.1.dir/__/__/mesh/serial/src/serial_handler_mesh.c.obj
 .bss.p_serial_evt.8788
                0x20003334        0x4 examples/dfu/CMakeFiles/dfu_nrf51422_xxAC_s130_2.0.1.dir/__/__/mesh/serial/src/serial_handler_mesh.c.obj
 .bss.m_models_list
                0x20003338       0x18 examples/dfu/CMakeFiles/dfu_nrf51422_xxAC_s130_2.0.1.dir/__/__/mesh/serial/src/serial_handler_models.c.obj
 .bss.m_beacons
                0x20003350      0x134 examples/dfu/CMakeFiles/dfu_nrf51422_xxAC_s130_2.0.1.dir/__/__/mesh/serial/src/serial_handler_device.c.obj
 .bss.m_app_rx_cb
                0x20003484        0x4 examples/dfu/CMakeFiles/dfu_nrf51422_xxAC_s130_2.0.1.dir/__/__/mesh/serial/src/serial_handler_app.c.obj
 .bss.m_event_handler
                0x20003488        0x4 examples/dfu/CMakeFiles/dfu_nrf51422_xxAC_s130_2.0.1.dir/__/__/mesh/prov/src/prov_beacon.c.obj
 .bss.m_offload_ecdh
                0x2000348c        0x1 examples/dfu/CMakeFiles/dfu_nrf51422_xxAC_s130_2.0.1.dir/__/__/mesh/prov/src/prov_utils.c.obj
 *fill*         0x2000348d        0x3 
 .bss.mp_bearer_head
                0x20003490        0x4 examples/dfu/CMakeFiles/dfu_nrf51422_xxAC_s130_2.0.1.dir/__/__/mesh/prov/src/prov_bearer_adv.c.obj
 .bss.m_adv_packet
                0x20003494       0x28 examples/dfu/CMakeFiles/dfu_nrf51422_xxAC_s130_2.0.1.dir/__/__/mesh/dfu/src/nrf_mesh_dfu.c.obj
 .bss.m_broadcast
                0x200034bc       0x34 examples/dfu/CMakeFiles/dfu_nrf51422_xxAC_s130_2.0.1.dir/__/__/mesh/dfu/src/nrf_mesh_dfu.c.obj
 .bss.m_prng    0x200034f0       0x10 examples/dfu/CMakeFiles/dfu_nrf51422_xxAC_s130_2.0.1.dir/__/__/mesh/dfu/src/nrf_mesh_dfu.c.obj
 .bss.m_timer_evt
                0x20003500       0x18 examples/dfu/CMakeFiles/dfu_nrf51422_xxAC_s130_2.0.1.dir/__/__/mesh/dfu/src/nrf_mesh_dfu.c.obj
 .bss.m_transfer_state
                0x20003518       0x12 examples/dfu/CMakeFiles/dfu_nrf51422_xxAC_s130_2.0.1.dir/__/__/mesh/dfu/src/nrf_mesh_dfu.c.obj
 *fill*         0x2000352a        0x2 
 .bss.m_tx_slots
                0x2000352c      0x120 examples/dfu/CMakeFiles/dfu_nrf51422_xxAC_s130_2.0.1.dir/__/__/mesh/dfu/src/nrf_mesh_dfu.c.obj
 .bss.m_tx_timer_evt
                0x2000364c       0x18 examples/dfu/CMakeFiles/dfu_nrf51422_xxAC_s130_2.0.1.dir/__/__/mesh/dfu/src/nrf_mesh_dfu.c.obj
 .bss.mp_curr_fwid
                0x20003664        0x4 examples/dfu/CMakeFiles/dfu_nrf51422_xxAC_s130_2.0.1.dir/__/__/mesh/dfu/src/nrf_mesh_dfu.c.obj
 .bss.m_internal_event_fifo
                0x20003668       0x14 mesh/core/libmesh_core_nrf51422_xxAC.a(internal_event.c.obj)
 .bss.m_internal_event_fifo_buffer
                0x2000367c      0x100 mesh/core/libmesh_core_nrf51422_xxAC.a(internal_event.c.obj)
 .bss.m_internal_event_initialized
                0x2000377c        0x1 mesh/core/libmesh_core_nrf51422_xxAC.a(internal_event.c.obj)
 *fill*         0x2000377d        0x3 
 .bss.m_report_cb
                0x20003780        0x4 mesh/core/libmesh_core_nrf51422_xxAC.a(internal_event.c.obj)
 .bss.m_uuid    0x20003784       0x10 mesh/core/libmesh_core_nrf51422_xxAC.a(nrf_mesh_configure.c.obj)
 .bss.mp_evt_handlers_head
                0x20003794        0x4 mesh/core/libmesh_core_nrf51422_xxAC.a(event.c.obj)
 .bss.lock_count.7227
                0x20003798        0x4 mesh/core/libmesh_core_nrf51422_xxAC.a(net_state.c.obj)
 .bss.m_flash_manager
                0x2000379c       0x24 mesh/core/libmesh_core_nrf51422_xxAC.a(net_state.c.obj)
 .bss.m_iv_update_timer
                0x200037c0       0x18 mesh/core/libmesh_core_nrf51422_xxAC.a(net_state.c.obj)
 .bss.m_net_state
                0x200037d8       0x14 mesh/core/libmesh_core_nrf51422_xxAC.a(net_state.c.obj)
 .bss.m_seqnum_allocation_in_progress
                0x200037ec        0x1 mesh/core/libmesh_core_nrf51422_xxAC.a(net_state.c.obj)
 .bss.m_test_mode
                0x200037ed        0x1 mesh/core/libmesh_core_nrf51422_xxAC.a(net_state.c.obj)
 *fill*         0x200037ee        0x2 
 .bss.m_event_flag
                0x200037f0        0x4 mesh/core/libmesh_core_nrf51422_xxAC.a(mesh_flash.c.obj)
 .bss.m_suspended
                0x200037f4        0x1 mesh/core/libmesh_core_nrf51422_xxAC.a(mesh_flash.c.obj)
 *fill*         0x200037f5        0x3 
 .bss.m_users   0x200037f8      0x228 mesh/core/libmesh_core_nrf51422_xxAC.a(mesh_flash.c.obj)
 .bss.suspend_count.7515
                0x20003a20        0x4 mesh/core/libmesh_core_nrf51422_xxAC.a(mesh_flash.c.obj)
 .bss.m_is_enabled
                0x20003a24        0x1 mesh/core/libmesh_core_nrf51422_xxAC.a(nrf_mesh.c.obj)
 .bss.m_is_initialized
                0x20003a25        0x1 mesh/core/libmesh_core_nrf51422_xxAC.a(nrf_mesh.c.obj)
 *fill*         0x20003a26        0x2 
 .bss.m_rx_cb   0x20003a28        0x4 mesh/core/libmesh_core_nrf51422_xxAC.a(nrf_mesh.c.obj)
 .bss.m_event_flag
                0x20003a2c        0x4 mesh/core/libmesh_core_nrf51422_xxAC.a(timer_scheduler.c.obj)
 .bss.m_scheduler
                0x20003a30       0x10 mesh/core/libmesh_core_nrf51422_xxAC.a(timer_scheduler.c.obj)
 .bss.m_attributes
                0x20003a40        0x3 mesh/core/libmesh_core_nrf51422_xxAC.a(timer.c.obj)
 *fill*         0x20003a43        0x1 
 .bss.m_callbacks
                0x20003a44        0xc mesh/core/libmesh_core_nrf51422_xxAC.a(timer.c.obj)
 .bss.m_is_in_ts
                0x20003a50        0x1 mesh/core/libmesh_core_nrf51422_xxAC.a(timer.c.obj)
 *fill*         0x20003a51        0x3 
 .bss.m_reference_time
                0x20003a54        0x4 mesh/core/libmesh_core_nrf51422_xxAC.a(timer.c.obj)
 .bss.m_timeouts
                0x20003a58        0xc mesh/core/libmesh_core_nrf51422_xxAC.a(timer.c.obj)
 .bss.m_timer_mut
                0x20003a64        0x4 mesh/core/libmesh_core_nrf51422_xxAC.a(timer.c.obj)
 .bss.m_ts_end_time
                0x20003a68        0x4 mesh/core/libmesh_core_nrf51422_xxAC.a(timer.c.obj)
 .bss.mp_ppi_tasks
                0x20003a6c        0xc mesh/core/libmesh_core_nrf51422_xxAC.a(timer.c.obj)
 .bss.m_current_time
                0x20003a78        0x4 mesh/core/libmesh_core_nrf51422_xxAC.a(ticker.c.obj)
 .bss.m_timer   0x20003a7c       0x18 mesh/core/libmesh_core_nrf51422_xxAC.a(ticker.c.obj)
 .bss.m_current_timeslot
                0x20003a94       0x1c mesh/core/libmesh_core_nrf51422_xxAC.a(timeslot.c.obj)
 .bss.m_lfclk_ppm
                0x20003ab0        0x4 mesh/core/libmesh_core_nrf51422_xxAC.a(timeslot.c.obj)
 .bss.m_radio_request_earliest
                0x20003ab4       0x10 mesh/core/libmesh_core_nrf51422_xxAC.a(timeslot.c.obj)
 .bss.m_state_lock
                0x20003ac4        0x1 mesh/core/libmesh_core_nrf51422_xxAC.a(timeslot.c.obj)
 .bss.m_timeslot_forced_command
                0x20003ac5        0x1 mesh/core/libmesh_core_nrf51422_xxAC.a(timeslot.c.obj)
 *fill*         0x20003ac6        0x2 
 .bss.s_last_rtc_value.6691
                0x20003ac8        0x8 mesh/core/libmesh_core_nrf51422_xxAC.a(timeslot.c.obj)
 .bss.m_bearer_event_fifo
                0x20003ad0       0x14 mesh/core/libmesh_core_nrf51422_xxAC.a(bearer_event.c.obj)
 .bss.m_bearer_event_fifo_buffer
                0x20003ae4      0x100 mesh/core/libmesh_core_nrf51422_xxAC.a(bearer_event.c.obj)
 .bss.m_critical
                0x20003be4        0x4 mesh/core/libmesh_core_nrf51422_xxAC.a(bearer_event.c.obj)
 .bss.m_flag_count
                0x20003be8        0x4 mesh/core/libmesh_core_nrf51422_xxAC.a(bearer_event.c.obj)
 .bss.m_flag_event_callbacks
                0x20003bec       0x20 mesh/core/libmesh_core_nrf51422_xxAC.a(bearer_event.c.obj)
 .bss.m_flags   0x20003c0c        0x4 mesh/core/libmesh_core_nrf51422_xxAC.a(bearer_event.c.obj)
 .bss.m_irq_priority
                0x20003c10        0x1 mesh/core/libmesh_core_nrf51422_xxAC.a(bearer_event.c.obj)
 *fill*         0x20003c11        0x3 
 .bss.m_sequential_event_queue
                0x20003c14        0x8 mesh/core/libmesh_core_nrf51422_xxAC.a(bearer_event.c.obj)
 .bss.s_recursion_guard.6813
                0x20003c1c        0x1 mesh/core/libmesh_core_nrf51422_xxAC.a(bearer_event.c.obj)
 *fill*         0x20003c1d        0x3 
 .bss.m_relay_check_cb
                0x20003c20        0x4 mesh/core/libmesh_core_nrf51422_xxAC.a(network.c.obj)
 .bss.m_relay_enable
                0x20003c24        0x1 mesh/core/libmesh_core_nrf51422_xxAC.a(network.c.obj)
 *fill*         0x20003c25        0x3 
 .bss.m_action_queue
                0x20003c28        0xc mesh/core/libmesh_core_nrf51422_xxAC.a(flash_manager.c.obj)
 .bss.m_action_queue_buffer
                0x20003c34      0x104 mesh/core/libmesh_core_nrf51422_xxAC.a(flash_manager.c.obj)
 .bss.m_action_state
                0x20003d38        0x1 mesh/core/libmesh_core_nrf51422_xxAC.a(flash_manager.c.obj)
 *fill*         0x20003d39        0x3 
 .bss.m_memory_listener_queue
                0x20003d3c        0x8 mesh/core/libmesh_core_nrf51422_xxAC.a(flash_manager.c.obj)
 .bss.m_processing_flag
                0x20003d44        0x4 mesh/core/libmesh_core_nrf51422_xxAC.a(flash_manager.c.obj)
 .bss.m_queue_empty_cb
                0x20003d48        0x4 mesh/core/libmesh_core_nrf51422_xxAC.a(flash_manager.c.obj)
 .bss.m_state   0x20003d4c        0x1 mesh/core/libmesh_core_nrf51422_xxAC.a(flash_manager.c.obj)
 *fill*         0x20003d4d        0x1 
 .bss.m_token   0x20003d4e        0x2 mesh/core/libmesh_core_nrf51422_xxAC.a(flash_manager.c.obj)
 .bss.p_current.8541
                0x20003d50        0x4 mesh/core/libmesh_core_nrf51422_xxAC.a(flash_manager.c.obj)
 .bss.result.8542
                0x20003d54        0x1 mesh/core/libmesh_core_nrf51422_xxAC.a(flash_manager.c.obj)
 *fill*         0x20003d55        0x3 
 .bss.m_adv_buffer
                0x20003d58       0x68 mesh/core/libmesh_core_nrf51422_xxAC.a(beacon.c.obj)
 .bss.m_advertiser
                0x20003dc0       0x94 mesh/core/libmesh_core_nrf51422_xxAC.a(beacon.c.obj)
 .bss.m_bearers
                0x20003e54        0x4 mesh/core/libmesh_core_nrf51422_xxAC.a(core_tx.c.obj)
 .bss.m_tx_complete_callback
                0x20003e58        0x4 mesh/core/libmesh_core_nrf51422_xxAC.a(core_tx.c.obj)
 .bss.m_hb_core_evt_handler
                0x20003e5c        0x8 mesh/core/libmesh_core_nrf51422_xxAC.a(heartbeat.c.obj)
 .bss.m_hb_pending_feat_msg
                0x20003e64        0x1 mesh/core/libmesh_core_nrf51422_xxAC.a(heartbeat.c.obj)
 .bss.m_hb_pending_pub_msg
                0x20003e65        0x1 mesh/core/libmesh_core_nrf51422_xxAC.a(heartbeat.c.obj)
 .bss.m_heartbeat_init_done
                0x20003e66        0x1 mesh/core/libmesh_core_nrf51422_xxAC.a(heartbeat.c.obj)
 *fill*         0x20003e67        0x1 
 .bss.m_heartbeat_subscription
                0x20003e68       0x10 mesh/core/libmesh_core_nrf51422_xxAC.a(heartbeat.c.obj)
 .bss.m_publication_count_decrement_cb
                0x20003e78        0x4 mesh/core/libmesh_core_nrf51422_xxAC.a(heartbeat.c.obj)
 .bss.m_publication_get_cb
                0x20003e7c        0x4 mesh/core/libmesh_core_nrf51422_xxAC.a(heartbeat.c.obj)
 .bss.m_publication_timer
                0x20003e80       0x1c mesh/core/libmesh_core_nrf51422_xxAC.a(heartbeat.c.obj)
 .bss.m_subscription_timer
                0x20003e9c       0x18 mesh/core/libmesh_core_nrf51422_xxAC.a(heartbeat.c.obj)
 .bss.m_beacon_salt
                0x20003eb4       0x10 mesh/core/libmesh_core_nrf51422_xxAC.a(net_beacon.c.obj)
 .bss.m_enabled
                0x20003ec4        0x1 mesh/core/libmesh_core_nrf51422_xxAC.a(net_beacon.c.obj)
 *fill*         0x20003ec5        0x3 
 .bss.m_tx_event
                0x20003ec8       0x18 mesh/core/libmesh_core_nrf51422_xxAC.a(net_beacon.c.obj)
 .bss.m_adv_tx_count
                0x20003ee0        0x8 mesh/core/libmesh_core_nrf51422_xxAC.a(core_tx_adv.c.obj)
 .bss.m_advertisers
                0x20003ee8      0x128 mesh/core/libmesh_core_nrf51422_xxAC.a(core_tx_adv.c.obj)
 .bss.m_originator_adv_packet_buffer
                0x20004010      0x100 mesh/core/libmesh_core_nrf51422_xxAC.a(core_tx_adv.c.obj)
 .bss.m_relay_adv_packet_buffer
                0x20004110       0x80 mesh/core/libmesh_core_nrf51422_xxAC.a(core_tx_adv.c.obj)
 .bss.m_subscribers
                0x20004190        0x4 mesh/core/libmesh_core_nrf51422_xxAC.a(ad_listener.c.obj)
 .bss.m_adtype_filter
                0x20004194       0x38 mesh/core/libmesh_core_nrf51422_xxAC.a(ad_type_filter.c.obj)
 .bss.m_adv_prng
                0x200041cc       0x10 mesh/core/libmesh_core_nrf51422_xxAC.a(advertiser.c.obj)
 .bss.m_action_queue
                0x200041dc        0x8 mesh/core/libmesh_core_nrf51422_xxAC.a(bearer_handler.c.obj)
 .bss.m_end_time
                0x200041e4        0x4 mesh/core/libmesh_core_nrf51422_xxAC.a(bearer_handler.c.obj)
 .bss.m_scanner_is_active
                0x200041e8        0x1 mesh/core/libmesh_core_nrf51422_xxAC.a(bearer_handler.c.obj)
 .bss.m_stopped
                0x200041e9        0x1 mesh/core/libmesh_core_nrf51422_xxAC.a(bearer_handler.c.obj)
 *fill*         0x200041ea        0x2 
 .bss.mp_action
                0x200041ec        0x4 mesh/core/libmesh_core_nrf51422_xxAC.a(bearer_handler.c.obj)
 .bss.m_next_channel_index
                0x200041f0        0x1 mesh/core/libmesh_core_nrf51422_xxAC.a(broadcast.c.obj)
 *fill*         0x200041f1        0x3 
 .bss.m_accepted_amount
                0x200041f4        0x4 mesh/core/libmesh_core_nrf51422_xxAC.a(filter_engine.c.obj)
 .bss.m_filter_list_head
                0x200041f8        0x4 mesh/core/libmesh_core_nrf51422_xxAC.a(filter_engine.c.obj)
 .bss.m_scanner
                0x200041fc      0x28c mesh/core/libmesh_core_nrf51422_xxAC.a(scanner.c.obj)
 .bss.m_msg_cache
                0x20004488      0x100 mesh/core/libmesh_core_nrf51422_xxAC.a(msg_cache.c.obj)
 .bss.m_msg_cache_head
                0x20004588        0x4 mesh/core/libmesh_core_nrf51422_xxAC.a(msg_cache.c.obj)
 .bss.m_control_packet_consumer_count
                0x2000458c        0x4 mesh/core/libmesh_core_nrf51422_xxAC.a(transport.c.obj)
 .bss.m_control_packet_consumers
                0x20004590        0x8 mesh/core/libmesh_core_nrf51422_xxAC.a(transport.c.obj)
 .bss.m_sar_alloc
                0x20004598        0x4 mesh/core/libmesh_core_nrf51422_xxAC.a(transport.c.obj)
 .bss.m_sar_process_flag
                0x2000459c        0x4 mesh/core/libmesh_core_nrf51422_xxAC.a(transport.c.obj)
 .bss.m_sar_release
                0x200045a0        0x4 mesh/core/libmesh_core_nrf51422_xxAC.a(transport.c.obj)
 .bss.m_sar_session_cache
                0x200045a4       0x40 mesh/core/libmesh_core_nrf51422_xxAC.a(transport.c.obj)
 .bss.m_sar_session_cache_head
                0x200045e4        0x4 mesh/core/libmesh_core_nrf51422_xxAC.a(transport.c.obj)
 .bss.m_trs_config
                0x200045e8       0x18 mesh/core/libmesh_core_nrf51422_xxAC.a(transport.c.obj)
 .bss.m_trs_sar_sessions
                0x20004600      0x1b0 mesh/core/libmesh_core_nrf51422_xxAC.a(transport.c.obj)
 .bss.m_defrag  0x200047b0       0x1c mesh/core/libmesh_core_nrf51422_xxAC.a(flash_manager_defrag.c.obj)
 .bss.m_token   0x200047cc        0x2 mesh/core/libmesh_core_nrf51422_xxAC.a(flash_manager_defrag.c.obj)
 *fill*         0x200047ce        0x2 
 .bss.mp_recovery_area
                0x200047d0        0x4 mesh/core/libmesh_core_nrf51422_xxAC.a(flash_manager_defrag.c.obj)
 .bss.p_null_ptr.7632
                0x200047d4        0x4 mesh/core/libmesh_core_nrf51422_xxAC.a(flash_manager_defrag.c.obj)
 .bss.m_pool    0x200047d8     0x1000 mesh/core/libmesh_core_nrf51422_xxAC.a(packet_mgr.c.obj)
 .bss.mp_free_head
                0x200057d8        0x4 mesh/core/libmesh_core_nrf51422_xxAC.a(packet_mgr.c.obj)
 .bss.m_128buf  0x200057dc       0x10 mesh/core/libmesh_core_nrf51422_xxAC.a(aes_cmac.c.obj)
 .bss.m_subkey1
                0x200057ec       0x10 mesh/core/libmesh_core_nrf51422_xxAC.a(aes_cmac.c.obj)
 .bss.m_subkey2
                0x200057fc       0x10 mesh/core/libmesh_core_nrf51422_xxAC.a(aes_cmac.c.obj)
 .bss.m_cache_full
                0x2000580c        0x1 mesh/core/libmesh_core_nrf51422_xxAC.a(replay_cache.c.obj)
 .bss.m_cache_index
                0x2000580d        0x1 mesh/core/libmesh_core_nrf51422_xxAC.a(replay_cache.c.obj)
 *fill*         0x2000580e        0x2 
 .bss.m_replay_cache
                0x20005810      0x200 mesh/core/libmesh_core_nrf51422_xxAC.a(replay_cache.c.obj)
 .bss._acDownBuffer
                0x20005a10       0x80 external/rtt/librtt_nrf51422_xxAC.a(SEGGER_RTT.c.obj)
 .bss._acUpBuffer
                0x20005a90      0x400 external/rtt/librtt_nrf51422_xxAC.a(SEGGER_RTT.c.obj)
 .bss.__malloc_free_list
                0x20005e90        0x4 c:/a/gcc_arm/6/bin/../lib/gcc/arm-none-eabi/6.3.1/../../../../arm-none-eabi/lib/thumb/v6-m\libg_nano.a(lib_a-nano-mallocr.o)
                0x20005e90                __malloc_free_list
 .bss.__malloc_sbrk_start
                0x20005e94        0x4 c:/a/gcc_arm/6/bin/../lib/gcc/arm-none-eabi/6.3.1/../../../../arm-none-eabi/lib/thumb/v6-m\libg_nano.a(lib_a-nano-mallocr.o)
                0x20005e94                __malloc_sbrk_start
 .bss.heap_end.4116
                0x20005e98        0x4 c:/a/gcc_arm/6/bin/../lib/gcc/arm-none-eabi/6.3.1/../../../../arm-none-eabi/lib/thumb/v6-m\libnosys.a(sbrk.o)
 *(COMMON)
 COMMON         0x20005e9c        0x8 examples/dfu/CMakeFiles/dfu_nrf51422_xxAC_s130_2.0.1.dir/src/main.c.obj
                0x20005e9c                bank_addr
                0x20005ea0                rom_length
 COMMON         0x20005ea4        0x8 examples/dfu/CMakeFiles/dfu_nrf51422_xxAC_s130_2.0.1.dir/__/nrf_mesh_sdk.c.obj
                0x20005ea4                nrf_nvic_state
 COMMON         0x20005eac        0x4 examples/dfu/CMakeFiles/dfu_nrf51422_xxAC_s130_2.0.1.dir/__/__/mesh/dfu/src/nrf_mesh_dfu.c.obj
                0x20005eac                m_cmd_handler
 COMMON         0x20005eb0        0x4 mesh/core/libmesh_core_nrf51422_xxAC.a(nrf_mesh.c.obj)
                0x20005eb0                m_assertion_handler
 COMMON         0x20005eb4       0x78 external/rtt/librtt_nrf51422_xxAC.a(SEGGER_RTT.c.obj)
                0x20005eb4                _SEGGER_RTT
 COMMON         0x20005f2c        0x4 c:/a/gcc_arm/6/bin/../lib/gcc/arm-none-eabi/6.3.1/../../../../arm-none-eabi/lib/thumb/v6-m\libg_nano.a(lib_a-reent.o)
                0x20005f2c                errno
                0x20005f30                . = ALIGN (0x4)
                0x20005f30                __bss_end__ = .

.heap           0x20005f30      0x800
                0x20005f30                __HeapBase = .
                0x20005f30                __end__ = .
                0x20005f30                PROVIDE (end, .)
 *(.heap*)
 .heap          0x20005f30      0x800 examples/dfu/CMakeFiles/dfu_nrf51422_xxAC_s130_2.0.1.dir/__/__/external/nRF5_SDK_14.2.0_17b948a/components/toolchain/gcc/gcc_startup_nrf51.S.obj
                0x20006730                __HeapLimit = .

.stack_dummy    0x20005f30      0x800
 *(.stack*)
 .stack         0x20005f30      0x800 examples/dfu/CMakeFiles/dfu_nrf51422_xxAC_s130_2.0.1.dir/__/__/external/nRF5_SDK_14.2.0_17b948a/components/toolchain/gcc/gcc_startup_nrf51.S.obj
                0x20007d00                __StackTop = (ORIGIN (RAM) + LENGTH (RAM))
                0x20007500                __StackLimit = (__StackTop - SIZEOF (.stack_dummy))
                0x20007d00                PROVIDE (__stack, __StackTop)
                0x00000001                ASSERT ((__StackLimit >= __HeapLimit), region RAM overflowed with stack)
                0x00000110                DataInitFlashUsed = (__bss_start__ - __data_start__)
                0x00013efc                CodeFlashUsed = (__etext - ORIGIN (FLASH))
                0x0001400c                TotalFlashUsed = (CodeFlashUsed + DataInitFlashUsed)
                0x00000001                ASSERT ((TotalFlashUsed <= LENGTH (FLASH)), region FLASH overflowed with .data and user data)
OUTPUT(examples\dfu\dfu_nrf51422_xxAC_s130_2.0.1.elf elf32-littlearm)

.ARM.attributes
                0x00000000       0x28
 .ARM.attributes
                0x00000000       0x1e c:/a/gcc_arm/6/bin/../lib/gcc/arm-none-eabi/6.3.1/thumb/v6-m/crti.o
 .ARM.attributes
                0x0000001e       0x2c c:/a/gcc_arm/6/bin/../lib/gcc/arm-none-eabi/6.3.1/thumb/v6-m/crtbegin.o
 .ARM.attributes
                0x0000004a       0x1b c:/a/gcc_arm/6/bin/../lib/gcc/arm-none-eabi/6.3.1/../../../../arm-none-eabi/lib/thumb/v6-m/crt0.o
 .ARM.attributes
                0x00000065       0x31 examples/dfu/CMakeFiles/dfu_nrf51422_xxAC_s130_2.0.1.dir/src/main.c.obj
 .ARM.attributes
                0x00000096       0x31 examples/dfu/CMakeFiles/dfu_nrf51422_xxAC_s130_2.0.1.dir/__/nrf_mesh_sdk.c.obj
 .ARM.attributes
                0x000000c7       0x31 examples/dfu/CMakeFiles/dfu_nrf51422_xxAC_s130_2.0.1.dir/__/__/mesh/access/src/access_publish.c.obj
 .ARM.attributes
                0x000000f8       0x31 examples/dfu/CMakeFiles/dfu_nrf51422_xxAC_s130_2.0.1.dir/__/__/mesh/access/src/access.c.obj
 .ARM.attributes
                0x00000129       0x31 examples/dfu/CMakeFiles/dfu_nrf51422_xxAC_s130_2.0.1.dir/__/__/mesh/access/src/access_reliable.c.obj
 .ARM.attributes
                0x0000015a       0x31 examples/dfu/CMakeFiles/dfu_nrf51422_xxAC_s130_2.0.1.dir/__/__/mesh/access/src/device_state_manager.c.obj
 .ARM.attributes
                0x0000018b       0x31 examples/dfu/CMakeFiles/dfu_nrf51422_xxAC_s130_2.0.1.dir/__/__/mesh/serial/src/serial_uart.c.obj
 .ARM.attributes
                0x000001bc       0x31 examples/dfu/CMakeFiles/dfu_nrf51422_xxAC_s130_2.0.1.dir/__/__/mesh/serial/src/serial_bearer.c.obj
 .ARM.attributes
                0x000001ed       0x31 examples/dfu/CMakeFiles/dfu_nrf51422_xxAC_s130_2.0.1.dir/__/__/mesh/serial/src/serial_handler_common.c.obj
 .ARM.attributes
                0x0000021e       0x31 examples/dfu/CMakeFiles/dfu_nrf51422_xxAC_s130_2.0.1.dir/__/__/mesh/serial/src/serial_handler_access.c.obj
 .ARM.attributes
                0x0000024f       0x31 examples/dfu/CMakeFiles/dfu_nrf51422_xxAC_s130_2.0.1.dir/__/__/mesh/serial/src/serial_handler_config.c.obj
 .ARM.attributes
                0x00000280       0x31 examples/dfu/CMakeFiles/dfu_nrf51422_xxAC_s130_2.0.1.dir/__/__/mesh/serial/src/serial_handler_openmesh.c.obj
 .ARM.attributes
                0x000002b1       0x31 examples/dfu/CMakeFiles/dfu_nrf51422_xxAC_s130_2.0.1.dir/__/__/mesh/serial/src/serial.c.obj
 .ARM.attributes
                0x000002e2       0x31 examples/dfu/CMakeFiles/dfu_nrf51422_xxAC_s130_2.0.1.dir/__/__/mesh/serial/src/serial_handler_prov.c.obj
 .ARM.attributes
                0x00000313       0x31 examples/dfu/CMakeFiles/dfu_nrf51422_xxAC_s130_2.0.1.dir/__/__/mesh/serial/src/serial_handler_dfu.c.obj
 .ARM.attributes
                0x00000344       0x31 examples/dfu/CMakeFiles/dfu_nrf51422_xxAC_s130_2.0.1.dir/__/__/mesh/serial/src/serial_handler_mesh.c.obj
 .ARM.attributes
                0x00000375       0x31 examples/dfu/CMakeFiles/dfu_nrf51422_xxAC_s130_2.0.1.dir/__/__/mesh/serial/src/serial_handler_models.c.obj
 .ARM.attributes
                0x000003a6       0x31 examples/dfu/CMakeFiles/dfu_nrf51422_xxAC_s130_2.0.1.dir/__/__/mesh/serial/src/serial_handler_device.c.obj
 .ARM.attributes
                0x000003d7       0x31 examples/dfu/CMakeFiles/dfu_nrf51422_xxAC_s130_2.0.1.dir/__/__/mesh/serial/src/nrf_mesh_serial.c.obj
 .ARM.attributes
                0x00000408       0x31 examples/dfu/CMakeFiles/dfu_nrf51422_xxAC_s130_2.0.1.dir/__/__/mesh/serial/src/serial_handler_app.c.obj
 .ARM.attributes
                0x00000439       0x31 examples/dfu/CMakeFiles/dfu_nrf51422_xxAC_s130_2.0.1.dir/__/__/mesh/prov/src/prov_provisioner.c.obj
 .ARM.attributes
                0x0000046a       0x31 examples/dfu/CMakeFiles/dfu_nrf51422_xxAC_s130_2.0.1.dir/__/__/mesh/prov/src/prov_provisionee.c.obj
 .ARM.attributes
                0x0000049b       0x31 examples/dfu/CMakeFiles/dfu_nrf51422_xxAC_s130_2.0.1.dir/__/__/mesh/prov/src/nrf_mesh_prov.c.obj
 .ARM.attributes
                0x000004cc       0x31 examples/dfu/CMakeFiles/dfu_nrf51422_xxAC_s130_2.0.1.dir/__/__/mesh/prov/src/provisioning.c.obj
 .ARM.attributes
                0x000004fd       0x31 examples/dfu/CMakeFiles/dfu_nrf51422_xxAC_s130_2.0.1.dir/__/__/mesh/prov/src/prov_beacon.c.obj
 .ARM.attributes
                0x0000052e       0x31 examples/dfu/CMakeFiles/dfu_nrf51422_xxAC_s130_2.0.1.dir/__/__/mesh/prov/src/prov_utils.c.obj
 .ARM.attributes
                0x0000055f       0x31 examples/dfu/CMakeFiles/dfu_nrf51422_xxAC_s130_2.0.1.dir/__/__/mesh/prov/src/prov_bearer_adv.c.obj
 .ARM.attributes
                0x00000590       0x31 examples/dfu/CMakeFiles/dfu_nrf51422_xxAC_s130_2.0.1.dir/__/__/mesh/dfu/src/nrf_mesh_dfu.c.obj
 .ARM.attributes
                0x000005c1       0x31 examples/dfu/CMakeFiles/dfu_nrf51422_xxAC_s130_2.0.1.dir/__/__/external/nRF5_SDK_14.2.0_17b948a/components/toolchain/system_nrf51.c.obj
 .ARM.attributes
                0x000005f2       0x1b examples/dfu/CMakeFiles/dfu_nrf51422_xxAC_s130_2.0.1.dir/__/__/external/nRF5_SDK_14.2.0_17b948a/components/toolchain/gcc/gcc_startup_nrf51.S.obj
 .ARM.attributes
                0x0000060d       0x31 mesh/core/libmesh_core_nrf51422_xxAC.a(internal_event.c.obj)
 .ARM.attributes
                0x0000063e       0x31 mesh/core/libmesh_core_nrf51422_xxAC.a(nrf_mesh_configure.c.obj)
 .ARM.attributes
                0x0000066f       0x31 mesh/core/libmesh_core_nrf51422_xxAC.a(event.c.obj)
 .ARM.attributes
                0x000006a0       0x31 mesh/core/libmesh_core_nrf51422_xxAC.a(packet_buffer.c.obj)
 .ARM.attributes
                0x000006d1       0x31 mesh/core/libmesh_core_nrf51422_xxAC.a(fifo.c.obj)
 .ARM.attributes
                0x00000702       0x31 mesh/core/libmesh_core_nrf51422_xxAC.a(net_state.c.obj)
 .ARM.attributes
                0x00000733       0x31 mesh/core/libmesh_core_nrf51422_xxAC.a(mesh_flash.c.obj)
 .ARM.attributes
                0x00000764       0x31 mesh/core/libmesh_core_nrf51422_xxAC.a(nrf_mesh_utils.c.obj)
 .ARM.attributes
                0x00000795       0x31 mesh/core/libmesh_core_nrf51422_xxAC.a(nrf_mesh.c.obj)
 .ARM.attributes
                0x000007c6       0x31 mesh/core/libmesh_core_nrf51422_xxAC.a(hal.c.obj)
 .ARM.attributes
                0x000007f7       0x31 mesh/core/libmesh_core_nrf51422_xxAC.a(timer_scheduler.c.obj)
 .ARM.attributes
                0x00000828       0x31 mesh/core/libmesh_core_nrf51422_xxAC.a(timer.c.obj)
 .ARM.attributes
                0x00000859       0x31 mesh/core/libmesh_core_nrf51422_xxAC.a(ticker.c.obj)
 .ARM.attributes
                0x0000088a       0x31 mesh/core/libmesh_core_nrf51422_xxAC.a(rand.c.obj)
 .ARM.attributes
                0x000008bb       0x31 mesh/core/libmesh_core_nrf51422_xxAC.a(timeslot.c.obj)
 .ARM.attributes
                0x000008ec       0x31 mesh/core/libmesh_core_nrf51422_xxAC.a(bearer_event.c.obj)
 .ARM.attributes
                0x0000091d       0x31 mesh/core/libmesh_core_nrf51422_xxAC.a(enc.c.obj)
 .ARM.attributes
                0x0000094e       0x31 mesh/core/libmesh_core_nrf51422_xxAC.a(network.c.obj)
 .ARM.attributes
                0x0000097f       0x31 mesh/core/libmesh_core_nrf51422_xxAC.a(msqueue.c.obj)
 .ARM.attributes
                0x000009b0       0x31 mesh/core/libmesh_core_nrf51422_xxAC.a(nrf_mesh_keygen.c.obj)
 .ARM.attributes
                0x000009e1       0x31 mesh/core/libmesh_core_nrf51422_xxAC.a(list.c.obj)
 .ARM.attributes
                0x00000a12       0x31 mesh/core/libmesh_core_nrf51422_xxAC.a(log.c.obj)
 .ARM.attributes
                0x00000a43       0x31 mesh/core/libmesh_core_nrf51422_xxAC.a(flash_manager.c.obj)
 .ARM.attributes
                0x00000a74       0x31 mesh/core/libmesh_core_nrf51422_xxAC.a(ccm_soft.c.obj)
 .ARM.attributes
                0x00000aa5       0x31 mesh/core/libmesh_core_nrf51422_xxAC.a(beacon.c.obj)
 .ARM.attributes
                0x00000ad6       0x31 mesh/core/libmesh_core_nrf51422_xxAC.a(flash_manager_internal.c.obj)
 .ARM.attributes
                0x00000b07       0x31 mesh/core/libmesh_core_nrf51422_xxAC.a(core_tx.c.obj)
 .ARM.attributes
                0x00000b38       0x31 mesh/core/libmesh_core_nrf51422_xxAC.a(heartbeat.c.obj)
 .ARM.attributes
                0x00000b69       0x31 mesh/core/libmesh_core_nrf51422_xxAC.a(net_beacon.c.obj)
 .ARM.attributes
                0x00000b9a       0x31 mesh/core/libmesh_core_nrf51422_xxAC.a(core_tx_adv.c.obj)
 .ARM.attributes
                0x00000bcb       0x31 mesh/core/libmesh_core_nrf51422_xxAC.a(ad_listener.c.obj)
 .ARM.attributes
                0x00000bfc       0x31 mesh/core/libmesh_core_nrf51422_xxAC.a(ad_type_filter.c.obj)
 .ARM.attributes
                0x00000c2d       0x31 mesh/core/libmesh_core_nrf51422_xxAC.a(advertiser.c.obj)
 .ARM.attributes
                0x00000c5e       0x31 mesh/core/libmesh_core_nrf51422_xxAC.a(bearer_handler.c.obj)
 .ARM.attributes
                0x00000c8f       0x31 mesh/core/libmesh_core_nrf51422_xxAC.a(broadcast.c.obj)
 .ARM.attributes
                0x00000cc0       0x31 mesh/core/libmesh_core_nrf51422_xxAC.a(filter_engine.c.obj)
 .ARM.attributes
                0x00000cf1       0x31 mesh/core/libmesh_core_nrf51422_xxAC.a(radio_config.c.obj)
 .ARM.attributes
                0x00000d22       0x31 mesh/core/libmesh_core_nrf51422_xxAC.a(scanner.c.obj)
 .ARM.attributes
                0x00000d53       0x31 mesh/core/libmesh_core_nrf51422_xxAC.a(aes.c.obj)
 .ARM.attributes
                0x00000d84       0x31 mesh/core/libmesh_core_nrf51422_xxAC.a(msg_cache.c.obj)
 .ARM.attributes
                0x00000db5       0x31 mesh/core/libmesh_core_nrf51422_xxAC.a(transport.c.obj)
 .ARM.attributes
                0x00000de6       0x31 mesh/core/libmesh_core_nrf51422_xxAC.a(flash_manager_defrag.c.obj)
 .ARM.attributes
                0x00000e17       0x31 mesh/core/libmesh_core_nrf51422_xxAC.a(nrf_flash.c.obj)
 .ARM.attributes
                0x00000e48       0x31 mesh/core/libmesh_core_nrf51422_xxAC.a(packet_mgr.c.obj)
 .ARM.attributes
                0x00000e79       0x31 mesh/core/libmesh_core_nrf51422_xxAC.a(queue.c.obj)
 .ARM.attributes
                0x00000eaa       0x31 mesh/core/libmesh_core_nrf51422_xxAC.a(aes_cmac.c.obj)
 .ARM.attributes
                0x00000edb       0x31 mesh/core/libmesh_core_nrf51422_xxAC.a(nrf_mesh_opt.c.obj)
 .ARM.attributes
                0x00000f0c       0x31 mesh/core/libmesh_core_nrf51422_xxAC.a(replay_cache.c.obj)
 .ARM.attributes
                0x00000f3d       0x31 external/rtt/librtt_nrf51422_xxAC.a(SEGGER_RTT.c.obj)
 .ARM.attributes
                0x00000f6e       0x31 external/rtt/librtt_nrf51422_xxAC.a(SEGGER_RTT_printf.c.obj)
 .ARM.attributes
                0x00000f9f       0x31 external/micro-ecc/libuECC_nrf51422_xxAC.a(uECC.c.obj)
 .ARM.attributes
                0x00000fd0       0x1e c:/a/gcc_arm/6/bin/../lib/gcc/arm-none-eabi/6.3.1/thumb/v6-m\libgcc.a(_thumb1_case_uqi.o)
 .ARM.attributes
                0x00000fee       0x1e c:/a/gcc_arm/6/bin/../lib/gcc/arm-none-eabi/6.3.1/thumb/v6-m\libgcc.a(_thumb1_case_shi.o)
 .ARM.attributes
                0x0000100c       0x1e c:/a/gcc_arm/6/bin/../lib/gcc/arm-none-eabi/6.3.1/thumb/v6-m\libgcc.a(_thumb1_case_uhi.o)
 .ARM.attributes
                0x0000102a       0x1e c:/a/gcc_arm/6/bin/../lib/gcc/arm-none-eabi/6.3.1/thumb/v6-m\libgcc.a(_udivsi3.o)
 .ARM.attributes
                0x00001048       0x1e c:/a/gcc_arm/6/bin/../lib/gcc/arm-none-eabi/6.3.1/thumb/v6-m\libgcc.a(_divsi3.o)
 .ARM.attributes
                0x00001066       0x1e c:/a/gcc_arm/6/bin/../lib/gcc/arm-none-eabi/6.3.1/thumb/v6-m\libgcc.a(_dvmd_tls.o)
 .ARM.attributes
                0x00001084       0x2c c:/a/gcc_arm/6/bin/../lib/gcc/arm-none-eabi/6.3.1/thumb/v6-m\libgcc.a(_muldi3.o)
 .ARM.attributes
                0x000010b0       0x2c c:/a/gcc_arm/6/bin/../lib/gcc/arm-none-eabi/6.3.1/../../../../arm-none-eabi/lib/thumb/v6-m\libg_nano.a(lib_a-exit.o)
 .ARM.attributes
                0x000010dc       0x2c c:/a/gcc_arm/6/bin/../lib/gcc/arm-none-eabi/6.3.1/../../../../arm-none-eabi/lib/thumb/v6-m\libg_nano.a(lib_a-impure.o)
 .ARM.attributes
                0x00001108       0x2c c:/a/gcc_arm/6/bin/../lib/gcc/arm-none-eabi/6.3.1/../../../../arm-none-eabi/lib/thumb/v6-m\libg_nano.a(lib_a-init.o)
 .ARM.attributes
                0x00001134       0x2c c:/a/gcc_arm/6/bin/../lib/gcc/arm-none-eabi/6.3.1/../../../../arm-none-eabi/lib/thumb/v6-m\libg_nano.a(lib_a-malloc.o)
 .ARM.attributes
                0x00001160       0x2c c:/a/gcc_arm/6/bin/../lib/gcc/arm-none-eabi/6.3.1/../../../../arm-none-eabi/lib/thumb/v6-m\libg_nano.a(lib_a-memcmp.o)
 .ARM.attributes
                0x0000118c       0x2c c:/a/gcc_arm/6/bin/../lib/gcc/arm-none-eabi/6.3.1/../../../../arm-none-eabi/lib/thumb/v6-m\libg_nano.a(lib_a-memcpy-stub.o)
 .ARM.attributes
                0x000011b8       0x2c c:/a/gcc_arm/6/bin/../lib/gcc/arm-none-eabi/6.3.1/../../../../arm-none-eabi/lib/thumb/v6-m\libg_nano.a(lib_a-memset.o)
 .ARM.attributes
                0x000011e4       0x2c c:/a/gcc_arm/6/bin/../lib/gcc/arm-none-eabi/6.3.1/../../../../arm-none-eabi/lib/thumb/v6-m\libg_nano.a(lib_a-nano-freer.o)
 .ARM.attributes
                0x00001210       0x2c c:/a/gcc_arm/6/bin/../lib/gcc/arm-none-eabi/6.3.1/../../../../arm-none-eabi/lib/thumb/v6-m\libg_nano.a(lib_a-nano-mallocr.o)
 .ARM.attributes
                0x0000123c       0x2c c:/a/gcc_arm/6/bin/../lib/gcc/arm-none-eabi/6.3.1/../../../../arm-none-eabi/lib/thumb/v6-m\libg_nano.a(lib_a-sbrkr.o)
 .ARM.attributes
                0x00001268       0x2c c:/a/gcc_arm/6/bin/../lib/gcc/arm-none-eabi/6.3.1/../../../../arm-none-eabi/lib/thumb/v6-m\libg_nano.a(lib_a-strcpy.o)
 .ARM.attributes
                0x00001294       0x1c c:/a/gcc_arm/6/bin/../lib/gcc/arm-none-eabi/6.3.1/../../../../arm-none-eabi/lib/thumb/v6-m\libg_nano.a(lib_a-strlen.o)
 .ARM.attributes
                0x000012b0       0x2c c:/a/gcc_arm/6/bin/../lib/gcc/arm-none-eabi/6.3.1/../../../../arm-none-eabi/lib/thumb/v6-m\libg_nano.a(lib_a-strrchr.o)
 .ARM.attributes
                0x000012dc       0x2c c:/a/gcc_arm/6/bin/../lib/gcc/arm-none-eabi/6.3.1/../../../../arm-none-eabi/lib/thumb/v6-m\libg_nano.a(lib_a-mlock.o)
 .ARM.attributes
                0x00001308       0x2c c:/a/gcc_arm/6/bin/../lib/gcc/arm-none-eabi/6.3.1/../../../../arm-none-eabi/lib/thumb/v6-m\libg_nano.a(lib_a-reent.o)
 .ARM.attributes
                0x00001334       0x2c c:/a/gcc_arm/6/bin/../lib/gcc/arm-none-eabi/6.3.1/../../../../arm-none-eabi/lib/thumb/v6-m\libg_nano.a(lib_a-strchr.o)
 .ARM.attributes
                0x00001360       0x2c c:/a/gcc_arm/6/bin/../lib/gcc/arm-none-eabi/6.3.1/thumb/v6-m/crtend.o
 .ARM.attributes
                0x0000138c       0x1e c:/a/gcc_arm/6/bin/../lib/gcc/arm-none-eabi/6.3.1/thumb/v6-m/crtn.o
 .ARM.attributes
                0x000013aa       0x2c c:/a/gcc_arm/6/bin/../lib/gcc/arm-none-eabi/6.3.1/../../../../arm-none-eabi/lib/thumb/v6-m\libnosys.a(sbrk.o)
 .ARM.attributes
                0x000013d6       0x2c c:/a/gcc_arm/6/bin/../lib/gcc/arm-none-eabi/6.3.1/../../../../arm-none-eabi/lib/thumb/v6-m\libnosys.a(_exit.o)

.comment        0x00000000       0x7f
 .comment       0x00000000       0x7f examples/dfu/CMakeFiles/dfu_nrf51422_xxAC_s130_2.0.1.dir/src/main.c.obj
                                 0x80 (size before relaxing)
 .comment       0x0000007f       0x80 examples/dfu/CMakeFiles/dfu_nrf51422_xxAC_s130_2.0.1.dir/__/nrf_mesh_sdk.c.obj
 .comment       0x0000007f       0x80 examples/dfu/CMakeFiles/dfu_nrf51422_xxAC_s130_2.0.1.dir/__/__/mesh/access/src/access_publish.c.obj
 .comment       0x0000007f       0x80 examples/dfu/CMakeFiles/dfu_nrf51422_xxAC_s130_2.0.1.dir/__/__/mesh/access/src/access.c.obj
 .comment       0x0000007f       0x80 examples/dfu/CMakeFiles/dfu_nrf51422_xxAC_s130_2.0.1.dir/__/__/mesh/access/src/access_reliable.c.obj
 .comment       0x0000007f       0x80 examples/dfu/CMakeFiles/dfu_nrf51422_xxAC_s130_2.0.1.dir/__/__/mesh/access/src/device_state_manager.c.obj
 .comment       0x0000007f       0x80 examples/dfu/CMakeFiles/dfu_nrf51422_xxAC_s130_2.0.1.dir/__/__/mesh/serial/src/serial_uart.c.obj
 .comment       0x0000007f       0x80 examples/dfu/CMakeFiles/dfu_nrf51422_xxAC_s130_2.0.1.dir/__/__/mesh/serial/src/serial_bearer.c.obj
 .comment       0x0000007f       0x80 examples/dfu/CMakeFiles/dfu_nrf51422_xxAC_s130_2.0.1.dir/__/__/mesh/serial/src/serial_handler_common.c.obj
 .comment       0x0000007f       0x80 examples/dfu/CMakeFiles/dfu_nrf51422_xxAC_s130_2.0.1.dir/__/__/mesh/serial/src/serial_handler_access.c.obj
 .comment       0x0000007f       0x80 examples/dfu/CMakeFiles/dfu_nrf51422_xxAC_s130_2.0.1.dir/__/__/mesh/serial/src/serial_handler_config.c.obj
 .comment       0x0000007f       0x80 examples/dfu/CMakeFiles/dfu_nrf51422_xxAC_s130_2.0.1.dir/__/__/mesh/serial/src/serial_handler_openmesh.c.obj
 .comment       0x0000007f       0x80 examples/dfu/CMakeFiles/dfu_nrf51422_xxAC_s130_2.0.1.dir/__/__/mesh/serial/src/serial.c.obj
 .comment       0x0000007f       0x80 examples/dfu/CMakeFiles/dfu_nrf51422_xxAC_s130_2.0.1.dir/__/__/mesh/serial/src/serial_handler_prov.c.obj
 .comment       0x0000007f       0x80 examples/dfu/CMakeFiles/dfu_nrf51422_xxAC_s130_2.0.1.dir/__/__/mesh/serial/src/serial_handler_dfu.c.obj
 .comment       0x0000007f       0x80 examples/dfu/CMakeFiles/dfu_nrf51422_xxAC_s130_2.0.1.dir/__/__/mesh/serial/src/serial_handler_mesh.c.obj
 .comment       0x0000007f       0x80 examples/dfu/CMakeFiles/dfu_nrf51422_xxAC_s130_2.0.1.dir/__/__/mesh/serial/src/serial_handler_models.c.obj
 .comment       0x0000007f       0x80 examples/dfu/CMakeFiles/dfu_nrf51422_xxAC_s130_2.0.1.dir/__/__/mesh/serial/src/serial_handler_device.c.obj
 .comment       0x0000007f       0x80 examples/dfu/CMakeFiles/dfu_nrf51422_xxAC_s130_2.0.1.dir/__/__/mesh/serial/src/nrf_mesh_serial.c.obj
 .comment       0x0000007f       0x80 examples/dfu/CMakeFiles/dfu_nrf51422_xxAC_s130_2.0.1.dir/__/__/mesh/serial/src/serial_handler_app.c.obj
 .comment       0x0000007f       0x80 examples/dfu/CMakeFiles/dfu_nrf51422_xxAC_s130_2.0.1.dir/__/__/mesh/prov/src/prov_provisioner.c.obj
 .comment       0x0000007f       0x80 examples/dfu/CMakeFiles/dfu_nrf51422_xxAC_s130_2.0.1.dir/__/__/mesh/prov/src/prov_provisionee.c.obj
 .comment       0x0000007f       0x80 examples/dfu/CMakeFiles/dfu_nrf51422_xxAC_s130_2.0.1.dir/__/__/mesh/prov/src/nrf_mesh_prov.c.obj
 .comment       0x0000007f       0x80 examples/dfu/CMakeFiles/dfu_nrf51422_xxAC_s130_2.0.1.dir/__/__/mesh/prov/src/provisioning.c.obj
 .comment       0x0000007f       0x80 examples/dfu/CMakeFiles/dfu_nrf51422_xxAC_s130_2.0.1.dir/__/__/mesh/prov/src/prov_beacon.c.obj
 .comment       0x0000007f       0x80 examples/dfu/CMakeFiles/dfu_nrf51422_xxAC_s130_2.0.1.dir/__/__/mesh/prov/src/prov_utils.c.obj
 .comment       0x0000007f       0x80 examples/dfu/CMakeFiles/dfu_nrf51422_xxAC_s130_2.0.1.dir/__/__/mesh/prov/src/prov_bearer_adv.c.obj
 .comment       0x0000007f       0x80 examples/dfu/CMakeFiles/dfu_nrf51422_xxAC_s130_2.0.1.dir/__/__/mesh/dfu/src/nrf_mesh_dfu.c.obj
 .comment       0x0000007f       0x80 examples/dfu/CMakeFiles/dfu_nrf51422_xxAC_s130_2.0.1.dir/__/__/external/nRF5_SDK_14.2.0_17b948a/components/toolchain/system_nrf51.c.obj
 .comment       0x0000007f       0x80 mesh/core/libmesh_core_nrf51422_xxAC.a(internal_event.c.obj)
 .comment       0x0000007f       0x80 mesh/core/libmesh_core_nrf51422_xxAC.a(nrf_mesh_configure.c.obj)
 .comment       0x0000007f       0x80 mesh/core/libmesh_core_nrf51422_xxAC.a(event.c.obj)
 .comment       0x0000007f       0x80 mesh/core/libmesh_core_nrf51422_xxAC.a(packet_buffer.c.obj)
 .comment       0x0000007f       0x80 mesh/core/libmesh_core_nrf51422_xxAC.a(fifo.c.obj)
 .comment       0x0000007f       0x80 mesh/core/libmesh_core_nrf51422_xxAC.a(net_state.c.obj)
 .comment       0x0000007f       0x80 mesh/core/libmesh_core_nrf51422_xxAC.a(mesh_flash.c.obj)
 .comment       0x0000007f       0x80 mesh/core/libmesh_core_nrf51422_xxAC.a(nrf_mesh_utils.c.obj)
 .comment       0x0000007f       0x80 mesh/core/libmesh_core_nrf51422_xxAC.a(nrf_mesh.c.obj)
 .comment       0x0000007f       0x80 mesh/core/libmesh_core_nrf51422_xxAC.a(hal.c.obj)
 .comment       0x0000007f       0x80 mesh/core/libmesh_core_nrf51422_xxAC.a(timer_scheduler.c.obj)
 .comment       0x0000007f       0x80 mesh/core/libmesh_core_nrf51422_xxAC.a(timer.c.obj)
 .comment       0x0000007f       0x80 mesh/core/libmesh_core_nrf51422_xxAC.a(ticker.c.obj)
 .comment       0x0000007f       0x80 mesh/core/libmesh_core_nrf51422_xxAC.a(rand.c.obj)
 .comment       0x0000007f       0x80 mesh/core/libmesh_core_nrf51422_xxAC.a(timeslot.c.obj)
 .comment       0x0000007f       0x80 mesh/core/libmesh_core_nrf51422_xxAC.a(bearer_event.c.obj)
 .comment       0x0000007f       0x80 mesh/core/libmesh_core_nrf51422_xxAC.a(enc.c.obj)
 .comment       0x0000007f       0x80 mesh/core/libmesh_core_nrf51422_xxAC.a(network.c.obj)
 .comment       0x0000007f       0x80 mesh/core/libmesh_core_nrf51422_xxAC.a(msqueue.c.obj)
 .comment       0x0000007f       0x80 mesh/core/libmesh_core_nrf51422_xxAC.a(nrf_mesh_keygen.c.obj)
 .comment       0x0000007f       0x80 mesh/core/libmesh_core_nrf51422_xxAC.a(list.c.obj)
 .comment       0x0000007f       0x80 mesh/core/libmesh_core_nrf51422_xxAC.a(log.c.obj)
 .comment       0x0000007f       0x80 mesh/core/libmesh_core_nrf51422_xxAC.a(flash_manager.c.obj)
 .comment       0x0000007f       0x80 mesh/core/libmesh_core_nrf51422_xxAC.a(ccm_soft.c.obj)
 .comment       0x0000007f       0x80 mesh/core/libmesh_core_nrf51422_xxAC.a(beacon.c.obj)
 .comment       0x0000007f       0x80 mesh/core/libmesh_core_nrf51422_xxAC.a(flash_manager_internal.c.obj)
 .comment       0x0000007f       0x80 mesh/core/libmesh_core_nrf51422_xxAC.a(core_tx.c.obj)
 .comment       0x0000007f       0x80 mesh/core/libmesh_core_nrf51422_xxAC.a(heartbeat.c.obj)
 .comment       0x0000007f       0x80 mesh/core/libmesh_core_nrf51422_xxAC.a(net_beacon.c.obj)
 .comment       0x0000007f       0x80 mesh/core/libmesh_core_nrf51422_xxAC.a(core_tx_adv.c.obj)
 .comment       0x0000007f       0x80 mesh/core/libmesh_core_nrf51422_xxAC.a(ad_listener.c.obj)
 .comment       0x0000007f       0x80 mesh/core/libmesh_core_nrf51422_xxAC.a(ad_type_filter.c.obj)
 .comment       0x0000007f       0x80 mesh/core/libmesh_core_nrf51422_xxAC.a(advertiser.c.obj)
 .comment       0x0000007f       0x80 mesh/core/libmesh_core_nrf51422_xxAC.a(bearer_handler.c.obj)
 .comment       0x0000007f       0x80 mesh/core/libmesh_core_nrf51422_xxAC.a(broadcast.c.obj)
 .comment       0x0000007f       0x80 mesh/core/libmesh_core_nrf51422_xxAC.a(filter_engine.c.obj)
 .comment       0x0000007f       0x80 mesh/core/libmesh_core_nrf51422_xxAC.a(radio_config.c.obj)
 .comment       0x0000007f       0x80 mesh/core/libmesh_core_nrf51422_xxAC.a(scanner.c.obj)
 .comment       0x0000007f       0x80 mesh/core/libmesh_core_nrf51422_xxAC.a(aes.c.obj)
 .comment       0x0000007f       0x80 mesh/core/libmesh_core_nrf51422_xxAC.a(msg_cache.c.obj)
 .comment       0x0000007f       0x80 mesh/core/libmesh_core_nrf51422_xxAC.a(transport.c.obj)
 .comment       0x0000007f       0x80 mesh/core/libmesh_core_nrf51422_xxAC.a(flash_manager_defrag.c.obj)
 .comment       0x0000007f       0x80 mesh/core/libmesh_core_nrf51422_xxAC.a(nrf_flash.c.obj)
 .comment       0x0000007f       0x80 mesh/core/libmesh_core_nrf51422_xxAC.a(packet_mgr.c.obj)
 .comment       0x0000007f       0x80 mesh/core/libmesh_core_nrf51422_xxAC.a(queue.c.obj)
 .comment       0x0000007f       0x80 mesh/core/libmesh_core_nrf51422_xxAC.a(aes_cmac.c.obj)
 .comment       0x0000007f       0x80 mesh/core/libmesh_core_nrf51422_xxAC.a(nrf_mesh_opt.c.obj)
 .comment       0x0000007f       0x80 mesh/core/libmesh_core_nrf51422_xxAC.a(replay_cache.c.obj)
 .comment       0x0000007f       0x80 external/rtt/librtt_nrf51422_xxAC.a(SEGGER_RTT.c.obj)
 .comment       0x0000007f       0x80 external/rtt/librtt_nrf51422_xxAC.a(SEGGER_RTT_printf.c.obj)
 .comment       0x0000007f       0x80 external/micro-ecc/libuECC_nrf51422_xxAC.a(uECC.c.obj)

.debug_info     0x00000000    0x93a46
 .debug_info    0x00000000     0x22b0 examples/dfu/CMakeFiles/dfu_nrf51422_xxAC_s130_2.0.1.dir/src/main.c.obj
 .debug_info    0x000022b0     0x30bf examples/dfu/CMakeFiles/dfu_nrf51422_xxAC_s130_2.0.1.dir/__/nrf_mesh_sdk.c.obj
 .debug_info    0x0000536f     0x10f5 examples/dfu/CMakeFiles/dfu_nrf51422_xxAC_s130_2.0.1.dir/__/__/mesh/access/src/access_publish.c.obj
 .debug_info    0x00006464     0x4480 examples/dfu/CMakeFiles/dfu_nrf51422_xxAC_s130_2.0.1.dir/__/__/mesh/access/src/access.c.obj
 .debug_info    0x0000a8e4     0x1504 examples/dfu/CMakeFiles/dfu_nrf51422_xxAC_s130_2.0.1.dir/__/__/mesh/access/src/access_reliable.c.obj
 .debug_info    0x0000bde8     0x5fab examples/dfu/CMakeFiles/dfu_nrf51422_xxAC_s130_2.0.1.dir/__/__/mesh/access/src/device_state_manager.c.obj
 .debug_info    0x00011d93     0x1103 examples/dfu/CMakeFiles/dfu_nrf51422_xxAC_s130_2.0.1.dir/__/__/mesh/serial/src/serial_uart.c.obj
 .debug_info    0x00012e96     0x36b7 examples/dfu/CMakeFiles/dfu_nrf51422_xxAC_s130_2.0.1.dir/__/__/mesh/serial/src/serial_bearer.c.obj
 .debug_info    0x0001654d     0x28bb examples/dfu/CMakeFiles/dfu_nrf51422_xxAC_s130_2.0.1.dir/__/__/mesh/serial/src/serial_handler_common.c.obj
 .debug_info    0x00018e08     0x3302 examples/dfu/CMakeFiles/dfu_nrf51422_xxAC_s130_2.0.1.dir/__/__/mesh/serial/src/serial_handler_access.c.obj
 .debug_info    0x0001c10a     0x288d examples/dfu/CMakeFiles/dfu_nrf51422_xxAC_s130_2.0.1.dir/__/__/mesh/serial/src/serial_handler_config.c.obj
 .debug_info    0x0001e997     0x27ca examples/dfu/CMakeFiles/dfu_nrf51422_xxAC_s130_2.0.1.dir/__/__/mesh/serial/src/serial_handler_openmesh.c.obj
 .debug_info    0x00021161     0x326d examples/dfu/CMakeFiles/dfu_nrf51422_xxAC_s130_2.0.1.dir/__/__/mesh/serial/src/serial.c.obj
 .debug_info    0x000243ce     0x47e5 examples/dfu/CMakeFiles/dfu_nrf51422_xxAC_s130_2.0.1.dir/__/__/mesh/serial/src/serial_handler_prov.c.obj
 .debug_info    0x00028bb3     0x367f examples/dfu/CMakeFiles/dfu_nrf51422_xxAC_s130_2.0.1.dir/__/__/mesh/serial/src/serial_handler_dfu.c.obj
 .debug_info    0x0002c232     0x4299 examples/dfu/CMakeFiles/dfu_nrf51422_xxAC_s130_2.0.1.dir/__/__/mesh/serial/src/serial_handler_mesh.c.obj
 .debug_info    0x000304cb     0x2cc2 examples/dfu/CMakeFiles/dfu_nrf51422_xxAC_s130_2.0.1.dir/__/__/mesh/serial/src/serial_handler_models.c.obj
 .debug_info    0x0003318d     0x35c4 examples/dfu/CMakeFiles/dfu_nrf51422_xxAC_s130_2.0.1.dir/__/__/mesh/serial/src/serial_handler_device.c.obj
 .debug_info    0x00036751     0x2974 examples/dfu/CMakeFiles/dfu_nrf51422_xxAC_s130_2.0.1.dir/__/__/mesh/serial/src/nrf_mesh_serial.c.obj
 .debug_info    0x000390c5     0x27e5 examples/dfu/CMakeFiles/dfu_nrf51422_xxAC_s130_2.0.1.dir/__/__/mesh/serial/src/serial_handler_app.c.obj
 .debug_info    0x0003b8aa     0x2323 examples/dfu/CMakeFiles/dfu_nrf51422_xxAC_s130_2.0.1.dir/__/__/mesh/prov/src/prov_provisioner.c.obj
 .debug_info    0x0003dbcd     0x26e4 examples/dfu/CMakeFiles/dfu_nrf51422_xxAC_s130_2.0.1.dir/__/__/mesh/prov/src/prov_provisionee.c.obj
 .debug_info    0x000402b1     0x1bc1 examples/dfu/CMakeFiles/dfu_nrf51422_xxAC_s130_2.0.1.dir/__/__/mesh/prov/src/nrf_mesh_prov.c.obj
 .debug_info    0x00041e72     0x1578 examples/dfu/CMakeFiles/dfu_nrf51422_xxAC_s130_2.0.1.dir/__/__/mesh/prov/src/provisioning.c.obj
 .debug_info    0x000433ea     0x196f examples/dfu/CMakeFiles/dfu_nrf51422_xxAC_s130_2.0.1.dir/__/__/mesh/prov/src/prov_beacon.c.obj
 .debug_info    0x00044d59     0x1ff9 examples/dfu/CMakeFiles/dfu_nrf51422_xxAC_s130_2.0.1.dir/__/__/mesh/prov/src/prov_utils.c.obj
 .debug_info    0x00046d52     0x3928 examples/dfu/CMakeFiles/dfu_nrf51422_xxAC_s130_2.0.1.dir/__/__/mesh/prov/src/prov_bearer_adv.c.obj
 .debug_info    0x0004a67a     0x4c5a examples/dfu/CMakeFiles/dfu_nrf51422_xxAC_s130_2.0.1.dir/__/__/mesh/dfu/src/nrf_mesh_dfu.c.obj
 .debug_info    0x0004f2d4      0x1e5 examples/dfu/CMakeFiles/dfu_nrf51422_xxAC_s130_2.0.1.dir/__/__/external/nRF5_SDK_14.2.0_17b948a/components/toolchain/system_nrf51.c.obj
 .debug_info    0x0004f4b9      0xc54 mesh/core/libmesh_core_nrf51422_xxAC.a(internal_event.c.obj)
 .debug_info    0x0005010d      0xba2 mesh/core/libmesh_core_nrf51422_xxAC.a(nrf_mesh_configure.c.obj)
 .debug_info    0x00050caf     0x14c9 mesh/core/libmesh_core_nrf51422_xxAC.a(event.c.obj)
 .debug_info    0x00052178     0x1c1e mesh/core/libmesh_core_nrf51422_xxAC.a(packet_buffer.c.obj)
 .debug_info    0x00053d96      0xce0 mesh/core/libmesh_core_nrf51422_xxAC.a(fifo.c.obj)
 .debug_info    0x00054a76     0x23be mesh/core/libmesh_core_nrf51422_xxAC.a(net_state.c.obj)
 .debug_info    0x00056e34     0x1860 mesh/core/libmesh_core_nrf51422_xxAC.a(mesh_flash.c.obj)
 .debug_info    0x00058694      0xa60 mesh/core/libmesh_core_nrf51422_xxAC.a(nrf_mesh_utils.c.obj)
 .debug_info    0x000590f4     0x3341 mesh/core/libmesh_core_nrf51422_xxAC.a(nrf_mesh.c.obj)
 .debug_info    0x0005c435      0x472 mesh/core/libmesh_core_nrf51422_xxAC.a(hal.c.obj)
 .debug_info    0x0005c8a7     0x100b mesh/core/libmesh_core_nrf51422_xxAC.a(timer_scheduler.c.obj)
 .debug_info    0x0005d8b2      0xc94 mesh/core/libmesh_core_nrf51422_xxAC.a(timer.c.obj)
 .debug_info    0x0005e546      0x208 mesh/core/libmesh_core_nrf51422_xxAC.a(ticker.c.obj)
 .debug_info    0x0005e74e      0x41e mesh/core/libmesh_core_nrf51422_xxAC.a(rand.c.obj)
 .debug_info    0x0005eb6c     0x19c1 mesh/core/libmesh_core_nrf51422_xxAC.a(timeslot.c.obj)
 .debug_info    0x0006052d     0x1817 mesh/core/libmesh_core_nrf51422_xxAC.a(bearer_event.c.obj)
 .debug_info    0x00061d44     0x1702 mesh/core/libmesh_core_nrf51422_xxAC.a(enc.c.obj)
 .debug_info    0x00063446     0x2afd mesh/core/libmesh_core_nrf51422_xxAC.a(network.c.obj)
 .debug_info    0x00065f43      0xcdf mesh/core/libmesh_core_nrf51422_xxAC.a(msqueue.c.obj)
 .debug_info    0x00066c22      0x4f2 mesh/core/libmesh_core_nrf51422_xxAC.a(nrf_mesh_keygen.c.obj)
 .debug_info    0x00067114      0x46a mesh/core/libmesh_core_nrf51422_xxAC.a(list.c.obj)
 .debug_info    0x0006757e      0xe28 mesh/core/libmesh_core_nrf51422_xxAC.a(log.c.obj)
 .debug_info    0x000683a6     0x3233 mesh/core/libmesh_core_nrf51422_xxAC.a(flash_manager.c.obj)
 .debug_info    0x0006b5d9     0x107b mesh/core/libmesh_core_nrf51422_xxAC.a(ccm_soft.c.obj)
 .debug_info    0x0006c654     0x1929 mesh/core/libmesh_core_nrf51422_xxAC.a(beacon.c.obj)
 .debug_info    0x0006df7d      0xb88 mesh/core/libmesh_core_nrf51422_xxAC.a(flash_manager_internal.c.obj)
 .debug_info    0x0006eb05      0xf80 mesh/core/libmesh_core_nrf51422_xxAC.a(core_tx.c.obj)
 .debug_info    0x0006fa85     0x2156 mesh/core/libmesh_core_nrf51422_xxAC.a(heartbeat.c.obj)
 .debug_info    0x00071bdb     0x14bf mesh/core/libmesh_core_nrf51422_xxAC.a(net_beacon.c.obj)
 .debug_info    0x0007309a     0x1618 mesh/core/libmesh_core_nrf51422_xxAC.a(core_tx_adv.c.obj)
 .debug_info    0x000746b2     0x10f8 mesh/core/libmesh_core_nrf51422_xxAC.a(ad_listener.c.obj)
 .debug_info    0x000757aa      0xf9e mesh/core/libmesh_core_nrf51422_xxAC.a(ad_type_filter.c.obj)
 .debug_info    0x00076748     0x22fc mesh/core/libmesh_core_nrf51422_xxAC.a(advertiser.c.obj)
 .debug_info    0x00078a44     0x1833 mesh/core/libmesh_core_nrf51422_xxAC.a(bearer_handler.c.obj)
 .debug_info    0x0007a277     0x18f3 mesh/core/libmesh_core_nrf51422_xxAC.a(broadcast.c.obj)
 .debug_info    0x0007bb6a      0xccc mesh/core/libmesh_core_nrf51422_xxAC.a(filter_engine.c.obj)
 .debug_info    0x0007c836      0x848 mesh/core/libmesh_core_nrf51422_xxAC.a(radio_config.c.obj)
 .debug_info    0x0007d07e     0x24af mesh/core/libmesh_core_nrf51422_xxAC.a(scanner.c.obj)
 .debug_info    0x0007f52d      0xbe1 mesh/core/libmesh_core_nrf51422_xxAC.a(aes.c.obj)
 .debug_info    0x0008010e      0xa70 mesh/core/libmesh_core_nrf51422_xxAC.a(msg_cache.c.obj)
 .debug_info    0x00080b7e     0x54ce mesh/core/libmesh_core_nrf51422_xxAC.a(transport.c.obj)
 .debug_info    0x0008604c     0x21d4 mesh/core/libmesh_core_nrf51422_xxAC.a(flash_manager_defrag.c.obj)
 .debug_info    0x00088220      0xac0 mesh/core/libmesh_core_nrf51422_xxAC.a(nrf_flash.c.obj)
 .debug_info    0x00088ce0     0x1164 mesh/core/libmesh_core_nrf51422_xxAC.a(packet_mgr.c.obj)
 .debug_info    0x00089e44      0xacb mesh/core/libmesh_core_nrf51422_xxAC.a(queue.c.obj)
 .debug_info    0x0008a90f      0xe2a mesh/core/libmesh_core_nrf51422_xxAC.a(aes_cmac.c.obj)
 .debug_info    0x0008b739      0xb0b mesh/core/libmesh_core_nrf51422_xxAC.a(nrf_mesh_opt.c.obj)
 .debug_info    0x0008c244      0xae9 mesh/core/libmesh_core_nrf51422_xxAC.a(replay_cache.c.obj)
 .debug_info    0x0008cd2d     0x1831 external/rtt/librtt_nrf51422_xxAC.a(SEGGER_RTT.c.obj)
 .debug_info    0x0008e55e      0xed0 external/rtt/librtt_nrf51422_xxAC.a(SEGGER_RTT_printf.c.obj)
 .debug_info    0x0008f42e     0x4618 external/micro-ecc/libuECC_nrf51422_xxAC.a(uECC.c.obj)

.debug_abbrev   0x00000000    0x10f64
 .debug_abbrev  0x00000000      0x445 examples/dfu/CMakeFiles/dfu_nrf51422_xxAC_s130_2.0.1.dir/src/main.c.obj
 .debug_abbrev  0x00000445      0x4ae examples/dfu/CMakeFiles/dfu_nrf51422_xxAC_s130_2.0.1.dir/__/nrf_mesh_sdk.c.obj
 .debug_abbrev  0x000008f3      0x422 examples/dfu/CMakeFiles/dfu_nrf51422_xxAC_s130_2.0.1.dir/__/__/mesh/access/src/access_publish.c.obj
 .debug_abbrev  0x00000d15      0x663 examples/dfu/CMakeFiles/dfu_nrf51422_xxAC_s130_2.0.1.dir/__/__/mesh/access/src/access.c.obj
 .debug_abbrev  0x00001378      0x407 examples/dfu/CMakeFiles/dfu_nrf51422_xxAC_s130_2.0.1.dir/__/__/mesh/access/src/access_reliable.c.obj
 .debug_abbrev  0x0000177f      0x609 examples/dfu/CMakeFiles/dfu_nrf51422_xxAC_s130_2.0.1.dir/__/__/mesh/access/src/device_state_manager.c.obj
 .debug_abbrev  0x00001d88      0x2c1 examples/dfu/CMakeFiles/dfu_nrf51422_xxAC_s130_2.0.1.dir/__/__/mesh/serial/src/serial_uart.c.obj
 .debug_abbrev  0x00002049      0x4a4 examples/dfu/CMakeFiles/dfu_nrf51422_xxAC_s130_2.0.1.dir/__/__/mesh/serial/src/serial_bearer.c.obj
 .debug_abbrev  0x000024ed      0x237 examples/dfu/CMakeFiles/dfu_nrf51422_xxAC_s130_2.0.1.dir/__/__/mesh/serial/src/serial_handler_common.c.obj
 .debug_abbrev  0x00002724      0x2b6 examples/dfu/CMakeFiles/dfu_nrf51422_xxAC_s130_2.0.1.dir/__/__/mesh/serial/src/serial_handler_access.c.obj
 .debug_abbrev  0x000029da      0x273 examples/dfu/CMakeFiles/dfu_nrf51422_xxAC_s130_2.0.1.dir/__/__/mesh/serial/src/serial_handler_config.c.obj
 .debug_abbrev  0x00002c4d      0x230 examples/dfu/CMakeFiles/dfu_nrf51422_xxAC_s130_2.0.1.dir/__/__/mesh/serial/src/serial_handler_openmesh.c.obj
 .debug_abbrev  0x00002e7d      0x3a1 examples/dfu/CMakeFiles/dfu_nrf51422_xxAC_s130_2.0.1.dir/__/__/mesh/serial/src/serial.c.obj
 .debug_abbrev  0x0000321e      0x3e0 examples/dfu/CMakeFiles/dfu_nrf51422_xxAC_s130_2.0.1.dir/__/__/mesh/serial/src/serial_handler_prov.c.obj
 .debug_abbrev  0x000035fe      0x30f examples/dfu/CMakeFiles/dfu_nrf51422_xxAC_s130_2.0.1.dir/__/__/mesh/serial/src/serial_handler_dfu.c.obj
 .debug_abbrev  0x0000390d      0x3aa examples/dfu/CMakeFiles/dfu_nrf51422_xxAC_s130_2.0.1.dir/__/__/mesh/serial/src/serial_handler_mesh.c.obj
 .debug_abbrev  0x00003cb7      0x2f8 examples/dfu/CMakeFiles/dfu_nrf51422_xxAC_s130_2.0.1.dir/__/__/mesh/serial/src/serial_handler_models.c.obj
 .debug_abbrev  0x00003faf      0x368 examples/dfu/CMakeFiles/dfu_nrf51422_xxAC_s130_2.0.1.dir/__/__/mesh/serial/src/serial_handler_device.c.obj
 .debug_abbrev  0x00004317      0x28d examples/dfu/CMakeFiles/dfu_nrf51422_xxAC_s130_2.0.1.dir/__/__/mesh/serial/src/nrf_mesh_serial.c.obj
 .debug_abbrev  0x000045a4      0x232 examples/dfu/CMakeFiles/dfu_nrf51422_xxAC_s130_2.0.1.dir/__/__/mesh/serial/src/serial_handler_app.c.obj
 .debug_abbrev  0x000047d6      0x3d9 examples/dfu/CMakeFiles/dfu_nrf51422_xxAC_s130_2.0.1.dir/__/__/mesh/prov/src/prov_provisioner.c.obj
 .debug_abbrev  0x00004baf      0x463 examples/dfu/CMakeFiles/dfu_nrf51422_xxAC_s130_2.0.1.dir/__/__/mesh/prov/src/prov_provisionee.c.obj
 .debug_abbrev  0x00005012      0x30f examples/dfu/CMakeFiles/dfu_nrf51422_xxAC_s130_2.0.1.dir/__/__/mesh/prov/src/nrf_mesh_prov.c.obj
 .debug_abbrev  0x00005321      0x275 examples/dfu/CMakeFiles/dfu_nrf51422_xxAC_s130_2.0.1.dir/__/__/mesh/prov/src/provisioning.c.obj
 .debug_abbrev  0x00005596      0x2b3 examples/dfu/CMakeFiles/dfu_nrf51422_xxAC_s130_2.0.1.dir/__/__/mesh/prov/src/prov_beacon.c.obj
 .debug_abbrev  0x00005849      0x3c4 examples/dfu/CMakeFiles/dfu_nrf51422_xxAC_s130_2.0.1.dir/__/__/mesh/prov/src/prov_utils.c.obj
 .debug_abbrev  0x00005c0d      0x4cd examples/dfu/CMakeFiles/dfu_nrf51422_xxAC_s130_2.0.1.dir/__/__/mesh/prov/src/prov_bearer_adv.c.obj
 .debug_abbrev  0x000060da      0x58f examples/dfu/CMakeFiles/dfu_nrf51422_xxAC_s130_2.0.1.dir/__/__/mesh/dfu/src/nrf_mesh_dfu.c.obj
 .debug_abbrev  0x00006669      0x117 examples/dfu/CMakeFiles/dfu_nrf51422_xxAC_s130_2.0.1.dir/__/__/external/nRF5_SDK_14.2.0_17b948a/components/toolchain/system_nrf51.c.obj
 .debug_abbrev  0x00006780      0x248 mesh/core/libmesh_core_nrf51422_xxAC.a(internal_event.c.obj)
 .debug_abbrev  0x000069c8      0x242 mesh/core/libmesh_core_nrf51422_xxAC.a(nrf_mesh_configure.c.obj)
 .debug_abbrev  0x00006c0a      0x283 mesh/core/libmesh_core_nrf51422_xxAC.a(event.c.obj)
 .debug_abbrev  0x00006e8d      0x472 mesh/core/libmesh_core_nrf51422_xxAC.a(packet_buffer.c.obj)
 .debug_abbrev  0x000072ff      0x2ec mesh/core/libmesh_core_nrf51422_xxAC.a(fifo.c.obj)
 .debug_abbrev  0x000075eb      0x527 mesh/core/libmesh_core_nrf51422_xxAC.a(net_state.c.obj)
 .debug_abbrev  0x00007b12      0x45e mesh/core/libmesh_core_nrf51422_xxAC.a(mesh_flash.c.obj)
 .debug_abbrev  0x00007f70      0x253 mesh/core/libmesh_core_nrf51422_xxAC.a(nrf_mesh_utils.c.obj)
 .debug_abbrev  0x000081c3      0x42a mesh/core/libmesh_core_nrf51422_xxAC.a(nrf_mesh.c.obj)
 .debug_abbrev  0x000085ed      0x1e4 mesh/core/libmesh_core_nrf51422_xxAC.a(hal.c.obj)
 .debug_abbrev  0x000087d1      0x3bd mesh/core/libmesh_core_nrf51422_xxAC.a(timer_scheduler.c.obj)
 .debug_abbrev  0x00008b8e      0x326 mesh/core/libmesh_core_nrf51422_xxAC.a(timer.c.obj)
 .debug_abbrev  0x00008eb4      0x14f mesh/core/libmesh_core_nrf51422_xxAC.a(ticker.c.obj)
 .debug_abbrev  0x00009003      0x1ba mesh/core/libmesh_core_nrf51422_xxAC.a(rand.c.obj)
 .debug_abbrev  0x000091bd      0x4ba mesh/core/libmesh_core_nrf51422_xxAC.a(timeslot.c.obj)
 .debug_abbrev  0x00009677      0x493 mesh/core/libmesh_core_nrf51422_xxAC.a(bearer_event.c.obj)
 .debug_abbrev  0x00009b0a      0x35c mesh/core/libmesh_core_nrf51422_xxAC.a(enc.c.obj)
 .debug_abbrev  0x00009e66      0x513 mesh/core/libmesh_core_nrf51422_xxAC.a(network.c.obj)
 .debug_abbrev  0x0000a379      0x287 mesh/core/libmesh_core_nrf51422_xxAC.a(msqueue.c.obj)
 .debug_abbrev  0x0000a600      0x158 mesh/core/libmesh_core_nrf51422_xxAC.a(nrf_mesh_keygen.c.obj)
 .debug_abbrev  0x0000a758      0x186 mesh/core/libmesh_core_nrf51422_xxAC.a(list.c.obj)
 .debug_abbrev  0x0000a8de      0x24e mesh/core/libmesh_core_nrf51422_xxAC.a(log.c.obj)
 .debug_abbrev  0x0000ab2c      0x5a4 mesh/core/libmesh_core_nrf51422_xxAC.a(flash_manager.c.obj)
 .debug_abbrev  0x0000b0d0      0x2ac mesh/core/libmesh_core_nrf51422_xxAC.a(ccm_soft.c.obj)
 .debug_abbrev  0x0000b37c      0x37f mesh/core/libmesh_core_nrf51422_xxAC.a(beacon.c.obj)
 .debug_abbrev  0x0000b6fb      0x283 mesh/core/libmesh_core_nrf51422_xxAC.a(flash_manager_internal.c.obj)
 .debug_abbrev  0x0000b97e      0x30c mesh/core/libmesh_core_nrf51422_xxAC.a(core_tx.c.obj)
 .debug_abbrev  0x0000bc8a      0x4ad mesh/core/libmesh_core_nrf51422_xxAC.a(heartbeat.c.obj)
 .debug_abbrev  0x0000c137      0x3dc mesh/core/libmesh_core_nrf51422_xxAC.a(net_beacon.c.obj)
 .debug_abbrev  0x0000c513      0x321 mesh/core/libmesh_core_nrf51422_xxAC.a(core_tx_adv.c.obj)
 .debug_abbrev  0x0000c834      0x325 mesh/core/libmesh_core_nrf51422_xxAC.a(ad_listener.c.obj)
 .debug_abbrev  0x0000cb59      0x33d mesh/core/libmesh_core_nrf51422_xxAC.a(ad_type_filter.c.obj)
 .debug_abbrev  0x0000ce96      0x4bb mesh/core/libmesh_core_nrf51422_xxAC.a(advertiser.c.obj)
 .debug_abbrev  0x0000d351      0x40b mesh/core/libmesh_core_nrf51422_xxAC.a(bearer_handler.c.obj)
 .debug_abbrev  0x0000d75c      0x3b5 mesh/core/libmesh_core_nrf51422_xxAC.a(broadcast.c.obj)
 .debug_abbrev  0x0000db11      0x27a mesh/core/libmesh_core_nrf51422_xxAC.a(filter_engine.c.obj)
 .debug_abbrev  0x0000dd8b      0x19f mesh/core/libmesh_core_nrf51422_xxAC.a(radio_config.c.obj)
 .debug_abbrev  0x0000df2a      0x510 mesh/core/libmesh_core_nrf51422_xxAC.a(scanner.c.obj)
 .debug_abbrev  0x0000e43a      0x25d mesh/core/libmesh_core_nrf51422_xxAC.a(aes.c.obj)
 .debug_abbrev  0x0000e697      0x256 mesh/core/libmesh_core_nrf51422_xxAC.a(msg_cache.c.obj)
 .debug_abbrev  0x0000e8ed      0x5d9 mesh/core/libmesh_core_nrf51422_xxAC.a(transport.c.obj)
 .debug_abbrev  0x0000eec6      0x553 mesh/core/libmesh_core_nrf51422_xxAC.a(flash_manager_defrag.c.obj)
 .debug_abbrev  0x0000f419      0x21f mesh/core/libmesh_core_nrf51422_xxAC.a(nrf_flash.c.obj)
 .debug_abbrev  0x0000f638      0x3ca mesh/core/libmesh_core_nrf51422_xxAC.a(packet_mgr.c.obj)
 .debug_abbrev  0x0000fa02      0x220 mesh/core/libmesh_core_nrf51422_xxAC.a(queue.c.obj)
 .debug_abbrev  0x0000fc22      0x31a mesh/core/libmesh_core_nrf51422_xxAC.a(aes_cmac.c.obj)
 .debug_abbrev  0x0000ff3c      0x23d mesh/core/libmesh_core_nrf51422_xxAC.a(nrf_mesh_opt.c.obj)
 .debug_abbrev  0x00010179      0x264 mesh/core/libmesh_core_nrf51422_xxAC.a(replay_cache.c.obj)
 .debug_abbrev  0x000103dd      0x39c external/rtt/librtt_nrf51422_xxAC.a(SEGGER_RTT.c.obj)
 .debug_abbrev  0x00010779      0x362 external/rtt/librtt_nrf51422_xxAC.a(SEGGER_RTT_printf.c.obj)
 .debug_abbrev  0x00010adb      0x489 external/micro-ecc/libuECC_nrf51422_xxAC.a(uECC.c.obj)

.debug_loc      0x00000000    0x22094
 .debug_loc     0x00000000      0x223 examples/dfu/CMakeFiles/dfu_nrf51422_xxAC_s130_2.0.1.dir/src/main.c.obj
 .debug_loc     0x00000223      0x2fc examples/dfu/CMakeFiles/dfu_nrf51422_xxAC_s130_2.0.1.dir/__/nrf_mesh_sdk.c.obj
 .debug_loc     0x0000051f      0x55e examples/dfu/CMakeFiles/dfu_nrf51422_xxAC_s130_2.0.1.dir/__/__/mesh/access/src/access_publish.c.obj
 .debug_loc     0x00000a7d     0x1f3a examples/dfu/CMakeFiles/dfu_nrf51422_xxAC_s130_2.0.1.dir/__/__/mesh/access/src/access.c.obj
 .debug_loc     0x000029b7      0x80f examples/dfu/CMakeFiles/dfu_nrf51422_xxAC_s130_2.0.1.dir/__/__/mesh/access/src/access_reliable.c.obj
 .debug_loc     0x000031c6     0x35a2 examples/dfu/CMakeFiles/dfu_nrf51422_xxAC_s130_2.0.1.dir/__/__/mesh/access/src/device_state_manager.c.obj
 .debug_loc     0x00006768       0xa7 examples/dfu/CMakeFiles/dfu_nrf51422_xxAC_s130_2.0.1.dir/__/__/mesh/serial/src/serial_uart.c.obj
 .debug_loc     0x0000680f      0x39d examples/dfu/CMakeFiles/dfu_nrf51422_xxAC_s130_2.0.1.dir/__/__/mesh/serial/src/serial_bearer.c.obj
 .debug_loc     0x00006bac      0x1a9 examples/dfu/CMakeFiles/dfu_nrf51422_xxAC_s130_2.0.1.dir/__/__/mesh/serial/src/serial_handler_common.c.obj
 .debug_loc     0x00006d55      0x7c0 examples/dfu/CMakeFiles/dfu_nrf51422_xxAC_s130_2.0.1.dir/__/__/mesh/serial/src/serial_handler_access.c.obj
 .debug_loc     0x00007515       0x55 examples/dfu/CMakeFiles/dfu_nrf51422_xxAC_s130_2.0.1.dir/__/__/mesh/serial/src/serial_handler_config.c.obj
 .debug_loc     0x0000756a       0x4a examples/dfu/CMakeFiles/dfu_nrf51422_xxAC_s130_2.0.1.dir/__/__/mesh/serial/src/serial_handler_openmesh.c.obj
 .debug_loc     0x000075b4      0x2b3 examples/dfu/CMakeFiles/dfu_nrf51422_xxAC_s130_2.0.1.dir/__/__/mesh/serial/src/serial.c.obj
 .debug_loc     0x00007867      0x484 examples/dfu/CMakeFiles/dfu_nrf51422_xxAC_s130_2.0.1.dir/__/__/mesh/serial/src/serial_handler_prov.c.obj
 .debug_loc     0x00007ceb      0x218 examples/dfu/CMakeFiles/dfu_nrf51422_xxAC_s130_2.0.1.dir/__/__/mesh/serial/src/serial_handler_dfu.c.obj
 .debug_loc     0x00007f03      0x941 examples/dfu/CMakeFiles/dfu_nrf51422_xxAC_s130_2.0.1.dir/__/__/mesh/serial/src/serial_handler_mesh.c.obj
 .debug_loc     0x00008844      0x307 examples/dfu/CMakeFiles/dfu_nrf51422_xxAC_s130_2.0.1.dir/__/__/mesh/serial/src/serial_handler_models.c.obj
 .debug_loc     0x00008b4b      0x361 examples/dfu/CMakeFiles/dfu_nrf51422_xxAC_s130_2.0.1.dir/__/__/mesh/serial/src/serial_handler_device.c.obj
 .debug_loc     0x00008eac       0xec examples/dfu/CMakeFiles/dfu_nrf51422_xxAC_s130_2.0.1.dir/__/__/mesh/serial/src/nrf_mesh_serial.c.obj
 .debug_loc     0x00008f98       0x42 examples/dfu/CMakeFiles/dfu_nrf51422_xxAC_s130_2.0.1.dir/__/__/mesh/serial/src/serial_handler_app.c.obj
 .debug_loc     0x00008fda      0x618 examples/dfu/CMakeFiles/dfu_nrf51422_xxAC_s130_2.0.1.dir/__/__/mesh/prov/src/prov_provisioner.c.obj
 .debug_loc     0x000095f2      0x5e2 examples/dfu/CMakeFiles/dfu_nrf51422_xxAC_s130_2.0.1.dir/__/__/mesh/prov/src/prov_provisionee.c.obj
 .debug_loc     0x00009bd4      0x5ac examples/dfu/CMakeFiles/dfu_nrf51422_xxAC_s130_2.0.1.dir/__/__/mesh/prov/src/nrf_mesh_prov.c.obj
 .debug_loc     0x0000a180      0x4eb examples/dfu/CMakeFiles/dfu_nrf51422_xxAC_s130_2.0.1.dir/__/__/mesh/prov/src/provisioning.c.obj
 .debug_loc     0x0000a66b      0x1fb examples/dfu/CMakeFiles/dfu_nrf51422_xxAC_s130_2.0.1.dir/__/__/mesh/prov/src/prov_beacon.c.obj
 .debug_loc     0x0000a866      0x50f examples/dfu/CMakeFiles/dfu_nrf51422_xxAC_s130_2.0.1.dir/__/__/mesh/prov/src/prov_utils.c.obj
 .debug_loc     0x0000ad75     0x178c examples/dfu/CMakeFiles/dfu_nrf51422_xxAC_s130_2.0.1.dir/__/__/mesh/prov/src/prov_bearer_adv.c.obj
 .debug_loc     0x0000c501      0xb42 examples/dfu/CMakeFiles/dfu_nrf51422_xxAC_s130_2.0.1.dir/__/__/mesh/dfu/src/nrf_mesh_dfu.c.obj
 .debug_loc     0x0000d043       0xc4 mesh/core/libmesh_core_nrf51422_xxAC.a(internal_event.c.obj)
 .debug_loc     0x0000d107       0x2c mesh/core/libmesh_core_nrf51422_xxAC.a(nrf_mesh_configure.c.obj)
 .debug_loc     0x0000d133      0x134 mesh/core/libmesh_core_nrf51422_xxAC.a(event.c.obj)
 .debug_loc     0x0000d267     0x108b mesh/core/libmesh_core_nrf51422_xxAC.a(packet_buffer.c.obj)
 .debug_loc     0x0000e2f2      0x5b7 mesh/core/libmesh_core_nrf51422_xxAC.a(fifo.c.obj)
 .debug_loc     0x0000e8a9      0x77f mesh/core/libmesh_core_nrf51422_xxAC.a(net_state.c.obj)
 .debug_loc     0x0000f028      0xa7c mesh/core/libmesh_core_nrf51422_xxAC.a(mesh_flash.c.obj)
 .debug_loc     0x0000faa4      0x103 mesh/core/libmesh_core_nrf51422_xxAC.a(nrf_mesh_utils.c.obj)
 .debug_loc     0x0000fba7      0x4b5 mesh/core/libmesh_core_nrf51422_xxAC.a(nrf_mesh.c.obj)
 .debug_loc     0x0001005c       0x84 mesh/core/libmesh_core_nrf51422_xxAC.a(hal.c.obj)
 .debug_loc     0x000100e0      0x41b mesh/core/libmesh_core_nrf51422_xxAC.a(timer_scheduler.c.obj)
 .debug_loc     0x000104fb      0x5db mesh/core/libmesh_core_nrf51422_xxAC.a(timer.c.obj)
 .debug_loc     0x00010ad6      0x172 mesh/core/libmesh_core_nrf51422_xxAC.a(rand.c.obj)
 .debug_loc     0x00010c48      0x3ad mesh/core/libmesh_core_nrf51422_xxAC.a(timeslot.c.obj)
 .debug_loc     0x00010ff5      0x7a7 mesh/core/libmesh_core_nrf51422_xxAC.a(bearer_event.c.obj)
 .debug_loc     0x0001179c      0xb0d mesh/core/libmesh_core_nrf51422_xxAC.a(enc.c.obj)
 .debug_loc     0x000122a9      0xe27 mesh/core/libmesh_core_nrf51422_xxAC.a(network.c.obj)
 .debug_loc     0x000130d0      0x41a mesh/core/libmesh_core_nrf51422_xxAC.a(msqueue.c.obj)
 .debug_loc     0x000134ea      0x197 mesh/core/libmesh_core_nrf51422_xxAC.a(nrf_mesh_keygen.c.obj)
 .debug_loc     0x00013681      0x598 mesh/core/libmesh_core_nrf51422_xxAC.a(list.c.obj)
 .debug_loc     0x00013c19      0x2e5 mesh/core/libmesh_core_nrf51422_xxAC.a(log.c.obj)
 .debug_loc     0x00013efe     0x17c2 mesh/core/libmesh_core_nrf51422_xxAC.a(flash_manager.c.obj)
 .debug_loc     0x000156c0      0x4a0 mesh/core/libmesh_core_nrf51422_xxAC.a(ccm_soft.c.obj)
 .debug_loc     0x00015b60      0x521 mesh/core/libmesh_core_nrf51422_xxAC.a(beacon.c.obj)
 .debug_loc     0x00016081      0x149 mesh/core/libmesh_core_nrf51422_xxAC.a(flash_manager_internal.c.obj)
 .debug_loc     0x000161ca      0x632 mesh/core/libmesh_core_nrf51422_xxAC.a(core_tx.c.obj)
 .debug_loc     0x000167fc      0x706 mesh/core/libmesh_core_nrf51422_xxAC.a(heartbeat.c.obj)
 .debug_loc     0x00016f02      0x4a3 mesh/core/libmesh_core_nrf51422_xxAC.a(net_beacon.c.obj)
 .debug_loc     0x000173a5      0x3e4 mesh/core/libmesh_core_nrf51422_xxAC.a(core_tx_adv.c.obj)
 .debug_loc     0x00017789      0x394 mesh/core/libmesh_core_nrf51422_xxAC.a(ad_listener.c.obj)
 .debug_loc     0x00017b1d      0x434 mesh/core/libmesh_core_nrf51422_xxAC.a(ad_type_filter.c.obj)
 .debug_loc     0x00017f51      0xdf8 mesh/core/libmesh_core_nrf51422_xxAC.a(advertiser.c.obj)
 .debug_loc     0x00018d49      0x3e1 mesh/core/libmesh_core_nrf51422_xxAC.a(bearer_handler.c.obj)
 .debug_loc     0x0001912a      0x301 mesh/core/libmesh_core_nrf51422_xxAC.a(broadcast.c.obj)
 .debug_loc     0x0001942b      0x14a mesh/core/libmesh_core_nrf51422_xxAC.a(filter_engine.c.obj)
 .debug_loc     0x00019575      0x2b2 mesh/core/libmesh_core_nrf51422_xxAC.a(radio_config.c.obj)
 .debug_loc     0x00019827      0x57f mesh/core/libmesh_core_nrf51422_xxAC.a(scanner.c.obj)
 .debug_loc     0x00019da6       0xa5 mesh/core/libmesh_core_nrf51422_xxAC.a(aes.c.obj)
 .debug_loc     0x00019e4b       0xeb mesh/core/libmesh_core_nrf51422_xxAC.a(msg_cache.c.obj)
 .debug_loc     0x00019f36     0x2719 mesh/core/libmesh_core_nrf51422_xxAC.a(transport.c.obj)
 .debug_loc     0x0001c64f      0x838 mesh/core/libmesh_core_nrf51422_xxAC.a(flash_manager_defrag.c.obj)
 .debug_loc     0x0001ce87      0x1af mesh/core/libmesh_core_nrf51422_xxAC.a(nrf_flash.c.obj)
 .debug_loc     0x0001d036      0x67d mesh/core/libmesh_core_nrf51422_xxAC.a(packet_mgr.c.obj)
 .debug_loc     0x0001d6b3      0x1f9 mesh/core/libmesh_core_nrf51422_xxAC.a(queue.c.obj)
 .debug_loc     0x0001d8ac      0x339 mesh/core/libmesh_core_nrf51422_xxAC.a(aes_cmac.c.obj)
 .debug_loc     0x0001dbe5      0x14c mesh/core/libmesh_core_nrf51422_xxAC.a(nrf_mesh_opt.c.obj)
 .debug_loc     0x0001dd31      0x1fb mesh/core/libmesh_core_nrf51422_xxAC.a(replay_cache.c.obj)
 .debug_loc     0x0001df2c     0x135a external/rtt/librtt_nrf51422_xxAC.a(SEGGER_RTT.c.obj)
 .debug_loc     0x0001f286      0x79b external/rtt/librtt_nrf51422_xxAC.a(SEGGER_RTT_printf.c.obj)
 .debug_loc     0x0001fa21     0x2673 external/micro-ecc/libuECC_nrf51422_xxAC.a(uECC.c.obj)

.debug_aranges  0x00000000     0x23a0
 .debug_aranges
                0x00000000       0x30 examples/dfu/CMakeFiles/dfu_nrf51422_xxAC_s130_2.0.1.dir/src/main.c.obj
 .debug_aranges
                0x00000030       0x80 examples/dfu/CMakeFiles/dfu_nrf51422_xxAC_s130_2.0.1.dir/__/nrf_mesh_sdk.c.obj
 .debug_aranges
                0x000000b0       0x50 examples/dfu/CMakeFiles/dfu_nrf51422_xxAC_s130_2.0.1.dir/__/__/mesh/access/src/access_publish.c.obj
 .debug_aranges
                0x00000100      0x1b0 examples/dfu/CMakeFiles/dfu_nrf51422_xxAC_s130_2.0.1.dir/__/__/mesh/access/src/access.c.obj
 .debug_aranges
                0x000002b0       0x50 examples/dfu/CMakeFiles/dfu_nrf51422_xxAC_s130_2.0.1.dir/__/__/mesh/access/src/access_reliable.c.obj
 .debug_aranges
                0x00000300      0x300 examples/dfu/CMakeFiles/dfu_nrf51422_xxAC_s130_2.0.1.dir/__/__/mesh/access/src/device_state_manager.c.obj
 .debug_aranges
                0x00000600       0x38 examples/dfu/CMakeFiles/dfu_nrf51422_xxAC_s130_2.0.1.dir/__/__/mesh/serial/src/serial_uart.c.obj
 .debug_aranges
                0x00000638       0x68 examples/dfu/CMakeFiles/dfu_nrf51422_xxAC_s130_2.0.1.dir/__/__/mesh/serial/src/serial_bearer.c.obj
 .debug_aranges
                0x000006a0       0x28 examples/dfu/CMakeFiles/dfu_nrf51422_xxAC_s130_2.0.1.dir/__/__/mesh/serial/src/serial_handler_common.c.obj
 .debug_aranges
                0x000006c8       0xd0 examples/dfu/CMakeFiles/dfu_nrf51422_xxAC_s130_2.0.1.dir/__/__/mesh/serial/src/serial_handler_access.c.obj
 .debug_aranges
                0x00000798       0x20 examples/dfu/CMakeFiles/dfu_nrf51422_xxAC_s130_2.0.1.dir/__/__/mesh/serial/src/serial_handler_config.c.obj
 .debug_aranges
                0x000007b8       0x20 examples/dfu/CMakeFiles/dfu_nrf51422_xxAC_s130_2.0.1.dir/__/__/mesh/serial/src/serial_handler_openmesh.c.obj
 .debug_aranges
                0x000007d8       0x60 examples/dfu/CMakeFiles/dfu_nrf51422_xxAC_s130_2.0.1.dir/__/__/mesh/serial/src/serial.c.obj
 .debug_aranges
                0x00000838       0x50 examples/dfu/CMakeFiles/dfu_nrf51422_xxAC_s130_2.0.1.dir/__/__/mesh/serial/src/serial_handler_prov.c.obj
 .debug_aranges
                0x00000888       0x30 examples/dfu/CMakeFiles/dfu_nrf51422_xxAC_s130_2.0.1.dir/__/__/mesh/serial/src/serial_handler_dfu.c.obj
 .debug_aranges
                0x000008b8      0x110 examples/dfu/CMakeFiles/dfu_nrf51422_xxAC_s130_2.0.1.dir/__/__/mesh/serial/src/serial_handler_mesh.c.obj
 .debug_aranges
                0x000009c8       0x48 examples/dfu/CMakeFiles/dfu_nrf51422_xxAC_s130_2.0.1.dir/__/__/mesh/serial/src/serial_handler_models.c.obj
 .debug_aranges
                0x00000a10       0x78 examples/dfu/CMakeFiles/dfu_nrf51422_xxAC_s130_2.0.1.dir/__/__/mesh/serial/src/serial_handler_device.c.obj
 .debug_aranges
                0x00000a88       0x38 examples/dfu/CMakeFiles/dfu_nrf51422_xxAC_s130_2.0.1.dir/__/__/mesh/serial/src/nrf_mesh_serial.c.obj
 .debug_aranges
                0x00000ac0       0x28 examples/dfu/CMakeFiles/dfu_nrf51422_xxAC_s130_2.0.1.dir/__/__/mesh/serial/src/serial_handler_app.c.obj
 .debug_aranges
                0x00000ae8       0x70 examples/dfu/CMakeFiles/dfu_nrf51422_xxAC_s130_2.0.1.dir/__/__/mesh/prov/src/prov_provisioner.c.obj
 .debug_aranges
                0x00000b58       0x70 examples/dfu/CMakeFiles/dfu_nrf51422_xxAC_s130_2.0.1.dir/__/__/mesh/prov/src/prov_provisionee.c.obj
 .debug_aranges
                0x00000bc8       0x78 examples/dfu/CMakeFiles/dfu_nrf51422_xxAC_s130_2.0.1.dir/__/__/mesh/prov/src/nrf_mesh_prov.c.obj
 .debug_aranges
                0x00000c40       0x80 examples/dfu/CMakeFiles/dfu_nrf51422_xxAC_s130_2.0.1.dir/__/__/mesh/prov/src/provisioning.c.obj
 .debug_aranges
                0x00000cc0       0x38 examples/dfu/CMakeFiles/dfu_nrf51422_xxAC_s130_2.0.1.dir/__/__/mesh/prov/src/prov_beacon.c.obj
 .debug_aranges
                0x00000cf8       0x70 examples/dfu/CMakeFiles/dfu_nrf51422_xxAC_s130_2.0.1.dir/__/__/mesh/prov/src/prov_utils.c.obj
 .debug_aranges
                0x00000d68       0xc8 examples/dfu/CMakeFiles/dfu_nrf51422_xxAC_s130_2.0.1.dir/__/__/mesh/prov/src/prov_bearer_adv.c.obj
 .debug_aranges
                0x00000e30       0xb0 examples/dfu/CMakeFiles/dfu_nrf51422_xxAC_s130_2.0.1.dir/__/__/mesh/dfu/src/nrf_mesh_dfu.c.obj
 .debug_aranges
                0x00000ee0       0x28 examples/dfu/CMakeFiles/dfu_nrf51422_xxAC_s130_2.0.1.dir/__/__/external/nRF5_SDK_14.2.0_17b948a/components/toolchain/system_nrf51.c.obj
 .debug_aranges
                0x00000f08       0x30 mesh/core/libmesh_core_nrf51422_xxAC.a(internal_event.c.obj)
 .debug_aranges
                0x00000f38       0x30 mesh/core/libmesh_core_nrf51422_xxAC.a(nrf_mesh_configure.c.obj)
 .debug_aranges
                0x00000f68       0x30 mesh/core/libmesh_core_nrf51422_xxAC.a(event.c.obj)
 .debug_aranges
                0x00000f98       0x80 mesh/core/libmesh_core_nrf51422_xxAC.a(packet_buffer.c.obj)
 .debug_aranges
                0x00001018       0x60 mesh/core/libmesh_core_nrf51422_xxAC.a(fifo.c.obj)
 .debug_aranges
                0x00001078       0xc0 mesh/core/libmesh_core_nrf51422_xxAC.a(net_state.c.obj)
 .debug_aranges
                0x00001138       0x60 mesh/core/libmesh_core_nrf51422_xxAC.a(mesh_flash.c.obj)
 .debug_aranges
                0x00001198       0x30 mesh/core/libmesh_core_nrf51422_xxAC.a(nrf_mesh_utils.c.obj)
 .debug_aranges
                0x000011c8       0x88 mesh/core/libmesh_core_nrf51422_xxAC.a(nrf_mesh.c.obj)
 .debug_aranges
                0x00001250       0x38 mesh/core/libmesh_core_nrf51422_xxAC.a(hal.c.obj)
 .debug_aranges
                0x00001288       0x68 mesh/core/libmesh_core_nrf51422_xxAC.a(timer_scheduler.c.obj)
 .debug_aranges
                0x000012f0       0x60 mesh/core/libmesh_core_nrf51422_xxAC.a(timer.c.obj)
 .debug_aranges
                0x00001350       0x30 mesh/core/libmesh_core_nrf51422_xxAC.a(ticker.c.obj)
 .debug_aranges
                0x00001380       0x40 mesh/core/libmesh_core_nrf51422_xxAC.a(rand.c.obj)
 .debug_aranges
                0x000013c0       0xb8 mesh/core/libmesh_core_nrf51422_xxAC.a(timeslot.c.obj)
 .debug_aranges
                0x00001478       0x98 mesh/core/libmesh_core_nrf51422_xxAC.a(bearer_event.c.obj)
 .debug_aranges
                0x00001510       0x70 mesh/core/libmesh_core_nrf51422_xxAC.a(enc.c.obj)
 .debug_aranges
                0x00001580       0x60 mesh/core/libmesh_core_nrf51422_xxAC.a(network.c.obj)
 .debug_aranges
                0x000015e0       0x48 mesh/core/libmesh_core_nrf51422_xxAC.a(msqueue.c.obj)
 .debug_aranges
                0x00001628       0x40 mesh/core/libmesh_core_nrf51422_xxAC.a(nrf_mesh_keygen.c.obj)
 .debug_aranges
                0x00001668       0x48 mesh/core/libmesh_core_nrf51422_xxAC.a(list.c.obj)
 .debug_aranges
                0x000016b0       0x48 mesh/core/libmesh_core_nrf51422_xxAC.a(log.c.obj)
 .debug_aranges
                0x000016f8      0x100 mesh/core/libmesh_core_nrf51422_xxAC.a(flash_manager.c.obj)
 .debug_aranges
                0x000017f8       0x50 mesh/core/libmesh_core_nrf51422_xxAC.a(ccm_soft.c.obj)
 .debug_aranges
                0x00001848       0x38 mesh/core/libmesh_core_nrf51422_xxAC.a(beacon.c.obj)
 .debug_aranges
                0x00001880       0x20 mesh/core/libmesh_core_nrf51422_xxAC.a(flash_manager_internal.c.obj)
 .debug_aranges
                0x000018a0       0x58 mesh/core/libmesh_core_nrf51422_xxAC.a(core_tx.c.obj)
 .debug_aranges
                0x000018f8       0x70 mesh/core/libmesh_core_nrf51422_xxAC.a(heartbeat.c.obj)
 .debug_aranges
                0x00001968       0x48 mesh/core/libmesh_core_nrf51422_xxAC.a(net_beacon.c.obj)
 .debug_aranges
                0x000019b0       0x68 mesh/core/libmesh_core_nrf51422_xxAC.a(core_tx_adv.c.obj)
 .debug_aranges
                0x00001a18       0x30 mesh/core/libmesh_core_nrf51422_xxAC.a(ad_listener.c.obj)
 .debug_aranges
                0x00001a48       0x58 mesh/core/libmesh_core_nrf51422_xxAC.a(ad_type_filter.c.obj)
 .debug_aranges
                0x00001aa0       0xb0 mesh/core/libmesh_core_nrf51422_xxAC.a(advertiser.c.obj)
 .debug_aranges
                0x00001b50       0x70 mesh/core/libmesh_core_nrf51422_xxAC.a(bearer_handler.c.obj)
 .debug_aranges
                0x00001bc0       0x30 mesh/core/libmesh_core_nrf51422_xxAC.a(broadcast.c.obj)
 .debug_aranges
                0x00001bf0       0x38 mesh/core/libmesh_core_nrf51422_xxAC.a(filter_engine.c.obj)
 .debug_aranges
                0x00001c28       0x40 mesh/core/libmesh_core_nrf51422_xxAC.a(radio_config.c.obj)
 .debug_aranges
                0x00001c68       0xe0 mesh/core/libmesh_core_nrf51422_xxAC.a(scanner.c.obj)
 .debug_aranges
                0x00001d48       0x28 mesh/core/libmesh_core_nrf51422_xxAC.a(aes.c.obj)
 .debug_aranges
                0x00001d70       0x38 mesh/core/libmesh_core_nrf51422_xxAC.a(msg_cache.c.obj)
 .debug_aranges
                0x00001da8      0x120 mesh/core/libmesh_core_nrf51422_xxAC.a(transport.c.obj)
 .debug_aranges
                0x00001ec8       0xc8 mesh/core/libmesh_core_nrf51422_xxAC.a(flash_manager_defrag.c.obj)
 .debug_aranges
                0x00001f90       0x30 mesh/core/libmesh_core_nrf51422_xxAC.a(nrf_flash.c.obj)
 .debug_aranges
                0x00001fc0       0x48 mesh/core/libmesh_core_nrf51422_xxAC.a(packet_mgr.c.obj)
 .debug_aranges
                0x00002008       0x38 mesh/core/libmesh_core_nrf51422_xxAC.a(queue.c.obj)
 .debug_aranges
                0x00002040       0x38 mesh/core/libmesh_core_nrf51422_xxAC.a(aes_cmac.c.obj)
 .debug_aranges
                0x00002078       0x28 mesh/core/libmesh_core_nrf51422_xxAC.a(nrf_mesh_opt.c.obj)
 .debug_aranges
                0x000020a0       0x48 mesh/core/libmesh_core_nrf51422_xxAC.a(replay_cache.c.obj)
 .debug_aranges
                0x000020e8       0xd8 external/rtt/librtt_nrf51422_xxAC.a(SEGGER_RTT.c.obj)
 .debug_aranges
                0x000021c0       0x38 external/rtt/librtt_nrf51422_xxAC.a(SEGGER_RTT_printf.c.obj)
 .debug_aranges
                0x000021f8      0x1a8 external/micro-ecc/libuECC_nrf51422_xxAC.a(uECC.c.obj)

.debug_ranges   0x00000000     0x80e0
 .debug_ranges  0x00000000      0x130 examples/dfu/CMakeFiles/dfu_nrf51422_xxAC_s130_2.0.1.dir/src/main.c.obj
 .debug_ranges  0x00000130      0x1b0 examples/dfu/CMakeFiles/dfu_nrf51422_xxAC_s130_2.0.1.dir/__/nrf_mesh_sdk.c.obj
 .debug_ranges  0x000002e0      0x158 examples/dfu/CMakeFiles/dfu_nrf51422_xxAC_s130_2.0.1.dir/__/__/mesh/access/src/access_publish.c.obj
 .debug_ranges  0x00000438      0x730 examples/dfu/CMakeFiles/dfu_nrf51422_xxAC_s130_2.0.1.dir/__/__/mesh/access/src/access.c.obj
 .debug_ranges  0x00000b68      0x238 examples/dfu/CMakeFiles/dfu_nrf51422_xxAC_s130_2.0.1.dir/__/__/mesh/access/src/access_reliable.c.obj
 .debug_ranges  0x00000da0      0xaa0 examples/dfu/CMakeFiles/dfu_nrf51422_xxAC_s130_2.0.1.dir/__/__/mesh/access/src/device_state_manager.c.obj
 .debug_ranges  0x00001840       0x48 examples/dfu/CMakeFiles/dfu_nrf51422_xxAC_s130_2.0.1.dir/__/__/mesh/serial/src/serial_uart.c.obj
 .debug_ranges  0x00001888      0x170 examples/dfu/CMakeFiles/dfu_nrf51422_xxAC_s130_2.0.1.dir/__/__/mesh/serial/src/serial_bearer.c.obj
 .debug_ranges  0x000019f8       0x48 examples/dfu/CMakeFiles/dfu_nrf51422_xxAC_s130_2.0.1.dir/__/__/mesh/serial/src/serial_handler_common.c.obj
 .debug_ranges  0x00001a40       0xd8 examples/dfu/CMakeFiles/dfu_nrf51422_xxAC_s130_2.0.1.dir/__/__/mesh/serial/src/serial_handler_access.c.obj
 .debug_ranges  0x00001b18       0x40 examples/dfu/CMakeFiles/dfu_nrf51422_xxAC_s130_2.0.1.dir/__/__/mesh/serial/src/serial_handler_config.c.obj
 .debug_ranges  0x00001b58       0x10 examples/dfu/CMakeFiles/dfu_nrf51422_xxAC_s130_2.0.1.dir/__/__/mesh/serial/src/serial_handler_openmesh.c.obj
 .debug_ranges  0x00001b68      0x108 examples/dfu/CMakeFiles/dfu_nrf51422_xxAC_s130_2.0.1.dir/__/__/mesh/serial/src/serial.c.obj
 .debug_ranges  0x00001c70      0x2a8 examples/dfu/CMakeFiles/dfu_nrf51422_xxAC_s130_2.0.1.dir/__/__/mesh/serial/src/serial_handler_prov.c.obj
 .debug_ranges  0x00001f18      0x130 examples/dfu/CMakeFiles/dfu_nrf51422_xxAC_s130_2.0.1.dir/__/__/mesh/serial/src/serial_handler_dfu.c.obj
 .debug_ranges  0x00002048      0x1c0 examples/dfu/CMakeFiles/dfu_nrf51422_xxAC_s130_2.0.1.dir/__/__/mesh/serial/src/serial_handler_mesh.c.obj
 .debug_ranges  0x00002208       0xb8 examples/dfu/CMakeFiles/dfu_nrf51422_xxAC_s130_2.0.1.dir/__/__/mesh/serial/src/serial_handler_models.c.obj
 .debug_ranges  0x000022c0      0x118 examples/dfu/CMakeFiles/dfu_nrf51422_xxAC_s130_2.0.1.dir/__/__/mesh/serial/src/serial_handler_device.c.obj
 .debug_ranges  0x000023d8       0x40 examples/dfu/CMakeFiles/dfu_nrf51422_xxAC_s130_2.0.1.dir/__/__/mesh/serial/src/nrf_mesh_serial.c.obj
 .debug_ranges  0x00002418       0x18 examples/dfu/CMakeFiles/dfu_nrf51422_xxAC_s130_2.0.1.dir/__/__/mesh/serial/src/serial_handler_app.c.obj
 .debug_ranges  0x00002430       0xd8 examples/dfu/CMakeFiles/dfu_nrf51422_xxAC_s130_2.0.1.dir/__/__/mesh/prov/src/prov_provisioner.c.obj
 .debug_ranges  0x00002508      0x120 examples/dfu/CMakeFiles/dfu_nrf51422_xxAC_s130_2.0.1.dir/__/__/mesh/prov/src/prov_provisionee.c.obj
 .debug_ranges  0x00002628       0xb0 examples/dfu/CMakeFiles/dfu_nrf51422_xxAC_s130_2.0.1.dir/__/__/mesh/prov/src/nrf_mesh_prov.c.obj
 .debug_ranges  0x000026d8       0xa0 examples/dfu/CMakeFiles/dfu_nrf51422_xxAC_s130_2.0.1.dir/__/__/mesh/prov/src/provisioning.c.obj
 .debug_ranges  0x00002778       0x88 examples/dfu/CMakeFiles/dfu_nrf51422_xxAC_s130_2.0.1.dir/__/__/mesh/prov/src/prov_beacon.c.obj
 .debug_ranges  0x00002800       0xd0 examples/dfu/CMakeFiles/dfu_nrf51422_xxAC_s130_2.0.1.dir/__/__/mesh/prov/src/prov_utils.c.obj
 .debug_ranges  0x000028d0      0x5d0 examples/dfu/CMakeFiles/dfu_nrf51422_xxAC_s130_2.0.1.dir/__/__/mesh/prov/src/prov_bearer_adv.c.obj
 .debug_ranges  0x00002ea0      0x408 examples/dfu/CMakeFiles/dfu_nrf51422_xxAC_s130_2.0.1.dir/__/__/mesh/dfu/src/nrf_mesh_dfu.c.obj
 .debug_ranges  0x000032a8       0x48 examples/dfu/CMakeFiles/dfu_nrf51422_xxAC_s130_2.0.1.dir/__/__/external/nRF5_SDK_14.2.0_17b948a/components/toolchain/system_nrf51.c.obj
 .debug_ranges  0x000032f0       0x20 mesh/core/libmesh_core_nrf51422_xxAC.a(internal_event.c.obj)
 .debug_ranges  0x00003310       0x20 mesh/core/libmesh_core_nrf51422_xxAC.a(nrf_mesh_configure.c.obj)
 .debug_ranges  0x00003330       0x68 mesh/core/libmesh_core_nrf51422_xxAC.a(event.c.obj)
 .debug_ranges  0x00003398      0x458 mesh/core/libmesh_core_nrf51422_xxAC.a(packet_buffer.c.obj)
 .debug_ranges  0x000037f0       0xb0 mesh/core/libmesh_core_nrf51422_xxAC.a(fifo.c.obj)
 .debug_ranges  0x000038a0      0x1e8 mesh/core/libmesh_core_nrf51422_xxAC.a(net_state.c.obj)
 .debug_ranges  0x00003a88      0x318 mesh/core/libmesh_core_nrf51422_xxAC.a(mesh_flash.c.obj)
 .debug_ranges  0x00003da0       0x38 mesh/core/libmesh_core_nrf51422_xxAC.a(nrf_mesh_utils.c.obj)
 .debug_ranges  0x00003dd8       0xd8 mesh/core/libmesh_core_nrf51422_xxAC.a(nrf_mesh.c.obj)
 .debug_ranges  0x00003eb0       0x28 mesh/core/libmesh_core_nrf51422_xxAC.a(hal.c.obj)
 .debug_ranges  0x00003ed8      0x210 mesh/core/libmesh_core_nrf51422_xxAC.a(timer_scheduler.c.obj)
 .debug_ranges  0x000040e8      0x118 mesh/core/libmesh_core_nrf51422_xxAC.a(timer.c.obj)
 .debug_ranges  0x00004200       0x20 mesh/core/libmesh_core_nrf51422_xxAC.a(ticker.c.obj)
 .debug_ranges  0x00004220       0x48 mesh/core/libmesh_core_nrf51422_xxAC.a(rand.c.obj)
 .debug_ranges  0x00004268      0x178 mesh/core/libmesh_core_nrf51422_xxAC.a(timeslot.c.obj)
 .debug_ranges  0x000043e0      0x228 mesh/core/libmesh_core_nrf51422_xxAC.a(bearer_event.c.obj)
 .debug_ranges  0x00004608      0x170 mesh/core/libmesh_core_nrf51422_xxAC.a(enc.c.obj)
 .debug_ranges  0x00004778      0x4c8 mesh/core/libmesh_core_nrf51422_xxAC.a(network.c.obj)
 .debug_ranges  0x00004c40      0x158 mesh/core/libmesh_core_nrf51422_xxAC.a(msqueue.c.obj)
 .debug_ranges  0x00004d98       0x30 mesh/core/libmesh_core_nrf51422_xxAC.a(nrf_mesh_keygen.c.obj)
 .debug_ranges  0x00004dc8      0x178 mesh/core/libmesh_core_nrf51422_xxAC.a(list.c.obj)
 .debug_ranges  0x00004f40       0x38 mesh/core/libmesh_core_nrf51422_xxAC.a(log.c.obj)
 .debug_ranges  0x00004f78      0x740 mesh/core/libmesh_core_nrf51422_xxAC.a(flash_manager.c.obj)
 .debug_ranges  0x000056b8       0x40 mesh/core/libmesh_core_nrf51422_xxAC.a(ccm_soft.c.obj)
 .debug_ranges  0x000056f8       0xd8 mesh/core/libmesh_core_nrf51422_xxAC.a(beacon.c.obj)
 .debug_ranges  0x000057d0       0x58 mesh/core/libmesh_core_nrf51422_xxAC.a(flash_manager_internal.c.obj)
 .debug_ranges  0x00005828      0x288 mesh/core/libmesh_core_nrf51422_xxAC.a(core_tx.c.obj)
 .debug_ranges  0x00005ab0      0x250 mesh/core/libmesh_core_nrf51422_xxAC.a(heartbeat.c.obj)
 .debug_ranges  0x00005d00       0xb8 mesh/core/libmesh_core_nrf51422_xxAC.a(net_beacon.c.obj)
 .debug_ranges  0x00005db8       0xe8 mesh/core/libmesh_core_nrf51422_xxAC.a(core_tx_adv.c.obj)
 .debug_ranges  0x00005ea0       0xa0 mesh/core/libmesh_core_nrf51422_xxAC.a(ad_listener.c.obj)
 .debug_ranges  0x00005f40      0x130 mesh/core/libmesh_core_nrf51422_xxAC.a(ad_type_filter.c.obj)
 .debug_ranges  0x00006070      0x460 mesh/core/libmesh_core_nrf51422_xxAC.a(advertiser.c.obj)
 .debug_ranges  0x000064d0      0x288 mesh/core/libmesh_core_nrf51422_xxAC.a(bearer_handler.c.obj)
 .debug_ranges  0x00006758       0xf0 mesh/core/libmesh_core_nrf51422_xxAC.a(broadcast.c.obj)
 .debug_ranges  0x00006848       0x88 mesh/core/libmesh_core_nrf51422_xxAC.a(filter_engine.c.obj)
 .debug_ranges  0x000068d0      0x110 mesh/core/libmesh_core_nrf51422_xxAC.a(radio_config.c.obj)
 .debug_ranges  0x000069e0      0x2c8 mesh/core/libmesh_core_nrf51422_xxAC.a(scanner.c.obj)
 .debug_ranges  0x00006ca8       0x18 mesh/core/libmesh_core_nrf51422_xxAC.a(aes.c.obj)
 .debug_ranges  0x00006cc0       0x48 mesh/core/libmesh_core_nrf51422_xxAC.a(msg_cache.c.obj)
 .debug_ranges  0x00006d08      0x848 mesh/core/libmesh_core_nrf51422_xxAC.a(transport.c.obj)
 .debug_ranges  0x00007550      0x388 mesh/core/libmesh_core_nrf51422_xxAC.a(flash_manager_defrag.c.obj)
 .debug_ranges  0x000078d8       0x38 mesh/core/libmesh_core_nrf51422_xxAC.a(nrf_flash.c.obj)
 .debug_ranges  0x00007910      0x1b8 mesh/core/libmesh_core_nrf51422_xxAC.a(packet_mgr.c.obj)
 .debug_ranges  0x00007ac8       0xa0 mesh/core/libmesh_core_nrf51422_xxAC.a(queue.c.obj)
 .debug_ranges  0x00007b68       0x78 mesh/core/libmesh_core_nrf51422_xxAC.a(aes_cmac.c.obj)
 .debug_ranges  0x00007be0       0x18 mesh/core/libmesh_core_nrf51422_xxAC.a(nrf_mesh_opt.c.obj)
 .debug_ranges  0x00007bf8       0x78 mesh/core/libmesh_core_nrf51422_xxAC.a(replay_cache.c.obj)
 .debug_ranges  0x00007c70      0x118 external/rtt/librtt_nrf51422_xxAC.a(SEGGER_RTT.c.obj)
 .debug_ranges  0x00007d88       0x50 external/rtt/librtt_nrf51422_xxAC.a(SEGGER_RTT_printf.c.obj)
 .debug_ranges  0x00007dd8      0x308 external/micro-ecc/libuECC_nrf51422_xxAC.a(uECC.c.obj)

.debug_line     0x00000000    0x1962c
 .debug_line    0x00000000      0x5ea examples/dfu/CMakeFiles/dfu_nrf51422_xxAC_s130_2.0.1.dir/src/main.c.obj
 .debug_line    0x000005ea      0x711 examples/dfu/CMakeFiles/dfu_nrf51422_xxAC_s130_2.0.1.dir/__/nrf_mesh_sdk.c.obj
 .debug_line    0x00000cfb      0x3fc examples/dfu/CMakeFiles/dfu_nrf51422_xxAC_s130_2.0.1.dir/__/__/mesh/access/src/access_publish.c.obj
 .debug_line    0x000010f7      0xe7f examples/dfu/CMakeFiles/dfu_nrf51422_xxAC_s130_2.0.1.dir/__/__/mesh/access/src/access.c.obj
 .debug_line    0x00001f76      0x4b5 examples/dfu/CMakeFiles/dfu_nrf51422_xxAC_s130_2.0.1.dir/__/__/mesh/access/src/access_reliable.c.obj
 .debug_line    0x0000242b     0x14d5 examples/dfu/CMakeFiles/dfu_nrf51422_xxAC_s130_2.0.1.dir/__/__/mesh/access/src/device_state_manager.c.obj
 .debug_line    0x00003900      0x33d examples/dfu/CMakeFiles/dfu_nrf51422_xxAC_s130_2.0.1.dir/__/__/mesh/serial/src/serial_uart.c.obj
 .debug_line    0x00003c3d      0x5cc examples/dfu/CMakeFiles/dfu_nrf51422_xxAC_s130_2.0.1.dir/__/__/mesh/serial/src/serial_bearer.c.obj
 .debug_line    0x00004209      0x315 examples/dfu/CMakeFiles/dfu_nrf51422_xxAC_s130_2.0.1.dir/__/__/mesh/serial/src/serial_handler_common.c.obj
 .debug_line    0x0000451e      0x505 examples/dfu/CMakeFiles/dfu_nrf51422_xxAC_s130_2.0.1.dir/__/__/mesh/serial/src/serial_handler_access.c.obj
 .debug_line    0x00004a23      0x3b6 examples/dfu/CMakeFiles/dfu_nrf51422_xxAC_s130_2.0.1.dir/__/__/mesh/serial/src/serial_handler_config.c.obj
 .debug_line    0x00004dd9      0x2dc examples/dfu/CMakeFiles/dfu_nrf51422_xxAC_s130_2.0.1.dir/__/__/mesh/serial/src/serial_handler_openmesh.c.obj
 .debug_line    0x000050b5      0x5c3 examples/dfu/CMakeFiles/dfu_nrf51422_xxAC_s130_2.0.1.dir/__/__/mesh/serial/src/serial.c.obj
 .debug_line    0x00005678      0x7dc examples/dfu/CMakeFiles/dfu_nrf51422_xxAC_s130_2.0.1.dir/__/__/mesh/serial/src/serial_handler_prov.c.obj
 .debug_line    0x00005e54      0x4af examples/dfu/CMakeFiles/dfu_nrf51422_xxAC_s130_2.0.1.dir/__/__/mesh/serial/src/serial_handler_dfu.c.obj
 .debug_line    0x00006303      0x729 examples/dfu/CMakeFiles/dfu_nrf51422_xxAC_s130_2.0.1.dir/__/__/mesh/serial/src/serial_handler_mesh.c.obj
 .debug_line    0x00006a2c      0x40e examples/dfu/CMakeFiles/dfu_nrf51422_xxAC_s130_2.0.1.dir/__/__/mesh/serial/src/serial_handler_models.c.obj
 .debug_line    0x00006e3a      0x5e5 examples/dfu/CMakeFiles/dfu_nrf51422_xxAC_s130_2.0.1.dir/__/__/mesh/serial/src/serial_handler_device.c.obj
 .debug_line    0x0000741f      0x3e1 examples/dfu/CMakeFiles/dfu_nrf51422_xxAC_s130_2.0.1.dir/__/__/mesh/serial/src/nrf_mesh_serial.c.obj
 .debug_line    0x00007800      0x2ee examples/dfu/CMakeFiles/dfu_nrf51422_xxAC_s130_2.0.1.dir/__/__/mesh/serial/src/serial_handler_app.c.obj
 .debug_line    0x00007aee      0x53e examples/dfu/CMakeFiles/dfu_nrf51422_xxAC_s130_2.0.1.dir/__/__/mesh/prov/src/prov_provisioner.c.obj
 .debug_line    0x0000802c      0x5f7 examples/dfu/CMakeFiles/dfu_nrf51422_xxAC_s130_2.0.1.dir/__/__/mesh/prov/src/prov_provisionee.c.obj
 .debug_line    0x00008623      0x492 examples/dfu/CMakeFiles/dfu_nrf51422_xxAC_s130_2.0.1.dir/__/__/mesh/prov/src/nrf_mesh_prov.c.obj
 .debug_line    0x00008ab5      0x3a6 examples/dfu/CMakeFiles/dfu_nrf51422_xxAC_s130_2.0.1.dir/__/__/mesh/prov/src/provisioning.c.obj
 .debug_line    0x00008e5b      0x438 examples/dfu/CMakeFiles/dfu_nrf51422_xxAC_s130_2.0.1.dir/__/__/mesh/prov/src/prov_beacon.c.obj
 .debug_line    0x00009293      0x471 examples/dfu/CMakeFiles/dfu_nrf51422_xxAC_s130_2.0.1.dir/__/__/mesh/prov/src/prov_utils.c.obj
 .debug_line    0x00009704      0xbef examples/dfu/CMakeFiles/dfu_nrf51422_xxAC_s130_2.0.1.dir/__/__/mesh/prov/src/prov_bearer_adv.c.obj
 .debug_line    0x0000a2f3      0xd37 examples/dfu/CMakeFiles/dfu_nrf51422_xxAC_s130_2.0.1.dir/__/__/mesh/dfu/src/nrf_mesh_dfu.c.obj
 .debug_line    0x0000b02a      0x17b examples/dfu/CMakeFiles/dfu_nrf51422_xxAC_s130_2.0.1.dir/__/__/external/nRF5_SDK_14.2.0_17b948a/components/toolchain/system_nrf51.c.obj
 .debug_line    0x0000b1a5      0x255 mesh/core/libmesh_core_nrf51422_xxAC.a(internal_event.c.obj)
 .debug_line    0x0000b3fa      0x20f mesh/core/libmesh_core_nrf51422_xxAC.a(nrf_mesh_configure.c.obj)
 .debug_line    0x0000b609      0x2ba mesh/core/libmesh_core_nrf51422_xxAC.a(event.c.obj)
 .debug_line    0x0000b8c3      0x728 mesh/core/libmesh_core_nrf51422_xxAC.a(packet_buffer.c.obj)
 .debug_line    0x0000bfeb      0x3b8 mesh/core/libmesh_core_nrf51422_xxAC.a(fifo.c.obj)
 .debug_line    0x0000c3a3      0x6ab mesh/core/libmesh_core_nrf51422_xxAC.a(net_state.c.obj)
 .debug_line    0x0000ca4e      0x5a6 mesh/core/libmesh_core_nrf51422_xxAC.a(mesh_flash.c.obj)
 .debug_line    0x0000cff4      0x217 mesh/core/libmesh_core_nrf51422_xxAC.a(nrf_mesh_utils.c.obj)
 .debug_line    0x0000d20b      0x725 mesh/core/libmesh_core_nrf51422_xxAC.a(nrf_mesh.c.obj)
 .debug_line    0x0000d930      0x24d mesh/core/libmesh_core_nrf51422_xxAC.a(hal.c.obj)
 .debug_line    0x0000db7d      0x4a3 mesh/core/libmesh_core_nrf51422_xxAC.a(timer_scheduler.c.obj)
 .debug_line    0x0000e020      0x433 mesh/core/libmesh_core_nrf51422_xxAC.a(timer.c.obj)
 .debug_line    0x0000e453      0x129 mesh/core/libmesh_core_nrf51422_xxAC.a(ticker.c.obj)
 .debug_line    0x0000e57c      0x243 mesh/core/libmesh_core_nrf51422_xxAC.a(rand.c.obj)
 .debug_line    0x0000e7bf      0x5fb mesh/core/libmesh_core_nrf51422_xxAC.a(timeslot.c.obj)
 .debug_line    0x0000edba      0x621 mesh/core/libmesh_core_nrf51422_xxAC.a(bearer_event.c.obj)
 .debug_line    0x0000f3db      0x44b mesh/core/libmesh_core_nrf51422_xxAC.a(enc.c.obj)
 .debug_line    0x0000f826      0x7f4 mesh/core/libmesh_core_nrf51422_xxAC.a(network.c.obj)
 .debug_line    0x0001001a      0x335 mesh/core/libmesh_core_nrf51422_xxAC.a(msqueue.c.obj)
 .debug_line    0x0001034f      0x1e8 mesh/core/libmesh_core_nrf51422_xxAC.a(nrf_mesh_keygen.c.obj)
 .debug_line    0x00010537      0x31b mesh/core/libmesh_core_nrf51422_xxAC.a(list.c.obj)
 .debug_line    0x00010852      0x233 mesh/core/libmesh_core_nrf51422_xxAC.a(log.c.obj)
 .debug_line    0x00010a85      0xa80 mesh/core/libmesh_core_nrf51422_xxAC.a(flash_manager.c.obj)
 .debug_line    0x00011505      0x2e7 mesh/core/libmesh_core_nrf51422_xxAC.a(ccm_soft.c.obj)
 .debug_line    0x000117ec      0x4d3 mesh/core/libmesh_core_nrf51422_xxAC.a(beacon.c.obj)
 .debug_line    0x00011cbf      0x239 mesh/core/libmesh_core_nrf51422_xxAC.a(flash_manager_internal.c.obj)
 .debug_line    0x00011ef8      0x432 mesh/core/libmesh_core_nrf51422_xxAC.a(core_tx.c.obj)
 .debug_line    0x0001232a      0x5eb mesh/core/libmesh_core_nrf51422_xxAC.a(heartbeat.c.obj)
 .debug_line    0x00012915      0x400 mesh/core/libmesh_core_nrf51422_xxAC.a(net_beacon.c.obj)
 .debug_line    0x00012d15      0x440 mesh/core/libmesh_core_nrf51422_xxAC.a(core_tx_adv.c.obj)
 .debug_line    0x00013155      0x305 mesh/core/libmesh_core_nrf51422_xxAC.a(ad_listener.c.obj)
 .debug_line    0x0001345a      0x3e9 mesh/core/libmesh_core_nrf51422_xxAC.a(ad_type_filter.c.obj)
 .debug_line    0x00013843      0x83d mesh/core/libmesh_core_nrf51422_xxAC.a(advertiser.c.obj)
 .debug_line    0x00014080      0x5de mesh/core/libmesh_core_nrf51422_xxAC.a(bearer_handler.c.obj)
 .debug_line    0x0001465e      0x37c mesh/core/libmesh_core_nrf51422_xxAC.a(broadcast.c.obj)
 .debug_line    0x000149da      0x306 mesh/core/libmesh_core_nrf51422_xxAC.a(filter_engine.c.obj)
 .debug_line    0x00014ce0      0x303 mesh/core/libmesh_core_nrf51422_xxAC.a(radio_config.c.obj)
 .debug_line    0x00014fe3      0x798 mesh/core/libmesh_core_nrf51422_xxAC.a(scanner.c.obj)
 .debug_line    0x0001577b      0x1fe mesh/core/libmesh_core_nrf51422_xxAC.a(aes.c.obj)
 .debug_line    0x00015979      0x245 mesh/core/libmesh_core_nrf51422_xxAC.a(msg_cache.c.obj)
 .debug_line    0x00015bbe     0x1040 mesh/core/libmesh_core_nrf51422_xxAC.a(transport.c.obj)
 .debug_line    0x00016bfe      0x7e4 mesh/core/libmesh_core_nrf51422_xxAC.a(flash_manager_defrag.c.obj)
 .debug_line    0x000173e2      0x252 mesh/core/libmesh_core_nrf51422_xxAC.a(nrf_flash.c.obj)
 .debug_line    0x00017634      0x477 mesh/core/libmesh_core_nrf51422_xxAC.a(packet_mgr.c.obj)
 .debug_line    0x00017aab      0x2d0 mesh/core/libmesh_core_nrf51422_xxAC.a(queue.c.obj)
 .debug_line    0x00017d7b      0x27e mesh/core/libmesh_core_nrf51422_xxAC.a(aes_cmac.c.obj)
 .debug_line    0x00017ff9      0x252 mesh/core/libmesh_core_nrf51422_xxAC.a(nrf_mesh_opt.c.obj)
 .debug_line    0x0001824b      0x1fb mesh/core/libmesh_core_nrf51422_xxAC.a(replay_cache.c.obj)
 .debug_line    0x00018446      0x4ea external/rtt/librtt_nrf51422_xxAC.a(SEGGER_RTT.c.obj)
 .debug_line    0x00018930      0x2aa external/rtt/librtt_nrf51422_xxAC.a(SEGGER_RTT_printf.c.obj)
 .debug_line    0x00018bda      0xa52 external/micro-ecc/libuECC_nrf51422_xxAC.a(uECC.c.obj)

.debug_str      0x00000000    0x13717
 .debug_str     0x00000000     0x1c45 examples/dfu/CMakeFiles/dfu_nrf51422_xxAC_s130_2.0.1.dir/src/main.c.obj
                               0x1e5f (size before relaxing)
 .debug_str     0x00001c45     0x1248 examples/dfu/CMakeFiles/dfu_nrf51422_xxAC_s130_2.0.1.dir/__/nrf_mesh_sdk.c.obj
                               0x1f86 (size before relaxing)
 .debug_str     0x00002e8d      0x52d examples/dfu/CMakeFiles/dfu_nrf51422_xxAC_s130_2.0.1.dir/__/__/mesh/access/src/access_publish.c.obj
                                0xbb5 (size before relaxing)
 .debug_str     0x000033ba     0x11d4 examples/dfu/CMakeFiles/dfu_nrf51422_xxAC_s130_2.0.1.dir/__/__/mesh/access/src/access.c.obj
                               0x2b2a (size before relaxing)
 .debug_str     0x0000458e      0x20b examples/dfu/CMakeFiles/dfu_nrf51422_xxAC_s130_2.0.1.dir/__/__/mesh/access/src/access_reliable.c.obj
                                0xc83 (size before relaxing)
 .debug_str     0x00004799     0x1212 examples/dfu/CMakeFiles/dfu_nrf51422_xxAC_s130_2.0.1.dir/__/__/mesh/access/src/device_state_manager.c.obj
                               0x2e3f (size before relaxing)
 .debug_str     0x000059ab      0x1e6 examples/dfu/CMakeFiles/dfu_nrf51422_xxAC_s130_2.0.1.dir/__/__/mesh/serial/src/serial_uart.c.obj
                                0xa75 (size before relaxing)
 .debug_str     0x00005b91     0x18df examples/dfu/CMakeFiles/dfu_nrf51422_xxAC_s130_2.0.1.dir/__/__/mesh/serial/src/serial_bearer.c.obj
                               0x28d9 (size before relaxing)
 .debug_str     0x00007470      0x132 examples/dfu/CMakeFiles/dfu_nrf51422_xxAC_s130_2.0.1.dir/__/__/mesh/serial/src/serial_handler_common.c.obj
                               0x213f (size before relaxing)
 .debug_str     0x000075a2      0x1c4 examples/dfu/CMakeFiles/dfu_nrf51422_xxAC_s130_2.0.1.dir/__/__/mesh/serial/src/serial_handler_access.c.obj
                               0x261c (size before relaxing)
 .debug_str     0x00007766       0xa9 examples/dfu/CMakeFiles/dfu_nrf51422_xxAC_s130_2.0.1.dir/__/__/mesh/serial/src/serial_handler_config.c.obj
                               0x20d6 (size before relaxing)
 .debug_str     0x0000780f       0x58 examples/dfu/CMakeFiles/dfu_nrf51422_xxAC_s130_2.0.1.dir/__/__/mesh/serial/src/serial_handler_openmesh.c.obj
                               0x2086 (size before relaxing)
 .debug_str     0x00007867      0x258 examples/dfu/CMakeFiles/dfu_nrf51422_xxAC_s130_2.0.1.dir/__/__/mesh/serial/src/serial.c.obj
                               0x2505 (size before relaxing)
 .debug_str     0x00007abf     0x17be examples/dfu/CMakeFiles/dfu_nrf51422_xxAC_s130_2.0.1.dir/__/__/mesh/serial/src/serial_handler_prov.c.obj
                               0x3e0c (size before relaxing)
 .debug_str     0x0000927d      0x274 examples/dfu/CMakeFiles/dfu_nrf51422_xxAC_s130_2.0.1.dir/__/__/mesh/serial/src/serial_handler_dfu.c.obj
                               0x2ff9 (size before relaxing)
 .debug_str     0x000094f1      0x49b examples/dfu/CMakeFiles/dfu_nrf51422_xxAC_s130_2.0.1.dir/__/__/mesh/serial/src/serial_handler_mesh.c.obj
                               0x3535 (size before relaxing)
 .debug_str     0x0000998c      0x17d examples/dfu/CMakeFiles/dfu_nrf51422_xxAC_s130_2.0.1.dir/__/__/mesh/serial/src/serial_handler_models.c.obj
                               0x22cd (size before relaxing)
 .debug_str     0x00009b09      0x58c examples/dfu/CMakeFiles/dfu_nrf51422_xxAC_s130_2.0.1.dir/__/__/mesh/serial/src/serial_handler_device.c.obj
                               0x2c6b (size before relaxing)
 .debug_str     0x0000a095       0x88 examples/dfu/CMakeFiles/dfu_nrf51422_xxAC_s130_2.0.1.dir/__/__/mesh/serial/src/nrf_mesh_serial.c.obj
                               0x21fd (size before relaxing)
 .debug_str     0x0000a11d       0x4a examples/dfu/CMakeFiles/dfu_nrf51422_xxAC_s130_2.0.1.dir/__/__/mesh/serial/src/serial_handler_app.c.obj
                               0x209d (size before relaxing)
 .debug_str     0x0000a167      0x549 examples/dfu/CMakeFiles/dfu_nrf51422_xxAC_s130_2.0.1.dir/__/__/mesh/prov/src/prov_provisioner.c.obj
                               0x1e8d (size before relaxing)
 .debug_str     0x0000a6b0      0x1d8 examples/dfu/CMakeFiles/dfu_nrf51422_xxAC_s130_2.0.1.dir/__/__/mesh/prov/src/prov_provisionee.c.obj
                               0x2045 (size before relaxing)
 .debug_str     0x0000a888      0x104 examples/dfu/CMakeFiles/dfu_nrf51422_xxAC_s130_2.0.1.dir/__/__/mesh/prov/src/nrf_mesh_prov.c.obj
                               0x1c63 (size before relaxing)
 .debug_str     0x0000a98c       0xc3 examples/dfu/CMakeFiles/dfu_nrf51422_xxAC_s130_2.0.1.dir/__/__/mesh/prov/src/provisioning.c.obj
                                0xf26 (size before relaxing)
 .debug_str     0x0000aa4f       0xea examples/dfu/CMakeFiles/dfu_nrf51422_xxAC_s130_2.0.1.dir/__/__/mesh/prov/src/prov_beacon.c.obj
                               0x1843 (size before relaxing)
 .debug_str     0x0000ab39      0x431 examples/dfu/CMakeFiles/dfu_nrf51422_xxAC_s130_2.0.1.dir/__/__/mesh/prov/src/prov_utils.c.obj
                               0x1e27 (size before relaxing)
 .debug_str     0x0000af6a      0x4ca examples/dfu/CMakeFiles/dfu_nrf51422_xxAC_s130_2.0.1.dir/__/__/mesh/prov/src/prov_bearer_adv.c.obj
                               0x1ae1 (size before relaxing)
 .debug_str     0x0000b434     0x13ed examples/dfu/CMakeFiles/dfu_nrf51422_xxAC_s130_2.0.1.dir/__/__/mesh/dfu/src/nrf_mesh_dfu.c.obj
                               0x3374 (size before relaxing)
 .debug_str     0x0000c821      0x116 examples/dfu/CMakeFiles/dfu_nrf51422_xxAC_s130_2.0.1.dir/__/__/external/nRF5_SDK_14.2.0_17b948a/components/toolchain/system_nrf51.c.obj
                                0x2dc (size before relaxing)
 .debug_str     0x0000c937       0xee mesh/core/libmesh_core_nrf51422_xxAC.a(internal_event.c.obj)
                                0xa74 (size before relaxing)
 .debug_str     0x0000ca25       0x52 mesh/core/libmesh_core_nrf51422_xxAC.a(nrf_mesh_configure.c.obj)
                                0x723 (size before relaxing)
 .debug_str     0x0000ca77       0x82 mesh/core/libmesh_core_nrf51422_xxAC.a(event.c.obj)
                               0x1495 (size before relaxing)
 .debug_str     0x0000caf9      0x2d4 mesh/core/libmesh_core_nrf51422_xxAC.a(packet_buffer.c.obj)
                                0xbe6 (size before relaxing)
 .debug_str     0x0000cdcd       0x76 mesh/core/libmesh_core_nrf51422_xxAC.a(fifo.c.obj)
                                0x6c4 (size before relaxing)
 .debug_str     0x0000ce43      0x357 mesh/core/libmesh_core_nrf51422_xxAC.a(net_state.c.obj)
                               0x1e1a (size before relaxing)
 .debug_str     0x0000d19a      0x372 mesh/core/libmesh_core_nrf51422_xxAC.a(mesh_flash.c.obj)
                                0xcd7 (size before relaxing)
 .debug_str     0x0000d50c       0x8b mesh/core/libmesh_core_nrf51422_xxAC.a(nrf_mesh_utils.c.obj)
                                0x73a (size before relaxing)
 .debug_str     0x0000d597      0x46c mesh/core/libmesh_core_nrf51422_xxAC.a(nrf_mesh.c.obj)
                               0x298a (size before relaxing)
 .debug_str     0x0000da03       0xa9 mesh/core/libmesh_core_nrf51422_xxAC.a(hal.c.obj)
                                0x746 (size before relaxing)
 .debug_str     0x0000daac      0x13d mesh/core/libmesh_core_nrf51422_xxAC.a(timer_scheduler.c.obj)
                                0x91d (size before relaxing)
 .debug_str     0x0000dbe9      0x212 mesh/core/libmesh_core_nrf51422_xxAC.a(timer.c.obj)
                                0x743 (size before relaxing)
 .debug_str     0x0000ddfb       0x3c mesh/core/libmesh_core_nrf51422_xxAC.a(ticker.c.obj)
                                0x33a (size before relaxing)
 .debug_str     0x0000de37       0x88 mesh/core/libmesh_core_nrf51422_xxAC.a(rand.c.obj)
                                0x6f9 (size before relaxing)
 .debug_str     0x0000debf      0x8ba mesh/core/libmesh_core_nrf51422_xxAC.a(timeslot.c.obj)
                               0x1716 (size before relaxing)
 .debug_str     0x0000e779      0x2af mesh/core/libmesh_core_nrf51422_xxAC.a(bearer_event.c.obj)
                                0xd62 (size before relaxing)
 .debug_str     0x0000ea28      0x1ad mesh/core/libmesh_core_nrf51422_xxAC.a(enc.c.obj)
                                0x9a3 (size before relaxing)
 .debug_str     0x0000ebd5      0x6cc mesh/core/libmesh_core_nrf51422_xxAC.a(network.c.obj)
                               0x19ab (size before relaxing)
 .debug_str     0x0000f2a1       0x53 mesh/core/libmesh_core_nrf51422_xxAC.a(msqueue.c.obj)
                                0x6a8 (size before relaxing)
 .debug_str     0x0000f2f4       0x57 mesh/core/libmesh_core_nrf51422_xxAC.a(nrf_mesh_keygen.c.obj)
                                0x36d (size before relaxing)
 .debug_str     0x0000f34b       0x65 mesh/core/libmesh_core_nrf51422_xxAC.a(list.c.obj)
                                0x2a7 (size before relaxing)
 .debug_str     0x0000f3b0       0xeb mesh/core/libmesh_core_nrf51422_xxAC.a(log.c.obj)
                                0x7b1 (size before relaxing)
 .debug_str     0x0000f49b      0x638 mesh/core/libmesh_core_nrf51422_xxAC.a(flash_manager.c.obj)
                               0x19c2 (size before relaxing)
 .debug_str     0x0000fad3       0x85 mesh/core/libmesh_core_nrf51422_xxAC.a(ccm_soft.c.obj)
                                0x73e (size before relaxing)
 .debug_str     0x0000fb58       0xa6 mesh/core/libmesh_core_nrf51422_xxAC.a(beacon.c.obj)
                               0x10ba (size before relaxing)
 .debug_str     0x0000fbfe       0x38 mesh/core/libmesh_core_nrf51422_xxAC.a(flash_manager_internal.c.obj)
                                0x79f (size before relaxing)
 .debug_str     0x0000fc36      0x128 mesh/core/libmesh_core_nrf51422_xxAC.a(core_tx.c.obj)
                                0x88c (size before relaxing)
 .debug_str     0x0000fd5e      0x754 mesh/core/libmesh_core_nrf51422_xxAC.a(heartbeat.c.obj)
                               0x200f (size before relaxing)
 .debug_str     0x000104b2      0x1c2 mesh/core/libmesh_core_nrf51422_xxAC.a(net_beacon.c.obj)
                                0xe58 (size before relaxing)
 .debug_str     0x00010674      0x102 mesh/core/libmesh_core_nrf51422_xxAC.a(core_tx_adv.c.obj)
                                0xfc2 (size before relaxing)
 .debug_str     0x00010776      0x184 mesh/core/libmesh_core_nrf51422_xxAC.a(ad_listener.c.obj)
                                0xb53 (size before relaxing)
 .debug_str     0x000108fa      0x14f mesh/core/libmesh_core_nrf51422_xxAC.a(ad_type_filter.c.obj)
                                0x98d (size before relaxing)
 .debug_str     0x00010a49      0x290 mesh/core/libmesh_core_nrf51422_xxAC.a(advertiser.c.obj)
                               0x1459 (size before relaxing)
 .debug_str     0x00010cd9      0x300 mesh/core/libmesh_core_nrf51422_xxAC.a(bearer_handler.c.obj)
                                0xe3e (size before relaxing)
 .debug_str     0x00010fd9      0x1ac mesh/core/libmesh_core_nrf51422_xxAC.a(broadcast.c.obj)
                                0xea1 (size before relaxing)
 .debug_str     0x00011185       0x72 mesh/core/libmesh_core_nrf51422_xxAC.a(filter_engine.c.obj)
                                0x7fa (size before relaxing)
 .debug_str     0x000111f7       0x79 mesh/core/libmesh_core_nrf51422_xxAC.a(radio_config.c.obj)
                                0x6f0 (size before relaxing)
 .debug_str     0x00011270      0x45d mesh/core/libmesh_core_nrf51422_xxAC.a(scanner.c.obj)
                               0x171c (size before relaxing)
 .debug_str     0x000116cd       0xc1 mesh/core/libmesh_core_nrf51422_xxAC.a(aes.c.obj)
                                0xa8b (size before relaxing)
 .debug_str     0x0001178e       0x68 mesh/core/libmesh_core_nrf51422_xxAC.a(msg_cache.c.obj)
                                0x6cb (size before relaxing)
 .debug_str     0x000117f6      0xd25 mesh/core/libmesh_core_nrf51422_xxAC.a(transport.c.obj)
                               0x31ce (size before relaxing)
 .debug_str     0x0001251b      0x36b mesh/core/libmesh_core_nrf51422_xxAC.a(flash_manager_defrag.c.obj)
                               0x14e0 (size before relaxing)
 .debug_str     0x00012886       0x75 mesh/core/libmesh_core_nrf51422_xxAC.a(nrf_flash.c.obj)
                                0x692 (size before relaxing)
 .debug_str     0x000128fb      0x266 mesh/core/libmesh_core_nrf51422_xxAC.a(packet_mgr.c.obj)
                                0x9b0 (size before relaxing)
 .debug_str     0x00012b61       0x19 mesh/core/libmesh_core_nrf51422_xxAC.a(queue.c.obj)
                                0x66c (size before relaxing)
 .debug_str     0x00012b7a       0xb8 mesh/core/libmesh_core_nrf51422_xxAC.a(aes_cmac.c.obj)
                                0x6f6 (size before relaxing)
 .debug_str     0x00012c32       0x31 mesh/core/libmesh_core_nrf51422_xxAC.a(nrf_mesh_opt.c.obj)
                                0x902 (size before relaxing)
 .debug_str     0x00012c63       0x9f mesh/core/libmesh_core_nrf51422_xxAC.a(replay_cache.c.obj)
                                0x69e (size before relaxing)
 .debug_str     0x00012d02      0x2d1 external/rtt/librtt_nrf51422_xxAC.a(SEGGER_RTT.c.obj)
                                0x910 (size before relaxing)
 .debug_str     0x00012fd3       0xdf external/rtt/librtt_nrf51422_xxAC.a(SEGGER_RTT_printf.c.obj)
                                0x780 (size before relaxing)
 .debug_str     0x000130b2      0x665 external/micro-ecc/libuECC_nrf51422_xxAC.a(uECC.c.obj)
                                0x86e (size before relaxing)

.debug_frame    0x00000000     0x6740
 .debug_frame   0x00000000       0x60 examples/dfu/CMakeFiles/dfu_nrf51422_xxAC_s130_2.0.1.dir/src/main.c.obj
 .debug_frame   0x00000060      0x154 examples/dfu/CMakeFiles/dfu_nrf51422_xxAC_s130_2.0.1.dir/__/nrf_mesh_sdk.c.obj
 .debug_frame   0x000001b4       0xd8 examples/dfu/CMakeFiles/dfu_nrf51422_xxAC_s130_2.0.1.dir/__/__/mesh/access/src/access_publish.c.obj
 .debug_frame   0x0000028c      0x570 examples/dfu/CMakeFiles/dfu_nrf51422_xxAC_s130_2.0.1.dir/__/__/mesh/access/src/access.c.obj
 .debug_frame   0x000007fc       0xd8 examples/dfu/CMakeFiles/dfu_nrf51422_xxAC_s130_2.0.1.dir/__/__/mesh/access/src/access_reliable.c.obj
 .debug_frame   0x000008d4      0xa64 examples/dfu/CMakeFiles/dfu_nrf51422_xxAC_s130_2.0.1.dir/__/__/mesh/access/src/device_state_manager.c.obj
 .debug_frame   0x00001338       0x70 examples/dfu/CMakeFiles/dfu_nrf51422_xxAC_s130_2.0.1.dir/__/__/mesh/serial/src/serial_uart.c.obj
 .debug_frame   0x000013a8      0x130 examples/dfu/CMakeFiles/dfu_nrf51422_xxAC_s130_2.0.1.dir/__/__/mesh/serial/src/serial_bearer.c.obj
 .debug_frame   0x000014d8       0x48 examples/dfu/CMakeFiles/dfu_nrf51422_xxAC_s130_2.0.1.dir/__/__/mesh/serial/src/serial_handler_common.c.obj
 .debug_frame   0x00001520      0x268 examples/dfu/CMakeFiles/dfu_nrf51422_xxAC_s130_2.0.1.dir/__/__/mesh/serial/src/serial_handler_access.c.obj
 .debug_frame   0x00001788       0x2c examples/dfu/CMakeFiles/dfu_nrf51422_xxAC_s130_2.0.1.dir/__/__/mesh/serial/src/serial_handler_config.c.obj
 .debug_frame   0x000017b4       0x28 examples/dfu/CMakeFiles/dfu_nrf51422_xxAC_s130_2.0.1.dir/__/__/mesh/serial/src/serial_handler_openmesh.c.obj
 .debug_frame   0x000017dc      0x104 examples/dfu/CMakeFiles/dfu_nrf51422_xxAC_s130_2.0.1.dir/__/__/mesh/serial/src/serial.c.obj
 .debug_frame   0x000018e0       0xb0 examples/dfu/CMakeFiles/dfu_nrf51422_xxAC_s130_2.0.1.dir/__/__/mesh/serial/src/serial_handler_prov.c.obj
 .debug_frame   0x00001990       0x68 examples/dfu/CMakeFiles/dfu_nrf51422_xxAC_s130_2.0.1.dir/__/__/mesh/serial/src/serial_handler_dfu.c.obj
 .debug_frame   0x000019f8      0x3a0 examples/dfu/CMakeFiles/dfu_nrf51422_xxAC_s130_2.0.1.dir/__/__/mesh/serial/src/serial_handler_mesh.c.obj
 .debug_frame   0x00001d98       0xc0 examples/dfu/CMakeFiles/dfu_nrf51422_xxAC_s130_2.0.1.dir/__/__/mesh/serial/src/serial_handler_models.c.obj
 .debug_frame   0x00001e58      0x164 examples/dfu/CMakeFiles/dfu_nrf51422_xxAC_s130_2.0.1.dir/__/__/mesh/serial/src/serial_handler_device.c.obj
 .debug_frame   0x00001fbc       0x7c examples/dfu/CMakeFiles/dfu_nrf51422_xxAC_s130_2.0.1.dir/__/__/mesh/serial/src/nrf_mesh_serial.c.obj
 .debug_frame   0x00002038       0x38 examples/dfu/CMakeFiles/dfu_nrf51422_xxAC_s130_2.0.1.dir/__/__/mesh/serial/src/serial_handler_app.c.obj
 .debug_frame   0x00002070      0x150 examples/dfu/CMakeFiles/dfu_nrf51422_xxAC_s130_2.0.1.dir/__/__/mesh/prov/src/prov_provisioner.c.obj
 .debug_frame   0x000021c0      0x150 examples/dfu/CMakeFiles/dfu_nrf51422_xxAC_s130_2.0.1.dir/__/__/mesh/prov/src/prov_provisionee.c.obj
 .debug_frame   0x00002310      0x13c examples/dfu/CMakeFiles/dfu_nrf51422_xxAC_s130_2.0.1.dir/__/__/mesh/prov/src/nrf_mesh_prov.c.obj
 .debug_frame   0x0000244c      0x16c examples/dfu/CMakeFiles/dfu_nrf51422_xxAC_s130_2.0.1.dir/__/__/mesh/prov/src/provisioning.c.obj
 .debug_frame   0x000025b8       0x78 examples/dfu/CMakeFiles/dfu_nrf51422_xxAC_s130_2.0.1.dir/__/__/mesh/prov/src/prov_beacon.c.obj
 .debug_frame   0x00002630      0x13c examples/dfu/CMakeFiles/dfu_nrf51422_xxAC_s130_2.0.1.dir/__/__/mesh/prov/src/prov_utils.c.obj
 .debug_frame   0x0000276c      0x298 examples/dfu/CMakeFiles/dfu_nrf51422_xxAC_s130_2.0.1.dir/__/__/mesh/prov/src/prov_bearer_adv.c.obj
 .debug_frame   0x00002a04      0x240 examples/dfu/CMakeFiles/dfu_nrf51422_xxAC_s130_2.0.1.dir/__/__/mesh/dfu/src/nrf_mesh_dfu.c.obj
 .debug_frame   0x00002c44       0x38 examples/dfu/CMakeFiles/dfu_nrf51422_xxAC_s130_2.0.1.dir/__/__/external/nRF5_SDK_14.2.0_17b948a/components/toolchain/system_nrf51.c.obj
 .debug_frame   0x00002c7c       0x58 mesh/core/libmesh_core_nrf51422_xxAC.a(internal_event.c.obj)
 .debug_frame   0x00002cd4       0x50 mesh/core/libmesh_core_nrf51422_xxAC.a(nrf_mesh_configure.c.obj)
 .debug_frame   0x00002d24       0x5c mesh/core/libmesh_core_nrf51422_xxAC.a(event.c.obj)
 .debug_frame   0x00002d80      0x178 mesh/core/libmesh_core_nrf51422_xxAC.a(packet_buffer.c.obj)
 .debug_frame   0x00002ef8       0xd4 mesh/core/libmesh_core_nrf51422_xxAC.a(fifo.c.obj)
 .debug_frame   0x00002fcc      0x210 mesh/core/libmesh_core_nrf51422_xxAC.a(net_state.c.obj)
 .debug_frame   0x000031dc      0x11c mesh/core/libmesh_core_nrf51422_xxAC.a(mesh_flash.c.obj)
 .debug_frame   0x000032f8       0x50 mesh/core/libmesh_core_nrf51422_xxAC.a(nrf_mesh_utils.c.obj)
 .debug_frame   0x00003348      0x164 mesh/core/libmesh_core_nrf51422_xxAC.a(nrf_mesh.c.obj)
 .debug_frame   0x000034ac       0x58 mesh/core/libmesh_core_nrf51422_xxAC.a(hal.c.obj)
 .debug_frame   0x00003504      0x124 mesh/core/libmesh_core_nrf51422_xxAC.a(timer_scheduler.c.obj)
 .debug_frame   0x00003628      0x110 mesh/core/libmesh_core_nrf51422_xxAC.a(timer.c.obj)
 .debug_frame   0x00003738       0x48 mesh/core/libmesh_core_nrf51422_xxAC.a(ticker.c.obj)
 .debug_frame   0x00003780       0x90 mesh/core/libmesh_core_nrf51422_xxAC.a(rand.c.obj)
 .debug_frame   0x00003810      0x1b0 mesh/core/libmesh_core_nrf51422_xxAC.a(timeslot.c.obj)
 .debug_frame   0x000039c0      0x1b0 mesh/core/libmesh_core_nrf51422_xxAC.a(bearer_event.c.obj)
 .debug_frame   0x00003b70      0x14c mesh/core/libmesh_core_nrf51422_xxAC.a(enc.c.obj)
 .debug_frame   0x00003cbc      0x110 mesh/core/libmesh_core_nrf51422_xxAC.a(network.c.obj)
 .debug_frame   0x00003dcc       0xa4 mesh/core/libmesh_core_nrf51422_xxAC.a(msqueue.c.obj)
 .debug_frame   0x00003e70       0xa4 mesh/core/libmesh_core_nrf51422_xxAC.a(nrf_mesh_keygen.c.obj)
 .debug_frame   0x00003f14       0xb8 mesh/core/libmesh_core_nrf51422_xxAC.a(list.c.obj)
 .debug_frame   0x00003fcc       0xac mesh/core/libmesh_core_nrf51422_xxAC.a(log.c.obj)
 .debug_frame   0x00004078      0x308 mesh/core/libmesh_core_nrf51422_xxAC.a(flash_manager.c.obj)
 .debug_frame   0x00004380       0xec mesh/core/libmesh_core_nrf51422_xxAC.a(ccm_soft.c.obj)
 .debug_frame   0x0000446c       0x90 mesh/core/libmesh_core_nrf51422_xxAC.a(beacon.c.obj)
 .debug_frame   0x000044fc       0x34 mesh/core/libmesh_core_nrf51422_xxAC.a(flash_manager_internal.c.obj)
 .debug_frame   0x00004530       0xd8 mesh/core/libmesh_core_nrf51422_xxAC.a(core_tx.c.obj)
 .debug_frame   0x00004608      0x14c mesh/core/libmesh_core_nrf51422_xxAC.a(heartbeat.c.obj)
 .debug_frame   0x00004754       0xb8 mesh/core/libmesh_core_nrf51422_xxAC.a(net_beacon.c.obj)
 .debug_frame   0x0000480c      0x11c mesh/core/libmesh_core_nrf51422_xxAC.a(core_tx_adv.c.obj)
 .debug_frame   0x00004928       0x74 mesh/core/libmesh_core_nrf51422_xxAC.a(ad_listener.c.obj)
 .debug_frame   0x0000499c       0xbc mesh/core/libmesh_core_nrf51422_xxAC.a(ad_type_filter.c.obj)
 .debug_frame   0x00004a58      0x214 mesh/core/libmesh_core_nrf51422_xxAC.a(advertiser.c.obj)
 .debug_frame   0x00004c6c      0x12c mesh/core/libmesh_core_nrf51422_xxAC.a(bearer_handler.c.obj)
 .debug_frame   0x00004d98       0x64 mesh/core/libmesh_core_nrf51422_xxAC.a(broadcast.c.obj)
 .debug_frame   0x00004dfc       0x6c mesh/core/libmesh_core_nrf51422_xxAC.a(filter_engine.c.obj)
 .debug_frame   0x00004e68       0x88 mesh/core/libmesh_core_nrf51422_xxAC.a(radio_config.c.obj)
 .debug_frame   0x00004ef0      0x288 mesh/core/libmesh_core_nrf51422_xxAC.a(scanner.c.obj)
 .debug_frame   0x00005178       0x3c mesh/core/libmesh_core_nrf51422_xxAC.a(aes.c.obj)
 .debug_frame   0x000051b4       0x74 mesh/core/libmesh_core_nrf51422_xxAC.a(msg_cache.c.obj)
 .debug_frame   0x00005228      0x3cc mesh/core/libmesh_core_nrf51422_xxAC.a(transport.c.obj)
 .debug_frame   0x000055f4      0x24c mesh/core/libmesh_core_nrf51422_xxAC.a(flash_manager_defrag.c.obj)
 .debug_frame   0x00005840       0x64 mesh/core/libmesh_core_nrf51422_xxAC.a(nrf_flash.c.obj)
 .debug_frame   0x000058a4       0x98 mesh/core/libmesh_core_nrf51422_xxAC.a(packet_mgr.c.obj)
 .debug_frame   0x0000593c       0x74 mesh/core/libmesh_core_nrf51422_xxAC.a(queue.c.obj)
 .debug_frame   0x000059b0       0x84 mesh/core/libmesh_core_nrf51422_xxAC.a(aes_cmac.c.obj)
 .debug_frame   0x00005a34       0x40 mesh/core/libmesh_core_nrf51422_xxAC.a(nrf_mesh_opt.c.obj)
 .debug_frame   0x00005a74       0xa8 mesh/core/libmesh_core_nrf51422_xxAC.a(replay_cache.c.obj)
 .debug_frame   0x00005b1c      0x2d8 external/rtt/librtt_nrf51422_xxAC.a(SEGGER_RTT.c.obj)
 .debug_frame   0x00005df4       0x88 external/rtt/librtt_nrf51422_xxAC.a(SEGGER_RTT_printf.c.obj)
 .debug_frame   0x00005e7c      0x5a0 external/micro-ecc/libuECC_nrf51422_xxAC.a(uECC.c.obj)
 .debug_frame   0x0000641c       0x20 c:/a/gcc_arm/6/bin/../lib/gcc/arm-none-eabi/6.3.1/thumb/v6-m\libgcc.a(_udivsi3.o)
 .debug_frame   0x0000643c       0x20 c:/a/gcc_arm/6/bin/../lib/gcc/arm-none-eabi/6.3.1/thumb/v6-m\libgcc.a(_divsi3.o)
 .debug_frame   0x0000645c       0x34 c:/a/gcc_arm/6/bin/../lib/gcc/arm-none-eabi/6.3.1/thumb/v6-m\libgcc.a(_muldi3.o)
 .debug_frame   0x00006490       0x28 c:/a/gcc_arm/6/bin/../lib/gcc/arm-none-eabi/6.3.1/../../../../arm-none-eabi/lib/thumb/v6-m\libg_nano.a(lib_a-exit.o)
 .debug_frame   0x000064b8       0x2c c:/a/gcc_arm/6/bin/../lib/gcc/arm-none-eabi/6.3.1/../../../../arm-none-eabi/lib/thumb/v6-m\libg_nano.a(lib_a-init.o)
 .debug_frame   0x000064e4       0x40 c:/a/gcc_arm/6/bin/../lib/gcc/arm-none-eabi/6.3.1/../../../../arm-none-eabi/lib/thumb/v6-m\libg_nano.a(lib_a-malloc.o)
 .debug_frame   0x00006524       0x2c c:/a/gcc_arm/6/bin/../lib/gcc/arm-none-eabi/6.3.1/../../../../arm-none-eabi/lib/thumb/v6-m\libg_nano.a(lib_a-memcmp.o)
 .debug_frame   0x00006550       0x28 c:/a/gcc_arm/6/bin/../lib/gcc/arm-none-eabi/6.3.1/../../../../arm-none-eabi/lib/thumb/v6-m\libg_nano.a(lib_a-memcpy-stub.o)
 .debug_frame   0x00006578       0x20 c:/a/gcc_arm/6/bin/../lib/gcc/arm-none-eabi/6.3.1/../../../../arm-none-eabi/lib/thumb/v6-m\libg_nano.a(lib_a-memset.o)
 .debug_frame   0x00006598       0x2c c:/a/gcc_arm/6/bin/../lib/gcc/arm-none-eabi/6.3.1/../../../../arm-none-eabi/lib/thumb/v6-m\libg_nano.a(lib_a-nano-freer.o)
 .debug_frame   0x000065c4       0x2c c:/a/gcc_arm/6/bin/../lib/gcc/arm-none-eabi/6.3.1/../../../../arm-none-eabi/lib/thumb/v6-m\libg_nano.a(lib_a-nano-mallocr.o)
 .debug_frame   0x000065f0       0x2c c:/a/gcc_arm/6/bin/../lib/gcc/arm-none-eabi/6.3.1/../../../../arm-none-eabi/lib/thumb/v6-m\libg_nano.a(lib_a-sbrkr.o)
 .debug_frame   0x0000661c       0x20 c:/a/gcc_arm/6/bin/../lib/gcc/arm-none-eabi/6.3.1/../../../../arm-none-eabi/lib/thumb/v6-m\libg_nano.a(lib_a-strcpy.o)
 .debug_frame   0x0000663c       0x2c c:/a/gcc_arm/6/bin/../lib/gcc/arm-none-eabi/6.3.1/../../../../arm-none-eabi/lib/thumb/v6-m\libg_nano.a(lib_a-strrchr.o)
 .debug_frame   0x00006668       0x30 c:/a/gcc_arm/6/bin/../lib/gcc/arm-none-eabi/6.3.1/../../../../arm-none-eabi/lib/thumb/v6-m\libg_nano.a(lib_a-mlock.o)
 .debug_frame   0x00006698       0x48 c:/a/gcc_arm/6/bin/../lib/gcc/arm-none-eabi/6.3.1/../../../../arm-none-eabi/lib/thumb/v6-m\libg_nano.a(lib_a-reent.o)
 .debug_frame   0x000066e0       0x20 c:/a/gcc_arm/6/bin/../lib/gcc/arm-none-eabi/6.3.1/../../../../arm-none-eabi/lib/thumb/v6-m\libg_nano.a(lib_a-strchr.o)
 .debug_frame   0x00006700       0x20 c:/a/gcc_arm/6/bin/../lib/gcc/arm-none-eabi/6.3.1/../../../../arm-none-eabi/lib/thumb/v6-m\libnosys.a(sbrk.o)
 .debug_frame   0x00006720       0x20 c:/a/gcc_arm/6/bin/../lib/gcc/arm-none-eabi/6.3.1/../../../../arm-none-eabi/lib/thumb/v6-m\libnosys.a(_exit.o)
