Archive member included to satisfy reference by file (symbol)

external/rtt/librtt_nrf52832_xxAA.a(SEGGER_RTT.c.obj)
                              examples/dfu/CMakeFiles/dfu_nrf52832_xxAA_s132_6.0.0.dir/__/__/mesh/core/src/log.c.obj (SEGGER_RTT_Write)
external/rtt/librtt_nrf52832_xxAA.a(SEGGER_RTT_printf.c.obj)
                              examples/dfu/CMakeFiles/dfu_nrf52832_xxAA_s132_6.0.0.dir/__/__/mesh/core/src/log.c.obj (SEGGER_RTT_vprintf)
external/micro-ecc/libuECC_nrf52832_xxAA.a(uECC.c.obj)
                              examples/dfu/CMakeFiles/dfu_nrf52832_xxAA_s132_6.0.0.dir/__/__/mesh/prov/src/prov_utils.c.obj (uECC_secp256r1)
c:/mesh/arm_gcc/bin/../lib/gcc/arm-none-eabi/6.3.1/../../../../arm-none-eabi/lib/thumb/v7e-m/fpv4-sp/hard\libg_nano.a(lib_a-exit.o)
                              c:/mesh/arm_gcc/bin/../lib/gcc/arm-none-eabi/6.3.1/../../../../arm-none-eabi/lib/thumb/v7e-m/fpv4-sp/hard/crt0.o (exit)
c:/mesh/arm_gcc/bin/../lib/gcc/arm-none-eabi/6.3.1/../../../../arm-none-eabi/lib/thumb/v7e-m/fpv4-sp/hard\libg_nano.a(lib_a-impure.o)
                              c:/mesh/arm_gcc/bin/../lib/gcc/arm-none-eabi/6.3.1/../../../../arm-none-eabi/lib/thumb/v7e-m/fpv4-sp/hard\libg_nano.a(lib_a-exit.o) (_global_impure_ptr)
c:/mesh/arm_gcc/bin/../lib/gcc/arm-none-eabi/6.3.1/../../../../arm-none-eabi/lib/thumb/v7e-m/fpv4-sp/hard\libg_nano.a(lib_a-init.o)
                              c:/mesh/arm_gcc/bin/../lib/gcc/arm-none-eabi/6.3.1/../../../../arm-none-eabi/lib/thumb/v7e-m/fpv4-sp/hard/crt0.o (__libc_init_array)
c:/mesh/arm_gcc/bin/../lib/gcc/arm-none-eabi/6.3.1/../../../../arm-none-eabi/lib/thumb/v7e-m/fpv4-sp/hard\libg_nano.a(lib_a-malloc.o)
                              examples/dfu/CMakeFiles/dfu_nrf52832_xxAA_s132_6.0.0.dir/__/__/mesh/core/src/transport.c.obj (malloc)
c:/mesh/arm_gcc/bin/../lib/gcc/arm-none-eabi/6.3.1/../../../../arm-none-eabi/lib/thumb/v7e-m/fpv4-sp/hard\libg_nano.a(lib_a-memcmp.o)
                              examples/dfu/CMakeFiles/dfu_nrf52832_xxAA_s132_6.0.0.dir/__/__/mesh/access/src/device_state_manager.c.obj (memcmp)
c:/mesh/arm_gcc/bin/../lib/gcc/arm-none-eabi/6.3.1/../../../../arm-none-eabi/lib/thumb/v7e-m/fpv4-sp/hard\libg_nano.a(lib_a-memcpy-stub.o)
                              examples/dfu/CMakeFiles/dfu_nrf52832_xxAA_s132_6.0.0.dir/__/__/mesh/access/src/access.c.obj (memcpy)
c:/mesh/arm_gcc/bin/../lib/gcc/arm-none-eabi/6.3.1/../../../../arm-none-eabi/lib/thumb/v7e-m/fpv4-sp/hard\libg_nano.a(lib_a-memset.o)
                              c:/mesh/arm_gcc/bin/../lib/gcc/arm-none-eabi/6.3.1/../../../../arm-none-eabi/lib/thumb/v7e-m/fpv4-sp/hard/crt0.o (memset)
c:/mesh/arm_gcc/bin/../lib/gcc/arm-none-eabi/6.3.1/../../../../arm-none-eabi/lib/thumb/v7e-m/fpv4-sp/hard\libg_nano.a(lib_a-nano-freer.o)
                              c:/mesh/arm_gcc/bin/../lib/gcc/arm-none-eabi/6.3.1/../../../../arm-none-eabi/lib/thumb/v7e-m/fpv4-sp/hard\libg_nano.a(lib_a-malloc.o) (_free_r)
c:/mesh/arm_gcc/bin/../lib/gcc/arm-none-eabi/6.3.1/../../../../arm-none-eabi/lib/thumb/v7e-m/fpv4-sp/hard\libg_nano.a(lib_a-nano-mallocr.o)
                              c:/mesh/arm_gcc/bin/../lib/gcc/arm-none-eabi/6.3.1/../../../../arm-none-eabi/lib/thumb/v7e-m/fpv4-sp/hard\libg_nano.a(lib_a-malloc.o) (_malloc_r)
c:/mesh/arm_gcc/bin/../lib/gcc/arm-none-eabi/6.3.1/../../../../arm-none-eabi/lib/thumb/v7e-m/fpv4-sp/hard\libg_nano.a(lib_a-sbrkr.o)
                              c:/mesh/arm_gcc/bin/../lib/gcc/arm-none-eabi/6.3.1/../../../../arm-none-eabi/lib/thumb/v7e-m/fpv4-sp/hard\libg_nano.a(lib_a-nano-mallocr.o) (_sbrk_r)
c:/mesh/arm_gcc/bin/../lib/gcc/arm-none-eabi/6.3.1/../../../../arm-none-eabi/lib/thumb/v7e-m/fpv4-sp/hard\libg_nano.a(lib_a-strcpy.o)
                              external/rtt/librtt_nrf52832_xxAA.a(SEGGER_RTT.c.obj) (strcpy)
c:/mesh/arm_gcc/bin/../lib/gcc/arm-none-eabi/6.3.1/../../../../arm-none-eabi/lib/thumb/v7e-m/fpv4-sp/hard\libg_nano.a(lib_a-strlen.o)
                              examples/dfu/CMakeFiles/dfu_nrf52832_xxAA_s132_6.0.0.dir/__/__/mesh/prov/src/prov_beacon.c.obj (strlen)
c:/mesh/arm_gcc/bin/../lib/gcc/arm-none-eabi/6.3.1/../../../../arm-none-eabi/lib/thumb/v7e-m/fpv4-sp/hard\libg_nano.a(lib_a-strrchr.o)
                              examples/dfu/CMakeFiles/dfu_nrf52832_xxAA_s132_6.0.0.dir/src/main.c.obj (strrchr)
c:/mesh/arm_gcc/bin/../lib/gcc/arm-none-eabi/6.3.1/../../../../arm-none-eabi/lib/thumb/v7e-m/fpv4-sp/hard\libg_nano.a(lib_a-mlock.o)
                              c:/mesh/arm_gcc/bin/../lib/gcc/arm-none-eabi/6.3.1/../../../../arm-none-eabi/lib/thumb/v7e-m/fpv4-sp/hard\libg_nano.a(lib_a-nano-freer.o) (__malloc_lock)
c:/mesh/arm_gcc/bin/../lib/gcc/arm-none-eabi/6.3.1/../../../../arm-none-eabi/lib/thumb/v7e-m/fpv4-sp/hard\libg_nano.a(lib_a-reent.o)
                              c:/mesh/arm_gcc/bin/../lib/gcc/arm-none-eabi/6.3.1/../../../../arm-none-eabi/lib/thumb/v7e-m/fpv4-sp/hard\libg_nano.a(lib_a-sbrkr.o) (errno)
c:/mesh/arm_gcc/bin/../lib/gcc/arm-none-eabi/6.3.1/../../../../arm-none-eabi/lib/thumb/v7e-m/fpv4-sp/hard\libg_nano.a(lib_a-strchr.o)
                              c:/mesh/arm_gcc/bin/../lib/gcc/arm-none-eabi/6.3.1/../../../../arm-none-eabi/lib/thumb/v7e-m/fpv4-sp/hard\libg_nano.a(lib_a-strrchr.o) (strchr)
c:/mesh/arm_gcc/bin/../lib/gcc/arm-none-eabi/6.3.1/../../../../arm-none-eabi/lib/thumb/v7e-m/fpv4-sp/hard\libnosys.a(sbrk.o)
                              c:/mesh/arm_gcc/bin/../lib/gcc/arm-none-eabi/6.3.1/../../../../arm-none-eabi/lib/thumb/v7e-m/fpv4-sp/hard\libg_nano.a(lib_a-sbrkr.o) (_sbrk)
c:/mesh/arm_gcc/bin/../lib/gcc/arm-none-eabi/6.3.1/../../../../arm-none-eabi/lib/thumb/v7e-m/fpv4-sp/hard\libnosys.a(_exit.o)
                              c:/mesh/arm_gcc/bin/../lib/gcc/arm-none-eabi/6.3.1/../../../../arm-none-eabi/lib/thumb/v7e-m/fpv4-sp/hard\libg_nano.a(lib_a-exit.o) (_exit)

Allocating common symbols
Common symbol       size              file

nrf_nvic_state      0xc               examples/dfu/CMakeFiles/dfu_nrf52832_xxAA_s132_6.0.0.dir/__/common/src/mesh_softdevice_init.c.obj
m_packet            0x24              examples/dfu/CMakeFiles/dfu_nrf52832_xxAA_s132_6.0.0.dir/__/__/mesh/core/src/core_tx.c.obj
bank_addr           0x4               examples/dfu/CMakeFiles/dfu_nrf52832_xxAA_s132_6.0.0.dir/src/main.c.obj
rom_length          0x4               examples/dfu/CMakeFiles/dfu_nrf52832_xxAA_s132_6.0.0.dir/src/main.c.obj
m_cmd_handler       0x4               examples/dfu/CMakeFiles/dfu_nrf52832_xxAA_s132_6.0.0.dir/__/__/mesh/dfu/src/nrf_mesh_dfu.c.obj
errno               0x4               c:/mesh/arm_gcc/bin/../lib/gcc/arm-none-eabi/6.3.1/../../../../arm-none-eabi/lib/thumb/v7e-m/fpv4-sp/hard\libg_nano.a(lib_a-reent.o)
_SEGGER_RTT         0x78              external/rtt/librtt_nrf52832_xxAA.a(SEGGER_RTT.c.obj)

Discarded input sections

 .text          0x00000000        0x0 c:/mesh/arm_gcc/bin/../lib/gcc/arm-none-eabi/6.3.1/thumb/v7e-m/fpv4-sp/hard/crti.o
 .data          0x00000000        0x0 c:/mesh/arm_gcc/bin/../lib/gcc/arm-none-eabi/6.3.1/thumb/v7e-m/fpv4-sp/hard/crti.o
 .bss           0x00000000        0x0 c:/mesh/arm_gcc/bin/../lib/gcc/arm-none-eabi/6.3.1/thumb/v7e-m/fpv4-sp/hard/crti.o
 .data          0x00000000        0x4 c:/mesh/arm_gcc/bin/../lib/gcc/arm-none-eabi/6.3.1/thumb/v7e-m/fpv4-sp/hard/crtbegin.o
 .data          0x00000000        0x0 c:/mesh/arm_gcc/bin/../lib/gcc/arm-none-eabi/6.3.1/../../../../arm-none-eabi/lib/thumb/v7e-m/fpv4-sp/hard/crt0.o
 .bss           0x00000000        0x0 c:/mesh/arm_gcc/bin/../lib/gcc/arm-none-eabi/6.3.1/../../../../arm-none-eabi/lib/thumb/v7e-m/fpv4-sp/hard/crt0.o
 .ARM.extab     0x00000000        0x0 c:/mesh/arm_gcc/bin/../lib/gcc/arm-none-eabi/6.3.1/../../../../arm-none-eabi/lib/thumb/v7e-m/fpv4-sp/hard/crt0.o
 .text          0x00000000        0x0 examples/dfu/CMakeFiles/dfu_nrf52832_xxAA_s132_6.0.0.dir/src/main.c.obj
 .data          0x00000000        0x0 examples/dfu/CMakeFiles/dfu_nrf52832_xxAA_s132_6.0.0.dir/src/main.c.obj
 .bss           0x00000000        0x0 examples/dfu/CMakeFiles/dfu_nrf52832_xxAA_s132_6.0.0.dir/src/main.c.obj
 .text          0x00000000        0x0 examples/dfu/CMakeFiles/dfu_nrf52832_xxAA_s132_6.0.0.dir/__/__/mesh/stack/src/mesh_stack.c.obj
 .data          0x00000000        0x0 examples/dfu/CMakeFiles/dfu_nrf52832_xxAA_s132_6.0.0.dir/__/__/mesh/stack/src/mesh_stack.c.obj
 .bss           0x00000000        0x0 examples/dfu/CMakeFiles/dfu_nrf52832_xxAA_s132_6.0.0.dir/__/__/mesh/stack/src/mesh_stack.c.obj
 .text          0x00000000        0x0 examples/dfu/CMakeFiles/dfu_nrf52832_xxAA_s132_6.0.0.dir/__/common/src/mesh_softdevice_init.c.obj
 .data          0x00000000        0x0 examples/dfu/CMakeFiles/dfu_nrf52832_xxAA_s132_6.0.0.dir/__/common/src/mesh_softdevice_init.c.obj
 .bss           0x00000000        0x0 examples/dfu/CMakeFiles/dfu_nrf52832_xxAA_s132_6.0.0.dir/__/common/src/mesh_softdevice_init.c.obj
 .text          0x00000000        0x0 examples/dfu/CMakeFiles/dfu_nrf52832_xxAA_s132_6.0.0.dir/__/common/src/mesh_provisionee.c.obj
 .data          0x00000000        0x0 examples/dfu/CMakeFiles/dfu_nrf52832_xxAA_s132_6.0.0.dir/__/common/src/mesh_provisionee.c.obj
 .bss           0x00000000        0x0 examples/dfu/CMakeFiles/dfu_nrf52832_xxAA_s132_6.0.0.dir/__/common/src/mesh_provisionee.c.obj
 .text          0x00000000        0x0 examples/dfu/CMakeFiles/dfu_nrf52832_xxAA_s132_6.0.0.dir/__/common/src/simple_hal.c.obj
 .data          0x00000000        0x0 examples/dfu/CMakeFiles/dfu_nrf52832_xxAA_s132_6.0.0.dir/__/common/src/simple_hal.c.obj
 .bss           0x00000000        0x0 examples/dfu/CMakeFiles/dfu_nrf52832_xxAA_s132_6.0.0.dir/__/common/src/simple_hal.c.obj
 .text.hal_led_pin_get
                0x00000000       0x18 examples/dfu/CMakeFiles/dfu_nrf52832_xxAA_s132_6.0.0.dir/__/common/src/simple_hal.c.obj
 .text.hal_led_pin_set
                0x00000000       0x16 examples/dfu/CMakeFiles/dfu_nrf52832_xxAA_s132_6.0.0.dir/__/common/src/simple_hal.c.obj
 .text.hal_buttons_init
                0x00000000       0x50 examples/dfu/CMakeFiles/dfu_nrf52832_xxAA_s132_6.0.0.dir/__/common/src/simple_hal.c.obj
 .text          0x00000000        0x0 examples/dfu/CMakeFiles/dfu_nrf52832_xxAA_s132_6.0.0.dir/__/__/mesh/access/src/access_publish.c.obj
 .data          0x00000000        0x0 examples/dfu/CMakeFiles/dfu_nrf52832_xxAA_s132_6.0.0.dir/__/__/mesh/access/src/access_publish.c.obj
 .bss           0x00000000        0x0 examples/dfu/CMakeFiles/dfu_nrf52832_xxAA_s132_6.0.0.dir/__/__/mesh/access/src/access_publish.c.obj
 .text          0x00000000        0x0 examples/dfu/CMakeFiles/dfu_nrf52832_xxAA_s132_6.0.0.dir/__/__/mesh/access/src/access.c.obj
 .data          0x00000000        0x0 examples/dfu/CMakeFiles/dfu_nrf52832_xxAA_s132_6.0.0.dir/__/__/mesh/access/src/access.c.obj
 .bss           0x00000000        0x0 examples/dfu/CMakeFiles/dfu_nrf52832_xxAA_s132_6.0.0.dir/__/__/mesh/access/src/access.c.obj
 .text.access_model_subscription_list_alloc
                0x00000000       0x50 examples/dfu/CMakeFiles/dfu_nrf52832_xxAA_s132_6.0.0.dir/__/__/mesh/access/src/access.c.obj
 .text.access_model_subscription_lists_share
                0x00000000       0x4c examples/dfu/CMakeFiles/dfu_nrf52832_xxAA_s132_6.0.0.dir/__/__/mesh/access/src/access.c.obj
 .text          0x00000000        0x0 examples/dfu/CMakeFiles/dfu_nrf52832_xxAA_s132_6.0.0.dir/__/__/mesh/access/src/access_reliable.c.obj
 .data          0x00000000        0x0 examples/dfu/CMakeFiles/dfu_nrf52832_xxAA_s132_6.0.0.dir/__/__/mesh/access/src/access_reliable.c.obj
 .bss           0x00000000        0x0 examples/dfu/CMakeFiles/dfu_nrf52832_xxAA_s132_6.0.0.dir/__/__/mesh/access/src/access_reliable.c.obj
 .text.access_model_reliable_publish
                0x00000000      0x1bc examples/dfu/CMakeFiles/dfu_nrf52832_xxAA_s132_6.0.0.dir/__/__/mesh/access/src/access_reliable.c.obj
 .text          0x00000000        0x0 examples/dfu/CMakeFiles/dfu_nrf52832_xxAA_s132_6.0.0.dir/__/__/mesh/access/src/device_state_manager.c.obj
 .data          0x00000000        0x0 examples/dfu/CMakeFiles/dfu_nrf52832_xxAA_s132_6.0.0.dir/__/__/mesh/access/src/device_state_manager.c.obj
 .bss           0x00000000        0x0 examples/dfu/CMakeFiles/dfu_nrf52832_xxAA_s132_6.0.0.dir/__/__/mesh/access/src/device_state_manager.c.obj
 .text.dsm_has_unflashed_data
                0x00000000       0x24 examples/dfu/CMakeFiles/dfu_nrf52832_xxAA_s132_6.0.0.dir/__/__/mesh/access/src/device_state_manager.c.obj
 .text.dsm_address_subscription_count_get
                0x00000000       0x58 examples/dfu/CMakeFiles/dfu_nrf52832_xxAA_s132_6.0.0.dir/__/__/mesh/access/src/device_state_manager.c.obj
 .text.dsm_subnet_handle_to_netkey_index
                0x00000000       0x34 examples/dfu/CMakeFiles/dfu_nrf52832_xxAA_s132_6.0.0.dir/__/__/mesh/access/src/device_state_manager.c.obj
 .text.dsm_devkey_handle_get
                0x00000000       0x34 examples/dfu/CMakeFiles/dfu_nrf52832_xxAA_s132_6.0.0.dir/__/__/mesh/access/src/device_state_manager.c.obj
 .text.dsm_beacon_info_get
                0x00000000       0x38 examples/dfu/CMakeFiles/dfu_nrf52832_xxAA_s132_6.0.0.dir/__/__/mesh/access/src/device_state_manager.c.obj
 .text          0x00000000        0x0 examples/dfu/CMakeFiles/dfu_nrf52832_xxAA_s132_6.0.0.dir/__/__/mesh/serial/src/serial_uart.c.obj
 .data          0x00000000        0x0 examples/dfu/CMakeFiles/dfu_nrf52832_xxAA_s132_6.0.0.dir/__/__/mesh/serial/src/serial_uart.c.obj
 .bss           0x00000000        0x0 examples/dfu/CMakeFiles/dfu_nrf52832_xxAA_s132_6.0.0.dir/__/__/mesh/serial/src/serial_uart.c.obj
 .text          0x00000000        0x0 examples/dfu/CMakeFiles/dfu_nrf52832_xxAA_s132_6.0.0.dir/__/__/mesh/serial/src/serial_bearer.c.obj
 .data          0x00000000        0x0 examples/dfu/CMakeFiles/dfu_nrf52832_xxAA_s132_6.0.0.dir/__/__/mesh/serial/src/serial_bearer.c.obj
 .bss           0x00000000        0x0 examples/dfu/CMakeFiles/dfu_nrf52832_xxAA_s132_6.0.0.dir/__/__/mesh/serial/src/serial_bearer.c.obj
 .text.serial_bearer_rx_pending
                0x00000000        0xc examples/dfu/CMakeFiles/dfu_nrf52832_xxAA_s132_6.0.0.dir/__/__/mesh/serial/src/serial_bearer.c.obj
 .text          0x00000000        0x0 examples/dfu/CMakeFiles/dfu_nrf52832_xxAA_s132_6.0.0.dir/__/__/mesh/serial/src/serial_handler_common.c.obj
 .data          0x00000000        0x0 examples/dfu/CMakeFiles/dfu_nrf52832_xxAA_s132_6.0.0.dir/__/__/mesh/serial/src/serial_handler_common.c.obj
 .bss           0x00000000        0x0 examples/dfu/CMakeFiles/dfu_nrf52832_xxAA_s132_6.0.0.dir/__/__/mesh/serial/src/serial_handler_common.c.obj
 .text          0x00000000        0x0 examples/dfu/CMakeFiles/dfu_nrf52832_xxAA_s132_6.0.0.dir/__/__/mesh/serial/src/serial_handler_access.c.obj
 .data          0x00000000        0x0 examples/dfu/CMakeFiles/dfu_nrf52832_xxAA_s132_6.0.0.dir/__/__/mesh/serial/src/serial_handler_access.c.obj
 .bss           0x00000000        0x0 examples/dfu/CMakeFiles/dfu_nrf52832_xxAA_s132_6.0.0.dir/__/__/mesh/serial/src/serial_handler_access.c.obj
 .text          0x00000000        0x0 examples/dfu/CMakeFiles/dfu_nrf52832_xxAA_s132_6.0.0.dir/__/__/mesh/serial/src/serial_handler_config.c.obj
 .data          0x00000000        0x0 examples/dfu/CMakeFiles/dfu_nrf52832_xxAA_s132_6.0.0.dir/__/__/mesh/serial/src/serial_handler_config.c.obj
 .bss           0x00000000        0x0 examples/dfu/CMakeFiles/dfu_nrf52832_xxAA_s132_6.0.0.dir/__/__/mesh/serial/src/serial_handler_config.c.obj
 .text          0x00000000        0x0 examples/dfu/CMakeFiles/dfu_nrf52832_xxAA_s132_6.0.0.dir/__/__/mesh/serial/src/serial_handler_openmesh.c.obj
 .data          0x00000000        0x0 examples/dfu/CMakeFiles/dfu_nrf52832_xxAA_s132_6.0.0.dir/__/__/mesh/serial/src/serial_handler_openmesh.c.obj
 .bss           0x00000000        0x0 examples/dfu/CMakeFiles/dfu_nrf52832_xxAA_s132_6.0.0.dir/__/__/mesh/serial/src/serial_handler_openmesh.c.obj
 .text          0x00000000        0x0 examples/dfu/CMakeFiles/dfu_nrf52832_xxAA_s132_6.0.0.dir/__/__/mesh/serial/src/serial.c.obj
 .data          0x00000000        0x0 examples/dfu/CMakeFiles/dfu_nrf52832_xxAA_s132_6.0.0.dir/__/__/mesh/serial/src/serial.c.obj
 .bss           0x00000000        0x0 examples/dfu/CMakeFiles/dfu_nrf52832_xxAA_s132_6.0.0.dir/__/__/mesh/serial/src/serial.c.obj
 .text          0x00000000        0x0 examples/dfu/CMakeFiles/dfu_nrf52832_xxAA_s132_6.0.0.dir/__/__/mesh/serial/src/serial_handler_prov.c.obj
 .data          0x00000000        0x0 examples/dfu/CMakeFiles/dfu_nrf52832_xxAA_s132_6.0.0.dir/__/__/mesh/serial/src/serial_handler_prov.c.obj
 .bss           0x00000000        0x0 examples/dfu/CMakeFiles/dfu_nrf52832_xxAA_s132_6.0.0.dir/__/__/mesh/serial/src/serial_handler_prov.c.obj
 .text.serial_handler_prov_context_get
                0x00000000       0x1c examples/dfu/CMakeFiles/dfu_nrf52832_xxAA_s132_6.0.0.dir/__/__/mesh/serial/src/serial_handler_prov.c.obj
 .text.serial_handler_prov_keys_get
                0x00000000       0x14 examples/dfu/CMakeFiles/dfu_nrf52832_xxAA_s132_6.0.0.dir/__/__/mesh/serial/src/serial_handler_prov.c.obj
 .text.serial_handler_prov_oob_caps_get
                0x00000000        0xc examples/dfu/CMakeFiles/dfu_nrf52832_xxAA_s132_6.0.0.dir/__/__/mesh/serial/src/serial_handler_prov.c.obj
 .text          0x00000000        0x0 examples/dfu/CMakeFiles/dfu_nrf52832_xxAA_s132_6.0.0.dir/__/__/mesh/serial/src/serial_handler_dfu.c.obj
 .data          0x00000000        0x0 examples/dfu/CMakeFiles/dfu_nrf52832_xxAA_s132_6.0.0.dir/__/__/mesh/serial/src/serial_handler_dfu.c.obj
 .bss           0x00000000        0x0 examples/dfu/CMakeFiles/dfu_nrf52832_xxAA_s132_6.0.0.dir/__/__/mesh/serial/src/serial_handler_dfu.c.obj
 .text          0x00000000        0x0 examples/dfu/CMakeFiles/dfu_nrf52832_xxAA_s132_6.0.0.dir/__/__/mesh/serial/src/serial_handler_mesh.c.obj
 .data          0x00000000        0x0 examples/dfu/CMakeFiles/dfu_nrf52832_xxAA_s132_6.0.0.dir/__/__/mesh/serial/src/serial_handler_mesh.c.obj
 .bss           0x00000000        0x0 examples/dfu/CMakeFiles/dfu_nrf52832_xxAA_s132_6.0.0.dir/__/__/mesh/serial/src/serial_handler_mesh.c.obj
 .text          0x00000000        0x0 examples/dfu/CMakeFiles/dfu_nrf52832_xxAA_s132_6.0.0.dir/__/__/mesh/serial/src/serial_handler_models.c.obj
 .data          0x00000000        0x0 examples/dfu/CMakeFiles/dfu_nrf52832_xxAA_s132_6.0.0.dir/__/__/mesh/serial/src/serial_handler_models.c.obj
 .bss           0x00000000        0x0 examples/dfu/CMakeFiles/dfu_nrf52832_xxAA_s132_6.0.0.dir/__/__/mesh/serial/src/serial_handler_models.c.obj
 .text.serial_handler_models_register
                0x00000000       0x34 examples/dfu/CMakeFiles/dfu_nrf52832_xxAA_s132_6.0.0.dir/__/__/mesh/serial/src/serial_handler_models.c.obj
 .text          0x00000000        0x0 examples/dfu/CMakeFiles/dfu_nrf52832_xxAA_s132_6.0.0.dir/__/__/mesh/serial/src/serial_handler_device.c.obj
 .data          0x00000000        0x0 examples/dfu/CMakeFiles/dfu_nrf52832_xxAA_s132_6.0.0.dir/__/__/mesh/serial/src/serial_handler_device.c.obj
 .bss           0x00000000        0x0 examples/dfu/CMakeFiles/dfu_nrf52832_xxAA_s132_6.0.0.dir/__/__/mesh/serial/src/serial_handler_device.c.obj
 .text          0x00000000        0x0 examples/dfu/CMakeFiles/dfu_nrf52832_xxAA_s132_6.0.0.dir/__/__/mesh/serial/src/nrf_mesh_serial.c.obj
 .data          0x00000000        0x0 examples/dfu/CMakeFiles/dfu_nrf52832_xxAA_s132_6.0.0.dir/__/__/mesh/serial/src/nrf_mesh_serial.c.obj
 .bss           0x00000000        0x0 examples/dfu/CMakeFiles/dfu_nrf52832_xxAA_s132_6.0.0.dir/__/__/mesh/serial/src/nrf_mesh_serial.c.obj
 .text.nrf_mesh_serial_state_get
                0x00000000        0x4 examples/dfu/CMakeFiles/dfu_nrf52832_xxAA_s132_6.0.0.dir/__/__/mesh/serial/src/nrf_mesh_serial.c.obj
 .text.nrf_mesh_serial_tx
                0x00000000       0x52 examples/dfu/CMakeFiles/dfu_nrf52832_xxAA_s132_6.0.0.dir/__/__/mesh/serial/src/nrf_mesh_serial.c.obj
 .text          0x00000000        0x0 examples/dfu/CMakeFiles/dfu_nrf52832_xxAA_s132_6.0.0.dir/__/__/mesh/serial/src/serial_handler_app.c.obj
 .data          0x00000000        0x0 examples/dfu/CMakeFiles/dfu_nrf52832_xxAA_s132_6.0.0.dir/__/__/mesh/serial/src/serial_handler_app.c.obj
 .bss           0x00000000        0x0 examples/dfu/CMakeFiles/dfu_nrf52832_xxAA_s132_6.0.0.dir/__/__/mesh/serial/src/serial_handler_app.c.obj
 .text          0x00000000        0x0 examples/dfu/CMakeFiles/dfu_nrf52832_xxAA_s132_6.0.0.dir/__/__/models/config/src/composition_data.c.obj
 .data          0x00000000        0x0 examples/dfu/CMakeFiles/dfu_nrf52832_xxAA_s132_6.0.0.dir/__/__/models/config/src/composition_data.c.obj
 .bss           0x00000000        0x0 examples/dfu/CMakeFiles/dfu_nrf52832_xxAA_s132_6.0.0.dir/__/__/models/config/src/composition_data.c.obj
 .text          0x00000000        0x0 examples/dfu/CMakeFiles/dfu_nrf52832_xxAA_s132_6.0.0.dir/__/__/models/config/src/config_server.c.obj
 .data          0x00000000        0x0 examples/dfu/CMakeFiles/dfu_nrf52832_xxAA_s132_6.0.0.dir/__/__/models/config/src/config_server.c.obj
 .bss           0x00000000        0x0 examples/dfu/CMakeFiles/dfu_nrf52832_xxAA_s132_6.0.0.dir/__/__/models/config/src/config_server.c.obj
 .text          0x00000000        0x0 examples/dfu/CMakeFiles/dfu_nrf52832_xxAA_s132_6.0.0.dir/__/__/models/config/src/packed_index_list.c.obj
 .data          0x00000000        0x0 examples/dfu/CMakeFiles/dfu_nrf52832_xxAA_s132_6.0.0.dir/__/__/models/config/src/packed_index_list.c.obj
 .bss           0x00000000        0x0 examples/dfu/CMakeFiles/dfu_nrf52832_xxAA_s132_6.0.0.dir/__/__/models/config/src/packed_index_list.c.obj
 .text          0x00000000        0x0 examples/dfu/CMakeFiles/dfu_nrf52832_xxAA_s132_6.0.0.dir/__/__/models/health/src/health_server.c.obj
 .data          0x00000000        0x0 examples/dfu/CMakeFiles/dfu_nrf52832_xxAA_s132_6.0.0.dir/__/__/models/health/src/health_server.c.obj
 .bss           0x00000000        0x0 examples/dfu/CMakeFiles/dfu_nrf52832_xxAA_s132_6.0.0.dir/__/__/models/health/src/health_server.c.obj
 .text.health_server_fault_is_set
                0x00000000       0x1c examples/dfu/CMakeFiles/dfu_nrf52832_xxAA_s132_6.0.0.dir/__/__/models/health/src/health_server.c.obj
 .text.health_server_fault_count_get
                0x00000000        0xc examples/dfu/CMakeFiles/dfu_nrf52832_xxAA_s132_6.0.0.dir/__/__/models/health/src/health_server.c.obj
 .text.health_server_fault_register
                0x00000000       0xca examples/dfu/CMakeFiles/dfu_nrf52832_xxAA_s132_6.0.0.dir/__/__/models/health/src/health_server.c.obj
 .text.health_server_fault_clear
                0x00000000       0x48 examples/dfu/CMakeFiles/dfu_nrf52832_xxAA_s132_6.0.0.dir/__/__/models/health/src/health_server.c.obj
 .text.health_server_attention_get
                0x00000000        0x6 examples/dfu/CMakeFiles/dfu_nrf52832_xxAA_s132_6.0.0.dir/__/__/models/health/src/health_server.c.obj
 .text.health_server_attention_set
                0x00000000        0x4 examples/dfu/CMakeFiles/dfu_nrf52832_xxAA_s132_6.0.0.dir/__/__/models/health/src/health_server.c.obj
 .text          0x00000000        0x0 examples/dfu/CMakeFiles/dfu_nrf52832_xxAA_s132_6.0.0.dir/__/__/mesh/prov/src/prov_provisioner.c.obj
 .data          0x00000000        0x0 examples/dfu/CMakeFiles/dfu_nrf52832_xxAA_s132_6.0.0.dir/__/__/mesh/prov/src/prov_provisioner.c.obj
 .bss           0x00000000        0x0 examples/dfu/CMakeFiles/dfu_nrf52832_xxAA_s132_6.0.0.dir/__/__/mesh/prov/src/prov_provisioner.c.obj
 .text.prov_provisioner_oob_pubkey
                0x00000000       0x30 examples/dfu/CMakeFiles/dfu_nrf52832_xxAA_s132_6.0.0.dir/__/__/mesh/prov/src/prov_provisioner.c.obj
 .text          0x00000000        0x0 examples/dfu/CMakeFiles/dfu_nrf52832_xxAA_s132_6.0.0.dir/__/__/mesh/prov/src/prov_provisionee.c.obj
 .data          0x00000000        0x0 examples/dfu/CMakeFiles/dfu_nrf52832_xxAA_s132_6.0.0.dir/__/__/mesh/prov/src/prov_provisionee.c.obj
 .bss           0x00000000        0x0 examples/dfu/CMakeFiles/dfu_nrf52832_xxAA_s132_6.0.0.dir/__/__/mesh/prov/src/prov_provisionee.c.obj
 .text          0x00000000        0x0 examples/dfu/CMakeFiles/dfu_nrf52832_xxAA_s132_6.0.0.dir/__/__/mesh/prov/src/nrf_mesh_prov.c.obj
 .data          0x00000000        0x0 examples/dfu/CMakeFiles/dfu_nrf52832_xxAA_s132_6.0.0.dir/__/__/mesh/prov/src/nrf_mesh_prov.c.obj
 .bss           0x00000000        0x0 examples/dfu/CMakeFiles/dfu_nrf52832_xxAA_s132_6.0.0.dir/__/__/mesh/prov/src/nrf_mesh_prov.c.obj
 .text.nrf_mesh_prov_pubkey_provide
                0x00000000       0x10 examples/dfu/CMakeFiles/dfu_nrf52832_xxAA_s132_6.0.0.dir/__/__/mesh/prov/src/nrf_mesh_prov.c.obj
 .text          0x00000000        0x0 examples/dfu/CMakeFiles/dfu_nrf52832_xxAA_s132_6.0.0.dir/__/__/mesh/prov/src/provisioning.c.obj
 .data          0x00000000        0x0 examples/dfu/CMakeFiles/dfu_nrf52832_xxAA_s132_6.0.0.dir/__/__/mesh/prov/src/provisioning.c.obj
 .bss           0x00000000        0x0 examples/dfu/CMakeFiles/dfu_nrf52832_xxAA_s132_6.0.0.dir/__/__/mesh/prov/src/provisioning.c.obj
 .text.prov_tx  0x00000000        0x4 examples/dfu/CMakeFiles/dfu_nrf52832_xxAA_s132_6.0.0.dir/__/__/mesh/prov/src/provisioning.c.obj
 .text          0x00000000        0x0 examples/dfu/CMakeFiles/dfu_nrf52832_xxAA_s132_6.0.0.dir/__/__/mesh/prov/src/prov_beacon.c.obj
 .data          0x00000000        0x0 examples/dfu/CMakeFiles/dfu_nrf52832_xxAA_s132_6.0.0.dir/__/__/mesh/prov/src/prov_beacon.c.obj
 .bss           0x00000000        0x0 examples/dfu/CMakeFiles/dfu_nrf52832_xxAA_s132_6.0.0.dir/__/__/mesh/prov/src/prov_beacon.c.obj
 .text          0x00000000        0x0 examples/dfu/CMakeFiles/dfu_nrf52832_xxAA_s132_6.0.0.dir/__/__/mesh/prov/src/prov_utils.c.obj
 .data          0x00000000        0x0 examples/dfu/CMakeFiles/dfu_nrf52832_xxAA_s132_6.0.0.dir/__/__/mesh/prov/src/prov_utils.c.obj
 .bss           0x00000000        0x0 examples/dfu/CMakeFiles/dfu_nrf52832_xxAA_s132_6.0.0.dir/__/__/mesh/prov/src/prov_utils.c.obj
 .text          0x00000000        0x0 examples/dfu/CMakeFiles/dfu_nrf52832_xxAA_s132_6.0.0.dir/__/__/mesh/prov/src/prov_bearer_adv.c.obj
 .data          0x00000000        0x0 examples/dfu/CMakeFiles/dfu_nrf52832_xxAA_s132_6.0.0.dir/__/__/mesh/prov/src/prov_bearer_adv.c.obj
 .bss           0x00000000        0x0 examples/dfu/CMakeFiles/dfu_nrf52832_xxAA_s132_6.0.0.dir/__/__/mesh/prov/src/prov_bearer_adv.c.obj
 .text          0x00000000        0x0 examples/dfu/CMakeFiles/dfu_nrf52832_xxAA_s132_6.0.0.dir/__/__/mesh/dfu/src/nrf_mesh_dfu.c.obj
 .data          0x00000000        0x0 examples/dfu/CMakeFiles/dfu_nrf52832_xxAA_s132_6.0.0.dir/__/__/mesh/dfu/src/nrf_mesh_dfu.c.obj
 .bss           0x00000000        0x0 examples/dfu/CMakeFiles/dfu_nrf52832_xxAA_s132_6.0.0.dir/__/__/mesh/dfu/src/nrf_mesh_dfu.c.obj
 .text          0x00000000        0x0 examples/dfu/CMakeFiles/dfu_nrf52832_xxAA_s132_6.0.0.dir/__/nrf_mesh_weak.c.obj
 .data          0x00000000        0x0 examples/dfu/CMakeFiles/dfu_nrf52832_xxAA_s132_6.0.0.dir/__/nrf_mesh_weak.c.obj
 .bss           0x00000000        0x0 examples/dfu/CMakeFiles/dfu_nrf52832_xxAA_s132_6.0.0.dir/__/nrf_mesh_weak.c.obj
 .text._weak_handler
                0x00000000        0x4 examples/dfu/CMakeFiles/dfu_nrf52832_xxAA_s132_6.0.0.dir/__/nrf_mesh_weak.c.obj
 .text._weak_handler_ptr
                0x00000000        0x4 examples/dfu/CMakeFiles/dfu_nrf52832_xxAA_s132_6.0.0.dir/__/nrf_mesh_weak.c.obj
 .debug_info    0x00000000      0x924 examples/dfu/CMakeFiles/dfu_nrf52832_xxAA_s132_6.0.0.dir/__/nrf_mesh_weak.c.obj
 .debug_abbrev  0x00000000      0x1ae examples/dfu/CMakeFiles/dfu_nrf52832_xxAA_s132_6.0.0.dir/__/nrf_mesh_weak.c.obj
 .debug_aranges
                0x00000000       0x28 examples/dfu/CMakeFiles/dfu_nrf52832_xxAA_s132_6.0.0.dir/__/nrf_mesh_weak.c.obj
 .debug_ranges  0x00000000       0x18 examples/dfu/CMakeFiles/dfu_nrf52832_xxAA_s132_6.0.0.dir/__/nrf_mesh_weak.c.obj
 .debug_line    0x00000000      0x1ee examples/dfu/CMakeFiles/dfu_nrf52832_xxAA_s132_6.0.0.dir/__/nrf_mesh_weak.c.obj
 .debug_str     0x00000000      0x61c examples/dfu/CMakeFiles/dfu_nrf52832_xxAA_s132_6.0.0.dir/__/nrf_mesh_weak.c.obj
 .comment       0x00000000       0x80 examples/dfu/CMakeFiles/dfu_nrf52832_xxAA_s132_6.0.0.dir/__/nrf_mesh_weak.c.obj
 .debug_frame   0x00000000       0x30 examples/dfu/CMakeFiles/dfu_nrf52832_xxAA_s132_6.0.0.dir/__/nrf_mesh_weak.c.obj
 .ARM.attributes
                0x00000000       0x39 examples/dfu/CMakeFiles/dfu_nrf52832_xxAA_s132_6.0.0.dir/__/nrf_mesh_weak.c.obj
 .text          0x00000000        0x0 examples/dfu/CMakeFiles/dfu_nrf52832_xxAA_s132_6.0.0.dir/__/common/src/app_error_weak.c.obj
 .data          0x00000000        0x0 examples/dfu/CMakeFiles/dfu_nrf52832_xxAA_s132_6.0.0.dir/__/common/src/app_error_weak.c.obj
 .bss           0x00000000        0x0 examples/dfu/CMakeFiles/dfu_nrf52832_xxAA_s132_6.0.0.dir/__/common/src/app_error_weak.c.obj
 .text          0x00000000        0x0 examples/dfu/CMakeFiles/dfu_nrf52832_xxAA_s132_6.0.0.dir/__/common/src/assertion_handler_weak.c.obj
 .data          0x00000000        0x0 examples/dfu/CMakeFiles/dfu_nrf52832_xxAA_s132_6.0.0.dir/__/common/src/assertion_handler_weak.c.obj
 .bss           0x00000000        0x0 examples/dfu/CMakeFiles/dfu_nrf52832_xxAA_s132_6.0.0.dir/__/common/src/assertion_handler_weak.c.obj
 .text          0x00000000        0x0 examples/dfu/CMakeFiles/dfu_nrf52832_xxAA_s132_6.0.0.dir/__/__/mesh/core/src/internal_event.c.obj
 .data          0x00000000        0x0 examples/dfu/CMakeFiles/dfu_nrf52832_xxAA_s132_6.0.0.dir/__/__/mesh/core/src/internal_event.c.obj
 .bss           0x00000000        0x0 examples/dfu/CMakeFiles/dfu_nrf52832_xxAA_s132_6.0.0.dir/__/__/mesh/core/src/internal_event.c.obj
 .debug_info    0x00000000      0x8f2 examples/dfu/CMakeFiles/dfu_nrf52832_xxAA_s132_6.0.0.dir/__/__/mesh/core/src/internal_event.c.obj
 .debug_abbrev  0x00000000      0x192 examples/dfu/CMakeFiles/dfu_nrf52832_xxAA_s132_6.0.0.dir/__/__/mesh/core/src/internal_event.c.obj
 .debug_aranges
                0x00000000       0x18 examples/dfu/CMakeFiles/dfu_nrf52832_xxAA_s132_6.0.0.dir/__/__/mesh/core/src/internal_event.c.obj
 .debug_line    0x00000000      0x1af examples/dfu/CMakeFiles/dfu_nrf52832_xxAA_s132_6.0.0.dir/__/__/mesh/core/src/internal_event.c.obj
 .debug_str     0x00000000      0x602 examples/dfu/CMakeFiles/dfu_nrf52832_xxAA_s132_6.0.0.dir/__/__/mesh/core/src/internal_event.c.obj
 .comment       0x00000000       0x80 examples/dfu/CMakeFiles/dfu_nrf52832_xxAA_s132_6.0.0.dir/__/__/mesh/core/src/internal_event.c.obj
 .ARM.attributes
                0x00000000       0x39 examples/dfu/CMakeFiles/dfu_nrf52832_xxAA_s132_6.0.0.dir/__/__/mesh/core/src/internal_event.c.obj
 .text          0x00000000        0x0 examples/dfu/CMakeFiles/dfu_nrf52832_xxAA_s132_6.0.0.dir/__/__/mesh/core/src/nrf_mesh_configure.c.obj
 .data          0x00000000        0x0 examples/dfu/CMakeFiles/dfu_nrf52832_xxAA_s132_6.0.0.dir/__/__/mesh/core/src/nrf_mesh_configure.c.obj
 .bss           0x00000000        0x0 examples/dfu/CMakeFiles/dfu_nrf52832_xxAA_s132_6.0.0.dir/__/__/mesh/core/src/nrf_mesh_configure.c.obj
 .text          0x00000000        0x0 examples/dfu/CMakeFiles/dfu_nrf52832_xxAA_s132_6.0.0.dir/__/__/mesh/core/src/aes.c.obj
 .data          0x00000000        0x0 examples/dfu/CMakeFiles/dfu_nrf52832_xxAA_s132_6.0.0.dir/__/__/mesh/core/src/aes.c.obj
 .bss           0x00000000        0x0 examples/dfu/CMakeFiles/dfu_nrf52832_xxAA_s132_6.0.0.dir/__/__/mesh/core/src/aes.c.obj
 .text          0x00000000        0x0 examples/dfu/CMakeFiles/dfu_nrf52832_xxAA_s132_6.0.0.dir/__/__/mesh/core/src/msg_cache.c.obj
 .data          0x00000000        0x0 examples/dfu/CMakeFiles/dfu_nrf52832_xxAA_s132_6.0.0.dir/__/__/mesh/core/src/msg_cache.c.obj
 .bss           0x00000000        0x0 examples/dfu/CMakeFiles/dfu_nrf52832_xxAA_s132_6.0.0.dir/__/__/mesh/core/src/msg_cache.c.obj
 .text.msg_cache_clear
                0x00000000       0x18 examples/dfu/CMakeFiles/dfu_nrf52832_xxAA_s132_6.0.0.dir/__/__/mesh/core/src/msg_cache.c.obj
 .text          0x00000000        0x0 examples/dfu/CMakeFiles/dfu_nrf52832_xxAA_s132_6.0.0.dir/__/__/mesh/core/src/transport.c.obj
 .data          0x00000000        0x0 examples/dfu/CMakeFiles/dfu_nrf52832_xxAA_s132_6.0.0.dir/__/__/mesh/core/src/transport.c.obj
 .bss           0x00000000        0x0 examples/dfu/CMakeFiles/dfu_nrf52832_xxAA_s132_6.0.0.dir/__/__/mesh/core/src/transport.c.obj
 .text.transport_sar_mem_funcs_set
                0x00000000       0x44 examples/dfu/CMakeFiles/dfu_nrf52832_xxAA_s132_6.0.0.dir/__/__/mesh/core/src/transport.c.obj
 .text          0x00000000        0x0 examples/dfu/CMakeFiles/dfu_nrf52832_xxAA_s132_6.0.0.dir/__/__/mesh/core/src/event.c.obj
 .data          0x00000000        0x0 examples/dfu/CMakeFiles/dfu_nrf52832_xxAA_s132_6.0.0.dir/__/__/mesh/core/src/event.c.obj
 .bss           0x00000000        0x0 examples/dfu/CMakeFiles/dfu_nrf52832_xxAA_s132_6.0.0.dir/__/__/mesh/core/src/event.c.obj
 .text          0x00000000        0x0 examples/dfu/CMakeFiles/dfu_nrf52832_xxAA_s132_6.0.0.dir/__/__/mesh/core/src/packet_buffer.c.obj
 .data          0x00000000        0x0 examples/dfu/CMakeFiles/dfu_nrf52832_xxAA_s132_6.0.0.dir/__/__/mesh/core/src/packet_buffer.c.obj
 .bss           0x00000000        0x0 examples/dfu/CMakeFiles/dfu_nrf52832_xxAA_s132_6.0.0.dir/__/__/mesh/core/src/packet_buffer.c.obj
 .text          0x00000000        0x0 examples/dfu/CMakeFiles/dfu_nrf52832_xxAA_s132_6.0.0.dir/__/__/mesh/core/src/flash_manager_defrag.c.obj
 .data          0x00000000        0x0 examples/dfu/CMakeFiles/dfu_nrf52832_xxAA_s132_6.0.0.dir/__/__/mesh/core/src/flash_manager_defrag.c.obj
 .bss           0x00000000        0x0 examples/dfu/CMakeFiles/dfu_nrf52832_xxAA_s132_6.0.0.dir/__/__/mesh/core/src/flash_manager_defrag.c.obj
 .text.flash_manager_defragging
                0x00000000       0x38 examples/dfu/CMakeFiles/dfu_nrf52832_xxAA_s132_6.0.0.dir/__/__/mesh/core/src/flash_manager_defrag.c.obj
 .text          0x00000000        0x0 examples/dfu/CMakeFiles/dfu_nrf52832_xxAA_s132_6.0.0.dir/__/__/mesh/core/src/fifo.c.obj
 .data          0x00000000        0x0 examples/dfu/CMakeFiles/dfu_nrf52832_xxAA_s132_6.0.0.dir/__/__/mesh/core/src/fifo.c.obj
 .bss           0x00000000        0x0 examples/dfu/CMakeFiles/dfu_nrf52832_xxAA_s132_6.0.0.dir/__/__/mesh/core/src/fifo.c.obj
 .text.fifo_peek_at
                0x00000000       0x50 examples/dfu/CMakeFiles/dfu_nrf52832_xxAA_s132_6.0.0.dir/__/__/mesh/core/src/fifo.c.obj
 .text.fifo_peek
                0x00000000        0x6 examples/dfu/CMakeFiles/dfu_nrf52832_xxAA_s132_6.0.0.dir/__/__/mesh/core/src/fifo.c.obj
 .text.fifo_flush
                0x00000000        0x6 examples/dfu/CMakeFiles/dfu_nrf52832_xxAA_s132_6.0.0.dir/__/__/mesh/core/src/fifo.c.obj
 .text.fifo_get_len
                0x00000000        0x8 examples/dfu/CMakeFiles/dfu_nrf52832_xxAA_s132_6.0.0.dir/__/__/mesh/core/src/fifo.c.obj
 .text.fifo_is_full
                0x00000000       0x10 examples/dfu/CMakeFiles/dfu_nrf52832_xxAA_s132_6.0.0.dir/__/__/mesh/core/src/fifo.c.obj
 .text.fifo_is_empty
                0x00000000        0xc examples/dfu/CMakeFiles/dfu_nrf52832_xxAA_s132_6.0.0.dir/__/__/mesh/core/src/fifo.c.obj
 .text          0x00000000        0x0 examples/dfu/CMakeFiles/dfu_nrf52832_xxAA_s132_6.0.0.dir/__/__/mesh/core/src/nrf_flash.c.obj
 .data          0x00000000        0x0 examples/dfu/CMakeFiles/dfu_nrf52832_xxAA_s132_6.0.0.dir/__/__/mesh/core/src/nrf_flash.c.obj
 .bss           0x00000000        0x0 examples/dfu/CMakeFiles/dfu_nrf52832_xxAA_s132_6.0.0.dir/__/__/mesh/core/src/nrf_flash.c.obj
 .text          0x00000000        0x0 examples/dfu/CMakeFiles/dfu_nrf52832_xxAA_s132_6.0.0.dir/__/__/mesh/core/src/packet_mgr.c.obj
 .data          0x00000000        0x0 examples/dfu/CMakeFiles/dfu_nrf52832_xxAA_s132_6.0.0.dir/__/__/mesh/core/src/packet_mgr.c.obj
 .bss           0x00000000        0x0 examples/dfu/CMakeFiles/dfu_nrf52832_xxAA_s132_6.0.0.dir/__/__/mesh/core/src/packet_mgr.c.obj
 .text.packet_mgr_alloc
                0x00000000      0x17c examples/dfu/CMakeFiles/dfu_nrf52832_xxAA_s132_6.0.0.dir/__/__/mesh/core/src/packet_mgr.c.obj
 .text.packet_mgr_free
                0x00000000       0x58 examples/dfu/CMakeFiles/dfu_nrf52832_xxAA_s132_6.0.0.dir/__/__/mesh/core/src/packet_mgr.c.obj
 .text.packet_mgr_get_free_space
                0x00000000       0x1c examples/dfu/CMakeFiles/dfu_nrf52832_xxAA_s132_6.0.0.dir/__/__/mesh/core/src/packet_mgr.c.obj
 .text.packet_mgr_refcount_get
                0x00000000        0x6 examples/dfu/CMakeFiles/dfu_nrf52832_xxAA_s132_6.0.0.dir/__/__/mesh/core/src/packet_mgr.c.obj
 .text.packet_mgr_size_get
                0x00000000        0x6 examples/dfu/CMakeFiles/dfu_nrf52832_xxAA_s132_6.0.0.dir/__/__/mesh/core/src/packet_mgr.c.obj
 .text          0x00000000        0x0 examples/dfu/CMakeFiles/dfu_nrf52832_xxAA_s132_6.0.0.dir/__/__/mesh/core/src/net_state.c.obj
 .data          0x00000000        0x0 examples/dfu/CMakeFiles/dfu_nrf52832_xxAA_s132_6.0.0.dir/__/__/mesh/core/src/net_state.c.obj
 .bss           0x00000000        0x0 examples/dfu/CMakeFiles/dfu_nrf52832_xxAA_s132_6.0.0.dir/__/__/mesh/core/src/net_state.c.obj
 .text.net_state_iv_update_test_mode_set
                0x00000000        0xc examples/dfu/CMakeFiles/dfu_nrf52832_xxAA_s132_6.0.0.dir/__/__/mesh/core/src/net_state.c.obj
 .text.net_state_test_mode_transition_run
                0x00000000       0x2c examples/dfu/CMakeFiles/dfu_nrf52832_xxAA_s132_6.0.0.dir/__/__/mesh/core/src/net_state.c.obj
 .text          0x00000000        0x0 examples/dfu/CMakeFiles/dfu_nrf52832_xxAA_s132_6.0.0.dir/__/__/mesh/core/src/mesh_flash.c.obj
 .data          0x00000000        0x0 examples/dfu/CMakeFiles/dfu_nrf52832_xxAA_s132_6.0.0.dir/__/__/mesh/core/src/mesh_flash.c.obj
 .bss           0x00000000        0x0 examples/dfu/CMakeFiles/dfu_nrf52832_xxAA_s132_6.0.0.dir/__/__/mesh/core/src/mesh_flash.c.obj
 .text.mesh_flash_op_available_slots
                0x00000000       0x2c examples/dfu/CMakeFiles/dfu_nrf52832_xxAA_s132_6.0.0.dir/__/__/mesh/core/src/mesh_flash.c.obj
 .text          0x00000000        0x0 examples/dfu/CMakeFiles/dfu_nrf52832_xxAA_s132_6.0.0.dir/__/__/mesh/core/src/nrf_mesh_utils.c.obj
 .data          0x00000000        0x0 examples/dfu/CMakeFiles/dfu_nrf52832_xxAA_s132_6.0.0.dir/__/__/mesh/core/src/nrf_mesh_utils.c.obj
 .bss           0x00000000        0x0 examples/dfu/CMakeFiles/dfu_nrf52832_xxAA_s132_6.0.0.dir/__/__/mesh/core/src/nrf_mesh_utils.c.obj
 .text.nrf_mesh_rand_get
                0x00000000       0x10 examples/dfu/CMakeFiles/dfu_nrf52832_xxAA_s132_6.0.0.dir/__/__/mesh/core/src/nrf_mesh_utils.c.obj
 .text.nrf_mesh_gap_address_type_get
                0x00000000       0x30 examples/dfu/CMakeFiles/dfu_nrf52832_xxAA_s132_6.0.0.dir/__/__/mesh/core/src/nrf_mesh_utils.c.obj
 .text          0x00000000        0x0 examples/dfu/CMakeFiles/dfu_nrf52832_xxAA_s132_6.0.0.dir/__/__/mesh/core/src/nrf_mesh.c.obj
 .data          0x00000000        0x0 examples/dfu/CMakeFiles/dfu_nrf52832_xxAA_s132_6.0.0.dir/__/__/mesh/core/src/nrf_mesh.c.obj
 .bss           0x00000000        0x0 examples/dfu/CMakeFiles/dfu_nrf52832_xxAA_s132_6.0.0.dir/__/__/mesh/core/src/nrf_mesh.c.obj
 .text.nrf_mesh_process
                0x00000000        0x4 examples/dfu/CMakeFiles/dfu_nrf52832_xxAA_s132_6.0.0.dir/__/__/mesh/core/src/nrf_mesh.c.obj
 .text.nrf_mesh_evt_handler_remove
                0x00000000        0x4 examples/dfu/CMakeFiles/dfu_nrf52832_xxAA_s132_6.0.0.dir/__/__/mesh/core/src/nrf_mesh.c.obj
 .text.nrf_mesh_rx_cb_set
                0x00000000        0xc examples/dfu/CMakeFiles/dfu_nrf52832_xxAA_s132_6.0.0.dir/__/__/mesh/core/src/nrf_mesh.c.obj
 .text.nrf_mesh_rx_cb_clear
                0x00000000        0xc examples/dfu/CMakeFiles/dfu_nrf52832_xxAA_s132_6.0.0.dir/__/__/mesh/core/src/nrf_mesh.c.obj
 .text          0x00000000        0x0 examples/dfu/CMakeFiles/dfu_nrf52832_xxAA_s132_6.0.0.dir/__/__/mesh/core/src/queue.c.obj
 .data          0x00000000        0x0 examples/dfu/CMakeFiles/dfu_nrf52832_xxAA_s132_6.0.0.dir/__/__/mesh/core/src/queue.c.obj
 .bss           0x00000000        0x0 examples/dfu/CMakeFiles/dfu_nrf52832_xxAA_s132_6.0.0.dir/__/__/mesh/core/src/queue.c.obj
 .text          0x00000000        0x0 examples/dfu/CMakeFiles/dfu_nrf52832_xxAA_s132_6.0.0.dir/__/__/mesh/core/src/hal.c.obj
 .data          0x00000000        0x0 examples/dfu/CMakeFiles/dfu_nrf52832_xxAA_s132_6.0.0.dir/__/__/mesh/core/src/hal.c.obj
 .bss           0x00000000        0x0 examples/dfu/CMakeFiles/dfu_nrf52832_xxAA_s132_6.0.0.dir/__/__/mesh/core/src/hal.c.obj
 .text          0x00000000        0x0 examples/dfu/CMakeFiles/dfu_nrf52832_xxAA_s132_6.0.0.dir/__/__/mesh/core/src/aes_cmac.c.obj
 .data          0x00000000        0x0 examples/dfu/CMakeFiles/dfu_nrf52832_xxAA_s132_6.0.0.dir/__/__/mesh/core/src/aes_cmac.c.obj
 .bss           0x00000000        0x0 examples/dfu/CMakeFiles/dfu_nrf52832_xxAA_s132_6.0.0.dir/__/__/mesh/core/src/aes_cmac.c.obj
 .text          0x00000000        0x0 examples/dfu/CMakeFiles/dfu_nrf52832_xxAA_s132_6.0.0.dir/__/__/mesh/core/src/timer_scheduler.c.obj
 .data          0x00000000        0x0 examples/dfu/CMakeFiles/dfu_nrf52832_xxAA_s132_6.0.0.dir/__/__/mesh/core/src/timer_scheduler.c.obj
 .bss           0x00000000        0x0 examples/dfu/CMakeFiles/dfu_nrf52832_xxAA_s132_6.0.0.dir/__/__/mesh/core/src/timer_scheduler.c.obj
 .text          0x00000000        0x0 examples/dfu/CMakeFiles/dfu_nrf52832_xxAA_s132_6.0.0.dir/__/__/mesh/core/src/timer.c.obj
 .data          0x00000000        0x0 examples/dfu/CMakeFiles/dfu_nrf52832_xxAA_s132_6.0.0.dir/__/__/mesh/core/src/timer.c.obj
 .bss           0x00000000        0x0 examples/dfu/CMakeFiles/dfu_nrf52832_xxAA_s132_6.0.0.dir/__/__/mesh/core/src/timer.c.obj
 .text.timer_order_cb_ppi
                0x00000000       0xc4 examples/dfu/CMakeFiles/dfu_nrf52832_xxAA_s132_6.0.0.dir/__/__/mesh/core/src/timer.c.obj
 .text.timer_order_ppi
                0x00000000       0xc0 examples/dfu/CMakeFiles/dfu_nrf52832_xxAA_s132_6.0.0.dir/__/__/mesh/core/src/timer.c.obj
 .text.timer_abort
                0x00000000       0x78 examples/dfu/CMakeFiles/dfu_nrf52832_xxAA_s132_6.0.0.dir/__/__/mesh/core/src/timer.c.obj
 .text          0x00000000        0x0 examples/dfu/CMakeFiles/dfu_nrf52832_xxAA_s132_6.0.0.dir/__/__/mesh/core/src/ticker.c.obj
 .data          0x00000000        0x0 examples/dfu/CMakeFiles/dfu_nrf52832_xxAA_s132_6.0.0.dir/__/__/mesh/core/src/ticker.c.obj
 .bss           0x00000000        0x0 examples/dfu/CMakeFiles/dfu_nrf52832_xxAA_s132_6.0.0.dir/__/__/mesh/core/src/ticker.c.obj
 .text.ticker_get
                0x00000000        0xc examples/dfu/CMakeFiles/dfu_nrf52832_xxAA_s132_6.0.0.dir/__/__/mesh/core/src/ticker.c.obj
 .text          0x00000000        0x0 examples/dfu/CMakeFiles/dfu_nrf52832_xxAA_s132_6.0.0.dir/__/__/mesh/core/src/rand.c.obj
 .data          0x00000000        0x0 examples/dfu/CMakeFiles/dfu_nrf52832_xxAA_s132_6.0.0.dir/__/__/mesh/core/src/rand.c.obj
 .bss           0x00000000        0x0 examples/dfu/CMakeFiles/dfu_nrf52832_xxAA_s132_6.0.0.dir/__/__/mesh/core/src/rand.c.obj
 .text          0x00000000        0x0 examples/dfu/CMakeFiles/dfu_nrf52832_xxAA_s132_6.0.0.dir/__/__/mesh/core/src/nrf_mesh_opt.c.obj
 .data          0x00000000        0x0 examples/dfu/CMakeFiles/dfu_nrf52832_xxAA_s132_6.0.0.dir/__/__/mesh/core/src/nrf_mesh_opt.c.obj
 .bss           0x00000000        0x0 examples/dfu/CMakeFiles/dfu_nrf52832_xxAA_s132_6.0.0.dir/__/__/mesh/core/src/nrf_mesh_opt.c.obj
 .text          0x00000000        0x0 examples/dfu/CMakeFiles/dfu_nrf52832_xxAA_s132_6.0.0.dir/__/__/mesh/core/src/timeslot.c.obj
 .data          0x00000000        0x0 examples/dfu/CMakeFiles/dfu_nrf52832_xxAA_s132_6.0.0.dir/__/__/mesh/core/src/timeslot.c.obj
 .bss           0x00000000        0x0 examples/dfu/CMakeFiles/dfu_nrf52832_xxAA_s132_6.0.0.dir/__/__/mesh/core/src/timeslot.c.obj
 .text.timeslot_end_time_get
                0x00000000       0x10 examples/dfu/CMakeFiles/dfu_nrf52832_xxAA_s132_6.0.0.dir/__/__/mesh/core/src/timeslot.c.obj
 .text.timeslot_is_in_ts
                0x00000000        0xc examples/dfu/CMakeFiles/dfu_nrf52832_xxAA_s132_6.0.0.dir/__/__/mesh/core/src/timeslot.c.obj
 .text.timeslot_restart
                0x00000000       0x10 examples/dfu/CMakeFiles/dfu_nrf52832_xxAA_s132_6.0.0.dir/__/__/mesh/core/src/timeslot.c.obj
 .text          0x00000000        0x0 examples/dfu/CMakeFiles/dfu_nrf52832_xxAA_s132_6.0.0.dir/__/__/mesh/core/src/bearer_event.c.obj
 .data          0x00000000        0x0 examples/dfu/CMakeFiles/dfu_nrf52832_xxAA_s132_6.0.0.dir/__/__/mesh/core/src/bearer_event.c.obj
 .bss           0x00000000        0x0 examples/dfu/CMakeFiles/dfu_nrf52832_xxAA_s132_6.0.0.dir/__/__/mesh/core/src/bearer_event.c.obj
 .text.bearer_event_timer_sch_post
                0x00000000       0x26 examples/dfu/CMakeFiles/dfu_nrf52832_xxAA_s132_6.0.0.dir/__/__/mesh/core/src/bearer_event.c.obj
 .text.bearer_event_in_correct_irq_priority
                0x00000000       0x48 examples/dfu/CMakeFiles/dfu_nrf52832_xxAA_s132_6.0.0.dir/__/__/mesh/core/src/bearer_event.c.obj
 .text          0x00000000        0x0 examples/dfu/CMakeFiles/dfu_nrf52832_xxAA_s132_6.0.0.dir/__/__/mesh/core/src/enc.c.obj
 .data          0x00000000        0x0 examples/dfu/CMakeFiles/dfu_nrf52832_xxAA_s132_6.0.0.dir/__/__/mesh/core/src/enc.c.obj
 .bss           0x00000000        0x0 examples/dfu/CMakeFiles/dfu_nrf52832_xxAA_s132_6.0.0.dir/__/__/mesh/core/src/enc.c.obj
 .text.enc_key_generate
                0x00000000        0x6 examples/dfu/CMakeFiles/dfu_nrf52832_xxAA_s132_6.0.0.dir/__/__/mesh/core/src/enc.c.obj
 .text          0x00000000        0x0 examples/dfu/CMakeFiles/dfu_nrf52832_xxAA_s132_6.0.0.dir/__/__/mesh/core/src/network.c.obj
 .data          0x00000000        0x0 examples/dfu/CMakeFiles/dfu_nrf52832_xxAA_s132_6.0.0.dir/__/__/mesh/core/src/network.c.obj
 .bss           0x00000000        0x0 examples/dfu/CMakeFiles/dfu_nrf52832_xxAA_s132_6.0.0.dir/__/__/mesh/core/src/network.c.obj
 .text.network_packet_discard
                0x00000000       0x1e examples/dfu/CMakeFiles/dfu_nrf52832_xxAA_s132_6.0.0.dir/__/__/mesh/core/src/network.c.obj
 .text          0x00000000        0x0 examples/dfu/CMakeFiles/dfu_nrf52832_xxAA_s132_6.0.0.dir/__/__/mesh/core/src/net_packet.c.obj
 .data          0x00000000        0x0 examples/dfu/CMakeFiles/dfu_nrf52832_xxAA_s132_6.0.0.dir/__/__/mesh/core/src/net_packet.c.obj
 .bss           0x00000000        0x0 examples/dfu/CMakeFiles/dfu_nrf52832_xxAA_s132_6.0.0.dir/__/__/mesh/core/src/net_packet.c.obj
 .text.net_packet_enc_start_get
                0x00000000        0x4 examples/dfu/CMakeFiles/dfu_nrf52832_xxAA_s132_6.0.0.dir/__/__/mesh/core/src/net_packet.c.obj
 .text.net_packet_payload_get
                0x00000000        0x4 examples/dfu/CMakeFiles/dfu_nrf52832_xxAA_s132_6.0.0.dir/__/__/mesh/core/src/net_packet.c.obj
 .text          0x00000000        0x0 examples/dfu/CMakeFiles/dfu_nrf52832_xxAA_s132_6.0.0.dir/__/__/mesh/core/src/msqueue.c.obj
 .data          0x00000000        0x0 examples/dfu/CMakeFiles/dfu_nrf52832_xxAA_s132_6.0.0.dir/__/__/mesh/core/src/msqueue.c.obj
 .bss           0x00000000        0x0 examples/dfu/CMakeFiles/dfu_nrf52832_xxAA_s132_6.0.0.dir/__/__/mesh/core/src/msqueue.c.obj
 .text          0x00000000        0x0 examples/dfu/CMakeFiles/dfu_nrf52832_xxAA_s132_6.0.0.dir/__/__/mesh/core/src/nrf_mesh_keygen.c.obj
 .data          0x00000000        0x0 examples/dfu/CMakeFiles/dfu_nrf52832_xxAA_s132_6.0.0.dir/__/__/mesh/core/src/nrf_mesh_keygen.c.obj
 .bss           0x00000000        0x0 examples/dfu/CMakeFiles/dfu_nrf52832_xxAA_s132_6.0.0.dir/__/__/mesh/core/src/nrf_mesh_keygen.c.obj
 .text.nrf_mesh_keygen_identitykey
                0x00000000       0x4c examples/dfu/CMakeFiles/dfu_nrf52832_xxAA_s132_6.0.0.dir/__/__/mesh/core/src/nrf_mesh_keygen.c.obj
 .text          0x00000000        0x0 examples/dfu/CMakeFiles/dfu_nrf52832_xxAA_s132_6.0.0.dir/__/__/mesh/core/src/cache.c.obj
 .data          0x00000000        0x0 examples/dfu/CMakeFiles/dfu_nrf52832_xxAA_s132_6.0.0.dir/__/__/mesh/core/src/cache.c.obj
 .bss           0x00000000        0x0 examples/dfu/CMakeFiles/dfu_nrf52832_xxAA_s132_6.0.0.dir/__/__/mesh/core/src/cache.c.obj
 .text.erase_at
                0x00000000       0x1c examples/dfu/CMakeFiles/dfu_nrf52832_xxAA_s132_6.0.0.dir/__/__/mesh/core/src/cache.c.obj
 .text.cache_init
                0x00000000       0x1e examples/dfu/CMakeFiles/dfu_nrf52832_xxAA_s132_6.0.0.dir/__/__/mesh/core/src/cache.c.obj
 .text.cache_has_elem
                0x00000000       0x3e examples/dfu/CMakeFiles/dfu_nrf52832_xxAA_s132_6.0.0.dir/__/__/mesh/core/src/cache.c.obj
 .text.cache_put
                0x00000000       0x2a examples/dfu/CMakeFiles/dfu_nrf52832_xxAA_s132_6.0.0.dir/__/__/mesh/core/src/cache.c.obj
 .text.cache_erase_elem
                0x00000000       0x4c examples/dfu/CMakeFiles/dfu_nrf52832_xxAA_s132_6.0.0.dir/__/__/mesh/core/src/cache.c.obj
 .debug_info    0x00000000      0xbe1 examples/dfu/CMakeFiles/dfu_nrf52832_xxAA_s132_6.0.0.dir/__/__/mesh/core/src/cache.c.obj
 .debug_abbrev  0x00000000      0x2a3 examples/dfu/CMakeFiles/dfu_nrf52832_xxAA_s132_6.0.0.dir/__/__/mesh/core/src/cache.c.obj
 .debug_loc     0x00000000      0x29b examples/dfu/CMakeFiles/dfu_nrf52832_xxAA_s132_6.0.0.dir/__/__/mesh/core/src/cache.c.obj
 .debug_aranges
                0x00000000       0x40 examples/dfu/CMakeFiles/dfu_nrf52832_xxAA_s132_6.0.0.dir/__/__/mesh/core/src/cache.c.obj
 .debug_ranges  0x00000000       0x80 examples/dfu/CMakeFiles/dfu_nrf52832_xxAA_s132_6.0.0.dir/__/__/mesh/core/src/cache.c.obj
 .debug_line    0x00000000      0x21e examples/dfu/CMakeFiles/dfu_nrf52832_xxAA_s132_6.0.0.dir/__/__/mesh/core/src/cache.c.obj
 .debug_str     0x00000000      0x6af examples/dfu/CMakeFiles/dfu_nrf52832_xxAA_s132_6.0.0.dir/__/__/mesh/core/src/cache.c.obj
 .comment       0x00000000       0x80 examples/dfu/CMakeFiles/dfu_nrf52832_xxAA_s132_6.0.0.dir/__/__/mesh/core/src/cache.c.obj
 .debug_frame   0x00000000       0xb0 examples/dfu/CMakeFiles/dfu_nrf52832_xxAA_s132_6.0.0.dir/__/__/mesh/core/src/cache.c.obj
 .ARM.attributes
                0x00000000       0x39 examples/dfu/CMakeFiles/dfu_nrf52832_xxAA_s132_6.0.0.dir/__/__/mesh/core/src/cache.c.obj
 .text          0x00000000        0x0 examples/dfu/CMakeFiles/dfu_nrf52832_xxAA_s132_6.0.0.dir/__/__/mesh/core/src/uri.c.obj
 .data          0x00000000        0x0 examples/dfu/CMakeFiles/dfu_nrf52832_xxAA_s132_6.0.0.dir/__/__/mesh/core/src/uri.c.obj
 .bss           0x00000000        0x0 examples/dfu/CMakeFiles/dfu_nrf52832_xxAA_s132_6.0.0.dir/__/__/mesh/core/src/uri.c.obj
 .text.uri_data_parse
                0x00000000       0x78 examples/dfu/CMakeFiles/dfu_nrf52832_xxAA_s132_6.0.0.dir/__/__/mesh/core/src/uri.c.obj
 .text.uri_scheme_name_code_point
                0x00000000       0x5c examples/dfu/CMakeFiles/dfu_nrf52832_xxAA_s132_6.0.0.dir/__/__/mesh/core/src/uri.c.obj
 .text.uri_data_generate
                0x00000000       0x52 examples/dfu/CMakeFiles/dfu_nrf52832_xxAA_s132_6.0.0.dir/__/__/mesh/core/src/uri.c.obj
 .text.uri_scheme_name_string
                0x00000000       0x14 examples/dfu/CMakeFiles/dfu_nrf52832_xxAA_s132_6.0.0.dir/__/__/mesh/core/src/uri.c.obj
 .rodata.m_code_point_strings
                0x00000000      0x2ec examples/dfu/CMakeFiles/dfu_nrf52832_xxAA_s132_6.0.0.dir/__/__/mesh/core/src/uri.c.obj
 .rodata.str1.1
                0x00000000      0x566 examples/dfu/CMakeFiles/dfu_nrf52832_xxAA_s132_6.0.0.dir/__/__/mesh/core/src/uri.c.obj
 .debug_info    0x00000000      0xcac examples/dfu/CMakeFiles/dfu_nrf52832_xxAA_s132_6.0.0.dir/__/__/mesh/core/src/uri.c.obj
 .debug_abbrev  0x00000000      0x2e4 examples/dfu/CMakeFiles/dfu_nrf52832_xxAA_s132_6.0.0.dir/__/__/mesh/core/src/uri.c.obj
 .debug_loc     0x00000000      0x253 examples/dfu/CMakeFiles/dfu_nrf52832_xxAA_s132_6.0.0.dir/__/__/mesh/core/src/uri.c.obj
 .debug_aranges
                0x00000000       0x38 examples/dfu/CMakeFiles/dfu_nrf52832_xxAA_s132_6.0.0.dir/__/__/mesh/core/src/uri.c.obj
 .debug_ranges  0x00000000       0x48 examples/dfu/CMakeFiles/dfu_nrf52832_xxAA_s132_6.0.0.dir/__/__/mesh/core/src/uri.c.obj
 .debug_line    0x00000000      0x2ba examples/dfu/CMakeFiles/dfu_nrf52832_xxAA_s132_6.0.0.dir/__/__/mesh/core/src/uri.c.obj
 .debug_str     0x00000000      0x6dd examples/dfu/CMakeFiles/dfu_nrf52832_xxAA_s132_6.0.0.dir/__/__/mesh/core/src/uri.c.obj
 .comment       0x00000000       0x80 examples/dfu/CMakeFiles/dfu_nrf52832_xxAA_s132_6.0.0.dir/__/__/mesh/core/src/uri.c.obj
 .debug_frame   0x00000000       0x84 examples/dfu/CMakeFiles/dfu_nrf52832_xxAA_s132_6.0.0.dir/__/__/mesh/core/src/uri.c.obj
 .ARM.attributes
                0x00000000       0x39 examples/dfu/CMakeFiles/dfu_nrf52832_xxAA_s132_6.0.0.dir/__/__/mesh/core/src/uri.c.obj
 .text          0x00000000        0x0 examples/dfu/CMakeFiles/dfu_nrf52832_xxAA_s132_6.0.0.dir/__/__/mesh/core/src/list.c.obj
 .data          0x00000000        0x0 examples/dfu/CMakeFiles/dfu_nrf52832_xxAA_s132_6.0.0.dir/__/__/mesh/core/src/list.c.obj
 .bss           0x00000000        0x0 examples/dfu/CMakeFiles/dfu_nrf52832_xxAA_s132_6.0.0.dir/__/__/mesh/core/src/list.c.obj
 .text.list_size_get
                0x00000000       0x12 examples/dfu/CMakeFiles/dfu_nrf52832_xxAA_s132_6.0.0.dir/__/__/mesh/core/src/list.c.obj
 .text.list_sorted_add
                0x00000000       0x6c examples/dfu/CMakeFiles/dfu_nrf52832_xxAA_s132_6.0.0.dir/__/__/mesh/core/src/list.c.obj
 .text          0x00000000        0x0 examples/dfu/CMakeFiles/dfu_nrf52832_xxAA_s132_6.0.0.dir/__/__/mesh/core/src/log.c.obj
 .data          0x00000000        0x0 examples/dfu/CMakeFiles/dfu_nrf52832_xxAA_s132_6.0.0.dir/__/__/mesh/core/src/log.c.obj
 .bss           0x00000000        0x0 examples/dfu/CMakeFiles/dfu_nrf52832_xxAA_s132_6.0.0.dir/__/__/mesh/core/src/log.c.obj
 .text.log_callback_logview
                0x00000000       0x38 examples/dfu/CMakeFiles/dfu_nrf52832_xxAA_s132_6.0.0.dir/__/__/mesh/core/src/log.c.obj
 .text.log_set_callback
                0x00000000        0xc examples/dfu/CMakeFiles/dfu_nrf52832_xxAA_s132_6.0.0.dir/__/__/mesh/core/src/log.c.obj
 .rodata.log_callback_logview.str1.1
                0x00000000        0xf examples/dfu/CMakeFiles/dfu_nrf52832_xxAA_s132_6.0.0.dir/__/__/mesh/core/src/log.c.obj
 .text          0x00000000        0x0 examples/dfu/CMakeFiles/dfu_nrf52832_xxAA_s132_6.0.0.dir/__/__/mesh/core/src/flash_manager.c.obj
 .data          0x00000000        0x0 examples/dfu/CMakeFiles/dfu_nrf52832_xxAA_s132_6.0.0.dir/__/__/mesh/core/src/flash_manager.c.obj
 .bss           0x00000000        0x0 examples/dfu/CMakeFiles/dfu_nrf52832_xxAA_s132_6.0.0.dir/__/__/mesh/core/src/flash_manager.c.obj
 .text.flash_manager_entry_count_get
                0x00000000       0x50 examples/dfu/CMakeFiles/dfu_nrf52832_xxAA_s132_6.0.0.dir/__/__/mesh/core/src/flash_manager.c.obj
 .text.flash_manager_entry_release
                0x00000000       0x2c examples/dfu/CMakeFiles/dfu_nrf52832_xxAA_s132_6.0.0.dir/__/__/mesh/core/src/flash_manager.c.obj
 .text          0x00000000        0x0 examples/dfu/CMakeFiles/dfu_nrf52832_xxAA_s132_6.0.0.dir/__/__/mesh/core/src/ccm_soft.c.obj
 .data          0x00000000        0x0 examples/dfu/CMakeFiles/dfu_nrf52832_xxAA_s132_6.0.0.dir/__/__/mesh/core/src/ccm_soft.c.obj
 .bss           0x00000000        0x0 examples/dfu/CMakeFiles/dfu_nrf52832_xxAA_s132_6.0.0.dir/__/__/mesh/core/src/ccm_soft.c.obj
 .text          0x00000000        0x0 examples/dfu/CMakeFiles/dfu_nrf52832_xxAA_s132_6.0.0.dir/__/__/mesh/core/src/toolchain.c.obj
 .data          0x00000000        0x0 examples/dfu/CMakeFiles/dfu_nrf52832_xxAA_s132_6.0.0.dir/__/__/mesh/core/src/toolchain.c.obj
 .bss           0x00000000        0x0 examples/dfu/CMakeFiles/dfu_nrf52832_xxAA_s132_6.0.0.dir/__/__/mesh/core/src/toolchain.c.obj
 .debug_info    0x00000000       0xb3 examples/dfu/CMakeFiles/dfu_nrf52832_xxAA_s132_6.0.0.dir/__/__/mesh/core/src/toolchain.c.obj
 .debug_abbrev  0x00000000       0x5c examples/dfu/CMakeFiles/dfu_nrf52832_xxAA_s132_6.0.0.dir/__/__/mesh/core/src/toolchain.c.obj
 .debug_aranges
                0x00000000       0x18 examples/dfu/CMakeFiles/dfu_nrf52832_xxAA_s132_6.0.0.dir/__/__/mesh/core/src/toolchain.c.obj
 .debug_line    0x00000000      0x130 examples/dfu/CMakeFiles/dfu_nrf52832_xxAA_s132_6.0.0.dir/__/__/mesh/core/src/toolchain.c.obj
 .debug_str     0x00000000      0x1fa examples/dfu/CMakeFiles/dfu_nrf52832_xxAA_s132_6.0.0.dir/__/__/mesh/core/src/toolchain.c.obj
 .comment       0x00000000       0x80 examples/dfu/CMakeFiles/dfu_nrf52832_xxAA_s132_6.0.0.dir/__/__/mesh/core/src/toolchain.c.obj
 .ARM.attributes
                0x00000000       0x39 examples/dfu/CMakeFiles/dfu_nrf52832_xxAA_s132_6.0.0.dir/__/__/mesh/core/src/toolchain.c.obj
 .text          0x00000000        0x0 examples/dfu/CMakeFiles/dfu_nrf52832_xxAA_s132_6.0.0.dir/__/__/mesh/core/src/replay_cache.c.obj
 .data          0x00000000        0x0 examples/dfu/CMakeFiles/dfu_nrf52832_xxAA_s132_6.0.0.dir/__/__/mesh/core/src/replay_cache.c.obj
 .bss           0x00000000        0x0 examples/dfu/CMakeFiles/dfu_nrf52832_xxAA_s132_6.0.0.dir/__/__/mesh/core/src/replay_cache.c.obj
 .text.replay_cache_on_iv_update
                0x00000000       0x24 examples/dfu/CMakeFiles/dfu_nrf52832_xxAA_s132_6.0.0.dir/__/__/mesh/core/src/replay_cache.c.obj
 .text          0x00000000        0x0 examples/dfu/CMakeFiles/dfu_nrf52832_xxAA_s132_6.0.0.dir/__/__/mesh/core/src/beacon.c.obj
 .data          0x00000000        0x0 examples/dfu/CMakeFiles/dfu_nrf52832_xxAA_s132_6.0.0.dir/__/__/mesh/core/src/beacon.c.obj
 .bss           0x00000000        0x0 examples/dfu/CMakeFiles/dfu_nrf52832_xxAA_s132_6.0.0.dir/__/__/mesh/core/src/beacon.c.obj
 .text          0x00000000        0x0 examples/dfu/CMakeFiles/dfu_nrf52832_xxAA_s132_6.0.0.dir/__/__/mesh/core/src/flash_manager_internal.c.obj
 .data          0x00000000        0x0 examples/dfu/CMakeFiles/dfu_nrf52832_xxAA_s132_6.0.0.dir/__/__/mesh/core/src/flash_manager_internal.c.obj
 .bss           0x00000000        0x0 examples/dfu/CMakeFiles/dfu_nrf52832_xxAA_s132_6.0.0.dir/__/__/mesh/core/src/flash_manager_internal.c.obj
 .text          0x00000000        0x0 examples/dfu/CMakeFiles/dfu_nrf52832_xxAA_s132_6.0.0.dir/__/__/mesh/core/src/core_tx.c.obj
 .data          0x00000000        0x0 examples/dfu/CMakeFiles/dfu_nrf52832_xxAA_s132_6.0.0.dir/__/__/mesh/core/src/core_tx.c.obj
 .bss           0x00000000        0x0 examples/dfu/CMakeFiles/dfu_nrf52832_xxAA_s132_6.0.0.dir/__/__/mesh/core/src/core_tx.c.obj
 .text.core_tx_bearer_type_get
                0x00000000       0x1c examples/dfu/CMakeFiles/dfu_nrf52832_xxAA_s132_6.0.0.dir/__/__/mesh/core/src/core_tx.c.obj
 .text.core_tx_bearer_count_get
                0x00000000        0xc examples/dfu/CMakeFiles/dfu_nrf52832_xxAA_s132_6.0.0.dir/__/__/mesh/core/src/core_tx.c.obj
 .text          0x00000000        0x0 examples/dfu/CMakeFiles/dfu_nrf52832_xxAA_s132_6.0.0.dir/__/__/mesh/core/src/heartbeat.c.obj
 .data          0x00000000        0x0 examples/dfu/CMakeFiles/dfu_nrf52832_xxAA_s132_6.0.0.dir/__/__/mesh/core/src/heartbeat.c.obj
 .bss           0x00000000        0x0 examples/dfu/CMakeFiles/dfu_nrf52832_xxAA_s132_6.0.0.dir/__/__/mesh/core/src/heartbeat.c.obj
 .text          0x00000000        0x0 examples/dfu/CMakeFiles/dfu_nrf52832_xxAA_s132_6.0.0.dir/__/__/mesh/core/src/net_beacon.c.obj
 .data          0x00000000        0x0 examples/dfu/CMakeFiles/dfu_nrf52832_xxAA_s132_6.0.0.dir/__/__/mesh/core/src/net_beacon.c.obj
 .bss           0x00000000        0x0 examples/dfu/CMakeFiles/dfu_nrf52832_xxAA_s132_6.0.0.dir/__/__/mesh/core/src/net_beacon.c.obj
 .text.net_beacon_build
                0x00000000       0x24 examples/dfu/CMakeFiles/dfu_nrf52832_xxAA_s132_6.0.0.dir/__/__/mesh/core/src/net_beacon.c.obj
 .text          0x00000000        0x0 examples/dfu/CMakeFiles/dfu_nrf52832_xxAA_s132_6.0.0.dir/__/__/mesh/core/src/fsm.c.obj
 .data          0x00000000        0x0 examples/dfu/CMakeFiles/dfu_nrf52832_xxAA_s132_6.0.0.dir/__/__/mesh/core/src/fsm.c.obj
 .bss           0x00000000        0x0 examples/dfu/CMakeFiles/dfu_nrf52832_xxAA_s132_6.0.0.dir/__/__/mesh/core/src/fsm.c.obj
 .text.fsm_event_post_try
                0x00000000      0x1ec examples/dfu/CMakeFiles/dfu_nrf52832_xxAA_s132_6.0.0.dir/__/__/mesh/core/src/fsm.c.obj
 .text.fsm_init
                0x00000000       0xcc examples/dfu/CMakeFiles/dfu_nrf52832_xxAA_s132_6.0.0.dir/__/__/mesh/core/src/fsm.c.obj
 .text.fsm_event_post
                0x00000000       0xac examples/dfu/CMakeFiles/dfu_nrf52832_xxAA_s132_6.0.0.dir/__/__/mesh/core/src/fsm.c.obj
 .text.fsm_is_processing
                0x00000000        0xa examples/dfu/CMakeFiles/dfu_nrf52832_xxAA_s132_6.0.0.dir/__/__/mesh/core/src/fsm.c.obj
 .rodata.fsm_event_post.str1.1
                0x00000000        0xb examples/dfu/CMakeFiles/dfu_nrf52832_xxAA_s132_6.0.0.dir/__/__/mesh/core/src/fsm.c.obj
 .rodata.fsm_event_post_try.str1.1
                0x00000000       0x41 examples/dfu/CMakeFiles/dfu_nrf52832_xxAA_s132_6.0.0.dir/__/__/mesh/core/src/fsm.c.obj
 .rodata.fsm_init.str1.1
                0x00000000        0xa examples/dfu/CMakeFiles/dfu_nrf52832_xxAA_s132_6.0.0.dir/__/__/mesh/core/src/fsm.c.obj
 .debug_info    0x00000000     0x132d examples/dfu/CMakeFiles/dfu_nrf52832_xxAA_s132_6.0.0.dir/__/__/mesh/core/src/fsm.c.obj
 .debug_abbrev  0x00000000      0x345 examples/dfu/CMakeFiles/dfu_nrf52832_xxAA_s132_6.0.0.dir/__/__/mesh/core/src/fsm.c.obj
 .debug_loc     0x00000000      0x3fd examples/dfu/CMakeFiles/dfu_nrf52832_xxAA_s132_6.0.0.dir/__/__/mesh/core/src/fsm.c.obj
 .debug_aranges
                0x00000000       0x38 examples/dfu/CMakeFiles/dfu_nrf52832_xxAA_s132_6.0.0.dir/__/__/mesh/core/src/fsm.c.obj
 .debug_ranges  0x00000000       0xe0 examples/dfu/CMakeFiles/dfu_nrf52832_xxAA_s132_6.0.0.dir/__/__/mesh/core/src/fsm.c.obj
 .debug_line    0x00000000      0x3e2 examples/dfu/CMakeFiles/dfu_nrf52832_xxAA_s132_6.0.0.dir/__/__/mesh/core/src/fsm.c.obj
 .debug_str     0x00000000      0x984 examples/dfu/CMakeFiles/dfu_nrf52832_xxAA_s132_6.0.0.dir/__/__/mesh/core/src/fsm.c.obj
 .comment       0x00000000       0x80 examples/dfu/CMakeFiles/dfu_nrf52832_xxAA_s132_6.0.0.dir/__/__/mesh/core/src/fsm.c.obj
 .debug_frame   0x00000000       0x9c examples/dfu/CMakeFiles/dfu_nrf52832_xxAA_s132_6.0.0.dir/__/__/mesh/core/src/fsm.c.obj
 .ARM.attributes
                0x00000000       0x39 examples/dfu/CMakeFiles/dfu_nrf52832_xxAA_s132_6.0.0.dir/__/__/mesh/core/src/fsm.c.obj
 .text          0x00000000        0x0 examples/dfu/CMakeFiles/dfu_nrf52832_xxAA_s132_6.0.0.dir/__/__/mesh/core/src/core_tx_adv.c.obj
 .data          0x00000000        0x0 examples/dfu/CMakeFiles/dfu_nrf52832_xxAA_s132_6.0.0.dir/__/__/mesh/core/src/core_tx_adv.c.obj
 .bss           0x00000000        0x0 examples/dfu/CMakeFiles/dfu_nrf52832_xxAA_s132_6.0.0.dir/__/__/mesh/core/src/core_tx_adv.c.obj
 .text.core_tx_adv_address_set
                0x00000000       0x28 examples/dfu/CMakeFiles/dfu_nrf52832_xxAA_s132_6.0.0.dir/__/__/mesh/core/src/core_tx_adv.c.obj
 .text          0x00000000        0x0 examples/dfu/CMakeFiles/dfu_nrf52832_xxAA_s132_6.0.0.dir/__/__/mesh/bearer/src/ad_listener.c.obj
 .data          0x00000000        0x0 examples/dfu/CMakeFiles/dfu_nrf52832_xxAA_s132_6.0.0.dir/__/__/mesh/bearer/src/ad_listener.c.obj
 .bss           0x00000000        0x0 examples/dfu/CMakeFiles/dfu_nrf52832_xxAA_s132_6.0.0.dir/__/__/mesh/bearer/src/ad_listener.c.obj
 .text.ad_listener_unsubscribe
                0x00000000       0x6c examples/dfu/CMakeFiles/dfu_nrf52832_xxAA_s132_6.0.0.dir/__/__/mesh/bearer/src/ad_listener.c.obj
 .text          0x00000000        0x0 examples/dfu/CMakeFiles/dfu_nrf52832_xxAA_s132_6.0.0.dir/__/__/mesh/bearer/src/ad_type_filter.c.obj
 .data          0x00000000        0x0 examples/dfu/CMakeFiles/dfu_nrf52832_xxAA_s132_6.0.0.dir/__/__/mesh/bearer/src/ad_type_filter.c.obj
 .bss           0x00000000        0x0 examples/dfu/CMakeFiles/dfu_nrf52832_xxAA_s132_6.0.0.dir/__/__/mesh/bearer/src/ad_type_filter.c.obj
 .text.bearer_adtype_remove
                0x00000000       0x20 examples/dfu/CMakeFiles/dfu_nrf52832_xxAA_s132_6.0.0.dir/__/__/mesh/bearer/src/ad_type_filter.c.obj
 .text.bearer_adtype_clear
                0x00000000       0x10 examples/dfu/CMakeFiles/dfu_nrf52832_xxAA_s132_6.0.0.dir/__/__/mesh/bearer/src/ad_type_filter.c.obj
 .text.bearer_invalid_length_amount_get
                0x00000000        0xc examples/dfu/CMakeFiles/dfu_nrf52832_xxAA_s132_6.0.0.dir/__/__/mesh/bearer/src/ad_type_filter.c.obj
 .text.bearer_adtype_filtered_amount_get
                0x00000000        0xc examples/dfu/CMakeFiles/dfu_nrf52832_xxAA_s132_6.0.0.dir/__/__/mesh/bearer/src/ad_type_filter.c.obj
 .text          0x00000000        0x0 examples/dfu/CMakeFiles/dfu_nrf52832_xxAA_s132_6.0.0.dir/__/__/mesh/bearer/src/adv_packet_filter.c.obj
 .data          0x00000000        0x0 examples/dfu/CMakeFiles/dfu_nrf52832_xxAA_s132_6.0.0.dir/__/__/mesh/bearer/src/adv_packet_filter.c.obj
 .bss           0x00000000        0x0 examples/dfu/CMakeFiles/dfu_nrf52832_xxAA_s132_6.0.0.dir/__/__/mesh/bearer/src/adv_packet_filter.c.obj
 .text.adv_filter_handle
                0x00000000       0x3c examples/dfu/CMakeFiles/dfu_nrf52832_xxAA_s132_6.0.0.dir/__/__/mesh/bearer/src/adv_packet_filter.c.obj
 .text.bearer_adv_packet_filtering_set
                0x00000000       0x1c examples/dfu/CMakeFiles/dfu_nrf52832_xxAA_s132_6.0.0.dir/__/__/mesh/bearer/src/adv_packet_filter.c.obj
 .text.bearer_adv_packet_remove
                0x00000000       0x18 examples/dfu/CMakeFiles/dfu_nrf52832_xxAA_s132_6.0.0.dir/__/__/mesh/bearer/src/adv_packet_filter.c.obj
 .text.bearer_adv_packet_add
                0x00000000       0x14 examples/dfu/CMakeFiles/dfu_nrf52832_xxAA_s132_6.0.0.dir/__/__/mesh/bearer/src/adv_packet_filter.c.obj
 .text.bearer_adv_packet_clear
                0x00000000        0xc examples/dfu/CMakeFiles/dfu_nrf52832_xxAA_s132_6.0.0.dir/__/__/mesh/bearer/src/adv_packet_filter.c.obj
 .text.bearer_adv_packet_filter_mode_set
                0x00000000       0x18 examples/dfu/CMakeFiles/dfu_nrf52832_xxAA_s132_6.0.0.dir/__/__/mesh/bearer/src/adv_packet_filter.c.obj
 .text.bearer_adv_packet_filtered_amount_get
                0x00000000        0xc examples/dfu/CMakeFiles/dfu_nrf52832_xxAA_s132_6.0.0.dir/__/__/mesh/bearer/src/adv_packet_filter.c.obj
 .bss.m_adv_packet_filter
                0x00000000       0x14 examples/dfu/CMakeFiles/dfu_nrf52832_xxAA_s132_6.0.0.dir/__/__/mesh/bearer/src/adv_packet_filter.c.obj
 .debug_info    0x00000000      0xd97 examples/dfu/CMakeFiles/dfu_nrf52832_xxAA_s132_6.0.0.dir/__/__/mesh/bearer/src/adv_packet_filter.c.obj
 .debug_abbrev  0x00000000      0x2c9 examples/dfu/CMakeFiles/dfu_nrf52832_xxAA_s132_6.0.0.dir/__/__/mesh/bearer/src/adv_packet_filter.c.obj
 .debug_loc     0x00000000      0x1c0 examples/dfu/CMakeFiles/dfu_nrf52832_xxAA_s132_6.0.0.dir/__/__/mesh/bearer/src/adv_packet_filter.c.obj
 .debug_aranges
                0x00000000       0x50 examples/dfu/CMakeFiles/dfu_nrf52832_xxAA_s132_6.0.0.dir/__/__/mesh/bearer/src/adv_packet_filter.c.obj
 .debug_ranges  0x00000000       0x40 examples/dfu/CMakeFiles/dfu_nrf52832_xxAA_s132_6.0.0.dir/__/__/mesh/bearer/src/adv_packet_filter.c.obj
 .debug_line    0x00000000      0x36d examples/dfu/CMakeFiles/dfu_nrf52832_xxAA_s132_6.0.0.dir/__/__/mesh/bearer/src/adv_packet_filter.c.obj
 .debug_str     0x00000000      0xa28 examples/dfu/CMakeFiles/dfu_nrf52832_xxAA_s132_6.0.0.dir/__/__/mesh/bearer/src/adv_packet_filter.c.obj
 .comment       0x00000000       0x80 examples/dfu/CMakeFiles/dfu_nrf52832_xxAA_s132_6.0.0.dir/__/__/mesh/bearer/src/adv_packet_filter.c.obj
 .debug_frame   0x00000000       0x88 examples/dfu/CMakeFiles/dfu_nrf52832_xxAA_s132_6.0.0.dir/__/__/mesh/bearer/src/adv_packet_filter.c.obj
 .ARM.attributes
                0x00000000       0x39 examples/dfu/CMakeFiles/dfu_nrf52832_xxAA_s132_6.0.0.dir/__/__/mesh/bearer/src/adv_packet_filter.c.obj
 .text          0x00000000        0x0 examples/dfu/CMakeFiles/dfu_nrf52832_xxAA_s132_6.0.0.dir/__/__/mesh/bearer/src/advertiser.c.obj
 .data          0x00000000        0x0 examples/dfu/CMakeFiles/dfu_nrf52832_xxAA_s132_6.0.0.dir/__/__/mesh/bearer/src/advertiser.c.obj
 .bss           0x00000000        0x0 examples/dfu/CMakeFiles/dfu_nrf52832_xxAA_s132_6.0.0.dir/__/__/mesh/bearer/src/advertiser.c.obj
 .text.advertiser_disable
                0x00000000        0xa examples/dfu/CMakeFiles/dfu_nrf52832_xxAA_s132_6.0.0.dir/__/__/mesh/bearer/src/advertiser.c.obj
 .text.advertiser_address_set
                0x00000000       0x3c examples/dfu/CMakeFiles/dfu_nrf52832_xxAA_s132_6.0.0.dir/__/__/mesh/bearer/src/advertiser.c.obj
 .text.advertiser_config_set
                0x00000000       0x36 examples/dfu/CMakeFiles/dfu_nrf52832_xxAA_s132_6.0.0.dir/__/__/mesh/bearer/src/advertiser.c.obj
 .text.advertiser_config_get
                0x00000000       0x20 examples/dfu/CMakeFiles/dfu_nrf52832_xxAA_s132_6.0.0.dir/__/__/mesh/bearer/src/advertiser.c.obj
 .text          0x00000000        0x0 examples/dfu/CMakeFiles/dfu_nrf52832_xxAA_s132_6.0.0.dir/__/__/mesh/bearer/src/bearer_handler.c.obj
 .data          0x00000000        0x0 examples/dfu/CMakeFiles/dfu_nrf52832_xxAA_s132_6.0.0.dir/__/__/mesh/bearer/src/bearer_handler.c.obj
 .bss           0x00000000        0x0 examples/dfu/CMakeFiles/dfu_nrf52832_xxAA_s132_6.0.0.dir/__/__/mesh/bearer/src/bearer_handler.c.obj
 .text.bearer_handler_action_fire
                0x00000000       0x94 examples/dfu/CMakeFiles/dfu_nrf52832_xxAA_s132_6.0.0.dir/__/__/mesh/bearer/src/bearer_handler.c.obj
 .text          0x00000000        0x0 examples/dfu/CMakeFiles/dfu_nrf52832_xxAA_s132_6.0.0.dir/__/__/mesh/bearer/src/broadcast.c.obj
 .data          0x00000000        0x0 examples/dfu/CMakeFiles/dfu_nrf52832_xxAA_s132_6.0.0.dir/__/__/mesh/bearer/src/broadcast.c.obj
 .bss           0x00000000        0x0 examples/dfu/CMakeFiles/dfu_nrf52832_xxAA_s132_6.0.0.dir/__/__/mesh/bearer/src/broadcast.c.obj
 .text          0x00000000        0x0 examples/dfu/CMakeFiles/dfu_nrf52832_xxAA_s132_6.0.0.dir/__/__/mesh/bearer/src/filter_engine.c.obj
 .data          0x00000000        0x0 examples/dfu/CMakeFiles/dfu_nrf52832_xxAA_s132_6.0.0.dir/__/__/mesh/bearer/src/filter_engine.c.obj
 .bss           0x00000000        0x0 examples/dfu/CMakeFiles/dfu_nrf52832_xxAA_s132_6.0.0.dir/__/__/mesh/bearer/src/filter_engine.c.obj
 .text.fen_accepted_amount_get
                0x00000000        0xc examples/dfu/CMakeFiles/dfu_nrf52832_xxAA_s132_6.0.0.dir/__/__/mesh/bearer/src/filter_engine.c.obj
 .text          0x00000000        0x0 examples/dfu/CMakeFiles/dfu_nrf52832_xxAA_s132_6.0.0.dir/__/__/mesh/bearer/src/gap_address_filter.c.obj
 .data          0x00000000        0x0 examples/dfu/CMakeFiles/dfu_nrf52832_xxAA_s132_6.0.0.dir/__/__/mesh/bearer/src/gap_address_filter.c.obj
 .bss           0x00000000        0x0 examples/dfu/CMakeFiles/dfu_nrf52832_xxAA_s132_6.0.0.dir/__/__/mesh/bearer/src/gap_address_filter.c.obj
 .text.gap_address_filter_handle
                0x00000000       0xa6 examples/dfu/CMakeFiles/dfu_nrf52832_xxAA_s132_6.0.0.dir/__/__/mesh/bearer/src/gap_address_filter.c.obj
 .text.gap_addr_filter_set
                0x00000000       0x40 examples/dfu/CMakeFiles/dfu_nrf52832_xxAA_s132_6.0.0.dir/__/__/mesh/bearer/src/gap_address_filter.c.obj
 .text.bearer_filter_gap_addr_whitelist_set
                0x00000000        0x6 examples/dfu/CMakeFiles/dfu_nrf52832_xxAA_s132_6.0.0.dir/__/__/mesh/bearer/src/gap_address_filter.c.obj
 .text.bearer_filter_gap_addr_blacklist_set
                0x00000000        0x6 examples/dfu/CMakeFiles/dfu_nrf52832_xxAA_s132_6.0.0.dir/__/__/mesh/bearer/src/gap_address_filter.c.obj
 .text.bearer_filter_gap_addr_range_set
                0x00000000       0x38 examples/dfu/CMakeFiles/dfu_nrf52832_xxAA_s132_6.0.0.dir/__/__/mesh/bearer/src/gap_address_filter.c.obj
 .text.bearer_filter_gap_addr_clear
                0x00000000       0x20 examples/dfu/CMakeFiles/dfu_nrf52832_xxAA_s132_6.0.0.dir/__/__/mesh/bearer/src/gap_address_filter.c.obj
 .text.bearer_gap_addr_filtered_amount_get
                0x00000000        0xc examples/dfu/CMakeFiles/dfu_nrf52832_xxAA_s132_6.0.0.dir/__/__/mesh/bearer/src/gap_address_filter.c.obj
 .bss.m_addr_filter
                0x00000000       0x18 examples/dfu/CMakeFiles/dfu_nrf52832_xxAA_s132_6.0.0.dir/__/__/mesh/bearer/src/gap_address_filter.c.obj
 .debug_info    0x00000000      0xebb examples/dfu/CMakeFiles/dfu_nrf52832_xxAA_s132_6.0.0.dir/__/__/mesh/bearer/src/gap_address_filter.c.obj
 .debug_abbrev  0x00000000      0x2f4 examples/dfu/CMakeFiles/dfu_nrf52832_xxAA_s132_6.0.0.dir/__/__/mesh/bearer/src/gap_address_filter.c.obj
 .debug_loc     0x00000000      0x3e8 examples/dfu/CMakeFiles/dfu_nrf52832_xxAA_s132_6.0.0.dir/__/__/mesh/bearer/src/gap_address_filter.c.obj
 .debug_aranges
                0x00000000       0x50 examples/dfu/CMakeFiles/dfu_nrf52832_xxAA_s132_6.0.0.dir/__/__/mesh/bearer/src/gap_address_filter.c.obj
 .debug_ranges  0x00000000       0x58 examples/dfu/CMakeFiles/dfu_nrf52832_xxAA_s132_6.0.0.dir/__/__/mesh/bearer/src/gap_address_filter.c.obj
 .debug_line    0x00000000      0x3c5 examples/dfu/CMakeFiles/dfu_nrf52832_xxAA_s132_6.0.0.dir/__/__/mesh/bearer/src/gap_address_filter.c.obj
 .debug_str     0x00000000      0x982 examples/dfu/CMakeFiles/dfu_nrf52832_xxAA_s132_6.0.0.dir/__/__/mesh/bearer/src/gap_address_filter.c.obj
 .comment       0x00000000       0x80 examples/dfu/CMakeFiles/dfu_nrf52832_xxAA_s132_6.0.0.dir/__/__/mesh/bearer/src/gap_address_filter.c.obj
 .debug_frame   0x00000000       0xb4 examples/dfu/CMakeFiles/dfu_nrf52832_xxAA_s132_6.0.0.dir/__/__/mesh/bearer/src/gap_address_filter.c.obj
 .ARM.attributes
                0x00000000       0x39 examples/dfu/CMakeFiles/dfu_nrf52832_xxAA_s132_6.0.0.dir/__/__/mesh/bearer/src/gap_address_filter.c.obj
 .text          0x00000000        0x0 examples/dfu/CMakeFiles/dfu_nrf52832_xxAA_s132_6.0.0.dir/__/__/mesh/bearer/src/radio_config.c.obj
 .data          0x00000000        0x0 examples/dfu/CMakeFiles/dfu_nrf52832_xxAA_s132_6.0.0.dir/__/__/mesh/bearer/src/radio_config.c.obj
 .bss           0x00000000        0x0 examples/dfu/CMakeFiles/dfu_nrf52832_xxAA_s132_6.0.0.dir/__/__/mesh/bearer/src/radio_config.c.obj
 .text.radio_config_access_addr_get
                0x00000000       0x4c examples/dfu/CMakeFiles/dfu_nrf52832_xxAA_s132_6.0.0.dir/__/__/mesh/bearer/src/radio_config.c.obj
 .text          0x00000000        0x0 examples/dfu/CMakeFiles/dfu_nrf52832_xxAA_s132_6.0.0.dir/__/__/mesh/bearer/src/rssi_filter.c.obj
 .data          0x00000000        0x0 examples/dfu/CMakeFiles/dfu_nrf52832_xxAA_s132_6.0.0.dir/__/__/mesh/bearer/src/rssi_filter.c.obj
 .bss           0x00000000        0x0 examples/dfu/CMakeFiles/dfu_nrf52832_xxAA_s132_6.0.0.dir/__/__/mesh/bearer/src/rssi_filter.c.obj
 .text.rssi_filter_handle
                0x00000000       0x20 examples/dfu/CMakeFiles/dfu_nrf52832_xxAA_s132_6.0.0.dir/__/__/mesh/bearer/src/rssi_filter.c.obj
 .text.bearer_rssi_filtering_set
                0x00000000       0x34 examples/dfu/CMakeFiles/dfu_nrf52832_xxAA_s132_6.0.0.dir/__/__/mesh/bearer/src/rssi_filter.c.obj
 .text.bearer_rssi_filtered_amount_get
                0x00000000        0xc examples/dfu/CMakeFiles/dfu_nrf52832_xxAA_s132_6.0.0.dir/__/__/mesh/bearer/src/rssi_filter.c.obj
 .bss.m_rssi_filter
                0x00000000       0x18 examples/dfu/CMakeFiles/dfu_nrf52832_xxAA_s132_6.0.0.dir/__/__/mesh/bearer/src/rssi_filter.c.obj
 .debug_info    0x00000000      0xc73 examples/dfu/CMakeFiles/dfu_nrf52832_xxAA_s132_6.0.0.dir/__/__/mesh/bearer/src/rssi_filter.c.obj
 .debug_abbrev  0x00000000      0x28e examples/dfu/CMakeFiles/dfu_nrf52832_xxAA_s132_6.0.0.dir/__/__/mesh/bearer/src/rssi_filter.c.obj
 .debug_loc     0x00000000       0xb3 examples/dfu/CMakeFiles/dfu_nrf52832_xxAA_s132_6.0.0.dir/__/__/mesh/bearer/src/rssi_filter.c.obj
 .debug_aranges
                0x00000000       0x30 examples/dfu/CMakeFiles/dfu_nrf52832_xxAA_s132_6.0.0.dir/__/__/mesh/bearer/src/rssi_filter.c.obj
 .debug_ranges  0x00000000       0x20 examples/dfu/CMakeFiles/dfu_nrf52832_xxAA_s132_6.0.0.dir/__/__/mesh/bearer/src/rssi_filter.c.obj
 .debug_line    0x00000000      0x2e2 examples/dfu/CMakeFiles/dfu_nrf52832_xxAA_s132_6.0.0.dir/__/__/mesh/bearer/src/rssi_filter.c.obj
 .debug_str     0x00000000      0x83d examples/dfu/CMakeFiles/dfu_nrf52832_xxAA_s132_6.0.0.dir/__/__/mesh/bearer/src/rssi_filter.c.obj
 .comment       0x00000000       0x80 examples/dfu/CMakeFiles/dfu_nrf52832_xxAA_s132_6.0.0.dir/__/__/mesh/bearer/src/rssi_filter.c.obj
 .debug_frame   0x00000000       0x54 examples/dfu/CMakeFiles/dfu_nrf52832_xxAA_s132_6.0.0.dir/__/__/mesh/bearer/src/rssi_filter.c.obj
 .ARM.attributes
                0x00000000       0x39 examples/dfu/CMakeFiles/dfu_nrf52832_xxAA_s132_6.0.0.dir/__/__/mesh/bearer/src/rssi_filter.c.obj
 .text          0x00000000        0x0 examples/dfu/CMakeFiles/dfu_nrf52832_xxAA_s132_6.0.0.dir/__/__/mesh/bearer/src/scanner.c.obj
 .data          0x00000000        0x0 examples/dfu/CMakeFiles/dfu_nrf52832_xxAA_s132_6.0.0.dir/__/__/mesh/bearer/src/scanner.c.obj
 .bss           0x00000000        0x0 examples/dfu/CMakeFiles/dfu_nrf52832_xxAA_s132_6.0.0.dir/__/__/mesh/bearer/src/scanner.c.obj
 .text.scanner_rx_callback_set
                0x00000000       0x20 examples/dfu/CMakeFiles/dfu_nrf52832_xxAA_s132_6.0.0.dir/__/__/mesh/bearer/src/scanner.c.obj
 .text.scanner_is_enabled
                0x00000000       0x10 examples/dfu/CMakeFiles/dfu_nrf52832_xxAA_s132_6.0.0.dir/__/__/mesh/bearer/src/scanner.c.obj
 .text.scanner_stats_get
                0x00000000        0x8 examples/dfu/CMakeFiles/dfu_nrf52832_xxAA_s132_6.0.0.dir/__/__/mesh/bearer/src/scanner.c.obj
 .text.scanner_config_radio_mode_set
                0x00000000       0x10 examples/dfu/CMakeFiles/dfu_nrf52832_xxAA_s132_6.0.0.dir/__/__/mesh/bearer/src/scanner.c.obj
 .text          0x00000000        0x0 examples/dfu/CMakeFiles/dfu_nrf52832_xxAA_s132_6.0.0.dir/C_/ver/mod/nRF5_SDK_15.0.0_a53641a/modules/nrfx/mdk/system_nrf52.c.obj
 .data          0x00000000        0x0 examples/dfu/CMakeFiles/dfu_nrf52832_xxAA_s132_6.0.0.dir/C_/ver/mod/nRF5_SDK_15.0.0_a53641a/modules/nrfx/mdk/system_nrf52.c.obj
 .bss           0x00000000        0x0 examples/dfu/CMakeFiles/dfu_nrf52832_xxAA_s132_6.0.0.dir/C_/ver/mod/nRF5_SDK_15.0.0_a53641a/modules/nrfx/mdk/system_nrf52.c.obj
 .text.SystemCoreClockUpdate
                0x00000000       0x10 examples/dfu/CMakeFiles/dfu_nrf52832_xxAA_s132_6.0.0.dir/C_/ver/mod/nRF5_SDK_15.0.0_a53641a/modules/nrfx/mdk/system_nrf52.c.obj
 .data          0x00000000        0x0 examples/dfu/CMakeFiles/dfu_nrf52832_xxAA_s132_6.0.0.dir/C_/ver/mod/nRF5_SDK_15.0.0_a53641a/modules/nrfx/mdk/gcc_startup_nrf52.S.obj
 .bss           0x00000000        0x0 examples/dfu/CMakeFiles/dfu_nrf52832_xxAA_s132_6.0.0.dir/C_/ver/mod/nRF5_SDK_15.0.0_a53641a/modules/nrfx/mdk/gcc_startup_nrf52.S.obj
 .text          0x00000000        0x0 examples/dfu/CMakeFiles/dfu_nrf52832_xxAA_s132_6.0.0.dir/C_/ver/mod/nRF5_SDK_15.0.0_a53641a/components/libraries/util/app_error.c.obj
 .data          0x00000000        0x0 examples/dfu/CMakeFiles/dfu_nrf52832_xxAA_s132_6.0.0.dir/C_/ver/mod/nRF5_SDK_15.0.0_a53641a/components/libraries/util/app_error.c.obj
 .bss           0x00000000        0x0 examples/dfu/CMakeFiles/dfu_nrf52832_xxAA_s132_6.0.0.dir/C_/ver/mod/nRF5_SDK_15.0.0_a53641a/components/libraries/util/app_error.c.obj
 .text.app_error_save_and_stop
                0x00000000       0x58 examples/dfu/CMakeFiles/dfu_nrf52832_xxAA_s132_6.0.0.dir/C_/ver/mod/nRF5_SDK_15.0.0_a53641a/components/libraries/util/app_error.c.obj
 .bss.m_error_data.7863
                0x00000000       0x20 examples/dfu/CMakeFiles/dfu_nrf52832_xxAA_s132_6.0.0.dir/C_/ver/mod/nRF5_SDK_15.0.0_a53641a/components/libraries/util/app_error.c.obj
 .text          0x00000000        0x0 examples/dfu/CMakeFiles/dfu_nrf52832_xxAA_s132_6.0.0.dir/C_/ver/mod/nRF5_SDK_15.0.0_a53641a/components/libraries/util/app_error_handler_gcc.c.obj
 .data          0x00000000        0x0 examples/dfu/CMakeFiles/dfu_nrf52832_xxAA_s132_6.0.0.dir/C_/ver/mod/nRF5_SDK_15.0.0_a53641a/components/libraries/util/app_error_handler_gcc.c.obj
 .bss           0x00000000        0x0 examples/dfu/CMakeFiles/dfu_nrf52832_xxAA_s132_6.0.0.dir/C_/ver/mod/nRF5_SDK_15.0.0_a53641a/components/libraries/util/app_error_handler_gcc.c.obj
 .text          0x00000000        0x0 external/rtt/librtt_nrf52832_xxAA.a(SEGGER_RTT.c.obj)
 .data          0x00000000        0x0 external/rtt/librtt_nrf52832_xxAA.a(SEGGER_RTT.c.obj)
 .bss           0x00000000        0x0 external/rtt/librtt_nrf52832_xxAA.a(SEGGER_RTT.c.obj)
 .text._PostTerminalSwitch.constprop.0
                0x00000000       0x28 external/rtt/librtt_nrf52832_xxAA.a(SEGGER_RTT.c.obj)
 .text.SEGGER_RTT_ReadNoLock
                0x00000000       0x88 external/rtt/librtt_nrf52832_xxAA.a(SEGGER_RTT.c.obj)
 .text.SEGGER_RTT_Read
                0x00000000       0x1c external/rtt/librtt_nrf52832_xxAA.a(SEGGER_RTT.c.obj)
 .text.SEGGER_RTT_WriteSkipNoLock
                0x00000000       0xb4 external/rtt/librtt_nrf52832_xxAA.a(SEGGER_RTT.c.obj)
 .text.SEGGER_RTT_WriteString
                0x00000000       0x1a external/rtt/librtt_nrf52832_xxAA.a(SEGGER_RTT.c.obj)
 .text.SEGGER_RTT_GetKey
                0x00000000       0x20 external/rtt/librtt_nrf52832_xxAA.a(SEGGER_RTT.c.obj)
 .text.SEGGER_RTT_WaitKey
                0x00000000        0xc external/rtt/librtt_nrf52832_xxAA.a(SEGGER_RTT.c.obj)
 .text.SEGGER_RTT_HasKey
                0x00000000       0x1c external/rtt/librtt_nrf52832_xxAA.a(SEGGER_RTT.c.obj)
 .text.SEGGER_RTT_HasData
                0x00000000       0x14 external/rtt/librtt_nrf52832_xxAA.a(SEGGER_RTT.c.obj)
 .text.SEGGER_RTT_AllocDownBuffer
                0x00000000       0x68 external/rtt/librtt_nrf52832_xxAA.a(SEGGER_RTT.c.obj)
 .text.SEGGER_RTT_AllocUpBuffer
                0x00000000       0x70 external/rtt/librtt_nrf52832_xxAA.a(SEGGER_RTT.c.obj)
 .text.SEGGER_RTT_ConfigUpBuffer
                0x00000000       0x68 external/rtt/librtt_nrf52832_xxAA.a(SEGGER_RTT.c.obj)
 .text.SEGGER_RTT_ConfigDownBuffer
                0x00000000       0x60 external/rtt/librtt_nrf52832_xxAA.a(SEGGER_RTT.c.obj)
 .text.SEGGER_RTT_SetNameUpBuffer
                0x00000000       0x3c external/rtt/librtt_nrf52832_xxAA.a(SEGGER_RTT.c.obj)
 .text.SEGGER_RTT_SetNameDownBuffer
                0x00000000       0x3c external/rtt/librtt_nrf52832_xxAA.a(SEGGER_RTT.c.obj)
 .text.SEGGER_RTT_Init
                0x00000000       0x10 external/rtt/librtt_nrf52832_xxAA.a(SEGGER_RTT.c.obj)
 .text.SEGGER_RTT_SetTerminal
                0x00000000       0x84 external/rtt/librtt_nrf52832_xxAA.a(SEGGER_RTT.c.obj)
 .text.SEGGER_RTT_TerminalOut
                0x00000000       0xa0 external/rtt/librtt_nrf52832_xxAA.a(SEGGER_RTT.c.obj)
 .bss._ActiveTerminal
                0x00000000        0x1 external/rtt/librtt_nrf52832_xxAA.a(SEGGER_RTT.c.obj)
 .rodata._aTerminalId
                0x00000000       0x10 external/rtt/librtt_nrf52832_xxAA.a(SEGGER_RTT.c.obj)
 .text          0x00000000        0x0 external/rtt/librtt_nrf52832_xxAA.a(SEGGER_RTT_printf.c.obj)
 .data          0x00000000        0x0 external/rtt/librtt_nrf52832_xxAA.a(SEGGER_RTT_printf.c.obj)
 .bss           0x00000000        0x0 external/rtt/librtt_nrf52832_xxAA.a(SEGGER_RTT_printf.c.obj)
 .text          0x00000000        0x0 external/micro-ecc/libuECC_nrf52832_xxAA.a(uECC.c.obj)
 .data          0x00000000        0x0 external/micro-ecc/libuECC_nrf52832_xxAA.a(uECC.c.obj)
 .bss           0x00000000        0x0 external/micro-ecc/libuECC_nrf52832_xxAA.a(uECC.c.obj)
 .text.uECC_vli_modMult
                0x00000000      0x148 external/micro-ecc/libuECC_nrf52832_xxAA.a(uECC.c.obj)
 .text.HMAC_init
                0x00000000       0x46 external/micro-ecc/libuECC_nrf52832_xxAA.a(uECC.c.obj)
 .text.HMAC_update
                0x00000000        0x4 external/micro-ecc/libuECC_nrf52832_xxAA.a(uECC.c.obj)
 .text.HMAC_finish
                0x00000000       0x62 external/micro-ecc/libuECC_nrf52832_xxAA.a(uECC.c.obj)
 .text.update_V
                0x00000000       0x24 external/micro-ecc/libuECC_nrf52832_xxAA.a(uECC.c.obj)
 .text.bits2int
                0x00000000       0x88 external/micro-ecc/libuECC_nrf52832_xxAA.a(uECC.c.obj)
 .text.uECC_sign_with_k
                0x00000000      0x17c external/micro-ecc/libuECC_nrf52832_xxAA.a(uECC.c.obj)
 .text.uECC_set_rng
                0x00000000        0xc external/micro-ecc/libuECC_nrf52832_xxAA.a(uECC.c.obj)
 .text.uECC_get_rng
                0x00000000        0xc external/micro-ecc/libuECC_nrf52832_xxAA.a(uECC.c.obj)
 .text.uECC_curve_private_key_size
                0x00000000        0xe external/micro-ecc/libuECC_nrf52832_xxAA.a(uECC.c.obj)
 .text.uECC_curve_public_key_size
                0x00000000        0x8 external/micro-ecc/libuECC_nrf52832_xxAA.a(uECC.c.obj)
 .text.uECC_compute_public_key
                0x00000000       0x7e external/micro-ecc/libuECC_nrf52832_xxAA.a(uECC.c.obj)
 .text.uECC_sign
                0x00000000       0x56 external/micro-ecc/libuECC_nrf52832_xxAA.a(uECC.c.obj)
 .text.uECC_sign_deterministic
                0x00000000      0x192 external/micro-ecc/libuECC_nrf52832_xxAA.a(uECC.c.obj)
 .text.uECC_verify
                0x00000000      0x2f0 external/micro-ecc/libuECC_nrf52832_xxAA.a(uECC.c.obj)
 .text          0x00000000        0x0 c:/mesh/arm_gcc/bin/../lib/gcc/arm-none-eabi/6.3.1/../../../../arm-none-eabi/lib/thumb/v7e-m/fpv4-sp/hard\libg_nano.a(lib_a-exit.o)
 .data          0x00000000        0x0 c:/mesh/arm_gcc/bin/../lib/gcc/arm-none-eabi/6.3.1/../../../../arm-none-eabi/lib/thumb/v7e-m/fpv4-sp/hard\libg_nano.a(lib_a-exit.o)
 .bss           0x00000000        0x0 c:/mesh/arm_gcc/bin/../lib/gcc/arm-none-eabi/6.3.1/../../../../arm-none-eabi/lib/thumb/v7e-m/fpv4-sp/hard\libg_nano.a(lib_a-exit.o)
 .text          0x00000000        0x0 c:/mesh/arm_gcc/bin/../lib/gcc/arm-none-eabi/6.3.1/../../../../arm-none-eabi/lib/thumb/v7e-m/fpv4-sp/hard\libg_nano.a(lib_a-impure.o)
 .data          0x00000000        0x0 c:/mesh/arm_gcc/bin/../lib/gcc/arm-none-eabi/6.3.1/../../../../arm-none-eabi/lib/thumb/v7e-m/fpv4-sp/hard\libg_nano.a(lib_a-impure.o)
 .bss           0x00000000        0x0 c:/mesh/arm_gcc/bin/../lib/gcc/arm-none-eabi/6.3.1/../../../../arm-none-eabi/lib/thumb/v7e-m/fpv4-sp/hard\libg_nano.a(lib_a-impure.o)
 .text          0x00000000        0x0 c:/mesh/arm_gcc/bin/../lib/gcc/arm-none-eabi/6.3.1/../../../../arm-none-eabi/lib/thumb/v7e-m/fpv4-sp/hard\libg_nano.a(lib_a-init.o)
 .data          0x00000000        0x0 c:/mesh/arm_gcc/bin/../lib/gcc/arm-none-eabi/6.3.1/../../../../arm-none-eabi/lib/thumb/v7e-m/fpv4-sp/hard\libg_nano.a(lib_a-init.o)
 .bss           0x00000000        0x0 c:/mesh/arm_gcc/bin/../lib/gcc/arm-none-eabi/6.3.1/../../../../arm-none-eabi/lib/thumb/v7e-m/fpv4-sp/hard\libg_nano.a(lib_a-init.o)
 .text          0x00000000        0x0 c:/mesh/arm_gcc/bin/../lib/gcc/arm-none-eabi/6.3.1/../../../../arm-none-eabi/lib/thumb/v7e-m/fpv4-sp/hard\libg_nano.a(lib_a-malloc.o)
 .data          0x00000000        0x0 c:/mesh/arm_gcc/bin/../lib/gcc/arm-none-eabi/6.3.1/../../../../arm-none-eabi/lib/thumb/v7e-m/fpv4-sp/hard\libg_nano.a(lib_a-malloc.o)
 .bss           0x00000000        0x0 c:/mesh/arm_gcc/bin/../lib/gcc/arm-none-eabi/6.3.1/../../../../arm-none-eabi/lib/thumb/v7e-m/fpv4-sp/hard\libg_nano.a(lib_a-malloc.o)
 .text          0x00000000        0x0 c:/mesh/arm_gcc/bin/../lib/gcc/arm-none-eabi/6.3.1/../../../../arm-none-eabi/lib/thumb/v7e-m/fpv4-sp/hard\libg_nano.a(lib_a-memcmp.o)
 .data          0x00000000        0x0 c:/mesh/arm_gcc/bin/../lib/gcc/arm-none-eabi/6.3.1/../../../../arm-none-eabi/lib/thumb/v7e-m/fpv4-sp/hard\libg_nano.a(lib_a-memcmp.o)
 .bss           0x00000000        0x0 c:/mesh/arm_gcc/bin/../lib/gcc/arm-none-eabi/6.3.1/../../../../arm-none-eabi/lib/thumb/v7e-m/fpv4-sp/hard\libg_nano.a(lib_a-memcmp.o)
 .text          0x00000000        0x0 c:/mesh/arm_gcc/bin/../lib/gcc/arm-none-eabi/6.3.1/../../../../arm-none-eabi/lib/thumb/v7e-m/fpv4-sp/hard\libg_nano.a(lib_a-memcpy-stub.o)
 .data          0x00000000        0x0 c:/mesh/arm_gcc/bin/../lib/gcc/arm-none-eabi/6.3.1/../../../../arm-none-eabi/lib/thumb/v7e-m/fpv4-sp/hard\libg_nano.a(lib_a-memcpy-stub.o)
 .bss           0x00000000        0x0 c:/mesh/arm_gcc/bin/../lib/gcc/arm-none-eabi/6.3.1/../../../../arm-none-eabi/lib/thumb/v7e-m/fpv4-sp/hard\libg_nano.a(lib_a-memcpy-stub.o)
 .text          0x00000000        0x0 c:/mesh/arm_gcc/bin/../lib/gcc/arm-none-eabi/6.3.1/../../../../arm-none-eabi/lib/thumb/v7e-m/fpv4-sp/hard\libg_nano.a(lib_a-memset.o)
 .data          0x00000000        0x0 c:/mesh/arm_gcc/bin/../lib/gcc/arm-none-eabi/6.3.1/../../../../arm-none-eabi/lib/thumb/v7e-m/fpv4-sp/hard\libg_nano.a(lib_a-memset.o)
 .bss           0x00000000        0x0 c:/mesh/arm_gcc/bin/../lib/gcc/arm-none-eabi/6.3.1/../../../../arm-none-eabi/lib/thumb/v7e-m/fpv4-sp/hard\libg_nano.a(lib_a-memset.o)
 .text          0x00000000        0x0 c:/mesh/arm_gcc/bin/../lib/gcc/arm-none-eabi/6.3.1/../../../../arm-none-eabi/lib/thumb/v7e-m/fpv4-sp/hard\libg_nano.a(lib_a-nano-freer.o)
 .data          0x00000000        0x0 c:/mesh/arm_gcc/bin/../lib/gcc/arm-none-eabi/6.3.1/../../../../arm-none-eabi/lib/thumb/v7e-m/fpv4-sp/hard\libg_nano.a(lib_a-nano-freer.o)
 .bss           0x00000000        0x0 c:/mesh/arm_gcc/bin/../lib/gcc/arm-none-eabi/6.3.1/../../../../arm-none-eabi/lib/thumb/v7e-m/fpv4-sp/hard\libg_nano.a(lib_a-nano-freer.o)
 .text          0x00000000        0x0 c:/mesh/arm_gcc/bin/../lib/gcc/arm-none-eabi/6.3.1/../../../../arm-none-eabi/lib/thumb/v7e-m/fpv4-sp/hard\libg_nano.a(lib_a-nano-mallocr.o)
 .data          0x00000000        0x0 c:/mesh/arm_gcc/bin/../lib/gcc/arm-none-eabi/6.3.1/../../../../arm-none-eabi/lib/thumb/v7e-m/fpv4-sp/hard\libg_nano.a(lib_a-nano-mallocr.o)
 .bss           0x00000000        0x0 c:/mesh/arm_gcc/bin/../lib/gcc/arm-none-eabi/6.3.1/../../../../arm-none-eabi/lib/thumb/v7e-m/fpv4-sp/hard\libg_nano.a(lib_a-nano-mallocr.o)
 .text          0x00000000        0x0 c:/mesh/arm_gcc/bin/../lib/gcc/arm-none-eabi/6.3.1/../../../../arm-none-eabi/lib/thumb/v7e-m/fpv4-sp/hard\libg_nano.a(lib_a-sbrkr.o)
 .data          0x00000000        0x0 c:/mesh/arm_gcc/bin/../lib/gcc/arm-none-eabi/6.3.1/../../../../arm-none-eabi/lib/thumb/v7e-m/fpv4-sp/hard\libg_nano.a(lib_a-sbrkr.o)
 .bss           0x00000000        0x0 c:/mesh/arm_gcc/bin/../lib/gcc/arm-none-eabi/6.3.1/../../../../arm-none-eabi/lib/thumb/v7e-m/fpv4-sp/hard\libg_nano.a(lib_a-sbrkr.o)
 .text          0x00000000        0x0 c:/mesh/arm_gcc/bin/../lib/gcc/arm-none-eabi/6.3.1/../../../../arm-none-eabi/lib/thumb/v7e-m/fpv4-sp/hard\libg_nano.a(lib_a-strcpy.o)
 .data          0x00000000        0x0 c:/mesh/arm_gcc/bin/../lib/gcc/arm-none-eabi/6.3.1/../../../../arm-none-eabi/lib/thumb/v7e-m/fpv4-sp/hard\libg_nano.a(lib_a-strcpy.o)
 .bss           0x00000000        0x0 c:/mesh/arm_gcc/bin/../lib/gcc/arm-none-eabi/6.3.1/../../../../arm-none-eabi/lib/thumb/v7e-m/fpv4-sp/hard\libg_nano.a(lib_a-strcpy.o)
 .data          0x00000000        0x0 c:/mesh/arm_gcc/bin/../lib/gcc/arm-none-eabi/6.3.1/../../../../arm-none-eabi/lib/thumb/v7e-m/fpv4-sp/hard\libg_nano.a(lib_a-strlen.o)
 .bss           0x00000000        0x0 c:/mesh/arm_gcc/bin/../lib/gcc/arm-none-eabi/6.3.1/../../../../arm-none-eabi/lib/thumb/v7e-m/fpv4-sp/hard\libg_nano.a(lib_a-strlen.o)
 .text          0x00000000        0x0 c:/mesh/arm_gcc/bin/../lib/gcc/arm-none-eabi/6.3.1/../../../../arm-none-eabi/lib/thumb/v7e-m/fpv4-sp/hard\libg_nano.a(lib_a-strrchr.o)
 .data          0x00000000        0x0 c:/mesh/arm_gcc/bin/../lib/gcc/arm-none-eabi/6.3.1/../../../../arm-none-eabi/lib/thumb/v7e-m/fpv4-sp/hard\libg_nano.a(lib_a-strrchr.o)
 .bss           0x00000000        0x0 c:/mesh/arm_gcc/bin/../lib/gcc/arm-none-eabi/6.3.1/../../../../arm-none-eabi/lib/thumb/v7e-m/fpv4-sp/hard\libg_nano.a(lib_a-strrchr.o)
 .text          0x00000000        0x0 c:/mesh/arm_gcc/bin/../lib/gcc/arm-none-eabi/6.3.1/../../../../arm-none-eabi/lib/thumb/v7e-m/fpv4-sp/hard\libg_nano.a(lib_a-mlock.o)
 .data          0x00000000        0x0 c:/mesh/arm_gcc/bin/../lib/gcc/arm-none-eabi/6.3.1/../../../../arm-none-eabi/lib/thumb/v7e-m/fpv4-sp/hard\libg_nano.a(lib_a-mlock.o)
 .bss           0x00000000        0x0 c:/mesh/arm_gcc/bin/../lib/gcc/arm-none-eabi/6.3.1/../../../../arm-none-eabi/lib/thumb/v7e-m/fpv4-sp/hard\libg_nano.a(lib_a-mlock.o)
 .text          0x00000000        0x0 c:/mesh/arm_gcc/bin/../lib/gcc/arm-none-eabi/6.3.1/../../../../arm-none-eabi/lib/thumb/v7e-m/fpv4-sp/hard\libg_nano.a(lib_a-reent.o)
 .data          0x00000000        0x0 c:/mesh/arm_gcc/bin/../lib/gcc/arm-none-eabi/6.3.1/../../../../arm-none-eabi/lib/thumb/v7e-m/fpv4-sp/hard\libg_nano.a(lib_a-reent.o)
 .bss           0x00000000        0x0 c:/mesh/arm_gcc/bin/../lib/gcc/arm-none-eabi/6.3.1/../../../../arm-none-eabi/lib/thumb/v7e-m/fpv4-sp/hard\libg_nano.a(lib_a-reent.o)
 .text.cleanup_glue
                0x00000000       0x1a c:/mesh/arm_gcc/bin/../lib/gcc/arm-none-eabi/6.3.1/../../../../arm-none-eabi/lib/thumb/v7e-m/fpv4-sp/hard\libg_nano.a(lib_a-reent.o)
 .text._reclaim_reent
                0x00000000       0xb8 c:/mesh/arm_gcc/bin/../lib/gcc/arm-none-eabi/6.3.1/../../../../arm-none-eabi/lib/thumb/v7e-m/fpv4-sp/hard\libg_nano.a(lib_a-reent.o)
 .text          0x00000000        0x0 c:/mesh/arm_gcc/bin/../lib/gcc/arm-none-eabi/6.3.1/../../../../arm-none-eabi/lib/thumb/v7e-m/fpv4-sp/hard\libg_nano.a(lib_a-strchr.o)
 .data          0x00000000        0x0 c:/mesh/arm_gcc/bin/../lib/gcc/arm-none-eabi/6.3.1/../../../../arm-none-eabi/lib/thumb/v7e-m/fpv4-sp/hard\libg_nano.a(lib_a-strchr.o)
 .bss           0x00000000        0x0 c:/mesh/arm_gcc/bin/../lib/gcc/arm-none-eabi/6.3.1/../../../../arm-none-eabi/lib/thumb/v7e-m/fpv4-sp/hard\libg_nano.a(lib_a-strchr.o)
 .text          0x00000000        0x0 c:/mesh/arm_gcc/bin/../lib/gcc/arm-none-eabi/6.3.1/thumb/v7e-m/fpv4-sp/hard/crtend.o
 .data          0x00000000        0x0 c:/mesh/arm_gcc/bin/../lib/gcc/arm-none-eabi/6.3.1/thumb/v7e-m/fpv4-sp/hard/crtend.o
 .bss           0x00000000        0x0 c:/mesh/arm_gcc/bin/../lib/gcc/arm-none-eabi/6.3.1/thumb/v7e-m/fpv4-sp/hard/crtend.o
 .text          0x00000000        0x0 c:/mesh/arm_gcc/bin/../lib/gcc/arm-none-eabi/6.3.1/thumb/v7e-m/fpv4-sp/hard/crtn.o
 .data          0x00000000        0x0 c:/mesh/arm_gcc/bin/../lib/gcc/arm-none-eabi/6.3.1/thumb/v7e-m/fpv4-sp/hard/crtn.o
 .bss           0x00000000        0x0 c:/mesh/arm_gcc/bin/../lib/gcc/arm-none-eabi/6.3.1/thumb/v7e-m/fpv4-sp/hard/crtn.o
 .text          0x00000000        0x0 c:/mesh/arm_gcc/bin/../lib/gcc/arm-none-eabi/6.3.1/../../../../arm-none-eabi/lib/thumb/v7e-m/fpv4-sp/hard\libnosys.a(sbrk.o)
 .data          0x00000000        0x0 c:/mesh/arm_gcc/bin/../lib/gcc/arm-none-eabi/6.3.1/../../../../arm-none-eabi/lib/thumb/v7e-m/fpv4-sp/hard\libnosys.a(sbrk.o)
 .bss           0x00000000        0x0 c:/mesh/arm_gcc/bin/../lib/gcc/arm-none-eabi/6.3.1/../../../../arm-none-eabi/lib/thumb/v7e-m/fpv4-sp/hard\libnosys.a(sbrk.o)
 .text          0x00000000        0x0 c:/mesh/arm_gcc/bin/../lib/gcc/arm-none-eabi/6.3.1/../../../../arm-none-eabi/lib/thumb/v7e-m/fpv4-sp/hard\libnosys.a(_exit.o)
 .data          0x00000000        0x0 c:/mesh/arm_gcc/bin/../lib/gcc/arm-none-eabi/6.3.1/../../../../arm-none-eabi/lib/thumb/v7e-m/fpv4-sp/hard\libnosys.a(_exit.o)
 .bss           0x00000000        0x0 c:/mesh/arm_gcc/bin/../lib/gcc/arm-none-eabi/6.3.1/../../../../arm-none-eabi/lib/thumb/v7e-m/fpv4-sp/hard\libnosys.a(_exit.o)

Memory Configuration

Name             Origin             Length             Attributes
FLASH            0x00026000         0x00051000         xr
RAM              0x200032c8         0x0000ca38         xrw
*default*        0x00000000         0xffffffff

Linker script and memory map


.text           0x00026000    0x16990
 *(.isr_vector)
 .isr_vector    0x00026000      0x200 examples/dfu/CMakeFiles/dfu_nrf52832_xxAA_s132_6.0.0.dir/C_/ver/mod/nRF5_SDK_15.0.0_a53641a/modules/nrfx/mdk/gcc_startup_nrf52.S.obj
                0x00026000                __isr_vector
 *(.text*)
 .text          0x00026200       0x6c c:/mesh/arm_gcc/bin/../lib/gcc/arm-none-eabi/6.3.1/thumb/v7e-m/fpv4-sp/hard/crtbegin.o
 .text          0x0002626c       0x74 c:/mesh/arm_gcc/bin/../lib/gcc/arm-none-eabi/6.3.1/../../../../arm-none-eabi/lib/thumb/v7e-m/fpv4-sp/hard/crt0.o
                0x0002626c                _start
                0x0002626c                _mainCRTStartup
 .text.sd_app_evt_wait
                0x000262e0        0x4 examples/dfu/CMakeFiles/dfu_nrf52832_xxAA_s132_6.0.0.dir/src/main.c.obj
 .text.config_server_evt_cb
                0x000262e4       0x80 examples/dfu/CMakeFiles/dfu_nrf52832_xxAA_s132_6.0.0.dir/src/main.c.obj
 .text.mesh_evt_handler
                0x00026364       0xd0 examples/dfu/CMakeFiles/dfu_nrf52832_xxAA_s132_6.0.0.dir/src/main.c.obj
 .text.startup.main
                0x00026434      0x418 examples/dfu/CMakeFiles/dfu_nrf52832_xxAA_s132_6.0.0.dir/src/main.c.obj
                0x00026434                main
 .text.mesh_evt_handler
                0x0002684c        0xe examples/dfu/CMakeFiles/dfu_nrf52832_xxAA_s132_6.0.0.dir/__/__/mesh/stack/src/mesh_stack.c.obj
 .text.mesh_stack_start
                0x0002685a        0x4 examples/dfu/CMakeFiles/dfu_nrf52832_xxAA_s132_6.0.0.dir/__/__/mesh/stack/src/mesh_stack.c.obj
                0x0002685a                mesh_stack_start
 .text.mesh_stack_provisioning_data_store
                0x0002685e       0x6c examples/dfu/CMakeFiles/dfu_nrf52832_xxAA_s132_6.0.0.dir/__/__/mesh/stack/src/mesh_stack.c.obj
                0x0002685e                mesh_stack_provisioning_data_store
 .text.mesh_stack_config_clear
                0x000268ca       0x12 examples/dfu/CMakeFiles/dfu_nrf52832_xxAA_s132_6.0.0.dir/__/__/mesh/stack/src/mesh_stack.c.obj
                0x000268ca                mesh_stack_config_clear
 .text.mesh_stack_is_device_provisioned
                0x000268dc       0x18 examples/dfu/CMakeFiles/dfu_nrf52832_xxAA_s132_6.0.0.dir/__/__/mesh/stack/src/mesh_stack.c.obj
                0x000268dc                mesh_stack_is_device_provisioned
 .text.mesh_stack_init
                0x000268f4       0x78 examples/dfu/CMakeFiles/dfu_nrf52832_xxAA_s132_6.0.0.dir/__/__/mesh/stack/src/mesh_stack.c.obj
                0x000268f4                mesh_stack_init
 .text.mesh_stack_device_reset
                0x0002696c       0x20 examples/dfu/CMakeFiles/dfu_nrf52832_xxAA_s132_6.0.0.dir/__/__/mesh/stack/src/mesh_stack.c.obj
                0x0002696c                mesh_stack_device_reset
 .text.sd_evt_get
                0x0002698c        0x4 examples/dfu/CMakeFiles/dfu_nrf52832_xxAA_s132_6.0.0.dir/__/common/src/mesh_softdevice_init.c.obj
 .text.sd_softdevice_enable
                0x00026990        0x4 examples/dfu/CMakeFiles/dfu_nrf52832_xxAA_s132_6.0.0.dir/__/common/src/mesh_softdevice_init.c.obj
 .text.sd_ble_enable
                0x00026994        0x4 examples/dfu/CMakeFiles/dfu_nrf52832_xxAA_s132_6.0.0.dir/__/common/src/mesh_softdevice_init.c.obj
 .text.SWI2_EGU2_IRQHandler
                0x00026998       0x18 examples/dfu/CMakeFiles/dfu_nrf52832_xxAA_s132_6.0.0.dir/__/common/src/mesh_softdevice_init.c.obj
                0x00026998                SWI2_EGU2_IRQHandler
 .text.mesh_softdevice_init
                0x000269b0      0x1c0 examples/dfu/CMakeFiles/dfu_nrf52832_xxAA_s132_6.0.0.dir/__/common/src/mesh_softdevice_init.c.obj
                0x000269b0                mesh_softdevice_init
 .text.provisionee_start
                0x00026b70       0x18 examples/dfu/CMakeFiles/dfu_nrf52832_xxAA_s132_6.0.0.dir/__/common/src/mesh_provisionee.c.obj
 .text.prov_evt_handler
                0x00026b88       0x64 examples/dfu/CMakeFiles/dfu_nrf52832_xxAA_s132_6.0.0.dir/__/common/src/mesh_provisionee.c.obj
 .text.mesh_provisionee_prov_start
                0x00026bec       0x78 examples/dfu/CMakeFiles/dfu_nrf52832_xxAA_s132_6.0.0.dir/__/common/src/mesh_provisionee.c.obj
                0x00026bec                mesh_provisionee_prov_start
 .text.hal_led_mask_set
                0x00026c64       0x12 examples/dfu/CMakeFiles/dfu_nrf52832_xxAA_s132_6.0.0.dir/__/common/src/simple_hal.c.obj
                0x00026c64                hal_led_mask_set
 *fill*         0x00026c76        0x2 
 .text.hal_led_blink_ms
                0x00026c78       0x44 examples/dfu/CMakeFiles/dfu_nrf52832_xxAA_s132_6.0.0.dir/__/common/src/simple_hal.c.obj
                0x00026c78                hal_led_blink_ms
 .text.hal_leds_init
                0x00026cbc       0x38 examples/dfu/CMakeFiles/dfu_nrf52832_xxAA_s132_6.0.0.dir/__/common/src/simple_hal.c.obj
                0x00026cbc                hal_leds_init
 .text.GPIOTE_IRQHandler
                0x00026cf4       0x60 examples/dfu/CMakeFiles/dfu_nrf52832_xxAA_s132_6.0.0.dir/__/common/src/simple_hal.c.obj
                0x00026cf4                GPIOTE_IRQHandler
 .text.add_to_publication_list
                0x00026d54       0x78 examples/dfu/CMakeFiles/dfu_nrf52832_xxAA_s132_6.0.0.dir/__/__/mesh/access/src/access_publish.c.obj
 .text.step_resolution_to_us
                0x00026dcc       0x38 examples/dfu/CMakeFiles/dfu_nrf52832_xxAA_s132_6.0.0.dir/__/__/mesh/access/src/access_publish.c.obj
 .text.schedule_publication_timer
                0x00026e04      0x184 examples/dfu/CMakeFiles/dfu_nrf52832_xxAA_s132_6.0.0.dir/__/__/mesh/access/src/access_publish.c.obj
 .text.publish_timer_tick
                0x00026f88       0xa8 examples/dfu/CMakeFiles/dfu_nrf52832_xxAA_s132_6.0.0.dir/__/__/mesh/access/src/access_publish.c.obj
 .text.access_publish_init
                0x00027030       0x38 examples/dfu/CMakeFiles/dfu_nrf52832_xxAA_s132_6.0.0.dir/__/__/mesh/access/src/access_publish.c.obj
                0x00027030                access_publish_init
 .text.access_publish_period_set
                0x00027068       0x60 examples/dfu/CMakeFiles/dfu_nrf52832_xxAA_s132_6.0.0.dir/__/__/mesh/access/src/access_publish.c.obj
                0x00027068                access_publish_period_set
 .text.access_publish_period_get
                0x000270c8       0x22 examples/dfu/CMakeFiles/dfu_nrf52832_xxAA_s132_6.0.0.dir/__/__/mesh/access/src/access_publish.c.obj
                0x000270c8                access_publish_period_get
 .text.bitfield_get
                0x000270ea       0x1a examples/dfu/CMakeFiles/dfu_nrf52832_xxAA_s132_6.0.0.dir/__/__/mesh/access/src/access.c.obj
 .text.is_valid_opcode
                0x00027104       0x42 examples/dfu/CMakeFiles/dfu_nrf52832_xxAA_s132_6.0.0.dir/__/__/mesh/access/src/access.c.obj
 *fill*         0x00027146        0x2 
 .text.model_handle_valid_and_allocated
                0x00027148       0x20 examples/dfu/CMakeFiles/dfu_nrf52832_xxAA_s132_6.0.0.dir/__/__/mesh/access/src/access.c.obj
 .text.flash_manager_mem_available
                0x00027168        0x2 examples/dfu/CMakeFiles/dfu_nrf52832_xxAA_s132_6.0.0.dir/__/__/mesh/access/src/access.c.obj
 *fill*         0x0002716a        0x2 
 .text.restore_acquired_subscription
                0x0002716c       0x30 examples/dfu/CMakeFiles/dfu_nrf52832_xxAA_s132_6.0.0.dir/__/__/mesh/access/src/access.c.obj
 .text.restore_acquired_element
                0x0002719c       0x1c examples/dfu/CMakeFiles/dfu_nrf52832_xxAA_s132_6.0.0.dir/__/__/mesh/access/src/access.c.obj
 .text.restore_flash_data
                0x000271b8       0x50 examples/dfu/CMakeFiles/dfu_nrf52832_xxAA_s132_6.0.0.dir/__/__/mesh/access/src/access.c.obj
 .text.flash_invalidate_complete
                0x00027208        0x6 examples/dfu/CMakeFiles/dfu_nrf52832_xxAA_s132_6.0.0.dir/__/__/mesh/access/src/access.c.obj
 *fill*         0x0002720e        0x2 
 .text.access_flash_config_clear
                0x00027210       0x28 examples/dfu/CMakeFiles/dfu_nrf52832_xxAA_s132_6.0.0.dir/__/__/mesh/access/src/access.c.obj
 .text.access_flash_config_store
                0x00027238      0x14c examples/dfu/CMakeFiles/dfu_nrf52832_xxAA_s132_6.0.0.dir/__/__/mesh/access/src/access.c.obj
                0x00027238                access_flash_config_store
 .text.access_state_clear
                0x00027384       0x4c examples/dfu/CMakeFiles/dfu_nrf52832_xxAA_s132_6.0.0.dir/__/__/mesh/access/src/access.c.obj
 .text.add_flash_manager
                0x000273d0       0x58 examples/dfu/CMakeFiles/dfu_nrf52832_xxAA_s132_6.0.0.dir/__/__/mesh/access/src/access.c.obj
 .text.flash_remove_complete
                0x00027428       0x5c examples/dfu/CMakeFiles/dfu_nrf52832_xxAA_s132_6.0.0.dir/__/__/mesh/access/src/access.c.obj
 .text.flash_write_complete
                0x00027484       0x46 examples/dfu/CMakeFiles/dfu_nrf52832_xxAA_s132_6.0.0.dir/__/__/mesh/access/src/access.c.obj
 *fill*         0x000274ca        0x2 
 .text.unlikely.bitfield_next_get.part.0.constprop.4
                0x000274cc       0x34 examples/dfu/CMakeFiles/dfu_nrf52832_xxAA_s132_6.0.0.dir/__/__/mesh/access/src/access.c.obj
 .text.restore_acquired_model
                0x00027500       0x94 examples/dfu/CMakeFiles/dfu_nrf52832_xxAA_s132_6.0.0.dir/__/__/mesh/access/src/access.c.obj
 .text.handle_incoming
                0x00027594      0x144 examples/dfu/CMakeFiles/dfu_nrf52832_xxAA_s132_6.0.0.dir/__/__/mesh/access/src/access.c.obj
 .text.mesh_evt_cb
                0x000276d8      0x134 examples/dfu/CMakeFiles/dfu_nrf52832_xxAA_s132_6.0.0.dir/__/__/mesh/access/src/access.c.obj
 .text.packet_tx
                0x0002780c      0x380 examples/dfu/CMakeFiles/dfu_nrf52832_xxAA_s132_6.0.0.dir/__/__/mesh/access/src/access.c.obj
 .text.access_flash_config_load
                0x00027b8c      0x118 examples/dfu/CMakeFiles/dfu_nrf52832_xxAA_s132_6.0.0.dir/__/__/mesh/access/src/access.c.obj
                0x00027b8c                access_flash_config_load
 .text.access_clear
                0x00027ca4       0x12 examples/dfu/CMakeFiles/dfu_nrf52832_xxAA_s132_6.0.0.dir/__/__/mesh/access/src/access.c.obj
                0x00027ca4                access_clear
 *fill*         0x00027cb6        0x2 
 .text.access_init
                0x00027cb8       0x28 examples/dfu/CMakeFiles/dfu_nrf52832_xxAA_s132_6.0.0.dir/__/__/mesh/access/src/access.c.obj
                0x00027cb8                access_init
 .text.access_model_add
                0x00027ce0      0x1b4 examples/dfu/CMakeFiles/dfu_nrf52832_xxAA_s132_6.0.0.dir/__/__/mesh/access/src/access.c.obj
                0x00027ce0                access_model_add
 .text.access_model_publish
                0x00027e94        0xc examples/dfu/CMakeFiles/dfu_nrf52832_xxAA_s132_6.0.0.dir/__/__/mesh/access/src/access.c.obj
                0x00027e94                access_model_publish
 .text.access_model_reply
                0x00027ea0       0x12 examples/dfu/CMakeFiles/dfu_nrf52832_xxAA_s132_6.0.0.dir/__/__/mesh/access/src/access.c.obj
                0x00027ea0                access_model_reply
 *fill*         0x00027eb2        0x2 
 .text.access_model_publish_address_set
                0x00027eb4       0x3c examples/dfu/CMakeFiles/dfu_nrf52832_xxAA_s132_6.0.0.dir/__/__/mesh/access/src/access.c.obj
                0x00027eb4                access_model_publish_address_set
 .text.access_model_publish_address_get
                0x00027ef0       0x28 examples/dfu/CMakeFiles/dfu_nrf52832_xxAA_s132_6.0.0.dir/__/__/mesh/access/src/access.c.obj
                0x00027ef0                access_model_publish_address_get
 .text.access_model_publish_retransmit_set
                0x00027f18       0x4c examples/dfu/CMakeFiles/dfu_nrf52832_xxAA_s132_6.0.0.dir/__/__/mesh/access/src/access.c.obj
                0x00027f18                access_model_publish_retransmit_set
 .text.access_model_publish_retransmit_get
                0x00027f64       0x2c examples/dfu/CMakeFiles/dfu_nrf52832_xxAA_s132_6.0.0.dir/__/__/mesh/access/src/access.c.obj
                0x00027f64                access_model_publish_retransmit_get
 .text.access_model_publish_period_set
                0x00027f90       0x6c examples/dfu/CMakeFiles/dfu_nrf52832_xxAA_s132_6.0.0.dir/__/__/mesh/access/src/access.c.obj
                0x00027f90                access_model_publish_period_set
 .text.access_model_publish_period_get
                0x00027ffc       0x3c examples/dfu/CMakeFiles/dfu_nrf52832_xxAA_s132_6.0.0.dir/__/__/mesh/access/src/access.c.obj
                0x00027ffc                access_model_publish_period_get
 .text.access_model_subscription_add
                0x00028038       0x60 examples/dfu/CMakeFiles/dfu_nrf52832_xxAA_s132_6.0.0.dir/__/__/mesh/access/src/access.c.obj
                0x00028038                access_model_subscription_add
 .text.access_model_subscription_remove
                0x00028098       0x60 examples/dfu/CMakeFiles/dfu_nrf52832_xxAA_s132_6.0.0.dir/__/__/mesh/access/src/access.c.obj
                0x00028098                access_model_subscription_remove
 .text.access_model_subscriptions_get
                0x000280f8       0x80 examples/dfu/CMakeFiles/dfu_nrf52832_xxAA_s132_6.0.0.dir/__/__/mesh/access/src/access.c.obj
                0x000280f8                access_model_subscriptions_get
 .text.access_model_application_bind
                0x00028178       0x50 examples/dfu/CMakeFiles/dfu_nrf52832_xxAA_s132_6.0.0.dir/__/__/mesh/access/src/access.c.obj
                0x00028178                access_model_application_bind
 .text.access_model_application_unbind
                0x000281c8       0x50 examples/dfu/CMakeFiles/dfu_nrf52832_xxAA_s132_6.0.0.dir/__/__/mesh/access/src/access.c.obj
                0x000281c8                access_model_application_unbind
 .text.access_model_applications_get
                0x00028218       0x64 examples/dfu/CMakeFiles/dfu_nrf52832_xxAA_s132_6.0.0.dir/__/__/mesh/access/src/access.c.obj
                0x00028218                access_model_applications_get
 .text.access_model_publish_application_set
                0x0002827c       0x3c examples/dfu/CMakeFiles/dfu_nrf52832_xxAA_s132_6.0.0.dir/__/__/mesh/access/src/access.c.obj
                0x0002827c                access_model_publish_application_set
 .text.access_model_publish_application_get
                0x000282b8       0x28 examples/dfu/CMakeFiles/dfu_nrf52832_xxAA_s132_6.0.0.dir/__/__/mesh/access/src/access.c.obj
                0x000282b8                access_model_publish_application_get
 .text.access_default_ttl_set
                0x000282e0       0x18 examples/dfu/CMakeFiles/dfu_nrf52832_xxAA_s132_6.0.0.dir/__/__/mesh/access/src/access.c.obj
                0x000282e0                access_default_ttl_set
 .text.access_default_ttl_get
                0x000282f8        0xc examples/dfu/CMakeFiles/dfu_nrf52832_xxAA_s132_6.0.0.dir/__/__/mesh/access/src/access.c.obj
                0x000282f8                access_default_ttl_get
 .text.access_model_publish_ttl_set
                0x00028304       0x40 examples/dfu/CMakeFiles/dfu_nrf52832_xxAA_s132_6.0.0.dir/__/__/mesh/access/src/access.c.obj
                0x00028304                access_model_publish_ttl_set
 .text.access_model_publish_ttl_get
                0x00028344       0x28 examples/dfu/CMakeFiles/dfu_nrf52832_xxAA_s132_6.0.0.dir/__/__/mesh/access/src/access.c.obj
                0x00028344                access_model_publish_ttl_get
 .text.access_element_location_set
                0x0002836c       0x20 examples/dfu/CMakeFiles/dfu_nrf52832_xxAA_s132_6.0.0.dir/__/__/mesh/access/src/access.c.obj
                0x0002836c                access_element_location_set
 .text.access_element_location_get
                0x0002838c       0x18 examples/dfu/CMakeFiles/dfu_nrf52832_xxAA_s132_6.0.0.dir/__/__/mesh/access/src/access.c.obj
                0x0002838c                access_element_location_get
 .text.access_element_sig_model_count_get
                0x000283a4       0x18 examples/dfu/CMakeFiles/dfu_nrf52832_xxAA_s132_6.0.0.dir/__/__/mesh/access/src/access.c.obj
                0x000283a4                access_element_sig_model_count_get
 .text.access_element_vendor_model_count_get
                0x000283bc       0x18 examples/dfu/CMakeFiles/dfu_nrf52832_xxAA_s132_6.0.0.dir/__/__/mesh/access/src/access.c.obj
                0x000283bc                access_element_vendor_model_count_get
 .text.access_model_id_get
                0x000283d4       0x2c examples/dfu/CMakeFiles/dfu_nrf52832_xxAA_s132_6.0.0.dir/__/__/mesh/access/src/access.c.obj
                0x000283d4                access_model_id_get
 .text.access_handle_get
                0x00028400       0x54 examples/dfu/CMakeFiles/dfu_nrf52832_xxAA_s132_6.0.0.dir/__/__/mesh/access/src/access.c.obj
                0x00028400                access_handle_get
 .text.access_element_models_get
                0x00028454       0x48 examples/dfu/CMakeFiles/dfu_nrf52832_xxAA_s132_6.0.0.dir/__/__/mesh/access/src/access.c.obj
                0x00028454                access_element_models_get
 .text.access_model_p_args_get
                0x0002849c       0x28 examples/dfu/CMakeFiles/dfu_nrf52832_xxAA_s132_6.0.0.dir/__/__/mesh/access/src/access.c.obj
                0x0002849c                access_model_p_args_get
 .text.access_model_publication_stop
                0x000284c4       0x70 examples/dfu/CMakeFiles/dfu_nrf52832_xxAA_s132_6.0.0.dir/__/__/mesh/access/src/access.c.obj
                0x000284c4                access_model_publication_stop
 .text.access_model_publication_by_appkey_stop
                0x00028534       0x36 examples/dfu/CMakeFiles/dfu_nrf52832_xxAA_s132_6.0.0.dir/__/__/mesh/access/src/access.c.obj
                0x00028534                access_model_publication_by_appkey_stop
 *fill*         0x0002856a        0x2 
 .text.reliable_timer_cb
                0x0002856c      0x11c examples/dfu/CMakeFiles/dfu_nrf52832_xxAA_s132_6.0.0.dir/__/__/mesh/access/src/access_reliable.c.obj
 .text.remove_and_reschedule
                0x00028688       0xb8 examples/dfu/CMakeFiles/dfu_nrf52832_xxAA_s132_6.0.0.dir/__/__/mesh/access/src/access_reliable.c.obj
 .text.access_reliable_message_rx_cb
                0x00028740       0x68 examples/dfu/CMakeFiles/dfu_nrf52832_xxAA_s132_6.0.0.dir/__/__/mesh/access/src/access_reliable.c.obj
                0x00028740                access_reliable_message_rx_cb
 .text.access_reliable_init
                0x000287a8       0x1c examples/dfu/CMakeFiles/dfu_nrf52832_xxAA_s132_6.0.0.dir/__/__/mesh/access/src/access_reliable.c.obj
                0x000287a8                access_reliable_init
 .text.access_reliable_cancel_all
                0x000287c4       0x60 examples/dfu/CMakeFiles/dfu_nrf52832_xxAA_s132_6.0.0.dir/__/__/mesh/access/src/access_reliable.c.obj
                0x000287c4                access_reliable_cancel_all
 .text.access_model_reliable_cancel
                0x00028824       0x6c examples/dfu/CMakeFiles/dfu_nrf52832_xxAA_s132_6.0.0.dir/__/__/mesh/access/src/access_reliable.c.obj
                0x00028824                access_model_reliable_cancel
 .text.bitfield_get
                0x00028890       0x1a examples/dfu/CMakeFiles/dfu_nrf52832_xxAA_s132_6.0.0.dir/__/__/mesh/access/src/device_state_manager.c.obj
 .text.bitfield_set
                0x000288aa       0x18 examples/dfu/CMakeFiles/dfu_nrf52832_xxAA_s132_6.0.0.dir/__/__/mesh/access/src/device_state_manager.c.obj
 .text.bitfield_clear
                0x000288c2       0x1a examples/dfu/CMakeFiles/dfu_nrf52832_xxAA_s132_6.0.0.dir/__/__/mesh/access/src/device_state_manager.c.obj
 .text.bitfield_is_all_clear
                0x000288dc       0x3c examples/dfu/CMakeFiles/dfu_nrf52832_xxAA_s132_6.0.0.dir/__/__/mesh/access/src/device_state_manager.c.obj
 .text.address_handle_virtual_valid
                0x00028918       0x18 examples/dfu/CMakeFiles/dfu_nrf52832_xxAA_s132_6.0.0.dir/__/__/mesh/access/src/device_state_manager.c.obj
 .text.net_key_handle_get
                0x00028930       0x58 examples/dfu/CMakeFiles/dfu_nrf52832_xxAA_s132_6.0.0.dir/__/__/mesh/access/src/device_state_manager.c.obj
 .text.dev_key_handle_get
                0x00028988       0x30 examples/dfu/CMakeFiles/dfu_nrf52832_xxAA_s132_6.0.0.dir/__/__/mesh/access/src/device_state_manager.c.obj
 .text.app_key_handle_get
                0x000289b8       0x58 examples/dfu/CMakeFiles/dfu_nrf52832_xxAA_s132_6.0.0.dir/__/__/mesh/access/src/device_state_manager.c.obj
 .text.addr_nonvirtual_to_flash_entry
                0x00028a10       0x10 examples/dfu/CMakeFiles/dfu_nrf52832_xxAA_s132_6.0.0.dir/__/__/mesh/access/src/device_state_manager.c.obj
 .text.devkey_set
                0x00028a20       0x50 examples/dfu/CMakeFiles/dfu_nrf52832_xxAA_s132_6.0.0.dir/__/__/mesh/access/src/device_state_manager.c.obj
 .text.devkey_to_dsm_entry
                0x00028a70       0x18 examples/dfu/CMakeFiles/dfu_nrf52832_xxAA_s132_6.0.0.dir/__/__/mesh/access/src/device_state_manager.c.obj
 .text.devkey_to_flash_entry
                0x00028a88       0x28 examples/dfu/CMakeFiles/dfu_nrf52832_xxAA_s132_6.0.0.dir/__/__/mesh/access/src/device_state_manager.c.obj
 .text.addr_virtual_to_flash_entry
                0x00028ab0       0x18 examples/dfu/CMakeFiles/dfu_nrf52832_xxAA_s132_6.0.0.dir/__/__/mesh/access/src/device_state_manager.c.obj
 .text.addr_unicast_to_dsm_entry
                0x00028ac8        0xc examples/dfu/CMakeFiles/dfu_nrf52832_xxAA_s132_6.0.0.dir/__/__/mesh/access/src/device_state_manager.c.obj
 .text.addr_unicast_to_flash_entry
                0x00028ad4       0x10 examples/dfu/CMakeFiles/dfu_nrf52832_xxAA_s132_6.0.0.dir/__/__/mesh/access/src/device_state_manager.c.obj
 .text.flash_mem_listener_callback
                0x00028ae4       0x14 examples/dfu/CMakeFiles/dfu_nrf52832_xxAA_s132_6.0.0.dir/__/__/mesh/access/src/device_state_manager.c.obj
 .text.get_subnet_handle
                0x00028af8       0x40 examples/dfu/CMakeFiles/dfu_nrf52832_xxAA_s132_6.0.0.dir/__/__/mesh/access/src/device_state_manager.c.obj
 .text.appkey_set
                0x00028b38       0x70 examples/dfu/CMakeFiles/dfu_nrf52832_xxAA_s132_6.0.0.dir/__/__/mesh/access/src/device_state_manager.c.obj
 .text.appkey_to_flash_entry
                0x00028ba8       0x54 examples/dfu/CMakeFiles/dfu_nrf52832_xxAA_s132_6.0.0.dir/__/__/mesh/access/src/device_state_manager.c.obj
 .text.subnet_to_flash_entry
                0x00028bfc       0x60 examples/dfu/CMakeFiles/dfu_nrf52832_xxAA_s132_6.0.0.dir/__/__/mesh/access/src/device_state_manager.c.obj
 .text.bitfield_clear_all
                0x00028c5c        0xe examples/dfu/CMakeFiles/dfu_nrf52832_xxAA_s132_6.0.0.dir/__/__/mesh/access/src/device_state_manager.c.obj
 *fill*         0x00028c6a        0x2 
 .text.subnet_set
                0x00028c6c       0x98 examples/dfu/CMakeFiles/dfu_nrf52832_xxAA_s132_6.0.0.dir/__/__/mesh/access/src/device_state_manager.c.obj
 .text.virtual_address_set
                0x00028d04       0x4c examples/dfu/CMakeFiles/dfu_nrf52832_xxAA_s132_6.0.0.dir/__/__/mesh/access/src/device_state_manager.c.obj
 .text.addr_virtual_to_dsm_entry
                0x00028d50        0xe examples/dfu/CMakeFiles/dfu_nrf52832_xxAA_s132_6.0.0.dir/__/__/mesh/access/src/device_state_manager.c.obj
 *fill*         0x00028d5e        0x2 
 .text.reset_flash_area
                0x00028d60       0x28 examples/dfu/CMakeFiles/dfu_nrf52832_xxAA_s132_6.0.0.dir/__/__/mesh/access/src/device_state_manager.c.obj
 .text.flash_save
                0x00028d88       0x7c examples/dfu/CMakeFiles/dfu_nrf52832_xxAA_s132_6.0.0.dir/__/__/mesh/access/src/device_state_manager.c.obj
 .text.flash_invalidate
                0x00028e04       0x64 examples/dfu/CMakeFiles/dfu_nrf52832_xxAA_s132_6.0.0.dir/__/__/mesh/access/src/device_state_manager.c.obj
 .text.flash_update_all
                0x00028e68       0x6c examples/dfu/CMakeFiles/dfu_nrf52832_xxAA_s132_6.0.0.dir/__/__/mesh/access/src/device_state_manager.c.obj
 .text.virtual_address_uuid_index_get
                0x00028ed4       0x60 examples/dfu/CMakeFiles/dfu_nrf52832_xxAA_s132_6.0.0.dir/__/__/mesh/access/src/device_state_manager.c.obj
 .text.add_address_virtual
                0x00028f34       0x74 examples/dfu/CMakeFiles/dfu_nrf52832_xxAA_s132_6.0.0.dir/__/__/mesh/access/src/device_state_manager.c.obj
 .text.get_subnet_handle_by_beacon_info
                0x00028fa8       0x30 examples/dfu/CMakeFiles/dfu_nrf52832_xxAA_s132_6.0.0.dir/__/__/mesh/access/src/device_state_manager.c.obj
 .text.get_app_handle
                0x00028fd8       0x44 examples/dfu/CMakeFiles/dfu_nrf52832_xxAA_s132_6.0.0.dir/__/__/mesh/access/src/device_state_manager.c.obj
 .text.appkey_to_dsm_entry
                0x0002901c       0x68 examples/dfu/CMakeFiles/dfu_nrf52832_xxAA_s132_6.0.0.dir/__/__/mesh/access/src/device_state_manager.c.obj
 .text.subnet_to_dsm_entry
                0x00029084       0x68 examples/dfu/CMakeFiles/dfu_nrf52832_xxAA_s132_6.0.0.dir/__/__/mesh/access/src/device_state_manager.c.obj
 .text.flash_operation_complete
                0x000290ec       0x4c examples/dfu/CMakeFiles/dfu_nrf52832_xxAA_s132_6.0.0.dir/__/__/mesh/access/src/device_state_manager.c.obj
 .text.flash_invalidate_complete
                0x00029138        0x8 examples/dfu/CMakeFiles/dfu_nrf52832_xxAA_s132_6.0.0.dir/__/__/mesh/access/src/device_state_manager.c.obj
 .text.flash_write_complete
                0x00029140        0x8 examples/dfu/CMakeFiles/dfu_nrf52832_xxAA_s132_6.0.0.dir/__/__/mesh/access/src/device_state_manager.c.obj
 .text.add_address.part.8
                0x00029148      0x164 examples/dfu/CMakeFiles/dfu_nrf52832_xxAA_s132_6.0.0.dir/__/__/mesh/access/src/device_state_manager.c.obj
 .text.bitfield_next_get.part.0.constprop.17
                0x000292ac       0x3c examples/dfu/CMakeFiles/dfu_nrf52832_xxAA_s132_6.0.0.dir/__/__/mesh/access/src/device_state_manager.c.obj
 .text.address_handle_valid
                0x000292e8       0x28 examples/dfu/CMakeFiles/dfu_nrf52832_xxAA_s132_6.0.0.dir/__/__/mesh/access/src/device_state_manager.c.obj
 .text.address_handle_nonvirtual_valid
                0x00029310       0x14 examples/dfu/CMakeFiles/dfu_nrf52832_xxAA_s132_6.0.0.dir/__/__/mesh/access/src/device_state_manager.c.obj
 .text.address_delete_if_unused
                0x00029324       0x78 examples/dfu/CMakeFiles/dfu_nrf52832_xxAA_s132_6.0.0.dir/__/__/mesh/access/src/device_state_manager.c.obj
 .text.addr_nonvirtual_to_dsm_entry
                0x0002939c       0x38 examples/dfu/CMakeFiles/dfu_nrf52832_xxAA_s132_6.0.0.dir/__/__/mesh/access/src/device_state_manager.c.obj
 .text.dsm_flash_config_load
                0x000293d4      0x120 examples/dfu/CMakeFiles/dfu_nrf52832_xxAA_s132_6.0.0.dir/__/__/mesh/access/src/device_state_manager.c.obj
                0x000293d4                dsm_flash_config_load
 .text.dsm_flash_area_get
                0x000294f4        0xc examples/dfu/CMakeFiles/dfu_nrf52832_xxAA_s132_6.0.0.dir/__/__/mesh/access/src/device_state_manager.c.obj
                0x000294f4                dsm_flash_area_get
 .text.build_flash_area
                0x00029500       0x8c examples/dfu/CMakeFiles/dfu_nrf52832_xxAA_s132_6.0.0.dir/__/__/mesh/access/src/device_state_manager.c.obj
 .text.flash_remove_complete
                0x0002958c        0x4 examples/dfu/CMakeFiles/dfu_nrf52832_xxAA_s132_6.0.0.dir/__/__/mesh/access/src/device_state_manager.c.obj
 .text.dsm_clear
                0x00029590       0xb4 examples/dfu/CMakeFiles/dfu_nrf52832_xxAA_s132_6.0.0.dir/__/__/mesh/access/src/device_state_manager.c.obj
                0x00029590                dsm_clear
 .text.dsm_init
                0x00029644       0x3c examples/dfu/CMakeFiles/dfu_nrf52832_xxAA_s132_6.0.0.dir/__/__/mesh/access/src/device_state_manager.c.obj
                0x00029644                dsm_init
 .text.dsm_local_unicast_addresses_set
                0x00029680       0x78 examples/dfu/CMakeFiles/dfu_nrf52832_xxAA_s132_6.0.0.dir/__/__/mesh/access/src/device_state_manager.c.obj
                0x00029680                dsm_local_unicast_addresses_set
 .text.dsm_local_unicast_addresses_get
                0x000296f8       0x20 examples/dfu/CMakeFiles/dfu_nrf52832_xxAA_s132_6.0.0.dir/__/__/mesh/access/src/device_state_manager.c.obj
                0x000296f8                dsm_local_unicast_addresses_get
 .text.dsm_address_publish_add
                0x00029718        0xc examples/dfu/CMakeFiles/dfu_nrf52832_xxAA_s132_6.0.0.dir/__/__/mesh/access/src/device_state_manager.c.obj
                0x00029718                dsm_address_publish_add
 .text.dsm_address_publish_add_handle
                0x00029724       0x38 examples/dfu/CMakeFiles/dfu_nrf52832_xxAA_s132_6.0.0.dir/__/__/mesh/access/src/device_state_manager.c.obj
                0x00029724                dsm_address_publish_add_handle
 .text.dsm_address_publish_virtual_add
                0x0002975c        0x6 examples/dfu/CMakeFiles/dfu_nrf52832_xxAA_s132_6.0.0.dir/__/__/mesh/access/src/device_state_manager.c.obj
                0x0002975c                dsm_address_publish_virtual_add
 *fill*         0x00029762        0x2 
 .text.dsm_address_publish_remove
                0x00029764       0x44 examples/dfu/CMakeFiles/dfu_nrf52832_xxAA_s132_6.0.0.dir/__/__/mesh/access/src/device_state_manager.c.obj
                0x00029764                dsm_address_publish_remove
 .text.dsm_address_subscription_add
                0x000297a8        0xc examples/dfu/CMakeFiles/dfu_nrf52832_xxAA_s132_6.0.0.dir/__/__/mesh/access/src/device_state_manager.c.obj
                0x000297a8                dsm_address_subscription_add
 .text.dsm_address_subscription_virtual_add
                0x000297b4        0x6 examples/dfu/CMakeFiles/dfu_nrf52832_xxAA_s132_6.0.0.dir/__/__/mesh/access/src/device_state_manager.c.obj
                0x000297b4                dsm_address_subscription_virtual_add
 *fill*         0x000297ba        0x2 
 .text.dsm_address_subscription_add_handle
                0x000297bc       0x38 examples/dfu/CMakeFiles/dfu_nrf52832_xxAA_s132_6.0.0.dir/__/__/mesh/access/src/device_state_manager.c.obj
                0x000297bc                dsm_address_subscription_add_handle
 .text.dsm_address_subscription_get
                0x000297f4       0x34 examples/dfu/CMakeFiles/dfu_nrf52832_xxAA_s132_6.0.0.dir/__/__/mesh/access/src/device_state_manager.c.obj
                0x000297f4                dsm_address_subscription_get
 .text.dsm_address_get
                0x00029828       0x5c examples/dfu/CMakeFiles/dfu_nrf52832_xxAA_s132_6.0.0.dir/__/__/mesh/access/src/device_state_manager.c.obj
                0x00029828                dsm_address_get
 .text.dsm_address_subscription_remove
                0x00029884       0x5c examples/dfu/CMakeFiles/dfu_nrf52832_xxAA_s132_6.0.0.dir/__/__/mesh/access/src/device_state_manager.c.obj
                0x00029884                dsm_address_subscription_remove
 .text.dsm_address_get_all
                0x000298e0       0x74 examples/dfu/CMakeFiles/dfu_nrf52832_xxAA_s132_6.0.0.dir/__/__/mesh/access/src/device_state_manager.c.obj
                0x000298e0                dsm_address_get_all
 .text.dsm_address_handle_get
                0x00029954       0x98 examples/dfu/CMakeFiles/dfu_nrf52832_xxAA_s132_6.0.0.dir/__/__/mesh/access/src/device_state_manager.c.obj
                0x00029954                dsm_address_handle_get
 .text.dsm_net_key_index_to_subnet_handle
                0x000299ec       0x1c examples/dfu/CMakeFiles/dfu_nrf52832_xxAA_s132_6.0.0.dir/__/__/mesh/access/src/device_state_manager.c.obj
                0x000299ec                dsm_net_key_index_to_subnet_handle
 .text.dsm_subnet_handle_get
                0x00029a08        0xc examples/dfu/CMakeFiles/dfu_nrf52832_xxAA_s132_6.0.0.dir/__/__/mesh/access/src/device_state_manager.c.obj
                0x00029a08                dsm_subnet_handle_get
 .text.dsm_appkey_index_to_appkey_handle
                0x00029a14       0x1c examples/dfu/CMakeFiles/dfu_nrf52832_xxAA_s132_6.0.0.dir/__/__/mesh/access/src/device_state_manager.c.obj
                0x00029a14                dsm_appkey_index_to_appkey_handle
 .text.dsm_appkey_handle_get
                0x00029a30        0xc examples/dfu/CMakeFiles/dfu_nrf52832_xxAA_s132_6.0.0.dir/__/__/mesh/access/src/device_state_manager.c.obj
                0x00029a30                dsm_appkey_handle_get
 .text.dsm_appkey_handle_to_appkey_index
                0x00029a3c       0x34 examples/dfu/CMakeFiles/dfu_nrf52832_xxAA_s132_6.0.0.dir/__/__/mesh/access/src/device_state_manager.c.obj
                0x00029a3c                dsm_appkey_handle_to_appkey_index
 .text.dsm_appkey_handle_to_subnet_handle
                0x00029a70       0xa0 examples/dfu/CMakeFiles/dfu_nrf52832_xxAA_s132_6.0.0.dir/__/__/mesh/access/src/device_state_manager.c.obj
                0x00029a70                dsm_appkey_handle_to_subnet_handle
 .text.dsm_subnet_add
                0x00029b10       0x78 examples/dfu/CMakeFiles/dfu_nrf52832_xxAA_s132_6.0.0.dir/__/__/mesh/access/src/device_state_manager.c.obj
                0x00029b10                dsm_subnet_add
 .text.dsm_subnet_kr_phase_get
                0x00029b88       0x34 examples/dfu/CMakeFiles/dfu_nrf52832_xxAA_s132_6.0.0.dir/__/__/mesh/access/src/device_state_manager.c.obj
                0x00029b88                dsm_subnet_kr_phase_get
 .text.dsm_subnet_update
                0x00029bbc       0xc8 examples/dfu/CMakeFiles/dfu_nrf52832_xxAA_s132_6.0.0.dir/__/__/mesh/access/src/device_state_manager.c.obj
                0x00029bbc                dsm_subnet_update
 .text.dsm_subnet_update_swap_keys
                0x00029c84       0x5c examples/dfu/CMakeFiles/dfu_nrf52832_xxAA_s132_6.0.0.dir/__/__/mesh/access/src/device_state_manager.c.obj
                0x00029c84                dsm_subnet_update_swap_keys
 .text.dsm_subnet_update_commit
                0x00029ce0       0xf4 examples/dfu/CMakeFiles/dfu_nrf52832_xxAA_s132_6.0.0.dir/__/__/mesh/access/src/device_state_manager.c.obj
                0x00029ce0                dsm_subnet_update_commit
 .text.mesh_evt_handler
                0x00029dd4       0x4c examples/dfu/CMakeFiles/dfu_nrf52832_xxAA_s132_6.0.0.dir/__/__/mesh/access/src/device_state_manager.c.obj
 .text.dsm_subnet_get_all
                0x00029e20       0x60 examples/dfu/CMakeFiles/dfu_nrf52832_xxAA_s132_6.0.0.dir/__/__/mesh/access/src/device_state_manager.c.obj
                0x00029e20                dsm_subnet_get_all
 .text.dsm_devkey_add
                0x00029e80       0x7c examples/dfu/CMakeFiles/dfu_nrf52832_xxAA_s132_6.0.0.dir/__/__/mesh/access/src/device_state_manager.c.obj
                0x00029e80                dsm_devkey_add
 .text.dsm_devkey_delete
                0x00029efc       0x38 examples/dfu/CMakeFiles/dfu_nrf52832_xxAA_s132_6.0.0.dir/__/__/mesh/access/src/device_state_manager.c.obj
                0x00029efc                dsm_devkey_delete
 .text.dsm_appkey_add
                0x00029f34       0x90 examples/dfu/CMakeFiles/dfu_nrf52832_xxAA_s132_6.0.0.dir/__/__/mesh/access/src/device_state_manager.c.obj
                0x00029f34                dsm_appkey_add
 .text.dsm_appkey_update
                0x00029fc4       0xa4 examples/dfu/CMakeFiles/dfu_nrf52832_xxAA_s132_6.0.0.dir/__/__/mesh/access/src/device_state_manager.c.obj
                0x00029fc4                dsm_appkey_update
 .text.dsm_appkey_delete
                0x0002a068       0x30 examples/dfu/CMakeFiles/dfu_nrf52832_xxAA_s132_6.0.0.dir/__/__/mesh/access/src/device_state_manager.c.obj
                0x0002a068                dsm_appkey_delete
 .text.dsm_subnet_delete
                0x0002a098       0xac examples/dfu/CMakeFiles/dfu_nrf52832_xxAA_s132_6.0.0.dir/__/__/mesh/access/src/device_state_manager.c.obj
                0x0002a098                dsm_subnet_delete
 .text.dsm_appkey_get_all
                0x0002a144       0x88 examples/dfu/CMakeFiles/dfu_nrf52832_xxAA_s132_6.0.0.dir/__/__/mesh/access/src/device_state_manager.c.obj
                0x0002a144                dsm_appkey_get_all
 .text.dsm_tx_secmat_get
                0x0002a1cc       0xc4 examples/dfu/CMakeFiles/dfu_nrf52832_xxAA_s132_6.0.0.dir/__/__/mesh/access/src/device_state_manager.c.obj
                0x0002a1cc                dsm_tx_secmat_get
 .text.dsm_net_secmat_from_keyindex_get
                0x0002a290       0x3c examples/dfu/CMakeFiles/dfu_nrf52832_xxAA_s132_6.0.0.dir/__/__/mesh/access/src/device_state_manager.c.obj
                0x0002a290                dsm_net_secmat_from_keyindex_get
 .text.nrf_mesh_net_secmat_next_get
                0x0002a2cc       0xb4 examples/dfu/CMakeFiles/dfu_nrf52832_xxAA_s132_6.0.0.dir/__/__/mesh/access/src/device_state_manager.c.obj
                0x0002a2cc                nrf_mesh_net_secmat_next_get
 .text.nrf_mesh_app_secmat_next_get
                0x0002a380       0x88 examples/dfu/CMakeFiles/dfu_nrf52832_xxAA_s132_6.0.0.dir/__/__/mesh/access/src/device_state_manager.c.obj
                0x0002a380                nrf_mesh_app_secmat_next_get
 .text.nrf_mesh_devkey_secmat_get
                0x0002a408       0x28 examples/dfu/CMakeFiles/dfu_nrf52832_xxAA_s132_6.0.0.dir/__/__/mesh/access/src/device_state_manager.c.obj
                0x0002a408                nrf_mesh_devkey_secmat_get
 .text.nrf_mesh_beacon_info_next_get
                0x0002a430       0xd4 examples/dfu/CMakeFiles/dfu_nrf52832_xxAA_s132_6.0.0.dir/__/__/mesh/access/src/device_state_manager.c.obj
                0x0002a430                nrf_mesh_beacon_info_next_get
 .text.nrf_mesh_rx_address_get
                0x0002a504      0x118 examples/dfu/CMakeFiles/dfu_nrf52832_xxAA_s132_6.0.0.dir/__/__/mesh/access/src/device_state_manager.c.obj
                0x0002a504                nrf_mesh_rx_address_get
 .text.nrf_mesh_unicast_address_get
                0x0002a61c       0x20 examples/dfu/CMakeFiles/dfu_nrf52832_xxAA_s132_6.0.0.dir/__/__/mesh/access/src/device_state_manager.c.obj
                0x0002a61c                nrf_mesh_unicast_address_get
 .text.serial_uart_init
                0x0002a63c       0xa0 examples/dfu/CMakeFiles/dfu_nrf52832_xxAA_s132_6.0.0.dir/__/__/mesh/serial/src/serial_uart.c.obj
                0x0002a63c                serial_uart_init
 .text.serial_uart_process
                0x0002a6dc       0x5c examples/dfu/CMakeFiles/dfu_nrf52832_xxAA_s132_6.0.0.dir/__/__/mesh/serial/src/serial_uart.c.obj
                0x0002a6dc                serial_uart_process
 .text.UARTE0_UART0_IRQHandler
                0x0002a738        0x4 examples/dfu/CMakeFiles/dfu_nrf52832_xxAA_s132_6.0.0.dir/__/__/mesh/serial/src/serial_uart.c.obj
                0x0002a738                UARTE0_UART0_IRQHandler
 .text.serial_uart_receive_set
                0x0002a73c        0xc examples/dfu/CMakeFiles/dfu_nrf52832_xxAA_s132_6.0.0.dir/__/__/mesh/serial/src/serial_uart.c.obj
                0x0002a73c                serial_uart_receive_set
 .text.do_transmit
                0x0002a748       0x44 examples/dfu/CMakeFiles/dfu_nrf52832_xxAA_s132_6.0.0.dir/__/__/mesh/serial/src/serial_bearer.c.obj
 .text.char_tx  0x0002a78c       0x78 examples/dfu/CMakeFiles/dfu_nrf52832_xxAA_s132_6.0.0.dir/__/__/mesh/serial/src/serial_bearer.c.obj
 .text.serial_bearer_init
                0x0002a804       0x74 examples/dfu/CMakeFiles/dfu_nrf52832_xxAA_s132_6.0.0.dir/__/__/mesh/serial/src/serial_bearer.c.obj
                0x0002a804                serial_bearer_init
 .text.serial_bearer_packet_buffer_get
                0x0002a878       0x24 examples/dfu/CMakeFiles/dfu_nrf52832_xxAA_s132_6.0.0.dir/__/__/mesh/serial/src/serial_bearer.c.obj
                0x0002a878                serial_bearer_packet_buffer_get
 .text.serial_bearer_blocking_buffer_get
                0x0002a89c       0x38 examples/dfu/CMakeFiles/dfu_nrf52832_xxAA_s132_6.0.0.dir/__/__/mesh/serial/src/serial_bearer.c.obj
                0x0002a89c                serial_bearer_blocking_buffer_get
 .text.serial_bearer_tx
                0x0002a8d4       0x54 examples/dfu/CMakeFiles/dfu_nrf52832_xxAA_s132_6.0.0.dir/__/__/mesh/serial/src/serial_bearer.c.obj
                0x0002a8d4                serial_bearer_tx
 .text.send_cmd_response.constprop.5
                0x0002a928       0x26 examples/dfu/CMakeFiles/dfu_nrf52832_xxAA_s132_6.0.0.dir/__/__/mesh/serial/src/serial_bearer.c.obj
 *fill*         0x0002a94e        0x2 
 .text.char_rx  0x0002a950       0xc0 examples/dfu/CMakeFiles/dfu_nrf52832_xxAA_s132_6.0.0.dir/__/__/mesh/serial/src/serial_bearer.c.obj
 .text.serial_bearer_rx_get
                0x0002aa10       0x38 examples/dfu/CMakeFiles/dfu_nrf52832_xxAA_s132_6.0.0.dir/__/__/mesh/serial/src/serial_bearer.c.obj
                0x0002aa10                serial_bearer_rx_get
 .text.serial_handler_common_cmd_rsp_nodata_on_error
                0x0002aa48       0x2a examples/dfu/CMakeFiles/dfu_nrf52832_xxAA_s132_6.0.0.dir/__/__/mesh/serial/src/serial_handler_common.c.obj
                0x0002aa48                serial_handler_common_cmd_rsp_nodata_on_error
 .text.serial_handler_common_rx
                0x0002aa72       0x4a examples/dfu/CMakeFiles/dfu_nrf52832_xxAA_s132_6.0.0.dir/__/__/mesh/serial/src/serial_handler_common.c.obj
                0x0002aa72                serial_handler_common_rx
 .text.access_flash_store
                0x0002aabc       0x18 examples/dfu/CMakeFiles/dfu_nrf52832_xxAA_s132_6.0.0.dir/__/__/mesh/serial/src/serial_handler_access.c.obj
 .text.elem_models_get
                0x0002aad4       0x44 examples/dfu/CMakeFiles/dfu_nrf52832_xxAA_s132_6.0.0.dir/__/__/mesh/serial/src/serial_handler_access.c.obj
 .text.handle_get
                0x0002ab18       0x1e examples/dfu/CMakeFiles/dfu_nrf52832_xxAA_s132_6.0.0.dir/__/__/mesh/serial/src/serial_handler_access.c.obj
 .text.model_id_get
                0x0002ab36       0x1e examples/dfu/CMakeFiles/dfu_nrf52832_xxAA_s132_6.0.0.dir/__/__/mesh/serial/src/serial_handler_access.c.obj
 .text.elem_vendor_model_cnt_get
                0x0002ab54       0x1c examples/dfu/CMakeFiles/dfu_nrf52832_xxAA_s132_6.0.0.dir/__/__/mesh/serial/src/serial_handler_access.c.obj
 .text.elem_sig_model_cnt_get
                0x0002ab70       0x1c examples/dfu/CMakeFiles/dfu_nrf52832_xxAA_s132_6.0.0.dir/__/__/mesh/serial/src/serial_handler_access.c.obj
 .text.elem_loc_get
                0x0002ab8c       0x1c examples/dfu/CMakeFiles/dfu_nrf52832_xxAA_s132_6.0.0.dir/__/__/mesh/serial/src/serial_handler_access.c.obj
 .text.elem_loc_set
                0x0002aba8       0x22 examples/dfu/CMakeFiles/dfu_nrf52832_xxAA_s132_6.0.0.dir/__/__/mesh/serial/src/serial_handler_access.c.obj
 .text.model_pub_ttl_get
                0x0002abca       0x1c examples/dfu/CMakeFiles/dfu_nrf52832_xxAA_s132_6.0.0.dir/__/__/mesh/serial/src/serial_handler_access.c.obj
 .text.model_pub_ttl_set
                0x0002abe6       0x22 examples/dfu/CMakeFiles/dfu_nrf52832_xxAA_s132_6.0.0.dir/__/__/mesh/serial/src/serial_handler_access.c.obj
 .text.model_pub_app_get
                0x0002ac08       0x1c examples/dfu/CMakeFiles/dfu_nrf52832_xxAA_s132_6.0.0.dir/__/__/mesh/serial/src/serial_handler_access.c.obj
 .text.model_pub_app_set
                0x0002ac24       0x22 examples/dfu/CMakeFiles/dfu_nrf52832_xxAA_s132_6.0.0.dir/__/__/mesh/serial/src/serial_handler_access.c.obj
 .text.model_app_get
                0x0002ac46       0x44 examples/dfu/CMakeFiles/dfu_nrf52832_xxAA_s132_6.0.0.dir/__/__/mesh/serial/src/serial_handler_access.c.obj
 .text.model_app_unbind
                0x0002ac8a       0x22 examples/dfu/CMakeFiles/dfu_nrf52832_xxAA_s132_6.0.0.dir/__/__/mesh/serial/src/serial_handler_access.c.obj
 .text.model_app_bind
                0x0002acac       0x22 examples/dfu/CMakeFiles/dfu_nrf52832_xxAA_s132_6.0.0.dir/__/__/mesh/serial/src/serial_handler_access.c.obj
 .text.model_subs_get
                0x0002acce       0x44 examples/dfu/CMakeFiles/dfu_nrf52832_xxAA_s132_6.0.0.dir/__/__/mesh/serial/src/serial_handler_access.c.obj
 .text.model_subs_remove
                0x0002ad12       0x22 examples/dfu/CMakeFiles/dfu_nrf52832_xxAA_s132_6.0.0.dir/__/__/mesh/serial/src/serial_handler_access.c.obj
 .text.model_subs_add
                0x0002ad34       0x22 examples/dfu/CMakeFiles/dfu_nrf52832_xxAA_s132_6.0.0.dir/__/__/mesh/serial/src/serial_handler_access.c.obj
 .text.model_pub_period_get
                0x0002ad56       0x20 examples/dfu/CMakeFiles/dfu_nrf52832_xxAA_s132_6.0.0.dir/__/__/mesh/serial/src/serial_handler_access.c.obj
 .text.model_pub_period_set
                0x0002ad76       0x24 examples/dfu/CMakeFiles/dfu_nrf52832_xxAA_s132_6.0.0.dir/__/__/mesh/serial/src/serial_handler_access.c.obj
 .text.model_pub_addr_get
                0x0002ad9a       0x1c examples/dfu/CMakeFiles/dfu_nrf52832_xxAA_s132_6.0.0.dir/__/__/mesh/serial/src/serial_handler_access.c.obj
 .text.model_pub_addr_set
                0x0002adb6       0x22 examples/dfu/CMakeFiles/dfu_nrf52832_xxAA_s132_6.0.0.dir/__/__/mesh/serial/src/serial_handler_access.c.obj
 .text.serial_handler_access_rx
                0x0002add8       0x24 examples/dfu/CMakeFiles/dfu_nrf52832_xxAA_s132_6.0.0.dir/__/__/mesh/serial/src/serial_handler_access.c.obj
                0x0002add8                serial_handler_access_rx
 .text.serial_handler_config_rx
                0x0002adfc       0xa4 examples/dfu/CMakeFiles/dfu_nrf52832_xxAA_s132_6.0.0.dir/__/__/mesh/serial/src/serial_handler_config.c.obj
                0x0002adfc                serial_handler_config_rx
 .text.serial_handler_openmesh_rx
                0x0002aea0       0x36 examples/dfu/CMakeFiles/dfu_nrf52832_xxAA_s132_6.0.0.dir/__/__/mesh/serial/src/serial_handler_openmesh.c.obj
                0x0002aea0                serial_handler_openmesh_rx
 *fill*         0x0002aed6        0x2 
 .text.serial_init
                0x0002aed8       0x1c examples/dfu/CMakeFiles/dfu_nrf52832_xxAA_s132_6.0.0.dir/__/__/mesh/serial/src/serial.c.obj
                0x0002aed8                serial_init
 .text.serial_packet_buffer_get
                0x0002aef4       0x14 examples/dfu/CMakeFiles/dfu_nrf52832_xxAA_s132_6.0.0.dir/__/__/mesh/serial/src/serial.c.obj
                0x0002aef4                serial_packet_buffer_get
 .text.serial_tx
                0x0002af08       0x20 examples/dfu/CMakeFiles/dfu_nrf52832_xxAA_s132_6.0.0.dir/__/__/mesh/serial/src/serial.c.obj
                0x0002af08                serial_tx
 .text.serial_start
                0x0002af28       0xfc examples/dfu/CMakeFiles/dfu_nrf52832_xxAA_s132_6.0.0.dir/__/__/mesh/serial/src/serial.c.obj
                0x0002af28                serial_start
 .text.serial_process_cmd
                0x0002b024      0x124 examples/dfu/CMakeFiles/dfu_nrf52832_xxAA_s132_6.0.0.dir/__/__/mesh/serial/src/serial.c.obj
 .text.serial_process
                0x0002b148       0x30 examples/dfu/CMakeFiles/dfu_nrf52832_xxAA_s132_6.0.0.dir/__/__/mesh/serial/src/serial.c.obj
                0x0002b148                serial_process
 .text.serial_translate_error
                0x0002b178       0x6e examples/dfu/CMakeFiles/dfu_nrf52832_xxAA_s132_6.0.0.dir/__/__/mesh/serial/src/serial.c.obj
                0x0002b178                serial_translate_error
 *fill*         0x0002b1e6        0x2 
 .text.serial_state_get
                0x0002b1e8        0xc examples/dfu/CMakeFiles/dfu_nrf52832_xxAA_s132_6.0.0.dir/__/__/mesh/serial/src/serial.c.obj
                0x0002b1e8                serial_state_get
 .text.serial_cmd_rsp_send
                0x0002b1f4       0x58 examples/dfu/CMakeFiles/dfu_nrf52832_xxAA_s132_6.0.0.dir/__/__/mesh/serial/src/serial.c.obj
                0x0002b1f4                serial_cmd_rsp_send
 .text.find_context_id
                0x0002b24c       0x20 examples/dfu/CMakeFiles/dfu_nrf52832_xxAA_s132_6.0.0.dir/__/__/mesh/serial/src/serial_handler_prov.c.obj
 .text.serial_handler_prov_evt_in
                0x0002b26c      0x23c examples/dfu/CMakeFiles/dfu_nrf52832_xxAA_s132_6.0.0.dir/__/__/mesh/serial/src/serial_handler_prov.c.obj
 .text.serial_handler_prov_init
                0x0002b4a8       0xbc examples/dfu/CMakeFiles/dfu_nrf52832_xxAA_s132_6.0.0.dir/__/__/mesh/serial/src/serial_handler_prov.c.obj
                0x0002b4a8                serial_handler_prov_init
 .text.serial_handler_prov_pkt_in
                0x0002b564      0x224 examples/dfu/CMakeFiles/dfu_nrf52832_xxAA_s132_6.0.0.dir/__/__/mesh/serial/src/serial_handler_prov.c.obj
                0x0002b564                serial_handler_prov_pkt_in
 .text.serial_handler_mesh_evt_handle
                0x0002b788      0x190 examples/dfu/CMakeFiles/dfu_nrf52832_xxAA_s132_6.0.0.dir/__/__/mesh/serial/src/serial_handler_dfu.c.obj
 .text.serial_handler_dfu_init
                0x0002b918       0x14 examples/dfu/CMakeFiles/dfu_nrf52832_xxAA_s132_6.0.0.dir/__/__/mesh/serial/src/serial_handler_dfu.c.obj
                0x0002b918                serial_handler_dfu_init
 .text.serial_handler_dfu_rx
                0x0002b92c      0x150 examples/dfu/CMakeFiles/dfu_nrf52832_xxAA_s132_6.0.0.dir/__/__/mesh/serial/src/serial_handler_dfu.c.obj
                0x0002b92c                serial_handler_dfu_rx
 .text.serial_handler_mesh_evt_handle
                0x0002ba7c      0x104 examples/dfu/CMakeFiles/dfu_nrf52832_xxAA_s132_6.0.0.dir/__/__/mesh/serial/src/serial_handler_mesh.c.obj
 .text.handle_cmd_clear
                0x0002bb80       0x20 examples/dfu/CMakeFiles/dfu_nrf52832_xxAA_s132_6.0.0.dir/__/__/mesh/serial/src/serial_handler_mesh.c.obj
 .text.handle_cmd_packet_send
                0x0002bba0       0xa0 examples/dfu/CMakeFiles/dfu_nrf52832_xxAA_s132_6.0.0.dir/__/__/mesh/serial/src/serial_handler_mesh.c.obj
 .text.handle_cmd_addr_virtual_count_max_get
                0x0002bc40       0x1a examples/dfu/CMakeFiles/dfu_nrf52832_xxAA_s132_6.0.0.dir/__/__/mesh/serial/src/serial_handler_mesh.c.obj
 .text.handle_cmd_appkey_count_max_get
                0x0002bc5a        0x4 examples/dfu/CMakeFiles/dfu_nrf52832_xxAA_s132_6.0.0.dir/__/__/mesh/serial/src/serial_handler_mesh.c.obj
 .text.handle_cmd_addr_nonvirtual_count_max_get
                0x0002bc5e       0x1a examples/dfu/CMakeFiles/dfu_nrf52832_xxAA_s132_6.0.0.dir/__/__/mesh/serial/src/serial_handler_mesh.c.obj
 .text.handle_cmd_addr_local_unicast_get
                0x0002bc78       0x2c examples/dfu/CMakeFiles/dfu_nrf52832_xxAA_s132_6.0.0.dir/__/__/mesh/serial/src/serial_handler_mesh.c.obj
 .text.handle_cmd_devkey_count_max_get
                0x0002bca4       0x1a examples/dfu/CMakeFiles/dfu_nrf52832_xxAA_s132_6.0.0.dir/__/__/mesh/serial/src/serial_handler_mesh.c.obj
 .text.handle_cmd_subnet_count_max_get
                0x0002bcbe       0x1a examples/dfu/CMakeFiles/dfu_nrf52832_xxAA_s132_6.0.0.dir/__/__/mesh/serial/src/serial_handler_mesh.c.obj
 .text.handle_cmd_addr_get_all
                0x0002bcd8       0x2e examples/dfu/CMakeFiles/dfu_nrf52832_xxAA_s132_6.0.0.dir/__/__/mesh/serial/src/serial_handler_mesh.c.obj
 .text.handle_cmd_addr_get
                0x0002bd06       0x60 examples/dfu/CMakeFiles/dfu_nrf52832_xxAA_s132_6.0.0.dir/__/__/mesh/serial/src/serial_handler_mesh.c.obj
 .text.handle_cmd_addr_publication_remove
                0x0002bd66       0x26 examples/dfu/CMakeFiles/dfu_nrf52832_xxAA_s132_6.0.0.dir/__/__/mesh/serial/src/serial_handler_mesh.c.obj
 .text.handle_cmd_addr_publication_add_virtual
                0x0002bd8c       0x26 examples/dfu/CMakeFiles/dfu_nrf52832_xxAA_s132_6.0.0.dir/__/__/mesh/serial/src/serial_handler_mesh.c.obj
 .text.handle_cmd_addr_publication_add
                0x0002bdb2       0x26 examples/dfu/CMakeFiles/dfu_nrf52832_xxAA_s132_6.0.0.dir/__/__/mesh/serial/src/serial_handler_mesh.c.obj
 .text.handle_cmd_addr_subscription_remove
                0x0002bdd8       0x26 examples/dfu/CMakeFiles/dfu_nrf52832_xxAA_s132_6.0.0.dir/__/__/mesh/serial/src/serial_handler_mesh.c.obj
 .text.handle_cmd_addr_subscription_add_virtual
                0x0002bdfe       0x26 examples/dfu/CMakeFiles/dfu_nrf52832_xxAA_s132_6.0.0.dir/__/__/mesh/serial/src/serial_handler_mesh.c.obj
 .text.handle_cmd_addr_subscription_add
                0x0002be24       0x26 examples/dfu/CMakeFiles/dfu_nrf52832_xxAA_s132_6.0.0.dir/__/__/mesh/serial/src/serial_handler_mesh.c.obj
 .text.handle_cmd_addr_local_unicast_set
                0x0002be4a       0x32 examples/dfu/CMakeFiles/dfu_nrf52832_xxAA_s132_6.0.0.dir/__/__/mesh/serial/src/serial_handler_mesh.c.obj
 .text.handle_cmd_devkey_delete
                0x0002be7c       0x26 examples/dfu/CMakeFiles/dfu_nrf52832_xxAA_s132_6.0.0.dir/__/__/mesh/serial/src/serial_handler_mesh.c.obj
 .text.handle_cmd_devkey_add
                0x0002bea2       0x20 examples/dfu/CMakeFiles/dfu_nrf52832_xxAA_s132_6.0.0.dir/__/__/mesh/serial/src/serial_handler_mesh.c.obj
 .text.handle_cmd_appkey_get_all
                0x0002bec2       0x36 examples/dfu/CMakeFiles/dfu_nrf52832_xxAA_s132_6.0.0.dir/__/__/mesh/serial/src/serial_handler_mesh.c.obj
 .text.handle_cmd_appkey_delete
                0x0002bef8       0x26 examples/dfu/CMakeFiles/dfu_nrf52832_xxAA_s132_6.0.0.dir/__/__/mesh/serial/src/serial_handler_mesh.c.obj
 .text.handle_cmd_appkey_update
                0x0002bf1e       0x28 examples/dfu/CMakeFiles/dfu_nrf52832_xxAA_s132_6.0.0.dir/__/__/mesh/serial/src/serial_handler_mesh.c.obj
 .text.handle_cmd_appkey_add
                0x0002bf46       0x2a examples/dfu/CMakeFiles/dfu_nrf52832_xxAA_s132_6.0.0.dir/__/__/mesh/serial/src/serial_handler_mesh.c.obj
 .text.handle_cmd_subnet_get_all
                0x0002bf70       0x2e examples/dfu/CMakeFiles/dfu_nrf52832_xxAA_s132_6.0.0.dir/__/__/mesh/serial/src/serial_handler_mesh.c.obj
 .text.handle_cmd_subnet_delete
                0x0002bf9e       0x26 examples/dfu/CMakeFiles/dfu_nrf52832_xxAA_s132_6.0.0.dir/__/__/mesh/serial/src/serial_handler_mesh.c.obj
 .text.handle_cmd_subnet_update
                0x0002bfc4       0x28 examples/dfu/CMakeFiles/dfu_nrf52832_xxAA_s132_6.0.0.dir/__/__/mesh/serial/src/serial_handler_mesh.c.obj
 .text.handle_cmd_subnet_add
                0x0002bfec       0x28 examples/dfu/CMakeFiles/dfu_nrf52832_xxAA_s132_6.0.0.dir/__/__/mesh/serial/src/serial_handler_mesh.c.obj
 .text.handle_cmd_disable
                0x0002c014       0x18 examples/dfu/CMakeFiles/dfu_nrf52832_xxAA_s132_6.0.0.dir/__/__/mesh/serial/src/serial_handler_mesh.c.obj
 .text.handle_cmd_enable
                0x0002c02c       0x18 examples/dfu/CMakeFiles/dfu_nrf52832_xxAA_s132_6.0.0.dir/__/__/mesh/serial/src/serial_handler_mesh.c.obj
 .text.serial_handler_mesh_init
                0x0002c044       0x14 examples/dfu/CMakeFiles/dfu_nrf52832_xxAA_s132_6.0.0.dir/__/__/mesh/serial/src/serial_handler_mesh.c.obj
                0x0002c044                serial_handler_mesh_init
 .text.serial_handler_mesh_rx
                0x0002c058       0x6c examples/dfu/CMakeFiles/dfu_nrf52832_xxAA_s132_6.0.0.dir/__/__/mesh/serial/src/serial_handler_mesh.c.obj
                0x0002c058                serial_handler_mesh_rx
 .text.registered_model_get
                0x0002c0c4       0x3c examples/dfu/CMakeFiles/dfu_nrf52832_xxAA_s132_6.0.0.dir/__/__/mesh/serial/src/serial_handler_models.c.obj
 .text.model_command
                0x0002c100       0x5e examples/dfu/CMakeFiles/dfu_nrf52832_xxAA_s132_6.0.0.dir/__/__/mesh/serial/src/serial_handler_models.c.obj
 .text.model_init
                0x0002c15e       0x3a examples/dfu/CMakeFiles/dfu_nrf52832_xxAA_s132_6.0.0.dir/__/__/mesh/serial/src/serial_handler_models.c.obj
 .text.models_get
                0x0002c198       0x7c examples/dfu/CMakeFiles/dfu_nrf52832_xxAA_s132_6.0.0.dir/__/__/mesh/serial/src/serial_handler_models.c.obj
 .text.serial_handler_models_rx
                0x0002c214       0x24 examples/dfu/CMakeFiles/dfu_nrf52832_xxAA_s132_6.0.0.dir/__/__/mesh/serial/src/serial_handler_models.c.obj
                0x0002c214                serial_handler_models_rx
 .text.handle_cmd_device_fw_info_get
                0x0002c238        0xc examples/dfu/CMakeFiles/dfu_nrf52832_xxAA_s132_6.0.0.dir/__/__/mesh/serial/src/serial_handler_device.c.obj
 .text.handle_cmd_device_internal_events_report
                0x0002c244        0x4 examples/dfu/CMakeFiles/dfu_nrf52832_xxAA_s132_6.0.0.dir/__/__/mesh/serial/src/serial_handler_device.c.obj
 .text.handle_cmd_device_serial_version_get
                0x0002c248       0x1a examples/dfu/CMakeFiles/dfu_nrf52832_xxAA_s132_6.0.0.dir/__/__/mesh/serial/src/serial_handler_device.c.obj
 *fill*         0x0002c262        0x2 
 .text.handle_cmd_device_beacon_params_set
                0x0002c264       0x6c examples/dfu/CMakeFiles/dfu_nrf52832_xxAA_s132_6.0.0.dir/__/__/mesh/serial/src/serial_handler_device.c.obj
 .text.handle_cmd_device_beacon_stop
                0x0002c2d0       0x44 examples/dfu/CMakeFiles/dfu_nrf52832_xxAA_s132_6.0.0.dir/__/__/mesh/serial/src/serial_handler_device.c.obj
 .text.handle_cmd_device_beacon_start
                0x0002c314       0x70 examples/dfu/CMakeFiles/dfu_nrf52832_xxAA_s132_6.0.0.dir/__/__/mesh/serial/src/serial_handler_device.c.obj
 .text.handle_cmd_device_radio_reset
                0x0002c384       0x1a examples/dfu/CMakeFiles/dfu_nrf52832_xxAA_s132_6.0.0.dir/__/__/mesh/serial/src/serial_handler_device.c.obj
 .text.handle_cmd_device_echo
                0x0002c39e       0x32 examples/dfu/CMakeFiles/dfu_nrf52832_xxAA_s132_6.0.0.dir/__/__/mesh/serial/src/serial_handler_device.c.obj
 .text.handle_cmd_device_beacon_params_get
                0x0002c3d0       0x80 examples/dfu/CMakeFiles/dfu_nrf52832_xxAA_s132_6.0.0.dir/__/__/mesh/serial/src/serial_handler_device.c.obj
 .text.serial_handler_device_init
                0x0002c450       0x20 examples/dfu/CMakeFiles/dfu_nrf52832_xxAA_s132_6.0.0.dir/__/__/mesh/serial/src/serial_handler_device.c.obj
                0x0002c450                serial_handler_device_init
 .text.serial_handler_device_rx
                0x0002c470       0x24 examples/dfu/CMakeFiles/dfu_nrf52832_xxAA_s132_6.0.0.dir/__/__/mesh/serial/src/serial_handler_device.c.obj
                0x0002c470                serial_handler_device_rx
 .text.nrf_mesh_serial_init
                0x0002c494       0x36 examples/dfu/CMakeFiles/dfu_nrf52832_xxAA_s132_6.0.0.dir/__/__/mesh/serial/src/nrf_mesh_serial.c.obj
                0x0002c494                nrf_mesh_serial_init
 .text.nrf_mesh_serial_enable
                0x0002c4ca        0x4 examples/dfu/CMakeFiles/dfu_nrf52832_xxAA_s132_6.0.0.dir/__/__/mesh/serial/src/nrf_mesh_serial.c.obj
                0x0002c4ca                nrf_mesh_serial_enable
 *fill*         0x0002c4ce        0x2 
 .text.serial_handler_app_cb_set
                0x0002c4d0        0xc examples/dfu/CMakeFiles/dfu_nrf52832_xxAA_s132_6.0.0.dir/__/__/mesh/serial/src/serial_handler_app.c.obj
                0x0002c4d0                serial_handler_app_cb_set
 .text.serial_handler_app_rx
                0x0002c4dc       0x2c examples/dfu/CMakeFiles/dfu_nrf52832_xxAA_s132_6.0.0.dir/__/__/mesh/serial/src/serial_handler_app.c.obj
                0x0002c4dc                serial_handler_app_rx
 .text.config_composition_data_get
                0x0002c508      0x186 examples/dfu/CMakeFiles/dfu_nrf52832_xxAA_s132_6.0.0.dir/__/__/models/config/src/composition_data.c.obj
                0x0002c508                config_composition_data_get
 *fill*         0x0002c68e        0x2 
 .text.app_evt_send
                0x0002c690       0x10 examples/dfu/CMakeFiles/dfu_nrf52832_xxAA_s132_6.0.0.dir/__/__/models/config/src/config_server.c.obj
 .text.config_server_heartbeat_publication_count_decrement
                0x0002c6a0       0x1c examples/dfu/CMakeFiles/dfu_nrf52832_xxAA_s132_6.0.0.dir/__/__/models/config/src/config_server.c.obj
 .text.get_element_index
                0x0002c6bc       0x26 examples/dfu/CMakeFiles/dfu_nrf52832_xxAA_s132_6.0.0.dir/__/__/models/config/src/config_server.c.obj
 *fill*         0x0002c6e2        0x2 
 .text.config_server_heartbeat_publication_params_get
                0x0002c6e4       0x34 examples/dfu/CMakeFiles/dfu_nrf52832_xxAA_s132_6.0.0.dir/__/__/models/config/src/config_server.c.obj
 .text.send_reply
                0x0002c718       0x34 examples/dfu/CMakeFiles/dfu_nrf52832_xxAA_s132_6.0.0.dir/__/__/models/config/src/config_server.c.obj
 .text.send_network_transmit_status
                0x0002c74c       0x72 examples/dfu/CMakeFiles/dfu_nrf52832_xxAA_s132_6.0.0.dir/__/__/models/config/src/config_server.c.obj
 .text.handle_config_network_transmit_set
                0x0002c7be       0x82 examples/dfu/CMakeFiles/dfu_nrf52832_xxAA_s132_6.0.0.dir/__/__/models/config/src/config_server.c.obj
 .text.handle_config_network_transmit_get
                0x0002c840        0xa examples/dfu/CMakeFiles/dfu_nrf52832_xxAA_s132_6.0.0.dir/__/__/models/config/src/config_server.c.obj
 *fill*         0x0002c84a        0x2 
 .text.handle_node_reset
                0x0002c84c       0x1c examples/dfu/CMakeFiles/dfu_nrf52832_xxAA_s132_6.0.0.dir/__/__/models/config/src/config_server.c.obj
 .text.send_netkey_status
                0x0002c868       0x22 examples/dfu/CMakeFiles/dfu_nrf52832_xxAA_s132_6.0.0.dir/__/__/models/config/src/config_server.c.obj
 .text.send_relay_status
                0x0002c88a       0xa6 examples/dfu/CMakeFiles/dfu_nrf52832_xxAA_s132_6.0.0.dir/__/__/models/config/src/config_server.c.obj
 .text.handle_config_relay_set
                0x0002c930       0xb6 examples/dfu/CMakeFiles/dfu_nrf52832_xxAA_s132_6.0.0.dir/__/__/models/config/src/config_server.c.obj
 .text.handle_config_relay_get
                0x0002c9e6        0xa examples/dfu/CMakeFiles/dfu_nrf52832_xxAA_s132_6.0.0.dir/__/__/models/config/src/config_server.c.obj
 .text.send_subscription_status
                0x0002c9f0       0x3a examples/dfu/CMakeFiles/dfu_nrf52832_xxAA_s132_6.0.0.dir/__/__/models/config/src/config_server.c.obj
 .text.handle_config_gatt_proxy_set
                0x0002ca2a       0x22 examples/dfu/CMakeFiles/dfu_nrf52832_xxAA_s132_6.0.0.dir/__/__/models/config/src/config_server.c.obj
 .text.send_appkey_status
                0x0002ca4c       0x30 examples/dfu/CMakeFiles/dfu_nrf52832_xxAA_s132_6.0.0.dir/__/__/models/config/src/config_server.c.obj
 .text.handle_netkey_get
                0x0002ca7c       0x4c examples/dfu/CMakeFiles/dfu_nrf52832_xxAA_s132_6.0.0.dir/__/__/models/config/src/config_server.c.obj
 .text.handle_netkey_delete
                0x0002cac8       0xbc examples/dfu/CMakeFiles/dfu_nrf52832_xxAA_s132_6.0.0.dir/__/__/models/config/src/config_server.c.obj
 .text.handle_netkey_add_update
                0x0002cb84       0x78 examples/dfu/CMakeFiles/dfu_nrf52832_xxAA_s132_6.0.0.dir/__/__/models/config/src/config_server.c.obj
 .text.status_error_sub_send
                0x0002cbfc      0x11e examples/dfu/CMakeFiles/dfu_nrf52832_xxAA_s132_6.0.0.dir/__/__/models/config/src/config_server.c.obj
 .text.delete_all_subscriptions
                0x0002cd1a       0x66 examples/dfu/CMakeFiles/dfu_nrf52832_xxAA_s132_6.0.0.dir/__/__/models/config/src/config_server.c.obj
 .text.send_publication_status
                0x0002cd80      0x16e examples/dfu/CMakeFiles/dfu_nrf52832_xxAA_s132_6.0.0.dir/__/__/models/config/src/config_server.c.obj
 .text.handle_config_key_refresh_phase_set
                0x0002ceee       0xc6 examples/dfu/CMakeFiles/dfu_nrf52832_xxAA_s132_6.0.0.dir/__/__/models/config/src/config_server.c.obj
 .text.handle_config_default_ttl_set
                0x0002cfb4       0x4e examples/dfu/CMakeFiles/dfu_nrf52832_xxAA_s132_6.0.0.dir/__/__/models/config/src/config_server.c.obj
 .text.send_net_beacon_state
                0x0002d002       0x2a examples/dfu/CMakeFiles/dfu_nrf52832_xxAA_s132_6.0.0.dir/__/__/models/config/src/config_server.c.obj
 .text.handle_config_beacon_get
                0x0002d02c        0xa examples/dfu/CMakeFiles/dfu_nrf52832_xxAA_s132_6.0.0.dir/__/__/models/config/src/config_server.c.obj
 *fill*         0x0002d036        0x2 
 .text.handle_heartbeat_publication_set
                0x0002d038      0x128 examples/dfu/CMakeFiles/dfu_nrf52832_xxAA_s132_6.0.0.dir/__/__/models/config/src/config_server.c.obj
 .text.mesh_event_cb
                0x0002d160       0x64 examples/dfu/CMakeFiles/dfu_nrf52832_xxAA_s132_6.0.0.dir/__/__/models/config/src/config_server.c.obj
 .text.handle_node_identity_set
                0x0002d1c4       0x32 examples/dfu/CMakeFiles/dfu_nrf52832_xxAA_s132_6.0.0.dir/__/__/models/config/src/config_server.c.obj
 .text.handle_node_identity_get
                0x0002d1f6       0x2e examples/dfu/CMakeFiles/dfu_nrf52832_xxAA_s132_6.0.0.dir/__/__/models/config/src/config_server.c.obj
 .text.handle_config_friend_set
                0x0002d224       0x22 examples/dfu/CMakeFiles/dfu_nrf52832_xxAA_s132_6.0.0.dir/__/__/models/config/src/config_server.c.obj
 .text.status_error_pub_send
                0x0002d246       0x9a examples/dfu/CMakeFiles/dfu_nrf52832_xxAA_s132_6.0.0.dir/__/__/models/config/src/config_server.c.obj
 .text.handle_config_key_refresh_phase_get
                0x0002d2e0       0x54 examples/dfu/CMakeFiles/dfu_nrf52832_xxAA_s132_6.0.0.dir/__/__/models/config/src/config_server.c.obj
 .text.handle_config_default_ttl_get
                0x0002d334       0x2a examples/dfu/CMakeFiles/dfu_nrf52832_xxAA_s132_6.0.0.dir/__/__/models/config/src/config_server.c.obj
 .text.handle_config_beacon_set
                0x0002d35e       0x42 examples/dfu/CMakeFiles/dfu_nrf52832_xxAA_s132_6.0.0.dir/__/__/models/config/src/config_server.c.obj
 .text.handle_composition_data_get
                0x0002d3a0       0x4c examples/dfu/CMakeFiles/dfu_nrf52832_xxAA_s132_6.0.0.dir/__/__/models/config/src/config_server.c.obj
 .text.handle_appkey_delete
                0x0002d3ec       0xc2 examples/dfu/CMakeFiles/dfu_nrf52832_xxAA_s132_6.0.0.dir/__/__/models/config/src/config_server.c.obj
 .text.get_subscription_list.constprop.23
                0x0002d4ae       0x50 examples/dfu/CMakeFiles/dfu_nrf52832_xxAA_s132_6.0.0.dir/__/__/models/config/src/config_server.c.obj
 .text.handle_appkey_get
                0x0002d4fe       0xb8 examples/dfu/CMakeFiles/dfu_nrf52832_xxAA_s132_6.0.0.dir/__/__/models/config/src/config_server.c.obj
 .text.heartbeat_subscription_count_encode
                0x0002d5b6       0x26 examples/dfu/CMakeFiles/dfu_nrf52832_xxAA_s132_6.0.0.dir/__/__/models/config/src/config_server.c.obj
 .text.handle_appkey_add
                0x0002d5dc       0xba examples/dfu/CMakeFiles/dfu_nrf52832_xxAA_s132_6.0.0.dir/__/__/models/config/src/config_server.c.obj
 .text.handle_appkey_update
                0x0002d696       0xbc examples/dfu/CMakeFiles/dfu_nrf52832_xxAA_s132_6.0.0.dir/__/__/models/config/src/config_server.c.obj
 .text.heartbeat_pubsub_period_encode
                0x0002d752       0x26 examples/dfu/CMakeFiles/dfu_nrf52832_xxAA_s132_6.0.0.dir/__/__/models/config/src/config_server.c.obj
 .text.handle_heartbeat_publication_get
                0x0002d778       0x7c examples/dfu/CMakeFiles/dfu_nrf52832_xxAA_s132_6.0.0.dir/__/__/models/config/src/config_server.c.obj
 .text.handle_heartbeat_subscription_get
                0x0002d7f4       0x82 examples/dfu/CMakeFiles/dfu_nrf52832_xxAA_s132_6.0.0.dir/__/__/models/config/src/config_server.c.obj
 .text.handle_heartbeat_subscription_set
                0x0002d876       0xa4 examples/dfu/CMakeFiles/dfu_nrf52832_xxAA_s132_6.0.0.dir/__/__/models/config/src/config_server.c.obj
 .text.handle_config_model_publication_get
                0x0002d91a       0x94 examples/dfu/CMakeFiles/dfu_nrf52832_xxAA_s132_6.0.0.dir/__/__/models/config/src/config_server.c.obj
 .text.handle_config_model_subscription_delete_all
                0x0002d9ae       0xca examples/dfu/CMakeFiles/dfu_nrf52832_xxAA_s132_6.0.0.dir/__/__/models/config/src/config_server.c.obj
 .text.handle_config_gatt_proxy_get
                0x0002da78       0x20 examples/dfu/CMakeFiles/dfu_nrf52832_xxAA_s132_6.0.0.dir/__/__/models/config/src/config_server.c.obj
 .text.handle_config_sig_model_subscription_get
                0x0002da98       0xc4 examples/dfu/CMakeFiles/dfu_nrf52832_xxAA_s132_6.0.0.dir/__/__/models/config/src/config_server.c.obj
 .text.handle_config_vendor_model_subscription_get
                0x0002db5c      0x100 examples/dfu/CMakeFiles/dfu_nrf52832_xxAA_s132_6.0.0.dir/__/__/models/config/src/config_server.c.obj
 .text.handle_config_model_subscription_virtual_address_delete
                0x0002dc5c      0x110 examples/dfu/CMakeFiles/dfu_nrf52832_xxAA_s132_6.0.0.dir/__/__/models/config/src/config_server.c.obj
 .text.handle_config_model_subscription_virtual_address_add
                0x0002dd6c      0x10e examples/dfu/CMakeFiles/dfu_nrf52832_xxAA_s132_6.0.0.dir/__/__/models/config/src/config_server.c.obj
 .text.handle_config_model_subscription_delete
                0x0002de7a      0x116 examples/dfu/CMakeFiles/dfu_nrf52832_xxAA_s132_6.0.0.dir/__/__/models/config/src/config_server.c.obj
 .text.handle_config_model_subscription_add
                0x0002df90      0x114 examples/dfu/CMakeFiles/dfu_nrf52832_xxAA_s132_6.0.0.dir/__/__/models/config/src/config_server.c.obj
 .text.handle_model_app_get
                0x0002e0a4      0x19e examples/dfu/CMakeFiles/dfu_nrf52832_xxAA_s132_6.0.0.dir/__/__/models/config/src/config_server.c.obj
 .text.handle_config_model_subscription_virtual_address_overwrite
                0x0002e242      0x128 examples/dfu/CMakeFiles/dfu_nrf52832_xxAA_s132_6.0.0.dir/__/__/models/config/src/config_server.c.obj
 .text.handle_config_model_subscription_overwrite
                0x0002e36a      0x122 examples/dfu/CMakeFiles/dfu_nrf52832_xxAA_s132_6.0.0.dir/__/__/models/config/src/config_server.c.obj
 .text.handle_model_app_bind_unbind
                0x0002e48c      0x174 examples/dfu/CMakeFiles/dfu_nrf52832_xxAA_s132_6.0.0.dir/__/__/models/config/src/config_server.c.obj
 .text.handle_config_friend_get
                0x0002e600       0x20 examples/dfu/CMakeFiles/dfu_nrf52832_xxAA_s132_6.0.0.dir/__/__/models/config/src/config_server.c.obj
 .text.handle_config_model_publication_set
                0x0002e620      0x2ce examples/dfu/CMakeFiles/dfu_nrf52832_xxAA_s132_6.0.0.dir/__/__/models/config/src/config_server.c.obj
 *fill*         0x0002e8ee        0x2 
 .text.config_server_init
                0x0002e8f0       0x64 examples/dfu/CMakeFiles/dfu_nrf52832_xxAA_s132_6.0.0.dir/__/__/models/config/src/config_server.c.obj
                0x0002e8f0                config_server_init
 .text.config_server_bind
                0x0002e954       0x10 examples/dfu/CMakeFiles/dfu_nrf52832_xxAA_s132_6.0.0.dir/__/__/models/config/src/config_server.c.obj
                0x0002e954                config_server_bind
 .text.packed_index_list_create
                0x0002e964       0x32 examples/dfu/CMakeFiles/dfu_nrf52832_xxAA_s132_6.0.0.dir/__/__/models/config/src/packed_index_list.c.obj
                0x0002e964                packed_index_list_create
 *fill*         0x0002e996        0x2 
 .text.attention_timer_set
                0x0002e998       0x8c examples/dfu/CMakeFiles/dfu_nrf52832_xxAA_s132_6.0.0.dir/__/__/models/health/src/health_server.c.obj
 .text.attention_timer_handler
                0x0002ea24       0x5c examples/dfu/CMakeFiles/dfu_nrf52832_xxAA_s132_6.0.0.dir/__/__/models/health/src/health_server.c.obj
 .text.send_attention_status.isra.1
                0x0002ea80       0x44 examples/dfu/CMakeFiles/dfu_nrf52832_xxAA_s132_6.0.0.dir/__/__/models/health/src/health_server.c.obj
 .text.handle_attention_set
                0x0002eac4       0x32 examples/dfu/CMakeFiles/dfu_nrf52832_xxAA_s132_6.0.0.dir/__/__/models/health/src/health_server.c.obj
 .text.send_period_status.isra.4
                0x0002eaf6       0x44 examples/dfu/CMakeFiles/dfu_nrf52832_xxAA_s132_6.0.0.dir/__/__/models/health/src/health_server.c.obj
 .text.handle_period_set
                0x0002eb3a       0x28 examples/dfu/CMakeFiles/dfu_nrf52832_xxAA_s132_6.0.0.dir/__/__/models/health/src/health_server.c.obj
 *fill*         0x0002eb62        0x2 
 .text.bitfield_next_get.part.0.constprop.13
                0x0002eb64       0x44 examples/dfu/CMakeFiles/dfu_nrf52832_xxAA_s132_6.0.0.dir/__/__/models/health/src/health_server.c.obj
 .text.bitfield_popcount.constprop.11
                0x0002eba8       0x28 examples/dfu/CMakeFiles/dfu_nrf52832_xxAA_s132_6.0.0.dir/__/__/models/health/src/health_server.c.obj
 .text.send_fault_status
                0x0002ebd0       0xa8 examples/dfu/CMakeFiles/dfu_nrf52832_xxAA_s132_6.0.0.dir/__/__/models/health/src/health_server.c.obj
 .text.health_publish_timeout_handler
                0x0002ec78        0xa examples/dfu/CMakeFiles/dfu_nrf52832_xxAA_s132_6.0.0.dir/__/__/models/health/src/health_server.c.obj
 .text.handle_fault_test
                0x0002ec82       0x68 examples/dfu/CMakeFiles/dfu_nrf52832_xxAA_s132_6.0.0.dir/__/__/models/health/src/health_server.c.obj
 .text.handle_fault_get
                0x0002ecea       0x32 examples/dfu/CMakeFiles/dfu_nrf52832_xxAA_s132_6.0.0.dir/__/__/models/health/src/health_server.c.obj
 .text.handle_fault_clear
                0x0002ed1c       0x48 examples/dfu/CMakeFiles/dfu_nrf52832_xxAA_s132_6.0.0.dir/__/__/models/health/src/health_server.c.obj
 .text.handle_attention_get
                0x0002ed64       0x14 examples/dfu/CMakeFiles/dfu_nrf52832_xxAA_s132_6.0.0.dir/__/__/models/health/src/health_server.c.obj
 .text.handle_period_get
                0x0002ed78       0x12 examples/dfu/CMakeFiles/dfu_nrf52832_xxAA_s132_6.0.0.dir/__/__/models/health/src/health_server.c.obj
 *fill*         0x0002ed8a        0x2 
 .text.health_server_init
                0x0002ed8c       0x6c examples/dfu/CMakeFiles/dfu_nrf52832_xxAA_s132_6.0.0.dir/__/__/models/health/src/health_server.c.obj
                0x0002ed8c                health_server_init
 .text.prov_provisioner_cb_link_closed
                0x0002edf8       0x2a examples/dfu/CMakeFiles/dfu_nrf52832_xxAA_s132_6.0.0.dir/__/__/mesh/prov/src/prov_provisioner.c.obj
 .text.prov_provisioner_cb_link_established
                0x0002ee22       0x3e examples/dfu/CMakeFiles/dfu_nrf52832_xxAA_s132_6.0.0.dir/__/__/mesh/prov/src/prov_provisioner.c.obj
 .text.send_confirmation
                0x0002ee60       0x26 examples/dfu/CMakeFiles/dfu_nrf52832_xxAA_s132_6.0.0.dir/__/__/mesh/prov/src/prov_provisioner.c.obj
 .text.request_authentication
                0x0002ee86       0x8a examples/dfu/CMakeFiles/dfu_nrf52832_xxAA_s132_6.0.0.dir/__/__/mesh/prov/src/prov_provisioner.c.obj
 .text.start_authentication
                0x0002ef10       0x46 examples/dfu/CMakeFiles/dfu_nrf52832_xxAA_s132_6.0.0.dir/__/__/mesh/prov/src/prov_provisioner.c.obj
 .text.prov_provisioner_cb_ack_received
                0x0002ef56       0x54 examples/dfu/CMakeFiles/dfu_nrf52832_xxAA_s132_6.0.0.dir/__/__/mesh/prov/src/prov_provisioner.c.obj
 *fill*         0x0002efaa        0x2 
 .text.prov_provisioner_pkt_in
                0x0002efac      0x23c examples/dfu/CMakeFiles/dfu_nrf52832_xxAA_s132_6.0.0.dir/__/__/mesh/prov/src/prov_provisioner.c.obj
 .text.prov_provisioner_provision
                0x0002f1e8       0x44 examples/dfu/CMakeFiles/dfu_nrf52832_xxAA_s132_6.0.0.dir/__/__/mesh/prov/src/prov_provisioner.c.obj
                0x0002f1e8                prov_provisioner_provision
 .text.prov_provisioner_oob_use
                0x0002f22c       0x7e examples/dfu/CMakeFiles/dfu_nrf52832_xxAA_s132_6.0.0.dir/__/__/mesh/prov/src/prov_provisioner.c.obj
                0x0002f22c                prov_provisioner_oob_use
 .text.prov_provisioner_auth_data
                0x0002f2aa       0x6c examples/dfu/CMakeFiles/dfu_nrf52832_xxAA_s132_6.0.0.dir/__/__/mesh/prov/src/prov_provisioner.c.obj
                0x0002f2aa                prov_provisioner_auth_data
 .text.prov_provisioner_shared_secret
                0x0002f316       0x28 examples/dfu/CMakeFiles/dfu_nrf52832_xxAA_s132_6.0.0.dir/__/__/mesh/prov/src/prov_provisioner.c.obj
                0x0002f316                prov_provisioner_shared_secret
 .text.complete_provisioning
                0x0002f33e       0x24 examples/dfu/CMakeFiles/dfu_nrf52832_xxAA_s132_6.0.0.dir/__/__/mesh/prov/src/prov_provisionee.c.obj
 .text.prov_provisionee_cb_link_established
                0x0002f362       0x36 examples/dfu/CMakeFiles/dfu_nrf52832_xxAA_s132_6.0.0.dir/__/__/mesh/prov/src/prov_provisionee.c.obj
 .text.prov_provisionee_cb_link_closed
                0x0002f398       0x34 examples/dfu/CMakeFiles/dfu_nrf52832_xxAA_s132_6.0.0.dir/__/__/mesh/prov/src/prov_provisionee.c.obj
 .text.request_authentication
                0x0002f3cc       0x8a examples/dfu/CMakeFiles/dfu_nrf52832_xxAA_s132_6.0.0.dir/__/__/mesh/prov/src/prov_provisionee.c.obj
 .text.send_failed
                0x0002f456       0x3a examples/dfu/CMakeFiles/dfu_nrf52832_xxAA_s132_6.0.0.dir/__/__/mesh/prov/src/prov_provisionee.c.obj
 .text.start_authentication
                0x0002f490       0x52 examples/dfu/CMakeFiles/dfu_nrf52832_xxAA_s132_6.0.0.dir/__/__/mesh/prov/src/prov_provisionee.c.obj
 *fill*         0x0002f4e2        0x2 
 .text.prov_provisionee_cb_ack_received
                0x0002f4e4       0xc8 examples/dfu/CMakeFiles/dfu_nrf52832_xxAA_s132_6.0.0.dir/__/__/mesh/prov/src/prov_provisionee.c.obj
 .text.prov_provisionee_pkt_in
                0x0002f5ac      0x2e4 examples/dfu/CMakeFiles/dfu_nrf52832_xxAA_s132_6.0.0.dir/__/__/mesh/prov/src/prov_provisionee.c.obj
 .text.prov_provisionee_listen
                0x0002f890       0x30 examples/dfu/CMakeFiles/dfu_nrf52832_xxAA_s132_6.0.0.dir/__/__/mesh/prov/src/prov_provisionee.c.obj
                0x0002f890                prov_provisionee_listen
 .text.prov_provisionee_auth_data
                0x0002f8c0       0x98 examples/dfu/CMakeFiles/dfu_nrf52832_xxAA_s132_6.0.0.dir/__/__/mesh/prov/src/prov_provisionee.c.obj
                0x0002f8c0                prov_provisionee_auth_data
 .text.prov_provisionee_shared_secret
                0x0002f958       0x28 examples/dfu/CMakeFiles/dfu_nrf52832_xxAA_s132_6.0.0.dir/__/__/mesh/prov/src/prov_provisionee.c.obj
                0x0002f958                prov_provisionee_shared_secret
 .text.bearer_compare_callback
                0x0002f980        0xc examples/dfu/CMakeFiles/dfu_nrf52832_xxAA_s132_6.0.0.dir/__/__/mesh/prov/src/nrf_mesh_prov.c.obj
 .text.bitfield_next_get.part.0.constprop.4
                0x0002f98c       0x34 examples/dfu/CMakeFiles/dfu_nrf52832_xxAA_s132_6.0.0.dir/__/__/mesh/prov/src/nrf_mesh_prov.c.obj
 .text.nrf_mesh_prov_init
                0x0002f9c0       0x32 examples/dfu/CMakeFiles/dfu_nrf52832_xxAA_s132_6.0.0.dir/__/__/mesh/prov/src/nrf_mesh_prov.c.obj
                0x0002f9c0                nrf_mesh_prov_init
 *fill*         0x0002f9f2        0x2 
 .text.nrf_mesh_prov_bearer_add
                0x0002f9f4       0x28 examples/dfu/CMakeFiles/dfu_nrf52832_xxAA_s132_6.0.0.dir/__/__/mesh/prov/src/nrf_mesh_prov.c.obj
                0x0002f9f4                nrf_mesh_prov_bearer_add
 .text.nrf_mesh_prov_generate_keys
                0x0002fa1c        0x4 examples/dfu/CMakeFiles/dfu_nrf52832_xxAA_s132_6.0.0.dir/__/__/mesh/prov/src/nrf_mesh_prov.c.obj
                0x0002fa1c                nrf_mesh_prov_generate_keys
 .text.nrf_mesh_prov_listen_stop
                0x0002fa20       0x2e examples/dfu/CMakeFiles/dfu_nrf52832_xxAA_s132_6.0.0.dir/__/__/mesh/prov/src/nrf_mesh_prov.c.obj
                0x0002fa20                nrf_mesh_prov_listen_stop
 .text.nrf_mesh_prov_listen
                0x0002fa4e       0x88 examples/dfu/CMakeFiles/dfu_nrf52832_xxAA_s132_6.0.0.dir/__/__/mesh/prov/src/nrf_mesh_prov.c.obj
                0x0002fa4e                nrf_mesh_prov_listen
 .text.nrf_mesh_prov_provision
                0x0002fad6       0x4e examples/dfu/CMakeFiles/dfu_nrf52832_xxAA_s132_6.0.0.dir/__/__/mesh/prov/src/nrf_mesh_prov.c.obj
                0x0002fad6                nrf_mesh_prov_provision
 .text.nrf_mesh_prov_oob_use
                0x0002fb24       0x18 examples/dfu/CMakeFiles/dfu_nrf52832_xxAA_s132_6.0.0.dir/__/__/mesh/prov/src/nrf_mesh_prov.c.obj
                0x0002fb24                nrf_mesh_prov_oob_use
 .text.nrf_mesh_prov_auth_data_provide
                0x0002fb3c        0xe examples/dfu/CMakeFiles/dfu_nrf52832_xxAA_s132_6.0.0.dir/__/__/mesh/prov/src/nrf_mesh_prov.c.obj
                0x0002fb3c                nrf_mesh_prov_auth_data_provide
 .text.nrf_mesh_prov_shared_secret_provide
                0x0002fb4a        0xe examples/dfu/CMakeFiles/dfu_nrf52832_xxAA_s132_6.0.0.dir/__/__/mesh/prov/src/nrf_mesh_prov.c.obj
                0x0002fb4a                nrf_mesh_prov_shared_secret_provide
 .text.nrf_mesh_prov_scan_start
                0x0002fb58       0x10 examples/dfu/CMakeFiles/dfu_nrf52832_xxAA_s132_6.0.0.dir/__/__/mesh/prov/src/nrf_mesh_prov.c.obj
                0x0002fb58                nrf_mesh_prov_scan_start
 .text.nrf_mesh_prov_scan_stop
                0x0002fb68        0x4 examples/dfu/CMakeFiles/dfu_nrf52832_xxAA_s132_6.0.0.dir/__/__/mesh/prov/src/nrf_mesh_prov.c.obj
                0x0002fb68                nrf_mesh_prov_scan_stop
 .text.send_data
                0x0002fb6c       0x28 examples/dfu/CMakeFiles/dfu_nrf52832_xxAA_s132_6.0.0.dir/__/__/mesh/prov/src/provisioning.c.obj
 .text.prov_packet_length_valid
                0x0002fb94       0x1c examples/dfu/CMakeFiles/dfu_nrf52832_xxAA_s132_6.0.0.dir/__/__/mesh/prov/src/provisioning.c.obj
                0x0002fb94                prov_packet_length_valid
 .text.prov_tx_invite
                0x0002fbb0       0x28 examples/dfu/CMakeFiles/dfu_nrf52832_xxAA_s132_6.0.0.dir/__/__/mesh/prov/src/provisioning.c.obj
                0x0002fbb0                prov_tx_invite
 .text.prov_tx_capabilities
                0x0002fbd8       0x1e examples/dfu/CMakeFiles/dfu_nrf52832_xxAA_s132_6.0.0.dir/__/__/mesh/prov/src/provisioning.c.obj
                0x0002fbd8                prov_tx_capabilities
 .text.prov_tx_start
                0x0002fbf6       0x20 examples/dfu/CMakeFiles/dfu_nrf52832_xxAA_s132_6.0.0.dir/__/__/mesh/prov/src/provisioning.c.obj
                0x0002fbf6                prov_tx_start
 .text.prov_tx_public_key
                0x0002fc16       0x26 examples/dfu/CMakeFiles/dfu_nrf52832_xxAA_s132_6.0.0.dir/__/__/mesh/prov/src/provisioning.c.obj
                0x0002fc16                prov_tx_public_key
 .text.prov_tx_input_complete
                0x0002fc3c       0x16 examples/dfu/CMakeFiles/dfu_nrf52832_xxAA_s132_6.0.0.dir/__/__/mesh/prov/src/provisioning.c.obj
                0x0002fc3c                prov_tx_input_complete
 .text.prov_tx_confirmation
                0x0002fc52       0x26 examples/dfu/CMakeFiles/dfu_nrf52832_xxAA_s132_6.0.0.dir/__/__/mesh/prov/src/provisioning.c.obj
                0x0002fc52                prov_tx_confirmation
 .text.prov_tx_random
                0x0002fc78       0x26 examples/dfu/CMakeFiles/dfu_nrf52832_xxAA_s132_6.0.0.dir/__/__/mesh/prov/src/provisioning.c.obj
                0x0002fc78                prov_tx_random
 .text.prov_tx_complete
                0x0002fc9e       0x16 examples/dfu/CMakeFiles/dfu_nrf52832_xxAA_s132_6.0.0.dir/__/__/mesh/prov/src/provisioning.c.obj
                0x0002fc9e                prov_tx_complete
 .text.prov_tx_failed
                0x0002fcb4       0x1a examples/dfu/CMakeFiles/dfu_nrf52832_xxAA_s132_6.0.0.dir/__/__/mesh/prov/src/provisioning.c.obj
                0x0002fcb4                prov_tx_failed
 .text.prov_tx_data
                0x0002fcce        0x6 examples/dfu/CMakeFiles/dfu_nrf52832_xxAA_s132_6.0.0.dir/__/__/mesh/prov/src/provisioning.c.obj
                0x0002fcce                prov_tx_data
 .text.prov_beacon_unprov_build
                0x0002fcd4       0x54 examples/dfu/CMakeFiles/dfu_nrf52832_xxAA_s132_6.0.0.dir/__/__/mesh/prov/src/prov_beacon.c.obj
                0x0002fcd4                prov_beacon_unprov_build
 .text.prov_beacon_unprov_packet_in
                0x0002fd28       0x88 examples/dfu/CMakeFiles/dfu_nrf52832_xxAA_s132_6.0.0.dir/__/__/mesh/prov/src/prov_beacon.c.obj
                0x0002fd28                prov_beacon_unprov_packet_in
 .text.prov_beacon_scan_start
                0x0002fdb0       0x18 examples/dfu/CMakeFiles/dfu_nrf52832_xxAA_s132_6.0.0.dir/__/__/mesh/prov/src/prov_beacon.c.obj
                0x0002fdb0                prov_beacon_scan_start
 .text.prov_beacon_scan_stop
                0x0002fdc8        0xc examples/dfu/CMakeFiles/dfu_nrf52832_xxAA_s132_6.0.0.dir/__/__/mesh/prov/src/prov_beacon.c.obj
                0x0002fdc8                prov_beacon_scan_stop
 .text.oob_gen_alphanumeric
                0x0002fdd4       0x34 examples/dfu/CMakeFiles/dfu_nrf52832_xxAA_s132_6.0.0.dir/__/__/mesh/prov/src/prov_utils.c.obj
 .text.oob_gen_numeric
                0x0002fe08       0x3c examples/dfu/CMakeFiles/dfu_nrf52832_xxAA_s132_6.0.0.dir/__/__/mesh/prov/src/prov_utils.c.obj
 .text.prov_utils_opt_set
                0x0002fe44       0x20 examples/dfu/CMakeFiles/dfu_nrf52832_xxAA_s132_6.0.0.dir/__/__/mesh/prov/src/prov_utils.c.obj
                0x0002fe44                prov_utils_opt_set
 .text.prov_utils_opt_get
                0x0002fe64       0x1c examples/dfu/CMakeFiles/dfu_nrf52832_xxAA_s132_6.0.0.dir/__/__/mesh/prov/src/prov_utils.c.obj
                0x0002fe64                prov_utils_opt_get
 .text.prov_utils_use_ecdh_offloading
                0x0002fe80        0xc examples/dfu/CMakeFiles/dfu_nrf52832_xxAA_s132_6.0.0.dir/__/__/mesh/prov/src/prov_utils.c.obj
                0x0002fe80                prov_utils_use_ecdh_offloading
 .text.prov_utils_authentication_values_derive
                0x0002fe8c       0xa0 examples/dfu/CMakeFiles/dfu_nrf52832_xxAA_s132_6.0.0.dir/__/__/mesh/prov/src/prov_utils.c.obj
                0x0002fe8c                prov_utils_authentication_values_derive
 .text.prov_utils_keys_generate
                0x0002ff2c       0x1e examples/dfu/CMakeFiles/dfu_nrf52832_xxAA_s132_6.0.0.dir/__/__/mesh/prov/src/prov_utils.c.obj
                0x0002ff2c                prov_utils_keys_generate
 *fill*         0x0002ff4a        0x2 
 .text.prov_utils_derive_keys
                0x0002ff4c       0xac examples/dfu/CMakeFiles/dfu_nrf52832_xxAA_s132_6.0.0.dir/__/__/mesh/prov/src/prov_utils.c.obj
                0x0002ff4c                prov_utils_derive_keys
 .text.prov_utils_calculate_shared_secret
                0x0002fff8       0x36 examples/dfu/CMakeFiles/dfu_nrf52832_xxAA_s132_6.0.0.dir/__/__/mesh/prov/src/prov_utils.c.obj
                0x0002fff8                prov_utils_calculate_shared_secret
 .text.prov_utils_generate_oob_data
                0x0003002e       0x8a examples/dfu/CMakeFiles/dfu_nrf52832_xxAA_s132_6.0.0.dir/__/__/mesh/prov/src/prov_utils.c.obj
                0x0003002e                prov_utils_generate_oob_data
 .text.prov_utils_confirmation_check
                0x000300b8       0x5c examples/dfu/CMakeFiles/dfu_nrf52832_xxAA_s132_6.0.0.dir/__/__/mesh/prov/src/prov_utils.c.obj
                0x000300b8                prov_utils_confirmation_check
 .text.link_timeout_cb
                0x00030114       0x10 examples/dfu/CMakeFiles/dfu_nrf52832_xxAA_s132_6.0.0.dir/__/__/mesh/prov/src/prov_bearer_adv.c.obj
 .text.remove_active_bearer
                0x00030124       0x4c examples/dfu/CMakeFiles/dfu_nrf52832_xxAA_s132_6.0.0.dir/__/__/mesh/prov/src/prov_bearer_adv.c.obj
 .text.close_link
                0x00030170       0x58 examples/dfu/CMakeFiles/dfu_nrf52832_xxAA_s132_6.0.0.dir/__/__/mesh/prov/src/prov_bearer_adv.c.obj
 .text.prov_bearer_adv_listen_stop
                0x000301c8       0x30 examples/dfu/CMakeFiles/dfu_nrf52832_xxAA_s132_6.0.0.dir/__/__/mesh/prov/src/prov_bearer_adv.c.obj
 .text.send_packet
                0x000301f8       0x5e examples/dfu/CMakeFiles/dfu_nrf52832_xxAA_s132_6.0.0.dir/__/__/mesh/prov/src/prov_bearer_adv.c.obj
 .text.prov_buffer_tx
                0x00030256      0x134 examples/dfu/CMakeFiles/dfu_nrf52832_xxAA_s132_6.0.0.dir/__/__/mesh/prov/src/prov_bearer_adv.c.obj
 .text.send_link_close
                0x0003038a       0x38 examples/dfu/CMakeFiles/dfu_nrf52832_xxAA_s132_6.0.0.dir/__/__/mesh/prov/src/prov_bearer_adv.c.obj
 .text.prov_bearer_adv_link_close
                0x000303c2       0x56 examples/dfu/CMakeFiles/dfu_nrf52832_xxAA_s132_6.0.0.dir/__/__/mesh/prov/src/prov_bearer_adv.c.obj
 .text.send_transaction_ack
                0x00030418       0x24 examples/dfu/CMakeFiles/dfu_nrf52832_xxAA_s132_6.0.0.dir/__/__/mesh/prov/src/prov_bearer_adv.c.obj
 .text.send_link_ack
                0x0003043c       0x32 examples/dfu/CMakeFiles/dfu_nrf52832_xxAA_s132_6.0.0.dir/__/__/mesh/prov/src/prov_bearer_adv.c.obj
 .text.reset_timeout_timer
                0x0003046e       0x1a examples/dfu/CMakeFiles/dfu_nrf52832_xxAA_s132_6.0.0.dir/__/__/mesh/prov/src/prov_bearer_adv.c.obj
 .text.tx_complete_cb
                0x00030488       0x1c examples/dfu/CMakeFiles/dfu_nrf52832_xxAA_s132_6.0.0.dir/__/__/mesh/prov/src/prov_bearer_adv.c.obj
 .text.tx_retry_cb
                0x000304a4       0xcc examples/dfu/CMakeFiles/dfu_nrf52832_xxAA_s132_6.0.0.dir/__/__/mesh/prov/src/prov_bearer_adv.c.obj
 .text.add_active_bearer
                0x00030570       0x80 examples/dfu/CMakeFiles/dfu_nrf52832_xxAA_s132_6.0.0.dir/__/__/mesh/prov/src/prov_bearer_adv.c.obj
 .text.prov_bearer_adv_link_open
                0x000305f0       0xec examples/dfu/CMakeFiles/dfu_nrf52832_xxAA_s132_6.0.0.dir/__/__/mesh/prov/src/prov_bearer_adv.c.obj
 .text.async_process
                0x000306dc       0x50 examples/dfu/CMakeFiles/dfu_nrf52832_xxAA_s132_6.0.0.dir/__/__/mesh/prov/src/prov_bearer_adv.c.obj
 .text.prov_bearer_adv_listen
                0x0003072c       0xd8 examples/dfu/CMakeFiles/dfu_nrf52832_xxAA_s132_6.0.0.dir/__/__/mesh/prov/src/prov_bearer_adv.c.obj
 .text.calculate_3GPP_CRC
                0x00030804       0x24 examples/dfu/CMakeFiles/dfu_nrf52832_xxAA_s132_6.0.0.dir/__/__/mesh/prov/src/prov_bearer_adv.c.obj
                0x00030804                calculate_3GPP_CRC
 .text.prov_bearer_adv_tx
                0x00030828       0xb4 examples/dfu/CMakeFiles/dfu_nrf52832_xxAA_s132_6.0.0.dir/__/__/mesh/prov/src/prov_bearer_adv.c.obj
 .text.prov_buffer_rx
                0x000308dc       0x6e examples/dfu/CMakeFiles/dfu_nrf52832_xxAA_s132_6.0.0.dir/__/__/mesh/prov/src/prov_bearer_adv.c.obj
 *fill*         0x0003094a        0x2 
 .text.nrf_mesh_prov_bearer_adv_interface_get
                0x0003094c       0x3c examples/dfu/CMakeFiles/dfu_nrf52832_xxAA_s132_6.0.0.dir/__/__/mesh/prov/src/prov_bearer_adv.c.obj
                0x0003094c                nrf_mesh_prov_bearer_adv_interface_get
 .text.prov_bearer_adv_packet_in
                0x00030988      0x7f8 examples/dfu/CMakeFiles/dfu_nrf52832_xxAA_s132_6.0.0.dir/__/__/mesh/prov/src/prov_bearer_adv.c.obj
                0x00030988                prov_bearer_adv_packet_in
 .text.tx_complete_cb
                0x00031180        0x2 examples/dfu/CMakeFiles/dfu_nrf52832_xxAA_s132_6.0.0.dir/__/__/mesh/dfu/src/nrf_mesh_dfu.c.obj
 *fill*         0x00031182        0x2 
 .text.reset_transfer_state
                0x00031184       0x24 examples/dfu/CMakeFiles/dfu_nrf52832_xxAA_s132_6.0.0.dir/__/__/mesh/dfu/src/nrf_mesh_dfu.c.obj
 .text.end_transfer
                0x000311a8       0x48 examples/dfu/CMakeFiles/dfu_nrf52832_xxAA_s132_6.0.0.dir/__/__/mesh/dfu/src/nrf_mesh_dfu.c.obj
 .text.dfu_evt_handler
                0x000311f0      0x820 examples/dfu/CMakeFiles/dfu_nrf52832_xxAA_s132_6.0.0.dir/__/__/mesh/dfu/src/nrf_mesh_dfu.c.obj
 .text.next_tx_timeout
                0x00031a10       0x58 examples/dfu/CMakeFiles/dfu_nrf52832_xxAA_s132_6.0.0.dir/__/__/mesh/dfu/src/nrf_mesh_dfu.c.obj
 .text.tx_timeout
                0x00031a68       0xfc examples/dfu/CMakeFiles/dfu_nrf52832_xxAA_s132_6.0.0.dir/__/__/mesh/dfu/src/nrf_mesh_dfu.c.obj
 .text.nrf_mesh_dfu_jump_to_bootloader
                0x00031b64       0x40 examples/dfu/CMakeFiles/dfu_nrf52832_xxAA_s132_6.0.0.dir/__/__/mesh/dfu/src/nrf_mesh_dfu.c.obj
                0x00031b64                nrf_mesh_dfu_jump_to_bootloader
 .text.nrf_mesh_dfu_state_get
                0x00031ba4       0x48 examples/dfu/CMakeFiles/dfu_nrf52832_xxAA_s132_6.0.0.dir/__/__/mesh/dfu/src/nrf_mesh_dfu.c.obj
                0x00031ba4                nrf_mesh_dfu_state_get
 .text.nrf_mesh_dfu_cmd_send
                0x00031bec       0x90 examples/dfu/CMakeFiles/dfu_nrf52832_xxAA_s132_6.0.0.dir/__/__/mesh/dfu/src/nrf_mesh_dfu.c.obj
                0x00031bec                nrf_mesh_dfu_cmd_send
 .text.nrf_mesh_dfu_init
                0x00031c7c      0x158 examples/dfu/CMakeFiles/dfu_nrf52832_xxAA_s132_6.0.0.dir/__/__/mesh/dfu/src/nrf_mesh_dfu.c.obj
                0x00031c7c                nrf_mesh_dfu_init
 .text.flash_op_complete
                0x00031dd4      0x14c examples/dfu/CMakeFiles/dfu_nrf52832_xxAA_s132_6.0.0.dir/__/__/mesh/dfu/src/nrf_mesh_dfu.c.obj
 .text.abort_timeout
                0x00031f20       0x80 examples/dfu/CMakeFiles/dfu_nrf52832_xxAA_s132_6.0.0.dir/__/__/mesh/dfu/src/nrf_mesh_dfu.c.obj
 .text.timer_timeout
                0x00031fa0       0x7c examples/dfu/CMakeFiles/dfu_nrf52832_xxAA_s132_6.0.0.dir/__/__/mesh/dfu/src/nrf_mesh_dfu.c.obj
 .text.nrf_mesh_dfu_rx
                0x0003201c       0xc8 examples/dfu/CMakeFiles/dfu_nrf52832_xxAA_s132_6.0.0.dir/__/__/mesh/dfu/src/nrf_mesh_dfu.c.obj
                0x0003201c                nrf_mesh_dfu_rx
 .text.nrf_mesh_dfu_request
                0x000320e4       0x98 examples/dfu/CMakeFiles/dfu_nrf52832_xxAA_s132_6.0.0.dir/__/__/mesh/dfu/src/nrf_mesh_dfu.c.obj
                0x000320e4                nrf_mesh_dfu_request
 .text.nrf_mesh_dfu_relay
                0x0003217c       0x68 examples/dfu/CMakeFiles/dfu_nrf52832_xxAA_s132_6.0.0.dir/__/__/mesh/dfu/src/nrf_mesh_dfu.c.obj
                0x0003217c                nrf_mesh_dfu_relay
 .text.nrf_mesh_dfu_abort
                0x000321e4       0x2c examples/dfu/CMakeFiles/dfu_nrf52832_xxAA_s132_6.0.0.dir/__/__/mesh/dfu/src/nrf_mesh_dfu.c.obj
                0x000321e4                nrf_mesh_dfu_abort
 .text.nrf_mesh_dfu_bank_info_get
                0x00032210       0x30 examples/dfu/CMakeFiles/dfu_nrf52832_xxAA_s132_6.0.0.dir/__/__/mesh/dfu/src/nrf_mesh_dfu.c.obj
                0x00032210                nrf_mesh_dfu_bank_info_get
 .text.nrf_mesh_dfu_bank_flash
                0x00032240       0x28 examples/dfu/CMakeFiles/dfu_nrf52832_xxAA_s132_6.0.0.dir/__/__/mesh/dfu/src/nrf_mesh_dfu.c.obj
                0x00032240                nrf_mesh_dfu_bank_flash
 .text.app_error_fault_handler
                0x00032268      0x204 examples/dfu/CMakeFiles/dfu_nrf52832_xxAA_s132_6.0.0.dir/__/common/src/app_error_weak.c.obj
                0x00032268                app_error_fault_handler
 .text.mesh_assertion_handler
                0x0003246c       0x24 examples/dfu/CMakeFiles/dfu_nrf52832_xxAA_s132_6.0.0.dir/__/common/src/assertion_handler_weak.c.obj
                0x0003246c                mesh_assertion_handler
 .text.nrf_mesh_configure_device_uuid_set
                0x00032490       0x10 examples/dfu/CMakeFiles/dfu_nrf52832_xxAA_s132_6.0.0.dir/__/__/mesh/core/src/nrf_mesh_configure.c.obj
                0x00032490                nrf_mesh_configure_device_uuid_set
 .text.nrf_mesh_configure_device_uuid_reset
                0x000324a0       0x28 examples/dfu/CMakeFiles/dfu_nrf52832_xxAA_s132_6.0.0.dir/__/__/mesh/core/src/nrf_mesh_configure.c.obj
                0x000324a0                nrf_mesh_configure_device_uuid_reset
 .text.nrf_mesh_configure_device_uuid_get
                0x000324c8        0x8 examples/dfu/CMakeFiles/dfu_nrf52832_xxAA_s132_6.0.0.dir/__/__/mesh/core/src/nrf_mesh_configure.c.obj
                0x000324c8                nrf_mesh_configure_device_uuid_get
 .text.sd_ecb_block_encrypt
                0x000324d0        0x4 examples/dfu/CMakeFiles/dfu_nrf52832_xxAA_s132_6.0.0.dir/__/__/mesh/core/src/aes.c.obj
 .text.aes_encrypt
                0x000324d4       0x32 examples/dfu/CMakeFiles/dfu_nrf52832_xxAA_s132_6.0.0.dir/__/__/mesh/core/src/aes.c.obj
                0x000324d4                aes_encrypt
 *fill*         0x00032506        0x2 
 .text.msg_cache_init
                0x00032508       0x24 examples/dfu/CMakeFiles/dfu_nrf52832_xxAA_s132_6.0.0.dir/__/__/mesh/core/src/msg_cache.c.obj
                0x00032508                msg_cache_init
 .text.msg_cache_entry_exists
                0x0003252c       0x3c examples/dfu/CMakeFiles/dfu_nrf52832_xxAA_s132_6.0.0.dir/__/__/mesh/core/src/msg_cache.c.obj
                0x0003252c                msg_cache_entry_exists
 .text.msg_cache_entry_add
                0x00032568       0x2c examples/dfu/CMakeFiles/dfu_nrf52832_xxAA_s132_6.0.0.dir/__/__/mesh/core/src/msg_cache.c.obj
                0x00032568                msg_cache_entry_add
 .text.seqauth_sequence_number_get
                0x00032594       0x12 examples/dfu/CMakeFiles/dfu_nrf52832_xxAA_s132_6.0.0.dir/__/__/mesh/core/src/transport.c.obj
 *fill*         0x000325a6        0x2 
 .text.control_packet_callback_get
                0x000325a8       0x44 examples/dfu/CMakeFiles/dfu_nrf52832_xxAA_s132_6.0.0.dir/__/__/mesh/core/src/transport.c.obj
 .text.tx_complete
                0x000325ec       0x30 examples/dfu/CMakeFiles/dfu_nrf52832_xxAA_s132_6.0.0.dir/__/__/mesh/core/src/transport.c.obj
 .text.block_ack_full
                0x0003261c       0x1a examples/dfu/CMakeFiles/dfu_nrf52832_xxAA_s132_6.0.0.dir/__/__/mesh/core/src/transport.c.obj
 *fill*         0x00032636        0x2 
 .text.sar_rx_session_mark_as_handled
                0x00032638       0x48 examples/dfu/CMakeFiles/dfu_nrf52832_xxAA_s132_6.0.0.dir/__/__/mesh/core/src/transport.c.obj
 .text.upper_trs_packet_encrypt
                0x00032680       0x90 examples/dfu/CMakeFiles/dfu_nrf52832_xxAA_s132_6.0.0.dir/__/__/mesh/core/src/transport.c.obj
 .text.sar_ctx_free
                0x00032710       0x3c examples/dfu/CMakeFiles/dfu_nrf52832_xxAA_s132_6.0.0.dir/__/__/mesh/core/src/transport.c.obj
 .text.sar_ctx_tx_complete
                0x0003274c       0x2e examples/dfu/CMakeFiles/dfu_nrf52832_xxAA_s132_6.0.0.dir/__/__/mesh/core/src/transport.c.obj
 *fill*         0x0003277a        0x2 
 .text.sar_ctx_alloc
                0x0003277c       0xa4 examples/dfu/CMakeFiles/dfu_nrf52832_xxAA_s132_6.0.0.dir/__/__/mesh/core/src/transport.c.obj
 .text.test_transport_decrypt
                0x00032820       0x88 examples/dfu/CMakeFiles/dfu_nrf52832_xxAA_s132_6.0.0.dir/__/__/mesh/core/src/transport.c.obj
 .text.upper_transport_access_packet_in
                0x000328a8      0x19c examples/dfu/CMakeFiles/dfu_nrf52832_xxAA_s132_6.0.0.dir/__/__/mesh/core/src/transport.c.obj
 .text.trs_packet_header_build
                0x00032a44       0xa6 examples/dfu/CMakeFiles/dfu_nrf52832_xxAA_s132_6.0.0.dir/__/__/mesh/core/src/transport.c.obj
 *fill*         0x00032aea        0x2 
 .text.tx_retry_timer_reset
                0x00032aec       0x44 examples/dfu/CMakeFiles/dfu_nrf52832_xxAA_s132_6.0.0.dir/__/__/mesh/core/src/transport.c.obj
 .text.sar_ctx_cancel
                0x00032b30       0xa8 examples/dfu/CMakeFiles/dfu_nrf52832_xxAA_s132_6.0.0.dir/__/__/mesh/core/src/transport.c.obj
 .text.abort_timeout
                0x00032bd8        0x8 examples/dfu/CMakeFiles/dfu_nrf52832_xxAA_s132_6.0.0.dir/__/__/mesh/core/src/transport.c.obj
 .text.trs_sar_packet_out
                0x00032be0       0xda examples/dfu/CMakeFiles/dfu_nrf52832_xxAA_s132_6.0.0.dir/__/__/mesh/core/src/transport.c.obj
 .text.retry_timeout
                0x00032cba       0x46 examples/dfu/CMakeFiles/dfu_nrf52832_xxAA_s132_6.0.0.dir/__/__/mesh/core/src/transport.c.obj
 .text.upper_transport_packet_in
                0x00032d00      0x150 examples/dfu/CMakeFiles/dfu_nrf52832_xxAA_s132_6.0.0.dir/__/__/mesh/core/src/transport.c.obj
 .text.upper_transport_tx
                0x00032e50      0x1e4 examples/dfu/CMakeFiles/dfu_nrf52832_xxAA_s132_6.0.0.dir/__/__/mesh/core/src/transport.c.obj
 .text.transport_sar_mem_funcs_reset
                0x00033034       0x28 examples/dfu/CMakeFiles/dfu_nrf52832_xxAA_s132_6.0.0.dir/__/__/mesh/core/src/transport.c.obj
                0x00033034                transport_sar_mem_funcs_reset
 .text.transport_init
                0x0003305c       0x8c examples/dfu/CMakeFiles/dfu_nrf52832_xxAA_s132_6.0.0.dir/__/__/mesh/core/src/transport.c.obj
                0x0003305c                transport_init
 .text.transport_tx
                0x000330e8       0xb4 examples/dfu/CMakeFiles/dfu_nrf52832_xxAA_s132_6.0.0.dir/__/__/mesh/core/src/transport.c.obj
                0x000330e8                transport_tx
 .text.transport_control_tx
                0x0003319c       0x8e examples/dfu/CMakeFiles/dfu_nrf52832_xxAA_s132_6.0.0.dir/__/__/mesh/core/src/transport.c.obj
                0x0003319c                transport_control_tx
 *fill*         0x0003322a        0x2 
 .text.sar_ack_send
                0x0003322c       0xa0 examples/dfu/CMakeFiles/dfu_nrf52832_xxAA_s132_6.0.0.dir/__/__/mesh/core/src/transport.c.obj
 .text.transport_sar_process
                0x000332cc       0x74 examples/dfu/CMakeFiles/dfu_nrf52832_xxAA_s132_6.0.0.dir/__/__/mesh/core/src/transport.c.obj
 .text.transport_packet_in
                0x00033340      0x434 examples/dfu/CMakeFiles/dfu_nrf52832_xxAA_s132_6.0.0.dir/__/__/mesh/core/src/transport.c.obj
                0x00033340                transport_packet_in
 .text.ack_timeout
                0x00033774       0x28 examples/dfu/CMakeFiles/dfu_nrf52832_xxAA_s132_6.0.0.dir/__/__/mesh/core/src/transport.c.obj
 .text.transport_opt_set
                0x0003379c       0xd0 examples/dfu/CMakeFiles/dfu_nrf52832_xxAA_s132_6.0.0.dir/__/__/mesh/core/src/transport.c.obj
                0x0003379c                transport_opt_set
 .text.transport_opt_get
                0x0003386c       0x68 examples/dfu/CMakeFiles/dfu_nrf52832_xxAA_s132_6.0.0.dir/__/__/mesh/core/src/transport.c.obj
                0x0003386c                transport_opt_get
 .text.transport_control_packet_consumer_add
                0x000338d4       0x5c examples/dfu/CMakeFiles/dfu_nrf52832_xxAA_s132_6.0.0.dir/__/__/mesh/core/src/transport.c.obj
                0x000338d4                transport_control_packet_consumer_add
 .text.event_handle
                0x00033930       0x24 examples/dfu/CMakeFiles/dfu_nrf52832_xxAA_s132_6.0.0.dir/__/__/mesh/core/src/event.c.obj
                0x00033930                event_handle
 .text.event_handler_add
                0x00033954       0x1c examples/dfu/CMakeFiles/dfu_nrf52832_xxAA_s132_6.0.0.dir/__/__/mesh/core/src/event.c.obj
                0x00033954                event_handler_add
 .text.event_handler_remove
                0x00033970       0x1c examples/dfu/CMakeFiles/dfu_nrf52832_xxAA_s132_6.0.0.dir/__/__/mesh/core/src/event.c.obj
                0x00033970                event_handler_remove
 .text.m_index_increment
                0x0003398c       0x1e examples/dfu/CMakeFiles/dfu_nrf52832_xxAA_s132_6.0.0.dir/__/__/mesh/core/src/packet_buffer.c.obj
 .text.packet_buffer_max_packet_len_get
                0x000339aa       0x20 examples/dfu/CMakeFiles/dfu_nrf52832_xxAA_s132_6.0.0.dir/__/__/mesh/core/src/packet_buffer.c.obj
                0x000339aa                packet_buffer_max_packet_len_get
 .text.packet_buffer_init
                0x000339ca       0xac examples/dfu/CMakeFiles/dfu_nrf52832_xxAA_s132_6.0.0.dir/__/__/mesh/core/src/packet_buffer.c.obj
                0x000339ca                packet_buffer_init
 .text.packet_buffer_flush
                0x00033a76       0x60 examples/dfu/CMakeFiles/dfu_nrf52832_xxAA_s132_6.0.0.dir/__/__/mesh/core/src/packet_buffer.c.obj
                0x00033a76                packet_buffer_flush
 .text.packet_buffer_reserve
                0x00033ad6       0x96 examples/dfu/CMakeFiles/dfu_nrf52832_xxAA_s132_6.0.0.dir/__/__/mesh/core/src/packet_buffer.c.obj
                0x00033ad6                packet_buffer_reserve
 .text.packet_buffer_commit
                0x00033b6c       0x58 examples/dfu/CMakeFiles/dfu_nrf52832_xxAA_s132_6.0.0.dir/__/__/mesh/core/src/packet_buffer.c.obj
                0x00033b6c                packet_buffer_commit
 .text.packet_buffer_pop
                0x00033bc4       0x3c examples/dfu/CMakeFiles/dfu_nrf52832_xxAA_s132_6.0.0.dir/__/__/mesh/core/src/packet_buffer.c.obj
                0x00033bc4                packet_buffer_pop
 .text.packet_buffer_can_pop
                0x00033c00       0x1c examples/dfu/CMakeFiles/dfu_nrf52832_xxAA_s132_6.0.0.dir/__/__/mesh/core/src/packet_buffer.c.obj
                0x00033c00                packet_buffer_can_pop
 .text.packet_buffer_packets_ready_to_pop
                0x00033c1c       0x3a examples/dfu/CMakeFiles/dfu_nrf52832_xxAA_s132_6.0.0.dir/__/__/mesh/core/src/packet_buffer.c.obj
                0x00033c1c                packet_buffer_packets_ready_to_pop
 .text.packet_buffer_free
                0x00033c56       0x6e examples/dfu/CMakeFiles/dfu_nrf52832_xxAA_s132_6.0.0.dir/__/__/mesh/core/src/packet_buffer.c.obj
                0x00033c56                packet_buffer_free
 .text.get_last_page
                0x00033cc4       0x14 examples/dfu/CMakeFiles/dfu_nrf52832_xxAA_s132_6.0.0.dir/__/__/mesh/core/src/flash_manager_defrag.c.obj
 .text.defrag_on_end
                0x00033cd8       0x1c examples/dfu/CMakeFiles/dfu_nrf52832_xxAA_s132_6.0.0.dir/__/__/mesh/core/src/flash_manager_defrag.c.obj
 .text.execute_procedure_step
                0x00033cf4       0x7c examples/dfu/CMakeFiles/dfu_nrf52832_xxAA_s132_6.0.0.dir/__/__/mesh/core/src/flash_manager_defrag.c.obj
 .text.get_next_entry
                0x00033d70       0x34 examples/dfu/CMakeFiles/dfu_nrf52832_xxAA_s132_6.0.0.dir/__/__/mesh/core/src/flash_manager_defrag.c.obj
 .text.get_next_data_entry
                0x00033da4       0x26 examples/dfu/CMakeFiles/dfu_nrf52832_xxAA_s132_6.0.0.dir/__/__/mesh/core/src/flash_manager_defrag.c.obj
 *fill*         0x00033dca        0x2 
 .text.on_flash_op_end
                0x00033dcc       0x30 examples/dfu/CMakeFiles/dfu_nrf52832_xxAA_s132_6.0.0.dir/__/__/mesh/core/src/flash_manager_defrag.c.obj
 .text.check_for_invalid_entries
                0x00033dfc       0x38 examples/dfu/CMakeFiles/dfu_nrf52832_xxAA_s132_6.0.0.dir/__/__/mesh/core/src/flash_manager_defrag.c.obj
 .text.erase_recovery_area
                0x00033e34       0x34 examples/dfu/CMakeFiles/dfu_nrf52832_xxAA_s132_6.0.0.dir/__/__/mesh/core/src/flash_manager_defrag.c.obj
 .text.flash.constprop.6
                0x00033e68       0x24 examples/dfu/CMakeFiles/dfu_nrf52832_xxAA_s132_6.0.0.dir/__/__/mesh/core/src/flash_manager_defrag.c.obj
 .text.seal_storage_page
                0x00033e8c       0x50 examples/dfu/CMakeFiles/dfu_nrf52832_xxAA_s132_6.0.0.dir/__/__/mesh/core/src/flash_manager_defrag.c.obj
 .text.invalidate_duplicate_entries
                0x00033edc       0x9c examples/dfu/CMakeFiles/dfu_nrf52832_xxAA_s132_6.0.0.dir/__/__/mesh/core/src/flash_manager_defrag.c.obj
 .text.copy_metadata
                0x00033f78       0x3c examples/dfu/CMakeFiles/dfu_nrf52832_xxAA_s132_6.0.0.dir/__/__/mesh/core/src/flash_manager_defrag.c.obj
 .text.write_defrag_start_pointer
                0x00033fb4       0x20 examples/dfu/CMakeFiles/dfu_nrf52832_xxAA_s132_6.0.0.dir/__/__/mesh/core/src/flash_manager_defrag.c.obj
 .text.write_back
                0x00033fd4       0x28 examples/dfu/CMakeFiles/dfu_nrf52832_xxAA_s132_6.0.0.dir/__/__/mesh/core/src/flash_manager_defrag.c.obj
 .text.post_process
                0x00033ffc       0x40 examples/dfu/CMakeFiles/dfu_nrf52832_xxAA_s132_6.0.0.dir/__/__/mesh/core/src/flash_manager_defrag.c.obj
 .text.backup_entries
                0x0003403c       0xf8 examples/dfu/CMakeFiles/dfu_nrf52832_xxAA_s132_6.0.0.dir/__/__/mesh/core/src/flash_manager_defrag.c.obj
 .text.erase_source
                0x00034134       0x34 examples/dfu/CMakeFiles/dfu_nrf52832_xxAA_s132_6.0.0.dir/__/__/mesh/core/src/flash_manager_defrag.c.obj
 .text.flash_manager_defrag_init
                0x00034168       0x8c examples/dfu/CMakeFiles/dfu_nrf52832_xxAA_s132_6.0.0.dir/__/__/mesh/core/src/flash_manager_defrag.c.obj
                0x00034168                flash_manager_defrag_init
 .text.flash_manager_defrag_is_running
                0x000341f4       0x10 examples/dfu/CMakeFiles/dfu_nrf52832_xxAA_s132_6.0.0.dir/__/__/mesh/core/src/flash_manager_defrag.c.obj
                0x000341f4                flash_manager_defrag_is_running
 .text.flash_manager_defrag
                0x00034204       0x44 examples/dfu/CMakeFiles/dfu_nrf52832_xxAA_s132_6.0.0.dir/__/__/mesh/core/src/flash_manager_defrag.c.obj
                0x00034204                flash_manager_defrag
 .text.flash_manager_defrag_recovery_page_get
                0x00034248        0xc examples/dfu/CMakeFiles/dfu_nrf52832_xxAA_s132_6.0.0.dir/__/__/mesh/core/src/flash_manager_defrag.c.obj
                0x00034248                flash_manager_defrag_recovery_page_get
 .text.fifo_init
                0x00034254       0x34 examples/dfu/CMakeFiles/dfu_nrf52832_xxAA_s132_6.0.0.dir/__/__/mesh/core/src/fifo.c.obj
                0x00034254                fifo_init
 .text.fifo_push
                0x00034288       0x50 examples/dfu/CMakeFiles/dfu_nrf52832_xxAA_s132_6.0.0.dir/__/__/mesh/core/src/fifo.c.obj
                0x00034288                fifo_push
 .text.fifo_pop
                0x000342d8       0x52 examples/dfu/CMakeFiles/dfu_nrf52832_xxAA_s132_6.0.0.dir/__/__/mesh/core/src/fifo.c.obj
                0x000342d8                fifo_pop
 *fill*         0x0003432a        0x2 
 .text.wait_for_ready
                0x0003432c       0x10 examples/dfu/CMakeFiles/dfu_nrf52832_xxAA_s132_6.0.0.dir/__/__/mesh/core/src/nrf_flash.c.obj
 .text.nrf_flash_erase
                0x0003433c       0x50 examples/dfu/CMakeFiles/dfu_nrf52832_xxAA_s132_6.0.0.dir/__/__/mesh/core/src/nrf_flash.c.obj
                0x0003433c                nrf_flash_erase
 .text.nrf_flash_write
                0x0003438c       0x50 examples/dfu/CMakeFiles/dfu_nrf52832_xxAA_s132_6.0.0.dir/__/__/mesh/core/src/nrf_flash.c.obj
                0x0003438c                nrf_flash_write
 .text.packet_mgr_init
                0x000343dc       0x4c examples/dfu/CMakeFiles/dfu_nrf52832_xxAA_s132_6.0.0.dir/__/__/mesh/core/src/packet_mgr.c.obj
                0x000343dc                packet_mgr_init
 .text.flash_store_iv_index
                0x00034428       0x38 examples/dfu/CMakeFiles/dfu_nrf52832_xxAA_s132_6.0.0.dir/__/__/mesh/core/src/net_state.c.obj
 .text.flash_mem_available
                0x00034460       0x14 examples/dfu/CMakeFiles/dfu_nrf52832_xxAA_s132_6.0.0.dir/__/__/mesh/core/src/net_state.c.obj
 .text.seqnum_block_allocate
                0x00034474       0x4c examples/dfu/CMakeFiles/dfu_nrf52832_xxAA_s132_6.0.0.dir/__/__/mesh/core/src/net_state.c.obj
 .text.net_state_reset
                0x000344c0       0x3c examples/dfu/CMakeFiles/dfu_nrf52832_xxAA_s132_6.0.0.dir/__/__/mesh/core/src/net_state.c.obj
                0x000344c0                net_state_reset
 .text.flash_write_complete
                0x000344fc       0x64 examples/dfu/CMakeFiles/dfu_nrf52832_xxAA_s132_6.0.0.dir/__/__/mesh/core/src/net_state.c.obj
 .text.net_state_recover_from_flash
                0x00034560       0x8c examples/dfu/CMakeFiles/dfu_nrf52832_xxAA_s132_6.0.0.dir/__/__/mesh/core/src/net_state.c.obj
                0x00034560                net_state_recover_from_flash
 .text.net_state_flash_area_get
                0x000345ec        0xc examples/dfu/CMakeFiles/dfu_nrf52832_xxAA_s132_6.0.0.dir/__/__/mesh/core/src/net_state.c.obj
                0x000345ec                net_state_flash_area_get
 .text.init_flash_storage
                0x000345f8       0x40 examples/dfu/CMakeFiles/dfu_nrf52832_xxAA_s132_6.0.0.dir/__/__/mesh/core/src/net_state.c.obj
 .text.net_state_init
                0x00034638       0x5c examples/dfu/CMakeFiles/dfu_nrf52832_xxAA_s132_6.0.0.dir/__/__/mesh/core/src/net_state.c.obj
                0x00034638                net_state_init
 .text.net_state_iv_update_start
                0x00034694       0x68 examples/dfu/CMakeFiles/dfu_nrf52832_xxAA_s132_6.0.0.dir/__/__/mesh/core/src/net_state.c.obj
                0x00034694                net_state_iv_update_start
 .text.iv_update_trigger_if_pending
                0x000346fc       0x80 examples/dfu/CMakeFiles/dfu_nrf52832_xxAA_s132_6.0.0.dir/__/__/mesh/core/src/net_state.c.obj
 .text.mesh_evt_handler
                0x0003477c       0xa0 examples/dfu/CMakeFiles/dfu_nrf52832_xxAA_s132_6.0.0.dir/__/__/mesh/core/src/net_state.c.obj
 .text.iv_update_timer_handler
                0x0003481c       0x68 examples/dfu/CMakeFiles/dfu_nrf52832_xxAA_s132_6.0.0.dir/__/__/mesh/core/src/net_state.c.obj
 .text.net_state_seqnum_alloc
                0x00034884       0x68 examples/dfu/CMakeFiles/dfu_nrf52832_xxAA_s132_6.0.0.dir/__/__/mesh/core/src/net_state.c.obj
                0x00034884                net_state_seqnum_alloc
 .text.net_state_iv_index_lock
                0x000348ec       0x3c examples/dfu/CMakeFiles/dfu_nrf52832_xxAA_s132_6.0.0.dir/__/__/mesh/core/src/net_state.c.obj
                0x000348ec                net_state_iv_index_lock
 .text.net_state_key_refresh_phase_changed
                0x00034928       0x20 examples/dfu/CMakeFiles/dfu_nrf52832_xxAA_s132_6.0.0.dir/__/__/mesh/core/src/net_state.c.obj
                0x00034928                net_state_key_refresh_phase_changed
 .text.net_state_beacon_iv_index_get
                0x00034948        0xc examples/dfu/CMakeFiles/dfu_nrf52832_xxAA_s132_6.0.0.dir/__/__/mesh/core/src/net_state.c.obj
                0x00034948                net_state_beacon_iv_index_get
 .text.net_state_tx_iv_index_get
                0x00034954       0x14 examples/dfu/CMakeFiles/dfu_nrf52832_xxAA_s132_6.0.0.dir/__/__/mesh/core/src/net_state.c.obj
                0x00034954                net_state_tx_iv_index_get
 .text.net_state_rx_iv_index_get
                0x00034968       0x18 examples/dfu/CMakeFiles/dfu_nrf52832_xxAA_s132_6.0.0.dir/__/__/mesh/core/src/net_state.c.obj
                0x00034968                net_state_rx_iv_index_get
 .text.net_state_iv_update_get
                0x00034980        0xc examples/dfu/CMakeFiles/dfu_nrf52832_xxAA_s132_6.0.0.dir/__/__/mesh/core/src/net_state.c.obj
                0x00034980                net_state_iv_update_get
 .text.net_state_iv_index_set
                0x0003498c       0x30 examples/dfu/CMakeFiles/dfu_nrf52832_xxAA_s132_6.0.0.dir/__/__/mesh/core/src/net_state.c.obj
                0x0003498c                net_state_iv_index_set
 .text.send_end_events
                0x000349bc       0x84 examples/dfu/CMakeFiles/dfu_nrf52832_xxAA_s132_6.0.0.dir/__/__/mesh/core/src/mesh_flash.c.obj
 .text.flash_op_schedule
                0x00034a40       0x88 examples/dfu/CMakeFiles/dfu_nrf52832_xxAA_s132_6.0.0.dir/__/__/mesh/core/src/mesh_flash.c.obj
 .text.flash_op_start
                0x00034ac8      0x13c examples/dfu/CMakeFiles/dfu_nrf52832_xxAA_s132_6.0.0.dir/__/__/mesh/core/src/mesh_flash.c.obj
 .text.mesh_flash_init
                0x00034c04       0x88 examples/dfu/CMakeFiles/dfu_nrf52832_xxAA_s132_6.0.0.dir/__/__/mesh/core/src/mesh_flash.c.obj
                0x00034c04                mesh_flash_init
 .text.mesh_flash_user_callback_set
                0x00034c8c       0x20 examples/dfu/CMakeFiles/dfu_nrf52832_xxAA_s132_6.0.0.dir/__/__/mesh/core/src/mesh_flash.c.obj
                0x00034c8c                mesh_flash_user_callback_set
 .text.mesh_flash_op_push
                0x00034cac       0xe4 examples/dfu/CMakeFiles/dfu_nrf52832_xxAA_s132_6.0.0.dir/__/__/mesh/core/src/mesh_flash.c.obj
                0x00034cac                mesh_flash_op_push
 .text.mesh_flash_in_progress
                0x00034d90       0x34 examples/dfu/CMakeFiles/dfu_nrf52832_xxAA_s132_6.0.0.dir/__/__/mesh/core/src/mesh_flash.c.obj
                0x00034d90                mesh_flash_in_progress
 .text.mesh_flash_set_suspended
                0x00034dc4       0x74 examples/dfu/CMakeFiles/dfu_nrf52832_xxAA_s132_6.0.0.dir/__/__/mesh/core/src/mesh_flash.c.obj
                0x00034dc4                mesh_flash_set_suspended
 .text.nrf_mesh_address_type_get
                0x00034e38       0x10 examples/dfu/CMakeFiles/dfu_nrf52832_xxAA_s132_6.0.0.dir/__/__/mesh/core/src/nrf_mesh_utils.c.obj
                0x00034e38                nrf_mesh_address_type_get
 .text.sd_softdevice_is_enabled
                0x00034e48        0x4 examples/dfu/CMakeFiles/dfu_nrf52832_xxAA_s132_6.0.0.dir/__/__/mesh/core/src/nrf_mesh.c.obj
 .text.nrf_mesh_listen
                0x00034e4c      0x138 examples/dfu/CMakeFiles/dfu_nrf52832_xxAA_s132_6.0.0.dir/__/__/mesh/core/src/nrf_mesh.c.obj
 .text.flash_stable_cb
                0x00034f84       0x20 examples/dfu/CMakeFiles/dfu_nrf52832_xxAA_s132_6.0.0.dir/__/__/mesh/core/src/nrf_mesh.c.obj
 .text.scanner_packet_process_cb
                0x00034fa4       0x8c examples/dfu/CMakeFiles/dfu_nrf52832_xxAA_s132_6.0.0.dir/__/__/mesh/core/src/nrf_mesh.c.obj
 .text.nrf_mesh_init
                0x00035030       0xd8 examples/dfu/CMakeFiles/dfu_nrf52832_xxAA_s132_6.0.0.dir/__/__/mesh/core/src/nrf_mesh.c.obj
                0x00035030                nrf_mesh_init
 .text.nrf_mesh_enable
                0x00035108       0x3c examples/dfu/CMakeFiles/dfu_nrf52832_xxAA_s132_6.0.0.dir/__/__/mesh/core/src/nrf_mesh.c.obj
                0x00035108                nrf_mesh_enable
 .text.nrf_mesh_disable
                0x00035144       0x28 examples/dfu/CMakeFiles/dfu_nrf52832_xxAA_s132_6.0.0.dir/__/__/mesh/core/src/nrf_mesh.c.obj
                0x00035144                nrf_mesh_disable
 .text.nrf_mesh_packet_send
                0x0003516c       0x7c examples/dfu/CMakeFiles/dfu_nrf52832_xxAA_s132_6.0.0.dir/__/__/mesh/core/src/nrf_mesh.c.obj
                0x0003516c                nrf_mesh_packet_send
 .text.nrf_mesh_evt_handler_add
                0x000351e8        0x4 examples/dfu/CMakeFiles/dfu_nrf52832_xxAA_s132_6.0.0.dir/__/__/mesh/core/src/nrf_mesh.c.obj
                0x000351e8                nrf_mesh_evt_handler_add
 .text.nrf_mesh_on_sd_evt
                0x000351ec        0xa examples/dfu/CMakeFiles/dfu_nrf52832_xxAA_s132_6.0.0.dir/__/__/mesh/core/src/nrf_mesh.c.obj
                0x000351ec                nrf_mesh_on_sd_evt
 .text.nrf_mesh_subnet_added
                0x000351f6        0x2 examples/dfu/CMakeFiles/dfu_nrf52832_xxAA_s132_6.0.0.dir/__/__/mesh/core/src/nrf_mesh.c.obj
                0x000351f6                nrf_mesh_subnet_added
 .text.queue_init
                0x000351f8       0x14 examples/dfu/CMakeFiles/dfu_nrf52832_xxAA_s132_6.0.0.dir/__/__/mesh/core/src/queue.c.obj
                0x000351f8                queue_init
 .text.queue_push
                0x0003520c       0x34 examples/dfu/CMakeFiles/dfu_nrf52832_xxAA_s132_6.0.0.dir/__/__/mesh/core/src/queue.c.obj
                0x0003520c                queue_push
 .text.queue_pop
                0x00035240       0x26 examples/dfu/CMakeFiles/dfu_nrf52832_xxAA_s132_6.0.0.dir/__/__/mesh/core/src/queue.c.obj
                0x00035240                queue_pop
 .text.queue_peek
                0x00035266       0x10 examples/dfu/CMakeFiles/dfu_nrf52832_xxAA_s132_6.0.0.dir/__/__/mesh/core/src/queue.c.obj
                0x00035266                queue_peek
 .text.sd_power_reset_reason_clr
                0x00035276        0x4 examples/dfu/CMakeFiles/dfu_nrf52832_xxAA_s132_6.0.0.dir/__/__/mesh/core/src/hal.c.obj
 .text.sd_power_gpregret_set
                0x0003527a        0x4 examples/dfu/CMakeFiles/dfu_nrf52832_xxAA_s132_6.0.0.dir/__/__/mesh/core/src/hal.c.obj
 *fill*         0x0003527e        0x2 
 .text.hal_device_reset
                0x00035280       0x38 examples/dfu/CMakeFiles/dfu_nrf52832_xxAA_s132_6.0.0.dir/__/__/mesh/core/src/hal.c.obj
                0x00035280                hal_device_reset
 .text.hal_lfclk_ppm_get
                0x000352b8       0x14 examples/dfu/CMakeFiles/dfu_nrf52832_xxAA_s132_6.0.0.dir/__/__/mesh/core/src/hal.c.obj
                0x000352b8                hal_lfclk_ppm_get
 .text.my_xor.constprop.1
                0x000352cc       0x20 examples/dfu/CMakeFiles/dfu_nrf52832_xxAA_s132_6.0.0.dir/__/__/mesh/core/src/aes_cmac.c.obj
 .text.utils_lshift.constprop.2
                0x000352ec       0x24 examples/dfu/CMakeFiles/dfu_nrf52832_xxAA_s132_6.0.0.dir/__/__/mesh/core/src/aes_cmac.c.obj
 .text.aes_cmac_subkey_generate
                0x00035310       0x6c examples/dfu/CMakeFiles/dfu_nrf52832_xxAA_s132_6.0.0.dir/__/__/mesh/core/src/aes_cmac.c.obj
                0x00035310                aes_cmac_subkey_generate
 .text.aes_cmac
                0x0003537c       0xbc examples/dfu/CMakeFiles/dfu_nrf52832_xxAA_s132_6.0.0.dir/__/__/mesh/core/src/aes_cmac.c.obj
                0x0003537c                aes_cmac
 .text.add_to_add_list
                0x00035438       0x30 examples/dfu/CMakeFiles/dfu_nrf52832_xxAA_s132_6.0.0.dir/__/__/mesh/core/src/timer_scheduler.c.obj
 .text.process_dirty_events
                0x00035468       0x5c examples/dfu/CMakeFiles/dfu_nrf52832_xxAA_s132_6.0.0.dir/__/__/mesh/core/src/timer_scheduler.c.obj
 .text.timer_cb
                0x000354c4        0xc examples/dfu/CMakeFiles/dfu_nrf52832_xxAA_s132_6.0.0.dir/__/__/mesh/core/src/timer_scheduler.c.obj
 .text.add_evt.constprop.1
                0x000354d0       0x58 examples/dfu/CMakeFiles/dfu_nrf52832_xxAA_s132_6.0.0.dir/__/__/mesh/core/src/timer_scheduler.c.obj
 .text.process_add_list
                0x00035528       0x3c examples/dfu/CMakeFiles/dfu_nrf52832_xxAA_s132_6.0.0.dir/__/__/mesh/core/src/timer_scheduler.c.obj
 .text.flag_event_cb
                0x00035564       0xd8 examples/dfu/CMakeFiles/dfu_nrf52832_xxAA_s132_6.0.0.dir/__/__/mesh/core/src/timer_scheduler.c.obj
 .text.timer_sch_init
                0x0003563c       0x24 examples/dfu/CMakeFiles/dfu_nrf52832_xxAA_s132_6.0.0.dir/__/__/mesh/core/src/timer_scheduler.c.obj
                0x0003563c                timer_sch_init
 .text.timer_sch_schedule
                0x00035660       0x3c examples/dfu/CMakeFiles/dfu_nrf52832_xxAA_s132_6.0.0.dir/__/__/mesh/core/src/timer_scheduler.c.obj
                0x00035660                timer_sch_schedule
 .text.timer_sch_abort
                0x0003569c       0x58 examples/dfu/CMakeFiles/dfu_nrf52832_xxAA_s132_6.0.0.dir/__/__/mesh/core/src/timer_scheduler.c.obj
                0x0003569c                timer_sch_abort
 .text.timer_sch_reschedule
                0x000356f4       0x64 examples/dfu/CMakeFiles/dfu_nrf52832_xxAA_s132_6.0.0.dir/__/__/mesh/core/src/timer_scheduler.c.obj
                0x000356f4                timer_sch_reschedule
 .text.timer_mut_unlock
                0x00035758       0x10 examples/dfu/CMakeFiles/dfu_nrf52832_xxAA_s132_6.0.0.dir/__/__/mesh/core/src/timer.c.obj
 .text.timer_order_cb
                0x00035768       0x94 examples/dfu/CMakeFiles/dfu_nrf52832_xxAA_s132_6.0.0.dir/__/__/mesh/core/src/timer.c.obj
                0x00035768                timer_order_cb
 .text.timer_now
                0x000357fc       0x48 examples/dfu/CMakeFiles/dfu_nrf52832_xxAA_s132_6.0.0.dir/__/__/mesh/core/src/timer.c.obj
                0x000357fc                timer_now
 .text.timer_event_handler
                0x00035844       0x84 examples/dfu/CMakeFiles/dfu_nrf52832_xxAA_s132_6.0.0.dir/__/__/mesh/core/src/timer.c.obj
                0x00035844                timer_event_handler
 .text.timer_on_ts_begin
                0x000358c8       0xf4 examples/dfu/CMakeFiles/dfu_nrf52832_xxAA_s132_6.0.0.dir/__/__/mesh/core/src/timer.c.obj
                0x000358c8                timer_on_ts_begin
 .text.timer_on_ts_end
                0x000359bc       0x60 examples/dfu/CMakeFiles/dfu_nrf52832_xxAA_s132_6.0.0.dir/__/__/mesh/core/src/timer.c.obj
                0x000359bc                timer_on_ts_end
 .text.timer_cb
                0x00035a1c       0x10 examples/dfu/CMakeFiles/dfu_nrf52832_xxAA_s132_6.0.0.dir/__/__/mesh/core/src/ticker.c.obj
 .text.ticker_init
                0x00035a2c       0x3c examples/dfu/CMakeFiles/dfu_nrf52832_xxAA_s132_6.0.0.dir/__/__/mesh/core/src/ticker.c.obj
                0x00035a2c                ticker_init
 .text.sd_rand_application_bytes_available_get
                0x00035a68        0x4 examples/dfu/CMakeFiles/dfu_nrf52832_xxAA_s132_6.0.0.dir/__/__/mesh/core/src/rand.c.obj
 .text.sd_rand_application_vector_get
                0x00035a6c        0x4 examples/dfu/CMakeFiles/dfu_nrf52832_xxAA_s132_6.0.0.dir/__/__/mesh/core/src/rand.c.obj
 .text.rand_prng_get
                0x00035a70       0x22 examples/dfu/CMakeFiles/dfu_nrf52832_xxAA_s132_6.0.0.dir/__/__/mesh/core/src/rand.c.obj
                0x00035a70                rand_prng_get
 .text.rand_hw_rng_get
                0x00035a92       0x44 examples/dfu/CMakeFiles/dfu_nrf52832_xxAA_s132_6.0.0.dir/__/__/mesh/core/src/rand.c.obj
                0x00035a92                rand_hw_rng_get
 *fill*         0x00035ad6        0x2 
 .text.rand_prng_seed
                0x00035ad8       0x34 examples/dfu/CMakeFiles/dfu_nrf52832_xxAA_s132_6.0.0.dir/__/__/mesh/core/src/rand.c.obj
                0x00035ad8                rand_prng_seed
 .text.nrf_mesh_opt_set
                0x00035b0c       0x26 examples/dfu/CMakeFiles/dfu_nrf52832_xxAA_s132_6.0.0.dir/__/__/mesh/core/src/nrf_mesh_opt.c.obj
                0x00035b0c                nrf_mesh_opt_set
 .text.nrf_mesh_opt_get
                0x00035b32       0x26 examples/dfu/CMakeFiles/dfu_nrf52832_xxAA_s132_6.0.0.dir/__/__/mesh/core/src/nrf_mesh_opt.c.obj
                0x00035b32                nrf_mesh_opt_get
 .text.sd_radio_session_open
                0x00035b58        0x4 examples/dfu/CMakeFiles/dfu_nrf52832_xxAA_s132_6.0.0.dir/__/__/mesh/core/src/timeslot.c.obj
 .text.sd_radio_session_close
                0x00035b5c        0x4 examples/dfu/CMakeFiles/dfu_nrf52832_xxAA_s132_6.0.0.dir/__/__/mesh/core/src/timeslot.c.obj
 .text.sd_radio_request
                0x00035b60        0x4 examples/dfu/CMakeFiles/dfu_nrf52832_xxAA_s132_6.0.0.dir/__/__/mesh/core/src/timeslot.c.obj
 .text.end_timer_handler
                0x00035b64       0x24 examples/dfu/CMakeFiles/dfu_nrf52832_xxAA_s132_6.0.0.dir/__/__/mesh/core/src/timeslot.c.obj
 .text.get_end_time.constprop.10
                0x00035b88       0x28 examples/dfu/CMakeFiles/dfu_nrf52832_xxAA_s132_6.0.0.dir/__/__/mesh/core/src/timeslot.c.obj
 .text.handle_extend_end.constprop.3
                0x00035bb0       0xb4 examples/dfu/CMakeFiles/dfu_nrf52832_xxAA_s132_6.0.0.dir/__/__/mesh/core/src/timeslot.c.obj
 .text.radio_signal_callback
                0x00035c64      0x138 examples/dfu/CMakeFiles/dfu_nrf52832_xxAA_s132_6.0.0.dir/__/__/mesh/core/src/timeslot.c.obj
 .text.timeslot_sd_event_handler
                0x00035d9c       0x38 examples/dfu/CMakeFiles/dfu_nrf52832_xxAA_s132_6.0.0.dir/__/__/mesh/core/src/timeslot.c.obj
                0x00035d9c                timeslot_sd_event_handler
 .text.timeslot_init
                0x00035dd4       0x48 examples/dfu/CMakeFiles/dfu_nrf52832_xxAA_s132_6.0.0.dir/__/__/mesh/core/src/timeslot.c.obj
                0x00035dd4                timeslot_init
 .text.timeslot_start
                0x00035e1c       0x20 examples/dfu/CMakeFiles/dfu_nrf52832_xxAA_s132_6.0.0.dir/__/__/mesh/core/src/timeslot.c.obj
                0x00035e1c                timeslot_start
 .text.timeslot_end_is_pending
                0x00035e3c       0x24 examples/dfu/CMakeFiles/dfu_nrf52832_xxAA_s132_6.0.0.dir/__/__/mesh/core/src/timeslot.c.obj
                0x00035e3c                timeslot_end_is_pending
 .text.timeslot_start_time_get
                0x00035e60        0xc examples/dfu/CMakeFiles/dfu_nrf52832_xxAA_s132_6.0.0.dir/__/__/mesh/core/src/timeslot.c.obj
                0x00035e60                timeslot_start_time_get
 .text.timeslot_remaining_time_get
                0x00035e6c       0x20 examples/dfu/CMakeFiles/dfu_nrf52832_xxAA_s132_6.0.0.dir/__/__/mesh/core/src/timeslot.c.obj
                0x00035e6c                timeslot_remaining_time_get
 .text.timeslot_is_in_cb
                0x00035e8c        0xc examples/dfu/CMakeFiles/dfu_nrf52832_xxAA_s132_6.0.0.dir/__/__/mesh/core/src/timeslot.c.obj
                0x00035e8c                timeslot_is_in_cb
 .text.timeslot_trigger
                0x00035e98       0x24 examples/dfu/CMakeFiles/dfu_nrf52832_xxAA_s132_6.0.0.dir/__/__/mesh/core/src/timeslot.c.obj
                0x00035e98                timeslot_trigger
 .text.timeslot_stop
                0x00035ebc       0x10 examples/dfu/CMakeFiles/dfu_nrf52832_xxAA_s132_6.0.0.dir/__/__/mesh/core/src/timeslot.c.obj
                0x00035ebc                timeslot_stop
 .text.timeslot_state_lock
                0x00035ecc       0x28 examples/dfu/CMakeFiles/dfu_nrf52832_xxAA_s132_6.0.0.dir/__/__/mesh/core/src/timeslot.c.obj
                0x00035ecc                timeslot_state_lock
 .text.trigger_event_handler
                0x00035ef4       0x1c examples/dfu/CMakeFiles/dfu_nrf52832_xxAA_s132_6.0.0.dir/__/__/mesh/core/src/bearer_event.c.obj
 .text.evt_push
                0x00035f10       0x1c examples/dfu/CMakeFiles/dfu_nrf52832_xxAA_s132_6.0.0.dir/__/__/mesh/core/src/bearer_event.c.obj
 .text.bearer_event_init
                0x00035f2c       0x48 examples/dfu/CMakeFiles/dfu_nrf52832_xxAA_s132_6.0.0.dir/__/__/mesh/core/src/bearer_event.c.obj
                0x00035f2c                bearer_event_init
 .text.bearer_event_generic_post
                0x00035f74       0x24 examples/dfu/CMakeFiles/dfu_nrf52832_xxAA_s132_6.0.0.dir/__/__/mesh/core/src/bearer_event.c.obj
                0x00035f74                bearer_event_generic_post
 .text.bearer_event_timer_post
                0x00035f98       0x24 examples/dfu/CMakeFiles/dfu_nrf52832_xxAA_s132_6.0.0.dir/__/__/mesh/core/src/bearer_event.c.obj
                0x00035f98                bearer_event_timer_post
 .text.bearer_event_critical_section_begin
                0x00035fbc       0x44 examples/dfu/CMakeFiles/dfu_nrf52832_xxAA_s132_6.0.0.dir/__/__/mesh/core/src/bearer_event.c.obj
                0x00035fbc                bearer_event_critical_section_begin
 .text.bearer_event_critical_section_end
                0x00036000       0x40 examples/dfu/CMakeFiles/dfu_nrf52832_xxAA_s132_6.0.0.dir/__/__/mesh/core/src/bearer_event.c.obj
                0x00036000                bearer_event_critical_section_end
 .text.bearer_event_flag_add
                0x00036040       0x3c examples/dfu/CMakeFiles/dfu_nrf52832_xxAA_s132_6.0.0.dir/__/__/mesh/core/src/bearer_event.c.obj
                0x00036040                bearer_event_flag_add
 .text.bearer_event_flag_set
                0x0003607c       0x44 examples/dfu/CMakeFiles/dfu_nrf52832_xxAA_s132_6.0.0.dir/__/__/mesh/core/src/bearer_event.c.obj
                0x0003607c                bearer_event_flag_set
 .text.bearer_event_sequential_add
                0x000360c0       0x2e examples/dfu/CMakeFiles/dfu_nrf52832_xxAA_s132_6.0.0.dir/__/__/mesh/core/src/bearer_event.c.obj
                0x000360c0                bearer_event_sequential_add
 *fill*         0x000360ee        0x2 
 .text.bearer_event_sequential_post
                0x000360f0       0x44 examples/dfu/CMakeFiles/dfu_nrf52832_xxAA_s132_6.0.0.dir/__/__/mesh/core/src/bearer_event.c.obj
                0x000360f0                bearer_event_sequential_post
 .text.bearer_event_sequential_pending
                0x00036134       0x10 examples/dfu/CMakeFiles/dfu_nrf52832_xxAA_s132_6.0.0.dir/__/__/mesh/core/src/bearer_event.c.obj
                0x00036134                bearer_event_sequential_pending
 .text.bearer_event_handler
                0x00036144       0xe8 examples/dfu/CMakeFiles/dfu_nrf52832_xxAA_s132_6.0.0.dir/__/__/mesh/core/src/bearer_event.c.obj
                0x00036144                bearer_event_handler
 .text.QDEC_IRQHandler
                0x0003622c        0x4 examples/dfu/CMakeFiles/dfu_nrf52832_xxAA_s132_6.0.0.dir/__/__/mesh/core/src/bearer_event.c.obj
                0x0003622c                QDEC_IRQHandler
 .text.enc_aes_encrypt
                0x00036230        0x4 examples/dfu/CMakeFiles/dfu_nrf52832_xxAA_s132_6.0.0.dir/__/__/mesh/core/src/enc.c.obj
                0x00036230                enc_aes_encrypt
 .text.enc_aes_cmac
                0x00036234        0x4 examples/dfu/CMakeFiles/dfu_nrf52832_xxAA_s132_6.0.0.dir/__/__/mesh/core/src/enc.c.obj
                0x00036234                enc_aes_cmac
 .text.enc_aes_ccm_encrypt
                0x00036238        0x4 examples/dfu/CMakeFiles/dfu_nrf52832_xxAA_s132_6.0.0.dir/__/__/mesh/core/src/enc.c.obj
                0x00036238                enc_aes_ccm_encrypt
 .text.enc_aes_ccm_decrypt
                0x0003623c        0x4 examples/dfu/CMakeFiles/dfu_nrf52832_xxAA_s132_6.0.0.dir/__/__/mesh/core/src/enc.c.obj
                0x0003623c                enc_aes_ccm_decrypt
 .text.enc_nonce_generate
                0x00036240       0xbc examples/dfu/CMakeFiles/dfu_nrf52832_xxAA_s132_6.0.0.dir/__/__/mesh/core/src/enc.c.obj
                0x00036240                enc_nonce_generate
 .text.enc_s1   0x000362fc       0x2c examples/dfu/CMakeFiles/dfu_nrf52832_xxAA_s132_6.0.0.dir/__/__/mesh/core/src/enc.c.obj
                0x000362fc                enc_s1
 .text.enc_k1   0x00036328       0x3c examples/dfu/CMakeFiles/dfu_nrf52832_xxAA_s132_6.0.0.dir/__/__/mesh/core/src/enc.c.obj
                0x00036328                enc_k1
 .text.enc_k2   0x00036364       0xc8 examples/dfu/CMakeFiles/dfu_nrf52832_xxAA_s132_6.0.0.dir/__/__/mesh/core/src/enc.c.obj
                0x00036364                enc_k2
 .text.enc_k3   0x0003642c       0x5c examples/dfu/CMakeFiles/dfu_nrf52832_xxAA_s132_6.0.0.dir/__/__/mesh/core/src/enc.c.obj
                0x0003642c                enc_k3
 .text.enc_k4   0x00036488       0x54 examples/dfu/CMakeFiles/dfu_nrf52832_xxAA_s132_6.0.0.dir/__/__/mesh/core/src/enc.c.obj
                0x00036488                enc_k4
 .text.allocate_packet
                0x000364dc       0x6a examples/dfu/CMakeFiles/dfu_nrf52832_xxAA_s132_6.0.0.dir/__/__/mesh/core/src/network.c.obj
 *fill*         0x00036546        0x2 
 .text.network_init
                0x00036548       0x2c examples/dfu/CMakeFiles/dfu_nrf52832_xxAA_s132_6.0.0.dir/__/__/mesh/core/src/network.c.obj
                0x00036548                network_init
 .text.network_opt_set
                0x00036574       0x70 examples/dfu/CMakeFiles/dfu_nrf52832_xxAA_s132_6.0.0.dir/__/__/mesh/core/src/network.c.obj
                0x00036574                network_opt_set
 .text.network_opt_get
                0x000365e4       0x4c examples/dfu/CMakeFiles/dfu_nrf52832_xxAA_s132_6.0.0.dir/__/__/mesh/core/src/network.c.obj
                0x000365e4                network_opt_get
 .text.network_packet_alloc
                0x00036630       0x30 examples/dfu/CMakeFiles/dfu_nrf52832_xxAA_s132_6.0.0.dir/__/__/mesh/core/src/network.c.obj
                0x00036630                network_packet_alloc
 .text.network_packet_send
                0x00036660       0x46 examples/dfu/CMakeFiles/dfu_nrf52832_xxAA_s132_6.0.0.dir/__/__/mesh/core/src/network.c.obj
                0x00036660                network_packet_send
 *fill*         0x000366a6        0x2 
 .text.network_packet_in
                0x000366a8      0x168 examples/dfu/CMakeFiles/dfu_nrf52832_xxAA_s132_6.0.0.dir/__/__/mesh/core/src/network.c.obj
                0x000366a8                network_packet_in
 .text.nonce_type_get
                0x00036810       0x16 examples/dfu/CMakeFiles/dfu_nrf52832_xxAA_s132_6.0.0.dir/__/__/mesh/core/src/net_packet.c.obj
 .text.header_transfuscate
                0x00036826       0x54 examples/dfu/CMakeFiles/dfu_nrf52832_xxAA_s132_6.0.0.dir/__/__/mesh/core/src/net_packet.c.obj
 *fill*         0x0003687a        0x2 
 .text.net_packet_decrypt
                0x0003687c      0x224 examples/dfu/CMakeFiles/dfu_nrf52832_xxAA_s132_6.0.0.dir/__/__/mesh/core/src/net_packet.c.obj
                0x0003687c                net_packet_decrypt
 .text.net_packet_encrypt
                0x00036aa0       0x7e examples/dfu/CMakeFiles/dfu_nrf52832_xxAA_s132_6.0.0.dir/__/__/mesh/core/src/net_packet.c.obj
                0x00036aa0                net_packet_encrypt
 .text.net_packet_header_set
                0x00036b1e       0xaa examples/dfu/CMakeFiles/dfu_nrf52832_xxAA_s132_6.0.0.dir/__/__/mesh/core/src/net_packet.c.obj
                0x00036b1e                net_packet_header_set
 .text.net_packet_payload_len_get
                0x00036bc8       0x10 examples/dfu/CMakeFiles/dfu_nrf52832_xxAA_s132_6.0.0.dir/__/__/mesh/core/src/net_packet.c.obj
                0x00036bc8                net_packet_payload_len_get
 .text.net_packet_from_payload
                0x00036bd8        0x4 examples/dfu/CMakeFiles/dfu_nrf52832_xxAA_s132_6.0.0.dir/__/__/mesh/core/src/net_packet.c.obj
                0x00036bd8                net_packet_from_payload
 .text.net_packet_obfuscation_start_get
                0x00036bdc        0x4 examples/dfu/CMakeFiles/dfu_nrf52832_xxAA_s132_6.0.0.dir/__/__/mesh/core/src/net_packet.c.obj
                0x00036bdc                net_packet_obfuscation_start_get
 .text.stage_get_available
                0x00036be0       0x24 examples/dfu/CMakeFiles/dfu_nrf52832_xxAA_s132_6.0.0.dir/__/__/mesh/core/src/msqueue.c.obj
 .text.msq_get  0x00036c04       0x38 examples/dfu/CMakeFiles/dfu_nrf52832_xxAA_s132_6.0.0.dir/__/__/mesh/core/src/msqueue.c.obj
                0x00036c04                msq_get
 .text.msq_move
                0x00036c3c       0x2e examples/dfu/CMakeFiles/dfu_nrf52832_xxAA_s132_6.0.0.dir/__/__/mesh/core/src/msqueue.c.obj
                0x00036c3c                msq_move
 .text.msq_reset
                0x00036c6a       0x20 examples/dfu/CMakeFiles/dfu_nrf52832_xxAA_s132_6.0.0.dir/__/__/mesh/core/src/msqueue.c.obj
                0x00036c6a                msq_reset
 .text.msq_init
                0x00036c8a       0x4a examples/dfu/CMakeFiles/dfu_nrf52832_xxAA_s132_6.0.0.dir/__/__/mesh/core/src/msqueue.c.obj
                0x00036c8a                msq_init
 .text.msq_available
                0x00036cd4       0x26 examples/dfu/CMakeFiles/dfu_nrf52832_xxAA_s132_6.0.0.dir/__/__/mesh/core/src/msqueue.c.obj
                0x00036cd4                msq_available
 .text.nrf_mesh_keygen_aid
                0x00036cfa       0x12 examples/dfu/CMakeFiles/dfu_nrf52832_xxAA_s132_6.0.0.dir/__/__/mesh/core/src/nrf_mesh_keygen.c.obj
                0x00036cfa                nrf_mesh_keygen_aid
 .text.nrf_mesh_keygen_network_secmat
                0x00036d0c       0x20 examples/dfu/CMakeFiles/dfu_nrf52832_xxAA_s132_6.0.0.dir/__/__/mesh/core/src/nrf_mesh_keygen.c.obj
                0x00036d0c                nrf_mesh_keygen_network_secmat
 .text.nrf_mesh_keygen_beacon_secmat
                0x00036d2c       0x50 examples/dfu/CMakeFiles/dfu_nrf52832_xxAA_s132_6.0.0.dir/__/__/mesh/core/src/nrf_mesh_keygen.c.obj
                0x00036d2c                nrf_mesh_keygen_beacon_secmat
 .text.nrf_mesh_keygen_virtual_address
                0x00036d7c       0x50 examples/dfu/CMakeFiles/dfu_nrf52832_xxAA_s132_6.0.0.dir/__/__/mesh/core/src/nrf_mesh_keygen.c.obj
                0x00036d7c                nrf_mesh_keygen_virtual_address
 .text.list_insert
                0x00036dcc       0x1c examples/dfu/CMakeFiles/dfu_nrf52832_xxAA_s132_6.0.0.dir/__/__/mesh/core/src/list.c.obj
 .text.list_add
                0x00036de8       0x42 examples/dfu/CMakeFiles/dfu_nrf52832_xxAA_s132_6.0.0.dir/__/__/mesh/core/src/list.c.obj
                0x00036de8                list_add
 .text.list_remove
                0x00036e2a       0x3a examples/dfu/CMakeFiles/dfu_nrf52832_xxAA_s132_6.0.0.dir/__/__/mesh/core/src/list.c.obj
                0x00036e2a                list_remove
 .text.list_compare_add
                0x00036e64       0x56 examples/dfu/CMakeFiles/dfu_nrf52832_xxAA_s132_6.0.0.dir/__/__/mesh/core/src/list.c.obj
                0x00036e64                list_compare_add
 *fill*         0x00036eba        0x2 
 .text.log_callback_rtt
                0x00036ebc       0x2c examples/dfu/CMakeFiles/dfu_nrf52832_xxAA_s132_6.0.0.dir/__/__/mesh/core/src/log.c.obj
                0x00036ebc                log_callback_rtt
 .text.log_init
                0x00036ee8       0x1c examples/dfu/CMakeFiles/dfu_nrf52832_xxAA_s132_6.0.0.dir/__/__/mesh/core/src/log.c.obj
                0x00036ee8                log_init
 .text.log_vprintf
                0x00036f04       0x18 examples/dfu/CMakeFiles/dfu_nrf52832_xxAA_s132_6.0.0.dir/__/__/mesh/core/src/log.c.obj
                0x00036f04                log_vprintf
 .text.log_printf
                0x00036f1c       0x18 examples/dfu/CMakeFiles/dfu_nrf52832_xxAA_s132_6.0.0.dir/__/__/mesh/core/src/log.c.obj
                0x00036f1c                log_printf
 .text.get_area_end
                0x00036f34        0xc examples/dfu/CMakeFiles/dfu_nrf52832_xxAA_s132_6.0.0.dir/__/__/mesh/core/src/flash_manager.c.obj
 .text.handle_matches_filter
                0x00036f40       0x26 examples/dfu/CMakeFiles/dfu_nrf52832_xxAA_s132_6.0.0.dir/__/__/mesh/core/src/flash_manager.c.obj
 .text.flash_area_is_blank
                0x00036f66       0x34 examples/dfu/CMakeFiles/dfu_nrf52832_xxAA_s132_6.0.0.dir/__/__/mesh/core/src/flash_manager.c.obj
 *fill*         0x00036f9a        0x2 
 .text.get_packet_buffer
                0x00036f9c       0x20 examples/dfu/CMakeFiles/dfu_nrf52832_xxAA_s132_6.0.0.dir/__/__/mesh/core/src/flash_manager.c.obj
 .text.flash    0x00036fbc       0x1c examples/dfu/CMakeFiles/dfu_nrf52832_xxAA_s132_6.0.0.dir/__/__/mesh/core/src/flash_manager.c.obj
 .text.free_packet_buffer
                0x00036fd8       0x3c examples/dfu/CMakeFiles/dfu_nrf52832_xxAA_s132_6.0.0.dir/__/__/mesh/core/src/flash_manager.c.obj
 .text.reserve_action_buffer
                0x00037014       0x24 examples/dfu/CMakeFiles/dfu_nrf52832_xxAA_s132_6.0.0.dir/__/__/mesh/core/src/flash_manager.c.obj
 .text.commit_action_buffer
                0x00037038       0x18 examples/dfu/CMakeFiles/dfu_nrf52832_xxAA_s132_6.0.0.dir/__/__/mesh/core/src/flash_manager.c.obj
 .text.schedule_processing
                0x00037050        0xc examples/dfu/CMakeFiles/dfu_nrf52832_xxAA_s132_6.0.0.dir/__/__/mesh/core/src/flash_manager.c.obj
 .text.get_next_entry
                0x0003705c       0x34 examples/dfu/CMakeFiles/dfu_nrf52832_xxAA_s132_6.0.0.dir/__/__/mesh/core/src/flash_manager.c.obj
 .text.get_last_entry.isra.1
                0x00037090       0x30 examples/dfu/CMakeFiles/dfu_nrf52832_xxAA_s132_6.0.0.dir/__/__/mesh/core/src/flash_manager.c.obj
 .text.process_action_queue
                0x000370c0      0x3b0 examples/dfu/CMakeFiles/dfu_nrf52832_xxAA_s132_6.0.0.dir/__/__/mesh/core/src/flash_manager.c.obj
 .text.flash_op_ended_callback
                0x00037470       0x24 examples/dfu/CMakeFiles/dfu_nrf52832_xxAA_s132_6.0.0.dir/__/__/mesh/core/src/flash_manager.c.obj
 .text.flash_manager_init
                0x00037494       0x68 examples/dfu/CMakeFiles/dfu_nrf52832_xxAA_s132_6.0.0.dir/__/__/mesh/core/src/flash_manager.c.obj
                0x00037494                flash_manager_init
 .text.flash_manager_remove
                0x000374fc       0x24 examples/dfu/CMakeFiles/dfu_nrf52832_xxAA_s132_6.0.0.dir/__/__/mesh/core/src/flash_manager.c.obj
                0x000374fc                flash_manager_remove
 .text.flash_manager_entry_get
                0x00037520       0x3c examples/dfu/CMakeFiles/dfu_nrf52832_xxAA_s132_6.0.0.dir/__/__/mesh/core/src/flash_manager.c.obj
                0x00037520                flash_manager_entry_get
 .text.flash_manager_entry_next_get
                0x0003755c       0x60 examples/dfu/CMakeFiles/dfu_nrf52832_xxAA_s132_6.0.0.dir/__/__/mesh/core/src/flash_manager.c.obj
                0x0003755c                flash_manager_entry_next_get
 .text.flash_manager_entry_alloc
                0x000375bc       0x5c examples/dfu/CMakeFiles/dfu_nrf52832_xxAA_s132_6.0.0.dir/__/__/mesh/core/src/flash_manager.c.obj
                0x000375bc                flash_manager_entry_alloc
 .text.flash_manager_entry_commit
                0x00037618       0x2c examples/dfu/CMakeFiles/dfu_nrf52832_xxAA_s132_6.0.0.dir/__/__/mesh/core/src/flash_manager.c.obj
                0x00037618                flash_manager_entry_commit
 .text.flash_manager_entry_invalidate
                0x00037644       0x4e examples/dfu/CMakeFiles/dfu_nrf52832_xxAA_s132_6.0.0.dir/__/__/mesh/core/src/flash_manager.c.obj
                0x00037644                flash_manager_entry_invalidate
 .text.flash_manager_add
                0x00037692      0x1f6 examples/dfu/CMakeFiles/dfu_nrf52832_xxAA_s132_6.0.0.dir/__/__/mesh/core/src/flash_manager.c.obj
                0x00037692                flash_manager_add
 .text.flash_manager_mem_listener_register
                0x00037888       0x30 examples/dfu/CMakeFiles/dfu_nrf52832_xxAA_s132_6.0.0.dir/__/__/mesh/core/src/flash_manager.c.obj
                0x00037888                flash_manager_mem_listener_register
 .text.flash_manager_is_stable
                0x000378b8       0x24 examples/dfu/CMakeFiles/dfu_nrf52832_xxAA_s132_6.0.0.dir/__/__/mesh/core/src/flash_manager.c.obj
                0x000378b8                flash_manager_is_stable
 .text.flash_manager_on_defrag_end
                0x000378dc       0x4c examples/dfu/CMakeFiles/dfu_nrf52832_xxAA_s132_6.0.0.dir/__/__/mesh/core/src/flash_manager.c.obj
                0x000378dc                flash_manager_on_defrag_end
 .text.flash_manager_recovery_page_get
                0x00037928        0x4 examples/dfu/CMakeFiles/dfu_nrf52832_xxAA_s132_6.0.0.dir/__/__/mesh/core/src/flash_manager.c.obj
                0x00037928                flash_manager_recovery_page_get
 .text.flash_manager_action_queue_empty_cb_set
                0x0003792c       0x1c examples/dfu/CMakeFiles/dfu_nrf52832_xxAA_s132_6.0.0.dir/__/__/mesh/core/src/flash_manager.c.obj
                0x0003792c                flash_manager_action_queue_empty_cb_set
 .text.utils_xor
                0x00037948       0x14 examples/dfu/CMakeFiles/dfu_nrf52832_xxAA_s132_6.0.0.dir/__/__/mesh/core/src/ccm_soft.c.obj
 .text.ccm_soft_authenticate_blocks
                0x0003795c       0x68 examples/dfu/CMakeFiles/dfu_nrf52832_xxAA_s132_6.0.0.dir/__/__/mesh/core/src/ccm_soft.c.obj
 .text.utils_reverse_memcpy.constprop.0
                0x000379c4        0xa examples/dfu/CMakeFiles/dfu_nrf52832_xxAA_s132_6.0.0.dir/__/__/mesh/core/src/ccm_soft.c.obj
 .text.ccm_soft_authenticate
                0x000379ce       0xa0 examples/dfu/CMakeFiles/dfu_nrf52832_xxAA_s132_6.0.0.dir/__/__/mesh/core/src/ccm_soft.c.obj
 .text.ccm_soft_crypt
                0x00037a6e       0x6c examples/dfu/CMakeFiles/dfu_nrf52832_xxAA_s132_6.0.0.dir/__/__/mesh/core/src/ccm_soft.c.obj
 .text.ccm_soft_encrypt
                0x00037ada       0x70 examples/dfu/CMakeFiles/dfu_nrf52832_xxAA_s132_6.0.0.dir/__/__/mesh/core/src/ccm_soft.c.obj
                0x00037ada                ccm_soft_encrypt
 .text.ccm_soft_decrypt
                0x00037b4a       0xfe examples/dfu/CMakeFiles/dfu_nrf52832_xxAA_s132_6.0.0.dir/__/__/mesh/core/src/ccm_soft.c.obj
                0x00037b4a                ccm_soft_decrypt
 .text.replay_cache_add
                0x00037c48       0x50 examples/dfu/CMakeFiles/dfu_nrf52832_xxAA_s132_6.0.0.dir/__/__/mesh/core/src/replay_cache.c.obj
                0x00037c48                replay_cache_add
 .text.replay_cache_has_elem
                0x00037c98       0x38 examples/dfu/CMakeFiles/dfu_nrf52832_xxAA_s132_6.0.0.dir/__/__/mesh/core/src/replay_cache.c.obj
                0x00037c98                replay_cache_has_elem
 .text.replay_cache_clear
                0x00037cd0       0x20 examples/dfu/CMakeFiles/dfu_nrf52832_xxAA_s132_6.0.0.dir/__/__/mesh/core/src/replay_cache.c.obj
                0x00037cd0                replay_cache_clear
 .text.replay_cache_init
                0x00037cf0        0x4 examples/dfu/CMakeFiles/dfu_nrf52832_xxAA_s132_6.0.0.dir/__/__/mesh/core/src/replay_cache.c.obj
                0x00037cf0                replay_cache_init
 .text.beacon_create
                0x00037cf4       0x46 examples/dfu/CMakeFiles/dfu_nrf52832_xxAA_s132_6.0.0.dir/__/__/mesh/core/src/beacon.c.obj
                0x00037cf4                beacon_create
 *fill*         0x00037d3a        0x2 
 .text.beacon_packet_in
                0x00037d3c      0x154 examples/dfu/CMakeFiles/dfu_nrf52832_xxAA_s132_6.0.0.dir/__/__/mesh/core/src/beacon.c.obj
                0x00037d3c                beacon_packet_in
 .text.entry_get
                0x00037e90       0x78 examples/dfu/CMakeFiles/dfu_nrf52832_xxAA_s132_6.0.0.dir/__/__/mesh/core/src/flash_manager_internal.c.obj
                0x00037e90                entry_get
 .text.core_tx_complete_cb_set
                0x00037f08        0xc examples/dfu/CMakeFiles/dfu_nrf52832_xxAA_s132_6.0.0.dir/__/__/mesh/core/src/core_tx.c.obj
                0x00037f08                core_tx_complete_cb_set
 .text.core_tx_packet_alloc
                0x00037f14       0x98 examples/dfu/CMakeFiles/dfu_nrf52832_xxAA_s132_6.0.0.dir/__/__/mesh/core/src/core_tx.c.obj
                0x00037f14                core_tx_packet_alloc
 .text.core_tx_packet_send
                0x00037fac       0x4c examples/dfu/CMakeFiles/dfu_nrf52832_xxAA_s132_6.0.0.dir/__/__/mesh/core/src/core_tx.c.obj
                0x00037fac                core_tx_packet_send
 .text.core_tx_packet_discard
                0x00037ff8       0x40 examples/dfu/CMakeFiles/dfu_nrf52832_xxAA_s132_6.0.0.dir/__/__/mesh/core/src/core_tx.c.obj
                0x00037ff8                core_tx_packet_discard
 .text.core_tx_complete
                0x00038038       0x34 examples/dfu/CMakeFiles/dfu_nrf52832_xxAA_s132_6.0.0.dir/__/__/mesh/core/src/core_tx.c.obj
                0x00038038                core_tx_complete
 .text.core_tx_bearer_add
                0x0003806c       0x70 examples/dfu/CMakeFiles/dfu_nrf52832_xxAA_s132_6.0.0.dir/__/__/mesh/core/src/core_tx.c.obj
                0x0003806c                core_tx_bearer_add
 .text.heartbeat_subscription_timer_cb
                0x000380dc       0x1c examples/dfu/CMakeFiles/dfu_nrf52832_xxAA_s132_6.0.0.dir/__/__/mesh/core/src/heartbeat.c.obj
 .text.heartbeat_opcode_handle
                0x000380f8       0x88 examples/dfu/CMakeFiles/dfu_nrf52832_xxAA_s132_6.0.0.dir/__/__/mesh/core/src/heartbeat.c.obj
 .text.heartbeat_send
                0x00038180       0xb0 examples/dfu/CMakeFiles/dfu_nrf52832_xxAA_s132_6.0.0.dir/__/__/mesh/core/src/heartbeat.c.obj
 .text.heartbeat_publication_timer_cb
                0x00038230       0xa8 examples/dfu/CMakeFiles/dfu_nrf52832_xxAA_s132_6.0.0.dir/__/__/mesh/core/src/heartbeat.c.obj
 .text.heartbeat_core_evt_cb
                0x000382d8       0x7c examples/dfu/CMakeFiles/dfu_nrf52832_xxAA_s132_6.0.0.dir/__/__/mesh/core/src/heartbeat.c.obj
 .text.heartbeat_on_feature_change_trigger
                0x00038354       0x44 examples/dfu/CMakeFiles/dfu_nrf52832_xxAA_s132_6.0.0.dir/__/__/mesh/core/src/heartbeat.c.obj
                0x00038354                heartbeat_on_feature_change_trigger
 .text.heartbeat_init
                0x00038398       0x78 examples/dfu/CMakeFiles/dfu_nrf52832_xxAA_s132_6.0.0.dir/__/__/mesh/core/src/heartbeat.c.obj
                0x00038398                heartbeat_init
 .text.heartbeat_subscription_set
                0x00038410       0xa4 examples/dfu/CMakeFiles/dfu_nrf52832_xxAA_s132_6.0.0.dir/__/__/mesh/core/src/heartbeat.c.obj
                0x00038410                heartbeat_subscription_set
 .text.heartbeat_subscription_get
                0x000384b4        0x8 examples/dfu/CMakeFiles/dfu_nrf52832_xxAA_s132_6.0.0.dir/__/__/mesh/core/src/heartbeat.c.obj
                0x000384b4                heartbeat_subscription_get
 .text.heartbeat_config_server_cb_set
                0x000384bc       0x28 examples/dfu/CMakeFiles/dfu_nrf52832_xxAA_s132_6.0.0.dir/__/__/mesh/core/src/heartbeat.c.obj
                0x000384bc                heartbeat_config_server_cb_set
 .text.heartbeat_publication_state_updated
                0x000384e4       0x74 examples/dfu/CMakeFiles/dfu_nrf52832_xxAA_s132_6.0.0.dir/__/__/mesh/core/src/heartbeat.c.obj
                0x000384e4                heartbeat_publication_state_updated
 .text.make_network_beacon_packet
                0x00038558       0x50 examples/dfu/CMakeFiles/dfu_nrf52832_xxAA_s132_6.0.0.dir/__/__/mesh/core/src/net_beacon.c.obj
 .text.beacon_tx
                0x000385a8      0x12c examples/dfu/CMakeFiles/dfu_nrf52832_xxAA_s132_6.0.0.dir/__/__/mesh/core/src/net_beacon.c.obj
 .text.tx_complete_cb
                0x000386d4        0xe examples/dfu/CMakeFiles/dfu_nrf52832_xxAA_s132_6.0.0.dir/__/__/mesh/core/src/net_beacon.c.obj
 .text.beacon_tx_timeout
                0x000386e2        0x4 examples/dfu/CMakeFiles/dfu_nrf52832_xxAA_s132_6.0.0.dir/__/__/mesh/core/src/net_beacon.c.obj
 .text.is_valid_beacon_pkt.part.0
                0x000386e6       0x30 examples/dfu/CMakeFiles/dfu_nrf52832_xxAA_s132_6.0.0.dir/__/__/mesh/core/src/net_beacon.c.obj
 *fill*         0x00038716        0x2 
 .text.net_beacon_init
                0x00038718       0x94 examples/dfu/CMakeFiles/dfu_nrf52832_xxAA_s132_6.0.0.dir/__/__/mesh/core/src/net_beacon.c.obj
                0x00038718                net_beacon_init
 .text.net_beacon_state_set
                0x000387ac       0x34 examples/dfu/CMakeFiles/dfu_nrf52832_xxAA_s132_6.0.0.dir/__/__/mesh/core/src/net_beacon.c.obj
                0x000387ac                net_beacon_state_set
 .text.net_beacon_state_get
                0x000387e0        0xc examples/dfu/CMakeFiles/dfu_nrf52832_xxAA_s132_6.0.0.dir/__/__/mesh/core/src/net_beacon.c.obj
                0x000387e0                net_beacon_state_get
 .text.net_beacon_packet_in
                0x000387ec       0xf2 examples/dfu/CMakeFiles/dfu_nrf52832_xxAA_s132_6.0.0.dir/__/__/mesh/core/src/net_beacon.c.obj
                0x000387ec                net_beacon_packet_in
 *fill*         0x000388de        0x2 
 .text.packet_discard
                0x000388e0       0x40 examples/dfu/CMakeFiles/dfu_nrf52832_xxAA_s132_6.0.0.dir/__/__/mesh/core/src/core_tx_adv.c.obj
 .text.packet_send
                0x00038920       0x58 examples/dfu/CMakeFiles/dfu_nrf52832_xxAA_s132_6.0.0.dir/__/__/mesh/core/src/core_tx_adv.c.obj
 .text.packet_alloc
                0x00038978       0x58 examples/dfu/CMakeFiles/dfu_nrf52832_xxAA_s132_6.0.0.dir/__/__/mesh/core/src/core_tx_adv.c.obj
 .text.adv_tx_complete_callback
                0x000389d0       0x20 examples/dfu/CMakeFiles/dfu_nrf52832_xxAA_s132_6.0.0.dir/__/__/mesh/core/src/core_tx_adv.c.obj
 .text.core_tx_adv_init
                0x000389f0       0x60 examples/dfu/CMakeFiles/dfu_nrf52832_xxAA_s132_6.0.0.dir/__/__/mesh/core/src/core_tx_adv.c.obj
                0x000389f0                core_tx_adv_init
 .text.core_tx_adv_count_set
                0x00038a50       0x28 examples/dfu/CMakeFiles/dfu_nrf52832_xxAA_s132_6.0.0.dir/__/__/mesh/core/src/core_tx_adv.c.obj
                0x00038a50                core_tx_adv_count_set
 .text.core_tx_adv_count_get
                0x00038a78       0x1c examples/dfu/CMakeFiles/dfu_nrf52832_xxAA_s132_6.0.0.dir/__/__/mesh/core/src/core_tx_adv.c.obj
                0x00038a78                core_tx_adv_count_get
 .text.core_tx_adv_interval_set
                0x00038a94       0x28 examples/dfu/CMakeFiles/dfu_nrf52832_xxAA_s132_6.0.0.dir/__/__/mesh/core/src/core_tx_adv.c.obj
                0x00038a94                core_tx_adv_interval_set
 .text.core_tx_adv_interval_get
                0x00038abc       0x28 examples/dfu/CMakeFiles/dfu_nrf52832_xxAA_s132_6.0.0.dir/__/__/mesh/core/src/core_tx_adv.c.obj
                0x00038abc                core_tx_adv_interval_get
 .text.ad_listener_subscribe
                0x00038ae4       0x5c examples/dfu/CMakeFiles/dfu_nrf52832_xxAA_s132_6.0.0.dir/__/__/mesh/bearer/src/ad_listener.c.obj
                0x00038ae4                ad_listener_subscribe
 .text.ad_listener_process
                0x00038b40       0x64 examples/dfu/CMakeFiles/dfu_nrf52832_xxAA_s132_6.0.0.dir/__/__/mesh/bearer/src/ad_listener.c.obj
                0x00038b40                ad_listener_process
 .text.adtype_filter_handle
                0x00038ba4       0x64 examples/dfu/CMakeFiles/dfu_nrf52832_xxAA_s132_6.0.0.dir/__/__/mesh/bearer/src/ad_type_filter.c.obj
 .text.bearer_adtype_filtering_set
                0x00038c08       0x1c examples/dfu/CMakeFiles/dfu_nrf52832_xxAA_s132_6.0.0.dir/__/__/mesh/bearer/src/ad_type_filter.c.obj
                0x00038c08                bearer_adtype_filtering_set
 .text.bearer_adtype_add
                0x00038c24       0x20 examples/dfu/CMakeFiles/dfu_nrf52832_xxAA_s132_6.0.0.dir/__/__/mesh/bearer/src/ad_type_filter.c.obj
                0x00038c24                bearer_adtype_add
 .text.bearer_adtype_mode_set
                0x00038c44       0x18 examples/dfu/CMakeFiles/dfu_nrf52832_xxAA_s132_6.0.0.dir/__/__/mesh/bearer/src/ad_type_filter.c.obj
                0x00038c44                bearer_adtype_mode_set
 .text.tx_complete_event_callback
                0x00038c5c       0x28 examples/dfu/CMakeFiles/dfu_nrf52832_xxAA_s132_6.0.0.dir/__/__/mesh/bearer/src/advertiser.c.obj
 .text.set_gap_addr_type
                0x00038c84       0x26 examples/dfu/CMakeFiles/dfu_nrf52832_xxAA_s132_6.0.0.dir/__/__/mesh/bearer/src/advertiser.c.obj
 .text.broadcast_complete_cb
                0x00038caa       0x46 examples/dfu/CMakeFiles/dfu_nrf52832_xxAA_s132_6.0.0.dir/__/__/mesh/bearer/src/advertiser.c.obj
 .text.schedule_first_time
                0x00038cf0       0x28 examples/dfu/CMakeFiles/dfu_nrf52832_xxAA_s132_6.0.0.dir/__/__/mesh/bearer/src/advertiser.c.obj
 .text.timeout_event
                0x00038d18      0x10c examples/dfu/CMakeFiles/dfu_nrf52832_xxAA_s132_6.0.0.dir/__/__/mesh/bearer/src/advertiser.c.obj
 .text.advertiser_init
                0x00038e24        0xc examples/dfu/CMakeFiles/dfu_nrf52832_xxAA_s132_6.0.0.dir/__/__/mesh/bearer/src/advertiser.c.obj
                0x00038e24                advertiser_init
 .text.advertiser_enable
                0x00038e30       0x2a examples/dfu/CMakeFiles/dfu_nrf52832_xxAA_s132_6.0.0.dir/__/__/mesh/bearer/src/advertiser.c.obj
                0x00038e30                advertiser_enable
 .text.advertiser_packet_alloc
                0x00038e5a       0x76 examples/dfu/CMakeFiles/dfu_nrf52832_xxAA_s132_6.0.0.dir/__/__/mesh/bearer/src/advertiser.c.obj
                0x00038e5a                advertiser_packet_alloc
 .text.advertiser_packet_send
                0x00038ed0       0x62 examples/dfu/CMakeFiles/dfu_nrf52832_xxAA_s132_6.0.0.dir/__/__/mesh/bearer/src/advertiser.c.obj
                0x00038ed0                advertiser_packet_send
 .text.advertiser_packet_discard
                0x00038f32       0x1e examples/dfu/CMakeFiles/dfu_nrf52832_xxAA_s132_6.0.0.dir/__/__/mesh/bearer/src/advertiser.c.obj
                0x00038f32                advertiser_packet_discard
 .text.advertiser_channels_set
                0x00038f50       0x60 examples/dfu/CMakeFiles/dfu_nrf52832_xxAA_s132_6.0.0.dir/__/__/mesh/bearer/src/advertiser.c.obj
                0x00038f50                advertiser_channels_set
 .text.advertiser_interval_set
                0x00038fb0       0x54 examples/dfu/CMakeFiles/dfu_nrf52832_xxAA_s132_6.0.0.dir/__/__/mesh/bearer/src/advertiser.c.obj
                0x00038fb0                advertiser_interval_set
 .text.advertiser_flush
                0x00039004       0x1e examples/dfu/CMakeFiles/dfu_nrf52832_xxAA_s132_6.0.0.dir/__/__/mesh/bearer/src/advertiser.c.obj
                0x00039004                advertiser_flush
 *fill*         0x00039022        0x2 
 .text.advertiser_address_default_get
                0x00039024       0x38 examples/dfu/CMakeFiles/dfu_nrf52832_xxAA_s132_6.0.0.dir/__/__/mesh/bearer/src/advertiser.c.obj
                0x00039024                advertiser_address_default_get
 .text.advertiser_instance_init
                0x0003905c       0xa4 examples/dfu/CMakeFiles/dfu_nrf52832_xxAA_s132_6.0.0.dir/__/__/mesh/bearer/src/advertiser.c.obj
                0x0003905c                advertiser_instance_init
 .text.action_switch
                0x00039100       0xb4 examples/dfu/CMakeFiles/dfu_nrf52832_xxAA_s132_6.0.0.dir/__/__/mesh/bearer/src/bearer_handler.c.obj
 .text.bearer_handler_init
                0x000391b4       0x2c examples/dfu/CMakeFiles/dfu_nrf52832_xxAA_s132_6.0.0.dir/__/__/mesh/bearer/src/bearer_handler.c.obj
                0x000391b4                bearer_handler_init
 .text.bearer_handler_start
                0x000391e0       0x1c examples/dfu/CMakeFiles/dfu_nrf52832_xxAA_s132_6.0.0.dir/__/__/mesh/bearer/src/bearer_handler.c.obj
                0x000391e0                bearer_handler_start
 .text.bearer_handler_stop
                0x000391fc       0x20 examples/dfu/CMakeFiles/dfu_nrf52832_xxAA_s132_6.0.0.dir/__/__/mesh/bearer/src/bearer_handler.c.obj
                0x000391fc                bearer_handler_stop
 .text.bearer_handler_action_enqueue
                0x0003921c       0x6c examples/dfu/CMakeFiles/dfu_nrf52832_xxAA_s132_6.0.0.dir/__/__/mesh/bearer/src/bearer_handler.c.obj
                0x0003921c                bearer_handler_action_enqueue
 .text.bearer_handler_action_end
                0x00039288       0x5c examples/dfu/CMakeFiles/dfu_nrf52832_xxAA_s132_6.0.0.dir/__/__/mesh/bearer/src/bearer_handler.c.obj
                0x00039288                bearer_handler_action_end
 .text.bearer_handler_radio_irq_handler
                0x000392e4       0x48 examples/dfu/CMakeFiles/dfu_nrf52832_xxAA_s132_6.0.0.dir/__/__/mesh/bearer/src/bearer_handler.c.obj
                0x000392e4                bearer_handler_radio_irq_handler
 .text.bearer_handler_timer_irq_handler
                0x0003932c       0x24 examples/dfu/CMakeFiles/dfu_nrf52832_xxAA_s132_6.0.0.dir/__/__/mesh/bearer/src/bearer_handler.c.obj
                0x0003932c                bearer_handler_timer_irq_handler
 .text.bearer_handler_on_ts_begin
                0x00039350       0x30 examples/dfu/CMakeFiles/dfu_nrf52832_xxAA_s132_6.0.0.dir/__/__/mesh/bearer/src/bearer_handler.c.obj
                0x00039350                bearer_handler_on_ts_begin
 .text.bearer_handler_on_ts_end
                0x00039380       0x34 examples/dfu/CMakeFiles/dfu_nrf52832_xxAA_s132_6.0.0.dir/__/__/mesh/bearer/src/bearer_handler.c.obj
                0x00039380                bearer_handler_on_ts_end
 .text.radio_irq_handler
                0x000393b4       0x94 examples/dfu/CMakeFiles/dfu_nrf52832_xxAA_s132_6.0.0.dir/__/__/mesh/bearer/src/broadcast.c.obj
 .text.broadcast_start
                0x00039448       0x8c examples/dfu/CMakeFiles/dfu_nrf52832_xxAA_s132_6.0.0.dir/__/__/mesh/bearer/src/broadcast.c.obj
 .text.broadcast_send
                0x000394d4       0x6c examples/dfu/CMakeFiles/dfu_nrf52832_xxAA_s132_6.0.0.dir/__/__/mesh/bearer/src/broadcast.c.obj
                0x000394d4                broadcast_send
 .text.fen_filter_start
                0x00039540       0x28 examples/dfu/CMakeFiles/dfu_nrf52832_xxAA_s132_6.0.0.dir/__/__/mesh/bearer/src/filter_engine.c.obj
                0x00039540                fen_filter_start
 .text.fen_filter_stop
                0x00039568       0x20 examples/dfu/CMakeFiles/dfu_nrf52832_xxAA_s132_6.0.0.dir/__/__/mesh/bearer/src/filter_engine.c.obj
                0x00039568                fen_filter_stop
 .text.fen_filters_apply
                0x00039588       0x34 examples/dfu/CMakeFiles/dfu_nrf52832_xxAA_s132_6.0.0.dir/__/__/mesh/bearer/src/filter_engine.c.obj
                0x00039588                fen_filters_apply
 .text.radio_config_reset
                0x000395bc       0x34 examples/dfu/CMakeFiles/dfu_nrf52832_xxAA_s132_6.0.0.dir/__/__/mesh/bearer/src/radio_config.c.obj
                0x000395bc                radio_config_reset
 .text.radio_config_channel_set
                0x000395f0       0x28 examples/dfu/CMakeFiles/dfu_nrf52832_xxAA_s132_6.0.0.dir/__/__/mesh/bearer/src/radio_config.c.obj
                0x000395f0                radio_config_channel_set
 .text.radio_config_config
                0x00039618       0x90 examples/dfu/CMakeFiles/dfu_nrf52832_xxAA_s132_6.0.0.dir/__/__/mesh/bearer/src/radio_config.c.obj
                0x00039618                radio_config_config
 .text.radio_config_access_addr_set
                0x000396a8       0x50 examples/dfu/CMakeFiles/dfu_nrf52832_xxAA_s132_6.0.0.dir/__/__/mesh/bearer/src/radio_config.c.obj
                0x000396a8                radio_config_access_addr_set
 .text.radio_trigger
                0x000396f8       0x24 examples/dfu/CMakeFiles/dfu_nrf52832_xxAA_s132_6.0.0.dir/__/__/mesh/bearer/src/scanner.c.obj
 .text.scan_window_end
                0x0003971c       0x10 examples/dfu/CMakeFiles/dfu_nrf52832_xxAA_s132_6.0.0.dir/__/__/mesh/bearer/src/scanner.c.obj
 .text.scan_window_start
                0x0003972c       0x24 examples/dfu/CMakeFiles/dfu_nrf52832_xxAA_s132_6.0.0.dir/__/__/mesh/bearer/src/scanner.c.obj
 .text.radio_configure
                0x00039750       0x78 examples/dfu/CMakeFiles/dfu_nrf52832_xxAA_s132_6.0.0.dir/__/__/mesh/bearer/src/scanner.c.obj
 .text.radio_set_packet
                0x000397c8       0x44 examples/dfu/CMakeFiles/dfu_nrf52832_xxAA_s132_6.0.0.dir/__/__/mesh/bearer/src/scanner.c.obj
 .text.radio_start
                0x0003980c       0x40 examples/dfu/CMakeFiles/dfu_nrf52832_xxAA_s132_6.0.0.dir/__/__/mesh/bearer/src/scanner.c.obj
 .text.radio_stop
                0x0003984c       0x30 examples/dfu/CMakeFiles/dfu_nrf52832_xxAA_s132_6.0.0.dir/__/__/mesh/bearer/src/scanner.c.obj
 .text.schedule_timers
                0x0003987c       0x38 examples/dfu/CMakeFiles/dfu_nrf52832_xxAA_s132_6.0.0.dir/__/__/mesh/bearer/src/scanner.c.obj
 .text.scanner_radio_start
                0x000398b4       0x28 examples/dfu/CMakeFiles/dfu_nrf52832_xxAA_s132_6.0.0.dir/__/__/mesh/bearer/src/scanner.c.obj
                0x000398b4                scanner_radio_start
 .text.scanner_radio_stop
                0x000398dc       0x10 examples/dfu/CMakeFiles/dfu_nrf52832_xxAA_s132_6.0.0.dir/__/__/mesh/bearer/src/scanner.c.obj
                0x000398dc                scanner_radio_stop
 .text.scanner_radio_irq_handler
                0x000398ec      0x130 examples/dfu/CMakeFiles/dfu_nrf52832_xxAA_s132_6.0.0.dir/__/__/mesh/bearer/src/scanner.c.obj
                0x000398ec                scanner_radio_irq_handler
 .text.scanner_enable
                0x00039a1c       0x24 examples/dfu/CMakeFiles/dfu_nrf52832_xxAA_s132_6.0.0.dir/__/__/mesh/bearer/src/scanner.c.obj
                0x00039a1c                scanner_enable
 .text.scanner_disable
                0x00039a40       0x3c examples/dfu/CMakeFiles/dfu_nrf52832_xxAA_s132_6.0.0.dir/__/__/mesh/bearer/src/scanner.c.obj
                0x00039a40                scanner_disable
 .text.scanner_packet_release
                0x00039a7c       0x2c examples/dfu/CMakeFiles/dfu_nrf52832_xxAA_s132_6.0.0.dir/__/__/mesh/bearer/src/scanner.c.obj
                0x00039a7c                scanner_packet_release
 .text.scanner_rx
                0x00039aa8       0x30 examples/dfu/CMakeFiles/dfu_nrf52832_xxAA_s132_6.0.0.dir/__/__/mesh/bearer/src/scanner.c.obj
                0x00039aa8                scanner_rx
 .text.scanner_rx_pending
                0x00039ad8        0xc examples/dfu/CMakeFiles/dfu_nrf52832_xxAA_s132_6.0.0.dir/__/__/mesh/bearer/src/scanner.c.obj
                0x00039ad8                scanner_rx_pending
 .text.scanner_config_scan_time_set
                0x00039ae4       0x4c examples/dfu/CMakeFiles/dfu_nrf52832_xxAA_s132_6.0.0.dir/__/__/mesh/bearer/src/scanner.c.obj
                0x00039ae4                scanner_config_scan_time_set
 .text.scanner_config_channels_set
                0x00039b30       0x50 examples/dfu/CMakeFiles/dfu_nrf52832_xxAA_s132_6.0.0.dir/__/__/mesh/bearer/src/scanner.c.obj
                0x00039b30                scanner_config_channels_set
 .text.scanner_config_access_addresses_set
                0x00039b80       0x38 examples/dfu/CMakeFiles/dfu_nrf52832_xxAA_s132_6.0.0.dir/__/__/mesh/bearer/src/scanner.c.obj
                0x00039b80                scanner_config_access_addresses_set
 .text.scanner_config_reset
                0x00039bb8       0x50 examples/dfu/CMakeFiles/dfu_nrf52832_xxAA_s132_6.0.0.dir/__/__/mesh/bearer/src/scanner.c.obj
                0x00039bb8                scanner_config_reset
 .text.scanner_init
                0x00039c08       0x54 examples/dfu/CMakeFiles/dfu_nrf52832_xxAA_s132_6.0.0.dir/__/__/mesh/bearer/src/scanner.c.obj
                0x00039c08                scanner_init
 .text.errata_57
                0x00039c5c       0x34 examples/dfu/CMakeFiles/dfu_nrf52832_xxAA_s132_6.0.0.dir/C_/ver/mod/nRF5_SDK_15.0.0_a53641a/modules/nrfx/mdk/system_nrf52.c.obj
 .text.errata_136
                0x00039c90       0x40 examples/dfu/CMakeFiles/dfu_nrf52832_xxAA_s132_6.0.0.dir/C_/ver/mod/nRF5_SDK_15.0.0_a53641a/modules/nrfx/mdk/system_nrf52.c.obj
 .text.SystemInit
                0x00039cd0      0x264 examples/dfu/CMakeFiles/dfu_nrf52832_xxAA_s132_6.0.0.dir/C_/ver/mod/nRF5_SDK_15.0.0_a53641a/modules/nrfx/mdk/system_nrf52.c.obj
                0x00039cd0                SystemInit
 .text          0x00039f34       0x3c examples/dfu/CMakeFiles/dfu_nrf52832_xxAA_s132_6.0.0.dir/C_/ver/mod/nRF5_SDK_15.0.0_a53641a/modules/nrfx/mdk/gcc_startup_nrf52.S.obj
                0x00039f34                Reset_Handler
                0x00039f5c                NMI_Handler
                0x00039f5e                HardFault_Handler
                0x00039f60                MemoryManagement_Handler
                0x00039f62                BusFault_Handler
                0x00039f64                UsageFault_Handler
                0x00039f66                SVC_Handler
                0x00039f68                DebugMon_Handler
                0x00039f6a                PendSV_Handler
                0x00039f6c                SysTick_Handler
                0x00039f6e                RADIO_IRQHandler
                0x00039f6e                PDM_IRQHandler
                0x00039f6e                TEMP_IRQHandler
                0x00039f6e                TIMER3_IRQHandler
                0x00039f6e                RTC0_IRQHandler
                0x00039f6e                SPIM0_SPIS0_TWIM0_TWIS0_SPI0_TWI0_IRQHandler
                0x00039f6e                PWM1_IRQHandler
                0x00039f6e                POWER_CLOCK_IRQHandler
                0x00039f6e                I2S_IRQHandler
                0x00039f6e                SWI4_EGU4_IRQHandler
                0x00039f6e                TIMER0_IRQHandler
                0x00039f6e                FPU_IRQHandler
                0x00039f6e                TIMER1_IRQHandler
                0x00039f6e                PWM2_IRQHandler
                0x00039f6e                ECB_IRQHandler
                0x00039f6e                SPIM1_SPIS1_TWIM1_TWIS1_SPI1_TWI1_IRQHandler
                0x00039f6e                Default_Handler
                0x00039f6e                SAADC_IRQHandler
                0x00039f6e                CCM_AAR_IRQHandler
                0x00039f6e                WDT_IRQHandler
                0x00039f6e                TIMER4_IRQHandler
                0x00039f6e                SWI5_EGU5_IRQHandler
                0x00039f6e                RNG_IRQHandler
                0x00039f6e                RTC2_IRQHandler
                0x00039f6e                PWM0_IRQHandler
                0x00039f6e                SWI3_EGU3_IRQHandler
                0x00039f6e                RTC1_IRQHandler
                0x00039f6e                SWI1_EGU1_IRQHandler
                0x00039f6e                SPIM2_SPIS2_SPI2_IRQHandler
                0x00039f6e                NFCT_IRQHandler
                0x00039f6e                SWI0_EGU0_IRQHandler
                0x00039f6e                MWU_IRQHandler
                0x00039f6e                TIMER2_IRQHandler
                0x00039f6e                COMP_LPCOMP_IRQHandler
 .text.app_error_handler_bare
                0x00039f70       0x1a examples/dfu/CMakeFiles/dfu_nrf52832_xxAA_s132_6.0.0.dir/C_/ver/mod/nRF5_SDK_15.0.0_a53641a/components/libraries/util/app_error.c.obj
                0x00039f70                app_error_handler_bare
 .text.app_error_handler
                0x00039f8a       0x1a examples/dfu/CMakeFiles/dfu_nrf52832_xxAA_s132_6.0.0.dir/C_/ver/mod/nRF5_SDK_15.0.0_a53641a/components/libraries/util/app_error_handler_gcc.c.obj
                0x00039f8a                app_error_handler
 .text._GetAvailWriteSpace
                0x00039fa4       0x1c external/rtt/librtt_nrf52832_xxAA.a(SEGGER_RTT.c.obj)
 .text._WriteNoCheck
                0x00039fc0       0x3c external/rtt/librtt_nrf52832_xxAA.a(SEGGER_RTT.c.obj)
 .text._WriteBlocking
                0x00039ffc       0x52 external/rtt/librtt_nrf52832_xxAA.a(SEGGER_RTT.c.obj)
 *fill*         0x0003a04e        0x2 
 .text._DoInit  0x0003a050       0x60 external/rtt/librtt_nrf52832_xxAA.a(SEGGER_RTT.c.obj)
 .text.SEGGER_RTT_WriteNoLock
                0x0003a0b0       0x68 external/rtt/librtt_nrf52832_xxAA.a(SEGGER_RTT.c.obj)
                0x0003a0b0                SEGGER_RTT_WriteNoLock
 .text.SEGGER_RTT_Write
                0x0003a118       0x34 external/rtt/librtt_nrf52832_xxAA.a(SEGGER_RTT.c.obj)
                0x0003a118                SEGGER_RTT_Write
 .text._StoreChar
                0x0003a14c       0x3e external/rtt/librtt_nrf52832_xxAA.a(SEGGER_RTT_printf.c.obj)
 *fill*         0x0003a18a        0x2 
 .text._PrintUnsigned
                0x0003a18c       0xd0 external/rtt/librtt_nrf52832_xxAA.a(SEGGER_RTT_printf.c.obj)
 .text.SEGGER_RTT_vprintf
                0x0003a25c      0x246 external/rtt/librtt_nrf52832_xxAA.a(SEGGER_RTT_printf.c.obj)
                0x0003a25c                SEGGER_RTT_vprintf
 .text.SEGGER_RTT_printf
                0x0003a4a2       0x1e external/rtt/librtt_nrf52832_xxAA.a(SEGGER_RTT_printf.c.obj)
                0x0003a4a2                SEGGER_RTT_printf
 .text.uECC_vli_mult
                0x0003a4c0       0x64 external/micro-ecc/libuECC_nrf52832_xxAA.a(uECC.c.obj)
 .text.uECC_vli_clear
                0x0003a524       0x16 external/micro-ecc/libuECC_nrf52832_xxAA.a(uECC.c.obj)
 .text.uECC_vli_isZero
                0x0003a53a       0x1e external/micro-ecc/libuECC_nrf52832_xxAA.a(uECC.c.obj)
 .text.uECC_vli_testBit
                0x0003a558       0x14 external/micro-ecc/libuECC_nrf52832_xxAA.a(uECC.c.obj)
 .text.uECC_vli_numBits
                0x0003a56c       0x3a external/micro-ecc/libuECC_nrf52832_xxAA.a(uECC.c.obj)
 .text.uECC_vli_set
                0x0003a5a6       0x18 external/micro-ecc/libuECC_nrf52832_xxAA.a(uECC.c.obj)
 .text.uECC_vli_cmp_unsafe
                0x0003a5be       0x28 external/micro-ecc/libuECC_nrf52832_xxAA.a(uECC.c.obj)
 .text.uECC_vli_rshift1
                0x0003a5e6       0x1c external/micro-ecc/libuECC_nrf52832_xxAA.a(uECC.c.obj)
 .text.uECC_vli_modMult_fast
                0x0003a602       0x20 external/micro-ecc/libuECC_nrf52832_xxAA.a(uECC.c.obj)
 .text.uECC_vli_modSquare_fast
                0x0003a622        0x8 external/micro-ecc/libuECC_nrf52832_xxAA.a(uECC.c.obj)
 .text.apply_z  0x0003a62a       0x3e external/micro-ecc/libuECC_nrf52832_xxAA.a(uECC.c.obj)
 .text.uECC_vli_nativeToBytes
                0x0003a668       0x28 external/micro-ecc/libuECC_nrf52832_xxAA.a(uECC.c.obj)
 .text.uECC_vli_bytesToNative
                0x0003a690       0x40 external/micro-ecc/libuECC_nrf52832_xxAA.a(uECC.c.obj)
 .text.default_RNG
                0x0003a6d0        0xc external/micro-ecc/libuECC_nrf52832_xxAA.a(uECC.c.obj)
 .text.uECC_vli_add.isra.0
                0x0003a6dc       0x4a external/micro-ecc/libuECC_nrf52832_xxAA.a(uECC.c.obj)
 .text.regularize_k
                0x0003a726       0x50 external/micro-ecc/libuECC_nrf52832_xxAA.a(uECC.c.obj)
 .text.uECC_vli_sub.isra.1
                0x0003a776       0x4e external/micro-ecc/libuECC_nrf52832_xxAA.a(uECC.c.obj)
 .text.uECC_vli_cmp
                0x0003a7c4       0x30 external/micro-ecc/libuECC_nrf52832_xxAA.a(uECC.c.obj)
 .text.uECC_generate_random_int
                0x0003a7f4       0x78 external/micro-ecc/libuECC_nrf52832_xxAA.a(uECC.c.obj)
 .text.uECC_vli_modAdd
                0x0003a86c       0x2e external/micro-ecc/libuECC_nrf52832_xxAA.a(uECC.c.obj)
 *fill*         0x0003a89a        0x2 
 .text.vli_mmod_fast_secp256r1
                0x0003a89c      0x194 external/micro-ecc/libuECC_nrf52832_xxAA.a(uECC.c.obj)
 .text.uECC_vli_modSub.isra.2
                0x0003aa30       0x1c external/micro-ecc/libuECC_nrf52832_xxAA.a(uECC.c.obj)
 .text.double_jacobian_default
                0x0003aa4c      0x14a external/micro-ecc/libuECC_nrf52832_xxAA.a(uECC.c.obj)
 .text.x_side_default
                0x0003ab96       0x5a external/micro-ecc/libuECC_nrf52832_xxAA.a(uECC.c.obj)
 .text.XYcZ_add
                0x0003abf0       0xbc external/micro-ecc/libuECC_nrf52832_xxAA.a(uECC.c.obj)
 .text.XYcZ_addC
                0x0003acac      0x10a external/micro-ecc/libuECC_nrf52832_xxAA.a(uECC.c.obj)
 .text.vli_modInv_update
                0x0003adb6       0x36 external/micro-ecc/libuECC_nrf52832_xxAA.a(uECC.c.obj)
 .text.uECC_vli_modInv
                0x0003adec      0x102 external/micro-ecc/libuECC_nrf52832_xxAA.a(uECC.c.obj)
 .text.EccPoint_mult
                0x0003aeee      0x19e external/micro-ecc/libuECC_nrf52832_xxAA.a(uECC.c.obj)
 .text.EccPoint_compute_public_key
                0x0003b08c       0x54 external/micro-ecc/libuECC_nrf52832_xxAA.a(uECC.c.obj)
 .text.uECC_secp256r1
                0x0003b0e0        0x8 external/micro-ecc/libuECC_nrf52832_xxAA.a(uECC.c.obj)
                0x0003b0e0                uECC_secp256r1
 .text.uECC_make_key
                0x0003b0e8       0x7e external/micro-ecc/libuECC_nrf52832_xxAA.a(uECC.c.obj)
                0x0003b0e8                uECC_make_key
 *fill*         0x0003b166        0x2 
 .text.uECC_shared_secret
                0x0003b168       0xbc external/micro-ecc/libuECC_nrf52832_xxAA.a(uECC.c.obj)
                0x0003b168                uECC_shared_secret
 .text.uECC_valid_point
                0x0003b224       0x86 external/micro-ecc/libuECC_nrf52832_xxAA.a(uECC.c.obj)
                0x0003b224                uECC_valid_point
 .text.uECC_valid_public_key
                0x0003b2aa       0x32 external/micro-ecc/libuECC_nrf52832_xxAA.a(uECC.c.obj)
                0x0003b2aa                uECC_valid_public_key
 .text.exit     0x0003b2dc       0x28 c:/mesh/arm_gcc/bin/../lib/gcc/arm-none-eabi/6.3.1/../../../../arm-none-eabi/lib/thumb/v7e-m/fpv4-sp/hard\libg_nano.a(lib_a-exit.o)
                0x0003b2dc                exit
 .text.__libc_init_array
                0x0003b304       0x48 c:/mesh/arm_gcc/bin/../lib/gcc/arm-none-eabi/6.3.1/../../../../arm-none-eabi/lib/thumb/v7e-m/fpv4-sp/hard\libg_nano.a(lib_a-init.o)
                0x0003b304                __libc_init_array
 .text.malloc   0x0003b34c       0x10 c:/mesh/arm_gcc/bin/../lib/gcc/arm-none-eabi/6.3.1/../../../../arm-none-eabi/lib/thumb/v7e-m/fpv4-sp/hard\libg_nano.a(lib_a-malloc.o)
                0x0003b34c                malloc
 .text.free     0x0003b35c       0x10 c:/mesh/arm_gcc/bin/../lib/gcc/arm-none-eabi/6.3.1/../../../../arm-none-eabi/lib/thumb/v7e-m/fpv4-sp/hard\libg_nano.a(lib_a-malloc.o)
                0x0003b35c                free
 .text.memcmp   0x0003b36c       0x1e c:/mesh/arm_gcc/bin/../lib/gcc/arm-none-eabi/6.3.1/../../../../arm-none-eabi/lib/thumb/v7e-m/fpv4-sp/hard\libg_nano.a(lib_a-memcmp.o)
                0x0003b36c                memcmp
 .text.memcpy   0x0003b38a       0x16 c:/mesh/arm_gcc/bin/../lib/gcc/arm-none-eabi/6.3.1/../../../../arm-none-eabi/lib/thumb/v7e-m/fpv4-sp/hard\libg_nano.a(lib_a-memcpy-stub.o)
                0x0003b38a                memcpy
 .text.memset   0x0003b3a0       0x10 c:/mesh/arm_gcc/bin/../lib/gcc/arm-none-eabi/6.3.1/../../../../arm-none-eabi/lib/thumb/v7e-m/fpv4-sp/hard\libg_nano.a(lib_a-memset.o)
                0x0003b3a0                memset
 .text._free_r  0x0003b3b0       0x9c c:/mesh/arm_gcc/bin/../lib/gcc/arm-none-eabi/6.3.1/../../../../arm-none-eabi/lib/thumb/v7e-m/fpv4-sp/hard\libg_nano.a(lib_a-nano-freer.o)
                0x0003b3b0                _free_r
 .text._malloc_r
                0x0003b44c       0xbc c:/mesh/arm_gcc/bin/../lib/gcc/arm-none-eabi/6.3.1/../../../../arm-none-eabi/lib/thumb/v7e-m/fpv4-sp/hard\libg_nano.a(lib_a-nano-mallocr.o)
                0x0003b44c                _malloc_r
 .text._sbrk_r  0x0003b508       0x20 c:/mesh/arm_gcc/bin/../lib/gcc/arm-none-eabi/6.3.1/../../../../arm-none-eabi/lib/thumb/v7e-m/fpv4-sp/hard\libg_nano.a(lib_a-sbrkr.o)
                0x0003b508                _sbrk_r
 .text.strcpy   0x0003b528       0x10 c:/mesh/arm_gcc/bin/../lib/gcc/arm-none-eabi/6.3.1/../../../../arm-none-eabi/lib/thumb/v7e-m/fpv4-sp/hard\libg_nano.a(lib_a-strcpy.o)
                0x0003b528                strcpy
 .text          0x0003b538       0x10 c:/mesh/arm_gcc/bin/../lib/gcc/arm-none-eabi/6.3.1/../../../../arm-none-eabi/lib/thumb/v7e-m/fpv4-sp/hard\libg_nano.a(lib_a-strlen.o)
                0x0003b538                strlen
 .text.strrchr  0x0003b548       0x26 c:/mesh/arm_gcc/bin/../lib/gcc/arm-none-eabi/6.3.1/../../../../arm-none-eabi/lib/thumb/v7e-m/fpv4-sp/hard\libg_nano.a(lib_a-strrchr.o)
                0x0003b548                strrchr
 .text.__malloc_lock
                0x0003b56e        0x2 c:/mesh/arm_gcc/bin/../lib/gcc/arm-none-eabi/6.3.1/../../../../arm-none-eabi/lib/thumb/v7e-m/fpv4-sp/hard\libg_nano.a(lib_a-mlock.o)
                0x0003b56e                __malloc_lock
 .text.__malloc_unlock
                0x0003b570        0x2 c:/mesh/arm_gcc/bin/../lib/gcc/arm-none-eabi/6.3.1/../../../../arm-none-eabi/lib/thumb/v7e-m/fpv4-sp/hard\libg_nano.a(lib_a-mlock.o)
                0x0003b570                __malloc_unlock
 .text.strchr   0x0003b572       0x1c c:/mesh/arm_gcc/bin/../lib/gcc/arm-none-eabi/6.3.1/../../../../arm-none-eabi/lib/thumb/v7e-m/fpv4-sp/hard\libg_nano.a(lib_a-strchr.o)
                0x0003b572                strchr
 *fill*         0x0003b58e        0x2 
 .text._sbrk    0x0003b590       0x1c c:/mesh/arm_gcc/bin/../lib/gcc/arm-none-eabi/6.3.1/../../../../arm-none-eabi/lib/thumb/v7e-m/fpv4-sp/hard\libnosys.a(sbrk.o)
                0x0003b590                _sbrk
 .text._exit    0x0003b5ac        0x4 c:/mesh/arm_gcc/bin/../lib/gcc/arm-none-eabi/6.3.1/../../../../arm-none-eabi/lib/thumb/v7e-m/fpv4-sp/hard\libnosys.a(_exit.o)
                0x0003b5ac                _exit
 *(.init)
 .init          0x0003b5b0        0x4 c:/mesh/arm_gcc/bin/../lib/gcc/arm-none-eabi/6.3.1/thumb/v7e-m/fpv4-sp/hard/crti.o
                0x0003b5b0                _init
 .init          0x0003b5b4        0x8 c:/mesh/arm_gcc/bin/../lib/gcc/arm-none-eabi/6.3.1/thumb/v7e-m/fpv4-sp/hard/crtn.o
 *(.fini)
 .fini          0x0003b5bc        0x4 c:/mesh/arm_gcc/bin/../lib/gcc/arm-none-eabi/6.3.1/thumb/v7e-m/fpv4-sp/hard/crti.o
                0x0003b5bc                _fini
 .fini          0x0003b5c0        0x8 c:/mesh/arm_gcc/bin/../lib/gcc/arm-none-eabi/6.3.1/thumb/v7e-m/fpv4-sp/hard/crtn.o
 *crtbegin.o(.ctors)
 *crtbegin?.o(.ctors)
 *(EXCLUDE_FILE(*crtend.o *crtend?.o) .ctors)
 *(SORT(.ctors.*))
 *(.ctors)
 *crtbegin.o(.dtors)
 *crtbegin?.o(.dtors)
 *(EXCLUDE_FILE(*crtend.o *crtend?.o) .dtors)
 *(SORT(.dtors.*))
 *(.dtors)
 *(.rodata*)
 .rodata.config_server_evt_cb.str1.1
                0x0003b5c8       0x34 examples/dfu/CMakeFiles/dfu_nrf52832_xxAA_s132_6.0.0.dir/src/main.c.obj
 .rodata.main.str1.1
                0x0003b5fc       0xb3 examples/dfu/CMakeFiles/dfu_nrf52832_xxAA_s132_6.0.0.dir/src/main.c.obj
 .rodata.static_auth_data.12572
                0x0003b6af       0x10 examples/dfu/CMakeFiles/dfu_nrf52832_xxAA_s132_6.0.0.dir/src/main.c.obj
 .rodata.mesh_softdevice_init.str1.1
                0x0003b6bf       0xa4 examples/dfu/CMakeFiles/dfu_nrf52832_xxAA_s132_6.0.0.dir/__/common/src/mesh_softdevice_init.c.obj
 .rodata        0x0003b763        0xb examples/dfu/CMakeFiles/dfu_nrf52832_xxAA_s132_6.0.0.dir/__/common/src/mesh_provisionee.c.obj
 *fill*         0x0003b76e        0x2 
 .rodata.delay_bytecode.8414
                0x0003b770        0x6 examples/dfu/CMakeFiles/dfu_nrf52832_xxAA_s132_6.0.0.dir/__/common/src/simple_hal.c.obj
 .rodata.m_buttons_list
                0x0003b776        0x4 examples/dfu/CMakeFiles/dfu_nrf52832_xxAA_s132_6.0.0.dir/__/common/src/simple_hal.c.obj
 .rodata.mesh_evt_cb.str1.1
                0x0003b77a       0x2f examples/dfu/CMakeFiles/dfu_nrf52832_xxAA_s132_6.0.0.dir/__/__/mesh/access/src/access.c.obj
 .rodata.multiply_de_bruijn_bit_position.9260
                0x0003b7a9       0x20 examples/dfu/CMakeFiles/dfu_nrf52832_xxAA_s132_6.0.0.dir/__/__/mesh/access/src/access.c.obj
 .rodata.packet_tx.str1.1
                0x0003b7c9       0x24 examples/dfu/CMakeFiles/dfu_nrf52832_xxAA_s132_6.0.0.dir/__/__/mesh/access/src/access.c.obj
 *fill*         0x0003b7ed        0x3 
 .rodata.m_flash_groups
                0x0003b7f0       0xa8 examples/dfu/CMakeFiles/dfu_nrf52832_xxAA_s132_6.0.0.dir/__/__/mesh/access/src/device_state_manager.c.obj
 .rodata.multiply_de_bruijn_bit_position.9366
                0x0003b898       0x20 examples/dfu/CMakeFiles/dfu_nrf52832_xxAA_s132_6.0.0.dir/__/__/mesh/access/src/device_state_manager.c.obj
 .rodata.m_cmd_handlers
                0x0003b8b8       0xb0 examples/dfu/CMakeFiles/dfu_nrf52832_xxAA_s132_6.0.0.dir/__/__/mesh/serial/src/serial_handler_access.c.obj
 .rodata.m_cmd_handlers
                0x0003b968       0x48 examples/dfu/CMakeFiles/dfu_nrf52832_xxAA_s132_6.0.0.dir/__/__/mesh/serial/src/serial.c.obj
 .rodata.serial_process_cmd.str1.1
                0x0003b9b0       0x17 examples/dfu/CMakeFiles/dfu_nrf52832_xxAA_s132_6.0.0.dir/__/__/mesh/serial/src/serial.c.obj
 .rodata.serial_start.str1.1
                0x0003b9c7       0x63 examples/dfu/CMakeFiles/dfu_nrf52832_xxAA_s132_6.0.0.dir/__/__/mesh/serial/src/serial.c.obj
 .rodata.serial_handler_prov_init.str1.1
                0x0003ba2a       0x4b examples/dfu/CMakeFiles/dfu_nrf52832_xxAA_s132_6.0.0.dir/__/__/mesh/serial/src/serial_handler_prov.c.obj
 .rodata.lengths.11314
                0x0003ba75        0x7 examples/dfu/CMakeFiles/dfu_nrf52832_xxAA_s132_6.0.0.dir/__/__/mesh/serial/src/serial_handler_dfu.c.obj
 .rodata.m_handlers
                0x0003ba7c       0xe8 examples/dfu/CMakeFiles/dfu_nrf52832_xxAA_s132_6.0.0.dir/__/__/mesh/serial/src/serial_handler_mesh.c.obj
 .rodata.m_cmd_handlers
                0x0003bb64       0x18 examples/dfu/CMakeFiles/dfu_nrf52832_xxAA_s132_6.0.0.dir/__/__/mesh/serial/src/serial_handler_models.c.obj
 .rodata.m_cmd_handlers
                0x0003bb7c       0x48 examples/dfu/CMakeFiles/dfu_nrf52832_xxAA_s132_6.0.0.dir/__/__/mesh/serial/src/serial_handler_device.c.obj
 .rodata        0x0003bbc4        0x8 examples/dfu/CMakeFiles/dfu_nrf52832_xxAA_s132_6.0.0.dir/__/__/models/config/src/config_server.c.obj
 .rodata.CSWTCH.122
                0x0003bbcc       0x10 examples/dfu/CMakeFiles/dfu_nrf52832_xxAA_s132_6.0.0.dir/__/__/models/config/src/config_server.c.obj
 .rodata.opcode_handlers
                0x0003bbdc      0x170 examples/dfu/CMakeFiles/dfu_nrf52832_xxAA_s132_6.0.0.dir/__/__/models/config/src/config_server.c.obj
 .rodata.m_opcode_handlers
                0x0003bd4c       0x58 examples/dfu/CMakeFiles/dfu_nrf52832_xxAA_s132_6.0.0.dir/__/__/models/health/src/health_server.c.obj
 .rodata.multiply_de_bruijn_bit_position.9304
                0x0003bda4       0x20 examples/dfu/CMakeFiles/dfu_nrf52832_xxAA_s132_6.0.0.dir/__/__/models/health/src/health_server.c.obj
 .rodata.m_prov_callbacks
                0x0003bdc4       0x10 examples/dfu/CMakeFiles/dfu_nrf52832_xxAA_s132_6.0.0.dir/__/__/mesh/prov/src/prov_provisioner.c.obj
 .rodata.m_prov_callbacks
                0x0003bdd4       0x10 examples/dfu/CMakeFiles/dfu_nrf52832_xxAA_s132_6.0.0.dir/__/__/mesh/prov/src/prov_provisionee.c.obj
 .rodata.prov_provisionee_cb_ack_received.str1.1
                0x0003bde4       0x53 examples/dfu/CMakeFiles/dfu_nrf52832_xxAA_s132_6.0.0.dir/__/__/mesh/prov/src/prov_provisionee.c.obj
 .rodata.multiply_de_bruijn_bit_position.9313
                0x0003be37       0x20 examples/dfu/CMakeFiles/dfu_nrf52832_xxAA_s132_6.0.0.dir/__/__/mesh/prov/src/nrf_mesh_prov.c.obj
 .rodata.pdu_sizes.11238
                0x0003be57        0xa examples/dfu/CMakeFiles/dfu_nrf52832_xxAA_s132_6.0.0.dir/__/__/mesh/prov/src/provisioning.c.obj
 .rodata.alphanumeric.11343
                0x0003be61       0x25 examples/dfu/CMakeFiles/dfu_nrf52832_xxAA_s132_6.0.0.dir/__/__/mesh/prov/src/prov_utils.c.obj
 *fill*         0x0003be86        0x2 
 .rodata.numeric_max.11337
                0x0003be88       0x24 examples/dfu/CMakeFiles/dfu_nrf52832_xxAA_s132_6.0.0.dir/__/__/mesh/prov/src/prov_utils.c.obj
 .rodata.prov_utils_authentication_values_derive.str1.1
                0x0003beac        0x5 examples/dfu/CMakeFiles/dfu_nrf52832_xxAA_s132_6.0.0.dir/__/__/mesh/prov/src/prov_utils.c.obj
 .rodata.prov_utils_derive_keys.str1.1
                0x0003beb1        0xf examples/dfu/CMakeFiles/dfu_nrf52832_xxAA_s132_6.0.0.dir/__/__/mesh/prov/src/prov_utils.c.obj
 .rodata.add_active_bearer.str1.1
                0x0003bec0       0x2c examples/dfu/CMakeFiles/dfu_nrf52832_xxAA_s132_6.0.0.dir/__/__/mesh/prov/src/prov_bearer_adv.c.obj
 .rodata.crctable.10972
                0x0003beec      0x100 examples/dfu/CMakeFiles/dfu_nrf52832_xxAA_s132_6.0.0.dir/__/__/mesh/prov/src/prov_bearer_adv.c.obj
 .rodata.interface.11202
                0x0003bfec       0x14 examples/dfu/CMakeFiles/dfu_nrf52832_xxAA_s132_6.0.0.dir/__/__/mesh/prov/src/prov_bearer_adv.c.obj
 .rodata.prov_bearer_adv_packet_in.str1.1
                0x0003c000      0x26e examples/dfu/CMakeFiles/dfu_nrf52832_xxAA_s132_6.0.0.dir/__/__/mesh/prov/src/prov_bearer_adv.c.obj
 .rodata.tx_retry_cb.str1.1
                0x0003c26e       0x37 examples/dfu/CMakeFiles/dfu_nrf52832_xxAA_s132_6.0.0.dir/__/__/mesh/prov/src/prov_bearer_adv.c.obj
 .rodata.abort_timeout.str1.1
                0x0003c2a5       0x19 examples/dfu/CMakeFiles/dfu_nrf52832_xxAA_s132_6.0.0.dir/__/__/mesh/dfu/src/nrf_mesh_dfu.c.obj
 .rodata.dfu_evt_handler.str1.1
                0x0003c2be      0x182 examples/dfu/CMakeFiles/dfu_nrf52832_xxAA_s132_6.0.0.dir/__/__/mesh/dfu/src/nrf_mesh_dfu.c.obj
 .rodata.flash_op_complete.str1.1
                0x0003c440       0x3b examples/dfu/CMakeFiles/dfu_nrf52832_xxAA_s132_6.0.0.dir/__/__/mesh/dfu/src/nrf_mesh_dfu.c.obj
 .rodata.m_adv_channels
                0x0003c47b        0x3 examples/dfu/CMakeFiles/dfu_nrf52832_xxAA_s132_6.0.0.dir/__/__/mesh/dfu/src/nrf_mesh_dfu.c.obj
 .rodata.nrf_mesh_dfu_cmd_send.str1.1
                0x0003c47e       0x18 examples/dfu/CMakeFiles/dfu_nrf52832_xxAA_s132_6.0.0.dir/__/__/mesh/dfu/src/nrf_mesh_dfu.c.obj
 .rodata.timer_timeout.str1.1
                0x0003c496       0x18 examples/dfu/CMakeFiles/dfu_nrf52832_xxAA_s132_6.0.0.dir/__/__/mesh/dfu/src/nrf_mesh_dfu.c.obj
                                 0x13 (size before relaxing)
 .rodata.app_error_fault_handler.str1.1
                0x0003c496       0xbd examples/dfu/CMakeFiles/dfu_nrf52832_xxAA_s132_6.0.0.dir/__/common/src/app_error_weak.c.obj
 .rodata.mesh_assertion_handler.str1.1
                0x0003c553       0xbd examples/dfu/CMakeFiles/dfu_nrf52832_xxAA_s132_6.0.0.dir/__/common/src/assertion_handler_weak.c.obj
                                  0x1 (size before relaxing)
 .rodata.sar_ctx_cancel.str1.1
                0x0003c553       0x23 examples/dfu/CMakeFiles/dfu_nrf52832_xxAA_s132_6.0.0.dir/__/__/mesh/core/src/transport.c.obj
 .rodata.test_transport_decrypt.str1.1
                0x0003c576       0x30 examples/dfu/CMakeFiles/dfu_nrf52832_xxAA_s132_6.0.0.dir/__/__/mesh/core/src/transport.c.obj
 .rodata.transport_packet_in.str1.1
                0x0003c5a6       0x24 examples/dfu/CMakeFiles/dfu_nrf52832_xxAA_s132_6.0.0.dir/__/__/mesh/core/src/transport.c.obj
 .rodata.upper_transport_access_packet_in.str1.1
                0x0003c5ca       0x29 examples/dfu/CMakeFiles/dfu_nrf52832_xxAA_s132_6.0.0.dir/__/__/mesh/core/src/transport.c.obj
 .rodata.upper_transport_packet_in.str1.1
                0x0003c5f3       0x2e examples/dfu/CMakeFiles/dfu_nrf52832_xxAA_s132_6.0.0.dir/__/__/mesh/core/src/transport.c.obj
 .rodata.upper_transport_tx.str1.1
                0x0003c621        0xe examples/dfu/CMakeFiles/dfu_nrf52832_xxAA_s132_6.0.0.dir/__/__/mesh/core/src/transport.c.obj
                                 0x16 (size before relaxing)
 *fill*         0x0003c62f        0x1 
 .rodata.m_procedure_steps
                0x0003c630       0x28 examples/dfu/CMakeFiles/dfu_nrf52832_xxAA_s132_6.0.0.dir/__/__/mesh/core/src/flash_manager_defrag.c.obj
 .rodata.m_all_operations
                0x0003c658       0x10 examples/dfu/CMakeFiles/dfu_nrf52832_xxAA_s132_6.0.0.dir/__/__/mesh/core/src/mesh_flash.c.obj
 .rodata.types_lookup.9059
                0x0003c668        0x4 examples/dfu/CMakeFiles/dfu_nrf52832_xxAA_s132_6.0.0.dir/__/__/mesh/core/src/nrf_mesh_utils.c.obj
 .rodata.__func__.11531
                0x0003c66c       0x15 examples/dfu/CMakeFiles/dfu_nrf52832_xxAA_s132_6.0.0.dir/__/__/mesh/core/src/nrf_mesh.c.obj
 .rodata.nrf_mesh_listen.str1.1
                0x0003c681       0x70 examples/dfu/CMakeFiles/dfu_nrf52832_xxAA_s132_6.0.0.dir/__/__/mesh/core/src/nrf_mesh.c.obj
 .rodata.nrf_mesh_packet_send.str1.1
                0x0003c6f1       0x70 examples/dfu/CMakeFiles/dfu_nrf52832_xxAA_s132_6.0.0.dir/__/__/mesh/core/src/nrf_mesh.c.obj
                                  0x4 (size before relaxing)
 *fill*         0x0003c6f1        0x1 
 .rodata.CSWTCH.8
                0x0003c6f2       0x10 examples/dfu/CMakeFiles/dfu_nrf52832_xxAA_s132_6.0.0.dir/__/__/mesh/core/src/hal.c.obj
 .rodata.Rb.7352
                0x0003c702       0x10 examples/dfu/CMakeFiles/dfu_nrf52832_xxAA_s132_6.0.0.dir/__/__/mesh/core/src/aes_cmac.c.obj
 .rodata        0x0003c712       0x15 examples/dfu/CMakeFiles/dfu_nrf52832_xxAA_s132_6.0.0.dir/__/__/mesh/core/src/enc.c.obj
 .rodata.network_packet_in.str1.1
                0x0003c727       0x48 examples/dfu/CMakeFiles/dfu_nrf52832_xxAA_s132_6.0.0.dir/__/__/mesh/core/src/network.c.obj
 .rodata.net_packet_decrypt.str1.1
                0x0003c76f       0x31 examples/dfu/CMakeFiles/dfu_nrf52832_xxAA_s132_6.0.0.dir/__/__/mesh/core/src/net_packet.c.obj
                                 0x39 (size before relaxing)
 .rodata        0x0003c7a0        0x7 examples/dfu/CMakeFiles/dfu_nrf52832_xxAA_s132_6.0.0.dir/__/__/mesh/core/src/nrf_mesh_keygen.c.obj
 .rodata.log_callback_rtt.str1.1
                0x0003c7a7       0x15 examples/dfu/CMakeFiles/dfu_nrf52832_xxAA_s132_6.0.0.dir/__/__/mesh/core/src/log.c.obj
 .rodata.str1.1
                0x0003c7bc       0x11 examples/dfu/CMakeFiles/dfu_nrf52832_xxAA_s132_6.0.0.dir/__/__/mesh/core/src/log.c.obj
 *fill*         0x0003c7cd        0x3 
 .rodata.INVALID_HEADER
                0x0003c7d0        0x4 examples/dfu/CMakeFiles/dfu_nrf52832_xxAA_s132_6.0.0.dir/__/__/mesh/core/src/flash_manager.c.obj
                0x0003c7d0                INVALID_HEADER
 .rodata.PADDING_HEADER
                0x0003c7d4        0x4 examples/dfu/CMakeFiles/dfu_nrf52832_xxAA_s132_6.0.0.dir/__/__/mesh/core/src/flash_manager.c.obj
                0x0003c7d4                PADDING_HEADER
 .rodata.SEAL_HEADER
                0x0003c7d8        0x4 examples/dfu/CMakeFiles/dfu_nrf52832_xxAA_s132_6.0.0.dir/__/__/mesh/core/src/flash_manager.c.obj
                0x0003c7d8                SEAL_HEADER
 .rodata.beacon_packet_in.str1.1
                0x0003c7dc       0x51 examples/dfu/CMakeFiles/dfu_nrf52832_xxAA_s132_6.0.0.dir/__/__/mesh/core/src/beacon.c.obj
                                 0x59 (size before relaxing)
 *fill*         0x0003c82d        0x3 
 .rodata.cp_handler
                0x0003c830        0x8 examples/dfu/CMakeFiles/dfu_nrf52832_xxAA_s132_6.0.0.dir/__/__/mesh/core/src/heartbeat.c.obj
 .rodata.beacon_tx.str1.1
                0x0003c838       0x35 examples/dfu/CMakeFiles/dfu_nrf52832_xxAA_s132_6.0.0.dir/__/__/mesh/core/src/net_beacon.c.obj
 .rodata.net_beacon_init.str1.1
                0x0003c86d        0x5 examples/dfu/CMakeFiles/dfu_nrf52832_xxAA_s132_6.0.0.dir/__/__/mesh/core/src/net_beacon.c.obj
 *fill*         0x0003c872        0x2 
 .rodata.m_interface
                0x0003c874        0xc examples/dfu/CMakeFiles/dfu_nrf52832_xxAA_s132_6.0.0.dir/__/__/mesh/core/src/core_tx_adv.c.obj
 .rodata.radio_mode_to_us_per_byte.9452
                0x0003c880        0x6 examples/dfu/CMakeFiles/dfu_nrf52832_xxAA_s132_6.0.0.dir/__/__/mesh/bearer/src/broadcast.c.obj
 .rodata.channel_rf_offsets.8693
                0x0003c886       0x28 examples/dfu/CMakeFiles/dfu_nrf52832_xxAA_s132_6.0.0.dir/__/__/mesh/bearer/src/radio_config.c.obj
 .rodata        0x0003c8ae        0x3 examples/dfu/CMakeFiles/dfu_nrf52832_xxAA_s132_6.0.0.dir/__/__/mesh/bearer/src/scanner.c.obj
 .rodata._DoInit.str1.1
                0x0003c8b1       0x14 external/rtt/librtt_nrf52832_xxAA.a(SEGGER_RTT.c.obj)
 .rodata._aV2C.5497
                0x0003c8c5       0x10 external/rtt/librtt_nrf52832_xxAA.a(SEGGER_RTT_printf.c.obj)
 *fill*         0x0003c8d5        0x3 
 .rodata.curve_secp256r1
                0x0003c8d8       0xb0 external/micro-ecc/libuECC_nrf52832_xxAA.a(uECC.c.obj)
 .rodata._global_impure_ptr
                0x0003c988        0x4 c:/mesh/arm_gcc/bin/../lib/gcc/arm-none-eabi/6.3.1/../../../../arm-none-eabi/lib/thumb/v7e-m/fpv4-sp/hard\libg_nano.a(lib_a-impure.o)
                0x0003c988                _global_impure_ptr
 *(.eh_frame*)
 .eh_frame      0x0003c98c        0x0 c:/mesh/arm_gcc/bin/../lib/gcc/arm-none-eabi/6.3.1/thumb/v7e-m/fpv4-sp/hard/crtbegin.o
 .eh_frame      0x0003c98c        0x4 c:/mesh/arm_gcc/bin/../lib/gcc/arm-none-eabi/6.3.1/thumb/v7e-m/fpv4-sp/hard/crtend.o

.glue_7         0x0003c990        0x0
 .glue_7        0x0003c990        0x0 linker stubs

.glue_7t        0x0003c990        0x0
 .glue_7t       0x0003c990        0x0 linker stubs

.vfp11_veneer   0x0003c990        0x0
 .vfp11_veneer  0x0003c990        0x0 linker stubs

.v4_bx          0x0003c990        0x0
 .v4_bx         0x0003c990        0x0 linker stubs

.iplt           0x0003c990        0x0
 .iplt          0x0003c990        0x0 c:/mesh/arm_gcc/bin/../lib/gcc/arm-none-eabi/6.3.1/thumb/v7e-m/fpv4-sp/hard/crtbegin.o

.pwr_mgmt_data  0x0003c990        0x0
                [!provide]                PROVIDE (__start_pwr_mgmt_data, .)
 *(SORT(.pwr_mgmt_data*))
                [!provide]                PROVIDE (__stop_pwr_mgmt_data, .)

.log_const_data
                0x0003c990        0x0
                [!provide]                PROVIDE (__start_log_const_data, .)
 *(.log_const_data)
                [!provide]                PROVIDE (__stop_log_const_data, .)

.cli_command    0x0003c990        0x0
                [!provide]                PROVIDE (__start_cli_command, .)
 *(.cli_command)
                [!provide]                PROVIDE (__stop_cli_command, .)

.sdh_stack_observers
                0x0003c990        0x0
                [!provide]                PROVIDE (__start_sdh_stack_observers, .)
 *(SORT(.sdh_stack_observers*))
                [!provide]                PROVIDE (__stop_sdh_stack_observers, .)

.sdh_req_observers
                0x0003c990        0x0
                [!provide]                PROVIDE (__start_sdh_req_observers, .)
 *(SORT(.sdh_req_observers*))
                [!provide]                PROVIDE (__stop_sdh_req_observers, .)

.sdh_state_observers
                0x0003c990        0x0
                [!provide]                PROVIDE (__start_sdh_state_observers, .)
 *(SORT(.sdh_state_observers*))
                [!provide]                PROVIDE (__stop_sdh_state_observers, .)

.sdh_ant_observers
                0x0003c990        0x0
                [!provide]                PROVIDE (__start_sdh_ant_observers, .)
 *(SORT(.sdh_ant_observers*))
                [!provide]                PROVIDE (__stop_sdh_ant_observers, .)

.sdh_ble_observers
                0x0003c990        0x0
                [!provide]                PROVIDE (__start_sdh_ble_observers, .)
 *(SORT(.sdh_ble_observers*))
                [!provide]                PROVIDE (__stop_sdh_ble_observers, .)

.sdh_soc_observers
                0x0003c990        0x0
                [!provide]                PROVIDE (__start_sdh_soc_observers, .)
 *(SORT(.sdh_soc_observers*))
                [!provide]                PROVIDE (__stop_sdh_soc_observers, .)

.ARM.extab
 *(.ARM.extab* .gnu.linkonce.armextab.*)
                0x0003c990                __exidx_start = .

.ARM.exidx      0x0003c990        0x8
 *(.ARM.exidx* .gnu.linkonce.armexidx.*)
 .ARM.exidx     0x0003c990        0x8 c:/mesh/arm_gcc/bin/../lib/gcc/arm-none-eabi/6.3.1/../../../../arm-none-eabi/lib/thumb/v7e-m/fpv4-sp/hard/crt0.o
                0x0003c998                __exidx_end = .
                0x0003c998                __etext = .

.rel.dyn        0x0003c998        0x0
 .rel.iplt      0x0003c998        0x0 c:/mesh/arm_gcc/bin/../lib/gcc/arm-none-eabi/6.3.1/thumb/v7e-m/fpv4-sp/hard/crtbegin.o

.data           0x200032c8      0x14c load address 0x0003c998
                0x200032c8                __data_start__ = .
 *(vtable)
 *(.data*)
 .data.rom_base
                0x200032c8        0x4 examples/dfu/CMakeFiles/dfu_nrf52832_xxAA_s132_6.0.0.dir/src/main.c.obj
                0x200032c8                rom_base
 .data.rom_end  0x200032cc        0x4 examples/dfu/CMakeFiles/dfu_nrf52832_xxAA_s132_6.0.0.dir/src/main.c.obj
                0x200032cc                rom_end
 .data.s_evt_handler.11055
                0x200032d0        0x8 examples/dfu/CMakeFiles/dfu_nrf52832_xxAA_s132_6.0.0.dir/__/__/mesh/stack/src/mesh_stack.c.obj
 .data.flash_add_mem_available_struct.10384
                0x200032d8       0x10 examples/dfu/CMakeFiles/dfu_nrf52832_xxAA_s132_6.0.0.dir/__/__/mesh/access/src/access.c.obj
 .data.flash_clear_mem_available_struct.10473
                0x200032e8       0x10 examples/dfu/CMakeFiles/dfu_nrf52832_xxAA_s132_6.0.0.dir/__/__/mesh/access/src/access.c.obj
 .data.flash_store_mem_available_struct.10497
                0x200032f8       0x10 examples/dfu/CMakeFiles/dfu_nrf52832_xxAA_s132_6.0.0.dir/__/__/mesh/access/src/access.c.obj
 .data.m_default_ttl
                0x20003308        0x1 examples/dfu/CMakeFiles/dfu_nrf52832_xxAA_s132_6.0.0.dir/__/__/mesh/access/src/access.c.obj
 *fill*         0x20003309        0x3 
 .data.mem_listener.10673
                0x2000330c       0x10 examples/dfu/CMakeFiles/dfu_nrf52832_xxAA_s132_6.0.0.dir/__/__/mesh/access/src/device_state_manager.c.obj
 .data.mem_listener.10699
                0x2000331c       0x10 examples/dfu/CMakeFiles/dfu_nrf52832_xxAA_s132_6.0.0.dir/__/__/mesh/access/src/device_state_manager.c.obj
 .data.m_config_server_handle
                0x2000332c        0x2 examples/dfu/CMakeFiles/dfu_nrf52832_xxAA_s132_6.0.0.dir/__/__/models/config/src/config_server.c.obj
 *fill*         0x2000332e        0x2 
 .data.m_mesh_evt_handler
                0x20003330        0x8 examples/dfu/CMakeFiles/dfu_nrf52832_xxAA_s132_6.0.0.dir/__/__/models/config/src/config_server.c.obj
 .data.m_async_process_flag
                0x20003338        0x4 examples/dfu/CMakeFiles/dfu_nrf52832_xxAA_s132_6.0.0.dir/__/__/mesh/prov/src/prov_bearer_adv.c.obj
 .data.wait.8936
                0x2000333c        0x1 examples/dfu/CMakeFiles/dfu_nrf52832_xxAA_s132_6.0.0.dir/__/common/src/app_error_weak.c.obj
 *fill*         0x2000333d        0x3 
 .data.mem_listener.9810
                0x20003340       0x10 examples/dfu/CMakeFiles/dfu_nrf52832_xxAA_s132_6.0.0.dir/__/__/mesh/core/src/net_state.c.obj
 .data.mem_listener.9815
                0x20003350       0x10 examples/dfu/CMakeFiles/dfu_nrf52832_xxAA_s132_6.0.0.dir/__/__/mesh/core/src/net_state.c.obj
 .data.mem_listener.9829
                0x20003360       0x10 examples/dfu/CMakeFiles/dfu_nrf52832_xxAA_s132_6.0.0.dir/__/__/mesh/core/src/net_state.c.obj
 .data.mem_listener.9846
                0x20003370       0x10 examples/dfu/CMakeFiles/dfu_nrf52832_xxAA_s132_6.0.0.dir/__/__/mesh/core/src/net_state.c.obj
 .data.m_nrf_mesh_listener
                0x20003380        0xc examples/dfu/CMakeFiles/dfu_nrf52832_xxAA_s132_6.0.0.dir/__/__/mesh/core/src/nrf_mesh.c.obj
 .data.g_log_dbg_lvl
                0x2000338c        0x4 examples/dfu/CMakeFiles/dfu_nrf52832_xxAA_s132_6.0.0.dir/__/__/mesh/core/src/log.c.obj
                0x2000338c                g_log_dbg_lvl
 .data.g_log_dbg_msk
                0x20003390        0x4 examples/dfu/CMakeFiles/dfu_nrf52832_xxAA_s132_6.0.0.dir/__/__/mesh/core/src/log.c.obj
                0x20003390                g_log_dbg_msk
 .data.g_log_hex_digits
                0x20003394        0x4 examples/dfu/CMakeFiles/dfu_nrf52832_xxAA_s132_6.0.0.dir/__/__/mesh/core/src/log.c.obj
                0x20003394                g_log_hex_digits
 .data.m_log_callback
                0x20003398        0x4 examples/dfu/CMakeFiles/dfu_nrf52832_xxAA_s132_6.0.0.dir/__/__/mesh/core/src/log.c.obj
                0x20003398                m_log_callback
 .data.SystemCoreClock
                0x2000339c        0x4 examples/dfu/CMakeFiles/dfu_nrf52832_xxAA_s132_6.0.0.dir/C_/ver/mod/nRF5_SDK_15.0.0_a53641a/modules/nrfx/mdk/system_nrf52.c.obj
                0x2000339c                SystemCoreClock
 .data.g_rng_function
                0x200033a0        0x4 external/micro-ecc/libuECC_nrf52832_xxAA.a(uECC.c.obj)
 .data._impure_ptr
                0x200033a4        0x4 c:/mesh/arm_gcc/bin/../lib/gcc/arm-none-eabi/6.3.1/../../../../arm-none-eabi/lib/thumb/v7e-m/fpv4-sp/hard\libg_nano.a(lib_a-impure.o)
                0x200033a4                _impure_ptr
 .data.impure_data
                0x200033a8       0x60 c:/mesh/arm_gcc/bin/../lib/gcc/arm-none-eabi/6.3.1/../../../../arm-none-eabi/lib/thumb/v7e-m/fpv4-sp/hard\libg_nano.a(lib_a-impure.o)
                0x20003408                . = ALIGN (0x4)
                0x20003408                PROVIDE (__preinit_array_start, .)
 *(.preinit_array)
                0x20003408                PROVIDE (__preinit_array_end, .)
                0x20003408                . = ALIGN (0x4)
                0x20003408                PROVIDE (__init_array_start, .)
 *(SORT(.init_array.*))
 *(.init_array)
 .init_array    0x20003408        0x4 c:/mesh/arm_gcc/bin/../lib/gcc/arm-none-eabi/6.3.1/thumb/v7e-m/fpv4-sp/hard/crtbegin.o
                0x2000340c                PROVIDE (__init_array_end, .)
                0x2000340c                . = ALIGN (0x4)
                [!provide]                PROVIDE (__fini_array_start, .)
 *(SORT(.fini_array.*))
 *(.fini_array)
 .fini_array    0x2000340c        0x4 c:/mesh/arm_gcc/bin/../lib/gcc/arm-none-eabi/6.3.1/thumb/v7e-m/fpv4-sp/hard/crtbegin.o
                [!provide]                PROVIDE (__fini_array_end, .)
 *(.jcr*)
 .jcr           0x20003410        0x0 c:/mesh/arm_gcc/bin/../lib/gcc/arm-none-eabi/6.3.1/thumb/v7e-m/fpv4-sp/hard/crtbegin.o
 .jcr           0x20003410        0x4 c:/mesh/arm_gcc/bin/../lib/gcc/arm-none-eabi/6.3.1/thumb/v7e-m/fpv4-sp/hard/crtend.o
                0x20003414                . = ALIGN (0x4)
                0x20003414                __data_end__ = .
LOAD c:/mesh/arm_gcc/bin/../lib/gcc/arm-none-eabi/6.3.1/thumb/v7e-m/fpv4-sp/hard/crti.o
LOAD c:/mesh/arm_gcc/bin/../lib/gcc/arm-none-eabi/6.3.1/thumb/v7e-m/fpv4-sp/hard/crtbegin.o
LOAD c:/mesh/arm_gcc/bin/../lib/gcc/arm-none-eabi/6.3.1/../../../../arm-none-eabi/lib/thumb/v7e-m/fpv4-sp/hard/crt0.o
LOAD examples/dfu/CMakeFiles/dfu_nrf52832_xxAA_s132_6.0.0.dir/src/main.c.obj
LOAD examples/dfu/CMakeFiles/dfu_nrf52832_xxAA_s132_6.0.0.dir/__/__/mesh/stack/src/mesh_stack.c.obj
LOAD examples/dfu/CMakeFiles/dfu_nrf52832_xxAA_s132_6.0.0.dir/__/common/src/mesh_softdevice_init.c.obj
LOAD examples/dfu/CMakeFiles/dfu_nrf52832_xxAA_s132_6.0.0.dir/__/common/src/mesh_provisionee.c.obj
LOAD examples/dfu/CMakeFiles/dfu_nrf52832_xxAA_s132_6.0.0.dir/__/common/src/simple_hal.c.obj
LOAD examples/dfu/CMakeFiles/dfu_nrf52832_xxAA_s132_6.0.0.dir/__/__/mesh/access/src/access_publish.c.obj
LOAD examples/dfu/CMakeFiles/dfu_nrf52832_xxAA_s132_6.0.0.dir/__/__/mesh/access/src/access.c.obj
LOAD examples/dfu/CMakeFiles/dfu_nrf52832_xxAA_s132_6.0.0.dir/__/__/mesh/access/src/access_reliable.c.obj
LOAD examples/dfu/CMakeFiles/dfu_nrf52832_xxAA_s132_6.0.0.dir/__/__/mesh/access/src/device_state_manager.c.obj
LOAD examples/dfu/CMakeFiles/dfu_nrf52832_xxAA_s132_6.0.0.dir/__/__/mesh/serial/src/serial_uart.c.obj
LOAD examples/dfu/CMakeFiles/dfu_nrf52832_xxAA_s132_6.0.0.dir/__/__/mesh/serial/src/serial_bearer.c.obj
LOAD examples/dfu/CMakeFiles/dfu_nrf52832_xxAA_s132_6.0.0.dir/__/__/mesh/serial/src/serial_handler_common.c.obj
LOAD examples/dfu/CMakeFiles/dfu_nrf52832_xxAA_s132_6.0.0.dir/__/__/mesh/serial/src/serial_handler_access.c.obj
LOAD examples/dfu/CMakeFiles/dfu_nrf52832_xxAA_s132_6.0.0.dir/__/__/mesh/serial/src/serial_handler_config.c.obj
LOAD examples/dfu/CMakeFiles/dfu_nrf52832_xxAA_s132_6.0.0.dir/__/__/mesh/serial/src/serial_handler_openmesh.c.obj
LOAD examples/dfu/CMakeFiles/dfu_nrf52832_xxAA_s132_6.0.0.dir/__/__/mesh/serial/src/serial.c.obj
LOAD examples/dfu/CMakeFiles/dfu_nrf52832_xxAA_s132_6.0.0.dir/__/__/mesh/serial/src/serial_handler_prov.c.obj
LOAD examples/dfu/CMakeFiles/dfu_nrf52832_xxAA_s132_6.0.0.dir/__/__/mesh/serial/src/serial_handler_dfu.c.obj
LOAD examples/dfu/CMakeFiles/dfu_nrf52832_xxAA_s132_6.0.0.dir/__/__/mesh/serial/src/serial_handler_mesh.c.obj
LOAD examples/dfu/CMakeFiles/dfu_nrf52832_xxAA_s132_6.0.0.dir/__/__/mesh/serial/src/serial_handler_models.c.obj
LOAD examples/dfu/CMakeFiles/dfu_nrf52832_xxAA_s132_6.0.0.dir/__/__/mesh/serial/src/serial_handler_device.c.obj
LOAD examples/dfu/CMakeFiles/dfu_nrf52832_xxAA_s132_6.0.0.dir/__/__/mesh/serial/src/nrf_mesh_serial.c.obj
LOAD examples/dfu/CMakeFiles/dfu_nrf52832_xxAA_s132_6.0.0.dir/__/__/mesh/serial/src/serial_handler_app.c.obj
LOAD examples/dfu/CMakeFiles/dfu_nrf52832_xxAA_s132_6.0.0.dir/__/__/models/config/src/composition_data.c.obj
LOAD examples/dfu/CMakeFiles/dfu_nrf52832_xxAA_s132_6.0.0.dir/__/__/models/config/src/config_server.c.obj
LOAD examples/dfu/CMakeFiles/dfu_nrf52832_xxAA_s132_6.0.0.dir/__/__/models/config/src/packed_index_list.c.obj
LOAD examples/dfu/CMakeFiles/dfu_nrf52832_xxAA_s132_6.0.0.dir/__/__/models/health/src/health_server.c.obj
LOAD examples/dfu/CMakeFiles/dfu_nrf52832_xxAA_s132_6.0.0.dir/__/__/mesh/prov/src/prov_provisioner.c.obj
LOAD examples/dfu/CMakeFiles/dfu_nrf52832_xxAA_s132_6.0.0.dir/__/__/mesh/prov/src/prov_provisionee.c.obj
LOAD examples/dfu/CMakeFiles/dfu_nrf52832_xxAA_s132_6.0.0.dir/__/__/mesh/prov/src/nrf_mesh_prov.c.obj
LOAD examples/dfu/CMakeFiles/dfu_nrf52832_xxAA_s132_6.0.0.dir/__/__/mesh/prov/src/provisioning.c.obj
LOAD examples/dfu/CMakeFiles/dfu_nrf52832_xxAA_s132_6.0.0.dir/__/__/mesh/prov/src/prov_beacon.c.obj
LOAD examples/dfu/CMakeFiles/dfu_nrf52832_xxAA_s132_6.0.0.dir/__/__/mesh/prov/src/prov_utils.c.obj
LOAD examples/dfu/CMakeFiles/dfu_nrf52832_xxAA_s132_6.0.0.dir/__/__/mesh/prov/src/prov_bearer_adv.c.obj
LOAD examples/dfu/CMakeFiles/dfu_nrf52832_xxAA_s132_6.0.0.dir/__/__/mesh/dfu/src/nrf_mesh_dfu.c.obj
LOAD examples/dfu/CMakeFiles/dfu_nrf52832_xxAA_s132_6.0.0.dir/__/nrf_mesh_weak.c.obj
LOAD examples/dfu/CMakeFiles/dfu_nrf52832_xxAA_s132_6.0.0.dir/__/common/src/app_error_weak.c.obj
LOAD examples/dfu/CMakeFiles/dfu_nrf52832_xxAA_s132_6.0.0.dir/__/common/src/assertion_handler_weak.c.obj
LOAD examples/dfu/CMakeFiles/dfu_nrf52832_xxAA_s132_6.0.0.dir/__/__/mesh/core/src/internal_event.c.obj
LOAD examples/dfu/CMakeFiles/dfu_nrf52832_xxAA_s132_6.0.0.dir/__/__/mesh/core/src/nrf_mesh_configure.c.obj
LOAD examples/dfu/CMakeFiles/dfu_nrf52832_xxAA_s132_6.0.0.dir/__/__/mesh/core/src/aes.c.obj
LOAD examples/dfu/CMakeFiles/dfu_nrf52832_xxAA_s132_6.0.0.dir/__/__/mesh/core/src/msg_cache.c.obj
LOAD examples/dfu/CMakeFiles/dfu_nrf52832_xxAA_s132_6.0.0.dir/__/__/mesh/core/src/transport.c.obj
LOAD examples/dfu/CMakeFiles/dfu_nrf52832_xxAA_s132_6.0.0.dir/__/__/mesh/core/src/event.c.obj
LOAD examples/dfu/CMakeFiles/dfu_nrf52832_xxAA_s132_6.0.0.dir/__/__/mesh/core/src/packet_buffer.c.obj
LOAD examples/dfu/CMakeFiles/dfu_nrf52832_xxAA_s132_6.0.0.dir/__/__/mesh/core/src/flash_manager_defrag.c.obj
LOAD examples/dfu/CMakeFiles/dfu_nrf52832_xxAA_s132_6.0.0.dir/__/__/mesh/core/src/fifo.c.obj
LOAD examples/dfu/CMakeFiles/dfu_nrf52832_xxAA_s132_6.0.0.dir/__/__/mesh/core/src/nrf_flash.c.obj
LOAD examples/dfu/CMakeFiles/dfu_nrf52832_xxAA_s132_6.0.0.dir/__/__/mesh/core/src/packet_mgr.c.obj
LOAD examples/dfu/CMakeFiles/dfu_nrf52832_xxAA_s132_6.0.0.dir/__/__/mesh/core/src/net_state.c.obj
LOAD examples/dfu/CMakeFiles/dfu_nrf52832_xxAA_s132_6.0.0.dir/__/__/mesh/core/src/mesh_flash.c.obj
LOAD examples/dfu/CMakeFiles/dfu_nrf52832_xxAA_s132_6.0.0.dir/__/__/mesh/core/src/nrf_mesh_utils.c.obj
LOAD examples/dfu/CMakeFiles/dfu_nrf52832_xxAA_s132_6.0.0.dir/__/__/mesh/core/src/nrf_mesh.c.obj
LOAD examples/dfu/CMakeFiles/dfu_nrf52832_xxAA_s132_6.0.0.dir/__/__/mesh/core/src/queue.c.obj
LOAD examples/dfu/CMakeFiles/dfu_nrf52832_xxAA_s132_6.0.0.dir/__/__/mesh/core/src/hal.c.obj
LOAD examples/dfu/CMakeFiles/dfu_nrf52832_xxAA_s132_6.0.0.dir/__/__/mesh/core/src/aes_cmac.c.obj
LOAD examples/dfu/CMakeFiles/dfu_nrf52832_xxAA_s132_6.0.0.dir/__/__/mesh/core/src/timer_scheduler.c.obj
LOAD examples/dfu/CMakeFiles/dfu_nrf52832_xxAA_s132_6.0.0.dir/__/__/mesh/core/src/timer.c.obj
LOAD examples/dfu/CMakeFiles/dfu_nrf52832_xxAA_s132_6.0.0.dir/__/__/mesh/core/src/ticker.c.obj
LOAD examples/dfu/CMakeFiles/dfu_nrf52832_xxAA_s132_6.0.0.dir/__/__/mesh/core/src/rand.c.obj
LOAD examples/dfu/CMakeFiles/dfu_nrf52832_xxAA_s132_6.0.0.dir/__/__/mesh/core/src/nrf_mesh_opt.c.obj
LOAD examples/dfu/CMakeFiles/dfu_nrf52832_xxAA_s132_6.0.0.dir/__/__/mesh/core/src/timeslot.c.obj
LOAD examples/dfu/CMakeFiles/dfu_nrf52832_xxAA_s132_6.0.0.dir/__/__/mesh/core/src/bearer_event.c.obj
LOAD examples/dfu/CMakeFiles/dfu_nrf52832_xxAA_s132_6.0.0.dir/__/__/mesh/core/src/enc.c.obj
LOAD examples/dfu/CMakeFiles/dfu_nrf52832_xxAA_s132_6.0.0.dir/__/__/mesh/core/src/network.c.obj
LOAD examples/dfu/CMakeFiles/dfu_nrf52832_xxAA_s132_6.0.0.dir/__/__/mesh/core/src/net_packet.c.obj
LOAD examples/dfu/CMakeFiles/dfu_nrf52832_xxAA_s132_6.0.0.dir/__/__/mesh/core/src/msqueue.c.obj
LOAD examples/dfu/CMakeFiles/dfu_nrf52832_xxAA_s132_6.0.0.dir/__/__/mesh/core/src/nrf_mesh_keygen.c.obj
LOAD examples/dfu/CMakeFiles/dfu_nrf52832_xxAA_s132_6.0.0.dir/__/__/mesh/core/src/cache.c.obj
LOAD examples/dfu/CMakeFiles/dfu_nrf52832_xxAA_s132_6.0.0.dir/__/__/mesh/core/src/uri.c.obj
LOAD examples/dfu/CMakeFiles/dfu_nrf52832_xxAA_s132_6.0.0.dir/__/__/mesh/core/src/list.c.obj
LOAD examples/dfu/CMakeFiles/dfu_nrf52832_xxAA_s132_6.0.0.dir/__/__/mesh/core/src/log.c.obj
LOAD examples/dfu/CMakeFiles/dfu_nrf52832_xxAA_s132_6.0.0.dir/__/__/mesh/core/src/flash_manager.c.obj
LOAD examples/dfu/CMakeFiles/dfu_nrf52832_xxAA_s132_6.0.0.dir/__/__/mesh/core/src/ccm_soft.c.obj
LOAD examples/dfu/CMakeFiles/dfu_nrf52832_xxAA_s132_6.0.0.dir/__/__/mesh/core/src/toolchain.c.obj
LOAD examples/dfu/CMakeFiles/dfu_nrf52832_xxAA_s132_6.0.0.dir/__/__/mesh/core/src/replay_cache.c.obj
LOAD examples/dfu/CMakeFiles/dfu_nrf52832_xxAA_s132_6.0.0.dir/__/__/mesh/core/src/beacon.c.obj
LOAD examples/dfu/CMakeFiles/dfu_nrf52832_xxAA_s132_6.0.0.dir/__/__/mesh/core/src/flash_manager_internal.c.obj
LOAD examples/dfu/CMakeFiles/dfu_nrf52832_xxAA_s132_6.0.0.dir/__/__/mesh/core/src/core_tx.c.obj
LOAD examples/dfu/CMakeFiles/dfu_nrf52832_xxAA_s132_6.0.0.dir/__/__/mesh/core/src/heartbeat.c.obj
LOAD examples/dfu/CMakeFiles/dfu_nrf52832_xxAA_s132_6.0.0.dir/__/__/mesh/core/src/net_beacon.c.obj
LOAD examples/dfu/CMakeFiles/dfu_nrf52832_xxAA_s132_6.0.0.dir/__/__/mesh/core/src/fsm.c.obj
LOAD examples/dfu/CMakeFiles/dfu_nrf52832_xxAA_s132_6.0.0.dir/__/__/mesh/core/src/core_tx_adv.c.obj
LOAD examples/dfu/CMakeFiles/dfu_nrf52832_xxAA_s132_6.0.0.dir/__/__/mesh/bearer/src/ad_listener.c.obj
LOAD examples/dfu/CMakeFiles/dfu_nrf52832_xxAA_s132_6.0.0.dir/__/__/mesh/bearer/src/ad_type_filter.c.obj
LOAD examples/dfu/CMakeFiles/dfu_nrf52832_xxAA_s132_6.0.0.dir/__/__/mesh/bearer/src/adv_packet_filter.c.obj
LOAD examples/dfu/CMakeFiles/dfu_nrf52832_xxAA_s132_6.0.0.dir/__/__/mesh/bearer/src/advertiser.c.obj
LOAD examples/dfu/CMakeFiles/dfu_nrf52832_xxAA_s132_6.0.0.dir/__/__/mesh/bearer/src/bearer_handler.c.obj
LOAD examples/dfu/CMakeFiles/dfu_nrf52832_xxAA_s132_6.0.0.dir/__/__/mesh/bearer/src/broadcast.c.obj
LOAD examples/dfu/CMakeFiles/dfu_nrf52832_xxAA_s132_6.0.0.dir/__/__/mesh/bearer/src/filter_engine.c.obj
LOAD examples/dfu/CMakeFiles/dfu_nrf52832_xxAA_s132_6.0.0.dir/__/__/mesh/bearer/src/gap_address_filter.c.obj
LOAD examples/dfu/CMakeFiles/dfu_nrf52832_xxAA_s132_6.0.0.dir/__/__/mesh/bearer/src/radio_config.c.obj
LOAD examples/dfu/CMakeFiles/dfu_nrf52832_xxAA_s132_6.0.0.dir/__/__/mesh/bearer/src/rssi_filter.c.obj
LOAD examples/dfu/CMakeFiles/dfu_nrf52832_xxAA_s132_6.0.0.dir/__/__/mesh/bearer/src/scanner.c.obj
LOAD examples/dfu/CMakeFiles/dfu_nrf52832_xxAA_s132_6.0.0.dir/C_/ver/mod/nRF5_SDK_15.0.0_a53641a/modules/nrfx/mdk/system_nrf52.c.obj
LOAD examples/dfu/CMakeFiles/dfu_nrf52832_xxAA_s132_6.0.0.dir/C_/ver/mod/nRF5_SDK_15.0.0_a53641a/modules/nrfx/mdk/gcc_startup_nrf52.S.obj
LOAD examples/dfu/CMakeFiles/dfu_nrf52832_xxAA_s132_6.0.0.dir/C_/ver/mod/nRF5_SDK_15.0.0_a53641a/components/libraries/util/app_error.c.obj
LOAD examples/dfu/CMakeFiles/dfu_nrf52832_xxAA_s132_6.0.0.dir/C_/ver/mod/nRF5_SDK_15.0.0_a53641a/components/libraries/util/app_error_handler_gcc.c.obj
LOAD external/rtt/librtt_nrf52832_xxAA.a
LOAD external/micro-ecc/libuECC_nrf52832_xxAA.a
START GROUP
LOAD c:/mesh/arm_gcc/bin/../lib/gcc/arm-none-eabi/6.3.1/thumb/v7e-m/fpv4-sp/hard\libgcc.a
LOAD c:/mesh/arm_gcc/bin/../lib/gcc/arm-none-eabi/6.3.1/../../../../arm-none-eabi/lib/thumb/v7e-m/fpv4-sp/hard\libg_nano.a
LOAD c:/mesh/arm_gcc/bin/../lib/gcc/arm-none-eabi/6.3.1/../../../../arm-none-eabi/lib/thumb/v7e-m/fpv4-sp/hard\libc_nano.a
END GROUP
START GROUP
LOAD c:/mesh/arm_gcc/bin/../lib/gcc/arm-none-eabi/6.3.1/thumb/v7e-m/fpv4-sp/hard\libgcc.a
LOAD c:/mesh/arm_gcc/bin/../lib/gcc/arm-none-eabi/6.3.1/../../../../arm-none-eabi/lib/thumb/v7e-m/fpv4-sp/hard\libc_nano.a
END GROUP
LOAD c:/mesh/arm_gcc/bin/../lib/gcc/arm-none-eabi/6.3.1/thumb/v7e-m/fpv4-sp/hard/crtend.o
LOAD c:/mesh/arm_gcc/bin/../lib/gcc/arm-none-eabi/6.3.1/thumb/v7e-m/fpv4-sp/hard/crtn.o
START GROUP
LOAD c:/mesh/arm_gcc/bin/../lib/gcc/arm-none-eabi/6.3.1/thumb/v7e-m/fpv4-sp/hard\libgcc.a
LOAD c:/mesh/arm_gcc/bin/../lib/gcc/arm-none-eabi/6.3.1/../../../../arm-none-eabi/lib/thumb/v7e-m/fpv4-sp/hard\libc.a
LOAD c:/mesh/arm_gcc/bin/../lib/gcc/arm-none-eabi/6.3.1/../../../../arm-none-eabi/lib/thumb/v7e-m/fpv4-sp/hard\libnosys.a
END GROUP

.igot.plt       0x20003414        0x0 load address 0x0003cae4
 .igot.plt      0x20003414        0x0 c:/mesh/arm_gcc/bin/../lib/gcc/arm-none-eabi/6.3.1/thumb/v7e-m/fpv4-sp/hard/crtbegin.o
                0x20003414                . = ALIGN (0x4)

.svc_data       0x20003414        0x0
                [!provide]                PROVIDE (__start_svc_data, .)
 *(.svc_data)
                [!provide]                PROVIDE (__stop_svc_data, .)

.fs_data        0x20003414        0x0
                [!provide]                PROVIDE (__start_fs_data, .)
 *(.fs_data)
                [!provide]                PROVIDE (__stop_fs_data, .)

.log_dynamic_data
                0x20003414        0x0
                [!provide]                PROVIDE (__start_log_dynamic_data, .)
 *(.log_dynamic_data)
                [!provide]                PROVIDE (__stop_log_dynamic_data, .)

.cli_sorted_cmd_ptrs
                0x20003414        0x0
                [!provide]                PROVIDE (__start_cli_sorted_cmd_ptrs, .)
 *(.cli_sorted_cmd_ptrs)
                [!provide]                PROVIDE (__stop_cli_sorted_cmd_ptrs, .)

.bss            0x20003418     0x3e4c load address 0x0003cae8
                0x20003418                . = ALIGN (0x4)
                0x20003418                __bss_start__ = .
 *(.bss*)
 .bss           0x20003418       0x1c c:/mesh/arm_gcc/bin/../lib/gcc/arm-none-eabi/6.3.1/thumb/v7e-m/fpv4-sp/hard/crtbegin.o
 .bss.m_device_provisioned
                0x20003434        0x1 examples/dfu/CMakeFiles/dfu_nrf52832_xxAA_s132_6.0.0.dir/src/main.c.obj
 *fill*         0x20003435        0x3 
 .bss.m_evt_handler
                0x20003438        0x8 examples/dfu/CMakeFiles/dfu_nrf52832_xxAA_s132_6.0.0.dir/src/main.c.obj
 .bss.m_health_server
                0x20003440       0x5c examples/dfu/CMakeFiles/dfu_nrf52832_xxAA_s132_6.0.0.dir/__/__/mesh/stack/src/mesh_stack.c.obj
 .bss.m_init_params
                0x2000349c       0x24 examples/dfu/CMakeFiles/dfu_nrf52832_xxAA_s132_6.0.0.dir/__/__/mesh/stack/src/mesh_stack.c.obj
 .bss.m_device_provisioned
                0x200034c0        0x1 examples/dfu/CMakeFiles/dfu_nrf52832_xxAA_s132_6.0.0.dir/__/common/src/mesh_provisionee.c.obj
 *fill*         0x200034c1        0x3 
 .bss.m_params  0x200034c4        0xc examples/dfu/CMakeFiles/dfu_nrf52832_xxAA_s132_6.0.0.dir/__/common/src/mesh_provisionee.c.obj
 .bss.m_private_key
                0x200034d0       0x20 examples/dfu/CMakeFiles/dfu_nrf52832_xxAA_s132_6.0.0.dir/__/common/src/mesh_provisionee.c.obj
 .bss.m_prov_bearer_adv
                0x200034f0      0x1c4 examples/dfu/CMakeFiles/dfu_nrf52832_xxAA_s132_6.0.0.dir/__/common/src/mesh_provisionee.c.obj
 .bss.m_prov_ctx
                0x200036b4      0x134 examples/dfu/CMakeFiles/dfu_nrf52832_xxAA_s132_6.0.0.dir/__/common/src/mesh_provisionee.c.obj
 .bss.m_public_key
                0x200037e8       0x40 examples/dfu/CMakeFiles/dfu_nrf52832_xxAA_s132_6.0.0.dir/__/common/src/mesh_provisionee.c.obj
 .bss.m_button_handler_cb
                0x20003828        0x4 examples/dfu/CMakeFiles/dfu_nrf52832_xxAA_s132_6.0.0.dir/__/common/src/simple_hal.c.obj
 .bss.m_last_button_press
                0x2000382c        0x4 examples/dfu/CMakeFiles/dfu_nrf52832_xxAA_s132_6.0.0.dir/__/common/src/simple_hal.c.obj
 .bss.m_publish_timer
                0x20003830       0x18 examples/dfu/CMakeFiles/dfu_nrf52832_xxAA_s132_6.0.0.dir/__/__/mesh/access/src/access_publish.c.obj
 .bss.m_publish_timer_counter
                0x20003848        0x4 examples/dfu/CMakeFiles/dfu_nrf52832_xxAA_s132_6.0.0.dir/__/__/mesh/access/src/access_publish.c.obj
 .bss.m_publish_timer_running
                0x2000384c        0x1 examples/dfu/CMakeFiles/dfu_nrf52832_xxAA_s132_6.0.0.dir/__/__/mesh/access/src/access_publish.c.obj
 .bss.m_timer_resolution
                0x2000384d        0x1 examples/dfu/CMakeFiles/dfu_nrf52832_xxAA_s132_6.0.0.dir/__/__/mesh/access/src/access_publish.c.obj
 *fill*         0x2000384e        0x2 
 .bss.mp_publication_list
                0x20003850        0x4 examples/dfu/CMakeFiles/dfu_nrf52832_xxAA_s132_6.0.0.dir/__/__/mesh/access/src/access_publish.c.obj
 .bss.m_element_pool
                0x20003854        0x6 examples/dfu/CMakeFiles/dfu_nrf52832_xxAA_s132_6.0.0.dir/__/__/mesh/access/src/access.c.obj
 *fill*         0x2000385a        0x2 
 .bss.m_evt_handler
                0x2000385c        0x8 examples/dfu/CMakeFiles/dfu_nrf52832_xxAA_s132_6.0.0.dir/__/__/mesh/access/src/access.c.obj
 .bss.m_flash_manager
                0x20003864       0x24 examples/dfu/CMakeFiles/dfu_nrf52832_xxAA_s132_6.0.0.dir/__/__/mesh/access/src/access.c.obj
 .bss.m_flash_not_ready
                0x20003888        0x1 examples/dfu/CMakeFiles/dfu_nrf52832_xxAA_s132_6.0.0.dir/__/__/mesh/access/src/access.c.obj
 .bss.m_metadata_stored
                0x20003889        0x1 examples/dfu/CMakeFiles/dfu_nrf52832_xxAA_s132_6.0.0.dir/__/__/mesh/access/src/access.c.obj
 *fill*         0x2000388a        0x2 
 .bss.m_model_pool
                0x2000388c       0x68 examples/dfu/CMakeFiles/dfu_nrf52832_xxAA_s132_6.0.0.dir/__/__/mesh/access/src/access.c.obj
 .bss.m_subscription_list_pool
                0x200038f4       0x10 examples/dfu/CMakeFiles/dfu_nrf52832_xxAA_s132_6.0.0.dir/__/__/mesh/access/src/access.c.obj
 .bss.m_reliable
                0x20003904       0x74 examples/dfu/CMakeFiles/dfu_nrf52832_xxAA_s132_6.0.0.dir/__/__/mesh/access/src/access_reliable.c.obj
 .bss.m_addr_nonvirtual_allocated
                0x20003978        0x4 examples/dfu/CMakeFiles/dfu_nrf52832_xxAA_s132_6.0.0.dir/__/__/mesh/access/src/device_state_manager.c.obj
 .bss.m_addr_nonvirtual_needs_flashing
                0x2000397c        0x4 examples/dfu/CMakeFiles/dfu_nrf52832_xxAA_s132_6.0.0.dir/__/__/mesh/access/src/device_state_manager.c.obj
 .bss.m_addr_unicast_allocated
                0x20003980        0x4 examples/dfu/CMakeFiles/dfu_nrf52832_xxAA_s132_6.0.0.dir/__/__/mesh/access/src/device_state_manager.c.obj
 .bss.m_addr_unicast_needs_flashing
                0x20003984        0x4 examples/dfu/CMakeFiles/dfu_nrf52832_xxAA_s132_6.0.0.dir/__/__/mesh/access/src/device_state_manager.c.obj
 .bss.m_addr_virtual_allocated
                0x20003988        0x4 examples/dfu/CMakeFiles/dfu_nrf52832_xxAA_s132_6.0.0.dir/__/__/mesh/access/src/device_state_manager.c.obj
 .bss.m_addr_virtual_needs_flashing
                0x2000398c        0x4 examples/dfu/CMakeFiles/dfu_nrf52832_xxAA_s132_6.0.0.dir/__/__/mesh/access/src/device_state_manager.c.obj
 .bss.m_addresses
                0x20003990       0x40 examples/dfu/CMakeFiles/dfu_nrf52832_xxAA_s132_6.0.0.dir/__/__/mesh/access/src/device_state_manager.c.obj
 .bss.m_appkey_allocated
                0x200039d0        0x4 examples/dfu/CMakeFiles/dfu_nrf52832_xxAA_s132_6.0.0.dir/__/__/mesh/access/src/device_state_manager.c.obj
 .bss.m_appkey_needs_flashing
                0x200039d4        0x4 examples/dfu/CMakeFiles/dfu_nrf52832_xxAA_s132_6.0.0.dir/__/__/mesh/access/src/device_state_manager.c.obj
 .bss.m_appkeys
                0x200039d8      0x150 examples/dfu/CMakeFiles/dfu_nrf52832_xxAA_s132_6.0.0.dir/__/__/mesh/access/src/device_state_manager.c.obj
 .bss.m_devkey_allocated
                0x20003b28        0x4 examples/dfu/CMakeFiles/dfu_nrf52832_xxAA_s132_6.0.0.dir/__/__/mesh/access/src/device_state_manager.c.obj
 .bss.m_devkey_needs_flashing
                0x20003b2c        0x4 examples/dfu/CMakeFiles/dfu_nrf52832_xxAA_s132_6.0.0.dir/__/__/mesh/access/src/device_state_manager.c.obj
 .bss.m_devkeys
                0x20003b30       0x16 examples/dfu/CMakeFiles/dfu_nrf52832_xxAA_s132_6.0.0.dir/__/__/mesh/access/src/device_state_manager.c.obj
 .bss.m_flash_is_available
                0x20003b46        0x1 examples/dfu/CMakeFiles/dfu_nrf52832_xxAA_s132_6.0.0.dir/__/__/mesh/access/src/device_state_manager.c.obj
 *fill*         0x20003b47        0x1 
 .bss.m_flash_manager
                0x20003b48       0x24 examples/dfu/CMakeFiles/dfu_nrf52832_xxAA_s132_6.0.0.dir/__/__/mesh/access/src/device_state_manager.c.obj
 .bss.m_flash_mem_listener_update_all
                0x20003b6c       0x10 examples/dfu/CMakeFiles/dfu_nrf52832_xxAA_s132_6.0.0.dir/__/__/mesh/access/src/device_state_manager.c.obj
 .bss.m_has_primary_subnet
                0x20003b7c        0x1 examples/dfu/CMakeFiles/dfu_nrf52832_xxAA_s132_6.0.0.dir/__/__/mesh/access/src/device_state_manager.c.obj
 *fill*         0x20003b7d        0x1 
 .bss.m_local_unicast_addr
                0x20003b7e        0x4 examples/dfu/CMakeFiles/dfu_nrf52832_xxAA_s132_6.0.0.dir/__/__/mesh/access/src/device_state_manager.c.obj
 *fill*         0x20003b82        0x2 
 .bss.m_mesh_evt_handler
                0x20003b84        0x8 examples/dfu/CMakeFiles/dfu_nrf52832_xxAA_s132_6.0.0.dir/__/__/mesh/access/src/device_state_manager.c.obj
 .bss.m_subnet_allocated
                0x20003b8c        0x4 examples/dfu/CMakeFiles/dfu_nrf52832_xxAA_s132_6.0.0.dir/__/__/mesh/access/src/device_state_manager.c.obj
 .bss.m_subnet_needs_flashing
                0x20003b90        0x4 examples/dfu/CMakeFiles/dfu_nrf52832_xxAA_s132_6.0.0.dir/__/__/mesh/access/src/device_state_manager.c.obj
 .bss.m_subnets
                0x20003b94      0x2a0 examples/dfu/CMakeFiles/dfu_nrf52832_xxAA_s132_6.0.0.dir/__/__/mesh/access/src/device_state_manager.c.obj
 .bss.m_virtual_addresses
                0x20003e34       0xa0 examples/dfu/CMakeFiles/dfu_nrf52832_xxAA_s132_6.0.0.dir/__/__/mesh/access/src/device_state_manager.c.obj
 .bss.m_can_receive
                0x20003ed4        0x1 examples/dfu/CMakeFiles/dfu_nrf52832_xxAA_s132_6.0.0.dir/__/__/mesh/serial/src/serial_uart.c.obj
 *fill*         0x20003ed5        0x3 
 .bss.m_char_rx_cb
                0x20003ed8        0x4 examples/dfu/CMakeFiles/dfu_nrf52832_xxAA_s132_6.0.0.dir/__/__/mesh/serial/src/serial_uart.c.obj
 .bss.m_char_tx_cb
                0x20003edc        0x4 examples/dfu/CMakeFiles/dfu_nrf52832_xxAA_s132_6.0.0.dir/__/__/mesh/serial/src/serial_uart.c.obj
 .bss.m_cur_tx_packet_index
                0x20003ee0        0x2 examples/dfu/CMakeFiles/dfu_nrf52832_xxAA_s132_6.0.0.dir/__/__/mesh/serial/src/serial_bearer.c.obj
 *fill*         0x20003ee2        0x2 
 .bss.m_event_flag
                0x20003ee4        0x4 examples/dfu/CMakeFiles/dfu_nrf52832_xxAA_s132_6.0.0.dir/__/__/mesh/serial/src/serial_bearer.c.obj
 .bss.m_ignore_rx_count
                0x20003ee8        0x2 examples/dfu/CMakeFiles/dfu_nrf52832_xxAA_s132_6.0.0.dir/__/__/mesh/serial/src/serial_bearer.c.obj
 .bss.m_rx_buffer
                0x20003eea       0xd0 examples/dfu/CMakeFiles/dfu_nrf52832_xxAA_s132_6.0.0.dir/__/__/mesh/serial/src/serial_bearer.c.obj
 *fill*         0x20003fba        0x2 
 .bss.m_rx_packet_buf
                0x20003fbc        0xc examples/dfu/CMakeFiles/dfu_nrf52832_xxAA_s132_6.0.0.dir/__/__/mesh/serial/src/serial_bearer.c.obj
 .bss.m_serial_state
                0x20003fc8        0x1 examples/dfu/CMakeFiles/dfu_nrf52832_xxAA_s132_6.0.0.dir/__/__/mesh/serial/src/serial_bearer.c.obj
 *fill*         0x20003fc9        0x1 
 .bss.m_stored_pac_len
                0x20003fca        0x2 examples/dfu/CMakeFiles/dfu_nrf52832_xxAA_s132_6.0.0.dir/__/__/mesh/serial/src/serial_bearer.c.obj
 .bss.m_tx_buffer
                0x20003fcc       0xd0 examples/dfu/CMakeFiles/dfu_nrf52832_xxAA_s132_6.0.0.dir/__/__/mesh/serial/src/serial_bearer.c.obj
 .bss.m_tx_packet_buf
                0x2000409c        0xc examples/dfu/CMakeFiles/dfu_nrf52832_xxAA_s132_6.0.0.dir/__/__/mesh/serial/src/serial_bearer.c.obj
 .bss.mp_current_rx_packet
                0x200040a8        0x4 examples/dfu/CMakeFiles/dfu_nrf52832_xxAA_s132_6.0.0.dir/__/__/mesh/serial/src/serial_bearer.c.obj
 .bss.mp_current_tx_packet
                0x200040ac        0x4 examples/dfu/CMakeFiles/dfu_nrf52832_xxAA_s132_6.0.0.dir/__/__/mesh/serial/src/serial_bearer.c.obj
 .bss.rx_index.11327
                0x200040b0        0x2 examples/dfu/CMakeFiles/dfu_nrf52832_xxAA_s132_6.0.0.dir/__/__/mesh/serial/src/serial_bearer.c.obj
 .bss.m_cmd_handler_scheduled
                0x200040b2        0x1 examples/dfu/CMakeFiles/dfu_nrf52832_xxAA_s132_6.0.0.dir/__/__/mesh/serial/src/serial.c.obj
 .bss.m_state   0x200040b3        0x1 examples/dfu/CMakeFiles/dfu_nrf52832_xxAA_s132_6.0.0.dir/__/__/mesh/serial/src/serial.c.obj
 .bss.m_pb_adv_contexts
                0x200040b4      0x388 examples/dfu/CMakeFiles/dfu_nrf52832_xxAA_s132_6.0.0.dir/__/__/mesh/serial/src/serial_handler_prov.c.obj
 .bss.m_private_key
                0x2000443c       0x20 examples/dfu/CMakeFiles/dfu_nrf52832_xxAA_s132_6.0.0.dir/__/__/mesh/serial/src/serial_handler_prov.c.obj
 .bss.m_prov_contexts
                0x2000445c      0x268 examples/dfu/CMakeFiles/dfu_nrf52832_xxAA_s132_6.0.0.dir/__/__/mesh/serial/src/serial_handler_prov.c.obj
 .bss.m_provisioning_caps
                0x200046c4        0xb examples/dfu/CMakeFiles/dfu_nrf52832_xxAA_s132_6.0.0.dir/__/__/mesh/serial/src/serial_handler_prov.c.obj
 .bss.m_public_key
                0x200046cf       0x40 examples/dfu/CMakeFiles/dfu_nrf52832_xxAA_s132_6.0.0.dir/__/__/mesh/serial/src/serial_handler_prov.c.obj
 .bss.m_scanning_running
                0x2000470f        0x1 examples/dfu/CMakeFiles/dfu_nrf52832_xxAA_s132_6.0.0.dir/__/__/mesh/serial/src/serial_handler_prov.c.obj
 .bss.m_evt_handler
                0x20004710        0x8 examples/dfu/CMakeFiles/dfu_nrf52832_xxAA_s132_6.0.0.dir/__/__/mesh/serial/src/serial_handler_dfu.c.obj
 .bss.m_evt_handler
                0x20004718        0x8 examples/dfu/CMakeFiles/dfu_nrf52832_xxAA_s132_6.0.0.dir/__/__/mesh/serial/src/serial_handler_mesh.c.obj
 .bss.p_serial_evt.11513
                0x20004720        0x4 examples/dfu/CMakeFiles/dfu_nrf52832_xxAA_s132_6.0.0.dir/__/__/mesh/serial/src/serial_handler_mesh.c.obj
 .bss.m_models_list
                0x20004724       0x18 examples/dfu/CMakeFiles/dfu_nrf52832_xxAA_s132_6.0.0.dir/__/__/mesh/serial/src/serial_handler_models.c.obj
 .bss.m_beacons
                0x2000473c      0x138 examples/dfu/CMakeFiles/dfu_nrf52832_xxAA_s132_6.0.0.dir/__/__/mesh/serial/src/serial_handler_device.c.obj
 .bss.m_app_rx_cb
                0x20004874        0x4 examples/dfu/CMakeFiles/dfu_nrf52832_xxAA_s132_6.0.0.dir/__/__/mesh/serial/src/serial_handler_app.c.obj
 .bss.m_evt_cb  0x20004878        0x4 examples/dfu/CMakeFiles/dfu_nrf52832_xxAA_s132_6.0.0.dir/__/__/models/config/src/config_server.c.obj
 .bss.m_heartbeat_publication
                0x2000487c       0x14 examples/dfu/CMakeFiles/dfu_nrf52832_xxAA_s132_6.0.0.dir/__/__/models/config/src/config_server.c.obj
 .bss.m_node_reset_pending
                0x20004890        0x1 examples/dfu/CMakeFiles/dfu_nrf52832_xxAA_s132_6.0.0.dir/__/__/models/config/src/config_server.c.obj
 *fill*         0x20004891        0x3 
 .bss.m_attention_timer
                0x20004894       0x18 examples/dfu/CMakeFiles/dfu_nrf52832_xxAA_s132_6.0.0.dir/__/__/models/health/src/health_server.c.obj
 .bss.mp_attention_list
                0x200048ac        0x4 examples/dfu/CMakeFiles/dfu_nrf52832_xxAA_s132_6.0.0.dir/__/__/models/health/src/health_server.c.obj
 .bss.m_event_handler
                0x200048b0        0x4 examples/dfu/CMakeFiles/dfu_nrf52832_xxAA_s132_6.0.0.dir/__/__/mesh/prov/src/prov_beacon.c.obj
 .bss.m_offload_ecdh
                0x200048b4        0x1 examples/dfu/CMakeFiles/dfu_nrf52832_xxAA_s132_6.0.0.dir/__/__/mesh/prov/src/prov_utils.c.obj
 *fill*         0x200048b5        0x3 
 .bss.mp_bearer_head
                0x200048b8        0x4 examples/dfu/CMakeFiles/dfu_nrf52832_xxAA_s132_6.0.0.dir/__/__/mesh/prov/src/prov_bearer_adv.c.obj
 .bss.m_adv_packet
                0x200048bc       0x28 examples/dfu/CMakeFiles/dfu_nrf52832_xxAA_s132_6.0.0.dir/__/__/mesh/dfu/src/nrf_mesh_dfu.c.obj
 .bss.m_broadcast
                0x200048e4       0x38 examples/dfu/CMakeFiles/dfu_nrf52832_xxAA_s132_6.0.0.dir/__/__/mesh/dfu/src/nrf_mesh_dfu.c.obj
 .bss.m_prng    0x2000491c       0x10 examples/dfu/CMakeFiles/dfu_nrf52832_xxAA_s132_6.0.0.dir/__/__/mesh/dfu/src/nrf_mesh_dfu.c.obj
 .bss.m_timer_evt
                0x2000492c       0x18 examples/dfu/CMakeFiles/dfu_nrf52832_xxAA_s132_6.0.0.dir/__/__/mesh/dfu/src/nrf_mesh_dfu.c.obj
 .bss.m_transfer_state
                0x20004944       0x12 examples/dfu/CMakeFiles/dfu_nrf52832_xxAA_s132_6.0.0.dir/__/__/mesh/dfu/src/nrf_mesh_dfu.c.obj
 *fill*         0x20004956        0x2 
 .bss.m_tx_slots
                0x20004958      0x120 examples/dfu/CMakeFiles/dfu_nrf52832_xxAA_s132_6.0.0.dir/__/__/mesh/dfu/src/nrf_mesh_dfu.c.obj
 .bss.m_tx_timer_evt
                0x20004a78       0x18 examples/dfu/CMakeFiles/dfu_nrf52832_xxAA_s132_6.0.0.dir/__/__/mesh/dfu/src/nrf_mesh_dfu.c.obj
 .bss.mp_curr_fwid
                0x20004a90        0x4 examples/dfu/CMakeFiles/dfu_nrf52832_xxAA_s132_6.0.0.dir/__/__/mesh/dfu/src/nrf_mesh_dfu.c.obj
 .bss.m_uuid    0x20004a94       0x10 examples/dfu/CMakeFiles/dfu_nrf52832_xxAA_s132_6.0.0.dir/__/__/mesh/core/src/nrf_mesh_configure.c.obj
 .bss.m_msg_cache
                0x20004aa4      0x100 examples/dfu/CMakeFiles/dfu_nrf52832_xxAA_s132_6.0.0.dir/__/__/mesh/core/src/msg_cache.c.obj
 .bss.m_msg_cache_head
                0x20004ba4        0x4 examples/dfu/CMakeFiles/dfu_nrf52832_xxAA_s132_6.0.0.dir/__/__/mesh/core/src/msg_cache.c.obj
 .bss.m_control_packet_consumer_count
                0x20004ba8        0x4 examples/dfu/CMakeFiles/dfu_nrf52832_xxAA_s132_6.0.0.dir/__/__/mesh/core/src/transport.c.obj
 .bss.m_control_packet_consumers
                0x20004bac        0x8 examples/dfu/CMakeFiles/dfu_nrf52832_xxAA_s132_6.0.0.dir/__/__/mesh/core/src/transport.c.obj
 .bss.m_sar_alloc
                0x20004bb4        0x4 examples/dfu/CMakeFiles/dfu_nrf52832_xxAA_s132_6.0.0.dir/__/__/mesh/core/src/transport.c.obj
 .bss.m_sar_process_flag
                0x20004bb8        0x4 examples/dfu/CMakeFiles/dfu_nrf52832_xxAA_s132_6.0.0.dir/__/__/mesh/core/src/transport.c.obj
 .bss.m_sar_release
                0x20004bbc        0x4 examples/dfu/CMakeFiles/dfu_nrf52832_xxAA_s132_6.0.0.dir/__/__/mesh/core/src/transport.c.obj
 .bss.m_sar_session_cache
                0x20004bc0       0x40 examples/dfu/CMakeFiles/dfu_nrf52832_xxAA_s132_6.0.0.dir/__/__/mesh/core/src/transport.c.obj
 .bss.m_sar_session_cache_head
                0x20004c00        0x4 examples/dfu/CMakeFiles/dfu_nrf52832_xxAA_s132_6.0.0.dir/__/__/mesh/core/src/transport.c.obj
 .bss.m_trs_config
                0x20004c04       0x18 examples/dfu/CMakeFiles/dfu_nrf52832_xxAA_s132_6.0.0.dir/__/__/mesh/core/src/transport.c.obj
 .bss.m_trs_sar_sessions
                0x20004c1c      0x1b0 examples/dfu/CMakeFiles/dfu_nrf52832_xxAA_s132_6.0.0.dir/__/__/mesh/core/src/transport.c.obj
 .bss.mp_evt_handlers_head
                0x20004dcc        0x4 examples/dfu/CMakeFiles/dfu_nrf52832_xxAA_s132_6.0.0.dir/__/__/mesh/core/src/event.c.obj
 .bss.m_defrag  0x20004dd0       0x1c examples/dfu/CMakeFiles/dfu_nrf52832_xxAA_s132_6.0.0.dir/__/__/mesh/core/src/flash_manager_defrag.c.obj
 .bss.m_token   0x20004dec        0x2 examples/dfu/CMakeFiles/dfu_nrf52832_xxAA_s132_6.0.0.dir/__/__/mesh/core/src/flash_manager_defrag.c.obj
 *fill*         0x20004dee        0x2 
 .bss.mp_recovery_area
                0x20004df0        0x4 examples/dfu/CMakeFiles/dfu_nrf52832_xxAA_s132_6.0.0.dir/__/__/mesh/core/src/flash_manager_defrag.c.obj
 .bss.p_null_ptr.10241
                0x20004df4        0x4 examples/dfu/CMakeFiles/dfu_nrf52832_xxAA_s132_6.0.0.dir/__/__/mesh/core/src/flash_manager_defrag.c.obj
 .bss.m_pool    0x20004df8     0x1000 examples/dfu/CMakeFiles/dfu_nrf52832_xxAA_s132_6.0.0.dir/__/__/mesh/core/src/packet_mgr.c.obj
 .bss.mp_free_head
                0x20005df8        0x4 examples/dfu/CMakeFiles/dfu_nrf52832_xxAA_s132_6.0.0.dir/__/__/mesh/core/src/packet_mgr.c.obj
 .bss.iv_state_set.9896
                0x20005dfc        0x1 examples/dfu/CMakeFiles/dfu_nrf52832_xxAA_s132_6.0.0.dir/__/__/mesh/core/src/net_state.c.obj
 *fill*         0x20005dfd        0x3 
 .bss.lock_count.9872
                0x20005e00        0x4 examples/dfu/CMakeFiles/dfu_nrf52832_xxAA_s132_6.0.0.dir/__/__/mesh/core/src/net_state.c.obj
 .bss.m_flash_manager
                0x20005e04       0x24 examples/dfu/CMakeFiles/dfu_nrf52832_xxAA_s132_6.0.0.dir/__/__/mesh/core/src/net_state.c.obj
 .bss.m_iv_update_timer
                0x20005e28       0x18 examples/dfu/CMakeFiles/dfu_nrf52832_xxAA_s132_6.0.0.dir/__/__/mesh/core/src/net_state.c.obj
 .bss.m_mesh_evt_handler
                0x20005e40        0x8 examples/dfu/CMakeFiles/dfu_nrf52832_xxAA_s132_6.0.0.dir/__/__/mesh/core/src/net_state.c.obj
 .bss.m_net_state
                0x20005e48       0x14 examples/dfu/CMakeFiles/dfu_nrf52832_xxAA_s132_6.0.0.dir/__/__/mesh/core/src/net_state.c.obj
 .bss.m_seqnum_allocation_in_progress
                0x20005e5c        0x1 examples/dfu/CMakeFiles/dfu_nrf52832_xxAA_s132_6.0.0.dir/__/__/mesh/core/src/net_state.c.obj
 .bss.m_test_mode
                0x20005e5d        0x1 examples/dfu/CMakeFiles/dfu_nrf52832_xxAA_s132_6.0.0.dir/__/__/mesh/core/src/net_state.c.obj
 *fill*         0x20005e5e        0x2 
 .bss.m_event_flag
                0x20005e60        0x4 examples/dfu/CMakeFiles/dfu_nrf52832_xxAA_s132_6.0.0.dir/__/__/mesh/core/src/mesh_flash.c.obj
 .bss.m_suspended
                0x20005e64        0x1 examples/dfu/CMakeFiles/dfu_nrf52832_xxAA_s132_6.0.0.dir/__/__/mesh/core/src/mesh_flash.c.obj
 *fill*         0x20005e65        0x3 
 .bss.m_users   0x20005e68      0x228 examples/dfu/CMakeFiles/dfu_nrf52832_xxAA_s132_6.0.0.dir/__/__/mesh/core/src/mesh_flash.c.obj
 .bss.suspend_count.10123
                0x20006090        0x4 examples/dfu/CMakeFiles/dfu_nrf52832_xxAA_s132_6.0.0.dir/__/__/mesh/core/src/mesh_flash.c.obj
 .bss.m_is_enabled
                0x20006094        0x1 examples/dfu/CMakeFiles/dfu_nrf52832_xxAA_s132_6.0.0.dir/__/__/mesh/core/src/nrf_mesh.c.obj
 .bss.m_is_initialized
                0x20006095        0x1 examples/dfu/CMakeFiles/dfu_nrf52832_xxAA_s132_6.0.0.dir/__/__/mesh/core/src/nrf_mesh.c.obj
 *fill*         0x20006096        0x2 
 .bss.m_rx_cb   0x20006098        0x4 examples/dfu/CMakeFiles/dfu_nrf52832_xxAA_s132_6.0.0.dir/__/__/mesh/core/src/nrf_mesh.c.obj
 .bss.m_128buf  0x2000609c       0x10 examples/dfu/CMakeFiles/dfu_nrf52832_xxAA_s132_6.0.0.dir/__/__/mesh/core/src/aes_cmac.c.obj
 .bss.m_subkey1
                0x200060ac       0x10 examples/dfu/CMakeFiles/dfu_nrf52832_xxAA_s132_6.0.0.dir/__/__/mesh/core/src/aes_cmac.c.obj
 .bss.m_subkey2
                0x200060bc       0x10 examples/dfu/CMakeFiles/dfu_nrf52832_xxAA_s132_6.0.0.dir/__/__/mesh/core/src/aes_cmac.c.obj
 .bss.m_event_flag
                0x200060cc        0x4 examples/dfu/CMakeFiles/dfu_nrf52832_xxAA_s132_6.0.0.dir/__/__/mesh/core/src/timer_scheduler.c.obj
 .bss.m_scheduler
                0x200060d0       0x10 examples/dfu/CMakeFiles/dfu_nrf52832_xxAA_s132_6.0.0.dir/__/__/mesh/core/src/timer_scheduler.c.obj
 .bss.m_attributes
                0x200060e0        0x3 examples/dfu/CMakeFiles/dfu_nrf52832_xxAA_s132_6.0.0.dir/__/__/mesh/core/src/timer.c.obj
 *fill*         0x200060e3        0x1 
 .bss.m_callbacks
                0x200060e4        0xc examples/dfu/CMakeFiles/dfu_nrf52832_xxAA_s132_6.0.0.dir/__/__/mesh/core/src/timer.c.obj
 .bss.m_is_in_ts
                0x200060f0        0x1 examples/dfu/CMakeFiles/dfu_nrf52832_xxAA_s132_6.0.0.dir/__/__/mesh/core/src/timer.c.obj
 *fill*         0x200060f1        0x3 
 .bss.m_reference_time
                0x200060f4        0x4 examples/dfu/CMakeFiles/dfu_nrf52832_xxAA_s132_6.0.0.dir/__/__/mesh/core/src/timer.c.obj
 .bss.m_timeouts
                0x200060f8        0xc examples/dfu/CMakeFiles/dfu_nrf52832_xxAA_s132_6.0.0.dir/__/__/mesh/core/src/timer.c.obj
 .bss.m_timer_mut
                0x20006104        0x4 examples/dfu/CMakeFiles/dfu_nrf52832_xxAA_s132_6.0.0.dir/__/__/mesh/core/src/timer.c.obj
 .bss.m_ts_end_time
                0x20006108        0x4 examples/dfu/CMakeFiles/dfu_nrf52832_xxAA_s132_6.0.0.dir/__/__/mesh/core/src/timer.c.obj
 .bss.mp_ppi_tasks
                0x2000610c        0xc examples/dfu/CMakeFiles/dfu_nrf52832_xxAA_s132_6.0.0.dir/__/__/mesh/core/src/timer.c.obj
 .bss.m_current_time
                0x20006118        0x4 examples/dfu/CMakeFiles/dfu_nrf52832_xxAA_s132_6.0.0.dir/__/__/mesh/core/src/ticker.c.obj
 .bss.m_timer   0x2000611c       0x18 examples/dfu/CMakeFiles/dfu_nrf52832_xxAA_s132_6.0.0.dir/__/__/mesh/core/src/ticker.c.obj
 .bss.m_current_timeslot
                0x20006134       0x1c examples/dfu/CMakeFiles/dfu_nrf52832_xxAA_s132_6.0.0.dir/__/__/mesh/core/src/timeslot.c.obj
 .bss.m_lfclk_ppm
                0x20006150        0x4 examples/dfu/CMakeFiles/dfu_nrf52832_xxAA_s132_6.0.0.dir/__/__/mesh/core/src/timeslot.c.obj
 .bss.m_radio_request_earliest
                0x20006154       0x10 examples/dfu/CMakeFiles/dfu_nrf52832_xxAA_s132_6.0.0.dir/__/__/mesh/core/src/timeslot.c.obj
 .bss.m_state_lock
                0x20006164        0x1 examples/dfu/CMakeFiles/dfu_nrf52832_xxAA_s132_6.0.0.dir/__/__/mesh/core/src/timeslot.c.obj
 .bss.m_timeslot_forced_command
                0x20006165        0x1 examples/dfu/CMakeFiles/dfu_nrf52832_xxAA_s132_6.0.0.dir/__/__/mesh/core/src/timeslot.c.obj
 *fill*         0x20006166        0x2 
 .bss.s_last_rtc_value.9299
                0x20006168        0x8 examples/dfu/CMakeFiles/dfu_nrf52832_xxAA_s132_6.0.0.dir/__/__/mesh/core/src/timeslot.c.obj
 .bss.m_bearer_event_fifo
                0x20006170       0x14 examples/dfu/CMakeFiles/dfu_nrf52832_xxAA_s132_6.0.0.dir/__/__/mesh/core/src/bearer_event.c.obj
 .bss.m_bearer_event_fifo_buffer
                0x20006184      0x100 examples/dfu/CMakeFiles/dfu_nrf52832_xxAA_s132_6.0.0.dir/__/__/mesh/core/src/bearer_event.c.obj
 .bss.m_critical
                0x20006284        0x4 examples/dfu/CMakeFiles/dfu_nrf52832_xxAA_s132_6.0.0.dir/__/__/mesh/core/src/bearer_event.c.obj
 .bss.m_flag_count
                0x20006288        0x4 examples/dfu/CMakeFiles/dfu_nrf52832_xxAA_s132_6.0.0.dir/__/__/mesh/core/src/bearer_event.c.obj
 .bss.m_flag_event_callbacks
                0x2000628c       0x20 examples/dfu/CMakeFiles/dfu_nrf52832_xxAA_s132_6.0.0.dir/__/__/mesh/core/src/bearer_event.c.obj
 .bss.m_flags   0x200062ac        0x4 examples/dfu/CMakeFiles/dfu_nrf52832_xxAA_s132_6.0.0.dir/__/__/mesh/core/src/bearer_event.c.obj
 .bss.m_irq_priority
                0x200062b0        0x1 examples/dfu/CMakeFiles/dfu_nrf52832_xxAA_s132_6.0.0.dir/__/__/mesh/core/src/bearer_event.c.obj
 *fill*         0x200062b1        0x3 
 .bss.m_sequential_event_queue
                0x200062b4        0x8 examples/dfu/CMakeFiles/dfu_nrf52832_xxAA_s132_6.0.0.dir/__/__/mesh/core/src/bearer_event.c.obj
 .bss.s_recursion_guard.9430
                0x200062bc        0x1 examples/dfu/CMakeFiles/dfu_nrf52832_xxAA_s132_6.0.0.dir/__/__/mesh/core/src/bearer_event.c.obj
 *fill*         0x200062bd        0x3 
 .bss.m_relay_check_cb
                0x200062c0        0x4 examples/dfu/CMakeFiles/dfu_nrf52832_xxAA_s132_6.0.0.dir/__/__/mesh/core/src/network.c.obj
 .bss.m_relay_enable
                0x200062c4        0x1 examples/dfu/CMakeFiles/dfu_nrf52832_xxAA_s132_6.0.0.dir/__/__/mesh/core/src/network.c.obj
 *fill*         0x200062c5        0x3 
 .bss.m_action_queue
                0x200062c8        0xc examples/dfu/CMakeFiles/dfu_nrf52832_xxAA_s132_6.0.0.dir/__/__/mesh/core/src/flash_manager.c.obj
 .bss.m_action_queue_buffer
                0x200062d4      0x104 examples/dfu/CMakeFiles/dfu_nrf52832_xxAA_s132_6.0.0.dir/__/__/mesh/core/src/flash_manager.c.obj
 .bss.m_action_state
                0x200063d8        0x1 examples/dfu/CMakeFiles/dfu_nrf52832_xxAA_s132_6.0.0.dir/__/__/mesh/core/src/flash_manager.c.obj
 *fill*         0x200063d9        0x3 
 .bss.m_memory_listener_queue
                0x200063dc        0x8 examples/dfu/CMakeFiles/dfu_nrf52832_xxAA_s132_6.0.0.dir/__/__/mesh/core/src/flash_manager.c.obj
 .bss.m_processing_flag
                0x200063e4        0x4 examples/dfu/CMakeFiles/dfu_nrf52832_xxAA_s132_6.0.0.dir/__/__/mesh/core/src/flash_manager.c.obj
 .bss.m_queue_empty_cb
                0x200063e8        0x4 examples/dfu/CMakeFiles/dfu_nrf52832_xxAA_s132_6.0.0.dir/__/__/mesh/core/src/flash_manager.c.obj
 .bss.m_state   0x200063ec        0x1 examples/dfu/CMakeFiles/dfu_nrf52832_xxAA_s132_6.0.0.dir/__/__/mesh/core/src/flash_manager.c.obj
 *fill*         0x200063ed        0x1 
 .bss.m_token   0x200063ee        0x2 examples/dfu/CMakeFiles/dfu_nrf52832_xxAA_s132_6.0.0.dir/__/__/mesh/core/src/flash_manager.c.obj
 .bss.p_current.11149
                0x200063f0        0x4 examples/dfu/CMakeFiles/dfu_nrf52832_xxAA_s132_6.0.0.dir/__/__/mesh/core/src/flash_manager.c.obj
 .bss.result.11150
                0x200063f4        0x1 examples/dfu/CMakeFiles/dfu_nrf52832_xxAA_s132_6.0.0.dir/__/__/mesh/core/src/flash_manager.c.obj
 .bss.m_cache_index
                0x200063f5        0x1 examples/dfu/CMakeFiles/dfu_nrf52832_xxAA_s132_6.0.0.dir/__/__/mesh/core/src/replay_cache.c.obj
 *fill*         0x200063f6        0x2 
 .bss.m_replay_cache
                0x200063f8      0x200 examples/dfu/CMakeFiles/dfu_nrf52832_xxAA_s132_6.0.0.dir/__/__/mesh/core/src/replay_cache.c.obj
 .bss.m_bearer_count
                0x200065f8        0x1 examples/dfu/CMakeFiles/dfu_nrf52832_xxAA_s132_6.0.0.dir/__/__/mesh/core/src/core_tx.c.obj
 *fill*         0x200065f9        0x3 
 .bss.m_tx_complete_callback
                0x200065fc        0x4 examples/dfu/CMakeFiles/dfu_nrf52832_xxAA_s132_6.0.0.dir/__/__/mesh/core/src/core_tx.c.obj
 .bss.mp_bearers
                0x20006600        0x4 examples/dfu/CMakeFiles/dfu_nrf52832_xxAA_s132_6.0.0.dir/__/__/mesh/core/src/core_tx.c.obj
 .bss.m_hb_core_evt_handler
                0x20006604        0x8 examples/dfu/CMakeFiles/dfu_nrf52832_xxAA_s132_6.0.0.dir/__/__/mesh/core/src/heartbeat.c.obj
 .bss.m_hb_pending_feat_msg
                0x2000660c        0x1 examples/dfu/CMakeFiles/dfu_nrf52832_xxAA_s132_6.0.0.dir/__/__/mesh/core/src/heartbeat.c.obj
 .bss.m_hb_pending_pub_msg
                0x2000660d        0x1 examples/dfu/CMakeFiles/dfu_nrf52832_xxAA_s132_6.0.0.dir/__/__/mesh/core/src/heartbeat.c.obj
 .bss.m_heartbeat_init_done
                0x2000660e        0x1 examples/dfu/CMakeFiles/dfu_nrf52832_xxAA_s132_6.0.0.dir/__/__/mesh/core/src/heartbeat.c.obj
 *fill*         0x2000660f        0x1 
 .bss.m_heartbeat_subscription
                0x20006610       0x10 examples/dfu/CMakeFiles/dfu_nrf52832_xxAA_s132_6.0.0.dir/__/__/mesh/core/src/heartbeat.c.obj
 .bss.m_publication_count_decrement_cb
                0x20006620        0x4 examples/dfu/CMakeFiles/dfu_nrf52832_xxAA_s132_6.0.0.dir/__/__/mesh/core/src/heartbeat.c.obj
 .bss.m_publication_get_cb
                0x20006624        0x4 examples/dfu/CMakeFiles/dfu_nrf52832_xxAA_s132_6.0.0.dir/__/__/mesh/core/src/heartbeat.c.obj
 .bss.m_publication_timer
                0x20006628       0x1c examples/dfu/CMakeFiles/dfu_nrf52832_xxAA_s132_6.0.0.dir/__/__/mesh/core/src/heartbeat.c.obj
 .bss.m_subscription_timer
                0x20006644       0x18 examples/dfu/CMakeFiles/dfu_nrf52832_xxAA_s132_6.0.0.dir/__/__/mesh/core/src/heartbeat.c.obj
 .bss.m_adv     0x2000665c       0x98 examples/dfu/CMakeFiles/dfu_nrf52832_xxAA_s132_6.0.0.dir/__/__/mesh/core/src/net_beacon.c.obj
 .bss.m_adv_buf
                0x200066f4       0x34 examples/dfu/CMakeFiles/dfu_nrf52832_xxAA_s132_6.0.0.dir/__/__/mesh/core/src/net_beacon.c.obj
 .bss.m_beacon_salt
                0x20006728       0x10 examples/dfu/CMakeFiles/dfu_nrf52832_xxAA_s132_6.0.0.dir/__/__/mesh/core/src/net_beacon.c.obj
 .bss.m_enabled
                0x20006738        0x1 examples/dfu/CMakeFiles/dfu_nrf52832_xxAA_s132_6.0.0.dir/__/__/mesh/core/src/net_beacon.c.obj
 *fill*         0x20006739        0x3 
 .bss.m_tx_timer
                0x2000673c       0x18 examples/dfu/CMakeFiles/dfu_nrf52832_xxAA_s132_6.0.0.dir/__/__/mesh/core/src/net_beacon.c.obj
 .bss.mp_beacon_info
                0x20006754        0x4 examples/dfu/CMakeFiles/dfu_nrf52832_xxAA_s132_6.0.0.dir/__/__/mesh/core/src/net_beacon.c.obj
 .bss.m_bearer  0x20006758        0xc examples/dfu/CMakeFiles/dfu_nrf52832_xxAA_s132_6.0.0.dir/__/__/mesh/core/src/core_tx_adv.c.obj
 .bss.m_bearer_roles
                0x20006764      0x138 examples/dfu/CMakeFiles/dfu_nrf52832_xxAA_s132_6.0.0.dir/__/__/mesh/core/src/core_tx_adv.c.obj
 .bss.m_current_alloc
                0x2000689c        0x8 examples/dfu/CMakeFiles/dfu_nrf52832_xxAA_s132_6.0.0.dir/__/__/mesh/core/src/core_tx_adv.c.obj
 .bss.m_originator_adv_packet_buffer
                0x200068a4      0x100 examples/dfu/CMakeFiles/dfu_nrf52832_xxAA_s132_6.0.0.dir/__/__/mesh/core/src/core_tx_adv.c.obj
 .bss.m_relay_adv_packet_buffer
                0x200069a4       0x80 examples/dfu/CMakeFiles/dfu_nrf52832_xxAA_s132_6.0.0.dir/__/__/mesh/core/src/core_tx_adv.c.obj
 .bss.m_subscribers
                0x20006a24        0x4 examples/dfu/CMakeFiles/dfu_nrf52832_xxAA_s132_6.0.0.dir/__/__/mesh/bearer/src/ad_listener.c.obj
 .bss.m_adtype_filter
                0x20006a28       0x38 examples/dfu/CMakeFiles/dfu_nrf52832_xxAA_s132_6.0.0.dir/__/__/mesh/bearer/src/ad_type_filter.c.obj
 .bss.m_adv_prng
                0x20006a60       0x10 examples/dfu/CMakeFiles/dfu_nrf52832_xxAA_s132_6.0.0.dir/__/__/mesh/bearer/src/advertiser.c.obj
 .bss.m_action_queue
                0x20006a70        0x8 examples/dfu/CMakeFiles/dfu_nrf52832_xxAA_s132_6.0.0.dir/__/__/mesh/bearer/src/bearer_handler.c.obj
 .bss.m_end_time
                0x20006a78        0x4 examples/dfu/CMakeFiles/dfu_nrf52832_xxAA_s132_6.0.0.dir/__/__/mesh/bearer/src/bearer_handler.c.obj
 .bss.m_scanner_is_active
                0x20006a7c        0x1 examples/dfu/CMakeFiles/dfu_nrf52832_xxAA_s132_6.0.0.dir/__/__/mesh/bearer/src/bearer_handler.c.obj
 .bss.m_stopped
                0x20006a7d        0x1 examples/dfu/CMakeFiles/dfu_nrf52832_xxAA_s132_6.0.0.dir/__/__/mesh/bearer/src/bearer_handler.c.obj
 *fill*         0x20006a7e        0x2 
 .bss.mp_action
                0x20006a80        0x4 examples/dfu/CMakeFiles/dfu_nrf52832_xxAA_s132_6.0.0.dir/__/__/mesh/bearer/src/bearer_handler.c.obj
 .bss.m_next_channel_index
                0x20006a84        0x1 examples/dfu/CMakeFiles/dfu_nrf52832_xxAA_s132_6.0.0.dir/__/__/mesh/bearer/src/broadcast.c.obj
 *fill*         0x20006a85        0x3 
 .bss.m_accepted_amount
                0x20006a88        0x4 examples/dfu/CMakeFiles/dfu_nrf52832_xxAA_s132_6.0.0.dir/__/__/mesh/bearer/src/filter_engine.c.obj
 .bss.m_filter_list_head
                0x20006a8c        0x4 examples/dfu/CMakeFiles/dfu_nrf52832_xxAA_s132_6.0.0.dir/__/__/mesh/bearer/src/filter_engine.c.obj
 .bss.m_scanner
                0x20006a90      0x290 examples/dfu/CMakeFiles/dfu_nrf52832_xxAA_s132_6.0.0.dir/__/__/mesh/bearer/src/scanner.c.obj
 .bss._acDownBuffer
                0x20006d20       0x80 external/rtt/librtt_nrf52832_xxAA.a(SEGGER_RTT.c.obj)
 .bss._acUpBuffer
                0x20006da0      0x400 external/rtt/librtt_nrf52832_xxAA.a(SEGGER_RTT.c.obj)
 .bss.__malloc_free_list
                0x200071a0        0x4 c:/mesh/arm_gcc/bin/../lib/gcc/arm-none-eabi/6.3.1/../../../../arm-none-eabi/lib/thumb/v7e-m/fpv4-sp/hard\libg_nano.a(lib_a-nano-mallocr.o)
                0x200071a0                __malloc_free_list
 .bss.__malloc_sbrk_start
                0x200071a4        0x4 c:/mesh/arm_gcc/bin/../lib/gcc/arm-none-eabi/6.3.1/../../../../arm-none-eabi/lib/thumb/v7e-m/fpv4-sp/hard\libg_nano.a(lib_a-nano-mallocr.o)
                0x200071a4                __malloc_sbrk_start
 .bss.heap_end.5239
                0x200071a8        0x4 c:/mesh/arm_gcc/bin/../lib/gcc/arm-none-eabi/6.3.1/../../../../arm-none-eabi/lib/thumb/v7e-m/fpv4-sp/hard\libnosys.a(sbrk.o)
 *(COMMON)
 COMMON         0x200071ac        0x8 examples/dfu/CMakeFiles/dfu_nrf52832_xxAA_s132_6.0.0.dir/src/main.c.obj
                0x200071ac                bank_addr
                0x200071b0                rom_length
 COMMON         0x200071b4        0xc examples/dfu/CMakeFiles/dfu_nrf52832_xxAA_s132_6.0.0.dir/__/common/src/mesh_softdevice_init.c.obj
                0x200071b4                nrf_nvic_state
 COMMON         0x200071c0        0x4 examples/dfu/CMakeFiles/dfu_nrf52832_xxAA_s132_6.0.0.dir/__/__/mesh/dfu/src/nrf_mesh_dfu.c.obj
                0x200071c0                m_cmd_handler
 COMMON         0x200071c4       0x24 examples/dfu/CMakeFiles/dfu_nrf52832_xxAA_s132_6.0.0.dir/__/__/mesh/core/src/core_tx.c.obj
                0x200071c4                m_packet
 COMMON         0x200071e8       0x78 external/rtt/librtt_nrf52832_xxAA.a(SEGGER_RTT.c.obj)
                0x200071e8                _SEGGER_RTT
 COMMON         0x20007260        0x4 c:/mesh/arm_gcc/bin/../lib/gcc/arm-none-eabi/6.3.1/../../../../arm-none-eabi/lib/thumb/v7e-m/fpv4-sp/hard\libg_nano.a(lib_a-reent.o)
                0x20007260                errno
                0x20007264                . = ALIGN (0x4)
                0x20007264                __bss_end__ = .

.heap           0x20007268     0x2000
                0x20007268                __HeapBase = .
                0x20007268                __end__ = .
                0x20007268                PROVIDE (end, .)
 *(.heap*)
 .heap          0x20007268     0x2000 examples/dfu/CMakeFiles/dfu_nrf52832_xxAA_s132_6.0.0.dir/C_/ver/mod/nRF5_SDK_15.0.0_a53641a/modules/nrfx/mdk/gcc_startup_nrf52.S.obj
                0x20009268                __HeapLimit = .

.stack_dummy    0x20007268     0x2000
 *(.stack*)
 .stack         0x20007268     0x2000 examples/dfu/CMakeFiles/dfu_nrf52832_xxAA_s132_6.0.0.dir/C_/ver/mod/nRF5_SDK_15.0.0_a53641a/modules/nrfx/mdk/gcc_startup_nrf52.S.obj
                0x2000fd00                __StackTop = (ORIGIN (RAM) + LENGTH (RAM))
                0x2000dd00                __StackLimit = (__StackTop - SIZEOF (.stack_dummy))
                0x2000fd00                PROVIDE (__stack, __StackTop)
                0x00000001                ASSERT ((__StackLimit >= __HeapLimit), region RAM overflowed with stack)
                0x00000150                DataInitFlashUsed = (__bss_start__ - __data_start__)
                0x00016998                CodeFlashUsed = (__etext - ORIGIN (FLASH))
                0x00016ae8                TotalFlashUsed = (CodeFlashUsed + DataInitFlashUsed)
                0x00000001                ASSERT ((TotalFlashUsed <= LENGTH (FLASH)), region FLASH overflowed with .data and user data)
OUTPUT(examples\dfu\dfu_nrf52832_xxAA_s132_6.0.0.elf elf32-littlearm)

.ARM.attributes
                0x00000000       0x30
 .ARM.attributes
                0x00000000       0x22 c:/mesh/arm_gcc/bin/../lib/gcc/arm-none-eabi/6.3.1/thumb/v7e-m/fpv4-sp/hard/crti.o
 .ARM.attributes
                0x00000022       0x34 c:/mesh/arm_gcc/bin/../lib/gcc/arm-none-eabi/6.3.1/thumb/v7e-m/fpv4-sp/hard/crtbegin.o
 .ARM.attributes
                0x00000056       0x20 c:/mesh/arm_gcc/bin/../lib/gcc/arm-none-eabi/6.3.1/../../../../arm-none-eabi/lib/thumb/v7e-m/fpv4-sp/hard/crt0.o
 .ARM.attributes
                0x00000076       0x39 examples/dfu/CMakeFiles/dfu_nrf52832_xxAA_s132_6.0.0.dir/src/main.c.obj
 .ARM.attributes
                0x000000af       0x39 examples/dfu/CMakeFiles/dfu_nrf52832_xxAA_s132_6.0.0.dir/__/__/mesh/stack/src/mesh_stack.c.obj
 .ARM.attributes
                0x000000e8       0x39 examples/dfu/CMakeFiles/dfu_nrf52832_xxAA_s132_6.0.0.dir/__/common/src/mesh_softdevice_init.c.obj
 .ARM.attributes
                0x00000121       0x39 examples/dfu/CMakeFiles/dfu_nrf52832_xxAA_s132_6.0.0.dir/__/common/src/mesh_provisionee.c.obj
 .ARM.attributes
                0x0000015a       0x39 examples/dfu/CMakeFiles/dfu_nrf52832_xxAA_s132_6.0.0.dir/__/common/src/simple_hal.c.obj
 .ARM.attributes
                0x00000193       0x39 examples/dfu/CMakeFiles/dfu_nrf52832_xxAA_s132_6.0.0.dir/__/__/mesh/access/src/access_publish.c.obj
 .ARM.attributes
                0x000001cc       0x39 examples/dfu/CMakeFiles/dfu_nrf52832_xxAA_s132_6.0.0.dir/__/__/mesh/access/src/access.c.obj
 .ARM.attributes
                0x00000205       0x39 examples/dfu/CMakeFiles/dfu_nrf52832_xxAA_s132_6.0.0.dir/__/__/mesh/access/src/access_reliable.c.obj
 .ARM.attributes
                0x0000023e       0x39 examples/dfu/CMakeFiles/dfu_nrf52832_xxAA_s132_6.0.0.dir/__/__/mesh/access/src/device_state_manager.c.obj
 .ARM.attributes
                0x00000277       0x39 examples/dfu/CMakeFiles/dfu_nrf52832_xxAA_s132_6.0.0.dir/__/__/mesh/serial/src/serial_uart.c.obj
 .ARM.attributes
                0x000002b0       0x39 examples/dfu/CMakeFiles/dfu_nrf52832_xxAA_s132_6.0.0.dir/__/__/mesh/serial/src/serial_bearer.c.obj
 .ARM.attributes
                0x000002e9       0x39 examples/dfu/CMakeFiles/dfu_nrf52832_xxAA_s132_6.0.0.dir/__/__/mesh/serial/src/serial_handler_common.c.obj
 .ARM.attributes
                0x00000322       0x39 examples/dfu/CMakeFiles/dfu_nrf52832_xxAA_s132_6.0.0.dir/__/__/mesh/serial/src/serial_handler_access.c.obj
 .ARM.attributes
                0x0000035b       0x39 examples/dfu/CMakeFiles/dfu_nrf52832_xxAA_s132_6.0.0.dir/__/__/mesh/serial/src/serial_handler_config.c.obj
 .ARM.attributes
                0x00000394       0x39 examples/dfu/CMakeFiles/dfu_nrf52832_xxAA_s132_6.0.0.dir/__/__/mesh/serial/src/serial_handler_openmesh.c.obj
 .ARM.attributes
                0x000003cd       0x39 examples/dfu/CMakeFiles/dfu_nrf52832_xxAA_s132_6.0.0.dir/__/__/mesh/serial/src/serial.c.obj
 .ARM.attributes
                0x00000406       0x39 examples/dfu/CMakeFiles/dfu_nrf52832_xxAA_s132_6.0.0.dir/__/__/mesh/serial/src/serial_handler_prov.c.obj
 .ARM.attributes
                0x0000043f       0x39 examples/dfu/CMakeFiles/dfu_nrf52832_xxAA_s132_6.0.0.dir/__/__/mesh/serial/src/serial_handler_dfu.c.obj
 .ARM.attributes
                0x00000478       0x39 examples/dfu/CMakeFiles/dfu_nrf52832_xxAA_s132_6.0.0.dir/__/__/mesh/serial/src/serial_handler_mesh.c.obj
 .ARM.attributes
                0x000004b1       0x39 examples/dfu/CMakeFiles/dfu_nrf52832_xxAA_s132_6.0.0.dir/__/__/mesh/serial/src/serial_handler_models.c.obj
 .ARM.attributes
                0x000004ea       0x39 examples/dfu/CMakeFiles/dfu_nrf52832_xxAA_s132_6.0.0.dir/__/__/mesh/serial/src/serial_handler_device.c.obj
 .ARM.attributes
                0x00000523       0x39 examples/dfu/CMakeFiles/dfu_nrf52832_xxAA_s132_6.0.0.dir/__/__/mesh/serial/src/nrf_mesh_serial.c.obj
 .ARM.attributes
                0x0000055c       0x39 examples/dfu/CMakeFiles/dfu_nrf52832_xxAA_s132_6.0.0.dir/__/__/mesh/serial/src/serial_handler_app.c.obj
 .ARM.attributes
                0x00000595       0x39 examples/dfu/CMakeFiles/dfu_nrf52832_xxAA_s132_6.0.0.dir/__/__/models/config/src/composition_data.c.obj
 .ARM.attributes
                0x000005ce       0x39 examples/dfu/CMakeFiles/dfu_nrf52832_xxAA_s132_6.0.0.dir/__/__/models/config/src/config_server.c.obj
 .ARM.attributes
                0x00000607       0x39 examples/dfu/CMakeFiles/dfu_nrf52832_xxAA_s132_6.0.0.dir/__/__/models/config/src/packed_index_list.c.obj
 .ARM.attributes
                0x00000640       0x39 examples/dfu/CMakeFiles/dfu_nrf52832_xxAA_s132_6.0.0.dir/__/__/models/health/src/health_server.c.obj
 .ARM.attributes
                0x00000679       0x39 examples/dfu/CMakeFiles/dfu_nrf52832_xxAA_s132_6.0.0.dir/__/__/mesh/prov/src/prov_provisioner.c.obj
 .ARM.attributes
                0x000006b2       0x39 examples/dfu/CMakeFiles/dfu_nrf52832_xxAA_s132_6.0.0.dir/__/__/mesh/prov/src/prov_provisionee.c.obj
 .ARM.attributes
                0x000006eb       0x39 examples/dfu/CMakeFiles/dfu_nrf52832_xxAA_s132_6.0.0.dir/__/__/mesh/prov/src/nrf_mesh_prov.c.obj
 .ARM.attributes
                0x00000724       0x39 examples/dfu/CMakeFiles/dfu_nrf52832_xxAA_s132_6.0.0.dir/__/__/mesh/prov/src/provisioning.c.obj
 .ARM.attributes
                0x0000075d       0x39 examples/dfu/CMakeFiles/dfu_nrf52832_xxAA_s132_6.0.0.dir/__/__/mesh/prov/src/prov_beacon.c.obj
 .ARM.attributes
                0x00000796       0x39 examples/dfu/CMakeFiles/dfu_nrf52832_xxAA_s132_6.0.0.dir/__/__/mesh/prov/src/prov_utils.c.obj
 .ARM.attributes
                0x000007cf       0x39 examples/dfu/CMakeFiles/dfu_nrf52832_xxAA_s132_6.0.0.dir/__/__/mesh/prov/src/prov_bearer_adv.c.obj
 .ARM.attributes
                0x00000808       0x39 examples/dfu/CMakeFiles/dfu_nrf52832_xxAA_s132_6.0.0.dir/__/__/mesh/dfu/src/nrf_mesh_dfu.c.obj
 .ARM.attributes
                0x00000841       0x39 examples/dfu/CMakeFiles/dfu_nrf52832_xxAA_s132_6.0.0.dir/__/common/src/app_error_weak.c.obj
 .ARM.attributes
                0x0000087a       0x39 examples/dfu/CMakeFiles/dfu_nrf52832_xxAA_s132_6.0.0.dir/__/common/src/assertion_handler_weak.c.obj
 .ARM.attributes
                0x000008b3       0x39 examples/dfu/CMakeFiles/dfu_nrf52832_xxAA_s132_6.0.0.dir/__/__/mesh/core/src/nrf_mesh_configure.c.obj
 .ARM.attributes
                0x000008ec       0x39 examples/dfu/CMakeFiles/dfu_nrf52832_xxAA_s132_6.0.0.dir/__/__/mesh/core/src/aes.c.obj
 .ARM.attributes
                0x00000925       0x39 examples/dfu/CMakeFiles/dfu_nrf52832_xxAA_s132_6.0.0.dir/__/__/mesh/core/src/msg_cache.c.obj
 .ARM.attributes
                0x0000095e       0x39 examples/dfu/CMakeFiles/dfu_nrf52832_xxAA_s132_6.0.0.dir/__/__/mesh/core/src/transport.c.obj
 .ARM.attributes
                0x00000997       0x39 examples/dfu/CMakeFiles/dfu_nrf52832_xxAA_s132_6.0.0.dir/__/__/mesh/core/src/event.c.obj
 .ARM.attributes
                0x000009d0       0x39 examples/dfu/CMakeFiles/dfu_nrf52832_xxAA_s132_6.0.0.dir/__/__/mesh/core/src/packet_buffer.c.obj
 .ARM.attributes
                0x00000a09       0x39 examples/dfu/CMakeFiles/dfu_nrf52832_xxAA_s132_6.0.0.dir/__/__/mesh/core/src/flash_manager_defrag.c.obj
 .ARM.attributes
                0x00000a42       0x39 examples/dfu/CMakeFiles/dfu_nrf52832_xxAA_s132_6.0.0.dir/__/__/mesh/core/src/fifo.c.obj
 .ARM.attributes
                0x00000a7b       0x39 examples/dfu/CMakeFiles/dfu_nrf52832_xxAA_s132_6.0.0.dir/__/__/mesh/core/src/nrf_flash.c.obj
 .ARM.attributes
                0x00000ab4       0x39 examples/dfu/CMakeFiles/dfu_nrf52832_xxAA_s132_6.0.0.dir/__/__/mesh/core/src/packet_mgr.c.obj
 .ARM.attributes
                0x00000aed       0x39 examples/dfu/CMakeFiles/dfu_nrf52832_xxAA_s132_6.0.0.dir/__/__/mesh/core/src/net_state.c.obj
 .ARM.attributes
                0x00000b26       0x39 examples/dfu/CMakeFiles/dfu_nrf52832_xxAA_s132_6.0.0.dir/__/__/mesh/core/src/mesh_flash.c.obj
 .ARM.attributes
                0x00000b5f       0x39 examples/dfu/CMakeFiles/dfu_nrf52832_xxAA_s132_6.0.0.dir/__/__/mesh/core/src/nrf_mesh_utils.c.obj
 .ARM.attributes
                0x00000b98       0x39 examples/dfu/CMakeFiles/dfu_nrf52832_xxAA_s132_6.0.0.dir/__/__/mesh/core/src/nrf_mesh.c.obj
 .ARM.attributes
                0x00000bd1       0x39 examples/dfu/CMakeFiles/dfu_nrf52832_xxAA_s132_6.0.0.dir/__/__/mesh/core/src/queue.c.obj
 .ARM.attributes
                0x00000c0a       0x39 examples/dfu/CMakeFiles/dfu_nrf52832_xxAA_s132_6.0.0.dir/__/__/mesh/core/src/hal.c.obj
 .ARM.attributes
                0x00000c43       0x39 examples/dfu/CMakeFiles/dfu_nrf52832_xxAA_s132_6.0.0.dir/__/__/mesh/core/src/aes_cmac.c.obj
 .ARM.attributes
                0x00000c7c       0x39 examples/dfu/CMakeFiles/dfu_nrf52832_xxAA_s132_6.0.0.dir/__/__/mesh/core/src/timer_scheduler.c.obj
 .ARM.attributes
                0x00000cb5       0x39 examples/dfu/CMakeFiles/dfu_nrf52832_xxAA_s132_6.0.0.dir/__/__/mesh/core/src/timer.c.obj
 .ARM.attributes
                0x00000cee       0x39 examples/dfu/CMakeFiles/dfu_nrf52832_xxAA_s132_6.0.0.dir/__/__/mesh/core/src/ticker.c.obj
 .ARM.attributes
                0x00000d27       0x39 examples/dfu/CMakeFiles/dfu_nrf52832_xxAA_s132_6.0.0.dir/__/__/mesh/core/src/rand.c.obj
 .ARM.attributes
                0x00000d60       0x39 examples/dfu/CMakeFiles/dfu_nrf52832_xxAA_s132_6.0.0.dir/__/__/mesh/core/src/nrf_mesh_opt.c.obj
 .ARM.attributes
                0x00000d99       0x39 examples/dfu/CMakeFiles/dfu_nrf52832_xxAA_s132_6.0.0.dir/__/__/mesh/core/src/timeslot.c.obj
 .ARM.attributes
                0x00000dd2       0x39 examples/dfu/CMakeFiles/dfu_nrf52832_xxAA_s132_6.0.0.dir/__/__/mesh/core/src/bearer_event.c.obj
 .ARM.attributes
                0x00000e0b       0x39 examples/dfu/CMakeFiles/dfu_nrf52832_xxAA_s132_6.0.0.dir/__/__/mesh/core/src/enc.c.obj
 .ARM.attributes
                0x00000e44       0x39 examples/dfu/CMakeFiles/dfu_nrf52832_xxAA_s132_6.0.0.dir/__/__/mesh/core/src/network.c.obj
 .ARM.attributes
                0x00000e7d       0x39 examples/dfu/CMakeFiles/dfu_nrf52832_xxAA_s132_6.0.0.dir/__/__/mesh/core/src/net_packet.c.obj
 .ARM.attributes
                0x00000eb6       0x39 examples/dfu/CMakeFiles/dfu_nrf52832_xxAA_s132_6.0.0.dir/__/__/mesh/core/src/msqueue.c.obj
 .ARM.attributes
                0x00000eef       0x39 examples/dfu/CMakeFiles/dfu_nrf52832_xxAA_s132_6.0.0.dir/__/__/mesh/core/src/nrf_mesh_keygen.c.obj
 .ARM.attributes
                0x00000f28       0x39 examples/dfu/CMakeFiles/dfu_nrf52832_xxAA_s132_6.0.0.dir/__/__/mesh/core/src/list.c.obj
 .ARM.attributes
                0x00000f61       0x39 examples/dfu/CMakeFiles/dfu_nrf52832_xxAA_s132_6.0.0.dir/__/__/mesh/core/src/log.c.obj
 .ARM.attributes
                0x00000f9a       0x39 examples/dfu/CMakeFiles/dfu_nrf52832_xxAA_s132_6.0.0.dir/__/__/mesh/core/src/flash_manager.c.obj
 .ARM.attributes
                0x00000fd3       0x39 examples/dfu/CMakeFiles/dfu_nrf52832_xxAA_s132_6.0.0.dir/__/__/mesh/core/src/ccm_soft.c.obj
 .ARM.attributes
                0x0000100c       0x39 examples/dfu/CMakeFiles/dfu_nrf52832_xxAA_s132_6.0.0.dir/__/__/mesh/core/src/replay_cache.c.obj
 .ARM.attributes
                0x00001045       0x39 examples/dfu/CMakeFiles/dfu_nrf52832_xxAA_s132_6.0.0.dir/__/__/mesh/core/src/beacon.c.obj
 .ARM.attributes
                0x0000107e       0x39 examples/dfu/CMakeFiles/dfu_nrf52832_xxAA_s132_6.0.0.dir/__/__/mesh/core/src/flash_manager_internal.c.obj
 .ARM.attributes
                0x000010b7       0x39 examples/dfu/CMakeFiles/dfu_nrf52832_xxAA_s132_6.0.0.dir/__/__/mesh/core/src/core_tx.c.obj
 .ARM.attributes
                0x000010f0       0x39 examples/dfu/CMakeFiles/dfu_nrf52832_xxAA_s132_6.0.0.dir/__/__/mesh/core/src/heartbeat.c.obj
 .ARM.attributes
                0x00001129       0x39 examples/dfu/CMakeFiles/dfu_nrf52832_xxAA_s132_6.0.0.dir/__/__/mesh/core/src/net_beacon.c.obj
 .ARM.attributes
                0x00001162       0x39 examples/dfu/CMakeFiles/dfu_nrf52832_xxAA_s132_6.0.0.dir/__/__/mesh/core/src/core_tx_adv.c.obj
 .ARM.attributes
                0x0000119b       0x39 examples/dfu/CMakeFiles/dfu_nrf52832_xxAA_s132_6.0.0.dir/__/__/mesh/bearer/src/ad_listener.c.obj
 .ARM.attributes
                0x000011d4       0x39 examples/dfu/CMakeFiles/dfu_nrf52832_xxAA_s132_6.0.0.dir/__/__/mesh/bearer/src/ad_type_filter.c.obj
 .ARM.attributes
                0x0000120d       0x39 examples/dfu/CMakeFiles/dfu_nrf52832_xxAA_s132_6.0.0.dir/__/__/mesh/bearer/src/advertiser.c.obj
 .ARM.attributes
                0x00001246       0x39 examples/dfu/CMakeFiles/dfu_nrf52832_xxAA_s132_6.0.0.dir/__/__/mesh/bearer/src/bearer_handler.c.obj
 .ARM.attributes
                0x0000127f       0x39 examples/dfu/CMakeFiles/dfu_nrf52832_xxAA_s132_6.0.0.dir/__/__/mesh/bearer/src/broadcast.c.obj
 .ARM.attributes
                0x000012b8       0x39 examples/dfu/CMakeFiles/dfu_nrf52832_xxAA_s132_6.0.0.dir/__/__/mesh/bearer/src/filter_engine.c.obj
 .ARM.attributes
                0x000012f1       0x39 examples/dfu/CMakeFiles/dfu_nrf52832_xxAA_s132_6.0.0.dir/__/__/mesh/bearer/src/radio_config.c.obj
 .ARM.attributes
                0x0000132a       0x39 examples/dfu/CMakeFiles/dfu_nrf52832_xxAA_s132_6.0.0.dir/__/__/mesh/bearer/src/scanner.c.obj
 .ARM.attributes
                0x00001363       0x39 examples/dfu/CMakeFiles/dfu_nrf52832_xxAA_s132_6.0.0.dir/C_/ver/mod/nRF5_SDK_15.0.0_a53641a/modules/nrfx/mdk/system_nrf52.c.obj
 .ARM.attributes
                0x0000139c       0x20 examples/dfu/CMakeFiles/dfu_nrf52832_xxAA_s132_6.0.0.dir/C_/ver/mod/nRF5_SDK_15.0.0_a53641a/modules/nrfx/mdk/gcc_startup_nrf52.S.obj
 .ARM.attributes
                0x000013bc       0x39 examples/dfu/CMakeFiles/dfu_nrf52832_xxAA_s132_6.0.0.dir/C_/ver/mod/nRF5_SDK_15.0.0_a53641a/components/libraries/util/app_error.c.obj
 .ARM.attributes
                0x000013f5       0x39 examples/dfu/CMakeFiles/dfu_nrf52832_xxAA_s132_6.0.0.dir/C_/ver/mod/nRF5_SDK_15.0.0_a53641a/components/libraries/util/app_error_handler_gcc.c.obj
 .ARM.attributes
                0x0000142e       0x39 external/rtt/librtt_nrf52832_xxAA.a(SEGGER_RTT.c.obj)
 .ARM.attributes
                0x00001467       0x39 external/rtt/librtt_nrf52832_xxAA.a(SEGGER_RTT_printf.c.obj)
 .ARM.attributes
                0x000014a0       0x39 external/micro-ecc/libuECC_nrf52832_xxAA.a(uECC.c.obj)
 .ARM.attributes
                0x000014d9       0x34 c:/mesh/arm_gcc/bin/../lib/gcc/arm-none-eabi/6.3.1/../../../../arm-none-eabi/lib/thumb/v7e-m/fpv4-sp/hard\libg_nano.a(lib_a-exit.o)
 .ARM.attributes
                0x0000150d       0x34 c:/mesh/arm_gcc/bin/../lib/gcc/arm-none-eabi/6.3.1/../../../../arm-none-eabi/lib/thumb/v7e-m/fpv4-sp/hard\libg_nano.a(lib_a-impure.o)
 .ARM.attributes
                0x00001541       0x34 c:/mesh/arm_gcc/bin/../lib/gcc/arm-none-eabi/6.3.1/../../../../arm-none-eabi/lib/thumb/v7e-m/fpv4-sp/hard\libg_nano.a(lib_a-init.o)
 .ARM.attributes
                0x00001575       0x34 c:/mesh/arm_gcc/bin/../lib/gcc/arm-none-eabi/6.3.1/../../../../arm-none-eabi/lib/thumb/v7e-m/fpv4-sp/hard\libg_nano.a(lib_a-malloc.o)
 .ARM.attributes
                0x000015a9       0x34 c:/mesh/arm_gcc/bin/../lib/gcc/arm-none-eabi/6.3.1/../../../../arm-none-eabi/lib/thumb/v7e-m/fpv4-sp/hard\libg_nano.a(lib_a-memcmp.o)
 .ARM.attributes
                0x000015dd       0x34 c:/mesh/arm_gcc/bin/../lib/gcc/arm-none-eabi/6.3.1/../../../../arm-none-eabi/lib/thumb/v7e-m/fpv4-sp/hard\libg_nano.a(lib_a-memcpy-stub.o)
 .ARM.attributes
                0x00001611       0x34 c:/mesh/arm_gcc/bin/../lib/gcc/arm-none-eabi/6.3.1/../../../../arm-none-eabi/lib/thumb/v7e-m/fpv4-sp/hard\libg_nano.a(lib_a-memset.o)
 .ARM.attributes
                0x00001645       0x34 c:/mesh/arm_gcc/bin/../lib/gcc/arm-none-eabi/6.3.1/../../../../arm-none-eabi/lib/thumb/v7e-m/fpv4-sp/hard\libg_nano.a(lib_a-nano-freer.o)
 .ARM.attributes
                0x00001679       0x34 c:/mesh/arm_gcc/bin/../lib/gcc/arm-none-eabi/6.3.1/../../../../arm-none-eabi/lib/thumb/v7e-m/fpv4-sp/hard\libg_nano.a(lib_a-nano-mallocr.o)
 .ARM.attributes
                0x000016ad       0x34 c:/mesh/arm_gcc/bin/../lib/gcc/arm-none-eabi/6.3.1/../../../../arm-none-eabi/lib/thumb/v7e-m/fpv4-sp/hard\libg_nano.a(lib_a-sbrkr.o)
 .ARM.attributes
                0x000016e1       0x34 c:/mesh/arm_gcc/bin/../lib/gcc/arm-none-eabi/6.3.1/../../../../arm-none-eabi/lib/thumb/v7e-m/fpv4-sp/hard\libg_nano.a(lib_a-strcpy.o)
 .ARM.attributes
                0x00001715       0x1b c:/mesh/arm_gcc/bin/../lib/gcc/arm-none-eabi/6.3.1/../../../../arm-none-eabi/lib/thumb/v7e-m/fpv4-sp/hard\libg_nano.a(lib_a-strlen.o)
 .ARM.attributes
                0x00001730       0x34 c:/mesh/arm_gcc/bin/../lib/gcc/arm-none-eabi/6.3.1/../../../../arm-none-eabi/lib/thumb/v7e-m/fpv4-sp/hard\libg_nano.a(lib_a-strrchr.o)
 .ARM.attributes
                0x00001764       0x34 c:/mesh/arm_gcc/bin/../lib/gcc/arm-none-eabi/6.3.1/../../../../arm-none-eabi/lib/thumb/v7e-m/fpv4-sp/hard\libg_nano.a(lib_a-mlock.o)
 .ARM.attributes
                0x00001798       0x34 c:/mesh/arm_gcc/bin/../lib/gcc/arm-none-eabi/6.3.1/../../../../arm-none-eabi/lib/thumb/v7e-m/fpv4-sp/hard\libg_nano.a(lib_a-reent.o)
 .ARM.attributes
                0x000017cc       0x34 c:/mesh/arm_gcc/bin/../lib/gcc/arm-none-eabi/6.3.1/../../../../arm-none-eabi/lib/thumb/v7e-m/fpv4-sp/hard\libg_nano.a(lib_a-strchr.o)
 .ARM.attributes
                0x00001800       0x34 c:/mesh/arm_gcc/bin/../lib/gcc/arm-none-eabi/6.3.1/thumb/v7e-m/fpv4-sp/hard/crtend.o
 .ARM.attributes
                0x00001834       0x22 c:/mesh/arm_gcc/bin/../lib/gcc/arm-none-eabi/6.3.1/thumb/v7e-m/fpv4-sp/hard/crtn.o
 .ARM.attributes
                0x00001856       0x34 c:/mesh/arm_gcc/bin/../lib/gcc/arm-none-eabi/6.3.1/../../../../arm-none-eabi/lib/thumb/v7e-m/fpv4-sp/hard\libnosys.a(sbrk.o)
 .ARM.attributes
                0x0000188a       0x34 c:/mesh/arm_gcc/bin/../lib/gcc/arm-none-eabi/6.3.1/../../../../arm-none-eabi/lib/thumb/v7e-m/fpv4-sp/hard\libnosys.a(_exit.o)

.comment        0x00000000       0x7f
 .comment       0x00000000       0x7f examples/dfu/CMakeFiles/dfu_nrf52832_xxAA_s132_6.0.0.dir/src/main.c.obj
                                 0x80 (size before relaxing)
 .comment       0x0000007f       0x80 examples/dfu/CMakeFiles/dfu_nrf52832_xxAA_s132_6.0.0.dir/__/__/mesh/stack/src/mesh_stack.c.obj
 .comment       0x0000007f       0x80 examples/dfu/CMakeFiles/dfu_nrf52832_xxAA_s132_6.0.0.dir/__/common/src/mesh_softdevice_init.c.obj
 .comment       0x0000007f       0x80 examples/dfu/CMakeFiles/dfu_nrf52832_xxAA_s132_6.0.0.dir/__/common/src/mesh_provisionee.c.obj
 .comment       0x0000007f       0x80 examples/dfu/CMakeFiles/dfu_nrf52832_xxAA_s132_6.0.0.dir/__/common/src/simple_hal.c.obj
 .comment       0x0000007f       0x80 examples/dfu/CMakeFiles/dfu_nrf52832_xxAA_s132_6.0.0.dir/__/__/mesh/access/src/access_publish.c.obj
 .comment       0x0000007f       0x80 examples/dfu/CMakeFiles/dfu_nrf52832_xxAA_s132_6.0.0.dir/__/__/mesh/access/src/access.c.obj
 .comment       0x0000007f       0x80 examples/dfu/CMakeFiles/dfu_nrf52832_xxAA_s132_6.0.0.dir/__/__/mesh/access/src/access_reliable.c.obj
 .comment       0x0000007f       0x80 examples/dfu/CMakeFiles/dfu_nrf52832_xxAA_s132_6.0.0.dir/__/__/mesh/access/src/device_state_manager.c.obj
 .comment       0x0000007f       0x80 examples/dfu/CMakeFiles/dfu_nrf52832_xxAA_s132_6.0.0.dir/__/__/mesh/serial/src/serial_uart.c.obj
 .comment       0x0000007f       0x80 examples/dfu/CMakeFiles/dfu_nrf52832_xxAA_s132_6.0.0.dir/__/__/mesh/serial/src/serial_bearer.c.obj
 .comment       0x0000007f       0x80 examples/dfu/CMakeFiles/dfu_nrf52832_xxAA_s132_6.0.0.dir/__/__/mesh/serial/src/serial_handler_common.c.obj
 .comment       0x0000007f       0x80 examples/dfu/CMakeFiles/dfu_nrf52832_xxAA_s132_6.0.0.dir/__/__/mesh/serial/src/serial_handler_access.c.obj
 .comment       0x0000007f       0x80 examples/dfu/CMakeFiles/dfu_nrf52832_xxAA_s132_6.0.0.dir/__/__/mesh/serial/src/serial_handler_config.c.obj
 .comment       0x0000007f       0x80 examples/dfu/CMakeFiles/dfu_nrf52832_xxAA_s132_6.0.0.dir/__/__/mesh/serial/src/serial_handler_openmesh.c.obj
 .comment       0x0000007f       0x80 examples/dfu/CMakeFiles/dfu_nrf52832_xxAA_s132_6.0.0.dir/__/__/mesh/serial/src/serial.c.obj
 .comment       0x0000007f       0x80 examples/dfu/CMakeFiles/dfu_nrf52832_xxAA_s132_6.0.0.dir/__/__/mesh/serial/src/serial_handler_prov.c.obj
 .comment       0x0000007f       0x80 examples/dfu/CMakeFiles/dfu_nrf52832_xxAA_s132_6.0.0.dir/__/__/mesh/serial/src/serial_handler_dfu.c.obj
 .comment       0x0000007f       0x80 examples/dfu/CMakeFiles/dfu_nrf52832_xxAA_s132_6.0.0.dir/__/__/mesh/serial/src/serial_handler_mesh.c.obj
 .comment       0x0000007f       0x80 examples/dfu/CMakeFiles/dfu_nrf52832_xxAA_s132_6.0.0.dir/__/__/mesh/serial/src/serial_handler_models.c.obj
 .comment       0x0000007f       0x80 examples/dfu/CMakeFiles/dfu_nrf52832_xxAA_s132_6.0.0.dir/__/__/mesh/serial/src/serial_handler_device.c.obj
 .comment       0x0000007f       0x80 examples/dfu/CMakeFiles/dfu_nrf52832_xxAA_s132_6.0.0.dir/__/__/mesh/serial/src/nrf_mesh_serial.c.obj
 .comment       0x0000007f       0x80 examples/dfu/CMakeFiles/dfu_nrf52832_xxAA_s132_6.0.0.dir/__/__/mesh/serial/src/serial_handler_app.c.obj
 .comment       0x0000007f       0x80 examples/dfu/CMakeFiles/dfu_nrf52832_xxAA_s132_6.0.0.dir/__/__/models/config/src/composition_data.c.obj
 .comment       0x0000007f       0x80 examples/dfu/CMakeFiles/dfu_nrf52832_xxAA_s132_6.0.0.dir/__/__/models/config/src/config_server.c.obj
 .comment       0x0000007f       0x80 examples/dfu/CMakeFiles/dfu_nrf52832_xxAA_s132_6.0.0.dir/__/__/models/config/src/packed_index_list.c.obj
 .comment       0x0000007f       0x80 examples/dfu/CMakeFiles/dfu_nrf52832_xxAA_s132_6.0.0.dir/__/__/models/health/src/health_server.c.obj
 .comment       0x0000007f       0x80 examples/dfu/CMakeFiles/dfu_nrf52832_xxAA_s132_6.0.0.dir/__/__/mesh/prov/src/prov_provisioner.c.obj
 .comment       0x0000007f       0x80 examples/dfu/CMakeFiles/dfu_nrf52832_xxAA_s132_6.0.0.dir/__/__/mesh/prov/src/prov_provisionee.c.obj
 .comment       0x0000007f       0x80 examples/dfu/CMakeFiles/dfu_nrf52832_xxAA_s132_6.0.0.dir/__/__/mesh/prov/src/nrf_mesh_prov.c.obj
 .comment       0x0000007f       0x80 examples/dfu/CMakeFiles/dfu_nrf52832_xxAA_s132_6.0.0.dir/__/__/mesh/prov/src/provisioning.c.obj
 .comment       0x0000007f       0x80 examples/dfu/CMakeFiles/dfu_nrf52832_xxAA_s132_6.0.0.dir/__/__/mesh/prov/src/prov_beacon.c.obj
 .comment       0x0000007f       0x80 examples/dfu/CMakeFiles/dfu_nrf52832_xxAA_s132_6.0.0.dir/__/__/mesh/prov/src/prov_utils.c.obj
 .comment       0x0000007f       0x80 examples/dfu/CMakeFiles/dfu_nrf52832_xxAA_s132_6.0.0.dir/__/__/mesh/prov/src/prov_bearer_adv.c.obj
 .comment       0x0000007f       0x80 examples/dfu/CMakeFiles/dfu_nrf52832_xxAA_s132_6.0.0.dir/__/__/mesh/dfu/src/nrf_mesh_dfu.c.obj
 .comment       0x0000007f       0x80 examples/dfu/CMakeFiles/dfu_nrf52832_xxAA_s132_6.0.0.dir/__/common/src/app_error_weak.c.obj
 .comment       0x0000007f       0x80 examples/dfu/CMakeFiles/dfu_nrf52832_xxAA_s132_6.0.0.dir/__/common/src/assertion_handler_weak.c.obj
 .comment       0x0000007f       0x80 examples/dfu/CMakeFiles/dfu_nrf52832_xxAA_s132_6.0.0.dir/__/__/mesh/core/src/nrf_mesh_configure.c.obj
 .comment       0x0000007f       0x80 examples/dfu/CMakeFiles/dfu_nrf52832_xxAA_s132_6.0.0.dir/__/__/mesh/core/src/aes.c.obj
 .comment       0x0000007f       0x80 examples/dfu/CMakeFiles/dfu_nrf52832_xxAA_s132_6.0.0.dir/__/__/mesh/core/src/msg_cache.c.obj
 .comment       0x0000007f       0x80 examples/dfu/CMakeFiles/dfu_nrf52832_xxAA_s132_6.0.0.dir/__/__/mesh/core/src/transport.c.obj
 .comment       0x0000007f       0x80 examples/dfu/CMakeFiles/dfu_nrf52832_xxAA_s132_6.0.0.dir/__/__/mesh/core/src/event.c.obj
 .comment       0x0000007f       0x80 examples/dfu/CMakeFiles/dfu_nrf52832_xxAA_s132_6.0.0.dir/__/__/mesh/core/src/packet_buffer.c.obj
 .comment       0x0000007f       0x80 examples/dfu/CMakeFiles/dfu_nrf52832_xxAA_s132_6.0.0.dir/__/__/mesh/core/src/flash_manager_defrag.c.obj
 .comment       0x0000007f       0x80 examples/dfu/CMakeFiles/dfu_nrf52832_xxAA_s132_6.0.0.dir/__/__/mesh/core/src/fifo.c.obj
 .comment       0x0000007f       0x80 examples/dfu/CMakeFiles/dfu_nrf52832_xxAA_s132_6.0.0.dir/__/__/mesh/core/src/nrf_flash.c.obj
 .comment       0x0000007f       0x80 examples/dfu/CMakeFiles/dfu_nrf52832_xxAA_s132_6.0.0.dir/__/__/mesh/core/src/packet_mgr.c.obj
 .comment       0x0000007f       0x80 examples/dfu/CMakeFiles/dfu_nrf52832_xxAA_s132_6.0.0.dir/__/__/mesh/core/src/net_state.c.obj
 .comment       0x0000007f       0x80 examples/dfu/CMakeFiles/dfu_nrf52832_xxAA_s132_6.0.0.dir/__/__/mesh/core/src/mesh_flash.c.obj
 .comment       0x0000007f       0x80 examples/dfu/CMakeFiles/dfu_nrf52832_xxAA_s132_6.0.0.dir/__/__/mesh/core/src/nrf_mesh_utils.c.obj
 .comment       0x0000007f       0x80 examples/dfu/CMakeFiles/dfu_nrf52832_xxAA_s132_6.0.0.dir/__/__/mesh/core/src/nrf_mesh.c.obj
 .comment       0x0000007f       0x80 examples/dfu/CMakeFiles/dfu_nrf52832_xxAA_s132_6.0.0.dir/__/__/mesh/core/src/queue.c.obj
 .comment       0x0000007f       0x80 examples/dfu/CMakeFiles/dfu_nrf52832_xxAA_s132_6.0.0.dir/__/__/mesh/core/src/hal.c.obj
 .comment       0x0000007f       0x80 examples/dfu/CMakeFiles/dfu_nrf52832_xxAA_s132_6.0.0.dir/__/__/mesh/core/src/aes_cmac.c.obj
 .comment       0x0000007f       0x80 examples/dfu/CMakeFiles/dfu_nrf52832_xxAA_s132_6.0.0.dir/__/__/mesh/core/src/timer_scheduler.c.obj
 .comment       0x0000007f       0x80 examples/dfu/CMakeFiles/dfu_nrf52832_xxAA_s132_6.0.0.dir/__/__/mesh/core/src/timer.c.obj
 .comment       0x0000007f       0x80 examples/dfu/CMakeFiles/dfu_nrf52832_xxAA_s132_6.0.0.dir/__/__/mesh/core/src/ticker.c.obj
 .comment       0x0000007f       0x80 examples/dfu/CMakeFiles/dfu_nrf52832_xxAA_s132_6.0.0.dir/__/__/mesh/core/src/rand.c.obj
 .comment       0x0000007f       0x80 examples/dfu/CMakeFiles/dfu_nrf52832_xxAA_s132_6.0.0.dir/__/__/mesh/core/src/nrf_mesh_opt.c.obj
 .comment       0x0000007f       0x80 examples/dfu/CMakeFiles/dfu_nrf52832_xxAA_s132_6.0.0.dir/__/__/mesh/core/src/timeslot.c.obj
 .comment       0x0000007f       0x80 examples/dfu/CMakeFiles/dfu_nrf52832_xxAA_s132_6.0.0.dir/__/__/mesh/core/src/bearer_event.c.obj
 .comment       0x0000007f       0x80 examples/dfu/CMakeFiles/dfu_nrf52832_xxAA_s132_6.0.0.dir/__/__/mesh/core/src/enc.c.obj
 .comment       0x0000007f       0x80 examples/dfu/CMakeFiles/dfu_nrf52832_xxAA_s132_6.0.0.dir/__/__/mesh/core/src/network.c.obj
 .comment       0x0000007f       0x80 examples/dfu/CMakeFiles/dfu_nrf52832_xxAA_s132_6.0.0.dir/__/__/mesh/core/src/net_packet.c.obj
 .comment       0x0000007f       0x80 examples/dfu/CMakeFiles/dfu_nrf52832_xxAA_s132_6.0.0.dir/__/__/mesh/core/src/msqueue.c.obj
 .comment       0x0000007f       0x80 examples/dfu/CMakeFiles/dfu_nrf52832_xxAA_s132_6.0.0.dir/__/__/mesh/core/src/nrf_mesh_keygen.c.obj
 .comment       0x0000007f       0x80 examples/dfu/CMakeFiles/dfu_nrf52832_xxAA_s132_6.0.0.dir/__/__/mesh/core/src/list.c.obj
 .comment       0x0000007f       0x80 examples/dfu/CMakeFiles/dfu_nrf52832_xxAA_s132_6.0.0.dir/__/__/mesh/core/src/log.c.obj
 .comment       0x0000007f       0x80 examples/dfu/CMakeFiles/dfu_nrf52832_xxAA_s132_6.0.0.dir/__/__/mesh/core/src/flash_manager.c.obj
 .comment       0x0000007f       0x80 examples/dfu/CMakeFiles/dfu_nrf52832_xxAA_s132_6.0.0.dir/__/__/mesh/core/src/ccm_soft.c.obj
 .comment       0x0000007f       0x80 examples/dfu/CMakeFiles/dfu_nrf52832_xxAA_s132_6.0.0.dir/__/__/mesh/core/src/replay_cache.c.obj
 .comment       0x0000007f       0x80 examples/dfu/CMakeFiles/dfu_nrf52832_xxAA_s132_6.0.0.dir/__/__/mesh/core/src/beacon.c.obj
 .comment       0x0000007f       0x80 examples/dfu/CMakeFiles/dfu_nrf52832_xxAA_s132_6.0.0.dir/__/__/mesh/core/src/flash_manager_internal.c.obj
 .comment       0x0000007f       0x80 examples/dfu/CMakeFiles/dfu_nrf52832_xxAA_s132_6.0.0.dir/__/__/mesh/core/src/core_tx.c.obj
 .comment       0x0000007f       0x80 examples/dfu/CMakeFiles/dfu_nrf52832_xxAA_s132_6.0.0.dir/__/__/mesh/core/src/heartbeat.c.obj
 .comment       0x0000007f       0x80 examples/dfu/CMakeFiles/dfu_nrf52832_xxAA_s132_6.0.0.dir/__/__/mesh/core/src/net_beacon.c.obj
 .comment       0x0000007f       0x80 examples/dfu/CMakeFiles/dfu_nrf52832_xxAA_s132_6.0.0.dir/__/__/mesh/core/src/core_tx_adv.c.obj
 .comment       0x0000007f       0x80 examples/dfu/CMakeFiles/dfu_nrf52832_xxAA_s132_6.0.0.dir/__/__/mesh/bearer/src/ad_listener.c.obj
 .comment       0x0000007f       0x80 examples/dfu/CMakeFiles/dfu_nrf52832_xxAA_s132_6.0.0.dir/__/__/mesh/bearer/src/ad_type_filter.c.obj
 .comment       0x0000007f       0x80 examples/dfu/CMakeFiles/dfu_nrf52832_xxAA_s132_6.0.0.dir/__/__/mesh/bearer/src/advertiser.c.obj
 .comment       0x0000007f       0x80 examples/dfu/CMakeFiles/dfu_nrf52832_xxAA_s132_6.0.0.dir/__/__/mesh/bearer/src/bearer_handler.c.obj
 .comment       0x0000007f       0x80 examples/dfu/CMakeFiles/dfu_nrf52832_xxAA_s132_6.0.0.dir/__/__/mesh/bearer/src/broadcast.c.obj
 .comment       0x0000007f       0x80 examples/dfu/CMakeFiles/dfu_nrf52832_xxAA_s132_6.0.0.dir/__/__/mesh/bearer/src/filter_engine.c.obj
 .comment       0x0000007f       0x80 examples/dfu/CMakeFiles/dfu_nrf52832_xxAA_s132_6.0.0.dir/__/__/mesh/bearer/src/radio_config.c.obj
 .comment       0x0000007f       0x80 examples/dfu/CMakeFiles/dfu_nrf52832_xxAA_s132_6.0.0.dir/__/__/mesh/bearer/src/scanner.c.obj
 .comment       0x0000007f       0x80 examples/dfu/CMakeFiles/dfu_nrf52832_xxAA_s132_6.0.0.dir/C_/ver/mod/nRF5_SDK_15.0.0_a53641a/modules/nrfx/mdk/system_nrf52.c.obj
 .comment       0x0000007f       0x80 examples/dfu/CMakeFiles/dfu_nrf52832_xxAA_s132_6.0.0.dir/C_/ver/mod/nRF5_SDK_15.0.0_a53641a/components/libraries/util/app_error.c.obj
 .comment       0x0000007f       0x80 examples/dfu/CMakeFiles/dfu_nrf52832_xxAA_s132_6.0.0.dir/C_/ver/mod/nRF5_SDK_15.0.0_a53641a/components/libraries/util/app_error_handler_gcc.c.obj
 .comment       0x0000007f       0x80 external/rtt/librtt_nrf52832_xxAA.a(SEGGER_RTT.c.obj)
 .comment       0x0000007f       0x80 external/rtt/librtt_nrf52832_xxAA.a(SEGGER_RTT_printf.c.obj)
 .comment       0x0000007f       0x80 external/micro-ecc/libuECC_nrf52832_xxAA.a(uECC.c.obj)

.debug_info     0x00000000    0xac6d0
 .debug_info    0x00000000     0x31b6 examples/dfu/CMakeFiles/dfu_nrf52832_xxAA_s132_6.0.0.dir/src/main.c.obj
 .debug_info    0x000031b6     0x230b examples/dfu/CMakeFiles/dfu_nrf52832_xxAA_s132_6.0.0.dir/__/__/mesh/stack/src/mesh_stack.c.obj
 .debug_info    0x000054c1     0x1714 examples/dfu/CMakeFiles/dfu_nrf52832_xxAA_s132_6.0.0.dir/__/common/src/mesh_softdevice_init.c.obj
 .debug_info    0x00006bd5     0x2171 examples/dfu/CMakeFiles/dfu_nrf52832_xxAA_s132_6.0.0.dir/__/common/src/mesh_provisionee.c.obj
 .debug_info    0x00008d46     0x156c examples/dfu/CMakeFiles/dfu_nrf52832_xxAA_s132_6.0.0.dir/__/common/src/simple_hal.c.obj
 .debug_info    0x0000a2b2     0x1155 examples/dfu/CMakeFiles/dfu_nrf52832_xxAA_s132_6.0.0.dir/__/__/mesh/access/src/access_publish.c.obj
 .debug_info    0x0000b407     0x4a41 examples/dfu/CMakeFiles/dfu_nrf52832_xxAA_s132_6.0.0.dir/__/__/mesh/access/src/access.c.obj
 .debug_info    0x0000fe48     0x19d3 examples/dfu/CMakeFiles/dfu_nrf52832_xxAA_s132_6.0.0.dir/__/__/mesh/access/src/access_reliable.c.obj
 .debug_info    0x0001181b     0x65d4 examples/dfu/CMakeFiles/dfu_nrf52832_xxAA_s132_6.0.0.dir/__/__/mesh/access/src/device_state_manager.c.obj
 .debug_info    0x00017def     0x12be examples/dfu/CMakeFiles/dfu_nrf52832_xxAA_s132_6.0.0.dir/__/__/mesh/serial/src/serial_uart.c.obj
 .debug_info    0x000190ad     0x376c examples/dfu/CMakeFiles/dfu_nrf52832_xxAA_s132_6.0.0.dir/__/__/mesh/serial/src/serial_bearer.c.obj
 .debug_info    0x0001c819     0x28b6 examples/dfu/CMakeFiles/dfu_nrf52832_xxAA_s132_6.0.0.dir/__/__/mesh/serial/src/serial_handler_common.c.obj
 .debug_info    0x0001f0cf     0x32f1 examples/dfu/CMakeFiles/dfu_nrf52832_xxAA_s132_6.0.0.dir/__/__/mesh/serial/src/serial_handler_access.c.obj
 .debug_info    0x000223c0     0x28b9 examples/dfu/CMakeFiles/dfu_nrf52832_xxAA_s132_6.0.0.dir/__/__/mesh/serial/src/serial_handler_config.c.obj
 .debug_info    0x00024c79     0x27cf examples/dfu/CMakeFiles/dfu_nrf52832_xxAA_s132_6.0.0.dir/__/__/mesh/serial/src/serial_handler_openmesh.c.obj
 .debug_info    0x00027448     0x32fe examples/dfu/CMakeFiles/dfu_nrf52832_xxAA_s132_6.0.0.dir/__/__/mesh/serial/src/serial.c.obj
 .debug_info    0x0002a746     0x4908 examples/dfu/CMakeFiles/dfu_nrf52832_xxAA_s132_6.0.0.dir/__/__/mesh/serial/src/serial_handler_prov.c.obj
 .debug_info    0x0002f04e     0x3887 examples/dfu/CMakeFiles/dfu_nrf52832_xxAA_s132_6.0.0.dir/__/__/mesh/serial/src/serial_handler_dfu.c.obj
 .debug_info    0x000328d5     0x4568 examples/dfu/CMakeFiles/dfu_nrf52832_xxAA_s132_6.0.0.dir/__/__/mesh/serial/src/serial_handler_mesh.c.obj
 .debug_info    0x00036e3d     0x2ce9 examples/dfu/CMakeFiles/dfu_nrf52832_xxAA_s132_6.0.0.dir/__/__/mesh/serial/src/serial_handler_models.c.obj
 .debug_info    0x00039b26     0x3470 examples/dfu/CMakeFiles/dfu_nrf52832_xxAA_s132_6.0.0.dir/__/__/mesh/serial/src/serial_handler_device.c.obj
 .debug_info    0x0003cf96     0x2991 examples/dfu/CMakeFiles/dfu_nrf52832_xxAA_s132_6.0.0.dir/__/__/mesh/serial/src/nrf_mesh_serial.c.obj
 .debug_info    0x0003f927     0x27ea examples/dfu/CMakeFiles/dfu_nrf52832_xxAA_s132_6.0.0.dir/__/__/mesh/serial/src/serial_handler_app.c.obj
 .debug_info    0x00042111      0xece examples/dfu/CMakeFiles/dfu_nrf52832_xxAA_s132_6.0.0.dir/__/__/models/config/src/composition_data.c.obj
 .debug_info    0x00042fdf     0x89e6 examples/dfu/CMakeFiles/dfu_nrf52832_xxAA_s132_6.0.0.dir/__/__/models/config/src/config_server.c.obj
 .debug_info    0x0004b9c5      0x126 examples/dfu/CMakeFiles/dfu_nrf52832_xxAA_s132_6.0.0.dir/__/__/models/config/src/packed_index_list.c.obj
 .debug_info    0x0004baeb     0x270a examples/dfu/CMakeFiles/dfu_nrf52832_xxAA_s132_6.0.0.dir/__/__/models/health/src/health_server.c.obj
 .debug_info    0x0004e1f5     0x2438 examples/dfu/CMakeFiles/dfu_nrf52832_xxAA_s132_6.0.0.dir/__/__/mesh/prov/src/prov_provisioner.c.obj
 .debug_info    0x0005062d     0x2823 examples/dfu/CMakeFiles/dfu_nrf52832_xxAA_s132_6.0.0.dir/__/__/mesh/prov/src/prov_provisionee.c.obj
 .debug_info    0x00052e50     0x1ed2 examples/dfu/CMakeFiles/dfu_nrf52832_xxAA_s132_6.0.0.dir/__/__/mesh/prov/src/nrf_mesh_prov.c.obj
 .debug_info    0x00054d22     0x1586 examples/dfu/CMakeFiles/dfu_nrf52832_xxAA_s132_6.0.0.dir/__/__/mesh/prov/src/provisioning.c.obj
 .debug_info    0x000562a8     0x1a48 examples/dfu/CMakeFiles/dfu_nrf52832_xxAA_s132_6.0.0.dir/__/__/mesh/prov/src/prov_beacon.c.obj
 .debug_info    0x00057cf0     0x2054 examples/dfu/CMakeFiles/dfu_nrf52832_xxAA_s132_6.0.0.dir/__/__/mesh/prov/src/prov_utils.c.obj
 .debug_info    0x00059d44     0x3ab2 examples/dfu/CMakeFiles/dfu_nrf52832_xxAA_s132_6.0.0.dir/__/__/mesh/prov/src/prov_bearer_adv.c.obj
 .debug_info    0x0005d7f6     0x4fe5 examples/dfu/CMakeFiles/dfu_nrf52832_xxAA_s132_6.0.0.dir/__/__/mesh/dfu/src/nrf_mesh_dfu.c.obj
 .debug_info    0x000627db     0x106b examples/dfu/CMakeFiles/dfu_nrf52832_xxAA_s132_6.0.0.dir/__/common/src/app_error_weak.c.obj
 .debug_info    0x00063846      0x99b examples/dfu/CMakeFiles/dfu_nrf52832_xxAA_s132_6.0.0.dir/__/common/src/assertion_handler_weak.c.obj
 .debug_info    0x000641e1      0xd04 examples/dfu/CMakeFiles/dfu_nrf52832_xxAA_s132_6.0.0.dir/__/__/mesh/core/src/nrf_mesh_configure.c.obj
 .debug_info    0x00064ee5      0xbd2 examples/dfu/CMakeFiles/dfu_nrf52832_xxAA_s132_6.0.0.dir/__/__/mesh/core/src/aes.c.obj
 .debug_info    0x00065ab7      0xa5a examples/dfu/CMakeFiles/dfu_nrf52832_xxAA_s132_6.0.0.dir/__/__/mesh/core/src/msg_cache.c.obj
 .debug_info    0x00066511     0x5086 examples/dfu/CMakeFiles/dfu_nrf52832_xxAA_s132_6.0.0.dir/__/__/mesh/core/src/transport.c.obj
 .debug_info    0x0006b597     0x171f examples/dfu/CMakeFiles/dfu_nrf52832_xxAA_s132_6.0.0.dir/__/__/mesh/core/src/event.c.obj
 .debug_info    0x0006ccb6     0x1927 examples/dfu/CMakeFiles/dfu_nrf52832_xxAA_s132_6.0.0.dir/__/__/mesh/core/src/packet_buffer.c.obj
 .debug_info    0x0006e5dd     0x1fec examples/dfu/CMakeFiles/dfu_nrf52832_xxAA_s132_6.0.0.dir/__/__/mesh/core/src/flash_manager_defrag.c.obj
 .debug_info    0x000705c9      0xd19 examples/dfu/CMakeFiles/dfu_nrf52832_xxAA_s132_6.0.0.dir/__/__/mesh/core/src/fifo.c.obj
 .debug_info    0x000712e2      0xb20 examples/dfu/CMakeFiles/dfu_nrf52832_xxAA_s132_6.0.0.dir/__/__/mesh/core/src/nrf_flash.c.obj
 .debug_info    0x00071e02     0x118d examples/dfu/CMakeFiles/dfu_nrf52832_xxAA_s132_6.0.0.dir/__/__/mesh/core/src/packet_mgr.c.obj
 .debug_info    0x00072f8f     0x27ed examples/dfu/CMakeFiles/dfu_nrf52832_xxAA_s132_6.0.0.dir/__/__/mesh/core/src/net_state.c.obj
 .debug_info    0x0007577c     0x1931 examples/dfu/CMakeFiles/dfu_nrf52832_xxAA_s132_6.0.0.dir/__/__/mesh/core/src/mesh_flash.c.obj
 .debug_info    0x000770ad      0xa78 examples/dfu/CMakeFiles/dfu_nrf52832_xxAA_s132_6.0.0.dir/__/__/mesh/core/src/nrf_mesh_utils.c.obj
 .debug_info    0x00077b25     0x25a6 examples/dfu/CMakeFiles/dfu_nrf52832_xxAA_s132_6.0.0.dir/__/__/mesh/core/src/nrf_mesh.c.obj
 .debug_info    0x0007a0cb      0xb11 examples/dfu/CMakeFiles/dfu_nrf52832_xxAA_s132_6.0.0.dir/__/__/mesh/core/src/queue.c.obj
 .debug_info    0x0007abdc      0x54f examples/dfu/CMakeFiles/dfu_nrf52832_xxAA_s132_6.0.0.dir/__/__/mesh/core/src/hal.c.obj
 .debug_info    0x0007b12b      0xe48 examples/dfu/CMakeFiles/dfu_nrf52832_xxAA_s132_6.0.0.dir/__/__/mesh/core/src/aes_cmac.c.obj
 .debug_info    0x0007bf73     0x10e0 examples/dfu/CMakeFiles/dfu_nrf52832_xxAA_s132_6.0.0.dir/__/__/mesh/core/src/timer_scheduler.c.obj
 .debug_info    0x0007d053      0xd90 examples/dfu/CMakeFiles/dfu_nrf52832_xxAA_s132_6.0.0.dir/__/__/mesh/core/src/timer.c.obj
 .debug_info    0x0007dde3      0x20b examples/dfu/CMakeFiles/dfu_nrf52832_xxAA_s132_6.0.0.dir/__/__/mesh/core/src/ticker.c.obj
 .debug_info    0x0007dfee      0x408 examples/dfu/CMakeFiles/dfu_nrf52832_xxAA_s132_6.0.0.dir/__/__/mesh/core/src/rand.c.obj
 .debug_info    0x0007e3f6      0xaf5 examples/dfu/CMakeFiles/dfu_nrf52832_xxAA_s132_6.0.0.dir/__/__/mesh/core/src/nrf_mesh_opt.c.obj
 .debug_info    0x0007eeeb     0x1a1c examples/dfu/CMakeFiles/dfu_nrf52832_xxAA_s132_6.0.0.dir/__/__/mesh/core/src/timeslot.c.obj
 .debug_info    0x00080907     0x1a78 examples/dfu/CMakeFiles/dfu_nrf52832_xxAA_s132_6.0.0.dir/__/__/mesh/core/src/bearer_event.c.obj
 .debug_info    0x0008237f     0x1703 examples/dfu/CMakeFiles/dfu_nrf52832_xxAA_s132_6.0.0.dir/__/__/mesh/core/src/enc.c.obj
 .debug_info    0x00083a82     0x1acb examples/dfu/CMakeFiles/dfu_nrf52832_xxAA_s132_6.0.0.dir/__/__/mesh/core/src/network.c.obj
 .debug_info    0x0008554d     0x1cad examples/dfu/CMakeFiles/dfu_nrf52832_xxAA_s132_6.0.0.dir/__/__/mesh/core/src/net_packet.c.obj
 .debug_info    0x000871fa      0xd86 examples/dfu/CMakeFiles/dfu_nrf52832_xxAA_s132_6.0.0.dir/__/__/mesh/core/src/msqueue.c.obj
 .debug_info    0x00087f80      0x4c7 examples/dfu/CMakeFiles/dfu_nrf52832_xxAA_s132_6.0.0.dir/__/__/mesh/core/src/nrf_mesh_keygen.c.obj
 .debug_info    0x00088447      0x506 examples/dfu/CMakeFiles/dfu_nrf52832_xxAA_s132_6.0.0.dir/__/__/mesh/core/src/list.c.obj
 .debug_info    0x0008894d      0xe28 examples/dfu/CMakeFiles/dfu_nrf52832_xxAA_s132_6.0.0.dir/__/__/mesh/core/src/log.c.obj
 .debug_info    0x00089775     0x3024 examples/dfu/CMakeFiles/dfu_nrf52832_xxAA_s132_6.0.0.dir/__/__/mesh/core/src/flash_manager.c.obj
 .debug_info    0x0008c799     0x10a3 examples/dfu/CMakeFiles/dfu_nrf52832_xxAA_s132_6.0.0.dir/__/__/mesh/core/src/ccm_soft.c.obj
 .debug_info    0x0008d83c      0xa93 examples/dfu/CMakeFiles/dfu_nrf52832_xxAA_s132_6.0.0.dir/__/__/mesh/core/src/replay_cache.c.obj
 .debug_info    0x0008e2cf     0x177f examples/dfu/CMakeFiles/dfu_nrf52832_xxAA_s132_6.0.0.dir/__/__/mesh/core/src/beacon.c.obj
 .debug_info    0x0008fa4e      0xb9b examples/dfu/CMakeFiles/dfu_nrf52832_xxAA_s132_6.0.0.dir/__/__/mesh/core/src/flash_manager_internal.c.obj
 .debug_info    0x000905e9     0x126f examples/dfu/CMakeFiles/dfu_nrf52832_xxAA_s132_6.0.0.dir/__/__/mesh/core/src/core_tx.c.obj
 .debug_info    0x00091858     0x24d8 examples/dfu/CMakeFiles/dfu_nrf52832_xxAA_s132_6.0.0.dir/__/__/mesh/core/src/heartbeat.c.obj
 .debug_info    0x00093d30     0x28ac examples/dfu/CMakeFiles/dfu_nrf52832_xxAA_s132_6.0.0.dir/__/__/mesh/core/src/net_beacon.c.obj
 .debug_info    0x000965dc     0x197b examples/dfu/CMakeFiles/dfu_nrf52832_xxAA_s132_6.0.0.dir/__/__/mesh/core/src/core_tx_adv.c.obj
 .debug_info    0x00097f57     0x1164 examples/dfu/CMakeFiles/dfu_nrf52832_xxAA_s132_6.0.0.dir/__/__/mesh/bearer/src/ad_listener.c.obj
 .debug_info    0x000990bb      0xfbe examples/dfu/CMakeFiles/dfu_nrf52832_xxAA_s132_6.0.0.dir/__/__/mesh/bearer/src/ad_type_filter.c.obj
 .debug_info    0x0009a079     0x2584 examples/dfu/CMakeFiles/dfu_nrf52832_xxAA_s132_6.0.0.dir/__/__/mesh/bearer/src/advertiser.c.obj
 .debug_info    0x0009c5fd     0x19de examples/dfu/CMakeFiles/dfu_nrf52832_xxAA_s132_6.0.0.dir/__/__/mesh/bearer/src/bearer_handler.c.obj
 .debug_info    0x0009dfdb     0x19a6 examples/dfu/CMakeFiles/dfu_nrf52832_xxAA_s132_6.0.0.dir/__/__/mesh/bearer/src/broadcast.c.obj
 .debug_info    0x0009f981      0xcff examples/dfu/CMakeFiles/dfu_nrf52832_xxAA_s132_6.0.0.dir/__/__/mesh/bearer/src/filter_engine.c.obj
 .debug_info    0x000a0680      0x8e4 examples/dfu/CMakeFiles/dfu_nrf52832_xxAA_s132_6.0.0.dir/__/__/mesh/bearer/src/radio_config.c.obj
 .debug_info    0x000a0f64     0x262e examples/dfu/CMakeFiles/dfu_nrf52832_xxAA_s132_6.0.0.dir/__/__/mesh/bearer/src/scanner.c.obj
 .debug_info    0x000a3592     0x10f2 examples/dfu/CMakeFiles/dfu_nrf52832_xxAA_s132_6.0.0.dir/C_/ver/mod/nRF5_SDK_15.0.0_a53641a/modules/nrfx/mdk/system_nrf52.c.obj
 .debug_info    0x000a4684      0xaee examples/dfu/CMakeFiles/dfu_nrf52832_xxAA_s132_6.0.0.dir/C_/ver/mod/nRF5_SDK_15.0.0_a53641a/components/libraries/util/app_error.c.obj
 .debug_info    0x000a5172      0x974 examples/dfu/CMakeFiles/dfu_nrf52832_xxAA_s132_6.0.0.dir/C_/ver/mod/nRF5_SDK_15.0.0_a53641a/components/libraries/util/app_error_handler_gcc.c.obj
 .debug_info    0x000a5ae6     0x1818 external/rtt/librtt_nrf52832_xxAA.a(SEGGER_RTT.c.obj)
 .debug_info    0x000a72fe      0xec1 external/rtt/librtt_nrf52832_xxAA.a(SEGGER_RTT_printf.c.obj)
 .debug_info    0x000a81bf     0x4511 external/micro-ecc/libuECC_nrf52832_xxAA.a(uECC.c.obj)

.debug_abbrev   0x00000000    0x13655
 .debug_abbrev  0x00000000      0x4da examples/dfu/CMakeFiles/dfu_nrf52832_xxAA_s132_6.0.0.dir/src/main.c.obj
 .debug_abbrev  0x000004da      0x36b examples/dfu/CMakeFiles/dfu_nrf52832_xxAA_s132_6.0.0.dir/__/__/mesh/stack/src/mesh_stack.c.obj
 .debug_abbrev  0x00000845      0x40b examples/dfu/CMakeFiles/dfu_nrf52832_xxAA_s132_6.0.0.dir/__/common/src/mesh_softdevice_init.c.obj
 .debug_abbrev  0x00000c50      0x312 examples/dfu/CMakeFiles/dfu_nrf52832_xxAA_s132_6.0.0.dir/__/common/src/mesh_provisionee.c.obj
 .debug_abbrev  0x00000f62      0x36b examples/dfu/CMakeFiles/dfu_nrf52832_xxAA_s132_6.0.0.dir/__/common/src/simple_hal.c.obj
 .debug_abbrev  0x000012cd      0x434 examples/dfu/CMakeFiles/dfu_nrf52832_xxAA_s132_6.0.0.dir/__/__/mesh/access/src/access_publish.c.obj
 .debug_abbrev  0x00001701      0x646 examples/dfu/CMakeFiles/dfu_nrf52832_xxAA_s132_6.0.0.dir/__/__/mesh/access/src/access.c.obj
 .debug_abbrev  0x00001d47      0x43b examples/dfu/CMakeFiles/dfu_nrf52832_xxAA_s132_6.0.0.dir/__/__/mesh/access/src/access_reliable.c.obj
 .debug_abbrev  0x00002182      0x604 examples/dfu/CMakeFiles/dfu_nrf52832_xxAA_s132_6.0.0.dir/__/__/mesh/access/src/device_state_manager.c.obj
 .debug_abbrev  0x00002786      0x2c1 examples/dfu/CMakeFiles/dfu_nrf52832_xxAA_s132_6.0.0.dir/__/__/mesh/serial/src/serial_uart.c.obj
 .debug_abbrev  0x00002a47      0x4a6 examples/dfu/CMakeFiles/dfu_nrf52832_xxAA_s132_6.0.0.dir/__/__/mesh/serial/src/serial_bearer.c.obj
 .debug_abbrev  0x00002eed      0x24f examples/dfu/CMakeFiles/dfu_nrf52832_xxAA_s132_6.0.0.dir/__/__/mesh/serial/src/serial_handler_common.c.obj
 .debug_abbrev  0x0000313c      0x2cd examples/dfu/CMakeFiles/dfu_nrf52832_xxAA_s132_6.0.0.dir/__/__/mesh/serial/src/serial_handler_access.c.obj
 .debug_abbrev  0x00003409      0x28f examples/dfu/CMakeFiles/dfu_nrf52832_xxAA_s132_6.0.0.dir/__/__/mesh/serial/src/serial_handler_config.c.obj
 .debug_abbrev  0x00003698      0x245 examples/dfu/CMakeFiles/dfu_nrf52832_xxAA_s132_6.0.0.dir/__/__/mesh/serial/src/serial_handler_openmesh.c.obj
 .debug_abbrev  0x000038dd      0x37f examples/dfu/CMakeFiles/dfu_nrf52832_xxAA_s132_6.0.0.dir/__/__/mesh/serial/src/serial.c.obj
 .debug_abbrev  0x00003c5c      0x3d0 examples/dfu/CMakeFiles/dfu_nrf52832_xxAA_s132_6.0.0.dir/__/__/mesh/serial/src/serial_handler_prov.c.obj
 .debug_abbrev  0x0000402c      0x312 examples/dfu/CMakeFiles/dfu_nrf52832_xxAA_s132_6.0.0.dir/__/__/mesh/serial/src/serial_handler_dfu.c.obj
 .debug_abbrev  0x0000433e      0x3b0 examples/dfu/CMakeFiles/dfu_nrf52832_xxAA_s132_6.0.0.dir/__/__/mesh/serial/src/serial_handler_mesh.c.obj
 .debug_abbrev  0x000046ee      0x316 examples/dfu/CMakeFiles/dfu_nrf52832_xxAA_s132_6.0.0.dir/__/__/mesh/serial/src/serial_handler_models.c.obj
 .debug_abbrev  0x00004a04      0x3c3 examples/dfu/CMakeFiles/dfu_nrf52832_xxAA_s132_6.0.0.dir/__/__/mesh/serial/src/serial_handler_device.c.obj
 .debug_abbrev  0x00004dc7      0x288 examples/dfu/CMakeFiles/dfu_nrf52832_xxAA_s132_6.0.0.dir/__/__/mesh/serial/src/nrf_mesh_serial.c.obj
 .debug_abbrev  0x0000504f      0x23c examples/dfu/CMakeFiles/dfu_nrf52832_xxAA_s132_6.0.0.dir/__/__/mesh/serial/src/serial_handler_app.c.obj
 .debug_abbrev  0x0000528b      0x2db examples/dfu/CMakeFiles/dfu_nrf52832_xxAA_s132_6.0.0.dir/__/__/models/config/src/composition_data.c.obj
 .debug_abbrev  0x00005566      0x54e examples/dfu/CMakeFiles/dfu_nrf52832_xxAA_s132_6.0.0.dir/__/__/models/config/src/config_server.c.obj
 .debug_abbrev  0x00005ab4       0x95 examples/dfu/CMakeFiles/dfu_nrf52832_xxAA_s132_6.0.0.dir/__/__/models/config/src/packed_index_list.c.obj
 .debug_abbrev  0x00005b49      0x4d0 examples/dfu/CMakeFiles/dfu_nrf52832_xxAA_s132_6.0.0.dir/__/__/models/health/src/health_server.c.obj
 .debug_abbrev  0x00006019      0x40e examples/dfu/CMakeFiles/dfu_nrf52832_xxAA_s132_6.0.0.dir/__/__/mesh/prov/src/prov_provisioner.c.obj
 .debug_abbrev  0x00006427      0x491 examples/dfu/CMakeFiles/dfu_nrf52832_xxAA_s132_6.0.0.dir/__/__/mesh/prov/src/prov_provisionee.c.obj
 .debug_abbrev  0x000068b8      0x434 examples/dfu/CMakeFiles/dfu_nrf52832_xxAA_s132_6.0.0.dir/__/__/mesh/prov/src/nrf_mesh_prov.c.obj
 .debug_abbrev  0x00006cec      0x2a9 examples/dfu/CMakeFiles/dfu_nrf52832_xxAA_s132_6.0.0.dir/__/__/mesh/prov/src/provisioning.c.obj
 .debug_abbrev  0x00006f95      0x2c8 examples/dfu/CMakeFiles/dfu_nrf52832_xxAA_s132_6.0.0.dir/__/__/mesh/prov/src/prov_beacon.c.obj
 .debug_abbrev  0x0000725d      0x3ca examples/dfu/CMakeFiles/dfu_nrf52832_xxAA_s132_6.0.0.dir/__/__/mesh/prov/src/prov_utils.c.obj
 .debug_abbrev  0x00007627      0x4eb examples/dfu/CMakeFiles/dfu_nrf52832_xxAA_s132_6.0.0.dir/__/__/mesh/prov/src/prov_bearer_adv.c.obj
 .debug_abbrev  0x00007b12      0x563 examples/dfu/CMakeFiles/dfu_nrf52832_xxAA_s132_6.0.0.dir/__/__/mesh/dfu/src/nrf_mesh_dfu.c.obj
 .debug_abbrev  0x00008075      0x2de examples/dfu/CMakeFiles/dfu_nrf52832_xxAA_s132_6.0.0.dir/__/common/src/app_error_weak.c.obj
 .debug_abbrev  0x00008353      0x1f6 examples/dfu/CMakeFiles/dfu_nrf52832_xxAA_s132_6.0.0.dir/__/common/src/assertion_handler_weak.c.obj
 .debug_abbrev  0x00008549      0x24b examples/dfu/CMakeFiles/dfu_nrf52832_xxAA_s132_6.0.0.dir/__/__/mesh/core/src/nrf_mesh_configure.c.obj
 .debug_abbrev  0x00008794      0x264 examples/dfu/CMakeFiles/dfu_nrf52832_xxAA_s132_6.0.0.dir/__/__/mesh/core/src/aes.c.obj
 .debug_abbrev  0x000089f8      0x25d examples/dfu/CMakeFiles/dfu_nrf52832_xxAA_s132_6.0.0.dir/__/__/mesh/core/src/msg_cache.c.obj
 .debug_abbrev  0x00008c55      0x5e8 examples/dfu/CMakeFiles/dfu_nrf52832_xxAA_s132_6.0.0.dir/__/__/mesh/core/src/transport.c.obj
 .debug_abbrev  0x0000923d      0x2be examples/dfu/CMakeFiles/dfu_nrf52832_xxAA_s132_6.0.0.dir/__/__/mesh/core/src/event.c.obj
 .debug_abbrev  0x000094fb      0x45f examples/dfu/CMakeFiles/dfu_nrf52832_xxAA_s132_6.0.0.dir/__/__/mesh/core/src/packet_buffer.c.obj
 .debug_abbrev  0x0000995a      0x50e examples/dfu/CMakeFiles/dfu_nrf52832_xxAA_s132_6.0.0.dir/__/__/mesh/core/src/flash_manager_defrag.c.obj
 .debug_abbrev  0x00009e68      0x2f2 examples/dfu/CMakeFiles/dfu_nrf52832_xxAA_s132_6.0.0.dir/__/__/mesh/core/src/fifo.c.obj
 .debug_abbrev  0x0000a15a      0x21f examples/dfu/CMakeFiles/dfu_nrf52832_xxAA_s132_6.0.0.dir/__/__/mesh/core/src/nrf_flash.c.obj
 .debug_abbrev  0x0000a379      0x3b1 examples/dfu/CMakeFiles/dfu_nrf52832_xxAA_s132_6.0.0.dir/__/__/mesh/core/src/packet_mgr.c.obj
 .debug_abbrev  0x0000a72a      0x552 examples/dfu/CMakeFiles/dfu_nrf52832_xxAA_s132_6.0.0.dir/__/__/mesh/core/src/net_state.c.obj
 .debug_abbrev  0x0000ac7c      0x453 examples/dfu/CMakeFiles/dfu_nrf52832_xxAA_s132_6.0.0.dir/__/__/mesh/core/src/mesh_flash.c.obj
 .debug_abbrev  0x0000b0cf      0x242 examples/dfu/CMakeFiles/dfu_nrf52832_xxAA_s132_6.0.0.dir/__/__/mesh/core/src/nrf_mesh_utils.c.obj
 .debug_abbrev  0x0000b311      0x476 examples/dfu/CMakeFiles/dfu_nrf52832_xxAA_s132_6.0.0.dir/__/__/mesh/core/src/nrf_mesh.c.obj
 .debug_abbrev  0x0000b787      0x247 examples/dfu/CMakeFiles/dfu_nrf52832_xxAA_s132_6.0.0.dir/__/__/mesh/core/src/queue.c.obj
 .debug_abbrev  0x0000b9ce      0x1eb examples/dfu/CMakeFiles/dfu_nrf52832_xxAA_s132_6.0.0.dir/__/__/mesh/core/src/hal.c.obj
 .debug_abbrev  0x0000bbb9      0x332 examples/dfu/CMakeFiles/dfu_nrf52832_xxAA_s132_6.0.0.dir/__/__/mesh/core/src/aes_cmac.c.obj
 .debug_abbrev  0x0000beeb      0x3bc examples/dfu/CMakeFiles/dfu_nrf52832_xxAA_s132_6.0.0.dir/__/__/mesh/core/src/timer_scheduler.c.obj
 .debug_abbrev  0x0000c2a7      0x337 examples/dfu/CMakeFiles/dfu_nrf52832_xxAA_s132_6.0.0.dir/__/__/mesh/core/src/timer.c.obj
 .debug_abbrev  0x0000c5de      0x152 examples/dfu/CMakeFiles/dfu_nrf52832_xxAA_s132_6.0.0.dir/__/__/mesh/core/src/ticker.c.obj
 .debug_abbrev  0x0000c730      0x194 examples/dfu/CMakeFiles/dfu_nrf52832_xxAA_s132_6.0.0.dir/__/__/mesh/core/src/rand.c.obj
 .debug_abbrev  0x0000c8c4      0x24a examples/dfu/CMakeFiles/dfu_nrf52832_xxAA_s132_6.0.0.dir/__/__/mesh/core/src/nrf_mesh_opt.c.obj
 .debug_abbrev  0x0000cb0e      0x4a4 examples/dfu/CMakeFiles/dfu_nrf52832_xxAA_s132_6.0.0.dir/__/__/mesh/core/src/timeslot.c.obj
 .debug_abbrev  0x0000cfb2      0x4b5 examples/dfu/CMakeFiles/dfu_nrf52832_xxAA_s132_6.0.0.dir/__/__/mesh/core/src/bearer_event.c.obj
 .debug_abbrev  0x0000d467      0x375 examples/dfu/CMakeFiles/dfu_nrf52832_xxAA_s132_6.0.0.dir/__/__/mesh/core/src/enc.c.obj
 .debug_abbrev  0x0000d7dc      0x496 examples/dfu/CMakeFiles/dfu_nrf52832_xxAA_s132_6.0.0.dir/__/__/mesh/core/src/network.c.obj
 .debug_abbrev  0x0000dc72      0x4a1 examples/dfu/CMakeFiles/dfu_nrf52832_xxAA_s132_6.0.0.dir/__/__/mesh/core/src/net_packet.c.obj
 .debug_abbrev  0x0000e113      0x2c0 examples/dfu/CMakeFiles/dfu_nrf52832_xxAA_s132_6.0.0.dir/__/__/mesh/core/src/msqueue.c.obj
 .debug_abbrev  0x0000e3d3      0x156 examples/dfu/CMakeFiles/dfu_nrf52832_xxAA_s132_6.0.0.dir/__/__/mesh/core/src/nrf_mesh_keygen.c.obj
 .debug_abbrev  0x0000e529      0x1a4 examples/dfu/CMakeFiles/dfu_nrf52832_xxAA_s132_6.0.0.dir/__/__/mesh/core/src/list.c.obj
 .debug_abbrev  0x0000e6cd      0x24e examples/dfu/CMakeFiles/dfu_nrf52832_xxAA_s132_6.0.0.dir/__/__/mesh/core/src/log.c.obj
 .debug_abbrev  0x0000e91b      0x524 examples/dfu/CMakeFiles/dfu_nrf52832_xxAA_s132_6.0.0.dir/__/__/mesh/core/src/flash_manager.c.obj
 .debug_abbrev  0x0000ee3f      0x2b3 examples/dfu/CMakeFiles/dfu_nrf52832_xxAA_s132_6.0.0.dir/__/__/mesh/core/src/ccm_soft.c.obj
 .debug_abbrev  0x0000f0f2      0x270 examples/dfu/CMakeFiles/dfu_nrf52832_xxAA_s132_6.0.0.dir/__/__/mesh/core/src/replay_cache.c.obj
 .debug_abbrev  0x0000f362      0x2c4 examples/dfu/CMakeFiles/dfu_nrf52832_xxAA_s132_6.0.0.dir/__/__/mesh/core/src/beacon.c.obj
 .debug_abbrev  0x0000f626      0x288 examples/dfu/CMakeFiles/dfu_nrf52832_xxAA_s132_6.0.0.dir/__/__/mesh/core/src/flash_manager_internal.c.obj
 .debug_abbrev  0x0000f8ae      0x2ed examples/dfu/CMakeFiles/dfu_nrf52832_xxAA_s132_6.0.0.dir/__/__/mesh/core/src/core_tx.c.obj
 .debug_abbrev  0x0000fb9b      0x4be examples/dfu/CMakeFiles/dfu_nrf52832_xxAA_s132_6.0.0.dir/__/__/mesh/core/src/heartbeat.c.obj
 .debug_abbrev  0x00010059      0x4ac examples/dfu/CMakeFiles/dfu_nrf52832_xxAA_s132_6.0.0.dir/__/__/mesh/core/src/net_beacon.c.obj
 .debug_abbrev  0x00010505      0x2fa examples/dfu/CMakeFiles/dfu_nrf52832_xxAA_s132_6.0.0.dir/__/__/mesh/core/src/core_tx_adv.c.obj
 .debug_abbrev  0x000107ff      0x341 examples/dfu/CMakeFiles/dfu_nrf52832_xxAA_s132_6.0.0.dir/__/__/mesh/bearer/src/ad_listener.c.obj
 .debug_abbrev  0x00010b40      0x368 examples/dfu/CMakeFiles/dfu_nrf52832_xxAA_s132_6.0.0.dir/__/__/mesh/bearer/src/ad_type_filter.c.obj
 .debug_abbrev  0x00010ea8      0x4e4 examples/dfu/CMakeFiles/dfu_nrf52832_xxAA_s132_6.0.0.dir/__/__/mesh/bearer/src/advertiser.c.obj
 .debug_abbrev  0x0001138c      0x3e2 examples/dfu/CMakeFiles/dfu_nrf52832_xxAA_s132_6.0.0.dir/__/__/mesh/bearer/src/bearer_handler.c.obj
 .debug_abbrev  0x0001176e      0x3c8 examples/dfu/CMakeFiles/dfu_nrf52832_xxAA_s132_6.0.0.dir/__/__/mesh/bearer/src/broadcast.c.obj
 .debug_abbrev  0x00011b36      0x2a6 examples/dfu/CMakeFiles/dfu_nrf52832_xxAA_s132_6.0.0.dir/__/__/mesh/bearer/src/filter_engine.c.obj
 .debug_abbrev  0x00011ddc      0x1d5 examples/dfu/CMakeFiles/dfu_nrf52832_xxAA_s132_6.0.0.dir/__/__/mesh/bearer/src/radio_config.c.obj
 .debug_abbrev  0x00011fb1      0x52a examples/dfu/CMakeFiles/dfu_nrf52832_xxAA_s132_6.0.0.dir/__/__/mesh/bearer/src/scanner.c.obj
 .debug_abbrev  0x000124db      0x200 examples/dfu/CMakeFiles/dfu_nrf52832_xxAA_s132_6.0.0.dir/C_/ver/mod/nRF5_SDK_15.0.0_a53641a/modules/nrfx/mdk/system_nrf52.c.obj
 .debug_abbrev  0x000126db      0x232 examples/dfu/CMakeFiles/dfu_nrf52832_xxAA_s132_6.0.0.dir/C_/ver/mod/nRF5_SDK_15.0.0_a53641a/components/libraries/util/app_error.c.obj
 .debug_abbrev  0x0001290d      0x1bd examples/dfu/CMakeFiles/dfu_nrf52832_xxAA_s132_6.0.0.dir/C_/ver/mod/nRF5_SDK_15.0.0_a53641a/components/libraries/util/app_error_handler_gcc.c.obj
 .debug_abbrev  0x00012aca      0x3a9 external/rtt/librtt_nrf52832_xxAA.a(SEGGER_RTT.c.obj)
 .debug_abbrev  0x00012e73      0x32e external/rtt/librtt_nrf52832_xxAA.a(SEGGER_RTT_printf.c.obj)
 .debug_abbrev  0x000131a1      0x4b4 external/micro-ecc/libuECC_nrf52832_xxAA.a(uECC.c.obj)

.debug_loc      0x00000000    0x26efa
 .debug_loc     0x00000000      0x22c examples/dfu/CMakeFiles/dfu_nrf52832_xxAA_s132_6.0.0.dir/src/main.c.obj
 .debug_loc     0x0000022c      0x192 examples/dfu/CMakeFiles/dfu_nrf52832_xxAA_s132_6.0.0.dir/__/__/mesh/stack/src/mesh_stack.c.obj
 .debug_loc     0x000003be      0x1b3 examples/dfu/CMakeFiles/dfu_nrf52832_xxAA_s132_6.0.0.dir/__/common/src/mesh_softdevice_init.c.obj
 .debug_loc     0x00000571      0x10a examples/dfu/CMakeFiles/dfu_nrf52832_xxAA_s132_6.0.0.dir/__/common/src/mesh_provisionee.c.obj
 .debug_loc     0x0000067b      0x277 examples/dfu/CMakeFiles/dfu_nrf52832_xxAA_s132_6.0.0.dir/__/common/src/simple_hal.c.obj
 .debug_loc     0x000008f2      0x4d4 examples/dfu/CMakeFiles/dfu_nrf52832_xxAA_s132_6.0.0.dir/__/__/mesh/access/src/access_publish.c.obj
 .debug_loc     0x00000dc6     0x2460 examples/dfu/CMakeFiles/dfu_nrf52832_xxAA_s132_6.0.0.dir/__/__/mesh/access/src/access.c.obj
 .debug_loc     0x00003226      0x886 examples/dfu/CMakeFiles/dfu_nrf52832_xxAA_s132_6.0.0.dir/__/__/mesh/access/src/access_reliable.c.obj
 .debug_loc     0x00003aac     0x39ce examples/dfu/CMakeFiles/dfu_nrf52832_xxAA_s132_6.0.0.dir/__/__/mesh/access/src/device_state_manager.c.obj
 .debug_loc     0x0000747a       0xa2 examples/dfu/CMakeFiles/dfu_nrf52832_xxAA_s132_6.0.0.dir/__/__/mesh/serial/src/serial_uart.c.obj
 .debug_loc     0x0000751c      0x403 examples/dfu/CMakeFiles/dfu_nrf52832_xxAA_s132_6.0.0.dir/__/__/mesh/serial/src/serial_bearer.c.obj
 .debug_loc     0x0000791f      0x1f1 examples/dfu/CMakeFiles/dfu_nrf52832_xxAA_s132_6.0.0.dir/__/__/mesh/serial/src/serial_handler_common.c.obj
 .debug_loc     0x00007b10      0x748 examples/dfu/CMakeFiles/dfu_nrf52832_xxAA_s132_6.0.0.dir/__/__/mesh/serial/src/serial_handler_access.c.obj
 .debug_loc     0x00008258       0x31 examples/dfu/CMakeFiles/dfu_nrf52832_xxAA_s132_6.0.0.dir/__/__/mesh/serial/src/serial_handler_config.c.obj
 .debug_loc     0x00008289       0x4a examples/dfu/CMakeFiles/dfu_nrf52832_xxAA_s132_6.0.0.dir/__/__/mesh/serial/src/serial_handler_openmesh.c.obj
 .debug_loc     0x000082d3      0x397 examples/dfu/CMakeFiles/dfu_nrf52832_xxAA_s132_6.0.0.dir/__/__/mesh/serial/src/serial.c.obj
 .debug_loc     0x0000866a      0x564 examples/dfu/CMakeFiles/dfu_nrf52832_xxAA_s132_6.0.0.dir/__/__/mesh/serial/src/serial_handler_prov.c.obj
 .debug_loc     0x00008bce      0x256 examples/dfu/CMakeFiles/dfu_nrf52832_xxAA_s132_6.0.0.dir/__/__/mesh/serial/src/serial_handler_dfu.c.obj
 .debug_loc     0x00008e24      0x7c7 examples/dfu/CMakeFiles/dfu_nrf52832_xxAA_s132_6.0.0.dir/__/__/mesh/serial/src/serial_handler_mesh.c.obj
 .debug_loc     0x000095eb      0x300 examples/dfu/CMakeFiles/dfu_nrf52832_xxAA_s132_6.0.0.dir/__/__/mesh/serial/src/serial_handler_models.c.obj
 .debug_loc     0x000098eb      0x322 examples/dfu/CMakeFiles/dfu_nrf52832_xxAA_s132_6.0.0.dir/__/__/mesh/serial/src/serial_handler_device.c.obj
 .debug_loc     0x00009c0d       0xa1 examples/dfu/CMakeFiles/dfu_nrf52832_xxAA_s132_6.0.0.dir/__/__/mesh/serial/src/nrf_mesh_serial.c.obj
 .debug_loc     0x00009cae       0x37 examples/dfu/CMakeFiles/dfu_nrf52832_xxAA_s132_6.0.0.dir/__/__/mesh/serial/src/serial_handler_app.c.obj
 .debug_loc     0x00009ce5      0x26f examples/dfu/CMakeFiles/dfu_nrf52832_xxAA_s132_6.0.0.dir/__/__/models/config/src/composition_data.c.obj
 .debug_loc     0x00009f54     0x4c34 examples/dfu/CMakeFiles/dfu_nrf52832_xxAA_s132_6.0.0.dir/__/__/models/config/src/config_server.c.obj
 .debug_loc     0x0000eb88       0x89 examples/dfu/CMakeFiles/dfu_nrf52832_xxAA_s132_6.0.0.dir/__/__/models/config/src/packed_index_list.c.obj
 .debug_loc     0x0000ec11     0x13e7 examples/dfu/CMakeFiles/dfu_nrf52832_xxAA_s132_6.0.0.dir/__/__/models/health/src/health_server.c.obj
 .debug_loc     0x0000fff8      0x747 examples/dfu/CMakeFiles/dfu_nrf52832_xxAA_s132_6.0.0.dir/__/__/mesh/prov/src/prov_provisioner.c.obj
 .debug_loc     0x0001073f      0x766 examples/dfu/CMakeFiles/dfu_nrf52832_xxAA_s132_6.0.0.dir/__/__/mesh/prov/src/prov_provisionee.c.obj
 .debug_loc     0x00010ea5      0xa4b examples/dfu/CMakeFiles/dfu_nrf52832_xxAA_s132_6.0.0.dir/__/__/mesh/prov/src/nrf_mesh_prov.c.obj
 .debug_loc     0x000118f0      0x490 examples/dfu/CMakeFiles/dfu_nrf52832_xxAA_s132_6.0.0.dir/__/__/mesh/prov/src/provisioning.c.obj
 .debug_loc     0x00011d80      0x18c examples/dfu/CMakeFiles/dfu_nrf52832_xxAA_s132_6.0.0.dir/__/__/mesh/prov/src/prov_beacon.c.obj
 .debug_loc     0x00011f0c      0x40b examples/dfu/CMakeFiles/dfu_nrf52832_xxAA_s132_6.0.0.dir/__/__/mesh/prov/src/prov_utils.c.obj
 .debug_loc     0x00012317     0x1457 examples/dfu/CMakeFiles/dfu_nrf52832_xxAA_s132_6.0.0.dir/__/__/mesh/prov/src/prov_bearer_adv.c.obj
 .debug_loc     0x0001376e      0xbc4 examples/dfu/CMakeFiles/dfu_nrf52832_xxAA_s132_6.0.0.dir/__/__/mesh/dfu/src/nrf_mesh_dfu.c.obj
 .debug_loc     0x00014332      0x18c examples/dfu/CMakeFiles/dfu_nrf52832_xxAA_s132_6.0.0.dir/__/common/src/app_error_weak.c.obj
 .debug_loc     0x000144be       0x2c examples/dfu/CMakeFiles/dfu_nrf52832_xxAA_s132_6.0.0.dir/__/common/src/assertion_handler_weak.c.obj
 .debug_loc     0x000144ea       0x2c examples/dfu/CMakeFiles/dfu_nrf52832_xxAA_s132_6.0.0.dir/__/__/mesh/core/src/nrf_mesh_configure.c.obj
 .debug_loc     0x00014516       0x89 examples/dfu/CMakeFiles/dfu_nrf52832_xxAA_s132_6.0.0.dir/__/__/mesh/core/src/aes.c.obj
 .debug_loc     0x0001459f      0x10d examples/dfu/CMakeFiles/dfu_nrf52832_xxAA_s132_6.0.0.dir/__/__/mesh/core/src/msg_cache.c.obj
 .debug_loc     0x000146ac     0x259a examples/dfu/CMakeFiles/dfu_nrf52832_xxAA_s132_6.0.0.dir/__/__/mesh/core/src/transport.c.obj
 .debug_loc     0x00016c46       0xff examples/dfu/CMakeFiles/dfu_nrf52832_xxAA_s132_6.0.0.dir/__/__/mesh/core/src/event.c.obj
 .debug_loc     0x00016d45      0x816 examples/dfu/CMakeFiles/dfu_nrf52832_xxAA_s132_6.0.0.dir/__/__/mesh/core/src/packet_buffer.c.obj
 .debug_loc     0x0001755b      0x7fe examples/dfu/CMakeFiles/dfu_nrf52832_xxAA_s132_6.0.0.dir/__/__/mesh/core/src/flash_manager_defrag.c.obj
 .debug_loc     0x00017d59      0x4f6 examples/dfu/CMakeFiles/dfu_nrf52832_xxAA_s132_6.0.0.dir/__/__/mesh/core/src/fifo.c.obj
 .debug_loc     0x0001824f      0x17a examples/dfu/CMakeFiles/dfu_nrf52832_xxAA_s132_6.0.0.dir/__/__/mesh/core/src/nrf_flash.c.obj
 .debug_loc     0x000183c9      0x6c1 examples/dfu/CMakeFiles/dfu_nrf52832_xxAA_s132_6.0.0.dir/__/__/mesh/core/src/packet_mgr.c.obj
 .debug_loc     0x00018a8a      0x936 examples/dfu/CMakeFiles/dfu_nrf52832_xxAA_s132_6.0.0.dir/__/__/mesh/core/src/net_state.c.obj
 .debug_loc     0x000193c0      0x8be examples/dfu/CMakeFiles/dfu_nrf52832_xxAA_s132_6.0.0.dir/__/__/mesh/core/src/mesh_flash.c.obj
 .debug_loc     0x00019c7e       0xf8 examples/dfu/CMakeFiles/dfu_nrf52832_xxAA_s132_6.0.0.dir/__/__/mesh/core/src/nrf_mesh_utils.c.obj
 .debug_loc     0x00019d76      0x4f8 examples/dfu/CMakeFiles/dfu_nrf52832_xxAA_s132_6.0.0.dir/__/__/mesh/core/src/nrf_mesh.c.obj
 .debug_loc     0x0001a26e       0xf5 examples/dfu/CMakeFiles/dfu_nrf52832_xxAA_s132_6.0.0.dir/__/__/mesh/core/src/queue.c.obj
 .debug_loc     0x0001a363       0x84 examples/dfu/CMakeFiles/dfu_nrf52832_xxAA_s132_6.0.0.dir/__/__/mesh/core/src/hal.c.obj
 .debug_loc     0x0001a3e7      0x3f8 examples/dfu/CMakeFiles/dfu_nrf52832_xxAA_s132_6.0.0.dir/__/__/mesh/core/src/aes_cmac.c.obj
 .debug_loc     0x0001a7df      0x2d1 examples/dfu/CMakeFiles/dfu_nrf52832_xxAA_s132_6.0.0.dir/__/__/mesh/core/src/timer_scheduler.c.obj
 .debug_loc     0x0001aab0      0x5f9 examples/dfu/CMakeFiles/dfu_nrf52832_xxAA_s132_6.0.0.dir/__/__/mesh/core/src/timer.c.obj
 .debug_loc     0x0001b0a9      0x14e examples/dfu/CMakeFiles/dfu_nrf52832_xxAA_s132_6.0.0.dir/__/__/mesh/core/src/rand.c.obj
 .debug_loc     0x0001b1f7      0x194 examples/dfu/CMakeFiles/dfu_nrf52832_xxAA_s132_6.0.0.dir/__/__/mesh/core/src/nrf_mesh_opt.c.obj
 .debug_loc     0x0001b38b      0x344 examples/dfu/CMakeFiles/dfu_nrf52832_xxAA_s132_6.0.0.dir/__/__/mesh/core/src/timeslot.c.obj
 .debug_loc     0x0001b6cf      0x526 examples/dfu/CMakeFiles/dfu_nrf52832_xxAA_s132_6.0.0.dir/__/__/mesh/core/src/bearer_event.c.obj
 .debug_loc     0x0001bbf5      0x8c1 examples/dfu/CMakeFiles/dfu_nrf52832_xxAA_s132_6.0.0.dir/__/__/mesh/core/src/enc.c.obj
 .debug_loc     0x0001c4b6      0x5da examples/dfu/CMakeFiles/dfu_nrf52832_xxAA_s132_6.0.0.dir/__/__/mesh/core/src/network.c.obj
 .debug_loc     0x0001ca90      0x817 examples/dfu/CMakeFiles/dfu_nrf52832_xxAA_s132_6.0.0.dir/__/__/mesh/core/src/net_packet.c.obj
 .debug_loc     0x0001d2a7      0x2ed examples/dfu/CMakeFiles/dfu_nrf52832_xxAA_s132_6.0.0.dir/__/__/mesh/core/src/msqueue.c.obj
 .debug_loc     0x0001d594      0x1ee examples/dfu/CMakeFiles/dfu_nrf52832_xxAA_s132_6.0.0.dir/__/__/mesh/core/src/nrf_mesh_keygen.c.obj
 .debug_loc     0x0001d782      0x3bf examples/dfu/CMakeFiles/dfu_nrf52832_xxAA_s132_6.0.0.dir/__/__/mesh/core/src/list.c.obj
 .debug_loc     0x0001db41      0x348 examples/dfu/CMakeFiles/dfu_nrf52832_xxAA_s132_6.0.0.dir/__/__/mesh/core/src/log.c.obj
 .debug_loc     0x0001de89     0x1439 examples/dfu/CMakeFiles/dfu_nrf52832_xxAA_s132_6.0.0.dir/__/__/mesh/core/src/flash_manager.c.obj
 .debug_loc     0x0001f2c2      0x371 examples/dfu/CMakeFiles/dfu_nrf52832_xxAA_s132_6.0.0.dir/__/__/mesh/core/src/ccm_soft.c.obj
 .debug_loc     0x0001f633      0x141 examples/dfu/CMakeFiles/dfu_nrf52832_xxAA_s132_6.0.0.dir/__/__/mesh/core/src/replay_cache.c.obj
 .debug_loc     0x0001f774      0x30d examples/dfu/CMakeFiles/dfu_nrf52832_xxAA_s132_6.0.0.dir/__/__/mesh/core/src/beacon.c.obj
 .debug_loc     0x0001fa81       0xe3 examples/dfu/CMakeFiles/dfu_nrf52832_xxAA_s132_6.0.0.dir/__/__/mesh/core/src/flash_manager_internal.c.obj
 .debug_loc     0x0001fb64      0x3c5 examples/dfu/CMakeFiles/dfu_nrf52832_xxAA_s132_6.0.0.dir/__/__/mesh/core/src/core_tx.c.obj
 .debug_loc     0x0001ff29      0x570 examples/dfu/CMakeFiles/dfu_nrf52832_xxAA_s132_6.0.0.dir/__/__/mesh/core/src/heartbeat.c.obj
 .debug_loc     0x00020499      0x5f5 examples/dfu/CMakeFiles/dfu_nrf52832_xxAA_s132_6.0.0.dir/__/__/mesh/core/src/net_beacon.c.obj
 .debug_loc     0x00020a8e      0x3ca examples/dfu/CMakeFiles/dfu_nrf52832_xxAA_s132_6.0.0.dir/__/__/mesh/core/src/core_tx_adv.c.obj
 .debug_loc     0x00020e58      0x42e examples/dfu/CMakeFiles/dfu_nrf52832_xxAA_s132_6.0.0.dir/__/__/mesh/bearer/src/ad_listener.c.obj
 .debug_loc     0x00021286      0x3ae examples/dfu/CMakeFiles/dfu_nrf52832_xxAA_s132_6.0.0.dir/__/__/mesh/bearer/src/ad_type_filter.c.obj
 .debug_loc     0x00021634      0xca9 examples/dfu/CMakeFiles/dfu_nrf52832_xxAA_s132_6.0.0.dir/__/__/mesh/bearer/src/advertiser.c.obj
 .debug_loc     0x000222dd      0x333 examples/dfu/CMakeFiles/dfu_nrf52832_xxAA_s132_6.0.0.dir/__/__/mesh/bearer/src/bearer_handler.c.obj
 .debug_loc     0x00022610      0x306 examples/dfu/CMakeFiles/dfu_nrf52832_xxAA_s132_6.0.0.dir/__/__/mesh/bearer/src/broadcast.c.obj
 .debug_loc     0x00022916       0xde examples/dfu/CMakeFiles/dfu_nrf52832_xxAA_s132_6.0.0.dir/__/__/mesh/bearer/src/filter_engine.c.obj
 .debug_loc     0x000229f4      0x232 examples/dfu/CMakeFiles/dfu_nrf52832_xxAA_s132_6.0.0.dir/__/__/mesh/bearer/src/radio_config.c.obj
 .debug_loc     0x00022c26      0x442 examples/dfu/CMakeFiles/dfu_nrf52832_xxAA_s132_6.0.0.dir/__/__/mesh/bearer/src/scanner.c.obj
 .debug_loc     0x00023068       0xb5 examples/dfu/CMakeFiles/dfu_nrf52832_xxAA_s132_6.0.0.dir/C_/ver/mod/nRF5_SDK_15.0.0_a53641a/components/libraries/util/app_error.c.obj
 .debug_loc     0x0002311d       0x63 examples/dfu/CMakeFiles/dfu_nrf52832_xxAA_s132_6.0.0.dir/C_/ver/mod/nRF5_SDK_15.0.0_a53641a/components/libraries/util/app_error_handler_gcc.c.obj
 .debug_loc     0x00023180     0x1222 external/rtt/librtt_nrf52832_xxAA.a(SEGGER_RTT.c.obj)
 .debug_loc     0x000243a2      0x70f external/rtt/librtt_nrf52832_xxAA.a(SEGGER_RTT_printf.c.obj)
 .debug_loc     0x00024ab1     0x2449 external/micro-ecc/libuECC_nrf52832_xxAA.a(uECC.c.obj)

.debug_aranges  0x00000000     0x2848
 .debug_aranges
                0x00000000       0x38 examples/dfu/CMakeFiles/dfu_nrf52832_xxAA_s132_6.0.0.dir/src/main.c.obj
 .debug_aranges
                0x00000038       0x50 examples/dfu/CMakeFiles/dfu_nrf52832_xxAA_s132_6.0.0.dir/__/__/mesh/stack/src/mesh_stack.c.obj
 .debug_aranges
                0x00000088       0x40 examples/dfu/CMakeFiles/dfu_nrf52832_xxAA_s132_6.0.0.dir/__/common/src/mesh_softdevice_init.c.obj
 .debug_aranges
                0x000000c8       0x30 examples/dfu/CMakeFiles/dfu_nrf52832_xxAA_s132_6.0.0.dir/__/common/src/mesh_provisionee.c.obj
 .debug_aranges
                0x000000f8       0x50 examples/dfu/CMakeFiles/dfu_nrf52832_xxAA_s132_6.0.0.dir/__/common/src/simple_hal.c.obj
 .debug_aranges
                0x00000148       0x50 examples/dfu/CMakeFiles/dfu_nrf52832_xxAA_s132_6.0.0.dir/__/__/mesh/access/src/access_publish.c.obj
 .debug_aranges
                0x00000198      0x1d0 examples/dfu/CMakeFiles/dfu_nrf52832_xxAA_s132_6.0.0.dir/__/__/mesh/access/src/access.c.obj
 .debug_aranges
                0x00000368       0x50 examples/dfu/CMakeFiles/dfu_nrf52832_xxAA_s132_6.0.0.dir/__/__/mesh/access/src/access_reliable.c.obj
 .debug_aranges
                0x000003b8      0x318 examples/dfu/CMakeFiles/dfu_nrf52832_xxAA_s132_6.0.0.dir/__/__/mesh/access/src/device_state_manager.c.obj
 .debug_aranges
                0x000006d0       0x38 examples/dfu/CMakeFiles/dfu_nrf52832_xxAA_s132_6.0.0.dir/__/__/mesh/serial/src/serial_uart.c.obj
 .debug_aranges
                0x00000708       0x68 examples/dfu/CMakeFiles/dfu_nrf52832_xxAA_s132_6.0.0.dir/__/__/mesh/serial/src/serial_bearer.c.obj
 .debug_aranges
                0x00000770       0x28 examples/dfu/CMakeFiles/dfu_nrf52832_xxAA_s132_6.0.0.dir/__/__/mesh/serial/src/serial_handler_common.c.obj
 .debug_aranges
                0x00000798       0xd0 examples/dfu/CMakeFiles/dfu_nrf52832_xxAA_s132_6.0.0.dir/__/__/mesh/serial/src/serial_handler_access.c.obj
 .debug_aranges
                0x00000868       0x20 examples/dfu/CMakeFiles/dfu_nrf52832_xxAA_s132_6.0.0.dir/__/__/mesh/serial/src/serial_handler_config.c.obj
 .debug_aranges
                0x00000888       0x20 examples/dfu/CMakeFiles/dfu_nrf52832_xxAA_s132_6.0.0.dir/__/__/mesh/serial/src/serial_handler_openmesh.c.obj
 .debug_aranges
                0x000008a8       0x60 examples/dfu/CMakeFiles/dfu_nrf52832_xxAA_s132_6.0.0.dir/__/__/mesh/serial/src/serial.c.obj
 .debug_aranges
                0x00000908       0x50 examples/dfu/CMakeFiles/dfu_nrf52832_xxAA_s132_6.0.0.dir/__/__/mesh/serial/src/serial_handler_prov.c.obj
 .debug_aranges
                0x00000958       0x30 examples/dfu/CMakeFiles/dfu_nrf52832_xxAA_s132_6.0.0.dir/__/__/mesh/serial/src/serial_handler_dfu.c.obj
 .debug_aranges
                0x00000988      0x110 examples/dfu/CMakeFiles/dfu_nrf52832_xxAA_s132_6.0.0.dir/__/__/mesh/serial/src/serial_handler_mesh.c.obj
 .debug_aranges
                0x00000a98       0x48 examples/dfu/CMakeFiles/dfu_nrf52832_xxAA_s132_6.0.0.dir/__/__/mesh/serial/src/serial_handler_models.c.obj
 .debug_aranges
                0x00000ae0       0x68 examples/dfu/CMakeFiles/dfu_nrf52832_xxAA_s132_6.0.0.dir/__/__/mesh/serial/src/serial_handler_device.c.obj
 .debug_aranges
                0x00000b48       0x38 examples/dfu/CMakeFiles/dfu_nrf52832_xxAA_s132_6.0.0.dir/__/__/mesh/serial/src/nrf_mesh_serial.c.obj
 .debug_aranges
                0x00000b80       0x28 examples/dfu/CMakeFiles/dfu_nrf52832_xxAA_s132_6.0.0.dir/__/__/mesh/serial/src/serial_handler_app.c.obj
 .debug_aranges
                0x00000ba8       0x20 examples/dfu/CMakeFiles/dfu_nrf52832_xxAA_s132_6.0.0.dir/__/__/models/config/src/composition_data.c.obj
 .debug_aranges
                0x00000bc8      0x210 examples/dfu/CMakeFiles/dfu_nrf52832_xxAA_s132_6.0.0.dir/__/__/models/config/src/config_server.c.obj
 .debug_aranges
                0x00000dd8       0x20 examples/dfu/CMakeFiles/dfu_nrf52832_xxAA_s132_6.0.0.dir/__/__/models/config/src/packed_index_list.c.obj
 .debug_aranges
                0x00000df8       0xc8 examples/dfu/CMakeFiles/dfu_nrf52832_xxAA_s132_6.0.0.dir/__/__/models/health/src/health_server.c.obj
 .debug_aranges
                0x00000ec0       0x78 examples/dfu/CMakeFiles/dfu_nrf52832_xxAA_s132_6.0.0.dir/__/__/mesh/prov/src/prov_provisioner.c.obj
 .debug_aranges
                0x00000f38       0x70 examples/dfu/CMakeFiles/dfu_nrf52832_xxAA_s132_6.0.0.dir/__/__/mesh/prov/src/prov_provisionee.c.obj
 .debug_aranges
                0x00000fa8       0x88 examples/dfu/CMakeFiles/dfu_nrf52832_xxAA_s132_6.0.0.dir/__/__/mesh/prov/src/nrf_mesh_prov.c.obj
 .debug_aranges
                0x00001030       0x80 examples/dfu/CMakeFiles/dfu_nrf52832_xxAA_s132_6.0.0.dir/__/__/mesh/prov/src/provisioning.c.obj
 .debug_aranges
                0x000010b0       0x38 examples/dfu/CMakeFiles/dfu_nrf52832_xxAA_s132_6.0.0.dir/__/__/mesh/prov/src/prov_beacon.c.obj
 .debug_aranges
                0x000010e8       0x70 examples/dfu/CMakeFiles/dfu_nrf52832_xxAA_s132_6.0.0.dir/__/__/mesh/prov/src/prov_utils.c.obj
 .debug_aranges
                0x00001158       0xc8 examples/dfu/CMakeFiles/dfu_nrf52832_xxAA_s132_6.0.0.dir/__/__/mesh/prov/src/prov_bearer_adv.c.obj
 .debug_aranges
                0x00001220       0xb0 examples/dfu/CMakeFiles/dfu_nrf52832_xxAA_s132_6.0.0.dir/__/__/mesh/dfu/src/nrf_mesh_dfu.c.obj
 .debug_aranges
                0x000012d0       0x20 examples/dfu/CMakeFiles/dfu_nrf52832_xxAA_s132_6.0.0.dir/__/common/src/app_error_weak.c.obj
 .debug_aranges
                0x000012f0       0x20 examples/dfu/CMakeFiles/dfu_nrf52832_xxAA_s132_6.0.0.dir/__/common/src/assertion_handler_weak.c.obj
 .debug_aranges
                0x00001310       0x30 examples/dfu/CMakeFiles/dfu_nrf52832_xxAA_s132_6.0.0.dir/__/__/mesh/core/src/nrf_mesh_configure.c.obj
 .debug_aranges
                0x00001340       0x28 examples/dfu/CMakeFiles/dfu_nrf52832_xxAA_s132_6.0.0.dir/__/__/mesh/core/src/aes.c.obj
 .debug_aranges
                0x00001368       0x38 examples/dfu/CMakeFiles/dfu_nrf52832_xxAA_s132_6.0.0.dir/__/__/mesh/core/src/msg_cache.c.obj
 .debug_aranges
                0x000013a0      0x110 examples/dfu/CMakeFiles/dfu_nrf52832_xxAA_s132_6.0.0.dir/__/__/mesh/core/src/transport.c.obj
 .debug_aranges
                0x000014b0       0x30 examples/dfu/CMakeFiles/dfu_nrf52832_xxAA_s132_6.0.0.dir/__/__/mesh/core/src/event.c.obj
 .debug_aranges
                0x000014e0       0x68 examples/dfu/CMakeFiles/dfu_nrf52832_xxAA_s132_6.0.0.dir/__/__/mesh/core/src/packet_buffer.c.obj
 .debug_aranges
                0x00001548       0xc8 examples/dfu/CMakeFiles/dfu_nrf52832_xxAA_s132_6.0.0.dir/__/__/mesh/core/src/flash_manager_defrag.c.obj
 .debug_aranges
                0x00001610       0x60 examples/dfu/CMakeFiles/dfu_nrf52832_xxAA_s132_6.0.0.dir/__/__/mesh/core/src/fifo.c.obj
 .debug_aranges
                0x00001670       0x30 examples/dfu/CMakeFiles/dfu_nrf52832_xxAA_s132_6.0.0.dir/__/__/mesh/core/src/nrf_flash.c.obj
 .debug_aranges
                0x000016a0       0x48 examples/dfu/CMakeFiles/dfu_nrf52832_xxAA_s132_6.0.0.dir/__/__/mesh/core/src/packet_mgr.c.obj
 .debug_aranges
                0x000016e8       0xd0 examples/dfu/CMakeFiles/dfu_nrf52832_xxAA_s132_6.0.0.dir/__/__/mesh/core/src/net_state.c.obj
 .debug_aranges
                0x000017b8       0x60 examples/dfu/CMakeFiles/dfu_nrf52832_xxAA_s132_6.0.0.dir/__/__/mesh/core/src/mesh_flash.c.obj
 .debug_aranges
                0x00001818       0x30 examples/dfu/CMakeFiles/dfu_nrf52832_xxAA_s132_6.0.0.dir/__/__/mesh/core/src/nrf_mesh_utils.c.obj
 .debug_aranges
                0x00001848       0x90 examples/dfu/CMakeFiles/dfu_nrf52832_xxAA_s132_6.0.0.dir/__/__/mesh/core/src/nrf_mesh.c.obj
 .debug_aranges
                0x000018d8       0x38 examples/dfu/CMakeFiles/dfu_nrf52832_xxAA_s132_6.0.0.dir/__/__/mesh/core/src/queue.c.obj
 .debug_aranges
                0x00001910       0x38 examples/dfu/CMakeFiles/dfu_nrf52832_xxAA_s132_6.0.0.dir/__/__/mesh/core/src/hal.c.obj
 .debug_aranges
                0x00001948       0x38 examples/dfu/CMakeFiles/dfu_nrf52832_xxAA_s132_6.0.0.dir/__/__/mesh/core/src/aes_cmac.c.obj
 .debug_aranges
                0x00001980       0x68 examples/dfu/CMakeFiles/dfu_nrf52832_xxAA_s132_6.0.0.dir/__/__/mesh/core/src/timer_scheduler.c.obj
 .debug_aranges
                0x000019e8       0x60 examples/dfu/CMakeFiles/dfu_nrf52832_xxAA_s132_6.0.0.dir/__/__/mesh/core/src/timer.c.obj
 .debug_aranges
                0x00001a48       0x30 examples/dfu/CMakeFiles/dfu_nrf52832_xxAA_s132_6.0.0.dir/__/__/mesh/core/src/ticker.c.obj
 .debug_aranges
                0x00001a78       0x40 examples/dfu/CMakeFiles/dfu_nrf52832_xxAA_s132_6.0.0.dir/__/__/mesh/core/src/rand.c.obj
 .debug_aranges
                0x00001ab8       0x28 examples/dfu/CMakeFiles/dfu_nrf52832_xxAA_s132_6.0.0.dir/__/__/mesh/core/src/nrf_mesh_opt.c.obj
 .debug_aranges
                0x00001ae0       0xb8 examples/dfu/CMakeFiles/dfu_nrf52832_xxAA_s132_6.0.0.dir/__/__/mesh/core/src/timeslot.c.obj
 .debug_aranges
                0x00001b98       0x98 examples/dfu/CMakeFiles/dfu_nrf52832_xxAA_s132_6.0.0.dir/__/__/mesh/core/src/bearer_event.c.obj
 .debug_aranges
                0x00001c30       0x70 examples/dfu/CMakeFiles/dfu_nrf52832_xxAA_s132_6.0.0.dir/__/__/mesh/core/src/enc.c.obj
 .debug_aranges
                0x00001ca0       0x58 examples/dfu/CMakeFiles/dfu_nrf52832_xxAA_s132_6.0.0.dir/__/__/mesh/core/src/network.c.obj
 .debug_aranges
                0x00001cf8       0x68 examples/dfu/CMakeFiles/dfu_nrf52832_xxAA_s132_6.0.0.dir/__/__/mesh/core/src/net_packet.c.obj
 .debug_aranges
                0x00001d60       0x48 examples/dfu/CMakeFiles/dfu_nrf52832_xxAA_s132_6.0.0.dir/__/__/mesh/core/src/msqueue.c.obj
 .debug_aranges
                0x00001da8       0x40 examples/dfu/CMakeFiles/dfu_nrf52832_xxAA_s132_6.0.0.dir/__/__/mesh/core/src/nrf_mesh_keygen.c.obj
 .debug_aranges
                0x00001de8       0x48 examples/dfu/CMakeFiles/dfu_nrf52832_xxAA_s132_6.0.0.dir/__/__/mesh/core/src/list.c.obj
 .debug_aranges
                0x00001e30       0x48 examples/dfu/CMakeFiles/dfu_nrf52832_xxAA_s132_6.0.0.dir/__/__/mesh/core/src/log.c.obj
 .debug_aranges
                0x00001e78       0xf8 examples/dfu/CMakeFiles/dfu_nrf52832_xxAA_s132_6.0.0.dir/__/__/mesh/core/src/flash_manager.c.obj
 .debug_aranges
                0x00001f70       0x50 examples/dfu/CMakeFiles/dfu_nrf52832_xxAA_s132_6.0.0.dir/__/__/mesh/core/src/ccm_soft.c.obj
 .debug_aranges
                0x00001fc0       0x40 examples/dfu/CMakeFiles/dfu_nrf52832_xxAA_s132_6.0.0.dir/__/__/mesh/core/src/replay_cache.c.obj
 .debug_aranges
                0x00002000       0x28 examples/dfu/CMakeFiles/dfu_nrf52832_xxAA_s132_6.0.0.dir/__/__/mesh/core/src/beacon.c.obj
 .debug_aranges
                0x00002028       0x20 examples/dfu/CMakeFiles/dfu_nrf52832_xxAA_s132_6.0.0.dir/__/__/mesh/core/src/flash_manager_internal.c.obj
 .debug_aranges
                0x00002048       0x58 examples/dfu/CMakeFiles/dfu_nrf52832_xxAA_s132_6.0.0.dir/__/__/mesh/core/src/core_tx.c.obj
 .debug_aranges
                0x000020a0       0x70 examples/dfu/CMakeFiles/dfu_nrf52832_xxAA_s132_6.0.0.dir/__/__/mesh/core/src/heartbeat.c.obj
 .debug_aranges
                0x00002110       0x68 examples/dfu/CMakeFiles/dfu_nrf52832_xxAA_s132_6.0.0.dir/__/__/mesh/core/src/net_beacon.c.obj
 .debug_aranges
                0x00002178       0x68 examples/dfu/CMakeFiles/dfu_nrf52832_xxAA_s132_6.0.0.dir/__/__/mesh/core/src/core_tx_adv.c.obj
 .debug_aranges
                0x000021e0       0x30 examples/dfu/CMakeFiles/dfu_nrf52832_xxAA_s132_6.0.0.dir/__/__/mesh/bearer/src/ad_listener.c.obj
 .debug_aranges
                0x00002210       0x58 examples/dfu/CMakeFiles/dfu_nrf52832_xxAA_s132_6.0.0.dir/__/__/mesh/bearer/src/ad_type_filter.c.obj
 .debug_aranges
                0x00002268       0xb0 examples/dfu/CMakeFiles/dfu_nrf52832_xxAA_s132_6.0.0.dir/__/__/mesh/bearer/src/advertiser.c.obj
 .debug_aranges
                0x00002318       0x70 examples/dfu/CMakeFiles/dfu_nrf52832_xxAA_s132_6.0.0.dir/__/__/mesh/bearer/src/bearer_handler.c.obj
 .debug_aranges
                0x00002388       0x30 examples/dfu/CMakeFiles/dfu_nrf52832_xxAA_s132_6.0.0.dir/__/__/mesh/bearer/src/broadcast.c.obj
 .debug_aranges
                0x000023b8       0x38 examples/dfu/CMakeFiles/dfu_nrf52832_xxAA_s132_6.0.0.dir/__/__/mesh/bearer/src/filter_engine.c.obj
 .debug_aranges
                0x000023f0       0x40 examples/dfu/CMakeFiles/dfu_nrf52832_xxAA_s132_6.0.0.dir/__/__/mesh/bearer/src/radio_config.c.obj
 .debug_aranges
                0x00002430       0xe0 examples/dfu/CMakeFiles/dfu_nrf52832_xxAA_s132_6.0.0.dir/__/__/mesh/bearer/src/scanner.c.obj
 .debug_aranges
                0x00002510       0x38 examples/dfu/CMakeFiles/dfu_nrf52832_xxAA_s132_6.0.0.dir/C_/ver/mod/nRF5_SDK_15.0.0_a53641a/modules/nrfx/mdk/system_nrf52.c.obj
 .debug_aranges
                0x00002548       0x28 examples/dfu/CMakeFiles/dfu_nrf52832_xxAA_s132_6.0.0.dir/C_/ver/mod/nRF5_SDK_15.0.0_a53641a/components/libraries/util/app_error.c.obj
 .debug_aranges
                0x00002570       0x20 examples/dfu/CMakeFiles/dfu_nrf52832_xxAA_s132_6.0.0.dir/C_/ver/mod/nRF5_SDK_15.0.0_a53641a/components/libraries/util/app_error_handler_gcc.c.obj
 .debug_aranges
                0x00002590       0xd8 external/rtt/librtt_nrf52832_xxAA.a(SEGGER_RTT.c.obj)
 .debug_aranges
                0x00002668       0x38 external/rtt/librtt_nrf52832_xxAA.a(SEGGER_RTT_printf.c.obj)
 .debug_aranges
                0x000026a0      0x1a8 external/micro-ecc/libuECC_nrf52832_xxAA.a(uECC.c.obj)

.debug_ranges   0x00000000     0x6508
 .debug_ranges  0x00000000      0x1b0 examples/dfu/CMakeFiles/dfu_nrf52832_xxAA_s132_6.0.0.dir/src/main.c.obj
 .debug_ranges  0x000001b0       0x70 examples/dfu/CMakeFiles/dfu_nrf52832_xxAA_s132_6.0.0.dir/__/__/mesh/stack/src/mesh_stack.c.obj
 .debug_ranges  0x00000220       0xb0 examples/dfu/CMakeFiles/dfu_nrf52832_xxAA_s132_6.0.0.dir/__/common/src/mesh_softdevice_init.c.obj
 .debug_ranges  0x000002d0       0x50 examples/dfu/CMakeFiles/dfu_nrf52832_xxAA_s132_6.0.0.dir/__/common/src/mesh_provisionee.c.obj
 .debug_ranges  0x00000320       0xe0 examples/dfu/CMakeFiles/dfu_nrf52832_xxAA_s132_6.0.0.dir/__/common/src/simple_hal.c.obj
 .debug_ranges  0x00000400      0x118 examples/dfu/CMakeFiles/dfu_nrf52832_xxAA_s132_6.0.0.dir/__/__/mesh/access/src/access_publish.c.obj
 .debug_ranges  0x00000518      0x770 examples/dfu/CMakeFiles/dfu_nrf52832_xxAA_s132_6.0.0.dir/__/__/mesh/access/src/access.c.obj
 .debug_ranges  0x00000c88      0x198 examples/dfu/CMakeFiles/dfu_nrf52832_xxAA_s132_6.0.0.dir/__/__/mesh/access/src/access_reliable.c.obj
 .debug_ranges  0x00000e20      0x808 examples/dfu/CMakeFiles/dfu_nrf52832_xxAA_s132_6.0.0.dir/__/__/mesh/access/src/device_state_manager.c.obj
 .debug_ranges  0x00001628       0x28 examples/dfu/CMakeFiles/dfu_nrf52832_xxAA_s132_6.0.0.dir/__/__/mesh/serial/src/serial_uart.c.obj
 .debug_ranges  0x00001650      0x150 examples/dfu/CMakeFiles/dfu_nrf52832_xxAA_s132_6.0.0.dir/__/__/mesh/serial/src/serial_bearer.c.obj
 .debug_ranges  0x000017a0       0x48 examples/dfu/CMakeFiles/dfu_nrf52832_xxAA_s132_6.0.0.dir/__/__/mesh/serial/src/serial_handler_common.c.obj
 .debug_ranges  0x000017e8       0xc0 examples/dfu/CMakeFiles/dfu_nrf52832_xxAA_s132_6.0.0.dir/__/__/mesh/serial/src/serial_handler_access.c.obj
 .debug_ranges  0x000018a8       0x30 examples/dfu/CMakeFiles/dfu_nrf52832_xxAA_s132_6.0.0.dir/__/__/mesh/serial/src/serial_handler_config.c.obj
 .debug_ranges  0x000018d8       0x10 examples/dfu/CMakeFiles/dfu_nrf52832_xxAA_s132_6.0.0.dir/__/__/mesh/serial/src/serial_handler_openmesh.c.obj
 .debug_ranges  0x000018e8       0xf8 examples/dfu/CMakeFiles/dfu_nrf52832_xxAA_s132_6.0.0.dir/__/__/mesh/serial/src/serial.c.obj
 .debug_ranges  0x000019e0       0xf0 examples/dfu/CMakeFiles/dfu_nrf52832_xxAA_s132_6.0.0.dir/__/__/mesh/serial/src/serial_handler_prov.c.obj
 .debug_ranges  0x00001ad0       0x58 examples/dfu/CMakeFiles/dfu_nrf52832_xxAA_s132_6.0.0.dir/__/__/mesh/serial/src/serial_handler_dfu.c.obj
 .debug_ranges  0x00001b28      0x148 examples/dfu/CMakeFiles/dfu_nrf52832_xxAA_s132_6.0.0.dir/__/__/mesh/serial/src/serial_handler_mesh.c.obj
 .debug_ranges  0x00001c70       0x90 examples/dfu/CMakeFiles/dfu_nrf52832_xxAA_s132_6.0.0.dir/__/__/mesh/serial/src/serial_handler_models.c.obj
 .debug_ranges  0x00001d00       0xd0 examples/dfu/CMakeFiles/dfu_nrf52832_xxAA_s132_6.0.0.dir/__/__/mesh/serial/src/serial_handler_device.c.obj
 .debug_ranges  0x00001dd0       0x28 examples/dfu/CMakeFiles/dfu_nrf52832_xxAA_s132_6.0.0.dir/__/__/mesh/serial/src/nrf_mesh_serial.c.obj
 .debug_ranges  0x00001df8       0x18 examples/dfu/CMakeFiles/dfu_nrf52832_xxAA_s132_6.0.0.dir/__/__/mesh/serial/src/serial_handler_app.c.obj
 .debug_ranges  0x00001e10       0xa8 examples/dfu/CMakeFiles/dfu_nrf52832_xxAA_s132_6.0.0.dir/__/__/models/config/src/composition_data.c.obj
 .debug_ranges  0x00001eb8      0x788 examples/dfu/CMakeFiles/dfu_nrf52832_xxAA_s132_6.0.0.dir/__/__/models/config/src/config_server.c.obj
 .debug_ranges  0x00002640       0x10 examples/dfu/CMakeFiles/dfu_nrf52832_xxAA_s132_6.0.0.dir/__/__/models/config/src/packed_index_list.c.obj
 .debug_ranges  0x00002650      0x260 examples/dfu/CMakeFiles/dfu_nrf52832_xxAA_s132_6.0.0.dir/__/__/models/health/src/health_server.c.obj
 .debug_ranges  0x000028b0      0x100 examples/dfu/CMakeFiles/dfu_nrf52832_xxAA_s132_6.0.0.dir/__/__/mesh/prov/src/prov_provisioner.c.obj
 .debug_ranges  0x000029b0      0x148 examples/dfu/CMakeFiles/dfu_nrf52832_xxAA_s132_6.0.0.dir/__/__/mesh/prov/src/prov_provisionee.c.obj
 .debug_ranges  0x00002af8      0x130 examples/dfu/CMakeFiles/dfu_nrf52832_xxAA_s132_6.0.0.dir/__/__/mesh/prov/src/nrf_mesh_prov.c.obj
 .debug_ranges  0x00002c28       0x70 examples/dfu/CMakeFiles/dfu_nrf52832_xxAA_s132_6.0.0.dir/__/__/mesh/prov/src/provisioning.c.obj
 .debug_ranges  0x00002c98       0x40 examples/dfu/CMakeFiles/dfu_nrf52832_xxAA_s132_6.0.0.dir/__/__/mesh/prov/src/prov_beacon.c.obj
 .debug_ranges  0x00002cd8       0xa0 examples/dfu/CMakeFiles/dfu_nrf52832_xxAA_s132_6.0.0.dir/__/__/mesh/prov/src/prov_utils.c.obj
 .debug_ranges  0x00002d78      0x498 examples/dfu/CMakeFiles/dfu_nrf52832_xxAA_s132_6.0.0.dir/__/__/mesh/prov/src/prov_bearer_adv.c.obj
 .debug_ranges  0x00003210      0x450 examples/dfu/CMakeFiles/dfu_nrf52832_xxAA_s132_6.0.0.dir/__/__/mesh/dfu/src/nrf_mesh_dfu.c.obj
 .debug_ranges  0x00003660       0xb8 examples/dfu/CMakeFiles/dfu_nrf52832_xxAA_s132_6.0.0.dir/__/common/src/app_error_weak.c.obj
 .debug_ranges  0x00003718       0x10 examples/dfu/CMakeFiles/dfu_nrf52832_xxAA_s132_6.0.0.dir/__/common/src/assertion_handler_weak.c.obj
 .debug_ranges  0x00003728       0x20 examples/dfu/CMakeFiles/dfu_nrf52832_xxAA_s132_6.0.0.dir/__/__/mesh/core/src/nrf_mesh_configure.c.obj
 .debug_ranges  0x00003748       0x18 examples/dfu/CMakeFiles/dfu_nrf52832_xxAA_s132_6.0.0.dir/__/__/mesh/core/src/aes.c.obj
 .debug_ranges  0x00003760       0x48 examples/dfu/CMakeFiles/dfu_nrf52832_xxAA_s132_6.0.0.dir/__/__/mesh/core/src/msg_cache.c.obj
 .debug_ranges  0x000037a8      0x5d0 examples/dfu/CMakeFiles/dfu_nrf52832_xxAA_s132_6.0.0.dir/__/__/mesh/core/src/transport.c.obj
 .debug_ranges  0x00003d78       0x20 examples/dfu/CMakeFiles/dfu_nrf52832_xxAA_s132_6.0.0.dir/__/__/mesh/core/src/event.c.obj
 .debug_ranges  0x00003d98      0x128 examples/dfu/CMakeFiles/dfu_nrf52832_xxAA_s132_6.0.0.dir/__/__/mesh/core/src/packet_buffer.c.obj
 .debug_ranges  0x00003ec0      0x230 examples/dfu/CMakeFiles/dfu_nrf52832_xxAA_s132_6.0.0.dir/__/__/mesh/core/src/flash_manager_defrag.c.obj
 .debug_ranges  0x000040f0       0x68 examples/dfu/CMakeFiles/dfu_nrf52832_xxAA_s132_6.0.0.dir/__/__/mesh/core/src/fifo.c.obj
 .debug_ranges  0x00004158       0x38 examples/dfu/CMakeFiles/dfu_nrf52832_xxAA_s132_6.0.0.dir/__/__/mesh/core/src/nrf_flash.c.obj
 .debug_ranges  0x00004190       0xe0 examples/dfu/CMakeFiles/dfu_nrf52832_xxAA_s132_6.0.0.dir/__/__/mesh/core/src/packet_mgr.c.obj
 .debug_ranges  0x00004270      0x1f8 examples/dfu/CMakeFiles/dfu_nrf52832_xxAA_s132_6.0.0.dir/__/__/mesh/core/src/net_state.c.obj
 .debug_ranges  0x00004468      0x1c8 examples/dfu/CMakeFiles/dfu_nrf52832_xxAA_s132_6.0.0.dir/__/__/mesh/core/src/mesh_flash.c.obj
 .debug_ranges  0x00004630       0x20 examples/dfu/CMakeFiles/dfu_nrf52832_xxAA_s132_6.0.0.dir/__/__/mesh/core/src/nrf_mesh_utils.c.obj
 .debug_ranges  0x00004650       0xe0 examples/dfu/CMakeFiles/dfu_nrf52832_xxAA_s132_6.0.0.dir/__/__/mesh/core/src/nrf_mesh.c.obj
 .debug_ranges  0x00004730       0x28 examples/dfu/CMakeFiles/dfu_nrf52832_xxAA_s132_6.0.0.dir/__/__/mesh/core/src/queue.c.obj
 .debug_ranges  0x00004758       0x28 examples/dfu/CMakeFiles/dfu_nrf52832_xxAA_s132_6.0.0.dir/__/__/mesh/core/src/hal.c.obj
 .debug_ranges  0x00004780       0x98 examples/dfu/CMakeFiles/dfu_nrf52832_xxAA_s132_6.0.0.dir/__/__/mesh/core/src/aes_cmac.c.obj
 .debug_ranges  0x00004818       0xf0 examples/dfu/CMakeFiles/dfu_nrf52832_xxAA_s132_6.0.0.dir/__/__/mesh/core/src/timer_scheduler.c.obj
 .debug_ranges  0x00004908       0xd8 examples/dfu/CMakeFiles/dfu_nrf52832_xxAA_s132_6.0.0.dir/__/__/mesh/core/src/timer.c.obj
 .debug_ranges  0x000049e0       0x20 examples/dfu/CMakeFiles/dfu_nrf52832_xxAA_s132_6.0.0.dir/__/__/mesh/core/src/ticker.c.obj
 .debug_ranges  0x00004a00       0x30 examples/dfu/CMakeFiles/dfu_nrf52832_xxAA_s132_6.0.0.dir/__/__/mesh/core/src/rand.c.obj
 .debug_ranges  0x00004a30       0x18 examples/dfu/CMakeFiles/dfu_nrf52832_xxAA_s132_6.0.0.dir/__/__/mesh/core/src/nrf_mesh_opt.c.obj
 .debug_ranges  0x00004a48      0x168 examples/dfu/CMakeFiles/dfu_nrf52832_xxAA_s132_6.0.0.dir/__/__/mesh/core/src/timeslot.c.obj
 .debug_ranges  0x00004bb0       0xf8 examples/dfu/CMakeFiles/dfu_nrf52832_xxAA_s132_6.0.0.dir/__/__/mesh/core/src/bearer_event.c.obj
 .debug_ranges  0x00004ca8       0xb0 examples/dfu/CMakeFiles/dfu_nrf52832_xxAA_s132_6.0.0.dir/__/__/mesh/core/src/enc.c.obj
 .debug_ranges  0x00004d58       0xe8 examples/dfu/CMakeFiles/dfu_nrf52832_xxAA_s132_6.0.0.dir/__/__/mesh/core/src/network.c.obj
 .debug_ranges  0x00004e40      0x160 examples/dfu/CMakeFiles/dfu_nrf52832_xxAA_s132_6.0.0.dir/__/__/mesh/core/src/net_packet.c.obj
 .debug_ranges  0x00004fa0       0x50 examples/dfu/CMakeFiles/dfu_nrf52832_xxAA_s132_6.0.0.dir/__/__/mesh/core/src/msqueue.c.obj
 .debug_ranges  0x00004ff0       0x30 examples/dfu/CMakeFiles/dfu_nrf52832_xxAA_s132_6.0.0.dir/__/__/mesh/core/src/nrf_mesh_keygen.c.obj
 .debug_ranges  0x00005020       0x78 examples/dfu/CMakeFiles/dfu_nrf52832_xxAA_s132_6.0.0.dir/__/__/mesh/core/src/list.c.obj
 .debug_ranges  0x00005098       0x38 examples/dfu/CMakeFiles/dfu_nrf52832_xxAA_s132_6.0.0.dir/__/__/mesh/core/src/log.c.obj
 .debug_ranges  0x000050d0      0x388 examples/dfu/CMakeFiles/dfu_nrf52832_xxAA_s132_6.0.0.dir/__/__/mesh/core/src/flash_manager.c.obj
 .debug_ranges  0x00005458       0x40 examples/dfu/CMakeFiles/dfu_nrf52832_xxAA_s132_6.0.0.dir/__/__/mesh/core/src/ccm_soft.c.obj
 .debug_ranges  0x00005498       0x30 examples/dfu/CMakeFiles/dfu_nrf52832_xxAA_s132_6.0.0.dir/__/__/mesh/core/src/replay_cache.c.obj
 .debug_ranges  0x000054c8       0x90 examples/dfu/CMakeFiles/dfu_nrf52832_xxAA_s132_6.0.0.dir/__/__/mesh/core/src/beacon.c.obj
 .debug_ranges  0x00005558       0x10 examples/dfu/CMakeFiles/dfu_nrf52832_xxAA_s132_6.0.0.dir/__/__/mesh/core/src/flash_manager_internal.c.obj
 .debug_ranges  0x00005568       0xf8 examples/dfu/CMakeFiles/dfu_nrf52832_xxAA_s132_6.0.0.dir/__/__/mesh/core/src/core_tx.c.obj
 .debug_ranges  0x00005660       0xa8 examples/dfu/CMakeFiles/dfu_nrf52832_xxAA_s132_6.0.0.dir/__/__/mesh/core/src/heartbeat.c.obj
 .debug_ranges  0x00005708      0x170 examples/dfu/CMakeFiles/dfu_nrf52832_xxAA_s132_6.0.0.dir/__/__/mesh/core/src/net_beacon.c.obj
 .debug_ranges  0x00005878       0x58 examples/dfu/CMakeFiles/dfu_nrf52832_xxAA_s132_6.0.0.dir/__/__/mesh/core/src/core_tx_adv.c.obj
 .debug_ranges  0x000058d0       0xf8 examples/dfu/CMakeFiles/dfu_nrf52832_xxAA_s132_6.0.0.dir/__/__/mesh/bearer/src/ad_listener.c.obj
 .debug_ranges  0x000059c8       0xd0 examples/dfu/CMakeFiles/dfu_nrf52832_xxAA_s132_6.0.0.dir/__/__/mesh/bearer/src/ad_type_filter.c.obj
 .debug_ranges  0x00005a98      0x240 examples/dfu/CMakeFiles/dfu_nrf52832_xxAA_s132_6.0.0.dir/__/__/mesh/bearer/src/advertiser.c.obj
 .debug_ranges  0x00005cd8       0xb0 examples/dfu/CMakeFiles/dfu_nrf52832_xxAA_s132_6.0.0.dir/__/__/mesh/bearer/src/bearer_handler.c.obj
 .debug_ranges  0x00005d88       0xa8 examples/dfu/CMakeFiles/dfu_nrf52832_xxAA_s132_6.0.0.dir/__/__/mesh/bearer/src/broadcast.c.obj
 .debug_ranges  0x00005e30       0x48 examples/dfu/CMakeFiles/dfu_nrf52832_xxAA_s132_6.0.0.dir/__/__/mesh/bearer/src/filter_engine.c.obj
 .debug_ranges  0x00005e78       0x48 examples/dfu/CMakeFiles/dfu_nrf52832_xxAA_s132_6.0.0.dir/__/__/mesh/bearer/src/radio_config.c.obj
 .debug_ranges  0x00005ec0      0x198 examples/dfu/CMakeFiles/dfu_nrf52832_xxAA_s132_6.0.0.dir/__/__/mesh/bearer/src/scanner.c.obj
 .debug_ranges  0x00006058       0x28 examples/dfu/CMakeFiles/dfu_nrf52832_xxAA_s132_6.0.0.dir/C_/ver/mod/nRF5_SDK_15.0.0_a53641a/modules/nrfx/mdk/system_nrf52.c.obj
 .debug_ranges  0x00006080       0x18 examples/dfu/CMakeFiles/dfu_nrf52832_xxAA_s132_6.0.0.dir/C_/ver/mod/nRF5_SDK_15.0.0_a53641a/components/libraries/util/app_error.c.obj
 .debug_ranges  0x00006098       0x10 examples/dfu/CMakeFiles/dfu_nrf52832_xxAA_s132_6.0.0.dir/C_/ver/mod/nRF5_SDK_15.0.0_a53641a/components/libraries/util/app_error_handler_gcc.c.obj
 .debug_ranges  0x000060a8      0x130 external/rtt/librtt_nrf52832_xxAA.a(SEGGER_RTT.c.obj)
 .debug_ranges  0x000061d8       0x48 external/rtt/librtt_nrf52832_xxAA.a(SEGGER_RTT_printf.c.obj)
 .debug_ranges  0x00006220      0x2e8 external/micro-ecc/libuECC_nrf52832_xxAA.a(uECC.c.obj)

.debug_line     0x00000000    0x1bf25
 .debug_line    0x00000000      0x660 examples/dfu/CMakeFiles/dfu_nrf52832_xxAA_s132_6.0.0.dir/src/main.c.obj
 .debug_line    0x00000660      0x4a8 examples/dfu/CMakeFiles/dfu_nrf52832_xxAA_s132_6.0.0.dir/__/__/mesh/stack/src/mesh_stack.c.obj
 .debug_line    0x00000b08      0x3e6 examples/dfu/CMakeFiles/dfu_nrf52832_xxAA_s132_6.0.0.dir/__/common/src/mesh_softdevice_init.c.obj
 .debug_line    0x00000eee      0x4f6 examples/dfu/CMakeFiles/dfu_nrf52832_xxAA_s132_6.0.0.dir/__/common/src/mesh_provisionee.c.obj
 .debug_line    0x000013e4      0x496 examples/dfu/CMakeFiles/dfu_nrf52832_xxAA_s132_6.0.0.dir/__/common/src/simple_hal.c.obj
 .debug_line    0x0000187a      0x41a examples/dfu/CMakeFiles/dfu_nrf52832_xxAA_s132_6.0.0.dir/__/__/mesh/access/src/access_publish.c.obj
 .debug_line    0x00001c94      0xef5 examples/dfu/CMakeFiles/dfu_nrf52832_xxAA_s132_6.0.0.dir/__/__/mesh/access/src/access.c.obj
 .debug_line    0x00002b89      0x528 examples/dfu/CMakeFiles/dfu_nrf52832_xxAA_s132_6.0.0.dir/__/__/mesh/access/src/access_reliable.c.obj
 .debug_line    0x000030b1     0x13e6 examples/dfu/CMakeFiles/dfu_nrf52832_xxAA_s132_6.0.0.dir/__/__/mesh/access/src/device_state_manager.c.obj
 .debug_line    0x00004497      0x318 examples/dfu/CMakeFiles/dfu_nrf52832_xxAA_s132_6.0.0.dir/__/__/mesh/serial/src/serial_uart.c.obj
 .debug_line    0x000047af      0x557 examples/dfu/CMakeFiles/dfu_nrf52832_xxAA_s132_6.0.0.dir/__/__/mesh/serial/src/serial_bearer.c.obj
 .debug_line    0x00004d06      0x337 examples/dfu/CMakeFiles/dfu_nrf52832_xxAA_s132_6.0.0.dir/__/__/mesh/serial/src/serial_handler_common.c.obj
 .debug_line    0x0000503d      0x521 examples/dfu/CMakeFiles/dfu_nrf52832_xxAA_s132_6.0.0.dir/__/__/mesh/serial/src/serial_handler_access.c.obj
 .debug_line    0x0000555e      0x3fb examples/dfu/CMakeFiles/dfu_nrf52832_xxAA_s132_6.0.0.dir/__/__/mesh/serial/src/serial_handler_config.c.obj
 .debug_line    0x00005959      0x2f9 examples/dfu/CMakeFiles/dfu_nrf52832_xxAA_s132_6.0.0.dir/__/__/mesh/serial/src/serial_handler_openmesh.c.obj
 .debug_line    0x00005c52      0x5a6 examples/dfu/CMakeFiles/dfu_nrf52832_xxAA_s132_6.0.0.dir/__/__/mesh/serial/src/serial.c.obj
 .debug_line    0x000061f8      0x731 examples/dfu/CMakeFiles/dfu_nrf52832_xxAA_s132_6.0.0.dir/__/__/mesh/serial/src/serial_handler_prov.c.obj
 .debug_line    0x00006929      0x48b examples/dfu/CMakeFiles/dfu_nrf52832_xxAA_s132_6.0.0.dir/__/__/mesh/serial/src/serial_handler_dfu.c.obj
 .debug_line    0x00006db4      0x706 examples/dfu/CMakeFiles/dfu_nrf52832_xxAA_s132_6.0.0.dir/__/__/mesh/serial/src/serial_handler_mesh.c.obj
 .debug_line    0x000074ba      0x457 examples/dfu/CMakeFiles/dfu_nrf52832_xxAA_s132_6.0.0.dir/__/__/mesh/serial/src/serial_handler_models.c.obj
 .debug_line    0x00007911      0x5a6 examples/dfu/CMakeFiles/dfu_nrf52832_xxAA_s132_6.0.0.dir/__/__/mesh/serial/src/serial_handler_device.c.obj
 .debug_line    0x00007eb7      0x417 examples/dfu/CMakeFiles/dfu_nrf52832_xxAA_s132_6.0.0.dir/__/__/mesh/serial/src/nrf_mesh_serial.c.obj
 .debug_line    0x000082ce      0x307 examples/dfu/CMakeFiles/dfu_nrf52832_xxAA_s132_6.0.0.dir/__/__/mesh/serial/src/serial_handler_app.c.obj
 .debug_line    0x000085d5      0x2f6 examples/dfu/CMakeFiles/dfu_nrf52832_xxAA_s132_6.0.0.dir/__/__/models/config/src/composition_data.c.obj
 .debug_line    0x000088cb     0x134f examples/dfu/CMakeFiles/dfu_nrf52832_xxAA_s132_6.0.0.dir/__/__/models/config/src/config_server.c.obj
 .debug_line    0x00009c1a       0xef examples/dfu/CMakeFiles/dfu_nrf52832_xxAA_s132_6.0.0.dir/__/__/models/config/src/packed_index_list.c.obj
 .debug_line    0x00009d09      0x6a0 examples/dfu/CMakeFiles/dfu_nrf52832_xxAA_s132_6.0.0.dir/__/__/models/health/src/health_server.c.obj
 .debug_line    0x0000a3a9      0x591 examples/dfu/CMakeFiles/dfu_nrf52832_xxAA_s132_6.0.0.dir/__/__/mesh/prov/src/prov_provisioner.c.obj
 .debug_line    0x0000a93a      0x62a examples/dfu/CMakeFiles/dfu_nrf52832_xxAA_s132_6.0.0.dir/__/__/mesh/prov/src/prov_provisionee.c.obj
 .debug_line    0x0000af64      0x560 examples/dfu/CMakeFiles/dfu_nrf52832_xxAA_s132_6.0.0.dir/__/__/mesh/prov/src/nrf_mesh_prov.c.obj
 .debug_line    0x0000b4c4      0x3ba examples/dfu/CMakeFiles/dfu_nrf52832_xxAA_s132_6.0.0.dir/__/__/mesh/prov/src/provisioning.c.obj
 .debug_line    0x0000b87e      0x460 examples/dfu/CMakeFiles/dfu_nrf52832_xxAA_s132_6.0.0.dir/__/__/mesh/prov/src/prov_beacon.c.obj
 .debug_line    0x0000bcde      0x49d examples/dfu/CMakeFiles/dfu_nrf52832_xxAA_s132_6.0.0.dir/__/__/mesh/prov/src/prov_utils.c.obj
 .debug_line    0x0000c17b      0xb27 examples/dfu/CMakeFiles/dfu_nrf52832_xxAA_s132_6.0.0.dir/__/__/mesh/prov/src/prov_bearer_adv.c.obj
 .debug_line    0x0000cca2      0xddd examples/dfu/CMakeFiles/dfu_nrf52832_xxAA_s132_6.0.0.dir/__/__/mesh/dfu/src/nrf_mesh_dfu.c.obj
 .debug_line    0x0000da7f      0x485 examples/dfu/CMakeFiles/dfu_nrf52832_xxAA_s132_6.0.0.dir/__/common/src/app_error_weak.c.obj
 .debug_line    0x0000df04      0x23a examples/dfu/CMakeFiles/dfu_nrf52832_xxAA_s132_6.0.0.dir/__/common/src/assertion_handler_weak.c.obj
 .debug_line    0x0000e13e      0x22b examples/dfu/CMakeFiles/dfu_nrf52832_xxAA_s132_6.0.0.dir/__/__/mesh/core/src/nrf_mesh_configure.c.obj
 .debug_line    0x0000e369      0x259 examples/dfu/CMakeFiles/dfu_nrf52832_xxAA_s132_6.0.0.dir/__/__/mesh/core/src/aes.c.obj
 .debug_line    0x0000e5c2      0x261 examples/dfu/CMakeFiles/dfu_nrf52832_xxAA_s132_6.0.0.dir/__/__/mesh/core/src/msg_cache.c.obj
 .debug_line    0x0000e823      0xcc3 examples/dfu/CMakeFiles/dfu_nrf52832_xxAA_s132_6.0.0.dir/__/__/mesh/core/src/transport.c.obj
 .debug_line    0x0000f4e6      0x2e9 examples/dfu/CMakeFiles/dfu_nrf52832_xxAA_s132_6.0.0.dir/__/__/mesh/core/src/event.c.obj
 .debug_line    0x0000f7cf      0x4b5 examples/dfu/CMakeFiles/dfu_nrf52832_xxAA_s132_6.0.0.dir/__/__/mesh/core/src/packet_buffer.c.obj
 .debug_line    0x0000fc84      0x6d7 examples/dfu/CMakeFiles/dfu_nrf52832_xxAA_s132_6.0.0.dir/__/__/mesh/core/src/flash_manager_defrag.c.obj
 .debug_line    0x0001035b      0x378 examples/dfu/CMakeFiles/dfu_nrf52832_xxAA_s132_6.0.0.dir/__/__/mesh/core/src/fifo.c.obj
 .debug_line    0x000106d3      0x23c examples/dfu/CMakeFiles/dfu_nrf52832_xxAA_s132_6.0.0.dir/__/__/mesh/core/src/nrf_flash.c.obj
 .debug_line    0x0001090f      0x41d examples/dfu/CMakeFiles/dfu_nrf52832_xxAA_s132_6.0.0.dir/__/__/mesh/core/src/packet_mgr.c.obj
 .debug_line    0x00010d2c      0x6bc examples/dfu/CMakeFiles/dfu_nrf52832_xxAA_s132_6.0.0.dir/__/__/mesh/core/src/net_state.c.obj
 .debug_line    0x000113e8      0x514 examples/dfu/CMakeFiles/dfu_nrf52832_xxAA_s132_6.0.0.dir/__/__/mesh/core/src/mesh_flash.c.obj
 .debug_line    0x000118fc      0x255 examples/dfu/CMakeFiles/dfu_nrf52832_xxAA_s132_6.0.0.dir/__/__/mesh/core/src/nrf_mesh_utils.c.obj
 .debug_line    0x00011b51      0x759 examples/dfu/CMakeFiles/dfu_nrf52832_xxAA_s132_6.0.0.dir/__/__/mesh/core/src/nrf_mesh.c.obj
 .debug_line    0x000122aa      0x28d examples/dfu/CMakeFiles/dfu_nrf52832_xxAA_s132_6.0.0.dir/__/__/mesh/core/src/queue.c.obj
 .debug_line    0x00012537      0x21f examples/dfu/CMakeFiles/dfu_nrf52832_xxAA_s132_6.0.0.dir/__/__/mesh/core/src/hal.c.obj
 .debug_line    0x00012756      0x2d2 examples/dfu/CMakeFiles/dfu_nrf52832_xxAA_s132_6.0.0.dir/__/__/mesh/core/src/aes_cmac.c.obj
 .debug_line    0x00012a28      0x42b examples/dfu/CMakeFiles/dfu_nrf52832_xxAA_s132_6.0.0.dir/__/__/mesh/core/src/timer_scheduler.c.obj
 .debug_line    0x00012e53      0x3ab examples/dfu/CMakeFiles/dfu_nrf52832_xxAA_s132_6.0.0.dir/__/__/mesh/core/src/timer.c.obj
 .debug_line    0x000131fe      0x124 examples/dfu/CMakeFiles/dfu_nrf52832_xxAA_s132_6.0.0.dir/__/__/mesh/core/src/ticker.c.obj
 .debug_line    0x00013322      0x278 examples/dfu/CMakeFiles/dfu_nrf52832_xxAA_s132_6.0.0.dir/__/__/mesh/core/src/rand.c.obj
 .debug_line    0x0001359a      0x263 examples/dfu/CMakeFiles/dfu_nrf52832_xxAA_s132_6.0.0.dir/__/__/mesh/core/src/nrf_mesh_opt.c.obj
 .debug_line    0x000137fd      0x55a examples/dfu/CMakeFiles/dfu_nrf52832_xxAA_s132_6.0.0.dir/__/__/mesh/core/src/timeslot.c.obj
 .debug_line    0x00013d57      0x513 examples/dfu/CMakeFiles/dfu_nrf52832_xxAA_s132_6.0.0.dir/__/__/mesh/core/src/bearer_event.c.obj
 .debug_line    0x0001426a      0x41f examples/dfu/CMakeFiles/dfu_nrf52832_xxAA_s132_6.0.0.dir/__/__/mesh/core/src/enc.c.obj
 .debug_line    0x00014689      0x532 examples/dfu/CMakeFiles/dfu_nrf52832_xxAA_s132_6.0.0.dir/__/__/mesh/core/src/network.c.obj
 .debug_line    0x00014bbb      0x55a examples/dfu/CMakeFiles/dfu_nrf52832_xxAA_s132_6.0.0.dir/__/__/mesh/core/src/net_packet.c.obj
 .debug_line    0x00015115      0x2fc examples/dfu/CMakeFiles/dfu_nrf52832_xxAA_s132_6.0.0.dir/__/__/mesh/core/src/msqueue.c.obj
 .debug_line    0x00015411      0x232 examples/dfu/CMakeFiles/dfu_nrf52832_xxAA_s132_6.0.0.dir/__/__/mesh/core/src/nrf_mesh_keygen.c.obj
 .debug_line    0x00015643      0x2dc examples/dfu/CMakeFiles/dfu_nrf52832_xxAA_s132_6.0.0.dir/__/__/mesh/core/src/list.c.obj
 .debug_line    0x0001591f      0x281 examples/dfu/CMakeFiles/dfu_nrf52832_xxAA_s132_6.0.0.dir/__/__/mesh/core/src/log.c.obj
 .debug_line    0x00015ba0      0x902 examples/dfu/CMakeFiles/dfu_nrf52832_xxAA_s132_6.0.0.dir/__/__/mesh/core/src/flash_manager.c.obj
 .debug_line    0x000164a2      0x349 examples/dfu/CMakeFiles/dfu_nrf52832_xxAA_s132_6.0.0.dir/__/__/mesh/core/src/ccm_soft.c.obj
 .debug_line    0x000167eb      0x1cd examples/dfu/CMakeFiles/dfu_nrf52832_xxAA_s132_6.0.0.dir/__/__/mesh/core/src/replay_cache.c.obj
 .debug_line    0x000169b8      0x490 examples/dfu/CMakeFiles/dfu_nrf52832_xxAA_s132_6.0.0.dir/__/__/mesh/core/src/beacon.c.obj
 .debug_line    0x00016e48      0x275 examples/dfu/CMakeFiles/dfu_nrf52832_xxAA_s132_6.0.0.dir/__/__/mesh/core/src/flash_manager_internal.c.obj
 .debug_line    0x000170bd      0x3a2 examples/dfu/CMakeFiles/dfu_nrf52832_xxAA_s132_6.0.0.dir/__/__/mesh/core/src/core_tx.c.obj
 .debug_line    0x0001745f      0x5a9 examples/dfu/CMakeFiles/dfu_nrf52832_xxAA_s132_6.0.0.dir/__/__/mesh/core/src/heartbeat.c.obj
 .debug_line    0x00017a08      0x5fa examples/dfu/CMakeFiles/dfu_nrf52832_xxAA_s132_6.0.0.dir/__/__/mesh/core/src/net_beacon.c.obj
 .debug_line    0x00018002      0x4c2 examples/dfu/CMakeFiles/dfu_nrf52832_xxAA_s132_6.0.0.dir/__/__/mesh/core/src/core_tx_adv.c.obj
 .debug_line    0x000184c4      0x339 examples/dfu/CMakeFiles/dfu_nrf52832_xxAA_s132_6.0.0.dir/__/__/mesh/bearer/src/ad_listener.c.obj
 .debug_line    0x000187fd      0x3ee examples/dfu/CMakeFiles/dfu_nrf52832_xxAA_s132_6.0.0.dir/__/__/mesh/bearer/src/ad_type_filter.c.obj
 .debug_line    0x00018beb      0x6d9 examples/dfu/CMakeFiles/dfu_nrf52832_xxAA_s132_6.0.0.dir/__/__/mesh/bearer/src/advertiser.c.obj
 .debug_line    0x000192c4      0x4a1 examples/dfu/CMakeFiles/dfu_nrf52832_xxAA_s132_6.0.0.dir/__/__/mesh/bearer/src/bearer_handler.c.obj
 .debug_line    0x00019765      0x35d examples/dfu/CMakeFiles/dfu_nrf52832_xxAA_s132_6.0.0.dir/__/__/mesh/bearer/src/broadcast.c.obj
 .debug_line    0x00019ac2      0x32c examples/dfu/CMakeFiles/dfu_nrf52832_xxAA_s132_6.0.0.dir/__/__/mesh/bearer/src/filter_engine.c.obj
 .debug_line    0x00019dee      0x292 examples/dfu/CMakeFiles/dfu_nrf52832_xxAA_s132_6.0.0.dir/__/__/mesh/bearer/src/radio_config.c.obj
 .debug_line    0x0001a080      0x688 examples/dfu/CMakeFiles/dfu_nrf52832_xxAA_s132_6.0.0.dir/__/__/mesh/bearer/src/scanner.c.obj
 .debug_line    0x0001a708      0x24f examples/dfu/CMakeFiles/dfu_nrf52832_xxAA_s132_6.0.0.dir/C_/ver/mod/nRF5_SDK_15.0.0_a53641a/modules/nrfx/mdk/system_nrf52.c.obj
 .debug_line    0x0001a957      0x272 examples/dfu/CMakeFiles/dfu_nrf52832_xxAA_s132_6.0.0.dir/C_/ver/mod/nRF5_SDK_15.0.0_a53641a/components/libraries/util/app_error.c.obj
 .debug_line    0x0001abc9      0x217 examples/dfu/CMakeFiles/dfu_nrf52832_xxAA_s132_6.0.0.dir/C_/ver/mod/nRF5_SDK_15.0.0_a53641a/components/libraries/util/app_error_handler_gcc.c.obj
 .debug_line    0x0001ade0      0x4c3 external/rtt/librtt_nrf52832_xxAA.a(SEGGER_RTT.c.obj)
 .debug_line    0x0001b2a3      0x285 external/rtt/librtt_nrf52832_xxAA.a(SEGGER_RTT_printf.c.obj)
 .debug_line    0x0001b528      0x9fd external/micro-ecc/libuECC_nrf52832_xxAA.a(uECC.c.obj)

.debug_str      0x00000000    0x165ce
 .debug_str     0x00000000     0x2b04 examples/dfu/CMakeFiles/dfu_nrf52832_xxAA_s132_6.0.0.dir/src/main.c.obj
                               0x2fcb (size before relaxing)
 .debug_str     0x00002b04      0x2d9 examples/dfu/CMakeFiles/dfu_nrf52832_xxAA_s132_6.0.0.dir/__/__/mesh/stack/src/mesh_stack.c.obj
                               0x272e (size before relaxing)
 .debug_str     0x00002ddd      0x317 examples/dfu/CMakeFiles/dfu_nrf52832_xxAA_s132_6.0.0.dir/__/common/src/mesh_softdevice_init.c.obj
                               0x117c (size before relaxing)
 .debug_str     0x000030f4     0x17ea examples/dfu/CMakeFiles/dfu_nrf52832_xxAA_s132_6.0.0.dir/__/common/src/mesh_provisionee.c.obj
                               0x2441 (size before relaxing)
 .debug_str     0x000048de      0x206 examples/dfu/CMakeFiles/dfu_nrf52832_xxAA_s132_6.0.0.dir/__/common/src/simple_hal.c.obj
                                0xceb (size before relaxing)
 .debug_str     0x00004ae4      0x365 examples/dfu/CMakeFiles/dfu_nrf52832_xxAA_s132_6.0.0.dir/__/__/mesh/access/src/access_publish.c.obj
                                0xbcc (size before relaxing)
 .debug_str     0x00004e49     0x12f3 examples/dfu/CMakeFiles/dfu_nrf52832_xxAA_s132_6.0.0.dir/__/__/mesh/access/src/access.c.obj
                               0x2f65 (size before relaxing)
 .debug_str     0x0000613c      0x213 examples/dfu/CMakeFiles/dfu_nrf52832_xxAA_s132_6.0.0.dir/__/__/mesh/access/src/access_reliable.c.obj
                               0x1006 (size before relaxing)
 .debug_str     0x0000634f     0x1119 examples/dfu/CMakeFiles/dfu_nrf52832_xxAA_s132_6.0.0.dir/__/__/mesh/access/src/device_state_manager.c.obj
                               0x3068 (size before relaxing)
 .debug_str     0x00007468      0x1e5 examples/dfu/CMakeFiles/dfu_nrf52832_xxAA_s132_6.0.0.dir/__/__/mesh/serial/src/serial_uart.c.obj
                                0xc15 (size before relaxing)
 .debug_str     0x0000764d     0x1846 examples/dfu/CMakeFiles/dfu_nrf52832_xxAA_s132_6.0.0.dir/__/__/mesh/serial/src/serial_bearer.c.obj
                               0x2a0b (size before relaxing)
 .debug_str     0x00008e93      0x132 examples/dfu/CMakeFiles/dfu_nrf52832_xxAA_s132_6.0.0.dir/__/__/mesh/serial/src/serial_handler_common.c.obj
                               0x214d (size before relaxing)
 .debug_str     0x00008fc5      0x196 examples/dfu/CMakeFiles/dfu_nrf52832_xxAA_s132_6.0.0.dir/__/__/mesh/serial/src/serial_handler_access.c.obj
                               0x2641 (size before relaxing)
 .debug_str     0x0000915b       0xa9 examples/dfu/CMakeFiles/dfu_nrf52832_xxAA_s132_6.0.0.dir/__/__/mesh/serial/src/serial_handler_config.c.obj
                               0x2108 (size before relaxing)
 .debug_str     0x00009204       0x58 examples/dfu/CMakeFiles/dfu_nrf52832_xxAA_s132_6.0.0.dir/__/__/mesh/serial/src/serial_handler_openmesh.c.obj
                               0x2094 (size before relaxing)
 .debug_str     0x0000925c      0x2ac examples/dfu/CMakeFiles/dfu_nrf52832_xxAA_s132_6.0.0.dir/__/__/mesh/serial/src/serial.c.obj
                               0x255d (size before relaxing)
 .debug_str     0x00009508      0x257 examples/dfu/CMakeFiles/dfu_nrf52832_xxAA_s132_6.0.0.dir/__/__/mesh/serial/src/serial_handler_prov.c.obj
                               0x3f37 (size before relaxing)
 .debug_str     0x0000975f      0x274 examples/dfu/CMakeFiles/dfu_nrf52832_xxAA_s132_6.0.0.dir/__/__/mesh/serial/src/serial_handler_dfu.c.obj
                               0x321e (size before relaxing)
 .debug_str     0x000099d3      0x480 examples/dfu/CMakeFiles/dfu_nrf52832_xxAA_s132_6.0.0.dir/__/__/mesh/serial/src/serial_handler_mesh.c.obj
                               0x37e9 (size before relaxing)
 .debug_str     0x00009e53      0x16f examples/dfu/CMakeFiles/dfu_nrf52832_xxAA_s132_6.0.0.dir/__/__/mesh/serial/src/serial_handler_models.c.obj
                               0x22f2 (size before relaxing)
 .debug_str     0x00009fc2      0x276 examples/dfu/CMakeFiles/dfu_nrf52832_xxAA_s132_6.0.0.dir/__/__/mesh/serial/src/serial_handler_device.c.obj
                               0x29c8 (size before relaxing)
 .debug_str     0x0000a238       0x88 examples/dfu/CMakeFiles/dfu_nrf52832_xxAA_s132_6.0.0.dir/__/__/mesh/serial/src/nrf_mesh_serial.c.obj
                               0x2222 (size before relaxing)
 .debug_str     0x0000a2c0       0x4a examples/dfu/CMakeFiles/dfu_nrf52832_xxAA_s132_6.0.0.dir/__/__/mesh/serial/src/serial_handler_app.c.obj
                               0x20ab (size before relaxing)
 .debug_str     0x0000a30a      0x183 examples/dfu/CMakeFiles/dfu_nrf52832_xxAA_s132_6.0.0.dir/__/__/models/config/src/composition_data.c.obj
                                0x8dd (size before relaxing)
 .debug_str     0x0000a48d     0x23ed examples/dfu/CMakeFiles/dfu_nrf52832_xxAA_s132_6.0.0.dir/__/__/models/config/src/config_server.c.obj
                               0x4fe9 (size before relaxing)
 .debug_str     0x0000c87a       0x69 examples/dfu/CMakeFiles/dfu_nrf52832_xxAA_s132_6.0.0.dir/__/__/models/config/src/packed_index_list.c.obj
                                0x24d (size before relaxing)
 .debug_str     0x0000c8e3      0x5cd examples/dfu/CMakeFiles/dfu_nrf52832_xxAA_s132_6.0.0.dir/__/__/models/health/src/health_server.c.obj
                               0x169f (size before relaxing)
 .debug_str     0x0000ceb0      0x54e examples/dfu/CMakeFiles/dfu_nrf52832_xxAA_s132_6.0.0.dir/__/__/mesh/prov/src/prov_provisioner.c.obj
                               0x1f74 (size before relaxing)
 .debug_str     0x0000d3fe      0x28d examples/dfu/CMakeFiles/dfu_nrf52832_xxAA_s132_6.0.0.dir/__/__/mesh/prov/src/prov_provisionee.c.obj
                               0x21e8 (size before relaxing)
 .debug_str     0x0000d68b      0x144 examples/dfu/CMakeFiles/dfu_nrf52832_xxAA_s132_6.0.0.dir/__/__/mesh/prov/src/nrf_mesh_prov.c.obj
                               0x1dda (size before relaxing)
 .debug_str     0x0000d7cf       0xc3 examples/dfu/CMakeFiles/dfu_nrf52832_xxAA_s132_6.0.0.dir/__/__/mesh/prov/src/provisioning.c.obj
                                0xf2b (size before relaxing)
 .debug_str     0x0000d892       0xea examples/dfu/CMakeFiles/dfu_nrf52832_xxAA_s132_6.0.0.dir/__/__/mesh/prov/src/prov_beacon.c.obj
                               0x195c (size before relaxing)
 .debug_str     0x0000d97c      0x1e2 examples/dfu/CMakeFiles/dfu_nrf52832_xxAA_s132_6.0.0.dir/__/__/mesh/prov/src/prov_utils.c.obj
                               0x1f04 (size before relaxing)
 .debug_str     0x0000db5e      0x48f examples/dfu/CMakeFiles/dfu_nrf52832_xxAA_s132_6.0.0.dir/__/__/mesh/prov/src/prov_bearer_adv.c.obj
                               0x1bc0 (size before relaxing)
 .debug_str     0x0000dfed     0x142b examples/dfu/CMakeFiles/dfu_nrf52832_xxAA_s132_6.0.0.dir/__/__/mesh/dfu/src/nrf_mesh_dfu.c.obj
                               0x3715 (size before relaxing)
 .debug_str     0x0000f418       0x97 examples/dfu/CMakeFiles/dfu_nrf52832_xxAA_s132_6.0.0.dir/__/common/src/app_error_weak.c.obj
                                0x85d (size before relaxing)
 .debug_str     0x0000f4af       0x30 examples/dfu/CMakeFiles/dfu_nrf52832_xxAA_s132_6.0.0.dir/__/common/src/assertion_handler_weak.c.obj
                                0x672 (size before relaxing)
 .debug_str     0x0000f4df       0x52 examples/dfu/CMakeFiles/dfu_nrf52832_xxAA_s132_6.0.0.dir/__/__/mesh/core/src/nrf_mesh_configure.c.obj
                                0x77e (size before relaxing)
 .debug_str     0x0000f531       0xc1 examples/dfu/CMakeFiles/dfu_nrf52832_xxAA_s132_6.0.0.dir/__/__/mesh/core/src/aes.c.obj
                                0xa89 (size before relaxing)
 .debug_str     0x0000f5f2       0xb2 examples/dfu/CMakeFiles/dfu_nrf52832_xxAA_s132_6.0.0.dir/__/__/mesh/core/src/msg_cache.c.obj
                                0x6b9 (size before relaxing)
 .debug_str     0x0000f6a4     0x1181 examples/dfu/CMakeFiles/dfu_nrf52832_xxAA_s132_6.0.0.dir/__/__/mesh/core/src/transport.c.obj
                               0x3106 (size before relaxing)
 .debug_str     0x00010825       0x82 examples/dfu/CMakeFiles/dfu_nrf52832_xxAA_s132_6.0.0.dir/__/__/mesh/core/src/event.c.obj
                               0x16b3 (size before relaxing)
 .debug_str     0x000108a7      0x178 examples/dfu/CMakeFiles/dfu_nrf52832_xxAA_s132_6.0.0.dir/__/__/mesh/core/src/packet_buffer.c.obj
                                0xaac (size before relaxing)
 .debug_str     0x00010a1f      0x49f examples/dfu/CMakeFiles/dfu_nrf52832_xxAA_s132_6.0.0.dir/__/__/mesh/core/src/flash_manager_defrag.c.obj
                               0x1104 (size before relaxing)
 .debug_str     0x00010ebe       0x9e examples/dfu/CMakeFiles/dfu_nrf52832_xxAA_s132_6.0.0.dir/__/__/mesh/core/src/fifo.c.obj
                                0x6db (size before relaxing)
 .debug_str     0x00010f5c       0xaa examples/dfu/CMakeFiles/dfu_nrf52832_xxAA_s132_6.0.0.dir/__/__/mesh/core/src/nrf_flash.c.obj
                                0x6bb (size before relaxing)
 .debug_str     0x00011006      0x276 examples/dfu/CMakeFiles/dfu_nrf52832_xxAA_s132_6.0.0.dir/__/__/mesh/core/src/packet_mgr.c.obj
                                0x9a5 (size before relaxing)
 .debug_str     0x0001127c      0x3cf examples/dfu/CMakeFiles/dfu_nrf52832_xxAA_s132_6.0.0.dir/__/__/mesh/core/src/net_state.c.obj
                               0x2148 (size before relaxing)
 .debug_str     0x0001164b      0x34a examples/dfu/CMakeFiles/dfu_nrf52832_xxAA_s132_6.0.0.dir/__/__/mesh/core/src/mesh_flash.c.obj
                                0xcdc (size before relaxing)
 .debug_str     0x00011995       0x8b examples/dfu/CMakeFiles/dfu_nrf52832_xxAA_s132_6.0.0.dir/__/__/mesh/core/src/nrf_mesh_utils.c.obj
                                0x751 (size before relaxing)
 .debug_str     0x00011a20      0x459 examples/dfu/CMakeFiles/dfu_nrf52832_xxAA_s132_6.0.0.dir/__/__/mesh/core/src/nrf_mesh.c.obj
                               0x2137 (size before relaxing)
 .debug_str     0x00011e79       0x5b examples/dfu/CMakeFiles/dfu_nrf52832_xxAA_s132_6.0.0.dir/__/__/mesh/core/src/queue.c.obj
                                0x683 (size before relaxing)
 .debug_str     0x00011ed4       0xb5 examples/dfu/CMakeFiles/dfu_nrf52832_xxAA_s132_6.0.0.dir/__/__/mesh/core/src/hal.c.obj
                                0x749 (size before relaxing)
 .debug_str     0x00011f89       0xd0 examples/dfu/CMakeFiles/dfu_nrf52832_xxAA_s132_6.0.0.dir/__/__/mesh/core/src/aes_cmac.c.obj
                                0x715 (size before relaxing)
 .debug_str     0x00012059      0x13d examples/dfu/CMakeFiles/dfu_nrf52832_xxAA_s132_6.0.0.dir/__/__/mesh/core/src/timer_scheduler.c.obj
                                0x934 (size before relaxing)
 .debug_str     0x00012196      0x21b examples/dfu/CMakeFiles/dfu_nrf52832_xxAA_s132_6.0.0.dir/__/__/mesh/core/src/timer.c.obj
                                0x869 (size before relaxing)
 .debug_str     0x000123b1       0x3c examples/dfu/CMakeFiles/dfu_nrf52832_xxAA_s132_6.0.0.dir/__/__/mesh/core/src/ticker.c.obj
                                0x34c (size before relaxing)
 .debug_str     0x000123ed       0x88 examples/dfu/CMakeFiles/dfu_nrf52832_xxAA_s132_6.0.0.dir/__/__/mesh/core/src/rand.c.obj
                                0x6dd (size before relaxing)
 .debug_str     0x00012475       0x40 examples/dfu/CMakeFiles/dfu_nrf52832_xxAA_s132_6.0.0.dir/__/__/mesh/core/src/nrf_mesh_opt.c.obj
                                0x8f0 (size before relaxing)
 .debug_str     0x000124b5      0x8af examples/dfu/CMakeFiles/dfu_nrf52832_xxAA_s132_6.0.0.dir/__/__/mesh/core/src/timeslot.c.obj
                               0x17f6 (size before relaxing)
 .debug_str     0x00012d64      0x278 examples/dfu/CMakeFiles/dfu_nrf52832_xxAA_s132_6.0.0.dir/__/__/mesh/core/src/bearer_event.c.obj
                                0xeb9 (size before relaxing)
 .debug_str     0x00012fdc      0x153 examples/dfu/CMakeFiles/dfu_nrf52832_xxAA_s132_6.0.0.dir/__/__/mesh/core/src/enc.c.obj
                                0x9ef (size before relaxing)
 .debug_str     0x0001312f      0x2f9 examples/dfu/CMakeFiles/dfu_nrf52832_xxAA_s132_6.0.0.dir/__/__/mesh/core/src/network.c.obj
                               0x12e8 (size before relaxing)
 .debug_str     0x00013428      0x2f2 examples/dfu/CMakeFiles/dfu_nrf52832_xxAA_s132_6.0.0.dir/__/__/mesh/core/src/net_packet.c.obj
                                0xe86 (size before relaxing)
 .debug_str     0x0001371a       0x53 examples/dfu/CMakeFiles/dfu_nrf52832_xxAA_s132_6.0.0.dir/__/__/mesh/core/src/msqueue.c.obj
                                0x6bf (size before relaxing)
 .debug_str     0x0001376d       0x57 examples/dfu/CMakeFiles/dfu_nrf52832_xxAA_s132_6.0.0.dir/__/__/mesh/core/src/nrf_mesh_keygen.c.obj
                                0x397 (size before relaxing)
 .debug_str     0x000137c4       0x65 examples/dfu/CMakeFiles/dfu_nrf52832_xxAA_s132_6.0.0.dir/__/__/mesh/core/src/list.c.obj
                                0x2be (size before relaxing)
 .debug_str     0x00013829      0x184 examples/dfu/CMakeFiles/dfu_nrf52832_xxAA_s132_6.0.0.dir/__/__/mesh/core/src/log.c.obj
                                0x7d0 (size before relaxing)
 .debug_str     0x000139ad      0x4e4 examples/dfu/CMakeFiles/dfu_nrf52832_xxAA_s132_6.0.0.dir/__/__/mesh/core/src/flash_manager.c.obj
                               0x1578 (size before relaxing)
 .debug_str     0x00013e91       0x85 examples/dfu/CMakeFiles/dfu_nrf52832_xxAA_s132_6.0.0.dir/__/__/mesh/core/src/ccm_soft.c.obj
                                0x75d (size before relaxing)
 .debug_str     0x00013f16       0x92 examples/dfu/CMakeFiles/dfu_nrf52832_xxAA_s132_6.0.0.dir/__/__/mesh/core/src/replay_cache.c.obj
                                0x68d (size before relaxing)
 .debug_str     0x00013fa8       0x8b examples/dfu/CMakeFiles/dfu_nrf52832_xxAA_s132_6.0.0.dir/__/__/mesh/core/src/beacon.c.obj
                               0x1103 (size before relaxing)
 .debug_str     0x00014033       0x38 examples/dfu/CMakeFiles/dfu_nrf52832_xxAA_s132_6.0.0.dir/__/__/mesh/core/src/flash_manager_internal.c.obj
                                0x7a4 (size before relaxing)
 .debug_str     0x0001406b      0x2be examples/dfu/CMakeFiles/dfu_nrf52832_xxAA_s132_6.0.0.dir/__/__/mesh/core/src/core_tx.c.obj
                                0xbef (size before relaxing)
 .debug_str     0x00014329      0x35b examples/dfu/CMakeFiles/dfu_nrf52832_xxAA_s132_6.0.0.dir/__/__/mesh/core/src/heartbeat.c.obj
                               0x2240 (size before relaxing)
 .debug_str     0x00014684      0x1ae examples/dfu/CMakeFiles/dfu_nrf52832_xxAA_s132_6.0.0.dir/__/__/mesh/core/src/net_beacon.c.obj
                               0x20a0 (size before relaxing)
 .debug_str     0x00014832       0xfb examples/dfu/CMakeFiles/dfu_nrf52832_xxAA_s132_6.0.0.dir/__/__/mesh/core/src/core_tx_adv.c.obj
                               0x12d9 (size before relaxing)
 .debug_str     0x0001492d      0x179 examples/dfu/CMakeFiles/dfu_nrf52832_xxAA_s132_6.0.0.dir/__/__/mesh/bearer/src/ad_listener.c.obj
                                0xbe2 (size before relaxing)
 .debug_str     0x00014aa6      0x14f examples/dfu/CMakeFiles/dfu_nrf52832_xxAA_s132_6.0.0.dir/__/__/mesh/bearer/src/ad_type_filter.c.obj
                                0x99f (size before relaxing)
 .debug_str     0x00014bf5      0x2b1 examples/dfu/CMakeFiles/dfu_nrf52832_xxAA_s132_6.0.0.dir/__/__/mesh/bearer/src/advertiser.c.obj
                               0x14f2 (size before relaxing)
 .debug_str     0x00014ea6      0x2f4 examples/dfu/CMakeFiles/dfu_nrf52832_xxAA_s132_6.0.0.dir/__/__/mesh/bearer/src/bearer_handler.c.obj
                                0xf75 (size before relaxing)
 .debug_str     0x0001519a      0x1ac examples/dfu/CMakeFiles/dfu_nrf52832_xxAA_s132_6.0.0.dir/__/__/mesh/bearer/src/broadcast.c.obj
                                0xf2c (size before relaxing)
 .debug_str     0x00015346       0x72 examples/dfu/CMakeFiles/dfu_nrf52832_xxAA_s132_6.0.0.dir/__/__/mesh/bearer/src/filter_engine.c.obj
                                0x80c (size before relaxing)
 .debug_str     0x000153b8       0x79 examples/dfu/CMakeFiles/dfu_nrf52832_xxAA_s132_6.0.0.dir/__/__/mesh/bearer/src/radio_config.c.obj
                                0x77a (size before relaxing)
 .debug_str     0x00015431      0x45d examples/dfu/CMakeFiles/dfu_nrf52832_xxAA_s132_6.0.0.dir/__/__/mesh/bearer/src/scanner.c.obj
                               0x18be (size before relaxing)
 .debug_str     0x0001588e      0x222 examples/dfu/CMakeFiles/dfu_nrf52832_xxAA_s132_6.0.0.dir/C_/ver/mod/nRF5_SDK_15.0.0_a53641a/modules/nrfx/mdk/system_nrf52.c.obj
                                0x768 (size before relaxing)
 .debug_str     0x00015ab0       0xa2 examples/dfu/CMakeFiles/dfu_nrf52832_xxAA_s132_6.0.0.dir/C_/ver/mod/nRF5_SDK_15.0.0_a53641a/components/libraries/util/app_error.c.obj
                                0x72a (size before relaxing)
 .debug_str     0x00015b52       0x55 examples/dfu/CMakeFiles/dfu_nrf52832_xxAA_s132_6.0.0.dir/C_/ver/mod/nRF5_SDK_15.0.0_a53641a/components/libraries/util/app_error_handler_gcc.c.obj
                                0x68f (size before relaxing)
 .debug_str     0x00015ba7      0x2d1 external/rtt/librtt_nrf52832_xxAA.a(SEGGER_RTT.c.obj)
                                0x922 (size before relaxing)
 .debug_str     0x00015e78       0xdf external/rtt/librtt_nrf52832_xxAA.a(SEGGER_RTT_printf.c.obj)
                                0x792 (size before relaxing)
 .debug_str     0x00015f57      0x677 external/micro-ecc/libuECC_nrf52832_xxAA.a(uECC.c.obj)
                                0x880 (size before relaxing)

.debug_frame    0x00000000     0x7c00
 .debug_frame   0x00000000       0x88 examples/dfu/CMakeFiles/dfu_nrf52832_xxAA_s132_6.0.0.dir/src/main.c.obj
 .debug_frame   0x00000088       0xcc examples/dfu/CMakeFiles/dfu_nrf52832_xxAA_s132_6.0.0.dir/__/__/mesh/stack/src/mesh_stack.c.obj
 .debug_frame   0x00000154       0x80 examples/dfu/CMakeFiles/dfu_nrf52832_xxAA_s132_6.0.0.dir/__/common/src/mesh_softdevice_init.c.obj
 .debug_frame   0x000001d4       0x70 examples/dfu/CMakeFiles/dfu_nrf52832_xxAA_s132_6.0.0.dir/__/common/src/mesh_provisionee.c.obj
 .debug_frame   0x00000244       0xa0 examples/dfu/CMakeFiles/dfu_nrf52832_xxAA_s132_6.0.0.dir/__/common/src/simple_hal.c.obj
 .debug_frame   0x000002e4      0x114 examples/dfu/CMakeFiles/dfu_nrf52832_xxAA_s132_6.0.0.dir/__/__/mesh/access/src/access_publish.c.obj
 .debug_frame   0x000003f8      0x5b0 examples/dfu/CMakeFiles/dfu_nrf52832_xxAA_s132_6.0.0.dir/__/__/mesh/access/src/access.c.obj
 .debug_frame   0x000009a8      0x120 examples/dfu/CMakeFiles/dfu_nrf52832_xxAA_s132_6.0.0.dir/__/__/mesh/access/src/access_reliable.c.obj
 .debug_frame   0x00000ac8      0xaf4 examples/dfu/CMakeFiles/dfu_nrf52832_xxAA_s132_6.0.0.dir/__/__/mesh/access/src/device_state_manager.c.obj
 .debug_frame   0x000015bc       0x68 examples/dfu/CMakeFiles/dfu_nrf52832_xxAA_s132_6.0.0.dir/__/__/mesh/serial/src/serial_uart.c.obj
 .debug_frame   0x00001624      0x150 examples/dfu/CMakeFiles/dfu_nrf52832_xxAA_s132_6.0.0.dir/__/__/mesh/serial/src/serial_bearer.c.obj
 .debug_frame   0x00001774       0x64 examples/dfu/CMakeFiles/dfu_nrf52832_xxAA_s132_6.0.0.dir/__/__/mesh/serial/src/serial_handler_common.c.obj
 .debug_frame   0x000017d8      0x2ac examples/dfu/CMakeFiles/dfu_nrf52832_xxAA_s132_6.0.0.dir/__/__/mesh/serial/src/serial_handler_access.c.obj
 .debug_frame   0x00001a84       0x30 examples/dfu/CMakeFiles/dfu_nrf52832_xxAA_s132_6.0.0.dir/__/__/mesh/serial/src/serial_handler_config.c.obj
 .debug_frame   0x00001ab4       0x30 examples/dfu/CMakeFiles/dfu_nrf52832_xxAA_s132_6.0.0.dir/__/__/mesh/serial/src/serial_handler_openmesh.c.obj
 .debug_frame   0x00001ae4      0x100 examples/dfu/CMakeFiles/dfu_nrf52832_xxAA_s132_6.0.0.dir/__/__/mesh/serial/src/serial.c.obj
 .debug_frame   0x00001be4       0xb4 examples/dfu/CMakeFiles/dfu_nrf52832_xxAA_s132_6.0.0.dir/__/__/mesh/serial/src/serial_handler_prov.c.obj
 .debug_frame   0x00001c98       0x60 examples/dfu/CMakeFiles/dfu_nrf52832_xxAA_s132_6.0.0.dir/__/__/mesh/serial/src/serial_handler_dfu.c.obj
 .debug_frame   0x00001cf8      0x3a4 examples/dfu/CMakeFiles/dfu_nrf52832_xxAA_s132_6.0.0.dir/__/__/mesh/serial/src/serial_handler_mesh.c.obj
 .debug_frame   0x0000209c       0xc8 examples/dfu/CMakeFiles/dfu_nrf52832_xxAA_s132_6.0.0.dir/__/__/mesh/serial/src/serial_handler_models.c.obj
 .debug_frame   0x00002164      0x154 examples/dfu/CMakeFiles/dfu_nrf52832_xxAA_s132_6.0.0.dir/__/__/mesh/serial/src/serial_handler_device.c.obj
 .debug_frame   0x000022b8       0x6c examples/dfu/CMakeFiles/dfu_nrf52832_xxAA_s132_6.0.0.dir/__/__/mesh/serial/src/nrf_mesh_serial.c.obj
 .debug_frame   0x00002324       0x40 examples/dfu/CMakeFiles/dfu_nrf52832_xxAA_s132_6.0.0.dir/__/__/mesh/serial/src/serial_handler_app.c.obj
 .debug_frame   0x00002364       0x40 examples/dfu/CMakeFiles/dfu_nrf52832_xxAA_s132_6.0.0.dir/__/__/models/config/src/composition_data.c.obj
 .debug_frame   0x000023a4      0x8bc examples/dfu/CMakeFiles/dfu_nrf52832_xxAA_s132_6.0.0.dir/__/__/models/config/src/config_server.c.obj
 .debug_frame   0x00002c60       0x2c examples/dfu/CMakeFiles/dfu_nrf52832_xxAA_s132_6.0.0.dir/__/__/models/config/src/packed_index_list.c.obj
 .debug_frame   0x00002c8c      0x2a0 examples/dfu/CMakeFiles/dfu_nrf52832_xxAA_s132_6.0.0.dir/__/__/models/health/src/health_server.c.obj
 .debug_frame   0x00002f2c      0x190 examples/dfu/CMakeFiles/dfu_nrf52832_xxAA_s132_6.0.0.dir/__/__/mesh/prov/src/prov_provisioner.c.obj
 .debug_frame   0x000030bc      0x198 examples/dfu/CMakeFiles/dfu_nrf52832_xxAA_s132_6.0.0.dir/__/__/mesh/prov/src/prov_provisionee.c.obj
 .debug_frame   0x00003254      0x160 examples/dfu/CMakeFiles/dfu_nrf52832_xxAA_s132_6.0.0.dir/__/__/mesh/prov/src/nrf_mesh_prov.c.obj
 .debug_frame   0x000033b4      0x170 examples/dfu/CMakeFiles/dfu_nrf52832_xxAA_s132_6.0.0.dir/__/__/mesh/prov/src/provisioning.c.obj
 .debug_frame   0x00003524       0x84 examples/dfu/CMakeFiles/dfu_nrf52832_xxAA_s132_6.0.0.dir/__/__/mesh/prov/src/prov_beacon.c.obj
 .debug_frame   0x000035a8      0x150 examples/dfu/CMakeFiles/dfu_nrf52832_xxAA_s132_6.0.0.dir/__/__/mesh/prov/src/prov_utils.c.obj
 .debug_frame   0x000036f8      0x324 examples/dfu/CMakeFiles/dfu_nrf52832_xxAA_s132_6.0.0.dir/__/__/mesh/prov/src/prov_bearer_adv.c.obj
 .debug_frame   0x00003a1c      0x280 examples/dfu/CMakeFiles/dfu_nrf52832_xxAA_s132_6.0.0.dir/__/__/mesh/dfu/src/nrf_mesh_dfu.c.obj
 .debug_frame   0x00003c9c       0x34 examples/dfu/CMakeFiles/dfu_nrf52832_xxAA_s132_6.0.0.dir/__/common/src/app_error_weak.c.obj
 .debug_frame   0x00003cd0       0x28 examples/dfu/CMakeFiles/dfu_nrf52832_xxAA_s132_6.0.0.dir/__/common/src/assertion_handler_weak.c.obj
 .debug_frame   0x00003cf8       0x4c examples/dfu/CMakeFiles/dfu_nrf52832_xxAA_s132_6.0.0.dir/__/__/mesh/core/src/nrf_mesh_configure.c.obj
 .debug_frame   0x00003d44       0x40 examples/dfu/CMakeFiles/dfu_nrf52832_xxAA_s132_6.0.0.dir/__/__/mesh/core/src/aes.c.obj
 .debug_frame   0x00003d84       0x6c examples/dfu/CMakeFiles/dfu_nrf52832_xxAA_s132_6.0.0.dir/__/__/mesh/core/src/msg_cache.c.obj
 .debug_frame   0x00003df0      0x404 examples/dfu/CMakeFiles/dfu_nrf52832_xxAA_s132_6.0.0.dir/__/__/mesh/core/src/transport.c.obj
 .debug_frame   0x000041f4       0x64 examples/dfu/CMakeFiles/dfu_nrf52832_xxAA_s132_6.0.0.dir/__/__/mesh/core/src/event.c.obj
 .debug_frame   0x00004258      0x128 examples/dfu/CMakeFiles/dfu_nrf52832_xxAA_s132_6.0.0.dir/__/__/mesh/core/src/packet_buffer.c.obj
 .debug_frame   0x00004380      0x24c examples/dfu/CMakeFiles/dfu_nrf52832_xxAA_s132_6.0.0.dir/__/__/mesh/core/src/flash_manager_defrag.c.obj
 .debug_frame   0x000045cc       0xd0 examples/dfu/CMakeFiles/dfu_nrf52832_xxAA_s132_6.0.0.dir/__/__/mesh/core/src/fifo.c.obj
 .debug_frame   0x0000469c       0x54 examples/dfu/CMakeFiles/dfu_nrf52832_xxAA_s132_6.0.0.dir/__/__/mesh/core/src/nrf_flash.c.obj
 .debug_frame   0x000046f0       0xa0 examples/dfu/CMakeFiles/dfu_nrf52832_xxAA_s132_6.0.0.dir/__/__/mesh/core/src/packet_mgr.c.obj
 .debug_frame   0x00004790      0x298 examples/dfu/CMakeFiles/dfu_nrf52832_xxAA_s132_6.0.0.dir/__/__/mesh/core/src/net_state.c.obj
 .debug_frame   0x00004a28      0x150 examples/dfu/CMakeFiles/dfu_nrf52832_xxAA_s132_6.0.0.dir/__/__/mesh/core/src/mesh_flash.c.obj
 .debug_frame   0x00004b78       0x50 examples/dfu/CMakeFiles/dfu_nrf52832_xxAA_s132_6.0.0.dir/__/__/mesh/core/src/nrf_mesh_utils.c.obj
 .debug_frame   0x00004bc8      0x190 examples/dfu/CMakeFiles/dfu_nrf52832_xxAA_s132_6.0.0.dir/__/__/mesh/core/src/nrf_mesh.c.obj
 .debug_frame   0x00004d58       0x74 examples/dfu/CMakeFiles/dfu_nrf52832_xxAA_s132_6.0.0.dir/__/__/mesh/core/src/queue.c.obj
 .debug_frame   0x00004dcc       0x58 examples/dfu/CMakeFiles/dfu_nrf52832_xxAA_s132_6.0.0.dir/__/__/mesh/core/src/hal.c.obj
 .debug_frame   0x00004e24       0xa4 examples/dfu/CMakeFiles/dfu_nrf52832_xxAA_s132_6.0.0.dir/__/__/mesh/core/src/aes_cmac.c.obj
 .debug_frame   0x00004ec8      0x134 examples/dfu/CMakeFiles/dfu_nrf52832_xxAA_s132_6.0.0.dir/__/__/mesh/core/src/timer_scheduler.c.obj
 .debug_frame   0x00004ffc      0x10c examples/dfu/CMakeFiles/dfu_nrf52832_xxAA_s132_6.0.0.dir/__/__/mesh/core/src/timer.c.obj
 .debug_frame   0x00005108       0x4c examples/dfu/CMakeFiles/dfu_nrf52832_xxAA_s132_6.0.0.dir/__/__/mesh/core/src/ticker.c.obj
 .debug_frame   0x00005154       0x84 examples/dfu/CMakeFiles/dfu_nrf52832_xxAA_s132_6.0.0.dir/__/__/mesh/core/src/rand.c.obj
 .debug_frame   0x000051d8       0x30 examples/dfu/CMakeFiles/dfu_nrf52832_xxAA_s132_6.0.0.dir/__/__/mesh/core/src/nrf_mesh_opt.c.obj
 .debug_frame   0x00005208      0x1a0 examples/dfu/CMakeFiles/dfu_nrf52832_xxAA_s132_6.0.0.dir/__/__/mesh/core/src/timeslot.c.obj
 .debug_frame   0x000053a8      0x1bc examples/dfu/CMakeFiles/dfu_nrf52832_xxAA_s132_6.0.0.dir/__/__/mesh/core/src/bearer_event.c.obj
 .debug_frame   0x00005564      0x13c examples/dfu/CMakeFiles/dfu_nrf52832_xxAA_s132_6.0.0.dir/__/__/mesh/core/src/enc.c.obj
 .debug_frame   0x000056a0      0x100 examples/dfu/CMakeFiles/dfu_nrf52832_xxAA_s132_6.0.0.dir/__/__/mesh/core/src/network.c.obj
 .debug_frame   0x000057a0      0x114 examples/dfu/CMakeFiles/dfu_nrf52832_xxAA_s132_6.0.0.dir/__/__/mesh/core/src/net_packet.c.obj
 .debug_frame   0x000058b4       0xb4 examples/dfu/CMakeFiles/dfu_nrf52832_xxAA_s132_6.0.0.dir/__/__/mesh/core/src/msqueue.c.obj
 .debug_frame   0x00005968       0xb4 examples/dfu/CMakeFiles/dfu_nrf52832_xxAA_s132_6.0.0.dir/__/__/mesh/core/src/nrf_mesh_keygen.c.obj
 .debug_frame   0x00005a1c       0xc8 examples/dfu/CMakeFiles/dfu_nrf52832_xxAA_s132_6.0.0.dir/__/__/mesh/core/src/list.c.obj
 .debug_frame   0x00005ae4       0xb0 examples/dfu/CMakeFiles/dfu_nrf52832_xxAA_s132_6.0.0.dir/__/__/mesh/core/src/log.c.obj
 .debug_frame   0x00005b94      0x320 examples/dfu/CMakeFiles/dfu_nrf52832_xxAA_s132_6.0.0.dir/__/__/mesh/core/src/flash_manager.c.obj
 .debug_frame   0x00005eb4      0x10c examples/dfu/CMakeFiles/dfu_nrf52832_xxAA_s132_6.0.0.dir/__/__/mesh/core/src/ccm_soft.c.obj
 .debug_frame   0x00005fc0       0x80 examples/dfu/CMakeFiles/dfu_nrf52832_xxAA_s132_6.0.0.dir/__/__/mesh/core/src/replay_cache.c.obj
 .debug_frame   0x00006040       0x60 examples/dfu/CMakeFiles/dfu_nrf52832_xxAA_s132_6.0.0.dir/__/__/mesh/core/src/beacon.c.obj
 .debug_frame   0x000060a0       0x34 examples/dfu/CMakeFiles/dfu_nrf52832_xxAA_s132_6.0.0.dir/__/__/mesh/core/src/flash_manager_internal.c.obj
 .debug_frame   0x000060d4       0xf0 examples/dfu/CMakeFiles/dfu_nrf52832_xxAA_s132_6.0.0.dir/__/__/mesh/core/src/core_tx.c.obj
 .debug_frame   0x000061c4      0x160 examples/dfu/CMakeFiles/dfu_nrf52832_xxAA_s132_6.0.0.dir/__/__/mesh/core/src/heartbeat.c.obj
 .debug_frame   0x00006324      0x138 examples/dfu/CMakeFiles/dfu_nrf52832_xxAA_s132_6.0.0.dir/__/__/mesh/core/src/net_beacon.c.obj
 .debug_frame   0x0000645c      0x12c examples/dfu/CMakeFiles/dfu_nrf52832_xxAA_s132_6.0.0.dir/__/__/mesh/core/src/core_tx_adv.c.obj
 .debug_frame   0x00006588       0x6c examples/dfu/CMakeFiles/dfu_nrf52832_xxAA_s132_6.0.0.dir/__/__/mesh/bearer/src/ad_listener.c.obj
 .debug_frame   0x000065f4       0xa8 examples/dfu/CMakeFiles/dfu_nrf52832_xxAA_s132_6.0.0.dir/__/__/mesh/bearer/src/ad_type_filter.c.obj
 .debug_frame   0x0000669c      0x268 examples/dfu/CMakeFiles/dfu_nrf52832_xxAA_s132_6.0.0.dir/__/__/mesh/bearer/src/advertiser.c.obj
 .debug_frame   0x00006904      0x158 examples/dfu/CMakeFiles/dfu_nrf52832_xxAA_s132_6.0.0.dir/__/__/mesh/bearer/src/bearer_handler.c.obj
 .debug_frame   0x00006a5c       0x70 examples/dfu/CMakeFiles/dfu_nrf52832_xxAA_s132_6.0.0.dir/__/__/mesh/bearer/src/broadcast.c.obj
 .debug_frame   0x00006acc       0x74 examples/dfu/CMakeFiles/dfu_nrf52832_xxAA_s132_6.0.0.dir/__/__/mesh/bearer/src/filter_engine.c.obj
 .debug_frame   0x00006b40       0x94 examples/dfu/CMakeFiles/dfu_nrf52832_xxAA_s132_6.0.0.dir/__/__/mesh/bearer/src/radio_config.c.obj
 .debug_frame   0x00006bd4      0x2a4 examples/dfu/CMakeFiles/dfu_nrf52832_xxAA_s132_6.0.0.dir/__/__/mesh/bearer/src/scanner.c.obj
 .debug_frame   0x00006e78       0x58 examples/dfu/CMakeFiles/dfu_nrf52832_xxAA_s132_6.0.0.dir/C_/ver/mod/nRF5_SDK_15.0.0_a53641a/modules/nrfx/mdk/system_nrf52.c.obj
 .debug_frame   0x00006ed0       0x44 examples/dfu/CMakeFiles/dfu_nrf52832_xxAA_s132_6.0.0.dir/C_/ver/mod/nRF5_SDK_15.0.0_a53641a/components/libraries/util/app_error.c.obj
 .debug_frame   0x00006f14       0x20 examples/dfu/CMakeFiles/dfu_nrf52832_xxAA_s132_6.0.0.dir/C_/ver/mod/nRF5_SDK_15.0.0_a53641a/components/libraries/util/app_error_handler_gcc.c.obj
 .debug_frame   0x00006f34      0x2d8 external/rtt/librtt_nrf52832_xxAA.a(SEGGER_RTT.c.obj)
 .debug_frame   0x0000720c       0xac external/rtt/librtt_nrf52832_xxAA.a(SEGGER_RTT_printf.c.obj)
 .debug_frame   0x000072b8      0x684 external/micro-ecc/libuECC_nrf52832_xxAA.a(uECC.c.obj)
 .debug_frame   0x0000793c       0x28 c:/mesh/arm_gcc/bin/../lib/gcc/arm-none-eabi/6.3.1/../../../../arm-none-eabi/lib/thumb/v7e-m/fpv4-sp/hard\libg_nano.a(lib_a-exit.o)
 .debug_frame   0x00007964       0x2c c:/mesh/arm_gcc/bin/../lib/gcc/arm-none-eabi/6.3.1/../../../../arm-none-eabi/lib/thumb/v7e-m/fpv4-sp/hard\libg_nano.a(lib_a-init.o)
 .debug_frame   0x00007990       0x30 c:/mesh/arm_gcc/bin/../lib/gcc/arm-none-eabi/6.3.1/../../../../arm-none-eabi/lib/thumb/v7e-m/fpv4-sp/hard\libg_nano.a(lib_a-malloc.o)
 .debug_frame   0x000079c0       0x28 c:/mesh/arm_gcc/bin/../lib/gcc/arm-none-eabi/6.3.1/../../../../arm-none-eabi/lib/thumb/v7e-m/fpv4-sp/hard\libg_nano.a(lib_a-memcmp.o)
 .debug_frame   0x000079e8       0x28 c:/mesh/arm_gcc/bin/../lib/gcc/arm-none-eabi/6.3.1/../../../../arm-none-eabi/lib/thumb/v7e-m/fpv4-sp/hard\libg_nano.a(lib_a-memcpy-stub.o)
 .debug_frame   0x00007a10       0x20 c:/mesh/arm_gcc/bin/../lib/gcc/arm-none-eabi/6.3.1/../../../../arm-none-eabi/lib/thumb/v7e-m/fpv4-sp/hard\libg_nano.a(lib_a-memset.o)
 .debug_frame   0x00007a30       0x38 c:/mesh/arm_gcc/bin/../lib/gcc/arm-none-eabi/6.3.1/../../../../arm-none-eabi/lib/thumb/v7e-m/fpv4-sp/hard\libg_nano.a(lib_a-nano-freer.o)
 .debug_frame   0x00007a68       0x2c c:/mesh/arm_gcc/bin/../lib/gcc/arm-none-eabi/6.3.1/../../../../arm-none-eabi/lib/thumb/v7e-m/fpv4-sp/hard\libg_nano.a(lib_a-nano-mallocr.o)
 .debug_frame   0x00007a94       0x2c c:/mesh/arm_gcc/bin/../lib/gcc/arm-none-eabi/6.3.1/../../../../arm-none-eabi/lib/thumb/v7e-m/fpv4-sp/hard\libg_nano.a(lib_a-sbrkr.o)
 .debug_frame   0x00007ac0       0x20 c:/mesh/arm_gcc/bin/../lib/gcc/arm-none-eabi/6.3.1/../../../../arm-none-eabi/lib/thumb/v7e-m/fpv4-sp/hard\libg_nano.a(lib_a-strcpy.o)
 .debug_frame   0x00007ae0       0x34 c:/mesh/arm_gcc/bin/../lib/gcc/arm-none-eabi/6.3.1/../../../../arm-none-eabi/lib/thumb/v7e-m/fpv4-sp/hard\libg_nano.a(lib_a-strrchr.o)
 .debug_frame   0x00007b14       0x30 c:/mesh/arm_gcc/bin/../lib/gcc/arm-none-eabi/6.3.1/../../../../arm-none-eabi/lib/thumb/v7e-m/fpv4-sp/hard\libg_nano.a(lib_a-mlock.o)
 .debug_frame   0x00007b44       0x5c c:/mesh/arm_gcc/bin/../lib/gcc/arm-none-eabi/6.3.1/../../../../arm-none-eabi/lib/thumb/v7e-m/fpv4-sp/hard\libg_nano.a(lib_a-reent.o)
 .debug_frame   0x00007ba0       0x20 c:/mesh/arm_gcc/bin/../lib/gcc/arm-none-eabi/6.3.1/../../../../arm-none-eabi/lib/thumb/v7e-m/fpv4-sp/hard\libg_nano.a(lib_a-strchr.o)
 .debug_frame   0x00007bc0       0x20 c:/mesh/arm_gcc/bin/../lib/gcc/arm-none-eabi/6.3.1/../../../../arm-none-eabi/lib/thumb/v7e-m/fpv4-sp/hard\libnosys.a(sbrk.o)
 .debug_frame   0x00007be0       0x20 c:/mesh/arm_gcc/bin/../lib/gcc/arm-none-eabi/6.3.1/../../../../arm-none-eabi/lib/thumb/v7e-m/fpv4-sp/hard\libnosys.a(_exit.o)
