Archive member included to satisfy reference by file (symbol)

external/rtt/librtt_nrf52840_xxAA.a(SEGGER_RTT.c.obj)
                              examples/dfu/CMakeFiles/dfu_no_serial_nrf52840_xxAA_s140_6.0.0.dir/__/__/mesh/core/src/log.c.obj (SEGGER_RTT_Write)
external/rtt/librtt_nrf52840_xxAA.a(SEGGER_RTT_printf.c.obj)
                              examples/dfu/CMakeFiles/dfu_no_serial_nrf52840_xxAA_s140_6.0.0.dir/__/__/mesh/core/src/log.c.obj (SEGGER_RTT_vprintf)
external/micro-ecc/libuECC_nrf52840_xxAA.a(uECC.c.obj)
                              examples/dfu/CMakeFiles/dfu_no_serial_nrf52840_xxAA_s140_6.0.0.dir/__/__/mesh/prov/src/prov_utils.c.obj (uECC_secp256r1)
c:/mesh/arm_gcc/bin/../lib/gcc/arm-none-eabi/6.3.1/../../../../arm-none-eabi/lib/thumb/v7e-m/fpv4-sp/hard\libg_nano.a(lib_a-exit.o)
                              c:/mesh/arm_gcc/bin/../lib/gcc/arm-none-eabi/6.3.1/../../../../arm-none-eabi/lib/thumb/v7e-m/fpv4-sp/hard/crt0.o (exit)
c:/mesh/arm_gcc/bin/../lib/gcc/arm-none-eabi/6.3.1/../../../../arm-none-eabi/lib/thumb/v7e-m/fpv4-sp/hard\libg_nano.a(lib_a-impure.o)
                              c:/mesh/arm_gcc/bin/../lib/gcc/arm-none-eabi/6.3.1/../../../../arm-none-eabi/lib/thumb/v7e-m/fpv4-sp/hard\libg_nano.a(lib_a-exit.o) (_global_impure_ptr)
c:/mesh/arm_gcc/bin/../lib/gcc/arm-none-eabi/6.3.1/../../../../arm-none-eabi/lib/thumb/v7e-m/fpv4-sp/hard\libg_nano.a(lib_a-init.o)
                              c:/mesh/arm_gcc/bin/../lib/gcc/arm-none-eabi/6.3.1/../../../../arm-none-eabi/lib/thumb/v7e-m/fpv4-sp/hard/crt0.o (__libc_init_array)
c:/mesh/arm_gcc/bin/../lib/gcc/arm-none-eabi/6.3.1/../../../../arm-none-eabi/lib/thumb/v7e-m/fpv4-sp/hard\libg_nano.a(lib_a-malloc.o)
                              examples/dfu/CMakeFiles/dfu_no_serial_nrf52840_xxAA_s140_6.0.0.dir/__/__/mesh/core/src/transport.c.obj (malloc)
c:/mesh/arm_gcc/bin/../lib/gcc/arm-none-eabi/6.3.1/../../../../arm-none-eabi/lib/thumb/v7e-m/fpv4-sp/hard\libg_nano.a(lib_a-memcmp.o)
                              examples/dfu/CMakeFiles/dfu_no_serial_nrf52840_xxAA_s140_6.0.0.dir/__/__/mesh/access/src/device_state_manager.c.obj (memcmp)
c:/mesh/arm_gcc/bin/../lib/gcc/arm-none-eabi/6.3.1/../../../../arm-none-eabi/lib/thumb/v7e-m/fpv4-sp/hard\libg_nano.a(lib_a-memcpy-stub.o)
                              examples/dfu/CMakeFiles/dfu_no_serial_nrf52840_xxAA_s140_6.0.0.dir/__/__/mesh/access/src/access.c.obj (memcpy)
c:/mesh/arm_gcc/bin/../lib/gcc/arm-none-eabi/6.3.1/../../../../arm-none-eabi/lib/thumb/v7e-m/fpv4-sp/hard\libg_nano.a(lib_a-memset.o)
                              c:/mesh/arm_gcc/bin/../lib/gcc/arm-none-eabi/6.3.1/../../../../arm-none-eabi/lib/thumb/v7e-m/fpv4-sp/hard/crt0.o (memset)
c:/mesh/arm_gcc/bin/../lib/gcc/arm-none-eabi/6.3.1/../../../../arm-none-eabi/lib/thumb/v7e-m/fpv4-sp/hard\libg_nano.a(lib_a-nano-freer.o)
                              c:/mesh/arm_gcc/bin/../lib/gcc/arm-none-eabi/6.3.1/../../../../arm-none-eabi/lib/thumb/v7e-m/fpv4-sp/hard\libg_nano.a(lib_a-malloc.o) (_free_r)
c:/mesh/arm_gcc/bin/../lib/gcc/arm-none-eabi/6.3.1/../../../../arm-none-eabi/lib/thumb/v7e-m/fpv4-sp/hard\libg_nano.a(lib_a-nano-mallocr.o)
                              c:/mesh/arm_gcc/bin/../lib/gcc/arm-none-eabi/6.3.1/../../../../arm-none-eabi/lib/thumb/v7e-m/fpv4-sp/hard\libg_nano.a(lib_a-malloc.o) (_malloc_r)
c:/mesh/arm_gcc/bin/../lib/gcc/arm-none-eabi/6.3.1/../../../../arm-none-eabi/lib/thumb/v7e-m/fpv4-sp/hard\libg_nano.a(lib_a-sbrkr.o)
                              c:/mesh/arm_gcc/bin/../lib/gcc/arm-none-eabi/6.3.1/../../../../arm-none-eabi/lib/thumb/v7e-m/fpv4-sp/hard\libg_nano.a(lib_a-nano-mallocr.o) (_sbrk_r)
c:/mesh/arm_gcc/bin/../lib/gcc/arm-none-eabi/6.3.1/../../../../arm-none-eabi/lib/thumb/v7e-m/fpv4-sp/hard\libg_nano.a(lib_a-strcpy.o)
                              external/rtt/librtt_nrf52840_xxAA.a(SEGGER_RTT.c.obj) (strcpy)
c:/mesh/arm_gcc/bin/../lib/gcc/arm-none-eabi/6.3.1/../../../../arm-none-eabi/lib/thumb/v7e-m/fpv4-sp/hard\libg_nano.a(lib_a-strlen.o)
                              examples/dfu/CMakeFiles/dfu_no_serial_nrf52840_xxAA_s140_6.0.0.dir/__/__/mesh/prov/src/prov_beacon.c.obj (strlen)
c:/mesh/arm_gcc/bin/../lib/gcc/arm-none-eabi/6.3.1/../../../../arm-none-eabi/lib/thumb/v7e-m/fpv4-sp/hard\libg_nano.a(lib_a-strrchr.o)
                              examples/dfu/CMakeFiles/dfu_no_serial_nrf52840_xxAA_s140_6.0.0.dir/src/main.c.obj (strrchr)
c:/mesh/arm_gcc/bin/../lib/gcc/arm-none-eabi/6.3.1/../../../../arm-none-eabi/lib/thumb/v7e-m/fpv4-sp/hard\libg_nano.a(lib_a-mlock.o)
                              c:/mesh/arm_gcc/bin/../lib/gcc/arm-none-eabi/6.3.1/../../../../arm-none-eabi/lib/thumb/v7e-m/fpv4-sp/hard\libg_nano.a(lib_a-nano-freer.o) (__malloc_lock)
c:/mesh/arm_gcc/bin/../lib/gcc/arm-none-eabi/6.3.1/../../../../arm-none-eabi/lib/thumb/v7e-m/fpv4-sp/hard\libg_nano.a(lib_a-reent.o)
                              c:/mesh/arm_gcc/bin/../lib/gcc/arm-none-eabi/6.3.1/../../../../arm-none-eabi/lib/thumb/v7e-m/fpv4-sp/hard\libg_nano.a(lib_a-sbrkr.o) (errno)
c:/mesh/arm_gcc/bin/../lib/gcc/arm-none-eabi/6.3.1/../../../../arm-none-eabi/lib/thumb/v7e-m/fpv4-sp/hard\libg_nano.a(lib_a-strchr.o)
                              c:/mesh/arm_gcc/bin/../lib/gcc/arm-none-eabi/6.3.1/../../../../arm-none-eabi/lib/thumb/v7e-m/fpv4-sp/hard\libg_nano.a(lib_a-strrchr.o) (strchr)
c:/mesh/arm_gcc/bin/../lib/gcc/arm-none-eabi/6.3.1/../../../../arm-none-eabi/lib/thumb/v7e-m/fpv4-sp/hard\libnosys.a(sbrk.o)
                              c:/mesh/arm_gcc/bin/../lib/gcc/arm-none-eabi/6.3.1/../../../../arm-none-eabi/lib/thumb/v7e-m/fpv4-sp/hard\libg_nano.a(lib_a-sbrkr.o) (_sbrk)
c:/mesh/arm_gcc/bin/../lib/gcc/arm-none-eabi/6.3.1/../../../../arm-none-eabi/lib/thumb/v7e-m/fpv4-sp/hard\libnosys.a(_exit.o)
                              c:/mesh/arm_gcc/bin/../lib/gcc/arm-none-eabi/6.3.1/../../../../arm-none-eabi/lib/thumb/v7e-m/fpv4-sp/hard\libg_nano.a(lib_a-exit.o) (_exit)

Allocating common symbols
Common symbol       size              file

nrf_nvic_state      0xc               examples/dfu/CMakeFiles/dfu_no_serial_nrf52840_xxAA_s140_6.0.0.dir/__/common/src/mesh_softdevice_init.c.obj
m_packet            0x24              examples/dfu/CMakeFiles/dfu_no_serial_nrf52840_xxAA_s140_6.0.0.dir/__/__/mesh/core/src/core_tx.c.obj
bank_addr           0x4               examples/dfu/CMakeFiles/dfu_no_serial_nrf52840_xxAA_s140_6.0.0.dir/src/main.c.obj
rom_length          0x4               examples/dfu/CMakeFiles/dfu_no_serial_nrf52840_xxAA_s140_6.0.0.dir/src/main.c.obj
m_cmd_handler       0x4               examples/dfu/CMakeFiles/dfu_no_serial_nrf52840_xxAA_s140_6.0.0.dir/__/__/mesh/dfu/src/nrf_mesh_dfu.c.obj
errno               0x4               c:/mesh/arm_gcc/bin/../lib/gcc/arm-none-eabi/6.3.1/../../../../arm-none-eabi/lib/thumb/v7e-m/fpv4-sp/hard\libg_nano.a(lib_a-reent.o)
_SEGGER_RTT         0x78              external/rtt/librtt_nrf52840_xxAA.a(SEGGER_RTT.c.obj)

Discarded input sections

 .text          0x00000000        0x0 c:/mesh/arm_gcc/bin/../lib/gcc/arm-none-eabi/6.3.1/thumb/v7e-m/fpv4-sp/hard/crti.o
 .data          0x00000000        0x0 c:/mesh/arm_gcc/bin/../lib/gcc/arm-none-eabi/6.3.1/thumb/v7e-m/fpv4-sp/hard/crti.o
 .bss           0x00000000        0x0 c:/mesh/arm_gcc/bin/../lib/gcc/arm-none-eabi/6.3.1/thumb/v7e-m/fpv4-sp/hard/crti.o
 .data          0x00000000        0x4 c:/mesh/arm_gcc/bin/../lib/gcc/arm-none-eabi/6.3.1/thumb/v7e-m/fpv4-sp/hard/crtbegin.o
 .data          0x00000000        0x0 c:/mesh/arm_gcc/bin/../lib/gcc/arm-none-eabi/6.3.1/../../../../arm-none-eabi/lib/thumb/v7e-m/fpv4-sp/hard/crt0.o
 .bss           0x00000000        0x0 c:/mesh/arm_gcc/bin/../lib/gcc/arm-none-eabi/6.3.1/../../../../arm-none-eabi/lib/thumb/v7e-m/fpv4-sp/hard/crt0.o
 .ARM.extab     0x00000000        0x0 c:/mesh/arm_gcc/bin/../lib/gcc/arm-none-eabi/6.3.1/../../../../arm-none-eabi/lib/thumb/v7e-m/fpv4-sp/hard/crt0.o
 .text          0x00000000        0x0 examples/dfu/CMakeFiles/dfu_no_serial_nrf52840_xxAA_s140_6.0.0.dir/src/main.c.obj
 .data          0x00000000        0x0 examples/dfu/CMakeFiles/dfu_no_serial_nrf52840_xxAA_s140_6.0.0.dir/src/main.c.obj
 .bss           0x00000000        0x0 examples/dfu/CMakeFiles/dfu_no_serial_nrf52840_xxAA_s140_6.0.0.dir/src/main.c.obj
 .text          0x00000000        0x0 examples/dfu/CMakeFiles/dfu_no_serial_nrf52840_xxAA_s140_6.0.0.dir/__/__/mesh/stack/src/mesh_stack.c.obj
 .data          0x00000000        0x0 examples/dfu/CMakeFiles/dfu_no_serial_nrf52840_xxAA_s140_6.0.0.dir/__/__/mesh/stack/src/mesh_stack.c.obj
 .bss           0x00000000        0x0 examples/dfu/CMakeFiles/dfu_no_serial_nrf52840_xxAA_s140_6.0.0.dir/__/__/mesh/stack/src/mesh_stack.c.obj
 .text          0x00000000        0x0 examples/dfu/CMakeFiles/dfu_no_serial_nrf52840_xxAA_s140_6.0.0.dir/__/common/src/mesh_softdevice_init.c.obj
 .data          0x00000000        0x0 examples/dfu/CMakeFiles/dfu_no_serial_nrf52840_xxAA_s140_6.0.0.dir/__/common/src/mesh_softdevice_init.c.obj
 .bss           0x00000000        0x0 examples/dfu/CMakeFiles/dfu_no_serial_nrf52840_xxAA_s140_6.0.0.dir/__/common/src/mesh_softdevice_init.c.obj
 .text          0x00000000        0x0 examples/dfu/CMakeFiles/dfu_no_serial_nrf52840_xxAA_s140_6.0.0.dir/__/common/src/mesh_provisionee.c.obj
 .data          0x00000000        0x0 examples/dfu/CMakeFiles/dfu_no_serial_nrf52840_xxAA_s140_6.0.0.dir/__/common/src/mesh_provisionee.c.obj
 .bss           0x00000000        0x0 examples/dfu/CMakeFiles/dfu_no_serial_nrf52840_xxAA_s140_6.0.0.dir/__/common/src/mesh_provisionee.c.obj
 .text          0x00000000        0x0 examples/dfu/CMakeFiles/dfu_no_serial_nrf52840_xxAA_s140_6.0.0.dir/__/common/src/simple_hal.c.obj
 .data          0x00000000        0x0 examples/dfu/CMakeFiles/dfu_no_serial_nrf52840_xxAA_s140_6.0.0.dir/__/common/src/simple_hal.c.obj
 .bss           0x00000000        0x0 examples/dfu/CMakeFiles/dfu_no_serial_nrf52840_xxAA_s140_6.0.0.dir/__/common/src/simple_hal.c.obj
 .text.hal_led_pin_get
                0x00000000       0x18 examples/dfu/CMakeFiles/dfu_no_serial_nrf52840_xxAA_s140_6.0.0.dir/__/common/src/simple_hal.c.obj
 .text.hal_led_pin_set
                0x00000000       0x16 examples/dfu/CMakeFiles/dfu_no_serial_nrf52840_xxAA_s140_6.0.0.dir/__/common/src/simple_hal.c.obj
 .text.hal_buttons_init
                0x00000000       0x50 examples/dfu/CMakeFiles/dfu_no_serial_nrf52840_xxAA_s140_6.0.0.dir/__/common/src/simple_hal.c.obj
 .text          0x00000000        0x0 examples/dfu/CMakeFiles/dfu_no_serial_nrf52840_xxAA_s140_6.0.0.dir/__/__/mesh/access/src/access_publish.c.obj
 .data          0x00000000        0x0 examples/dfu/CMakeFiles/dfu_no_serial_nrf52840_xxAA_s140_6.0.0.dir/__/__/mesh/access/src/access_publish.c.obj
 .bss           0x00000000        0x0 examples/dfu/CMakeFiles/dfu_no_serial_nrf52840_xxAA_s140_6.0.0.dir/__/__/mesh/access/src/access_publish.c.obj
 .text          0x00000000        0x0 examples/dfu/CMakeFiles/dfu_no_serial_nrf52840_xxAA_s140_6.0.0.dir/__/__/mesh/access/src/access.c.obj
 .data          0x00000000        0x0 examples/dfu/CMakeFiles/dfu_no_serial_nrf52840_xxAA_s140_6.0.0.dir/__/__/mesh/access/src/access.c.obj
 .bss           0x00000000        0x0 examples/dfu/CMakeFiles/dfu_no_serial_nrf52840_xxAA_s140_6.0.0.dir/__/__/mesh/access/src/access.c.obj
 .text.access_model_subscription_list_alloc
                0x00000000       0x50 examples/dfu/CMakeFiles/dfu_no_serial_nrf52840_xxAA_s140_6.0.0.dir/__/__/mesh/access/src/access.c.obj
 .text.access_model_subscription_lists_share
                0x00000000       0x4c examples/dfu/CMakeFiles/dfu_no_serial_nrf52840_xxAA_s140_6.0.0.dir/__/__/mesh/access/src/access.c.obj
 .text.access_element_location_set
                0x00000000       0x20 examples/dfu/CMakeFiles/dfu_no_serial_nrf52840_xxAA_s140_6.0.0.dir/__/__/mesh/access/src/access.c.obj
 .text          0x00000000        0x0 examples/dfu/CMakeFiles/dfu_no_serial_nrf52840_xxAA_s140_6.0.0.dir/__/__/mesh/access/src/access_reliable.c.obj
 .data          0x00000000        0x0 examples/dfu/CMakeFiles/dfu_no_serial_nrf52840_xxAA_s140_6.0.0.dir/__/__/mesh/access/src/access_reliable.c.obj
 .bss           0x00000000        0x0 examples/dfu/CMakeFiles/dfu_no_serial_nrf52840_xxAA_s140_6.0.0.dir/__/__/mesh/access/src/access_reliable.c.obj
 .text.access_model_reliable_publish
                0x00000000      0x1bc examples/dfu/CMakeFiles/dfu_no_serial_nrf52840_xxAA_s140_6.0.0.dir/__/__/mesh/access/src/access_reliable.c.obj
 .text          0x00000000        0x0 examples/dfu/CMakeFiles/dfu_no_serial_nrf52840_xxAA_s140_6.0.0.dir/__/__/mesh/access/src/device_state_manager.c.obj
 .data          0x00000000        0x0 examples/dfu/CMakeFiles/dfu_no_serial_nrf52840_xxAA_s140_6.0.0.dir/__/__/mesh/access/src/device_state_manager.c.obj
 .bss           0x00000000        0x0 examples/dfu/CMakeFiles/dfu_no_serial_nrf52840_xxAA_s140_6.0.0.dir/__/__/mesh/access/src/device_state_manager.c.obj
 .text.dsm_has_unflashed_data
                0x00000000       0x24 examples/dfu/CMakeFiles/dfu_no_serial_nrf52840_xxAA_s140_6.0.0.dir/__/__/mesh/access/src/device_state_manager.c.obj
 .text.dsm_address_subscription_count_get
                0x00000000       0x58 examples/dfu/CMakeFiles/dfu_no_serial_nrf52840_xxAA_s140_6.0.0.dir/__/__/mesh/access/src/device_state_manager.c.obj
 .text.dsm_address_get_all
                0x00000000       0x74 examples/dfu/CMakeFiles/dfu_no_serial_nrf52840_xxAA_s140_6.0.0.dir/__/__/mesh/access/src/device_state_manager.c.obj
 .text.dsm_subnet_handle_to_netkey_index
                0x00000000       0x34 examples/dfu/CMakeFiles/dfu_no_serial_nrf52840_xxAA_s140_6.0.0.dir/__/__/mesh/access/src/device_state_manager.c.obj
 .text.dsm_devkey_delete
                0x00000000       0x38 examples/dfu/CMakeFiles/dfu_no_serial_nrf52840_xxAA_s140_6.0.0.dir/__/__/mesh/access/src/device_state_manager.c.obj
 .text.dsm_devkey_handle_get
                0x00000000       0x34 examples/dfu/CMakeFiles/dfu_no_serial_nrf52840_xxAA_s140_6.0.0.dir/__/__/mesh/access/src/device_state_manager.c.obj
 .text.dsm_beacon_info_get
                0x00000000       0x38 examples/dfu/CMakeFiles/dfu_no_serial_nrf52840_xxAA_s140_6.0.0.dir/__/__/mesh/access/src/device_state_manager.c.obj
 .text          0x00000000        0x0 examples/dfu/CMakeFiles/dfu_no_serial_nrf52840_xxAA_s140_6.0.0.dir/__/__/models/config/src/composition_data.c.obj
 .data          0x00000000        0x0 examples/dfu/CMakeFiles/dfu_no_serial_nrf52840_xxAA_s140_6.0.0.dir/__/__/models/config/src/composition_data.c.obj
 .bss           0x00000000        0x0 examples/dfu/CMakeFiles/dfu_no_serial_nrf52840_xxAA_s140_6.0.0.dir/__/__/models/config/src/composition_data.c.obj
 .text          0x00000000        0x0 examples/dfu/CMakeFiles/dfu_no_serial_nrf52840_xxAA_s140_6.0.0.dir/__/__/models/config/src/config_server.c.obj
 .data          0x00000000        0x0 examples/dfu/CMakeFiles/dfu_no_serial_nrf52840_xxAA_s140_6.0.0.dir/__/__/models/config/src/config_server.c.obj
 .bss           0x00000000        0x0 examples/dfu/CMakeFiles/dfu_no_serial_nrf52840_xxAA_s140_6.0.0.dir/__/__/models/config/src/config_server.c.obj
 .text          0x00000000        0x0 examples/dfu/CMakeFiles/dfu_no_serial_nrf52840_xxAA_s140_6.0.0.dir/__/__/models/config/src/packed_index_list.c.obj
 .data          0x00000000        0x0 examples/dfu/CMakeFiles/dfu_no_serial_nrf52840_xxAA_s140_6.0.0.dir/__/__/models/config/src/packed_index_list.c.obj
 .bss           0x00000000        0x0 examples/dfu/CMakeFiles/dfu_no_serial_nrf52840_xxAA_s140_6.0.0.dir/__/__/models/config/src/packed_index_list.c.obj
 .text          0x00000000        0x0 examples/dfu/CMakeFiles/dfu_no_serial_nrf52840_xxAA_s140_6.0.0.dir/__/__/models/health/src/health_server.c.obj
 .data          0x00000000        0x0 examples/dfu/CMakeFiles/dfu_no_serial_nrf52840_xxAA_s140_6.0.0.dir/__/__/models/health/src/health_server.c.obj
 .bss           0x00000000        0x0 examples/dfu/CMakeFiles/dfu_no_serial_nrf52840_xxAA_s140_6.0.0.dir/__/__/models/health/src/health_server.c.obj
 .text.health_server_fault_is_set
                0x00000000       0x1c examples/dfu/CMakeFiles/dfu_no_serial_nrf52840_xxAA_s140_6.0.0.dir/__/__/models/health/src/health_server.c.obj
 .text.health_server_fault_count_get
                0x00000000        0xc examples/dfu/CMakeFiles/dfu_no_serial_nrf52840_xxAA_s140_6.0.0.dir/__/__/models/health/src/health_server.c.obj
 .text.health_server_fault_register
                0x00000000       0xca examples/dfu/CMakeFiles/dfu_no_serial_nrf52840_xxAA_s140_6.0.0.dir/__/__/models/health/src/health_server.c.obj
 .text.health_server_fault_clear
                0x00000000       0x48 examples/dfu/CMakeFiles/dfu_no_serial_nrf52840_xxAA_s140_6.0.0.dir/__/__/models/health/src/health_server.c.obj
 .text.health_server_attention_get
                0x00000000        0x6 examples/dfu/CMakeFiles/dfu_no_serial_nrf52840_xxAA_s140_6.0.0.dir/__/__/models/health/src/health_server.c.obj
 .text.health_server_attention_set
                0x00000000        0x4 examples/dfu/CMakeFiles/dfu_no_serial_nrf52840_xxAA_s140_6.0.0.dir/__/__/models/health/src/health_server.c.obj
 .text          0x00000000        0x0 examples/dfu/CMakeFiles/dfu_no_serial_nrf52840_xxAA_s140_6.0.0.dir/__/__/mesh/prov/src/prov_provisioner.c.obj
 .data          0x00000000        0x0 examples/dfu/CMakeFiles/dfu_no_serial_nrf52840_xxAA_s140_6.0.0.dir/__/__/mesh/prov/src/prov_provisioner.c.obj
 .bss           0x00000000        0x0 examples/dfu/CMakeFiles/dfu_no_serial_nrf52840_xxAA_s140_6.0.0.dir/__/__/mesh/prov/src/prov_provisioner.c.obj
 .text.prov_provisioner_cb_link_closed
                0x00000000       0x2a examples/dfu/CMakeFiles/dfu_no_serial_nrf52840_xxAA_s140_6.0.0.dir/__/__/mesh/prov/src/prov_provisioner.c.obj
 .text.prov_provisioner_cb_link_established
                0x00000000       0x3e examples/dfu/CMakeFiles/dfu_no_serial_nrf52840_xxAA_s140_6.0.0.dir/__/__/mesh/prov/src/prov_provisioner.c.obj
 .text.request_authentication
                0x00000000       0x8a examples/dfu/CMakeFiles/dfu_no_serial_nrf52840_xxAA_s140_6.0.0.dir/__/__/mesh/prov/src/prov_provisioner.c.obj
 .text.start_authentication
                0x00000000       0x46 examples/dfu/CMakeFiles/dfu_no_serial_nrf52840_xxAA_s140_6.0.0.dir/__/__/mesh/prov/src/prov_provisioner.c.obj
 .text.prov_provisioner_cb_ack_received
                0x00000000       0x54 examples/dfu/CMakeFiles/dfu_no_serial_nrf52840_xxAA_s140_6.0.0.dir/__/__/mesh/prov/src/prov_provisioner.c.obj
 .text.prov_provisioner_pkt_in
                0x00000000      0x23c examples/dfu/CMakeFiles/dfu_no_serial_nrf52840_xxAA_s140_6.0.0.dir/__/__/mesh/prov/src/prov_provisioner.c.obj
 .text.prov_provisioner_provision
                0x00000000       0x44 examples/dfu/CMakeFiles/dfu_no_serial_nrf52840_xxAA_s140_6.0.0.dir/__/__/mesh/prov/src/prov_provisioner.c.obj
 .text.prov_provisioner_oob_use
                0x00000000       0x7e examples/dfu/CMakeFiles/dfu_no_serial_nrf52840_xxAA_s140_6.0.0.dir/__/__/mesh/prov/src/prov_provisioner.c.obj
 .text.prov_provisioner_shared_secret
                0x00000000       0x28 examples/dfu/CMakeFiles/dfu_no_serial_nrf52840_xxAA_s140_6.0.0.dir/__/__/mesh/prov/src/prov_provisioner.c.obj
 .text.prov_provisioner_oob_pubkey
                0x00000000       0x30 examples/dfu/CMakeFiles/dfu_no_serial_nrf52840_xxAA_s140_6.0.0.dir/__/__/mesh/prov/src/prov_provisioner.c.obj
 .rodata.m_prov_callbacks
                0x00000000       0x10 examples/dfu/CMakeFiles/dfu_no_serial_nrf52840_xxAA_s140_6.0.0.dir/__/__/mesh/prov/src/prov_provisioner.c.obj
 .text          0x00000000        0x0 examples/dfu/CMakeFiles/dfu_no_serial_nrf52840_xxAA_s140_6.0.0.dir/__/__/mesh/prov/src/prov_provisionee.c.obj
 .data          0x00000000        0x0 examples/dfu/CMakeFiles/dfu_no_serial_nrf52840_xxAA_s140_6.0.0.dir/__/__/mesh/prov/src/prov_provisionee.c.obj
 .bss           0x00000000        0x0 examples/dfu/CMakeFiles/dfu_no_serial_nrf52840_xxAA_s140_6.0.0.dir/__/__/mesh/prov/src/prov_provisionee.c.obj
 .text.prov_provisionee_shared_secret
                0x00000000       0x28 examples/dfu/CMakeFiles/dfu_no_serial_nrf52840_xxAA_s140_6.0.0.dir/__/__/mesh/prov/src/prov_provisionee.c.obj
 .text          0x00000000        0x0 examples/dfu/CMakeFiles/dfu_no_serial_nrf52840_xxAA_s140_6.0.0.dir/__/__/mesh/prov/src/nrf_mesh_prov.c.obj
 .data          0x00000000        0x0 examples/dfu/CMakeFiles/dfu_no_serial_nrf52840_xxAA_s140_6.0.0.dir/__/__/mesh/prov/src/nrf_mesh_prov.c.obj
 .bss           0x00000000        0x0 examples/dfu/CMakeFiles/dfu_no_serial_nrf52840_xxAA_s140_6.0.0.dir/__/__/mesh/prov/src/nrf_mesh_prov.c.obj
 .text.nrf_mesh_prov_provision
                0x00000000       0x4e examples/dfu/CMakeFiles/dfu_no_serial_nrf52840_xxAA_s140_6.0.0.dir/__/__/mesh/prov/src/nrf_mesh_prov.c.obj
 .text.nrf_mesh_prov_oob_use
                0x00000000       0x18 examples/dfu/CMakeFiles/dfu_no_serial_nrf52840_xxAA_s140_6.0.0.dir/__/__/mesh/prov/src/nrf_mesh_prov.c.obj
 .text.nrf_mesh_prov_shared_secret_provide
                0x00000000        0xe examples/dfu/CMakeFiles/dfu_no_serial_nrf52840_xxAA_s140_6.0.0.dir/__/__/mesh/prov/src/nrf_mesh_prov.c.obj
 .text.nrf_mesh_prov_pubkey_provide
                0x00000000       0x10 examples/dfu/CMakeFiles/dfu_no_serial_nrf52840_xxAA_s140_6.0.0.dir/__/__/mesh/prov/src/nrf_mesh_prov.c.obj
 .text.nrf_mesh_prov_scan_start
                0x00000000       0x10 examples/dfu/CMakeFiles/dfu_no_serial_nrf52840_xxAA_s140_6.0.0.dir/__/__/mesh/prov/src/nrf_mesh_prov.c.obj
 .text.nrf_mesh_prov_scan_stop
                0x00000000        0x4 examples/dfu/CMakeFiles/dfu_no_serial_nrf52840_xxAA_s140_6.0.0.dir/__/__/mesh/prov/src/nrf_mesh_prov.c.obj
 .text          0x00000000        0x0 examples/dfu/CMakeFiles/dfu_no_serial_nrf52840_xxAA_s140_6.0.0.dir/__/__/mesh/prov/src/provisioning.c.obj
 .data          0x00000000        0x0 examples/dfu/CMakeFiles/dfu_no_serial_nrf52840_xxAA_s140_6.0.0.dir/__/__/mesh/prov/src/provisioning.c.obj
 .bss           0x00000000        0x0 examples/dfu/CMakeFiles/dfu_no_serial_nrf52840_xxAA_s140_6.0.0.dir/__/__/mesh/prov/src/provisioning.c.obj
 .text.prov_tx_invite
                0x00000000       0x28 examples/dfu/CMakeFiles/dfu_no_serial_nrf52840_xxAA_s140_6.0.0.dir/__/__/mesh/prov/src/provisioning.c.obj
 .text.prov_tx_start
                0x00000000       0x20 examples/dfu/CMakeFiles/dfu_no_serial_nrf52840_xxAA_s140_6.0.0.dir/__/__/mesh/prov/src/provisioning.c.obj
 .text.prov_tx_data
                0x00000000        0x6 examples/dfu/CMakeFiles/dfu_no_serial_nrf52840_xxAA_s140_6.0.0.dir/__/__/mesh/prov/src/provisioning.c.obj
 .text.prov_tx  0x00000000        0x4 examples/dfu/CMakeFiles/dfu_no_serial_nrf52840_xxAA_s140_6.0.0.dir/__/__/mesh/prov/src/provisioning.c.obj
 .text          0x00000000        0x0 examples/dfu/CMakeFiles/dfu_no_serial_nrf52840_xxAA_s140_6.0.0.dir/__/__/mesh/prov/src/prov_beacon.c.obj
 .data          0x00000000        0x0 examples/dfu/CMakeFiles/dfu_no_serial_nrf52840_xxAA_s140_6.0.0.dir/__/__/mesh/prov/src/prov_beacon.c.obj
 .bss           0x00000000        0x0 examples/dfu/CMakeFiles/dfu_no_serial_nrf52840_xxAA_s140_6.0.0.dir/__/__/mesh/prov/src/prov_beacon.c.obj
 .text.prov_beacon_scan_start
                0x00000000       0x18 examples/dfu/CMakeFiles/dfu_no_serial_nrf52840_xxAA_s140_6.0.0.dir/__/__/mesh/prov/src/prov_beacon.c.obj
 .text.prov_beacon_scan_stop
                0x00000000        0xc examples/dfu/CMakeFiles/dfu_no_serial_nrf52840_xxAA_s140_6.0.0.dir/__/__/mesh/prov/src/prov_beacon.c.obj
 .text          0x00000000        0x0 examples/dfu/CMakeFiles/dfu_no_serial_nrf52840_xxAA_s140_6.0.0.dir/__/__/mesh/prov/src/prov_utils.c.obj
 .data          0x00000000        0x0 examples/dfu/CMakeFiles/dfu_no_serial_nrf52840_xxAA_s140_6.0.0.dir/__/__/mesh/prov/src/prov_utils.c.obj
 .bss           0x00000000        0x0 examples/dfu/CMakeFiles/dfu_no_serial_nrf52840_xxAA_s140_6.0.0.dir/__/__/mesh/prov/src/prov_utils.c.obj
 .text          0x00000000        0x0 examples/dfu/CMakeFiles/dfu_no_serial_nrf52840_xxAA_s140_6.0.0.dir/__/__/mesh/prov/src/prov_bearer_adv.c.obj
 .data          0x00000000        0x0 examples/dfu/CMakeFiles/dfu_no_serial_nrf52840_xxAA_s140_6.0.0.dir/__/__/mesh/prov/src/prov_bearer_adv.c.obj
 .bss           0x00000000        0x0 examples/dfu/CMakeFiles/dfu_no_serial_nrf52840_xxAA_s140_6.0.0.dir/__/__/mesh/prov/src/prov_bearer_adv.c.obj
 .text          0x00000000        0x0 examples/dfu/CMakeFiles/dfu_no_serial_nrf52840_xxAA_s140_6.0.0.dir/__/__/mesh/dfu/src/nrf_mesh_dfu.c.obj
 .data          0x00000000        0x0 examples/dfu/CMakeFiles/dfu_no_serial_nrf52840_xxAA_s140_6.0.0.dir/__/__/mesh/dfu/src/nrf_mesh_dfu.c.obj
 .bss           0x00000000        0x0 examples/dfu/CMakeFiles/dfu_no_serial_nrf52840_xxAA_s140_6.0.0.dir/__/__/mesh/dfu/src/nrf_mesh_dfu.c.obj
 .text.nrf_mesh_dfu_jump_to_bootloader
                0x00000000       0x40 examples/dfu/CMakeFiles/dfu_no_serial_nrf52840_xxAA_s140_6.0.0.dir/__/__/mesh/dfu/src/nrf_mesh_dfu.c.obj
 .text.nrf_mesh_dfu_state_get
                0x00000000       0x48 examples/dfu/CMakeFiles/dfu_no_serial_nrf52840_xxAA_s140_6.0.0.dir/__/__/mesh/dfu/src/nrf_mesh_dfu.c.obj
 .text.nrf_mesh_dfu_abort
                0x00000000       0x2c examples/dfu/CMakeFiles/dfu_no_serial_nrf52840_xxAA_s140_6.0.0.dir/__/__/mesh/dfu/src/nrf_mesh_dfu.c.obj
 .text.nrf_mesh_dfu_bank_info_get
                0x00000000       0x30 examples/dfu/CMakeFiles/dfu_no_serial_nrf52840_xxAA_s140_6.0.0.dir/__/__/mesh/dfu/src/nrf_mesh_dfu.c.obj
 .text          0x00000000        0x0 examples/dfu/CMakeFiles/dfu_no_serial_nrf52840_xxAA_s140_6.0.0.dir/__/nrf_mesh_weak.c.obj
 .data          0x00000000        0x0 examples/dfu/CMakeFiles/dfu_no_serial_nrf52840_xxAA_s140_6.0.0.dir/__/nrf_mesh_weak.c.obj
 .bss           0x00000000        0x0 examples/dfu/CMakeFiles/dfu_no_serial_nrf52840_xxAA_s140_6.0.0.dir/__/nrf_mesh_weak.c.obj
 .text._weak_handler
                0x00000000        0x4 examples/dfu/CMakeFiles/dfu_no_serial_nrf52840_xxAA_s140_6.0.0.dir/__/nrf_mesh_weak.c.obj
 .text._weak_handler_ptr
                0x00000000        0x4 examples/dfu/CMakeFiles/dfu_no_serial_nrf52840_xxAA_s140_6.0.0.dir/__/nrf_mesh_weak.c.obj
 .debug_info    0x00000000      0x924 examples/dfu/CMakeFiles/dfu_no_serial_nrf52840_xxAA_s140_6.0.0.dir/__/nrf_mesh_weak.c.obj
 .debug_abbrev  0x00000000      0x1ae examples/dfu/CMakeFiles/dfu_no_serial_nrf52840_xxAA_s140_6.0.0.dir/__/nrf_mesh_weak.c.obj
 .debug_aranges
                0x00000000       0x28 examples/dfu/CMakeFiles/dfu_no_serial_nrf52840_xxAA_s140_6.0.0.dir/__/nrf_mesh_weak.c.obj
 .debug_ranges  0x00000000       0x18 examples/dfu/CMakeFiles/dfu_no_serial_nrf52840_xxAA_s140_6.0.0.dir/__/nrf_mesh_weak.c.obj
 .debug_line    0x00000000      0x1e5 examples/dfu/CMakeFiles/dfu_no_serial_nrf52840_xxAA_s140_6.0.0.dir/__/nrf_mesh_weak.c.obj
 .debug_str     0x00000000      0x61c examples/dfu/CMakeFiles/dfu_no_serial_nrf52840_xxAA_s140_6.0.0.dir/__/nrf_mesh_weak.c.obj
 .comment       0x00000000       0x80 examples/dfu/CMakeFiles/dfu_no_serial_nrf52840_xxAA_s140_6.0.0.dir/__/nrf_mesh_weak.c.obj
 .debug_frame   0x00000000       0x30 examples/dfu/CMakeFiles/dfu_no_serial_nrf52840_xxAA_s140_6.0.0.dir/__/nrf_mesh_weak.c.obj
 .ARM.attributes
                0x00000000       0x39 examples/dfu/CMakeFiles/dfu_no_serial_nrf52840_xxAA_s140_6.0.0.dir/__/nrf_mesh_weak.c.obj
 .text          0x00000000        0x0 examples/dfu/CMakeFiles/dfu_no_serial_nrf52840_xxAA_s140_6.0.0.dir/__/common/src/app_error_weak.c.obj
 .data          0x00000000        0x0 examples/dfu/CMakeFiles/dfu_no_serial_nrf52840_xxAA_s140_6.0.0.dir/__/common/src/app_error_weak.c.obj
 .bss           0x00000000        0x0 examples/dfu/CMakeFiles/dfu_no_serial_nrf52840_xxAA_s140_6.0.0.dir/__/common/src/app_error_weak.c.obj
 .text          0x00000000        0x0 examples/dfu/CMakeFiles/dfu_no_serial_nrf52840_xxAA_s140_6.0.0.dir/__/common/src/assertion_handler_weak.c.obj
 .data          0x00000000        0x0 examples/dfu/CMakeFiles/dfu_no_serial_nrf52840_xxAA_s140_6.0.0.dir/__/common/src/assertion_handler_weak.c.obj
 .bss           0x00000000        0x0 examples/dfu/CMakeFiles/dfu_no_serial_nrf52840_xxAA_s140_6.0.0.dir/__/common/src/assertion_handler_weak.c.obj
 .text          0x00000000        0x0 examples/dfu/CMakeFiles/dfu_no_serial_nrf52840_xxAA_s140_6.0.0.dir/__/__/mesh/core/src/internal_event.c.obj
 .data          0x00000000        0x0 examples/dfu/CMakeFiles/dfu_no_serial_nrf52840_xxAA_s140_6.0.0.dir/__/__/mesh/core/src/internal_event.c.obj
 .bss           0x00000000        0x0 examples/dfu/CMakeFiles/dfu_no_serial_nrf52840_xxAA_s140_6.0.0.dir/__/__/mesh/core/src/internal_event.c.obj
 .debug_info    0x00000000      0x8f2 examples/dfu/CMakeFiles/dfu_no_serial_nrf52840_xxAA_s140_6.0.0.dir/__/__/mesh/core/src/internal_event.c.obj
 .debug_abbrev  0x00000000      0x192 examples/dfu/CMakeFiles/dfu_no_serial_nrf52840_xxAA_s140_6.0.0.dir/__/__/mesh/core/src/internal_event.c.obj
 .debug_aranges
                0x00000000       0x18 examples/dfu/CMakeFiles/dfu_no_serial_nrf52840_xxAA_s140_6.0.0.dir/__/__/mesh/core/src/internal_event.c.obj
 .debug_line    0x00000000      0x1a6 examples/dfu/CMakeFiles/dfu_no_serial_nrf52840_xxAA_s140_6.0.0.dir/__/__/mesh/core/src/internal_event.c.obj
 .debug_str     0x00000000      0x602 examples/dfu/CMakeFiles/dfu_no_serial_nrf52840_xxAA_s140_6.0.0.dir/__/__/mesh/core/src/internal_event.c.obj
 .comment       0x00000000       0x80 examples/dfu/CMakeFiles/dfu_no_serial_nrf52840_xxAA_s140_6.0.0.dir/__/__/mesh/core/src/internal_event.c.obj
 .ARM.attributes
                0x00000000       0x39 examples/dfu/CMakeFiles/dfu_no_serial_nrf52840_xxAA_s140_6.0.0.dir/__/__/mesh/core/src/internal_event.c.obj
 .text          0x00000000        0x0 examples/dfu/CMakeFiles/dfu_no_serial_nrf52840_xxAA_s140_6.0.0.dir/__/__/mesh/core/src/nrf_mesh_configure.c.obj
 .data          0x00000000        0x0 examples/dfu/CMakeFiles/dfu_no_serial_nrf52840_xxAA_s140_6.0.0.dir/__/__/mesh/core/src/nrf_mesh_configure.c.obj
 .bss           0x00000000        0x0 examples/dfu/CMakeFiles/dfu_no_serial_nrf52840_xxAA_s140_6.0.0.dir/__/__/mesh/core/src/nrf_mesh_configure.c.obj
 .text          0x00000000        0x0 examples/dfu/CMakeFiles/dfu_no_serial_nrf52840_xxAA_s140_6.0.0.dir/__/__/mesh/core/src/aes.c.obj
 .data          0x00000000        0x0 examples/dfu/CMakeFiles/dfu_no_serial_nrf52840_xxAA_s140_6.0.0.dir/__/__/mesh/core/src/aes.c.obj
 .bss           0x00000000        0x0 examples/dfu/CMakeFiles/dfu_no_serial_nrf52840_xxAA_s140_6.0.0.dir/__/__/mesh/core/src/aes.c.obj
 .text          0x00000000        0x0 examples/dfu/CMakeFiles/dfu_no_serial_nrf52840_xxAA_s140_6.0.0.dir/__/__/mesh/core/src/msg_cache.c.obj
 .data          0x00000000        0x0 examples/dfu/CMakeFiles/dfu_no_serial_nrf52840_xxAA_s140_6.0.0.dir/__/__/mesh/core/src/msg_cache.c.obj
 .bss           0x00000000        0x0 examples/dfu/CMakeFiles/dfu_no_serial_nrf52840_xxAA_s140_6.0.0.dir/__/__/mesh/core/src/msg_cache.c.obj
 .text.msg_cache_clear
                0x00000000       0x18 examples/dfu/CMakeFiles/dfu_no_serial_nrf52840_xxAA_s140_6.0.0.dir/__/__/mesh/core/src/msg_cache.c.obj
 .text          0x00000000        0x0 examples/dfu/CMakeFiles/dfu_no_serial_nrf52840_xxAA_s140_6.0.0.dir/__/__/mesh/core/src/transport.c.obj
 .data          0x00000000        0x0 examples/dfu/CMakeFiles/dfu_no_serial_nrf52840_xxAA_s140_6.0.0.dir/__/__/mesh/core/src/transport.c.obj
 .bss           0x00000000        0x0 examples/dfu/CMakeFiles/dfu_no_serial_nrf52840_xxAA_s140_6.0.0.dir/__/__/mesh/core/src/transport.c.obj
 .text.transport_sar_mem_funcs_set
                0x00000000       0x44 examples/dfu/CMakeFiles/dfu_no_serial_nrf52840_xxAA_s140_6.0.0.dir/__/__/mesh/core/src/transport.c.obj
 .text          0x00000000        0x0 examples/dfu/CMakeFiles/dfu_no_serial_nrf52840_xxAA_s140_6.0.0.dir/__/__/mesh/core/src/event.c.obj
 .data          0x00000000        0x0 examples/dfu/CMakeFiles/dfu_no_serial_nrf52840_xxAA_s140_6.0.0.dir/__/__/mesh/core/src/event.c.obj
 .bss           0x00000000        0x0 examples/dfu/CMakeFiles/dfu_no_serial_nrf52840_xxAA_s140_6.0.0.dir/__/__/mesh/core/src/event.c.obj
 .text          0x00000000        0x0 examples/dfu/CMakeFiles/dfu_no_serial_nrf52840_xxAA_s140_6.0.0.dir/__/__/mesh/core/src/packet_buffer.c.obj
 .data          0x00000000        0x0 examples/dfu/CMakeFiles/dfu_no_serial_nrf52840_xxAA_s140_6.0.0.dir/__/__/mesh/core/src/packet_buffer.c.obj
 .bss           0x00000000        0x0 examples/dfu/CMakeFiles/dfu_no_serial_nrf52840_xxAA_s140_6.0.0.dir/__/__/mesh/core/src/packet_buffer.c.obj
 .text.packet_buffer_max_packet_len_get
                0x00000000       0x20 examples/dfu/CMakeFiles/dfu_no_serial_nrf52840_xxAA_s140_6.0.0.dir/__/__/mesh/core/src/packet_buffer.c.obj
 .text          0x00000000        0x0 examples/dfu/CMakeFiles/dfu_no_serial_nrf52840_xxAA_s140_6.0.0.dir/__/__/mesh/core/src/flash_manager_defrag.c.obj
 .data          0x00000000        0x0 examples/dfu/CMakeFiles/dfu_no_serial_nrf52840_xxAA_s140_6.0.0.dir/__/__/mesh/core/src/flash_manager_defrag.c.obj
 .bss           0x00000000        0x0 examples/dfu/CMakeFiles/dfu_no_serial_nrf52840_xxAA_s140_6.0.0.dir/__/__/mesh/core/src/flash_manager_defrag.c.obj
 .text.flash_manager_defragging
                0x00000000       0x38 examples/dfu/CMakeFiles/dfu_no_serial_nrf52840_xxAA_s140_6.0.0.dir/__/__/mesh/core/src/flash_manager_defrag.c.obj
 .text          0x00000000        0x0 examples/dfu/CMakeFiles/dfu_no_serial_nrf52840_xxAA_s140_6.0.0.dir/__/__/mesh/core/src/fifo.c.obj
 .data          0x00000000        0x0 examples/dfu/CMakeFiles/dfu_no_serial_nrf52840_xxAA_s140_6.0.0.dir/__/__/mesh/core/src/fifo.c.obj
 .bss           0x00000000        0x0 examples/dfu/CMakeFiles/dfu_no_serial_nrf52840_xxAA_s140_6.0.0.dir/__/__/mesh/core/src/fifo.c.obj
 .text.fifo_peek_at
                0x00000000       0x50 examples/dfu/CMakeFiles/dfu_no_serial_nrf52840_xxAA_s140_6.0.0.dir/__/__/mesh/core/src/fifo.c.obj
 .text.fifo_peek
                0x00000000        0x6 examples/dfu/CMakeFiles/dfu_no_serial_nrf52840_xxAA_s140_6.0.0.dir/__/__/mesh/core/src/fifo.c.obj
 .text.fifo_flush
                0x00000000        0x6 examples/dfu/CMakeFiles/dfu_no_serial_nrf52840_xxAA_s140_6.0.0.dir/__/__/mesh/core/src/fifo.c.obj
 .text.fifo_get_len
                0x00000000        0x8 examples/dfu/CMakeFiles/dfu_no_serial_nrf52840_xxAA_s140_6.0.0.dir/__/__/mesh/core/src/fifo.c.obj
 .text.fifo_is_full
                0x00000000       0x10 examples/dfu/CMakeFiles/dfu_no_serial_nrf52840_xxAA_s140_6.0.0.dir/__/__/mesh/core/src/fifo.c.obj
 .text.fifo_is_empty
                0x00000000        0xc examples/dfu/CMakeFiles/dfu_no_serial_nrf52840_xxAA_s140_6.0.0.dir/__/__/mesh/core/src/fifo.c.obj
 .text          0x00000000        0x0 examples/dfu/CMakeFiles/dfu_no_serial_nrf52840_xxAA_s140_6.0.0.dir/__/__/mesh/core/src/nrf_flash.c.obj
 .data          0x00000000        0x0 examples/dfu/CMakeFiles/dfu_no_serial_nrf52840_xxAA_s140_6.0.0.dir/__/__/mesh/core/src/nrf_flash.c.obj
 .bss           0x00000000        0x0 examples/dfu/CMakeFiles/dfu_no_serial_nrf52840_xxAA_s140_6.0.0.dir/__/__/mesh/core/src/nrf_flash.c.obj
 .text          0x00000000        0x0 examples/dfu/CMakeFiles/dfu_no_serial_nrf52840_xxAA_s140_6.0.0.dir/__/__/mesh/core/src/packet_mgr.c.obj
 .data          0x00000000        0x0 examples/dfu/CMakeFiles/dfu_no_serial_nrf52840_xxAA_s140_6.0.0.dir/__/__/mesh/core/src/packet_mgr.c.obj
 .bss           0x00000000        0x0 examples/dfu/CMakeFiles/dfu_no_serial_nrf52840_xxAA_s140_6.0.0.dir/__/__/mesh/core/src/packet_mgr.c.obj
 .text.packet_mgr_alloc
                0x00000000      0x17c examples/dfu/CMakeFiles/dfu_no_serial_nrf52840_xxAA_s140_6.0.0.dir/__/__/mesh/core/src/packet_mgr.c.obj
 .text.packet_mgr_free
                0x00000000       0x58 examples/dfu/CMakeFiles/dfu_no_serial_nrf52840_xxAA_s140_6.0.0.dir/__/__/mesh/core/src/packet_mgr.c.obj
 .text.packet_mgr_get_free_space
                0x00000000       0x1c examples/dfu/CMakeFiles/dfu_no_serial_nrf52840_xxAA_s140_6.0.0.dir/__/__/mesh/core/src/packet_mgr.c.obj
 .text.packet_mgr_refcount_get
                0x00000000        0x6 examples/dfu/CMakeFiles/dfu_no_serial_nrf52840_xxAA_s140_6.0.0.dir/__/__/mesh/core/src/packet_mgr.c.obj
 .text.packet_mgr_size_get
                0x00000000        0x6 examples/dfu/CMakeFiles/dfu_no_serial_nrf52840_xxAA_s140_6.0.0.dir/__/__/mesh/core/src/packet_mgr.c.obj
 .text          0x00000000        0x0 examples/dfu/CMakeFiles/dfu_no_serial_nrf52840_xxAA_s140_6.0.0.dir/__/__/mesh/core/src/net_state.c.obj
 .data          0x00000000        0x0 examples/dfu/CMakeFiles/dfu_no_serial_nrf52840_xxAA_s140_6.0.0.dir/__/__/mesh/core/src/net_state.c.obj
 .bss           0x00000000        0x0 examples/dfu/CMakeFiles/dfu_no_serial_nrf52840_xxAA_s140_6.0.0.dir/__/__/mesh/core/src/net_state.c.obj
 .text.net_state_iv_update_test_mode_set
                0x00000000        0xc examples/dfu/CMakeFiles/dfu_no_serial_nrf52840_xxAA_s140_6.0.0.dir/__/__/mesh/core/src/net_state.c.obj
 .text.net_state_test_mode_transition_run
                0x00000000       0x2c examples/dfu/CMakeFiles/dfu_no_serial_nrf52840_xxAA_s140_6.0.0.dir/__/__/mesh/core/src/net_state.c.obj
 .text          0x00000000        0x0 examples/dfu/CMakeFiles/dfu_no_serial_nrf52840_xxAA_s140_6.0.0.dir/__/__/mesh/core/src/mesh_flash.c.obj
 .data          0x00000000        0x0 examples/dfu/CMakeFiles/dfu_no_serial_nrf52840_xxAA_s140_6.0.0.dir/__/__/mesh/core/src/mesh_flash.c.obj
 .bss           0x00000000        0x0 examples/dfu/CMakeFiles/dfu_no_serial_nrf52840_xxAA_s140_6.0.0.dir/__/__/mesh/core/src/mesh_flash.c.obj
 .text.mesh_flash_op_available_slots
                0x00000000       0x2c examples/dfu/CMakeFiles/dfu_no_serial_nrf52840_xxAA_s140_6.0.0.dir/__/__/mesh/core/src/mesh_flash.c.obj
 .text          0x00000000        0x0 examples/dfu/CMakeFiles/dfu_no_serial_nrf52840_xxAA_s140_6.0.0.dir/__/__/mesh/core/src/nrf_mesh_utils.c.obj
 .data          0x00000000        0x0 examples/dfu/CMakeFiles/dfu_no_serial_nrf52840_xxAA_s140_6.0.0.dir/__/__/mesh/core/src/nrf_mesh_utils.c.obj
 .bss           0x00000000        0x0 examples/dfu/CMakeFiles/dfu_no_serial_nrf52840_xxAA_s140_6.0.0.dir/__/__/mesh/core/src/nrf_mesh_utils.c.obj
 .text.nrf_mesh_rand_get
                0x00000000       0x10 examples/dfu/CMakeFiles/dfu_no_serial_nrf52840_xxAA_s140_6.0.0.dir/__/__/mesh/core/src/nrf_mesh_utils.c.obj
 .text.nrf_mesh_gap_address_type_get
                0x00000000       0x30 examples/dfu/CMakeFiles/dfu_no_serial_nrf52840_xxAA_s140_6.0.0.dir/__/__/mesh/core/src/nrf_mesh_utils.c.obj
 .text          0x00000000        0x0 examples/dfu/CMakeFiles/dfu_no_serial_nrf52840_xxAA_s140_6.0.0.dir/__/__/mesh/core/src/nrf_mesh.c.obj
 .data          0x00000000        0x0 examples/dfu/CMakeFiles/dfu_no_serial_nrf52840_xxAA_s140_6.0.0.dir/__/__/mesh/core/src/nrf_mesh.c.obj
 .bss           0x00000000        0x0 examples/dfu/CMakeFiles/dfu_no_serial_nrf52840_xxAA_s140_6.0.0.dir/__/__/mesh/core/src/nrf_mesh.c.obj
 .text.nrf_mesh_disable
                0x00000000       0x28 examples/dfu/CMakeFiles/dfu_no_serial_nrf52840_xxAA_s140_6.0.0.dir/__/__/mesh/core/src/nrf_mesh.c.obj
 .text.nrf_mesh_process
                0x00000000        0x4 examples/dfu/CMakeFiles/dfu_no_serial_nrf52840_xxAA_s140_6.0.0.dir/__/__/mesh/core/src/nrf_mesh.c.obj
 .text.nrf_mesh_evt_handler_remove
                0x00000000        0x4 examples/dfu/CMakeFiles/dfu_no_serial_nrf52840_xxAA_s140_6.0.0.dir/__/__/mesh/core/src/nrf_mesh.c.obj
 .text.nrf_mesh_rx_cb_set
                0x00000000        0xc examples/dfu/CMakeFiles/dfu_no_serial_nrf52840_xxAA_s140_6.0.0.dir/__/__/mesh/core/src/nrf_mesh.c.obj
 .text.nrf_mesh_rx_cb_clear
                0x00000000        0xc examples/dfu/CMakeFiles/dfu_no_serial_nrf52840_xxAA_s140_6.0.0.dir/__/__/mesh/core/src/nrf_mesh.c.obj
 .text          0x00000000        0x0 examples/dfu/CMakeFiles/dfu_no_serial_nrf52840_xxAA_s140_6.0.0.dir/__/__/mesh/core/src/queue.c.obj
 .data          0x00000000        0x0 examples/dfu/CMakeFiles/dfu_no_serial_nrf52840_xxAA_s140_6.0.0.dir/__/__/mesh/core/src/queue.c.obj
 .bss           0x00000000        0x0 examples/dfu/CMakeFiles/dfu_no_serial_nrf52840_xxAA_s140_6.0.0.dir/__/__/mesh/core/src/queue.c.obj
 .text          0x00000000        0x0 examples/dfu/CMakeFiles/dfu_no_serial_nrf52840_xxAA_s140_6.0.0.dir/__/__/mesh/core/src/hal.c.obj
 .data          0x00000000        0x0 examples/dfu/CMakeFiles/dfu_no_serial_nrf52840_xxAA_s140_6.0.0.dir/__/__/mesh/core/src/hal.c.obj
 .bss           0x00000000        0x0 examples/dfu/CMakeFiles/dfu_no_serial_nrf52840_xxAA_s140_6.0.0.dir/__/__/mesh/core/src/hal.c.obj
 .text          0x00000000        0x0 examples/dfu/CMakeFiles/dfu_no_serial_nrf52840_xxAA_s140_6.0.0.dir/__/__/mesh/core/src/aes_cmac.c.obj
 .data          0x00000000        0x0 examples/dfu/CMakeFiles/dfu_no_serial_nrf52840_xxAA_s140_6.0.0.dir/__/__/mesh/core/src/aes_cmac.c.obj
 .bss           0x00000000        0x0 examples/dfu/CMakeFiles/dfu_no_serial_nrf52840_xxAA_s140_6.0.0.dir/__/__/mesh/core/src/aes_cmac.c.obj
 .text          0x00000000        0x0 examples/dfu/CMakeFiles/dfu_no_serial_nrf52840_xxAA_s140_6.0.0.dir/__/__/mesh/core/src/timer_scheduler.c.obj
 .data          0x00000000        0x0 examples/dfu/CMakeFiles/dfu_no_serial_nrf52840_xxAA_s140_6.0.0.dir/__/__/mesh/core/src/timer_scheduler.c.obj
 .bss           0x00000000        0x0 examples/dfu/CMakeFiles/dfu_no_serial_nrf52840_xxAA_s140_6.0.0.dir/__/__/mesh/core/src/timer_scheduler.c.obj
 .text          0x00000000        0x0 examples/dfu/CMakeFiles/dfu_no_serial_nrf52840_xxAA_s140_6.0.0.dir/__/__/mesh/core/src/timer.c.obj
 .data          0x00000000        0x0 examples/dfu/CMakeFiles/dfu_no_serial_nrf52840_xxAA_s140_6.0.0.dir/__/__/mesh/core/src/timer.c.obj
 .bss           0x00000000        0x0 examples/dfu/CMakeFiles/dfu_no_serial_nrf52840_xxAA_s140_6.0.0.dir/__/__/mesh/core/src/timer.c.obj
 .text.timer_order_cb_ppi
                0x00000000       0xc4 examples/dfu/CMakeFiles/dfu_no_serial_nrf52840_xxAA_s140_6.0.0.dir/__/__/mesh/core/src/timer.c.obj
 .text.timer_order_ppi
                0x00000000       0xc0 examples/dfu/CMakeFiles/dfu_no_serial_nrf52840_xxAA_s140_6.0.0.dir/__/__/mesh/core/src/timer.c.obj
 .text.timer_abort
                0x00000000       0x78 examples/dfu/CMakeFiles/dfu_no_serial_nrf52840_xxAA_s140_6.0.0.dir/__/__/mesh/core/src/timer.c.obj
 .text          0x00000000        0x0 examples/dfu/CMakeFiles/dfu_no_serial_nrf52840_xxAA_s140_6.0.0.dir/__/__/mesh/core/src/ticker.c.obj
 .data          0x00000000        0x0 examples/dfu/CMakeFiles/dfu_no_serial_nrf52840_xxAA_s140_6.0.0.dir/__/__/mesh/core/src/ticker.c.obj
 .bss           0x00000000        0x0 examples/dfu/CMakeFiles/dfu_no_serial_nrf52840_xxAA_s140_6.0.0.dir/__/__/mesh/core/src/ticker.c.obj
 .text.ticker_get
                0x00000000        0xc examples/dfu/CMakeFiles/dfu_no_serial_nrf52840_xxAA_s140_6.0.0.dir/__/__/mesh/core/src/ticker.c.obj
 .text          0x00000000        0x0 examples/dfu/CMakeFiles/dfu_no_serial_nrf52840_xxAA_s140_6.0.0.dir/__/__/mesh/core/src/rand.c.obj
 .data          0x00000000        0x0 examples/dfu/CMakeFiles/dfu_no_serial_nrf52840_xxAA_s140_6.0.0.dir/__/__/mesh/core/src/rand.c.obj
 .bss           0x00000000        0x0 examples/dfu/CMakeFiles/dfu_no_serial_nrf52840_xxAA_s140_6.0.0.dir/__/__/mesh/core/src/rand.c.obj
 .text          0x00000000        0x0 examples/dfu/CMakeFiles/dfu_no_serial_nrf52840_xxAA_s140_6.0.0.dir/__/__/mesh/core/src/nrf_mesh_opt.c.obj
 .data          0x00000000        0x0 examples/dfu/CMakeFiles/dfu_no_serial_nrf52840_xxAA_s140_6.0.0.dir/__/__/mesh/core/src/nrf_mesh_opt.c.obj
 .bss           0x00000000        0x0 examples/dfu/CMakeFiles/dfu_no_serial_nrf52840_xxAA_s140_6.0.0.dir/__/__/mesh/core/src/nrf_mesh_opt.c.obj
 .text          0x00000000        0x0 examples/dfu/CMakeFiles/dfu_no_serial_nrf52840_xxAA_s140_6.0.0.dir/__/__/mesh/core/src/timeslot.c.obj
 .data          0x00000000        0x0 examples/dfu/CMakeFiles/dfu_no_serial_nrf52840_xxAA_s140_6.0.0.dir/__/__/mesh/core/src/timeslot.c.obj
 .bss           0x00000000        0x0 examples/dfu/CMakeFiles/dfu_no_serial_nrf52840_xxAA_s140_6.0.0.dir/__/__/mesh/core/src/timeslot.c.obj
 .text.timeslot_end_time_get
                0x00000000       0x10 examples/dfu/CMakeFiles/dfu_no_serial_nrf52840_xxAA_s140_6.0.0.dir/__/__/mesh/core/src/timeslot.c.obj
 .text.timeslot_is_in_ts
                0x00000000        0xc examples/dfu/CMakeFiles/dfu_no_serial_nrf52840_xxAA_s140_6.0.0.dir/__/__/mesh/core/src/timeslot.c.obj
 .text.timeslot_restart
                0x00000000       0x10 examples/dfu/CMakeFiles/dfu_no_serial_nrf52840_xxAA_s140_6.0.0.dir/__/__/mesh/core/src/timeslot.c.obj
 .text          0x00000000        0x0 examples/dfu/CMakeFiles/dfu_no_serial_nrf52840_xxAA_s140_6.0.0.dir/__/__/mesh/core/src/bearer_event.c.obj
 .data          0x00000000        0x0 examples/dfu/CMakeFiles/dfu_no_serial_nrf52840_xxAA_s140_6.0.0.dir/__/__/mesh/core/src/bearer_event.c.obj
 .bss           0x00000000        0x0 examples/dfu/CMakeFiles/dfu_no_serial_nrf52840_xxAA_s140_6.0.0.dir/__/__/mesh/core/src/bearer_event.c.obj
 .text.bearer_event_generic_post
                0x00000000       0x24 examples/dfu/CMakeFiles/dfu_no_serial_nrf52840_xxAA_s140_6.0.0.dir/__/__/mesh/core/src/bearer_event.c.obj
 .text.bearer_event_timer_sch_post
                0x00000000       0x26 examples/dfu/CMakeFiles/dfu_no_serial_nrf52840_xxAA_s140_6.0.0.dir/__/__/mesh/core/src/bearer_event.c.obj
 .text.bearer_event_in_correct_irq_priority
                0x00000000       0x48 examples/dfu/CMakeFiles/dfu_no_serial_nrf52840_xxAA_s140_6.0.0.dir/__/__/mesh/core/src/bearer_event.c.obj
 .text          0x00000000        0x0 examples/dfu/CMakeFiles/dfu_no_serial_nrf52840_xxAA_s140_6.0.0.dir/__/__/mesh/core/src/enc.c.obj
 .data          0x00000000        0x0 examples/dfu/CMakeFiles/dfu_no_serial_nrf52840_xxAA_s140_6.0.0.dir/__/__/mesh/core/src/enc.c.obj
 .bss           0x00000000        0x0 examples/dfu/CMakeFiles/dfu_no_serial_nrf52840_xxAA_s140_6.0.0.dir/__/__/mesh/core/src/enc.c.obj
 .text.enc_key_generate
                0x00000000        0x6 examples/dfu/CMakeFiles/dfu_no_serial_nrf52840_xxAA_s140_6.0.0.dir/__/__/mesh/core/src/enc.c.obj
 .text          0x00000000        0x0 examples/dfu/CMakeFiles/dfu_no_serial_nrf52840_xxAA_s140_6.0.0.dir/__/__/mesh/core/src/network.c.obj
 .data          0x00000000        0x0 examples/dfu/CMakeFiles/dfu_no_serial_nrf52840_xxAA_s140_6.0.0.dir/__/__/mesh/core/src/network.c.obj
 .bss           0x00000000        0x0 examples/dfu/CMakeFiles/dfu_no_serial_nrf52840_xxAA_s140_6.0.0.dir/__/__/mesh/core/src/network.c.obj
 .text.network_packet_discard
                0x00000000       0x1e examples/dfu/CMakeFiles/dfu_no_serial_nrf52840_xxAA_s140_6.0.0.dir/__/__/mesh/core/src/network.c.obj
 .text          0x00000000        0x0 examples/dfu/CMakeFiles/dfu_no_serial_nrf52840_xxAA_s140_6.0.0.dir/__/__/mesh/core/src/net_packet.c.obj
 .data          0x00000000        0x0 examples/dfu/CMakeFiles/dfu_no_serial_nrf52840_xxAA_s140_6.0.0.dir/__/__/mesh/core/src/net_packet.c.obj
 .bss           0x00000000        0x0 examples/dfu/CMakeFiles/dfu_no_serial_nrf52840_xxAA_s140_6.0.0.dir/__/__/mesh/core/src/net_packet.c.obj
 .text.net_packet_enc_start_get
                0x00000000        0x4 examples/dfu/CMakeFiles/dfu_no_serial_nrf52840_xxAA_s140_6.0.0.dir/__/__/mesh/core/src/net_packet.c.obj
 .text.net_packet_payload_get
                0x00000000        0x4 examples/dfu/CMakeFiles/dfu_no_serial_nrf52840_xxAA_s140_6.0.0.dir/__/__/mesh/core/src/net_packet.c.obj
 .text          0x00000000        0x0 examples/dfu/CMakeFiles/dfu_no_serial_nrf52840_xxAA_s140_6.0.0.dir/__/__/mesh/core/src/msqueue.c.obj
 .data          0x00000000        0x0 examples/dfu/CMakeFiles/dfu_no_serial_nrf52840_xxAA_s140_6.0.0.dir/__/__/mesh/core/src/msqueue.c.obj
 .bss           0x00000000        0x0 examples/dfu/CMakeFiles/dfu_no_serial_nrf52840_xxAA_s140_6.0.0.dir/__/__/mesh/core/src/msqueue.c.obj
 .text          0x00000000        0x0 examples/dfu/CMakeFiles/dfu_no_serial_nrf52840_xxAA_s140_6.0.0.dir/__/__/mesh/core/src/nrf_mesh_keygen.c.obj
 .data          0x00000000        0x0 examples/dfu/CMakeFiles/dfu_no_serial_nrf52840_xxAA_s140_6.0.0.dir/__/__/mesh/core/src/nrf_mesh_keygen.c.obj
 .bss           0x00000000        0x0 examples/dfu/CMakeFiles/dfu_no_serial_nrf52840_xxAA_s140_6.0.0.dir/__/__/mesh/core/src/nrf_mesh_keygen.c.obj
 .text.nrf_mesh_keygen_identitykey
                0x00000000       0x4c examples/dfu/CMakeFiles/dfu_no_serial_nrf52840_xxAA_s140_6.0.0.dir/__/__/mesh/core/src/nrf_mesh_keygen.c.obj
 .text          0x00000000        0x0 examples/dfu/CMakeFiles/dfu_no_serial_nrf52840_xxAA_s140_6.0.0.dir/__/__/mesh/core/src/cache.c.obj
 .data          0x00000000        0x0 examples/dfu/CMakeFiles/dfu_no_serial_nrf52840_xxAA_s140_6.0.0.dir/__/__/mesh/core/src/cache.c.obj
 .bss           0x00000000        0x0 examples/dfu/CMakeFiles/dfu_no_serial_nrf52840_xxAA_s140_6.0.0.dir/__/__/mesh/core/src/cache.c.obj
 .text.erase_at
                0x00000000       0x1c examples/dfu/CMakeFiles/dfu_no_serial_nrf52840_xxAA_s140_6.0.0.dir/__/__/mesh/core/src/cache.c.obj
 .text.cache_init
                0x00000000       0x1e examples/dfu/CMakeFiles/dfu_no_serial_nrf52840_xxAA_s140_6.0.0.dir/__/__/mesh/core/src/cache.c.obj
 .text.cache_has_elem
                0x00000000       0x3e examples/dfu/CMakeFiles/dfu_no_serial_nrf52840_xxAA_s140_6.0.0.dir/__/__/mesh/core/src/cache.c.obj
 .text.cache_put
                0x00000000       0x2a examples/dfu/CMakeFiles/dfu_no_serial_nrf52840_xxAA_s140_6.0.0.dir/__/__/mesh/core/src/cache.c.obj
 .text.cache_erase_elem
                0x00000000       0x4c examples/dfu/CMakeFiles/dfu_no_serial_nrf52840_xxAA_s140_6.0.0.dir/__/__/mesh/core/src/cache.c.obj
 .debug_info    0x00000000      0xbe1 examples/dfu/CMakeFiles/dfu_no_serial_nrf52840_xxAA_s140_6.0.0.dir/__/__/mesh/core/src/cache.c.obj
 .debug_abbrev  0x00000000      0x2a3 examples/dfu/CMakeFiles/dfu_no_serial_nrf52840_xxAA_s140_6.0.0.dir/__/__/mesh/core/src/cache.c.obj
 .debug_loc     0x00000000      0x29b examples/dfu/CMakeFiles/dfu_no_serial_nrf52840_xxAA_s140_6.0.0.dir/__/__/mesh/core/src/cache.c.obj
 .debug_aranges
                0x00000000       0x40 examples/dfu/CMakeFiles/dfu_no_serial_nrf52840_xxAA_s140_6.0.0.dir/__/__/mesh/core/src/cache.c.obj
 .debug_ranges  0x00000000       0x80 examples/dfu/CMakeFiles/dfu_no_serial_nrf52840_xxAA_s140_6.0.0.dir/__/__/mesh/core/src/cache.c.obj
 .debug_line    0x00000000      0x21e examples/dfu/CMakeFiles/dfu_no_serial_nrf52840_xxAA_s140_6.0.0.dir/__/__/mesh/core/src/cache.c.obj
 .debug_str     0x00000000      0x6af examples/dfu/CMakeFiles/dfu_no_serial_nrf52840_xxAA_s140_6.0.0.dir/__/__/mesh/core/src/cache.c.obj
 .comment       0x00000000       0x80 examples/dfu/CMakeFiles/dfu_no_serial_nrf52840_xxAA_s140_6.0.0.dir/__/__/mesh/core/src/cache.c.obj
 .debug_frame   0x00000000       0xb0 examples/dfu/CMakeFiles/dfu_no_serial_nrf52840_xxAA_s140_6.0.0.dir/__/__/mesh/core/src/cache.c.obj
 .ARM.attributes
                0x00000000       0x39 examples/dfu/CMakeFiles/dfu_no_serial_nrf52840_xxAA_s140_6.0.0.dir/__/__/mesh/core/src/cache.c.obj
 .text          0x00000000        0x0 examples/dfu/CMakeFiles/dfu_no_serial_nrf52840_xxAA_s140_6.0.0.dir/__/__/mesh/core/src/uri.c.obj
 .data          0x00000000        0x0 examples/dfu/CMakeFiles/dfu_no_serial_nrf52840_xxAA_s140_6.0.0.dir/__/__/mesh/core/src/uri.c.obj
 .bss           0x00000000        0x0 examples/dfu/CMakeFiles/dfu_no_serial_nrf52840_xxAA_s140_6.0.0.dir/__/__/mesh/core/src/uri.c.obj
 .text.uri_data_parse
                0x00000000       0x78 examples/dfu/CMakeFiles/dfu_no_serial_nrf52840_xxAA_s140_6.0.0.dir/__/__/mesh/core/src/uri.c.obj
 .text.uri_scheme_name_code_point
                0x00000000       0x5c examples/dfu/CMakeFiles/dfu_no_serial_nrf52840_xxAA_s140_6.0.0.dir/__/__/mesh/core/src/uri.c.obj
 .text.uri_data_generate
                0x00000000       0x52 examples/dfu/CMakeFiles/dfu_no_serial_nrf52840_xxAA_s140_6.0.0.dir/__/__/mesh/core/src/uri.c.obj
 .text.uri_scheme_name_string
                0x00000000       0x14 examples/dfu/CMakeFiles/dfu_no_serial_nrf52840_xxAA_s140_6.0.0.dir/__/__/mesh/core/src/uri.c.obj
 .rodata.m_code_point_strings
                0x00000000      0x2ec examples/dfu/CMakeFiles/dfu_no_serial_nrf52840_xxAA_s140_6.0.0.dir/__/__/mesh/core/src/uri.c.obj
 .rodata.str1.1
                0x00000000      0x566 examples/dfu/CMakeFiles/dfu_no_serial_nrf52840_xxAA_s140_6.0.0.dir/__/__/mesh/core/src/uri.c.obj
 .debug_info    0x00000000      0xcac examples/dfu/CMakeFiles/dfu_no_serial_nrf52840_xxAA_s140_6.0.0.dir/__/__/mesh/core/src/uri.c.obj
 .debug_abbrev  0x00000000      0x2e4 examples/dfu/CMakeFiles/dfu_no_serial_nrf52840_xxAA_s140_6.0.0.dir/__/__/mesh/core/src/uri.c.obj
 .debug_loc     0x00000000      0x253 examples/dfu/CMakeFiles/dfu_no_serial_nrf52840_xxAA_s140_6.0.0.dir/__/__/mesh/core/src/uri.c.obj
 .debug_aranges
                0x00000000       0x38 examples/dfu/CMakeFiles/dfu_no_serial_nrf52840_xxAA_s140_6.0.0.dir/__/__/mesh/core/src/uri.c.obj
 .debug_ranges  0x00000000       0x48 examples/dfu/CMakeFiles/dfu_no_serial_nrf52840_xxAA_s140_6.0.0.dir/__/__/mesh/core/src/uri.c.obj
 .debug_line    0x00000000      0x2b1 examples/dfu/CMakeFiles/dfu_no_serial_nrf52840_xxAA_s140_6.0.0.dir/__/__/mesh/core/src/uri.c.obj
 .debug_str     0x00000000      0x6dd examples/dfu/CMakeFiles/dfu_no_serial_nrf52840_xxAA_s140_6.0.0.dir/__/__/mesh/core/src/uri.c.obj
 .comment       0x00000000       0x80 examples/dfu/CMakeFiles/dfu_no_serial_nrf52840_xxAA_s140_6.0.0.dir/__/__/mesh/core/src/uri.c.obj
 .debug_frame   0x00000000       0x84 examples/dfu/CMakeFiles/dfu_no_serial_nrf52840_xxAA_s140_6.0.0.dir/__/__/mesh/core/src/uri.c.obj
 .ARM.attributes
                0x00000000       0x39 examples/dfu/CMakeFiles/dfu_no_serial_nrf52840_xxAA_s140_6.0.0.dir/__/__/mesh/core/src/uri.c.obj
 .text          0x00000000        0x0 examples/dfu/CMakeFiles/dfu_no_serial_nrf52840_xxAA_s140_6.0.0.dir/__/__/mesh/core/src/list.c.obj
 .data          0x00000000        0x0 examples/dfu/CMakeFiles/dfu_no_serial_nrf52840_xxAA_s140_6.0.0.dir/__/__/mesh/core/src/list.c.obj
 .bss           0x00000000        0x0 examples/dfu/CMakeFiles/dfu_no_serial_nrf52840_xxAA_s140_6.0.0.dir/__/__/mesh/core/src/list.c.obj
 .text.list_size_get
                0x00000000       0x12 examples/dfu/CMakeFiles/dfu_no_serial_nrf52840_xxAA_s140_6.0.0.dir/__/__/mesh/core/src/list.c.obj
 .text.list_sorted_add
                0x00000000       0x6c examples/dfu/CMakeFiles/dfu_no_serial_nrf52840_xxAA_s140_6.0.0.dir/__/__/mesh/core/src/list.c.obj
 .text          0x00000000        0x0 examples/dfu/CMakeFiles/dfu_no_serial_nrf52840_xxAA_s140_6.0.0.dir/__/__/mesh/core/src/log.c.obj
 .data          0x00000000        0x0 examples/dfu/CMakeFiles/dfu_no_serial_nrf52840_xxAA_s140_6.0.0.dir/__/__/mesh/core/src/log.c.obj
 .bss           0x00000000        0x0 examples/dfu/CMakeFiles/dfu_no_serial_nrf52840_xxAA_s140_6.0.0.dir/__/__/mesh/core/src/log.c.obj
 .text.log_callback_logview
                0x00000000       0x38 examples/dfu/CMakeFiles/dfu_no_serial_nrf52840_xxAA_s140_6.0.0.dir/__/__/mesh/core/src/log.c.obj
 .text.log_set_callback
                0x00000000        0xc examples/dfu/CMakeFiles/dfu_no_serial_nrf52840_xxAA_s140_6.0.0.dir/__/__/mesh/core/src/log.c.obj
 .rodata.log_callback_logview.str1.1
                0x00000000        0xf examples/dfu/CMakeFiles/dfu_no_serial_nrf52840_xxAA_s140_6.0.0.dir/__/__/mesh/core/src/log.c.obj
 .text          0x00000000        0x0 examples/dfu/CMakeFiles/dfu_no_serial_nrf52840_xxAA_s140_6.0.0.dir/__/__/mesh/core/src/flash_manager.c.obj
 .data          0x00000000        0x0 examples/dfu/CMakeFiles/dfu_no_serial_nrf52840_xxAA_s140_6.0.0.dir/__/__/mesh/core/src/flash_manager.c.obj
 .bss           0x00000000        0x0 examples/dfu/CMakeFiles/dfu_no_serial_nrf52840_xxAA_s140_6.0.0.dir/__/__/mesh/core/src/flash_manager.c.obj
 .text.flash_manager_entry_count_get
                0x00000000       0x50 examples/dfu/CMakeFiles/dfu_no_serial_nrf52840_xxAA_s140_6.0.0.dir/__/__/mesh/core/src/flash_manager.c.obj
 .text.flash_manager_entry_release
                0x00000000       0x2c examples/dfu/CMakeFiles/dfu_no_serial_nrf52840_xxAA_s140_6.0.0.dir/__/__/mesh/core/src/flash_manager.c.obj
 .text          0x00000000        0x0 examples/dfu/CMakeFiles/dfu_no_serial_nrf52840_xxAA_s140_6.0.0.dir/__/__/mesh/core/src/ccm_soft.c.obj
 .data          0x00000000        0x0 examples/dfu/CMakeFiles/dfu_no_serial_nrf52840_xxAA_s140_6.0.0.dir/__/__/mesh/core/src/ccm_soft.c.obj
 .bss           0x00000000        0x0 examples/dfu/CMakeFiles/dfu_no_serial_nrf52840_xxAA_s140_6.0.0.dir/__/__/mesh/core/src/ccm_soft.c.obj
 .text          0x00000000        0x0 examples/dfu/CMakeFiles/dfu_no_serial_nrf52840_xxAA_s140_6.0.0.dir/__/__/mesh/core/src/toolchain.c.obj
 .data          0x00000000        0x0 examples/dfu/CMakeFiles/dfu_no_serial_nrf52840_xxAA_s140_6.0.0.dir/__/__/mesh/core/src/toolchain.c.obj
 .bss           0x00000000        0x0 examples/dfu/CMakeFiles/dfu_no_serial_nrf52840_xxAA_s140_6.0.0.dir/__/__/mesh/core/src/toolchain.c.obj
 .debug_info    0x00000000       0xb3 examples/dfu/CMakeFiles/dfu_no_serial_nrf52840_xxAA_s140_6.0.0.dir/__/__/mesh/core/src/toolchain.c.obj
 .debug_abbrev  0x00000000       0x5c examples/dfu/CMakeFiles/dfu_no_serial_nrf52840_xxAA_s140_6.0.0.dir/__/__/mesh/core/src/toolchain.c.obj
 .debug_aranges
                0x00000000       0x18 examples/dfu/CMakeFiles/dfu_no_serial_nrf52840_xxAA_s140_6.0.0.dir/__/__/mesh/core/src/toolchain.c.obj
 .debug_line    0x00000000      0x127 examples/dfu/CMakeFiles/dfu_no_serial_nrf52840_xxAA_s140_6.0.0.dir/__/__/mesh/core/src/toolchain.c.obj
 .debug_str     0x00000000      0x1fa examples/dfu/CMakeFiles/dfu_no_serial_nrf52840_xxAA_s140_6.0.0.dir/__/__/mesh/core/src/toolchain.c.obj
 .comment       0x00000000       0x80 examples/dfu/CMakeFiles/dfu_no_serial_nrf52840_xxAA_s140_6.0.0.dir/__/__/mesh/core/src/toolchain.c.obj
 .ARM.attributes
                0x00000000       0x39 examples/dfu/CMakeFiles/dfu_no_serial_nrf52840_xxAA_s140_6.0.0.dir/__/__/mesh/core/src/toolchain.c.obj
 .text          0x00000000        0x0 examples/dfu/CMakeFiles/dfu_no_serial_nrf52840_xxAA_s140_6.0.0.dir/__/__/mesh/core/src/replay_cache.c.obj
 .data          0x00000000        0x0 examples/dfu/CMakeFiles/dfu_no_serial_nrf52840_xxAA_s140_6.0.0.dir/__/__/mesh/core/src/replay_cache.c.obj
 .bss           0x00000000        0x0 examples/dfu/CMakeFiles/dfu_no_serial_nrf52840_xxAA_s140_6.0.0.dir/__/__/mesh/core/src/replay_cache.c.obj
 .text.replay_cache_on_iv_update
                0x00000000       0x24 examples/dfu/CMakeFiles/dfu_no_serial_nrf52840_xxAA_s140_6.0.0.dir/__/__/mesh/core/src/replay_cache.c.obj
 .text          0x00000000        0x0 examples/dfu/CMakeFiles/dfu_no_serial_nrf52840_xxAA_s140_6.0.0.dir/__/__/mesh/core/src/beacon.c.obj
 .data          0x00000000        0x0 examples/dfu/CMakeFiles/dfu_no_serial_nrf52840_xxAA_s140_6.0.0.dir/__/__/mesh/core/src/beacon.c.obj
 .bss           0x00000000        0x0 examples/dfu/CMakeFiles/dfu_no_serial_nrf52840_xxAA_s140_6.0.0.dir/__/__/mesh/core/src/beacon.c.obj
 .text          0x00000000        0x0 examples/dfu/CMakeFiles/dfu_no_serial_nrf52840_xxAA_s140_6.0.0.dir/__/__/mesh/core/src/flash_manager_internal.c.obj
 .data          0x00000000        0x0 examples/dfu/CMakeFiles/dfu_no_serial_nrf52840_xxAA_s140_6.0.0.dir/__/__/mesh/core/src/flash_manager_internal.c.obj
 .bss           0x00000000        0x0 examples/dfu/CMakeFiles/dfu_no_serial_nrf52840_xxAA_s140_6.0.0.dir/__/__/mesh/core/src/flash_manager_internal.c.obj
 .text          0x00000000        0x0 examples/dfu/CMakeFiles/dfu_no_serial_nrf52840_xxAA_s140_6.0.0.dir/__/__/mesh/core/src/core_tx.c.obj
 .data          0x00000000        0x0 examples/dfu/CMakeFiles/dfu_no_serial_nrf52840_xxAA_s140_6.0.0.dir/__/__/mesh/core/src/core_tx.c.obj
 .bss           0x00000000        0x0 examples/dfu/CMakeFiles/dfu_no_serial_nrf52840_xxAA_s140_6.0.0.dir/__/__/mesh/core/src/core_tx.c.obj
 .text.core_tx_bearer_type_get
                0x00000000       0x1c examples/dfu/CMakeFiles/dfu_no_serial_nrf52840_xxAA_s140_6.0.0.dir/__/__/mesh/core/src/core_tx.c.obj
 .text.core_tx_bearer_count_get
                0x00000000        0xc examples/dfu/CMakeFiles/dfu_no_serial_nrf52840_xxAA_s140_6.0.0.dir/__/__/mesh/core/src/core_tx.c.obj
 .text          0x00000000        0x0 examples/dfu/CMakeFiles/dfu_no_serial_nrf52840_xxAA_s140_6.0.0.dir/__/__/mesh/core/src/heartbeat.c.obj
 .data          0x00000000        0x0 examples/dfu/CMakeFiles/dfu_no_serial_nrf52840_xxAA_s140_6.0.0.dir/__/__/mesh/core/src/heartbeat.c.obj
 .bss           0x00000000        0x0 examples/dfu/CMakeFiles/dfu_no_serial_nrf52840_xxAA_s140_6.0.0.dir/__/__/mesh/core/src/heartbeat.c.obj
 .text          0x00000000        0x0 examples/dfu/CMakeFiles/dfu_no_serial_nrf52840_xxAA_s140_6.0.0.dir/__/__/mesh/core/src/net_beacon.c.obj
 .data          0x00000000        0x0 examples/dfu/CMakeFiles/dfu_no_serial_nrf52840_xxAA_s140_6.0.0.dir/__/__/mesh/core/src/net_beacon.c.obj
 .bss           0x00000000        0x0 examples/dfu/CMakeFiles/dfu_no_serial_nrf52840_xxAA_s140_6.0.0.dir/__/__/mesh/core/src/net_beacon.c.obj
 .text.net_beacon_build
                0x00000000       0x24 examples/dfu/CMakeFiles/dfu_no_serial_nrf52840_xxAA_s140_6.0.0.dir/__/__/mesh/core/src/net_beacon.c.obj
 .text          0x00000000        0x0 examples/dfu/CMakeFiles/dfu_no_serial_nrf52840_xxAA_s140_6.0.0.dir/__/__/mesh/core/src/fsm.c.obj
 .data          0x00000000        0x0 examples/dfu/CMakeFiles/dfu_no_serial_nrf52840_xxAA_s140_6.0.0.dir/__/__/mesh/core/src/fsm.c.obj
 .bss           0x00000000        0x0 examples/dfu/CMakeFiles/dfu_no_serial_nrf52840_xxAA_s140_6.0.0.dir/__/__/mesh/core/src/fsm.c.obj
 .text.fsm_event_post_try
                0x00000000      0x1ec examples/dfu/CMakeFiles/dfu_no_serial_nrf52840_xxAA_s140_6.0.0.dir/__/__/mesh/core/src/fsm.c.obj
 .text.fsm_init
                0x00000000       0xcc examples/dfu/CMakeFiles/dfu_no_serial_nrf52840_xxAA_s140_6.0.0.dir/__/__/mesh/core/src/fsm.c.obj
 .text.fsm_event_post
                0x00000000       0xac examples/dfu/CMakeFiles/dfu_no_serial_nrf52840_xxAA_s140_6.0.0.dir/__/__/mesh/core/src/fsm.c.obj
 .text.fsm_is_processing
                0x00000000        0xa examples/dfu/CMakeFiles/dfu_no_serial_nrf52840_xxAA_s140_6.0.0.dir/__/__/mesh/core/src/fsm.c.obj
 .rodata.fsm_event_post.str1.1
                0x00000000        0xb examples/dfu/CMakeFiles/dfu_no_serial_nrf52840_xxAA_s140_6.0.0.dir/__/__/mesh/core/src/fsm.c.obj
 .rodata.fsm_event_post_try.str1.1
                0x00000000       0x41 examples/dfu/CMakeFiles/dfu_no_serial_nrf52840_xxAA_s140_6.0.0.dir/__/__/mesh/core/src/fsm.c.obj
 .rodata.fsm_init.str1.1
                0x00000000        0xa examples/dfu/CMakeFiles/dfu_no_serial_nrf52840_xxAA_s140_6.0.0.dir/__/__/mesh/core/src/fsm.c.obj
 .debug_info    0x00000000     0x132d examples/dfu/CMakeFiles/dfu_no_serial_nrf52840_xxAA_s140_6.0.0.dir/__/__/mesh/core/src/fsm.c.obj
 .debug_abbrev  0x00000000      0x345 examples/dfu/CMakeFiles/dfu_no_serial_nrf52840_xxAA_s140_6.0.0.dir/__/__/mesh/core/src/fsm.c.obj
 .debug_loc     0x00000000      0x3fd examples/dfu/CMakeFiles/dfu_no_serial_nrf52840_xxAA_s140_6.0.0.dir/__/__/mesh/core/src/fsm.c.obj
 .debug_aranges
                0x00000000       0x38 examples/dfu/CMakeFiles/dfu_no_serial_nrf52840_xxAA_s140_6.0.0.dir/__/__/mesh/core/src/fsm.c.obj
 .debug_ranges  0x00000000       0xe0 examples/dfu/CMakeFiles/dfu_no_serial_nrf52840_xxAA_s140_6.0.0.dir/__/__/mesh/core/src/fsm.c.obj
 .debug_line    0x00000000      0x3dc examples/dfu/CMakeFiles/dfu_no_serial_nrf52840_xxAA_s140_6.0.0.dir/__/__/mesh/core/src/fsm.c.obj
 .debug_str     0x00000000      0x984 examples/dfu/CMakeFiles/dfu_no_serial_nrf52840_xxAA_s140_6.0.0.dir/__/__/mesh/core/src/fsm.c.obj
 .comment       0x00000000       0x80 examples/dfu/CMakeFiles/dfu_no_serial_nrf52840_xxAA_s140_6.0.0.dir/__/__/mesh/core/src/fsm.c.obj
 .debug_frame   0x00000000       0x9c examples/dfu/CMakeFiles/dfu_no_serial_nrf52840_xxAA_s140_6.0.0.dir/__/__/mesh/core/src/fsm.c.obj
 .ARM.attributes
                0x00000000       0x39 examples/dfu/CMakeFiles/dfu_no_serial_nrf52840_xxAA_s140_6.0.0.dir/__/__/mesh/core/src/fsm.c.obj
 .text          0x00000000        0x0 examples/dfu/CMakeFiles/dfu_no_serial_nrf52840_xxAA_s140_6.0.0.dir/__/__/mesh/core/src/core_tx_adv.c.obj
 .data          0x00000000        0x0 examples/dfu/CMakeFiles/dfu_no_serial_nrf52840_xxAA_s140_6.0.0.dir/__/__/mesh/core/src/core_tx_adv.c.obj
 .bss           0x00000000        0x0 examples/dfu/CMakeFiles/dfu_no_serial_nrf52840_xxAA_s140_6.0.0.dir/__/__/mesh/core/src/core_tx_adv.c.obj
 .text.core_tx_adv_address_set
                0x00000000       0x28 examples/dfu/CMakeFiles/dfu_no_serial_nrf52840_xxAA_s140_6.0.0.dir/__/__/mesh/core/src/core_tx_adv.c.obj
 .text          0x00000000        0x0 examples/dfu/CMakeFiles/dfu_no_serial_nrf52840_xxAA_s140_6.0.0.dir/__/__/mesh/bearer/src/ad_listener.c.obj
 .data          0x00000000        0x0 examples/dfu/CMakeFiles/dfu_no_serial_nrf52840_xxAA_s140_6.0.0.dir/__/__/mesh/bearer/src/ad_listener.c.obj
 .bss           0x00000000        0x0 examples/dfu/CMakeFiles/dfu_no_serial_nrf52840_xxAA_s140_6.0.0.dir/__/__/mesh/bearer/src/ad_listener.c.obj
 .text.ad_listener_unsubscribe
                0x00000000       0x6c examples/dfu/CMakeFiles/dfu_no_serial_nrf52840_xxAA_s140_6.0.0.dir/__/__/mesh/bearer/src/ad_listener.c.obj
 .text          0x00000000        0x0 examples/dfu/CMakeFiles/dfu_no_serial_nrf52840_xxAA_s140_6.0.0.dir/__/__/mesh/bearer/src/ad_type_filter.c.obj
 .data          0x00000000        0x0 examples/dfu/CMakeFiles/dfu_no_serial_nrf52840_xxAA_s140_6.0.0.dir/__/__/mesh/bearer/src/ad_type_filter.c.obj
 .bss           0x00000000        0x0 examples/dfu/CMakeFiles/dfu_no_serial_nrf52840_xxAA_s140_6.0.0.dir/__/__/mesh/bearer/src/ad_type_filter.c.obj
 .text.bearer_adtype_remove
                0x00000000       0x20 examples/dfu/CMakeFiles/dfu_no_serial_nrf52840_xxAA_s140_6.0.0.dir/__/__/mesh/bearer/src/ad_type_filter.c.obj
 .text.bearer_adtype_clear
                0x00000000       0x10 examples/dfu/CMakeFiles/dfu_no_serial_nrf52840_xxAA_s140_6.0.0.dir/__/__/mesh/bearer/src/ad_type_filter.c.obj
 .text.bearer_invalid_length_amount_get
                0x00000000        0xc examples/dfu/CMakeFiles/dfu_no_serial_nrf52840_xxAA_s140_6.0.0.dir/__/__/mesh/bearer/src/ad_type_filter.c.obj
 .text.bearer_adtype_filtered_amount_get
                0x00000000        0xc examples/dfu/CMakeFiles/dfu_no_serial_nrf52840_xxAA_s140_6.0.0.dir/__/__/mesh/bearer/src/ad_type_filter.c.obj
 .text          0x00000000        0x0 examples/dfu/CMakeFiles/dfu_no_serial_nrf52840_xxAA_s140_6.0.0.dir/__/__/mesh/bearer/src/adv_packet_filter.c.obj
 .data          0x00000000        0x0 examples/dfu/CMakeFiles/dfu_no_serial_nrf52840_xxAA_s140_6.0.0.dir/__/__/mesh/bearer/src/adv_packet_filter.c.obj
 .bss           0x00000000        0x0 examples/dfu/CMakeFiles/dfu_no_serial_nrf52840_xxAA_s140_6.0.0.dir/__/__/mesh/bearer/src/adv_packet_filter.c.obj
 .text.adv_filter_handle
                0x00000000       0x3c examples/dfu/CMakeFiles/dfu_no_serial_nrf52840_xxAA_s140_6.0.0.dir/__/__/mesh/bearer/src/adv_packet_filter.c.obj
 .text.bearer_adv_packet_filtering_set
                0x00000000       0x1c examples/dfu/CMakeFiles/dfu_no_serial_nrf52840_xxAA_s140_6.0.0.dir/__/__/mesh/bearer/src/adv_packet_filter.c.obj
 .text.bearer_adv_packet_remove
                0x00000000       0x18 examples/dfu/CMakeFiles/dfu_no_serial_nrf52840_xxAA_s140_6.0.0.dir/__/__/mesh/bearer/src/adv_packet_filter.c.obj
 .text.bearer_adv_packet_add
                0x00000000       0x14 examples/dfu/CMakeFiles/dfu_no_serial_nrf52840_xxAA_s140_6.0.0.dir/__/__/mesh/bearer/src/adv_packet_filter.c.obj
 .text.bearer_adv_packet_clear
                0x00000000        0xc examples/dfu/CMakeFiles/dfu_no_serial_nrf52840_xxAA_s140_6.0.0.dir/__/__/mesh/bearer/src/adv_packet_filter.c.obj
 .text.bearer_adv_packet_filter_mode_set
                0x00000000       0x18 examples/dfu/CMakeFiles/dfu_no_serial_nrf52840_xxAA_s140_6.0.0.dir/__/__/mesh/bearer/src/adv_packet_filter.c.obj
 .text.bearer_adv_packet_filtered_amount_get
                0x00000000        0xc examples/dfu/CMakeFiles/dfu_no_serial_nrf52840_xxAA_s140_6.0.0.dir/__/__/mesh/bearer/src/adv_packet_filter.c.obj
 .bss.m_adv_packet_filter
                0x00000000       0x14 examples/dfu/CMakeFiles/dfu_no_serial_nrf52840_xxAA_s140_6.0.0.dir/__/__/mesh/bearer/src/adv_packet_filter.c.obj
 .debug_info    0x00000000      0xd97 examples/dfu/CMakeFiles/dfu_no_serial_nrf52840_xxAA_s140_6.0.0.dir/__/__/mesh/bearer/src/adv_packet_filter.c.obj
 .debug_abbrev  0x00000000      0x2c9 examples/dfu/CMakeFiles/dfu_no_serial_nrf52840_xxAA_s140_6.0.0.dir/__/__/mesh/bearer/src/adv_packet_filter.c.obj
 .debug_loc     0x00000000      0x1c0 examples/dfu/CMakeFiles/dfu_no_serial_nrf52840_xxAA_s140_6.0.0.dir/__/__/mesh/bearer/src/adv_packet_filter.c.obj
 .debug_aranges
                0x00000000       0x50 examples/dfu/CMakeFiles/dfu_no_serial_nrf52840_xxAA_s140_6.0.0.dir/__/__/mesh/bearer/src/adv_packet_filter.c.obj
 .debug_ranges  0x00000000       0x40 examples/dfu/CMakeFiles/dfu_no_serial_nrf52840_xxAA_s140_6.0.0.dir/__/__/mesh/bearer/src/adv_packet_filter.c.obj
 .debug_line    0x00000000      0x35e examples/dfu/CMakeFiles/dfu_no_serial_nrf52840_xxAA_s140_6.0.0.dir/__/__/mesh/bearer/src/adv_packet_filter.c.obj
 .debug_str     0x00000000      0xa28 examples/dfu/CMakeFiles/dfu_no_serial_nrf52840_xxAA_s140_6.0.0.dir/__/__/mesh/bearer/src/adv_packet_filter.c.obj
 .comment       0x00000000       0x80 examples/dfu/CMakeFiles/dfu_no_serial_nrf52840_xxAA_s140_6.0.0.dir/__/__/mesh/bearer/src/adv_packet_filter.c.obj
 .debug_frame   0x00000000       0x88 examples/dfu/CMakeFiles/dfu_no_serial_nrf52840_xxAA_s140_6.0.0.dir/__/__/mesh/bearer/src/adv_packet_filter.c.obj
 .ARM.attributes
                0x00000000       0x39 examples/dfu/CMakeFiles/dfu_no_serial_nrf52840_xxAA_s140_6.0.0.dir/__/__/mesh/bearer/src/adv_packet_filter.c.obj
 .text          0x00000000        0x0 examples/dfu/CMakeFiles/dfu_no_serial_nrf52840_xxAA_s140_6.0.0.dir/__/__/mesh/bearer/src/advertiser.c.obj
 .data          0x00000000        0x0 examples/dfu/CMakeFiles/dfu_no_serial_nrf52840_xxAA_s140_6.0.0.dir/__/__/mesh/bearer/src/advertiser.c.obj
 .bss           0x00000000        0x0 examples/dfu/CMakeFiles/dfu_no_serial_nrf52840_xxAA_s140_6.0.0.dir/__/__/mesh/bearer/src/advertiser.c.obj
 .text.advertiser_disable
                0x00000000        0xa examples/dfu/CMakeFiles/dfu_no_serial_nrf52840_xxAA_s140_6.0.0.dir/__/__/mesh/bearer/src/advertiser.c.obj
 .text.advertiser_channels_set
                0x00000000       0x60 examples/dfu/CMakeFiles/dfu_no_serial_nrf52840_xxAA_s140_6.0.0.dir/__/__/mesh/bearer/src/advertiser.c.obj
 .text.advertiser_address_set
                0x00000000       0x3c examples/dfu/CMakeFiles/dfu_no_serial_nrf52840_xxAA_s140_6.0.0.dir/__/__/mesh/bearer/src/advertiser.c.obj
 .text.advertiser_config_set
                0x00000000       0x36 examples/dfu/CMakeFiles/dfu_no_serial_nrf52840_xxAA_s140_6.0.0.dir/__/__/mesh/bearer/src/advertiser.c.obj
 .text.advertiser_config_get
                0x00000000       0x20 examples/dfu/CMakeFiles/dfu_no_serial_nrf52840_xxAA_s140_6.0.0.dir/__/__/mesh/bearer/src/advertiser.c.obj
 .text          0x00000000        0x0 examples/dfu/CMakeFiles/dfu_no_serial_nrf52840_xxAA_s140_6.0.0.dir/__/__/mesh/bearer/src/bearer_handler.c.obj
 .data          0x00000000        0x0 examples/dfu/CMakeFiles/dfu_no_serial_nrf52840_xxAA_s140_6.0.0.dir/__/__/mesh/bearer/src/bearer_handler.c.obj
 .bss           0x00000000        0x0 examples/dfu/CMakeFiles/dfu_no_serial_nrf52840_xxAA_s140_6.0.0.dir/__/__/mesh/bearer/src/bearer_handler.c.obj
 .text.bearer_handler_stop
                0x00000000       0x20 examples/dfu/CMakeFiles/dfu_no_serial_nrf52840_xxAA_s140_6.0.0.dir/__/__/mesh/bearer/src/bearer_handler.c.obj
 .text.bearer_handler_action_fire
                0x00000000       0x94 examples/dfu/CMakeFiles/dfu_no_serial_nrf52840_xxAA_s140_6.0.0.dir/__/__/mesh/bearer/src/bearer_handler.c.obj
 .text          0x00000000        0x0 examples/dfu/CMakeFiles/dfu_no_serial_nrf52840_xxAA_s140_6.0.0.dir/__/__/mesh/bearer/src/broadcast.c.obj
 .data          0x00000000        0x0 examples/dfu/CMakeFiles/dfu_no_serial_nrf52840_xxAA_s140_6.0.0.dir/__/__/mesh/bearer/src/broadcast.c.obj
 .bss           0x00000000        0x0 examples/dfu/CMakeFiles/dfu_no_serial_nrf52840_xxAA_s140_6.0.0.dir/__/__/mesh/bearer/src/broadcast.c.obj
 .text          0x00000000        0x0 examples/dfu/CMakeFiles/dfu_no_serial_nrf52840_xxAA_s140_6.0.0.dir/__/__/mesh/bearer/src/filter_engine.c.obj
 .data          0x00000000        0x0 examples/dfu/CMakeFiles/dfu_no_serial_nrf52840_xxAA_s140_6.0.0.dir/__/__/mesh/bearer/src/filter_engine.c.obj
 .bss           0x00000000        0x0 examples/dfu/CMakeFiles/dfu_no_serial_nrf52840_xxAA_s140_6.0.0.dir/__/__/mesh/bearer/src/filter_engine.c.obj
 .text.fen_accepted_amount_get
                0x00000000        0xc examples/dfu/CMakeFiles/dfu_no_serial_nrf52840_xxAA_s140_6.0.0.dir/__/__/mesh/bearer/src/filter_engine.c.obj
 .text          0x00000000        0x0 examples/dfu/CMakeFiles/dfu_no_serial_nrf52840_xxAA_s140_6.0.0.dir/__/__/mesh/bearer/src/gap_address_filter.c.obj
 .data          0x00000000        0x0 examples/dfu/CMakeFiles/dfu_no_serial_nrf52840_xxAA_s140_6.0.0.dir/__/__/mesh/bearer/src/gap_address_filter.c.obj
 .bss           0x00000000        0x0 examples/dfu/CMakeFiles/dfu_no_serial_nrf52840_xxAA_s140_6.0.0.dir/__/__/mesh/bearer/src/gap_address_filter.c.obj
 .text.gap_address_filter_handle
                0x00000000       0xa6 examples/dfu/CMakeFiles/dfu_no_serial_nrf52840_xxAA_s140_6.0.0.dir/__/__/mesh/bearer/src/gap_address_filter.c.obj
 .text.gap_addr_filter_set
                0x00000000       0x40 examples/dfu/CMakeFiles/dfu_no_serial_nrf52840_xxAA_s140_6.0.0.dir/__/__/mesh/bearer/src/gap_address_filter.c.obj
 .text.bearer_filter_gap_addr_whitelist_set
                0x00000000        0x6 examples/dfu/CMakeFiles/dfu_no_serial_nrf52840_xxAA_s140_6.0.0.dir/__/__/mesh/bearer/src/gap_address_filter.c.obj
 .text.bearer_filter_gap_addr_blacklist_set
                0x00000000        0x6 examples/dfu/CMakeFiles/dfu_no_serial_nrf52840_xxAA_s140_6.0.0.dir/__/__/mesh/bearer/src/gap_address_filter.c.obj
 .text.bearer_filter_gap_addr_range_set
                0x00000000       0x38 examples/dfu/CMakeFiles/dfu_no_serial_nrf52840_xxAA_s140_6.0.0.dir/__/__/mesh/bearer/src/gap_address_filter.c.obj
 .text.bearer_filter_gap_addr_clear
                0x00000000       0x20 examples/dfu/CMakeFiles/dfu_no_serial_nrf52840_xxAA_s140_6.0.0.dir/__/__/mesh/bearer/src/gap_address_filter.c.obj
 .text.bearer_gap_addr_filtered_amount_get
                0x00000000        0xc examples/dfu/CMakeFiles/dfu_no_serial_nrf52840_xxAA_s140_6.0.0.dir/__/__/mesh/bearer/src/gap_address_filter.c.obj
 .bss.m_addr_filter
                0x00000000       0x18 examples/dfu/CMakeFiles/dfu_no_serial_nrf52840_xxAA_s140_6.0.0.dir/__/__/mesh/bearer/src/gap_address_filter.c.obj
 .debug_info    0x00000000      0xebb examples/dfu/CMakeFiles/dfu_no_serial_nrf52840_xxAA_s140_6.0.0.dir/__/__/mesh/bearer/src/gap_address_filter.c.obj
 .debug_abbrev  0x00000000      0x2f4 examples/dfu/CMakeFiles/dfu_no_serial_nrf52840_xxAA_s140_6.0.0.dir/__/__/mesh/bearer/src/gap_address_filter.c.obj
 .debug_loc     0x00000000      0x3e8 examples/dfu/CMakeFiles/dfu_no_serial_nrf52840_xxAA_s140_6.0.0.dir/__/__/mesh/bearer/src/gap_address_filter.c.obj
 .debug_aranges
                0x00000000       0x50 examples/dfu/CMakeFiles/dfu_no_serial_nrf52840_xxAA_s140_6.0.0.dir/__/__/mesh/bearer/src/gap_address_filter.c.obj
 .debug_ranges  0x00000000       0x58 examples/dfu/CMakeFiles/dfu_no_serial_nrf52840_xxAA_s140_6.0.0.dir/__/__/mesh/bearer/src/gap_address_filter.c.obj
 .debug_line    0x00000000      0x3b6 examples/dfu/CMakeFiles/dfu_no_serial_nrf52840_xxAA_s140_6.0.0.dir/__/__/mesh/bearer/src/gap_address_filter.c.obj
 .debug_str     0x00000000      0x982 examples/dfu/CMakeFiles/dfu_no_serial_nrf52840_xxAA_s140_6.0.0.dir/__/__/mesh/bearer/src/gap_address_filter.c.obj
 .comment       0x00000000       0x80 examples/dfu/CMakeFiles/dfu_no_serial_nrf52840_xxAA_s140_6.0.0.dir/__/__/mesh/bearer/src/gap_address_filter.c.obj
 .debug_frame   0x00000000       0xb4 examples/dfu/CMakeFiles/dfu_no_serial_nrf52840_xxAA_s140_6.0.0.dir/__/__/mesh/bearer/src/gap_address_filter.c.obj
 .ARM.attributes
                0x00000000       0x39 examples/dfu/CMakeFiles/dfu_no_serial_nrf52840_xxAA_s140_6.0.0.dir/__/__/mesh/bearer/src/gap_address_filter.c.obj
 .text          0x00000000        0x0 examples/dfu/CMakeFiles/dfu_no_serial_nrf52840_xxAA_s140_6.0.0.dir/__/__/mesh/bearer/src/radio_config.c.obj
 .data          0x00000000        0x0 examples/dfu/CMakeFiles/dfu_no_serial_nrf52840_xxAA_s140_6.0.0.dir/__/__/mesh/bearer/src/radio_config.c.obj
 .bss           0x00000000        0x0 examples/dfu/CMakeFiles/dfu_no_serial_nrf52840_xxAA_s140_6.0.0.dir/__/__/mesh/bearer/src/radio_config.c.obj
 .text.radio_config_access_addr_get
                0x00000000       0x4c examples/dfu/CMakeFiles/dfu_no_serial_nrf52840_xxAA_s140_6.0.0.dir/__/__/mesh/bearer/src/radio_config.c.obj
 .text          0x00000000        0x0 examples/dfu/CMakeFiles/dfu_no_serial_nrf52840_xxAA_s140_6.0.0.dir/__/__/mesh/bearer/src/rssi_filter.c.obj
 .data          0x00000000        0x0 examples/dfu/CMakeFiles/dfu_no_serial_nrf52840_xxAA_s140_6.0.0.dir/__/__/mesh/bearer/src/rssi_filter.c.obj
 .bss           0x00000000        0x0 examples/dfu/CMakeFiles/dfu_no_serial_nrf52840_xxAA_s140_6.0.0.dir/__/__/mesh/bearer/src/rssi_filter.c.obj
 .text.rssi_filter_handle
                0x00000000       0x20 examples/dfu/CMakeFiles/dfu_no_serial_nrf52840_xxAA_s140_6.0.0.dir/__/__/mesh/bearer/src/rssi_filter.c.obj
 .text.bearer_rssi_filtering_set
                0x00000000       0x34 examples/dfu/CMakeFiles/dfu_no_serial_nrf52840_xxAA_s140_6.0.0.dir/__/__/mesh/bearer/src/rssi_filter.c.obj
 .text.bearer_rssi_filtered_amount_get
                0x00000000        0xc examples/dfu/CMakeFiles/dfu_no_serial_nrf52840_xxAA_s140_6.0.0.dir/__/__/mesh/bearer/src/rssi_filter.c.obj
 .bss.m_rssi_filter
                0x00000000       0x18 examples/dfu/CMakeFiles/dfu_no_serial_nrf52840_xxAA_s140_6.0.0.dir/__/__/mesh/bearer/src/rssi_filter.c.obj
 .debug_info    0x00000000      0xc73 examples/dfu/CMakeFiles/dfu_no_serial_nrf52840_xxAA_s140_6.0.0.dir/__/__/mesh/bearer/src/rssi_filter.c.obj
 .debug_abbrev  0x00000000      0x28e examples/dfu/CMakeFiles/dfu_no_serial_nrf52840_xxAA_s140_6.0.0.dir/__/__/mesh/bearer/src/rssi_filter.c.obj
 .debug_loc     0x00000000       0xb3 examples/dfu/CMakeFiles/dfu_no_serial_nrf52840_xxAA_s140_6.0.0.dir/__/__/mesh/bearer/src/rssi_filter.c.obj
 .debug_aranges
                0x00000000       0x30 examples/dfu/CMakeFiles/dfu_no_serial_nrf52840_xxAA_s140_6.0.0.dir/__/__/mesh/bearer/src/rssi_filter.c.obj
 .debug_ranges  0x00000000       0x20 examples/dfu/CMakeFiles/dfu_no_serial_nrf52840_xxAA_s140_6.0.0.dir/__/__/mesh/bearer/src/rssi_filter.c.obj
 .debug_line    0x00000000      0x2d3 examples/dfu/CMakeFiles/dfu_no_serial_nrf52840_xxAA_s140_6.0.0.dir/__/__/mesh/bearer/src/rssi_filter.c.obj
 .debug_str     0x00000000      0x83d examples/dfu/CMakeFiles/dfu_no_serial_nrf52840_xxAA_s140_6.0.0.dir/__/__/mesh/bearer/src/rssi_filter.c.obj
 .comment       0x00000000       0x80 examples/dfu/CMakeFiles/dfu_no_serial_nrf52840_xxAA_s140_6.0.0.dir/__/__/mesh/bearer/src/rssi_filter.c.obj
 .debug_frame   0x00000000       0x54 examples/dfu/CMakeFiles/dfu_no_serial_nrf52840_xxAA_s140_6.0.0.dir/__/__/mesh/bearer/src/rssi_filter.c.obj
 .ARM.attributes
                0x00000000       0x39 examples/dfu/CMakeFiles/dfu_no_serial_nrf52840_xxAA_s140_6.0.0.dir/__/__/mesh/bearer/src/rssi_filter.c.obj
 .text          0x00000000        0x0 examples/dfu/CMakeFiles/dfu_no_serial_nrf52840_xxAA_s140_6.0.0.dir/__/__/mesh/bearer/src/scanner.c.obj
 .data          0x00000000        0x0 examples/dfu/CMakeFiles/dfu_no_serial_nrf52840_xxAA_s140_6.0.0.dir/__/__/mesh/bearer/src/scanner.c.obj
 .bss           0x00000000        0x0 examples/dfu/CMakeFiles/dfu_no_serial_nrf52840_xxAA_s140_6.0.0.dir/__/__/mesh/bearer/src/scanner.c.obj
 .text.scanner_rx_callback_set
                0x00000000       0x20 examples/dfu/CMakeFiles/dfu_no_serial_nrf52840_xxAA_s140_6.0.0.dir/__/__/mesh/bearer/src/scanner.c.obj
 .text.scanner_disable
                0x00000000       0x3c examples/dfu/CMakeFiles/dfu_no_serial_nrf52840_xxAA_s140_6.0.0.dir/__/__/mesh/bearer/src/scanner.c.obj
 .text.scanner_is_enabled
                0x00000000       0x10 examples/dfu/CMakeFiles/dfu_no_serial_nrf52840_xxAA_s140_6.0.0.dir/__/__/mesh/bearer/src/scanner.c.obj
 .text.scanner_stats_get
                0x00000000        0x8 examples/dfu/CMakeFiles/dfu_no_serial_nrf52840_xxAA_s140_6.0.0.dir/__/__/mesh/bearer/src/scanner.c.obj
 .text.scanner_config_radio_mode_set
                0x00000000       0x10 examples/dfu/CMakeFiles/dfu_no_serial_nrf52840_xxAA_s140_6.0.0.dir/__/__/mesh/bearer/src/scanner.c.obj
 .text          0x00000000        0x0 examples/dfu/CMakeFiles/dfu_no_serial_nrf52840_xxAA_s140_6.0.0.dir/C_/b/nRF5_SDK_15.0.0_a53641a/modules/nrfx/mdk/system_nrf52840.c.obj
 .data          0x00000000        0x0 examples/dfu/CMakeFiles/dfu_no_serial_nrf52840_xxAA_s140_6.0.0.dir/C_/b/nRF5_SDK_15.0.0_a53641a/modules/nrfx/mdk/system_nrf52840.c.obj
 .bss           0x00000000        0x0 examples/dfu/CMakeFiles/dfu_no_serial_nrf52840_xxAA_s140_6.0.0.dir/C_/b/nRF5_SDK_15.0.0_a53641a/modules/nrfx/mdk/system_nrf52840.c.obj
 .text.SystemCoreClockUpdate
                0x00000000       0x10 examples/dfu/CMakeFiles/dfu_no_serial_nrf52840_xxAA_s140_6.0.0.dir/C_/b/nRF5_SDK_15.0.0_a53641a/modules/nrfx/mdk/system_nrf52840.c.obj
 .data          0x00000000        0x0 examples/dfu/CMakeFiles/dfu_no_serial_nrf52840_xxAA_s140_6.0.0.dir/C_/b/nRF5_SDK_15.0.0_a53641a/modules/nrfx/mdk/gcc_startup_nrf52840.S.obj
 .bss           0x00000000        0x0 examples/dfu/CMakeFiles/dfu_no_serial_nrf52840_xxAA_s140_6.0.0.dir/C_/b/nRF5_SDK_15.0.0_a53641a/modules/nrfx/mdk/gcc_startup_nrf52840.S.obj
 .text          0x00000000        0x0 examples/dfu/CMakeFiles/dfu_no_serial_nrf52840_xxAA_s140_6.0.0.dir/C_/b/nRF5_SDK_15.0.0_a53641a/components/libraries/util/app_error.c.obj
 .data          0x00000000        0x0 examples/dfu/CMakeFiles/dfu_no_serial_nrf52840_xxAA_s140_6.0.0.dir/C_/b/nRF5_SDK_15.0.0_a53641a/components/libraries/util/app_error.c.obj
 .bss           0x00000000        0x0 examples/dfu/CMakeFiles/dfu_no_serial_nrf52840_xxAA_s140_6.0.0.dir/C_/b/nRF5_SDK_15.0.0_a53641a/components/libraries/util/app_error.c.obj
 .text.app_error_save_and_stop
                0x00000000       0x58 examples/dfu/CMakeFiles/dfu_no_serial_nrf52840_xxAA_s140_6.0.0.dir/C_/b/nRF5_SDK_15.0.0_a53641a/components/libraries/util/app_error.c.obj
 .bss.m_error_data.8119
                0x00000000       0x20 examples/dfu/CMakeFiles/dfu_no_serial_nrf52840_xxAA_s140_6.0.0.dir/C_/b/nRF5_SDK_15.0.0_a53641a/components/libraries/util/app_error.c.obj
 .text          0x00000000        0x0 examples/dfu/CMakeFiles/dfu_no_serial_nrf52840_xxAA_s140_6.0.0.dir/C_/b/nRF5_SDK_15.0.0_a53641a/components/libraries/util/app_error_handler_gcc.c.obj
 .data          0x00000000        0x0 examples/dfu/CMakeFiles/dfu_no_serial_nrf52840_xxAA_s140_6.0.0.dir/C_/b/nRF5_SDK_15.0.0_a53641a/components/libraries/util/app_error_handler_gcc.c.obj
 .bss           0x00000000        0x0 examples/dfu/CMakeFiles/dfu_no_serial_nrf52840_xxAA_s140_6.0.0.dir/C_/b/nRF5_SDK_15.0.0_a53641a/components/libraries/util/app_error_handler_gcc.c.obj
 .text          0x00000000        0x0 external/rtt/librtt_nrf52840_xxAA.a(SEGGER_RTT.c.obj)
 .data          0x00000000        0x0 external/rtt/librtt_nrf52840_xxAA.a(SEGGER_RTT.c.obj)
 .bss           0x00000000        0x0 external/rtt/librtt_nrf52840_xxAA.a(SEGGER_RTT.c.obj)
 .text._PostTerminalSwitch.constprop.0
                0x00000000       0x28 external/rtt/librtt_nrf52840_xxAA.a(SEGGER_RTT.c.obj)
 .text.SEGGER_RTT_ReadNoLock
                0x00000000       0x88 external/rtt/librtt_nrf52840_xxAA.a(SEGGER_RTT.c.obj)
 .text.SEGGER_RTT_Read
                0x00000000       0x1c external/rtt/librtt_nrf52840_xxAA.a(SEGGER_RTT.c.obj)
 .text.SEGGER_RTT_WriteSkipNoLock
                0x00000000       0xb4 external/rtt/librtt_nrf52840_xxAA.a(SEGGER_RTT.c.obj)
 .text.SEGGER_RTT_WriteString
                0x00000000       0x1a external/rtt/librtt_nrf52840_xxAA.a(SEGGER_RTT.c.obj)
 .text.SEGGER_RTT_GetKey
                0x00000000       0x20 external/rtt/librtt_nrf52840_xxAA.a(SEGGER_RTT.c.obj)
 .text.SEGGER_RTT_WaitKey
                0x00000000        0xc external/rtt/librtt_nrf52840_xxAA.a(SEGGER_RTT.c.obj)
 .text.SEGGER_RTT_HasKey
                0x00000000       0x1c external/rtt/librtt_nrf52840_xxAA.a(SEGGER_RTT.c.obj)
 .text.SEGGER_RTT_HasData
                0x00000000       0x14 external/rtt/librtt_nrf52840_xxAA.a(SEGGER_RTT.c.obj)
 .text.SEGGER_RTT_AllocDownBuffer
                0x00000000       0x68 external/rtt/librtt_nrf52840_xxAA.a(SEGGER_RTT.c.obj)
 .text.SEGGER_RTT_AllocUpBuffer
                0x00000000       0x70 external/rtt/librtt_nrf52840_xxAA.a(SEGGER_RTT.c.obj)
 .text.SEGGER_RTT_ConfigUpBuffer
                0x00000000       0x68 external/rtt/librtt_nrf52840_xxAA.a(SEGGER_RTT.c.obj)
 .text.SEGGER_RTT_ConfigDownBuffer
                0x00000000       0x60 external/rtt/librtt_nrf52840_xxAA.a(SEGGER_RTT.c.obj)
 .text.SEGGER_RTT_SetNameUpBuffer
                0x00000000       0x3c external/rtt/librtt_nrf52840_xxAA.a(SEGGER_RTT.c.obj)
 .text.SEGGER_RTT_SetNameDownBuffer
                0x00000000       0x3c external/rtt/librtt_nrf52840_xxAA.a(SEGGER_RTT.c.obj)
 .text.SEGGER_RTT_Init
                0x00000000       0x10 external/rtt/librtt_nrf52840_xxAA.a(SEGGER_RTT.c.obj)
 .text.SEGGER_RTT_SetTerminal
                0x00000000       0x84 external/rtt/librtt_nrf52840_xxAA.a(SEGGER_RTT.c.obj)
 .text.SEGGER_RTT_TerminalOut
                0x00000000       0xa0 external/rtt/librtt_nrf52840_xxAA.a(SEGGER_RTT.c.obj)
 .bss._ActiveTerminal
                0x00000000        0x1 external/rtt/librtt_nrf52840_xxAA.a(SEGGER_RTT.c.obj)
 .rodata._aTerminalId
                0x00000000       0x10 external/rtt/librtt_nrf52840_xxAA.a(SEGGER_RTT.c.obj)
 .text          0x00000000        0x0 external/rtt/librtt_nrf52840_xxAA.a(SEGGER_RTT_printf.c.obj)
 .data          0x00000000        0x0 external/rtt/librtt_nrf52840_xxAA.a(SEGGER_RTT_printf.c.obj)
 .bss           0x00000000        0x0 external/rtt/librtt_nrf52840_xxAA.a(SEGGER_RTT_printf.c.obj)
 .text          0x00000000        0x0 external/micro-ecc/libuECC_nrf52840_xxAA.a(uECC.c.obj)
 .data          0x00000000        0x0 external/micro-ecc/libuECC_nrf52840_xxAA.a(uECC.c.obj)
 .bss           0x00000000        0x0 external/micro-ecc/libuECC_nrf52840_xxAA.a(uECC.c.obj)
 .text.uECC_vli_modMult
                0x00000000      0x148 external/micro-ecc/libuECC_nrf52840_xxAA.a(uECC.c.obj)
 .text.HMAC_init
                0x00000000       0x46 external/micro-ecc/libuECC_nrf52840_xxAA.a(uECC.c.obj)
 .text.HMAC_update
                0x00000000        0x4 external/micro-ecc/libuECC_nrf52840_xxAA.a(uECC.c.obj)
 .text.HMAC_finish
                0x00000000       0x62 external/micro-ecc/libuECC_nrf52840_xxAA.a(uECC.c.obj)
 .text.update_V
                0x00000000       0x24 external/micro-ecc/libuECC_nrf52840_xxAA.a(uECC.c.obj)
 .text.bits2int
                0x00000000       0x88 external/micro-ecc/libuECC_nrf52840_xxAA.a(uECC.c.obj)
 .text.uECC_sign_with_k
                0x00000000      0x17c external/micro-ecc/libuECC_nrf52840_xxAA.a(uECC.c.obj)
 .text.uECC_set_rng
                0x00000000        0xc external/micro-ecc/libuECC_nrf52840_xxAA.a(uECC.c.obj)
 .text.uECC_get_rng
                0x00000000        0xc external/micro-ecc/libuECC_nrf52840_xxAA.a(uECC.c.obj)
 .text.uECC_curve_private_key_size
                0x00000000        0xe external/micro-ecc/libuECC_nrf52840_xxAA.a(uECC.c.obj)
 .text.uECC_curve_public_key_size
                0x00000000        0x8 external/micro-ecc/libuECC_nrf52840_xxAA.a(uECC.c.obj)
 .text.uECC_compute_public_key
                0x00000000       0x7e external/micro-ecc/libuECC_nrf52840_xxAA.a(uECC.c.obj)
 .text.uECC_sign
                0x00000000       0x56 external/micro-ecc/libuECC_nrf52840_xxAA.a(uECC.c.obj)
 .text.uECC_sign_deterministic
                0x00000000      0x192 external/micro-ecc/libuECC_nrf52840_xxAA.a(uECC.c.obj)
 .text.uECC_verify
                0x00000000      0x2f0 external/micro-ecc/libuECC_nrf52840_xxAA.a(uECC.c.obj)
 .text          0x00000000        0x0 c:/mesh/arm_gcc/bin/../lib/gcc/arm-none-eabi/6.3.1/../../../../arm-none-eabi/lib/thumb/v7e-m/fpv4-sp/hard\libg_nano.a(lib_a-exit.o)
 .data          0x00000000        0x0 c:/mesh/arm_gcc/bin/../lib/gcc/arm-none-eabi/6.3.1/../../../../arm-none-eabi/lib/thumb/v7e-m/fpv4-sp/hard\libg_nano.a(lib_a-exit.o)
 .bss           0x00000000        0x0 c:/mesh/arm_gcc/bin/../lib/gcc/arm-none-eabi/6.3.1/../../../../arm-none-eabi/lib/thumb/v7e-m/fpv4-sp/hard\libg_nano.a(lib_a-exit.o)
 .text          0x00000000        0x0 c:/mesh/arm_gcc/bin/../lib/gcc/arm-none-eabi/6.3.1/../../../../arm-none-eabi/lib/thumb/v7e-m/fpv4-sp/hard\libg_nano.a(lib_a-impure.o)
 .data          0x00000000        0x0 c:/mesh/arm_gcc/bin/../lib/gcc/arm-none-eabi/6.3.1/../../../../arm-none-eabi/lib/thumb/v7e-m/fpv4-sp/hard\libg_nano.a(lib_a-impure.o)
 .bss           0x00000000        0x0 c:/mesh/arm_gcc/bin/../lib/gcc/arm-none-eabi/6.3.1/../../../../arm-none-eabi/lib/thumb/v7e-m/fpv4-sp/hard\libg_nano.a(lib_a-impure.o)
 .text          0x00000000        0x0 c:/mesh/arm_gcc/bin/../lib/gcc/arm-none-eabi/6.3.1/../../../../arm-none-eabi/lib/thumb/v7e-m/fpv4-sp/hard\libg_nano.a(lib_a-init.o)
 .data          0x00000000        0x0 c:/mesh/arm_gcc/bin/../lib/gcc/arm-none-eabi/6.3.1/../../../../arm-none-eabi/lib/thumb/v7e-m/fpv4-sp/hard\libg_nano.a(lib_a-init.o)
 .bss           0x00000000        0x0 c:/mesh/arm_gcc/bin/../lib/gcc/arm-none-eabi/6.3.1/../../../../arm-none-eabi/lib/thumb/v7e-m/fpv4-sp/hard\libg_nano.a(lib_a-init.o)
 .text          0x00000000        0x0 c:/mesh/arm_gcc/bin/../lib/gcc/arm-none-eabi/6.3.1/../../../../arm-none-eabi/lib/thumb/v7e-m/fpv4-sp/hard\libg_nano.a(lib_a-malloc.o)
 .data          0x00000000        0x0 c:/mesh/arm_gcc/bin/../lib/gcc/arm-none-eabi/6.3.1/../../../../arm-none-eabi/lib/thumb/v7e-m/fpv4-sp/hard\libg_nano.a(lib_a-malloc.o)
 .bss           0x00000000        0x0 c:/mesh/arm_gcc/bin/../lib/gcc/arm-none-eabi/6.3.1/../../../../arm-none-eabi/lib/thumb/v7e-m/fpv4-sp/hard\libg_nano.a(lib_a-malloc.o)
 .text          0x00000000        0x0 c:/mesh/arm_gcc/bin/../lib/gcc/arm-none-eabi/6.3.1/../../../../arm-none-eabi/lib/thumb/v7e-m/fpv4-sp/hard\libg_nano.a(lib_a-memcmp.o)
 .data          0x00000000        0x0 c:/mesh/arm_gcc/bin/../lib/gcc/arm-none-eabi/6.3.1/../../../../arm-none-eabi/lib/thumb/v7e-m/fpv4-sp/hard\libg_nano.a(lib_a-memcmp.o)
 .bss           0x00000000        0x0 c:/mesh/arm_gcc/bin/../lib/gcc/arm-none-eabi/6.3.1/../../../../arm-none-eabi/lib/thumb/v7e-m/fpv4-sp/hard\libg_nano.a(lib_a-memcmp.o)
 .text          0x00000000        0x0 c:/mesh/arm_gcc/bin/../lib/gcc/arm-none-eabi/6.3.1/../../../../arm-none-eabi/lib/thumb/v7e-m/fpv4-sp/hard\libg_nano.a(lib_a-memcpy-stub.o)
 .data          0x00000000        0x0 c:/mesh/arm_gcc/bin/../lib/gcc/arm-none-eabi/6.3.1/../../../../arm-none-eabi/lib/thumb/v7e-m/fpv4-sp/hard\libg_nano.a(lib_a-memcpy-stub.o)
 .bss           0x00000000        0x0 c:/mesh/arm_gcc/bin/../lib/gcc/arm-none-eabi/6.3.1/../../../../arm-none-eabi/lib/thumb/v7e-m/fpv4-sp/hard\libg_nano.a(lib_a-memcpy-stub.o)
 .text          0x00000000        0x0 c:/mesh/arm_gcc/bin/../lib/gcc/arm-none-eabi/6.3.1/../../../../arm-none-eabi/lib/thumb/v7e-m/fpv4-sp/hard\libg_nano.a(lib_a-memset.o)
 .data          0x00000000        0x0 c:/mesh/arm_gcc/bin/../lib/gcc/arm-none-eabi/6.3.1/../../../../arm-none-eabi/lib/thumb/v7e-m/fpv4-sp/hard\libg_nano.a(lib_a-memset.o)
 .bss           0x00000000        0x0 c:/mesh/arm_gcc/bin/../lib/gcc/arm-none-eabi/6.3.1/../../../../arm-none-eabi/lib/thumb/v7e-m/fpv4-sp/hard\libg_nano.a(lib_a-memset.o)
 .text          0x00000000        0x0 c:/mesh/arm_gcc/bin/../lib/gcc/arm-none-eabi/6.3.1/../../../../arm-none-eabi/lib/thumb/v7e-m/fpv4-sp/hard\libg_nano.a(lib_a-nano-freer.o)
 .data          0x00000000        0x0 c:/mesh/arm_gcc/bin/../lib/gcc/arm-none-eabi/6.3.1/../../../../arm-none-eabi/lib/thumb/v7e-m/fpv4-sp/hard\libg_nano.a(lib_a-nano-freer.o)
 .bss           0x00000000        0x0 c:/mesh/arm_gcc/bin/../lib/gcc/arm-none-eabi/6.3.1/../../../../arm-none-eabi/lib/thumb/v7e-m/fpv4-sp/hard\libg_nano.a(lib_a-nano-freer.o)
 .text          0x00000000        0x0 c:/mesh/arm_gcc/bin/../lib/gcc/arm-none-eabi/6.3.1/../../../../arm-none-eabi/lib/thumb/v7e-m/fpv4-sp/hard\libg_nano.a(lib_a-nano-mallocr.o)
 .data          0x00000000        0x0 c:/mesh/arm_gcc/bin/../lib/gcc/arm-none-eabi/6.3.1/../../../../arm-none-eabi/lib/thumb/v7e-m/fpv4-sp/hard\libg_nano.a(lib_a-nano-mallocr.o)
 .bss           0x00000000        0x0 c:/mesh/arm_gcc/bin/../lib/gcc/arm-none-eabi/6.3.1/../../../../arm-none-eabi/lib/thumb/v7e-m/fpv4-sp/hard\libg_nano.a(lib_a-nano-mallocr.o)
 .text          0x00000000        0x0 c:/mesh/arm_gcc/bin/../lib/gcc/arm-none-eabi/6.3.1/../../../../arm-none-eabi/lib/thumb/v7e-m/fpv4-sp/hard\libg_nano.a(lib_a-sbrkr.o)
 .data          0x00000000        0x0 c:/mesh/arm_gcc/bin/../lib/gcc/arm-none-eabi/6.3.1/../../../../arm-none-eabi/lib/thumb/v7e-m/fpv4-sp/hard\libg_nano.a(lib_a-sbrkr.o)
 .bss           0x00000000        0x0 c:/mesh/arm_gcc/bin/../lib/gcc/arm-none-eabi/6.3.1/../../../../arm-none-eabi/lib/thumb/v7e-m/fpv4-sp/hard\libg_nano.a(lib_a-sbrkr.o)
 .text          0x00000000        0x0 c:/mesh/arm_gcc/bin/../lib/gcc/arm-none-eabi/6.3.1/../../../../arm-none-eabi/lib/thumb/v7e-m/fpv4-sp/hard\libg_nano.a(lib_a-strcpy.o)
 .data          0x00000000        0x0 c:/mesh/arm_gcc/bin/../lib/gcc/arm-none-eabi/6.3.1/../../../../arm-none-eabi/lib/thumb/v7e-m/fpv4-sp/hard\libg_nano.a(lib_a-strcpy.o)
 .bss           0x00000000        0x0 c:/mesh/arm_gcc/bin/../lib/gcc/arm-none-eabi/6.3.1/../../../../arm-none-eabi/lib/thumb/v7e-m/fpv4-sp/hard\libg_nano.a(lib_a-strcpy.o)
 .data          0x00000000        0x0 c:/mesh/arm_gcc/bin/../lib/gcc/arm-none-eabi/6.3.1/../../../../arm-none-eabi/lib/thumb/v7e-m/fpv4-sp/hard\libg_nano.a(lib_a-strlen.o)
 .bss           0x00000000        0x0 c:/mesh/arm_gcc/bin/../lib/gcc/arm-none-eabi/6.3.1/../../../../arm-none-eabi/lib/thumb/v7e-m/fpv4-sp/hard\libg_nano.a(lib_a-strlen.o)
 .text          0x00000000        0x0 c:/mesh/arm_gcc/bin/../lib/gcc/arm-none-eabi/6.3.1/../../../../arm-none-eabi/lib/thumb/v7e-m/fpv4-sp/hard\libg_nano.a(lib_a-strrchr.o)
 .data          0x00000000        0x0 c:/mesh/arm_gcc/bin/../lib/gcc/arm-none-eabi/6.3.1/../../../../arm-none-eabi/lib/thumb/v7e-m/fpv4-sp/hard\libg_nano.a(lib_a-strrchr.o)
 .bss           0x00000000        0x0 c:/mesh/arm_gcc/bin/../lib/gcc/arm-none-eabi/6.3.1/../../../../arm-none-eabi/lib/thumb/v7e-m/fpv4-sp/hard\libg_nano.a(lib_a-strrchr.o)
 .text          0x00000000        0x0 c:/mesh/arm_gcc/bin/../lib/gcc/arm-none-eabi/6.3.1/../../../../arm-none-eabi/lib/thumb/v7e-m/fpv4-sp/hard\libg_nano.a(lib_a-mlock.o)
 .data          0x00000000        0x0 c:/mesh/arm_gcc/bin/../lib/gcc/arm-none-eabi/6.3.1/../../../../arm-none-eabi/lib/thumb/v7e-m/fpv4-sp/hard\libg_nano.a(lib_a-mlock.o)
 .bss           0x00000000        0x0 c:/mesh/arm_gcc/bin/../lib/gcc/arm-none-eabi/6.3.1/../../../../arm-none-eabi/lib/thumb/v7e-m/fpv4-sp/hard\libg_nano.a(lib_a-mlock.o)
 .text          0x00000000        0x0 c:/mesh/arm_gcc/bin/../lib/gcc/arm-none-eabi/6.3.1/../../../../arm-none-eabi/lib/thumb/v7e-m/fpv4-sp/hard\libg_nano.a(lib_a-reent.o)
 .data          0x00000000        0x0 c:/mesh/arm_gcc/bin/../lib/gcc/arm-none-eabi/6.3.1/../../../../arm-none-eabi/lib/thumb/v7e-m/fpv4-sp/hard\libg_nano.a(lib_a-reent.o)
 .bss           0x00000000        0x0 c:/mesh/arm_gcc/bin/../lib/gcc/arm-none-eabi/6.3.1/../../../../arm-none-eabi/lib/thumb/v7e-m/fpv4-sp/hard\libg_nano.a(lib_a-reent.o)
 .text.cleanup_glue
                0x00000000       0x1a c:/mesh/arm_gcc/bin/../lib/gcc/arm-none-eabi/6.3.1/../../../../arm-none-eabi/lib/thumb/v7e-m/fpv4-sp/hard\libg_nano.a(lib_a-reent.o)
 .text._reclaim_reent
                0x00000000       0xb8 c:/mesh/arm_gcc/bin/../lib/gcc/arm-none-eabi/6.3.1/../../../../arm-none-eabi/lib/thumb/v7e-m/fpv4-sp/hard\libg_nano.a(lib_a-reent.o)
 .text          0x00000000        0x0 c:/mesh/arm_gcc/bin/../lib/gcc/arm-none-eabi/6.3.1/../../../../arm-none-eabi/lib/thumb/v7e-m/fpv4-sp/hard\libg_nano.a(lib_a-strchr.o)
 .data          0x00000000        0x0 c:/mesh/arm_gcc/bin/../lib/gcc/arm-none-eabi/6.3.1/../../../../arm-none-eabi/lib/thumb/v7e-m/fpv4-sp/hard\libg_nano.a(lib_a-strchr.o)
 .bss           0x00000000        0x0 c:/mesh/arm_gcc/bin/../lib/gcc/arm-none-eabi/6.3.1/../../../../arm-none-eabi/lib/thumb/v7e-m/fpv4-sp/hard\libg_nano.a(lib_a-strchr.o)
 .text          0x00000000        0x0 c:/mesh/arm_gcc/bin/../lib/gcc/arm-none-eabi/6.3.1/thumb/v7e-m/fpv4-sp/hard/crtend.o
 .data          0x00000000        0x0 c:/mesh/arm_gcc/bin/../lib/gcc/arm-none-eabi/6.3.1/thumb/v7e-m/fpv4-sp/hard/crtend.o
 .bss           0x00000000        0x0 c:/mesh/arm_gcc/bin/../lib/gcc/arm-none-eabi/6.3.1/thumb/v7e-m/fpv4-sp/hard/crtend.o
 .text          0x00000000        0x0 c:/mesh/arm_gcc/bin/../lib/gcc/arm-none-eabi/6.3.1/thumb/v7e-m/fpv4-sp/hard/crtn.o
 .data          0x00000000        0x0 c:/mesh/arm_gcc/bin/../lib/gcc/arm-none-eabi/6.3.1/thumb/v7e-m/fpv4-sp/hard/crtn.o
 .bss           0x00000000        0x0 c:/mesh/arm_gcc/bin/../lib/gcc/arm-none-eabi/6.3.1/thumb/v7e-m/fpv4-sp/hard/crtn.o
 .text          0x00000000        0x0 c:/mesh/arm_gcc/bin/../lib/gcc/arm-none-eabi/6.3.1/../../../../arm-none-eabi/lib/thumb/v7e-m/fpv4-sp/hard\libnosys.a(sbrk.o)
 .data          0x00000000        0x0 c:/mesh/arm_gcc/bin/../lib/gcc/arm-none-eabi/6.3.1/../../../../arm-none-eabi/lib/thumb/v7e-m/fpv4-sp/hard\libnosys.a(sbrk.o)
 .bss           0x00000000        0x0 c:/mesh/arm_gcc/bin/../lib/gcc/arm-none-eabi/6.3.1/../../../../arm-none-eabi/lib/thumb/v7e-m/fpv4-sp/hard\libnosys.a(sbrk.o)
 .text          0x00000000        0x0 c:/mesh/arm_gcc/bin/../lib/gcc/arm-none-eabi/6.3.1/../../../../arm-none-eabi/lib/thumb/v7e-m/fpv4-sp/hard\libnosys.a(_exit.o)
 .data          0x00000000        0x0 c:/mesh/arm_gcc/bin/../lib/gcc/arm-none-eabi/6.3.1/../../../../arm-none-eabi/lib/thumb/v7e-m/fpv4-sp/hard\libnosys.a(_exit.o)
 .bss           0x00000000        0x0 c:/mesh/arm_gcc/bin/../lib/gcc/arm-none-eabi/6.3.1/../../../../arm-none-eabi/lib/thumb/v7e-m/fpv4-sp/hard\libnosys.a(_exit.o)

Memory Configuration

Name             Origin             Length             Attributes
FLASH            0x00026000         0x000d1000         xr
RAM              0x200032c8         0x0003ca38         xrw
*default*        0x00000000         0xffffffff

Linker script and memory map


.text           0x00026000    0x13d74
 *(.isr_vector)
 .isr_vector    0x00026000      0x200 examples/dfu/CMakeFiles/dfu_no_serial_nrf52840_xxAA_s140_6.0.0.dir/C_/b/nRF5_SDK_15.0.0_a53641a/modules/nrfx/mdk/gcc_startup_nrf52840.S.obj
                0x00026000                __isr_vector
 *(.text*)
 .text          0x00026200       0x6c c:/mesh/arm_gcc/bin/../lib/gcc/arm-none-eabi/6.3.1/thumb/v7e-m/fpv4-sp/hard/crtbegin.o
 .text          0x0002626c       0x74 c:/mesh/arm_gcc/bin/../lib/gcc/arm-none-eabi/6.3.1/../../../../arm-none-eabi/lib/thumb/v7e-m/fpv4-sp/hard/crt0.o
                0x0002626c                _start
                0x0002626c                _mainCRTStartup
 .text.sd_app_evt_wait
                0x000262e0        0x4 examples/dfu/CMakeFiles/dfu_no_serial_nrf52840_xxAA_s140_6.0.0.dir/src/main.c.obj
 .text.config_server_evt_cb
                0x000262e4       0x80 examples/dfu/CMakeFiles/dfu_no_serial_nrf52840_xxAA_s140_6.0.0.dir/src/main.c.obj
 .text.mesh_evt_handler
                0x00026364       0xd0 examples/dfu/CMakeFiles/dfu_no_serial_nrf52840_xxAA_s140_6.0.0.dir/src/main.c.obj
 .text.startup.main
                0x00026434      0x3a4 examples/dfu/CMakeFiles/dfu_no_serial_nrf52840_xxAA_s140_6.0.0.dir/src/main.c.obj
                0x00026434                main
 .text.mesh_evt_handler
                0x000267d8        0xe examples/dfu/CMakeFiles/dfu_no_serial_nrf52840_xxAA_s140_6.0.0.dir/__/__/mesh/stack/src/mesh_stack.c.obj
 .text.mesh_stack_start
                0x000267e6        0x4 examples/dfu/CMakeFiles/dfu_no_serial_nrf52840_xxAA_s140_6.0.0.dir/__/__/mesh/stack/src/mesh_stack.c.obj
                0x000267e6                mesh_stack_start
 .text.mesh_stack_provisioning_data_store
                0x000267ea       0x6c examples/dfu/CMakeFiles/dfu_no_serial_nrf52840_xxAA_s140_6.0.0.dir/__/__/mesh/stack/src/mesh_stack.c.obj
                0x000267ea                mesh_stack_provisioning_data_store
 .text.mesh_stack_config_clear
                0x00026856       0x12 examples/dfu/CMakeFiles/dfu_no_serial_nrf52840_xxAA_s140_6.0.0.dir/__/__/mesh/stack/src/mesh_stack.c.obj
                0x00026856                mesh_stack_config_clear
 .text.mesh_stack_is_device_provisioned
                0x00026868       0x18 examples/dfu/CMakeFiles/dfu_no_serial_nrf52840_xxAA_s140_6.0.0.dir/__/__/mesh/stack/src/mesh_stack.c.obj
                0x00026868                mesh_stack_is_device_provisioned
 .text.mesh_stack_init
                0x00026880       0x78 examples/dfu/CMakeFiles/dfu_no_serial_nrf52840_xxAA_s140_6.0.0.dir/__/__/mesh/stack/src/mesh_stack.c.obj
                0x00026880                mesh_stack_init
 .text.mesh_stack_device_reset
                0x000268f8       0x20 examples/dfu/CMakeFiles/dfu_no_serial_nrf52840_xxAA_s140_6.0.0.dir/__/__/mesh/stack/src/mesh_stack.c.obj
                0x000268f8                mesh_stack_device_reset
 .text.sd_evt_get
                0x00026918        0x4 examples/dfu/CMakeFiles/dfu_no_serial_nrf52840_xxAA_s140_6.0.0.dir/__/common/src/mesh_softdevice_init.c.obj
 .text.sd_softdevice_enable
                0x0002691c        0x4 examples/dfu/CMakeFiles/dfu_no_serial_nrf52840_xxAA_s140_6.0.0.dir/__/common/src/mesh_softdevice_init.c.obj
 .text.sd_ble_enable
                0x00026920        0x4 examples/dfu/CMakeFiles/dfu_no_serial_nrf52840_xxAA_s140_6.0.0.dir/__/common/src/mesh_softdevice_init.c.obj
 .text.SWI2_EGU2_IRQHandler
                0x00026924       0x18 examples/dfu/CMakeFiles/dfu_no_serial_nrf52840_xxAA_s140_6.0.0.dir/__/common/src/mesh_softdevice_init.c.obj
                0x00026924                SWI2_EGU2_IRQHandler
 .text.mesh_softdevice_init
                0x0002693c      0x1c0 examples/dfu/CMakeFiles/dfu_no_serial_nrf52840_xxAA_s140_6.0.0.dir/__/common/src/mesh_softdevice_init.c.obj
                0x0002693c                mesh_softdevice_init
 .text.provisionee_start
                0x00026afc       0x18 examples/dfu/CMakeFiles/dfu_no_serial_nrf52840_xxAA_s140_6.0.0.dir/__/common/src/mesh_provisionee.c.obj
 .text.prov_evt_handler
                0x00026b14       0x64 examples/dfu/CMakeFiles/dfu_no_serial_nrf52840_xxAA_s140_6.0.0.dir/__/common/src/mesh_provisionee.c.obj
 .text.mesh_provisionee_prov_start
                0x00026b78       0x78 examples/dfu/CMakeFiles/dfu_no_serial_nrf52840_xxAA_s140_6.0.0.dir/__/common/src/mesh_provisionee.c.obj
                0x00026b78                mesh_provisionee_prov_start
 .text.hal_led_mask_set
                0x00026bf0       0x12 examples/dfu/CMakeFiles/dfu_no_serial_nrf52840_xxAA_s140_6.0.0.dir/__/common/src/simple_hal.c.obj
                0x00026bf0                hal_led_mask_set
 *fill*         0x00026c02        0x2 
 .text.hal_led_blink_ms
                0x00026c04       0x44 examples/dfu/CMakeFiles/dfu_no_serial_nrf52840_xxAA_s140_6.0.0.dir/__/common/src/simple_hal.c.obj
                0x00026c04                hal_led_blink_ms
 .text.hal_leds_init
                0x00026c48       0x38 examples/dfu/CMakeFiles/dfu_no_serial_nrf52840_xxAA_s140_6.0.0.dir/__/common/src/simple_hal.c.obj
                0x00026c48                hal_leds_init
 .text.GPIOTE_IRQHandler
                0x00026c80       0x60 examples/dfu/CMakeFiles/dfu_no_serial_nrf52840_xxAA_s140_6.0.0.dir/__/common/src/simple_hal.c.obj
                0x00026c80                GPIOTE_IRQHandler
 .text.add_to_publication_list
                0x00026ce0       0x78 examples/dfu/CMakeFiles/dfu_no_serial_nrf52840_xxAA_s140_6.0.0.dir/__/__/mesh/access/src/access_publish.c.obj
 .text.step_resolution_to_us
                0x00026d58       0x38 examples/dfu/CMakeFiles/dfu_no_serial_nrf52840_xxAA_s140_6.0.0.dir/__/__/mesh/access/src/access_publish.c.obj
 .text.schedule_publication_timer
                0x00026d90      0x184 examples/dfu/CMakeFiles/dfu_no_serial_nrf52840_xxAA_s140_6.0.0.dir/__/__/mesh/access/src/access_publish.c.obj
 .text.publish_timer_tick
                0x00026f14       0xa8 examples/dfu/CMakeFiles/dfu_no_serial_nrf52840_xxAA_s140_6.0.0.dir/__/__/mesh/access/src/access_publish.c.obj
 .text.access_publish_init
                0x00026fbc       0x38 examples/dfu/CMakeFiles/dfu_no_serial_nrf52840_xxAA_s140_6.0.0.dir/__/__/mesh/access/src/access_publish.c.obj
                0x00026fbc                access_publish_init
 .text.access_publish_period_set
                0x00026ff4       0x60 examples/dfu/CMakeFiles/dfu_no_serial_nrf52840_xxAA_s140_6.0.0.dir/__/__/mesh/access/src/access_publish.c.obj
                0x00026ff4                access_publish_period_set
 .text.access_publish_period_get
                0x00027054       0x22 examples/dfu/CMakeFiles/dfu_no_serial_nrf52840_xxAA_s140_6.0.0.dir/__/__/mesh/access/src/access_publish.c.obj
                0x00027054                access_publish_period_get
 .text.bitfield_get
                0x00027076       0x1a examples/dfu/CMakeFiles/dfu_no_serial_nrf52840_xxAA_s140_6.0.0.dir/__/__/mesh/access/src/access.c.obj
 .text.is_valid_opcode
                0x00027090       0x42 examples/dfu/CMakeFiles/dfu_no_serial_nrf52840_xxAA_s140_6.0.0.dir/__/__/mesh/access/src/access.c.obj
 *fill*         0x000270d2        0x2 
 .text.model_handle_valid_and_allocated
                0x000270d4       0x20 examples/dfu/CMakeFiles/dfu_no_serial_nrf52840_xxAA_s140_6.0.0.dir/__/__/mesh/access/src/access.c.obj
 .text.flash_manager_mem_available
                0x000270f4        0x2 examples/dfu/CMakeFiles/dfu_no_serial_nrf52840_xxAA_s140_6.0.0.dir/__/__/mesh/access/src/access.c.obj
 *fill*         0x000270f6        0x2 
 .text.restore_acquired_subscription
                0x000270f8       0x30 examples/dfu/CMakeFiles/dfu_no_serial_nrf52840_xxAA_s140_6.0.0.dir/__/__/mesh/access/src/access.c.obj
 .text.restore_acquired_element
                0x00027128       0x1c examples/dfu/CMakeFiles/dfu_no_serial_nrf52840_xxAA_s140_6.0.0.dir/__/__/mesh/access/src/access.c.obj
 .text.restore_flash_data
                0x00027144       0x50 examples/dfu/CMakeFiles/dfu_no_serial_nrf52840_xxAA_s140_6.0.0.dir/__/__/mesh/access/src/access.c.obj
 .text.flash_invalidate_complete
                0x00027194        0x6 examples/dfu/CMakeFiles/dfu_no_serial_nrf52840_xxAA_s140_6.0.0.dir/__/__/mesh/access/src/access.c.obj
 *fill*         0x0002719a        0x2 
 .text.access_flash_config_clear
                0x0002719c       0x28 examples/dfu/CMakeFiles/dfu_no_serial_nrf52840_xxAA_s140_6.0.0.dir/__/__/mesh/access/src/access.c.obj
 .text.access_flash_config_store
                0x000271c4      0x14c examples/dfu/CMakeFiles/dfu_no_serial_nrf52840_xxAA_s140_6.0.0.dir/__/__/mesh/access/src/access.c.obj
                0x000271c4                access_flash_config_store
 .text.access_state_clear
                0x00027310       0x4c examples/dfu/CMakeFiles/dfu_no_serial_nrf52840_xxAA_s140_6.0.0.dir/__/__/mesh/access/src/access.c.obj
 .text.add_flash_manager
                0x0002735c       0x58 examples/dfu/CMakeFiles/dfu_no_serial_nrf52840_xxAA_s140_6.0.0.dir/__/__/mesh/access/src/access.c.obj
 .text.flash_remove_complete
                0x000273b4       0x5c examples/dfu/CMakeFiles/dfu_no_serial_nrf52840_xxAA_s140_6.0.0.dir/__/__/mesh/access/src/access.c.obj
 .text.flash_write_complete
                0x00027410       0x46 examples/dfu/CMakeFiles/dfu_no_serial_nrf52840_xxAA_s140_6.0.0.dir/__/__/mesh/access/src/access.c.obj
 *fill*         0x00027456        0x2 
 .text.unlikely.bitfield_next_get.part.0.constprop.4
                0x00027458       0x34 examples/dfu/CMakeFiles/dfu_no_serial_nrf52840_xxAA_s140_6.0.0.dir/__/__/mesh/access/src/access.c.obj
 .text.restore_acquired_model
                0x0002748c       0x94 examples/dfu/CMakeFiles/dfu_no_serial_nrf52840_xxAA_s140_6.0.0.dir/__/__/mesh/access/src/access.c.obj
 .text.handle_incoming
                0x00027520      0x144 examples/dfu/CMakeFiles/dfu_no_serial_nrf52840_xxAA_s140_6.0.0.dir/__/__/mesh/access/src/access.c.obj
 .text.mesh_evt_cb
                0x00027664      0x134 examples/dfu/CMakeFiles/dfu_no_serial_nrf52840_xxAA_s140_6.0.0.dir/__/__/mesh/access/src/access.c.obj
 .text.packet_tx
                0x00027798      0x380 examples/dfu/CMakeFiles/dfu_no_serial_nrf52840_xxAA_s140_6.0.0.dir/__/__/mesh/access/src/access.c.obj
 .text.access_flash_config_load
                0x00027b18      0x118 examples/dfu/CMakeFiles/dfu_no_serial_nrf52840_xxAA_s140_6.0.0.dir/__/__/mesh/access/src/access.c.obj
                0x00027b18                access_flash_config_load
 .text.access_clear
                0x00027c30       0x12 examples/dfu/CMakeFiles/dfu_no_serial_nrf52840_xxAA_s140_6.0.0.dir/__/__/mesh/access/src/access.c.obj
                0x00027c30                access_clear
 *fill*         0x00027c42        0x2 
 .text.access_init
                0x00027c44       0x28 examples/dfu/CMakeFiles/dfu_no_serial_nrf52840_xxAA_s140_6.0.0.dir/__/__/mesh/access/src/access.c.obj
                0x00027c44                access_init
 .text.access_model_add
                0x00027c6c      0x1b4 examples/dfu/CMakeFiles/dfu_no_serial_nrf52840_xxAA_s140_6.0.0.dir/__/__/mesh/access/src/access.c.obj
                0x00027c6c                access_model_add
 .text.access_model_publish
                0x00027e20        0xc examples/dfu/CMakeFiles/dfu_no_serial_nrf52840_xxAA_s140_6.0.0.dir/__/__/mesh/access/src/access.c.obj
                0x00027e20                access_model_publish
 .text.access_model_reply
                0x00027e2c       0x12 examples/dfu/CMakeFiles/dfu_no_serial_nrf52840_xxAA_s140_6.0.0.dir/__/__/mesh/access/src/access.c.obj
                0x00027e2c                access_model_reply
 *fill*         0x00027e3e        0x2 
 .text.access_model_publish_address_set
                0x00027e40       0x3c examples/dfu/CMakeFiles/dfu_no_serial_nrf52840_xxAA_s140_6.0.0.dir/__/__/mesh/access/src/access.c.obj
                0x00027e40                access_model_publish_address_set
 .text.access_model_publish_address_get
                0x00027e7c       0x28 examples/dfu/CMakeFiles/dfu_no_serial_nrf52840_xxAA_s140_6.0.0.dir/__/__/mesh/access/src/access.c.obj
                0x00027e7c                access_model_publish_address_get
 .text.access_model_publish_retransmit_set
                0x00027ea4       0x4c examples/dfu/CMakeFiles/dfu_no_serial_nrf52840_xxAA_s140_6.0.0.dir/__/__/mesh/access/src/access.c.obj
                0x00027ea4                access_model_publish_retransmit_set
 .text.access_model_publish_retransmit_get
                0x00027ef0       0x2c examples/dfu/CMakeFiles/dfu_no_serial_nrf52840_xxAA_s140_6.0.0.dir/__/__/mesh/access/src/access.c.obj
                0x00027ef0                access_model_publish_retransmit_get
 .text.access_model_publish_period_set
                0x00027f1c       0x6c examples/dfu/CMakeFiles/dfu_no_serial_nrf52840_xxAA_s140_6.0.0.dir/__/__/mesh/access/src/access.c.obj
                0x00027f1c                access_model_publish_period_set
 .text.access_model_publish_period_get
                0x00027f88       0x3c examples/dfu/CMakeFiles/dfu_no_serial_nrf52840_xxAA_s140_6.0.0.dir/__/__/mesh/access/src/access.c.obj
                0x00027f88                access_model_publish_period_get
 .text.access_model_subscription_add
                0x00027fc4       0x60 examples/dfu/CMakeFiles/dfu_no_serial_nrf52840_xxAA_s140_6.0.0.dir/__/__/mesh/access/src/access.c.obj
                0x00027fc4                access_model_subscription_add
 .text.access_model_subscription_remove
                0x00028024       0x60 examples/dfu/CMakeFiles/dfu_no_serial_nrf52840_xxAA_s140_6.0.0.dir/__/__/mesh/access/src/access.c.obj
                0x00028024                access_model_subscription_remove
 .text.access_model_subscriptions_get
                0x00028084       0x80 examples/dfu/CMakeFiles/dfu_no_serial_nrf52840_xxAA_s140_6.0.0.dir/__/__/mesh/access/src/access.c.obj
                0x00028084                access_model_subscriptions_get
 .text.access_model_application_bind
                0x00028104       0x50 examples/dfu/CMakeFiles/dfu_no_serial_nrf52840_xxAA_s140_6.0.0.dir/__/__/mesh/access/src/access.c.obj
                0x00028104                access_model_application_bind
 .text.access_model_application_unbind
                0x00028154       0x50 examples/dfu/CMakeFiles/dfu_no_serial_nrf52840_xxAA_s140_6.0.0.dir/__/__/mesh/access/src/access.c.obj
                0x00028154                access_model_application_unbind
 .text.access_model_applications_get
                0x000281a4       0x64 examples/dfu/CMakeFiles/dfu_no_serial_nrf52840_xxAA_s140_6.0.0.dir/__/__/mesh/access/src/access.c.obj
                0x000281a4                access_model_applications_get
 .text.access_model_publish_application_set
                0x00028208       0x3c examples/dfu/CMakeFiles/dfu_no_serial_nrf52840_xxAA_s140_6.0.0.dir/__/__/mesh/access/src/access.c.obj
                0x00028208                access_model_publish_application_set
 .text.access_model_publish_application_get
                0x00028244       0x28 examples/dfu/CMakeFiles/dfu_no_serial_nrf52840_xxAA_s140_6.0.0.dir/__/__/mesh/access/src/access.c.obj
                0x00028244                access_model_publish_application_get
 .text.access_default_ttl_set
                0x0002826c       0x18 examples/dfu/CMakeFiles/dfu_no_serial_nrf52840_xxAA_s140_6.0.0.dir/__/__/mesh/access/src/access.c.obj
                0x0002826c                access_default_ttl_set
 .text.access_default_ttl_get
                0x00028284        0xc examples/dfu/CMakeFiles/dfu_no_serial_nrf52840_xxAA_s140_6.0.0.dir/__/__/mesh/access/src/access.c.obj
                0x00028284                access_default_ttl_get
 .text.access_model_publish_ttl_set
                0x00028290       0x40 examples/dfu/CMakeFiles/dfu_no_serial_nrf52840_xxAA_s140_6.0.0.dir/__/__/mesh/access/src/access.c.obj
                0x00028290                access_model_publish_ttl_set
 .text.access_model_publish_ttl_get
                0x000282d0       0x28 examples/dfu/CMakeFiles/dfu_no_serial_nrf52840_xxAA_s140_6.0.0.dir/__/__/mesh/access/src/access.c.obj
                0x000282d0                access_model_publish_ttl_get
 .text.access_element_location_get
                0x000282f8       0x18 examples/dfu/CMakeFiles/dfu_no_serial_nrf52840_xxAA_s140_6.0.0.dir/__/__/mesh/access/src/access.c.obj
                0x000282f8                access_element_location_get
 .text.access_element_sig_model_count_get
                0x00028310       0x18 examples/dfu/CMakeFiles/dfu_no_serial_nrf52840_xxAA_s140_6.0.0.dir/__/__/mesh/access/src/access.c.obj
                0x00028310                access_element_sig_model_count_get
 .text.access_element_vendor_model_count_get
                0x00028328       0x18 examples/dfu/CMakeFiles/dfu_no_serial_nrf52840_xxAA_s140_6.0.0.dir/__/__/mesh/access/src/access.c.obj
                0x00028328                access_element_vendor_model_count_get
 .text.access_model_id_get
                0x00028340       0x2c examples/dfu/CMakeFiles/dfu_no_serial_nrf52840_xxAA_s140_6.0.0.dir/__/__/mesh/access/src/access.c.obj
                0x00028340                access_model_id_get
 .text.access_handle_get
                0x0002836c       0x54 examples/dfu/CMakeFiles/dfu_no_serial_nrf52840_xxAA_s140_6.0.0.dir/__/__/mesh/access/src/access.c.obj
                0x0002836c                access_handle_get
 .text.access_element_models_get
                0x000283c0       0x48 examples/dfu/CMakeFiles/dfu_no_serial_nrf52840_xxAA_s140_6.0.0.dir/__/__/mesh/access/src/access.c.obj
                0x000283c0                access_element_models_get
 .text.access_model_p_args_get
                0x00028408       0x28 examples/dfu/CMakeFiles/dfu_no_serial_nrf52840_xxAA_s140_6.0.0.dir/__/__/mesh/access/src/access.c.obj
                0x00028408                access_model_p_args_get
 .text.access_model_publication_stop
                0x00028430       0x70 examples/dfu/CMakeFiles/dfu_no_serial_nrf52840_xxAA_s140_6.0.0.dir/__/__/mesh/access/src/access.c.obj
                0x00028430                access_model_publication_stop
 .text.access_model_publication_by_appkey_stop
                0x000284a0       0x36 examples/dfu/CMakeFiles/dfu_no_serial_nrf52840_xxAA_s140_6.0.0.dir/__/__/mesh/access/src/access.c.obj
                0x000284a0                access_model_publication_by_appkey_stop
 *fill*         0x000284d6        0x2 
 .text.reliable_timer_cb
                0x000284d8      0x11c examples/dfu/CMakeFiles/dfu_no_serial_nrf52840_xxAA_s140_6.0.0.dir/__/__/mesh/access/src/access_reliable.c.obj
 .text.remove_and_reschedule
                0x000285f4       0xb8 examples/dfu/CMakeFiles/dfu_no_serial_nrf52840_xxAA_s140_6.0.0.dir/__/__/mesh/access/src/access_reliable.c.obj
 .text.access_reliable_message_rx_cb
                0x000286ac       0x68 examples/dfu/CMakeFiles/dfu_no_serial_nrf52840_xxAA_s140_6.0.0.dir/__/__/mesh/access/src/access_reliable.c.obj
                0x000286ac                access_reliable_message_rx_cb
 .text.access_reliable_init
                0x00028714       0x1c examples/dfu/CMakeFiles/dfu_no_serial_nrf52840_xxAA_s140_6.0.0.dir/__/__/mesh/access/src/access_reliable.c.obj
                0x00028714                access_reliable_init
 .text.access_reliable_cancel_all
                0x00028730       0x60 examples/dfu/CMakeFiles/dfu_no_serial_nrf52840_xxAA_s140_6.0.0.dir/__/__/mesh/access/src/access_reliable.c.obj
                0x00028730                access_reliable_cancel_all
 .text.access_model_reliable_cancel
                0x00028790       0x6c examples/dfu/CMakeFiles/dfu_no_serial_nrf52840_xxAA_s140_6.0.0.dir/__/__/mesh/access/src/access_reliable.c.obj
                0x00028790                access_model_reliable_cancel
 .text.bitfield_get
                0x000287fc       0x1a examples/dfu/CMakeFiles/dfu_no_serial_nrf52840_xxAA_s140_6.0.0.dir/__/__/mesh/access/src/device_state_manager.c.obj
 .text.bitfield_set
                0x00028816       0x18 examples/dfu/CMakeFiles/dfu_no_serial_nrf52840_xxAA_s140_6.0.0.dir/__/__/mesh/access/src/device_state_manager.c.obj
 .text.bitfield_clear
                0x0002882e       0x1a examples/dfu/CMakeFiles/dfu_no_serial_nrf52840_xxAA_s140_6.0.0.dir/__/__/mesh/access/src/device_state_manager.c.obj
 .text.bitfield_is_all_clear
                0x00028848       0x3c examples/dfu/CMakeFiles/dfu_no_serial_nrf52840_xxAA_s140_6.0.0.dir/__/__/mesh/access/src/device_state_manager.c.obj
 .text.address_handle_virtual_valid
                0x00028884       0x18 examples/dfu/CMakeFiles/dfu_no_serial_nrf52840_xxAA_s140_6.0.0.dir/__/__/mesh/access/src/device_state_manager.c.obj
 .text.net_key_handle_get
                0x0002889c       0x58 examples/dfu/CMakeFiles/dfu_no_serial_nrf52840_xxAA_s140_6.0.0.dir/__/__/mesh/access/src/device_state_manager.c.obj
 .text.dev_key_handle_get
                0x000288f4       0x30 examples/dfu/CMakeFiles/dfu_no_serial_nrf52840_xxAA_s140_6.0.0.dir/__/__/mesh/access/src/device_state_manager.c.obj
 .text.app_key_handle_get
                0x00028924       0x58 examples/dfu/CMakeFiles/dfu_no_serial_nrf52840_xxAA_s140_6.0.0.dir/__/__/mesh/access/src/device_state_manager.c.obj
 .text.addr_nonvirtual_to_flash_entry
                0x0002897c       0x10 examples/dfu/CMakeFiles/dfu_no_serial_nrf52840_xxAA_s140_6.0.0.dir/__/__/mesh/access/src/device_state_manager.c.obj
 .text.devkey_set
                0x0002898c       0x50 examples/dfu/CMakeFiles/dfu_no_serial_nrf52840_xxAA_s140_6.0.0.dir/__/__/mesh/access/src/device_state_manager.c.obj
 .text.devkey_to_dsm_entry
                0x000289dc       0x18 examples/dfu/CMakeFiles/dfu_no_serial_nrf52840_xxAA_s140_6.0.0.dir/__/__/mesh/access/src/device_state_manager.c.obj
 .text.devkey_to_flash_entry
                0x000289f4       0x28 examples/dfu/CMakeFiles/dfu_no_serial_nrf52840_xxAA_s140_6.0.0.dir/__/__/mesh/access/src/device_state_manager.c.obj
 .text.addr_virtual_to_flash_entry
                0x00028a1c       0x18 examples/dfu/CMakeFiles/dfu_no_serial_nrf52840_xxAA_s140_6.0.0.dir/__/__/mesh/access/src/device_state_manager.c.obj
 .text.addr_unicast_to_dsm_entry
                0x00028a34        0xc examples/dfu/CMakeFiles/dfu_no_serial_nrf52840_xxAA_s140_6.0.0.dir/__/__/mesh/access/src/device_state_manager.c.obj
 .text.addr_unicast_to_flash_entry
                0x00028a40       0x10 examples/dfu/CMakeFiles/dfu_no_serial_nrf52840_xxAA_s140_6.0.0.dir/__/__/mesh/access/src/device_state_manager.c.obj
 .text.flash_mem_listener_callback
                0x00028a50       0x14 examples/dfu/CMakeFiles/dfu_no_serial_nrf52840_xxAA_s140_6.0.0.dir/__/__/mesh/access/src/device_state_manager.c.obj
 .text.get_subnet_handle
                0x00028a64       0x40 examples/dfu/CMakeFiles/dfu_no_serial_nrf52840_xxAA_s140_6.0.0.dir/__/__/mesh/access/src/device_state_manager.c.obj
 .text.appkey_set
                0x00028aa4       0x70 examples/dfu/CMakeFiles/dfu_no_serial_nrf52840_xxAA_s140_6.0.0.dir/__/__/mesh/access/src/device_state_manager.c.obj
 .text.appkey_to_flash_entry
                0x00028b14       0x54 examples/dfu/CMakeFiles/dfu_no_serial_nrf52840_xxAA_s140_6.0.0.dir/__/__/mesh/access/src/device_state_manager.c.obj
 .text.subnet_to_flash_entry
                0x00028b68       0x60 examples/dfu/CMakeFiles/dfu_no_serial_nrf52840_xxAA_s140_6.0.0.dir/__/__/mesh/access/src/device_state_manager.c.obj
 .text.bitfield_clear_all
                0x00028bc8        0xe examples/dfu/CMakeFiles/dfu_no_serial_nrf52840_xxAA_s140_6.0.0.dir/__/__/mesh/access/src/device_state_manager.c.obj
 *fill*         0x00028bd6        0x2 
 .text.subnet_set
                0x00028bd8       0x98 examples/dfu/CMakeFiles/dfu_no_serial_nrf52840_xxAA_s140_6.0.0.dir/__/__/mesh/access/src/device_state_manager.c.obj
 .text.virtual_address_set
                0x00028c70       0x4c examples/dfu/CMakeFiles/dfu_no_serial_nrf52840_xxAA_s140_6.0.0.dir/__/__/mesh/access/src/device_state_manager.c.obj
 .text.addr_virtual_to_dsm_entry
                0x00028cbc        0xe examples/dfu/CMakeFiles/dfu_no_serial_nrf52840_xxAA_s140_6.0.0.dir/__/__/mesh/access/src/device_state_manager.c.obj
 *fill*         0x00028cca        0x2 
 .text.reset_flash_area
                0x00028ccc       0x28 examples/dfu/CMakeFiles/dfu_no_serial_nrf52840_xxAA_s140_6.0.0.dir/__/__/mesh/access/src/device_state_manager.c.obj
 .text.flash_save
                0x00028cf4       0x7c examples/dfu/CMakeFiles/dfu_no_serial_nrf52840_xxAA_s140_6.0.0.dir/__/__/mesh/access/src/device_state_manager.c.obj
 .text.flash_invalidate
                0x00028d70       0x64 examples/dfu/CMakeFiles/dfu_no_serial_nrf52840_xxAA_s140_6.0.0.dir/__/__/mesh/access/src/device_state_manager.c.obj
 .text.flash_update_all
                0x00028dd4       0x6c examples/dfu/CMakeFiles/dfu_no_serial_nrf52840_xxAA_s140_6.0.0.dir/__/__/mesh/access/src/device_state_manager.c.obj
 .text.virtual_address_uuid_index_get
                0x00028e40       0x60 examples/dfu/CMakeFiles/dfu_no_serial_nrf52840_xxAA_s140_6.0.0.dir/__/__/mesh/access/src/device_state_manager.c.obj
 .text.add_address_virtual
                0x00028ea0       0x74 examples/dfu/CMakeFiles/dfu_no_serial_nrf52840_xxAA_s140_6.0.0.dir/__/__/mesh/access/src/device_state_manager.c.obj
 .text.get_subnet_handle_by_beacon_info
                0x00028f14       0x30 examples/dfu/CMakeFiles/dfu_no_serial_nrf52840_xxAA_s140_6.0.0.dir/__/__/mesh/access/src/device_state_manager.c.obj
 .text.get_app_handle
                0x00028f44       0x44 examples/dfu/CMakeFiles/dfu_no_serial_nrf52840_xxAA_s140_6.0.0.dir/__/__/mesh/access/src/device_state_manager.c.obj
 .text.appkey_to_dsm_entry
                0x00028f88       0x68 examples/dfu/CMakeFiles/dfu_no_serial_nrf52840_xxAA_s140_6.0.0.dir/__/__/mesh/access/src/device_state_manager.c.obj
 .text.subnet_to_dsm_entry
                0x00028ff0       0x68 examples/dfu/CMakeFiles/dfu_no_serial_nrf52840_xxAA_s140_6.0.0.dir/__/__/mesh/access/src/device_state_manager.c.obj
 .text.flash_operation_complete
                0x00029058       0x4c examples/dfu/CMakeFiles/dfu_no_serial_nrf52840_xxAA_s140_6.0.0.dir/__/__/mesh/access/src/device_state_manager.c.obj
 .text.flash_invalidate_complete
                0x000290a4        0x8 examples/dfu/CMakeFiles/dfu_no_serial_nrf52840_xxAA_s140_6.0.0.dir/__/__/mesh/access/src/device_state_manager.c.obj
 .text.flash_write_complete
                0x000290ac        0x8 examples/dfu/CMakeFiles/dfu_no_serial_nrf52840_xxAA_s140_6.0.0.dir/__/__/mesh/access/src/device_state_manager.c.obj
 .text.add_address.part.8
                0x000290b4      0x164 examples/dfu/CMakeFiles/dfu_no_serial_nrf52840_xxAA_s140_6.0.0.dir/__/__/mesh/access/src/device_state_manager.c.obj
 .text.bitfield_next_get.part.0.constprop.17
                0x00029218       0x3c examples/dfu/CMakeFiles/dfu_no_serial_nrf52840_xxAA_s140_6.0.0.dir/__/__/mesh/access/src/device_state_manager.c.obj
 .text.address_handle_valid
                0x00029254       0x28 examples/dfu/CMakeFiles/dfu_no_serial_nrf52840_xxAA_s140_6.0.0.dir/__/__/mesh/access/src/device_state_manager.c.obj
 .text.address_handle_nonvirtual_valid
                0x0002927c       0x14 examples/dfu/CMakeFiles/dfu_no_serial_nrf52840_xxAA_s140_6.0.0.dir/__/__/mesh/access/src/device_state_manager.c.obj
 .text.address_delete_if_unused
                0x00029290       0x78 examples/dfu/CMakeFiles/dfu_no_serial_nrf52840_xxAA_s140_6.0.0.dir/__/__/mesh/access/src/device_state_manager.c.obj
 .text.addr_nonvirtual_to_dsm_entry
                0x00029308       0x38 examples/dfu/CMakeFiles/dfu_no_serial_nrf52840_xxAA_s140_6.0.0.dir/__/__/mesh/access/src/device_state_manager.c.obj
 .text.dsm_flash_config_load
                0x00029340      0x120 examples/dfu/CMakeFiles/dfu_no_serial_nrf52840_xxAA_s140_6.0.0.dir/__/__/mesh/access/src/device_state_manager.c.obj
                0x00029340                dsm_flash_config_load
 .text.dsm_flash_area_get
                0x00029460        0xc examples/dfu/CMakeFiles/dfu_no_serial_nrf52840_xxAA_s140_6.0.0.dir/__/__/mesh/access/src/device_state_manager.c.obj
                0x00029460                dsm_flash_area_get
 .text.build_flash_area
                0x0002946c       0x8c examples/dfu/CMakeFiles/dfu_no_serial_nrf52840_xxAA_s140_6.0.0.dir/__/__/mesh/access/src/device_state_manager.c.obj
 .text.flash_remove_complete
                0x000294f8        0x4 examples/dfu/CMakeFiles/dfu_no_serial_nrf52840_xxAA_s140_6.0.0.dir/__/__/mesh/access/src/device_state_manager.c.obj
 .text.dsm_clear
                0x000294fc       0xb4 examples/dfu/CMakeFiles/dfu_no_serial_nrf52840_xxAA_s140_6.0.0.dir/__/__/mesh/access/src/device_state_manager.c.obj
                0x000294fc                dsm_clear
 .text.dsm_init
                0x000295b0       0x3c examples/dfu/CMakeFiles/dfu_no_serial_nrf52840_xxAA_s140_6.0.0.dir/__/__/mesh/access/src/device_state_manager.c.obj
                0x000295b0                dsm_init
 .text.dsm_local_unicast_addresses_set
                0x000295ec       0x78 examples/dfu/CMakeFiles/dfu_no_serial_nrf52840_xxAA_s140_6.0.0.dir/__/__/mesh/access/src/device_state_manager.c.obj
                0x000295ec                dsm_local_unicast_addresses_set
 .text.dsm_local_unicast_addresses_get
                0x00029664       0x20 examples/dfu/CMakeFiles/dfu_no_serial_nrf52840_xxAA_s140_6.0.0.dir/__/__/mesh/access/src/device_state_manager.c.obj
                0x00029664                dsm_local_unicast_addresses_get
 .text.dsm_address_publish_add
                0x00029684        0xc examples/dfu/CMakeFiles/dfu_no_serial_nrf52840_xxAA_s140_6.0.0.dir/__/__/mesh/access/src/device_state_manager.c.obj
                0x00029684                dsm_address_publish_add
 .text.dsm_address_publish_add_handle
                0x00029690       0x38 examples/dfu/CMakeFiles/dfu_no_serial_nrf52840_xxAA_s140_6.0.0.dir/__/__/mesh/access/src/device_state_manager.c.obj
                0x00029690                dsm_address_publish_add_handle
 .text.dsm_address_publish_virtual_add
                0x000296c8        0x6 examples/dfu/CMakeFiles/dfu_no_serial_nrf52840_xxAA_s140_6.0.0.dir/__/__/mesh/access/src/device_state_manager.c.obj
                0x000296c8                dsm_address_publish_virtual_add
 *fill*         0x000296ce        0x2 
 .text.dsm_address_publish_remove
                0x000296d0       0x44 examples/dfu/CMakeFiles/dfu_no_serial_nrf52840_xxAA_s140_6.0.0.dir/__/__/mesh/access/src/device_state_manager.c.obj
                0x000296d0                dsm_address_publish_remove
 .text.dsm_address_subscription_add
                0x00029714        0xc examples/dfu/CMakeFiles/dfu_no_serial_nrf52840_xxAA_s140_6.0.0.dir/__/__/mesh/access/src/device_state_manager.c.obj
                0x00029714                dsm_address_subscription_add
 .text.dsm_address_subscription_virtual_add
                0x00029720        0x6 examples/dfu/CMakeFiles/dfu_no_serial_nrf52840_xxAA_s140_6.0.0.dir/__/__/mesh/access/src/device_state_manager.c.obj
                0x00029720                dsm_address_subscription_virtual_add
 *fill*         0x00029726        0x2 
 .text.dsm_address_subscription_add_handle
                0x00029728       0x38 examples/dfu/CMakeFiles/dfu_no_serial_nrf52840_xxAA_s140_6.0.0.dir/__/__/mesh/access/src/device_state_manager.c.obj
                0x00029728                dsm_address_subscription_add_handle
 .text.dsm_address_subscription_get
                0x00029760       0x34 examples/dfu/CMakeFiles/dfu_no_serial_nrf52840_xxAA_s140_6.0.0.dir/__/__/mesh/access/src/device_state_manager.c.obj
                0x00029760                dsm_address_subscription_get
 .text.dsm_address_get
                0x00029794       0x5c examples/dfu/CMakeFiles/dfu_no_serial_nrf52840_xxAA_s140_6.0.0.dir/__/__/mesh/access/src/device_state_manager.c.obj
                0x00029794                dsm_address_get
 .text.dsm_address_subscription_remove
                0x000297f0       0x5c examples/dfu/CMakeFiles/dfu_no_serial_nrf52840_xxAA_s140_6.0.0.dir/__/__/mesh/access/src/device_state_manager.c.obj
                0x000297f0                dsm_address_subscription_remove
 .text.dsm_address_handle_get
                0x0002984c       0x98 examples/dfu/CMakeFiles/dfu_no_serial_nrf52840_xxAA_s140_6.0.0.dir/__/__/mesh/access/src/device_state_manager.c.obj
                0x0002984c                dsm_address_handle_get
 .text.dsm_net_key_index_to_subnet_handle
                0x000298e4       0x1c examples/dfu/CMakeFiles/dfu_no_serial_nrf52840_xxAA_s140_6.0.0.dir/__/__/mesh/access/src/device_state_manager.c.obj
                0x000298e4                dsm_net_key_index_to_subnet_handle
 .text.dsm_subnet_handle_get
                0x00029900        0xc examples/dfu/CMakeFiles/dfu_no_serial_nrf52840_xxAA_s140_6.0.0.dir/__/__/mesh/access/src/device_state_manager.c.obj
                0x00029900                dsm_subnet_handle_get
 .text.dsm_appkey_index_to_appkey_handle
                0x0002990c       0x1c examples/dfu/CMakeFiles/dfu_no_serial_nrf52840_xxAA_s140_6.0.0.dir/__/__/mesh/access/src/device_state_manager.c.obj
                0x0002990c                dsm_appkey_index_to_appkey_handle
 .text.dsm_appkey_handle_get
                0x00029928        0xc examples/dfu/CMakeFiles/dfu_no_serial_nrf52840_xxAA_s140_6.0.0.dir/__/__/mesh/access/src/device_state_manager.c.obj
                0x00029928                dsm_appkey_handle_get
 .text.dsm_appkey_handle_to_appkey_index
                0x00029934       0x34 examples/dfu/CMakeFiles/dfu_no_serial_nrf52840_xxAA_s140_6.0.0.dir/__/__/mesh/access/src/device_state_manager.c.obj
                0x00029934                dsm_appkey_handle_to_appkey_index
 .text.dsm_appkey_handle_to_subnet_handle
                0x00029968       0xa0 examples/dfu/CMakeFiles/dfu_no_serial_nrf52840_xxAA_s140_6.0.0.dir/__/__/mesh/access/src/device_state_manager.c.obj
                0x00029968                dsm_appkey_handle_to_subnet_handle
 .text.dsm_subnet_add
                0x00029a08       0x78 examples/dfu/CMakeFiles/dfu_no_serial_nrf52840_xxAA_s140_6.0.0.dir/__/__/mesh/access/src/device_state_manager.c.obj
                0x00029a08                dsm_subnet_add
 .text.dsm_subnet_kr_phase_get
                0x00029a80       0x34 examples/dfu/CMakeFiles/dfu_no_serial_nrf52840_xxAA_s140_6.0.0.dir/__/__/mesh/access/src/device_state_manager.c.obj
                0x00029a80                dsm_subnet_kr_phase_get
 .text.dsm_subnet_update
                0x00029ab4       0xc8 examples/dfu/CMakeFiles/dfu_no_serial_nrf52840_xxAA_s140_6.0.0.dir/__/__/mesh/access/src/device_state_manager.c.obj
                0x00029ab4                dsm_subnet_update
 .text.dsm_subnet_update_swap_keys
                0x00029b7c       0x5c examples/dfu/CMakeFiles/dfu_no_serial_nrf52840_xxAA_s140_6.0.0.dir/__/__/mesh/access/src/device_state_manager.c.obj
                0x00029b7c                dsm_subnet_update_swap_keys
 .text.dsm_subnet_update_commit
                0x00029bd8       0xf4 examples/dfu/CMakeFiles/dfu_no_serial_nrf52840_xxAA_s140_6.0.0.dir/__/__/mesh/access/src/device_state_manager.c.obj
                0x00029bd8                dsm_subnet_update_commit
 .text.mesh_evt_handler
                0x00029ccc       0x4c examples/dfu/CMakeFiles/dfu_no_serial_nrf52840_xxAA_s140_6.0.0.dir/__/__/mesh/access/src/device_state_manager.c.obj
 .text.dsm_subnet_get_all
                0x00029d18       0x60 examples/dfu/CMakeFiles/dfu_no_serial_nrf52840_xxAA_s140_6.0.0.dir/__/__/mesh/access/src/device_state_manager.c.obj
                0x00029d18                dsm_subnet_get_all
 .text.dsm_devkey_add
                0x00029d78       0x7c examples/dfu/CMakeFiles/dfu_no_serial_nrf52840_xxAA_s140_6.0.0.dir/__/__/mesh/access/src/device_state_manager.c.obj
                0x00029d78                dsm_devkey_add
 .text.dsm_appkey_add
                0x00029df4       0x90 examples/dfu/CMakeFiles/dfu_no_serial_nrf52840_xxAA_s140_6.0.0.dir/__/__/mesh/access/src/device_state_manager.c.obj
                0x00029df4                dsm_appkey_add
 .text.dsm_appkey_update
                0x00029e84       0xa4 examples/dfu/CMakeFiles/dfu_no_serial_nrf52840_xxAA_s140_6.0.0.dir/__/__/mesh/access/src/device_state_manager.c.obj
                0x00029e84                dsm_appkey_update
 .text.dsm_appkey_delete
                0x00029f28       0x30 examples/dfu/CMakeFiles/dfu_no_serial_nrf52840_xxAA_s140_6.0.0.dir/__/__/mesh/access/src/device_state_manager.c.obj
                0x00029f28                dsm_appkey_delete
 .text.dsm_subnet_delete
                0x00029f58       0xac examples/dfu/CMakeFiles/dfu_no_serial_nrf52840_xxAA_s140_6.0.0.dir/__/__/mesh/access/src/device_state_manager.c.obj
                0x00029f58                dsm_subnet_delete
 .text.dsm_appkey_get_all
                0x0002a004       0x88 examples/dfu/CMakeFiles/dfu_no_serial_nrf52840_xxAA_s140_6.0.0.dir/__/__/mesh/access/src/device_state_manager.c.obj
                0x0002a004                dsm_appkey_get_all
 .text.dsm_tx_secmat_get
                0x0002a08c       0xc4 examples/dfu/CMakeFiles/dfu_no_serial_nrf52840_xxAA_s140_6.0.0.dir/__/__/mesh/access/src/device_state_manager.c.obj
                0x0002a08c                dsm_tx_secmat_get
 .text.dsm_net_secmat_from_keyindex_get
                0x0002a150       0x3c examples/dfu/CMakeFiles/dfu_no_serial_nrf52840_xxAA_s140_6.0.0.dir/__/__/mesh/access/src/device_state_manager.c.obj
                0x0002a150                dsm_net_secmat_from_keyindex_get
 .text.nrf_mesh_net_secmat_next_get
                0x0002a18c       0xb4 examples/dfu/CMakeFiles/dfu_no_serial_nrf52840_xxAA_s140_6.0.0.dir/__/__/mesh/access/src/device_state_manager.c.obj
                0x0002a18c                nrf_mesh_net_secmat_next_get
 .text.nrf_mesh_app_secmat_next_get
                0x0002a240       0x88 examples/dfu/CMakeFiles/dfu_no_serial_nrf52840_xxAA_s140_6.0.0.dir/__/__/mesh/access/src/device_state_manager.c.obj
                0x0002a240                nrf_mesh_app_secmat_next_get
 .text.nrf_mesh_devkey_secmat_get
                0x0002a2c8       0x28 examples/dfu/CMakeFiles/dfu_no_serial_nrf52840_xxAA_s140_6.0.0.dir/__/__/mesh/access/src/device_state_manager.c.obj
                0x0002a2c8                nrf_mesh_devkey_secmat_get
 .text.nrf_mesh_beacon_info_next_get
                0x0002a2f0       0xd4 examples/dfu/CMakeFiles/dfu_no_serial_nrf52840_xxAA_s140_6.0.0.dir/__/__/mesh/access/src/device_state_manager.c.obj
                0x0002a2f0                nrf_mesh_beacon_info_next_get
 .text.nrf_mesh_rx_address_get
                0x0002a3c4      0x118 examples/dfu/CMakeFiles/dfu_no_serial_nrf52840_xxAA_s140_6.0.0.dir/__/__/mesh/access/src/device_state_manager.c.obj
                0x0002a3c4                nrf_mesh_rx_address_get
 .text.nrf_mesh_unicast_address_get
                0x0002a4dc       0x20 examples/dfu/CMakeFiles/dfu_no_serial_nrf52840_xxAA_s140_6.0.0.dir/__/__/mesh/access/src/device_state_manager.c.obj
                0x0002a4dc                nrf_mesh_unicast_address_get
 .text.config_composition_data_get
                0x0002a4fc      0x186 examples/dfu/CMakeFiles/dfu_no_serial_nrf52840_xxAA_s140_6.0.0.dir/__/__/models/config/src/composition_data.c.obj
                0x0002a4fc                config_composition_data_get
 *fill*         0x0002a682        0x2 
 .text.app_evt_send
                0x0002a684       0x10 examples/dfu/CMakeFiles/dfu_no_serial_nrf52840_xxAA_s140_6.0.0.dir/__/__/models/config/src/config_server.c.obj
 .text.config_server_heartbeat_publication_count_decrement
                0x0002a694       0x1c examples/dfu/CMakeFiles/dfu_no_serial_nrf52840_xxAA_s140_6.0.0.dir/__/__/models/config/src/config_server.c.obj
 .text.get_element_index
                0x0002a6b0       0x26 examples/dfu/CMakeFiles/dfu_no_serial_nrf52840_xxAA_s140_6.0.0.dir/__/__/models/config/src/config_server.c.obj
 *fill*         0x0002a6d6        0x2 
 .text.config_server_heartbeat_publication_params_get
                0x0002a6d8       0x34 examples/dfu/CMakeFiles/dfu_no_serial_nrf52840_xxAA_s140_6.0.0.dir/__/__/models/config/src/config_server.c.obj
 .text.send_reply
                0x0002a70c       0x34 examples/dfu/CMakeFiles/dfu_no_serial_nrf52840_xxAA_s140_6.0.0.dir/__/__/models/config/src/config_server.c.obj
 .text.send_network_transmit_status
                0x0002a740       0x72 examples/dfu/CMakeFiles/dfu_no_serial_nrf52840_xxAA_s140_6.0.0.dir/__/__/models/config/src/config_server.c.obj
 .text.handle_config_network_transmit_set
                0x0002a7b2       0x82 examples/dfu/CMakeFiles/dfu_no_serial_nrf52840_xxAA_s140_6.0.0.dir/__/__/models/config/src/config_server.c.obj
 .text.handle_config_network_transmit_get
                0x0002a834        0xa examples/dfu/CMakeFiles/dfu_no_serial_nrf52840_xxAA_s140_6.0.0.dir/__/__/models/config/src/config_server.c.obj
 *fill*         0x0002a83e        0x2 
 .text.handle_node_reset
                0x0002a840       0x1c examples/dfu/CMakeFiles/dfu_no_serial_nrf52840_xxAA_s140_6.0.0.dir/__/__/models/config/src/config_server.c.obj
 .text.send_netkey_status
                0x0002a85c       0x22 examples/dfu/CMakeFiles/dfu_no_serial_nrf52840_xxAA_s140_6.0.0.dir/__/__/models/config/src/config_server.c.obj
 .text.send_relay_status
                0x0002a87e       0xa6 examples/dfu/CMakeFiles/dfu_no_serial_nrf52840_xxAA_s140_6.0.0.dir/__/__/models/config/src/config_server.c.obj
 .text.handle_config_relay_set
                0x0002a924       0xb6 examples/dfu/CMakeFiles/dfu_no_serial_nrf52840_xxAA_s140_6.0.0.dir/__/__/models/config/src/config_server.c.obj
 .text.handle_config_relay_get
                0x0002a9da        0xa examples/dfu/CMakeFiles/dfu_no_serial_nrf52840_xxAA_s140_6.0.0.dir/__/__/models/config/src/config_server.c.obj
 .text.send_subscription_status
                0x0002a9e4       0x3a examples/dfu/CMakeFiles/dfu_no_serial_nrf52840_xxAA_s140_6.0.0.dir/__/__/models/config/src/config_server.c.obj
 .text.send_appkey_status
                0x0002aa1e       0x30 examples/dfu/CMakeFiles/dfu_no_serial_nrf52840_xxAA_s140_6.0.0.dir/__/__/models/config/src/config_server.c.obj
 .text.handle_netkey_get
                0x0002aa4e       0x4c examples/dfu/CMakeFiles/dfu_no_serial_nrf52840_xxAA_s140_6.0.0.dir/__/__/models/config/src/config_server.c.obj
 .text.handle_netkey_delete
                0x0002aa9a       0xbc examples/dfu/CMakeFiles/dfu_no_serial_nrf52840_xxAA_s140_6.0.0.dir/__/__/models/config/src/config_server.c.obj
 *fill*         0x0002ab56        0x2 
 .text.handle_netkey_add_update
                0x0002ab58       0x78 examples/dfu/CMakeFiles/dfu_no_serial_nrf52840_xxAA_s140_6.0.0.dir/__/__/models/config/src/config_server.c.obj
 .text.status_error_sub_send
                0x0002abd0      0x11e examples/dfu/CMakeFiles/dfu_no_serial_nrf52840_xxAA_s140_6.0.0.dir/__/__/models/config/src/config_server.c.obj
 .text.delete_all_subscriptions
                0x0002acee       0x66 examples/dfu/CMakeFiles/dfu_no_serial_nrf52840_xxAA_s140_6.0.0.dir/__/__/models/config/src/config_server.c.obj
 .text.send_publication_status
                0x0002ad54      0x16e examples/dfu/CMakeFiles/dfu_no_serial_nrf52840_xxAA_s140_6.0.0.dir/__/__/models/config/src/config_server.c.obj
 .text.handle_config_key_refresh_phase_set
                0x0002aec2       0xc6 examples/dfu/CMakeFiles/dfu_no_serial_nrf52840_xxAA_s140_6.0.0.dir/__/__/models/config/src/config_server.c.obj
 .text.handle_config_default_ttl_set
                0x0002af88       0x4e examples/dfu/CMakeFiles/dfu_no_serial_nrf52840_xxAA_s140_6.0.0.dir/__/__/models/config/src/config_server.c.obj
 .text.send_net_beacon_state
                0x0002afd6       0x2a examples/dfu/CMakeFiles/dfu_no_serial_nrf52840_xxAA_s140_6.0.0.dir/__/__/models/config/src/config_server.c.obj
 .text.handle_config_beacon_get
                0x0002b000        0xa examples/dfu/CMakeFiles/dfu_no_serial_nrf52840_xxAA_s140_6.0.0.dir/__/__/models/config/src/config_server.c.obj
 *fill*         0x0002b00a        0x2 
 .text.handle_heartbeat_publication_set
                0x0002b00c      0x128 examples/dfu/CMakeFiles/dfu_no_serial_nrf52840_xxAA_s140_6.0.0.dir/__/__/models/config/src/config_server.c.obj
 .text.mesh_event_cb
                0x0002b134       0x64 examples/dfu/CMakeFiles/dfu_no_serial_nrf52840_xxAA_s140_6.0.0.dir/__/__/models/config/src/config_server.c.obj
 .text.handle_node_identity_set
                0x0002b198       0x32 examples/dfu/CMakeFiles/dfu_no_serial_nrf52840_xxAA_s140_6.0.0.dir/__/__/models/config/src/config_server.c.obj
 .text.handle_node_identity_get
                0x0002b1ca       0x2e examples/dfu/CMakeFiles/dfu_no_serial_nrf52840_xxAA_s140_6.0.0.dir/__/__/models/config/src/config_server.c.obj
 .text.handle_config_gatt_proxy_set
                0x0002b1f8       0x2a examples/dfu/CMakeFiles/dfu_no_serial_nrf52840_xxAA_s140_6.0.0.dir/__/__/models/config/src/config_server.c.obj
 .text.handle_config_friend_set
                0x0002b222       0x2a examples/dfu/CMakeFiles/dfu_no_serial_nrf52840_xxAA_s140_6.0.0.dir/__/__/models/config/src/config_server.c.obj
 .text.status_error_pub_send
                0x0002b24c       0x9a examples/dfu/CMakeFiles/dfu_no_serial_nrf52840_xxAA_s140_6.0.0.dir/__/__/models/config/src/config_server.c.obj
 .text.handle_config_key_refresh_phase_get
                0x0002b2e6       0x54 examples/dfu/CMakeFiles/dfu_no_serial_nrf52840_xxAA_s140_6.0.0.dir/__/__/models/config/src/config_server.c.obj
 .text.handle_config_default_ttl_get
                0x0002b33a       0x2a examples/dfu/CMakeFiles/dfu_no_serial_nrf52840_xxAA_s140_6.0.0.dir/__/__/models/config/src/config_server.c.obj
 .text.handle_config_beacon_set
                0x0002b364       0x42 examples/dfu/CMakeFiles/dfu_no_serial_nrf52840_xxAA_s140_6.0.0.dir/__/__/models/config/src/config_server.c.obj
 .text.handle_composition_data_get
                0x0002b3a6       0x4c examples/dfu/CMakeFiles/dfu_no_serial_nrf52840_xxAA_s140_6.0.0.dir/__/__/models/config/src/config_server.c.obj
 .text.handle_appkey_delete
                0x0002b3f2       0xc2 examples/dfu/CMakeFiles/dfu_no_serial_nrf52840_xxAA_s140_6.0.0.dir/__/__/models/config/src/config_server.c.obj
 .text.get_subscription_list.constprop.25
                0x0002b4b4       0x50 examples/dfu/CMakeFiles/dfu_no_serial_nrf52840_xxAA_s140_6.0.0.dir/__/__/models/config/src/config_server.c.obj
 .text.handle_appkey_get
                0x0002b504       0xb8 examples/dfu/CMakeFiles/dfu_no_serial_nrf52840_xxAA_s140_6.0.0.dir/__/__/models/config/src/config_server.c.obj
 .text.heartbeat_subscription_count_encode
                0x0002b5bc       0x26 examples/dfu/CMakeFiles/dfu_no_serial_nrf52840_xxAA_s140_6.0.0.dir/__/__/models/config/src/config_server.c.obj
 .text.handle_appkey_add
                0x0002b5e2       0xba examples/dfu/CMakeFiles/dfu_no_serial_nrf52840_xxAA_s140_6.0.0.dir/__/__/models/config/src/config_server.c.obj
 .text.handle_appkey_update
                0x0002b69c       0xbc examples/dfu/CMakeFiles/dfu_no_serial_nrf52840_xxAA_s140_6.0.0.dir/__/__/models/config/src/config_server.c.obj
 .text.heartbeat_pubsub_period_encode
                0x0002b758       0x26 examples/dfu/CMakeFiles/dfu_no_serial_nrf52840_xxAA_s140_6.0.0.dir/__/__/models/config/src/config_server.c.obj
 *fill*         0x0002b77e        0x2 
 .text.handle_heartbeat_publication_get
                0x0002b780       0x7c examples/dfu/CMakeFiles/dfu_no_serial_nrf52840_xxAA_s140_6.0.0.dir/__/__/models/config/src/config_server.c.obj
 .text.handle_heartbeat_subscription_get
                0x0002b7fc       0x82 examples/dfu/CMakeFiles/dfu_no_serial_nrf52840_xxAA_s140_6.0.0.dir/__/__/models/config/src/config_server.c.obj
 .text.handle_heartbeat_subscription_set
                0x0002b87e       0xa4 examples/dfu/CMakeFiles/dfu_no_serial_nrf52840_xxAA_s140_6.0.0.dir/__/__/models/config/src/config_server.c.obj
 .text.handle_config_model_publication_get
                0x0002b922       0x94 examples/dfu/CMakeFiles/dfu_no_serial_nrf52840_xxAA_s140_6.0.0.dir/__/__/models/config/src/config_server.c.obj
 .text.handle_config_model_subscription_delete_all
                0x0002b9b6       0xca examples/dfu/CMakeFiles/dfu_no_serial_nrf52840_xxAA_s140_6.0.0.dir/__/__/models/config/src/config_server.c.obj
 .text.handle_config_sig_model_subscription_get
                0x0002ba80       0xc4 examples/dfu/CMakeFiles/dfu_no_serial_nrf52840_xxAA_s140_6.0.0.dir/__/__/models/config/src/config_server.c.obj
 .text.handle_config_vendor_model_subscription_get
                0x0002bb44      0x100 examples/dfu/CMakeFiles/dfu_no_serial_nrf52840_xxAA_s140_6.0.0.dir/__/__/models/config/src/config_server.c.obj
 .text.handle_config_model_subscription_virtual_address_delete
                0x0002bc44      0x110 examples/dfu/CMakeFiles/dfu_no_serial_nrf52840_xxAA_s140_6.0.0.dir/__/__/models/config/src/config_server.c.obj
 .text.handle_config_model_subscription_virtual_address_add
                0x0002bd54      0x10e examples/dfu/CMakeFiles/dfu_no_serial_nrf52840_xxAA_s140_6.0.0.dir/__/__/models/config/src/config_server.c.obj
 .text.handle_config_model_subscription_delete
                0x0002be62      0x116 examples/dfu/CMakeFiles/dfu_no_serial_nrf52840_xxAA_s140_6.0.0.dir/__/__/models/config/src/config_server.c.obj
 .text.handle_config_model_subscription_add
                0x0002bf78      0x114 examples/dfu/CMakeFiles/dfu_no_serial_nrf52840_xxAA_s140_6.0.0.dir/__/__/models/config/src/config_server.c.obj
 .text.handle_model_app_get
                0x0002c08c      0x19e examples/dfu/CMakeFiles/dfu_no_serial_nrf52840_xxAA_s140_6.0.0.dir/__/__/models/config/src/config_server.c.obj
 .text.handle_config_model_subscription_virtual_address_overwrite
                0x0002c22a      0x128 examples/dfu/CMakeFiles/dfu_no_serial_nrf52840_xxAA_s140_6.0.0.dir/__/__/models/config/src/config_server.c.obj
 .text.handle_config_model_subscription_overwrite
                0x0002c352      0x122 examples/dfu/CMakeFiles/dfu_no_serial_nrf52840_xxAA_s140_6.0.0.dir/__/__/models/config/src/config_server.c.obj
 .text.handle_model_app_bind_unbind
                0x0002c474      0x174 examples/dfu/CMakeFiles/dfu_no_serial_nrf52840_xxAA_s140_6.0.0.dir/__/__/models/config/src/config_server.c.obj
 .text.handle_config_gatt_proxy_get
                0x0002c5e8       0x20 examples/dfu/CMakeFiles/dfu_no_serial_nrf52840_xxAA_s140_6.0.0.dir/__/__/models/config/src/config_server.c.obj
 .text.handle_config_friend_get
                0x0002c608       0x20 examples/dfu/CMakeFiles/dfu_no_serial_nrf52840_xxAA_s140_6.0.0.dir/__/__/models/config/src/config_server.c.obj
 .text.handle_config_model_publication_set
                0x0002c628      0x2ce examples/dfu/CMakeFiles/dfu_no_serial_nrf52840_xxAA_s140_6.0.0.dir/__/__/models/config/src/config_server.c.obj
 *fill*         0x0002c8f6        0x2 
 .text.config_server_init
                0x0002c8f8       0x64 examples/dfu/CMakeFiles/dfu_no_serial_nrf52840_xxAA_s140_6.0.0.dir/__/__/models/config/src/config_server.c.obj
                0x0002c8f8                config_server_init
 .text.config_server_bind
                0x0002c95c       0x10 examples/dfu/CMakeFiles/dfu_no_serial_nrf52840_xxAA_s140_6.0.0.dir/__/__/models/config/src/config_server.c.obj
                0x0002c95c                config_server_bind
 .text.packed_index_list_create
                0x0002c96c       0x32 examples/dfu/CMakeFiles/dfu_no_serial_nrf52840_xxAA_s140_6.0.0.dir/__/__/models/config/src/packed_index_list.c.obj
                0x0002c96c                packed_index_list_create
 *fill*         0x0002c99e        0x2 
 .text.attention_timer_set
                0x0002c9a0       0x8c examples/dfu/CMakeFiles/dfu_no_serial_nrf52840_xxAA_s140_6.0.0.dir/__/__/models/health/src/health_server.c.obj
 .text.attention_timer_handler
                0x0002ca2c       0x5c examples/dfu/CMakeFiles/dfu_no_serial_nrf52840_xxAA_s140_6.0.0.dir/__/__/models/health/src/health_server.c.obj
 .text.send_attention_status.isra.1
                0x0002ca88       0x44 examples/dfu/CMakeFiles/dfu_no_serial_nrf52840_xxAA_s140_6.0.0.dir/__/__/models/health/src/health_server.c.obj
 .text.handle_attention_set
                0x0002cacc       0x32 examples/dfu/CMakeFiles/dfu_no_serial_nrf52840_xxAA_s140_6.0.0.dir/__/__/models/health/src/health_server.c.obj
 .text.send_period_status.isra.4
                0x0002cafe       0x44 examples/dfu/CMakeFiles/dfu_no_serial_nrf52840_xxAA_s140_6.0.0.dir/__/__/models/health/src/health_server.c.obj
 .text.handle_period_set
                0x0002cb42       0x28 examples/dfu/CMakeFiles/dfu_no_serial_nrf52840_xxAA_s140_6.0.0.dir/__/__/models/health/src/health_server.c.obj
 *fill*         0x0002cb6a        0x2 
 .text.bitfield_next_get.part.0.constprop.13
                0x0002cb6c       0x44 examples/dfu/CMakeFiles/dfu_no_serial_nrf52840_xxAA_s140_6.0.0.dir/__/__/models/health/src/health_server.c.obj
 .text.bitfield_popcount.constprop.11
                0x0002cbb0       0x28 examples/dfu/CMakeFiles/dfu_no_serial_nrf52840_xxAA_s140_6.0.0.dir/__/__/models/health/src/health_server.c.obj
 .text.send_fault_status
                0x0002cbd8       0xa8 examples/dfu/CMakeFiles/dfu_no_serial_nrf52840_xxAA_s140_6.0.0.dir/__/__/models/health/src/health_server.c.obj
 .text.health_publish_timeout_handler
                0x0002cc80        0xa examples/dfu/CMakeFiles/dfu_no_serial_nrf52840_xxAA_s140_6.0.0.dir/__/__/models/health/src/health_server.c.obj
 .text.handle_fault_test
                0x0002cc8a       0x68 examples/dfu/CMakeFiles/dfu_no_serial_nrf52840_xxAA_s140_6.0.0.dir/__/__/models/health/src/health_server.c.obj
 .text.handle_fault_get
                0x0002ccf2       0x32 examples/dfu/CMakeFiles/dfu_no_serial_nrf52840_xxAA_s140_6.0.0.dir/__/__/models/health/src/health_server.c.obj
 .text.handle_fault_clear
                0x0002cd24       0x48 examples/dfu/CMakeFiles/dfu_no_serial_nrf52840_xxAA_s140_6.0.0.dir/__/__/models/health/src/health_server.c.obj
 .text.handle_attention_get
                0x0002cd6c       0x14 examples/dfu/CMakeFiles/dfu_no_serial_nrf52840_xxAA_s140_6.0.0.dir/__/__/models/health/src/health_server.c.obj
 .text.handle_period_get
                0x0002cd80       0x12 examples/dfu/CMakeFiles/dfu_no_serial_nrf52840_xxAA_s140_6.0.0.dir/__/__/models/health/src/health_server.c.obj
 *fill*         0x0002cd92        0x2 
 .text.health_server_init
                0x0002cd94       0x6c examples/dfu/CMakeFiles/dfu_no_serial_nrf52840_xxAA_s140_6.0.0.dir/__/__/models/health/src/health_server.c.obj
                0x0002cd94                health_server_init
 .text.send_confirmation
                0x0002ce00       0x26 examples/dfu/CMakeFiles/dfu_no_serial_nrf52840_xxAA_s140_6.0.0.dir/__/__/mesh/prov/src/prov_provisioner.c.obj
 .text.prov_provisioner_auth_data
                0x0002ce26       0x6c examples/dfu/CMakeFiles/dfu_no_serial_nrf52840_xxAA_s140_6.0.0.dir/__/__/mesh/prov/src/prov_provisioner.c.obj
                0x0002ce26                prov_provisioner_auth_data
 .text.complete_provisioning
                0x0002ce92       0x24 examples/dfu/CMakeFiles/dfu_no_serial_nrf52840_xxAA_s140_6.0.0.dir/__/__/mesh/prov/src/prov_provisionee.c.obj
 .text.prov_provisionee_cb_link_established
                0x0002ceb6       0x36 examples/dfu/CMakeFiles/dfu_no_serial_nrf52840_xxAA_s140_6.0.0.dir/__/__/mesh/prov/src/prov_provisionee.c.obj
 .text.prov_provisionee_cb_link_closed
                0x0002ceec       0x34 examples/dfu/CMakeFiles/dfu_no_serial_nrf52840_xxAA_s140_6.0.0.dir/__/__/mesh/prov/src/prov_provisionee.c.obj
 .text.request_authentication
                0x0002cf20       0x8a examples/dfu/CMakeFiles/dfu_no_serial_nrf52840_xxAA_s140_6.0.0.dir/__/__/mesh/prov/src/prov_provisionee.c.obj
 .text.send_failed
                0x0002cfaa       0x3a examples/dfu/CMakeFiles/dfu_no_serial_nrf52840_xxAA_s140_6.0.0.dir/__/__/mesh/prov/src/prov_provisionee.c.obj
 .text.start_authentication
                0x0002cfe4       0x52 examples/dfu/CMakeFiles/dfu_no_serial_nrf52840_xxAA_s140_6.0.0.dir/__/__/mesh/prov/src/prov_provisionee.c.obj
 *fill*         0x0002d036        0x2 
 .text.prov_provisionee_cb_ack_received
                0x0002d038       0xc8 examples/dfu/CMakeFiles/dfu_no_serial_nrf52840_xxAA_s140_6.0.0.dir/__/__/mesh/prov/src/prov_provisionee.c.obj
 .text.prov_provisionee_pkt_in
                0x0002d100      0x2e4 examples/dfu/CMakeFiles/dfu_no_serial_nrf52840_xxAA_s140_6.0.0.dir/__/__/mesh/prov/src/prov_provisionee.c.obj
 .text.prov_provisionee_listen
                0x0002d3e4       0x30 examples/dfu/CMakeFiles/dfu_no_serial_nrf52840_xxAA_s140_6.0.0.dir/__/__/mesh/prov/src/prov_provisionee.c.obj
                0x0002d3e4                prov_provisionee_listen
 .text.prov_provisionee_auth_data
                0x0002d414       0x98 examples/dfu/CMakeFiles/dfu_no_serial_nrf52840_xxAA_s140_6.0.0.dir/__/__/mesh/prov/src/prov_provisionee.c.obj
                0x0002d414                prov_provisionee_auth_data
 .text.bearer_compare_callback
                0x0002d4ac        0xc examples/dfu/CMakeFiles/dfu_no_serial_nrf52840_xxAA_s140_6.0.0.dir/__/__/mesh/prov/src/nrf_mesh_prov.c.obj
 .text.bitfield_next_get.part.0.constprop.4
                0x0002d4b8       0x34 examples/dfu/CMakeFiles/dfu_no_serial_nrf52840_xxAA_s140_6.0.0.dir/__/__/mesh/prov/src/nrf_mesh_prov.c.obj
 .text.nrf_mesh_prov_init
                0x0002d4ec       0x32 examples/dfu/CMakeFiles/dfu_no_serial_nrf52840_xxAA_s140_6.0.0.dir/__/__/mesh/prov/src/nrf_mesh_prov.c.obj
                0x0002d4ec                nrf_mesh_prov_init
 *fill*         0x0002d51e        0x2 
 .text.nrf_mesh_prov_bearer_add
                0x0002d520       0x28 examples/dfu/CMakeFiles/dfu_no_serial_nrf52840_xxAA_s140_6.0.0.dir/__/__/mesh/prov/src/nrf_mesh_prov.c.obj
                0x0002d520                nrf_mesh_prov_bearer_add
 .text.nrf_mesh_prov_generate_keys
                0x0002d548        0x4 examples/dfu/CMakeFiles/dfu_no_serial_nrf52840_xxAA_s140_6.0.0.dir/__/__/mesh/prov/src/nrf_mesh_prov.c.obj
                0x0002d548                nrf_mesh_prov_generate_keys
 .text.nrf_mesh_prov_listen_stop
                0x0002d54c       0x2e examples/dfu/CMakeFiles/dfu_no_serial_nrf52840_xxAA_s140_6.0.0.dir/__/__/mesh/prov/src/nrf_mesh_prov.c.obj
                0x0002d54c                nrf_mesh_prov_listen_stop
 .text.nrf_mesh_prov_listen
                0x0002d57a       0x88 examples/dfu/CMakeFiles/dfu_no_serial_nrf52840_xxAA_s140_6.0.0.dir/__/__/mesh/prov/src/nrf_mesh_prov.c.obj
                0x0002d57a                nrf_mesh_prov_listen
 .text.nrf_mesh_prov_auth_data_provide
                0x0002d602        0xe examples/dfu/CMakeFiles/dfu_no_serial_nrf52840_xxAA_s140_6.0.0.dir/__/__/mesh/prov/src/nrf_mesh_prov.c.obj
                0x0002d602                nrf_mesh_prov_auth_data_provide
 .text.send_data
                0x0002d610       0x28 examples/dfu/CMakeFiles/dfu_no_serial_nrf52840_xxAA_s140_6.0.0.dir/__/__/mesh/prov/src/provisioning.c.obj
 .text.prov_packet_length_valid
                0x0002d638       0x1c examples/dfu/CMakeFiles/dfu_no_serial_nrf52840_xxAA_s140_6.0.0.dir/__/__/mesh/prov/src/provisioning.c.obj
                0x0002d638                prov_packet_length_valid
 .text.prov_tx_capabilities
                0x0002d654       0x1e examples/dfu/CMakeFiles/dfu_no_serial_nrf52840_xxAA_s140_6.0.0.dir/__/__/mesh/prov/src/provisioning.c.obj
                0x0002d654                prov_tx_capabilities
 .text.prov_tx_public_key
                0x0002d672       0x26 examples/dfu/CMakeFiles/dfu_no_serial_nrf52840_xxAA_s140_6.0.0.dir/__/__/mesh/prov/src/provisioning.c.obj
                0x0002d672                prov_tx_public_key
 .text.prov_tx_input_complete
                0x0002d698       0x16 examples/dfu/CMakeFiles/dfu_no_serial_nrf52840_xxAA_s140_6.0.0.dir/__/__/mesh/prov/src/provisioning.c.obj
                0x0002d698                prov_tx_input_complete
 .text.prov_tx_confirmation
                0x0002d6ae       0x26 examples/dfu/CMakeFiles/dfu_no_serial_nrf52840_xxAA_s140_6.0.0.dir/__/__/mesh/prov/src/provisioning.c.obj
                0x0002d6ae                prov_tx_confirmation
 .text.prov_tx_random
                0x0002d6d4       0x26 examples/dfu/CMakeFiles/dfu_no_serial_nrf52840_xxAA_s140_6.0.0.dir/__/__/mesh/prov/src/provisioning.c.obj
                0x0002d6d4                prov_tx_random
 .text.prov_tx_complete
                0x0002d6fa       0x16 examples/dfu/CMakeFiles/dfu_no_serial_nrf52840_xxAA_s140_6.0.0.dir/__/__/mesh/prov/src/provisioning.c.obj
                0x0002d6fa                prov_tx_complete
 .text.prov_tx_failed
                0x0002d710       0x1a examples/dfu/CMakeFiles/dfu_no_serial_nrf52840_xxAA_s140_6.0.0.dir/__/__/mesh/prov/src/provisioning.c.obj
                0x0002d710                prov_tx_failed
 .text.prov_beacon_unprov_build
                0x0002d72a       0x54 examples/dfu/CMakeFiles/dfu_no_serial_nrf52840_xxAA_s140_6.0.0.dir/__/__/mesh/prov/src/prov_beacon.c.obj
                0x0002d72a                prov_beacon_unprov_build
 *fill*         0x0002d77e        0x2 
 .text.prov_beacon_unprov_packet_in
                0x0002d780       0x88 examples/dfu/CMakeFiles/dfu_no_serial_nrf52840_xxAA_s140_6.0.0.dir/__/__/mesh/prov/src/prov_beacon.c.obj
                0x0002d780                prov_beacon_unprov_packet_in
 .text.oob_gen_alphanumeric
                0x0002d808       0x34 examples/dfu/CMakeFiles/dfu_no_serial_nrf52840_xxAA_s140_6.0.0.dir/__/__/mesh/prov/src/prov_utils.c.obj
 .text.oob_gen_numeric
                0x0002d83c       0x3c examples/dfu/CMakeFiles/dfu_no_serial_nrf52840_xxAA_s140_6.0.0.dir/__/__/mesh/prov/src/prov_utils.c.obj
 .text.prov_utils_opt_set
                0x0002d878       0x20 examples/dfu/CMakeFiles/dfu_no_serial_nrf52840_xxAA_s140_6.0.0.dir/__/__/mesh/prov/src/prov_utils.c.obj
                0x0002d878                prov_utils_opt_set
 .text.prov_utils_opt_get
                0x0002d898       0x1c examples/dfu/CMakeFiles/dfu_no_serial_nrf52840_xxAA_s140_6.0.0.dir/__/__/mesh/prov/src/prov_utils.c.obj
                0x0002d898                prov_utils_opt_get
 .text.prov_utils_use_ecdh_offloading
                0x0002d8b4        0xc examples/dfu/CMakeFiles/dfu_no_serial_nrf52840_xxAA_s140_6.0.0.dir/__/__/mesh/prov/src/prov_utils.c.obj
                0x0002d8b4                prov_utils_use_ecdh_offloading
 .text.prov_utils_authentication_values_derive
                0x0002d8c0       0xa0 examples/dfu/CMakeFiles/dfu_no_serial_nrf52840_xxAA_s140_6.0.0.dir/__/__/mesh/prov/src/prov_utils.c.obj
                0x0002d8c0                prov_utils_authentication_values_derive
 .text.prov_utils_keys_generate
                0x0002d960       0x1e examples/dfu/CMakeFiles/dfu_no_serial_nrf52840_xxAA_s140_6.0.0.dir/__/__/mesh/prov/src/prov_utils.c.obj
                0x0002d960                prov_utils_keys_generate
 *fill*         0x0002d97e        0x2 
 .text.prov_utils_derive_keys
                0x0002d980       0xac examples/dfu/CMakeFiles/dfu_no_serial_nrf52840_xxAA_s140_6.0.0.dir/__/__/mesh/prov/src/prov_utils.c.obj
                0x0002d980                prov_utils_derive_keys
 .text.prov_utils_calculate_shared_secret
                0x0002da2c       0x36 examples/dfu/CMakeFiles/dfu_no_serial_nrf52840_xxAA_s140_6.0.0.dir/__/__/mesh/prov/src/prov_utils.c.obj
                0x0002da2c                prov_utils_calculate_shared_secret
 .text.prov_utils_generate_oob_data
                0x0002da62       0x8a examples/dfu/CMakeFiles/dfu_no_serial_nrf52840_xxAA_s140_6.0.0.dir/__/__/mesh/prov/src/prov_utils.c.obj
                0x0002da62                prov_utils_generate_oob_data
 .text.prov_utils_confirmation_check
                0x0002daec       0x5c examples/dfu/CMakeFiles/dfu_no_serial_nrf52840_xxAA_s140_6.0.0.dir/__/__/mesh/prov/src/prov_utils.c.obj
                0x0002daec                prov_utils_confirmation_check
 .text.link_timeout_cb
                0x0002db48       0x10 examples/dfu/CMakeFiles/dfu_no_serial_nrf52840_xxAA_s140_6.0.0.dir/__/__/mesh/prov/src/prov_bearer_adv.c.obj
 .text.remove_active_bearer
                0x0002db58       0x4c examples/dfu/CMakeFiles/dfu_no_serial_nrf52840_xxAA_s140_6.0.0.dir/__/__/mesh/prov/src/prov_bearer_adv.c.obj
 .text.close_link
                0x0002dba4       0x58 examples/dfu/CMakeFiles/dfu_no_serial_nrf52840_xxAA_s140_6.0.0.dir/__/__/mesh/prov/src/prov_bearer_adv.c.obj
 .text.prov_bearer_adv_listen_stop
                0x0002dbfc       0x30 examples/dfu/CMakeFiles/dfu_no_serial_nrf52840_xxAA_s140_6.0.0.dir/__/__/mesh/prov/src/prov_bearer_adv.c.obj
 .text.send_packet
                0x0002dc2c       0x5e examples/dfu/CMakeFiles/dfu_no_serial_nrf52840_xxAA_s140_6.0.0.dir/__/__/mesh/prov/src/prov_bearer_adv.c.obj
 .text.prov_buffer_tx
                0x0002dc8a      0x134 examples/dfu/CMakeFiles/dfu_no_serial_nrf52840_xxAA_s140_6.0.0.dir/__/__/mesh/prov/src/prov_bearer_adv.c.obj
 .text.send_link_close
                0x0002ddbe       0x38 examples/dfu/CMakeFiles/dfu_no_serial_nrf52840_xxAA_s140_6.0.0.dir/__/__/mesh/prov/src/prov_bearer_adv.c.obj
 .text.prov_bearer_adv_link_close
                0x0002ddf6       0x56 examples/dfu/CMakeFiles/dfu_no_serial_nrf52840_xxAA_s140_6.0.0.dir/__/__/mesh/prov/src/prov_bearer_adv.c.obj
 .text.send_transaction_ack
                0x0002de4c       0x24 examples/dfu/CMakeFiles/dfu_no_serial_nrf52840_xxAA_s140_6.0.0.dir/__/__/mesh/prov/src/prov_bearer_adv.c.obj
 .text.send_link_ack
                0x0002de70       0x32 examples/dfu/CMakeFiles/dfu_no_serial_nrf52840_xxAA_s140_6.0.0.dir/__/__/mesh/prov/src/prov_bearer_adv.c.obj
 .text.reset_timeout_timer
                0x0002dea2       0x1a examples/dfu/CMakeFiles/dfu_no_serial_nrf52840_xxAA_s140_6.0.0.dir/__/__/mesh/prov/src/prov_bearer_adv.c.obj
 .text.tx_complete_cb
                0x0002debc       0x1c examples/dfu/CMakeFiles/dfu_no_serial_nrf52840_xxAA_s140_6.0.0.dir/__/__/mesh/prov/src/prov_bearer_adv.c.obj
 .text.tx_retry_cb
                0x0002ded8       0xcc examples/dfu/CMakeFiles/dfu_no_serial_nrf52840_xxAA_s140_6.0.0.dir/__/__/mesh/prov/src/prov_bearer_adv.c.obj
 .text.add_active_bearer
                0x0002dfa4       0x80 examples/dfu/CMakeFiles/dfu_no_serial_nrf52840_xxAA_s140_6.0.0.dir/__/__/mesh/prov/src/prov_bearer_adv.c.obj
 .text.prov_bearer_adv_link_open
                0x0002e024       0xec examples/dfu/CMakeFiles/dfu_no_serial_nrf52840_xxAA_s140_6.0.0.dir/__/__/mesh/prov/src/prov_bearer_adv.c.obj
 .text.async_process
                0x0002e110       0x50 examples/dfu/CMakeFiles/dfu_no_serial_nrf52840_xxAA_s140_6.0.0.dir/__/__/mesh/prov/src/prov_bearer_adv.c.obj
 .text.prov_bearer_adv_listen
                0x0002e160       0xd8 examples/dfu/CMakeFiles/dfu_no_serial_nrf52840_xxAA_s140_6.0.0.dir/__/__/mesh/prov/src/prov_bearer_adv.c.obj
 .text.calculate_3GPP_CRC
                0x0002e238       0x24 examples/dfu/CMakeFiles/dfu_no_serial_nrf52840_xxAA_s140_6.0.0.dir/__/__/mesh/prov/src/prov_bearer_adv.c.obj
                0x0002e238                calculate_3GPP_CRC
 .text.prov_bearer_adv_tx
                0x0002e25c       0xb4 examples/dfu/CMakeFiles/dfu_no_serial_nrf52840_xxAA_s140_6.0.0.dir/__/__/mesh/prov/src/prov_bearer_adv.c.obj
 .text.prov_buffer_rx
                0x0002e310       0x6e examples/dfu/CMakeFiles/dfu_no_serial_nrf52840_xxAA_s140_6.0.0.dir/__/__/mesh/prov/src/prov_bearer_adv.c.obj
 *fill*         0x0002e37e        0x2 
 .text.nrf_mesh_prov_bearer_adv_interface_get
                0x0002e380       0x3c examples/dfu/CMakeFiles/dfu_no_serial_nrf52840_xxAA_s140_6.0.0.dir/__/__/mesh/prov/src/prov_bearer_adv.c.obj
                0x0002e380                nrf_mesh_prov_bearer_adv_interface_get
 .text.prov_bearer_adv_packet_in
                0x0002e3bc      0x7f8 examples/dfu/CMakeFiles/dfu_no_serial_nrf52840_xxAA_s140_6.0.0.dir/__/__/mesh/prov/src/prov_bearer_adv.c.obj
                0x0002e3bc                prov_bearer_adv_packet_in
 .text.tx_complete_cb
                0x0002ebb4        0x2 examples/dfu/CMakeFiles/dfu_no_serial_nrf52840_xxAA_s140_6.0.0.dir/__/__/mesh/dfu/src/nrf_mesh_dfu.c.obj
 *fill*         0x0002ebb6        0x2 
 .text.reset_transfer_state
                0x0002ebb8       0x24 examples/dfu/CMakeFiles/dfu_no_serial_nrf52840_xxAA_s140_6.0.0.dir/__/__/mesh/dfu/src/nrf_mesh_dfu.c.obj
 .text.end_transfer
                0x0002ebdc       0x48 examples/dfu/CMakeFiles/dfu_no_serial_nrf52840_xxAA_s140_6.0.0.dir/__/__/mesh/dfu/src/nrf_mesh_dfu.c.obj
 .text.dfu_evt_handler
                0x0002ec24      0x820 examples/dfu/CMakeFiles/dfu_no_serial_nrf52840_xxAA_s140_6.0.0.dir/__/__/mesh/dfu/src/nrf_mesh_dfu.c.obj
 .text.next_tx_timeout
                0x0002f444       0x58 examples/dfu/CMakeFiles/dfu_no_serial_nrf52840_xxAA_s140_6.0.0.dir/__/__/mesh/dfu/src/nrf_mesh_dfu.c.obj
 .text.tx_timeout
                0x0002f49c       0xfc examples/dfu/CMakeFiles/dfu_no_serial_nrf52840_xxAA_s140_6.0.0.dir/__/__/mesh/dfu/src/nrf_mesh_dfu.c.obj
 .text.nrf_mesh_dfu_cmd_send
                0x0002f598       0x90 examples/dfu/CMakeFiles/dfu_no_serial_nrf52840_xxAA_s140_6.0.0.dir/__/__/mesh/dfu/src/nrf_mesh_dfu.c.obj
                0x0002f598                nrf_mesh_dfu_cmd_send
 .text.nrf_mesh_dfu_init
                0x0002f628      0x158 examples/dfu/CMakeFiles/dfu_no_serial_nrf52840_xxAA_s140_6.0.0.dir/__/__/mesh/dfu/src/nrf_mesh_dfu.c.obj
                0x0002f628                nrf_mesh_dfu_init
 .text.flash_op_complete
                0x0002f780      0x14c examples/dfu/CMakeFiles/dfu_no_serial_nrf52840_xxAA_s140_6.0.0.dir/__/__/mesh/dfu/src/nrf_mesh_dfu.c.obj
 .text.abort_timeout
                0x0002f8cc       0x80 examples/dfu/CMakeFiles/dfu_no_serial_nrf52840_xxAA_s140_6.0.0.dir/__/__/mesh/dfu/src/nrf_mesh_dfu.c.obj
 .text.timer_timeout
                0x0002f94c       0x7c examples/dfu/CMakeFiles/dfu_no_serial_nrf52840_xxAA_s140_6.0.0.dir/__/__/mesh/dfu/src/nrf_mesh_dfu.c.obj
 .text.nrf_mesh_dfu_rx
                0x0002f9c8       0xc8 examples/dfu/CMakeFiles/dfu_no_serial_nrf52840_xxAA_s140_6.0.0.dir/__/__/mesh/dfu/src/nrf_mesh_dfu.c.obj
                0x0002f9c8                nrf_mesh_dfu_rx
 .text.nrf_mesh_dfu_request
                0x0002fa90       0x98 examples/dfu/CMakeFiles/dfu_no_serial_nrf52840_xxAA_s140_6.0.0.dir/__/__/mesh/dfu/src/nrf_mesh_dfu.c.obj
                0x0002fa90                nrf_mesh_dfu_request
 .text.nrf_mesh_dfu_relay
                0x0002fb28       0x68 examples/dfu/CMakeFiles/dfu_no_serial_nrf52840_xxAA_s140_6.0.0.dir/__/__/mesh/dfu/src/nrf_mesh_dfu.c.obj
                0x0002fb28                nrf_mesh_dfu_relay
 .text.nrf_mesh_dfu_bank_flash
                0x0002fb90       0x28 examples/dfu/CMakeFiles/dfu_no_serial_nrf52840_xxAA_s140_6.0.0.dir/__/__/mesh/dfu/src/nrf_mesh_dfu.c.obj
                0x0002fb90                nrf_mesh_dfu_bank_flash
 .text.app_error_fault_handler
                0x0002fbb8      0x204 examples/dfu/CMakeFiles/dfu_no_serial_nrf52840_xxAA_s140_6.0.0.dir/__/common/src/app_error_weak.c.obj
                0x0002fbb8                app_error_fault_handler
 .text.mesh_assertion_handler
                0x0002fdbc       0x24 examples/dfu/CMakeFiles/dfu_no_serial_nrf52840_xxAA_s140_6.0.0.dir/__/common/src/assertion_handler_weak.c.obj
                0x0002fdbc                mesh_assertion_handler
 .text.nrf_mesh_configure_device_uuid_set
                0x0002fde0       0x10 examples/dfu/CMakeFiles/dfu_no_serial_nrf52840_xxAA_s140_6.0.0.dir/__/__/mesh/core/src/nrf_mesh_configure.c.obj
                0x0002fde0                nrf_mesh_configure_device_uuid_set
 .text.nrf_mesh_configure_device_uuid_reset
                0x0002fdf0       0x28 examples/dfu/CMakeFiles/dfu_no_serial_nrf52840_xxAA_s140_6.0.0.dir/__/__/mesh/core/src/nrf_mesh_configure.c.obj
                0x0002fdf0                nrf_mesh_configure_device_uuid_reset
 .text.nrf_mesh_configure_device_uuid_get
                0x0002fe18        0x8 examples/dfu/CMakeFiles/dfu_no_serial_nrf52840_xxAA_s140_6.0.0.dir/__/__/mesh/core/src/nrf_mesh_configure.c.obj
                0x0002fe18                nrf_mesh_configure_device_uuid_get
 .text.sd_ecb_block_encrypt
                0x0002fe20        0x4 examples/dfu/CMakeFiles/dfu_no_serial_nrf52840_xxAA_s140_6.0.0.dir/__/__/mesh/core/src/aes.c.obj
 .text.aes_encrypt
                0x0002fe24       0x32 examples/dfu/CMakeFiles/dfu_no_serial_nrf52840_xxAA_s140_6.0.0.dir/__/__/mesh/core/src/aes.c.obj
                0x0002fe24                aes_encrypt
 *fill*         0x0002fe56        0x2 
 .text.msg_cache_init
                0x0002fe58       0x24 examples/dfu/CMakeFiles/dfu_no_serial_nrf52840_xxAA_s140_6.0.0.dir/__/__/mesh/core/src/msg_cache.c.obj
                0x0002fe58                msg_cache_init
 .text.msg_cache_entry_exists
                0x0002fe7c       0x3c examples/dfu/CMakeFiles/dfu_no_serial_nrf52840_xxAA_s140_6.0.0.dir/__/__/mesh/core/src/msg_cache.c.obj
                0x0002fe7c                msg_cache_entry_exists
 .text.msg_cache_entry_add
                0x0002feb8       0x2c examples/dfu/CMakeFiles/dfu_no_serial_nrf52840_xxAA_s140_6.0.0.dir/__/__/mesh/core/src/msg_cache.c.obj
                0x0002feb8                msg_cache_entry_add
 .text.seqauth_sequence_number_get
                0x0002fee4       0x12 examples/dfu/CMakeFiles/dfu_no_serial_nrf52840_xxAA_s140_6.0.0.dir/__/__/mesh/core/src/transport.c.obj
 *fill*         0x0002fef6        0x2 
 .text.control_packet_callback_get
                0x0002fef8       0x44 examples/dfu/CMakeFiles/dfu_no_serial_nrf52840_xxAA_s140_6.0.0.dir/__/__/mesh/core/src/transport.c.obj
 .text.tx_complete
                0x0002ff3c       0x30 examples/dfu/CMakeFiles/dfu_no_serial_nrf52840_xxAA_s140_6.0.0.dir/__/__/mesh/core/src/transport.c.obj
 .text.block_ack_full
                0x0002ff6c       0x1a examples/dfu/CMakeFiles/dfu_no_serial_nrf52840_xxAA_s140_6.0.0.dir/__/__/mesh/core/src/transport.c.obj
 *fill*         0x0002ff86        0x2 
 .text.sar_rx_session_mark_as_handled
                0x0002ff88       0x48 examples/dfu/CMakeFiles/dfu_no_serial_nrf52840_xxAA_s140_6.0.0.dir/__/__/mesh/core/src/transport.c.obj
 .text.upper_trs_packet_encrypt
                0x0002ffd0       0x90 examples/dfu/CMakeFiles/dfu_no_serial_nrf52840_xxAA_s140_6.0.0.dir/__/__/mesh/core/src/transport.c.obj
 .text.sar_ctx_free
                0x00030060       0x3c examples/dfu/CMakeFiles/dfu_no_serial_nrf52840_xxAA_s140_6.0.0.dir/__/__/mesh/core/src/transport.c.obj
 .text.sar_ctx_tx_complete
                0x0003009c       0x2e examples/dfu/CMakeFiles/dfu_no_serial_nrf52840_xxAA_s140_6.0.0.dir/__/__/mesh/core/src/transport.c.obj
 *fill*         0x000300ca        0x2 
 .text.sar_ctx_alloc
                0x000300cc       0xa4 examples/dfu/CMakeFiles/dfu_no_serial_nrf52840_xxAA_s140_6.0.0.dir/__/__/mesh/core/src/transport.c.obj
 .text.test_transport_decrypt
                0x00030170       0x88 examples/dfu/CMakeFiles/dfu_no_serial_nrf52840_xxAA_s140_6.0.0.dir/__/__/mesh/core/src/transport.c.obj
 .text.upper_transport_access_packet_in
                0x000301f8      0x19c examples/dfu/CMakeFiles/dfu_no_serial_nrf52840_xxAA_s140_6.0.0.dir/__/__/mesh/core/src/transport.c.obj
 .text.trs_packet_header_build
                0x00030394       0xa6 examples/dfu/CMakeFiles/dfu_no_serial_nrf52840_xxAA_s140_6.0.0.dir/__/__/mesh/core/src/transport.c.obj
 *fill*         0x0003043a        0x2 
 .text.tx_retry_timer_reset
                0x0003043c       0x44 examples/dfu/CMakeFiles/dfu_no_serial_nrf52840_xxAA_s140_6.0.0.dir/__/__/mesh/core/src/transport.c.obj
 .text.sar_ctx_cancel
                0x00030480       0xa8 examples/dfu/CMakeFiles/dfu_no_serial_nrf52840_xxAA_s140_6.0.0.dir/__/__/mesh/core/src/transport.c.obj
 .text.abort_timeout
                0x00030528        0x8 examples/dfu/CMakeFiles/dfu_no_serial_nrf52840_xxAA_s140_6.0.0.dir/__/__/mesh/core/src/transport.c.obj
 .text.trs_sar_packet_out
                0x00030530       0xda examples/dfu/CMakeFiles/dfu_no_serial_nrf52840_xxAA_s140_6.0.0.dir/__/__/mesh/core/src/transport.c.obj
 .text.retry_timeout
                0x0003060a       0x46 examples/dfu/CMakeFiles/dfu_no_serial_nrf52840_xxAA_s140_6.0.0.dir/__/__/mesh/core/src/transport.c.obj
 .text.upper_transport_packet_in
                0x00030650      0x150 examples/dfu/CMakeFiles/dfu_no_serial_nrf52840_xxAA_s140_6.0.0.dir/__/__/mesh/core/src/transport.c.obj
 .text.upper_transport_tx
                0x000307a0      0x1e4 examples/dfu/CMakeFiles/dfu_no_serial_nrf52840_xxAA_s140_6.0.0.dir/__/__/mesh/core/src/transport.c.obj
 .text.transport_sar_mem_funcs_reset
                0x00030984       0x28 examples/dfu/CMakeFiles/dfu_no_serial_nrf52840_xxAA_s140_6.0.0.dir/__/__/mesh/core/src/transport.c.obj
                0x00030984                transport_sar_mem_funcs_reset
 .text.transport_init
                0x000309ac       0x8c examples/dfu/CMakeFiles/dfu_no_serial_nrf52840_xxAA_s140_6.0.0.dir/__/__/mesh/core/src/transport.c.obj
                0x000309ac                transport_init
 .text.transport_tx
                0x00030a38       0xb4 examples/dfu/CMakeFiles/dfu_no_serial_nrf52840_xxAA_s140_6.0.0.dir/__/__/mesh/core/src/transport.c.obj
                0x00030a38                transport_tx
 .text.transport_control_tx
                0x00030aec       0x8e examples/dfu/CMakeFiles/dfu_no_serial_nrf52840_xxAA_s140_6.0.0.dir/__/__/mesh/core/src/transport.c.obj
                0x00030aec                transport_control_tx
 *fill*         0x00030b7a        0x2 
 .text.sar_ack_send
                0x00030b7c       0xa0 examples/dfu/CMakeFiles/dfu_no_serial_nrf52840_xxAA_s140_6.0.0.dir/__/__/mesh/core/src/transport.c.obj
 .text.transport_sar_process
                0x00030c1c       0x74 examples/dfu/CMakeFiles/dfu_no_serial_nrf52840_xxAA_s140_6.0.0.dir/__/__/mesh/core/src/transport.c.obj
 .text.transport_packet_in
                0x00030c90      0x434 examples/dfu/CMakeFiles/dfu_no_serial_nrf52840_xxAA_s140_6.0.0.dir/__/__/mesh/core/src/transport.c.obj
                0x00030c90                transport_packet_in
 .text.ack_timeout
                0x000310c4       0x28 examples/dfu/CMakeFiles/dfu_no_serial_nrf52840_xxAA_s140_6.0.0.dir/__/__/mesh/core/src/transport.c.obj
 .text.transport_opt_set
                0x000310ec       0xd0 examples/dfu/CMakeFiles/dfu_no_serial_nrf52840_xxAA_s140_6.0.0.dir/__/__/mesh/core/src/transport.c.obj
                0x000310ec                transport_opt_set
 .text.transport_opt_get
                0x000311bc       0x68 examples/dfu/CMakeFiles/dfu_no_serial_nrf52840_xxAA_s140_6.0.0.dir/__/__/mesh/core/src/transport.c.obj
                0x000311bc                transport_opt_get
 .text.transport_control_packet_consumer_add
                0x00031224       0x5c examples/dfu/CMakeFiles/dfu_no_serial_nrf52840_xxAA_s140_6.0.0.dir/__/__/mesh/core/src/transport.c.obj
                0x00031224                transport_control_packet_consumer_add
 .text.event_handle
                0x00031280       0x24 examples/dfu/CMakeFiles/dfu_no_serial_nrf52840_xxAA_s140_6.0.0.dir/__/__/mesh/core/src/event.c.obj
                0x00031280                event_handle
 .text.event_handler_add
                0x000312a4       0x1c examples/dfu/CMakeFiles/dfu_no_serial_nrf52840_xxAA_s140_6.0.0.dir/__/__/mesh/core/src/event.c.obj
                0x000312a4                event_handler_add
 .text.event_handler_remove
                0x000312c0       0x1c examples/dfu/CMakeFiles/dfu_no_serial_nrf52840_xxAA_s140_6.0.0.dir/__/__/mesh/core/src/event.c.obj
                0x000312c0                event_handler_remove
 .text.m_index_increment
                0x000312dc       0x1e examples/dfu/CMakeFiles/dfu_no_serial_nrf52840_xxAA_s140_6.0.0.dir/__/__/mesh/core/src/packet_buffer.c.obj
 .text.packet_buffer_init
                0x000312fa       0xac examples/dfu/CMakeFiles/dfu_no_serial_nrf52840_xxAA_s140_6.0.0.dir/__/__/mesh/core/src/packet_buffer.c.obj
                0x000312fa                packet_buffer_init
 .text.packet_buffer_flush
                0x000313a6       0x60 examples/dfu/CMakeFiles/dfu_no_serial_nrf52840_xxAA_s140_6.0.0.dir/__/__/mesh/core/src/packet_buffer.c.obj
                0x000313a6                packet_buffer_flush
 .text.packet_buffer_reserve
                0x00031406       0x96 examples/dfu/CMakeFiles/dfu_no_serial_nrf52840_xxAA_s140_6.0.0.dir/__/__/mesh/core/src/packet_buffer.c.obj
                0x00031406                packet_buffer_reserve
 .text.packet_buffer_commit
                0x0003149c       0x58 examples/dfu/CMakeFiles/dfu_no_serial_nrf52840_xxAA_s140_6.0.0.dir/__/__/mesh/core/src/packet_buffer.c.obj
                0x0003149c                packet_buffer_commit
 .text.packet_buffer_pop
                0x000314f4       0x3c examples/dfu/CMakeFiles/dfu_no_serial_nrf52840_xxAA_s140_6.0.0.dir/__/__/mesh/core/src/packet_buffer.c.obj
                0x000314f4                packet_buffer_pop
 .text.packet_buffer_can_pop
                0x00031530       0x1c examples/dfu/CMakeFiles/dfu_no_serial_nrf52840_xxAA_s140_6.0.0.dir/__/__/mesh/core/src/packet_buffer.c.obj
                0x00031530                packet_buffer_can_pop
 .text.packet_buffer_packets_ready_to_pop
                0x0003154c       0x3a examples/dfu/CMakeFiles/dfu_no_serial_nrf52840_xxAA_s140_6.0.0.dir/__/__/mesh/core/src/packet_buffer.c.obj
                0x0003154c                packet_buffer_packets_ready_to_pop
 .text.packet_buffer_free
                0x00031586       0x6e examples/dfu/CMakeFiles/dfu_no_serial_nrf52840_xxAA_s140_6.0.0.dir/__/__/mesh/core/src/packet_buffer.c.obj
                0x00031586                packet_buffer_free
 .text.get_last_page
                0x000315f4       0x14 examples/dfu/CMakeFiles/dfu_no_serial_nrf52840_xxAA_s140_6.0.0.dir/__/__/mesh/core/src/flash_manager_defrag.c.obj
 .text.defrag_on_end
                0x00031608       0x1c examples/dfu/CMakeFiles/dfu_no_serial_nrf52840_xxAA_s140_6.0.0.dir/__/__/mesh/core/src/flash_manager_defrag.c.obj
 .text.execute_procedure_step
                0x00031624       0x7c examples/dfu/CMakeFiles/dfu_no_serial_nrf52840_xxAA_s140_6.0.0.dir/__/__/mesh/core/src/flash_manager_defrag.c.obj
 .text.get_next_entry
                0x000316a0       0x34 examples/dfu/CMakeFiles/dfu_no_serial_nrf52840_xxAA_s140_6.0.0.dir/__/__/mesh/core/src/flash_manager_defrag.c.obj
 .text.get_next_data_entry
                0x000316d4       0x26 examples/dfu/CMakeFiles/dfu_no_serial_nrf52840_xxAA_s140_6.0.0.dir/__/__/mesh/core/src/flash_manager_defrag.c.obj
 *fill*         0x000316fa        0x2 
 .text.on_flash_op_end
                0x000316fc       0x30 examples/dfu/CMakeFiles/dfu_no_serial_nrf52840_xxAA_s140_6.0.0.dir/__/__/mesh/core/src/flash_manager_defrag.c.obj
 .text.check_for_invalid_entries
                0x0003172c       0x38 examples/dfu/CMakeFiles/dfu_no_serial_nrf52840_xxAA_s140_6.0.0.dir/__/__/mesh/core/src/flash_manager_defrag.c.obj
 .text.erase_recovery_area
                0x00031764       0x34 examples/dfu/CMakeFiles/dfu_no_serial_nrf52840_xxAA_s140_6.0.0.dir/__/__/mesh/core/src/flash_manager_defrag.c.obj
 .text.flash.constprop.6
                0x00031798       0x24 examples/dfu/CMakeFiles/dfu_no_serial_nrf52840_xxAA_s140_6.0.0.dir/__/__/mesh/core/src/flash_manager_defrag.c.obj
 .text.seal_storage_page
                0x000317bc       0x50 examples/dfu/CMakeFiles/dfu_no_serial_nrf52840_xxAA_s140_6.0.0.dir/__/__/mesh/core/src/flash_manager_defrag.c.obj
 .text.invalidate_duplicate_entries
                0x0003180c       0x9c examples/dfu/CMakeFiles/dfu_no_serial_nrf52840_xxAA_s140_6.0.0.dir/__/__/mesh/core/src/flash_manager_defrag.c.obj
 .text.copy_metadata
                0x000318a8       0x3c examples/dfu/CMakeFiles/dfu_no_serial_nrf52840_xxAA_s140_6.0.0.dir/__/__/mesh/core/src/flash_manager_defrag.c.obj
 .text.write_defrag_start_pointer
                0x000318e4       0x20 examples/dfu/CMakeFiles/dfu_no_serial_nrf52840_xxAA_s140_6.0.0.dir/__/__/mesh/core/src/flash_manager_defrag.c.obj
 .text.write_back
                0x00031904       0x28 examples/dfu/CMakeFiles/dfu_no_serial_nrf52840_xxAA_s140_6.0.0.dir/__/__/mesh/core/src/flash_manager_defrag.c.obj
 .text.post_process
                0x0003192c       0x40 examples/dfu/CMakeFiles/dfu_no_serial_nrf52840_xxAA_s140_6.0.0.dir/__/__/mesh/core/src/flash_manager_defrag.c.obj
 .text.backup_entries
                0x0003196c       0xf8 examples/dfu/CMakeFiles/dfu_no_serial_nrf52840_xxAA_s140_6.0.0.dir/__/__/mesh/core/src/flash_manager_defrag.c.obj
 .text.erase_source
                0x00031a64       0x34 examples/dfu/CMakeFiles/dfu_no_serial_nrf52840_xxAA_s140_6.0.0.dir/__/__/mesh/core/src/flash_manager_defrag.c.obj
 .text.flash_manager_defrag_init
                0x00031a98       0x8c examples/dfu/CMakeFiles/dfu_no_serial_nrf52840_xxAA_s140_6.0.0.dir/__/__/mesh/core/src/flash_manager_defrag.c.obj
                0x00031a98                flash_manager_defrag_init
 .text.flash_manager_defrag_is_running
                0x00031b24       0x10 examples/dfu/CMakeFiles/dfu_no_serial_nrf52840_xxAA_s140_6.0.0.dir/__/__/mesh/core/src/flash_manager_defrag.c.obj
                0x00031b24                flash_manager_defrag_is_running
 .text.flash_manager_defrag
                0x00031b34       0x44 examples/dfu/CMakeFiles/dfu_no_serial_nrf52840_xxAA_s140_6.0.0.dir/__/__/mesh/core/src/flash_manager_defrag.c.obj
                0x00031b34                flash_manager_defrag
 .text.flash_manager_defrag_recovery_page_get
                0x00031b78        0xc examples/dfu/CMakeFiles/dfu_no_serial_nrf52840_xxAA_s140_6.0.0.dir/__/__/mesh/core/src/flash_manager_defrag.c.obj
                0x00031b78                flash_manager_defrag_recovery_page_get
 .text.fifo_init
                0x00031b84       0x34 examples/dfu/CMakeFiles/dfu_no_serial_nrf52840_xxAA_s140_6.0.0.dir/__/__/mesh/core/src/fifo.c.obj
                0x00031b84                fifo_init
 .text.fifo_push
                0x00031bb8       0x50 examples/dfu/CMakeFiles/dfu_no_serial_nrf52840_xxAA_s140_6.0.0.dir/__/__/mesh/core/src/fifo.c.obj
                0x00031bb8                fifo_push
 .text.fifo_pop
                0x00031c08       0x52 examples/dfu/CMakeFiles/dfu_no_serial_nrf52840_xxAA_s140_6.0.0.dir/__/__/mesh/core/src/fifo.c.obj
                0x00031c08                fifo_pop
 *fill*         0x00031c5a        0x2 
 .text.wait_for_ready
                0x00031c5c       0x10 examples/dfu/CMakeFiles/dfu_no_serial_nrf52840_xxAA_s140_6.0.0.dir/__/__/mesh/core/src/nrf_flash.c.obj
 .text.nrf_flash_erase
                0x00031c6c       0x50 examples/dfu/CMakeFiles/dfu_no_serial_nrf52840_xxAA_s140_6.0.0.dir/__/__/mesh/core/src/nrf_flash.c.obj
                0x00031c6c                nrf_flash_erase
 .text.nrf_flash_write
                0x00031cbc       0x50 examples/dfu/CMakeFiles/dfu_no_serial_nrf52840_xxAA_s140_6.0.0.dir/__/__/mesh/core/src/nrf_flash.c.obj
                0x00031cbc                nrf_flash_write
 .text.packet_mgr_init
                0x00031d0c       0x4c examples/dfu/CMakeFiles/dfu_no_serial_nrf52840_xxAA_s140_6.0.0.dir/__/__/mesh/core/src/packet_mgr.c.obj
                0x00031d0c                packet_mgr_init
 .text.flash_store_iv_index
                0x00031d58       0x38 examples/dfu/CMakeFiles/dfu_no_serial_nrf52840_xxAA_s140_6.0.0.dir/__/__/mesh/core/src/net_state.c.obj
 .text.flash_mem_available
                0x00031d90       0x14 examples/dfu/CMakeFiles/dfu_no_serial_nrf52840_xxAA_s140_6.0.0.dir/__/__/mesh/core/src/net_state.c.obj
 .text.seqnum_block_allocate
                0x00031da4       0x4c examples/dfu/CMakeFiles/dfu_no_serial_nrf52840_xxAA_s140_6.0.0.dir/__/__/mesh/core/src/net_state.c.obj
 .text.net_state_reset
                0x00031df0       0x3c examples/dfu/CMakeFiles/dfu_no_serial_nrf52840_xxAA_s140_6.0.0.dir/__/__/mesh/core/src/net_state.c.obj
                0x00031df0                net_state_reset
 .text.flash_write_complete
                0x00031e2c       0x64 examples/dfu/CMakeFiles/dfu_no_serial_nrf52840_xxAA_s140_6.0.0.dir/__/__/mesh/core/src/net_state.c.obj
 .text.net_state_recover_from_flash
                0x00031e90       0x8c examples/dfu/CMakeFiles/dfu_no_serial_nrf52840_xxAA_s140_6.0.0.dir/__/__/mesh/core/src/net_state.c.obj
                0x00031e90                net_state_recover_from_flash
 .text.net_state_flash_area_get
                0x00031f1c        0xc examples/dfu/CMakeFiles/dfu_no_serial_nrf52840_xxAA_s140_6.0.0.dir/__/__/mesh/core/src/net_state.c.obj
                0x00031f1c                net_state_flash_area_get
 .text.init_flash_storage
                0x00031f28       0x40 examples/dfu/CMakeFiles/dfu_no_serial_nrf52840_xxAA_s140_6.0.0.dir/__/__/mesh/core/src/net_state.c.obj
 .text.net_state_init
                0x00031f68       0x5c examples/dfu/CMakeFiles/dfu_no_serial_nrf52840_xxAA_s140_6.0.0.dir/__/__/mesh/core/src/net_state.c.obj
                0x00031f68                net_state_init
 .text.net_state_iv_update_start
                0x00031fc4       0x68 examples/dfu/CMakeFiles/dfu_no_serial_nrf52840_xxAA_s140_6.0.0.dir/__/__/mesh/core/src/net_state.c.obj
                0x00031fc4                net_state_iv_update_start
 .text.iv_update_trigger_if_pending
                0x0003202c       0x80 examples/dfu/CMakeFiles/dfu_no_serial_nrf52840_xxAA_s140_6.0.0.dir/__/__/mesh/core/src/net_state.c.obj
 .text.mesh_evt_handler
                0x000320ac       0xa0 examples/dfu/CMakeFiles/dfu_no_serial_nrf52840_xxAA_s140_6.0.0.dir/__/__/mesh/core/src/net_state.c.obj
 .text.iv_update_timer_handler
                0x0003214c       0x68 examples/dfu/CMakeFiles/dfu_no_serial_nrf52840_xxAA_s140_6.0.0.dir/__/__/mesh/core/src/net_state.c.obj
 .text.net_state_seqnum_alloc
                0x000321b4       0x68 examples/dfu/CMakeFiles/dfu_no_serial_nrf52840_xxAA_s140_6.0.0.dir/__/__/mesh/core/src/net_state.c.obj
                0x000321b4                net_state_seqnum_alloc
 .text.net_state_iv_index_lock
                0x0003221c       0x3c examples/dfu/CMakeFiles/dfu_no_serial_nrf52840_xxAA_s140_6.0.0.dir/__/__/mesh/core/src/net_state.c.obj
                0x0003221c                net_state_iv_index_lock
 .text.net_state_key_refresh_phase_changed
                0x00032258       0x20 examples/dfu/CMakeFiles/dfu_no_serial_nrf52840_xxAA_s140_6.0.0.dir/__/__/mesh/core/src/net_state.c.obj
                0x00032258                net_state_key_refresh_phase_changed
 .text.net_state_beacon_iv_index_get
                0x00032278        0xc examples/dfu/CMakeFiles/dfu_no_serial_nrf52840_xxAA_s140_6.0.0.dir/__/__/mesh/core/src/net_state.c.obj
                0x00032278                net_state_beacon_iv_index_get
 .text.net_state_tx_iv_index_get
                0x00032284       0x14 examples/dfu/CMakeFiles/dfu_no_serial_nrf52840_xxAA_s140_6.0.0.dir/__/__/mesh/core/src/net_state.c.obj
                0x00032284                net_state_tx_iv_index_get
 .text.net_state_rx_iv_index_get
                0x00032298       0x18 examples/dfu/CMakeFiles/dfu_no_serial_nrf52840_xxAA_s140_6.0.0.dir/__/__/mesh/core/src/net_state.c.obj
                0x00032298                net_state_rx_iv_index_get
 .text.net_state_iv_update_get
                0x000322b0        0xc examples/dfu/CMakeFiles/dfu_no_serial_nrf52840_xxAA_s140_6.0.0.dir/__/__/mesh/core/src/net_state.c.obj
                0x000322b0                net_state_iv_update_get
 .text.net_state_iv_index_set
                0x000322bc       0x30 examples/dfu/CMakeFiles/dfu_no_serial_nrf52840_xxAA_s140_6.0.0.dir/__/__/mesh/core/src/net_state.c.obj
                0x000322bc                net_state_iv_index_set
 .text.send_end_events
                0x000322ec       0x84 examples/dfu/CMakeFiles/dfu_no_serial_nrf52840_xxAA_s140_6.0.0.dir/__/__/mesh/core/src/mesh_flash.c.obj
 .text.flash_op_schedule
                0x00032370       0x88 examples/dfu/CMakeFiles/dfu_no_serial_nrf52840_xxAA_s140_6.0.0.dir/__/__/mesh/core/src/mesh_flash.c.obj
 .text.flash_op_start
                0x000323f8      0x13c examples/dfu/CMakeFiles/dfu_no_serial_nrf52840_xxAA_s140_6.0.0.dir/__/__/mesh/core/src/mesh_flash.c.obj
 .text.mesh_flash_init
                0x00032534       0x88 examples/dfu/CMakeFiles/dfu_no_serial_nrf52840_xxAA_s140_6.0.0.dir/__/__/mesh/core/src/mesh_flash.c.obj
                0x00032534                mesh_flash_init
 .text.mesh_flash_user_callback_set
                0x000325bc       0x20 examples/dfu/CMakeFiles/dfu_no_serial_nrf52840_xxAA_s140_6.0.0.dir/__/__/mesh/core/src/mesh_flash.c.obj
                0x000325bc                mesh_flash_user_callback_set
 .text.mesh_flash_op_push
                0x000325dc       0xe4 examples/dfu/CMakeFiles/dfu_no_serial_nrf52840_xxAA_s140_6.0.0.dir/__/__/mesh/core/src/mesh_flash.c.obj
                0x000325dc                mesh_flash_op_push
 .text.mesh_flash_in_progress
                0x000326c0       0x34 examples/dfu/CMakeFiles/dfu_no_serial_nrf52840_xxAA_s140_6.0.0.dir/__/__/mesh/core/src/mesh_flash.c.obj
                0x000326c0                mesh_flash_in_progress
 .text.mesh_flash_set_suspended
                0x000326f4       0x74 examples/dfu/CMakeFiles/dfu_no_serial_nrf52840_xxAA_s140_6.0.0.dir/__/__/mesh/core/src/mesh_flash.c.obj
                0x000326f4                mesh_flash_set_suspended
 .text.nrf_mesh_address_type_get
                0x00032768       0x10 examples/dfu/CMakeFiles/dfu_no_serial_nrf52840_xxAA_s140_6.0.0.dir/__/__/mesh/core/src/nrf_mesh_utils.c.obj
                0x00032768                nrf_mesh_address_type_get
 .text.sd_softdevice_is_enabled
                0x00032778        0x4 examples/dfu/CMakeFiles/dfu_no_serial_nrf52840_xxAA_s140_6.0.0.dir/__/__/mesh/core/src/nrf_mesh.c.obj
 .text.nrf_mesh_listen
                0x0003277c      0x138 examples/dfu/CMakeFiles/dfu_no_serial_nrf52840_xxAA_s140_6.0.0.dir/__/__/mesh/core/src/nrf_mesh.c.obj
 .text.flash_stable_cb
                0x000328b4       0x20 examples/dfu/CMakeFiles/dfu_no_serial_nrf52840_xxAA_s140_6.0.0.dir/__/__/mesh/core/src/nrf_mesh.c.obj
 .text.scanner_packet_process_cb
                0x000328d4       0x8c examples/dfu/CMakeFiles/dfu_no_serial_nrf52840_xxAA_s140_6.0.0.dir/__/__/mesh/core/src/nrf_mesh.c.obj
 .text.nrf_mesh_init
                0x00032960       0xd8 examples/dfu/CMakeFiles/dfu_no_serial_nrf52840_xxAA_s140_6.0.0.dir/__/__/mesh/core/src/nrf_mesh.c.obj
                0x00032960                nrf_mesh_init
 .text.nrf_mesh_enable
                0x00032a38       0x3c examples/dfu/CMakeFiles/dfu_no_serial_nrf52840_xxAA_s140_6.0.0.dir/__/__/mesh/core/src/nrf_mesh.c.obj
                0x00032a38                nrf_mesh_enable
 .text.nrf_mesh_packet_send
                0x00032a74       0x7c examples/dfu/CMakeFiles/dfu_no_serial_nrf52840_xxAA_s140_6.0.0.dir/__/__/mesh/core/src/nrf_mesh.c.obj
                0x00032a74                nrf_mesh_packet_send
 .text.nrf_mesh_evt_handler_add
                0x00032af0        0x4 examples/dfu/CMakeFiles/dfu_no_serial_nrf52840_xxAA_s140_6.0.0.dir/__/__/mesh/core/src/nrf_mesh.c.obj
                0x00032af0                nrf_mesh_evt_handler_add
 .text.nrf_mesh_on_sd_evt
                0x00032af4        0xa examples/dfu/CMakeFiles/dfu_no_serial_nrf52840_xxAA_s140_6.0.0.dir/__/__/mesh/core/src/nrf_mesh.c.obj
                0x00032af4                nrf_mesh_on_sd_evt
 .text.nrf_mesh_subnet_added
                0x00032afe        0x2 examples/dfu/CMakeFiles/dfu_no_serial_nrf52840_xxAA_s140_6.0.0.dir/__/__/mesh/core/src/nrf_mesh.c.obj
                0x00032afe                nrf_mesh_subnet_added
 .text.queue_init
                0x00032b00       0x14 examples/dfu/CMakeFiles/dfu_no_serial_nrf52840_xxAA_s140_6.0.0.dir/__/__/mesh/core/src/queue.c.obj
                0x00032b00                queue_init
 .text.queue_push
                0x00032b14       0x34 examples/dfu/CMakeFiles/dfu_no_serial_nrf52840_xxAA_s140_6.0.0.dir/__/__/mesh/core/src/queue.c.obj
                0x00032b14                queue_push
 .text.queue_pop
                0x00032b48       0x26 examples/dfu/CMakeFiles/dfu_no_serial_nrf52840_xxAA_s140_6.0.0.dir/__/__/mesh/core/src/queue.c.obj
                0x00032b48                queue_pop
 .text.queue_peek
                0x00032b6e       0x10 examples/dfu/CMakeFiles/dfu_no_serial_nrf52840_xxAA_s140_6.0.0.dir/__/__/mesh/core/src/queue.c.obj
                0x00032b6e                queue_peek
 .text.sd_power_reset_reason_clr
                0x00032b7e        0x4 examples/dfu/CMakeFiles/dfu_no_serial_nrf52840_xxAA_s140_6.0.0.dir/__/__/mesh/core/src/hal.c.obj
 *fill*         0x00032b82        0x2 
 .text.hal_device_reset
                0x00032b84       0x2c examples/dfu/CMakeFiles/dfu_no_serial_nrf52840_xxAA_s140_6.0.0.dir/__/__/mesh/core/src/hal.c.obj
                0x00032b84                hal_device_reset
 .text.hal_lfclk_ppm_get
                0x00032bb0       0x14 examples/dfu/CMakeFiles/dfu_no_serial_nrf52840_xxAA_s140_6.0.0.dir/__/__/mesh/core/src/hal.c.obj
                0x00032bb0                hal_lfclk_ppm_get
 .text.my_xor.constprop.1
                0x00032bc4       0x20 examples/dfu/CMakeFiles/dfu_no_serial_nrf52840_xxAA_s140_6.0.0.dir/__/__/mesh/core/src/aes_cmac.c.obj
 .text.utils_lshift.constprop.2
                0x00032be4       0x24 examples/dfu/CMakeFiles/dfu_no_serial_nrf52840_xxAA_s140_6.0.0.dir/__/__/mesh/core/src/aes_cmac.c.obj
 .text.aes_cmac_subkey_generate
                0x00032c08       0x6c examples/dfu/CMakeFiles/dfu_no_serial_nrf52840_xxAA_s140_6.0.0.dir/__/__/mesh/core/src/aes_cmac.c.obj
                0x00032c08                aes_cmac_subkey_generate
 .text.aes_cmac
                0x00032c74       0xbc examples/dfu/CMakeFiles/dfu_no_serial_nrf52840_xxAA_s140_6.0.0.dir/__/__/mesh/core/src/aes_cmac.c.obj
                0x00032c74                aes_cmac
 .text.add_to_add_list
                0x00032d30       0x30 examples/dfu/CMakeFiles/dfu_no_serial_nrf52840_xxAA_s140_6.0.0.dir/__/__/mesh/core/src/timer_scheduler.c.obj
 .text.process_dirty_events
                0x00032d60       0x5c examples/dfu/CMakeFiles/dfu_no_serial_nrf52840_xxAA_s140_6.0.0.dir/__/__/mesh/core/src/timer_scheduler.c.obj
 .text.timer_cb
                0x00032dbc        0xc examples/dfu/CMakeFiles/dfu_no_serial_nrf52840_xxAA_s140_6.0.0.dir/__/__/mesh/core/src/timer_scheduler.c.obj
 .text.add_evt.constprop.1
                0x00032dc8       0x58 examples/dfu/CMakeFiles/dfu_no_serial_nrf52840_xxAA_s140_6.0.0.dir/__/__/mesh/core/src/timer_scheduler.c.obj
 .text.process_add_list
                0x00032e20       0x3c examples/dfu/CMakeFiles/dfu_no_serial_nrf52840_xxAA_s140_6.0.0.dir/__/__/mesh/core/src/timer_scheduler.c.obj
 .text.flag_event_cb
                0x00032e5c       0xd8 examples/dfu/CMakeFiles/dfu_no_serial_nrf52840_xxAA_s140_6.0.0.dir/__/__/mesh/core/src/timer_scheduler.c.obj
 .text.timer_sch_init
                0x00032f34       0x24 examples/dfu/CMakeFiles/dfu_no_serial_nrf52840_xxAA_s140_6.0.0.dir/__/__/mesh/core/src/timer_scheduler.c.obj
                0x00032f34                timer_sch_init
 .text.timer_sch_schedule
                0x00032f58       0x3c examples/dfu/CMakeFiles/dfu_no_serial_nrf52840_xxAA_s140_6.0.0.dir/__/__/mesh/core/src/timer_scheduler.c.obj
                0x00032f58                timer_sch_schedule
 .text.timer_sch_abort
                0x00032f94       0x58 examples/dfu/CMakeFiles/dfu_no_serial_nrf52840_xxAA_s140_6.0.0.dir/__/__/mesh/core/src/timer_scheduler.c.obj
                0x00032f94                timer_sch_abort
 .text.timer_sch_reschedule
                0x00032fec       0x64 examples/dfu/CMakeFiles/dfu_no_serial_nrf52840_xxAA_s140_6.0.0.dir/__/__/mesh/core/src/timer_scheduler.c.obj
                0x00032fec                timer_sch_reschedule
 .text.timer_mut_unlock
                0x00033050       0x10 examples/dfu/CMakeFiles/dfu_no_serial_nrf52840_xxAA_s140_6.0.0.dir/__/__/mesh/core/src/timer.c.obj
 .text.timer_order_cb
                0x00033060       0x94 examples/dfu/CMakeFiles/dfu_no_serial_nrf52840_xxAA_s140_6.0.0.dir/__/__/mesh/core/src/timer.c.obj
                0x00033060                timer_order_cb
 .text.timer_now
                0x000330f4       0x48 examples/dfu/CMakeFiles/dfu_no_serial_nrf52840_xxAA_s140_6.0.0.dir/__/__/mesh/core/src/timer.c.obj
                0x000330f4                timer_now
 .text.timer_event_handler
                0x0003313c       0x84 examples/dfu/CMakeFiles/dfu_no_serial_nrf52840_xxAA_s140_6.0.0.dir/__/__/mesh/core/src/timer.c.obj
                0x0003313c                timer_event_handler
 .text.timer_on_ts_begin
                0x000331c0       0xf4 examples/dfu/CMakeFiles/dfu_no_serial_nrf52840_xxAA_s140_6.0.0.dir/__/__/mesh/core/src/timer.c.obj
                0x000331c0                timer_on_ts_begin
 .text.timer_on_ts_end
                0x000332b4       0x60 examples/dfu/CMakeFiles/dfu_no_serial_nrf52840_xxAA_s140_6.0.0.dir/__/__/mesh/core/src/timer.c.obj
                0x000332b4                timer_on_ts_end
 .text.timer_cb
                0x00033314       0x10 examples/dfu/CMakeFiles/dfu_no_serial_nrf52840_xxAA_s140_6.0.0.dir/__/__/mesh/core/src/ticker.c.obj
 .text.ticker_init
                0x00033324       0x3c examples/dfu/CMakeFiles/dfu_no_serial_nrf52840_xxAA_s140_6.0.0.dir/__/__/mesh/core/src/ticker.c.obj
                0x00033324                ticker_init
 .text.sd_rand_application_bytes_available_get
                0x00033360        0x4 examples/dfu/CMakeFiles/dfu_no_serial_nrf52840_xxAA_s140_6.0.0.dir/__/__/mesh/core/src/rand.c.obj
 .text.sd_rand_application_vector_get
                0x00033364        0x4 examples/dfu/CMakeFiles/dfu_no_serial_nrf52840_xxAA_s140_6.0.0.dir/__/__/mesh/core/src/rand.c.obj
 .text.rand_prng_get
                0x00033368       0x22 examples/dfu/CMakeFiles/dfu_no_serial_nrf52840_xxAA_s140_6.0.0.dir/__/__/mesh/core/src/rand.c.obj
                0x00033368                rand_prng_get
 .text.rand_hw_rng_get
                0x0003338a       0x44 examples/dfu/CMakeFiles/dfu_no_serial_nrf52840_xxAA_s140_6.0.0.dir/__/__/mesh/core/src/rand.c.obj
                0x0003338a                rand_hw_rng_get
 *fill*         0x000333ce        0x2 
 .text.rand_prng_seed
                0x000333d0       0x34 examples/dfu/CMakeFiles/dfu_no_serial_nrf52840_xxAA_s140_6.0.0.dir/__/__/mesh/core/src/rand.c.obj
                0x000333d0                rand_prng_seed
 .text.nrf_mesh_opt_set
                0x00033404       0x26 examples/dfu/CMakeFiles/dfu_no_serial_nrf52840_xxAA_s140_6.0.0.dir/__/__/mesh/core/src/nrf_mesh_opt.c.obj
                0x00033404                nrf_mesh_opt_set
 .text.nrf_mesh_opt_get
                0x0003342a       0x26 examples/dfu/CMakeFiles/dfu_no_serial_nrf52840_xxAA_s140_6.0.0.dir/__/__/mesh/core/src/nrf_mesh_opt.c.obj
                0x0003342a                nrf_mesh_opt_get
 .text.sd_radio_session_open
                0x00033450        0x4 examples/dfu/CMakeFiles/dfu_no_serial_nrf52840_xxAA_s140_6.0.0.dir/__/__/mesh/core/src/timeslot.c.obj
 .text.sd_radio_session_close
                0x00033454        0x4 examples/dfu/CMakeFiles/dfu_no_serial_nrf52840_xxAA_s140_6.0.0.dir/__/__/mesh/core/src/timeslot.c.obj
 .text.sd_radio_request
                0x00033458        0x4 examples/dfu/CMakeFiles/dfu_no_serial_nrf52840_xxAA_s140_6.0.0.dir/__/__/mesh/core/src/timeslot.c.obj
 .text.end_timer_handler
                0x0003345c       0x24 examples/dfu/CMakeFiles/dfu_no_serial_nrf52840_xxAA_s140_6.0.0.dir/__/__/mesh/core/src/timeslot.c.obj
 .text.get_end_time.constprop.10
                0x00033480       0x28 examples/dfu/CMakeFiles/dfu_no_serial_nrf52840_xxAA_s140_6.0.0.dir/__/__/mesh/core/src/timeslot.c.obj
 .text.handle_extend_end.constprop.3
                0x000334a8       0xb4 examples/dfu/CMakeFiles/dfu_no_serial_nrf52840_xxAA_s140_6.0.0.dir/__/__/mesh/core/src/timeslot.c.obj
 .text.radio_signal_callback
                0x0003355c      0x138 examples/dfu/CMakeFiles/dfu_no_serial_nrf52840_xxAA_s140_6.0.0.dir/__/__/mesh/core/src/timeslot.c.obj
 .text.timeslot_sd_event_handler
                0x00033694       0x38 examples/dfu/CMakeFiles/dfu_no_serial_nrf52840_xxAA_s140_6.0.0.dir/__/__/mesh/core/src/timeslot.c.obj
                0x00033694                timeslot_sd_event_handler
 .text.timeslot_init
                0x000336cc       0x48 examples/dfu/CMakeFiles/dfu_no_serial_nrf52840_xxAA_s140_6.0.0.dir/__/__/mesh/core/src/timeslot.c.obj
                0x000336cc                timeslot_init
 .text.timeslot_start
                0x00033714       0x20 examples/dfu/CMakeFiles/dfu_no_serial_nrf52840_xxAA_s140_6.0.0.dir/__/__/mesh/core/src/timeslot.c.obj
                0x00033714                timeslot_start
 .text.timeslot_end_is_pending
                0x00033734       0x24 examples/dfu/CMakeFiles/dfu_no_serial_nrf52840_xxAA_s140_6.0.0.dir/__/__/mesh/core/src/timeslot.c.obj
                0x00033734                timeslot_end_is_pending
 .text.timeslot_start_time_get
                0x00033758        0xc examples/dfu/CMakeFiles/dfu_no_serial_nrf52840_xxAA_s140_6.0.0.dir/__/__/mesh/core/src/timeslot.c.obj
                0x00033758                timeslot_start_time_get
 .text.timeslot_remaining_time_get
                0x00033764       0x20 examples/dfu/CMakeFiles/dfu_no_serial_nrf52840_xxAA_s140_6.0.0.dir/__/__/mesh/core/src/timeslot.c.obj
                0x00033764                timeslot_remaining_time_get
 .text.timeslot_is_in_cb
                0x00033784        0xc examples/dfu/CMakeFiles/dfu_no_serial_nrf52840_xxAA_s140_6.0.0.dir/__/__/mesh/core/src/timeslot.c.obj
                0x00033784                timeslot_is_in_cb
 .text.timeslot_trigger
                0x00033790       0x24 examples/dfu/CMakeFiles/dfu_no_serial_nrf52840_xxAA_s140_6.0.0.dir/__/__/mesh/core/src/timeslot.c.obj
                0x00033790                timeslot_trigger
 .text.timeslot_stop
                0x000337b4       0x10 examples/dfu/CMakeFiles/dfu_no_serial_nrf52840_xxAA_s140_6.0.0.dir/__/__/mesh/core/src/timeslot.c.obj
                0x000337b4                timeslot_stop
 .text.timeslot_state_lock
                0x000337c4       0x28 examples/dfu/CMakeFiles/dfu_no_serial_nrf52840_xxAA_s140_6.0.0.dir/__/__/mesh/core/src/timeslot.c.obj
                0x000337c4                timeslot_state_lock
 .text.trigger_event_handler
                0x000337ec       0x1c examples/dfu/CMakeFiles/dfu_no_serial_nrf52840_xxAA_s140_6.0.0.dir/__/__/mesh/core/src/bearer_event.c.obj
 .text.evt_push
                0x00033808       0x1c examples/dfu/CMakeFiles/dfu_no_serial_nrf52840_xxAA_s140_6.0.0.dir/__/__/mesh/core/src/bearer_event.c.obj
 .text.bearer_event_init
                0x00033824       0x48 examples/dfu/CMakeFiles/dfu_no_serial_nrf52840_xxAA_s140_6.0.0.dir/__/__/mesh/core/src/bearer_event.c.obj
                0x00033824                bearer_event_init
 .text.bearer_event_timer_post
                0x0003386c       0x24 examples/dfu/CMakeFiles/dfu_no_serial_nrf52840_xxAA_s140_6.0.0.dir/__/__/mesh/core/src/bearer_event.c.obj
                0x0003386c                bearer_event_timer_post
 .text.bearer_event_critical_section_begin
                0x00033890       0x44 examples/dfu/CMakeFiles/dfu_no_serial_nrf52840_xxAA_s140_6.0.0.dir/__/__/mesh/core/src/bearer_event.c.obj
                0x00033890                bearer_event_critical_section_begin
 .text.bearer_event_critical_section_end
                0x000338d4       0x40 examples/dfu/CMakeFiles/dfu_no_serial_nrf52840_xxAA_s140_6.0.0.dir/__/__/mesh/core/src/bearer_event.c.obj
                0x000338d4                bearer_event_critical_section_end
 .text.bearer_event_flag_add
                0x00033914       0x3c examples/dfu/CMakeFiles/dfu_no_serial_nrf52840_xxAA_s140_6.0.0.dir/__/__/mesh/core/src/bearer_event.c.obj
                0x00033914                bearer_event_flag_add
 .text.bearer_event_flag_set
                0x00033950       0x44 examples/dfu/CMakeFiles/dfu_no_serial_nrf52840_xxAA_s140_6.0.0.dir/__/__/mesh/core/src/bearer_event.c.obj
                0x00033950                bearer_event_flag_set
 .text.bearer_event_sequential_add
                0x00033994       0x2e examples/dfu/CMakeFiles/dfu_no_serial_nrf52840_xxAA_s140_6.0.0.dir/__/__/mesh/core/src/bearer_event.c.obj
                0x00033994                bearer_event_sequential_add
 *fill*         0x000339c2        0x2 
 .text.bearer_event_sequential_post
                0x000339c4       0x44 examples/dfu/CMakeFiles/dfu_no_serial_nrf52840_xxAA_s140_6.0.0.dir/__/__/mesh/core/src/bearer_event.c.obj
                0x000339c4                bearer_event_sequential_post
 .text.bearer_event_sequential_pending
                0x00033a08       0x10 examples/dfu/CMakeFiles/dfu_no_serial_nrf52840_xxAA_s140_6.0.0.dir/__/__/mesh/core/src/bearer_event.c.obj
                0x00033a08                bearer_event_sequential_pending
 .text.bearer_event_handler
                0x00033a18       0xe8 examples/dfu/CMakeFiles/dfu_no_serial_nrf52840_xxAA_s140_6.0.0.dir/__/__/mesh/core/src/bearer_event.c.obj
                0x00033a18                bearer_event_handler
 .text.QDEC_IRQHandler
                0x00033b00        0x4 examples/dfu/CMakeFiles/dfu_no_serial_nrf52840_xxAA_s140_6.0.0.dir/__/__/mesh/core/src/bearer_event.c.obj
                0x00033b00                QDEC_IRQHandler
 .text.enc_aes_encrypt
                0x00033b04        0x4 examples/dfu/CMakeFiles/dfu_no_serial_nrf52840_xxAA_s140_6.0.0.dir/__/__/mesh/core/src/enc.c.obj
                0x00033b04                enc_aes_encrypt
 .text.enc_aes_cmac
                0x00033b08        0x4 examples/dfu/CMakeFiles/dfu_no_serial_nrf52840_xxAA_s140_6.0.0.dir/__/__/mesh/core/src/enc.c.obj
                0x00033b08                enc_aes_cmac
 .text.enc_aes_ccm_encrypt
                0x00033b0c        0x4 examples/dfu/CMakeFiles/dfu_no_serial_nrf52840_xxAA_s140_6.0.0.dir/__/__/mesh/core/src/enc.c.obj
                0x00033b0c                enc_aes_ccm_encrypt
 .text.enc_aes_ccm_decrypt
                0x00033b10        0x4 examples/dfu/CMakeFiles/dfu_no_serial_nrf52840_xxAA_s140_6.0.0.dir/__/__/mesh/core/src/enc.c.obj
                0x00033b10                enc_aes_ccm_decrypt
 .text.enc_nonce_generate
                0x00033b14       0xbc examples/dfu/CMakeFiles/dfu_no_serial_nrf52840_xxAA_s140_6.0.0.dir/__/__/mesh/core/src/enc.c.obj
                0x00033b14                enc_nonce_generate
 .text.enc_s1   0x00033bd0       0x2c examples/dfu/CMakeFiles/dfu_no_serial_nrf52840_xxAA_s140_6.0.0.dir/__/__/mesh/core/src/enc.c.obj
                0x00033bd0                enc_s1
 .text.enc_k1   0x00033bfc       0x3c examples/dfu/CMakeFiles/dfu_no_serial_nrf52840_xxAA_s140_6.0.0.dir/__/__/mesh/core/src/enc.c.obj
                0x00033bfc                enc_k1
 .text.enc_k2   0x00033c38       0xc8 examples/dfu/CMakeFiles/dfu_no_serial_nrf52840_xxAA_s140_6.0.0.dir/__/__/mesh/core/src/enc.c.obj
                0x00033c38                enc_k2
 .text.enc_k3   0x00033d00       0x5c examples/dfu/CMakeFiles/dfu_no_serial_nrf52840_xxAA_s140_6.0.0.dir/__/__/mesh/core/src/enc.c.obj
                0x00033d00                enc_k3
 .text.enc_k4   0x00033d5c       0x54 examples/dfu/CMakeFiles/dfu_no_serial_nrf52840_xxAA_s140_6.0.0.dir/__/__/mesh/core/src/enc.c.obj
                0x00033d5c                enc_k4
 .text.allocate_packet
                0x00033db0       0x6a examples/dfu/CMakeFiles/dfu_no_serial_nrf52840_xxAA_s140_6.0.0.dir/__/__/mesh/core/src/network.c.obj
 *fill*         0x00033e1a        0x2 
 .text.network_init
                0x00033e1c       0x2c examples/dfu/CMakeFiles/dfu_no_serial_nrf52840_xxAA_s140_6.0.0.dir/__/__/mesh/core/src/network.c.obj
                0x00033e1c                network_init
 .text.network_opt_set
                0x00033e48       0x70 examples/dfu/CMakeFiles/dfu_no_serial_nrf52840_xxAA_s140_6.0.0.dir/__/__/mesh/core/src/network.c.obj
                0x00033e48                network_opt_set
 .text.network_opt_get
                0x00033eb8       0x4c examples/dfu/CMakeFiles/dfu_no_serial_nrf52840_xxAA_s140_6.0.0.dir/__/__/mesh/core/src/network.c.obj
                0x00033eb8                network_opt_get
 .text.network_packet_alloc
                0x00033f04       0x30 examples/dfu/CMakeFiles/dfu_no_serial_nrf52840_xxAA_s140_6.0.0.dir/__/__/mesh/core/src/network.c.obj
                0x00033f04                network_packet_alloc
 .text.network_packet_send
                0x00033f34       0x46 examples/dfu/CMakeFiles/dfu_no_serial_nrf52840_xxAA_s140_6.0.0.dir/__/__/mesh/core/src/network.c.obj
                0x00033f34                network_packet_send
 *fill*         0x00033f7a        0x2 
 .text.network_packet_in
                0x00033f7c      0x168 examples/dfu/CMakeFiles/dfu_no_serial_nrf52840_xxAA_s140_6.0.0.dir/__/__/mesh/core/src/network.c.obj
                0x00033f7c                network_packet_in
 .text.nonce_type_get
                0x000340e4       0x16 examples/dfu/CMakeFiles/dfu_no_serial_nrf52840_xxAA_s140_6.0.0.dir/__/__/mesh/core/src/net_packet.c.obj
 .text.header_transfuscate
                0x000340fa       0x54 examples/dfu/CMakeFiles/dfu_no_serial_nrf52840_xxAA_s140_6.0.0.dir/__/__/mesh/core/src/net_packet.c.obj
 *fill*         0x0003414e        0x2 
 .text.net_packet_decrypt
                0x00034150      0x224 examples/dfu/CMakeFiles/dfu_no_serial_nrf52840_xxAA_s140_6.0.0.dir/__/__/mesh/core/src/net_packet.c.obj
                0x00034150                net_packet_decrypt
 .text.net_packet_encrypt
                0x00034374       0x7e examples/dfu/CMakeFiles/dfu_no_serial_nrf52840_xxAA_s140_6.0.0.dir/__/__/mesh/core/src/net_packet.c.obj
                0x00034374                net_packet_encrypt
 .text.net_packet_header_set
                0x000343f2       0xaa examples/dfu/CMakeFiles/dfu_no_serial_nrf52840_xxAA_s140_6.0.0.dir/__/__/mesh/core/src/net_packet.c.obj
                0x000343f2                net_packet_header_set
 .text.net_packet_payload_len_get
                0x0003449c       0x10 examples/dfu/CMakeFiles/dfu_no_serial_nrf52840_xxAA_s140_6.0.0.dir/__/__/mesh/core/src/net_packet.c.obj
                0x0003449c                net_packet_payload_len_get
 .text.net_packet_from_payload
                0x000344ac        0x4 examples/dfu/CMakeFiles/dfu_no_serial_nrf52840_xxAA_s140_6.0.0.dir/__/__/mesh/core/src/net_packet.c.obj
                0x000344ac                net_packet_from_payload
 .text.net_packet_obfuscation_start_get
                0x000344b0        0x4 examples/dfu/CMakeFiles/dfu_no_serial_nrf52840_xxAA_s140_6.0.0.dir/__/__/mesh/core/src/net_packet.c.obj
                0x000344b0                net_packet_obfuscation_start_get
 .text.stage_get_available
                0x000344b4       0x24 examples/dfu/CMakeFiles/dfu_no_serial_nrf52840_xxAA_s140_6.0.0.dir/__/__/mesh/core/src/msqueue.c.obj
 .text.msq_get  0x000344d8       0x38 examples/dfu/CMakeFiles/dfu_no_serial_nrf52840_xxAA_s140_6.0.0.dir/__/__/mesh/core/src/msqueue.c.obj
                0x000344d8                msq_get
 .text.msq_move
                0x00034510       0x2e examples/dfu/CMakeFiles/dfu_no_serial_nrf52840_xxAA_s140_6.0.0.dir/__/__/mesh/core/src/msqueue.c.obj
                0x00034510                msq_move
 .text.msq_reset
                0x0003453e       0x20 examples/dfu/CMakeFiles/dfu_no_serial_nrf52840_xxAA_s140_6.0.0.dir/__/__/mesh/core/src/msqueue.c.obj
                0x0003453e                msq_reset
 .text.msq_init
                0x0003455e       0x4a examples/dfu/CMakeFiles/dfu_no_serial_nrf52840_xxAA_s140_6.0.0.dir/__/__/mesh/core/src/msqueue.c.obj
                0x0003455e                msq_init
 .text.msq_available
                0x000345a8       0x26 examples/dfu/CMakeFiles/dfu_no_serial_nrf52840_xxAA_s140_6.0.0.dir/__/__/mesh/core/src/msqueue.c.obj
                0x000345a8                msq_available
 .text.nrf_mesh_keygen_aid
                0x000345ce       0x12 examples/dfu/CMakeFiles/dfu_no_serial_nrf52840_xxAA_s140_6.0.0.dir/__/__/mesh/core/src/nrf_mesh_keygen.c.obj
                0x000345ce                nrf_mesh_keygen_aid
 .text.nrf_mesh_keygen_network_secmat
                0x000345e0       0x20 examples/dfu/CMakeFiles/dfu_no_serial_nrf52840_xxAA_s140_6.0.0.dir/__/__/mesh/core/src/nrf_mesh_keygen.c.obj
                0x000345e0                nrf_mesh_keygen_network_secmat
 .text.nrf_mesh_keygen_beacon_secmat
                0x00034600       0x50 examples/dfu/CMakeFiles/dfu_no_serial_nrf52840_xxAA_s140_6.0.0.dir/__/__/mesh/core/src/nrf_mesh_keygen.c.obj
                0x00034600                nrf_mesh_keygen_beacon_secmat
 .text.nrf_mesh_keygen_virtual_address
                0x00034650       0x50 examples/dfu/CMakeFiles/dfu_no_serial_nrf52840_xxAA_s140_6.0.0.dir/__/__/mesh/core/src/nrf_mesh_keygen.c.obj
                0x00034650                nrf_mesh_keygen_virtual_address
 .text.list_insert
                0x000346a0       0x1c examples/dfu/CMakeFiles/dfu_no_serial_nrf52840_xxAA_s140_6.0.0.dir/__/__/mesh/core/src/list.c.obj
 .text.list_add
                0x000346bc       0x42 examples/dfu/CMakeFiles/dfu_no_serial_nrf52840_xxAA_s140_6.0.0.dir/__/__/mesh/core/src/list.c.obj
                0x000346bc                list_add
 .text.list_remove
                0x000346fe       0x3a examples/dfu/CMakeFiles/dfu_no_serial_nrf52840_xxAA_s140_6.0.0.dir/__/__/mesh/core/src/list.c.obj
                0x000346fe                list_remove
 .text.list_compare_add
                0x00034738       0x56 examples/dfu/CMakeFiles/dfu_no_serial_nrf52840_xxAA_s140_6.0.0.dir/__/__/mesh/core/src/list.c.obj
                0x00034738                list_compare_add
 *fill*         0x0003478e        0x2 
 .text.log_callback_rtt
                0x00034790       0x2c examples/dfu/CMakeFiles/dfu_no_serial_nrf52840_xxAA_s140_6.0.0.dir/__/__/mesh/core/src/log.c.obj
                0x00034790                log_callback_rtt
 .text.log_init
                0x000347bc       0x1c examples/dfu/CMakeFiles/dfu_no_serial_nrf52840_xxAA_s140_6.0.0.dir/__/__/mesh/core/src/log.c.obj
                0x000347bc                log_init
 .text.log_vprintf
                0x000347d8       0x18 examples/dfu/CMakeFiles/dfu_no_serial_nrf52840_xxAA_s140_6.0.0.dir/__/__/mesh/core/src/log.c.obj
                0x000347d8                log_vprintf
 .text.log_printf
                0x000347f0       0x18 examples/dfu/CMakeFiles/dfu_no_serial_nrf52840_xxAA_s140_6.0.0.dir/__/__/mesh/core/src/log.c.obj
                0x000347f0                log_printf
 .text.get_area_end
                0x00034808        0xc examples/dfu/CMakeFiles/dfu_no_serial_nrf52840_xxAA_s140_6.0.0.dir/__/__/mesh/core/src/flash_manager.c.obj
 .text.handle_matches_filter
                0x00034814       0x26 examples/dfu/CMakeFiles/dfu_no_serial_nrf52840_xxAA_s140_6.0.0.dir/__/__/mesh/core/src/flash_manager.c.obj
 .text.flash_area_is_blank
                0x0003483a       0x34 examples/dfu/CMakeFiles/dfu_no_serial_nrf52840_xxAA_s140_6.0.0.dir/__/__/mesh/core/src/flash_manager.c.obj
 *fill*         0x0003486e        0x2 
 .text.get_packet_buffer
                0x00034870       0x20 examples/dfu/CMakeFiles/dfu_no_serial_nrf52840_xxAA_s140_6.0.0.dir/__/__/mesh/core/src/flash_manager.c.obj
 .text.flash    0x00034890       0x1c examples/dfu/CMakeFiles/dfu_no_serial_nrf52840_xxAA_s140_6.0.0.dir/__/__/mesh/core/src/flash_manager.c.obj
 .text.free_packet_buffer
                0x000348ac       0x3c examples/dfu/CMakeFiles/dfu_no_serial_nrf52840_xxAA_s140_6.0.0.dir/__/__/mesh/core/src/flash_manager.c.obj
 .text.reserve_action_buffer
                0x000348e8       0x24 examples/dfu/CMakeFiles/dfu_no_serial_nrf52840_xxAA_s140_6.0.0.dir/__/__/mesh/core/src/flash_manager.c.obj
 .text.commit_action_buffer
                0x0003490c       0x18 examples/dfu/CMakeFiles/dfu_no_serial_nrf52840_xxAA_s140_6.0.0.dir/__/__/mesh/core/src/flash_manager.c.obj
 .text.schedule_processing
                0x00034924        0xc examples/dfu/CMakeFiles/dfu_no_serial_nrf52840_xxAA_s140_6.0.0.dir/__/__/mesh/core/src/flash_manager.c.obj
 .text.get_next_entry
                0x00034930       0x34 examples/dfu/CMakeFiles/dfu_no_serial_nrf52840_xxAA_s140_6.0.0.dir/__/__/mesh/core/src/flash_manager.c.obj
 .text.get_last_entry.isra.1
                0x00034964       0x30 examples/dfu/CMakeFiles/dfu_no_serial_nrf52840_xxAA_s140_6.0.0.dir/__/__/mesh/core/src/flash_manager.c.obj
 .text.process_action_queue
                0x00034994      0x3b0 examples/dfu/CMakeFiles/dfu_no_serial_nrf52840_xxAA_s140_6.0.0.dir/__/__/mesh/core/src/flash_manager.c.obj
 .text.flash_op_ended_callback
                0x00034d44       0x24 examples/dfu/CMakeFiles/dfu_no_serial_nrf52840_xxAA_s140_6.0.0.dir/__/__/mesh/core/src/flash_manager.c.obj
 .text.flash_manager_init
                0x00034d68       0x68 examples/dfu/CMakeFiles/dfu_no_serial_nrf52840_xxAA_s140_6.0.0.dir/__/__/mesh/core/src/flash_manager.c.obj
                0x00034d68                flash_manager_init
 .text.flash_manager_remove
                0x00034dd0       0x24 examples/dfu/CMakeFiles/dfu_no_serial_nrf52840_xxAA_s140_6.0.0.dir/__/__/mesh/core/src/flash_manager.c.obj
                0x00034dd0                flash_manager_remove
 .text.flash_manager_entry_get
                0x00034df4       0x3c examples/dfu/CMakeFiles/dfu_no_serial_nrf52840_xxAA_s140_6.0.0.dir/__/__/mesh/core/src/flash_manager.c.obj
                0x00034df4                flash_manager_entry_get
 .text.flash_manager_entry_next_get
                0x00034e30       0x60 examples/dfu/CMakeFiles/dfu_no_serial_nrf52840_xxAA_s140_6.0.0.dir/__/__/mesh/core/src/flash_manager.c.obj
                0x00034e30                flash_manager_entry_next_get
 .text.flash_manager_entry_alloc
                0x00034e90       0x5c examples/dfu/CMakeFiles/dfu_no_serial_nrf52840_xxAA_s140_6.0.0.dir/__/__/mesh/core/src/flash_manager.c.obj
                0x00034e90                flash_manager_entry_alloc
 .text.flash_manager_entry_commit
                0x00034eec       0x2c examples/dfu/CMakeFiles/dfu_no_serial_nrf52840_xxAA_s140_6.0.0.dir/__/__/mesh/core/src/flash_manager.c.obj
                0x00034eec                flash_manager_entry_commit
 .text.flash_manager_entry_invalidate
                0x00034f18       0x4e examples/dfu/CMakeFiles/dfu_no_serial_nrf52840_xxAA_s140_6.0.0.dir/__/__/mesh/core/src/flash_manager.c.obj
                0x00034f18                flash_manager_entry_invalidate
 .text.flash_manager_add
                0x00034f66      0x1f6 examples/dfu/CMakeFiles/dfu_no_serial_nrf52840_xxAA_s140_6.0.0.dir/__/__/mesh/core/src/flash_manager.c.obj
                0x00034f66                flash_manager_add
 .text.flash_manager_mem_listener_register
                0x0003515c       0x30 examples/dfu/CMakeFiles/dfu_no_serial_nrf52840_xxAA_s140_6.0.0.dir/__/__/mesh/core/src/flash_manager.c.obj
                0x0003515c                flash_manager_mem_listener_register
 .text.flash_manager_is_stable
                0x0003518c       0x24 examples/dfu/CMakeFiles/dfu_no_serial_nrf52840_xxAA_s140_6.0.0.dir/__/__/mesh/core/src/flash_manager.c.obj
                0x0003518c                flash_manager_is_stable
 .text.flash_manager_on_defrag_end
                0x000351b0       0x4c examples/dfu/CMakeFiles/dfu_no_serial_nrf52840_xxAA_s140_6.0.0.dir/__/__/mesh/core/src/flash_manager.c.obj
                0x000351b0                flash_manager_on_defrag_end
 .text.flash_manager_recovery_page_get
                0x000351fc        0x4 examples/dfu/CMakeFiles/dfu_no_serial_nrf52840_xxAA_s140_6.0.0.dir/__/__/mesh/core/src/flash_manager.c.obj
                0x000351fc                flash_manager_recovery_page_get
 .text.flash_manager_action_queue_empty_cb_set
                0x00035200       0x1c examples/dfu/CMakeFiles/dfu_no_serial_nrf52840_xxAA_s140_6.0.0.dir/__/__/mesh/core/src/flash_manager.c.obj
                0x00035200                flash_manager_action_queue_empty_cb_set
 .text.utils_xor
                0x0003521c       0x14 examples/dfu/CMakeFiles/dfu_no_serial_nrf52840_xxAA_s140_6.0.0.dir/__/__/mesh/core/src/ccm_soft.c.obj
 .text.ccm_soft_authenticate_blocks
                0x00035230       0x68 examples/dfu/CMakeFiles/dfu_no_serial_nrf52840_xxAA_s140_6.0.0.dir/__/__/mesh/core/src/ccm_soft.c.obj
 .text.utils_reverse_memcpy.constprop.0
                0x00035298        0xa examples/dfu/CMakeFiles/dfu_no_serial_nrf52840_xxAA_s140_6.0.0.dir/__/__/mesh/core/src/ccm_soft.c.obj
 .text.ccm_soft_authenticate
                0x000352a2       0xa0 examples/dfu/CMakeFiles/dfu_no_serial_nrf52840_xxAA_s140_6.0.0.dir/__/__/mesh/core/src/ccm_soft.c.obj
 .text.ccm_soft_crypt
                0x00035342       0x6c examples/dfu/CMakeFiles/dfu_no_serial_nrf52840_xxAA_s140_6.0.0.dir/__/__/mesh/core/src/ccm_soft.c.obj
 .text.ccm_soft_encrypt
                0x000353ae       0x70 examples/dfu/CMakeFiles/dfu_no_serial_nrf52840_xxAA_s140_6.0.0.dir/__/__/mesh/core/src/ccm_soft.c.obj
                0x000353ae                ccm_soft_encrypt
 .text.ccm_soft_decrypt
                0x0003541e       0xfe examples/dfu/CMakeFiles/dfu_no_serial_nrf52840_xxAA_s140_6.0.0.dir/__/__/mesh/core/src/ccm_soft.c.obj
                0x0003541e                ccm_soft_decrypt
 .text.replay_cache_add
                0x0003551c       0x50 examples/dfu/CMakeFiles/dfu_no_serial_nrf52840_xxAA_s140_6.0.0.dir/__/__/mesh/core/src/replay_cache.c.obj
                0x0003551c                replay_cache_add
 .text.replay_cache_has_elem
                0x0003556c       0x38 examples/dfu/CMakeFiles/dfu_no_serial_nrf52840_xxAA_s140_6.0.0.dir/__/__/mesh/core/src/replay_cache.c.obj
                0x0003556c                replay_cache_has_elem
 .text.replay_cache_clear
                0x000355a4       0x20 examples/dfu/CMakeFiles/dfu_no_serial_nrf52840_xxAA_s140_6.0.0.dir/__/__/mesh/core/src/replay_cache.c.obj
                0x000355a4                replay_cache_clear
 .text.replay_cache_init
                0x000355c4        0x4 examples/dfu/CMakeFiles/dfu_no_serial_nrf52840_xxAA_s140_6.0.0.dir/__/__/mesh/core/src/replay_cache.c.obj
                0x000355c4                replay_cache_init
 .text.beacon_create
                0x000355c8       0x46 examples/dfu/CMakeFiles/dfu_no_serial_nrf52840_xxAA_s140_6.0.0.dir/__/__/mesh/core/src/beacon.c.obj
                0x000355c8                beacon_create
 *fill*         0x0003560e        0x2 
 .text.beacon_packet_in
                0x00035610      0x154 examples/dfu/CMakeFiles/dfu_no_serial_nrf52840_xxAA_s140_6.0.0.dir/__/__/mesh/core/src/beacon.c.obj
                0x00035610                beacon_packet_in
 .text.entry_get
                0x00035764       0x78 examples/dfu/CMakeFiles/dfu_no_serial_nrf52840_xxAA_s140_6.0.0.dir/__/__/mesh/core/src/flash_manager_internal.c.obj
                0x00035764                entry_get
 .text.core_tx_complete_cb_set
                0x000357dc        0xc examples/dfu/CMakeFiles/dfu_no_serial_nrf52840_xxAA_s140_6.0.0.dir/__/__/mesh/core/src/core_tx.c.obj
                0x000357dc                core_tx_complete_cb_set
 .text.core_tx_packet_alloc
                0x000357e8       0x98 examples/dfu/CMakeFiles/dfu_no_serial_nrf52840_xxAA_s140_6.0.0.dir/__/__/mesh/core/src/core_tx.c.obj
                0x000357e8                core_tx_packet_alloc
 .text.core_tx_packet_send
                0x00035880       0x4c examples/dfu/CMakeFiles/dfu_no_serial_nrf52840_xxAA_s140_6.0.0.dir/__/__/mesh/core/src/core_tx.c.obj
                0x00035880                core_tx_packet_send
 .text.core_tx_packet_discard
                0x000358cc       0x40 examples/dfu/CMakeFiles/dfu_no_serial_nrf52840_xxAA_s140_6.0.0.dir/__/__/mesh/core/src/core_tx.c.obj
                0x000358cc                core_tx_packet_discard
 .text.core_tx_complete
                0x0003590c       0x34 examples/dfu/CMakeFiles/dfu_no_serial_nrf52840_xxAA_s140_6.0.0.dir/__/__/mesh/core/src/core_tx.c.obj
                0x0003590c                core_tx_complete
 .text.core_tx_bearer_add
                0x00035940       0x70 examples/dfu/CMakeFiles/dfu_no_serial_nrf52840_xxAA_s140_6.0.0.dir/__/__/mesh/core/src/core_tx.c.obj
                0x00035940                core_tx_bearer_add
 .text.heartbeat_subscription_timer_cb
                0x000359b0       0x1c examples/dfu/CMakeFiles/dfu_no_serial_nrf52840_xxAA_s140_6.0.0.dir/__/__/mesh/core/src/heartbeat.c.obj
 .text.heartbeat_opcode_handle
                0x000359cc       0x88 examples/dfu/CMakeFiles/dfu_no_serial_nrf52840_xxAA_s140_6.0.0.dir/__/__/mesh/core/src/heartbeat.c.obj
 .text.heartbeat_send
                0x00035a54       0xb0 examples/dfu/CMakeFiles/dfu_no_serial_nrf52840_xxAA_s140_6.0.0.dir/__/__/mesh/core/src/heartbeat.c.obj
 .text.heartbeat_publication_timer_cb
                0x00035b04       0xa8 examples/dfu/CMakeFiles/dfu_no_serial_nrf52840_xxAA_s140_6.0.0.dir/__/__/mesh/core/src/heartbeat.c.obj
 .text.heartbeat_core_evt_cb
                0x00035bac       0x7c examples/dfu/CMakeFiles/dfu_no_serial_nrf52840_xxAA_s140_6.0.0.dir/__/__/mesh/core/src/heartbeat.c.obj
 .text.heartbeat_on_feature_change_trigger
                0x00035c28       0x44 examples/dfu/CMakeFiles/dfu_no_serial_nrf52840_xxAA_s140_6.0.0.dir/__/__/mesh/core/src/heartbeat.c.obj
                0x00035c28                heartbeat_on_feature_change_trigger
 .text.heartbeat_init
                0x00035c6c       0x78 examples/dfu/CMakeFiles/dfu_no_serial_nrf52840_xxAA_s140_6.0.0.dir/__/__/mesh/core/src/heartbeat.c.obj
                0x00035c6c                heartbeat_init
 .text.heartbeat_subscription_set
                0x00035ce4       0xa4 examples/dfu/CMakeFiles/dfu_no_serial_nrf52840_xxAA_s140_6.0.0.dir/__/__/mesh/core/src/heartbeat.c.obj
                0x00035ce4                heartbeat_subscription_set
 .text.heartbeat_subscription_get
                0x00035d88        0x8 examples/dfu/CMakeFiles/dfu_no_serial_nrf52840_xxAA_s140_6.0.0.dir/__/__/mesh/core/src/heartbeat.c.obj
                0x00035d88                heartbeat_subscription_get
 .text.heartbeat_config_server_cb_set
                0x00035d90       0x28 examples/dfu/CMakeFiles/dfu_no_serial_nrf52840_xxAA_s140_6.0.0.dir/__/__/mesh/core/src/heartbeat.c.obj
                0x00035d90                heartbeat_config_server_cb_set
 .text.heartbeat_publication_state_updated
                0x00035db8       0x74 examples/dfu/CMakeFiles/dfu_no_serial_nrf52840_xxAA_s140_6.0.0.dir/__/__/mesh/core/src/heartbeat.c.obj
                0x00035db8                heartbeat_publication_state_updated
 .text.make_network_beacon_packet
                0x00035e2c       0x50 examples/dfu/CMakeFiles/dfu_no_serial_nrf52840_xxAA_s140_6.0.0.dir/__/__/mesh/core/src/net_beacon.c.obj
 .text.beacon_tx
                0x00035e7c      0x12c examples/dfu/CMakeFiles/dfu_no_serial_nrf52840_xxAA_s140_6.0.0.dir/__/__/mesh/core/src/net_beacon.c.obj
 .text.tx_complete_cb
                0x00035fa8        0xe examples/dfu/CMakeFiles/dfu_no_serial_nrf52840_xxAA_s140_6.0.0.dir/__/__/mesh/core/src/net_beacon.c.obj
 .text.beacon_tx_timeout
                0x00035fb6        0x4 examples/dfu/CMakeFiles/dfu_no_serial_nrf52840_xxAA_s140_6.0.0.dir/__/__/mesh/core/src/net_beacon.c.obj
 .text.is_valid_beacon_pkt.part.0
                0x00035fba       0x30 examples/dfu/CMakeFiles/dfu_no_serial_nrf52840_xxAA_s140_6.0.0.dir/__/__/mesh/core/src/net_beacon.c.obj
 *fill*         0x00035fea        0x2 
 .text.net_beacon_init
                0x00035fec       0x94 examples/dfu/CMakeFiles/dfu_no_serial_nrf52840_xxAA_s140_6.0.0.dir/__/__/mesh/core/src/net_beacon.c.obj
                0x00035fec                net_beacon_init
 .text.net_beacon_state_set
                0x00036080       0x34 examples/dfu/CMakeFiles/dfu_no_serial_nrf52840_xxAA_s140_6.0.0.dir/__/__/mesh/core/src/net_beacon.c.obj
                0x00036080                net_beacon_state_set
 .text.net_beacon_state_get
                0x000360b4        0xc examples/dfu/CMakeFiles/dfu_no_serial_nrf52840_xxAA_s140_6.0.0.dir/__/__/mesh/core/src/net_beacon.c.obj
                0x000360b4                net_beacon_state_get
 .text.net_beacon_packet_in
                0x000360c0       0xf2 examples/dfu/CMakeFiles/dfu_no_serial_nrf52840_xxAA_s140_6.0.0.dir/__/__/mesh/core/src/net_beacon.c.obj
                0x000360c0                net_beacon_packet_in
 *fill*         0x000361b2        0x2 
 .text.packet_discard
                0x000361b4       0x40 examples/dfu/CMakeFiles/dfu_no_serial_nrf52840_xxAA_s140_6.0.0.dir/__/__/mesh/core/src/core_tx_adv.c.obj
 .text.packet_send
                0x000361f4       0x58 examples/dfu/CMakeFiles/dfu_no_serial_nrf52840_xxAA_s140_6.0.0.dir/__/__/mesh/core/src/core_tx_adv.c.obj
 .text.packet_alloc
                0x0003624c       0x58 examples/dfu/CMakeFiles/dfu_no_serial_nrf52840_xxAA_s140_6.0.0.dir/__/__/mesh/core/src/core_tx_adv.c.obj
 .text.adv_tx_complete_callback
                0x000362a4       0x20 examples/dfu/CMakeFiles/dfu_no_serial_nrf52840_xxAA_s140_6.0.0.dir/__/__/mesh/core/src/core_tx_adv.c.obj
 .text.core_tx_adv_init
                0x000362c4       0x60 examples/dfu/CMakeFiles/dfu_no_serial_nrf52840_xxAA_s140_6.0.0.dir/__/__/mesh/core/src/core_tx_adv.c.obj
                0x000362c4                core_tx_adv_init
 .text.core_tx_adv_count_set
                0x00036324       0x28 examples/dfu/CMakeFiles/dfu_no_serial_nrf52840_xxAA_s140_6.0.0.dir/__/__/mesh/core/src/core_tx_adv.c.obj
                0x00036324                core_tx_adv_count_set
 .text.core_tx_adv_count_get
                0x0003634c       0x1c examples/dfu/CMakeFiles/dfu_no_serial_nrf52840_xxAA_s140_6.0.0.dir/__/__/mesh/core/src/core_tx_adv.c.obj
                0x0003634c                core_tx_adv_count_get
 .text.core_tx_adv_interval_set
                0x00036368       0x28 examples/dfu/CMakeFiles/dfu_no_serial_nrf52840_xxAA_s140_6.0.0.dir/__/__/mesh/core/src/core_tx_adv.c.obj
                0x00036368                core_tx_adv_interval_set
 .text.core_tx_adv_interval_get
                0x00036390       0x28 examples/dfu/CMakeFiles/dfu_no_serial_nrf52840_xxAA_s140_6.0.0.dir/__/__/mesh/core/src/core_tx_adv.c.obj
                0x00036390                core_tx_adv_interval_get
 .text.ad_listener_subscribe
                0x000363b8       0x5c examples/dfu/CMakeFiles/dfu_no_serial_nrf52840_xxAA_s140_6.0.0.dir/__/__/mesh/bearer/src/ad_listener.c.obj
                0x000363b8                ad_listener_subscribe
 .text.ad_listener_process
                0x00036414       0x64 examples/dfu/CMakeFiles/dfu_no_serial_nrf52840_xxAA_s140_6.0.0.dir/__/__/mesh/bearer/src/ad_listener.c.obj
                0x00036414                ad_listener_process
 .text.adtype_filter_handle
                0x00036478       0x64 examples/dfu/CMakeFiles/dfu_no_serial_nrf52840_xxAA_s140_6.0.0.dir/__/__/mesh/bearer/src/ad_type_filter.c.obj
 .text.bearer_adtype_filtering_set
                0x000364dc       0x1c examples/dfu/CMakeFiles/dfu_no_serial_nrf52840_xxAA_s140_6.0.0.dir/__/__/mesh/bearer/src/ad_type_filter.c.obj
                0x000364dc                bearer_adtype_filtering_set
 .text.bearer_adtype_add
                0x000364f8       0x20 examples/dfu/CMakeFiles/dfu_no_serial_nrf52840_xxAA_s140_6.0.0.dir/__/__/mesh/bearer/src/ad_type_filter.c.obj
                0x000364f8                bearer_adtype_add
 .text.bearer_adtype_mode_set
                0x00036518       0x18 examples/dfu/CMakeFiles/dfu_no_serial_nrf52840_xxAA_s140_6.0.0.dir/__/__/mesh/bearer/src/ad_type_filter.c.obj
                0x00036518                bearer_adtype_mode_set
 .text.tx_complete_event_callback
                0x00036530       0x28 examples/dfu/CMakeFiles/dfu_no_serial_nrf52840_xxAA_s140_6.0.0.dir/__/__/mesh/bearer/src/advertiser.c.obj
 .text.set_gap_addr_type
                0x00036558       0x26 examples/dfu/CMakeFiles/dfu_no_serial_nrf52840_xxAA_s140_6.0.0.dir/__/__/mesh/bearer/src/advertiser.c.obj
 .text.broadcast_complete_cb
                0x0003657e       0x46 examples/dfu/CMakeFiles/dfu_no_serial_nrf52840_xxAA_s140_6.0.0.dir/__/__/mesh/bearer/src/advertiser.c.obj
 .text.schedule_first_time
                0x000365c4       0x28 examples/dfu/CMakeFiles/dfu_no_serial_nrf52840_xxAA_s140_6.0.0.dir/__/__/mesh/bearer/src/advertiser.c.obj
 .text.timeout_event
                0x000365ec      0x10c examples/dfu/CMakeFiles/dfu_no_serial_nrf52840_xxAA_s140_6.0.0.dir/__/__/mesh/bearer/src/advertiser.c.obj
 .text.advertiser_init
                0x000366f8        0xc examples/dfu/CMakeFiles/dfu_no_serial_nrf52840_xxAA_s140_6.0.0.dir/__/__/mesh/bearer/src/advertiser.c.obj
                0x000366f8                advertiser_init
 .text.advertiser_enable
                0x00036704       0x2a examples/dfu/CMakeFiles/dfu_no_serial_nrf52840_xxAA_s140_6.0.0.dir/__/__/mesh/bearer/src/advertiser.c.obj
                0x00036704                advertiser_enable
 .text.advertiser_packet_alloc
                0x0003672e       0x76 examples/dfu/CMakeFiles/dfu_no_serial_nrf52840_xxAA_s140_6.0.0.dir/__/__/mesh/bearer/src/advertiser.c.obj
                0x0003672e                advertiser_packet_alloc
 .text.advertiser_packet_send
                0x000367a4       0x62 examples/dfu/CMakeFiles/dfu_no_serial_nrf52840_xxAA_s140_6.0.0.dir/__/__/mesh/bearer/src/advertiser.c.obj
                0x000367a4                advertiser_packet_send
 .text.advertiser_packet_discard
                0x00036806       0x1e examples/dfu/CMakeFiles/dfu_no_serial_nrf52840_xxAA_s140_6.0.0.dir/__/__/mesh/bearer/src/advertiser.c.obj
                0x00036806                advertiser_packet_discard
 .text.advertiser_interval_set
                0x00036824       0x54 examples/dfu/CMakeFiles/dfu_no_serial_nrf52840_xxAA_s140_6.0.0.dir/__/__/mesh/bearer/src/advertiser.c.obj
                0x00036824                advertiser_interval_set
 .text.advertiser_flush
                0x00036878       0x1e examples/dfu/CMakeFiles/dfu_no_serial_nrf52840_xxAA_s140_6.0.0.dir/__/__/mesh/bearer/src/advertiser.c.obj
                0x00036878                advertiser_flush
 *fill*         0x00036896        0x2 
 .text.advertiser_address_default_get
                0x00036898       0x38 examples/dfu/CMakeFiles/dfu_no_serial_nrf52840_xxAA_s140_6.0.0.dir/__/__/mesh/bearer/src/advertiser.c.obj
                0x00036898                advertiser_address_default_get
 .text.advertiser_instance_init
                0x000368d0       0xa4 examples/dfu/CMakeFiles/dfu_no_serial_nrf52840_xxAA_s140_6.0.0.dir/__/__/mesh/bearer/src/advertiser.c.obj
                0x000368d0                advertiser_instance_init
 .text.action_switch
                0x00036974       0xb4 examples/dfu/CMakeFiles/dfu_no_serial_nrf52840_xxAA_s140_6.0.0.dir/__/__/mesh/bearer/src/bearer_handler.c.obj
 .text.bearer_handler_init
                0x00036a28       0x2c examples/dfu/CMakeFiles/dfu_no_serial_nrf52840_xxAA_s140_6.0.0.dir/__/__/mesh/bearer/src/bearer_handler.c.obj
                0x00036a28                bearer_handler_init
 .text.bearer_handler_start
                0x00036a54       0x1c examples/dfu/CMakeFiles/dfu_no_serial_nrf52840_xxAA_s140_6.0.0.dir/__/__/mesh/bearer/src/bearer_handler.c.obj
                0x00036a54                bearer_handler_start
 .text.bearer_handler_action_enqueue
                0x00036a70       0x6c examples/dfu/CMakeFiles/dfu_no_serial_nrf52840_xxAA_s140_6.0.0.dir/__/__/mesh/bearer/src/bearer_handler.c.obj
                0x00036a70                bearer_handler_action_enqueue
 .text.bearer_handler_action_end
                0x00036adc       0x5c examples/dfu/CMakeFiles/dfu_no_serial_nrf52840_xxAA_s140_6.0.0.dir/__/__/mesh/bearer/src/bearer_handler.c.obj
                0x00036adc                bearer_handler_action_end
 .text.bearer_handler_radio_irq_handler
                0x00036b38       0x48 examples/dfu/CMakeFiles/dfu_no_serial_nrf52840_xxAA_s140_6.0.0.dir/__/__/mesh/bearer/src/bearer_handler.c.obj
                0x00036b38                bearer_handler_radio_irq_handler
 .text.bearer_handler_timer_irq_handler
                0x00036b80       0x24 examples/dfu/CMakeFiles/dfu_no_serial_nrf52840_xxAA_s140_6.0.0.dir/__/__/mesh/bearer/src/bearer_handler.c.obj
                0x00036b80                bearer_handler_timer_irq_handler
 .text.bearer_handler_on_ts_begin
                0x00036ba4       0x30 examples/dfu/CMakeFiles/dfu_no_serial_nrf52840_xxAA_s140_6.0.0.dir/__/__/mesh/bearer/src/bearer_handler.c.obj
                0x00036ba4                bearer_handler_on_ts_begin
 .text.bearer_handler_on_ts_end
                0x00036bd4       0x34 examples/dfu/CMakeFiles/dfu_no_serial_nrf52840_xxAA_s140_6.0.0.dir/__/__/mesh/bearer/src/bearer_handler.c.obj
                0x00036bd4                bearer_handler_on_ts_end
 .text.radio_irq_handler
                0x00036c08       0x94 examples/dfu/CMakeFiles/dfu_no_serial_nrf52840_xxAA_s140_6.0.0.dir/__/__/mesh/bearer/src/broadcast.c.obj
 .text.broadcast_start
                0x00036c9c       0x8c examples/dfu/CMakeFiles/dfu_no_serial_nrf52840_xxAA_s140_6.0.0.dir/__/__/mesh/bearer/src/broadcast.c.obj
 .text.broadcast_send
                0x00036d28       0x6c examples/dfu/CMakeFiles/dfu_no_serial_nrf52840_xxAA_s140_6.0.0.dir/__/__/mesh/bearer/src/broadcast.c.obj
                0x00036d28                broadcast_send
 .text.fen_filter_start
                0x00036d94       0x28 examples/dfu/CMakeFiles/dfu_no_serial_nrf52840_xxAA_s140_6.0.0.dir/__/__/mesh/bearer/src/filter_engine.c.obj
                0x00036d94                fen_filter_start
 .text.fen_filter_stop
                0x00036dbc       0x20 examples/dfu/CMakeFiles/dfu_no_serial_nrf52840_xxAA_s140_6.0.0.dir/__/__/mesh/bearer/src/filter_engine.c.obj
                0x00036dbc                fen_filter_stop
 .text.fen_filters_apply
                0x00036ddc       0x34 examples/dfu/CMakeFiles/dfu_no_serial_nrf52840_xxAA_s140_6.0.0.dir/__/__/mesh/bearer/src/filter_engine.c.obj
                0x00036ddc                fen_filters_apply
 .text.radio_config_reset
                0x00036e10       0x34 examples/dfu/CMakeFiles/dfu_no_serial_nrf52840_xxAA_s140_6.0.0.dir/__/__/mesh/bearer/src/radio_config.c.obj
                0x00036e10                radio_config_reset
 .text.radio_config_channel_set
                0x00036e44       0x28 examples/dfu/CMakeFiles/dfu_no_serial_nrf52840_xxAA_s140_6.0.0.dir/__/__/mesh/bearer/src/radio_config.c.obj
                0x00036e44                radio_config_channel_set
 .text.radio_config_config
                0x00036e6c       0x90 examples/dfu/CMakeFiles/dfu_no_serial_nrf52840_xxAA_s140_6.0.0.dir/__/__/mesh/bearer/src/radio_config.c.obj
                0x00036e6c                radio_config_config
 .text.radio_config_access_addr_set
                0x00036efc       0x50 examples/dfu/CMakeFiles/dfu_no_serial_nrf52840_xxAA_s140_6.0.0.dir/__/__/mesh/bearer/src/radio_config.c.obj
                0x00036efc                radio_config_access_addr_set
 .text.radio_trigger
                0x00036f4c       0x24 examples/dfu/CMakeFiles/dfu_no_serial_nrf52840_xxAA_s140_6.0.0.dir/__/__/mesh/bearer/src/scanner.c.obj
 .text.scan_window_end
                0x00036f70       0x10 examples/dfu/CMakeFiles/dfu_no_serial_nrf52840_xxAA_s140_6.0.0.dir/__/__/mesh/bearer/src/scanner.c.obj
 .text.scan_window_start
                0x00036f80       0x24 examples/dfu/CMakeFiles/dfu_no_serial_nrf52840_xxAA_s140_6.0.0.dir/__/__/mesh/bearer/src/scanner.c.obj
 .text.radio_configure
                0x00036fa4       0x78 examples/dfu/CMakeFiles/dfu_no_serial_nrf52840_xxAA_s140_6.0.0.dir/__/__/mesh/bearer/src/scanner.c.obj
 .text.radio_set_packet
                0x0003701c       0x44 examples/dfu/CMakeFiles/dfu_no_serial_nrf52840_xxAA_s140_6.0.0.dir/__/__/mesh/bearer/src/scanner.c.obj
 .text.radio_start
                0x00037060       0x40 examples/dfu/CMakeFiles/dfu_no_serial_nrf52840_xxAA_s140_6.0.0.dir/__/__/mesh/bearer/src/scanner.c.obj
 .text.radio_stop
                0x000370a0       0x30 examples/dfu/CMakeFiles/dfu_no_serial_nrf52840_xxAA_s140_6.0.0.dir/__/__/mesh/bearer/src/scanner.c.obj
 .text.schedule_timers
                0x000370d0       0x38 examples/dfu/CMakeFiles/dfu_no_serial_nrf52840_xxAA_s140_6.0.0.dir/__/__/mesh/bearer/src/scanner.c.obj
 .text.scanner_radio_start
                0x00037108       0x28 examples/dfu/CMakeFiles/dfu_no_serial_nrf52840_xxAA_s140_6.0.0.dir/__/__/mesh/bearer/src/scanner.c.obj
                0x00037108                scanner_radio_start
 .text.scanner_radio_stop
                0x00037130       0x10 examples/dfu/CMakeFiles/dfu_no_serial_nrf52840_xxAA_s140_6.0.0.dir/__/__/mesh/bearer/src/scanner.c.obj
                0x00037130                scanner_radio_stop
 .text.scanner_radio_irq_handler
                0x00037140      0x130 examples/dfu/CMakeFiles/dfu_no_serial_nrf52840_xxAA_s140_6.0.0.dir/__/__/mesh/bearer/src/scanner.c.obj
                0x00037140                scanner_radio_irq_handler
 .text.scanner_enable
                0x00037270       0x24 examples/dfu/CMakeFiles/dfu_no_serial_nrf52840_xxAA_s140_6.0.0.dir/__/__/mesh/bearer/src/scanner.c.obj
                0x00037270                scanner_enable
 .text.scanner_packet_release
                0x00037294       0x2c examples/dfu/CMakeFiles/dfu_no_serial_nrf52840_xxAA_s140_6.0.0.dir/__/__/mesh/bearer/src/scanner.c.obj
                0x00037294                scanner_packet_release
 .text.scanner_rx
                0x000372c0       0x30 examples/dfu/CMakeFiles/dfu_no_serial_nrf52840_xxAA_s140_6.0.0.dir/__/__/mesh/bearer/src/scanner.c.obj
                0x000372c0                scanner_rx
 .text.scanner_rx_pending
                0x000372f0        0xc examples/dfu/CMakeFiles/dfu_no_serial_nrf52840_xxAA_s140_6.0.0.dir/__/__/mesh/bearer/src/scanner.c.obj
                0x000372f0                scanner_rx_pending
 .text.scanner_config_scan_time_set
                0x000372fc       0x4c examples/dfu/CMakeFiles/dfu_no_serial_nrf52840_xxAA_s140_6.0.0.dir/__/__/mesh/bearer/src/scanner.c.obj
                0x000372fc                scanner_config_scan_time_set
 .text.scanner_config_channels_set
                0x00037348       0x50 examples/dfu/CMakeFiles/dfu_no_serial_nrf52840_xxAA_s140_6.0.0.dir/__/__/mesh/bearer/src/scanner.c.obj
                0x00037348                scanner_config_channels_set
 .text.scanner_config_access_addresses_set
                0x00037398       0x38 examples/dfu/CMakeFiles/dfu_no_serial_nrf52840_xxAA_s140_6.0.0.dir/__/__/mesh/bearer/src/scanner.c.obj
                0x00037398                scanner_config_access_addresses_set
 .text.scanner_config_reset
                0x000373d0       0x50 examples/dfu/CMakeFiles/dfu_no_serial_nrf52840_xxAA_s140_6.0.0.dir/__/__/mesh/bearer/src/scanner.c.obj
                0x000373d0                scanner_config_reset
 .text.scanner_init
                0x00037420       0x54 examples/dfu/CMakeFiles/dfu_no_serial_nrf52840_xxAA_s140_6.0.0.dir/__/__/mesh/bearer/src/scanner.c.obj
                0x00037420                scanner_init
 .text.errata_120
                0x00037474       0x20 examples/dfu/CMakeFiles/dfu_no_serial_nrf52840_xxAA_s140_6.0.0.dir/C_/b/nRF5_SDK_15.0.0_a53641a/modules/nrfx/mdk/system_nrf52840.c.obj
 .text.SystemInit
                0x00037494      0x1b8 examples/dfu/CMakeFiles/dfu_no_serial_nrf52840_xxAA_s140_6.0.0.dir/C_/b/nRF5_SDK_15.0.0_a53641a/modules/nrfx/mdk/system_nrf52840.c.obj
                0x00037494                SystemInit
 .text          0x0003764c       0x3c examples/dfu/CMakeFiles/dfu_no_serial_nrf52840_xxAA_s140_6.0.0.dir/C_/b/nRF5_SDK_15.0.0_a53641a/modules/nrfx/mdk/gcc_startup_nrf52840.S.obj
                0x0003764c                Reset_Handler
                0x00037674                NMI_Handler
                0x00037676                HardFault_Handler
                0x00037678                MemoryManagement_Handler
                0x0003767a                BusFault_Handler
                0x0003767c                UsageFault_Handler
                0x0003767e                SVC_Handler
                0x00037680                DebugMon_Handler
                0x00037682                PendSV_Handler
                0x00037684                SysTick_Handler
                0x00037686                RADIO_IRQHandler
                0x00037686                PDM_IRQHandler
                0x00037686                TEMP_IRQHandler
                0x00037686                TIMER3_IRQHandler
                0x00037686                PWM3_IRQHandler
                0x00037686                FPU_IRQHandler
                0x00037686                RTC0_IRQHandler
                0x00037686                SPIM0_SPIS0_TWIM0_TWIS0_SPI0_TWI0_IRQHandler
                0x00037686                PWM1_IRQHandler
                0x00037686                UARTE0_UART0_IRQHandler
                0x00037686                POWER_CLOCK_IRQHandler
                0x00037686                CRYPTOCELL_IRQHandler
                0x00037686                I2S_IRQHandler
                0x00037686                SWI4_EGU4_IRQHandler
                0x00037686                USBD_IRQHandler
                0x00037686                TIMER2_IRQHandler
                0x00037686                UARTE1_IRQHandler
                0x00037686                TIMER1_IRQHandler
                0x00037686                SPIM3_IRQHandler
                0x00037686                PWM2_IRQHandler
                0x00037686                ECB_IRQHandler
                0x00037686                SPIM1_SPIS1_TWIM1_TWIS1_SPI1_TWI1_IRQHandler
                0x00037686                Default_Handler
                0x00037686                SAADC_IRQHandler
                0x00037686                CCM_AAR_IRQHandler
                0x00037686                WDT_IRQHandler
                0x00037686                TIMER4_IRQHandler
                0x00037686                SWI5_EGU5_IRQHandler
                0x00037686                RNG_IRQHandler
                0x00037686                RTC2_IRQHandler
                0x00037686                PWM0_IRQHandler
                0x00037686                SWI3_EGU3_IRQHandler
                0x00037686                RTC1_IRQHandler
                0x00037686                SWI1_EGU1_IRQHandler
                0x00037686                SPIM2_SPIS2_SPI2_IRQHandler
                0x00037686                NFCT_IRQHandler
                0x00037686                SWI0_EGU0_IRQHandler
                0x00037686                MWU_IRQHandler
                0x00037686                TIMER0_IRQHandler
                0x00037686                QSPI_IRQHandler
                0x00037686                COMP_LPCOMP_IRQHandler
 .text.app_error_handler_bare
                0x00037688       0x1a examples/dfu/CMakeFiles/dfu_no_serial_nrf52840_xxAA_s140_6.0.0.dir/C_/b/nRF5_SDK_15.0.0_a53641a/components/libraries/util/app_error.c.obj
                0x00037688                app_error_handler_bare
 .text.app_error_handler
                0x000376a2       0x1a examples/dfu/CMakeFiles/dfu_no_serial_nrf52840_xxAA_s140_6.0.0.dir/C_/b/nRF5_SDK_15.0.0_a53641a/components/libraries/util/app_error_handler_gcc.c.obj
                0x000376a2                app_error_handler
 .text._GetAvailWriteSpace
                0x000376bc       0x1c external/rtt/librtt_nrf52840_xxAA.a(SEGGER_RTT.c.obj)
 .text._WriteNoCheck
                0x000376d8       0x3c external/rtt/librtt_nrf52840_xxAA.a(SEGGER_RTT.c.obj)
 .text._WriteBlocking
                0x00037714       0x52 external/rtt/librtt_nrf52840_xxAA.a(SEGGER_RTT.c.obj)
 *fill*         0x00037766        0x2 
 .text._DoInit  0x00037768       0x60 external/rtt/librtt_nrf52840_xxAA.a(SEGGER_RTT.c.obj)
 .text.SEGGER_RTT_WriteNoLock
                0x000377c8       0x68 external/rtt/librtt_nrf52840_xxAA.a(SEGGER_RTT.c.obj)
                0x000377c8                SEGGER_RTT_WriteNoLock
 .text.SEGGER_RTT_Write
                0x00037830       0x34 external/rtt/librtt_nrf52840_xxAA.a(SEGGER_RTT.c.obj)
                0x00037830                SEGGER_RTT_Write
 .text._StoreChar
                0x00037864       0x3e external/rtt/librtt_nrf52840_xxAA.a(SEGGER_RTT_printf.c.obj)
 *fill*         0x000378a2        0x2 
 .text._PrintUnsigned
                0x000378a4       0xd0 external/rtt/librtt_nrf52840_xxAA.a(SEGGER_RTT_printf.c.obj)
 .text.SEGGER_RTT_vprintf
                0x00037974      0x246 external/rtt/librtt_nrf52840_xxAA.a(SEGGER_RTT_printf.c.obj)
                0x00037974                SEGGER_RTT_vprintf
 .text.SEGGER_RTT_printf
                0x00037bba       0x1e external/rtt/librtt_nrf52840_xxAA.a(SEGGER_RTT_printf.c.obj)
                0x00037bba                SEGGER_RTT_printf
 .text.uECC_vli_mult
                0x00037bd8       0x64 external/micro-ecc/libuECC_nrf52840_xxAA.a(uECC.c.obj)
 .text.uECC_vli_clear
                0x00037c3c       0x16 external/micro-ecc/libuECC_nrf52840_xxAA.a(uECC.c.obj)
 .text.uECC_vli_isZero
                0x00037c52       0x1e external/micro-ecc/libuECC_nrf52840_xxAA.a(uECC.c.obj)
 .text.uECC_vli_testBit
                0x00037c70       0x14 external/micro-ecc/libuECC_nrf52840_xxAA.a(uECC.c.obj)
 .text.uECC_vli_numBits
                0x00037c84       0x3a external/micro-ecc/libuECC_nrf52840_xxAA.a(uECC.c.obj)
 .text.uECC_vli_set
                0x00037cbe       0x18 external/micro-ecc/libuECC_nrf52840_xxAA.a(uECC.c.obj)
 .text.uECC_vli_cmp_unsafe
                0x00037cd6       0x28 external/micro-ecc/libuECC_nrf52840_xxAA.a(uECC.c.obj)
 .text.uECC_vli_rshift1
                0x00037cfe       0x1c external/micro-ecc/libuECC_nrf52840_xxAA.a(uECC.c.obj)
 .text.uECC_vli_modMult_fast
                0x00037d1a       0x20 external/micro-ecc/libuECC_nrf52840_xxAA.a(uECC.c.obj)
 .text.uECC_vli_modSquare_fast
                0x00037d3a        0x8 external/micro-ecc/libuECC_nrf52840_xxAA.a(uECC.c.obj)
 .text.apply_z  0x00037d42       0x3e external/micro-ecc/libuECC_nrf52840_xxAA.a(uECC.c.obj)
 .text.uECC_vli_nativeToBytes
                0x00037d80       0x28 external/micro-ecc/libuECC_nrf52840_xxAA.a(uECC.c.obj)
 .text.uECC_vli_bytesToNative
                0x00037da8       0x40 external/micro-ecc/libuECC_nrf52840_xxAA.a(uECC.c.obj)
 .text.default_RNG
                0x00037de8        0xc external/micro-ecc/libuECC_nrf52840_xxAA.a(uECC.c.obj)
 .text.uECC_vli_add.isra.0
                0x00037df4       0x4a external/micro-ecc/libuECC_nrf52840_xxAA.a(uECC.c.obj)
 .text.regularize_k
                0x00037e3e       0x50 external/micro-ecc/libuECC_nrf52840_xxAA.a(uECC.c.obj)
 .text.uECC_vli_sub.isra.1
                0x00037e8e       0x4e external/micro-ecc/libuECC_nrf52840_xxAA.a(uECC.c.obj)
 .text.uECC_vli_cmp
                0x00037edc       0x30 external/micro-ecc/libuECC_nrf52840_xxAA.a(uECC.c.obj)
 .text.uECC_generate_random_int
                0x00037f0c       0x78 external/micro-ecc/libuECC_nrf52840_xxAA.a(uECC.c.obj)
 .text.uECC_vli_modAdd
                0x00037f84       0x2e external/micro-ecc/libuECC_nrf52840_xxAA.a(uECC.c.obj)
 *fill*         0x00037fb2        0x2 
 .text.vli_mmod_fast_secp256r1
                0x00037fb4      0x194 external/micro-ecc/libuECC_nrf52840_xxAA.a(uECC.c.obj)
 .text.uECC_vli_modSub.isra.2
                0x00038148       0x1c external/micro-ecc/libuECC_nrf52840_xxAA.a(uECC.c.obj)
 .text.double_jacobian_default
                0x00038164      0x14a external/micro-ecc/libuECC_nrf52840_xxAA.a(uECC.c.obj)
 .text.x_side_default
                0x000382ae       0x5a external/micro-ecc/libuECC_nrf52840_xxAA.a(uECC.c.obj)
 .text.XYcZ_add
                0x00038308       0xbc external/micro-ecc/libuECC_nrf52840_xxAA.a(uECC.c.obj)
 .text.XYcZ_addC
                0x000383c4      0x10a external/micro-ecc/libuECC_nrf52840_xxAA.a(uECC.c.obj)
 .text.vli_modInv_update
                0x000384ce       0x36 external/micro-ecc/libuECC_nrf52840_xxAA.a(uECC.c.obj)
 .text.uECC_vli_modInv
                0x00038504      0x102 external/micro-ecc/libuECC_nrf52840_xxAA.a(uECC.c.obj)
 .text.EccPoint_mult
                0x00038606      0x19e external/micro-ecc/libuECC_nrf52840_xxAA.a(uECC.c.obj)
 .text.EccPoint_compute_public_key
                0x000387a4       0x54 external/micro-ecc/libuECC_nrf52840_xxAA.a(uECC.c.obj)
 .text.uECC_secp256r1
                0x000387f8        0x8 external/micro-ecc/libuECC_nrf52840_xxAA.a(uECC.c.obj)
                0x000387f8                uECC_secp256r1
 .text.uECC_make_key
                0x00038800       0x7e external/micro-ecc/libuECC_nrf52840_xxAA.a(uECC.c.obj)
                0x00038800                uECC_make_key
 *fill*         0x0003887e        0x2 
 .text.uECC_shared_secret
                0x00038880       0xbc external/micro-ecc/libuECC_nrf52840_xxAA.a(uECC.c.obj)
                0x00038880                uECC_shared_secret
 .text.uECC_valid_point
                0x0003893c       0x86 external/micro-ecc/libuECC_nrf52840_xxAA.a(uECC.c.obj)
                0x0003893c                uECC_valid_point
 .text.uECC_valid_public_key
                0x000389c2       0x32 external/micro-ecc/libuECC_nrf52840_xxAA.a(uECC.c.obj)
                0x000389c2                uECC_valid_public_key
 .text.exit     0x000389f4       0x28 c:/mesh/arm_gcc/bin/../lib/gcc/arm-none-eabi/6.3.1/../../../../arm-none-eabi/lib/thumb/v7e-m/fpv4-sp/hard\libg_nano.a(lib_a-exit.o)
                0x000389f4                exit
 .text.__libc_init_array
                0x00038a1c       0x48 c:/mesh/arm_gcc/bin/../lib/gcc/arm-none-eabi/6.3.1/../../../../arm-none-eabi/lib/thumb/v7e-m/fpv4-sp/hard\libg_nano.a(lib_a-init.o)
                0x00038a1c                __libc_init_array
 .text.malloc   0x00038a64       0x10 c:/mesh/arm_gcc/bin/../lib/gcc/arm-none-eabi/6.3.1/../../../../arm-none-eabi/lib/thumb/v7e-m/fpv4-sp/hard\libg_nano.a(lib_a-malloc.o)
                0x00038a64                malloc
 .text.free     0x00038a74       0x10 c:/mesh/arm_gcc/bin/../lib/gcc/arm-none-eabi/6.3.1/../../../../arm-none-eabi/lib/thumb/v7e-m/fpv4-sp/hard\libg_nano.a(lib_a-malloc.o)
                0x00038a74                free
 .text.memcmp   0x00038a84       0x1e c:/mesh/arm_gcc/bin/../lib/gcc/arm-none-eabi/6.3.1/../../../../arm-none-eabi/lib/thumb/v7e-m/fpv4-sp/hard\libg_nano.a(lib_a-memcmp.o)
                0x00038a84                memcmp
 .text.memcpy   0x00038aa2       0x16 c:/mesh/arm_gcc/bin/../lib/gcc/arm-none-eabi/6.3.1/../../../../arm-none-eabi/lib/thumb/v7e-m/fpv4-sp/hard\libg_nano.a(lib_a-memcpy-stub.o)
                0x00038aa2                memcpy
 .text.memset   0x00038ab8       0x10 c:/mesh/arm_gcc/bin/../lib/gcc/arm-none-eabi/6.3.1/../../../../arm-none-eabi/lib/thumb/v7e-m/fpv4-sp/hard\libg_nano.a(lib_a-memset.o)
                0x00038ab8                memset
 .text._free_r  0x00038ac8       0x9c c:/mesh/arm_gcc/bin/../lib/gcc/arm-none-eabi/6.3.1/../../../../arm-none-eabi/lib/thumb/v7e-m/fpv4-sp/hard\libg_nano.a(lib_a-nano-freer.o)
                0x00038ac8                _free_r
 .text._malloc_r
                0x00038b64       0xbc c:/mesh/arm_gcc/bin/../lib/gcc/arm-none-eabi/6.3.1/../../../../arm-none-eabi/lib/thumb/v7e-m/fpv4-sp/hard\libg_nano.a(lib_a-nano-mallocr.o)
                0x00038b64                _malloc_r
 .text._sbrk_r  0x00038c20       0x20 c:/mesh/arm_gcc/bin/../lib/gcc/arm-none-eabi/6.3.1/../../../../arm-none-eabi/lib/thumb/v7e-m/fpv4-sp/hard\libg_nano.a(lib_a-sbrkr.o)
                0x00038c20                _sbrk_r
 .text.strcpy   0x00038c40       0x10 c:/mesh/arm_gcc/bin/../lib/gcc/arm-none-eabi/6.3.1/../../../../arm-none-eabi/lib/thumb/v7e-m/fpv4-sp/hard\libg_nano.a(lib_a-strcpy.o)
                0x00038c40                strcpy
 .text          0x00038c50       0x10 c:/mesh/arm_gcc/bin/../lib/gcc/arm-none-eabi/6.3.1/../../../../arm-none-eabi/lib/thumb/v7e-m/fpv4-sp/hard\libg_nano.a(lib_a-strlen.o)
                0x00038c50                strlen
 .text.strrchr  0x00038c60       0x26 c:/mesh/arm_gcc/bin/../lib/gcc/arm-none-eabi/6.3.1/../../../../arm-none-eabi/lib/thumb/v7e-m/fpv4-sp/hard\libg_nano.a(lib_a-strrchr.o)
                0x00038c60                strrchr
 .text.__malloc_lock
                0x00038c86        0x2 c:/mesh/arm_gcc/bin/../lib/gcc/arm-none-eabi/6.3.1/../../../../arm-none-eabi/lib/thumb/v7e-m/fpv4-sp/hard\libg_nano.a(lib_a-mlock.o)
                0x00038c86                __malloc_lock
 .text.__malloc_unlock
                0x00038c88        0x2 c:/mesh/arm_gcc/bin/../lib/gcc/arm-none-eabi/6.3.1/../../../../arm-none-eabi/lib/thumb/v7e-m/fpv4-sp/hard\libg_nano.a(lib_a-mlock.o)
                0x00038c88                __malloc_unlock
 .text.strchr   0x00038c8a       0x1c c:/mesh/arm_gcc/bin/../lib/gcc/arm-none-eabi/6.3.1/../../../../arm-none-eabi/lib/thumb/v7e-m/fpv4-sp/hard\libg_nano.a(lib_a-strchr.o)
                0x00038c8a                strchr
 *fill*         0x00038ca6        0x2 
 .text._sbrk    0x00038ca8       0x1c c:/mesh/arm_gcc/bin/../lib/gcc/arm-none-eabi/6.3.1/../../../../arm-none-eabi/lib/thumb/v7e-m/fpv4-sp/hard\libnosys.a(sbrk.o)
                0x00038ca8                _sbrk
 .text._exit    0x00038cc4        0x4 c:/mesh/arm_gcc/bin/../lib/gcc/arm-none-eabi/6.3.1/../../../../arm-none-eabi/lib/thumb/v7e-m/fpv4-sp/hard\libnosys.a(_exit.o)
                0x00038cc4                _exit
 *(.init)
 .init          0x00038cc8        0x4 c:/mesh/arm_gcc/bin/../lib/gcc/arm-none-eabi/6.3.1/thumb/v7e-m/fpv4-sp/hard/crti.o
                0x00038cc8                _init
 .init          0x00038ccc        0x8 c:/mesh/arm_gcc/bin/../lib/gcc/arm-none-eabi/6.3.1/thumb/v7e-m/fpv4-sp/hard/crtn.o
 *(.fini)
 .fini          0x00038cd4        0x4 c:/mesh/arm_gcc/bin/../lib/gcc/arm-none-eabi/6.3.1/thumb/v7e-m/fpv4-sp/hard/crti.o
                0x00038cd4                _fini
 .fini          0x00038cd8        0x8 c:/mesh/arm_gcc/bin/../lib/gcc/arm-none-eabi/6.3.1/thumb/v7e-m/fpv4-sp/hard/crtn.o
 *crtbegin.o(.ctors)
 *crtbegin?.o(.ctors)
 *(EXCLUDE_FILE(*crtend.o *crtend?.o) .ctors)
 *(SORT(.ctors.*))
 *(.ctors)
 *crtbegin.o(.dtors)
 *crtbegin?.o(.dtors)
 *(EXCLUDE_FILE(*crtend.o *crtend?.o) .dtors)
 *(SORT(.dtors.*))
 *(.dtors)
 *(.rodata*)
 .rodata.config_server_evt_cb.str1.1
                0x00038ce0       0x34 examples/dfu/CMakeFiles/dfu_no_serial_nrf52840_xxAA_s140_6.0.0.dir/src/main.c.obj
 .rodata.main.str1.1
                0x00038d14       0x95 examples/dfu/CMakeFiles/dfu_no_serial_nrf52840_xxAA_s140_6.0.0.dir/src/main.c.obj
 .rodata.static_auth_data.12847
                0x00038da9       0x10 examples/dfu/CMakeFiles/dfu_no_serial_nrf52840_xxAA_s140_6.0.0.dir/src/main.c.obj
 .rodata.mesh_softdevice_init.str1.1
                0x00038db9       0xa4 examples/dfu/CMakeFiles/dfu_no_serial_nrf52840_xxAA_s140_6.0.0.dir/__/common/src/mesh_softdevice_init.c.obj
 .rodata        0x00038e5d        0xb examples/dfu/CMakeFiles/dfu_no_serial_nrf52840_xxAA_s140_6.0.0.dir/__/common/src/mesh_provisionee.c.obj
 *fill*         0x00038e68        0x8 
 .rodata.delay_bytecode.8707
                0x00038e70        0x6 examples/dfu/CMakeFiles/dfu_no_serial_nrf52840_xxAA_s140_6.0.0.dir/__/common/src/simple_hal.c.obj
 .rodata.m_buttons_list
                0x00038e76        0x4 examples/dfu/CMakeFiles/dfu_no_serial_nrf52840_xxAA_s140_6.0.0.dir/__/common/src/simple_hal.c.obj
 .rodata.mesh_evt_cb.str1.1
                0x00038e7a       0x2f examples/dfu/CMakeFiles/dfu_no_serial_nrf52840_xxAA_s140_6.0.0.dir/__/__/mesh/access/src/access.c.obj
 .rodata.multiply_de_bruijn_bit_position.9553
                0x00038ea9       0x20 examples/dfu/CMakeFiles/dfu_no_serial_nrf52840_xxAA_s140_6.0.0.dir/__/__/mesh/access/src/access.c.obj
 .rodata.packet_tx.str1.1
                0x00038ec9       0x24 examples/dfu/CMakeFiles/dfu_no_serial_nrf52840_xxAA_s140_6.0.0.dir/__/__/mesh/access/src/access.c.obj
 *fill*         0x00038eed        0x3 
 .rodata.m_flash_groups
                0x00038ef0       0xa8 examples/dfu/CMakeFiles/dfu_no_serial_nrf52840_xxAA_s140_6.0.0.dir/__/__/mesh/access/src/device_state_manager.c.obj
 .rodata.multiply_de_bruijn_bit_position.9659
                0x00038f98       0x20 examples/dfu/CMakeFiles/dfu_no_serial_nrf52840_xxAA_s140_6.0.0.dir/__/__/mesh/access/src/device_state_manager.c.obj
 .rodata        0x00038fb8        0x8 examples/dfu/CMakeFiles/dfu_no_serial_nrf52840_xxAA_s140_6.0.0.dir/__/__/models/config/src/config_server.c.obj
 .rodata.CSWTCH.121
                0x00038fc0       0x10 examples/dfu/CMakeFiles/dfu_no_serial_nrf52840_xxAA_s140_6.0.0.dir/__/__/models/config/src/config_server.c.obj
 .rodata.opcode_handlers
                0x00038fd0      0x170 examples/dfu/CMakeFiles/dfu_no_serial_nrf52840_xxAA_s140_6.0.0.dir/__/__/models/config/src/config_server.c.obj
 .rodata.m_opcode_handlers
                0x00039140       0x58 examples/dfu/CMakeFiles/dfu_no_serial_nrf52840_xxAA_s140_6.0.0.dir/__/__/models/health/src/health_server.c.obj
 .rodata.multiply_de_bruijn_bit_position.9597
                0x00039198       0x20 examples/dfu/CMakeFiles/dfu_no_serial_nrf52840_xxAA_s140_6.0.0.dir/__/__/models/health/src/health_server.c.obj
 .rodata.m_prov_callbacks
                0x000391b8       0x10 examples/dfu/CMakeFiles/dfu_no_serial_nrf52840_xxAA_s140_6.0.0.dir/__/__/mesh/prov/src/prov_provisionee.c.obj
 .rodata.prov_provisionee_cb_ack_received.str1.1
                0x000391c8       0x53 examples/dfu/CMakeFiles/dfu_no_serial_nrf52840_xxAA_s140_6.0.0.dir/__/__/mesh/prov/src/prov_provisionee.c.obj
 .rodata.multiply_de_bruijn_bit_position.9606
                0x0003921b       0x20 examples/dfu/CMakeFiles/dfu_no_serial_nrf52840_xxAA_s140_6.0.0.dir/__/__/mesh/prov/src/nrf_mesh_prov.c.obj
 .rodata.pdu_sizes.11531
                0x0003923b        0xa examples/dfu/CMakeFiles/dfu_no_serial_nrf52840_xxAA_s140_6.0.0.dir/__/__/mesh/prov/src/provisioning.c.obj
 .rodata.alphanumeric.11636
                0x00039245       0x25 examples/dfu/CMakeFiles/dfu_no_serial_nrf52840_xxAA_s140_6.0.0.dir/__/__/mesh/prov/src/prov_utils.c.obj
 *fill*         0x0003926a        0x2 
 .rodata.numeric_max.11630
                0x0003926c       0x24 examples/dfu/CMakeFiles/dfu_no_serial_nrf52840_xxAA_s140_6.0.0.dir/__/__/mesh/prov/src/prov_utils.c.obj
 .rodata.prov_utils_authentication_values_derive.str1.1
                0x00039290        0x5 examples/dfu/CMakeFiles/dfu_no_serial_nrf52840_xxAA_s140_6.0.0.dir/__/__/mesh/prov/src/prov_utils.c.obj
 .rodata.prov_utils_derive_keys.str1.1
                0x00039295        0xf examples/dfu/CMakeFiles/dfu_no_serial_nrf52840_xxAA_s140_6.0.0.dir/__/__/mesh/prov/src/prov_utils.c.obj
 .rodata.add_active_bearer.str1.1
                0x000392a4       0x2c examples/dfu/CMakeFiles/dfu_no_serial_nrf52840_xxAA_s140_6.0.0.dir/__/__/mesh/prov/src/prov_bearer_adv.c.obj
 .rodata.crctable.11265
                0x000392d0      0x100 examples/dfu/CMakeFiles/dfu_no_serial_nrf52840_xxAA_s140_6.0.0.dir/__/__/mesh/prov/src/prov_bearer_adv.c.obj
 .rodata.interface.11495
                0x000393d0       0x14 examples/dfu/CMakeFiles/dfu_no_serial_nrf52840_xxAA_s140_6.0.0.dir/__/__/mesh/prov/src/prov_bearer_adv.c.obj
 .rodata.prov_bearer_adv_packet_in.str1.1
                0x000393e4      0x26e examples/dfu/CMakeFiles/dfu_no_serial_nrf52840_xxAA_s140_6.0.0.dir/__/__/mesh/prov/src/prov_bearer_adv.c.obj
 .rodata.tx_retry_cb.str1.1
                0x00039652       0x37 examples/dfu/CMakeFiles/dfu_no_serial_nrf52840_xxAA_s140_6.0.0.dir/__/__/mesh/prov/src/prov_bearer_adv.c.obj
 .rodata.abort_timeout.str1.1
                0x00039689       0x19 examples/dfu/CMakeFiles/dfu_no_serial_nrf52840_xxAA_s140_6.0.0.dir/__/__/mesh/dfu/src/nrf_mesh_dfu.c.obj
 .rodata.dfu_evt_handler.str1.1
                0x000396a2      0x182 examples/dfu/CMakeFiles/dfu_no_serial_nrf52840_xxAA_s140_6.0.0.dir/__/__/mesh/dfu/src/nrf_mesh_dfu.c.obj
 .rodata.flash_op_complete.str1.1
                0x00039824       0x3b examples/dfu/CMakeFiles/dfu_no_serial_nrf52840_xxAA_s140_6.0.0.dir/__/__/mesh/dfu/src/nrf_mesh_dfu.c.obj
 .rodata.m_adv_channels
                0x0003985f        0x3 examples/dfu/CMakeFiles/dfu_no_serial_nrf52840_xxAA_s140_6.0.0.dir/__/__/mesh/dfu/src/nrf_mesh_dfu.c.obj
 .rodata.nrf_mesh_dfu_cmd_send.str1.1
                0x00039862       0x18 examples/dfu/CMakeFiles/dfu_no_serial_nrf52840_xxAA_s140_6.0.0.dir/__/__/mesh/dfu/src/nrf_mesh_dfu.c.obj
 .rodata.timer_timeout.str1.1
                0x0003987a       0x18 examples/dfu/CMakeFiles/dfu_no_serial_nrf52840_xxAA_s140_6.0.0.dir/__/__/mesh/dfu/src/nrf_mesh_dfu.c.obj
                                 0x13 (size before relaxing)
 .rodata.app_error_fault_handler.str1.1
                0x0003987a       0xbd examples/dfu/CMakeFiles/dfu_no_serial_nrf52840_xxAA_s140_6.0.0.dir/__/common/src/app_error_weak.c.obj
 .rodata.mesh_assertion_handler.str1.1
                0x00039937       0xbd examples/dfu/CMakeFiles/dfu_no_serial_nrf52840_xxAA_s140_6.0.0.dir/__/common/src/assertion_handler_weak.c.obj
                                  0x1 (size before relaxing)
 .rodata.sar_ctx_cancel.str1.1
                0x00039937       0x23 examples/dfu/CMakeFiles/dfu_no_serial_nrf52840_xxAA_s140_6.0.0.dir/__/__/mesh/core/src/transport.c.obj
 .rodata.test_transport_decrypt.str1.1
                0x0003995a       0x30 examples/dfu/CMakeFiles/dfu_no_serial_nrf52840_xxAA_s140_6.0.0.dir/__/__/mesh/core/src/transport.c.obj
 .rodata.transport_packet_in.str1.1
                0x0003998a       0x24 examples/dfu/CMakeFiles/dfu_no_serial_nrf52840_xxAA_s140_6.0.0.dir/__/__/mesh/core/src/transport.c.obj
 .rodata.upper_transport_access_packet_in.str1.1
                0x000399ae       0x29 examples/dfu/CMakeFiles/dfu_no_serial_nrf52840_xxAA_s140_6.0.0.dir/__/__/mesh/core/src/transport.c.obj
 .rodata.upper_transport_packet_in.str1.1
                0x000399d7       0x2e examples/dfu/CMakeFiles/dfu_no_serial_nrf52840_xxAA_s140_6.0.0.dir/__/__/mesh/core/src/transport.c.obj
 .rodata.upper_transport_tx.str1.1
                0x00039a05        0xe examples/dfu/CMakeFiles/dfu_no_serial_nrf52840_xxAA_s140_6.0.0.dir/__/__/mesh/core/src/transport.c.obj
                                 0x16 (size before relaxing)
 *fill*         0x00039a13        0x1 
 .rodata.m_procedure_steps
                0x00039a14       0x28 examples/dfu/CMakeFiles/dfu_no_serial_nrf52840_xxAA_s140_6.0.0.dir/__/__/mesh/core/src/flash_manager_defrag.c.obj
 .rodata.m_all_operations
                0x00039a3c       0x10 examples/dfu/CMakeFiles/dfu_no_serial_nrf52840_xxAA_s140_6.0.0.dir/__/__/mesh/core/src/mesh_flash.c.obj
 .rodata.types_lookup.9352
                0x00039a4c        0x4 examples/dfu/CMakeFiles/dfu_no_serial_nrf52840_xxAA_s140_6.0.0.dir/__/__/mesh/core/src/nrf_mesh_utils.c.obj
 .rodata.__func__.11824
                0x00039a50       0x15 examples/dfu/CMakeFiles/dfu_no_serial_nrf52840_xxAA_s140_6.0.0.dir/__/__/mesh/core/src/nrf_mesh.c.obj
 .rodata.nrf_mesh_listen.str1.1
                0x00039a65       0x70 examples/dfu/CMakeFiles/dfu_no_serial_nrf52840_xxAA_s140_6.0.0.dir/__/__/mesh/core/src/nrf_mesh.c.obj
 .rodata.nrf_mesh_packet_send.str1.1
                0x00039ad5       0x70 examples/dfu/CMakeFiles/dfu_no_serial_nrf52840_xxAA_s140_6.0.0.dir/__/__/mesh/core/src/nrf_mesh.c.obj
                                  0x4 (size before relaxing)
 *fill*         0x00039ad5        0x1 
 .rodata.CSWTCH.7
                0x00039ad6       0x10 examples/dfu/CMakeFiles/dfu_no_serial_nrf52840_xxAA_s140_6.0.0.dir/__/__/mesh/core/src/hal.c.obj
 .rodata.Rb.7608
                0x00039ae6       0x10 examples/dfu/CMakeFiles/dfu_no_serial_nrf52840_xxAA_s140_6.0.0.dir/__/__/mesh/core/src/aes_cmac.c.obj
 .rodata        0x00039af6       0x15 examples/dfu/CMakeFiles/dfu_no_serial_nrf52840_xxAA_s140_6.0.0.dir/__/__/mesh/core/src/enc.c.obj
 .rodata.network_packet_in.str1.1
                0x00039b0b       0x48 examples/dfu/CMakeFiles/dfu_no_serial_nrf52840_xxAA_s140_6.0.0.dir/__/__/mesh/core/src/network.c.obj
 .rodata.net_packet_decrypt.str1.1
                0x00039b53       0x31 examples/dfu/CMakeFiles/dfu_no_serial_nrf52840_xxAA_s140_6.0.0.dir/__/__/mesh/core/src/net_packet.c.obj
                                 0x39 (size before relaxing)
 .rodata        0x00039b84        0x7 examples/dfu/CMakeFiles/dfu_no_serial_nrf52840_xxAA_s140_6.0.0.dir/__/__/mesh/core/src/nrf_mesh_keygen.c.obj
 .rodata.log_callback_rtt.str1.1
                0x00039b8b       0x15 examples/dfu/CMakeFiles/dfu_no_serial_nrf52840_xxAA_s140_6.0.0.dir/__/__/mesh/core/src/log.c.obj
 .rodata.str1.1
                0x00039ba0       0x11 examples/dfu/CMakeFiles/dfu_no_serial_nrf52840_xxAA_s140_6.0.0.dir/__/__/mesh/core/src/log.c.obj
 *fill*         0x00039bb1        0x3 
 .rodata.INVALID_HEADER
                0x00039bb4        0x4 examples/dfu/CMakeFiles/dfu_no_serial_nrf52840_xxAA_s140_6.0.0.dir/__/__/mesh/core/src/flash_manager.c.obj
                0x00039bb4                INVALID_HEADER
 .rodata.PADDING_HEADER
                0x00039bb8        0x4 examples/dfu/CMakeFiles/dfu_no_serial_nrf52840_xxAA_s140_6.0.0.dir/__/__/mesh/core/src/flash_manager.c.obj
                0x00039bb8                PADDING_HEADER
 .rodata.SEAL_HEADER
                0x00039bbc        0x4 examples/dfu/CMakeFiles/dfu_no_serial_nrf52840_xxAA_s140_6.0.0.dir/__/__/mesh/core/src/flash_manager.c.obj
                0x00039bbc                SEAL_HEADER
 .rodata.beacon_packet_in.str1.1
                0x00039bc0       0x51 examples/dfu/CMakeFiles/dfu_no_serial_nrf52840_xxAA_s140_6.0.0.dir/__/__/mesh/core/src/beacon.c.obj
                                 0x59 (size before relaxing)
 *fill*         0x00039c11        0x3 
 .rodata.cp_handler
                0x00039c14        0x8 examples/dfu/CMakeFiles/dfu_no_serial_nrf52840_xxAA_s140_6.0.0.dir/__/__/mesh/core/src/heartbeat.c.obj
 .rodata.beacon_tx.str1.1
                0x00039c1c       0x35 examples/dfu/CMakeFiles/dfu_no_serial_nrf52840_xxAA_s140_6.0.0.dir/__/__/mesh/core/src/net_beacon.c.obj
 .rodata.net_beacon_init.str1.1
                0x00039c51        0x5 examples/dfu/CMakeFiles/dfu_no_serial_nrf52840_xxAA_s140_6.0.0.dir/__/__/mesh/core/src/net_beacon.c.obj
 *fill*         0x00039c56        0x2 
 .rodata.m_interface
                0x00039c58        0xc examples/dfu/CMakeFiles/dfu_no_serial_nrf52840_xxAA_s140_6.0.0.dir/__/__/mesh/core/src/core_tx_adv.c.obj
 .rodata.radio_mode_to_us_per_byte.9745
                0x00039c64        0x6 examples/dfu/CMakeFiles/dfu_no_serial_nrf52840_xxAA_s140_6.0.0.dir/__/__/mesh/bearer/src/broadcast.c.obj
 .rodata.channel_rf_offsets.8986
                0x00039c6a       0x28 examples/dfu/CMakeFiles/dfu_no_serial_nrf52840_xxAA_s140_6.0.0.dir/__/__/mesh/bearer/src/radio_config.c.obj
 .rodata        0x00039c92        0x3 examples/dfu/CMakeFiles/dfu_no_serial_nrf52840_xxAA_s140_6.0.0.dir/__/__/mesh/bearer/src/scanner.c.obj
 .rodata._DoInit.str1.1
                0x00039c95       0x14 external/rtt/librtt_nrf52840_xxAA.a(SEGGER_RTT.c.obj)
 .rodata._aV2C.5497
                0x00039ca9       0x10 external/rtt/librtt_nrf52840_xxAA.a(SEGGER_RTT_printf.c.obj)
 *fill*         0x00039cb9        0x3 
 .rodata.curve_secp256r1
                0x00039cbc       0xb0 external/micro-ecc/libuECC_nrf52840_xxAA.a(uECC.c.obj)
 .rodata._global_impure_ptr
                0x00039d6c        0x4 c:/mesh/arm_gcc/bin/../lib/gcc/arm-none-eabi/6.3.1/../../../../arm-none-eabi/lib/thumb/v7e-m/fpv4-sp/hard\libg_nano.a(lib_a-impure.o)
                0x00039d6c                _global_impure_ptr
 *(.eh_frame*)
 .eh_frame      0x00039d70        0x0 c:/mesh/arm_gcc/bin/../lib/gcc/arm-none-eabi/6.3.1/thumb/v7e-m/fpv4-sp/hard/crtbegin.o
 .eh_frame      0x00039d70        0x4 c:/mesh/arm_gcc/bin/../lib/gcc/arm-none-eabi/6.3.1/thumb/v7e-m/fpv4-sp/hard/crtend.o

.glue_7         0x00039d74        0x0
 .glue_7        0x00039d74        0x0 linker stubs

.glue_7t        0x00039d74        0x0
 .glue_7t       0x00039d74        0x0 linker stubs

.vfp11_veneer   0x00039d74        0x0
 .vfp11_veneer  0x00039d74        0x0 linker stubs

.v4_bx          0x00039d74        0x0
 .v4_bx         0x00039d74        0x0 linker stubs

.iplt           0x00039d74        0x0
 .iplt          0x00039d74        0x0 c:/mesh/arm_gcc/bin/../lib/gcc/arm-none-eabi/6.3.1/thumb/v7e-m/fpv4-sp/hard/crtbegin.o

.pwr_mgmt_data  0x00039d74        0x0
                [!provide]                PROVIDE (__start_pwr_mgmt_data, .)
 *(SORT(.pwr_mgmt_data*))
                [!provide]                PROVIDE (__stop_pwr_mgmt_data, .)

.log_const_data
                0x00039d74        0x0
                [!provide]                PROVIDE (__start_log_const_data, .)
 *(.log_const_data)
                [!provide]                PROVIDE (__stop_log_const_data, .)

.cli_command    0x00039d74        0x0
                [!provide]                PROVIDE (__start_cli_command, .)
 *(.cli_command)
                [!provide]                PROVIDE (__stop_cli_command, .)

.sdh_stack_observers
                0x00039d74        0x0
                [!provide]                PROVIDE (__start_sdh_stack_observers, .)
 *(SORT(.sdh_stack_observers*))
                [!provide]                PROVIDE (__stop_sdh_stack_observers, .)

.sdh_req_observers
                0x00039d74        0x0
                [!provide]                PROVIDE (__start_sdh_req_observers, .)
 *(SORT(.sdh_req_observers*))
                [!provide]                PROVIDE (__stop_sdh_req_observers, .)

.sdh_state_observers
                0x00039d74        0x0
                [!provide]                PROVIDE (__start_sdh_state_observers, .)
 *(SORT(.sdh_state_observers*))
                [!provide]                PROVIDE (__stop_sdh_state_observers, .)

.sdh_ant_observers
                0x00039d74        0x0
                [!provide]                PROVIDE (__start_sdh_ant_observers, .)
 *(SORT(.sdh_ant_observers*))
                [!provide]                PROVIDE (__stop_sdh_ant_observers, .)

.sdh_ble_observers
                0x00039d74        0x0
                [!provide]                PROVIDE (__start_sdh_ble_observers, .)
 *(SORT(.sdh_ble_observers*))
                [!provide]                PROVIDE (__stop_sdh_ble_observers, .)

.sdh_soc_observers
                0x00039d74        0x0
                [!provide]                PROVIDE (__start_sdh_soc_observers, .)
 *(SORT(.sdh_soc_observers*))
                [!provide]                PROVIDE (__stop_sdh_soc_observers, .)

.ARM.extab
 *(.ARM.extab* .gnu.linkonce.armextab.*)
                0x00039d74                __exidx_start = .

.ARM.exidx      0x00039d74        0x8
 *(.ARM.exidx* .gnu.linkonce.armexidx.*)
 .ARM.exidx     0x00039d74        0x8 c:/mesh/arm_gcc/bin/../lib/gcc/arm-none-eabi/6.3.1/../../../../arm-none-eabi/lib/thumb/v7e-m/fpv4-sp/hard/crt0.o
                0x00039d7c                __exidx_end = .
                0x00039d7c                __etext = .

.rel.dyn        0x00039d7c        0x0
 .rel.iplt      0x00039d7c        0x0 c:/mesh/arm_gcc/bin/../lib/gcc/arm-none-eabi/6.3.1/thumb/v7e-m/fpv4-sp/hard/crtbegin.o

.data           0x200032c8      0x14c load address 0x00039d7c
                0x200032c8                __data_start__ = .
 *(vtable)
 *(.data*)
 .data.rom_base
                0x200032c8        0x4 examples/dfu/CMakeFiles/dfu_no_serial_nrf52840_xxAA_s140_6.0.0.dir/src/main.c.obj
                0x200032c8                rom_base
 .data.rom_end  0x200032cc        0x4 examples/dfu/CMakeFiles/dfu_no_serial_nrf52840_xxAA_s140_6.0.0.dir/src/main.c.obj
                0x200032cc                rom_end
 .data.s_evt_handler.11348
                0x200032d0        0x8 examples/dfu/CMakeFiles/dfu_no_serial_nrf52840_xxAA_s140_6.0.0.dir/__/__/mesh/stack/src/mesh_stack.c.obj
 .data.flash_add_mem_available_struct.10677
                0x200032d8       0x10 examples/dfu/CMakeFiles/dfu_no_serial_nrf52840_xxAA_s140_6.0.0.dir/__/__/mesh/access/src/access.c.obj
 .data.flash_clear_mem_available_struct.10766
                0x200032e8       0x10 examples/dfu/CMakeFiles/dfu_no_serial_nrf52840_xxAA_s140_6.0.0.dir/__/__/mesh/access/src/access.c.obj
 .data.flash_store_mem_available_struct.10790
                0x200032f8       0x10 examples/dfu/CMakeFiles/dfu_no_serial_nrf52840_xxAA_s140_6.0.0.dir/__/__/mesh/access/src/access.c.obj
 .data.m_default_ttl
                0x20003308        0x1 examples/dfu/CMakeFiles/dfu_no_serial_nrf52840_xxAA_s140_6.0.0.dir/__/__/mesh/access/src/access.c.obj
 *fill*         0x20003309        0x3 
 .data.mem_listener.10966
                0x2000330c       0x10 examples/dfu/CMakeFiles/dfu_no_serial_nrf52840_xxAA_s140_6.0.0.dir/__/__/mesh/access/src/device_state_manager.c.obj
 .data.mem_listener.10992
                0x2000331c       0x10 examples/dfu/CMakeFiles/dfu_no_serial_nrf52840_xxAA_s140_6.0.0.dir/__/__/mesh/access/src/device_state_manager.c.obj
 .data.m_config_server_handle
                0x2000332c        0x2 examples/dfu/CMakeFiles/dfu_no_serial_nrf52840_xxAA_s140_6.0.0.dir/__/__/models/config/src/config_server.c.obj
 *fill*         0x2000332e        0x2 
 .data.m_mesh_evt_handler
                0x20003330        0x8 examples/dfu/CMakeFiles/dfu_no_serial_nrf52840_xxAA_s140_6.0.0.dir/__/__/models/config/src/config_server.c.obj
 .data.m_async_process_flag
                0x20003338        0x4 examples/dfu/CMakeFiles/dfu_no_serial_nrf52840_xxAA_s140_6.0.0.dir/__/__/mesh/prov/src/prov_bearer_adv.c.obj
 .data.wait.9229
                0x2000333c        0x1 examples/dfu/CMakeFiles/dfu_no_serial_nrf52840_xxAA_s140_6.0.0.dir/__/common/src/app_error_weak.c.obj
 *fill*         0x2000333d        0x3 
 .data.mem_listener.10103
                0x20003340       0x10 examples/dfu/CMakeFiles/dfu_no_serial_nrf52840_xxAA_s140_6.0.0.dir/__/__/mesh/core/src/net_state.c.obj
 .data.mem_listener.10108
                0x20003350       0x10 examples/dfu/CMakeFiles/dfu_no_serial_nrf52840_xxAA_s140_6.0.0.dir/__/__/mesh/core/src/net_state.c.obj
 .data.mem_listener.10122
                0x20003360       0x10 examples/dfu/CMakeFiles/dfu_no_serial_nrf52840_xxAA_s140_6.0.0.dir/__/__/mesh/core/src/net_state.c.obj
 .data.mem_listener.10139
                0x20003370       0x10 examples/dfu/CMakeFiles/dfu_no_serial_nrf52840_xxAA_s140_6.0.0.dir/__/__/mesh/core/src/net_state.c.obj
 .data.m_nrf_mesh_listener
                0x20003380        0xc examples/dfu/CMakeFiles/dfu_no_serial_nrf52840_xxAA_s140_6.0.0.dir/__/__/mesh/core/src/nrf_mesh.c.obj
 .data.g_log_dbg_lvl
                0x2000338c        0x4 examples/dfu/CMakeFiles/dfu_no_serial_nrf52840_xxAA_s140_6.0.0.dir/__/__/mesh/core/src/log.c.obj
                0x2000338c                g_log_dbg_lvl
 .data.g_log_dbg_msk
                0x20003390        0x4 examples/dfu/CMakeFiles/dfu_no_serial_nrf52840_xxAA_s140_6.0.0.dir/__/__/mesh/core/src/log.c.obj
                0x20003390                g_log_dbg_msk
 .data.g_log_hex_digits
                0x20003394        0x4 examples/dfu/CMakeFiles/dfu_no_serial_nrf52840_xxAA_s140_6.0.0.dir/__/__/mesh/core/src/log.c.obj
                0x20003394                g_log_hex_digits
 .data.m_log_callback
                0x20003398        0x4 examples/dfu/CMakeFiles/dfu_no_serial_nrf52840_xxAA_s140_6.0.0.dir/__/__/mesh/core/src/log.c.obj
                0x20003398                m_log_callback
 .data.SystemCoreClock
                0x2000339c        0x4 examples/dfu/CMakeFiles/dfu_no_serial_nrf52840_xxAA_s140_6.0.0.dir/C_/b/nRF5_SDK_15.0.0_a53641a/modules/nrfx/mdk/system_nrf52840.c.obj
                0x2000339c                SystemCoreClock
 .data.g_rng_function
                0x200033a0        0x4 external/micro-ecc/libuECC_nrf52840_xxAA.a(uECC.c.obj)
 .data._impure_ptr
                0x200033a4        0x4 c:/mesh/arm_gcc/bin/../lib/gcc/arm-none-eabi/6.3.1/../../../../arm-none-eabi/lib/thumb/v7e-m/fpv4-sp/hard\libg_nano.a(lib_a-impure.o)
                0x200033a4                _impure_ptr
 .data.impure_data
                0x200033a8       0x60 c:/mesh/arm_gcc/bin/../lib/gcc/arm-none-eabi/6.3.1/../../../../arm-none-eabi/lib/thumb/v7e-m/fpv4-sp/hard\libg_nano.a(lib_a-impure.o)
                0x20003408                . = ALIGN (0x4)
                0x20003408                PROVIDE (__preinit_array_start, .)
 *(.preinit_array)
                0x20003408                PROVIDE (__preinit_array_end, .)
                0x20003408                . = ALIGN (0x4)
                0x20003408                PROVIDE (__init_array_start, .)
 *(SORT(.init_array.*))
 *(.init_array)
 .init_array    0x20003408        0x4 c:/mesh/arm_gcc/bin/../lib/gcc/arm-none-eabi/6.3.1/thumb/v7e-m/fpv4-sp/hard/crtbegin.o
                0x2000340c                PROVIDE (__init_array_end, .)
                0x2000340c                . = ALIGN (0x4)
                [!provide]                PROVIDE (__fini_array_start, .)
 *(SORT(.fini_array.*))
 *(.fini_array)
 .fini_array    0x2000340c        0x4 c:/mesh/arm_gcc/bin/../lib/gcc/arm-none-eabi/6.3.1/thumb/v7e-m/fpv4-sp/hard/crtbegin.o
                [!provide]                PROVIDE (__fini_array_end, .)
 *(.jcr*)
 .jcr           0x20003410        0x0 c:/mesh/arm_gcc/bin/../lib/gcc/arm-none-eabi/6.3.1/thumb/v7e-m/fpv4-sp/hard/crtbegin.o
 .jcr           0x20003410        0x4 c:/mesh/arm_gcc/bin/../lib/gcc/arm-none-eabi/6.3.1/thumb/v7e-m/fpv4-sp/hard/crtend.o
                0x20003414                . = ALIGN (0x4)
                0x20003414                __data_end__ = .
LOAD c:/mesh/arm_gcc/bin/../lib/gcc/arm-none-eabi/6.3.1/thumb/v7e-m/fpv4-sp/hard/crti.o
LOAD c:/mesh/arm_gcc/bin/../lib/gcc/arm-none-eabi/6.3.1/thumb/v7e-m/fpv4-sp/hard/crtbegin.o
LOAD c:/mesh/arm_gcc/bin/../lib/gcc/arm-none-eabi/6.3.1/../../../../arm-none-eabi/lib/thumb/v7e-m/fpv4-sp/hard/crt0.o
LOAD examples/dfu/CMakeFiles/dfu_no_serial_nrf52840_xxAA_s140_6.0.0.dir/src/main.c.obj
LOAD examples/dfu/CMakeFiles/dfu_no_serial_nrf52840_xxAA_s140_6.0.0.dir/__/__/mesh/stack/src/mesh_stack.c.obj
LOAD examples/dfu/CMakeFiles/dfu_no_serial_nrf52840_xxAA_s140_6.0.0.dir/__/common/src/mesh_softdevice_init.c.obj
LOAD examples/dfu/CMakeFiles/dfu_no_serial_nrf52840_xxAA_s140_6.0.0.dir/__/common/src/mesh_provisionee.c.obj
LOAD examples/dfu/CMakeFiles/dfu_no_serial_nrf52840_xxAA_s140_6.0.0.dir/__/common/src/simple_hal.c.obj
LOAD examples/dfu/CMakeFiles/dfu_no_serial_nrf52840_xxAA_s140_6.0.0.dir/__/__/mesh/access/src/access_publish.c.obj
LOAD examples/dfu/CMakeFiles/dfu_no_serial_nrf52840_xxAA_s140_6.0.0.dir/__/__/mesh/access/src/access.c.obj
LOAD examples/dfu/CMakeFiles/dfu_no_serial_nrf52840_xxAA_s140_6.0.0.dir/__/__/mesh/access/src/access_reliable.c.obj
LOAD examples/dfu/CMakeFiles/dfu_no_serial_nrf52840_xxAA_s140_6.0.0.dir/__/__/mesh/access/src/device_state_manager.c.obj
LOAD examples/dfu/CMakeFiles/dfu_no_serial_nrf52840_xxAA_s140_6.0.0.dir/__/__/models/config/src/composition_data.c.obj
LOAD examples/dfu/CMakeFiles/dfu_no_serial_nrf52840_xxAA_s140_6.0.0.dir/__/__/models/config/src/config_server.c.obj
LOAD examples/dfu/CMakeFiles/dfu_no_serial_nrf52840_xxAA_s140_6.0.0.dir/__/__/models/config/src/packed_index_list.c.obj
LOAD examples/dfu/CMakeFiles/dfu_no_serial_nrf52840_xxAA_s140_6.0.0.dir/__/__/models/health/src/health_server.c.obj
LOAD examples/dfu/CMakeFiles/dfu_no_serial_nrf52840_xxAA_s140_6.0.0.dir/__/__/mesh/prov/src/prov_provisioner.c.obj
LOAD examples/dfu/CMakeFiles/dfu_no_serial_nrf52840_xxAA_s140_6.0.0.dir/__/__/mesh/prov/src/prov_provisionee.c.obj
LOAD examples/dfu/CMakeFiles/dfu_no_serial_nrf52840_xxAA_s140_6.0.0.dir/__/__/mesh/prov/src/nrf_mesh_prov.c.obj
LOAD examples/dfu/CMakeFiles/dfu_no_serial_nrf52840_xxAA_s140_6.0.0.dir/__/__/mesh/prov/src/provisioning.c.obj
LOAD examples/dfu/CMakeFiles/dfu_no_serial_nrf52840_xxAA_s140_6.0.0.dir/__/__/mesh/prov/src/prov_beacon.c.obj
LOAD examples/dfu/CMakeFiles/dfu_no_serial_nrf52840_xxAA_s140_6.0.0.dir/__/__/mesh/prov/src/prov_utils.c.obj
LOAD examples/dfu/CMakeFiles/dfu_no_serial_nrf52840_xxAA_s140_6.0.0.dir/__/__/mesh/prov/src/prov_bearer_adv.c.obj
LOAD examples/dfu/CMakeFiles/dfu_no_serial_nrf52840_xxAA_s140_6.0.0.dir/__/__/mesh/dfu/src/nrf_mesh_dfu.c.obj
LOAD examples/dfu/CMakeFiles/dfu_no_serial_nrf52840_xxAA_s140_6.0.0.dir/__/nrf_mesh_weak.c.obj
LOAD examples/dfu/CMakeFiles/dfu_no_serial_nrf52840_xxAA_s140_6.0.0.dir/__/common/src/app_error_weak.c.obj
LOAD examples/dfu/CMakeFiles/dfu_no_serial_nrf52840_xxAA_s140_6.0.0.dir/__/common/src/assertion_handler_weak.c.obj
LOAD examples/dfu/CMakeFiles/dfu_no_serial_nrf52840_xxAA_s140_6.0.0.dir/__/__/mesh/core/src/internal_event.c.obj
LOAD examples/dfu/CMakeFiles/dfu_no_serial_nrf52840_xxAA_s140_6.0.0.dir/__/__/mesh/core/src/nrf_mesh_configure.c.obj
LOAD examples/dfu/CMakeFiles/dfu_no_serial_nrf52840_xxAA_s140_6.0.0.dir/__/__/mesh/core/src/aes.c.obj
LOAD examples/dfu/CMakeFiles/dfu_no_serial_nrf52840_xxAA_s140_6.0.0.dir/__/__/mesh/core/src/msg_cache.c.obj
LOAD examples/dfu/CMakeFiles/dfu_no_serial_nrf52840_xxAA_s140_6.0.0.dir/__/__/mesh/core/src/transport.c.obj
LOAD examples/dfu/CMakeFiles/dfu_no_serial_nrf52840_xxAA_s140_6.0.0.dir/__/__/mesh/core/src/event.c.obj
LOAD examples/dfu/CMakeFiles/dfu_no_serial_nrf52840_xxAA_s140_6.0.0.dir/__/__/mesh/core/src/packet_buffer.c.obj
LOAD examples/dfu/CMakeFiles/dfu_no_serial_nrf52840_xxAA_s140_6.0.0.dir/__/__/mesh/core/src/flash_manager_defrag.c.obj
LOAD examples/dfu/CMakeFiles/dfu_no_serial_nrf52840_xxAA_s140_6.0.0.dir/__/__/mesh/core/src/fifo.c.obj
LOAD examples/dfu/CMakeFiles/dfu_no_serial_nrf52840_xxAA_s140_6.0.0.dir/__/__/mesh/core/src/nrf_flash.c.obj
LOAD examples/dfu/CMakeFiles/dfu_no_serial_nrf52840_xxAA_s140_6.0.0.dir/__/__/mesh/core/src/packet_mgr.c.obj
LOAD examples/dfu/CMakeFiles/dfu_no_serial_nrf52840_xxAA_s140_6.0.0.dir/__/__/mesh/core/src/net_state.c.obj
LOAD examples/dfu/CMakeFiles/dfu_no_serial_nrf52840_xxAA_s140_6.0.0.dir/__/__/mesh/core/src/mesh_flash.c.obj
LOAD examples/dfu/CMakeFiles/dfu_no_serial_nrf52840_xxAA_s140_6.0.0.dir/__/__/mesh/core/src/nrf_mesh_utils.c.obj
LOAD examples/dfu/CMakeFiles/dfu_no_serial_nrf52840_xxAA_s140_6.0.0.dir/__/__/mesh/core/src/nrf_mesh.c.obj
LOAD examples/dfu/CMakeFiles/dfu_no_serial_nrf52840_xxAA_s140_6.0.0.dir/__/__/mesh/core/src/queue.c.obj
LOAD examples/dfu/CMakeFiles/dfu_no_serial_nrf52840_xxAA_s140_6.0.0.dir/__/__/mesh/core/src/hal.c.obj
LOAD examples/dfu/CMakeFiles/dfu_no_serial_nrf52840_xxAA_s140_6.0.0.dir/__/__/mesh/core/src/aes_cmac.c.obj
LOAD examples/dfu/CMakeFiles/dfu_no_serial_nrf52840_xxAA_s140_6.0.0.dir/__/__/mesh/core/src/timer_scheduler.c.obj
LOAD examples/dfu/CMakeFiles/dfu_no_serial_nrf52840_xxAA_s140_6.0.0.dir/__/__/mesh/core/src/timer.c.obj
LOAD examples/dfu/CMakeFiles/dfu_no_serial_nrf52840_xxAA_s140_6.0.0.dir/__/__/mesh/core/src/ticker.c.obj
LOAD examples/dfu/CMakeFiles/dfu_no_serial_nrf52840_xxAA_s140_6.0.0.dir/__/__/mesh/core/src/rand.c.obj
LOAD examples/dfu/CMakeFiles/dfu_no_serial_nrf52840_xxAA_s140_6.0.0.dir/__/__/mesh/core/src/nrf_mesh_opt.c.obj
LOAD examples/dfu/CMakeFiles/dfu_no_serial_nrf52840_xxAA_s140_6.0.0.dir/__/__/mesh/core/src/timeslot.c.obj
LOAD examples/dfu/CMakeFiles/dfu_no_serial_nrf52840_xxAA_s140_6.0.0.dir/__/__/mesh/core/src/bearer_event.c.obj
LOAD examples/dfu/CMakeFiles/dfu_no_serial_nrf52840_xxAA_s140_6.0.0.dir/__/__/mesh/core/src/enc.c.obj
LOAD examples/dfu/CMakeFiles/dfu_no_serial_nrf52840_xxAA_s140_6.0.0.dir/__/__/mesh/core/src/network.c.obj
LOAD examples/dfu/CMakeFiles/dfu_no_serial_nrf52840_xxAA_s140_6.0.0.dir/__/__/mesh/core/src/net_packet.c.obj
LOAD examples/dfu/CMakeFiles/dfu_no_serial_nrf52840_xxAA_s140_6.0.0.dir/__/__/mesh/core/src/msqueue.c.obj
LOAD examples/dfu/CMakeFiles/dfu_no_serial_nrf52840_xxAA_s140_6.0.0.dir/__/__/mesh/core/src/nrf_mesh_keygen.c.obj
LOAD examples/dfu/CMakeFiles/dfu_no_serial_nrf52840_xxAA_s140_6.0.0.dir/__/__/mesh/core/src/cache.c.obj
LOAD examples/dfu/CMakeFiles/dfu_no_serial_nrf52840_xxAA_s140_6.0.0.dir/__/__/mesh/core/src/uri.c.obj
LOAD examples/dfu/CMakeFiles/dfu_no_serial_nrf52840_xxAA_s140_6.0.0.dir/__/__/mesh/core/src/list.c.obj
LOAD examples/dfu/CMakeFiles/dfu_no_serial_nrf52840_xxAA_s140_6.0.0.dir/__/__/mesh/core/src/log.c.obj
LOAD examples/dfu/CMakeFiles/dfu_no_serial_nrf52840_xxAA_s140_6.0.0.dir/__/__/mesh/core/src/flash_manager.c.obj
LOAD examples/dfu/CMakeFiles/dfu_no_serial_nrf52840_xxAA_s140_6.0.0.dir/__/__/mesh/core/src/ccm_soft.c.obj
LOAD examples/dfu/CMakeFiles/dfu_no_serial_nrf52840_xxAA_s140_6.0.0.dir/__/__/mesh/core/src/toolchain.c.obj
LOAD examples/dfu/CMakeFiles/dfu_no_serial_nrf52840_xxAA_s140_6.0.0.dir/__/__/mesh/core/src/replay_cache.c.obj
LOAD examples/dfu/CMakeFiles/dfu_no_serial_nrf52840_xxAA_s140_6.0.0.dir/__/__/mesh/core/src/beacon.c.obj
LOAD examples/dfu/CMakeFiles/dfu_no_serial_nrf52840_xxAA_s140_6.0.0.dir/__/__/mesh/core/src/flash_manager_internal.c.obj
LOAD examples/dfu/CMakeFiles/dfu_no_serial_nrf52840_xxAA_s140_6.0.0.dir/__/__/mesh/core/src/core_tx.c.obj
LOAD examples/dfu/CMakeFiles/dfu_no_serial_nrf52840_xxAA_s140_6.0.0.dir/__/__/mesh/core/src/heartbeat.c.obj
LOAD examples/dfu/CMakeFiles/dfu_no_serial_nrf52840_xxAA_s140_6.0.0.dir/__/__/mesh/core/src/net_beacon.c.obj
LOAD examples/dfu/CMakeFiles/dfu_no_serial_nrf52840_xxAA_s140_6.0.0.dir/__/__/mesh/core/src/fsm.c.obj
LOAD examples/dfu/CMakeFiles/dfu_no_serial_nrf52840_xxAA_s140_6.0.0.dir/__/__/mesh/core/src/core_tx_adv.c.obj
LOAD examples/dfu/CMakeFiles/dfu_no_serial_nrf52840_xxAA_s140_6.0.0.dir/__/__/mesh/bearer/src/ad_listener.c.obj
LOAD examples/dfu/CMakeFiles/dfu_no_serial_nrf52840_xxAA_s140_6.0.0.dir/__/__/mesh/bearer/src/ad_type_filter.c.obj
LOAD examples/dfu/CMakeFiles/dfu_no_serial_nrf52840_xxAA_s140_6.0.0.dir/__/__/mesh/bearer/src/adv_packet_filter.c.obj
LOAD examples/dfu/CMakeFiles/dfu_no_serial_nrf52840_xxAA_s140_6.0.0.dir/__/__/mesh/bearer/src/advertiser.c.obj
LOAD examples/dfu/CMakeFiles/dfu_no_serial_nrf52840_xxAA_s140_6.0.0.dir/__/__/mesh/bearer/src/bearer_handler.c.obj
LOAD examples/dfu/CMakeFiles/dfu_no_serial_nrf52840_xxAA_s140_6.0.0.dir/__/__/mesh/bearer/src/broadcast.c.obj
LOAD examples/dfu/CMakeFiles/dfu_no_serial_nrf52840_xxAA_s140_6.0.0.dir/__/__/mesh/bearer/src/filter_engine.c.obj
LOAD examples/dfu/CMakeFiles/dfu_no_serial_nrf52840_xxAA_s140_6.0.0.dir/__/__/mesh/bearer/src/gap_address_filter.c.obj
LOAD examples/dfu/CMakeFiles/dfu_no_serial_nrf52840_xxAA_s140_6.0.0.dir/__/__/mesh/bearer/src/radio_config.c.obj
LOAD examples/dfu/CMakeFiles/dfu_no_serial_nrf52840_xxAA_s140_6.0.0.dir/__/__/mesh/bearer/src/rssi_filter.c.obj
LOAD examples/dfu/CMakeFiles/dfu_no_serial_nrf52840_xxAA_s140_6.0.0.dir/__/__/mesh/bearer/src/scanner.c.obj
LOAD examples/dfu/CMakeFiles/dfu_no_serial_nrf52840_xxAA_s140_6.0.0.dir/C_/b/nRF5_SDK_15.0.0_a53641a/modules/nrfx/mdk/system_nrf52840.c.obj
LOAD examples/dfu/CMakeFiles/dfu_no_serial_nrf52840_xxAA_s140_6.0.0.dir/C_/b/nRF5_SDK_15.0.0_a53641a/modules/nrfx/mdk/gcc_startup_nrf52840.S.obj
LOAD examples/dfu/CMakeFiles/dfu_no_serial_nrf52840_xxAA_s140_6.0.0.dir/C_/b/nRF5_SDK_15.0.0_a53641a/components/libraries/util/app_error.c.obj
LOAD examples/dfu/CMakeFiles/dfu_no_serial_nrf52840_xxAA_s140_6.0.0.dir/C_/b/nRF5_SDK_15.0.0_a53641a/components/libraries/util/app_error_handler_gcc.c.obj
LOAD external/rtt/librtt_nrf52840_xxAA.a
LOAD external/micro-ecc/libuECC_nrf52840_xxAA.a
START GROUP
LOAD c:/mesh/arm_gcc/bin/../lib/gcc/arm-none-eabi/6.3.1/thumb/v7e-m/fpv4-sp/hard\libgcc.a
LOAD c:/mesh/arm_gcc/bin/../lib/gcc/arm-none-eabi/6.3.1/../../../../arm-none-eabi/lib/thumb/v7e-m/fpv4-sp/hard\libg_nano.a
LOAD c:/mesh/arm_gcc/bin/../lib/gcc/arm-none-eabi/6.3.1/../../../../arm-none-eabi/lib/thumb/v7e-m/fpv4-sp/hard\libc_nano.a
END GROUP
START GROUP
LOAD c:/mesh/arm_gcc/bin/../lib/gcc/arm-none-eabi/6.3.1/thumb/v7e-m/fpv4-sp/hard\libgcc.a
LOAD c:/mesh/arm_gcc/bin/../lib/gcc/arm-none-eabi/6.3.1/../../../../arm-none-eabi/lib/thumb/v7e-m/fpv4-sp/hard\libc_nano.a
END GROUP
LOAD c:/mesh/arm_gcc/bin/../lib/gcc/arm-none-eabi/6.3.1/thumb/v7e-m/fpv4-sp/hard/crtend.o
LOAD c:/mesh/arm_gcc/bin/../lib/gcc/arm-none-eabi/6.3.1/thumb/v7e-m/fpv4-sp/hard/crtn.o
START GROUP
LOAD c:/mesh/arm_gcc/bin/../lib/gcc/arm-none-eabi/6.3.1/thumb/v7e-m/fpv4-sp/hard\libgcc.a
LOAD c:/mesh/arm_gcc/bin/../lib/gcc/arm-none-eabi/6.3.1/../../../../arm-none-eabi/lib/thumb/v7e-m/fpv4-sp/hard\libc.a
LOAD c:/mesh/arm_gcc/bin/../lib/gcc/arm-none-eabi/6.3.1/../../../../arm-none-eabi/lib/thumb/v7e-m/fpv4-sp/hard\libnosys.a
END GROUP

.igot.plt       0x20003414        0x0 load address 0x00039ec8
 .igot.plt      0x20003414        0x0 c:/mesh/arm_gcc/bin/../lib/gcc/arm-none-eabi/6.3.1/thumb/v7e-m/fpv4-sp/hard/crtbegin.o
                0x20003414                . = ALIGN (0x4)

.svc_data       0x20003414        0x0
                [!provide]                PROVIDE (__start_svc_data, .)
 *(.svc_data)
                [!provide]                PROVIDE (__stop_svc_data, .)

.fs_data        0x20003414        0x0
                [!provide]                PROVIDE (__start_fs_data, .)
 *(.fs_data)
                [!provide]                PROVIDE (__stop_fs_data, .)

.log_dynamic_data
                0x20003414        0x0
                [!provide]                PROVIDE (__start_log_dynamic_data, .)
 *(.log_dynamic_data)
                [!provide]                PROVIDE (__stop_log_dynamic_data, .)

.cli_sorted_cmd_ptrs
                0x20003414        0x0
                [!provide]                PROVIDE (__start_cli_sorted_cmd_ptrs, .)
 *(.cli_sorted_cmd_ptrs)
                [!provide]                PROVIDE (__stop_cli_sorted_cmd_ptrs, .)

.bss            0x20003418     0x34ac load address 0x00039ed0
                0x20003418                . = ALIGN (0x4)
                0x20003418                __bss_start__ = .
 *(.bss*)
 .bss           0x20003418       0x1c c:/mesh/arm_gcc/bin/../lib/gcc/arm-none-eabi/6.3.1/thumb/v7e-m/fpv4-sp/hard/crtbegin.o
 .bss.m_device_provisioned
                0x20003434        0x1 examples/dfu/CMakeFiles/dfu_no_serial_nrf52840_xxAA_s140_6.0.0.dir/src/main.c.obj
 *fill*         0x20003435        0x3 
 .bss.m_evt_handler
                0x20003438        0x8 examples/dfu/CMakeFiles/dfu_no_serial_nrf52840_xxAA_s140_6.0.0.dir/src/main.c.obj
 .bss.m_health_server
                0x20003440       0x5c examples/dfu/CMakeFiles/dfu_no_serial_nrf52840_xxAA_s140_6.0.0.dir/__/__/mesh/stack/src/mesh_stack.c.obj
 .bss.m_init_params
                0x2000349c       0x24 examples/dfu/CMakeFiles/dfu_no_serial_nrf52840_xxAA_s140_6.0.0.dir/__/__/mesh/stack/src/mesh_stack.c.obj
 .bss.m_device_provisioned
                0x200034c0        0x1 examples/dfu/CMakeFiles/dfu_no_serial_nrf52840_xxAA_s140_6.0.0.dir/__/common/src/mesh_provisionee.c.obj
 *fill*         0x200034c1        0x3 
 .bss.m_params  0x200034c4        0xc examples/dfu/CMakeFiles/dfu_no_serial_nrf52840_xxAA_s140_6.0.0.dir/__/common/src/mesh_provisionee.c.obj
 .bss.m_private_key
                0x200034d0       0x20 examples/dfu/CMakeFiles/dfu_no_serial_nrf52840_xxAA_s140_6.0.0.dir/__/common/src/mesh_provisionee.c.obj
 .bss.m_prov_bearer_adv
                0x200034f0      0x1c4 examples/dfu/CMakeFiles/dfu_no_serial_nrf52840_xxAA_s140_6.0.0.dir/__/common/src/mesh_provisionee.c.obj
 .bss.m_prov_ctx
                0x200036b4      0x134 examples/dfu/CMakeFiles/dfu_no_serial_nrf52840_xxAA_s140_6.0.0.dir/__/common/src/mesh_provisionee.c.obj
 .bss.m_public_key
                0x200037e8       0x40 examples/dfu/CMakeFiles/dfu_no_serial_nrf52840_xxAA_s140_6.0.0.dir/__/common/src/mesh_provisionee.c.obj
 .bss.m_button_handler_cb
                0x20003828        0x4 examples/dfu/CMakeFiles/dfu_no_serial_nrf52840_xxAA_s140_6.0.0.dir/__/common/src/simple_hal.c.obj
 .bss.m_last_button_press
                0x2000382c        0x4 examples/dfu/CMakeFiles/dfu_no_serial_nrf52840_xxAA_s140_6.0.0.dir/__/common/src/simple_hal.c.obj
 .bss.m_publish_timer
                0x20003830       0x18 examples/dfu/CMakeFiles/dfu_no_serial_nrf52840_xxAA_s140_6.0.0.dir/__/__/mesh/access/src/access_publish.c.obj
 .bss.m_publish_timer_counter
                0x20003848        0x4 examples/dfu/CMakeFiles/dfu_no_serial_nrf52840_xxAA_s140_6.0.0.dir/__/__/mesh/access/src/access_publish.c.obj
 .bss.m_publish_timer_running
                0x2000384c        0x1 examples/dfu/CMakeFiles/dfu_no_serial_nrf52840_xxAA_s140_6.0.0.dir/__/__/mesh/access/src/access_publish.c.obj
 .bss.m_timer_resolution
                0x2000384d        0x1 examples/dfu/CMakeFiles/dfu_no_serial_nrf52840_xxAA_s140_6.0.0.dir/__/__/mesh/access/src/access_publish.c.obj
 *fill*         0x2000384e        0x2 
 .bss.mp_publication_list
                0x20003850        0x4 examples/dfu/CMakeFiles/dfu_no_serial_nrf52840_xxAA_s140_6.0.0.dir/__/__/mesh/access/src/access_publish.c.obj
 .bss.m_element_pool
                0x20003854        0x6 examples/dfu/CMakeFiles/dfu_no_serial_nrf52840_xxAA_s140_6.0.0.dir/__/__/mesh/access/src/access.c.obj
 *fill*         0x2000385a        0x2 
 .bss.m_evt_handler
                0x2000385c        0x8 examples/dfu/CMakeFiles/dfu_no_serial_nrf52840_xxAA_s140_6.0.0.dir/__/__/mesh/access/src/access.c.obj
 .bss.m_flash_manager
                0x20003864       0x24 examples/dfu/CMakeFiles/dfu_no_serial_nrf52840_xxAA_s140_6.0.0.dir/__/__/mesh/access/src/access.c.obj
 .bss.m_flash_not_ready
                0x20003888        0x1 examples/dfu/CMakeFiles/dfu_no_serial_nrf52840_xxAA_s140_6.0.0.dir/__/__/mesh/access/src/access.c.obj
 .bss.m_metadata_stored
                0x20003889        0x1 examples/dfu/CMakeFiles/dfu_no_serial_nrf52840_xxAA_s140_6.0.0.dir/__/__/mesh/access/src/access.c.obj
 *fill*         0x2000388a        0x2 
 .bss.m_model_pool
                0x2000388c       0x68 examples/dfu/CMakeFiles/dfu_no_serial_nrf52840_xxAA_s140_6.0.0.dir/__/__/mesh/access/src/access.c.obj
 .bss.m_subscription_list_pool
                0x200038f4       0x10 examples/dfu/CMakeFiles/dfu_no_serial_nrf52840_xxAA_s140_6.0.0.dir/__/__/mesh/access/src/access.c.obj
 .bss.m_reliable
                0x20003904       0x74 examples/dfu/CMakeFiles/dfu_no_serial_nrf52840_xxAA_s140_6.0.0.dir/__/__/mesh/access/src/access_reliable.c.obj
 .bss.m_addr_nonvirtual_allocated
                0x20003978        0x4 examples/dfu/CMakeFiles/dfu_no_serial_nrf52840_xxAA_s140_6.0.0.dir/__/__/mesh/access/src/device_state_manager.c.obj
 .bss.m_addr_nonvirtual_needs_flashing
                0x2000397c        0x4 examples/dfu/CMakeFiles/dfu_no_serial_nrf52840_xxAA_s140_6.0.0.dir/__/__/mesh/access/src/device_state_manager.c.obj
 .bss.m_addr_unicast_allocated
                0x20003980        0x4 examples/dfu/CMakeFiles/dfu_no_serial_nrf52840_xxAA_s140_6.0.0.dir/__/__/mesh/access/src/device_state_manager.c.obj
 .bss.m_addr_unicast_needs_flashing
                0x20003984        0x4 examples/dfu/CMakeFiles/dfu_no_serial_nrf52840_xxAA_s140_6.0.0.dir/__/__/mesh/access/src/device_state_manager.c.obj
 .bss.m_addr_virtual_allocated
                0x20003988        0x4 examples/dfu/CMakeFiles/dfu_no_serial_nrf52840_xxAA_s140_6.0.0.dir/__/__/mesh/access/src/device_state_manager.c.obj
 .bss.m_addr_virtual_needs_flashing
                0x2000398c        0x4 examples/dfu/CMakeFiles/dfu_no_serial_nrf52840_xxAA_s140_6.0.0.dir/__/__/mesh/access/src/device_state_manager.c.obj
 .bss.m_addresses
                0x20003990       0x40 examples/dfu/CMakeFiles/dfu_no_serial_nrf52840_xxAA_s140_6.0.0.dir/__/__/mesh/access/src/device_state_manager.c.obj
 .bss.m_appkey_allocated
                0x200039d0        0x4 examples/dfu/CMakeFiles/dfu_no_serial_nrf52840_xxAA_s140_6.0.0.dir/__/__/mesh/access/src/device_state_manager.c.obj
 .bss.m_appkey_needs_flashing
                0x200039d4        0x4 examples/dfu/CMakeFiles/dfu_no_serial_nrf52840_xxAA_s140_6.0.0.dir/__/__/mesh/access/src/device_state_manager.c.obj
 .bss.m_appkeys
                0x200039d8      0x150 examples/dfu/CMakeFiles/dfu_no_serial_nrf52840_xxAA_s140_6.0.0.dir/__/__/mesh/access/src/device_state_manager.c.obj
 .bss.m_devkey_allocated
                0x20003b28        0x4 examples/dfu/CMakeFiles/dfu_no_serial_nrf52840_xxAA_s140_6.0.0.dir/__/__/mesh/access/src/device_state_manager.c.obj
 .bss.m_devkey_needs_flashing
                0x20003b2c        0x4 examples/dfu/CMakeFiles/dfu_no_serial_nrf52840_xxAA_s140_6.0.0.dir/__/__/mesh/access/src/device_state_manager.c.obj
 .bss.m_devkeys
                0x20003b30       0x16 examples/dfu/CMakeFiles/dfu_no_serial_nrf52840_xxAA_s140_6.0.0.dir/__/__/mesh/access/src/device_state_manager.c.obj
 .bss.m_flash_is_available
                0x20003b46        0x1 examples/dfu/CMakeFiles/dfu_no_serial_nrf52840_xxAA_s140_6.0.0.dir/__/__/mesh/access/src/device_state_manager.c.obj
 *fill*         0x20003b47        0x1 
 .bss.m_flash_manager
                0x20003b48       0x24 examples/dfu/CMakeFiles/dfu_no_serial_nrf52840_xxAA_s140_6.0.0.dir/__/__/mesh/access/src/device_state_manager.c.obj
 .bss.m_flash_mem_listener_update_all
                0x20003b6c       0x10 examples/dfu/CMakeFiles/dfu_no_serial_nrf52840_xxAA_s140_6.0.0.dir/__/__/mesh/access/src/device_state_manager.c.obj
 .bss.m_has_primary_subnet
                0x20003b7c        0x1 examples/dfu/CMakeFiles/dfu_no_serial_nrf52840_xxAA_s140_6.0.0.dir/__/__/mesh/access/src/device_state_manager.c.obj
 *fill*         0x20003b7d        0x1 
 .bss.m_local_unicast_addr
                0x20003b7e        0x4 examples/dfu/CMakeFiles/dfu_no_serial_nrf52840_xxAA_s140_6.0.0.dir/__/__/mesh/access/src/device_state_manager.c.obj
 *fill*         0x20003b82        0x2 
 .bss.m_mesh_evt_handler
                0x20003b84        0x8 examples/dfu/CMakeFiles/dfu_no_serial_nrf52840_xxAA_s140_6.0.0.dir/__/__/mesh/access/src/device_state_manager.c.obj
 .bss.m_subnet_allocated
                0x20003b8c        0x4 examples/dfu/CMakeFiles/dfu_no_serial_nrf52840_xxAA_s140_6.0.0.dir/__/__/mesh/access/src/device_state_manager.c.obj
 .bss.m_subnet_needs_flashing
                0x20003b90        0x4 examples/dfu/CMakeFiles/dfu_no_serial_nrf52840_xxAA_s140_6.0.0.dir/__/__/mesh/access/src/device_state_manager.c.obj
 .bss.m_subnets
                0x20003b94      0x2a0 examples/dfu/CMakeFiles/dfu_no_serial_nrf52840_xxAA_s140_6.0.0.dir/__/__/mesh/access/src/device_state_manager.c.obj
 .bss.m_virtual_addresses
                0x20003e34       0xa0 examples/dfu/CMakeFiles/dfu_no_serial_nrf52840_xxAA_s140_6.0.0.dir/__/__/mesh/access/src/device_state_manager.c.obj
 .bss.m_evt_cb  0x20003ed4        0x4 examples/dfu/CMakeFiles/dfu_no_serial_nrf52840_xxAA_s140_6.0.0.dir/__/__/models/config/src/config_server.c.obj
 .bss.m_heartbeat_publication
                0x20003ed8       0x14 examples/dfu/CMakeFiles/dfu_no_serial_nrf52840_xxAA_s140_6.0.0.dir/__/__/models/config/src/config_server.c.obj
 .bss.m_node_reset_pending
                0x20003eec        0x1 examples/dfu/CMakeFiles/dfu_no_serial_nrf52840_xxAA_s140_6.0.0.dir/__/__/models/config/src/config_server.c.obj
 *fill*         0x20003eed        0x3 
 .bss.m_attention_timer
                0x20003ef0       0x18 examples/dfu/CMakeFiles/dfu_no_serial_nrf52840_xxAA_s140_6.0.0.dir/__/__/models/health/src/health_server.c.obj
 .bss.mp_attention_list
                0x20003f08        0x4 examples/dfu/CMakeFiles/dfu_no_serial_nrf52840_xxAA_s140_6.0.0.dir/__/__/models/health/src/health_server.c.obj
 .bss.m_event_handler
                0x20003f0c        0x4 examples/dfu/CMakeFiles/dfu_no_serial_nrf52840_xxAA_s140_6.0.0.dir/__/__/mesh/prov/src/prov_beacon.c.obj
 .bss.m_offload_ecdh
                0x20003f10        0x1 examples/dfu/CMakeFiles/dfu_no_serial_nrf52840_xxAA_s140_6.0.0.dir/__/__/mesh/prov/src/prov_utils.c.obj
 *fill*         0x20003f11        0x3 
 .bss.mp_bearer_head
                0x20003f14        0x4 examples/dfu/CMakeFiles/dfu_no_serial_nrf52840_xxAA_s140_6.0.0.dir/__/__/mesh/prov/src/prov_bearer_adv.c.obj
 .bss.m_adv_packet
                0x20003f18       0x28 examples/dfu/CMakeFiles/dfu_no_serial_nrf52840_xxAA_s140_6.0.0.dir/__/__/mesh/dfu/src/nrf_mesh_dfu.c.obj
 .bss.m_broadcast
                0x20003f40       0x38 examples/dfu/CMakeFiles/dfu_no_serial_nrf52840_xxAA_s140_6.0.0.dir/__/__/mesh/dfu/src/nrf_mesh_dfu.c.obj
 .bss.m_prng    0x20003f78       0x10 examples/dfu/CMakeFiles/dfu_no_serial_nrf52840_xxAA_s140_6.0.0.dir/__/__/mesh/dfu/src/nrf_mesh_dfu.c.obj
 .bss.m_timer_evt
                0x20003f88       0x18 examples/dfu/CMakeFiles/dfu_no_serial_nrf52840_xxAA_s140_6.0.0.dir/__/__/mesh/dfu/src/nrf_mesh_dfu.c.obj
 .bss.m_transfer_state
                0x20003fa0       0x12 examples/dfu/CMakeFiles/dfu_no_serial_nrf52840_xxAA_s140_6.0.0.dir/__/__/mesh/dfu/src/nrf_mesh_dfu.c.obj
 *fill*         0x20003fb2        0x2 
 .bss.m_tx_slots
                0x20003fb4      0x120 examples/dfu/CMakeFiles/dfu_no_serial_nrf52840_xxAA_s140_6.0.0.dir/__/__/mesh/dfu/src/nrf_mesh_dfu.c.obj
 .bss.m_tx_timer_evt
                0x200040d4       0x18 examples/dfu/CMakeFiles/dfu_no_serial_nrf52840_xxAA_s140_6.0.0.dir/__/__/mesh/dfu/src/nrf_mesh_dfu.c.obj
 .bss.mp_curr_fwid
                0x200040ec        0x4 examples/dfu/CMakeFiles/dfu_no_serial_nrf52840_xxAA_s140_6.0.0.dir/__/__/mesh/dfu/src/nrf_mesh_dfu.c.obj
 .bss.m_uuid    0x200040f0       0x10 examples/dfu/CMakeFiles/dfu_no_serial_nrf52840_xxAA_s140_6.0.0.dir/__/__/mesh/core/src/nrf_mesh_configure.c.obj
 .bss.m_msg_cache
                0x20004100      0x100 examples/dfu/CMakeFiles/dfu_no_serial_nrf52840_xxAA_s140_6.0.0.dir/__/__/mesh/core/src/msg_cache.c.obj
 .bss.m_msg_cache_head
                0x20004200        0x4 examples/dfu/CMakeFiles/dfu_no_serial_nrf52840_xxAA_s140_6.0.0.dir/__/__/mesh/core/src/msg_cache.c.obj
 .bss.m_control_packet_consumer_count
                0x20004204        0x4 examples/dfu/CMakeFiles/dfu_no_serial_nrf52840_xxAA_s140_6.0.0.dir/__/__/mesh/core/src/transport.c.obj
 .bss.m_control_packet_consumers
                0x20004208        0x8 examples/dfu/CMakeFiles/dfu_no_serial_nrf52840_xxAA_s140_6.0.0.dir/__/__/mesh/core/src/transport.c.obj
 .bss.m_sar_alloc
                0x20004210        0x4 examples/dfu/CMakeFiles/dfu_no_serial_nrf52840_xxAA_s140_6.0.0.dir/__/__/mesh/core/src/transport.c.obj
 .bss.m_sar_process_flag
                0x20004214        0x4 examples/dfu/CMakeFiles/dfu_no_serial_nrf52840_xxAA_s140_6.0.0.dir/__/__/mesh/core/src/transport.c.obj
 .bss.m_sar_release
                0x20004218        0x4 examples/dfu/CMakeFiles/dfu_no_serial_nrf52840_xxAA_s140_6.0.0.dir/__/__/mesh/core/src/transport.c.obj
 .bss.m_sar_session_cache
                0x2000421c       0x40 examples/dfu/CMakeFiles/dfu_no_serial_nrf52840_xxAA_s140_6.0.0.dir/__/__/mesh/core/src/transport.c.obj
 .bss.m_sar_session_cache_head
                0x2000425c        0x4 examples/dfu/CMakeFiles/dfu_no_serial_nrf52840_xxAA_s140_6.0.0.dir/__/__/mesh/core/src/transport.c.obj
 .bss.m_trs_config
                0x20004260       0x18 examples/dfu/CMakeFiles/dfu_no_serial_nrf52840_xxAA_s140_6.0.0.dir/__/__/mesh/core/src/transport.c.obj
 .bss.m_trs_sar_sessions
                0x20004278      0x1b0 examples/dfu/CMakeFiles/dfu_no_serial_nrf52840_xxAA_s140_6.0.0.dir/__/__/mesh/core/src/transport.c.obj
 .bss.mp_evt_handlers_head
                0x20004428        0x4 examples/dfu/CMakeFiles/dfu_no_serial_nrf52840_xxAA_s140_6.0.0.dir/__/__/mesh/core/src/event.c.obj
 .bss.m_defrag  0x2000442c       0x1c examples/dfu/CMakeFiles/dfu_no_serial_nrf52840_xxAA_s140_6.0.0.dir/__/__/mesh/core/src/flash_manager_defrag.c.obj
 .bss.m_token   0x20004448        0x2 examples/dfu/CMakeFiles/dfu_no_serial_nrf52840_xxAA_s140_6.0.0.dir/__/__/mesh/core/src/flash_manager_defrag.c.obj
 *fill*         0x2000444a        0x2 
 .bss.mp_recovery_area
                0x2000444c        0x4 examples/dfu/CMakeFiles/dfu_no_serial_nrf52840_xxAA_s140_6.0.0.dir/__/__/mesh/core/src/flash_manager_defrag.c.obj
 .bss.p_null_ptr.10534
                0x20004450        0x4 examples/dfu/CMakeFiles/dfu_no_serial_nrf52840_xxAA_s140_6.0.0.dir/__/__/mesh/core/src/flash_manager_defrag.c.obj
 .bss.m_pool    0x20004454     0x1000 examples/dfu/CMakeFiles/dfu_no_serial_nrf52840_xxAA_s140_6.0.0.dir/__/__/mesh/core/src/packet_mgr.c.obj
 .bss.mp_free_head
                0x20005454        0x4 examples/dfu/CMakeFiles/dfu_no_serial_nrf52840_xxAA_s140_6.0.0.dir/__/__/mesh/core/src/packet_mgr.c.obj
 .bss.iv_state_set.10189
                0x20005458        0x1 examples/dfu/CMakeFiles/dfu_no_serial_nrf52840_xxAA_s140_6.0.0.dir/__/__/mesh/core/src/net_state.c.obj
 *fill*         0x20005459        0x3 
 .bss.lock_count.10165
                0x2000545c        0x4 examples/dfu/CMakeFiles/dfu_no_serial_nrf52840_xxAA_s140_6.0.0.dir/__/__/mesh/core/src/net_state.c.obj
 .bss.m_flash_manager
                0x20005460       0x24 examples/dfu/CMakeFiles/dfu_no_serial_nrf52840_xxAA_s140_6.0.0.dir/__/__/mesh/core/src/net_state.c.obj
 .bss.m_iv_update_timer
                0x20005484       0x18 examples/dfu/CMakeFiles/dfu_no_serial_nrf52840_xxAA_s140_6.0.0.dir/__/__/mesh/core/src/net_state.c.obj
 .bss.m_mesh_evt_handler
                0x2000549c        0x8 examples/dfu/CMakeFiles/dfu_no_serial_nrf52840_xxAA_s140_6.0.0.dir/__/__/mesh/core/src/net_state.c.obj
 .bss.m_net_state
                0x200054a4       0x14 examples/dfu/CMakeFiles/dfu_no_serial_nrf52840_xxAA_s140_6.0.0.dir/__/__/mesh/core/src/net_state.c.obj
 .bss.m_seqnum_allocation_in_progress
                0x200054b8        0x1 examples/dfu/CMakeFiles/dfu_no_serial_nrf52840_xxAA_s140_6.0.0.dir/__/__/mesh/core/src/net_state.c.obj
 .bss.m_test_mode
                0x200054b9        0x1 examples/dfu/CMakeFiles/dfu_no_serial_nrf52840_xxAA_s140_6.0.0.dir/__/__/mesh/core/src/net_state.c.obj
 *fill*         0x200054ba        0x2 
 .bss.m_event_flag
                0x200054bc        0x4 examples/dfu/CMakeFiles/dfu_no_serial_nrf52840_xxAA_s140_6.0.0.dir/__/__/mesh/core/src/mesh_flash.c.obj
 .bss.m_suspended
                0x200054c0        0x1 examples/dfu/CMakeFiles/dfu_no_serial_nrf52840_xxAA_s140_6.0.0.dir/__/__/mesh/core/src/mesh_flash.c.obj
 *fill*         0x200054c1        0x3 
 .bss.m_users   0x200054c4      0x228 examples/dfu/CMakeFiles/dfu_no_serial_nrf52840_xxAA_s140_6.0.0.dir/__/__/mesh/core/src/mesh_flash.c.obj
 .bss.suspend_count.10416
                0x200056ec        0x4 examples/dfu/CMakeFiles/dfu_no_serial_nrf52840_xxAA_s140_6.0.0.dir/__/__/mesh/core/src/mesh_flash.c.obj
 .bss.m_is_enabled
                0x200056f0        0x1 examples/dfu/CMakeFiles/dfu_no_serial_nrf52840_xxAA_s140_6.0.0.dir/__/__/mesh/core/src/nrf_mesh.c.obj
 .bss.m_is_initialized
                0x200056f1        0x1 examples/dfu/CMakeFiles/dfu_no_serial_nrf52840_xxAA_s140_6.0.0.dir/__/__/mesh/core/src/nrf_mesh.c.obj
 *fill*         0x200056f2        0x2 
 .bss.m_rx_cb   0x200056f4        0x4 examples/dfu/CMakeFiles/dfu_no_serial_nrf52840_xxAA_s140_6.0.0.dir/__/__/mesh/core/src/nrf_mesh.c.obj
 .bss.m_128buf  0x200056f8       0x10 examples/dfu/CMakeFiles/dfu_no_serial_nrf52840_xxAA_s140_6.0.0.dir/__/__/mesh/core/src/aes_cmac.c.obj
 .bss.m_subkey1
                0x20005708       0x10 examples/dfu/CMakeFiles/dfu_no_serial_nrf52840_xxAA_s140_6.0.0.dir/__/__/mesh/core/src/aes_cmac.c.obj
 .bss.m_subkey2
                0x20005718       0x10 examples/dfu/CMakeFiles/dfu_no_serial_nrf52840_xxAA_s140_6.0.0.dir/__/__/mesh/core/src/aes_cmac.c.obj
 .bss.m_event_flag
                0x20005728        0x4 examples/dfu/CMakeFiles/dfu_no_serial_nrf52840_xxAA_s140_6.0.0.dir/__/__/mesh/core/src/timer_scheduler.c.obj
 .bss.m_scheduler
                0x2000572c       0x10 examples/dfu/CMakeFiles/dfu_no_serial_nrf52840_xxAA_s140_6.0.0.dir/__/__/mesh/core/src/timer_scheduler.c.obj
 .bss.m_attributes
                0x2000573c        0x3 examples/dfu/CMakeFiles/dfu_no_serial_nrf52840_xxAA_s140_6.0.0.dir/__/__/mesh/core/src/timer.c.obj
 *fill*         0x2000573f        0x1 
 .bss.m_callbacks
                0x20005740        0xc examples/dfu/CMakeFiles/dfu_no_serial_nrf52840_xxAA_s140_6.0.0.dir/__/__/mesh/core/src/timer.c.obj
 .bss.m_is_in_ts
                0x2000574c        0x1 examples/dfu/CMakeFiles/dfu_no_serial_nrf52840_xxAA_s140_6.0.0.dir/__/__/mesh/core/src/timer.c.obj
 *fill*         0x2000574d        0x3 
 .bss.m_reference_time
                0x20005750        0x4 examples/dfu/CMakeFiles/dfu_no_serial_nrf52840_xxAA_s140_6.0.0.dir/__/__/mesh/core/src/timer.c.obj
 .bss.m_timeouts
                0x20005754        0xc examples/dfu/CMakeFiles/dfu_no_serial_nrf52840_xxAA_s140_6.0.0.dir/__/__/mesh/core/src/timer.c.obj
 .bss.m_timer_mut
                0x20005760        0x4 examples/dfu/CMakeFiles/dfu_no_serial_nrf52840_xxAA_s140_6.0.0.dir/__/__/mesh/core/src/timer.c.obj
 .bss.m_ts_end_time
                0x20005764        0x4 examples/dfu/CMakeFiles/dfu_no_serial_nrf52840_xxAA_s140_6.0.0.dir/__/__/mesh/core/src/timer.c.obj
 .bss.mp_ppi_tasks
                0x20005768        0xc examples/dfu/CMakeFiles/dfu_no_serial_nrf52840_xxAA_s140_6.0.0.dir/__/__/mesh/core/src/timer.c.obj
 .bss.m_current_time
                0x20005774        0x4 examples/dfu/CMakeFiles/dfu_no_serial_nrf52840_xxAA_s140_6.0.0.dir/__/__/mesh/core/src/ticker.c.obj
 .bss.m_timer   0x20005778       0x18 examples/dfu/CMakeFiles/dfu_no_serial_nrf52840_xxAA_s140_6.0.0.dir/__/__/mesh/core/src/ticker.c.obj
 .bss.m_current_timeslot
                0x20005790       0x1c examples/dfu/CMakeFiles/dfu_no_serial_nrf52840_xxAA_s140_6.0.0.dir/__/__/mesh/core/src/timeslot.c.obj
 .bss.m_lfclk_ppm
                0x200057ac        0x4 examples/dfu/CMakeFiles/dfu_no_serial_nrf52840_xxAA_s140_6.0.0.dir/__/__/mesh/core/src/timeslot.c.obj
 .bss.m_radio_request_earliest
                0x200057b0       0x10 examples/dfu/CMakeFiles/dfu_no_serial_nrf52840_xxAA_s140_6.0.0.dir/__/__/mesh/core/src/timeslot.c.obj
 .bss.m_state_lock
                0x200057c0        0x1 examples/dfu/CMakeFiles/dfu_no_serial_nrf52840_xxAA_s140_6.0.0.dir/__/__/mesh/core/src/timeslot.c.obj
 .bss.m_timeslot_forced_command
                0x200057c1        0x1 examples/dfu/CMakeFiles/dfu_no_serial_nrf52840_xxAA_s140_6.0.0.dir/__/__/mesh/core/src/timeslot.c.obj
 *fill*         0x200057c2        0x6 
 .bss.s_last_rtc_value.9592
                0x200057c8        0x8 examples/dfu/CMakeFiles/dfu_no_serial_nrf52840_xxAA_s140_6.0.0.dir/__/__/mesh/core/src/timeslot.c.obj
 .bss.m_bearer_event_fifo
                0x200057d0       0x14 examples/dfu/CMakeFiles/dfu_no_serial_nrf52840_xxAA_s140_6.0.0.dir/__/__/mesh/core/src/bearer_event.c.obj
 .bss.m_bearer_event_fifo_buffer
                0x200057e4      0x100 examples/dfu/CMakeFiles/dfu_no_serial_nrf52840_xxAA_s140_6.0.0.dir/__/__/mesh/core/src/bearer_event.c.obj
 .bss.m_critical
                0x200058e4        0x4 examples/dfu/CMakeFiles/dfu_no_serial_nrf52840_xxAA_s140_6.0.0.dir/__/__/mesh/core/src/bearer_event.c.obj
 .bss.m_flag_count
                0x200058e8        0x4 examples/dfu/CMakeFiles/dfu_no_serial_nrf52840_xxAA_s140_6.0.0.dir/__/__/mesh/core/src/bearer_event.c.obj
 .bss.m_flag_event_callbacks
                0x200058ec       0x20 examples/dfu/CMakeFiles/dfu_no_serial_nrf52840_xxAA_s140_6.0.0.dir/__/__/mesh/core/src/bearer_event.c.obj
 .bss.m_flags   0x2000590c        0x4 examples/dfu/CMakeFiles/dfu_no_serial_nrf52840_xxAA_s140_6.0.0.dir/__/__/mesh/core/src/bearer_event.c.obj
 .bss.m_irq_priority
                0x20005910        0x1 examples/dfu/CMakeFiles/dfu_no_serial_nrf52840_xxAA_s140_6.0.0.dir/__/__/mesh/core/src/bearer_event.c.obj
 *fill*         0x20005911        0x3 
 .bss.m_sequential_event_queue
                0x20005914        0x8 examples/dfu/CMakeFiles/dfu_no_serial_nrf52840_xxAA_s140_6.0.0.dir/__/__/mesh/core/src/bearer_event.c.obj
 .bss.s_recursion_guard.9723
                0x2000591c        0x1 examples/dfu/CMakeFiles/dfu_no_serial_nrf52840_xxAA_s140_6.0.0.dir/__/__/mesh/core/src/bearer_event.c.obj
 *fill*         0x2000591d        0x3 
 .bss.m_relay_check_cb
                0x20005920        0x4 examples/dfu/CMakeFiles/dfu_no_serial_nrf52840_xxAA_s140_6.0.0.dir/__/__/mesh/core/src/network.c.obj
 .bss.m_relay_enable
                0x20005924        0x1 examples/dfu/CMakeFiles/dfu_no_serial_nrf52840_xxAA_s140_6.0.0.dir/__/__/mesh/core/src/network.c.obj
 *fill*         0x20005925        0x3 
 .bss.m_action_queue
                0x20005928        0xc examples/dfu/CMakeFiles/dfu_no_serial_nrf52840_xxAA_s140_6.0.0.dir/__/__/mesh/core/src/flash_manager.c.obj
 .bss.m_action_queue_buffer
                0x20005934      0x104 examples/dfu/CMakeFiles/dfu_no_serial_nrf52840_xxAA_s140_6.0.0.dir/__/__/mesh/core/src/flash_manager.c.obj
 .bss.m_action_state
                0x20005a38        0x1 examples/dfu/CMakeFiles/dfu_no_serial_nrf52840_xxAA_s140_6.0.0.dir/__/__/mesh/core/src/flash_manager.c.obj
 *fill*         0x20005a39        0x3 
 .bss.m_memory_listener_queue
                0x20005a3c        0x8 examples/dfu/CMakeFiles/dfu_no_serial_nrf52840_xxAA_s140_6.0.0.dir/__/__/mesh/core/src/flash_manager.c.obj
 .bss.m_processing_flag
                0x20005a44        0x4 examples/dfu/CMakeFiles/dfu_no_serial_nrf52840_xxAA_s140_6.0.0.dir/__/__/mesh/core/src/flash_manager.c.obj
 .bss.m_queue_empty_cb
                0x20005a48        0x4 examples/dfu/CMakeFiles/dfu_no_serial_nrf52840_xxAA_s140_6.0.0.dir/__/__/mesh/core/src/flash_manager.c.obj
 .bss.m_state   0x20005a4c        0x1 examples/dfu/CMakeFiles/dfu_no_serial_nrf52840_xxAA_s140_6.0.0.dir/__/__/mesh/core/src/flash_manager.c.obj
 *fill*         0x20005a4d        0x1 
 .bss.m_token   0x20005a4e        0x2 examples/dfu/CMakeFiles/dfu_no_serial_nrf52840_xxAA_s140_6.0.0.dir/__/__/mesh/core/src/flash_manager.c.obj
 .bss.p_current.11442
                0x20005a50        0x4 examples/dfu/CMakeFiles/dfu_no_serial_nrf52840_xxAA_s140_6.0.0.dir/__/__/mesh/core/src/flash_manager.c.obj
 .bss.result.11443
                0x20005a54        0x1 examples/dfu/CMakeFiles/dfu_no_serial_nrf52840_xxAA_s140_6.0.0.dir/__/__/mesh/core/src/flash_manager.c.obj
 .bss.m_cache_index
                0x20005a55        0x1 examples/dfu/CMakeFiles/dfu_no_serial_nrf52840_xxAA_s140_6.0.0.dir/__/__/mesh/core/src/replay_cache.c.obj
 *fill*         0x20005a56        0x2 
 .bss.m_replay_cache
                0x20005a58      0x200 examples/dfu/CMakeFiles/dfu_no_serial_nrf52840_xxAA_s140_6.0.0.dir/__/__/mesh/core/src/replay_cache.c.obj
 .bss.m_bearer_count
                0x20005c58        0x1 examples/dfu/CMakeFiles/dfu_no_serial_nrf52840_xxAA_s140_6.0.0.dir/__/__/mesh/core/src/core_tx.c.obj
 *fill*         0x20005c59        0x3 
 .bss.m_tx_complete_callback
                0x20005c5c        0x4 examples/dfu/CMakeFiles/dfu_no_serial_nrf52840_xxAA_s140_6.0.0.dir/__/__/mesh/core/src/core_tx.c.obj
 .bss.mp_bearers
                0x20005c60        0x4 examples/dfu/CMakeFiles/dfu_no_serial_nrf52840_xxAA_s140_6.0.0.dir/__/__/mesh/core/src/core_tx.c.obj
 .bss.m_hb_core_evt_handler
                0x20005c64        0x8 examples/dfu/CMakeFiles/dfu_no_serial_nrf52840_xxAA_s140_6.0.0.dir/__/__/mesh/core/src/heartbeat.c.obj
 .bss.m_hb_pending_feat_msg
                0x20005c6c        0x1 examples/dfu/CMakeFiles/dfu_no_serial_nrf52840_xxAA_s140_6.0.0.dir/__/__/mesh/core/src/heartbeat.c.obj
 .bss.m_hb_pending_pub_msg
                0x20005c6d        0x1 examples/dfu/CMakeFiles/dfu_no_serial_nrf52840_xxAA_s140_6.0.0.dir/__/__/mesh/core/src/heartbeat.c.obj
 .bss.m_heartbeat_init_done
                0x20005c6e        0x1 examples/dfu/CMakeFiles/dfu_no_serial_nrf52840_xxAA_s140_6.0.0.dir/__/__/mesh/core/src/heartbeat.c.obj
 *fill*         0x20005c6f        0x1 
 .bss.m_heartbeat_subscription
                0x20005c70       0x10 examples/dfu/CMakeFiles/dfu_no_serial_nrf52840_xxAA_s140_6.0.0.dir/__/__/mesh/core/src/heartbeat.c.obj
 .bss.m_publication_count_decrement_cb
                0x20005c80        0x4 examples/dfu/CMakeFiles/dfu_no_serial_nrf52840_xxAA_s140_6.0.0.dir/__/__/mesh/core/src/heartbeat.c.obj
 .bss.m_publication_get_cb
                0x20005c84        0x4 examples/dfu/CMakeFiles/dfu_no_serial_nrf52840_xxAA_s140_6.0.0.dir/__/__/mesh/core/src/heartbeat.c.obj
 .bss.m_publication_timer
                0x20005c88       0x1c examples/dfu/CMakeFiles/dfu_no_serial_nrf52840_xxAA_s140_6.0.0.dir/__/__/mesh/core/src/heartbeat.c.obj
 .bss.m_subscription_timer
                0x20005ca4       0x18 examples/dfu/CMakeFiles/dfu_no_serial_nrf52840_xxAA_s140_6.0.0.dir/__/__/mesh/core/src/heartbeat.c.obj
 .bss.m_adv     0x20005cbc       0x98 examples/dfu/CMakeFiles/dfu_no_serial_nrf52840_xxAA_s140_6.0.0.dir/__/__/mesh/core/src/net_beacon.c.obj
 .bss.m_adv_buf
                0x20005d54       0x34 examples/dfu/CMakeFiles/dfu_no_serial_nrf52840_xxAA_s140_6.0.0.dir/__/__/mesh/core/src/net_beacon.c.obj
 .bss.m_beacon_salt
                0x20005d88       0x10 examples/dfu/CMakeFiles/dfu_no_serial_nrf52840_xxAA_s140_6.0.0.dir/__/__/mesh/core/src/net_beacon.c.obj
 .bss.m_enabled
                0x20005d98        0x1 examples/dfu/CMakeFiles/dfu_no_serial_nrf52840_xxAA_s140_6.0.0.dir/__/__/mesh/core/src/net_beacon.c.obj
 *fill*         0x20005d99        0x3 
 .bss.m_tx_timer
                0x20005d9c       0x18 examples/dfu/CMakeFiles/dfu_no_serial_nrf52840_xxAA_s140_6.0.0.dir/__/__/mesh/core/src/net_beacon.c.obj
 .bss.mp_beacon_info
                0x20005db4        0x4 examples/dfu/CMakeFiles/dfu_no_serial_nrf52840_xxAA_s140_6.0.0.dir/__/__/mesh/core/src/net_beacon.c.obj
 .bss.m_bearer  0x20005db8        0xc examples/dfu/CMakeFiles/dfu_no_serial_nrf52840_xxAA_s140_6.0.0.dir/__/__/mesh/core/src/core_tx_adv.c.obj
 .bss.m_bearer_roles
                0x20005dc4      0x138 examples/dfu/CMakeFiles/dfu_no_serial_nrf52840_xxAA_s140_6.0.0.dir/__/__/mesh/core/src/core_tx_adv.c.obj
 .bss.m_current_alloc
                0x20005efc        0x8 examples/dfu/CMakeFiles/dfu_no_serial_nrf52840_xxAA_s140_6.0.0.dir/__/__/mesh/core/src/core_tx_adv.c.obj
 .bss.m_originator_adv_packet_buffer
                0x20005f04      0x100 examples/dfu/CMakeFiles/dfu_no_serial_nrf52840_xxAA_s140_6.0.0.dir/__/__/mesh/core/src/core_tx_adv.c.obj
 .bss.m_relay_adv_packet_buffer
                0x20006004       0x80 examples/dfu/CMakeFiles/dfu_no_serial_nrf52840_xxAA_s140_6.0.0.dir/__/__/mesh/core/src/core_tx_adv.c.obj
 .bss.m_subscribers
                0x20006084        0x4 examples/dfu/CMakeFiles/dfu_no_serial_nrf52840_xxAA_s140_6.0.0.dir/__/__/mesh/bearer/src/ad_listener.c.obj
 .bss.m_adtype_filter
                0x20006088       0x38 examples/dfu/CMakeFiles/dfu_no_serial_nrf52840_xxAA_s140_6.0.0.dir/__/__/mesh/bearer/src/ad_type_filter.c.obj
 .bss.m_adv_prng
                0x200060c0       0x10 examples/dfu/CMakeFiles/dfu_no_serial_nrf52840_xxAA_s140_6.0.0.dir/__/__/mesh/bearer/src/advertiser.c.obj
 .bss.m_action_queue
                0x200060d0        0x8 examples/dfu/CMakeFiles/dfu_no_serial_nrf52840_xxAA_s140_6.0.0.dir/__/__/mesh/bearer/src/bearer_handler.c.obj
 .bss.m_end_time
                0x200060d8        0x4 examples/dfu/CMakeFiles/dfu_no_serial_nrf52840_xxAA_s140_6.0.0.dir/__/__/mesh/bearer/src/bearer_handler.c.obj
 .bss.m_scanner_is_active
                0x200060dc        0x1 examples/dfu/CMakeFiles/dfu_no_serial_nrf52840_xxAA_s140_6.0.0.dir/__/__/mesh/bearer/src/bearer_handler.c.obj
 .bss.m_stopped
                0x200060dd        0x1 examples/dfu/CMakeFiles/dfu_no_serial_nrf52840_xxAA_s140_6.0.0.dir/__/__/mesh/bearer/src/bearer_handler.c.obj
 *fill*         0x200060de        0x2 
 .bss.mp_action
                0x200060e0        0x4 examples/dfu/CMakeFiles/dfu_no_serial_nrf52840_xxAA_s140_6.0.0.dir/__/__/mesh/bearer/src/bearer_handler.c.obj
 .bss.m_next_channel_index
                0x200060e4        0x1 examples/dfu/CMakeFiles/dfu_no_serial_nrf52840_xxAA_s140_6.0.0.dir/__/__/mesh/bearer/src/broadcast.c.obj
 *fill*         0x200060e5        0x3 
 .bss.m_accepted_amount
                0x200060e8        0x4 examples/dfu/CMakeFiles/dfu_no_serial_nrf52840_xxAA_s140_6.0.0.dir/__/__/mesh/bearer/src/filter_engine.c.obj
 .bss.m_filter_list_head
                0x200060ec        0x4 examples/dfu/CMakeFiles/dfu_no_serial_nrf52840_xxAA_s140_6.0.0.dir/__/__/mesh/bearer/src/filter_engine.c.obj
 .bss.m_scanner
                0x200060f0      0x290 examples/dfu/CMakeFiles/dfu_no_serial_nrf52840_xxAA_s140_6.0.0.dir/__/__/mesh/bearer/src/scanner.c.obj
 .bss._acDownBuffer
                0x20006380       0x80 external/rtt/librtt_nrf52840_xxAA.a(SEGGER_RTT.c.obj)
 .bss._acUpBuffer
                0x20006400      0x400 external/rtt/librtt_nrf52840_xxAA.a(SEGGER_RTT.c.obj)
 .bss.__malloc_free_list
                0x20006800        0x4 c:/mesh/arm_gcc/bin/../lib/gcc/arm-none-eabi/6.3.1/../../../../arm-none-eabi/lib/thumb/v7e-m/fpv4-sp/hard\libg_nano.a(lib_a-nano-mallocr.o)
                0x20006800                __malloc_free_list
 .bss.__malloc_sbrk_start
                0x20006804        0x4 c:/mesh/arm_gcc/bin/../lib/gcc/arm-none-eabi/6.3.1/../../../../arm-none-eabi/lib/thumb/v7e-m/fpv4-sp/hard\libg_nano.a(lib_a-nano-mallocr.o)
                0x20006804                __malloc_sbrk_start
 .bss.heap_end.5239
                0x20006808        0x4 c:/mesh/arm_gcc/bin/../lib/gcc/arm-none-eabi/6.3.1/../../../../arm-none-eabi/lib/thumb/v7e-m/fpv4-sp/hard\libnosys.a(sbrk.o)
 *(COMMON)
 COMMON         0x2000680c        0x8 examples/dfu/CMakeFiles/dfu_no_serial_nrf52840_xxAA_s140_6.0.0.dir/src/main.c.obj
                0x2000680c                bank_addr
                0x20006810                rom_length
 COMMON         0x20006814        0xc examples/dfu/CMakeFiles/dfu_no_serial_nrf52840_xxAA_s140_6.0.0.dir/__/common/src/mesh_softdevice_init.c.obj
                0x20006814                nrf_nvic_state
 COMMON         0x20006820        0x4 examples/dfu/CMakeFiles/dfu_no_serial_nrf52840_xxAA_s140_6.0.0.dir/__/__/mesh/dfu/src/nrf_mesh_dfu.c.obj
                0x20006820                m_cmd_handler
 COMMON         0x20006824       0x24 examples/dfu/CMakeFiles/dfu_no_serial_nrf52840_xxAA_s140_6.0.0.dir/__/__/mesh/core/src/core_tx.c.obj
                0x20006824                m_packet
 COMMON         0x20006848       0x78 external/rtt/librtt_nrf52840_xxAA.a(SEGGER_RTT.c.obj)
                0x20006848                _SEGGER_RTT
 COMMON         0x200068c0        0x4 c:/mesh/arm_gcc/bin/../lib/gcc/arm-none-eabi/6.3.1/../../../../arm-none-eabi/lib/thumb/v7e-m/fpv4-sp/hard\libg_nano.a(lib_a-reent.o)
                0x200068c0                errno
                0x200068c4                . = ALIGN (0x4)
                0x200068c4                __bss_end__ = .

.heap           0x200068c8     0x2000
                0x200068c8                __HeapBase = .
                0x200068c8                __end__ = .
                0x200068c8                PROVIDE (end, .)
 *(.heap*)
 .heap          0x200068c8     0x2000 examples/dfu/CMakeFiles/dfu_no_serial_nrf52840_xxAA_s140_6.0.0.dir/C_/b/nRF5_SDK_15.0.0_a53641a/modules/nrfx/mdk/gcc_startup_nrf52840.S.obj
                0x200088c8                __HeapLimit = .

.stack_dummy    0x200068c8     0x2000
 *(.stack*)
 .stack         0x200068c8     0x2000 examples/dfu/CMakeFiles/dfu_no_serial_nrf52840_xxAA_s140_6.0.0.dir/C_/b/nRF5_SDK_15.0.0_a53641a/modules/nrfx/mdk/gcc_startup_nrf52840.S.obj
                0x2003fd00                __StackTop = (ORIGIN (RAM) + LENGTH (RAM))
                0x2003dd00                __StackLimit = (__StackTop - SIZEOF (.stack_dummy))
                0x2003fd00                PROVIDE (__stack, __StackTop)
                0x00000001                ASSERT ((__StackLimit >= __HeapLimit), region RAM overflowed with stack)
                0x00000150                DataInitFlashUsed = (__bss_start__ - __data_start__)
                0x00013d7c                CodeFlashUsed = (__etext - ORIGIN (FLASH))
                0x00013ecc                TotalFlashUsed = (CodeFlashUsed + DataInitFlashUsed)
                0x00000001                ASSERT ((TotalFlashUsed <= LENGTH (FLASH)), region FLASH overflowed with .data and user data)
OUTPUT(examples\dfu\dfu_no_serial_nrf52840_xxAA_s140_6.0.0.elf elf32-littlearm)

.ARM.attributes
                0x00000000       0x30
 .ARM.attributes
                0x00000000       0x22 c:/mesh/arm_gcc/bin/../lib/gcc/arm-none-eabi/6.3.1/thumb/v7e-m/fpv4-sp/hard/crti.o
 .ARM.attributes
                0x00000022       0x34 c:/mesh/arm_gcc/bin/../lib/gcc/arm-none-eabi/6.3.1/thumb/v7e-m/fpv4-sp/hard/crtbegin.o
 .ARM.attributes
                0x00000056       0x20 c:/mesh/arm_gcc/bin/../lib/gcc/arm-none-eabi/6.3.1/../../../../arm-none-eabi/lib/thumb/v7e-m/fpv4-sp/hard/crt0.o
 .ARM.attributes
                0x00000076       0x39 examples/dfu/CMakeFiles/dfu_no_serial_nrf52840_xxAA_s140_6.0.0.dir/src/main.c.obj
 .ARM.attributes
                0x000000af       0x39 examples/dfu/CMakeFiles/dfu_no_serial_nrf52840_xxAA_s140_6.0.0.dir/__/__/mesh/stack/src/mesh_stack.c.obj
 .ARM.attributes
                0x000000e8       0x39 examples/dfu/CMakeFiles/dfu_no_serial_nrf52840_xxAA_s140_6.0.0.dir/__/common/src/mesh_softdevice_init.c.obj
 .ARM.attributes
                0x00000121       0x39 examples/dfu/CMakeFiles/dfu_no_serial_nrf52840_xxAA_s140_6.0.0.dir/__/common/src/mesh_provisionee.c.obj
 .ARM.attributes
                0x0000015a       0x39 examples/dfu/CMakeFiles/dfu_no_serial_nrf52840_xxAA_s140_6.0.0.dir/__/common/src/simple_hal.c.obj
 .ARM.attributes
                0x00000193       0x39 examples/dfu/CMakeFiles/dfu_no_serial_nrf52840_xxAA_s140_6.0.0.dir/__/__/mesh/access/src/access_publish.c.obj
 .ARM.attributes
                0x000001cc       0x39 examples/dfu/CMakeFiles/dfu_no_serial_nrf52840_xxAA_s140_6.0.0.dir/__/__/mesh/access/src/access.c.obj
 .ARM.attributes
                0x00000205       0x39 examples/dfu/CMakeFiles/dfu_no_serial_nrf52840_xxAA_s140_6.0.0.dir/__/__/mesh/access/src/access_reliable.c.obj
 .ARM.attributes
                0x0000023e       0x39 examples/dfu/CMakeFiles/dfu_no_serial_nrf52840_xxAA_s140_6.0.0.dir/__/__/mesh/access/src/device_state_manager.c.obj
 .ARM.attributes
                0x00000277       0x39 examples/dfu/CMakeFiles/dfu_no_serial_nrf52840_xxAA_s140_6.0.0.dir/__/__/models/config/src/composition_data.c.obj
 .ARM.attributes
                0x000002b0       0x39 examples/dfu/CMakeFiles/dfu_no_serial_nrf52840_xxAA_s140_6.0.0.dir/__/__/models/config/src/config_server.c.obj
 .ARM.attributes
                0x000002e9       0x39 examples/dfu/CMakeFiles/dfu_no_serial_nrf52840_xxAA_s140_6.0.0.dir/__/__/models/config/src/packed_index_list.c.obj
 .ARM.attributes
                0x00000322       0x39 examples/dfu/CMakeFiles/dfu_no_serial_nrf52840_xxAA_s140_6.0.0.dir/__/__/models/health/src/health_server.c.obj
 .ARM.attributes
                0x0000035b       0x39 examples/dfu/CMakeFiles/dfu_no_serial_nrf52840_xxAA_s140_6.0.0.dir/__/__/mesh/prov/src/prov_provisioner.c.obj
 .ARM.attributes
                0x00000394       0x39 examples/dfu/CMakeFiles/dfu_no_serial_nrf52840_xxAA_s140_6.0.0.dir/__/__/mesh/prov/src/prov_provisionee.c.obj
 .ARM.attributes
                0x000003cd       0x39 examples/dfu/CMakeFiles/dfu_no_serial_nrf52840_xxAA_s140_6.0.0.dir/__/__/mesh/prov/src/nrf_mesh_prov.c.obj
 .ARM.attributes
                0x00000406       0x39 examples/dfu/CMakeFiles/dfu_no_serial_nrf52840_xxAA_s140_6.0.0.dir/__/__/mesh/prov/src/provisioning.c.obj
 .ARM.attributes
                0x0000043f       0x39 examples/dfu/CMakeFiles/dfu_no_serial_nrf52840_xxAA_s140_6.0.0.dir/__/__/mesh/prov/src/prov_beacon.c.obj
 .ARM.attributes
                0x00000478       0x39 examples/dfu/CMakeFiles/dfu_no_serial_nrf52840_xxAA_s140_6.0.0.dir/__/__/mesh/prov/src/prov_utils.c.obj
 .ARM.attributes
                0x000004b1       0x39 examples/dfu/CMakeFiles/dfu_no_serial_nrf52840_xxAA_s140_6.0.0.dir/__/__/mesh/prov/src/prov_bearer_adv.c.obj
 .ARM.attributes
                0x000004ea       0x39 examples/dfu/CMakeFiles/dfu_no_serial_nrf52840_xxAA_s140_6.0.0.dir/__/__/mesh/dfu/src/nrf_mesh_dfu.c.obj
 .ARM.attributes
                0x00000523       0x39 examples/dfu/CMakeFiles/dfu_no_serial_nrf52840_xxAA_s140_6.0.0.dir/__/common/src/app_error_weak.c.obj
 .ARM.attributes
                0x0000055c       0x39 examples/dfu/CMakeFiles/dfu_no_serial_nrf52840_xxAA_s140_6.0.0.dir/__/common/src/assertion_handler_weak.c.obj
 .ARM.attributes
                0x00000595       0x39 examples/dfu/CMakeFiles/dfu_no_serial_nrf52840_xxAA_s140_6.0.0.dir/__/__/mesh/core/src/nrf_mesh_configure.c.obj
 .ARM.attributes
                0x000005ce       0x39 examples/dfu/CMakeFiles/dfu_no_serial_nrf52840_xxAA_s140_6.0.0.dir/__/__/mesh/core/src/aes.c.obj
 .ARM.attributes
                0x00000607       0x39 examples/dfu/CMakeFiles/dfu_no_serial_nrf52840_xxAA_s140_6.0.0.dir/__/__/mesh/core/src/msg_cache.c.obj
 .ARM.attributes
                0x00000640       0x39 examples/dfu/CMakeFiles/dfu_no_serial_nrf52840_xxAA_s140_6.0.0.dir/__/__/mesh/core/src/transport.c.obj
 .ARM.attributes
                0x00000679       0x39 examples/dfu/CMakeFiles/dfu_no_serial_nrf52840_xxAA_s140_6.0.0.dir/__/__/mesh/core/src/event.c.obj
 .ARM.attributes
                0x000006b2       0x39 examples/dfu/CMakeFiles/dfu_no_serial_nrf52840_xxAA_s140_6.0.0.dir/__/__/mesh/core/src/packet_buffer.c.obj
 .ARM.attributes
                0x000006eb       0x39 examples/dfu/CMakeFiles/dfu_no_serial_nrf52840_xxAA_s140_6.0.0.dir/__/__/mesh/core/src/flash_manager_defrag.c.obj
 .ARM.attributes
                0x00000724       0x39 examples/dfu/CMakeFiles/dfu_no_serial_nrf52840_xxAA_s140_6.0.0.dir/__/__/mesh/core/src/fifo.c.obj
 .ARM.attributes
                0x0000075d       0x39 examples/dfu/CMakeFiles/dfu_no_serial_nrf52840_xxAA_s140_6.0.0.dir/__/__/mesh/core/src/nrf_flash.c.obj
 .ARM.attributes
                0x00000796       0x39 examples/dfu/CMakeFiles/dfu_no_serial_nrf52840_xxAA_s140_6.0.0.dir/__/__/mesh/core/src/packet_mgr.c.obj
 .ARM.attributes
                0x000007cf       0x39 examples/dfu/CMakeFiles/dfu_no_serial_nrf52840_xxAA_s140_6.0.0.dir/__/__/mesh/core/src/net_state.c.obj
 .ARM.attributes
                0x00000808       0x39 examples/dfu/CMakeFiles/dfu_no_serial_nrf52840_xxAA_s140_6.0.0.dir/__/__/mesh/core/src/mesh_flash.c.obj
 .ARM.attributes
                0x00000841       0x39 examples/dfu/CMakeFiles/dfu_no_serial_nrf52840_xxAA_s140_6.0.0.dir/__/__/mesh/core/src/nrf_mesh_utils.c.obj
 .ARM.attributes
                0x0000087a       0x39 examples/dfu/CMakeFiles/dfu_no_serial_nrf52840_xxAA_s140_6.0.0.dir/__/__/mesh/core/src/nrf_mesh.c.obj
 .ARM.attributes
                0x000008b3       0x39 examples/dfu/CMakeFiles/dfu_no_serial_nrf52840_xxAA_s140_6.0.0.dir/__/__/mesh/core/src/queue.c.obj
 .ARM.attributes
                0x000008ec       0x39 examples/dfu/CMakeFiles/dfu_no_serial_nrf52840_xxAA_s140_6.0.0.dir/__/__/mesh/core/src/hal.c.obj
 .ARM.attributes
                0x00000925       0x39 examples/dfu/CMakeFiles/dfu_no_serial_nrf52840_xxAA_s140_6.0.0.dir/__/__/mesh/core/src/aes_cmac.c.obj
 .ARM.attributes
                0x0000095e       0x39 examples/dfu/CMakeFiles/dfu_no_serial_nrf52840_xxAA_s140_6.0.0.dir/__/__/mesh/core/src/timer_scheduler.c.obj
 .ARM.attributes
                0x00000997       0x39 examples/dfu/CMakeFiles/dfu_no_serial_nrf52840_xxAA_s140_6.0.0.dir/__/__/mesh/core/src/timer.c.obj
 .ARM.attributes
                0x000009d0       0x39 examples/dfu/CMakeFiles/dfu_no_serial_nrf52840_xxAA_s140_6.0.0.dir/__/__/mesh/core/src/ticker.c.obj
 .ARM.attributes
                0x00000a09       0x39 examples/dfu/CMakeFiles/dfu_no_serial_nrf52840_xxAA_s140_6.0.0.dir/__/__/mesh/core/src/rand.c.obj
 .ARM.attributes
                0x00000a42       0x39 examples/dfu/CMakeFiles/dfu_no_serial_nrf52840_xxAA_s140_6.0.0.dir/__/__/mesh/core/src/nrf_mesh_opt.c.obj
 .ARM.attributes
                0x00000a7b       0x39 examples/dfu/CMakeFiles/dfu_no_serial_nrf52840_xxAA_s140_6.0.0.dir/__/__/mesh/core/src/timeslot.c.obj
 .ARM.attributes
                0x00000ab4       0x39 examples/dfu/CMakeFiles/dfu_no_serial_nrf52840_xxAA_s140_6.0.0.dir/__/__/mesh/core/src/bearer_event.c.obj
 .ARM.attributes
                0x00000aed       0x39 examples/dfu/CMakeFiles/dfu_no_serial_nrf52840_xxAA_s140_6.0.0.dir/__/__/mesh/core/src/enc.c.obj
 .ARM.attributes
                0x00000b26       0x39 examples/dfu/CMakeFiles/dfu_no_serial_nrf52840_xxAA_s140_6.0.0.dir/__/__/mesh/core/src/network.c.obj
 .ARM.attributes
                0x00000b5f       0x39 examples/dfu/CMakeFiles/dfu_no_serial_nrf52840_xxAA_s140_6.0.0.dir/__/__/mesh/core/src/net_packet.c.obj
 .ARM.attributes
                0x00000b98       0x39 examples/dfu/CMakeFiles/dfu_no_serial_nrf52840_xxAA_s140_6.0.0.dir/__/__/mesh/core/src/msqueue.c.obj
 .ARM.attributes
                0x00000bd1       0x39 examples/dfu/CMakeFiles/dfu_no_serial_nrf52840_xxAA_s140_6.0.0.dir/__/__/mesh/core/src/nrf_mesh_keygen.c.obj
 .ARM.attributes
                0x00000c0a       0x39 examples/dfu/CMakeFiles/dfu_no_serial_nrf52840_xxAA_s140_6.0.0.dir/__/__/mesh/core/src/list.c.obj
 .ARM.attributes
                0x00000c43       0x39 examples/dfu/CMakeFiles/dfu_no_serial_nrf52840_xxAA_s140_6.0.0.dir/__/__/mesh/core/src/log.c.obj
 .ARM.attributes
                0x00000c7c       0x39 examples/dfu/CMakeFiles/dfu_no_serial_nrf52840_xxAA_s140_6.0.0.dir/__/__/mesh/core/src/flash_manager.c.obj
 .ARM.attributes
                0x00000cb5       0x39 examples/dfu/CMakeFiles/dfu_no_serial_nrf52840_xxAA_s140_6.0.0.dir/__/__/mesh/core/src/ccm_soft.c.obj
 .ARM.attributes
                0x00000cee       0x39 examples/dfu/CMakeFiles/dfu_no_serial_nrf52840_xxAA_s140_6.0.0.dir/__/__/mesh/core/src/replay_cache.c.obj
 .ARM.attributes
                0x00000d27       0x39 examples/dfu/CMakeFiles/dfu_no_serial_nrf52840_xxAA_s140_6.0.0.dir/__/__/mesh/core/src/beacon.c.obj
 .ARM.attributes
                0x00000d60       0x39 examples/dfu/CMakeFiles/dfu_no_serial_nrf52840_xxAA_s140_6.0.0.dir/__/__/mesh/core/src/flash_manager_internal.c.obj
 .ARM.attributes
                0x00000d99       0x39 examples/dfu/CMakeFiles/dfu_no_serial_nrf52840_xxAA_s140_6.0.0.dir/__/__/mesh/core/src/core_tx.c.obj
 .ARM.attributes
                0x00000dd2       0x39 examples/dfu/CMakeFiles/dfu_no_serial_nrf52840_xxAA_s140_6.0.0.dir/__/__/mesh/core/src/heartbeat.c.obj
 .ARM.attributes
                0x00000e0b       0x39 examples/dfu/CMakeFiles/dfu_no_serial_nrf52840_xxAA_s140_6.0.0.dir/__/__/mesh/core/src/net_beacon.c.obj
 .ARM.attributes
                0x00000e44       0x39 examples/dfu/CMakeFiles/dfu_no_serial_nrf52840_xxAA_s140_6.0.0.dir/__/__/mesh/core/src/core_tx_adv.c.obj
 .ARM.attributes
                0x00000e7d       0x39 examples/dfu/CMakeFiles/dfu_no_serial_nrf52840_xxAA_s140_6.0.0.dir/__/__/mesh/bearer/src/ad_listener.c.obj
 .ARM.attributes
                0x00000eb6       0x39 examples/dfu/CMakeFiles/dfu_no_serial_nrf52840_xxAA_s140_6.0.0.dir/__/__/mesh/bearer/src/ad_type_filter.c.obj
 .ARM.attributes
                0x00000eef       0x39 examples/dfu/CMakeFiles/dfu_no_serial_nrf52840_xxAA_s140_6.0.0.dir/__/__/mesh/bearer/src/advertiser.c.obj
 .ARM.attributes
                0x00000f28       0x39 examples/dfu/CMakeFiles/dfu_no_serial_nrf52840_xxAA_s140_6.0.0.dir/__/__/mesh/bearer/src/bearer_handler.c.obj
 .ARM.attributes
                0x00000f61       0x39 examples/dfu/CMakeFiles/dfu_no_serial_nrf52840_xxAA_s140_6.0.0.dir/__/__/mesh/bearer/src/broadcast.c.obj
 .ARM.attributes
                0x00000f9a       0x39 examples/dfu/CMakeFiles/dfu_no_serial_nrf52840_xxAA_s140_6.0.0.dir/__/__/mesh/bearer/src/filter_engine.c.obj
 .ARM.attributes
                0x00000fd3       0x39 examples/dfu/CMakeFiles/dfu_no_serial_nrf52840_xxAA_s140_6.0.0.dir/__/__/mesh/bearer/src/radio_config.c.obj
 .ARM.attributes
                0x0000100c       0x39 examples/dfu/CMakeFiles/dfu_no_serial_nrf52840_xxAA_s140_6.0.0.dir/__/__/mesh/bearer/src/scanner.c.obj
 .ARM.attributes
                0x00001045       0x39 examples/dfu/CMakeFiles/dfu_no_serial_nrf52840_xxAA_s140_6.0.0.dir/C_/b/nRF5_SDK_15.0.0_a53641a/modules/nrfx/mdk/system_nrf52840.c.obj
 .ARM.attributes
                0x0000107e       0x20 examples/dfu/CMakeFiles/dfu_no_serial_nrf52840_xxAA_s140_6.0.0.dir/C_/b/nRF5_SDK_15.0.0_a53641a/modules/nrfx/mdk/gcc_startup_nrf52840.S.obj
 .ARM.attributes
                0x0000109e       0x39 examples/dfu/CMakeFiles/dfu_no_serial_nrf52840_xxAA_s140_6.0.0.dir/C_/b/nRF5_SDK_15.0.0_a53641a/components/libraries/util/app_error.c.obj
 .ARM.attributes
                0x000010d7       0x39 examples/dfu/CMakeFiles/dfu_no_serial_nrf52840_xxAA_s140_6.0.0.dir/C_/b/nRF5_SDK_15.0.0_a53641a/components/libraries/util/app_error_handler_gcc.c.obj
 .ARM.attributes
                0x00001110       0x39 external/rtt/librtt_nrf52840_xxAA.a(SEGGER_RTT.c.obj)
 .ARM.attributes
                0x00001149       0x39 external/rtt/librtt_nrf52840_xxAA.a(SEGGER_RTT_printf.c.obj)
 .ARM.attributes
                0x00001182       0x39 external/micro-ecc/libuECC_nrf52840_xxAA.a(uECC.c.obj)
 .ARM.attributes
                0x000011bb       0x34 c:/mesh/arm_gcc/bin/../lib/gcc/arm-none-eabi/6.3.1/../../../../arm-none-eabi/lib/thumb/v7e-m/fpv4-sp/hard\libg_nano.a(lib_a-exit.o)
 .ARM.attributes
                0x000011ef       0x34 c:/mesh/arm_gcc/bin/../lib/gcc/arm-none-eabi/6.3.1/../../../../arm-none-eabi/lib/thumb/v7e-m/fpv4-sp/hard\libg_nano.a(lib_a-impure.o)
 .ARM.attributes
                0x00001223       0x34 c:/mesh/arm_gcc/bin/../lib/gcc/arm-none-eabi/6.3.1/../../../../arm-none-eabi/lib/thumb/v7e-m/fpv4-sp/hard\libg_nano.a(lib_a-init.o)
 .ARM.attributes
                0x00001257       0x34 c:/mesh/arm_gcc/bin/../lib/gcc/arm-none-eabi/6.3.1/../../../../arm-none-eabi/lib/thumb/v7e-m/fpv4-sp/hard\libg_nano.a(lib_a-malloc.o)
 .ARM.attributes
                0x0000128b       0x34 c:/mesh/arm_gcc/bin/../lib/gcc/arm-none-eabi/6.3.1/../../../../arm-none-eabi/lib/thumb/v7e-m/fpv4-sp/hard\libg_nano.a(lib_a-memcmp.o)
 .ARM.attributes
                0x000012bf       0x34 c:/mesh/arm_gcc/bin/../lib/gcc/arm-none-eabi/6.3.1/../../../../arm-none-eabi/lib/thumb/v7e-m/fpv4-sp/hard\libg_nano.a(lib_a-memcpy-stub.o)
 .ARM.attributes
                0x000012f3       0x34 c:/mesh/arm_gcc/bin/../lib/gcc/arm-none-eabi/6.3.1/../../../../arm-none-eabi/lib/thumb/v7e-m/fpv4-sp/hard\libg_nano.a(lib_a-memset.o)
 .ARM.attributes
                0x00001327       0x34 c:/mesh/arm_gcc/bin/../lib/gcc/arm-none-eabi/6.3.1/../../../../arm-none-eabi/lib/thumb/v7e-m/fpv4-sp/hard\libg_nano.a(lib_a-nano-freer.o)
 .ARM.attributes
                0x0000135b       0x34 c:/mesh/arm_gcc/bin/../lib/gcc/arm-none-eabi/6.3.1/../../../../arm-none-eabi/lib/thumb/v7e-m/fpv4-sp/hard\libg_nano.a(lib_a-nano-mallocr.o)
 .ARM.attributes
                0x0000138f       0x34 c:/mesh/arm_gcc/bin/../lib/gcc/arm-none-eabi/6.3.1/../../../../arm-none-eabi/lib/thumb/v7e-m/fpv4-sp/hard\libg_nano.a(lib_a-sbrkr.o)
 .ARM.attributes
                0x000013c3       0x34 c:/mesh/arm_gcc/bin/../lib/gcc/arm-none-eabi/6.3.1/../../../../arm-none-eabi/lib/thumb/v7e-m/fpv4-sp/hard\libg_nano.a(lib_a-strcpy.o)
 .ARM.attributes
                0x000013f7       0x1b c:/mesh/arm_gcc/bin/../lib/gcc/arm-none-eabi/6.3.1/../../../../arm-none-eabi/lib/thumb/v7e-m/fpv4-sp/hard\libg_nano.a(lib_a-strlen.o)
 .ARM.attributes
                0x00001412       0x34 c:/mesh/arm_gcc/bin/../lib/gcc/arm-none-eabi/6.3.1/../../../../arm-none-eabi/lib/thumb/v7e-m/fpv4-sp/hard\libg_nano.a(lib_a-strrchr.o)
 .ARM.attributes
                0x00001446       0x34 c:/mesh/arm_gcc/bin/../lib/gcc/arm-none-eabi/6.3.1/../../../../arm-none-eabi/lib/thumb/v7e-m/fpv4-sp/hard\libg_nano.a(lib_a-mlock.o)
 .ARM.attributes
                0x0000147a       0x34 c:/mesh/arm_gcc/bin/../lib/gcc/arm-none-eabi/6.3.1/../../../../arm-none-eabi/lib/thumb/v7e-m/fpv4-sp/hard\libg_nano.a(lib_a-reent.o)
 .ARM.attributes
                0x000014ae       0x34 c:/mesh/arm_gcc/bin/../lib/gcc/arm-none-eabi/6.3.1/../../../../arm-none-eabi/lib/thumb/v7e-m/fpv4-sp/hard\libg_nano.a(lib_a-strchr.o)
 .ARM.attributes
                0x000014e2       0x34 c:/mesh/arm_gcc/bin/../lib/gcc/arm-none-eabi/6.3.1/thumb/v7e-m/fpv4-sp/hard/crtend.o
 .ARM.attributes
                0x00001516       0x22 c:/mesh/arm_gcc/bin/../lib/gcc/arm-none-eabi/6.3.1/thumb/v7e-m/fpv4-sp/hard/crtn.o
 .ARM.attributes
                0x00001538       0x34 c:/mesh/arm_gcc/bin/../lib/gcc/arm-none-eabi/6.3.1/../../../../arm-none-eabi/lib/thumb/v7e-m/fpv4-sp/hard\libnosys.a(sbrk.o)
 .ARM.attributes
                0x0000156c       0x34 c:/mesh/arm_gcc/bin/../lib/gcc/arm-none-eabi/6.3.1/../../../../arm-none-eabi/lib/thumb/v7e-m/fpv4-sp/hard\libnosys.a(_exit.o)

.comment        0x00000000       0x7f
 .comment       0x00000000       0x7f examples/dfu/CMakeFiles/dfu_no_serial_nrf52840_xxAA_s140_6.0.0.dir/src/main.c.obj
                                 0x80 (size before relaxing)
 .comment       0x0000007f       0x80 examples/dfu/CMakeFiles/dfu_no_serial_nrf52840_xxAA_s140_6.0.0.dir/__/__/mesh/stack/src/mesh_stack.c.obj
 .comment       0x0000007f       0x80 examples/dfu/CMakeFiles/dfu_no_serial_nrf52840_xxAA_s140_6.0.0.dir/__/common/src/mesh_softdevice_init.c.obj
 .comment       0x0000007f       0x80 examples/dfu/CMakeFiles/dfu_no_serial_nrf52840_xxAA_s140_6.0.0.dir/__/common/src/mesh_provisionee.c.obj
 .comment       0x0000007f       0x80 examples/dfu/CMakeFiles/dfu_no_serial_nrf52840_xxAA_s140_6.0.0.dir/__/common/src/simple_hal.c.obj
 .comment       0x0000007f       0x80 examples/dfu/CMakeFiles/dfu_no_serial_nrf52840_xxAA_s140_6.0.0.dir/__/__/mesh/access/src/access_publish.c.obj
 .comment       0x0000007f       0x80 examples/dfu/CMakeFiles/dfu_no_serial_nrf52840_xxAA_s140_6.0.0.dir/__/__/mesh/access/src/access.c.obj
 .comment       0x0000007f       0x80 examples/dfu/CMakeFiles/dfu_no_serial_nrf52840_xxAA_s140_6.0.0.dir/__/__/mesh/access/src/access_reliable.c.obj
 .comment       0x0000007f       0x80 examples/dfu/CMakeFiles/dfu_no_serial_nrf52840_xxAA_s140_6.0.0.dir/__/__/mesh/access/src/device_state_manager.c.obj
 .comment       0x0000007f       0x80 examples/dfu/CMakeFiles/dfu_no_serial_nrf52840_xxAA_s140_6.0.0.dir/__/__/models/config/src/composition_data.c.obj
 .comment       0x0000007f       0x80 examples/dfu/CMakeFiles/dfu_no_serial_nrf52840_xxAA_s140_6.0.0.dir/__/__/models/config/src/config_server.c.obj
 .comment       0x0000007f       0x80 examples/dfu/CMakeFiles/dfu_no_serial_nrf52840_xxAA_s140_6.0.0.dir/__/__/models/config/src/packed_index_list.c.obj
 .comment       0x0000007f       0x80 examples/dfu/CMakeFiles/dfu_no_serial_nrf52840_xxAA_s140_6.0.0.dir/__/__/models/health/src/health_server.c.obj
 .comment       0x0000007f       0x80 examples/dfu/CMakeFiles/dfu_no_serial_nrf52840_xxAA_s140_6.0.0.dir/__/__/mesh/prov/src/prov_provisioner.c.obj
 .comment       0x0000007f       0x80 examples/dfu/CMakeFiles/dfu_no_serial_nrf52840_xxAA_s140_6.0.0.dir/__/__/mesh/prov/src/prov_provisionee.c.obj
 .comment       0x0000007f       0x80 examples/dfu/CMakeFiles/dfu_no_serial_nrf52840_xxAA_s140_6.0.0.dir/__/__/mesh/prov/src/nrf_mesh_prov.c.obj
 .comment       0x0000007f       0x80 examples/dfu/CMakeFiles/dfu_no_serial_nrf52840_xxAA_s140_6.0.0.dir/__/__/mesh/prov/src/provisioning.c.obj
 .comment       0x0000007f       0x80 examples/dfu/CMakeFiles/dfu_no_serial_nrf52840_xxAA_s140_6.0.0.dir/__/__/mesh/prov/src/prov_beacon.c.obj
 .comment       0x0000007f       0x80 examples/dfu/CMakeFiles/dfu_no_serial_nrf52840_xxAA_s140_6.0.0.dir/__/__/mesh/prov/src/prov_utils.c.obj
 .comment       0x0000007f       0x80 examples/dfu/CMakeFiles/dfu_no_serial_nrf52840_xxAA_s140_6.0.0.dir/__/__/mesh/prov/src/prov_bearer_adv.c.obj
 .comment       0x0000007f       0x80 examples/dfu/CMakeFiles/dfu_no_serial_nrf52840_xxAA_s140_6.0.0.dir/__/__/mesh/dfu/src/nrf_mesh_dfu.c.obj
 .comment       0x0000007f       0x80 examples/dfu/CMakeFiles/dfu_no_serial_nrf52840_xxAA_s140_6.0.0.dir/__/common/src/app_error_weak.c.obj
 .comment       0x0000007f       0x80 examples/dfu/CMakeFiles/dfu_no_serial_nrf52840_xxAA_s140_6.0.0.dir/__/common/src/assertion_handler_weak.c.obj
 .comment       0x0000007f       0x80 examples/dfu/CMakeFiles/dfu_no_serial_nrf52840_xxAA_s140_6.0.0.dir/__/__/mesh/core/src/nrf_mesh_configure.c.obj
 .comment       0x0000007f       0x80 examples/dfu/CMakeFiles/dfu_no_serial_nrf52840_xxAA_s140_6.0.0.dir/__/__/mesh/core/src/aes.c.obj
 .comment       0x0000007f       0x80 examples/dfu/CMakeFiles/dfu_no_serial_nrf52840_xxAA_s140_6.0.0.dir/__/__/mesh/core/src/msg_cache.c.obj
 .comment       0x0000007f       0x80 examples/dfu/CMakeFiles/dfu_no_serial_nrf52840_xxAA_s140_6.0.0.dir/__/__/mesh/core/src/transport.c.obj
 .comment       0x0000007f       0x80 examples/dfu/CMakeFiles/dfu_no_serial_nrf52840_xxAA_s140_6.0.0.dir/__/__/mesh/core/src/event.c.obj
 .comment       0x0000007f       0x80 examples/dfu/CMakeFiles/dfu_no_serial_nrf52840_xxAA_s140_6.0.0.dir/__/__/mesh/core/src/packet_buffer.c.obj
 .comment       0x0000007f       0x80 examples/dfu/CMakeFiles/dfu_no_serial_nrf52840_xxAA_s140_6.0.0.dir/__/__/mesh/core/src/flash_manager_defrag.c.obj
 .comment       0x0000007f       0x80 examples/dfu/CMakeFiles/dfu_no_serial_nrf52840_xxAA_s140_6.0.0.dir/__/__/mesh/core/src/fifo.c.obj
 .comment       0x0000007f       0x80 examples/dfu/CMakeFiles/dfu_no_serial_nrf52840_xxAA_s140_6.0.0.dir/__/__/mesh/core/src/nrf_flash.c.obj
 .comment       0x0000007f       0x80 examples/dfu/CMakeFiles/dfu_no_serial_nrf52840_xxAA_s140_6.0.0.dir/__/__/mesh/core/src/packet_mgr.c.obj
 .comment       0x0000007f       0x80 examples/dfu/CMakeFiles/dfu_no_serial_nrf52840_xxAA_s140_6.0.0.dir/__/__/mesh/core/src/net_state.c.obj
 .comment       0x0000007f       0x80 examples/dfu/CMakeFiles/dfu_no_serial_nrf52840_xxAA_s140_6.0.0.dir/__/__/mesh/core/src/mesh_flash.c.obj
 .comment       0x0000007f       0x80 examples/dfu/CMakeFiles/dfu_no_serial_nrf52840_xxAA_s140_6.0.0.dir/__/__/mesh/core/src/nrf_mesh_utils.c.obj
 .comment       0x0000007f       0x80 examples/dfu/CMakeFiles/dfu_no_serial_nrf52840_xxAA_s140_6.0.0.dir/__/__/mesh/core/src/nrf_mesh.c.obj
 .comment       0x0000007f       0x80 examples/dfu/CMakeFiles/dfu_no_serial_nrf52840_xxAA_s140_6.0.0.dir/__/__/mesh/core/src/queue.c.obj
 .comment       0x0000007f       0x80 examples/dfu/CMakeFiles/dfu_no_serial_nrf52840_xxAA_s140_6.0.0.dir/__/__/mesh/core/src/hal.c.obj
 .comment       0x0000007f       0x80 examples/dfu/CMakeFiles/dfu_no_serial_nrf52840_xxAA_s140_6.0.0.dir/__/__/mesh/core/src/aes_cmac.c.obj
 .comment       0x0000007f       0x80 examples/dfu/CMakeFiles/dfu_no_serial_nrf52840_xxAA_s140_6.0.0.dir/__/__/mesh/core/src/timer_scheduler.c.obj
 .comment       0x0000007f       0x80 examples/dfu/CMakeFiles/dfu_no_serial_nrf52840_xxAA_s140_6.0.0.dir/__/__/mesh/core/src/timer.c.obj
 .comment       0x0000007f       0x80 examples/dfu/CMakeFiles/dfu_no_serial_nrf52840_xxAA_s140_6.0.0.dir/__/__/mesh/core/src/ticker.c.obj
 .comment       0x0000007f       0x80 examples/dfu/CMakeFiles/dfu_no_serial_nrf52840_xxAA_s140_6.0.0.dir/__/__/mesh/core/src/rand.c.obj
 .comment       0x0000007f       0x80 examples/dfu/CMakeFiles/dfu_no_serial_nrf52840_xxAA_s140_6.0.0.dir/__/__/mesh/core/src/nrf_mesh_opt.c.obj
 .comment       0x0000007f       0x80 examples/dfu/CMakeFiles/dfu_no_serial_nrf52840_xxAA_s140_6.0.0.dir/__/__/mesh/core/src/timeslot.c.obj
 .comment       0x0000007f       0x80 examples/dfu/CMakeFiles/dfu_no_serial_nrf52840_xxAA_s140_6.0.0.dir/__/__/mesh/core/src/bearer_event.c.obj
 .comment       0x0000007f       0x80 examples/dfu/CMakeFiles/dfu_no_serial_nrf52840_xxAA_s140_6.0.0.dir/__/__/mesh/core/src/enc.c.obj
 .comment       0x0000007f       0x80 examples/dfu/CMakeFiles/dfu_no_serial_nrf52840_xxAA_s140_6.0.0.dir/__/__/mesh/core/src/network.c.obj
 .comment       0x0000007f       0x80 examples/dfu/CMakeFiles/dfu_no_serial_nrf52840_xxAA_s140_6.0.0.dir/__/__/mesh/core/src/net_packet.c.obj
 .comment       0x0000007f       0x80 examples/dfu/CMakeFiles/dfu_no_serial_nrf52840_xxAA_s140_6.0.0.dir/__/__/mesh/core/src/msqueue.c.obj
 .comment       0x0000007f       0x80 examples/dfu/CMakeFiles/dfu_no_serial_nrf52840_xxAA_s140_6.0.0.dir/__/__/mesh/core/src/nrf_mesh_keygen.c.obj
 .comment       0x0000007f       0x80 examples/dfu/CMakeFiles/dfu_no_serial_nrf52840_xxAA_s140_6.0.0.dir/__/__/mesh/core/src/list.c.obj
 .comment       0x0000007f       0x80 examples/dfu/CMakeFiles/dfu_no_serial_nrf52840_xxAA_s140_6.0.0.dir/__/__/mesh/core/src/log.c.obj
 .comment       0x0000007f       0x80 examples/dfu/CMakeFiles/dfu_no_serial_nrf52840_xxAA_s140_6.0.0.dir/__/__/mesh/core/src/flash_manager.c.obj
 .comment       0x0000007f       0x80 examples/dfu/CMakeFiles/dfu_no_serial_nrf52840_xxAA_s140_6.0.0.dir/__/__/mesh/core/src/ccm_soft.c.obj
 .comment       0x0000007f       0x80 examples/dfu/CMakeFiles/dfu_no_serial_nrf52840_xxAA_s140_6.0.0.dir/__/__/mesh/core/src/replay_cache.c.obj
 .comment       0x0000007f       0x80 examples/dfu/CMakeFiles/dfu_no_serial_nrf52840_xxAA_s140_6.0.0.dir/__/__/mesh/core/src/beacon.c.obj
 .comment       0x0000007f       0x80 examples/dfu/CMakeFiles/dfu_no_serial_nrf52840_xxAA_s140_6.0.0.dir/__/__/mesh/core/src/flash_manager_internal.c.obj
 .comment       0x0000007f       0x80 examples/dfu/CMakeFiles/dfu_no_serial_nrf52840_xxAA_s140_6.0.0.dir/__/__/mesh/core/src/core_tx.c.obj
 .comment       0x0000007f       0x80 examples/dfu/CMakeFiles/dfu_no_serial_nrf52840_xxAA_s140_6.0.0.dir/__/__/mesh/core/src/heartbeat.c.obj
 .comment       0x0000007f       0x80 examples/dfu/CMakeFiles/dfu_no_serial_nrf52840_xxAA_s140_6.0.0.dir/__/__/mesh/core/src/net_beacon.c.obj
 .comment       0x0000007f       0x80 examples/dfu/CMakeFiles/dfu_no_serial_nrf52840_xxAA_s140_6.0.0.dir/__/__/mesh/core/src/core_tx_adv.c.obj
 .comment       0x0000007f       0x80 examples/dfu/CMakeFiles/dfu_no_serial_nrf52840_xxAA_s140_6.0.0.dir/__/__/mesh/bearer/src/ad_listener.c.obj
 .comment       0x0000007f       0x80 examples/dfu/CMakeFiles/dfu_no_serial_nrf52840_xxAA_s140_6.0.0.dir/__/__/mesh/bearer/src/ad_type_filter.c.obj
 .comment       0x0000007f       0x80 examples/dfu/CMakeFiles/dfu_no_serial_nrf52840_xxAA_s140_6.0.0.dir/__/__/mesh/bearer/src/advertiser.c.obj
 .comment       0x0000007f       0x80 examples/dfu/CMakeFiles/dfu_no_serial_nrf52840_xxAA_s140_6.0.0.dir/__/__/mesh/bearer/src/bearer_handler.c.obj
 .comment       0x0000007f       0x80 examples/dfu/CMakeFiles/dfu_no_serial_nrf52840_xxAA_s140_6.0.0.dir/__/__/mesh/bearer/src/broadcast.c.obj
 .comment       0x0000007f       0x80 examples/dfu/CMakeFiles/dfu_no_serial_nrf52840_xxAA_s140_6.0.0.dir/__/__/mesh/bearer/src/filter_engine.c.obj
 .comment       0x0000007f       0x80 examples/dfu/CMakeFiles/dfu_no_serial_nrf52840_xxAA_s140_6.0.0.dir/__/__/mesh/bearer/src/radio_config.c.obj
 .comment       0x0000007f       0x80 examples/dfu/CMakeFiles/dfu_no_serial_nrf52840_xxAA_s140_6.0.0.dir/__/__/mesh/bearer/src/scanner.c.obj
 .comment       0x0000007f       0x80 examples/dfu/CMakeFiles/dfu_no_serial_nrf52840_xxAA_s140_6.0.0.dir/C_/b/nRF5_SDK_15.0.0_a53641a/modules/nrfx/mdk/system_nrf52840.c.obj
 .comment       0x0000007f       0x80 examples/dfu/CMakeFiles/dfu_no_serial_nrf52840_xxAA_s140_6.0.0.dir/C_/b/nRF5_SDK_15.0.0_a53641a/components/libraries/util/app_error.c.obj
 .comment       0x0000007f       0x80 examples/dfu/CMakeFiles/dfu_no_serial_nrf52840_xxAA_s140_6.0.0.dir/C_/b/nRF5_SDK_15.0.0_a53641a/components/libraries/util/app_error_handler_gcc.c.obj
 .comment       0x0000007f       0x80 external/rtt/librtt_nrf52840_xxAA.a(SEGGER_RTT.c.obj)
 .comment       0x0000007f       0x80 external/rtt/librtt_nrf52840_xxAA.a(SEGGER_RTT_printf.c.obj)
 .comment       0x0000007f       0x80 external/micro-ecc/libuECC_nrf52840_xxAA.a(uECC.c.obj)

.debug_info     0x00000000    0x8325c
 .debug_info    0x00000000     0x30c1 examples/dfu/CMakeFiles/dfu_no_serial_nrf52840_xxAA_s140_6.0.0.dir/src/main.c.obj
 .debug_info    0x000030c1     0x230b examples/dfu/CMakeFiles/dfu_no_serial_nrf52840_xxAA_s140_6.0.0.dir/__/__/mesh/stack/src/mesh_stack.c.obj
 .debug_info    0x000053cc     0x1756 examples/dfu/CMakeFiles/dfu_no_serial_nrf52840_xxAA_s140_6.0.0.dir/__/common/src/mesh_softdevice_init.c.obj
 .debug_info    0x00006b22     0x2171 examples/dfu/CMakeFiles/dfu_no_serial_nrf52840_xxAA_s140_6.0.0.dir/__/common/src/mesh_provisionee.c.obj
 .debug_info    0x00008c93     0x1590 examples/dfu/CMakeFiles/dfu_no_serial_nrf52840_xxAA_s140_6.0.0.dir/__/common/src/simple_hal.c.obj
 .debug_info    0x0000a223     0x1155 examples/dfu/CMakeFiles/dfu_no_serial_nrf52840_xxAA_s140_6.0.0.dir/__/__/mesh/access/src/access_publish.c.obj
 .debug_info    0x0000b378     0x4a41 examples/dfu/CMakeFiles/dfu_no_serial_nrf52840_xxAA_s140_6.0.0.dir/__/__/mesh/access/src/access.c.obj
 .debug_info    0x0000fdb9     0x19d3 examples/dfu/CMakeFiles/dfu_no_serial_nrf52840_xxAA_s140_6.0.0.dir/__/__/mesh/access/src/access_reliable.c.obj
 .debug_info    0x0001178c     0x65d4 examples/dfu/CMakeFiles/dfu_no_serial_nrf52840_xxAA_s140_6.0.0.dir/__/__/mesh/access/src/device_state_manager.c.obj
 .debug_info    0x00017d60      0xece examples/dfu/CMakeFiles/dfu_no_serial_nrf52840_xxAA_s140_6.0.0.dir/__/__/models/config/src/composition_data.c.obj
 .debug_info    0x00018c2e     0x8a90 examples/dfu/CMakeFiles/dfu_no_serial_nrf52840_xxAA_s140_6.0.0.dir/__/__/models/config/src/config_server.c.obj
 .debug_info    0x000216be      0x126 examples/dfu/CMakeFiles/dfu_no_serial_nrf52840_xxAA_s140_6.0.0.dir/__/__/models/config/src/packed_index_list.c.obj
 .debug_info    0x000217e4     0x270a examples/dfu/CMakeFiles/dfu_no_serial_nrf52840_xxAA_s140_6.0.0.dir/__/__/models/health/src/health_server.c.obj
 .debug_info    0x00023eee     0x2438 examples/dfu/CMakeFiles/dfu_no_serial_nrf52840_xxAA_s140_6.0.0.dir/__/__/mesh/prov/src/prov_provisioner.c.obj
 .debug_info    0x00026326     0x2823 examples/dfu/CMakeFiles/dfu_no_serial_nrf52840_xxAA_s140_6.0.0.dir/__/__/mesh/prov/src/prov_provisionee.c.obj
 .debug_info    0x00028b49     0x1ed2 examples/dfu/CMakeFiles/dfu_no_serial_nrf52840_xxAA_s140_6.0.0.dir/__/__/mesh/prov/src/nrf_mesh_prov.c.obj
 .debug_info    0x0002aa1b     0x1586 examples/dfu/CMakeFiles/dfu_no_serial_nrf52840_xxAA_s140_6.0.0.dir/__/__/mesh/prov/src/provisioning.c.obj
 .debug_info    0x0002bfa1     0x1a48 examples/dfu/CMakeFiles/dfu_no_serial_nrf52840_xxAA_s140_6.0.0.dir/__/__/mesh/prov/src/prov_beacon.c.obj
 .debug_info    0x0002d9e9     0x2054 examples/dfu/CMakeFiles/dfu_no_serial_nrf52840_xxAA_s140_6.0.0.dir/__/__/mesh/prov/src/prov_utils.c.obj
 .debug_info    0x0002fa3d     0x3ab2 examples/dfu/CMakeFiles/dfu_no_serial_nrf52840_xxAA_s140_6.0.0.dir/__/__/mesh/prov/src/prov_bearer_adv.c.obj
 .debug_info    0x000334ef     0x5133 examples/dfu/CMakeFiles/dfu_no_serial_nrf52840_xxAA_s140_6.0.0.dir/__/__/mesh/dfu/src/nrf_mesh_dfu.c.obj
 .debug_info    0x00038622     0x106b examples/dfu/CMakeFiles/dfu_no_serial_nrf52840_xxAA_s140_6.0.0.dir/__/common/src/app_error_weak.c.obj
 .debug_info    0x0003968d      0x99b examples/dfu/CMakeFiles/dfu_no_serial_nrf52840_xxAA_s140_6.0.0.dir/__/common/src/assertion_handler_weak.c.obj
 .debug_info    0x0003a028      0xdff examples/dfu/CMakeFiles/dfu_no_serial_nrf52840_xxAA_s140_6.0.0.dir/__/__/mesh/core/src/nrf_mesh_configure.c.obj
 .debug_info    0x0003ae27      0xbf0 examples/dfu/CMakeFiles/dfu_no_serial_nrf52840_xxAA_s140_6.0.0.dir/__/__/mesh/core/src/aes.c.obj
 .debug_info    0x0003ba17      0xa5a examples/dfu/CMakeFiles/dfu_no_serial_nrf52840_xxAA_s140_6.0.0.dir/__/__/mesh/core/src/msg_cache.c.obj
 .debug_info    0x0003c471     0x5086 examples/dfu/CMakeFiles/dfu_no_serial_nrf52840_xxAA_s140_6.0.0.dir/__/__/mesh/core/src/transport.c.obj
 .debug_info    0x000414f7     0x171f examples/dfu/CMakeFiles/dfu_no_serial_nrf52840_xxAA_s140_6.0.0.dir/__/__/mesh/core/src/event.c.obj
 .debug_info    0x00042c16     0x1a22 examples/dfu/CMakeFiles/dfu_no_serial_nrf52840_xxAA_s140_6.0.0.dir/__/__/mesh/core/src/packet_buffer.c.obj
 .debug_info    0x00044638     0x212b examples/dfu/CMakeFiles/dfu_no_serial_nrf52840_xxAA_s140_6.0.0.dir/__/__/mesh/core/src/flash_manager_defrag.c.obj
 .debug_info    0x00046763      0xd19 examples/dfu/CMakeFiles/dfu_no_serial_nrf52840_xxAA_s140_6.0.0.dir/__/__/mesh/core/src/fifo.c.obj
 .debug_info    0x0004747c      0xb58 examples/dfu/CMakeFiles/dfu_no_serial_nrf52840_xxAA_s140_6.0.0.dir/__/__/mesh/core/src/nrf_flash.c.obj
 .debug_info    0x00047fd4     0x118d examples/dfu/CMakeFiles/dfu_no_serial_nrf52840_xxAA_s140_6.0.0.dir/__/__/mesh/core/src/packet_mgr.c.obj
 .debug_info    0x00049161     0x27ed examples/dfu/CMakeFiles/dfu_no_serial_nrf52840_xxAA_s140_6.0.0.dir/__/__/mesh/core/src/net_state.c.obj
 .debug_info    0x0004b94e     0x1931 examples/dfu/CMakeFiles/dfu_no_serial_nrf52840_xxAA_s140_6.0.0.dir/__/__/mesh/core/src/mesh_flash.c.obj
 .debug_info    0x0004d27f      0xa78 examples/dfu/CMakeFiles/dfu_no_serial_nrf52840_xxAA_s140_6.0.0.dir/__/__/mesh/core/src/nrf_mesh_utils.c.obj
 .debug_info    0x0004dcf7     0x25a6 examples/dfu/CMakeFiles/dfu_no_serial_nrf52840_xxAA_s140_6.0.0.dir/__/__/mesh/core/src/nrf_mesh.c.obj
 .debug_info    0x0005029d      0xb11 examples/dfu/CMakeFiles/dfu_no_serial_nrf52840_xxAA_s140_6.0.0.dir/__/__/mesh/core/src/queue.c.obj
 .debug_info    0x00050dae      0x51a examples/dfu/CMakeFiles/dfu_no_serial_nrf52840_xxAA_s140_6.0.0.dir/__/__/mesh/core/src/hal.c.obj
 .debug_info    0x000512c8      0xe48 examples/dfu/CMakeFiles/dfu_no_serial_nrf52840_xxAA_s140_6.0.0.dir/__/__/mesh/core/src/aes_cmac.c.obj
 .debug_info    0x00052110     0x10e0 examples/dfu/CMakeFiles/dfu_no_serial_nrf52840_xxAA_s140_6.0.0.dir/__/__/mesh/core/src/timer_scheduler.c.obj
 .debug_info    0x000531f0      0xdb4 examples/dfu/CMakeFiles/dfu_no_serial_nrf52840_xxAA_s140_6.0.0.dir/__/__/mesh/core/src/timer.c.obj
 .debug_info    0x00053fa4      0x20b examples/dfu/CMakeFiles/dfu_no_serial_nrf52840_xxAA_s140_6.0.0.dir/__/__/mesh/core/src/ticker.c.obj
 .debug_info    0x000541af      0x426 examples/dfu/CMakeFiles/dfu_no_serial_nrf52840_xxAA_s140_6.0.0.dir/__/__/mesh/core/src/rand.c.obj
 .debug_info    0x000545d5      0xaf5 examples/dfu/CMakeFiles/dfu_no_serial_nrf52840_xxAA_s140_6.0.0.dir/__/__/mesh/core/src/nrf_mesh_opt.c.obj
 .debug_info    0x000550ca     0x1a71 examples/dfu/CMakeFiles/dfu_no_serial_nrf52840_xxAA_s140_6.0.0.dir/__/__/mesh/core/src/timeslot.c.obj
 .debug_info    0x00056b3b     0x1a9c examples/dfu/CMakeFiles/dfu_no_serial_nrf52840_xxAA_s140_6.0.0.dir/__/__/mesh/core/src/bearer_event.c.obj
 .debug_info    0x000585d7     0x1703 examples/dfu/CMakeFiles/dfu_no_serial_nrf52840_xxAA_s140_6.0.0.dir/__/__/mesh/core/src/enc.c.obj
 .debug_info    0x00059cda     0x1acb examples/dfu/CMakeFiles/dfu_no_serial_nrf52840_xxAA_s140_6.0.0.dir/__/__/mesh/core/src/network.c.obj
 .debug_info    0x0005b7a5     0x1cad examples/dfu/CMakeFiles/dfu_no_serial_nrf52840_xxAA_s140_6.0.0.dir/__/__/mesh/core/src/net_packet.c.obj
 .debug_info    0x0005d452      0xd86 examples/dfu/CMakeFiles/dfu_no_serial_nrf52840_xxAA_s140_6.0.0.dir/__/__/mesh/core/src/msqueue.c.obj
 .debug_info    0x0005e1d8      0x4c7 examples/dfu/CMakeFiles/dfu_no_serial_nrf52840_xxAA_s140_6.0.0.dir/__/__/mesh/core/src/nrf_mesh_keygen.c.obj
 .debug_info    0x0005e69f      0x506 examples/dfu/CMakeFiles/dfu_no_serial_nrf52840_xxAA_s140_6.0.0.dir/__/__/mesh/core/src/list.c.obj
 .debug_info    0x0005eba5      0xe28 examples/dfu/CMakeFiles/dfu_no_serial_nrf52840_xxAA_s140_6.0.0.dir/__/__/mesh/core/src/log.c.obj
 .debug_info    0x0005f9cd     0x3024 examples/dfu/CMakeFiles/dfu_no_serial_nrf52840_xxAA_s140_6.0.0.dir/__/__/mesh/core/src/flash_manager.c.obj
 .debug_info    0x000629f1     0x10a3 examples/dfu/CMakeFiles/dfu_no_serial_nrf52840_xxAA_s140_6.0.0.dir/__/__/mesh/core/src/ccm_soft.c.obj
 .debug_info    0x00063a94      0xa93 examples/dfu/CMakeFiles/dfu_no_serial_nrf52840_xxAA_s140_6.0.0.dir/__/__/mesh/core/src/replay_cache.c.obj
 .debug_info    0x00064527     0x177f examples/dfu/CMakeFiles/dfu_no_serial_nrf52840_xxAA_s140_6.0.0.dir/__/__/mesh/core/src/beacon.c.obj
 .debug_info    0x00065ca6      0xb9b examples/dfu/CMakeFiles/dfu_no_serial_nrf52840_xxAA_s140_6.0.0.dir/__/__/mesh/core/src/flash_manager_internal.c.obj
 .debug_info    0x00066841     0x126f examples/dfu/CMakeFiles/dfu_no_serial_nrf52840_xxAA_s140_6.0.0.dir/__/__/mesh/core/src/core_tx.c.obj
 .debug_info    0x00067ab0     0x24d8 examples/dfu/CMakeFiles/dfu_no_serial_nrf52840_xxAA_s140_6.0.0.dir/__/__/mesh/core/src/heartbeat.c.obj
 .debug_info    0x00069f88     0x28ac examples/dfu/CMakeFiles/dfu_no_serial_nrf52840_xxAA_s140_6.0.0.dir/__/__/mesh/core/src/net_beacon.c.obj
 .debug_info    0x0006c834     0x197b examples/dfu/CMakeFiles/dfu_no_serial_nrf52840_xxAA_s140_6.0.0.dir/__/__/mesh/core/src/core_tx_adv.c.obj
 .debug_info    0x0006e1af     0x1164 examples/dfu/CMakeFiles/dfu_no_serial_nrf52840_xxAA_s140_6.0.0.dir/__/__/mesh/bearer/src/ad_listener.c.obj
 .debug_info    0x0006f313      0xfbe examples/dfu/CMakeFiles/dfu_no_serial_nrf52840_xxAA_s140_6.0.0.dir/__/__/mesh/bearer/src/ad_type_filter.c.obj
 .debug_info    0x000702d1     0x267f examples/dfu/CMakeFiles/dfu_no_serial_nrf52840_xxAA_s140_6.0.0.dir/__/__/mesh/bearer/src/advertiser.c.obj
 .debug_info    0x00072950     0x1b53 examples/dfu/CMakeFiles/dfu_no_serial_nrf52840_xxAA_s140_6.0.0.dir/__/__/mesh/bearer/src/bearer_handler.c.obj
 .debug_info    0x000744a3     0x1af7 examples/dfu/CMakeFiles/dfu_no_serial_nrf52840_xxAA_s140_6.0.0.dir/__/__/mesh/bearer/src/broadcast.c.obj
 .debug_info    0x00075f9a      0xcff examples/dfu/CMakeFiles/dfu_no_serial_nrf52840_xxAA_s140_6.0.0.dir/__/__/mesh/bearer/src/filter_engine.c.obj
 .debug_info    0x00076c99      0xa35 examples/dfu/CMakeFiles/dfu_no_serial_nrf52840_xxAA_s140_6.0.0.dir/__/__/mesh/bearer/src/radio_config.c.obj
 .debug_info    0x000776ce     0x27a3 examples/dfu/CMakeFiles/dfu_no_serial_nrf52840_xxAA_s140_6.0.0.dir/__/__/mesh/bearer/src/scanner.c.obj
 .debug_info    0x00079e71     0x139f examples/dfu/CMakeFiles/dfu_no_serial_nrf52840_xxAA_s140_6.0.0.dir/C_/b/nRF5_SDK_15.0.0_a53641a/modules/nrfx/mdk/system_nrf52840.c.obj
 .debug_info    0x0007b210      0xaee examples/dfu/CMakeFiles/dfu_no_serial_nrf52840_xxAA_s140_6.0.0.dir/C_/b/nRF5_SDK_15.0.0_a53641a/components/libraries/util/app_error.c.obj
 .debug_info    0x0007bcfe      0x974 examples/dfu/CMakeFiles/dfu_no_serial_nrf52840_xxAA_s140_6.0.0.dir/C_/b/nRF5_SDK_15.0.0_a53641a/components/libraries/util/app_error_handler_gcc.c.obj
 .debug_info    0x0007c672     0x1818 external/rtt/librtt_nrf52840_xxAA.a(SEGGER_RTT.c.obj)
 .debug_info    0x0007de8a      0xec1 external/rtt/librtt_nrf52840_xxAA.a(SEGGER_RTT_printf.c.obj)
 .debug_info    0x0007ed4b     0x4511 external/micro-ecc/libuECC_nrf52840_xxAA.a(uECC.c.obj)

.debug_abbrev   0x00000000    0x10b5a
 .debug_abbrev  0x00000000      0x4da examples/dfu/CMakeFiles/dfu_no_serial_nrf52840_xxAA_s140_6.0.0.dir/src/main.c.obj
 .debug_abbrev  0x000004da      0x36b examples/dfu/CMakeFiles/dfu_no_serial_nrf52840_xxAA_s140_6.0.0.dir/__/__/mesh/stack/src/mesh_stack.c.obj
 .debug_abbrev  0x00000845      0x40b examples/dfu/CMakeFiles/dfu_no_serial_nrf52840_xxAA_s140_6.0.0.dir/__/common/src/mesh_softdevice_init.c.obj
 .debug_abbrev  0x00000c50      0x312 examples/dfu/CMakeFiles/dfu_no_serial_nrf52840_xxAA_s140_6.0.0.dir/__/common/src/mesh_provisionee.c.obj
 .debug_abbrev  0x00000f62      0x36b examples/dfu/CMakeFiles/dfu_no_serial_nrf52840_xxAA_s140_6.0.0.dir/__/common/src/simple_hal.c.obj
 .debug_abbrev  0x000012cd      0x434 examples/dfu/CMakeFiles/dfu_no_serial_nrf52840_xxAA_s140_6.0.0.dir/__/__/mesh/access/src/access_publish.c.obj
 .debug_abbrev  0x00001701      0x646 examples/dfu/CMakeFiles/dfu_no_serial_nrf52840_xxAA_s140_6.0.0.dir/__/__/mesh/access/src/access.c.obj
 .debug_abbrev  0x00001d47      0x43b examples/dfu/CMakeFiles/dfu_no_serial_nrf52840_xxAA_s140_6.0.0.dir/__/__/mesh/access/src/access_reliable.c.obj
 .debug_abbrev  0x00002182      0x604 examples/dfu/CMakeFiles/dfu_no_serial_nrf52840_xxAA_s140_6.0.0.dir/__/__/mesh/access/src/device_state_manager.c.obj
 .debug_abbrev  0x00002786      0x2db examples/dfu/CMakeFiles/dfu_no_serial_nrf52840_xxAA_s140_6.0.0.dir/__/__/models/config/src/composition_data.c.obj
 .debug_abbrev  0x00002a61      0x54e examples/dfu/CMakeFiles/dfu_no_serial_nrf52840_xxAA_s140_6.0.0.dir/__/__/models/config/src/config_server.c.obj
 .debug_abbrev  0x00002faf       0x95 examples/dfu/CMakeFiles/dfu_no_serial_nrf52840_xxAA_s140_6.0.0.dir/__/__/models/config/src/packed_index_list.c.obj
 .debug_abbrev  0x00003044      0x4d0 examples/dfu/CMakeFiles/dfu_no_serial_nrf52840_xxAA_s140_6.0.0.dir/__/__/models/health/src/health_server.c.obj
 .debug_abbrev  0x00003514      0x40e examples/dfu/CMakeFiles/dfu_no_serial_nrf52840_xxAA_s140_6.0.0.dir/__/__/mesh/prov/src/prov_provisioner.c.obj
 .debug_abbrev  0x00003922      0x491 examples/dfu/CMakeFiles/dfu_no_serial_nrf52840_xxAA_s140_6.0.0.dir/__/__/mesh/prov/src/prov_provisionee.c.obj
 .debug_abbrev  0x00003db3      0x434 examples/dfu/CMakeFiles/dfu_no_serial_nrf52840_xxAA_s140_6.0.0.dir/__/__/mesh/prov/src/nrf_mesh_prov.c.obj
 .debug_abbrev  0x000041e7      0x2a9 examples/dfu/CMakeFiles/dfu_no_serial_nrf52840_xxAA_s140_6.0.0.dir/__/__/mesh/prov/src/provisioning.c.obj
 .debug_abbrev  0x00004490      0x2c8 examples/dfu/CMakeFiles/dfu_no_serial_nrf52840_xxAA_s140_6.0.0.dir/__/__/mesh/prov/src/prov_beacon.c.obj
 .debug_abbrev  0x00004758      0x3ca examples/dfu/CMakeFiles/dfu_no_serial_nrf52840_xxAA_s140_6.0.0.dir/__/__/mesh/prov/src/prov_utils.c.obj
 .debug_abbrev  0x00004b22      0x4eb examples/dfu/CMakeFiles/dfu_no_serial_nrf52840_xxAA_s140_6.0.0.dir/__/__/mesh/prov/src/prov_bearer_adv.c.obj
 .debug_abbrev  0x0000500d      0x563 examples/dfu/CMakeFiles/dfu_no_serial_nrf52840_xxAA_s140_6.0.0.dir/__/__/mesh/dfu/src/nrf_mesh_dfu.c.obj
 .debug_abbrev  0x00005570      0x2de examples/dfu/CMakeFiles/dfu_no_serial_nrf52840_xxAA_s140_6.0.0.dir/__/common/src/app_error_weak.c.obj
 .debug_abbrev  0x0000584e      0x1f6 examples/dfu/CMakeFiles/dfu_no_serial_nrf52840_xxAA_s140_6.0.0.dir/__/common/src/assertion_handler_weak.c.obj
 .debug_abbrev  0x00005a44      0x254 examples/dfu/CMakeFiles/dfu_no_serial_nrf52840_xxAA_s140_6.0.0.dir/__/__/mesh/core/src/nrf_mesh_configure.c.obj
 .debug_abbrev  0x00005c98      0x264 examples/dfu/CMakeFiles/dfu_no_serial_nrf52840_xxAA_s140_6.0.0.dir/__/__/mesh/core/src/aes.c.obj
 .debug_abbrev  0x00005efc      0x25d examples/dfu/CMakeFiles/dfu_no_serial_nrf52840_xxAA_s140_6.0.0.dir/__/__/mesh/core/src/msg_cache.c.obj
 .debug_abbrev  0x00006159      0x5e8 examples/dfu/CMakeFiles/dfu_no_serial_nrf52840_xxAA_s140_6.0.0.dir/__/__/mesh/core/src/transport.c.obj
 .debug_abbrev  0x00006741      0x2be examples/dfu/CMakeFiles/dfu_no_serial_nrf52840_xxAA_s140_6.0.0.dir/__/__/mesh/core/src/event.c.obj
 .debug_abbrev  0x000069ff      0x468 examples/dfu/CMakeFiles/dfu_no_serial_nrf52840_xxAA_s140_6.0.0.dir/__/__/mesh/core/src/packet_buffer.c.obj
 .debug_abbrev  0x00006e67      0x50e examples/dfu/CMakeFiles/dfu_no_serial_nrf52840_xxAA_s140_6.0.0.dir/__/__/mesh/core/src/flash_manager_defrag.c.obj
 .debug_abbrev  0x00007375      0x2f2 examples/dfu/CMakeFiles/dfu_no_serial_nrf52840_xxAA_s140_6.0.0.dir/__/__/mesh/core/src/fifo.c.obj
 .debug_abbrev  0x00007667      0x21f examples/dfu/CMakeFiles/dfu_no_serial_nrf52840_xxAA_s140_6.0.0.dir/__/__/mesh/core/src/nrf_flash.c.obj
 .debug_abbrev  0x00007886      0x3b1 examples/dfu/CMakeFiles/dfu_no_serial_nrf52840_xxAA_s140_6.0.0.dir/__/__/mesh/core/src/packet_mgr.c.obj
 .debug_abbrev  0x00007c37      0x552 examples/dfu/CMakeFiles/dfu_no_serial_nrf52840_xxAA_s140_6.0.0.dir/__/__/mesh/core/src/net_state.c.obj
 .debug_abbrev  0x00008189      0x453 examples/dfu/CMakeFiles/dfu_no_serial_nrf52840_xxAA_s140_6.0.0.dir/__/__/mesh/core/src/mesh_flash.c.obj
 .debug_abbrev  0x000085dc      0x242 examples/dfu/CMakeFiles/dfu_no_serial_nrf52840_xxAA_s140_6.0.0.dir/__/__/mesh/core/src/nrf_mesh_utils.c.obj
 .debug_abbrev  0x0000881e      0x476 examples/dfu/CMakeFiles/dfu_no_serial_nrf52840_xxAA_s140_6.0.0.dir/__/__/mesh/core/src/nrf_mesh.c.obj
 .debug_abbrev  0x00008c94      0x247 examples/dfu/CMakeFiles/dfu_no_serial_nrf52840_xxAA_s140_6.0.0.dir/__/__/mesh/core/src/queue.c.obj
 .debug_abbrev  0x00008edb      0x1cf examples/dfu/CMakeFiles/dfu_no_serial_nrf52840_xxAA_s140_6.0.0.dir/__/__/mesh/core/src/hal.c.obj
 .debug_abbrev  0x000090aa      0x332 examples/dfu/CMakeFiles/dfu_no_serial_nrf52840_xxAA_s140_6.0.0.dir/__/__/mesh/core/src/aes_cmac.c.obj
 .debug_abbrev  0x000093dc      0x3bc examples/dfu/CMakeFiles/dfu_no_serial_nrf52840_xxAA_s140_6.0.0.dir/__/__/mesh/core/src/timer_scheduler.c.obj
 .debug_abbrev  0x00009798      0x337 examples/dfu/CMakeFiles/dfu_no_serial_nrf52840_xxAA_s140_6.0.0.dir/__/__/mesh/core/src/timer.c.obj
 .debug_abbrev  0x00009acf      0x152 examples/dfu/CMakeFiles/dfu_no_serial_nrf52840_xxAA_s140_6.0.0.dir/__/__/mesh/core/src/ticker.c.obj
 .debug_abbrev  0x00009c21      0x194 examples/dfu/CMakeFiles/dfu_no_serial_nrf52840_xxAA_s140_6.0.0.dir/__/__/mesh/core/src/rand.c.obj
 .debug_abbrev  0x00009db5      0x24a examples/dfu/CMakeFiles/dfu_no_serial_nrf52840_xxAA_s140_6.0.0.dir/__/__/mesh/core/src/nrf_mesh_opt.c.obj
 .debug_abbrev  0x00009fff      0x4a4 examples/dfu/CMakeFiles/dfu_no_serial_nrf52840_xxAA_s140_6.0.0.dir/__/__/mesh/core/src/timeslot.c.obj
 .debug_abbrev  0x0000a4a3      0x4b5 examples/dfu/CMakeFiles/dfu_no_serial_nrf52840_xxAA_s140_6.0.0.dir/__/__/mesh/core/src/bearer_event.c.obj
 .debug_abbrev  0x0000a958      0x375 examples/dfu/CMakeFiles/dfu_no_serial_nrf52840_xxAA_s140_6.0.0.dir/__/__/mesh/core/src/enc.c.obj
 .debug_abbrev  0x0000accd      0x496 examples/dfu/CMakeFiles/dfu_no_serial_nrf52840_xxAA_s140_6.0.0.dir/__/__/mesh/core/src/network.c.obj
 .debug_abbrev  0x0000b163      0x4a1 examples/dfu/CMakeFiles/dfu_no_serial_nrf52840_xxAA_s140_6.0.0.dir/__/__/mesh/core/src/net_packet.c.obj
 .debug_abbrev  0x0000b604      0x2c0 examples/dfu/CMakeFiles/dfu_no_serial_nrf52840_xxAA_s140_6.0.0.dir/__/__/mesh/core/src/msqueue.c.obj
 .debug_abbrev  0x0000b8c4      0x156 examples/dfu/CMakeFiles/dfu_no_serial_nrf52840_xxAA_s140_6.0.0.dir/__/__/mesh/core/src/nrf_mesh_keygen.c.obj
 .debug_abbrev  0x0000ba1a      0x1a4 examples/dfu/CMakeFiles/dfu_no_serial_nrf52840_xxAA_s140_6.0.0.dir/__/__/mesh/core/src/list.c.obj
 .debug_abbrev  0x0000bbbe      0x24e examples/dfu/CMakeFiles/dfu_no_serial_nrf52840_xxAA_s140_6.0.0.dir/__/__/mesh/core/src/log.c.obj
 .debug_abbrev  0x0000be0c      0x524 examples/dfu/CMakeFiles/dfu_no_serial_nrf52840_xxAA_s140_6.0.0.dir/__/__/mesh/core/src/flash_manager.c.obj
 .debug_abbrev  0x0000c330      0x2b3 examples/dfu/CMakeFiles/dfu_no_serial_nrf52840_xxAA_s140_6.0.0.dir/__/__/mesh/core/src/ccm_soft.c.obj
 .debug_abbrev  0x0000c5e3      0x270 examples/dfu/CMakeFiles/dfu_no_serial_nrf52840_xxAA_s140_6.0.0.dir/__/__/mesh/core/src/replay_cache.c.obj
 .debug_abbrev  0x0000c853      0x2c4 examples/dfu/CMakeFiles/dfu_no_serial_nrf52840_xxAA_s140_6.0.0.dir/__/__/mesh/core/src/beacon.c.obj
 .debug_abbrev  0x0000cb17      0x288 examples/dfu/CMakeFiles/dfu_no_serial_nrf52840_xxAA_s140_6.0.0.dir/__/__/mesh/core/src/flash_manager_internal.c.obj
 .debug_abbrev  0x0000cd9f      0x2ed examples/dfu/CMakeFiles/dfu_no_serial_nrf52840_xxAA_s140_6.0.0.dir/__/__/mesh/core/src/core_tx.c.obj
 .debug_abbrev  0x0000d08c      0x4be examples/dfu/CMakeFiles/dfu_no_serial_nrf52840_xxAA_s140_6.0.0.dir/__/__/mesh/core/src/heartbeat.c.obj
 .debug_abbrev  0x0000d54a      0x4ac examples/dfu/CMakeFiles/dfu_no_serial_nrf52840_xxAA_s140_6.0.0.dir/__/__/mesh/core/src/net_beacon.c.obj
 .debug_abbrev  0x0000d9f6      0x2fa examples/dfu/CMakeFiles/dfu_no_serial_nrf52840_xxAA_s140_6.0.0.dir/__/__/mesh/core/src/core_tx_adv.c.obj
 .debug_abbrev  0x0000dcf0      0x341 examples/dfu/CMakeFiles/dfu_no_serial_nrf52840_xxAA_s140_6.0.0.dir/__/__/mesh/bearer/src/ad_listener.c.obj
 .debug_abbrev  0x0000e031      0x368 examples/dfu/CMakeFiles/dfu_no_serial_nrf52840_xxAA_s140_6.0.0.dir/__/__/mesh/bearer/src/ad_type_filter.c.obj
 .debug_abbrev  0x0000e399      0x4ed examples/dfu/CMakeFiles/dfu_no_serial_nrf52840_xxAA_s140_6.0.0.dir/__/__/mesh/bearer/src/advertiser.c.obj
 .debug_abbrev  0x0000e886      0x3e2 examples/dfu/CMakeFiles/dfu_no_serial_nrf52840_xxAA_s140_6.0.0.dir/__/__/mesh/bearer/src/bearer_handler.c.obj
 .debug_abbrev  0x0000ec68      0x3c8 examples/dfu/CMakeFiles/dfu_no_serial_nrf52840_xxAA_s140_6.0.0.dir/__/__/mesh/bearer/src/broadcast.c.obj
 .debug_abbrev  0x0000f030      0x2a6 examples/dfu/CMakeFiles/dfu_no_serial_nrf52840_xxAA_s140_6.0.0.dir/__/__/mesh/bearer/src/filter_engine.c.obj
 .debug_abbrev  0x0000f2d6      0x1d5 examples/dfu/CMakeFiles/dfu_no_serial_nrf52840_xxAA_s140_6.0.0.dir/__/__/mesh/bearer/src/radio_config.c.obj
 .debug_abbrev  0x0000f4ab      0x52a examples/dfu/CMakeFiles/dfu_no_serial_nrf52840_xxAA_s140_6.0.0.dir/__/__/mesh/bearer/src/scanner.c.obj
 .debug_abbrev  0x0000f9d5      0x20b examples/dfu/CMakeFiles/dfu_no_serial_nrf52840_xxAA_s140_6.0.0.dir/C_/b/nRF5_SDK_15.0.0_a53641a/modules/nrfx/mdk/system_nrf52840.c.obj
 .debug_abbrev  0x0000fbe0      0x232 examples/dfu/CMakeFiles/dfu_no_serial_nrf52840_xxAA_s140_6.0.0.dir/C_/b/nRF5_SDK_15.0.0_a53641a/components/libraries/util/app_error.c.obj
 .debug_abbrev  0x0000fe12      0x1bd examples/dfu/CMakeFiles/dfu_no_serial_nrf52840_xxAA_s140_6.0.0.dir/C_/b/nRF5_SDK_15.0.0_a53641a/components/libraries/util/app_error_handler_gcc.c.obj
 .debug_abbrev  0x0000ffcf      0x3a9 external/rtt/librtt_nrf52840_xxAA.a(SEGGER_RTT.c.obj)
 .debug_abbrev  0x00010378      0x32e external/rtt/librtt_nrf52840_xxAA.a(SEGGER_RTT_printf.c.obj)
 .debug_abbrev  0x000106a6      0x4b4 external/micro-ecc/libuECC_nrf52840_xxAA.a(uECC.c.obj)

.debug_loc      0x00000000    0x24693
 .debug_loc     0x00000000      0x206 examples/dfu/CMakeFiles/dfu_no_serial_nrf52840_xxAA_s140_6.0.0.dir/src/main.c.obj
 .debug_loc     0x00000206      0x192 examples/dfu/CMakeFiles/dfu_no_serial_nrf52840_xxAA_s140_6.0.0.dir/__/__/mesh/stack/src/mesh_stack.c.obj
 .debug_loc     0x00000398      0x1b3 examples/dfu/CMakeFiles/dfu_no_serial_nrf52840_xxAA_s140_6.0.0.dir/__/common/src/mesh_softdevice_init.c.obj
 .debug_loc     0x0000054b      0x10a examples/dfu/CMakeFiles/dfu_no_serial_nrf52840_xxAA_s140_6.0.0.dir/__/common/src/mesh_provisionee.c.obj
 .debug_loc     0x00000655      0x277 examples/dfu/CMakeFiles/dfu_no_serial_nrf52840_xxAA_s140_6.0.0.dir/__/common/src/simple_hal.c.obj
 .debug_loc     0x000008cc      0x4d4 examples/dfu/CMakeFiles/dfu_no_serial_nrf52840_xxAA_s140_6.0.0.dir/__/__/mesh/access/src/access_publish.c.obj
 .debug_loc     0x00000da0     0x2460 examples/dfu/CMakeFiles/dfu_no_serial_nrf52840_xxAA_s140_6.0.0.dir/__/__/mesh/access/src/access.c.obj
 .debug_loc     0x00003200      0x886 examples/dfu/CMakeFiles/dfu_no_serial_nrf52840_xxAA_s140_6.0.0.dir/__/__/mesh/access/src/access_reliable.c.obj
 .debug_loc     0x00003a86     0x39ce examples/dfu/CMakeFiles/dfu_no_serial_nrf52840_xxAA_s140_6.0.0.dir/__/__/mesh/access/src/device_state_manager.c.obj
 .debug_loc     0x00007454      0x26f examples/dfu/CMakeFiles/dfu_no_serial_nrf52840_xxAA_s140_6.0.0.dir/__/__/models/config/src/composition_data.c.obj
 .debug_loc     0x000076c3     0x4c72 examples/dfu/CMakeFiles/dfu_no_serial_nrf52840_xxAA_s140_6.0.0.dir/__/__/models/config/src/config_server.c.obj
 .debug_loc     0x0000c335       0x89 examples/dfu/CMakeFiles/dfu_no_serial_nrf52840_xxAA_s140_6.0.0.dir/__/__/models/config/src/packed_index_list.c.obj
 .debug_loc     0x0000c3be     0x13e7 examples/dfu/CMakeFiles/dfu_no_serial_nrf52840_xxAA_s140_6.0.0.dir/__/__/models/health/src/health_server.c.obj
 .debug_loc     0x0000d7a5      0x747 examples/dfu/CMakeFiles/dfu_no_serial_nrf52840_xxAA_s140_6.0.0.dir/__/__/mesh/prov/src/prov_provisioner.c.obj
 .debug_loc     0x0000deec      0x766 examples/dfu/CMakeFiles/dfu_no_serial_nrf52840_xxAA_s140_6.0.0.dir/__/__/mesh/prov/src/prov_provisionee.c.obj
 .debug_loc     0x0000e652      0xa4b examples/dfu/CMakeFiles/dfu_no_serial_nrf52840_xxAA_s140_6.0.0.dir/__/__/mesh/prov/src/nrf_mesh_prov.c.obj
 .debug_loc     0x0000f09d      0x490 examples/dfu/CMakeFiles/dfu_no_serial_nrf52840_xxAA_s140_6.0.0.dir/__/__/mesh/prov/src/provisioning.c.obj
 .debug_loc     0x0000f52d      0x18c examples/dfu/CMakeFiles/dfu_no_serial_nrf52840_xxAA_s140_6.0.0.dir/__/__/mesh/prov/src/prov_beacon.c.obj
 .debug_loc     0x0000f6b9      0x40b examples/dfu/CMakeFiles/dfu_no_serial_nrf52840_xxAA_s140_6.0.0.dir/__/__/mesh/prov/src/prov_utils.c.obj
 .debug_loc     0x0000fac4     0x1457 examples/dfu/CMakeFiles/dfu_no_serial_nrf52840_xxAA_s140_6.0.0.dir/__/__/mesh/prov/src/prov_bearer_adv.c.obj
 .debug_loc     0x00010f1b      0xbc4 examples/dfu/CMakeFiles/dfu_no_serial_nrf52840_xxAA_s140_6.0.0.dir/__/__/mesh/dfu/src/nrf_mesh_dfu.c.obj
 .debug_loc     0x00011adf      0x18c examples/dfu/CMakeFiles/dfu_no_serial_nrf52840_xxAA_s140_6.0.0.dir/__/common/src/app_error_weak.c.obj
 .debug_loc     0x00011c6b       0x2c examples/dfu/CMakeFiles/dfu_no_serial_nrf52840_xxAA_s140_6.0.0.dir/__/common/src/assertion_handler_weak.c.obj
 .debug_loc     0x00011c97       0x2c examples/dfu/CMakeFiles/dfu_no_serial_nrf52840_xxAA_s140_6.0.0.dir/__/__/mesh/core/src/nrf_mesh_configure.c.obj
 .debug_loc     0x00011cc3       0x89 examples/dfu/CMakeFiles/dfu_no_serial_nrf52840_xxAA_s140_6.0.0.dir/__/__/mesh/core/src/aes.c.obj
 .debug_loc     0x00011d4c      0x10d examples/dfu/CMakeFiles/dfu_no_serial_nrf52840_xxAA_s140_6.0.0.dir/__/__/mesh/core/src/msg_cache.c.obj
 .debug_loc     0x00011e59     0x259a examples/dfu/CMakeFiles/dfu_no_serial_nrf52840_xxAA_s140_6.0.0.dir/__/__/mesh/core/src/transport.c.obj
 .debug_loc     0x000143f3       0xff examples/dfu/CMakeFiles/dfu_no_serial_nrf52840_xxAA_s140_6.0.0.dir/__/__/mesh/core/src/event.c.obj
 .debug_loc     0x000144f2      0x816 examples/dfu/CMakeFiles/dfu_no_serial_nrf52840_xxAA_s140_6.0.0.dir/__/__/mesh/core/src/packet_buffer.c.obj
 .debug_loc     0x00014d08      0x7fe examples/dfu/CMakeFiles/dfu_no_serial_nrf52840_xxAA_s140_6.0.0.dir/__/__/mesh/core/src/flash_manager_defrag.c.obj
 .debug_loc     0x00015506      0x4f6 examples/dfu/CMakeFiles/dfu_no_serial_nrf52840_xxAA_s140_6.0.0.dir/__/__/mesh/core/src/fifo.c.obj
 .debug_loc     0x000159fc      0x17a examples/dfu/CMakeFiles/dfu_no_serial_nrf52840_xxAA_s140_6.0.0.dir/__/__/mesh/core/src/nrf_flash.c.obj
 .debug_loc     0x00015b76      0x6c1 examples/dfu/CMakeFiles/dfu_no_serial_nrf52840_xxAA_s140_6.0.0.dir/__/__/mesh/core/src/packet_mgr.c.obj
 .debug_loc     0x00016237      0x936 examples/dfu/CMakeFiles/dfu_no_serial_nrf52840_xxAA_s140_6.0.0.dir/__/__/mesh/core/src/net_state.c.obj
 .debug_loc     0x00016b6d      0x8be examples/dfu/CMakeFiles/dfu_no_serial_nrf52840_xxAA_s140_6.0.0.dir/__/__/mesh/core/src/mesh_flash.c.obj
 .debug_loc     0x0001742b       0xf8 examples/dfu/CMakeFiles/dfu_no_serial_nrf52840_xxAA_s140_6.0.0.dir/__/__/mesh/core/src/nrf_mesh_utils.c.obj
 .debug_loc     0x00017523      0x4f8 examples/dfu/CMakeFiles/dfu_no_serial_nrf52840_xxAA_s140_6.0.0.dir/__/__/mesh/core/src/nrf_mesh.c.obj
 .debug_loc     0x00017a1b       0xf5 examples/dfu/CMakeFiles/dfu_no_serial_nrf52840_xxAA_s140_6.0.0.dir/__/__/mesh/core/src/queue.c.obj
 .debug_loc     0x00017b10       0x63 examples/dfu/CMakeFiles/dfu_no_serial_nrf52840_xxAA_s140_6.0.0.dir/__/__/mesh/core/src/hal.c.obj
 .debug_loc     0x00017b73      0x3f8 examples/dfu/CMakeFiles/dfu_no_serial_nrf52840_xxAA_s140_6.0.0.dir/__/__/mesh/core/src/aes_cmac.c.obj
 .debug_loc     0x00017f6b      0x2d1 examples/dfu/CMakeFiles/dfu_no_serial_nrf52840_xxAA_s140_6.0.0.dir/__/__/mesh/core/src/timer_scheduler.c.obj
 .debug_loc     0x0001823c      0x5f9 examples/dfu/CMakeFiles/dfu_no_serial_nrf52840_xxAA_s140_6.0.0.dir/__/__/mesh/core/src/timer.c.obj
 .debug_loc     0x00018835      0x14e examples/dfu/CMakeFiles/dfu_no_serial_nrf52840_xxAA_s140_6.0.0.dir/__/__/mesh/core/src/rand.c.obj
 .debug_loc     0x00018983      0x194 examples/dfu/CMakeFiles/dfu_no_serial_nrf52840_xxAA_s140_6.0.0.dir/__/__/mesh/core/src/nrf_mesh_opt.c.obj
 .debug_loc     0x00018b17      0x344 examples/dfu/CMakeFiles/dfu_no_serial_nrf52840_xxAA_s140_6.0.0.dir/__/__/mesh/core/src/timeslot.c.obj
 .debug_loc     0x00018e5b      0x526 examples/dfu/CMakeFiles/dfu_no_serial_nrf52840_xxAA_s140_6.0.0.dir/__/__/mesh/core/src/bearer_event.c.obj
 .debug_loc     0x00019381      0x8c1 examples/dfu/CMakeFiles/dfu_no_serial_nrf52840_xxAA_s140_6.0.0.dir/__/__/mesh/core/src/enc.c.obj
 .debug_loc     0x00019c42      0x5da examples/dfu/CMakeFiles/dfu_no_serial_nrf52840_xxAA_s140_6.0.0.dir/__/__/mesh/core/src/network.c.obj
 .debug_loc     0x0001a21c      0x817 examples/dfu/CMakeFiles/dfu_no_serial_nrf52840_xxAA_s140_6.0.0.dir/__/__/mesh/core/src/net_packet.c.obj
 .debug_loc     0x0001aa33      0x2ed examples/dfu/CMakeFiles/dfu_no_serial_nrf52840_xxAA_s140_6.0.0.dir/__/__/mesh/core/src/msqueue.c.obj
 .debug_loc     0x0001ad20      0x1ee examples/dfu/CMakeFiles/dfu_no_serial_nrf52840_xxAA_s140_6.0.0.dir/__/__/mesh/core/src/nrf_mesh_keygen.c.obj
 .debug_loc     0x0001af0e      0x3bf examples/dfu/CMakeFiles/dfu_no_serial_nrf52840_xxAA_s140_6.0.0.dir/__/__/mesh/core/src/list.c.obj
 .debug_loc     0x0001b2cd      0x348 examples/dfu/CMakeFiles/dfu_no_serial_nrf52840_xxAA_s140_6.0.0.dir/__/__/mesh/core/src/log.c.obj
 .debug_loc     0x0001b615     0x1439 examples/dfu/CMakeFiles/dfu_no_serial_nrf52840_xxAA_s140_6.0.0.dir/__/__/mesh/core/src/flash_manager.c.obj
 .debug_loc     0x0001ca4e      0x371 examples/dfu/CMakeFiles/dfu_no_serial_nrf52840_xxAA_s140_6.0.0.dir/__/__/mesh/core/src/ccm_soft.c.obj
 .debug_loc     0x0001cdbf      0x141 examples/dfu/CMakeFiles/dfu_no_serial_nrf52840_xxAA_s140_6.0.0.dir/__/__/mesh/core/src/replay_cache.c.obj
 .debug_loc     0x0001cf00      0x30d examples/dfu/CMakeFiles/dfu_no_serial_nrf52840_xxAA_s140_6.0.0.dir/__/__/mesh/core/src/beacon.c.obj
 .debug_loc     0x0001d20d       0xe3 examples/dfu/CMakeFiles/dfu_no_serial_nrf52840_xxAA_s140_6.0.0.dir/__/__/mesh/core/src/flash_manager_internal.c.obj
 .debug_loc     0x0001d2f0      0x3c5 examples/dfu/CMakeFiles/dfu_no_serial_nrf52840_xxAA_s140_6.0.0.dir/__/__/mesh/core/src/core_tx.c.obj
 .debug_loc     0x0001d6b5      0x570 examples/dfu/CMakeFiles/dfu_no_serial_nrf52840_xxAA_s140_6.0.0.dir/__/__/mesh/core/src/heartbeat.c.obj
 .debug_loc     0x0001dc25      0x5f5 examples/dfu/CMakeFiles/dfu_no_serial_nrf52840_xxAA_s140_6.0.0.dir/__/__/mesh/core/src/net_beacon.c.obj
 .debug_loc     0x0001e21a      0x3ca examples/dfu/CMakeFiles/dfu_no_serial_nrf52840_xxAA_s140_6.0.0.dir/__/__/mesh/core/src/core_tx_adv.c.obj
 .debug_loc     0x0001e5e4      0x42e examples/dfu/CMakeFiles/dfu_no_serial_nrf52840_xxAA_s140_6.0.0.dir/__/__/mesh/bearer/src/ad_listener.c.obj
 .debug_loc     0x0001ea12      0x3ae examples/dfu/CMakeFiles/dfu_no_serial_nrf52840_xxAA_s140_6.0.0.dir/__/__/mesh/bearer/src/ad_type_filter.c.obj
 .debug_loc     0x0001edc0      0xcb6 examples/dfu/CMakeFiles/dfu_no_serial_nrf52840_xxAA_s140_6.0.0.dir/__/__/mesh/bearer/src/advertiser.c.obj
 .debug_loc     0x0001fa76      0x333 examples/dfu/CMakeFiles/dfu_no_serial_nrf52840_xxAA_s140_6.0.0.dir/__/__/mesh/bearer/src/bearer_handler.c.obj
 .debug_loc     0x0001fda9      0x306 examples/dfu/CMakeFiles/dfu_no_serial_nrf52840_xxAA_s140_6.0.0.dir/__/__/mesh/bearer/src/broadcast.c.obj
 .debug_loc     0x000200af       0xde examples/dfu/CMakeFiles/dfu_no_serial_nrf52840_xxAA_s140_6.0.0.dir/__/__/mesh/bearer/src/filter_engine.c.obj
 .debug_loc     0x0002018d      0x232 examples/dfu/CMakeFiles/dfu_no_serial_nrf52840_xxAA_s140_6.0.0.dir/__/__/mesh/bearer/src/radio_config.c.obj
 .debug_loc     0x000203bf      0x442 examples/dfu/CMakeFiles/dfu_no_serial_nrf52840_xxAA_s140_6.0.0.dir/__/__/mesh/bearer/src/scanner.c.obj
 .debug_loc     0x00020801       0xb5 examples/dfu/CMakeFiles/dfu_no_serial_nrf52840_xxAA_s140_6.0.0.dir/C_/b/nRF5_SDK_15.0.0_a53641a/components/libraries/util/app_error.c.obj
 .debug_loc     0x000208b6       0x63 examples/dfu/CMakeFiles/dfu_no_serial_nrf52840_xxAA_s140_6.0.0.dir/C_/b/nRF5_SDK_15.0.0_a53641a/components/libraries/util/app_error_handler_gcc.c.obj
 .debug_loc     0x00020919     0x1222 external/rtt/librtt_nrf52840_xxAA.a(SEGGER_RTT.c.obj)
 .debug_loc     0x00021b3b      0x70f external/rtt/librtt_nrf52840_xxAA.a(SEGGER_RTT_printf.c.obj)
 .debug_loc     0x0002224a     0x2449 external/micro-ecc/libuECC_nrf52840_xxAA.a(uECC.c.obj)

.debug_aranges  0x00000000     0x2360
 .debug_aranges
                0x00000000       0x38 examples/dfu/CMakeFiles/dfu_no_serial_nrf52840_xxAA_s140_6.0.0.dir/src/main.c.obj
 .debug_aranges
                0x00000038       0x50 examples/dfu/CMakeFiles/dfu_no_serial_nrf52840_xxAA_s140_6.0.0.dir/__/__/mesh/stack/src/mesh_stack.c.obj
 .debug_aranges
                0x00000088       0x40 examples/dfu/CMakeFiles/dfu_no_serial_nrf52840_xxAA_s140_6.0.0.dir/__/common/src/mesh_softdevice_init.c.obj
 .debug_aranges
                0x000000c8       0x30 examples/dfu/CMakeFiles/dfu_no_serial_nrf52840_xxAA_s140_6.0.0.dir/__/common/src/mesh_provisionee.c.obj
 .debug_aranges
                0x000000f8       0x50 examples/dfu/CMakeFiles/dfu_no_serial_nrf52840_xxAA_s140_6.0.0.dir/__/common/src/simple_hal.c.obj
 .debug_aranges
                0x00000148       0x50 examples/dfu/CMakeFiles/dfu_no_serial_nrf52840_xxAA_s140_6.0.0.dir/__/__/mesh/access/src/access_publish.c.obj
 .debug_aranges
                0x00000198      0x1d0 examples/dfu/CMakeFiles/dfu_no_serial_nrf52840_xxAA_s140_6.0.0.dir/__/__/mesh/access/src/access.c.obj
 .debug_aranges
                0x00000368       0x50 examples/dfu/CMakeFiles/dfu_no_serial_nrf52840_xxAA_s140_6.0.0.dir/__/__/mesh/access/src/access_reliable.c.obj
 .debug_aranges
                0x000003b8      0x318 examples/dfu/CMakeFiles/dfu_no_serial_nrf52840_xxAA_s140_6.0.0.dir/__/__/mesh/access/src/device_state_manager.c.obj
 .debug_aranges
                0x000006d0       0x20 examples/dfu/CMakeFiles/dfu_no_serial_nrf52840_xxAA_s140_6.0.0.dir/__/__/models/config/src/composition_data.c.obj
 .debug_aranges
                0x000006f0      0x210 examples/dfu/CMakeFiles/dfu_no_serial_nrf52840_xxAA_s140_6.0.0.dir/__/__/models/config/src/config_server.c.obj
 .debug_aranges
                0x00000900       0x20 examples/dfu/CMakeFiles/dfu_no_serial_nrf52840_xxAA_s140_6.0.0.dir/__/__/models/config/src/packed_index_list.c.obj
 .debug_aranges
                0x00000920       0xc8 examples/dfu/CMakeFiles/dfu_no_serial_nrf52840_xxAA_s140_6.0.0.dir/__/__/models/health/src/health_server.c.obj
 .debug_aranges
                0x000009e8       0x78 examples/dfu/CMakeFiles/dfu_no_serial_nrf52840_xxAA_s140_6.0.0.dir/__/__/mesh/prov/src/prov_provisioner.c.obj
 .debug_aranges
                0x00000a60       0x70 examples/dfu/CMakeFiles/dfu_no_serial_nrf52840_xxAA_s140_6.0.0.dir/__/__/mesh/prov/src/prov_provisionee.c.obj
 .debug_aranges
                0x00000ad0       0x88 examples/dfu/CMakeFiles/dfu_no_serial_nrf52840_xxAA_s140_6.0.0.dir/__/__/mesh/prov/src/nrf_mesh_prov.c.obj
 .debug_aranges
                0x00000b58       0x80 examples/dfu/CMakeFiles/dfu_no_serial_nrf52840_xxAA_s140_6.0.0.dir/__/__/mesh/prov/src/provisioning.c.obj
 .debug_aranges
                0x00000bd8       0x38 examples/dfu/CMakeFiles/dfu_no_serial_nrf52840_xxAA_s140_6.0.0.dir/__/__/mesh/prov/src/prov_beacon.c.obj
 .debug_aranges
                0x00000c10       0x70 examples/dfu/CMakeFiles/dfu_no_serial_nrf52840_xxAA_s140_6.0.0.dir/__/__/mesh/prov/src/prov_utils.c.obj
 .debug_aranges
                0x00000c80       0xc8 examples/dfu/CMakeFiles/dfu_no_serial_nrf52840_xxAA_s140_6.0.0.dir/__/__/mesh/prov/src/prov_bearer_adv.c.obj
 .debug_aranges
                0x00000d48       0xb0 examples/dfu/CMakeFiles/dfu_no_serial_nrf52840_xxAA_s140_6.0.0.dir/__/__/mesh/dfu/src/nrf_mesh_dfu.c.obj
 .debug_aranges
                0x00000df8       0x20 examples/dfu/CMakeFiles/dfu_no_serial_nrf52840_xxAA_s140_6.0.0.dir/__/common/src/app_error_weak.c.obj
 .debug_aranges
                0x00000e18       0x20 examples/dfu/CMakeFiles/dfu_no_serial_nrf52840_xxAA_s140_6.0.0.dir/__/common/src/assertion_handler_weak.c.obj
 .debug_aranges
                0x00000e38       0x30 examples/dfu/CMakeFiles/dfu_no_serial_nrf52840_xxAA_s140_6.0.0.dir/__/__/mesh/core/src/nrf_mesh_configure.c.obj
 .debug_aranges
                0x00000e68       0x28 examples/dfu/CMakeFiles/dfu_no_serial_nrf52840_xxAA_s140_6.0.0.dir/__/__/mesh/core/src/aes.c.obj
 .debug_aranges
                0x00000e90       0x38 examples/dfu/CMakeFiles/dfu_no_serial_nrf52840_xxAA_s140_6.0.0.dir/__/__/mesh/core/src/msg_cache.c.obj
 .debug_aranges
                0x00000ec8      0x110 examples/dfu/CMakeFiles/dfu_no_serial_nrf52840_xxAA_s140_6.0.0.dir/__/__/mesh/core/src/transport.c.obj
 .debug_aranges
                0x00000fd8       0x30 examples/dfu/CMakeFiles/dfu_no_serial_nrf52840_xxAA_s140_6.0.0.dir/__/__/mesh/core/src/event.c.obj
 .debug_aranges
                0x00001008       0x68 examples/dfu/CMakeFiles/dfu_no_serial_nrf52840_xxAA_s140_6.0.0.dir/__/__/mesh/core/src/packet_buffer.c.obj
 .debug_aranges
                0x00001070       0xc8 examples/dfu/CMakeFiles/dfu_no_serial_nrf52840_xxAA_s140_6.0.0.dir/__/__/mesh/core/src/flash_manager_defrag.c.obj
 .debug_aranges
                0x00001138       0x60 examples/dfu/CMakeFiles/dfu_no_serial_nrf52840_xxAA_s140_6.0.0.dir/__/__/mesh/core/src/fifo.c.obj
 .debug_aranges
                0x00001198       0x30 examples/dfu/CMakeFiles/dfu_no_serial_nrf52840_xxAA_s140_6.0.0.dir/__/__/mesh/core/src/nrf_flash.c.obj
 .debug_aranges
                0x000011c8       0x48 examples/dfu/CMakeFiles/dfu_no_serial_nrf52840_xxAA_s140_6.0.0.dir/__/__/mesh/core/src/packet_mgr.c.obj
 .debug_aranges
                0x00001210       0xd0 examples/dfu/CMakeFiles/dfu_no_serial_nrf52840_xxAA_s140_6.0.0.dir/__/__/mesh/core/src/net_state.c.obj
 .debug_aranges
                0x000012e0       0x60 examples/dfu/CMakeFiles/dfu_no_serial_nrf52840_xxAA_s140_6.0.0.dir/__/__/mesh/core/src/mesh_flash.c.obj
 .debug_aranges
                0x00001340       0x30 examples/dfu/CMakeFiles/dfu_no_serial_nrf52840_xxAA_s140_6.0.0.dir/__/__/mesh/core/src/nrf_mesh_utils.c.obj
 .debug_aranges
                0x00001370       0x90 examples/dfu/CMakeFiles/dfu_no_serial_nrf52840_xxAA_s140_6.0.0.dir/__/__/mesh/core/src/nrf_mesh.c.obj
 .debug_aranges
                0x00001400       0x38 examples/dfu/CMakeFiles/dfu_no_serial_nrf52840_xxAA_s140_6.0.0.dir/__/__/mesh/core/src/queue.c.obj
 .debug_aranges
                0x00001438       0x30 examples/dfu/CMakeFiles/dfu_no_serial_nrf52840_xxAA_s140_6.0.0.dir/__/__/mesh/core/src/hal.c.obj
 .debug_aranges
                0x00001468       0x38 examples/dfu/CMakeFiles/dfu_no_serial_nrf52840_xxAA_s140_6.0.0.dir/__/__/mesh/core/src/aes_cmac.c.obj
 .debug_aranges
                0x000014a0       0x68 examples/dfu/CMakeFiles/dfu_no_serial_nrf52840_xxAA_s140_6.0.0.dir/__/__/mesh/core/src/timer_scheduler.c.obj
 .debug_aranges
                0x00001508       0x60 examples/dfu/CMakeFiles/dfu_no_serial_nrf52840_xxAA_s140_6.0.0.dir/__/__/mesh/core/src/timer.c.obj
 .debug_aranges
                0x00001568       0x30 examples/dfu/CMakeFiles/dfu_no_serial_nrf52840_xxAA_s140_6.0.0.dir/__/__/mesh/core/src/ticker.c.obj
 .debug_aranges
                0x00001598       0x40 examples/dfu/CMakeFiles/dfu_no_serial_nrf52840_xxAA_s140_6.0.0.dir/__/__/mesh/core/src/rand.c.obj
 .debug_aranges
                0x000015d8       0x28 examples/dfu/CMakeFiles/dfu_no_serial_nrf52840_xxAA_s140_6.0.0.dir/__/__/mesh/core/src/nrf_mesh_opt.c.obj
 .debug_aranges
                0x00001600       0xb8 examples/dfu/CMakeFiles/dfu_no_serial_nrf52840_xxAA_s140_6.0.0.dir/__/__/mesh/core/src/timeslot.c.obj
 .debug_aranges
                0x000016b8       0x98 examples/dfu/CMakeFiles/dfu_no_serial_nrf52840_xxAA_s140_6.0.0.dir/__/__/mesh/core/src/bearer_event.c.obj
 .debug_aranges
                0x00001750       0x70 examples/dfu/CMakeFiles/dfu_no_serial_nrf52840_xxAA_s140_6.0.0.dir/__/__/mesh/core/src/enc.c.obj
 .debug_aranges
                0x000017c0       0x58 examples/dfu/CMakeFiles/dfu_no_serial_nrf52840_xxAA_s140_6.0.0.dir/__/__/mesh/core/src/network.c.obj
 .debug_aranges
                0x00001818       0x68 examples/dfu/CMakeFiles/dfu_no_serial_nrf52840_xxAA_s140_6.0.0.dir/__/__/mesh/core/src/net_packet.c.obj
 .debug_aranges
                0x00001880       0x48 examples/dfu/CMakeFiles/dfu_no_serial_nrf52840_xxAA_s140_6.0.0.dir/__/__/mesh/core/src/msqueue.c.obj
 .debug_aranges
                0x000018c8       0x40 examples/dfu/CMakeFiles/dfu_no_serial_nrf52840_xxAA_s140_6.0.0.dir/__/__/mesh/core/src/nrf_mesh_keygen.c.obj
 .debug_aranges
                0x00001908       0x48 examples/dfu/CMakeFiles/dfu_no_serial_nrf52840_xxAA_s140_6.0.0.dir/__/__/mesh/core/src/list.c.obj
 .debug_aranges
                0x00001950       0x48 examples/dfu/CMakeFiles/dfu_no_serial_nrf52840_xxAA_s140_6.0.0.dir/__/__/mesh/core/src/log.c.obj
 .debug_aranges
                0x00001998       0xf8 examples/dfu/CMakeFiles/dfu_no_serial_nrf52840_xxAA_s140_6.0.0.dir/__/__/mesh/core/src/flash_manager.c.obj
 .debug_aranges
                0x00001a90       0x50 examples/dfu/CMakeFiles/dfu_no_serial_nrf52840_xxAA_s140_6.0.0.dir/__/__/mesh/core/src/ccm_soft.c.obj
 .debug_aranges
                0x00001ae0       0x40 examples/dfu/CMakeFiles/dfu_no_serial_nrf52840_xxAA_s140_6.0.0.dir/__/__/mesh/core/src/replay_cache.c.obj
 .debug_aranges
                0x00001b20       0x28 examples/dfu/CMakeFiles/dfu_no_serial_nrf52840_xxAA_s140_6.0.0.dir/__/__/mesh/core/src/beacon.c.obj
 .debug_aranges
                0x00001b48       0x20 examples/dfu/CMakeFiles/dfu_no_serial_nrf52840_xxAA_s140_6.0.0.dir/__/__/mesh/core/src/flash_manager_internal.c.obj
 .debug_aranges
                0x00001b68       0x58 examples/dfu/CMakeFiles/dfu_no_serial_nrf52840_xxAA_s140_6.0.0.dir/__/__/mesh/core/src/core_tx.c.obj
 .debug_aranges
                0x00001bc0       0x70 examples/dfu/CMakeFiles/dfu_no_serial_nrf52840_xxAA_s140_6.0.0.dir/__/__/mesh/core/src/heartbeat.c.obj
 .debug_aranges
                0x00001c30       0x68 examples/dfu/CMakeFiles/dfu_no_serial_nrf52840_xxAA_s140_6.0.0.dir/__/__/mesh/core/src/net_beacon.c.obj
 .debug_aranges
                0x00001c98       0x68 examples/dfu/CMakeFiles/dfu_no_serial_nrf52840_xxAA_s140_6.0.0.dir/__/__/mesh/core/src/core_tx_adv.c.obj
 .debug_aranges
                0x00001d00       0x30 examples/dfu/CMakeFiles/dfu_no_serial_nrf52840_xxAA_s140_6.0.0.dir/__/__/mesh/bearer/src/ad_listener.c.obj
 .debug_aranges
                0x00001d30       0x58 examples/dfu/CMakeFiles/dfu_no_serial_nrf52840_xxAA_s140_6.0.0.dir/__/__/mesh/bearer/src/ad_type_filter.c.obj
 .debug_aranges
                0x00001d88       0xb0 examples/dfu/CMakeFiles/dfu_no_serial_nrf52840_xxAA_s140_6.0.0.dir/__/__/mesh/bearer/src/advertiser.c.obj
 .debug_aranges
                0x00001e38       0x70 examples/dfu/CMakeFiles/dfu_no_serial_nrf52840_xxAA_s140_6.0.0.dir/__/__/mesh/bearer/src/bearer_handler.c.obj
 .debug_aranges
                0x00001ea8       0x30 examples/dfu/CMakeFiles/dfu_no_serial_nrf52840_xxAA_s140_6.0.0.dir/__/__/mesh/bearer/src/broadcast.c.obj
 .debug_aranges
                0x00001ed8       0x38 examples/dfu/CMakeFiles/dfu_no_serial_nrf52840_xxAA_s140_6.0.0.dir/__/__/mesh/bearer/src/filter_engine.c.obj
 .debug_aranges
                0x00001f10       0x40 examples/dfu/CMakeFiles/dfu_no_serial_nrf52840_xxAA_s140_6.0.0.dir/__/__/mesh/bearer/src/radio_config.c.obj
 .debug_aranges
                0x00001f50       0xe0 examples/dfu/CMakeFiles/dfu_no_serial_nrf52840_xxAA_s140_6.0.0.dir/__/__/mesh/bearer/src/scanner.c.obj
 .debug_aranges
                0x00002030       0x30 examples/dfu/CMakeFiles/dfu_no_serial_nrf52840_xxAA_s140_6.0.0.dir/C_/b/nRF5_SDK_15.0.0_a53641a/modules/nrfx/mdk/system_nrf52840.c.obj
 .debug_aranges
                0x00002060       0x28 examples/dfu/CMakeFiles/dfu_no_serial_nrf52840_xxAA_s140_6.0.0.dir/C_/b/nRF5_SDK_15.0.0_a53641a/components/libraries/util/app_error.c.obj
 .debug_aranges
                0x00002088       0x20 examples/dfu/CMakeFiles/dfu_no_serial_nrf52840_xxAA_s140_6.0.0.dir/C_/b/nRF5_SDK_15.0.0_a53641a/components/libraries/util/app_error_handler_gcc.c.obj
 .debug_aranges
                0x000020a8       0xd8 external/rtt/librtt_nrf52840_xxAA.a(SEGGER_RTT.c.obj)
 .debug_aranges
                0x00002180       0x38 external/rtt/librtt_nrf52840_xxAA.a(SEGGER_RTT_printf.c.obj)
 .debug_aranges
                0x000021b8      0x1a8 external/micro-ecc/libuECC_nrf52840_xxAA.a(uECC.c.obj)

.debug_ranges   0x00000000     0x5cf8
 .debug_ranges  0x00000000      0x198 examples/dfu/CMakeFiles/dfu_no_serial_nrf52840_xxAA_s140_6.0.0.dir/src/main.c.obj
 .debug_ranges  0x00000198       0x70 examples/dfu/CMakeFiles/dfu_no_serial_nrf52840_xxAA_s140_6.0.0.dir/__/__/mesh/stack/src/mesh_stack.c.obj
 .debug_ranges  0x00000208       0xb0 examples/dfu/CMakeFiles/dfu_no_serial_nrf52840_xxAA_s140_6.0.0.dir/__/common/src/mesh_softdevice_init.c.obj
 .debug_ranges  0x000002b8       0x50 examples/dfu/CMakeFiles/dfu_no_serial_nrf52840_xxAA_s140_6.0.0.dir/__/common/src/mesh_provisionee.c.obj
 .debug_ranges  0x00000308       0xe0 examples/dfu/CMakeFiles/dfu_no_serial_nrf52840_xxAA_s140_6.0.0.dir/__/common/src/simple_hal.c.obj
 .debug_ranges  0x000003e8      0x118 examples/dfu/CMakeFiles/dfu_no_serial_nrf52840_xxAA_s140_6.0.0.dir/__/__/mesh/access/src/access_publish.c.obj
 .debug_ranges  0x00000500      0x770 examples/dfu/CMakeFiles/dfu_no_serial_nrf52840_xxAA_s140_6.0.0.dir/__/__/mesh/access/src/access.c.obj
 .debug_ranges  0x00000c70      0x198 examples/dfu/CMakeFiles/dfu_no_serial_nrf52840_xxAA_s140_6.0.0.dir/__/__/mesh/access/src/access_reliable.c.obj
 .debug_ranges  0x00000e08      0x808 examples/dfu/CMakeFiles/dfu_no_serial_nrf52840_xxAA_s140_6.0.0.dir/__/__/mesh/access/src/device_state_manager.c.obj
 .debug_ranges  0x00001610       0xa8 examples/dfu/CMakeFiles/dfu_no_serial_nrf52840_xxAA_s140_6.0.0.dir/__/__/models/config/src/composition_data.c.obj
 .debug_ranges  0x000016b8      0x788 examples/dfu/CMakeFiles/dfu_no_serial_nrf52840_xxAA_s140_6.0.0.dir/__/__/models/config/src/config_server.c.obj
 .debug_ranges  0x00001e40       0x10 examples/dfu/CMakeFiles/dfu_no_serial_nrf52840_xxAA_s140_6.0.0.dir/__/__/models/config/src/packed_index_list.c.obj
 .debug_ranges  0x00001e50      0x260 examples/dfu/CMakeFiles/dfu_no_serial_nrf52840_xxAA_s140_6.0.0.dir/__/__/models/health/src/health_server.c.obj
 .debug_ranges  0x000020b0      0x100 examples/dfu/CMakeFiles/dfu_no_serial_nrf52840_xxAA_s140_6.0.0.dir/__/__/mesh/prov/src/prov_provisioner.c.obj
 .debug_ranges  0x000021b0      0x148 examples/dfu/CMakeFiles/dfu_no_serial_nrf52840_xxAA_s140_6.0.0.dir/__/__/mesh/prov/src/prov_provisionee.c.obj
 .debug_ranges  0x000022f8      0x130 examples/dfu/CMakeFiles/dfu_no_serial_nrf52840_xxAA_s140_6.0.0.dir/__/__/mesh/prov/src/nrf_mesh_prov.c.obj
 .debug_ranges  0x00002428       0x70 examples/dfu/CMakeFiles/dfu_no_serial_nrf52840_xxAA_s140_6.0.0.dir/__/__/mesh/prov/src/provisioning.c.obj
 .debug_ranges  0x00002498       0x40 examples/dfu/CMakeFiles/dfu_no_serial_nrf52840_xxAA_s140_6.0.0.dir/__/__/mesh/prov/src/prov_beacon.c.obj
 .debug_ranges  0x000024d8       0xa0 examples/dfu/CMakeFiles/dfu_no_serial_nrf52840_xxAA_s140_6.0.0.dir/__/__/mesh/prov/src/prov_utils.c.obj
 .debug_ranges  0x00002578      0x498 examples/dfu/CMakeFiles/dfu_no_serial_nrf52840_xxAA_s140_6.0.0.dir/__/__/mesh/prov/src/prov_bearer_adv.c.obj
 .debug_ranges  0x00002a10      0x450 examples/dfu/CMakeFiles/dfu_no_serial_nrf52840_xxAA_s140_6.0.0.dir/__/__/mesh/dfu/src/nrf_mesh_dfu.c.obj
 .debug_ranges  0x00002e60       0xb8 examples/dfu/CMakeFiles/dfu_no_serial_nrf52840_xxAA_s140_6.0.0.dir/__/common/src/app_error_weak.c.obj
 .debug_ranges  0x00002f18       0x10 examples/dfu/CMakeFiles/dfu_no_serial_nrf52840_xxAA_s140_6.0.0.dir/__/common/src/assertion_handler_weak.c.obj
 .debug_ranges  0x00002f28       0x20 examples/dfu/CMakeFiles/dfu_no_serial_nrf52840_xxAA_s140_6.0.0.dir/__/__/mesh/core/src/nrf_mesh_configure.c.obj
 .debug_ranges  0x00002f48       0x18 examples/dfu/CMakeFiles/dfu_no_serial_nrf52840_xxAA_s140_6.0.0.dir/__/__/mesh/core/src/aes.c.obj
 .debug_ranges  0x00002f60       0x48 examples/dfu/CMakeFiles/dfu_no_serial_nrf52840_xxAA_s140_6.0.0.dir/__/__/mesh/core/src/msg_cache.c.obj
 .debug_ranges  0x00002fa8      0x5d0 examples/dfu/CMakeFiles/dfu_no_serial_nrf52840_xxAA_s140_6.0.0.dir/__/__/mesh/core/src/transport.c.obj
 .debug_ranges  0x00003578       0x20 examples/dfu/CMakeFiles/dfu_no_serial_nrf52840_xxAA_s140_6.0.0.dir/__/__/mesh/core/src/event.c.obj
 .debug_ranges  0x00003598      0x128 examples/dfu/CMakeFiles/dfu_no_serial_nrf52840_xxAA_s140_6.0.0.dir/__/__/mesh/core/src/packet_buffer.c.obj
 .debug_ranges  0x000036c0      0x230 examples/dfu/CMakeFiles/dfu_no_serial_nrf52840_xxAA_s140_6.0.0.dir/__/__/mesh/core/src/flash_manager_defrag.c.obj
 .debug_ranges  0x000038f0       0x68 examples/dfu/CMakeFiles/dfu_no_serial_nrf52840_xxAA_s140_6.0.0.dir/__/__/mesh/core/src/fifo.c.obj
 .debug_ranges  0x00003958       0x38 examples/dfu/CMakeFiles/dfu_no_serial_nrf52840_xxAA_s140_6.0.0.dir/__/__/mesh/core/src/nrf_flash.c.obj
 .debug_ranges  0x00003990       0xe0 examples/dfu/CMakeFiles/dfu_no_serial_nrf52840_xxAA_s140_6.0.0.dir/__/__/mesh/core/src/packet_mgr.c.obj
 .debug_ranges  0x00003a70      0x1f8 examples/dfu/CMakeFiles/dfu_no_serial_nrf52840_xxAA_s140_6.0.0.dir/__/__/mesh/core/src/net_state.c.obj
 .debug_ranges  0x00003c68      0x1c8 examples/dfu/CMakeFiles/dfu_no_serial_nrf52840_xxAA_s140_6.0.0.dir/__/__/mesh/core/src/mesh_flash.c.obj
 .debug_ranges  0x00003e30       0x20 examples/dfu/CMakeFiles/dfu_no_serial_nrf52840_xxAA_s140_6.0.0.dir/__/__/mesh/core/src/nrf_mesh_utils.c.obj
 .debug_ranges  0x00003e50       0xe0 examples/dfu/CMakeFiles/dfu_no_serial_nrf52840_xxAA_s140_6.0.0.dir/__/__/mesh/core/src/nrf_mesh.c.obj
 .debug_ranges  0x00003f30       0x28 examples/dfu/CMakeFiles/dfu_no_serial_nrf52840_xxAA_s140_6.0.0.dir/__/__/mesh/core/src/queue.c.obj
 .debug_ranges  0x00003f58       0x20 examples/dfu/CMakeFiles/dfu_no_serial_nrf52840_xxAA_s140_6.0.0.dir/__/__/mesh/core/src/hal.c.obj
 .debug_ranges  0x00003f78       0x98 examples/dfu/CMakeFiles/dfu_no_serial_nrf52840_xxAA_s140_6.0.0.dir/__/__/mesh/core/src/aes_cmac.c.obj
 .debug_ranges  0x00004010       0xf0 examples/dfu/CMakeFiles/dfu_no_serial_nrf52840_xxAA_s140_6.0.0.dir/__/__/mesh/core/src/timer_scheduler.c.obj
 .debug_ranges  0x00004100       0xd8 examples/dfu/CMakeFiles/dfu_no_serial_nrf52840_xxAA_s140_6.0.0.dir/__/__/mesh/core/src/timer.c.obj
 .debug_ranges  0x000041d8       0x20 examples/dfu/CMakeFiles/dfu_no_serial_nrf52840_xxAA_s140_6.0.0.dir/__/__/mesh/core/src/ticker.c.obj
 .debug_ranges  0x000041f8       0x30 examples/dfu/CMakeFiles/dfu_no_serial_nrf52840_xxAA_s140_6.0.0.dir/__/__/mesh/core/src/rand.c.obj
 .debug_ranges  0x00004228       0x18 examples/dfu/CMakeFiles/dfu_no_serial_nrf52840_xxAA_s140_6.0.0.dir/__/__/mesh/core/src/nrf_mesh_opt.c.obj
 .debug_ranges  0x00004240      0x168 examples/dfu/CMakeFiles/dfu_no_serial_nrf52840_xxAA_s140_6.0.0.dir/__/__/mesh/core/src/timeslot.c.obj
 .debug_ranges  0x000043a8       0xf8 examples/dfu/CMakeFiles/dfu_no_serial_nrf52840_xxAA_s140_6.0.0.dir/__/__/mesh/core/src/bearer_event.c.obj
 .debug_ranges  0x000044a0       0xb0 examples/dfu/CMakeFiles/dfu_no_serial_nrf52840_xxAA_s140_6.0.0.dir/__/__/mesh/core/src/enc.c.obj
 .debug_ranges  0x00004550       0xe8 examples/dfu/CMakeFiles/dfu_no_serial_nrf52840_xxAA_s140_6.0.0.dir/__/__/mesh/core/src/network.c.obj
 .debug_ranges  0x00004638      0x160 examples/dfu/CMakeFiles/dfu_no_serial_nrf52840_xxAA_s140_6.0.0.dir/__/__/mesh/core/src/net_packet.c.obj
 .debug_ranges  0x00004798       0x50 examples/dfu/CMakeFiles/dfu_no_serial_nrf52840_xxAA_s140_6.0.0.dir/__/__/mesh/core/src/msqueue.c.obj
 .debug_ranges  0x000047e8       0x30 examples/dfu/CMakeFiles/dfu_no_serial_nrf52840_xxAA_s140_6.0.0.dir/__/__/mesh/core/src/nrf_mesh_keygen.c.obj
 .debug_ranges  0x00004818       0x78 examples/dfu/CMakeFiles/dfu_no_serial_nrf52840_xxAA_s140_6.0.0.dir/__/__/mesh/core/src/list.c.obj
 .debug_ranges  0x00004890       0x38 examples/dfu/CMakeFiles/dfu_no_serial_nrf52840_xxAA_s140_6.0.0.dir/__/__/mesh/core/src/log.c.obj
 .debug_ranges  0x000048c8      0x388 examples/dfu/CMakeFiles/dfu_no_serial_nrf52840_xxAA_s140_6.0.0.dir/__/__/mesh/core/src/flash_manager.c.obj
 .debug_ranges  0x00004c50       0x40 examples/dfu/CMakeFiles/dfu_no_serial_nrf52840_xxAA_s140_6.0.0.dir/__/__/mesh/core/src/ccm_soft.c.obj
 .debug_ranges  0x00004c90       0x30 examples/dfu/CMakeFiles/dfu_no_serial_nrf52840_xxAA_s140_6.0.0.dir/__/__/mesh/core/src/replay_cache.c.obj
 .debug_ranges  0x00004cc0       0x90 examples/dfu/CMakeFiles/dfu_no_serial_nrf52840_xxAA_s140_6.0.0.dir/__/__/mesh/core/src/beacon.c.obj
 .debug_ranges  0x00004d50       0x10 examples/dfu/CMakeFiles/dfu_no_serial_nrf52840_xxAA_s140_6.0.0.dir/__/__/mesh/core/src/flash_manager_internal.c.obj
 .debug_ranges  0x00004d60       0xf8 examples/dfu/CMakeFiles/dfu_no_serial_nrf52840_xxAA_s140_6.0.0.dir/__/__/mesh/core/src/core_tx.c.obj
 .debug_ranges  0x00004e58       0xa8 examples/dfu/CMakeFiles/dfu_no_serial_nrf52840_xxAA_s140_6.0.0.dir/__/__/mesh/core/src/heartbeat.c.obj
 .debug_ranges  0x00004f00      0x170 examples/dfu/CMakeFiles/dfu_no_serial_nrf52840_xxAA_s140_6.0.0.dir/__/__/mesh/core/src/net_beacon.c.obj
 .debug_ranges  0x00005070       0x58 examples/dfu/CMakeFiles/dfu_no_serial_nrf52840_xxAA_s140_6.0.0.dir/__/__/mesh/core/src/core_tx_adv.c.obj
 .debug_ranges  0x000050c8       0xf8 examples/dfu/CMakeFiles/dfu_no_serial_nrf52840_xxAA_s140_6.0.0.dir/__/__/mesh/bearer/src/ad_listener.c.obj
 .debug_ranges  0x000051c0       0xd0 examples/dfu/CMakeFiles/dfu_no_serial_nrf52840_xxAA_s140_6.0.0.dir/__/__/mesh/bearer/src/ad_type_filter.c.obj
 .debug_ranges  0x00005290      0x240 examples/dfu/CMakeFiles/dfu_no_serial_nrf52840_xxAA_s140_6.0.0.dir/__/__/mesh/bearer/src/advertiser.c.obj
 .debug_ranges  0x000054d0       0xb0 examples/dfu/CMakeFiles/dfu_no_serial_nrf52840_xxAA_s140_6.0.0.dir/__/__/mesh/bearer/src/bearer_handler.c.obj
 .debug_ranges  0x00005580       0xa8 examples/dfu/CMakeFiles/dfu_no_serial_nrf52840_xxAA_s140_6.0.0.dir/__/__/mesh/bearer/src/broadcast.c.obj
 .debug_ranges  0x00005628       0x48 examples/dfu/CMakeFiles/dfu_no_serial_nrf52840_xxAA_s140_6.0.0.dir/__/__/mesh/bearer/src/filter_engine.c.obj
 .debug_ranges  0x00005670       0x48 examples/dfu/CMakeFiles/dfu_no_serial_nrf52840_xxAA_s140_6.0.0.dir/__/__/mesh/bearer/src/radio_config.c.obj
 .debug_ranges  0x000056b8      0x198 examples/dfu/CMakeFiles/dfu_no_serial_nrf52840_xxAA_s140_6.0.0.dir/__/__/mesh/bearer/src/scanner.c.obj
 .debug_ranges  0x00005850       0x20 examples/dfu/CMakeFiles/dfu_no_serial_nrf52840_xxAA_s140_6.0.0.dir/C_/b/nRF5_SDK_15.0.0_a53641a/modules/nrfx/mdk/system_nrf52840.c.obj
 .debug_ranges  0x00005870       0x18 examples/dfu/CMakeFiles/dfu_no_serial_nrf52840_xxAA_s140_6.0.0.dir/C_/b/nRF5_SDK_15.0.0_a53641a/components/libraries/util/app_error.c.obj
 .debug_ranges  0x00005888       0x10 examples/dfu/CMakeFiles/dfu_no_serial_nrf52840_xxAA_s140_6.0.0.dir/C_/b/nRF5_SDK_15.0.0_a53641a/components/libraries/util/app_error_handler_gcc.c.obj
 .debug_ranges  0x00005898      0x130 external/rtt/librtt_nrf52840_xxAA.a(SEGGER_RTT.c.obj)
 .debug_ranges  0x000059c8       0x48 external/rtt/librtt_nrf52840_xxAA.a(SEGGER_RTT_printf.c.obj)
 .debug_ranges  0x00005a10      0x2e8 external/micro-ecc/libuECC_nrf52840_xxAA.a(uECC.c.obj)

.debug_line     0x00000000    0x17a13
 .debug_line    0x00000000      0x60d examples/dfu/CMakeFiles/dfu_no_serial_nrf52840_xxAA_s140_6.0.0.dir/src/main.c.obj
 .debug_line    0x0000060d      0x499 examples/dfu/CMakeFiles/dfu_no_serial_nrf52840_xxAA_s140_6.0.0.dir/__/__/mesh/stack/src/mesh_stack.c.obj
 .debug_line    0x00000aa6      0x3da examples/dfu/CMakeFiles/dfu_no_serial_nrf52840_xxAA_s140_6.0.0.dir/__/common/src/mesh_softdevice_init.c.obj
 .debug_line    0x00000e80      0x4e1 examples/dfu/CMakeFiles/dfu_no_serial_nrf52840_xxAA_s140_6.0.0.dir/__/common/src/mesh_provisionee.c.obj
 .debug_line    0x00001361      0x472 examples/dfu/CMakeFiles/dfu_no_serial_nrf52840_xxAA_s140_6.0.0.dir/__/common/src/simple_hal.c.obj
 .debug_line    0x000017d3      0x411 examples/dfu/CMakeFiles/dfu_no_serial_nrf52840_xxAA_s140_6.0.0.dir/__/__/mesh/access/src/access_publish.c.obj
 .debug_line    0x00001be4      0xee9 examples/dfu/CMakeFiles/dfu_no_serial_nrf52840_xxAA_s140_6.0.0.dir/__/__/mesh/access/src/access.c.obj
 .debug_line    0x00002acd      0x519 examples/dfu/CMakeFiles/dfu_no_serial_nrf52840_xxAA_s140_6.0.0.dir/__/__/mesh/access/src/access_reliable.c.obj
 .debug_line    0x00002fe6     0x13d7 examples/dfu/CMakeFiles/dfu_no_serial_nrf52840_xxAA_s140_6.0.0.dir/__/__/mesh/access/src/device_state_manager.c.obj
 .debug_line    0x000043bd      0x2ed examples/dfu/CMakeFiles/dfu_no_serial_nrf52840_xxAA_s140_6.0.0.dir/__/__/models/config/src/composition_data.c.obj
 .debug_line    0x000046aa     0x1352 examples/dfu/CMakeFiles/dfu_no_serial_nrf52840_xxAA_s140_6.0.0.dir/__/__/models/config/src/config_server.c.obj
 .debug_line    0x000059fc       0xef examples/dfu/CMakeFiles/dfu_no_serial_nrf52840_xxAA_s140_6.0.0.dir/__/__/models/config/src/packed_index_list.c.obj
 .debug_line    0x00005aeb      0x691 examples/dfu/CMakeFiles/dfu_no_serial_nrf52840_xxAA_s140_6.0.0.dir/__/__/models/health/src/health_server.c.obj
 .debug_line    0x0000617c      0x582 examples/dfu/CMakeFiles/dfu_no_serial_nrf52840_xxAA_s140_6.0.0.dir/__/__/mesh/prov/src/prov_provisioner.c.obj
 .debug_line    0x000066fe      0x61e examples/dfu/CMakeFiles/dfu_no_serial_nrf52840_xxAA_s140_6.0.0.dir/__/__/mesh/prov/src/prov_provisionee.c.obj
 .debug_line    0x00006d1c      0x551 examples/dfu/CMakeFiles/dfu_no_serial_nrf52840_xxAA_s140_6.0.0.dir/__/__/mesh/prov/src/nrf_mesh_prov.c.obj
 .debug_line    0x0000726d      0x3b1 examples/dfu/CMakeFiles/dfu_no_serial_nrf52840_xxAA_s140_6.0.0.dir/__/__/mesh/prov/src/provisioning.c.obj
 .debug_line    0x0000761e      0x451 examples/dfu/CMakeFiles/dfu_no_serial_nrf52840_xxAA_s140_6.0.0.dir/__/__/mesh/prov/src/prov_beacon.c.obj
 .debug_line    0x00007a6f      0x48e examples/dfu/CMakeFiles/dfu_no_serial_nrf52840_xxAA_s140_6.0.0.dir/__/__/mesh/prov/src/prov_utils.c.obj
 .debug_line    0x00007efd      0xb1b examples/dfu/CMakeFiles/dfu_no_serial_nrf52840_xxAA_s140_6.0.0.dir/__/__/mesh/prov/src/prov_bearer_adv.c.obj
 .debug_line    0x00008a18      0xdd1 examples/dfu/CMakeFiles/dfu_no_serial_nrf52840_xxAA_s140_6.0.0.dir/__/__/mesh/dfu/src/nrf_mesh_dfu.c.obj
 .debug_line    0x000097e9      0x473 examples/dfu/CMakeFiles/dfu_no_serial_nrf52840_xxAA_s140_6.0.0.dir/__/common/src/app_error_weak.c.obj
 .debug_line    0x00009c5c      0x22b examples/dfu/CMakeFiles/dfu_no_serial_nrf52840_xxAA_s140_6.0.0.dir/__/common/src/assertion_handler_weak.c.obj
 .debug_line    0x00009e87      0x225 examples/dfu/CMakeFiles/dfu_no_serial_nrf52840_xxAA_s140_6.0.0.dir/__/__/mesh/core/src/nrf_mesh_configure.c.obj
 .debug_line    0x0000a0ac      0x24a examples/dfu/CMakeFiles/dfu_no_serial_nrf52840_xxAA_s140_6.0.0.dir/__/__/mesh/core/src/aes.c.obj
 .debug_line    0x0000a2f6      0x258 examples/dfu/CMakeFiles/dfu_no_serial_nrf52840_xxAA_s140_6.0.0.dir/__/__/mesh/core/src/msg_cache.c.obj
 .debug_line    0x0000a54e      0xcb7 examples/dfu/CMakeFiles/dfu_no_serial_nrf52840_xxAA_s140_6.0.0.dir/__/__/mesh/core/src/transport.c.obj
 .debug_line    0x0000b205      0x2da examples/dfu/CMakeFiles/dfu_no_serial_nrf52840_xxAA_s140_6.0.0.dir/__/__/mesh/core/src/event.c.obj
 .debug_line    0x0000b4df      0x4af examples/dfu/CMakeFiles/dfu_no_serial_nrf52840_xxAA_s140_6.0.0.dir/__/__/mesh/core/src/packet_buffer.c.obj
 .debug_line    0x0000b98e      0x6d1 examples/dfu/CMakeFiles/dfu_no_serial_nrf52840_xxAA_s140_6.0.0.dir/__/__/mesh/core/src/flash_manager_defrag.c.obj
 .debug_line    0x0000c05f      0x36f examples/dfu/CMakeFiles/dfu_no_serial_nrf52840_xxAA_s140_6.0.0.dir/__/__/mesh/core/src/fifo.c.obj
 .debug_line    0x0000c3ce      0x236 examples/dfu/CMakeFiles/dfu_no_serial_nrf52840_xxAA_s140_6.0.0.dir/__/__/mesh/core/src/nrf_flash.c.obj
 .debug_line    0x0000c604      0x40e examples/dfu/CMakeFiles/dfu_no_serial_nrf52840_xxAA_s140_6.0.0.dir/__/__/mesh/core/src/packet_mgr.c.obj
 .debug_line    0x0000ca12      0x6ad examples/dfu/CMakeFiles/dfu_no_serial_nrf52840_xxAA_s140_6.0.0.dir/__/__/mesh/core/src/net_state.c.obj
 .debug_line    0x0000d0bf      0x50b examples/dfu/CMakeFiles/dfu_no_serial_nrf52840_xxAA_s140_6.0.0.dir/__/__/mesh/core/src/mesh_flash.c.obj
 .debug_line    0x0000d5ca      0x24c examples/dfu/CMakeFiles/dfu_no_serial_nrf52840_xxAA_s140_6.0.0.dir/__/__/mesh/core/src/nrf_mesh_utils.c.obj
 .debug_line    0x0000d816      0x74d examples/dfu/CMakeFiles/dfu_no_serial_nrf52840_xxAA_s140_6.0.0.dir/__/__/mesh/core/src/nrf_mesh.c.obj
 .debug_line    0x0000df63      0x284 examples/dfu/CMakeFiles/dfu_no_serial_nrf52840_xxAA_s140_6.0.0.dir/__/__/mesh/core/src/queue.c.obj
 .debug_line    0x0000e1e7      0x1fd examples/dfu/CMakeFiles/dfu_no_serial_nrf52840_xxAA_s140_6.0.0.dir/__/__/mesh/core/src/hal.c.obj
 .debug_line    0x0000e3e4      0x2c9 examples/dfu/CMakeFiles/dfu_no_serial_nrf52840_xxAA_s140_6.0.0.dir/__/__/mesh/core/src/aes_cmac.c.obj
 .debug_line    0x0000e6ad      0x422 examples/dfu/CMakeFiles/dfu_no_serial_nrf52840_xxAA_s140_6.0.0.dir/__/__/mesh/core/src/timer_scheduler.c.obj
 .debug_line    0x0000eacf      0x3a5 examples/dfu/CMakeFiles/dfu_no_serial_nrf52840_xxAA_s140_6.0.0.dir/__/__/mesh/core/src/timer.c.obj
 .debug_line    0x0000ee74      0x124 examples/dfu/CMakeFiles/dfu_no_serial_nrf52840_xxAA_s140_6.0.0.dir/__/__/mesh/core/src/ticker.c.obj
 .debug_line    0x0000ef98      0x269 examples/dfu/CMakeFiles/dfu_no_serial_nrf52840_xxAA_s140_6.0.0.dir/__/__/mesh/core/src/rand.c.obj
 .debug_line    0x0000f201      0x25a examples/dfu/CMakeFiles/dfu_no_serial_nrf52840_xxAA_s140_6.0.0.dir/__/__/mesh/core/src/nrf_mesh_opt.c.obj
 .debug_line    0x0000f45b      0x54e examples/dfu/CMakeFiles/dfu_no_serial_nrf52840_xxAA_s140_6.0.0.dir/__/__/mesh/core/src/timeslot.c.obj
 .debug_line    0x0000f9a9      0x50d examples/dfu/CMakeFiles/dfu_no_serial_nrf52840_xxAA_s140_6.0.0.dir/__/__/mesh/core/src/bearer_event.c.obj
 .debug_line    0x0000feb6      0x416 examples/dfu/CMakeFiles/dfu_no_serial_nrf52840_xxAA_s140_6.0.0.dir/__/__/mesh/core/src/enc.c.obj
 .debug_line    0x000102cc      0x526 examples/dfu/CMakeFiles/dfu_no_serial_nrf52840_xxAA_s140_6.0.0.dir/__/__/mesh/core/src/network.c.obj
 .debug_line    0x000107f2      0x554 examples/dfu/CMakeFiles/dfu_no_serial_nrf52840_xxAA_s140_6.0.0.dir/__/__/mesh/core/src/net_packet.c.obj
 .debug_line    0x00010d46      0x2f3 examples/dfu/CMakeFiles/dfu_no_serial_nrf52840_xxAA_s140_6.0.0.dir/__/__/mesh/core/src/msqueue.c.obj
 .debug_line    0x00011039      0x229 examples/dfu/CMakeFiles/dfu_no_serial_nrf52840_xxAA_s140_6.0.0.dir/__/__/mesh/core/src/nrf_mesh_keygen.c.obj
 .debug_line    0x00011262      0x2d3 examples/dfu/CMakeFiles/dfu_no_serial_nrf52840_xxAA_s140_6.0.0.dir/__/__/mesh/core/src/list.c.obj
 .debug_line    0x00011535      0x278 examples/dfu/CMakeFiles/dfu_no_serial_nrf52840_xxAA_s140_6.0.0.dir/__/__/mesh/core/src/log.c.obj
 .debug_line    0x000117ad      0x8f9 examples/dfu/CMakeFiles/dfu_no_serial_nrf52840_xxAA_s140_6.0.0.dir/__/__/mesh/core/src/flash_manager.c.obj
 .debug_line    0x000120a6      0x340 examples/dfu/CMakeFiles/dfu_no_serial_nrf52840_xxAA_s140_6.0.0.dir/__/__/mesh/core/src/ccm_soft.c.obj
 .debug_line    0x000123e6      0x1cd examples/dfu/CMakeFiles/dfu_no_serial_nrf52840_xxAA_s140_6.0.0.dir/__/__/mesh/core/src/replay_cache.c.obj
 .debug_line    0x000125b3      0x484 examples/dfu/CMakeFiles/dfu_no_serial_nrf52840_xxAA_s140_6.0.0.dir/__/__/mesh/core/src/beacon.c.obj
 .debug_line    0x00012a37      0x26c examples/dfu/CMakeFiles/dfu_no_serial_nrf52840_xxAA_s140_6.0.0.dir/__/__/mesh/core/src/flash_manager_internal.c.obj
 .debug_line    0x00012ca3      0x399 examples/dfu/CMakeFiles/dfu_no_serial_nrf52840_xxAA_s140_6.0.0.dir/__/__/mesh/core/src/core_tx.c.obj
 .debug_line    0x0001303c      0x59a examples/dfu/CMakeFiles/dfu_no_serial_nrf52840_xxAA_s140_6.0.0.dir/__/__/mesh/core/src/heartbeat.c.obj
 .debug_line    0x000135d6      0x5ee examples/dfu/CMakeFiles/dfu_no_serial_nrf52840_xxAA_s140_6.0.0.dir/__/__/mesh/core/src/net_beacon.c.obj
 .debug_line    0x00013bc4      0x4b3 examples/dfu/CMakeFiles/dfu_no_serial_nrf52840_xxAA_s140_6.0.0.dir/__/__/mesh/core/src/core_tx_adv.c.obj
 .debug_line    0x00014077      0x32a examples/dfu/CMakeFiles/dfu_no_serial_nrf52840_xxAA_s140_6.0.0.dir/__/__/mesh/bearer/src/ad_listener.c.obj
 .debug_line    0x000143a1      0x3df examples/dfu/CMakeFiles/dfu_no_serial_nrf52840_xxAA_s140_6.0.0.dir/__/__/mesh/bearer/src/ad_type_filter.c.obj
 .debug_line    0x00014780      0x6cd examples/dfu/CMakeFiles/dfu_no_serial_nrf52840_xxAA_s140_6.0.0.dir/__/__/mesh/bearer/src/advertiser.c.obj
 .debug_line    0x00014e4d      0x49b examples/dfu/CMakeFiles/dfu_no_serial_nrf52840_xxAA_s140_6.0.0.dir/__/__/mesh/bearer/src/bearer_handler.c.obj
 .debug_line    0x000152e8      0x357 examples/dfu/CMakeFiles/dfu_no_serial_nrf52840_xxAA_s140_6.0.0.dir/__/__/mesh/bearer/src/broadcast.c.obj
 .debug_line    0x0001563f      0x31d examples/dfu/CMakeFiles/dfu_no_serial_nrf52840_xxAA_s140_6.0.0.dir/__/__/mesh/bearer/src/filter_engine.c.obj
 .debug_line    0x0001595c      0x28c examples/dfu/CMakeFiles/dfu_no_serial_nrf52840_xxAA_s140_6.0.0.dir/__/__/mesh/bearer/src/radio_config.c.obj
 .debug_line    0x00015be8      0x67c examples/dfu/CMakeFiles/dfu_no_serial_nrf52840_xxAA_s140_6.0.0.dir/__/__/mesh/bearer/src/scanner.c.obj
 .debug_line    0x00016264      0x1ff examples/dfu/CMakeFiles/dfu_no_serial_nrf52840_xxAA_s140_6.0.0.dir/C_/b/nRF5_SDK_15.0.0_a53641a/modules/nrfx/mdk/system_nrf52840.c.obj
 .debug_line    0x00016463      0x263 examples/dfu/CMakeFiles/dfu_no_serial_nrf52840_xxAA_s140_6.0.0.dir/C_/b/nRF5_SDK_15.0.0_a53641a/components/libraries/util/app_error.c.obj
 .debug_line    0x000166c6      0x208 examples/dfu/CMakeFiles/dfu_no_serial_nrf52840_xxAA_s140_6.0.0.dir/C_/b/nRF5_SDK_15.0.0_a53641a/components/libraries/util/app_error_handler_gcc.c.obj
 .debug_line    0x000168ce      0x4c3 external/rtt/librtt_nrf52840_xxAA.a(SEGGER_RTT.c.obj)
 .debug_line    0x00016d91      0x285 external/rtt/librtt_nrf52840_xxAA.a(SEGGER_RTT_printf.c.obj)
 .debug_line    0x00017016      0x9fd external/micro-ecc/libuECC_nrf52840_xxAA.a(uECC.c.obj)

.debug_str      0x00000000    0x1426c
 .debug_str     0x00000000     0x2be5 examples/dfu/CMakeFiles/dfu_no_serial_nrf52840_xxAA_s140_6.0.0.dir/src/main.c.obj
                               0x3075 (size before relaxing)
 .debug_str     0x00002be5      0x2d9 examples/dfu/CMakeFiles/dfu_no_serial_nrf52840_xxAA_s140_6.0.0.dir/__/__/mesh/stack/src/mesh_stack.c.obj
                               0x272e (size before relaxing)
 .debug_str     0x00002ebe      0x317 examples/dfu/CMakeFiles/dfu_no_serial_nrf52840_xxAA_s140_6.0.0.dir/__/common/src/mesh_softdevice_init.c.obj
                               0x1252 (size before relaxing)
 .debug_str     0x000031d5     0x181f examples/dfu/CMakeFiles/dfu_no_serial_nrf52840_xxAA_s140_6.0.0.dir/__/common/src/mesh_provisionee.c.obj
                               0x2441 (size before relaxing)
 .debug_str     0x000049f4      0x206 examples/dfu/CMakeFiles/dfu_no_serial_nrf52840_xxAA_s140_6.0.0.dir/__/common/src/simple_hal.c.obj
                                0xd30 (size before relaxing)
 .debug_str     0x00004bfa      0x365 examples/dfu/CMakeFiles/dfu_no_serial_nrf52840_xxAA_s140_6.0.0.dir/__/__/mesh/access/src/access_publish.c.obj
                                0xbcc (size before relaxing)
 .debug_str     0x00004f5f     0x12fe examples/dfu/CMakeFiles/dfu_no_serial_nrf52840_xxAA_s140_6.0.0.dir/__/__/mesh/access/src/access.c.obj
                               0x2f65 (size before relaxing)
 .debug_str     0x0000625d      0x213 examples/dfu/CMakeFiles/dfu_no_serial_nrf52840_xxAA_s140_6.0.0.dir/__/__/mesh/access/src/access_reliable.c.obj
                               0x1006 (size before relaxing)
 .debug_str     0x00006470     0x1127 examples/dfu/CMakeFiles/dfu_no_serial_nrf52840_xxAA_s140_6.0.0.dir/__/__/mesh/access/src/device_state_manager.c.obj
                               0x3068 (size before relaxing)
 .debug_str     0x00007597      0x198 examples/dfu/CMakeFiles/dfu_no_serial_nrf52840_xxAA_s140_6.0.0.dir/__/__/models/config/src/composition_data.c.obj
                                0x8dd (size before relaxing)
 .debug_str     0x0000772f     0x2414 examples/dfu/CMakeFiles/dfu_no_serial_nrf52840_xxAA_s140_6.0.0.dir/__/__/models/config/src/config_server.c.obj
                               0x5005 (size before relaxing)
 .debug_str     0x00009b43       0x69 examples/dfu/CMakeFiles/dfu_no_serial_nrf52840_xxAA_s140_6.0.0.dir/__/__/models/config/src/packed_index_list.c.obj
                                0x24d (size before relaxing)
 .debug_str     0x00009bac      0x5cd examples/dfu/CMakeFiles/dfu_no_serial_nrf52840_xxAA_s140_6.0.0.dir/__/__/models/health/src/health_server.c.obj
                               0x169f (size before relaxing)
 .debug_str     0x0000a179      0x55d examples/dfu/CMakeFiles/dfu_no_serial_nrf52840_xxAA_s140_6.0.0.dir/__/__/mesh/prov/src/prov_provisioner.c.obj
                               0x1f74 (size before relaxing)
 .debug_str     0x0000a6d6      0x28d examples/dfu/CMakeFiles/dfu_no_serial_nrf52840_xxAA_s140_6.0.0.dir/__/__/mesh/prov/src/prov_provisionee.c.obj
                               0x21e8 (size before relaxing)
 .debug_str     0x0000a963      0x1ce examples/dfu/CMakeFiles/dfu_no_serial_nrf52840_xxAA_s140_6.0.0.dir/__/__/mesh/prov/src/nrf_mesh_prov.c.obj
                               0x1dda (size before relaxing)
 .debug_str     0x0000ab31       0xc3 examples/dfu/CMakeFiles/dfu_no_serial_nrf52840_xxAA_s140_6.0.0.dir/__/__/mesh/prov/src/provisioning.c.obj
                                0xf2b (size before relaxing)
 .debug_str     0x0000abf4      0x113 examples/dfu/CMakeFiles/dfu_no_serial_nrf52840_xxAA_s140_6.0.0.dir/__/__/mesh/prov/src/prov_beacon.c.obj
                               0x195c (size before relaxing)
 .debug_str     0x0000ad07      0x1e2 examples/dfu/CMakeFiles/dfu_no_serial_nrf52840_xxAA_s140_6.0.0.dir/__/__/mesh/prov/src/prov_utils.c.obj
                               0x1f04 (size before relaxing)
 .debug_str     0x0000aee9      0x53e examples/dfu/CMakeFiles/dfu_no_serial_nrf52840_xxAA_s140_6.0.0.dir/__/__/mesh/prov/src/prov_bearer_adv.c.obj
                               0x1bc0 (size before relaxing)
 .debug_str     0x0000b427     0x1717 examples/dfu/CMakeFiles/dfu_no_serial_nrf52840_xxAA_s140_6.0.0.dir/__/__/mesh/dfu/src/nrf_mesh_dfu.c.obj
                               0x37e3 (size before relaxing)
 .debug_str     0x0000cb3e       0x97 examples/dfu/CMakeFiles/dfu_no_serial_nrf52840_xxAA_s140_6.0.0.dir/__/common/src/app_error_weak.c.obj
                                0x85d (size before relaxing)
 .debug_str     0x0000cbd5       0x30 examples/dfu/CMakeFiles/dfu_no_serial_nrf52840_xxAA_s140_6.0.0.dir/__/common/src/assertion_handler_weak.c.obj
                                0x672 (size before relaxing)
 .debug_str     0x0000cc05       0x75 examples/dfu/CMakeFiles/dfu_no_serial_nrf52840_xxAA_s140_6.0.0.dir/__/__/mesh/core/src/nrf_mesh_configure.c.obj
                                0x7ed (size before relaxing)
 .debug_str     0x0000cc7a       0xc1 examples/dfu/CMakeFiles/dfu_no_serial_nrf52840_xxAA_s140_6.0.0.dir/__/__/mesh/core/src/aes.c.obj
                                0xb1a (size before relaxing)
 .debug_str     0x0000cd3b       0xbb examples/dfu/CMakeFiles/dfu_no_serial_nrf52840_xxAA_s140_6.0.0.dir/__/__/mesh/core/src/msg_cache.c.obj
                                0x6b9 (size before relaxing)
 .debug_str     0x0000cdf6     0x1188 examples/dfu/CMakeFiles/dfu_no_serial_nrf52840_xxAA_s140_6.0.0.dir/__/__/mesh/core/src/transport.c.obj
                               0x3106 (size before relaxing)
 .debug_str     0x0000df7e       0x82 examples/dfu/CMakeFiles/dfu_no_serial_nrf52840_xxAA_s140_6.0.0.dir/__/__/mesh/core/src/event.c.obj
                               0x16b3 (size before relaxing)
 .debug_str     0x0000e000      0x305 examples/dfu/CMakeFiles/dfu_no_serial_nrf52840_xxAA_s140_6.0.0.dir/__/__/mesh/core/src/packet_buffer.c.obj
                                0xb1b (size before relaxing)
 .debug_str     0x0000e305      0x49f examples/dfu/CMakeFiles/dfu_no_serial_nrf52840_xxAA_s140_6.0.0.dir/__/__/mesh/core/src/flash_manager_defrag.c.obj
                               0x118d (size before relaxing)
 .debug_str     0x0000e7a4       0x9e examples/dfu/CMakeFiles/dfu_no_serial_nrf52840_xxAA_s140_6.0.0.dir/__/__/mesh/core/src/fifo.c.obj
                                0x6db (size before relaxing)
 .debug_str     0x0000e842       0xd9 examples/dfu/CMakeFiles/dfu_no_serial_nrf52840_xxAA_s140_6.0.0.dir/__/__/mesh/core/src/nrf_flash.c.obj
                                0x6f4 (size before relaxing)
 .debug_str     0x0000e91b      0x276 examples/dfu/CMakeFiles/dfu_no_serial_nrf52840_xxAA_s140_6.0.0.dir/__/__/mesh/core/src/packet_mgr.c.obj
                                0x9a5 (size before relaxing)
 .debug_str     0x0000eb91      0x3cf examples/dfu/CMakeFiles/dfu_no_serial_nrf52840_xxAA_s140_6.0.0.dir/__/__/mesh/core/src/net_state.c.obj
                               0x2148 (size before relaxing)
 .debug_str     0x0000ef60      0x357 examples/dfu/CMakeFiles/dfu_no_serial_nrf52840_xxAA_s140_6.0.0.dir/__/__/mesh/core/src/mesh_flash.c.obj
                                0xcdc (size before relaxing)
 .debug_str     0x0000f2b7       0x8b examples/dfu/CMakeFiles/dfu_no_serial_nrf52840_xxAA_s140_6.0.0.dir/__/__/mesh/core/src/nrf_mesh_utils.c.obj
                                0x751 (size before relaxing)
 .debug_str     0x0000f342      0x46a examples/dfu/CMakeFiles/dfu_no_serial_nrf52840_xxAA_s140_6.0.0.dir/__/__/mesh/core/src/nrf_mesh.c.obj
                               0x2137 (size before relaxing)
 .debug_str     0x0000f7ac       0x5b examples/dfu/CMakeFiles/dfu_no_serial_nrf52840_xxAA_s140_6.0.0.dir/__/__/mesh/core/src/queue.c.obj
                                0x683 (size before relaxing)
 .debug_str     0x0000f807       0x86 examples/dfu/CMakeFiles/dfu_no_serial_nrf52840_xxAA_s140_6.0.0.dir/__/__/mesh/core/src/hal.c.obj
                                0x7ab (size before relaxing)
 .debug_str     0x0000f88d       0xd0 examples/dfu/CMakeFiles/dfu_no_serial_nrf52840_xxAA_s140_6.0.0.dir/__/__/mesh/core/src/aes_cmac.c.obj
                                0x715 (size before relaxing)
 .debug_str     0x0000f95d      0x13d examples/dfu/CMakeFiles/dfu_no_serial_nrf52840_xxAA_s140_6.0.0.dir/__/__/mesh/core/src/timer_scheduler.c.obj
                                0x934 (size before relaxing)
 .debug_str     0x0000fa9a      0x222 examples/dfu/CMakeFiles/dfu_no_serial_nrf52840_xxAA_s140_6.0.0.dir/__/__/mesh/core/src/timer.c.obj
                                0x8ae (size before relaxing)
 .debug_str     0x0000fcbc       0x3c examples/dfu/CMakeFiles/dfu_no_serial_nrf52840_xxAA_s140_6.0.0.dir/__/__/mesh/core/src/ticker.c.obj
                                0x34c (size before relaxing)
 .debug_str     0x0000fcf8       0x88 examples/dfu/CMakeFiles/dfu_no_serial_nrf52840_xxAA_s140_6.0.0.dir/__/__/mesh/core/src/rand.c.obj
                                0x76e (size before relaxing)
 .debug_str     0x0000fd80       0x40 examples/dfu/CMakeFiles/dfu_no_serial_nrf52840_xxAA_s140_6.0.0.dir/__/__/mesh/core/src/nrf_mesh_opt.c.obj
                                0x8f0 (size before relaxing)
 .debug_str     0x0000fdc0      0x902 examples/dfu/CMakeFiles/dfu_no_serial_nrf52840_xxAA_s140_6.0.0.dir/__/__/mesh/core/src/timeslot.c.obj
                               0x191f (size before relaxing)
 .debug_str     0x000106c2      0x292 examples/dfu/CMakeFiles/dfu_no_serial_nrf52840_xxAA_s140_6.0.0.dir/__/__/mesh/core/src/bearer_event.c.obj
                                0xefe (size before relaxing)
 .debug_str     0x00010954      0x153 examples/dfu/CMakeFiles/dfu_no_serial_nrf52840_xxAA_s140_6.0.0.dir/__/__/mesh/core/src/enc.c.obj
                                0x9ef (size before relaxing)
 .debug_str     0x00010aa7      0x2f9 examples/dfu/CMakeFiles/dfu_no_serial_nrf52840_xxAA_s140_6.0.0.dir/__/__/mesh/core/src/network.c.obj
                               0x12e8 (size before relaxing)
 .debug_str     0x00010da0      0x2f2 examples/dfu/CMakeFiles/dfu_no_serial_nrf52840_xxAA_s140_6.0.0.dir/__/__/mesh/core/src/net_packet.c.obj
                                0xe86 (size before relaxing)
 .debug_str     0x00011092       0x53 examples/dfu/CMakeFiles/dfu_no_serial_nrf52840_xxAA_s140_6.0.0.dir/__/__/mesh/core/src/msqueue.c.obj
                                0x6bf (size before relaxing)
 .debug_str     0x000110e5       0x57 examples/dfu/CMakeFiles/dfu_no_serial_nrf52840_xxAA_s140_6.0.0.dir/__/__/mesh/core/src/nrf_mesh_keygen.c.obj
                                0x397 (size before relaxing)
 .debug_str     0x0001113c       0x65 examples/dfu/CMakeFiles/dfu_no_serial_nrf52840_xxAA_s140_6.0.0.dir/__/__/mesh/core/src/list.c.obj
                                0x2be (size before relaxing)
 .debug_str     0x000111a1      0x184 examples/dfu/CMakeFiles/dfu_no_serial_nrf52840_xxAA_s140_6.0.0.dir/__/__/mesh/core/src/log.c.obj
                                0x7d0 (size before relaxing)
 .debug_str     0x00011325      0x4e4 examples/dfu/CMakeFiles/dfu_no_serial_nrf52840_xxAA_s140_6.0.0.dir/__/__/mesh/core/src/flash_manager.c.obj
                               0x1578 (size before relaxing)
 .debug_str     0x00011809       0x85 examples/dfu/CMakeFiles/dfu_no_serial_nrf52840_xxAA_s140_6.0.0.dir/__/__/mesh/core/src/ccm_soft.c.obj
                                0x75d (size before relaxing)
 .debug_str     0x0001188e       0x92 examples/dfu/CMakeFiles/dfu_no_serial_nrf52840_xxAA_s140_6.0.0.dir/__/__/mesh/core/src/replay_cache.c.obj
                                0x68d (size before relaxing)
 .debug_str     0x00011920       0x8b examples/dfu/CMakeFiles/dfu_no_serial_nrf52840_xxAA_s140_6.0.0.dir/__/__/mesh/core/src/beacon.c.obj
                               0x1103 (size before relaxing)
 .debug_str     0x000119ab       0x38 examples/dfu/CMakeFiles/dfu_no_serial_nrf52840_xxAA_s140_6.0.0.dir/__/__/mesh/core/src/flash_manager_internal.c.obj
                                0x7a4 (size before relaxing)
 .debug_str     0x000119e3      0x2be examples/dfu/CMakeFiles/dfu_no_serial_nrf52840_xxAA_s140_6.0.0.dir/__/__/mesh/core/src/core_tx.c.obj
                                0xbef (size before relaxing)
 .debug_str     0x00011ca1      0x35b examples/dfu/CMakeFiles/dfu_no_serial_nrf52840_xxAA_s140_6.0.0.dir/__/__/mesh/core/src/heartbeat.c.obj
                               0x2240 (size before relaxing)
 .debug_str     0x00011ffc      0x1ae examples/dfu/CMakeFiles/dfu_no_serial_nrf52840_xxAA_s140_6.0.0.dir/__/__/mesh/core/src/net_beacon.c.obj
                               0x20a0 (size before relaxing)
 .debug_str     0x000121aa      0x107 examples/dfu/CMakeFiles/dfu_no_serial_nrf52840_xxAA_s140_6.0.0.dir/__/__/mesh/core/src/core_tx_adv.c.obj
                               0x12d9 (size before relaxing)
 .debug_str     0x000122b1      0x179 examples/dfu/CMakeFiles/dfu_no_serial_nrf52840_xxAA_s140_6.0.0.dir/__/__/mesh/bearer/src/ad_listener.c.obj
                                0xbe2 (size before relaxing)
 .debug_str     0x0001242a      0x14f examples/dfu/CMakeFiles/dfu_no_serial_nrf52840_xxAA_s140_6.0.0.dir/__/__/mesh/bearer/src/ad_type_filter.c.obj
                                0x99f (size before relaxing)
 .debug_str     0x00012579      0x2d6 examples/dfu/CMakeFiles/dfu_no_serial_nrf52840_xxAA_s140_6.0.0.dir/__/__/mesh/bearer/src/advertiser.c.obj
                               0x1561 (size before relaxing)
 .debug_str     0x0001284f      0x45c examples/dfu/CMakeFiles/dfu_no_serial_nrf52840_xxAA_s140_6.0.0.dir/__/__/mesh/bearer/src/bearer_handler.c.obj
                               0x10f0 (size before relaxing)
 .debug_str     0x00012cab      0x1ac examples/dfu/CMakeFiles/dfu_no_serial_nrf52840_xxAA_s140_6.0.0.dir/__/__/mesh/bearer/src/broadcast.c.obj
                               0x1062 (size before relaxing)
 .debug_str     0x00012e57       0x72 examples/dfu/CMakeFiles/dfu_no_serial_nrf52840_xxAA_s140_6.0.0.dir/__/__/mesh/bearer/src/filter_engine.c.obj
                                0x80c (size before relaxing)
 .debug_str     0x00012ec9       0x79 examples/dfu/CMakeFiles/dfu_no_serial_nrf52840_xxAA_s140_6.0.0.dir/__/__/mesh/bearer/src/radio_config.c.obj
                                0x8b0 (size before relaxing)
 .debug_str     0x00012f42      0x45d examples/dfu/CMakeFiles/dfu_no_serial_nrf52840_xxAA_s140_6.0.0.dir/__/__/mesh/bearer/src/scanner.c.obj
                               0x1a39 (size before relaxing)
 .debug_str     0x0001339f      0x3bb examples/dfu/CMakeFiles/dfu_no_serial_nrf52840_xxAA_s140_6.0.0.dir/C_/b/nRF5_SDK_15.0.0_a53641a/modules/nrfx/mdk/system_nrf52840.c.obj
                                0x911 (size before relaxing)
 .debug_str     0x0001375a       0x9c examples/dfu/CMakeFiles/dfu_no_serial_nrf52840_xxAA_s140_6.0.0.dir/C_/b/nRF5_SDK_15.0.0_a53641a/components/libraries/util/app_error.c.obj
                                0x724 (size before relaxing)
 .debug_str     0x000137f6       0x4f examples/dfu/CMakeFiles/dfu_no_serial_nrf52840_xxAA_s140_6.0.0.dir/C_/b/nRF5_SDK_15.0.0_a53641a/components/libraries/util/app_error_handler_gcc.c.obj
                                0x689 (size before relaxing)
 .debug_str     0x00013845      0x2d1 external/rtt/librtt_nrf52840_xxAA.a(SEGGER_RTT.c.obj)
                                0x922 (size before relaxing)
 .debug_str     0x00013b16       0xdf external/rtt/librtt_nrf52840_xxAA.a(SEGGER_RTT_printf.c.obj)
                                0x792 (size before relaxing)
 .debug_str     0x00013bf5      0x677 external/micro-ecc/libuECC_nrf52840_xxAA.a(uECC.c.obj)
                                0x880 (size before relaxing)

.debug_frame    0x00000000     0x6e38
 .debug_frame   0x00000000       0x88 examples/dfu/CMakeFiles/dfu_no_serial_nrf52840_xxAA_s140_6.0.0.dir/src/main.c.obj
 .debug_frame   0x00000088       0xcc examples/dfu/CMakeFiles/dfu_no_serial_nrf52840_xxAA_s140_6.0.0.dir/__/__/mesh/stack/src/mesh_stack.c.obj
 .debug_frame   0x00000154       0x80 examples/dfu/CMakeFiles/dfu_no_serial_nrf52840_xxAA_s140_6.0.0.dir/__/common/src/mesh_softdevice_init.c.obj
 .debug_frame   0x000001d4       0x70 examples/dfu/CMakeFiles/dfu_no_serial_nrf52840_xxAA_s140_6.0.0.dir/__/common/src/mesh_provisionee.c.obj
 .debug_frame   0x00000244       0xa0 examples/dfu/CMakeFiles/dfu_no_serial_nrf52840_xxAA_s140_6.0.0.dir/__/common/src/simple_hal.c.obj
 .debug_frame   0x000002e4      0x114 examples/dfu/CMakeFiles/dfu_no_serial_nrf52840_xxAA_s140_6.0.0.dir/__/__/mesh/access/src/access_publish.c.obj
 .debug_frame   0x000003f8      0x5b0 examples/dfu/CMakeFiles/dfu_no_serial_nrf52840_xxAA_s140_6.0.0.dir/__/__/mesh/access/src/access.c.obj
 .debug_frame   0x000009a8      0x120 examples/dfu/CMakeFiles/dfu_no_serial_nrf52840_xxAA_s140_6.0.0.dir/__/__/mesh/access/src/access_reliable.c.obj
 .debug_frame   0x00000ac8      0xaf4 examples/dfu/CMakeFiles/dfu_no_serial_nrf52840_xxAA_s140_6.0.0.dir/__/__/mesh/access/src/device_state_manager.c.obj
 .debug_frame   0x000015bc       0x40 examples/dfu/CMakeFiles/dfu_no_serial_nrf52840_xxAA_s140_6.0.0.dir/__/__/models/config/src/composition_data.c.obj
 .debug_frame   0x000015fc      0x8bc examples/dfu/CMakeFiles/dfu_no_serial_nrf52840_xxAA_s140_6.0.0.dir/__/__/models/config/src/config_server.c.obj
 .debug_frame   0x00001eb8       0x2c examples/dfu/CMakeFiles/dfu_no_serial_nrf52840_xxAA_s140_6.0.0.dir/__/__/models/config/src/packed_index_list.c.obj
 .debug_frame   0x00001ee4      0x2a0 examples/dfu/CMakeFiles/dfu_no_serial_nrf52840_xxAA_s140_6.0.0.dir/__/__/models/health/src/health_server.c.obj
 .debug_frame   0x00002184      0x190 examples/dfu/CMakeFiles/dfu_no_serial_nrf52840_xxAA_s140_6.0.0.dir/__/__/mesh/prov/src/prov_provisioner.c.obj
 .debug_frame   0x00002314      0x198 examples/dfu/CMakeFiles/dfu_no_serial_nrf52840_xxAA_s140_6.0.0.dir/__/__/mesh/prov/src/prov_provisionee.c.obj
 .debug_frame   0x000024ac      0x160 examples/dfu/CMakeFiles/dfu_no_serial_nrf52840_xxAA_s140_6.0.0.dir/__/__/mesh/prov/src/nrf_mesh_prov.c.obj
 .debug_frame   0x0000260c      0x170 examples/dfu/CMakeFiles/dfu_no_serial_nrf52840_xxAA_s140_6.0.0.dir/__/__/mesh/prov/src/provisioning.c.obj
 .debug_frame   0x0000277c       0x84 examples/dfu/CMakeFiles/dfu_no_serial_nrf52840_xxAA_s140_6.0.0.dir/__/__/mesh/prov/src/prov_beacon.c.obj
 .debug_frame   0x00002800      0x150 examples/dfu/CMakeFiles/dfu_no_serial_nrf52840_xxAA_s140_6.0.0.dir/__/__/mesh/prov/src/prov_utils.c.obj
 .debug_frame   0x00002950      0x324 examples/dfu/CMakeFiles/dfu_no_serial_nrf52840_xxAA_s140_6.0.0.dir/__/__/mesh/prov/src/prov_bearer_adv.c.obj
 .debug_frame   0x00002c74      0x280 examples/dfu/CMakeFiles/dfu_no_serial_nrf52840_xxAA_s140_6.0.0.dir/__/__/mesh/dfu/src/nrf_mesh_dfu.c.obj
 .debug_frame   0x00002ef4       0x34 examples/dfu/CMakeFiles/dfu_no_serial_nrf52840_xxAA_s140_6.0.0.dir/__/common/src/app_error_weak.c.obj
 .debug_frame   0x00002f28       0x28 examples/dfu/CMakeFiles/dfu_no_serial_nrf52840_xxAA_s140_6.0.0.dir/__/common/src/assertion_handler_weak.c.obj
 .debug_frame   0x00002f50       0x4c examples/dfu/CMakeFiles/dfu_no_serial_nrf52840_xxAA_s140_6.0.0.dir/__/__/mesh/core/src/nrf_mesh_configure.c.obj
 .debug_frame   0x00002f9c       0x40 examples/dfu/CMakeFiles/dfu_no_serial_nrf52840_xxAA_s140_6.0.0.dir/__/__/mesh/core/src/aes.c.obj
 .debug_frame   0x00002fdc       0x6c examples/dfu/CMakeFiles/dfu_no_serial_nrf52840_xxAA_s140_6.0.0.dir/__/__/mesh/core/src/msg_cache.c.obj
 .debug_frame   0x00003048      0x404 examples/dfu/CMakeFiles/dfu_no_serial_nrf52840_xxAA_s140_6.0.0.dir/__/__/mesh/core/src/transport.c.obj
 .debug_frame   0x0000344c       0x64 examples/dfu/CMakeFiles/dfu_no_serial_nrf52840_xxAA_s140_6.0.0.dir/__/__/mesh/core/src/event.c.obj
 .debug_frame   0x000034b0      0x128 examples/dfu/CMakeFiles/dfu_no_serial_nrf52840_xxAA_s140_6.0.0.dir/__/__/mesh/core/src/packet_buffer.c.obj
 .debug_frame   0x000035d8      0x24c examples/dfu/CMakeFiles/dfu_no_serial_nrf52840_xxAA_s140_6.0.0.dir/__/__/mesh/core/src/flash_manager_defrag.c.obj
 .debug_frame   0x00003824       0xd0 examples/dfu/CMakeFiles/dfu_no_serial_nrf52840_xxAA_s140_6.0.0.dir/__/__/mesh/core/src/fifo.c.obj
 .debug_frame   0x000038f4       0x54 examples/dfu/CMakeFiles/dfu_no_serial_nrf52840_xxAA_s140_6.0.0.dir/__/__/mesh/core/src/nrf_flash.c.obj
 .debug_frame   0x00003948       0xa0 examples/dfu/CMakeFiles/dfu_no_serial_nrf52840_xxAA_s140_6.0.0.dir/__/__/mesh/core/src/packet_mgr.c.obj
 .debug_frame   0x000039e8      0x298 examples/dfu/CMakeFiles/dfu_no_serial_nrf52840_xxAA_s140_6.0.0.dir/__/__/mesh/core/src/net_state.c.obj
 .debug_frame   0x00003c80      0x150 examples/dfu/CMakeFiles/dfu_no_serial_nrf52840_xxAA_s140_6.0.0.dir/__/__/mesh/core/src/mesh_flash.c.obj
 .debug_frame   0x00003dd0       0x50 examples/dfu/CMakeFiles/dfu_no_serial_nrf52840_xxAA_s140_6.0.0.dir/__/__/mesh/core/src/nrf_mesh_utils.c.obj
 .debug_frame   0x00003e20      0x190 examples/dfu/CMakeFiles/dfu_no_serial_nrf52840_xxAA_s140_6.0.0.dir/__/__/mesh/core/src/nrf_mesh.c.obj
 .debug_frame   0x00003fb0       0x74 examples/dfu/CMakeFiles/dfu_no_serial_nrf52840_xxAA_s140_6.0.0.dir/__/__/mesh/core/src/queue.c.obj
 .debug_frame   0x00004024       0x48 examples/dfu/CMakeFiles/dfu_no_serial_nrf52840_xxAA_s140_6.0.0.dir/__/__/mesh/core/src/hal.c.obj
 .debug_frame   0x0000406c       0xa4 examples/dfu/CMakeFiles/dfu_no_serial_nrf52840_xxAA_s140_6.0.0.dir/__/__/mesh/core/src/aes_cmac.c.obj
 .debug_frame   0x00004110      0x134 examples/dfu/CMakeFiles/dfu_no_serial_nrf52840_xxAA_s140_6.0.0.dir/__/__/mesh/core/src/timer_scheduler.c.obj
 .debug_frame   0x00004244      0x10c examples/dfu/CMakeFiles/dfu_no_serial_nrf52840_xxAA_s140_6.0.0.dir/__/__/mesh/core/src/timer.c.obj
 .debug_frame   0x00004350       0x4c examples/dfu/CMakeFiles/dfu_no_serial_nrf52840_xxAA_s140_6.0.0.dir/__/__/mesh/core/src/ticker.c.obj
 .debug_frame   0x0000439c       0x84 examples/dfu/CMakeFiles/dfu_no_serial_nrf52840_xxAA_s140_6.0.0.dir/__/__/mesh/core/src/rand.c.obj
 .debug_frame   0x00004420       0x30 examples/dfu/CMakeFiles/dfu_no_serial_nrf52840_xxAA_s140_6.0.0.dir/__/__/mesh/core/src/nrf_mesh_opt.c.obj
 .debug_frame   0x00004450      0x1a0 examples/dfu/CMakeFiles/dfu_no_serial_nrf52840_xxAA_s140_6.0.0.dir/__/__/mesh/core/src/timeslot.c.obj
 .debug_frame   0x000045f0      0x1bc examples/dfu/CMakeFiles/dfu_no_serial_nrf52840_xxAA_s140_6.0.0.dir/__/__/mesh/core/src/bearer_event.c.obj
 .debug_frame   0x000047ac      0x13c examples/dfu/CMakeFiles/dfu_no_serial_nrf52840_xxAA_s140_6.0.0.dir/__/__/mesh/core/src/enc.c.obj
 .debug_frame   0x000048e8      0x100 examples/dfu/CMakeFiles/dfu_no_serial_nrf52840_xxAA_s140_6.0.0.dir/__/__/mesh/core/src/network.c.obj
 .debug_frame   0x000049e8      0x114 examples/dfu/CMakeFiles/dfu_no_serial_nrf52840_xxAA_s140_6.0.0.dir/__/__/mesh/core/src/net_packet.c.obj
 .debug_frame   0x00004afc       0xb4 examples/dfu/CMakeFiles/dfu_no_serial_nrf52840_xxAA_s140_6.0.0.dir/__/__/mesh/core/src/msqueue.c.obj
 .debug_frame   0x00004bb0       0xb4 examples/dfu/CMakeFiles/dfu_no_serial_nrf52840_xxAA_s140_6.0.0.dir/__/__/mesh/core/src/nrf_mesh_keygen.c.obj
 .debug_frame   0x00004c64       0xc8 examples/dfu/CMakeFiles/dfu_no_serial_nrf52840_xxAA_s140_6.0.0.dir/__/__/mesh/core/src/list.c.obj
 .debug_frame   0x00004d2c       0xb0 examples/dfu/CMakeFiles/dfu_no_serial_nrf52840_xxAA_s140_6.0.0.dir/__/__/mesh/core/src/log.c.obj
 .debug_frame   0x00004ddc      0x320 examples/dfu/CMakeFiles/dfu_no_serial_nrf52840_xxAA_s140_6.0.0.dir/__/__/mesh/core/src/flash_manager.c.obj
 .debug_frame   0x000050fc      0x10c examples/dfu/CMakeFiles/dfu_no_serial_nrf52840_xxAA_s140_6.0.0.dir/__/__/mesh/core/src/ccm_soft.c.obj
 .debug_frame   0x00005208       0x80 examples/dfu/CMakeFiles/dfu_no_serial_nrf52840_xxAA_s140_6.0.0.dir/__/__/mesh/core/src/replay_cache.c.obj
 .debug_frame   0x00005288       0x60 examples/dfu/CMakeFiles/dfu_no_serial_nrf52840_xxAA_s140_6.0.0.dir/__/__/mesh/core/src/beacon.c.obj
 .debug_frame   0x000052e8       0x34 examples/dfu/CMakeFiles/dfu_no_serial_nrf52840_xxAA_s140_6.0.0.dir/__/__/mesh/core/src/flash_manager_internal.c.obj
 .debug_frame   0x0000531c       0xf0 examples/dfu/CMakeFiles/dfu_no_serial_nrf52840_xxAA_s140_6.0.0.dir/__/__/mesh/core/src/core_tx.c.obj
 .debug_frame   0x0000540c      0x160 examples/dfu/CMakeFiles/dfu_no_serial_nrf52840_xxAA_s140_6.0.0.dir/__/__/mesh/core/src/heartbeat.c.obj
 .debug_frame   0x0000556c      0x138 examples/dfu/CMakeFiles/dfu_no_serial_nrf52840_xxAA_s140_6.0.0.dir/__/__/mesh/core/src/net_beacon.c.obj
 .debug_frame   0x000056a4      0x12c examples/dfu/CMakeFiles/dfu_no_serial_nrf52840_xxAA_s140_6.0.0.dir/__/__/mesh/core/src/core_tx_adv.c.obj
 .debug_frame   0x000057d0       0x6c examples/dfu/CMakeFiles/dfu_no_serial_nrf52840_xxAA_s140_6.0.0.dir/__/__/mesh/bearer/src/ad_listener.c.obj
 .debug_frame   0x0000583c       0xa8 examples/dfu/CMakeFiles/dfu_no_serial_nrf52840_xxAA_s140_6.0.0.dir/__/__/mesh/bearer/src/ad_type_filter.c.obj
 .debug_frame   0x000058e4      0x268 examples/dfu/CMakeFiles/dfu_no_serial_nrf52840_xxAA_s140_6.0.0.dir/__/__/mesh/bearer/src/advertiser.c.obj
 .debug_frame   0x00005b4c      0x158 examples/dfu/CMakeFiles/dfu_no_serial_nrf52840_xxAA_s140_6.0.0.dir/__/__/mesh/bearer/src/bearer_handler.c.obj
 .debug_frame   0x00005ca4       0x70 examples/dfu/CMakeFiles/dfu_no_serial_nrf52840_xxAA_s140_6.0.0.dir/__/__/mesh/bearer/src/broadcast.c.obj
 .debug_frame   0x00005d14       0x74 examples/dfu/CMakeFiles/dfu_no_serial_nrf52840_xxAA_s140_6.0.0.dir/__/__/mesh/bearer/src/filter_engine.c.obj
 .debug_frame   0x00005d88       0x94 examples/dfu/CMakeFiles/dfu_no_serial_nrf52840_xxAA_s140_6.0.0.dir/__/__/mesh/bearer/src/radio_config.c.obj
 .debug_frame   0x00005e1c      0x2a4 examples/dfu/CMakeFiles/dfu_no_serial_nrf52840_xxAA_s140_6.0.0.dir/__/__/mesh/bearer/src/scanner.c.obj
 .debug_frame   0x000060c0       0x48 examples/dfu/CMakeFiles/dfu_no_serial_nrf52840_xxAA_s140_6.0.0.dir/C_/b/nRF5_SDK_15.0.0_a53641a/modules/nrfx/mdk/system_nrf52840.c.obj
 .debug_frame   0x00006108       0x44 examples/dfu/CMakeFiles/dfu_no_serial_nrf52840_xxAA_s140_6.0.0.dir/C_/b/nRF5_SDK_15.0.0_a53641a/components/libraries/util/app_error.c.obj
 .debug_frame   0x0000614c       0x20 examples/dfu/CMakeFiles/dfu_no_serial_nrf52840_xxAA_s140_6.0.0.dir/C_/b/nRF5_SDK_15.0.0_a53641a/components/libraries/util/app_error_handler_gcc.c.obj
 .debug_frame   0x0000616c      0x2d8 external/rtt/librtt_nrf52840_xxAA.a(SEGGER_RTT.c.obj)
 .debug_frame   0x00006444       0xac external/rtt/librtt_nrf52840_xxAA.a(SEGGER_RTT_printf.c.obj)
 .debug_frame   0x000064f0      0x684 external/micro-ecc/libuECC_nrf52840_xxAA.a(uECC.c.obj)
 .debug_frame   0x00006b74       0x28 c:/mesh/arm_gcc/bin/../lib/gcc/arm-none-eabi/6.3.1/../../../../arm-none-eabi/lib/thumb/v7e-m/fpv4-sp/hard\libg_nano.a(lib_a-exit.o)
 .debug_frame   0x00006b9c       0x2c c:/mesh/arm_gcc/bin/../lib/gcc/arm-none-eabi/6.3.1/../../../../arm-none-eabi/lib/thumb/v7e-m/fpv4-sp/hard\libg_nano.a(lib_a-init.o)
 .debug_frame   0x00006bc8       0x30 c:/mesh/arm_gcc/bin/../lib/gcc/arm-none-eabi/6.3.1/../../../../arm-none-eabi/lib/thumb/v7e-m/fpv4-sp/hard\libg_nano.a(lib_a-malloc.o)
 .debug_frame   0x00006bf8       0x28 c:/mesh/arm_gcc/bin/../lib/gcc/arm-none-eabi/6.3.1/../../../../arm-none-eabi/lib/thumb/v7e-m/fpv4-sp/hard\libg_nano.a(lib_a-memcmp.o)
 .debug_frame   0x00006c20       0x28 c:/mesh/arm_gcc/bin/../lib/gcc/arm-none-eabi/6.3.1/../../../../arm-none-eabi/lib/thumb/v7e-m/fpv4-sp/hard\libg_nano.a(lib_a-memcpy-stub.o)
 .debug_frame   0x00006c48       0x20 c:/mesh/arm_gcc/bin/../lib/gcc/arm-none-eabi/6.3.1/../../../../arm-none-eabi/lib/thumb/v7e-m/fpv4-sp/hard\libg_nano.a(lib_a-memset.o)
 .debug_frame   0x00006c68       0x38 c:/mesh/arm_gcc/bin/../lib/gcc/arm-none-eabi/6.3.1/../../../../arm-none-eabi/lib/thumb/v7e-m/fpv4-sp/hard\libg_nano.a(lib_a-nano-freer.o)
 .debug_frame   0x00006ca0       0x2c c:/mesh/arm_gcc/bin/../lib/gcc/arm-none-eabi/6.3.1/../../../../arm-none-eabi/lib/thumb/v7e-m/fpv4-sp/hard\libg_nano.a(lib_a-nano-mallocr.o)
 .debug_frame   0x00006ccc       0x2c c:/mesh/arm_gcc/bin/../lib/gcc/arm-none-eabi/6.3.1/../../../../arm-none-eabi/lib/thumb/v7e-m/fpv4-sp/hard\libg_nano.a(lib_a-sbrkr.o)
 .debug_frame   0x00006cf8       0x20 c:/mesh/arm_gcc/bin/../lib/gcc/arm-none-eabi/6.3.1/../../../../arm-none-eabi/lib/thumb/v7e-m/fpv4-sp/hard\libg_nano.a(lib_a-strcpy.o)
 .debug_frame   0x00006d18       0x34 c:/mesh/arm_gcc/bin/../lib/gcc/arm-none-eabi/6.3.1/../../../../arm-none-eabi/lib/thumb/v7e-m/fpv4-sp/hard\libg_nano.a(lib_a-strrchr.o)
 .debug_frame   0x00006d4c       0x30 c:/mesh/arm_gcc/bin/../lib/gcc/arm-none-eabi/6.3.1/../../../../arm-none-eabi/lib/thumb/v7e-m/fpv4-sp/hard\libg_nano.a(lib_a-mlock.o)
 .debug_frame   0x00006d7c       0x5c c:/mesh/arm_gcc/bin/../lib/gcc/arm-none-eabi/6.3.1/../../../../arm-none-eabi/lib/thumb/v7e-m/fpv4-sp/hard\libg_nano.a(lib_a-reent.o)
 .debug_frame   0x00006dd8       0x20 c:/mesh/arm_gcc/bin/../lib/gcc/arm-none-eabi/6.3.1/../../../../arm-none-eabi/lib/thumb/v7e-m/fpv4-sp/hard\libg_nano.a(lib_a-strchr.o)
 .debug_frame   0x00006df8       0x20 c:/mesh/arm_gcc/bin/../lib/gcc/arm-none-eabi/6.3.1/../../../../arm-none-eabi/lib/thumb/v7e-m/fpv4-sp/hard\libnosys.a(sbrk.o)
 .debug_frame   0x00006e18       0x20 c:/mesh/arm_gcc/bin/../lib/gcc/arm-none-eabi/6.3.1/../../../../arm-none-eabi/lib/thumb/v7e-m/fpv4-sp/hard\libnosys.a(_exit.o)
