Archive member included to satisfy reference by file (symbol)

external/rtt/librtt_nrf52832_xxAA.a(SEGGER_RTT.c.obj)
                              examples/dfu/CMakeFiles/dfu_no_serial_nrf52832_xxAA_s132_6.0.0.dir/__/__/mesh/core/src/log.c.obj (SEGGER_RTT_Write)
external/rtt/librtt_nrf52832_xxAA.a(SEGGER_RTT_printf.c.obj)
                              examples/dfu/CMakeFiles/dfu_no_serial_nrf52832_xxAA_s132_6.0.0.dir/__/__/mesh/core/src/log.c.obj (SEGGER_RTT_vprintf)
external/micro-ecc/libuECC_nrf52832_xxAA.a(uECC.c.obj)
                              examples/dfu/CMakeFiles/dfu_no_serial_nrf52832_xxAA_s132_6.0.0.dir/__/__/mesh/prov/src/prov_utils.c.obj (uECC_secp256r1)
c:/mesh/arm_gcc/bin/../lib/gcc/arm-none-eabi/6.3.1/../../../../arm-none-eabi/lib/thumb/v7e-m/fpv4-sp/hard\libg_nano.a(lib_a-exit.o)
                              c:/mesh/arm_gcc/bin/../lib/gcc/arm-none-eabi/6.3.1/../../../../arm-none-eabi/lib/thumb/v7e-m/fpv4-sp/hard/crt0.o (exit)
c:/mesh/arm_gcc/bin/../lib/gcc/arm-none-eabi/6.3.1/../../../../arm-none-eabi/lib/thumb/v7e-m/fpv4-sp/hard\libg_nano.a(lib_a-impure.o)
                              c:/mesh/arm_gcc/bin/../lib/gcc/arm-none-eabi/6.3.1/../../../../arm-none-eabi/lib/thumb/v7e-m/fpv4-sp/hard\libg_nano.a(lib_a-exit.o) (_global_impure_ptr)
c:/mesh/arm_gcc/bin/../lib/gcc/arm-none-eabi/6.3.1/../../../../arm-none-eabi/lib/thumb/v7e-m/fpv4-sp/hard\libg_nano.a(lib_a-init.o)
                              c:/mesh/arm_gcc/bin/../lib/gcc/arm-none-eabi/6.3.1/../../../../arm-none-eabi/lib/thumb/v7e-m/fpv4-sp/hard/crt0.o (__libc_init_array)
c:/mesh/arm_gcc/bin/../lib/gcc/arm-none-eabi/6.3.1/../../../../arm-none-eabi/lib/thumb/v7e-m/fpv4-sp/hard\libg_nano.a(lib_a-malloc.o)
                              examples/dfu/CMakeFiles/dfu_no_serial_nrf52832_xxAA_s132_6.0.0.dir/__/__/mesh/core/src/transport.c.obj (malloc)
c:/mesh/arm_gcc/bin/../lib/gcc/arm-none-eabi/6.3.1/../../../../arm-none-eabi/lib/thumb/v7e-m/fpv4-sp/hard\libg_nano.a(lib_a-memcmp.o)
                              examples/dfu/CMakeFiles/dfu_no_serial_nrf52832_xxAA_s132_6.0.0.dir/__/__/mesh/access/src/device_state_manager.c.obj (memcmp)
c:/mesh/arm_gcc/bin/../lib/gcc/arm-none-eabi/6.3.1/../../../../arm-none-eabi/lib/thumb/v7e-m/fpv4-sp/hard\libg_nano.a(lib_a-memcpy-stub.o)
                              examples/dfu/CMakeFiles/dfu_no_serial_nrf52832_xxAA_s132_6.0.0.dir/__/__/mesh/access/src/access.c.obj (memcpy)
c:/mesh/arm_gcc/bin/../lib/gcc/arm-none-eabi/6.3.1/../../../../arm-none-eabi/lib/thumb/v7e-m/fpv4-sp/hard\libg_nano.a(lib_a-memset.o)
                              c:/mesh/arm_gcc/bin/../lib/gcc/arm-none-eabi/6.3.1/../../../../arm-none-eabi/lib/thumb/v7e-m/fpv4-sp/hard/crt0.o (memset)
c:/mesh/arm_gcc/bin/../lib/gcc/arm-none-eabi/6.3.1/../../../../arm-none-eabi/lib/thumb/v7e-m/fpv4-sp/hard\libg_nano.a(lib_a-nano-freer.o)
                              c:/mesh/arm_gcc/bin/../lib/gcc/arm-none-eabi/6.3.1/../../../../arm-none-eabi/lib/thumb/v7e-m/fpv4-sp/hard\libg_nano.a(lib_a-malloc.o) (_free_r)
c:/mesh/arm_gcc/bin/../lib/gcc/arm-none-eabi/6.3.1/../../../../arm-none-eabi/lib/thumb/v7e-m/fpv4-sp/hard\libg_nano.a(lib_a-nano-mallocr.o)
                              c:/mesh/arm_gcc/bin/../lib/gcc/arm-none-eabi/6.3.1/../../../../arm-none-eabi/lib/thumb/v7e-m/fpv4-sp/hard\libg_nano.a(lib_a-malloc.o) (_malloc_r)
c:/mesh/arm_gcc/bin/../lib/gcc/arm-none-eabi/6.3.1/../../../../arm-none-eabi/lib/thumb/v7e-m/fpv4-sp/hard\libg_nano.a(lib_a-sbrkr.o)
                              c:/mesh/arm_gcc/bin/../lib/gcc/arm-none-eabi/6.3.1/../../../../arm-none-eabi/lib/thumb/v7e-m/fpv4-sp/hard\libg_nano.a(lib_a-nano-mallocr.o) (_sbrk_r)
c:/mesh/arm_gcc/bin/../lib/gcc/arm-none-eabi/6.3.1/../../../../arm-none-eabi/lib/thumb/v7e-m/fpv4-sp/hard\libg_nano.a(lib_a-strcpy.o)
                              external/rtt/librtt_nrf52832_xxAA.a(SEGGER_RTT.c.obj) (strcpy)
c:/mesh/arm_gcc/bin/../lib/gcc/arm-none-eabi/6.3.1/../../../../arm-none-eabi/lib/thumb/v7e-m/fpv4-sp/hard\libg_nano.a(lib_a-strlen.o)
                              examples/dfu/CMakeFiles/dfu_no_serial_nrf52832_xxAA_s132_6.0.0.dir/__/__/mesh/prov/src/prov_beacon.c.obj (strlen)
c:/mesh/arm_gcc/bin/../lib/gcc/arm-none-eabi/6.3.1/../../../../arm-none-eabi/lib/thumb/v7e-m/fpv4-sp/hard\libg_nano.a(lib_a-strrchr.o)
                              examples/dfu/CMakeFiles/dfu_no_serial_nrf52832_xxAA_s132_6.0.0.dir/src/main.c.obj (strrchr)
c:/mesh/arm_gcc/bin/../lib/gcc/arm-none-eabi/6.3.1/../../../../arm-none-eabi/lib/thumb/v7e-m/fpv4-sp/hard\libg_nano.a(lib_a-mlock.o)
                              c:/mesh/arm_gcc/bin/../lib/gcc/arm-none-eabi/6.3.1/../../../../arm-none-eabi/lib/thumb/v7e-m/fpv4-sp/hard\libg_nano.a(lib_a-nano-freer.o) (__malloc_lock)
c:/mesh/arm_gcc/bin/../lib/gcc/arm-none-eabi/6.3.1/../../../../arm-none-eabi/lib/thumb/v7e-m/fpv4-sp/hard\libg_nano.a(lib_a-reent.o)
                              c:/mesh/arm_gcc/bin/../lib/gcc/arm-none-eabi/6.3.1/../../../../arm-none-eabi/lib/thumb/v7e-m/fpv4-sp/hard\libg_nano.a(lib_a-sbrkr.o) (errno)
c:/mesh/arm_gcc/bin/../lib/gcc/arm-none-eabi/6.3.1/../../../../arm-none-eabi/lib/thumb/v7e-m/fpv4-sp/hard\libg_nano.a(lib_a-strchr.o)
                              c:/mesh/arm_gcc/bin/../lib/gcc/arm-none-eabi/6.3.1/../../../../arm-none-eabi/lib/thumb/v7e-m/fpv4-sp/hard\libg_nano.a(lib_a-strrchr.o) (strchr)
c:/mesh/arm_gcc/bin/../lib/gcc/arm-none-eabi/6.3.1/../../../../arm-none-eabi/lib/thumb/v7e-m/fpv4-sp/hard\libnosys.a(sbrk.o)
                              c:/mesh/arm_gcc/bin/../lib/gcc/arm-none-eabi/6.3.1/../../../../arm-none-eabi/lib/thumb/v7e-m/fpv4-sp/hard\libg_nano.a(lib_a-sbrkr.o) (_sbrk)
c:/mesh/arm_gcc/bin/../lib/gcc/arm-none-eabi/6.3.1/../../../../arm-none-eabi/lib/thumb/v7e-m/fpv4-sp/hard\libnosys.a(_exit.o)
                              c:/mesh/arm_gcc/bin/../lib/gcc/arm-none-eabi/6.3.1/../../../../arm-none-eabi/lib/thumb/v7e-m/fpv4-sp/hard\libg_nano.a(lib_a-exit.o) (_exit)

Allocating common symbols
Common symbol       size              file

nrf_nvic_state      0xc               examples/dfu/CMakeFiles/dfu_no_serial_nrf52832_xxAA_s132_6.0.0.dir/__/common/src/mesh_softdevice_init.c.obj
m_packet            0x24              examples/dfu/CMakeFiles/dfu_no_serial_nrf52832_xxAA_s132_6.0.0.dir/__/__/mesh/core/src/core_tx.c.obj
bank_addr           0x4               examples/dfu/CMakeFiles/dfu_no_serial_nrf52832_xxAA_s132_6.0.0.dir/src/main.c.obj
rom_length          0x4               examples/dfu/CMakeFiles/dfu_no_serial_nrf52832_xxAA_s132_6.0.0.dir/src/main.c.obj
m_cmd_handler       0x4               examples/dfu/CMakeFiles/dfu_no_serial_nrf52832_xxAA_s132_6.0.0.dir/__/__/mesh/dfu/src/nrf_mesh_dfu.c.obj
errno               0x4               c:/mesh/arm_gcc/bin/../lib/gcc/arm-none-eabi/6.3.1/../../../../arm-none-eabi/lib/thumb/v7e-m/fpv4-sp/hard\libg_nano.a(lib_a-reent.o)
_SEGGER_RTT         0x78              external/rtt/librtt_nrf52832_xxAA.a(SEGGER_RTT.c.obj)

Discarded input sections

 .text          0x00000000        0x0 c:/mesh/arm_gcc/bin/../lib/gcc/arm-none-eabi/6.3.1/thumb/v7e-m/fpv4-sp/hard/crti.o
 .data          0x00000000        0x0 c:/mesh/arm_gcc/bin/../lib/gcc/arm-none-eabi/6.3.1/thumb/v7e-m/fpv4-sp/hard/crti.o
 .bss           0x00000000        0x0 c:/mesh/arm_gcc/bin/../lib/gcc/arm-none-eabi/6.3.1/thumb/v7e-m/fpv4-sp/hard/crti.o
 .data          0x00000000        0x4 c:/mesh/arm_gcc/bin/../lib/gcc/arm-none-eabi/6.3.1/thumb/v7e-m/fpv4-sp/hard/crtbegin.o
 .data          0x00000000        0x0 c:/mesh/arm_gcc/bin/../lib/gcc/arm-none-eabi/6.3.1/../../../../arm-none-eabi/lib/thumb/v7e-m/fpv4-sp/hard/crt0.o
 .bss           0x00000000        0x0 c:/mesh/arm_gcc/bin/../lib/gcc/arm-none-eabi/6.3.1/../../../../arm-none-eabi/lib/thumb/v7e-m/fpv4-sp/hard/crt0.o
 .ARM.extab     0x00000000        0x0 c:/mesh/arm_gcc/bin/../lib/gcc/arm-none-eabi/6.3.1/../../../../arm-none-eabi/lib/thumb/v7e-m/fpv4-sp/hard/crt0.o
 .text          0x00000000        0x0 examples/dfu/CMakeFiles/dfu_no_serial_nrf52832_xxAA_s132_6.0.0.dir/src/main.c.obj
 .data          0x00000000        0x0 examples/dfu/CMakeFiles/dfu_no_serial_nrf52832_xxAA_s132_6.0.0.dir/src/main.c.obj
 .bss           0x00000000        0x0 examples/dfu/CMakeFiles/dfu_no_serial_nrf52832_xxAA_s132_6.0.0.dir/src/main.c.obj
 .text          0x00000000        0x0 examples/dfu/CMakeFiles/dfu_no_serial_nrf52832_xxAA_s132_6.0.0.dir/__/__/mesh/stack/src/mesh_stack.c.obj
 .data          0x00000000        0x0 examples/dfu/CMakeFiles/dfu_no_serial_nrf52832_xxAA_s132_6.0.0.dir/__/__/mesh/stack/src/mesh_stack.c.obj
 .bss           0x00000000        0x0 examples/dfu/CMakeFiles/dfu_no_serial_nrf52832_xxAA_s132_6.0.0.dir/__/__/mesh/stack/src/mesh_stack.c.obj
 .text          0x00000000        0x0 examples/dfu/CMakeFiles/dfu_no_serial_nrf52832_xxAA_s132_6.0.0.dir/__/common/src/mesh_softdevice_init.c.obj
 .data          0x00000000        0x0 examples/dfu/CMakeFiles/dfu_no_serial_nrf52832_xxAA_s132_6.0.0.dir/__/common/src/mesh_softdevice_init.c.obj
 .bss           0x00000000        0x0 examples/dfu/CMakeFiles/dfu_no_serial_nrf52832_xxAA_s132_6.0.0.dir/__/common/src/mesh_softdevice_init.c.obj
 .text          0x00000000        0x0 examples/dfu/CMakeFiles/dfu_no_serial_nrf52832_xxAA_s132_6.0.0.dir/__/common/src/mesh_provisionee.c.obj
 .data          0x00000000        0x0 examples/dfu/CMakeFiles/dfu_no_serial_nrf52832_xxAA_s132_6.0.0.dir/__/common/src/mesh_provisionee.c.obj
 .bss           0x00000000        0x0 examples/dfu/CMakeFiles/dfu_no_serial_nrf52832_xxAA_s132_6.0.0.dir/__/common/src/mesh_provisionee.c.obj
 .text          0x00000000        0x0 examples/dfu/CMakeFiles/dfu_no_serial_nrf52832_xxAA_s132_6.0.0.dir/__/common/src/simple_hal.c.obj
 .data          0x00000000        0x0 examples/dfu/CMakeFiles/dfu_no_serial_nrf52832_xxAA_s132_6.0.0.dir/__/common/src/simple_hal.c.obj
 .bss           0x00000000        0x0 examples/dfu/CMakeFiles/dfu_no_serial_nrf52832_xxAA_s132_6.0.0.dir/__/common/src/simple_hal.c.obj
 .text.hal_led_pin_get
                0x00000000       0x18 examples/dfu/CMakeFiles/dfu_no_serial_nrf52832_xxAA_s132_6.0.0.dir/__/common/src/simple_hal.c.obj
 .text.hal_led_pin_set
                0x00000000       0x16 examples/dfu/CMakeFiles/dfu_no_serial_nrf52832_xxAA_s132_6.0.0.dir/__/common/src/simple_hal.c.obj
 .text.hal_buttons_init
                0x00000000       0x50 examples/dfu/CMakeFiles/dfu_no_serial_nrf52832_xxAA_s132_6.0.0.dir/__/common/src/simple_hal.c.obj
 .text          0x00000000        0x0 examples/dfu/CMakeFiles/dfu_no_serial_nrf52832_xxAA_s132_6.0.0.dir/__/__/mesh/access/src/access_publish.c.obj
 .data          0x00000000        0x0 examples/dfu/CMakeFiles/dfu_no_serial_nrf52832_xxAA_s132_6.0.0.dir/__/__/mesh/access/src/access_publish.c.obj
 .bss           0x00000000        0x0 examples/dfu/CMakeFiles/dfu_no_serial_nrf52832_xxAA_s132_6.0.0.dir/__/__/mesh/access/src/access_publish.c.obj
 .text          0x00000000        0x0 examples/dfu/CMakeFiles/dfu_no_serial_nrf52832_xxAA_s132_6.0.0.dir/__/__/mesh/access/src/access.c.obj
 .data          0x00000000        0x0 examples/dfu/CMakeFiles/dfu_no_serial_nrf52832_xxAA_s132_6.0.0.dir/__/__/mesh/access/src/access.c.obj
 .bss           0x00000000        0x0 examples/dfu/CMakeFiles/dfu_no_serial_nrf52832_xxAA_s132_6.0.0.dir/__/__/mesh/access/src/access.c.obj
 .text.access_model_subscription_list_alloc
                0x00000000       0x50 examples/dfu/CMakeFiles/dfu_no_serial_nrf52832_xxAA_s132_6.0.0.dir/__/__/mesh/access/src/access.c.obj
 .text.access_model_subscription_lists_share
                0x00000000       0x4c examples/dfu/CMakeFiles/dfu_no_serial_nrf52832_xxAA_s132_6.0.0.dir/__/__/mesh/access/src/access.c.obj
 .text.access_element_location_set
                0x00000000       0x20 examples/dfu/CMakeFiles/dfu_no_serial_nrf52832_xxAA_s132_6.0.0.dir/__/__/mesh/access/src/access.c.obj
 .text          0x00000000        0x0 examples/dfu/CMakeFiles/dfu_no_serial_nrf52832_xxAA_s132_6.0.0.dir/__/__/mesh/access/src/access_reliable.c.obj
 .data          0x00000000        0x0 examples/dfu/CMakeFiles/dfu_no_serial_nrf52832_xxAA_s132_6.0.0.dir/__/__/mesh/access/src/access_reliable.c.obj
 .bss           0x00000000        0x0 examples/dfu/CMakeFiles/dfu_no_serial_nrf52832_xxAA_s132_6.0.0.dir/__/__/mesh/access/src/access_reliable.c.obj
 .text.access_model_reliable_publish
                0x00000000      0x1bc examples/dfu/CMakeFiles/dfu_no_serial_nrf52832_xxAA_s132_6.0.0.dir/__/__/mesh/access/src/access_reliable.c.obj
 .text          0x00000000        0x0 examples/dfu/CMakeFiles/dfu_no_serial_nrf52832_xxAA_s132_6.0.0.dir/__/__/mesh/access/src/device_state_manager.c.obj
 .data          0x00000000        0x0 examples/dfu/CMakeFiles/dfu_no_serial_nrf52832_xxAA_s132_6.0.0.dir/__/__/mesh/access/src/device_state_manager.c.obj
 .bss           0x00000000        0x0 examples/dfu/CMakeFiles/dfu_no_serial_nrf52832_xxAA_s132_6.0.0.dir/__/__/mesh/access/src/device_state_manager.c.obj
 .text.dsm_has_unflashed_data
                0x00000000       0x24 examples/dfu/CMakeFiles/dfu_no_serial_nrf52832_xxAA_s132_6.0.0.dir/__/__/mesh/access/src/device_state_manager.c.obj
 .text.dsm_address_subscription_count_get
                0x00000000       0x58 examples/dfu/CMakeFiles/dfu_no_serial_nrf52832_xxAA_s132_6.0.0.dir/__/__/mesh/access/src/device_state_manager.c.obj
 .text.dsm_address_get_all
                0x00000000       0x74 examples/dfu/CMakeFiles/dfu_no_serial_nrf52832_xxAA_s132_6.0.0.dir/__/__/mesh/access/src/device_state_manager.c.obj
 .text.dsm_subnet_handle_to_netkey_index
                0x00000000       0x34 examples/dfu/CMakeFiles/dfu_no_serial_nrf52832_xxAA_s132_6.0.0.dir/__/__/mesh/access/src/device_state_manager.c.obj
 .text.dsm_devkey_delete
                0x00000000       0x38 examples/dfu/CMakeFiles/dfu_no_serial_nrf52832_xxAA_s132_6.0.0.dir/__/__/mesh/access/src/device_state_manager.c.obj
 .text.dsm_devkey_handle_get
                0x00000000       0x34 examples/dfu/CMakeFiles/dfu_no_serial_nrf52832_xxAA_s132_6.0.0.dir/__/__/mesh/access/src/device_state_manager.c.obj
 .text.dsm_beacon_info_get
                0x00000000       0x38 examples/dfu/CMakeFiles/dfu_no_serial_nrf52832_xxAA_s132_6.0.0.dir/__/__/mesh/access/src/device_state_manager.c.obj
 .text          0x00000000        0x0 examples/dfu/CMakeFiles/dfu_no_serial_nrf52832_xxAA_s132_6.0.0.dir/__/__/models/config/src/composition_data.c.obj
 .data          0x00000000        0x0 examples/dfu/CMakeFiles/dfu_no_serial_nrf52832_xxAA_s132_6.0.0.dir/__/__/models/config/src/composition_data.c.obj
 .bss           0x00000000        0x0 examples/dfu/CMakeFiles/dfu_no_serial_nrf52832_xxAA_s132_6.0.0.dir/__/__/models/config/src/composition_data.c.obj
 .text          0x00000000        0x0 examples/dfu/CMakeFiles/dfu_no_serial_nrf52832_xxAA_s132_6.0.0.dir/__/__/models/config/src/config_server.c.obj
 .data          0x00000000        0x0 examples/dfu/CMakeFiles/dfu_no_serial_nrf52832_xxAA_s132_6.0.0.dir/__/__/models/config/src/config_server.c.obj
 .bss           0x00000000        0x0 examples/dfu/CMakeFiles/dfu_no_serial_nrf52832_xxAA_s132_6.0.0.dir/__/__/models/config/src/config_server.c.obj
 .text          0x00000000        0x0 examples/dfu/CMakeFiles/dfu_no_serial_nrf52832_xxAA_s132_6.0.0.dir/__/__/models/config/src/packed_index_list.c.obj
 .data          0x00000000        0x0 examples/dfu/CMakeFiles/dfu_no_serial_nrf52832_xxAA_s132_6.0.0.dir/__/__/models/config/src/packed_index_list.c.obj
 .bss           0x00000000        0x0 examples/dfu/CMakeFiles/dfu_no_serial_nrf52832_xxAA_s132_6.0.0.dir/__/__/models/config/src/packed_index_list.c.obj
 .text          0x00000000        0x0 examples/dfu/CMakeFiles/dfu_no_serial_nrf52832_xxAA_s132_6.0.0.dir/__/__/models/health/src/health_server.c.obj
 .data          0x00000000        0x0 examples/dfu/CMakeFiles/dfu_no_serial_nrf52832_xxAA_s132_6.0.0.dir/__/__/models/health/src/health_server.c.obj
 .bss           0x00000000        0x0 examples/dfu/CMakeFiles/dfu_no_serial_nrf52832_xxAA_s132_6.0.0.dir/__/__/models/health/src/health_server.c.obj
 .text.health_server_fault_is_set
                0x00000000       0x1c examples/dfu/CMakeFiles/dfu_no_serial_nrf52832_xxAA_s132_6.0.0.dir/__/__/models/health/src/health_server.c.obj
 .text.health_server_fault_count_get
                0x00000000        0xc examples/dfu/CMakeFiles/dfu_no_serial_nrf52832_xxAA_s132_6.0.0.dir/__/__/models/health/src/health_server.c.obj
 .text.health_server_fault_register
                0x00000000       0xca examples/dfu/CMakeFiles/dfu_no_serial_nrf52832_xxAA_s132_6.0.0.dir/__/__/models/health/src/health_server.c.obj
 .text.health_server_fault_clear
                0x00000000       0x48 examples/dfu/CMakeFiles/dfu_no_serial_nrf52832_xxAA_s132_6.0.0.dir/__/__/models/health/src/health_server.c.obj
 .text.health_server_attention_get
                0x00000000        0x6 examples/dfu/CMakeFiles/dfu_no_serial_nrf52832_xxAA_s132_6.0.0.dir/__/__/models/health/src/health_server.c.obj
 .text.health_server_attention_set
                0x00000000        0x4 examples/dfu/CMakeFiles/dfu_no_serial_nrf52832_xxAA_s132_6.0.0.dir/__/__/models/health/src/health_server.c.obj
 .text          0x00000000        0x0 examples/dfu/CMakeFiles/dfu_no_serial_nrf52832_xxAA_s132_6.0.0.dir/__/__/mesh/prov/src/prov_provisioner.c.obj
 .data          0x00000000        0x0 examples/dfu/CMakeFiles/dfu_no_serial_nrf52832_xxAA_s132_6.0.0.dir/__/__/mesh/prov/src/prov_provisioner.c.obj
 .bss           0x00000000        0x0 examples/dfu/CMakeFiles/dfu_no_serial_nrf52832_xxAA_s132_6.0.0.dir/__/__/mesh/prov/src/prov_provisioner.c.obj
 .text.prov_provisioner_cb_link_closed
                0x00000000       0x2a examples/dfu/CMakeFiles/dfu_no_serial_nrf52832_xxAA_s132_6.0.0.dir/__/__/mesh/prov/src/prov_provisioner.c.obj
 .text.prov_provisioner_cb_link_established
                0x00000000       0x3e examples/dfu/CMakeFiles/dfu_no_serial_nrf52832_xxAA_s132_6.0.0.dir/__/__/mesh/prov/src/prov_provisioner.c.obj
 .text.request_authentication
                0x00000000       0x8a examples/dfu/CMakeFiles/dfu_no_serial_nrf52832_xxAA_s132_6.0.0.dir/__/__/mesh/prov/src/prov_provisioner.c.obj
 .text.start_authentication
                0x00000000       0x46 examples/dfu/CMakeFiles/dfu_no_serial_nrf52832_xxAA_s132_6.0.0.dir/__/__/mesh/prov/src/prov_provisioner.c.obj
 .text.prov_provisioner_cb_ack_received
                0x00000000       0x54 examples/dfu/CMakeFiles/dfu_no_serial_nrf52832_xxAA_s132_6.0.0.dir/__/__/mesh/prov/src/prov_provisioner.c.obj
 .text.prov_provisioner_pkt_in
                0x00000000      0x23c examples/dfu/CMakeFiles/dfu_no_serial_nrf52832_xxAA_s132_6.0.0.dir/__/__/mesh/prov/src/prov_provisioner.c.obj
 .text.prov_provisioner_provision
                0x00000000       0x44 examples/dfu/CMakeFiles/dfu_no_serial_nrf52832_xxAA_s132_6.0.0.dir/__/__/mesh/prov/src/prov_provisioner.c.obj
 .text.prov_provisioner_oob_use
                0x00000000       0x7e examples/dfu/CMakeFiles/dfu_no_serial_nrf52832_xxAA_s132_6.0.0.dir/__/__/mesh/prov/src/prov_provisioner.c.obj
 .text.prov_provisioner_shared_secret
                0x00000000       0x28 examples/dfu/CMakeFiles/dfu_no_serial_nrf52832_xxAA_s132_6.0.0.dir/__/__/mesh/prov/src/prov_provisioner.c.obj
 .text.prov_provisioner_oob_pubkey
                0x00000000       0x30 examples/dfu/CMakeFiles/dfu_no_serial_nrf52832_xxAA_s132_6.0.0.dir/__/__/mesh/prov/src/prov_provisioner.c.obj
 .rodata.m_prov_callbacks
                0x00000000       0x10 examples/dfu/CMakeFiles/dfu_no_serial_nrf52832_xxAA_s132_6.0.0.dir/__/__/mesh/prov/src/prov_provisioner.c.obj
 .text          0x00000000        0x0 examples/dfu/CMakeFiles/dfu_no_serial_nrf52832_xxAA_s132_6.0.0.dir/__/__/mesh/prov/src/prov_provisionee.c.obj
 .data          0x00000000        0x0 examples/dfu/CMakeFiles/dfu_no_serial_nrf52832_xxAA_s132_6.0.0.dir/__/__/mesh/prov/src/prov_provisionee.c.obj
 .bss           0x00000000        0x0 examples/dfu/CMakeFiles/dfu_no_serial_nrf52832_xxAA_s132_6.0.0.dir/__/__/mesh/prov/src/prov_provisionee.c.obj
 .text.prov_provisionee_shared_secret
                0x00000000       0x28 examples/dfu/CMakeFiles/dfu_no_serial_nrf52832_xxAA_s132_6.0.0.dir/__/__/mesh/prov/src/prov_provisionee.c.obj
 .text          0x00000000        0x0 examples/dfu/CMakeFiles/dfu_no_serial_nrf52832_xxAA_s132_6.0.0.dir/__/__/mesh/prov/src/nrf_mesh_prov.c.obj
 .data          0x00000000        0x0 examples/dfu/CMakeFiles/dfu_no_serial_nrf52832_xxAA_s132_6.0.0.dir/__/__/mesh/prov/src/nrf_mesh_prov.c.obj
 .bss           0x00000000        0x0 examples/dfu/CMakeFiles/dfu_no_serial_nrf52832_xxAA_s132_6.0.0.dir/__/__/mesh/prov/src/nrf_mesh_prov.c.obj
 .text.nrf_mesh_prov_provision
                0x00000000       0x4e examples/dfu/CMakeFiles/dfu_no_serial_nrf52832_xxAA_s132_6.0.0.dir/__/__/mesh/prov/src/nrf_mesh_prov.c.obj
 .text.nrf_mesh_prov_oob_use
                0x00000000       0x18 examples/dfu/CMakeFiles/dfu_no_serial_nrf52832_xxAA_s132_6.0.0.dir/__/__/mesh/prov/src/nrf_mesh_prov.c.obj
 .text.nrf_mesh_prov_shared_secret_provide
                0x00000000        0xe examples/dfu/CMakeFiles/dfu_no_serial_nrf52832_xxAA_s132_6.0.0.dir/__/__/mesh/prov/src/nrf_mesh_prov.c.obj
 .text.nrf_mesh_prov_pubkey_provide
                0x00000000       0x10 examples/dfu/CMakeFiles/dfu_no_serial_nrf52832_xxAA_s132_6.0.0.dir/__/__/mesh/prov/src/nrf_mesh_prov.c.obj
 .text.nrf_mesh_prov_scan_start
                0x00000000       0x10 examples/dfu/CMakeFiles/dfu_no_serial_nrf52832_xxAA_s132_6.0.0.dir/__/__/mesh/prov/src/nrf_mesh_prov.c.obj
 .text.nrf_mesh_prov_scan_stop
                0x00000000        0x4 examples/dfu/CMakeFiles/dfu_no_serial_nrf52832_xxAA_s132_6.0.0.dir/__/__/mesh/prov/src/nrf_mesh_prov.c.obj
 .text          0x00000000        0x0 examples/dfu/CMakeFiles/dfu_no_serial_nrf52832_xxAA_s132_6.0.0.dir/__/__/mesh/prov/src/provisioning.c.obj
 .data          0x00000000        0x0 examples/dfu/CMakeFiles/dfu_no_serial_nrf52832_xxAA_s132_6.0.0.dir/__/__/mesh/prov/src/provisioning.c.obj
 .bss           0x00000000        0x0 examples/dfu/CMakeFiles/dfu_no_serial_nrf52832_xxAA_s132_6.0.0.dir/__/__/mesh/prov/src/provisioning.c.obj
 .text.prov_tx_invite
                0x00000000       0x28 examples/dfu/CMakeFiles/dfu_no_serial_nrf52832_xxAA_s132_6.0.0.dir/__/__/mesh/prov/src/provisioning.c.obj
 .text.prov_tx_start
                0x00000000       0x20 examples/dfu/CMakeFiles/dfu_no_serial_nrf52832_xxAA_s132_6.0.0.dir/__/__/mesh/prov/src/provisioning.c.obj
 .text.prov_tx_data
                0x00000000        0x6 examples/dfu/CMakeFiles/dfu_no_serial_nrf52832_xxAA_s132_6.0.0.dir/__/__/mesh/prov/src/provisioning.c.obj
 .text.prov_tx  0x00000000        0x4 examples/dfu/CMakeFiles/dfu_no_serial_nrf52832_xxAA_s132_6.0.0.dir/__/__/mesh/prov/src/provisioning.c.obj
 .text          0x00000000        0x0 examples/dfu/CMakeFiles/dfu_no_serial_nrf52832_xxAA_s132_6.0.0.dir/__/__/mesh/prov/src/prov_beacon.c.obj
 .data          0x00000000        0x0 examples/dfu/CMakeFiles/dfu_no_serial_nrf52832_xxAA_s132_6.0.0.dir/__/__/mesh/prov/src/prov_beacon.c.obj
 .bss           0x00000000        0x0 examples/dfu/CMakeFiles/dfu_no_serial_nrf52832_xxAA_s132_6.0.0.dir/__/__/mesh/prov/src/prov_beacon.c.obj
 .text.prov_beacon_scan_start
                0x00000000       0x18 examples/dfu/CMakeFiles/dfu_no_serial_nrf52832_xxAA_s132_6.0.0.dir/__/__/mesh/prov/src/prov_beacon.c.obj
 .text.prov_beacon_scan_stop
                0x00000000        0xc examples/dfu/CMakeFiles/dfu_no_serial_nrf52832_xxAA_s132_6.0.0.dir/__/__/mesh/prov/src/prov_beacon.c.obj
 .text          0x00000000        0x0 examples/dfu/CMakeFiles/dfu_no_serial_nrf52832_xxAA_s132_6.0.0.dir/__/__/mesh/prov/src/prov_utils.c.obj
 .data          0x00000000        0x0 examples/dfu/CMakeFiles/dfu_no_serial_nrf52832_xxAA_s132_6.0.0.dir/__/__/mesh/prov/src/prov_utils.c.obj
 .bss           0x00000000        0x0 examples/dfu/CMakeFiles/dfu_no_serial_nrf52832_xxAA_s132_6.0.0.dir/__/__/mesh/prov/src/prov_utils.c.obj
 .text          0x00000000        0x0 examples/dfu/CMakeFiles/dfu_no_serial_nrf52832_xxAA_s132_6.0.0.dir/__/__/mesh/prov/src/prov_bearer_adv.c.obj
 .data          0x00000000        0x0 examples/dfu/CMakeFiles/dfu_no_serial_nrf52832_xxAA_s132_6.0.0.dir/__/__/mesh/prov/src/prov_bearer_adv.c.obj
 .bss           0x00000000        0x0 examples/dfu/CMakeFiles/dfu_no_serial_nrf52832_xxAA_s132_6.0.0.dir/__/__/mesh/prov/src/prov_bearer_adv.c.obj
 .text          0x00000000        0x0 examples/dfu/CMakeFiles/dfu_no_serial_nrf52832_xxAA_s132_6.0.0.dir/__/__/mesh/dfu/src/nrf_mesh_dfu.c.obj
 .data          0x00000000        0x0 examples/dfu/CMakeFiles/dfu_no_serial_nrf52832_xxAA_s132_6.0.0.dir/__/__/mesh/dfu/src/nrf_mesh_dfu.c.obj
 .bss           0x00000000        0x0 examples/dfu/CMakeFiles/dfu_no_serial_nrf52832_xxAA_s132_6.0.0.dir/__/__/mesh/dfu/src/nrf_mesh_dfu.c.obj
 .text.nrf_mesh_dfu_jump_to_bootloader
                0x00000000       0x40 examples/dfu/CMakeFiles/dfu_no_serial_nrf52832_xxAA_s132_6.0.0.dir/__/__/mesh/dfu/src/nrf_mesh_dfu.c.obj
 .text.nrf_mesh_dfu_state_get
                0x00000000       0x48 examples/dfu/CMakeFiles/dfu_no_serial_nrf52832_xxAA_s132_6.0.0.dir/__/__/mesh/dfu/src/nrf_mesh_dfu.c.obj
 .text.nrf_mesh_dfu_abort
                0x00000000       0x2c examples/dfu/CMakeFiles/dfu_no_serial_nrf52832_xxAA_s132_6.0.0.dir/__/__/mesh/dfu/src/nrf_mesh_dfu.c.obj
 .text.nrf_mesh_dfu_bank_info_get
                0x00000000       0x30 examples/dfu/CMakeFiles/dfu_no_serial_nrf52832_xxAA_s132_6.0.0.dir/__/__/mesh/dfu/src/nrf_mesh_dfu.c.obj
 .text          0x00000000        0x0 examples/dfu/CMakeFiles/dfu_no_serial_nrf52832_xxAA_s132_6.0.0.dir/__/nrf_mesh_weak.c.obj
 .data          0x00000000        0x0 examples/dfu/CMakeFiles/dfu_no_serial_nrf52832_xxAA_s132_6.0.0.dir/__/nrf_mesh_weak.c.obj
 .bss           0x00000000        0x0 examples/dfu/CMakeFiles/dfu_no_serial_nrf52832_xxAA_s132_6.0.0.dir/__/nrf_mesh_weak.c.obj
 .text._weak_handler
                0x00000000        0x4 examples/dfu/CMakeFiles/dfu_no_serial_nrf52832_xxAA_s132_6.0.0.dir/__/nrf_mesh_weak.c.obj
 .text._weak_handler_ptr
                0x00000000        0x4 examples/dfu/CMakeFiles/dfu_no_serial_nrf52832_xxAA_s132_6.0.0.dir/__/nrf_mesh_weak.c.obj
 .debug_info    0x00000000      0x924 examples/dfu/CMakeFiles/dfu_no_serial_nrf52832_xxAA_s132_6.0.0.dir/__/nrf_mesh_weak.c.obj
 .debug_abbrev  0x00000000      0x1ae examples/dfu/CMakeFiles/dfu_no_serial_nrf52832_xxAA_s132_6.0.0.dir/__/nrf_mesh_weak.c.obj
 .debug_aranges
                0x00000000       0x28 examples/dfu/CMakeFiles/dfu_no_serial_nrf52832_xxAA_s132_6.0.0.dir/__/nrf_mesh_weak.c.obj
 .debug_ranges  0x00000000       0x18 examples/dfu/CMakeFiles/dfu_no_serial_nrf52832_xxAA_s132_6.0.0.dir/__/nrf_mesh_weak.c.obj
 .debug_line    0x00000000      0x1ee examples/dfu/CMakeFiles/dfu_no_serial_nrf52832_xxAA_s132_6.0.0.dir/__/nrf_mesh_weak.c.obj
 .debug_str     0x00000000      0x61c examples/dfu/CMakeFiles/dfu_no_serial_nrf52832_xxAA_s132_6.0.0.dir/__/nrf_mesh_weak.c.obj
 .comment       0x00000000       0x80 examples/dfu/CMakeFiles/dfu_no_serial_nrf52832_xxAA_s132_6.0.0.dir/__/nrf_mesh_weak.c.obj
 .debug_frame   0x00000000       0x30 examples/dfu/CMakeFiles/dfu_no_serial_nrf52832_xxAA_s132_6.0.0.dir/__/nrf_mesh_weak.c.obj
 .ARM.attributes
                0x00000000       0x39 examples/dfu/CMakeFiles/dfu_no_serial_nrf52832_xxAA_s132_6.0.0.dir/__/nrf_mesh_weak.c.obj
 .text          0x00000000        0x0 examples/dfu/CMakeFiles/dfu_no_serial_nrf52832_xxAA_s132_6.0.0.dir/__/common/src/app_error_weak.c.obj
 .data          0x00000000        0x0 examples/dfu/CMakeFiles/dfu_no_serial_nrf52832_xxAA_s132_6.0.0.dir/__/common/src/app_error_weak.c.obj
 .bss           0x00000000        0x0 examples/dfu/CMakeFiles/dfu_no_serial_nrf52832_xxAA_s132_6.0.0.dir/__/common/src/app_error_weak.c.obj
 .text          0x00000000        0x0 examples/dfu/CMakeFiles/dfu_no_serial_nrf52832_xxAA_s132_6.0.0.dir/__/common/src/assertion_handler_weak.c.obj
 .data          0x00000000        0x0 examples/dfu/CMakeFiles/dfu_no_serial_nrf52832_xxAA_s132_6.0.0.dir/__/common/src/assertion_handler_weak.c.obj
 .bss           0x00000000        0x0 examples/dfu/CMakeFiles/dfu_no_serial_nrf52832_xxAA_s132_6.0.0.dir/__/common/src/assertion_handler_weak.c.obj
 .text          0x00000000        0x0 examples/dfu/CMakeFiles/dfu_no_serial_nrf52832_xxAA_s132_6.0.0.dir/__/__/mesh/core/src/internal_event.c.obj
 .data          0x00000000        0x0 examples/dfu/CMakeFiles/dfu_no_serial_nrf52832_xxAA_s132_6.0.0.dir/__/__/mesh/core/src/internal_event.c.obj
 .bss           0x00000000        0x0 examples/dfu/CMakeFiles/dfu_no_serial_nrf52832_xxAA_s132_6.0.0.dir/__/__/mesh/core/src/internal_event.c.obj
 .debug_info    0x00000000      0x8f2 examples/dfu/CMakeFiles/dfu_no_serial_nrf52832_xxAA_s132_6.0.0.dir/__/__/mesh/core/src/internal_event.c.obj
 .debug_abbrev  0x00000000      0x192 examples/dfu/CMakeFiles/dfu_no_serial_nrf52832_xxAA_s132_6.0.0.dir/__/__/mesh/core/src/internal_event.c.obj
 .debug_aranges
                0x00000000       0x18 examples/dfu/CMakeFiles/dfu_no_serial_nrf52832_xxAA_s132_6.0.0.dir/__/__/mesh/core/src/internal_event.c.obj
 .debug_line    0x00000000      0x1af examples/dfu/CMakeFiles/dfu_no_serial_nrf52832_xxAA_s132_6.0.0.dir/__/__/mesh/core/src/internal_event.c.obj
 .debug_str     0x00000000      0x602 examples/dfu/CMakeFiles/dfu_no_serial_nrf52832_xxAA_s132_6.0.0.dir/__/__/mesh/core/src/internal_event.c.obj
 .comment       0x00000000       0x80 examples/dfu/CMakeFiles/dfu_no_serial_nrf52832_xxAA_s132_6.0.0.dir/__/__/mesh/core/src/internal_event.c.obj
 .ARM.attributes
                0x00000000       0x39 examples/dfu/CMakeFiles/dfu_no_serial_nrf52832_xxAA_s132_6.0.0.dir/__/__/mesh/core/src/internal_event.c.obj
 .text          0x00000000        0x0 examples/dfu/CMakeFiles/dfu_no_serial_nrf52832_xxAA_s132_6.0.0.dir/__/__/mesh/core/src/nrf_mesh_configure.c.obj
 .data          0x00000000        0x0 examples/dfu/CMakeFiles/dfu_no_serial_nrf52832_xxAA_s132_6.0.0.dir/__/__/mesh/core/src/nrf_mesh_configure.c.obj
 .bss           0x00000000        0x0 examples/dfu/CMakeFiles/dfu_no_serial_nrf52832_xxAA_s132_6.0.0.dir/__/__/mesh/core/src/nrf_mesh_configure.c.obj
 .text          0x00000000        0x0 examples/dfu/CMakeFiles/dfu_no_serial_nrf52832_xxAA_s132_6.0.0.dir/__/__/mesh/core/src/aes.c.obj
 .data          0x00000000        0x0 examples/dfu/CMakeFiles/dfu_no_serial_nrf52832_xxAA_s132_6.0.0.dir/__/__/mesh/core/src/aes.c.obj
 .bss           0x00000000        0x0 examples/dfu/CMakeFiles/dfu_no_serial_nrf52832_xxAA_s132_6.0.0.dir/__/__/mesh/core/src/aes.c.obj
 .text          0x00000000        0x0 examples/dfu/CMakeFiles/dfu_no_serial_nrf52832_xxAA_s132_6.0.0.dir/__/__/mesh/core/src/msg_cache.c.obj
 .data          0x00000000        0x0 examples/dfu/CMakeFiles/dfu_no_serial_nrf52832_xxAA_s132_6.0.0.dir/__/__/mesh/core/src/msg_cache.c.obj
 .bss           0x00000000        0x0 examples/dfu/CMakeFiles/dfu_no_serial_nrf52832_xxAA_s132_6.0.0.dir/__/__/mesh/core/src/msg_cache.c.obj
 .text.msg_cache_clear
                0x00000000       0x18 examples/dfu/CMakeFiles/dfu_no_serial_nrf52832_xxAA_s132_6.0.0.dir/__/__/mesh/core/src/msg_cache.c.obj
 .text          0x00000000        0x0 examples/dfu/CMakeFiles/dfu_no_serial_nrf52832_xxAA_s132_6.0.0.dir/__/__/mesh/core/src/transport.c.obj
 .data          0x00000000        0x0 examples/dfu/CMakeFiles/dfu_no_serial_nrf52832_xxAA_s132_6.0.0.dir/__/__/mesh/core/src/transport.c.obj
 .bss           0x00000000        0x0 examples/dfu/CMakeFiles/dfu_no_serial_nrf52832_xxAA_s132_6.0.0.dir/__/__/mesh/core/src/transport.c.obj
 .text.transport_sar_mem_funcs_set
                0x00000000       0x44 examples/dfu/CMakeFiles/dfu_no_serial_nrf52832_xxAA_s132_6.0.0.dir/__/__/mesh/core/src/transport.c.obj
 .text          0x00000000        0x0 examples/dfu/CMakeFiles/dfu_no_serial_nrf52832_xxAA_s132_6.0.0.dir/__/__/mesh/core/src/event.c.obj
 .data          0x00000000        0x0 examples/dfu/CMakeFiles/dfu_no_serial_nrf52832_xxAA_s132_6.0.0.dir/__/__/mesh/core/src/event.c.obj
 .bss           0x00000000        0x0 examples/dfu/CMakeFiles/dfu_no_serial_nrf52832_xxAA_s132_6.0.0.dir/__/__/mesh/core/src/event.c.obj
 .text          0x00000000        0x0 examples/dfu/CMakeFiles/dfu_no_serial_nrf52832_xxAA_s132_6.0.0.dir/__/__/mesh/core/src/packet_buffer.c.obj
 .data          0x00000000        0x0 examples/dfu/CMakeFiles/dfu_no_serial_nrf52832_xxAA_s132_6.0.0.dir/__/__/mesh/core/src/packet_buffer.c.obj
 .bss           0x00000000        0x0 examples/dfu/CMakeFiles/dfu_no_serial_nrf52832_xxAA_s132_6.0.0.dir/__/__/mesh/core/src/packet_buffer.c.obj
 .text.packet_buffer_max_packet_len_get
                0x00000000       0x20 examples/dfu/CMakeFiles/dfu_no_serial_nrf52832_xxAA_s132_6.0.0.dir/__/__/mesh/core/src/packet_buffer.c.obj
 .text          0x00000000        0x0 examples/dfu/CMakeFiles/dfu_no_serial_nrf52832_xxAA_s132_6.0.0.dir/__/__/mesh/core/src/flash_manager_defrag.c.obj
 .data          0x00000000        0x0 examples/dfu/CMakeFiles/dfu_no_serial_nrf52832_xxAA_s132_6.0.0.dir/__/__/mesh/core/src/flash_manager_defrag.c.obj
 .bss           0x00000000        0x0 examples/dfu/CMakeFiles/dfu_no_serial_nrf52832_xxAA_s132_6.0.0.dir/__/__/mesh/core/src/flash_manager_defrag.c.obj
 .text.flash_manager_defragging
                0x00000000       0x38 examples/dfu/CMakeFiles/dfu_no_serial_nrf52832_xxAA_s132_6.0.0.dir/__/__/mesh/core/src/flash_manager_defrag.c.obj
 .text          0x00000000        0x0 examples/dfu/CMakeFiles/dfu_no_serial_nrf52832_xxAA_s132_6.0.0.dir/__/__/mesh/core/src/fifo.c.obj
 .data          0x00000000        0x0 examples/dfu/CMakeFiles/dfu_no_serial_nrf52832_xxAA_s132_6.0.0.dir/__/__/mesh/core/src/fifo.c.obj
 .bss           0x00000000        0x0 examples/dfu/CMakeFiles/dfu_no_serial_nrf52832_xxAA_s132_6.0.0.dir/__/__/mesh/core/src/fifo.c.obj
 .text.fifo_peek_at
                0x00000000       0x50 examples/dfu/CMakeFiles/dfu_no_serial_nrf52832_xxAA_s132_6.0.0.dir/__/__/mesh/core/src/fifo.c.obj
 .text.fifo_peek
                0x00000000        0x6 examples/dfu/CMakeFiles/dfu_no_serial_nrf52832_xxAA_s132_6.0.0.dir/__/__/mesh/core/src/fifo.c.obj
 .text.fifo_flush
                0x00000000        0x6 examples/dfu/CMakeFiles/dfu_no_serial_nrf52832_xxAA_s132_6.0.0.dir/__/__/mesh/core/src/fifo.c.obj
 .text.fifo_get_len
                0x00000000        0x8 examples/dfu/CMakeFiles/dfu_no_serial_nrf52832_xxAA_s132_6.0.0.dir/__/__/mesh/core/src/fifo.c.obj
 .text.fifo_is_full
                0x00000000       0x10 examples/dfu/CMakeFiles/dfu_no_serial_nrf52832_xxAA_s132_6.0.0.dir/__/__/mesh/core/src/fifo.c.obj
 .text.fifo_is_empty
                0x00000000        0xc examples/dfu/CMakeFiles/dfu_no_serial_nrf52832_xxAA_s132_6.0.0.dir/__/__/mesh/core/src/fifo.c.obj
 .text          0x00000000        0x0 examples/dfu/CMakeFiles/dfu_no_serial_nrf52832_xxAA_s132_6.0.0.dir/__/__/mesh/core/src/nrf_flash.c.obj
 .data          0x00000000        0x0 examples/dfu/CMakeFiles/dfu_no_serial_nrf52832_xxAA_s132_6.0.0.dir/__/__/mesh/core/src/nrf_flash.c.obj
 .bss           0x00000000        0x0 examples/dfu/CMakeFiles/dfu_no_serial_nrf52832_xxAA_s132_6.0.0.dir/__/__/mesh/core/src/nrf_flash.c.obj
 .text          0x00000000        0x0 examples/dfu/CMakeFiles/dfu_no_serial_nrf52832_xxAA_s132_6.0.0.dir/__/__/mesh/core/src/packet_mgr.c.obj
 .data          0x00000000        0x0 examples/dfu/CMakeFiles/dfu_no_serial_nrf52832_xxAA_s132_6.0.0.dir/__/__/mesh/core/src/packet_mgr.c.obj
 .bss           0x00000000        0x0 examples/dfu/CMakeFiles/dfu_no_serial_nrf52832_xxAA_s132_6.0.0.dir/__/__/mesh/core/src/packet_mgr.c.obj
 .text.packet_mgr_alloc
                0x00000000      0x17c examples/dfu/CMakeFiles/dfu_no_serial_nrf52832_xxAA_s132_6.0.0.dir/__/__/mesh/core/src/packet_mgr.c.obj
 .text.packet_mgr_free
                0x00000000       0x58 examples/dfu/CMakeFiles/dfu_no_serial_nrf52832_xxAA_s132_6.0.0.dir/__/__/mesh/core/src/packet_mgr.c.obj
 .text.packet_mgr_get_free_space
                0x00000000       0x1c examples/dfu/CMakeFiles/dfu_no_serial_nrf52832_xxAA_s132_6.0.0.dir/__/__/mesh/core/src/packet_mgr.c.obj
 .text.packet_mgr_refcount_get
                0x00000000        0x6 examples/dfu/CMakeFiles/dfu_no_serial_nrf52832_xxAA_s132_6.0.0.dir/__/__/mesh/core/src/packet_mgr.c.obj
 .text.packet_mgr_size_get
                0x00000000        0x6 examples/dfu/CMakeFiles/dfu_no_serial_nrf52832_xxAA_s132_6.0.0.dir/__/__/mesh/core/src/packet_mgr.c.obj
 .text          0x00000000        0x0 examples/dfu/CMakeFiles/dfu_no_serial_nrf52832_xxAA_s132_6.0.0.dir/__/__/mesh/core/src/net_state.c.obj
 .data          0x00000000        0x0 examples/dfu/CMakeFiles/dfu_no_serial_nrf52832_xxAA_s132_6.0.0.dir/__/__/mesh/core/src/net_state.c.obj
 .bss           0x00000000        0x0 examples/dfu/CMakeFiles/dfu_no_serial_nrf52832_xxAA_s132_6.0.0.dir/__/__/mesh/core/src/net_state.c.obj
 .text.net_state_iv_update_test_mode_set
                0x00000000        0xc examples/dfu/CMakeFiles/dfu_no_serial_nrf52832_xxAA_s132_6.0.0.dir/__/__/mesh/core/src/net_state.c.obj
 .text.net_state_test_mode_transition_run
                0x00000000       0x2c examples/dfu/CMakeFiles/dfu_no_serial_nrf52832_xxAA_s132_6.0.0.dir/__/__/mesh/core/src/net_state.c.obj
 .text          0x00000000        0x0 examples/dfu/CMakeFiles/dfu_no_serial_nrf52832_xxAA_s132_6.0.0.dir/__/__/mesh/core/src/mesh_flash.c.obj
 .data          0x00000000        0x0 examples/dfu/CMakeFiles/dfu_no_serial_nrf52832_xxAA_s132_6.0.0.dir/__/__/mesh/core/src/mesh_flash.c.obj
 .bss           0x00000000        0x0 examples/dfu/CMakeFiles/dfu_no_serial_nrf52832_xxAA_s132_6.0.0.dir/__/__/mesh/core/src/mesh_flash.c.obj
 .text.mesh_flash_op_available_slots
                0x00000000       0x2c examples/dfu/CMakeFiles/dfu_no_serial_nrf52832_xxAA_s132_6.0.0.dir/__/__/mesh/core/src/mesh_flash.c.obj
 .text          0x00000000        0x0 examples/dfu/CMakeFiles/dfu_no_serial_nrf52832_xxAA_s132_6.0.0.dir/__/__/mesh/core/src/nrf_mesh_utils.c.obj
 .data          0x00000000        0x0 examples/dfu/CMakeFiles/dfu_no_serial_nrf52832_xxAA_s132_6.0.0.dir/__/__/mesh/core/src/nrf_mesh_utils.c.obj
 .bss           0x00000000        0x0 examples/dfu/CMakeFiles/dfu_no_serial_nrf52832_xxAA_s132_6.0.0.dir/__/__/mesh/core/src/nrf_mesh_utils.c.obj
 .text.nrf_mesh_rand_get
                0x00000000       0x10 examples/dfu/CMakeFiles/dfu_no_serial_nrf52832_xxAA_s132_6.0.0.dir/__/__/mesh/core/src/nrf_mesh_utils.c.obj
 .text.nrf_mesh_gap_address_type_get
                0x00000000       0x30 examples/dfu/CMakeFiles/dfu_no_serial_nrf52832_xxAA_s132_6.0.0.dir/__/__/mesh/core/src/nrf_mesh_utils.c.obj
 .text          0x00000000        0x0 examples/dfu/CMakeFiles/dfu_no_serial_nrf52832_xxAA_s132_6.0.0.dir/__/__/mesh/core/src/nrf_mesh.c.obj
 .data          0x00000000        0x0 examples/dfu/CMakeFiles/dfu_no_serial_nrf52832_xxAA_s132_6.0.0.dir/__/__/mesh/core/src/nrf_mesh.c.obj
 .bss           0x00000000        0x0 examples/dfu/CMakeFiles/dfu_no_serial_nrf52832_xxAA_s132_6.0.0.dir/__/__/mesh/core/src/nrf_mesh.c.obj
 .text.nrf_mesh_disable
                0x00000000       0x28 examples/dfu/CMakeFiles/dfu_no_serial_nrf52832_xxAA_s132_6.0.0.dir/__/__/mesh/core/src/nrf_mesh.c.obj
 .text.nrf_mesh_process
                0x00000000        0x4 examples/dfu/CMakeFiles/dfu_no_serial_nrf52832_xxAA_s132_6.0.0.dir/__/__/mesh/core/src/nrf_mesh.c.obj
 .text.nrf_mesh_evt_handler_remove
                0x00000000        0x4 examples/dfu/CMakeFiles/dfu_no_serial_nrf52832_xxAA_s132_6.0.0.dir/__/__/mesh/core/src/nrf_mesh.c.obj
 .text.nrf_mesh_rx_cb_set
                0x00000000        0xc examples/dfu/CMakeFiles/dfu_no_serial_nrf52832_xxAA_s132_6.0.0.dir/__/__/mesh/core/src/nrf_mesh.c.obj
 .text.nrf_mesh_rx_cb_clear
                0x00000000        0xc examples/dfu/CMakeFiles/dfu_no_serial_nrf52832_xxAA_s132_6.0.0.dir/__/__/mesh/core/src/nrf_mesh.c.obj
 .text          0x00000000        0x0 examples/dfu/CMakeFiles/dfu_no_serial_nrf52832_xxAA_s132_6.0.0.dir/__/__/mesh/core/src/queue.c.obj
 .data          0x00000000        0x0 examples/dfu/CMakeFiles/dfu_no_serial_nrf52832_xxAA_s132_6.0.0.dir/__/__/mesh/core/src/queue.c.obj
 .bss           0x00000000        0x0 examples/dfu/CMakeFiles/dfu_no_serial_nrf52832_xxAA_s132_6.0.0.dir/__/__/mesh/core/src/queue.c.obj
 .text          0x00000000        0x0 examples/dfu/CMakeFiles/dfu_no_serial_nrf52832_xxAA_s132_6.0.0.dir/__/__/mesh/core/src/hal.c.obj
 .data          0x00000000        0x0 examples/dfu/CMakeFiles/dfu_no_serial_nrf52832_xxAA_s132_6.0.0.dir/__/__/mesh/core/src/hal.c.obj
 .bss           0x00000000        0x0 examples/dfu/CMakeFiles/dfu_no_serial_nrf52832_xxAA_s132_6.0.0.dir/__/__/mesh/core/src/hal.c.obj
 .text          0x00000000        0x0 examples/dfu/CMakeFiles/dfu_no_serial_nrf52832_xxAA_s132_6.0.0.dir/__/__/mesh/core/src/aes_cmac.c.obj
 .data          0x00000000        0x0 examples/dfu/CMakeFiles/dfu_no_serial_nrf52832_xxAA_s132_6.0.0.dir/__/__/mesh/core/src/aes_cmac.c.obj
 .bss           0x00000000        0x0 examples/dfu/CMakeFiles/dfu_no_serial_nrf52832_xxAA_s132_6.0.0.dir/__/__/mesh/core/src/aes_cmac.c.obj
 .text          0x00000000        0x0 examples/dfu/CMakeFiles/dfu_no_serial_nrf52832_xxAA_s132_6.0.0.dir/__/__/mesh/core/src/timer_scheduler.c.obj
 .data          0x00000000        0x0 examples/dfu/CMakeFiles/dfu_no_serial_nrf52832_xxAA_s132_6.0.0.dir/__/__/mesh/core/src/timer_scheduler.c.obj
 .bss           0x00000000        0x0 examples/dfu/CMakeFiles/dfu_no_serial_nrf52832_xxAA_s132_6.0.0.dir/__/__/mesh/core/src/timer_scheduler.c.obj
 .text          0x00000000        0x0 examples/dfu/CMakeFiles/dfu_no_serial_nrf52832_xxAA_s132_6.0.0.dir/__/__/mesh/core/src/timer.c.obj
 .data          0x00000000        0x0 examples/dfu/CMakeFiles/dfu_no_serial_nrf52832_xxAA_s132_6.0.0.dir/__/__/mesh/core/src/timer.c.obj
 .bss           0x00000000        0x0 examples/dfu/CMakeFiles/dfu_no_serial_nrf52832_xxAA_s132_6.0.0.dir/__/__/mesh/core/src/timer.c.obj
 .text.timer_order_cb_ppi
                0x00000000       0xc4 examples/dfu/CMakeFiles/dfu_no_serial_nrf52832_xxAA_s132_6.0.0.dir/__/__/mesh/core/src/timer.c.obj
 .text.timer_order_ppi
                0x00000000       0xc0 examples/dfu/CMakeFiles/dfu_no_serial_nrf52832_xxAA_s132_6.0.0.dir/__/__/mesh/core/src/timer.c.obj
 .text.timer_abort
                0x00000000       0x78 examples/dfu/CMakeFiles/dfu_no_serial_nrf52832_xxAA_s132_6.0.0.dir/__/__/mesh/core/src/timer.c.obj
 .text          0x00000000        0x0 examples/dfu/CMakeFiles/dfu_no_serial_nrf52832_xxAA_s132_6.0.0.dir/__/__/mesh/core/src/ticker.c.obj
 .data          0x00000000        0x0 examples/dfu/CMakeFiles/dfu_no_serial_nrf52832_xxAA_s132_6.0.0.dir/__/__/mesh/core/src/ticker.c.obj
 .bss           0x00000000        0x0 examples/dfu/CMakeFiles/dfu_no_serial_nrf52832_xxAA_s132_6.0.0.dir/__/__/mesh/core/src/ticker.c.obj
 .text.ticker_get
                0x00000000        0xc examples/dfu/CMakeFiles/dfu_no_serial_nrf52832_xxAA_s132_6.0.0.dir/__/__/mesh/core/src/ticker.c.obj
 .text          0x00000000        0x0 examples/dfu/CMakeFiles/dfu_no_serial_nrf52832_xxAA_s132_6.0.0.dir/__/__/mesh/core/src/rand.c.obj
 .data          0x00000000        0x0 examples/dfu/CMakeFiles/dfu_no_serial_nrf52832_xxAA_s132_6.0.0.dir/__/__/mesh/core/src/rand.c.obj
 .bss           0x00000000        0x0 examples/dfu/CMakeFiles/dfu_no_serial_nrf52832_xxAA_s132_6.0.0.dir/__/__/mesh/core/src/rand.c.obj
 .text          0x00000000        0x0 examples/dfu/CMakeFiles/dfu_no_serial_nrf52832_xxAA_s132_6.0.0.dir/__/__/mesh/core/src/nrf_mesh_opt.c.obj
 .data          0x00000000        0x0 examples/dfu/CMakeFiles/dfu_no_serial_nrf52832_xxAA_s132_6.0.0.dir/__/__/mesh/core/src/nrf_mesh_opt.c.obj
 .bss           0x00000000        0x0 examples/dfu/CMakeFiles/dfu_no_serial_nrf52832_xxAA_s132_6.0.0.dir/__/__/mesh/core/src/nrf_mesh_opt.c.obj
 .text          0x00000000        0x0 examples/dfu/CMakeFiles/dfu_no_serial_nrf52832_xxAA_s132_6.0.0.dir/__/__/mesh/core/src/timeslot.c.obj
 .data          0x00000000        0x0 examples/dfu/CMakeFiles/dfu_no_serial_nrf52832_xxAA_s132_6.0.0.dir/__/__/mesh/core/src/timeslot.c.obj
 .bss           0x00000000        0x0 examples/dfu/CMakeFiles/dfu_no_serial_nrf52832_xxAA_s132_6.0.0.dir/__/__/mesh/core/src/timeslot.c.obj
 .text.timeslot_end_time_get
                0x00000000       0x10 examples/dfu/CMakeFiles/dfu_no_serial_nrf52832_xxAA_s132_6.0.0.dir/__/__/mesh/core/src/timeslot.c.obj
 .text.timeslot_is_in_ts
                0x00000000        0xc examples/dfu/CMakeFiles/dfu_no_serial_nrf52832_xxAA_s132_6.0.0.dir/__/__/mesh/core/src/timeslot.c.obj
 .text.timeslot_restart
                0x00000000       0x10 examples/dfu/CMakeFiles/dfu_no_serial_nrf52832_xxAA_s132_6.0.0.dir/__/__/mesh/core/src/timeslot.c.obj
 .text          0x00000000        0x0 examples/dfu/CMakeFiles/dfu_no_serial_nrf52832_xxAA_s132_6.0.0.dir/__/__/mesh/core/src/bearer_event.c.obj
 .data          0x00000000        0x0 examples/dfu/CMakeFiles/dfu_no_serial_nrf52832_xxAA_s132_6.0.0.dir/__/__/mesh/core/src/bearer_event.c.obj
 .bss           0x00000000        0x0 examples/dfu/CMakeFiles/dfu_no_serial_nrf52832_xxAA_s132_6.0.0.dir/__/__/mesh/core/src/bearer_event.c.obj
 .text.bearer_event_generic_post
                0x00000000       0x24 examples/dfu/CMakeFiles/dfu_no_serial_nrf52832_xxAA_s132_6.0.0.dir/__/__/mesh/core/src/bearer_event.c.obj
 .text.bearer_event_timer_sch_post
                0x00000000       0x26 examples/dfu/CMakeFiles/dfu_no_serial_nrf52832_xxAA_s132_6.0.0.dir/__/__/mesh/core/src/bearer_event.c.obj
 .text.bearer_event_in_correct_irq_priority
                0x00000000       0x48 examples/dfu/CMakeFiles/dfu_no_serial_nrf52832_xxAA_s132_6.0.0.dir/__/__/mesh/core/src/bearer_event.c.obj
 .text          0x00000000        0x0 examples/dfu/CMakeFiles/dfu_no_serial_nrf52832_xxAA_s132_6.0.0.dir/__/__/mesh/core/src/enc.c.obj
 .data          0x00000000        0x0 examples/dfu/CMakeFiles/dfu_no_serial_nrf52832_xxAA_s132_6.0.0.dir/__/__/mesh/core/src/enc.c.obj
 .bss           0x00000000        0x0 examples/dfu/CMakeFiles/dfu_no_serial_nrf52832_xxAA_s132_6.0.0.dir/__/__/mesh/core/src/enc.c.obj
 .text.enc_key_generate
                0x00000000        0x6 examples/dfu/CMakeFiles/dfu_no_serial_nrf52832_xxAA_s132_6.0.0.dir/__/__/mesh/core/src/enc.c.obj
 .text          0x00000000        0x0 examples/dfu/CMakeFiles/dfu_no_serial_nrf52832_xxAA_s132_6.0.0.dir/__/__/mesh/core/src/network.c.obj
 .data          0x00000000        0x0 examples/dfu/CMakeFiles/dfu_no_serial_nrf52832_xxAA_s132_6.0.0.dir/__/__/mesh/core/src/network.c.obj
 .bss           0x00000000        0x0 examples/dfu/CMakeFiles/dfu_no_serial_nrf52832_xxAA_s132_6.0.0.dir/__/__/mesh/core/src/network.c.obj
 .text.network_packet_discard
                0x00000000       0x1e examples/dfu/CMakeFiles/dfu_no_serial_nrf52832_xxAA_s132_6.0.0.dir/__/__/mesh/core/src/network.c.obj
 .text          0x00000000        0x0 examples/dfu/CMakeFiles/dfu_no_serial_nrf52832_xxAA_s132_6.0.0.dir/__/__/mesh/core/src/net_packet.c.obj
 .data          0x00000000        0x0 examples/dfu/CMakeFiles/dfu_no_serial_nrf52832_xxAA_s132_6.0.0.dir/__/__/mesh/core/src/net_packet.c.obj
 .bss           0x00000000        0x0 examples/dfu/CMakeFiles/dfu_no_serial_nrf52832_xxAA_s132_6.0.0.dir/__/__/mesh/core/src/net_packet.c.obj
 .text.net_packet_enc_start_get
                0x00000000        0x4 examples/dfu/CMakeFiles/dfu_no_serial_nrf52832_xxAA_s132_6.0.0.dir/__/__/mesh/core/src/net_packet.c.obj
 .text.net_packet_payload_get
                0x00000000        0x4 examples/dfu/CMakeFiles/dfu_no_serial_nrf52832_xxAA_s132_6.0.0.dir/__/__/mesh/core/src/net_packet.c.obj
 .text          0x00000000        0x0 examples/dfu/CMakeFiles/dfu_no_serial_nrf52832_xxAA_s132_6.0.0.dir/__/__/mesh/core/src/msqueue.c.obj
 .data          0x00000000        0x0 examples/dfu/CMakeFiles/dfu_no_serial_nrf52832_xxAA_s132_6.0.0.dir/__/__/mesh/core/src/msqueue.c.obj
 .bss           0x00000000        0x0 examples/dfu/CMakeFiles/dfu_no_serial_nrf52832_xxAA_s132_6.0.0.dir/__/__/mesh/core/src/msqueue.c.obj
 .text          0x00000000        0x0 examples/dfu/CMakeFiles/dfu_no_serial_nrf52832_xxAA_s132_6.0.0.dir/__/__/mesh/core/src/nrf_mesh_keygen.c.obj
 .data          0x00000000        0x0 examples/dfu/CMakeFiles/dfu_no_serial_nrf52832_xxAA_s132_6.0.0.dir/__/__/mesh/core/src/nrf_mesh_keygen.c.obj
 .bss           0x00000000        0x0 examples/dfu/CMakeFiles/dfu_no_serial_nrf52832_xxAA_s132_6.0.0.dir/__/__/mesh/core/src/nrf_mesh_keygen.c.obj
 .text.nrf_mesh_keygen_identitykey
                0x00000000       0x4c examples/dfu/CMakeFiles/dfu_no_serial_nrf52832_xxAA_s132_6.0.0.dir/__/__/mesh/core/src/nrf_mesh_keygen.c.obj
 .text          0x00000000        0x0 examples/dfu/CMakeFiles/dfu_no_serial_nrf52832_xxAA_s132_6.0.0.dir/__/__/mesh/core/src/cache.c.obj
 .data          0x00000000        0x0 examples/dfu/CMakeFiles/dfu_no_serial_nrf52832_xxAA_s132_6.0.0.dir/__/__/mesh/core/src/cache.c.obj
 .bss           0x00000000        0x0 examples/dfu/CMakeFiles/dfu_no_serial_nrf52832_xxAA_s132_6.0.0.dir/__/__/mesh/core/src/cache.c.obj
 .text.erase_at
                0x00000000       0x1c examples/dfu/CMakeFiles/dfu_no_serial_nrf52832_xxAA_s132_6.0.0.dir/__/__/mesh/core/src/cache.c.obj
 .text.cache_init
                0x00000000       0x1e examples/dfu/CMakeFiles/dfu_no_serial_nrf52832_xxAA_s132_6.0.0.dir/__/__/mesh/core/src/cache.c.obj
 .text.cache_has_elem
                0x00000000       0x3e examples/dfu/CMakeFiles/dfu_no_serial_nrf52832_xxAA_s132_6.0.0.dir/__/__/mesh/core/src/cache.c.obj
 .text.cache_put
                0x00000000       0x2a examples/dfu/CMakeFiles/dfu_no_serial_nrf52832_xxAA_s132_6.0.0.dir/__/__/mesh/core/src/cache.c.obj
 .text.cache_erase_elem
                0x00000000       0x4c examples/dfu/CMakeFiles/dfu_no_serial_nrf52832_xxAA_s132_6.0.0.dir/__/__/mesh/core/src/cache.c.obj
 .debug_info    0x00000000      0xbe1 examples/dfu/CMakeFiles/dfu_no_serial_nrf52832_xxAA_s132_6.0.0.dir/__/__/mesh/core/src/cache.c.obj
 .debug_abbrev  0x00000000      0x2a3 examples/dfu/CMakeFiles/dfu_no_serial_nrf52832_xxAA_s132_6.0.0.dir/__/__/mesh/core/src/cache.c.obj
 .debug_loc     0x00000000      0x29b examples/dfu/CMakeFiles/dfu_no_serial_nrf52832_xxAA_s132_6.0.0.dir/__/__/mesh/core/src/cache.c.obj
 .debug_aranges
                0x00000000       0x40 examples/dfu/CMakeFiles/dfu_no_serial_nrf52832_xxAA_s132_6.0.0.dir/__/__/mesh/core/src/cache.c.obj
 .debug_ranges  0x00000000       0x80 examples/dfu/CMakeFiles/dfu_no_serial_nrf52832_xxAA_s132_6.0.0.dir/__/__/mesh/core/src/cache.c.obj
 .debug_line    0x00000000      0x21e examples/dfu/CMakeFiles/dfu_no_serial_nrf52832_xxAA_s132_6.0.0.dir/__/__/mesh/core/src/cache.c.obj
 .debug_str     0x00000000      0x6af examples/dfu/CMakeFiles/dfu_no_serial_nrf52832_xxAA_s132_6.0.0.dir/__/__/mesh/core/src/cache.c.obj
 .comment       0x00000000       0x80 examples/dfu/CMakeFiles/dfu_no_serial_nrf52832_xxAA_s132_6.0.0.dir/__/__/mesh/core/src/cache.c.obj
 .debug_frame   0x00000000       0xb0 examples/dfu/CMakeFiles/dfu_no_serial_nrf52832_xxAA_s132_6.0.0.dir/__/__/mesh/core/src/cache.c.obj
 .ARM.attributes
                0x00000000       0x39 examples/dfu/CMakeFiles/dfu_no_serial_nrf52832_xxAA_s132_6.0.0.dir/__/__/mesh/core/src/cache.c.obj
 .text          0x00000000        0x0 examples/dfu/CMakeFiles/dfu_no_serial_nrf52832_xxAA_s132_6.0.0.dir/__/__/mesh/core/src/uri.c.obj
 .data          0x00000000        0x0 examples/dfu/CMakeFiles/dfu_no_serial_nrf52832_xxAA_s132_6.0.0.dir/__/__/mesh/core/src/uri.c.obj
 .bss           0x00000000        0x0 examples/dfu/CMakeFiles/dfu_no_serial_nrf52832_xxAA_s132_6.0.0.dir/__/__/mesh/core/src/uri.c.obj
 .text.uri_data_parse
                0x00000000       0x78 examples/dfu/CMakeFiles/dfu_no_serial_nrf52832_xxAA_s132_6.0.0.dir/__/__/mesh/core/src/uri.c.obj
 .text.uri_scheme_name_code_point
                0x00000000       0x5c examples/dfu/CMakeFiles/dfu_no_serial_nrf52832_xxAA_s132_6.0.0.dir/__/__/mesh/core/src/uri.c.obj
 .text.uri_data_generate
                0x00000000       0x52 examples/dfu/CMakeFiles/dfu_no_serial_nrf52832_xxAA_s132_6.0.0.dir/__/__/mesh/core/src/uri.c.obj
 .text.uri_scheme_name_string
                0x00000000       0x14 examples/dfu/CMakeFiles/dfu_no_serial_nrf52832_xxAA_s132_6.0.0.dir/__/__/mesh/core/src/uri.c.obj
 .rodata.m_code_point_strings
                0x00000000      0x2ec examples/dfu/CMakeFiles/dfu_no_serial_nrf52832_xxAA_s132_6.0.0.dir/__/__/mesh/core/src/uri.c.obj
 .rodata.str1.1
                0x00000000      0x566 examples/dfu/CMakeFiles/dfu_no_serial_nrf52832_xxAA_s132_6.0.0.dir/__/__/mesh/core/src/uri.c.obj
 .debug_info    0x00000000      0xcac examples/dfu/CMakeFiles/dfu_no_serial_nrf52832_xxAA_s132_6.0.0.dir/__/__/mesh/core/src/uri.c.obj
 .debug_abbrev  0x00000000      0x2e4 examples/dfu/CMakeFiles/dfu_no_serial_nrf52832_xxAA_s132_6.0.0.dir/__/__/mesh/core/src/uri.c.obj
 .debug_loc     0x00000000      0x253 examples/dfu/CMakeFiles/dfu_no_serial_nrf52832_xxAA_s132_6.0.0.dir/__/__/mesh/core/src/uri.c.obj
 .debug_aranges
                0x00000000       0x38 examples/dfu/CMakeFiles/dfu_no_serial_nrf52832_xxAA_s132_6.0.0.dir/__/__/mesh/core/src/uri.c.obj
 .debug_ranges  0x00000000       0x48 examples/dfu/CMakeFiles/dfu_no_serial_nrf52832_xxAA_s132_6.0.0.dir/__/__/mesh/core/src/uri.c.obj
 .debug_line    0x00000000      0x2ba examples/dfu/CMakeFiles/dfu_no_serial_nrf52832_xxAA_s132_6.0.0.dir/__/__/mesh/core/src/uri.c.obj
 .debug_str     0x00000000      0x6dd examples/dfu/CMakeFiles/dfu_no_serial_nrf52832_xxAA_s132_6.0.0.dir/__/__/mesh/core/src/uri.c.obj
 .comment       0x00000000       0x80 examples/dfu/CMakeFiles/dfu_no_serial_nrf52832_xxAA_s132_6.0.0.dir/__/__/mesh/core/src/uri.c.obj
 .debug_frame   0x00000000       0x84 examples/dfu/CMakeFiles/dfu_no_serial_nrf52832_xxAA_s132_6.0.0.dir/__/__/mesh/core/src/uri.c.obj
 .ARM.attributes
                0x00000000       0x39 examples/dfu/CMakeFiles/dfu_no_serial_nrf52832_xxAA_s132_6.0.0.dir/__/__/mesh/core/src/uri.c.obj
 .text          0x00000000        0x0 examples/dfu/CMakeFiles/dfu_no_serial_nrf52832_xxAA_s132_6.0.0.dir/__/__/mesh/core/src/list.c.obj
 .data          0x00000000        0x0 examples/dfu/CMakeFiles/dfu_no_serial_nrf52832_xxAA_s132_6.0.0.dir/__/__/mesh/core/src/list.c.obj
 .bss           0x00000000        0x0 examples/dfu/CMakeFiles/dfu_no_serial_nrf52832_xxAA_s132_6.0.0.dir/__/__/mesh/core/src/list.c.obj
 .text.list_size_get
                0x00000000       0x12 examples/dfu/CMakeFiles/dfu_no_serial_nrf52832_xxAA_s132_6.0.0.dir/__/__/mesh/core/src/list.c.obj
 .text.list_sorted_add
                0x00000000       0x6c examples/dfu/CMakeFiles/dfu_no_serial_nrf52832_xxAA_s132_6.0.0.dir/__/__/mesh/core/src/list.c.obj
 .text          0x00000000        0x0 examples/dfu/CMakeFiles/dfu_no_serial_nrf52832_xxAA_s132_6.0.0.dir/__/__/mesh/core/src/log.c.obj
 .data          0x00000000        0x0 examples/dfu/CMakeFiles/dfu_no_serial_nrf52832_xxAA_s132_6.0.0.dir/__/__/mesh/core/src/log.c.obj
 .bss           0x00000000        0x0 examples/dfu/CMakeFiles/dfu_no_serial_nrf52832_xxAA_s132_6.0.0.dir/__/__/mesh/core/src/log.c.obj
 .text.log_callback_logview
                0x00000000       0x38 examples/dfu/CMakeFiles/dfu_no_serial_nrf52832_xxAA_s132_6.0.0.dir/__/__/mesh/core/src/log.c.obj
 .text.log_set_callback
                0x00000000        0xc examples/dfu/CMakeFiles/dfu_no_serial_nrf52832_xxAA_s132_6.0.0.dir/__/__/mesh/core/src/log.c.obj
 .rodata.log_callback_logview.str1.1
                0x00000000        0xf examples/dfu/CMakeFiles/dfu_no_serial_nrf52832_xxAA_s132_6.0.0.dir/__/__/mesh/core/src/log.c.obj
 .text          0x00000000        0x0 examples/dfu/CMakeFiles/dfu_no_serial_nrf52832_xxAA_s132_6.0.0.dir/__/__/mesh/core/src/flash_manager.c.obj
 .data          0x00000000        0x0 examples/dfu/CMakeFiles/dfu_no_serial_nrf52832_xxAA_s132_6.0.0.dir/__/__/mesh/core/src/flash_manager.c.obj
 .bss           0x00000000        0x0 examples/dfu/CMakeFiles/dfu_no_serial_nrf52832_xxAA_s132_6.0.0.dir/__/__/mesh/core/src/flash_manager.c.obj
 .text.flash_manager_entry_count_get
                0x00000000       0x50 examples/dfu/CMakeFiles/dfu_no_serial_nrf52832_xxAA_s132_6.0.0.dir/__/__/mesh/core/src/flash_manager.c.obj
 .text.flash_manager_entry_release
                0x00000000       0x2c examples/dfu/CMakeFiles/dfu_no_serial_nrf52832_xxAA_s132_6.0.0.dir/__/__/mesh/core/src/flash_manager.c.obj
 .text          0x00000000        0x0 examples/dfu/CMakeFiles/dfu_no_serial_nrf52832_xxAA_s132_6.0.0.dir/__/__/mesh/core/src/ccm_soft.c.obj
 .data          0x00000000        0x0 examples/dfu/CMakeFiles/dfu_no_serial_nrf52832_xxAA_s132_6.0.0.dir/__/__/mesh/core/src/ccm_soft.c.obj
 .bss           0x00000000        0x0 examples/dfu/CMakeFiles/dfu_no_serial_nrf52832_xxAA_s132_6.0.0.dir/__/__/mesh/core/src/ccm_soft.c.obj
 .text          0x00000000        0x0 examples/dfu/CMakeFiles/dfu_no_serial_nrf52832_xxAA_s132_6.0.0.dir/__/__/mesh/core/src/toolchain.c.obj
 .data          0x00000000        0x0 examples/dfu/CMakeFiles/dfu_no_serial_nrf52832_xxAA_s132_6.0.0.dir/__/__/mesh/core/src/toolchain.c.obj
 .bss           0x00000000        0x0 examples/dfu/CMakeFiles/dfu_no_serial_nrf52832_xxAA_s132_6.0.0.dir/__/__/mesh/core/src/toolchain.c.obj
 .debug_info    0x00000000       0xb3 examples/dfu/CMakeFiles/dfu_no_serial_nrf52832_xxAA_s132_6.0.0.dir/__/__/mesh/core/src/toolchain.c.obj
 .debug_abbrev  0x00000000       0x5c examples/dfu/CMakeFiles/dfu_no_serial_nrf52832_xxAA_s132_6.0.0.dir/__/__/mesh/core/src/toolchain.c.obj
 .debug_aranges
                0x00000000       0x18 examples/dfu/CMakeFiles/dfu_no_serial_nrf52832_xxAA_s132_6.0.0.dir/__/__/mesh/core/src/toolchain.c.obj
 .debug_line    0x00000000      0x130 examples/dfu/CMakeFiles/dfu_no_serial_nrf52832_xxAA_s132_6.0.0.dir/__/__/mesh/core/src/toolchain.c.obj
 .debug_str     0x00000000      0x1fa examples/dfu/CMakeFiles/dfu_no_serial_nrf52832_xxAA_s132_6.0.0.dir/__/__/mesh/core/src/toolchain.c.obj
 .comment       0x00000000       0x80 examples/dfu/CMakeFiles/dfu_no_serial_nrf52832_xxAA_s132_6.0.0.dir/__/__/mesh/core/src/toolchain.c.obj
 .ARM.attributes
                0x00000000       0x39 examples/dfu/CMakeFiles/dfu_no_serial_nrf52832_xxAA_s132_6.0.0.dir/__/__/mesh/core/src/toolchain.c.obj
 .text          0x00000000        0x0 examples/dfu/CMakeFiles/dfu_no_serial_nrf52832_xxAA_s132_6.0.0.dir/__/__/mesh/core/src/replay_cache.c.obj
 .data          0x00000000        0x0 examples/dfu/CMakeFiles/dfu_no_serial_nrf52832_xxAA_s132_6.0.0.dir/__/__/mesh/core/src/replay_cache.c.obj
 .bss           0x00000000        0x0 examples/dfu/CMakeFiles/dfu_no_serial_nrf52832_xxAA_s132_6.0.0.dir/__/__/mesh/core/src/replay_cache.c.obj
 .text.replay_cache_on_iv_update
                0x00000000       0x24 examples/dfu/CMakeFiles/dfu_no_serial_nrf52832_xxAA_s132_6.0.0.dir/__/__/mesh/core/src/replay_cache.c.obj
 .text          0x00000000        0x0 examples/dfu/CMakeFiles/dfu_no_serial_nrf52832_xxAA_s132_6.0.0.dir/__/__/mesh/core/src/beacon.c.obj
 .data          0x00000000        0x0 examples/dfu/CMakeFiles/dfu_no_serial_nrf52832_xxAA_s132_6.0.0.dir/__/__/mesh/core/src/beacon.c.obj
 .bss           0x00000000        0x0 examples/dfu/CMakeFiles/dfu_no_serial_nrf52832_xxAA_s132_6.0.0.dir/__/__/mesh/core/src/beacon.c.obj
 .text          0x00000000        0x0 examples/dfu/CMakeFiles/dfu_no_serial_nrf52832_xxAA_s132_6.0.0.dir/__/__/mesh/core/src/flash_manager_internal.c.obj
 .data          0x00000000        0x0 examples/dfu/CMakeFiles/dfu_no_serial_nrf52832_xxAA_s132_6.0.0.dir/__/__/mesh/core/src/flash_manager_internal.c.obj
 .bss           0x00000000        0x0 examples/dfu/CMakeFiles/dfu_no_serial_nrf52832_xxAA_s132_6.0.0.dir/__/__/mesh/core/src/flash_manager_internal.c.obj
 .text          0x00000000        0x0 examples/dfu/CMakeFiles/dfu_no_serial_nrf52832_xxAA_s132_6.0.0.dir/__/__/mesh/core/src/core_tx.c.obj
 .data          0x00000000        0x0 examples/dfu/CMakeFiles/dfu_no_serial_nrf52832_xxAA_s132_6.0.0.dir/__/__/mesh/core/src/core_tx.c.obj
 .bss           0x00000000        0x0 examples/dfu/CMakeFiles/dfu_no_serial_nrf52832_xxAA_s132_6.0.0.dir/__/__/mesh/core/src/core_tx.c.obj
 .text.core_tx_bearer_type_get
                0x00000000       0x1c examples/dfu/CMakeFiles/dfu_no_serial_nrf52832_xxAA_s132_6.0.0.dir/__/__/mesh/core/src/core_tx.c.obj
 .text.core_tx_bearer_count_get
                0x00000000        0xc examples/dfu/CMakeFiles/dfu_no_serial_nrf52832_xxAA_s132_6.0.0.dir/__/__/mesh/core/src/core_tx.c.obj
 .text          0x00000000        0x0 examples/dfu/CMakeFiles/dfu_no_serial_nrf52832_xxAA_s132_6.0.0.dir/__/__/mesh/core/src/heartbeat.c.obj
 .data          0x00000000        0x0 examples/dfu/CMakeFiles/dfu_no_serial_nrf52832_xxAA_s132_6.0.0.dir/__/__/mesh/core/src/heartbeat.c.obj
 .bss           0x00000000        0x0 examples/dfu/CMakeFiles/dfu_no_serial_nrf52832_xxAA_s132_6.0.0.dir/__/__/mesh/core/src/heartbeat.c.obj
 .text          0x00000000        0x0 examples/dfu/CMakeFiles/dfu_no_serial_nrf52832_xxAA_s132_6.0.0.dir/__/__/mesh/core/src/net_beacon.c.obj
 .data          0x00000000        0x0 examples/dfu/CMakeFiles/dfu_no_serial_nrf52832_xxAA_s132_6.0.0.dir/__/__/mesh/core/src/net_beacon.c.obj
 .bss           0x00000000        0x0 examples/dfu/CMakeFiles/dfu_no_serial_nrf52832_xxAA_s132_6.0.0.dir/__/__/mesh/core/src/net_beacon.c.obj
 .text.net_beacon_build
                0x00000000       0x24 examples/dfu/CMakeFiles/dfu_no_serial_nrf52832_xxAA_s132_6.0.0.dir/__/__/mesh/core/src/net_beacon.c.obj
 .text          0x00000000        0x0 examples/dfu/CMakeFiles/dfu_no_serial_nrf52832_xxAA_s132_6.0.0.dir/__/__/mesh/core/src/fsm.c.obj
 .data          0x00000000        0x0 examples/dfu/CMakeFiles/dfu_no_serial_nrf52832_xxAA_s132_6.0.0.dir/__/__/mesh/core/src/fsm.c.obj
 .bss           0x00000000        0x0 examples/dfu/CMakeFiles/dfu_no_serial_nrf52832_xxAA_s132_6.0.0.dir/__/__/mesh/core/src/fsm.c.obj
 .text.fsm_event_post_try
                0x00000000      0x1ec examples/dfu/CMakeFiles/dfu_no_serial_nrf52832_xxAA_s132_6.0.0.dir/__/__/mesh/core/src/fsm.c.obj
 .text.fsm_init
                0x00000000       0xcc examples/dfu/CMakeFiles/dfu_no_serial_nrf52832_xxAA_s132_6.0.0.dir/__/__/mesh/core/src/fsm.c.obj
 .text.fsm_event_post
                0x00000000       0xac examples/dfu/CMakeFiles/dfu_no_serial_nrf52832_xxAA_s132_6.0.0.dir/__/__/mesh/core/src/fsm.c.obj
 .text.fsm_is_processing
                0x00000000        0xa examples/dfu/CMakeFiles/dfu_no_serial_nrf52832_xxAA_s132_6.0.0.dir/__/__/mesh/core/src/fsm.c.obj
 .rodata.fsm_event_post.str1.1
                0x00000000        0xb examples/dfu/CMakeFiles/dfu_no_serial_nrf52832_xxAA_s132_6.0.0.dir/__/__/mesh/core/src/fsm.c.obj
 .rodata.fsm_event_post_try.str1.1
                0x00000000       0x41 examples/dfu/CMakeFiles/dfu_no_serial_nrf52832_xxAA_s132_6.0.0.dir/__/__/mesh/core/src/fsm.c.obj
 .rodata.fsm_init.str1.1
                0x00000000        0xa examples/dfu/CMakeFiles/dfu_no_serial_nrf52832_xxAA_s132_6.0.0.dir/__/__/mesh/core/src/fsm.c.obj
 .debug_info    0x00000000     0x132d examples/dfu/CMakeFiles/dfu_no_serial_nrf52832_xxAA_s132_6.0.0.dir/__/__/mesh/core/src/fsm.c.obj
 .debug_abbrev  0x00000000      0x345 examples/dfu/CMakeFiles/dfu_no_serial_nrf52832_xxAA_s132_6.0.0.dir/__/__/mesh/core/src/fsm.c.obj
 .debug_loc     0x00000000      0x3fd examples/dfu/CMakeFiles/dfu_no_serial_nrf52832_xxAA_s132_6.0.0.dir/__/__/mesh/core/src/fsm.c.obj
 .debug_aranges
                0x00000000       0x38 examples/dfu/CMakeFiles/dfu_no_serial_nrf52832_xxAA_s132_6.0.0.dir/__/__/mesh/core/src/fsm.c.obj
 .debug_ranges  0x00000000       0xe0 examples/dfu/CMakeFiles/dfu_no_serial_nrf52832_xxAA_s132_6.0.0.dir/__/__/mesh/core/src/fsm.c.obj
 .debug_line    0x00000000      0x3e2 examples/dfu/CMakeFiles/dfu_no_serial_nrf52832_xxAA_s132_6.0.0.dir/__/__/mesh/core/src/fsm.c.obj
 .debug_str     0x00000000      0x984 examples/dfu/CMakeFiles/dfu_no_serial_nrf52832_xxAA_s132_6.0.0.dir/__/__/mesh/core/src/fsm.c.obj
 .comment       0x00000000       0x80 examples/dfu/CMakeFiles/dfu_no_serial_nrf52832_xxAA_s132_6.0.0.dir/__/__/mesh/core/src/fsm.c.obj
 .debug_frame   0x00000000       0x9c examples/dfu/CMakeFiles/dfu_no_serial_nrf52832_xxAA_s132_6.0.0.dir/__/__/mesh/core/src/fsm.c.obj
 .ARM.attributes
                0x00000000       0x39 examples/dfu/CMakeFiles/dfu_no_serial_nrf52832_xxAA_s132_6.0.0.dir/__/__/mesh/core/src/fsm.c.obj
 .text          0x00000000        0x0 examples/dfu/CMakeFiles/dfu_no_serial_nrf52832_xxAA_s132_6.0.0.dir/__/__/mesh/core/src/core_tx_adv.c.obj
 .data          0x00000000        0x0 examples/dfu/CMakeFiles/dfu_no_serial_nrf52832_xxAA_s132_6.0.0.dir/__/__/mesh/core/src/core_tx_adv.c.obj
 .bss           0x00000000        0x0 examples/dfu/CMakeFiles/dfu_no_serial_nrf52832_xxAA_s132_6.0.0.dir/__/__/mesh/core/src/core_tx_adv.c.obj
 .text.core_tx_adv_address_set
                0x00000000       0x28 examples/dfu/CMakeFiles/dfu_no_serial_nrf52832_xxAA_s132_6.0.0.dir/__/__/mesh/core/src/core_tx_adv.c.obj
 .text          0x00000000        0x0 examples/dfu/CMakeFiles/dfu_no_serial_nrf52832_xxAA_s132_6.0.0.dir/__/__/mesh/bearer/src/ad_listener.c.obj
 .data          0x00000000        0x0 examples/dfu/CMakeFiles/dfu_no_serial_nrf52832_xxAA_s132_6.0.0.dir/__/__/mesh/bearer/src/ad_listener.c.obj
 .bss           0x00000000        0x0 examples/dfu/CMakeFiles/dfu_no_serial_nrf52832_xxAA_s132_6.0.0.dir/__/__/mesh/bearer/src/ad_listener.c.obj
 .text.ad_listener_unsubscribe
                0x00000000       0x6c examples/dfu/CMakeFiles/dfu_no_serial_nrf52832_xxAA_s132_6.0.0.dir/__/__/mesh/bearer/src/ad_listener.c.obj
 .text          0x00000000        0x0 examples/dfu/CMakeFiles/dfu_no_serial_nrf52832_xxAA_s132_6.0.0.dir/__/__/mesh/bearer/src/ad_type_filter.c.obj
 .data          0x00000000        0x0 examples/dfu/CMakeFiles/dfu_no_serial_nrf52832_xxAA_s132_6.0.0.dir/__/__/mesh/bearer/src/ad_type_filter.c.obj
 .bss           0x00000000        0x0 examples/dfu/CMakeFiles/dfu_no_serial_nrf52832_xxAA_s132_6.0.0.dir/__/__/mesh/bearer/src/ad_type_filter.c.obj
 .text.bearer_adtype_remove
                0x00000000       0x20 examples/dfu/CMakeFiles/dfu_no_serial_nrf52832_xxAA_s132_6.0.0.dir/__/__/mesh/bearer/src/ad_type_filter.c.obj
 .text.bearer_adtype_clear
                0x00000000       0x10 examples/dfu/CMakeFiles/dfu_no_serial_nrf52832_xxAA_s132_6.0.0.dir/__/__/mesh/bearer/src/ad_type_filter.c.obj
 .text.bearer_invalid_length_amount_get
                0x00000000        0xc examples/dfu/CMakeFiles/dfu_no_serial_nrf52832_xxAA_s132_6.0.0.dir/__/__/mesh/bearer/src/ad_type_filter.c.obj
 .text.bearer_adtype_filtered_amount_get
                0x00000000        0xc examples/dfu/CMakeFiles/dfu_no_serial_nrf52832_xxAA_s132_6.0.0.dir/__/__/mesh/bearer/src/ad_type_filter.c.obj
 .text          0x00000000        0x0 examples/dfu/CMakeFiles/dfu_no_serial_nrf52832_xxAA_s132_6.0.0.dir/__/__/mesh/bearer/src/adv_packet_filter.c.obj
 .data          0x00000000        0x0 examples/dfu/CMakeFiles/dfu_no_serial_nrf52832_xxAA_s132_6.0.0.dir/__/__/mesh/bearer/src/adv_packet_filter.c.obj
 .bss           0x00000000        0x0 examples/dfu/CMakeFiles/dfu_no_serial_nrf52832_xxAA_s132_6.0.0.dir/__/__/mesh/bearer/src/adv_packet_filter.c.obj
 .text.adv_filter_handle
                0x00000000       0x3c examples/dfu/CMakeFiles/dfu_no_serial_nrf52832_xxAA_s132_6.0.0.dir/__/__/mesh/bearer/src/adv_packet_filter.c.obj
 .text.bearer_adv_packet_filtering_set
                0x00000000       0x1c examples/dfu/CMakeFiles/dfu_no_serial_nrf52832_xxAA_s132_6.0.0.dir/__/__/mesh/bearer/src/adv_packet_filter.c.obj
 .text.bearer_adv_packet_remove
                0x00000000       0x18 examples/dfu/CMakeFiles/dfu_no_serial_nrf52832_xxAA_s132_6.0.0.dir/__/__/mesh/bearer/src/adv_packet_filter.c.obj
 .text.bearer_adv_packet_add
                0x00000000       0x14 examples/dfu/CMakeFiles/dfu_no_serial_nrf52832_xxAA_s132_6.0.0.dir/__/__/mesh/bearer/src/adv_packet_filter.c.obj
 .text.bearer_adv_packet_clear
                0x00000000        0xc examples/dfu/CMakeFiles/dfu_no_serial_nrf52832_xxAA_s132_6.0.0.dir/__/__/mesh/bearer/src/adv_packet_filter.c.obj
 .text.bearer_adv_packet_filter_mode_set
                0x00000000       0x18 examples/dfu/CMakeFiles/dfu_no_serial_nrf52832_xxAA_s132_6.0.0.dir/__/__/mesh/bearer/src/adv_packet_filter.c.obj
 .text.bearer_adv_packet_filtered_amount_get
                0x00000000        0xc examples/dfu/CMakeFiles/dfu_no_serial_nrf52832_xxAA_s132_6.0.0.dir/__/__/mesh/bearer/src/adv_packet_filter.c.obj
 .bss.m_adv_packet_filter
                0x00000000       0x14 examples/dfu/CMakeFiles/dfu_no_serial_nrf52832_xxAA_s132_6.0.0.dir/__/__/mesh/bearer/src/adv_packet_filter.c.obj
 .debug_info    0x00000000      0xd97 examples/dfu/CMakeFiles/dfu_no_serial_nrf52832_xxAA_s132_6.0.0.dir/__/__/mesh/bearer/src/adv_packet_filter.c.obj
 .debug_abbrev  0x00000000      0x2c9 examples/dfu/CMakeFiles/dfu_no_serial_nrf52832_xxAA_s132_6.0.0.dir/__/__/mesh/bearer/src/adv_packet_filter.c.obj
 .debug_loc     0x00000000      0x1c0 examples/dfu/CMakeFiles/dfu_no_serial_nrf52832_xxAA_s132_6.0.0.dir/__/__/mesh/bearer/src/adv_packet_filter.c.obj
 .debug_aranges
                0x00000000       0x50 examples/dfu/CMakeFiles/dfu_no_serial_nrf52832_xxAA_s132_6.0.0.dir/__/__/mesh/bearer/src/adv_packet_filter.c.obj
 .debug_ranges  0x00000000       0x40 examples/dfu/CMakeFiles/dfu_no_serial_nrf52832_xxAA_s132_6.0.0.dir/__/__/mesh/bearer/src/adv_packet_filter.c.obj
 .debug_line    0x00000000      0x36d examples/dfu/CMakeFiles/dfu_no_serial_nrf52832_xxAA_s132_6.0.0.dir/__/__/mesh/bearer/src/adv_packet_filter.c.obj
 .debug_str     0x00000000      0xa28 examples/dfu/CMakeFiles/dfu_no_serial_nrf52832_xxAA_s132_6.0.0.dir/__/__/mesh/bearer/src/adv_packet_filter.c.obj
 .comment       0x00000000       0x80 examples/dfu/CMakeFiles/dfu_no_serial_nrf52832_xxAA_s132_6.0.0.dir/__/__/mesh/bearer/src/adv_packet_filter.c.obj
 .debug_frame   0x00000000       0x88 examples/dfu/CMakeFiles/dfu_no_serial_nrf52832_xxAA_s132_6.0.0.dir/__/__/mesh/bearer/src/adv_packet_filter.c.obj
 .ARM.attributes
                0x00000000       0x39 examples/dfu/CMakeFiles/dfu_no_serial_nrf52832_xxAA_s132_6.0.0.dir/__/__/mesh/bearer/src/adv_packet_filter.c.obj
 .text          0x00000000        0x0 examples/dfu/CMakeFiles/dfu_no_serial_nrf52832_xxAA_s132_6.0.0.dir/__/__/mesh/bearer/src/advertiser.c.obj
 .data          0x00000000        0x0 examples/dfu/CMakeFiles/dfu_no_serial_nrf52832_xxAA_s132_6.0.0.dir/__/__/mesh/bearer/src/advertiser.c.obj
 .bss           0x00000000        0x0 examples/dfu/CMakeFiles/dfu_no_serial_nrf52832_xxAA_s132_6.0.0.dir/__/__/mesh/bearer/src/advertiser.c.obj
 .text.advertiser_disable
                0x00000000        0xa examples/dfu/CMakeFiles/dfu_no_serial_nrf52832_xxAA_s132_6.0.0.dir/__/__/mesh/bearer/src/advertiser.c.obj
 .text.advertiser_channels_set
                0x00000000       0x60 examples/dfu/CMakeFiles/dfu_no_serial_nrf52832_xxAA_s132_6.0.0.dir/__/__/mesh/bearer/src/advertiser.c.obj
 .text.advertiser_address_set
                0x00000000       0x3c examples/dfu/CMakeFiles/dfu_no_serial_nrf52832_xxAA_s132_6.0.0.dir/__/__/mesh/bearer/src/advertiser.c.obj
 .text.advertiser_config_set
                0x00000000       0x36 examples/dfu/CMakeFiles/dfu_no_serial_nrf52832_xxAA_s132_6.0.0.dir/__/__/mesh/bearer/src/advertiser.c.obj
 .text.advertiser_config_get
                0x00000000       0x20 examples/dfu/CMakeFiles/dfu_no_serial_nrf52832_xxAA_s132_6.0.0.dir/__/__/mesh/bearer/src/advertiser.c.obj
 .text          0x00000000        0x0 examples/dfu/CMakeFiles/dfu_no_serial_nrf52832_xxAA_s132_6.0.0.dir/__/__/mesh/bearer/src/bearer_handler.c.obj
 .data          0x00000000        0x0 examples/dfu/CMakeFiles/dfu_no_serial_nrf52832_xxAA_s132_6.0.0.dir/__/__/mesh/bearer/src/bearer_handler.c.obj
 .bss           0x00000000        0x0 examples/dfu/CMakeFiles/dfu_no_serial_nrf52832_xxAA_s132_6.0.0.dir/__/__/mesh/bearer/src/bearer_handler.c.obj
 .text.bearer_handler_stop
                0x00000000       0x20 examples/dfu/CMakeFiles/dfu_no_serial_nrf52832_xxAA_s132_6.0.0.dir/__/__/mesh/bearer/src/bearer_handler.c.obj
 .text.bearer_handler_action_fire
                0x00000000       0x94 examples/dfu/CMakeFiles/dfu_no_serial_nrf52832_xxAA_s132_6.0.0.dir/__/__/mesh/bearer/src/bearer_handler.c.obj
 .text          0x00000000        0x0 examples/dfu/CMakeFiles/dfu_no_serial_nrf52832_xxAA_s132_6.0.0.dir/__/__/mesh/bearer/src/broadcast.c.obj
 .data          0x00000000        0x0 examples/dfu/CMakeFiles/dfu_no_serial_nrf52832_xxAA_s132_6.0.0.dir/__/__/mesh/bearer/src/broadcast.c.obj
 .bss           0x00000000        0x0 examples/dfu/CMakeFiles/dfu_no_serial_nrf52832_xxAA_s132_6.0.0.dir/__/__/mesh/bearer/src/broadcast.c.obj
 .text          0x00000000        0x0 examples/dfu/CMakeFiles/dfu_no_serial_nrf52832_xxAA_s132_6.0.0.dir/__/__/mesh/bearer/src/filter_engine.c.obj
 .data          0x00000000        0x0 examples/dfu/CMakeFiles/dfu_no_serial_nrf52832_xxAA_s132_6.0.0.dir/__/__/mesh/bearer/src/filter_engine.c.obj
 .bss           0x00000000        0x0 examples/dfu/CMakeFiles/dfu_no_serial_nrf52832_xxAA_s132_6.0.0.dir/__/__/mesh/bearer/src/filter_engine.c.obj
 .text.fen_accepted_amount_get
                0x00000000        0xc examples/dfu/CMakeFiles/dfu_no_serial_nrf52832_xxAA_s132_6.0.0.dir/__/__/mesh/bearer/src/filter_engine.c.obj
 .text          0x00000000        0x0 examples/dfu/CMakeFiles/dfu_no_serial_nrf52832_xxAA_s132_6.0.0.dir/__/__/mesh/bearer/src/gap_address_filter.c.obj
 .data          0x00000000        0x0 examples/dfu/CMakeFiles/dfu_no_serial_nrf52832_xxAA_s132_6.0.0.dir/__/__/mesh/bearer/src/gap_address_filter.c.obj
 .bss           0x00000000        0x0 examples/dfu/CMakeFiles/dfu_no_serial_nrf52832_xxAA_s132_6.0.0.dir/__/__/mesh/bearer/src/gap_address_filter.c.obj
 .text.gap_address_filter_handle
                0x00000000       0xa6 examples/dfu/CMakeFiles/dfu_no_serial_nrf52832_xxAA_s132_6.0.0.dir/__/__/mesh/bearer/src/gap_address_filter.c.obj
 .text.gap_addr_filter_set
                0x00000000       0x40 examples/dfu/CMakeFiles/dfu_no_serial_nrf52832_xxAA_s132_6.0.0.dir/__/__/mesh/bearer/src/gap_address_filter.c.obj
 .text.bearer_filter_gap_addr_whitelist_set
                0x00000000        0x6 examples/dfu/CMakeFiles/dfu_no_serial_nrf52832_xxAA_s132_6.0.0.dir/__/__/mesh/bearer/src/gap_address_filter.c.obj
 .text.bearer_filter_gap_addr_blacklist_set
                0x00000000        0x6 examples/dfu/CMakeFiles/dfu_no_serial_nrf52832_xxAA_s132_6.0.0.dir/__/__/mesh/bearer/src/gap_address_filter.c.obj
 .text.bearer_filter_gap_addr_range_set
                0x00000000       0x38 examples/dfu/CMakeFiles/dfu_no_serial_nrf52832_xxAA_s132_6.0.0.dir/__/__/mesh/bearer/src/gap_address_filter.c.obj
 .text.bearer_filter_gap_addr_clear
                0x00000000       0x20 examples/dfu/CMakeFiles/dfu_no_serial_nrf52832_xxAA_s132_6.0.0.dir/__/__/mesh/bearer/src/gap_address_filter.c.obj
 .text.bearer_gap_addr_filtered_amount_get
                0x00000000        0xc examples/dfu/CMakeFiles/dfu_no_serial_nrf52832_xxAA_s132_6.0.0.dir/__/__/mesh/bearer/src/gap_address_filter.c.obj
 .bss.m_addr_filter
                0x00000000       0x18 examples/dfu/CMakeFiles/dfu_no_serial_nrf52832_xxAA_s132_6.0.0.dir/__/__/mesh/bearer/src/gap_address_filter.c.obj
 .debug_info    0x00000000      0xebb examples/dfu/CMakeFiles/dfu_no_serial_nrf52832_xxAA_s132_6.0.0.dir/__/__/mesh/bearer/src/gap_address_filter.c.obj
 .debug_abbrev  0x00000000      0x2f4 examples/dfu/CMakeFiles/dfu_no_serial_nrf52832_xxAA_s132_6.0.0.dir/__/__/mesh/bearer/src/gap_address_filter.c.obj
 .debug_loc     0x00000000      0x3e8 examples/dfu/CMakeFiles/dfu_no_serial_nrf52832_xxAA_s132_6.0.0.dir/__/__/mesh/bearer/src/gap_address_filter.c.obj
 .debug_aranges
                0x00000000       0x50 examples/dfu/CMakeFiles/dfu_no_serial_nrf52832_xxAA_s132_6.0.0.dir/__/__/mesh/bearer/src/gap_address_filter.c.obj
 .debug_ranges  0x00000000       0x58 examples/dfu/CMakeFiles/dfu_no_serial_nrf52832_xxAA_s132_6.0.0.dir/__/__/mesh/bearer/src/gap_address_filter.c.obj
 .debug_line    0x00000000      0x3c5 examples/dfu/CMakeFiles/dfu_no_serial_nrf52832_xxAA_s132_6.0.0.dir/__/__/mesh/bearer/src/gap_address_filter.c.obj
 .debug_str     0x00000000      0x982 examples/dfu/CMakeFiles/dfu_no_serial_nrf52832_xxAA_s132_6.0.0.dir/__/__/mesh/bearer/src/gap_address_filter.c.obj
 .comment       0x00000000       0x80 examples/dfu/CMakeFiles/dfu_no_serial_nrf52832_xxAA_s132_6.0.0.dir/__/__/mesh/bearer/src/gap_address_filter.c.obj
 .debug_frame   0x00000000       0xb4 examples/dfu/CMakeFiles/dfu_no_serial_nrf52832_xxAA_s132_6.0.0.dir/__/__/mesh/bearer/src/gap_address_filter.c.obj
 .ARM.attributes
                0x00000000       0x39 examples/dfu/CMakeFiles/dfu_no_serial_nrf52832_xxAA_s132_6.0.0.dir/__/__/mesh/bearer/src/gap_address_filter.c.obj
 .text          0x00000000        0x0 examples/dfu/CMakeFiles/dfu_no_serial_nrf52832_xxAA_s132_6.0.0.dir/__/__/mesh/bearer/src/radio_config.c.obj
 .data          0x00000000        0x0 examples/dfu/CMakeFiles/dfu_no_serial_nrf52832_xxAA_s132_6.0.0.dir/__/__/mesh/bearer/src/radio_config.c.obj
 .bss           0x00000000        0x0 examples/dfu/CMakeFiles/dfu_no_serial_nrf52832_xxAA_s132_6.0.0.dir/__/__/mesh/bearer/src/radio_config.c.obj
 .text.radio_config_access_addr_get
                0x00000000       0x4c examples/dfu/CMakeFiles/dfu_no_serial_nrf52832_xxAA_s132_6.0.0.dir/__/__/mesh/bearer/src/radio_config.c.obj
 .text          0x00000000        0x0 examples/dfu/CMakeFiles/dfu_no_serial_nrf52832_xxAA_s132_6.0.0.dir/__/__/mesh/bearer/src/rssi_filter.c.obj
 .data          0x00000000        0x0 examples/dfu/CMakeFiles/dfu_no_serial_nrf52832_xxAA_s132_6.0.0.dir/__/__/mesh/bearer/src/rssi_filter.c.obj
 .bss           0x00000000        0x0 examples/dfu/CMakeFiles/dfu_no_serial_nrf52832_xxAA_s132_6.0.0.dir/__/__/mesh/bearer/src/rssi_filter.c.obj
 .text.rssi_filter_handle
                0x00000000       0x20 examples/dfu/CMakeFiles/dfu_no_serial_nrf52832_xxAA_s132_6.0.0.dir/__/__/mesh/bearer/src/rssi_filter.c.obj
 .text.bearer_rssi_filtering_set
                0x00000000       0x34 examples/dfu/CMakeFiles/dfu_no_serial_nrf52832_xxAA_s132_6.0.0.dir/__/__/mesh/bearer/src/rssi_filter.c.obj
 .text.bearer_rssi_filtered_amount_get
                0x00000000        0xc examples/dfu/CMakeFiles/dfu_no_serial_nrf52832_xxAA_s132_6.0.0.dir/__/__/mesh/bearer/src/rssi_filter.c.obj
 .bss.m_rssi_filter
                0x00000000       0x18 examples/dfu/CMakeFiles/dfu_no_serial_nrf52832_xxAA_s132_6.0.0.dir/__/__/mesh/bearer/src/rssi_filter.c.obj
 .debug_info    0x00000000      0xc73 examples/dfu/CMakeFiles/dfu_no_serial_nrf52832_xxAA_s132_6.0.0.dir/__/__/mesh/bearer/src/rssi_filter.c.obj
 .debug_abbrev  0x00000000      0x28e examples/dfu/CMakeFiles/dfu_no_serial_nrf52832_xxAA_s132_6.0.0.dir/__/__/mesh/bearer/src/rssi_filter.c.obj
 .debug_loc     0x00000000       0xb3 examples/dfu/CMakeFiles/dfu_no_serial_nrf52832_xxAA_s132_6.0.0.dir/__/__/mesh/bearer/src/rssi_filter.c.obj
 .debug_aranges
                0x00000000       0x30 examples/dfu/CMakeFiles/dfu_no_serial_nrf52832_xxAA_s132_6.0.0.dir/__/__/mesh/bearer/src/rssi_filter.c.obj
 .debug_ranges  0x00000000       0x20 examples/dfu/CMakeFiles/dfu_no_serial_nrf52832_xxAA_s132_6.0.0.dir/__/__/mesh/bearer/src/rssi_filter.c.obj
 .debug_line    0x00000000      0x2e2 examples/dfu/CMakeFiles/dfu_no_serial_nrf52832_xxAA_s132_6.0.0.dir/__/__/mesh/bearer/src/rssi_filter.c.obj
 .debug_str     0x00000000      0x83d examples/dfu/CMakeFiles/dfu_no_serial_nrf52832_xxAA_s132_6.0.0.dir/__/__/mesh/bearer/src/rssi_filter.c.obj
 .comment       0x00000000       0x80 examples/dfu/CMakeFiles/dfu_no_serial_nrf52832_xxAA_s132_6.0.0.dir/__/__/mesh/bearer/src/rssi_filter.c.obj
 .debug_frame   0x00000000       0x54 examples/dfu/CMakeFiles/dfu_no_serial_nrf52832_xxAA_s132_6.0.0.dir/__/__/mesh/bearer/src/rssi_filter.c.obj
 .ARM.attributes
                0x00000000       0x39 examples/dfu/CMakeFiles/dfu_no_serial_nrf52832_xxAA_s132_6.0.0.dir/__/__/mesh/bearer/src/rssi_filter.c.obj
 .text          0x00000000        0x0 examples/dfu/CMakeFiles/dfu_no_serial_nrf52832_xxAA_s132_6.0.0.dir/__/__/mesh/bearer/src/scanner.c.obj
 .data          0x00000000        0x0 examples/dfu/CMakeFiles/dfu_no_serial_nrf52832_xxAA_s132_6.0.0.dir/__/__/mesh/bearer/src/scanner.c.obj
 .bss           0x00000000        0x0 examples/dfu/CMakeFiles/dfu_no_serial_nrf52832_xxAA_s132_6.0.0.dir/__/__/mesh/bearer/src/scanner.c.obj
 .text.scanner_rx_callback_set
                0x00000000       0x20 examples/dfu/CMakeFiles/dfu_no_serial_nrf52832_xxAA_s132_6.0.0.dir/__/__/mesh/bearer/src/scanner.c.obj
 .text.scanner_disable
                0x00000000       0x3c examples/dfu/CMakeFiles/dfu_no_serial_nrf52832_xxAA_s132_6.0.0.dir/__/__/mesh/bearer/src/scanner.c.obj
 .text.scanner_is_enabled
                0x00000000       0x10 examples/dfu/CMakeFiles/dfu_no_serial_nrf52832_xxAA_s132_6.0.0.dir/__/__/mesh/bearer/src/scanner.c.obj
 .text.scanner_stats_get
                0x00000000        0x8 examples/dfu/CMakeFiles/dfu_no_serial_nrf52832_xxAA_s132_6.0.0.dir/__/__/mesh/bearer/src/scanner.c.obj
 .text.scanner_config_radio_mode_set
                0x00000000       0x10 examples/dfu/CMakeFiles/dfu_no_serial_nrf52832_xxAA_s132_6.0.0.dir/__/__/mesh/bearer/src/scanner.c.obj
 .text          0x00000000        0x0 examples/dfu/CMakeFiles/dfu_no_serial_nrf52832_xxAA_s132_6.0.0.dir/C_/ver/mod/nRF5_SDK_15.0.0_a53641a/modules/nrfx/mdk/system_nrf52.c.obj
 .data          0x00000000        0x0 examples/dfu/CMakeFiles/dfu_no_serial_nrf52832_xxAA_s132_6.0.0.dir/C_/ver/mod/nRF5_SDK_15.0.0_a53641a/modules/nrfx/mdk/system_nrf52.c.obj
 .bss           0x00000000        0x0 examples/dfu/CMakeFiles/dfu_no_serial_nrf52832_xxAA_s132_6.0.0.dir/C_/ver/mod/nRF5_SDK_15.0.0_a53641a/modules/nrfx/mdk/system_nrf52.c.obj
 .text.SystemCoreClockUpdate
                0x00000000       0x10 examples/dfu/CMakeFiles/dfu_no_serial_nrf52832_xxAA_s132_6.0.0.dir/C_/ver/mod/nRF5_SDK_15.0.0_a53641a/modules/nrfx/mdk/system_nrf52.c.obj
 .data          0x00000000        0x0 examples/dfu/CMakeFiles/dfu_no_serial_nrf52832_xxAA_s132_6.0.0.dir/C_/ver/mod/nRF5_SDK_15.0.0_a53641a/modules/nrfx/mdk/gcc_startup_nrf52.S.obj
 .bss           0x00000000        0x0 examples/dfu/CMakeFiles/dfu_no_serial_nrf52832_xxAA_s132_6.0.0.dir/C_/ver/mod/nRF5_SDK_15.0.0_a53641a/modules/nrfx/mdk/gcc_startup_nrf52.S.obj
 .text          0x00000000        0x0 examples/dfu/CMakeFiles/dfu_no_serial_nrf52832_xxAA_s132_6.0.0.dir/C_/ver/mod/nRF5_SDK_15.0.0_a53641a/components/libraries/util/app_error.c.obj
 .data          0x00000000        0x0 examples/dfu/CMakeFiles/dfu_no_serial_nrf52832_xxAA_s132_6.0.0.dir/C_/ver/mod/nRF5_SDK_15.0.0_a53641a/components/libraries/util/app_error.c.obj
 .bss           0x00000000        0x0 examples/dfu/CMakeFiles/dfu_no_serial_nrf52832_xxAA_s132_6.0.0.dir/C_/ver/mod/nRF5_SDK_15.0.0_a53641a/components/libraries/util/app_error.c.obj
 .text.app_error_save_and_stop
                0x00000000       0x58 examples/dfu/CMakeFiles/dfu_no_serial_nrf52832_xxAA_s132_6.0.0.dir/C_/ver/mod/nRF5_SDK_15.0.0_a53641a/components/libraries/util/app_error.c.obj
 .bss.m_error_data.7863
                0x00000000       0x20 examples/dfu/CMakeFiles/dfu_no_serial_nrf52832_xxAA_s132_6.0.0.dir/C_/ver/mod/nRF5_SDK_15.0.0_a53641a/components/libraries/util/app_error.c.obj
 .text          0x00000000        0x0 examples/dfu/CMakeFiles/dfu_no_serial_nrf52832_xxAA_s132_6.0.0.dir/C_/ver/mod/nRF5_SDK_15.0.0_a53641a/components/libraries/util/app_error_handler_gcc.c.obj
 .data          0x00000000        0x0 examples/dfu/CMakeFiles/dfu_no_serial_nrf52832_xxAA_s132_6.0.0.dir/C_/ver/mod/nRF5_SDK_15.0.0_a53641a/components/libraries/util/app_error_handler_gcc.c.obj
 .bss           0x00000000        0x0 examples/dfu/CMakeFiles/dfu_no_serial_nrf52832_xxAA_s132_6.0.0.dir/C_/ver/mod/nRF5_SDK_15.0.0_a53641a/components/libraries/util/app_error_handler_gcc.c.obj
 .text          0x00000000        0x0 external/rtt/librtt_nrf52832_xxAA.a(SEGGER_RTT.c.obj)
 .data          0x00000000        0x0 external/rtt/librtt_nrf52832_xxAA.a(SEGGER_RTT.c.obj)
 .bss           0x00000000        0x0 external/rtt/librtt_nrf52832_xxAA.a(SEGGER_RTT.c.obj)
 .text._PostTerminalSwitch.constprop.0
                0x00000000       0x28 external/rtt/librtt_nrf52832_xxAA.a(SEGGER_RTT.c.obj)
 .text.SEGGER_RTT_ReadNoLock
                0x00000000       0x88 external/rtt/librtt_nrf52832_xxAA.a(SEGGER_RTT.c.obj)
 .text.SEGGER_RTT_Read
                0x00000000       0x1c external/rtt/librtt_nrf52832_xxAA.a(SEGGER_RTT.c.obj)
 .text.SEGGER_RTT_WriteSkipNoLock
                0x00000000       0xb4 external/rtt/librtt_nrf52832_xxAA.a(SEGGER_RTT.c.obj)
 .text.SEGGER_RTT_WriteString
                0x00000000       0x1a external/rtt/librtt_nrf52832_xxAA.a(SEGGER_RTT.c.obj)
 .text.SEGGER_RTT_GetKey
                0x00000000       0x20 external/rtt/librtt_nrf52832_xxAA.a(SEGGER_RTT.c.obj)
 .text.SEGGER_RTT_WaitKey
                0x00000000        0xc external/rtt/librtt_nrf52832_xxAA.a(SEGGER_RTT.c.obj)
 .text.SEGGER_RTT_HasKey
                0x00000000       0x1c external/rtt/librtt_nrf52832_xxAA.a(SEGGER_RTT.c.obj)
 .text.SEGGER_RTT_HasData
                0x00000000       0x14 external/rtt/librtt_nrf52832_xxAA.a(SEGGER_RTT.c.obj)
 .text.SEGGER_RTT_AllocDownBuffer
                0x00000000       0x68 external/rtt/librtt_nrf52832_xxAA.a(SEGGER_RTT.c.obj)
 .text.SEGGER_RTT_AllocUpBuffer
                0x00000000       0x70 external/rtt/librtt_nrf52832_xxAA.a(SEGGER_RTT.c.obj)
 .text.SEGGER_RTT_ConfigUpBuffer
                0x00000000       0x68 external/rtt/librtt_nrf52832_xxAA.a(SEGGER_RTT.c.obj)
 .text.SEGGER_RTT_ConfigDownBuffer
                0x00000000       0x60 external/rtt/librtt_nrf52832_xxAA.a(SEGGER_RTT.c.obj)
 .text.SEGGER_RTT_SetNameUpBuffer
                0x00000000       0x3c external/rtt/librtt_nrf52832_xxAA.a(SEGGER_RTT.c.obj)
 .text.SEGGER_RTT_SetNameDownBuffer
                0x00000000       0x3c external/rtt/librtt_nrf52832_xxAA.a(SEGGER_RTT.c.obj)
 .text.SEGGER_RTT_Init
                0x00000000       0x10 external/rtt/librtt_nrf52832_xxAA.a(SEGGER_RTT.c.obj)
 .text.SEGGER_RTT_SetTerminal
                0x00000000       0x84 external/rtt/librtt_nrf52832_xxAA.a(SEGGER_RTT.c.obj)
 .text.SEGGER_RTT_TerminalOut
                0x00000000       0xa0 external/rtt/librtt_nrf52832_xxAA.a(SEGGER_RTT.c.obj)
 .bss._ActiveTerminal
                0x00000000        0x1 external/rtt/librtt_nrf52832_xxAA.a(SEGGER_RTT.c.obj)
 .rodata._aTerminalId
                0x00000000       0x10 external/rtt/librtt_nrf52832_xxAA.a(SEGGER_RTT.c.obj)
 .text          0x00000000        0x0 external/rtt/librtt_nrf52832_xxAA.a(SEGGER_RTT_printf.c.obj)
 .data          0x00000000        0x0 external/rtt/librtt_nrf52832_xxAA.a(SEGGER_RTT_printf.c.obj)
 .bss           0x00000000        0x0 external/rtt/librtt_nrf52832_xxAA.a(SEGGER_RTT_printf.c.obj)
 .text          0x00000000        0x0 external/micro-ecc/libuECC_nrf52832_xxAA.a(uECC.c.obj)
 .data          0x00000000        0x0 external/micro-ecc/libuECC_nrf52832_xxAA.a(uECC.c.obj)
 .bss           0x00000000        0x0 external/micro-ecc/libuECC_nrf52832_xxAA.a(uECC.c.obj)
 .text.uECC_vli_modMult
                0x00000000      0x148 external/micro-ecc/libuECC_nrf52832_xxAA.a(uECC.c.obj)
 .text.HMAC_init
                0x00000000       0x46 external/micro-ecc/libuECC_nrf52832_xxAA.a(uECC.c.obj)
 .text.HMAC_update
                0x00000000        0x4 external/micro-ecc/libuECC_nrf52832_xxAA.a(uECC.c.obj)
 .text.HMAC_finish
                0x00000000       0x62 external/micro-ecc/libuECC_nrf52832_xxAA.a(uECC.c.obj)
 .text.update_V
                0x00000000       0x24 external/micro-ecc/libuECC_nrf52832_xxAA.a(uECC.c.obj)
 .text.bits2int
                0x00000000       0x88 external/micro-ecc/libuECC_nrf52832_xxAA.a(uECC.c.obj)
 .text.uECC_sign_with_k
                0x00000000      0x17c external/micro-ecc/libuECC_nrf52832_xxAA.a(uECC.c.obj)
 .text.uECC_set_rng
                0x00000000        0xc external/micro-ecc/libuECC_nrf52832_xxAA.a(uECC.c.obj)
 .text.uECC_get_rng
                0x00000000        0xc external/micro-ecc/libuECC_nrf52832_xxAA.a(uECC.c.obj)
 .text.uECC_curve_private_key_size
                0x00000000        0xe external/micro-ecc/libuECC_nrf52832_xxAA.a(uECC.c.obj)
 .text.uECC_curve_public_key_size
                0x00000000        0x8 external/micro-ecc/libuECC_nrf52832_xxAA.a(uECC.c.obj)
 .text.uECC_compute_public_key
                0x00000000       0x7e external/micro-ecc/libuECC_nrf52832_xxAA.a(uECC.c.obj)
 .text.uECC_sign
                0x00000000       0x56 external/micro-ecc/libuECC_nrf52832_xxAA.a(uECC.c.obj)
 .text.uECC_sign_deterministic
                0x00000000      0x192 external/micro-ecc/libuECC_nrf52832_xxAA.a(uECC.c.obj)
 .text.uECC_verify
                0x00000000      0x2f0 external/micro-ecc/libuECC_nrf52832_xxAA.a(uECC.c.obj)
 .text          0x00000000        0x0 c:/mesh/arm_gcc/bin/../lib/gcc/arm-none-eabi/6.3.1/../../../../arm-none-eabi/lib/thumb/v7e-m/fpv4-sp/hard\libg_nano.a(lib_a-exit.o)
 .data          0x00000000        0x0 c:/mesh/arm_gcc/bin/../lib/gcc/arm-none-eabi/6.3.1/../../../../arm-none-eabi/lib/thumb/v7e-m/fpv4-sp/hard\libg_nano.a(lib_a-exit.o)
 .bss           0x00000000        0x0 c:/mesh/arm_gcc/bin/../lib/gcc/arm-none-eabi/6.3.1/../../../../arm-none-eabi/lib/thumb/v7e-m/fpv4-sp/hard\libg_nano.a(lib_a-exit.o)
 .text          0x00000000        0x0 c:/mesh/arm_gcc/bin/../lib/gcc/arm-none-eabi/6.3.1/../../../../arm-none-eabi/lib/thumb/v7e-m/fpv4-sp/hard\libg_nano.a(lib_a-impure.o)
 .data          0x00000000        0x0 c:/mesh/arm_gcc/bin/../lib/gcc/arm-none-eabi/6.3.1/../../../../arm-none-eabi/lib/thumb/v7e-m/fpv4-sp/hard\libg_nano.a(lib_a-impure.o)
 .bss           0x00000000        0x0 c:/mesh/arm_gcc/bin/../lib/gcc/arm-none-eabi/6.3.1/../../../../arm-none-eabi/lib/thumb/v7e-m/fpv4-sp/hard\libg_nano.a(lib_a-impure.o)
 .text          0x00000000        0x0 c:/mesh/arm_gcc/bin/../lib/gcc/arm-none-eabi/6.3.1/../../../../arm-none-eabi/lib/thumb/v7e-m/fpv4-sp/hard\libg_nano.a(lib_a-init.o)
 .data          0x00000000        0x0 c:/mesh/arm_gcc/bin/../lib/gcc/arm-none-eabi/6.3.1/../../../../arm-none-eabi/lib/thumb/v7e-m/fpv4-sp/hard\libg_nano.a(lib_a-init.o)
 .bss           0x00000000        0x0 c:/mesh/arm_gcc/bin/../lib/gcc/arm-none-eabi/6.3.1/../../../../arm-none-eabi/lib/thumb/v7e-m/fpv4-sp/hard\libg_nano.a(lib_a-init.o)
 .text          0x00000000        0x0 c:/mesh/arm_gcc/bin/../lib/gcc/arm-none-eabi/6.3.1/../../../../arm-none-eabi/lib/thumb/v7e-m/fpv4-sp/hard\libg_nano.a(lib_a-malloc.o)
 .data          0x00000000        0x0 c:/mesh/arm_gcc/bin/../lib/gcc/arm-none-eabi/6.3.1/../../../../arm-none-eabi/lib/thumb/v7e-m/fpv4-sp/hard\libg_nano.a(lib_a-malloc.o)
 .bss           0x00000000        0x0 c:/mesh/arm_gcc/bin/../lib/gcc/arm-none-eabi/6.3.1/../../../../arm-none-eabi/lib/thumb/v7e-m/fpv4-sp/hard\libg_nano.a(lib_a-malloc.o)
 .text          0x00000000        0x0 c:/mesh/arm_gcc/bin/../lib/gcc/arm-none-eabi/6.3.1/../../../../arm-none-eabi/lib/thumb/v7e-m/fpv4-sp/hard\libg_nano.a(lib_a-memcmp.o)
 .data          0x00000000        0x0 c:/mesh/arm_gcc/bin/../lib/gcc/arm-none-eabi/6.3.1/../../../../arm-none-eabi/lib/thumb/v7e-m/fpv4-sp/hard\libg_nano.a(lib_a-memcmp.o)
 .bss           0x00000000        0x0 c:/mesh/arm_gcc/bin/../lib/gcc/arm-none-eabi/6.3.1/../../../../arm-none-eabi/lib/thumb/v7e-m/fpv4-sp/hard\libg_nano.a(lib_a-memcmp.o)
 .text          0x00000000        0x0 c:/mesh/arm_gcc/bin/../lib/gcc/arm-none-eabi/6.3.1/../../../../arm-none-eabi/lib/thumb/v7e-m/fpv4-sp/hard\libg_nano.a(lib_a-memcpy-stub.o)
 .data          0x00000000        0x0 c:/mesh/arm_gcc/bin/../lib/gcc/arm-none-eabi/6.3.1/../../../../arm-none-eabi/lib/thumb/v7e-m/fpv4-sp/hard\libg_nano.a(lib_a-memcpy-stub.o)
 .bss           0x00000000        0x0 c:/mesh/arm_gcc/bin/../lib/gcc/arm-none-eabi/6.3.1/../../../../arm-none-eabi/lib/thumb/v7e-m/fpv4-sp/hard\libg_nano.a(lib_a-memcpy-stub.o)
 .text          0x00000000        0x0 c:/mesh/arm_gcc/bin/../lib/gcc/arm-none-eabi/6.3.1/../../../../arm-none-eabi/lib/thumb/v7e-m/fpv4-sp/hard\libg_nano.a(lib_a-memset.o)
 .data          0x00000000        0x0 c:/mesh/arm_gcc/bin/../lib/gcc/arm-none-eabi/6.3.1/../../../../arm-none-eabi/lib/thumb/v7e-m/fpv4-sp/hard\libg_nano.a(lib_a-memset.o)
 .bss           0x00000000        0x0 c:/mesh/arm_gcc/bin/../lib/gcc/arm-none-eabi/6.3.1/../../../../arm-none-eabi/lib/thumb/v7e-m/fpv4-sp/hard\libg_nano.a(lib_a-memset.o)
 .text          0x00000000        0x0 c:/mesh/arm_gcc/bin/../lib/gcc/arm-none-eabi/6.3.1/../../../../arm-none-eabi/lib/thumb/v7e-m/fpv4-sp/hard\libg_nano.a(lib_a-nano-freer.o)
 .data          0x00000000        0x0 c:/mesh/arm_gcc/bin/../lib/gcc/arm-none-eabi/6.3.1/../../../../arm-none-eabi/lib/thumb/v7e-m/fpv4-sp/hard\libg_nano.a(lib_a-nano-freer.o)
 .bss           0x00000000        0x0 c:/mesh/arm_gcc/bin/../lib/gcc/arm-none-eabi/6.3.1/../../../../arm-none-eabi/lib/thumb/v7e-m/fpv4-sp/hard\libg_nano.a(lib_a-nano-freer.o)
 .text          0x00000000        0x0 c:/mesh/arm_gcc/bin/../lib/gcc/arm-none-eabi/6.3.1/../../../../arm-none-eabi/lib/thumb/v7e-m/fpv4-sp/hard\libg_nano.a(lib_a-nano-mallocr.o)
 .data          0x00000000        0x0 c:/mesh/arm_gcc/bin/../lib/gcc/arm-none-eabi/6.3.1/../../../../arm-none-eabi/lib/thumb/v7e-m/fpv4-sp/hard\libg_nano.a(lib_a-nano-mallocr.o)
 .bss           0x00000000        0x0 c:/mesh/arm_gcc/bin/../lib/gcc/arm-none-eabi/6.3.1/../../../../arm-none-eabi/lib/thumb/v7e-m/fpv4-sp/hard\libg_nano.a(lib_a-nano-mallocr.o)
 .text          0x00000000        0x0 c:/mesh/arm_gcc/bin/../lib/gcc/arm-none-eabi/6.3.1/../../../../arm-none-eabi/lib/thumb/v7e-m/fpv4-sp/hard\libg_nano.a(lib_a-sbrkr.o)
 .data          0x00000000        0x0 c:/mesh/arm_gcc/bin/../lib/gcc/arm-none-eabi/6.3.1/../../../../arm-none-eabi/lib/thumb/v7e-m/fpv4-sp/hard\libg_nano.a(lib_a-sbrkr.o)
 .bss           0x00000000        0x0 c:/mesh/arm_gcc/bin/../lib/gcc/arm-none-eabi/6.3.1/../../../../arm-none-eabi/lib/thumb/v7e-m/fpv4-sp/hard\libg_nano.a(lib_a-sbrkr.o)
 .text          0x00000000        0x0 c:/mesh/arm_gcc/bin/../lib/gcc/arm-none-eabi/6.3.1/../../../../arm-none-eabi/lib/thumb/v7e-m/fpv4-sp/hard\libg_nano.a(lib_a-strcpy.o)
 .data          0x00000000        0x0 c:/mesh/arm_gcc/bin/../lib/gcc/arm-none-eabi/6.3.1/../../../../arm-none-eabi/lib/thumb/v7e-m/fpv4-sp/hard\libg_nano.a(lib_a-strcpy.o)
 .bss           0x00000000        0x0 c:/mesh/arm_gcc/bin/../lib/gcc/arm-none-eabi/6.3.1/../../../../arm-none-eabi/lib/thumb/v7e-m/fpv4-sp/hard\libg_nano.a(lib_a-strcpy.o)
 .data          0x00000000        0x0 c:/mesh/arm_gcc/bin/../lib/gcc/arm-none-eabi/6.3.1/../../../../arm-none-eabi/lib/thumb/v7e-m/fpv4-sp/hard\libg_nano.a(lib_a-strlen.o)
 .bss           0x00000000        0x0 c:/mesh/arm_gcc/bin/../lib/gcc/arm-none-eabi/6.3.1/../../../../arm-none-eabi/lib/thumb/v7e-m/fpv4-sp/hard\libg_nano.a(lib_a-strlen.o)
 .text          0x00000000        0x0 c:/mesh/arm_gcc/bin/../lib/gcc/arm-none-eabi/6.3.1/../../../../arm-none-eabi/lib/thumb/v7e-m/fpv4-sp/hard\libg_nano.a(lib_a-strrchr.o)
 .data          0x00000000        0x0 c:/mesh/arm_gcc/bin/../lib/gcc/arm-none-eabi/6.3.1/../../../../arm-none-eabi/lib/thumb/v7e-m/fpv4-sp/hard\libg_nano.a(lib_a-strrchr.o)
 .bss           0x00000000        0x0 c:/mesh/arm_gcc/bin/../lib/gcc/arm-none-eabi/6.3.1/../../../../arm-none-eabi/lib/thumb/v7e-m/fpv4-sp/hard\libg_nano.a(lib_a-strrchr.o)
 .text          0x00000000        0x0 c:/mesh/arm_gcc/bin/../lib/gcc/arm-none-eabi/6.3.1/../../../../arm-none-eabi/lib/thumb/v7e-m/fpv4-sp/hard\libg_nano.a(lib_a-mlock.o)
 .data          0x00000000        0x0 c:/mesh/arm_gcc/bin/../lib/gcc/arm-none-eabi/6.3.1/../../../../arm-none-eabi/lib/thumb/v7e-m/fpv4-sp/hard\libg_nano.a(lib_a-mlock.o)
 .bss           0x00000000        0x0 c:/mesh/arm_gcc/bin/../lib/gcc/arm-none-eabi/6.3.1/../../../../arm-none-eabi/lib/thumb/v7e-m/fpv4-sp/hard\libg_nano.a(lib_a-mlock.o)
 .text          0x00000000        0x0 c:/mesh/arm_gcc/bin/../lib/gcc/arm-none-eabi/6.3.1/../../../../arm-none-eabi/lib/thumb/v7e-m/fpv4-sp/hard\libg_nano.a(lib_a-reent.o)
 .data          0x00000000        0x0 c:/mesh/arm_gcc/bin/../lib/gcc/arm-none-eabi/6.3.1/../../../../arm-none-eabi/lib/thumb/v7e-m/fpv4-sp/hard\libg_nano.a(lib_a-reent.o)
 .bss           0x00000000        0x0 c:/mesh/arm_gcc/bin/../lib/gcc/arm-none-eabi/6.3.1/../../../../arm-none-eabi/lib/thumb/v7e-m/fpv4-sp/hard\libg_nano.a(lib_a-reent.o)
 .text.cleanup_glue
                0x00000000       0x1a c:/mesh/arm_gcc/bin/../lib/gcc/arm-none-eabi/6.3.1/../../../../arm-none-eabi/lib/thumb/v7e-m/fpv4-sp/hard\libg_nano.a(lib_a-reent.o)
 .text._reclaim_reent
                0x00000000       0xb8 c:/mesh/arm_gcc/bin/../lib/gcc/arm-none-eabi/6.3.1/../../../../arm-none-eabi/lib/thumb/v7e-m/fpv4-sp/hard\libg_nano.a(lib_a-reent.o)
 .text          0x00000000        0x0 c:/mesh/arm_gcc/bin/../lib/gcc/arm-none-eabi/6.3.1/../../../../arm-none-eabi/lib/thumb/v7e-m/fpv4-sp/hard\libg_nano.a(lib_a-strchr.o)
 .data          0x00000000        0x0 c:/mesh/arm_gcc/bin/../lib/gcc/arm-none-eabi/6.3.1/../../../../arm-none-eabi/lib/thumb/v7e-m/fpv4-sp/hard\libg_nano.a(lib_a-strchr.o)
 .bss           0x00000000        0x0 c:/mesh/arm_gcc/bin/../lib/gcc/arm-none-eabi/6.3.1/../../../../arm-none-eabi/lib/thumb/v7e-m/fpv4-sp/hard\libg_nano.a(lib_a-strchr.o)
 .text          0x00000000        0x0 c:/mesh/arm_gcc/bin/../lib/gcc/arm-none-eabi/6.3.1/thumb/v7e-m/fpv4-sp/hard/crtend.o
 .data          0x00000000        0x0 c:/mesh/arm_gcc/bin/../lib/gcc/arm-none-eabi/6.3.1/thumb/v7e-m/fpv4-sp/hard/crtend.o
 .bss           0x00000000        0x0 c:/mesh/arm_gcc/bin/../lib/gcc/arm-none-eabi/6.3.1/thumb/v7e-m/fpv4-sp/hard/crtend.o
 .text          0x00000000        0x0 c:/mesh/arm_gcc/bin/../lib/gcc/arm-none-eabi/6.3.1/thumb/v7e-m/fpv4-sp/hard/crtn.o
 .data          0x00000000        0x0 c:/mesh/arm_gcc/bin/../lib/gcc/arm-none-eabi/6.3.1/thumb/v7e-m/fpv4-sp/hard/crtn.o
 .bss           0x00000000        0x0 c:/mesh/arm_gcc/bin/../lib/gcc/arm-none-eabi/6.3.1/thumb/v7e-m/fpv4-sp/hard/crtn.o
 .text          0x00000000        0x0 c:/mesh/arm_gcc/bin/../lib/gcc/arm-none-eabi/6.3.1/../../../../arm-none-eabi/lib/thumb/v7e-m/fpv4-sp/hard\libnosys.a(sbrk.o)
 .data          0x00000000        0x0 c:/mesh/arm_gcc/bin/../lib/gcc/arm-none-eabi/6.3.1/../../../../arm-none-eabi/lib/thumb/v7e-m/fpv4-sp/hard\libnosys.a(sbrk.o)
 .bss           0x00000000        0x0 c:/mesh/arm_gcc/bin/../lib/gcc/arm-none-eabi/6.3.1/../../../../arm-none-eabi/lib/thumb/v7e-m/fpv4-sp/hard\libnosys.a(sbrk.o)
 .text          0x00000000        0x0 c:/mesh/arm_gcc/bin/../lib/gcc/arm-none-eabi/6.3.1/../../../../arm-none-eabi/lib/thumb/v7e-m/fpv4-sp/hard\libnosys.a(_exit.o)
 .data          0x00000000        0x0 c:/mesh/arm_gcc/bin/../lib/gcc/arm-none-eabi/6.3.1/../../../../arm-none-eabi/lib/thumb/v7e-m/fpv4-sp/hard\libnosys.a(_exit.o)
 .bss           0x00000000        0x0 c:/mesh/arm_gcc/bin/../lib/gcc/arm-none-eabi/6.3.1/../../../../arm-none-eabi/lib/thumb/v7e-m/fpv4-sp/hard\libnosys.a(_exit.o)

Memory Configuration

Name             Origin             Length             Attributes
FLASH            0x00026000         0x00051000         xr
RAM              0x200032c8         0x0000ca38         xrw
*default*        0x00000000         0xffffffff

Linker script and memory map


.text           0x00026000    0x13e74
 *(.isr_vector)
 .isr_vector    0x00026000      0x200 examples/dfu/CMakeFiles/dfu_no_serial_nrf52832_xxAA_s132_6.0.0.dir/C_/ver/mod/nRF5_SDK_15.0.0_a53641a/modules/nrfx/mdk/gcc_startup_nrf52.S.obj
                0x00026000                __isr_vector
 *(.text*)
 .text          0x00026200       0x6c c:/mesh/arm_gcc/bin/../lib/gcc/arm-none-eabi/6.3.1/thumb/v7e-m/fpv4-sp/hard/crtbegin.o
 .text          0x0002626c       0x74 c:/mesh/arm_gcc/bin/../lib/gcc/arm-none-eabi/6.3.1/../../../../arm-none-eabi/lib/thumb/v7e-m/fpv4-sp/hard/crt0.o
                0x0002626c                _start
                0x0002626c                _mainCRTStartup
 .text.sd_app_evt_wait
                0x000262e0        0x4 examples/dfu/CMakeFiles/dfu_no_serial_nrf52832_xxAA_s132_6.0.0.dir/src/main.c.obj
 .text.config_server_evt_cb
                0x000262e4       0x80 examples/dfu/CMakeFiles/dfu_no_serial_nrf52832_xxAA_s132_6.0.0.dir/src/main.c.obj
 .text.mesh_evt_handler
                0x00026364       0xd0 examples/dfu/CMakeFiles/dfu_no_serial_nrf52832_xxAA_s132_6.0.0.dir/src/main.c.obj
 .text.startup.main
                0x00026434      0x3a4 examples/dfu/CMakeFiles/dfu_no_serial_nrf52832_xxAA_s132_6.0.0.dir/src/main.c.obj
                0x00026434                main
 .text.mesh_evt_handler
                0x000267d8        0xe examples/dfu/CMakeFiles/dfu_no_serial_nrf52832_xxAA_s132_6.0.0.dir/__/__/mesh/stack/src/mesh_stack.c.obj
 .text.mesh_stack_start
                0x000267e6        0x4 examples/dfu/CMakeFiles/dfu_no_serial_nrf52832_xxAA_s132_6.0.0.dir/__/__/mesh/stack/src/mesh_stack.c.obj
                0x000267e6                mesh_stack_start
 .text.mesh_stack_provisioning_data_store
                0x000267ea       0x6c examples/dfu/CMakeFiles/dfu_no_serial_nrf52832_xxAA_s132_6.0.0.dir/__/__/mesh/stack/src/mesh_stack.c.obj
                0x000267ea                mesh_stack_provisioning_data_store
 .text.mesh_stack_config_clear
                0x00026856       0x12 examples/dfu/CMakeFiles/dfu_no_serial_nrf52832_xxAA_s132_6.0.0.dir/__/__/mesh/stack/src/mesh_stack.c.obj
                0x00026856                mesh_stack_config_clear
 .text.mesh_stack_is_device_provisioned
                0x00026868       0x18 examples/dfu/CMakeFiles/dfu_no_serial_nrf52832_xxAA_s132_6.0.0.dir/__/__/mesh/stack/src/mesh_stack.c.obj
                0x00026868                mesh_stack_is_device_provisioned
 .text.mesh_stack_init
                0x00026880       0x78 examples/dfu/CMakeFiles/dfu_no_serial_nrf52832_xxAA_s132_6.0.0.dir/__/__/mesh/stack/src/mesh_stack.c.obj
                0x00026880                mesh_stack_init
 .text.mesh_stack_device_reset
                0x000268f8       0x20 examples/dfu/CMakeFiles/dfu_no_serial_nrf52832_xxAA_s132_6.0.0.dir/__/__/mesh/stack/src/mesh_stack.c.obj
                0x000268f8                mesh_stack_device_reset
 .text.sd_evt_get
                0x00026918        0x4 examples/dfu/CMakeFiles/dfu_no_serial_nrf52832_xxAA_s132_6.0.0.dir/__/common/src/mesh_softdevice_init.c.obj
 .text.sd_softdevice_enable
                0x0002691c        0x4 examples/dfu/CMakeFiles/dfu_no_serial_nrf52832_xxAA_s132_6.0.0.dir/__/common/src/mesh_softdevice_init.c.obj
 .text.sd_ble_enable
                0x00026920        0x4 examples/dfu/CMakeFiles/dfu_no_serial_nrf52832_xxAA_s132_6.0.0.dir/__/common/src/mesh_softdevice_init.c.obj
 .text.SWI2_EGU2_IRQHandler
                0x00026924       0x18 examples/dfu/CMakeFiles/dfu_no_serial_nrf52832_xxAA_s132_6.0.0.dir/__/common/src/mesh_softdevice_init.c.obj
                0x00026924                SWI2_EGU2_IRQHandler
 .text.mesh_softdevice_init
                0x0002693c      0x1c0 examples/dfu/CMakeFiles/dfu_no_serial_nrf52832_xxAA_s132_6.0.0.dir/__/common/src/mesh_softdevice_init.c.obj
                0x0002693c                mesh_softdevice_init
 .text.provisionee_start
                0x00026afc       0x18 examples/dfu/CMakeFiles/dfu_no_serial_nrf52832_xxAA_s132_6.0.0.dir/__/common/src/mesh_provisionee.c.obj
 .text.prov_evt_handler
                0x00026b14       0x64 examples/dfu/CMakeFiles/dfu_no_serial_nrf52832_xxAA_s132_6.0.0.dir/__/common/src/mesh_provisionee.c.obj
 .text.mesh_provisionee_prov_start
                0x00026b78       0x78 examples/dfu/CMakeFiles/dfu_no_serial_nrf52832_xxAA_s132_6.0.0.dir/__/common/src/mesh_provisionee.c.obj
                0x00026b78                mesh_provisionee_prov_start
 .text.hal_led_mask_set
                0x00026bf0       0x12 examples/dfu/CMakeFiles/dfu_no_serial_nrf52832_xxAA_s132_6.0.0.dir/__/common/src/simple_hal.c.obj
                0x00026bf0                hal_led_mask_set
 *fill*         0x00026c02        0x2 
 .text.hal_led_blink_ms
                0x00026c04       0x44 examples/dfu/CMakeFiles/dfu_no_serial_nrf52832_xxAA_s132_6.0.0.dir/__/common/src/simple_hal.c.obj
                0x00026c04                hal_led_blink_ms
 .text.hal_leds_init
                0x00026c48       0x38 examples/dfu/CMakeFiles/dfu_no_serial_nrf52832_xxAA_s132_6.0.0.dir/__/common/src/simple_hal.c.obj
                0x00026c48                hal_leds_init
 .text.GPIOTE_IRQHandler
                0x00026c80       0x60 examples/dfu/CMakeFiles/dfu_no_serial_nrf52832_xxAA_s132_6.0.0.dir/__/common/src/simple_hal.c.obj
                0x00026c80                GPIOTE_IRQHandler
 .text.add_to_publication_list
                0x00026ce0       0x78 examples/dfu/CMakeFiles/dfu_no_serial_nrf52832_xxAA_s132_6.0.0.dir/__/__/mesh/access/src/access_publish.c.obj
 .text.step_resolution_to_us
                0x00026d58       0x38 examples/dfu/CMakeFiles/dfu_no_serial_nrf52832_xxAA_s132_6.0.0.dir/__/__/mesh/access/src/access_publish.c.obj
 .text.schedule_publication_timer
                0x00026d90      0x184 examples/dfu/CMakeFiles/dfu_no_serial_nrf52832_xxAA_s132_6.0.0.dir/__/__/mesh/access/src/access_publish.c.obj
 .text.publish_timer_tick
                0x00026f14       0xa8 examples/dfu/CMakeFiles/dfu_no_serial_nrf52832_xxAA_s132_6.0.0.dir/__/__/mesh/access/src/access_publish.c.obj
 .text.access_publish_init
                0x00026fbc       0x38 examples/dfu/CMakeFiles/dfu_no_serial_nrf52832_xxAA_s132_6.0.0.dir/__/__/mesh/access/src/access_publish.c.obj
                0x00026fbc                access_publish_init
 .text.access_publish_period_set
                0x00026ff4       0x60 examples/dfu/CMakeFiles/dfu_no_serial_nrf52832_xxAA_s132_6.0.0.dir/__/__/mesh/access/src/access_publish.c.obj
                0x00026ff4                access_publish_period_set
 .text.access_publish_period_get
                0x00027054       0x22 examples/dfu/CMakeFiles/dfu_no_serial_nrf52832_xxAA_s132_6.0.0.dir/__/__/mesh/access/src/access_publish.c.obj
                0x00027054                access_publish_period_get
 .text.bitfield_get
                0x00027076       0x1a examples/dfu/CMakeFiles/dfu_no_serial_nrf52832_xxAA_s132_6.0.0.dir/__/__/mesh/access/src/access.c.obj
 .text.is_valid_opcode
                0x00027090       0x42 examples/dfu/CMakeFiles/dfu_no_serial_nrf52832_xxAA_s132_6.0.0.dir/__/__/mesh/access/src/access.c.obj
 *fill*         0x000270d2        0x2 
 .text.model_handle_valid_and_allocated
                0x000270d4       0x20 examples/dfu/CMakeFiles/dfu_no_serial_nrf52832_xxAA_s132_6.0.0.dir/__/__/mesh/access/src/access.c.obj
 .text.flash_manager_mem_available
                0x000270f4        0x2 examples/dfu/CMakeFiles/dfu_no_serial_nrf52832_xxAA_s132_6.0.0.dir/__/__/mesh/access/src/access.c.obj
 *fill*         0x000270f6        0x2 
 .text.restore_acquired_subscription
                0x000270f8       0x30 examples/dfu/CMakeFiles/dfu_no_serial_nrf52832_xxAA_s132_6.0.0.dir/__/__/mesh/access/src/access.c.obj
 .text.restore_acquired_element
                0x00027128       0x1c examples/dfu/CMakeFiles/dfu_no_serial_nrf52832_xxAA_s132_6.0.0.dir/__/__/mesh/access/src/access.c.obj
 .text.restore_flash_data
                0x00027144       0x50 examples/dfu/CMakeFiles/dfu_no_serial_nrf52832_xxAA_s132_6.0.0.dir/__/__/mesh/access/src/access.c.obj
 .text.flash_invalidate_complete
                0x00027194        0x6 examples/dfu/CMakeFiles/dfu_no_serial_nrf52832_xxAA_s132_6.0.0.dir/__/__/mesh/access/src/access.c.obj
 *fill*         0x0002719a        0x2 
 .text.access_flash_config_clear
                0x0002719c       0x28 examples/dfu/CMakeFiles/dfu_no_serial_nrf52832_xxAA_s132_6.0.0.dir/__/__/mesh/access/src/access.c.obj
 .text.access_flash_config_store
                0x000271c4      0x14c examples/dfu/CMakeFiles/dfu_no_serial_nrf52832_xxAA_s132_6.0.0.dir/__/__/mesh/access/src/access.c.obj
                0x000271c4                access_flash_config_store
 .text.access_state_clear
                0x00027310       0x4c examples/dfu/CMakeFiles/dfu_no_serial_nrf52832_xxAA_s132_6.0.0.dir/__/__/mesh/access/src/access.c.obj
 .text.add_flash_manager
                0x0002735c       0x58 examples/dfu/CMakeFiles/dfu_no_serial_nrf52832_xxAA_s132_6.0.0.dir/__/__/mesh/access/src/access.c.obj
 .text.flash_remove_complete
                0x000273b4       0x5c examples/dfu/CMakeFiles/dfu_no_serial_nrf52832_xxAA_s132_6.0.0.dir/__/__/mesh/access/src/access.c.obj
 .text.flash_write_complete
                0x00027410       0x46 examples/dfu/CMakeFiles/dfu_no_serial_nrf52832_xxAA_s132_6.0.0.dir/__/__/mesh/access/src/access.c.obj
 *fill*         0x00027456        0x2 
 .text.unlikely.bitfield_next_get.part.0.constprop.4
                0x00027458       0x34 examples/dfu/CMakeFiles/dfu_no_serial_nrf52832_xxAA_s132_6.0.0.dir/__/__/mesh/access/src/access.c.obj
 .text.restore_acquired_model
                0x0002748c       0x94 examples/dfu/CMakeFiles/dfu_no_serial_nrf52832_xxAA_s132_6.0.0.dir/__/__/mesh/access/src/access.c.obj
 .text.handle_incoming
                0x00027520      0x144 examples/dfu/CMakeFiles/dfu_no_serial_nrf52832_xxAA_s132_6.0.0.dir/__/__/mesh/access/src/access.c.obj
 .text.mesh_evt_cb
                0x00027664      0x134 examples/dfu/CMakeFiles/dfu_no_serial_nrf52832_xxAA_s132_6.0.0.dir/__/__/mesh/access/src/access.c.obj
 .text.packet_tx
                0x00027798      0x380 examples/dfu/CMakeFiles/dfu_no_serial_nrf52832_xxAA_s132_6.0.0.dir/__/__/mesh/access/src/access.c.obj
 .text.access_flash_config_load
                0x00027b18      0x118 examples/dfu/CMakeFiles/dfu_no_serial_nrf52832_xxAA_s132_6.0.0.dir/__/__/mesh/access/src/access.c.obj
                0x00027b18                access_flash_config_load
 .text.access_clear
                0x00027c30       0x12 examples/dfu/CMakeFiles/dfu_no_serial_nrf52832_xxAA_s132_6.0.0.dir/__/__/mesh/access/src/access.c.obj
                0x00027c30                access_clear
 *fill*         0x00027c42        0x2 
 .text.access_init
                0x00027c44       0x28 examples/dfu/CMakeFiles/dfu_no_serial_nrf52832_xxAA_s132_6.0.0.dir/__/__/mesh/access/src/access.c.obj
                0x00027c44                access_init
 .text.access_model_add
                0x00027c6c      0x1b4 examples/dfu/CMakeFiles/dfu_no_serial_nrf52832_xxAA_s132_6.0.0.dir/__/__/mesh/access/src/access.c.obj
                0x00027c6c                access_model_add
 .text.access_model_publish
                0x00027e20        0xc examples/dfu/CMakeFiles/dfu_no_serial_nrf52832_xxAA_s132_6.0.0.dir/__/__/mesh/access/src/access.c.obj
                0x00027e20                access_model_publish
 .text.access_model_reply
                0x00027e2c       0x12 examples/dfu/CMakeFiles/dfu_no_serial_nrf52832_xxAA_s132_6.0.0.dir/__/__/mesh/access/src/access.c.obj
                0x00027e2c                access_model_reply
 *fill*         0x00027e3e        0x2 
 .text.access_model_publish_address_set
                0x00027e40       0x3c examples/dfu/CMakeFiles/dfu_no_serial_nrf52832_xxAA_s132_6.0.0.dir/__/__/mesh/access/src/access.c.obj
                0x00027e40                access_model_publish_address_set
 .text.access_model_publish_address_get
                0x00027e7c       0x28 examples/dfu/CMakeFiles/dfu_no_serial_nrf52832_xxAA_s132_6.0.0.dir/__/__/mesh/access/src/access.c.obj
                0x00027e7c                access_model_publish_address_get
 .text.access_model_publish_retransmit_set
                0x00027ea4       0x4c examples/dfu/CMakeFiles/dfu_no_serial_nrf52832_xxAA_s132_6.0.0.dir/__/__/mesh/access/src/access.c.obj
                0x00027ea4                access_model_publish_retransmit_set
 .text.access_model_publish_retransmit_get
                0x00027ef0       0x2c examples/dfu/CMakeFiles/dfu_no_serial_nrf52832_xxAA_s132_6.0.0.dir/__/__/mesh/access/src/access.c.obj
                0x00027ef0                access_model_publish_retransmit_get
 .text.access_model_publish_period_set
                0x00027f1c       0x6c examples/dfu/CMakeFiles/dfu_no_serial_nrf52832_xxAA_s132_6.0.0.dir/__/__/mesh/access/src/access.c.obj
                0x00027f1c                access_model_publish_period_set
 .text.access_model_publish_period_get
                0x00027f88       0x3c examples/dfu/CMakeFiles/dfu_no_serial_nrf52832_xxAA_s132_6.0.0.dir/__/__/mesh/access/src/access.c.obj
                0x00027f88                access_model_publish_period_get
 .text.access_model_subscription_add
                0x00027fc4       0x60 examples/dfu/CMakeFiles/dfu_no_serial_nrf52832_xxAA_s132_6.0.0.dir/__/__/mesh/access/src/access.c.obj
                0x00027fc4                access_model_subscription_add
 .text.access_model_subscription_remove
                0x00028024       0x60 examples/dfu/CMakeFiles/dfu_no_serial_nrf52832_xxAA_s132_6.0.0.dir/__/__/mesh/access/src/access.c.obj
                0x00028024                access_model_subscription_remove
 .text.access_model_subscriptions_get
                0x00028084       0x80 examples/dfu/CMakeFiles/dfu_no_serial_nrf52832_xxAA_s132_6.0.0.dir/__/__/mesh/access/src/access.c.obj
                0x00028084                access_model_subscriptions_get
 .text.access_model_application_bind
                0x00028104       0x50 examples/dfu/CMakeFiles/dfu_no_serial_nrf52832_xxAA_s132_6.0.0.dir/__/__/mesh/access/src/access.c.obj
                0x00028104                access_model_application_bind
 .text.access_model_application_unbind
                0x00028154       0x50 examples/dfu/CMakeFiles/dfu_no_serial_nrf52832_xxAA_s132_6.0.0.dir/__/__/mesh/access/src/access.c.obj
                0x00028154                access_model_application_unbind
 .text.access_model_applications_get
                0x000281a4       0x64 examples/dfu/CMakeFiles/dfu_no_serial_nrf52832_xxAA_s132_6.0.0.dir/__/__/mesh/access/src/access.c.obj
                0x000281a4                access_model_applications_get
 .text.access_model_publish_application_set
                0x00028208       0x3c examples/dfu/CMakeFiles/dfu_no_serial_nrf52832_xxAA_s132_6.0.0.dir/__/__/mesh/access/src/access.c.obj
                0x00028208                access_model_publish_application_set
 .text.access_model_publish_application_get
                0x00028244       0x28 examples/dfu/CMakeFiles/dfu_no_serial_nrf52832_xxAA_s132_6.0.0.dir/__/__/mesh/access/src/access.c.obj
                0x00028244                access_model_publish_application_get
 .text.access_default_ttl_set
                0x0002826c       0x18 examples/dfu/CMakeFiles/dfu_no_serial_nrf52832_xxAA_s132_6.0.0.dir/__/__/mesh/access/src/access.c.obj
                0x0002826c                access_default_ttl_set
 .text.access_default_ttl_get
                0x00028284        0xc examples/dfu/CMakeFiles/dfu_no_serial_nrf52832_xxAA_s132_6.0.0.dir/__/__/mesh/access/src/access.c.obj
                0x00028284                access_default_ttl_get
 .text.access_model_publish_ttl_set
                0x00028290       0x40 examples/dfu/CMakeFiles/dfu_no_serial_nrf52832_xxAA_s132_6.0.0.dir/__/__/mesh/access/src/access.c.obj
                0x00028290                access_model_publish_ttl_set
 .text.access_model_publish_ttl_get
                0x000282d0       0x28 examples/dfu/CMakeFiles/dfu_no_serial_nrf52832_xxAA_s132_6.0.0.dir/__/__/mesh/access/src/access.c.obj
                0x000282d0                access_model_publish_ttl_get
 .text.access_element_location_get
                0x000282f8       0x18 examples/dfu/CMakeFiles/dfu_no_serial_nrf52832_xxAA_s132_6.0.0.dir/__/__/mesh/access/src/access.c.obj
                0x000282f8                access_element_location_get
 .text.access_element_sig_model_count_get
                0x00028310       0x18 examples/dfu/CMakeFiles/dfu_no_serial_nrf52832_xxAA_s132_6.0.0.dir/__/__/mesh/access/src/access.c.obj
                0x00028310                access_element_sig_model_count_get
 .text.access_element_vendor_model_count_get
                0x00028328       0x18 examples/dfu/CMakeFiles/dfu_no_serial_nrf52832_xxAA_s132_6.0.0.dir/__/__/mesh/access/src/access.c.obj
                0x00028328                access_element_vendor_model_count_get
 .text.access_model_id_get
                0x00028340       0x2c examples/dfu/CMakeFiles/dfu_no_serial_nrf52832_xxAA_s132_6.0.0.dir/__/__/mesh/access/src/access.c.obj
                0x00028340                access_model_id_get
 .text.access_handle_get
                0x0002836c       0x54 examples/dfu/CMakeFiles/dfu_no_serial_nrf52832_xxAA_s132_6.0.0.dir/__/__/mesh/access/src/access.c.obj
                0x0002836c                access_handle_get
 .text.access_element_models_get
                0x000283c0       0x48 examples/dfu/CMakeFiles/dfu_no_serial_nrf52832_xxAA_s132_6.0.0.dir/__/__/mesh/access/src/access.c.obj
                0x000283c0                access_element_models_get
 .text.access_model_p_args_get
                0x00028408       0x28 examples/dfu/CMakeFiles/dfu_no_serial_nrf52832_xxAA_s132_6.0.0.dir/__/__/mesh/access/src/access.c.obj
                0x00028408                access_model_p_args_get
 .text.access_model_publication_stop
                0x00028430       0x70 examples/dfu/CMakeFiles/dfu_no_serial_nrf52832_xxAA_s132_6.0.0.dir/__/__/mesh/access/src/access.c.obj
                0x00028430                access_model_publication_stop
 .text.access_model_publication_by_appkey_stop
                0x000284a0       0x36 examples/dfu/CMakeFiles/dfu_no_serial_nrf52832_xxAA_s132_6.0.0.dir/__/__/mesh/access/src/access.c.obj
                0x000284a0                access_model_publication_by_appkey_stop
 *fill*         0x000284d6        0x2 
 .text.reliable_timer_cb
                0x000284d8      0x11c examples/dfu/CMakeFiles/dfu_no_serial_nrf52832_xxAA_s132_6.0.0.dir/__/__/mesh/access/src/access_reliable.c.obj
 .text.remove_and_reschedule
                0x000285f4       0xb8 examples/dfu/CMakeFiles/dfu_no_serial_nrf52832_xxAA_s132_6.0.0.dir/__/__/mesh/access/src/access_reliable.c.obj
 .text.access_reliable_message_rx_cb
                0x000286ac       0x68 examples/dfu/CMakeFiles/dfu_no_serial_nrf52832_xxAA_s132_6.0.0.dir/__/__/mesh/access/src/access_reliable.c.obj
                0x000286ac                access_reliable_message_rx_cb
 .text.access_reliable_init
                0x00028714       0x1c examples/dfu/CMakeFiles/dfu_no_serial_nrf52832_xxAA_s132_6.0.0.dir/__/__/mesh/access/src/access_reliable.c.obj
                0x00028714                access_reliable_init
 .text.access_reliable_cancel_all
                0x00028730       0x60 examples/dfu/CMakeFiles/dfu_no_serial_nrf52832_xxAA_s132_6.0.0.dir/__/__/mesh/access/src/access_reliable.c.obj
                0x00028730                access_reliable_cancel_all
 .text.access_model_reliable_cancel
                0x00028790       0x6c examples/dfu/CMakeFiles/dfu_no_serial_nrf52832_xxAA_s132_6.0.0.dir/__/__/mesh/access/src/access_reliable.c.obj
                0x00028790                access_model_reliable_cancel
 .text.bitfield_get
                0x000287fc       0x1a examples/dfu/CMakeFiles/dfu_no_serial_nrf52832_xxAA_s132_6.0.0.dir/__/__/mesh/access/src/device_state_manager.c.obj
 .text.bitfield_set
                0x00028816       0x18 examples/dfu/CMakeFiles/dfu_no_serial_nrf52832_xxAA_s132_6.0.0.dir/__/__/mesh/access/src/device_state_manager.c.obj
 .text.bitfield_clear
                0x0002882e       0x1a examples/dfu/CMakeFiles/dfu_no_serial_nrf52832_xxAA_s132_6.0.0.dir/__/__/mesh/access/src/device_state_manager.c.obj
 .text.bitfield_is_all_clear
                0x00028848       0x3c examples/dfu/CMakeFiles/dfu_no_serial_nrf52832_xxAA_s132_6.0.0.dir/__/__/mesh/access/src/device_state_manager.c.obj
 .text.address_handle_virtual_valid
                0x00028884       0x18 examples/dfu/CMakeFiles/dfu_no_serial_nrf52832_xxAA_s132_6.0.0.dir/__/__/mesh/access/src/device_state_manager.c.obj
 .text.net_key_handle_get
                0x0002889c       0x58 examples/dfu/CMakeFiles/dfu_no_serial_nrf52832_xxAA_s132_6.0.0.dir/__/__/mesh/access/src/device_state_manager.c.obj
 .text.dev_key_handle_get
                0x000288f4       0x30 examples/dfu/CMakeFiles/dfu_no_serial_nrf52832_xxAA_s132_6.0.0.dir/__/__/mesh/access/src/device_state_manager.c.obj
 .text.app_key_handle_get
                0x00028924       0x58 examples/dfu/CMakeFiles/dfu_no_serial_nrf52832_xxAA_s132_6.0.0.dir/__/__/mesh/access/src/device_state_manager.c.obj
 .text.addr_nonvirtual_to_flash_entry
                0x0002897c       0x10 examples/dfu/CMakeFiles/dfu_no_serial_nrf52832_xxAA_s132_6.0.0.dir/__/__/mesh/access/src/device_state_manager.c.obj
 .text.devkey_set
                0x0002898c       0x50 examples/dfu/CMakeFiles/dfu_no_serial_nrf52832_xxAA_s132_6.0.0.dir/__/__/mesh/access/src/device_state_manager.c.obj
 .text.devkey_to_dsm_entry
                0x000289dc       0x18 examples/dfu/CMakeFiles/dfu_no_serial_nrf52832_xxAA_s132_6.0.0.dir/__/__/mesh/access/src/device_state_manager.c.obj
 .text.devkey_to_flash_entry
                0x000289f4       0x28 examples/dfu/CMakeFiles/dfu_no_serial_nrf52832_xxAA_s132_6.0.0.dir/__/__/mesh/access/src/device_state_manager.c.obj
 .text.addr_virtual_to_flash_entry
                0x00028a1c       0x18 examples/dfu/CMakeFiles/dfu_no_serial_nrf52832_xxAA_s132_6.0.0.dir/__/__/mesh/access/src/device_state_manager.c.obj
 .text.addr_unicast_to_dsm_entry
                0x00028a34        0xc examples/dfu/CMakeFiles/dfu_no_serial_nrf52832_xxAA_s132_6.0.0.dir/__/__/mesh/access/src/device_state_manager.c.obj
 .text.addr_unicast_to_flash_entry
                0x00028a40       0x10 examples/dfu/CMakeFiles/dfu_no_serial_nrf52832_xxAA_s132_6.0.0.dir/__/__/mesh/access/src/device_state_manager.c.obj
 .text.flash_mem_listener_callback
                0x00028a50       0x14 examples/dfu/CMakeFiles/dfu_no_serial_nrf52832_xxAA_s132_6.0.0.dir/__/__/mesh/access/src/device_state_manager.c.obj
 .text.get_subnet_handle
                0x00028a64       0x40 examples/dfu/CMakeFiles/dfu_no_serial_nrf52832_xxAA_s132_6.0.0.dir/__/__/mesh/access/src/device_state_manager.c.obj
 .text.appkey_set
                0x00028aa4       0x70 examples/dfu/CMakeFiles/dfu_no_serial_nrf52832_xxAA_s132_6.0.0.dir/__/__/mesh/access/src/device_state_manager.c.obj
 .text.appkey_to_flash_entry
                0x00028b14       0x54 examples/dfu/CMakeFiles/dfu_no_serial_nrf52832_xxAA_s132_6.0.0.dir/__/__/mesh/access/src/device_state_manager.c.obj
 .text.subnet_to_flash_entry
                0x00028b68       0x60 examples/dfu/CMakeFiles/dfu_no_serial_nrf52832_xxAA_s132_6.0.0.dir/__/__/mesh/access/src/device_state_manager.c.obj
 .text.bitfield_clear_all
                0x00028bc8        0xe examples/dfu/CMakeFiles/dfu_no_serial_nrf52832_xxAA_s132_6.0.0.dir/__/__/mesh/access/src/device_state_manager.c.obj
 *fill*         0x00028bd6        0x2 
 .text.subnet_set
                0x00028bd8       0x98 examples/dfu/CMakeFiles/dfu_no_serial_nrf52832_xxAA_s132_6.0.0.dir/__/__/mesh/access/src/device_state_manager.c.obj
 .text.virtual_address_set
                0x00028c70       0x4c examples/dfu/CMakeFiles/dfu_no_serial_nrf52832_xxAA_s132_6.0.0.dir/__/__/mesh/access/src/device_state_manager.c.obj
 .text.addr_virtual_to_dsm_entry
                0x00028cbc        0xe examples/dfu/CMakeFiles/dfu_no_serial_nrf52832_xxAA_s132_6.0.0.dir/__/__/mesh/access/src/device_state_manager.c.obj
 *fill*         0x00028cca        0x2 
 .text.reset_flash_area
                0x00028ccc       0x28 examples/dfu/CMakeFiles/dfu_no_serial_nrf52832_xxAA_s132_6.0.0.dir/__/__/mesh/access/src/device_state_manager.c.obj
 .text.flash_save
                0x00028cf4       0x7c examples/dfu/CMakeFiles/dfu_no_serial_nrf52832_xxAA_s132_6.0.0.dir/__/__/mesh/access/src/device_state_manager.c.obj
 .text.flash_invalidate
                0x00028d70       0x64 examples/dfu/CMakeFiles/dfu_no_serial_nrf52832_xxAA_s132_6.0.0.dir/__/__/mesh/access/src/device_state_manager.c.obj
 .text.flash_update_all
                0x00028dd4       0x6c examples/dfu/CMakeFiles/dfu_no_serial_nrf52832_xxAA_s132_6.0.0.dir/__/__/mesh/access/src/device_state_manager.c.obj
 .text.virtual_address_uuid_index_get
                0x00028e40       0x60 examples/dfu/CMakeFiles/dfu_no_serial_nrf52832_xxAA_s132_6.0.0.dir/__/__/mesh/access/src/device_state_manager.c.obj
 .text.add_address_virtual
                0x00028ea0       0x74 examples/dfu/CMakeFiles/dfu_no_serial_nrf52832_xxAA_s132_6.0.0.dir/__/__/mesh/access/src/device_state_manager.c.obj
 .text.get_subnet_handle_by_beacon_info
                0x00028f14       0x30 examples/dfu/CMakeFiles/dfu_no_serial_nrf52832_xxAA_s132_6.0.0.dir/__/__/mesh/access/src/device_state_manager.c.obj
 .text.get_app_handle
                0x00028f44       0x44 examples/dfu/CMakeFiles/dfu_no_serial_nrf52832_xxAA_s132_6.0.0.dir/__/__/mesh/access/src/device_state_manager.c.obj
 .text.appkey_to_dsm_entry
                0x00028f88       0x68 examples/dfu/CMakeFiles/dfu_no_serial_nrf52832_xxAA_s132_6.0.0.dir/__/__/mesh/access/src/device_state_manager.c.obj
 .text.subnet_to_dsm_entry
                0x00028ff0       0x68 examples/dfu/CMakeFiles/dfu_no_serial_nrf52832_xxAA_s132_6.0.0.dir/__/__/mesh/access/src/device_state_manager.c.obj
 .text.flash_operation_complete
                0x00029058       0x4c examples/dfu/CMakeFiles/dfu_no_serial_nrf52832_xxAA_s132_6.0.0.dir/__/__/mesh/access/src/device_state_manager.c.obj
 .text.flash_invalidate_complete
                0x000290a4        0x8 examples/dfu/CMakeFiles/dfu_no_serial_nrf52832_xxAA_s132_6.0.0.dir/__/__/mesh/access/src/device_state_manager.c.obj
 .text.flash_write_complete
                0x000290ac        0x8 examples/dfu/CMakeFiles/dfu_no_serial_nrf52832_xxAA_s132_6.0.0.dir/__/__/mesh/access/src/device_state_manager.c.obj
 .text.add_address.part.8
                0x000290b4      0x164 examples/dfu/CMakeFiles/dfu_no_serial_nrf52832_xxAA_s132_6.0.0.dir/__/__/mesh/access/src/device_state_manager.c.obj
 .text.bitfield_next_get.part.0.constprop.17
                0x00029218       0x3c examples/dfu/CMakeFiles/dfu_no_serial_nrf52832_xxAA_s132_6.0.0.dir/__/__/mesh/access/src/device_state_manager.c.obj
 .text.address_handle_valid
                0x00029254       0x28 examples/dfu/CMakeFiles/dfu_no_serial_nrf52832_xxAA_s132_6.0.0.dir/__/__/mesh/access/src/device_state_manager.c.obj
 .text.address_handle_nonvirtual_valid
                0x0002927c       0x14 examples/dfu/CMakeFiles/dfu_no_serial_nrf52832_xxAA_s132_6.0.0.dir/__/__/mesh/access/src/device_state_manager.c.obj
 .text.address_delete_if_unused
                0x00029290       0x78 examples/dfu/CMakeFiles/dfu_no_serial_nrf52832_xxAA_s132_6.0.0.dir/__/__/mesh/access/src/device_state_manager.c.obj
 .text.addr_nonvirtual_to_dsm_entry
                0x00029308       0x38 examples/dfu/CMakeFiles/dfu_no_serial_nrf52832_xxAA_s132_6.0.0.dir/__/__/mesh/access/src/device_state_manager.c.obj
 .text.dsm_flash_config_load
                0x00029340      0x120 examples/dfu/CMakeFiles/dfu_no_serial_nrf52832_xxAA_s132_6.0.0.dir/__/__/mesh/access/src/device_state_manager.c.obj
                0x00029340                dsm_flash_config_load
 .text.dsm_flash_area_get
                0x00029460        0xc examples/dfu/CMakeFiles/dfu_no_serial_nrf52832_xxAA_s132_6.0.0.dir/__/__/mesh/access/src/device_state_manager.c.obj
                0x00029460                dsm_flash_area_get
 .text.build_flash_area
                0x0002946c       0x8c examples/dfu/CMakeFiles/dfu_no_serial_nrf52832_xxAA_s132_6.0.0.dir/__/__/mesh/access/src/device_state_manager.c.obj
 .text.flash_remove_complete
                0x000294f8        0x4 examples/dfu/CMakeFiles/dfu_no_serial_nrf52832_xxAA_s132_6.0.0.dir/__/__/mesh/access/src/device_state_manager.c.obj
 .text.dsm_clear
                0x000294fc       0xb4 examples/dfu/CMakeFiles/dfu_no_serial_nrf52832_xxAA_s132_6.0.0.dir/__/__/mesh/access/src/device_state_manager.c.obj
                0x000294fc                dsm_clear
 .text.dsm_init
                0x000295b0       0x3c examples/dfu/CMakeFiles/dfu_no_serial_nrf52832_xxAA_s132_6.0.0.dir/__/__/mesh/access/src/device_state_manager.c.obj
                0x000295b0                dsm_init
 .text.dsm_local_unicast_addresses_set
                0x000295ec       0x78 examples/dfu/CMakeFiles/dfu_no_serial_nrf52832_xxAA_s132_6.0.0.dir/__/__/mesh/access/src/device_state_manager.c.obj
                0x000295ec                dsm_local_unicast_addresses_set
 .text.dsm_local_unicast_addresses_get
                0x00029664       0x20 examples/dfu/CMakeFiles/dfu_no_serial_nrf52832_xxAA_s132_6.0.0.dir/__/__/mesh/access/src/device_state_manager.c.obj
                0x00029664                dsm_local_unicast_addresses_get
 .text.dsm_address_publish_add
                0x00029684        0xc examples/dfu/CMakeFiles/dfu_no_serial_nrf52832_xxAA_s132_6.0.0.dir/__/__/mesh/access/src/device_state_manager.c.obj
                0x00029684                dsm_address_publish_add
 .text.dsm_address_publish_add_handle
                0x00029690       0x38 examples/dfu/CMakeFiles/dfu_no_serial_nrf52832_xxAA_s132_6.0.0.dir/__/__/mesh/access/src/device_state_manager.c.obj
                0x00029690                dsm_address_publish_add_handle
 .text.dsm_address_publish_virtual_add
                0x000296c8        0x6 examples/dfu/CMakeFiles/dfu_no_serial_nrf52832_xxAA_s132_6.0.0.dir/__/__/mesh/access/src/device_state_manager.c.obj
                0x000296c8                dsm_address_publish_virtual_add
 *fill*         0x000296ce        0x2 
 .text.dsm_address_publish_remove
                0x000296d0       0x44 examples/dfu/CMakeFiles/dfu_no_serial_nrf52832_xxAA_s132_6.0.0.dir/__/__/mesh/access/src/device_state_manager.c.obj
                0x000296d0                dsm_address_publish_remove
 .text.dsm_address_subscription_add
                0x00029714        0xc examples/dfu/CMakeFiles/dfu_no_serial_nrf52832_xxAA_s132_6.0.0.dir/__/__/mesh/access/src/device_state_manager.c.obj
                0x00029714                dsm_address_subscription_add
 .text.dsm_address_subscription_virtual_add
                0x00029720        0x6 examples/dfu/CMakeFiles/dfu_no_serial_nrf52832_xxAA_s132_6.0.0.dir/__/__/mesh/access/src/device_state_manager.c.obj
                0x00029720                dsm_address_subscription_virtual_add
 *fill*         0x00029726        0x2 
 .text.dsm_address_subscription_add_handle
                0x00029728       0x38 examples/dfu/CMakeFiles/dfu_no_serial_nrf52832_xxAA_s132_6.0.0.dir/__/__/mesh/access/src/device_state_manager.c.obj
                0x00029728                dsm_address_subscription_add_handle
 .text.dsm_address_subscription_get
                0x00029760       0x34 examples/dfu/CMakeFiles/dfu_no_serial_nrf52832_xxAA_s132_6.0.0.dir/__/__/mesh/access/src/device_state_manager.c.obj
                0x00029760                dsm_address_subscription_get
 .text.dsm_address_get
                0x00029794       0x5c examples/dfu/CMakeFiles/dfu_no_serial_nrf52832_xxAA_s132_6.0.0.dir/__/__/mesh/access/src/device_state_manager.c.obj
                0x00029794                dsm_address_get
 .text.dsm_address_subscription_remove
                0x000297f0       0x5c examples/dfu/CMakeFiles/dfu_no_serial_nrf52832_xxAA_s132_6.0.0.dir/__/__/mesh/access/src/device_state_manager.c.obj
                0x000297f0                dsm_address_subscription_remove
 .text.dsm_address_handle_get
                0x0002984c       0x98 examples/dfu/CMakeFiles/dfu_no_serial_nrf52832_xxAA_s132_6.0.0.dir/__/__/mesh/access/src/device_state_manager.c.obj
                0x0002984c                dsm_address_handle_get
 .text.dsm_net_key_index_to_subnet_handle
                0x000298e4       0x1c examples/dfu/CMakeFiles/dfu_no_serial_nrf52832_xxAA_s132_6.0.0.dir/__/__/mesh/access/src/device_state_manager.c.obj
                0x000298e4                dsm_net_key_index_to_subnet_handle
 .text.dsm_subnet_handle_get
                0x00029900        0xc examples/dfu/CMakeFiles/dfu_no_serial_nrf52832_xxAA_s132_6.0.0.dir/__/__/mesh/access/src/device_state_manager.c.obj
                0x00029900                dsm_subnet_handle_get
 .text.dsm_appkey_index_to_appkey_handle
                0x0002990c       0x1c examples/dfu/CMakeFiles/dfu_no_serial_nrf52832_xxAA_s132_6.0.0.dir/__/__/mesh/access/src/device_state_manager.c.obj
                0x0002990c                dsm_appkey_index_to_appkey_handle
 .text.dsm_appkey_handle_get
                0x00029928        0xc examples/dfu/CMakeFiles/dfu_no_serial_nrf52832_xxAA_s132_6.0.0.dir/__/__/mesh/access/src/device_state_manager.c.obj
                0x00029928                dsm_appkey_handle_get
 .text.dsm_appkey_handle_to_appkey_index
                0x00029934       0x34 examples/dfu/CMakeFiles/dfu_no_serial_nrf52832_xxAA_s132_6.0.0.dir/__/__/mesh/access/src/device_state_manager.c.obj
                0x00029934                dsm_appkey_handle_to_appkey_index
 .text.dsm_appkey_handle_to_subnet_handle
                0x00029968       0xa0 examples/dfu/CMakeFiles/dfu_no_serial_nrf52832_xxAA_s132_6.0.0.dir/__/__/mesh/access/src/device_state_manager.c.obj
                0x00029968                dsm_appkey_handle_to_subnet_handle
 .text.dsm_subnet_add
                0x00029a08       0x78 examples/dfu/CMakeFiles/dfu_no_serial_nrf52832_xxAA_s132_6.0.0.dir/__/__/mesh/access/src/device_state_manager.c.obj
                0x00029a08                dsm_subnet_add
 .text.dsm_subnet_kr_phase_get
                0x00029a80       0x34 examples/dfu/CMakeFiles/dfu_no_serial_nrf52832_xxAA_s132_6.0.0.dir/__/__/mesh/access/src/device_state_manager.c.obj
                0x00029a80                dsm_subnet_kr_phase_get
 .text.dsm_subnet_update
                0x00029ab4       0xc8 examples/dfu/CMakeFiles/dfu_no_serial_nrf52832_xxAA_s132_6.0.0.dir/__/__/mesh/access/src/device_state_manager.c.obj
                0x00029ab4                dsm_subnet_update
 .text.dsm_subnet_update_swap_keys
                0x00029b7c       0x5c examples/dfu/CMakeFiles/dfu_no_serial_nrf52832_xxAA_s132_6.0.0.dir/__/__/mesh/access/src/device_state_manager.c.obj
                0x00029b7c                dsm_subnet_update_swap_keys
 .text.dsm_subnet_update_commit
                0x00029bd8       0xf4 examples/dfu/CMakeFiles/dfu_no_serial_nrf52832_xxAA_s132_6.0.0.dir/__/__/mesh/access/src/device_state_manager.c.obj
                0x00029bd8                dsm_subnet_update_commit
 .text.mesh_evt_handler
                0x00029ccc       0x4c examples/dfu/CMakeFiles/dfu_no_serial_nrf52832_xxAA_s132_6.0.0.dir/__/__/mesh/access/src/device_state_manager.c.obj
 .text.dsm_subnet_get_all
                0x00029d18       0x60 examples/dfu/CMakeFiles/dfu_no_serial_nrf52832_xxAA_s132_6.0.0.dir/__/__/mesh/access/src/device_state_manager.c.obj
                0x00029d18                dsm_subnet_get_all
 .text.dsm_devkey_add
                0x00029d78       0x7c examples/dfu/CMakeFiles/dfu_no_serial_nrf52832_xxAA_s132_6.0.0.dir/__/__/mesh/access/src/device_state_manager.c.obj
                0x00029d78                dsm_devkey_add
 .text.dsm_appkey_add
                0x00029df4       0x90 examples/dfu/CMakeFiles/dfu_no_serial_nrf52832_xxAA_s132_6.0.0.dir/__/__/mesh/access/src/device_state_manager.c.obj
                0x00029df4                dsm_appkey_add
 .text.dsm_appkey_update
                0x00029e84       0xa4 examples/dfu/CMakeFiles/dfu_no_serial_nrf52832_xxAA_s132_6.0.0.dir/__/__/mesh/access/src/device_state_manager.c.obj
                0x00029e84                dsm_appkey_update
 .text.dsm_appkey_delete
                0x00029f28       0x30 examples/dfu/CMakeFiles/dfu_no_serial_nrf52832_xxAA_s132_6.0.0.dir/__/__/mesh/access/src/device_state_manager.c.obj
                0x00029f28                dsm_appkey_delete
 .text.dsm_subnet_delete
                0x00029f58       0xac examples/dfu/CMakeFiles/dfu_no_serial_nrf52832_xxAA_s132_6.0.0.dir/__/__/mesh/access/src/device_state_manager.c.obj
                0x00029f58                dsm_subnet_delete
 .text.dsm_appkey_get_all
                0x0002a004       0x88 examples/dfu/CMakeFiles/dfu_no_serial_nrf52832_xxAA_s132_6.0.0.dir/__/__/mesh/access/src/device_state_manager.c.obj
                0x0002a004                dsm_appkey_get_all
 .text.dsm_tx_secmat_get
                0x0002a08c       0xc4 examples/dfu/CMakeFiles/dfu_no_serial_nrf52832_xxAA_s132_6.0.0.dir/__/__/mesh/access/src/device_state_manager.c.obj
                0x0002a08c                dsm_tx_secmat_get
 .text.dsm_net_secmat_from_keyindex_get
                0x0002a150       0x3c examples/dfu/CMakeFiles/dfu_no_serial_nrf52832_xxAA_s132_6.0.0.dir/__/__/mesh/access/src/device_state_manager.c.obj
                0x0002a150                dsm_net_secmat_from_keyindex_get
 .text.nrf_mesh_net_secmat_next_get
                0x0002a18c       0xb4 examples/dfu/CMakeFiles/dfu_no_serial_nrf52832_xxAA_s132_6.0.0.dir/__/__/mesh/access/src/device_state_manager.c.obj
                0x0002a18c                nrf_mesh_net_secmat_next_get
 .text.nrf_mesh_app_secmat_next_get
                0x0002a240       0x88 examples/dfu/CMakeFiles/dfu_no_serial_nrf52832_xxAA_s132_6.0.0.dir/__/__/mesh/access/src/device_state_manager.c.obj
                0x0002a240                nrf_mesh_app_secmat_next_get
 .text.nrf_mesh_devkey_secmat_get
                0x0002a2c8       0x28 examples/dfu/CMakeFiles/dfu_no_serial_nrf52832_xxAA_s132_6.0.0.dir/__/__/mesh/access/src/device_state_manager.c.obj
                0x0002a2c8                nrf_mesh_devkey_secmat_get
 .text.nrf_mesh_beacon_info_next_get
                0x0002a2f0       0xd4 examples/dfu/CMakeFiles/dfu_no_serial_nrf52832_xxAA_s132_6.0.0.dir/__/__/mesh/access/src/device_state_manager.c.obj
                0x0002a2f0                nrf_mesh_beacon_info_next_get
 .text.nrf_mesh_rx_address_get
                0x0002a3c4      0x118 examples/dfu/CMakeFiles/dfu_no_serial_nrf52832_xxAA_s132_6.0.0.dir/__/__/mesh/access/src/device_state_manager.c.obj
                0x0002a3c4                nrf_mesh_rx_address_get
 .text.nrf_mesh_unicast_address_get
                0x0002a4dc       0x20 examples/dfu/CMakeFiles/dfu_no_serial_nrf52832_xxAA_s132_6.0.0.dir/__/__/mesh/access/src/device_state_manager.c.obj
                0x0002a4dc                nrf_mesh_unicast_address_get
 .text.config_composition_data_get
                0x0002a4fc      0x186 examples/dfu/CMakeFiles/dfu_no_serial_nrf52832_xxAA_s132_6.0.0.dir/__/__/models/config/src/composition_data.c.obj
                0x0002a4fc                config_composition_data_get
 *fill*         0x0002a682        0x2 
 .text.app_evt_send
                0x0002a684       0x10 examples/dfu/CMakeFiles/dfu_no_serial_nrf52832_xxAA_s132_6.0.0.dir/__/__/models/config/src/config_server.c.obj
 .text.config_server_heartbeat_publication_count_decrement
                0x0002a694       0x1c examples/dfu/CMakeFiles/dfu_no_serial_nrf52832_xxAA_s132_6.0.0.dir/__/__/models/config/src/config_server.c.obj
 .text.get_element_index
                0x0002a6b0       0x26 examples/dfu/CMakeFiles/dfu_no_serial_nrf52832_xxAA_s132_6.0.0.dir/__/__/models/config/src/config_server.c.obj
 *fill*         0x0002a6d6        0x2 
 .text.config_server_heartbeat_publication_params_get
                0x0002a6d8       0x34 examples/dfu/CMakeFiles/dfu_no_serial_nrf52832_xxAA_s132_6.0.0.dir/__/__/models/config/src/config_server.c.obj
 .text.send_reply
                0x0002a70c       0x34 examples/dfu/CMakeFiles/dfu_no_serial_nrf52832_xxAA_s132_6.0.0.dir/__/__/models/config/src/config_server.c.obj
 .text.send_network_transmit_status
                0x0002a740       0x72 examples/dfu/CMakeFiles/dfu_no_serial_nrf52832_xxAA_s132_6.0.0.dir/__/__/models/config/src/config_server.c.obj
 .text.handle_config_network_transmit_set
                0x0002a7b2       0x82 examples/dfu/CMakeFiles/dfu_no_serial_nrf52832_xxAA_s132_6.0.0.dir/__/__/models/config/src/config_server.c.obj
 .text.handle_config_network_transmit_get
                0x0002a834        0xa examples/dfu/CMakeFiles/dfu_no_serial_nrf52832_xxAA_s132_6.0.0.dir/__/__/models/config/src/config_server.c.obj
 *fill*         0x0002a83e        0x2 
 .text.handle_node_reset
                0x0002a840       0x1c examples/dfu/CMakeFiles/dfu_no_serial_nrf52832_xxAA_s132_6.0.0.dir/__/__/models/config/src/config_server.c.obj
 .text.send_netkey_status
                0x0002a85c       0x22 examples/dfu/CMakeFiles/dfu_no_serial_nrf52832_xxAA_s132_6.0.0.dir/__/__/models/config/src/config_server.c.obj
 .text.send_relay_status
                0x0002a87e       0xa6 examples/dfu/CMakeFiles/dfu_no_serial_nrf52832_xxAA_s132_6.0.0.dir/__/__/models/config/src/config_server.c.obj
 .text.handle_config_relay_set
                0x0002a924       0xb6 examples/dfu/CMakeFiles/dfu_no_serial_nrf52832_xxAA_s132_6.0.0.dir/__/__/models/config/src/config_server.c.obj
 .text.handle_config_relay_get
                0x0002a9da        0xa examples/dfu/CMakeFiles/dfu_no_serial_nrf52832_xxAA_s132_6.0.0.dir/__/__/models/config/src/config_server.c.obj
 .text.send_subscription_status
                0x0002a9e4       0x3a examples/dfu/CMakeFiles/dfu_no_serial_nrf52832_xxAA_s132_6.0.0.dir/__/__/models/config/src/config_server.c.obj
 .text.handle_config_gatt_proxy_set
                0x0002aa1e       0x22 examples/dfu/CMakeFiles/dfu_no_serial_nrf52832_xxAA_s132_6.0.0.dir/__/__/models/config/src/config_server.c.obj
 .text.send_appkey_status
                0x0002aa40       0x30 examples/dfu/CMakeFiles/dfu_no_serial_nrf52832_xxAA_s132_6.0.0.dir/__/__/models/config/src/config_server.c.obj
 .text.handle_netkey_get
                0x0002aa70       0x4c examples/dfu/CMakeFiles/dfu_no_serial_nrf52832_xxAA_s132_6.0.0.dir/__/__/models/config/src/config_server.c.obj
 .text.handle_netkey_delete
                0x0002aabc       0xbc examples/dfu/CMakeFiles/dfu_no_serial_nrf52832_xxAA_s132_6.0.0.dir/__/__/models/config/src/config_server.c.obj
 .text.handle_netkey_add_update
                0x0002ab78       0x78 examples/dfu/CMakeFiles/dfu_no_serial_nrf52832_xxAA_s132_6.0.0.dir/__/__/models/config/src/config_server.c.obj
 .text.status_error_sub_send
                0x0002abf0      0x11e examples/dfu/CMakeFiles/dfu_no_serial_nrf52832_xxAA_s132_6.0.0.dir/__/__/models/config/src/config_server.c.obj
 .text.delete_all_subscriptions
                0x0002ad0e       0x66 examples/dfu/CMakeFiles/dfu_no_serial_nrf52832_xxAA_s132_6.0.0.dir/__/__/models/config/src/config_server.c.obj
 .text.send_publication_status
                0x0002ad74      0x16e examples/dfu/CMakeFiles/dfu_no_serial_nrf52832_xxAA_s132_6.0.0.dir/__/__/models/config/src/config_server.c.obj
 .text.handle_config_key_refresh_phase_set
                0x0002aee2       0xc6 examples/dfu/CMakeFiles/dfu_no_serial_nrf52832_xxAA_s132_6.0.0.dir/__/__/models/config/src/config_server.c.obj
 .text.handle_config_default_ttl_set
                0x0002afa8       0x4e examples/dfu/CMakeFiles/dfu_no_serial_nrf52832_xxAA_s132_6.0.0.dir/__/__/models/config/src/config_server.c.obj
 .text.send_net_beacon_state
                0x0002aff6       0x2a examples/dfu/CMakeFiles/dfu_no_serial_nrf52832_xxAA_s132_6.0.0.dir/__/__/models/config/src/config_server.c.obj
 .text.handle_config_beacon_get
                0x0002b020        0xa examples/dfu/CMakeFiles/dfu_no_serial_nrf52832_xxAA_s132_6.0.0.dir/__/__/models/config/src/config_server.c.obj
 *fill*         0x0002b02a        0x2 
 .text.handle_heartbeat_publication_set
                0x0002b02c      0x128 examples/dfu/CMakeFiles/dfu_no_serial_nrf52832_xxAA_s132_6.0.0.dir/__/__/models/config/src/config_server.c.obj
 .text.mesh_event_cb
                0x0002b154       0x64 examples/dfu/CMakeFiles/dfu_no_serial_nrf52832_xxAA_s132_6.0.0.dir/__/__/models/config/src/config_server.c.obj
 .text.handle_node_identity_set
                0x0002b1b8       0x32 examples/dfu/CMakeFiles/dfu_no_serial_nrf52832_xxAA_s132_6.0.0.dir/__/__/models/config/src/config_server.c.obj
 .text.handle_node_identity_get
                0x0002b1ea       0x2e examples/dfu/CMakeFiles/dfu_no_serial_nrf52832_xxAA_s132_6.0.0.dir/__/__/models/config/src/config_server.c.obj
 .text.handle_config_friend_set
                0x0002b218       0x22 examples/dfu/CMakeFiles/dfu_no_serial_nrf52832_xxAA_s132_6.0.0.dir/__/__/models/config/src/config_server.c.obj
 .text.status_error_pub_send
                0x0002b23a       0x9a examples/dfu/CMakeFiles/dfu_no_serial_nrf52832_xxAA_s132_6.0.0.dir/__/__/models/config/src/config_server.c.obj
 .text.handle_config_key_refresh_phase_get
                0x0002b2d4       0x54 examples/dfu/CMakeFiles/dfu_no_serial_nrf52832_xxAA_s132_6.0.0.dir/__/__/models/config/src/config_server.c.obj
 .text.handle_config_default_ttl_get
                0x0002b328       0x2a examples/dfu/CMakeFiles/dfu_no_serial_nrf52832_xxAA_s132_6.0.0.dir/__/__/models/config/src/config_server.c.obj
 .text.handle_config_beacon_set
                0x0002b352       0x42 examples/dfu/CMakeFiles/dfu_no_serial_nrf52832_xxAA_s132_6.0.0.dir/__/__/models/config/src/config_server.c.obj
 .text.handle_composition_data_get
                0x0002b394       0x4c examples/dfu/CMakeFiles/dfu_no_serial_nrf52832_xxAA_s132_6.0.0.dir/__/__/models/config/src/config_server.c.obj
 .text.handle_appkey_delete
                0x0002b3e0       0xc2 examples/dfu/CMakeFiles/dfu_no_serial_nrf52832_xxAA_s132_6.0.0.dir/__/__/models/config/src/config_server.c.obj
 .text.get_subscription_list.constprop.23
                0x0002b4a2       0x50 examples/dfu/CMakeFiles/dfu_no_serial_nrf52832_xxAA_s132_6.0.0.dir/__/__/models/config/src/config_server.c.obj
 .text.handle_appkey_get
                0x0002b4f2       0xb8 examples/dfu/CMakeFiles/dfu_no_serial_nrf52832_xxAA_s132_6.0.0.dir/__/__/models/config/src/config_server.c.obj
 .text.heartbeat_subscription_count_encode
                0x0002b5aa       0x26 examples/dfu/CMakeFiles/dfu_no_serial_nrf52832_xxAA_s132_6.0.0.dir/__/__/models/config/src/config_server.c.obj
 .text.handle_appkey_add
                0x0002b5d0       0xba examples/dfu/CMakeFiles/dfu_no_serial_nrf52832_xxAA_s132_6.0.0.dir/__/__/models/config/src/config_server.c.obj
 .text.handle_appkey_update
                0x0002b68a       0xbc examples/dfu/CMakeFiles/dfu_no_serial_nrf52832_xxAA_s132_6.0.0.dir/__/__/models/config/src/config_server.c.obj
 .text.heartbeat_pubsub_period_encode
                0x0002b746       0x26 examples/dfu/CMakeFiles/dfu_no_serial_nrf52832_xxAA_s132_6.0.0.dir/__/__/models/config/src/config_server.c.obj
 .text.handle_heartbeat_publication_get
                0x0002b76c       0x7c examples/dfu/CMakeFiles/dfu_no_serial_nrf52832_xxAA_s132_6.0.0.dir/__/__/models/config/src/config_server.c.obj
 .text.handle_heartbeat_subscription_get
                0x0002b7e8       0x82 examples/dfu/CMakeFiles/dfu_no_serial_nrf52832_xxAA_s132_6.0.0.dir/__/__/models/config/src/config_server.c.obj
 .text.handle_heartbeat_subscription_set
                0x0002b86a       0xa4 examples/dfu/CMakeFiles/dfu_no_serial_nrf52832_xxAA_s132_6.0.0.dir/__/__/models/config/src/config_server.c.obj
 .text.handle_config_model_publication_get
                0x0002b90e       0x94 examples/dfu/CMakeFiles/dfu_no_serial_nrf52832_xxAA_s132_6.0.0.dir/__/__/models/config/src/config_server.c.obj
 .text.handle_config_model_subscription_delete_all
                0x0002b9a2       0xca examples/dfu/CMakeFiles/dfu_no_serial_nrf52832_xxAA_s132_6.0.0.dir/__/__/models/config/src/config_server.c.obj
 .text.handle_config_gatt_proxy_get
                0x0002ba6c       0x20 examples/dfu/CMakeFiles/dfu_no_serial_nrf52832_xxAA_s132_6.0.0.dir/__/__/models/config/src/config_server.c.obj
 .text.handle_config_sig_model_subscription_get
                0x0002ba8c       0xc4 examples/dfu/CMakeFiles/dfu_no_serial_nrf52832_xxAA_s132_6.0.0.dir/__/__/models/config/src/config_server.c.obj
 .text.handle_config_vendor_model_subscription_get
                0x0002bb50      0x100 examples/dfu/CMakeFiles/dfu_no_serial_nrf52832_xxAA_s132_6.0.0.dir/__/__/models/config/src/config_server.c.obj
 .text.handle_config_model_subscription_virtual_address_delete
                0x0002bc50      0x110 examples/dfu/CMakeFiles/dfu_no_serial_nrf52832_xxAA_s132_6.0.0.dir/__/__/models/config/src/config_server.c.obj
 .text.handle_config_model_subscription_virtual_address_add
                0x0002bd60      0x10e examples/dfu/CMakeFiles/dfu_no_serial_nrf52832_xxAA_s132_6.0.0.dir/__/__/models/config/src/config_server.c.obj
 .text.handle_config_model_subscription_delete
                0x0002be6e      0x116 examples/dfu/CMakeFiles/dfu_no_serial_nrf52832_xxAA_s132_6.0.0.dir/__/__/models/config/src/config_server.c.obj
 .text.handle_config_model_subscription_add
                0x0002bf84      0x114 examples/dfu/CMakeFiles/dfu_no_serial_nrf52832_xxAA_s132_6.0.0.dir/__/__/models/config/src/config_server.c.obj
 .text.handle_model_app_get
                0x0002c098      0x19e examples/dfu/CMakeFiles/dfu_no_serial_nrf52832_xxAA_s132_6.0.0.dir/__/__/models/config/src/config_server.c.obj
 .text.handle_config_model_subscription_virtual_address_overwrite
                0x0002c236      0x128 examples/dfu/CMakeFiles/dfu_no_serial_nrf52832_xxAA_s132_6.0.0.dir/__/__/models/config/src/config_server.c.obj
 .text.handle_config_model_subscription_overwrite
                0x0002c35e      0x122 examples/dfu/CMakeFiles/dfu_no_serial_nrf52832_xxAA_s132_6.0.0.dir/__/__/models/config/src/config_server.c.obj
 .text.handle_model_app_bind_unbind
                0x0002c480      0x174 examples/dfu/CMakeFiles/dfu_no_serial_nrf52832_xxAA_s132_6.0.0.dir/__/__/models/config/src/config_server.c.obj
 .text.handle_config_friend_get
                0x0002c5f4       0x20 examples/dfu/CMakeFiles/dfu_no_serial_nrf52832_xxAA_s132_6.0.0.dir/__/__/models/config/src/config_server.c.obj
 .text.handle_config_model_publication_set
                0x0002c614      0x2ce examples/dfu/CMakeFiles/dfu_no_serial_nrf52832_xxAA_s132_6.0.0.dir/__/__/models/config/src/config_server.c.obj
 *fill*         0x0002c8e2        0x2 
 .text.config_server_init
                0x0002c8e4       0x64 examples/dfu/CMakeFiles/dfu_no_serial_nrf52832_xxAA_s132_6.0.0.dir/__/__/models/config/src/config_server.c.obj
                0x0002c8e4                config_server_init
 .text.config_server_bind
                0x0002c948       0x10 examples/dfu/CMakeFiles/dfu_no_serial_nrf52832_xxAA_s132_6.0.0.dir/__/__/models/config/src/config_server.c.obj
                0x0002c948                config_server_bind
 .text.packed_index_list_create
                0x0002c958       0x32 examples/dfu/CMakeFiles/dfu_no_serial_nrf52832_xxAA_s132_6.0.0.dir/__/__/models/config/src/packed_index_list.c.obj
                0x0002c958                packed_index_list_create
 *fill*         0x0002c98a        0x2 
 .text.attention_timer_set
                0x0002c98c       0x8c examples/dfu/CMakeFiles/dfu_no_serial_nrf52832_xxAA_s132_6.0.0.dir/__/__/models/health/src/health_server.c.obj
 .text.attention_timer_handler
                0x0002ca18       0x5c examples/dfu/CMakeFiles/dfu_no_serial_nrf52832_xxAA_s132_6.0.0.dir/__/__/models/health/src/health_server.c.obj
 .text.send_attention_status.isra.1
                0x0002ca74       0x44 examples/dfu/CMakeFiles/dfu_no_serial_nrf52832_xxAA_s132_6.0.0.dir/__/__/models/health/src/health_server.c.obj
 .text.handle_attention_set
                0x0002cab8       0x32 examples/dfu/CMakeFiles/dfu_no_serial_nrf52832_xxAA_s132_6.0.0.dir/__/__/models/health/src/health_server.c.obj
 .text.send_period_status.isra.4
                0x0002caea       0x44 examples/dfu/CMakeFiles/dfu_no_serial_nrf52832_xxAA_s132_6.0.0.dir/__/__/models/health/src/health_server.c.obj
 .text.handle_period_set
                0x0002cb2e       0x28 examples/dfu/CMakeFiles/dfu_no_serial_nrf52832_xxAA_s132_6.0.0.dir/__/__/models/health/src/health_server.c.obj
 *fill*         0x0002cb56        0x2 
 .text.bitfield_next_get.part.0.constprop.13
                0x0002cb58       0x44 examples/dfu/CMakeFiles/dfu_no_serial_nrf52832_xxAA_s132_6.0.0.dir/__/__/models/health/src/health_server.c.obj
 .text.bitfield_popcount.constprop.11
                0x0002cb9c       0x28 examples/dfu/CMakeFiles/dfu_no_serial_nrf52832_xxAA_s132_6.0.0.dir/__/__/models/health/src/health_server.c.obj
 .text.send_fault_status
                0x0002cbc4       0xa8 examples/dfu/CMakeFiles/dfu_no_serial_nrf52832_xxAA_s132_6.0.0.dir/__/__/models/health/src/health_server.c.obj
 .text.health_publish_timeout_handler
                0x0002cc6c        0xa examples/dfu/CMakeFiles/dfu_no_serial_nrf52832_xxAA_s132_6.0.0.dir/__/__/models/health/src/health_server.c.obj
 .text.handle_fault_test
                0x0002cc76       0x68 examples/dfu/CMakeFiles/dfu_no_serial_nrf52832_xxAA_s132_6.0.0.dir/__/__/models/health/src/health_server.c.obj
 .text.handle_fault_get
                0x0002ccde       0x32 examples/dfu/CMakeFiles/dfu_no_serial_nrf52832_xxAA_s132_6.0.0.dir/__/__/models/health/src/health_server.c.obj
 .text.handle_fault_clear
                0x0002cd10       0x48 examples/dfu/CMakeFiles/dfu_no_serial_nrf52832_xxAA_s132_6.0.0.dir/__/__/models/health/src/health_server.c.obj
 .text.handle_attention_get
                0x0002cd58       0x14 examples/dfu/CMakeFiles/dfu_no_serial_nrf52832_xxAA_s132_6.0.0.dir/__/__/models/health/src/health_server.c.obj
 .text.handle_period_get
                0x0002cd6c       0x12 examples/dfu/CMakeFiles/dfu_no_serial_nrf52832_xxAA_s132_6.0.0.dir/__/__/models/health/src/health_server.c.obj
 *fill*         0x0002cd7e        0x2 
 .text.health_server_init
                0x0002cd80       0x6c examples/dfu/CMakeFiles/dfu_no_serial_nrf52832_xxAA_s132_6.0.0.dir/__/__/models/health/src/health_server.c.obj
                0x0002cd80                health_server_init
 .text.send_confirmation
                0x0002cdec       0x26 examples/dfu/CMakeFiles/dfu_no_serial_nrf52832_xxAA_s132_6.0.0.dir/__/__/mesh/prov/src/prov_provisioner.c.obj
 .text.prov_provisioner_auth_data
                0x0002ce12       0x6c examples/dfu/CMakeFiles/dfu_no_serial_nrf52832_xxAA_s132_6.0.0.dir/__/__/mesh/prov/src/prov_provisioner.c.obj
                0x0002ce12                prov_provisioner_auth_data
 .text.complete_provisioning
                0x0002ce7e       0x24 examples/dfu/CMakeFiles/dfu_no_serial_nrf52832_xxAA_s132_6.0.0.dir/__/__/mesh/prov/src/prov_provisionee.c.obj
 .text.prov_provisionee_cb_link_established
                0x0002cea2       0x36 examples/dfu/CMakeFiles/dfu_no_serial_nrf52832_xxAA_s132_6.0.0.dir/__/__/mesh/prov/src/prov_provisionee.c.obj
 .text.prov_provisionee_cb_link_closed
                0x0002ced8       0x34 examples/dfu/CMakeFiles/dfu_no_serial_nrf52832_xxAA_s132_6.0.0.dir/__/__/mesh/prov/src/prov_provisionee.c.obj
 .text.request_authentication
                0x0002cf0c       0x8a examples/dfu/CMakeFiles/dfu_no_serial_nrf52832_xxAA_s132_6.0.0.dir/__/__/mesh/prov/src/prov_provisionee.c.obj
 .text.send_failed
                0x0002cf96       0x3a examples/dfu/CMakeFiles/dfu_no_serial_nrf52832_xxAA_s132_6.0.0.dir/__/__/mesh/prov/src/prov_provisionee.c.obj
 .text.start_authentication
                0x0002cfd0       0x52 examples/dfu/CMakeFiles/dfu_no_serial_nrf52832_xxAA_s132_6.0.0.dir/__/__/mesh/prov/src/prov_provisionee.c.obj
 *fill*         0x0002d022        0x2 
 .text.prov_provisionee_cb_ack_received
                0x0002d024       0xc8 examples/dfu/CMakeFiles/dfu_no_serial_nrf52832_xxAA_s132_6.0.0.dir/__/__/mesh/prov/src/prov_provisionee.c.obj
 .text.prov_provisionee_pkt_in
                0x0002d0ec      0x2e4 examples/dfu/CMakeFiles/dfu_no_serial_nrf52832_xxAA_s132_6.0.0.dir/__/__/mesh/prov/src/prov_provisionee.c.obj
 .text.prov_provisionee_listen
                0x0002d3d0       0x30 examples/dfu/CMakeFiles/dfu_no_serial_nrf52832_xxAA_s132_6.0.0.dir/__/__/mesh/prov/src/prov_provisionee.c.obj
                0x0002d3d0                prov_provisionee_listen
 .text.prov_provisionee_auth_data
                0x0002d400       0x98 examples/dfu/CMakeFiles/dfu_no_serial_nrf52832_xxAA_s132_6.0.0.dir/__/__/mesh/prov/src/prov_provisionee.c.obj
                0x0002d400                prov_provisionee_auth_data
 .text.bearer_compare_callback
                0x0002d498        0xc examples/dfu/CMakeFiles/dfu_no_serial_nrf52832_xxAA_s132_6.0.0.dir/__/__/mesh/prov/src/nrf_mesh_prov.c.obj
 .text.bitfield_next_get.part.0.constprop.4
                0x0002d4a4       0x34 examples/dfu/CMakeFiles/dfu_no_serial_nrf52832_xxAA_s132_6.0.0.dir/__/__/mesh/prov/src/nrf_mesh_prov.c.obj
 .text.nrf_mesh_prov_init
                0x0002d4d8       0x32 examples/dfu/CMakeFiles/dfu_no_serial_nrf52832_xxAA_s132_6.0.0.dir/__/__/mesh/prov/src/nrf_mesh_prov.c.obj
                0x0002d4d8                nrf_mesh_prov_init
 *fill*         0x0002d50a        0x2 
 .text.nrf_mesh_prov_bearer_add
                0x0002d50c       0x28 examples/dfu/CMakeFiles/dfu_no_serial_nrf52832_xxAA_s132_6.0.0.dir/__/__/mesh/prov/src/nrf_mesh_prov.c.obj
                0x0002d50c                nrf_mesh_prov_bearer_add
 .text.nrf_mesh_prov_generate_keys
                0x0002d534        0x4 examples/dfu/CMakeFiles/dfu_no_serial_nrf52832_xxAA_s132_6.0.0.dir/__/__/mesh/prov/src/nrf_mesh_prov.c.obj
                0x0002d534                nrf_mesh_prov_generate_keys
 .text.nrf_mesh_prov_listen_stop
                0x0002d538       0x2e examples/dfu/CMakeFiles/dfu_no_serial_nrf52832_xxAA_s132_6.0.0.dir/__/__/mesh/prov/src/nrf_mesh_prov.c.obj
                0x0002d538                nrf_mesh_prov_listen_stop
 .text.nrf_mesh_prov_listen
                0x0002d566       0x88 examples/dfu/CMakeFiles/dfu_no_serial_nrf52832_xxAA_s132_6.0.0.dir/__/__/mesh/prov/src/nrf_mesh_prov.c.obj
                0x0002d566                nrf_mesh_prov_listen
 .text.nrf_mesh_prov_auth_data_provide
                0x0002d5ee        0xe examples/dfu/CMakeFiles/dfu_no_serial_nrf52832_xxAA_s132_6.0.0.dir/__/__/mesh/prov/src/nrf_mesh_prov.c.obj
                0x0002d5ee                nrf_mesh_prov_auth_data_provide
 .text.send_data
                0x0002d5fc       0x28 examples/dfu/CMakeFiles/dfu_no_serial_nrf52832_xxAA_s132_6.0.0.dir/__/__/mesh/prov/src/provisioning.c.obj
 .text.prov_packet_length_valid
                0x0002d624       0x1c examples/dfu/CMakeFiles/dfu_no_serial_nrf52832_xxAA_s132_6.0.0.dir/__/__/mesh/prov/src/provisioning.c.obj
                0x0002d624                prov_packet_length_valid
 .text.prov_tx_capabilities
                0x0002d640       0x1e examples/dfu/CMakeFiles/dfu_no_serial_nrf52832_xxAA_s132_6.0.0.dir/__/__/mesh/prov/src/provisioning.c.obj
                0x0002d640                prov_tx_capabilities
 .text.prov_tx_public_key
                0x0002d65e       0x26 examples/dfu/CMakeFiles/dfu_no_serial_nrf52832_xxAA_s132_6.0.0.dir/__/__/mesh/prov/src/provisioning.c.obj
                0x0002d65e                prov_tx_public_key
 .text.prov_tx_input_complete
                0x0002d684       0x16 examples/dfu/CMakeFiles/dfu_no_serial_nrf52832_xxAA_s132_6.0.0.dir/__/__/mesh/prov/src/provisioning.c.obj
                0x0002d684                prov_tx_input_complete
 .text.prov_tx_confirmation
                0x0002d69a       0x26 examples/dfu/CMakeFiles/dfu_no_serial_nrf52832_xxAA_s132_6.0.0.dir/__/__/mesh/prov/src/provisioning.c.obj
                0x0002d69a                prov_tx_confirmation
 .text.prov_tx_random
                0x0002d6c0       0x26 examples/dfu/CMakeFiles/dfu_no_serial_nrf52832_xxAA_s132_6.0.0.dir/__/__/mesh/prov/src/provisioning.c.obj
                0x0002d6c0                prov_tx_random
 .text.prov_tx_complete
                0x0002d6e6       0x16 examples/dfu/CMakeFiles/dfu_no_serial_nrf52832_xxAA_s132_6.0.0.dir/__/__/mesh/prov/src/provisioning.c.obj
                0x0002d6e6                prov_tx_complete
 .text.prov_tx_failed
                0x0002d6fc       0x1a examples/dfu/CMakeFiles/dfu_no_serial_nrf52832_xxAA_s132_6.0.0.dir/__/__/mesh/prov/src/provisioning.c.obj
                0x0002d6fc                prov_tx_failed
 .text.prov_beacon_unprov_build
                0x0002d716       0x54 examples/dfu/CMakeFiles/dfu_no_serial_nrf52832_xxAA_s132_6.0.0.dir/__/__/mesh/prov/src/prov_beacon.c.obj
                0x0002d716                prov_beacon_unprov_build
 *fill*         0x0002d76a        0x2 
 .text.prov_beacon_unprov_packet_in
                0x0002d76c       0x88 examples/dfu/CMakeFiles/dfu_no_serial_nrf52832_xxAA_s132_6.0.0.dir/__/__/mesh/prov/src/prov_beacon.c.obj
                0x0002d76c                prov_beacon_unprov_packet_in
 .text.oob_gen_alphanumeric
                0x0002d7f4       0x34 examples/dfu/CMakeFiles/dfu_no_serial_nrf52832_xxAA_s132_6.0.0.dir/__/__/mesh/prov/src/prov_utils.c.obj
 .text.oob_gen_numeric
                0x0002d828       0x3c examples/dfu/CMakeFiles/dfu_no_serial_nrf52832_xxAA_s132_6.0.0.dir/__/__/mesh/prov/src/prov_utils.c.obj
 .text.prov_utils_opt_set
                0x0002d864       0x20 examples/dfu/CMakeFiles/dfu_no_serial_nrf52832_xxAA_s132_6.0.0.dir/__/__/mesh/prov/src/prov_utils.c.obj
                0x0002d864                prov_utils_opt_set
 .text.prov_utils_opt_get
                0x0002d884       0x1c examples/dfu/CMakeFiles/dfu_no_serial_nrf52832_xxAA_s132_6.0.0.dir/__/__/mesh/prov/src/prov_utils.c.obj
                0x0002d884                prov_utils_opt_get
 .text.prov_utils_use_ecdh_offloading
                0x0002d8a0        0xc examples/dfu/CMakeFiles/dfu_no_serial_nrf52832_xxAA_s132_6.0.0.dir/__/__/mesh/prov/src/prov_utils.c.obj
                0x0002d8a0                prov_utils_use_ecdh_offloading
 .text.prov_utils_authentication_values_derive
                0x0002d8ac       0xa0 examples/dfu/CMakeFiles/dfu_no_serial_nrf52832_xxAA_s132_6.0.0.dir/__/__/mesh/prov/src/prov_utils.c.obj
                0x0002d8ac                prov_utils_authentication_values_derive
 .text.prov_utils_keys_generate
                0x0002d94c       0x1e examples/dfu/CMakeFiles/dfu_no_serial_nrf52832_xxAA_s132_6.0.0.dir/__/__/mesh/prov/src/prov_utils.c.obj
                0x0002d94c                prov_utils_keys_generate
 *fill*         0x0002d96a        0x2 
 .text.prov_utils_derive_keys
                0x0002d96c       0xac examples/dfu/CMakeFiles/dfu_no_serial_nrf52832_xxAA_s132_6.0.0.dir/__/__/mesh/prov/src/prov_utils.c.obj
                0x0002d96c                prov_utils_derive_keys
 .text.prov_utils_calculate_shared_secret
                0x0002da18       0x36 examples/dfu/CMakeFiles/dfu_no_serial_nrf52832_xxAA_s132_6.0.0.dir/__/__/mesh/prov/src/prov_utils.c.obj
                0x0002da18                prov_utils_calculate_shared_secret
 .text.prov_utils_generate_oob_data
                0x0002da4e       0x8a examples/dfu/CMakeFiles/dfu_no_serial_nrf52832_xxAA_s132_6.0.0.dir/__/__/mesh/prov/src/prov_utils.c.obj
                0x0002da4e                prov_utils_generate_oob_data
 .text.prov_utils_confirmation_check
                0x0002dad8       0x5c examples/dfu/CMakeFiles/dfu_no_serial_nrf52832_xxAA_s132_6.0.0.dir/__/__/mesh/prov/src/prov_utils.c.obj
                0x0002dad8                prov_utils_confirmation_check
 .text.link_timeout_cb
                0x0002db34       0x10 examples/dfu/CMakeFiles/dfu_no_serial_nrf52832_xxAA_s132_6.0.0.dir/__/__/mesh/prov/src/prov_bearer_adv.c.obj
 .text.remove_active_bearer
                0x0002db44       0x4c examples/dfu/CMakeFiles/dfu_no_serial_nrf52832_xxAA_s132_6.0.0.dir/__/__/mesh/prov/src/prov_bearer_adv.c.obj
 .text.close_link
                0x0002db90       0x58 examples/dfu/CMakeFiles/dfu_no_serial_nrf52832_xxAA_s132_6.0.0.dir/__/__/mesh/prov/src/prov_bearer_adv.c.obj
 .text.prov_bearer_adv_listen_stop
                0x0002dbe8       0x30 examples/dfu/CMakeFiles/dfu_no_serial_nrf52832_xxAA_s132_6.0.0.dir/__/__/mesh/prov/src/prov_bearer_adv.c.obj
 .text.send_packet
                0x0002dc18       0x5e examples/dfu/CMakeFiles/dfu_no_serial_nrf52832_xxAA_s132_6.0.0.dir/__/__/mesh/prov/src/prov_bearer_adv.c.obj
 .text.prov_buffer_tx
                0x0002dc76      0x134 examples/dfu/CMakeFiles/dfu_no_serial_nrf52832_xxAA_s132_6.0.0.dir/__/__/mesh/prov/src/prov_bearer_adv.c.obj
 .text.send_link_close
                0x0002ddaa       0x38 examples/dfu/CMakeFiles/dfu_no_serial_nrf52832_xxAA_s132_6.0.0.dir/__/__/mesh/prov/src/prov_bearer_adv.c.obj
 .text.prov_bearer_adv_link_close
                0x0002dde2       0x56 examples/dfu/CMakeFiles/dfu_no_serial_nrf52832_xxAA_s132_6.0.0.dir/__/__/mesh/prov/src/prov_bearer_adv.c.obj
 .text.send_transaction_ack
                0x0002de38       0x24 examples/dfu/CMakeFiles/dfu_no_serial_nrf52832_xxAA_s132_6.0.0.dir/__/__/mesh/prov/src/prov_bearer_adv.c.obj
 .text.send_link_ack
                0x0002de5c       0x32 examples/dfu/CMakeFiles/dfu_no_serial_nrf52832_xxAA_s132_6.0.0.dir/__/__/mesh/prov/src/prov_bearer_adv.c.obj
 .text.reset_timeout_timer
                0x0002de8e       0x1a examples/dfu/CMakeFiles/dfu_no_serial_nrf52832_xxAA_s132_6.0.0.dir/__/__/mesh/prov/src/prov_bearer_adv.c.obj
 .text.tx_complete_cb
                0x0002dea8       0x1c examples/dfu/CMakeFiles/dfu_no_serial_nrf52832_xxAA_s132_6.0.0.dir/__/__/mesh/prov/src/prov_bearer_adv.c.obj
 .text.tx_retry_cb
                0x0002dec4       0xcc examples/dfu/CMakeFiles/dfu_no_serial_nrf52832_xxAA_s132_6.0.0.dir/__/__/mesh/prov/src/prov_bearer_adv.c.obj
 .text.add_active_bearer
                0x0002df90       0x80 examples/dfu/CMakeFiles/dfu_no_serial_nrf52832_xxAA_s132_6.0.0.dir/__/__/mesh/prov/src/prov_bearer_adv.c.obj
 .text.prov_bearer_adv_link_open
                0x0002e010       0xec examples/dfu/CMakeFiles/dfu_no_serial_nrf52832_xxAA_s132_6.0.0.dir/__/__/mesh/prov/src/prov_bearer_adv.c.obj
 .text.async_process
                0x0002e0fc       0x50 examples/dfu/CMakeFiles/dfu_no_serial_nrf52832_xxAA_s132_6.0.0.dir/__/__/mesh/prov/src/prov_bearer_adv.c.obj
 .text.prov_bearer_adv_listen
                0x0002e14c       0xd8 examples/dfu/CMakeFiles/dfu_no_serial_nrf52832_xxAA_s132_6.0.0.dir/__/__/mesh/prov/src/prov_bearer_adv.c.obj
 .text.calculate_3GPP_CRC
                0x0002e224       0x24 examples/dfu/CMakeFiles/dfu_no_serial_nrf52832_xxAA_s132_6.0.0.dir/__/__/mesh/prov/src/prov_bearer_adv.c.obj
                0x0002e224                calculate_3GPP_CRC
 .text.prov_bearer_adv_tx
                0x0002e248       0xb4 examples/dfu/CMakeFiles/dfu_no_serial_nrf52832_xxAA_s132_6.0.0.dir/__/__/mesh/prov/src/prov_bearer_adv.c.obj
 .text.prov_buffer_rx
                0x0002e2fc       0x6e examples/dfu/CMakeFiles/dfu_no_serial_nrf52832_xxAA_s132_6.0.0.dir/__/__/mesh/prov/src/prov_bearer_adv.c.obj
 *fill*         0x0002e36a        0x2 
 .text.nrf_mesh_prov_bearer_adv_interface_get
                0x0002e36c       0x3c examples/dfu/CMakeFiles/dfu_no_serial_nrf52832_xxAA_s132_6.0.0.dir/__/__/mesh/prov/src/prov_bearer_adv.c.obj
                0x0002e36c                nrf_mesh_prov_bearer_adv_interface_get
 .text.prov_bearer_adv_packet_in
                0x0002e3a8      0x7f8 examples/dfu/CMakeFiles/dfu_no_serial_nrf52832_xxAA_s132_6.0.0.dir/__/__/mesh/prov/src/prov_bearer_adv.c.obj
                0x0002e3a8                prov_bearer_adv_packet_in
 .text.tx_complete_cb
                0x0002eba0        0x2 examples/dfu/CMakeFiles/dfu_no_serial_nrf52832_xxAA_s132_6.0.0.dir/__/__/mesh/dfu/src/nrf_mesh_dfu.c.obj
 *fill*         0x0002eba2        0x2 
 .text.reset_transfer_state
                0x0002eba4       0x24 examples/dfu/CMakeFiles/dfu_no_serial_nrf52832_xxAA_s132_6.0.0.dir/__/__/mesh/dfu/src/nrf_mesh_dfu.c.obj
 .text.end_transfer
                0x0002ebc8       0x48 examples/dfu/CMakeFiles/dfu_no_serial_nrf52832_xxAA_s132_6.0.0.dir/__/__/mesh/dfu/src/nrf_mesh_dfu.c.obj
 .text.dfu_evt_handler
                0x0002ec10      0x820 examples/dfu/CMakeFiles/dfu_no_serial_nrf52832_xxAA_s132_6.0.0.dir/__/__/mesh/dfu/src/nrf_mesh_dfu.c.obj
 .text.next_tx_timeout
                0x0002f430       0x58 examples/dfu/CMakeFiles/dfu_no_serial_nrf52832_xxAA_s132_6.0.0.dir/__/__/mesh/dfu/src/nrf_mesh_dfu.c.obj
 .text.tx_timeout
                0x0002f488       0xfc examples/dfu/CMakeFiles/dfu_no_serial_nrf52832_xxAA_s132_6.0.0.dir/__/__/mesh/dfu/src/nrf_mesh_dfu.c.obj
 .text.nrf_mesh_dfu_cmd_send
                0x0002f584       0x90 examples/dfu/CMakeFiles/dfu_no_serial_nrf52832_xxAA_s132_6.0.0.dir/__/__/mesh/dfu/src/nrf_mesh_dfu.c.obj
                0x0002f584                nrf_mesh_dfu_cmd_send
 .text.nrf_mesh_dfu_init
                0x0002f614      0x158 examples/dfu/CMakeFiles/dfu_no_serial_nrf52832_xxAA_s132_6.0.0.dir/__/__/mesh/dfu/src/nrf_mesh_dfu.c.obj
                0x0002f614                nrf_mesh_dfu_init
 .text.flash_op_complete
                0x0002f76c      0x14c examples/dfu/CMakeFiles/dfu_no_serial_nrf52832_xxAA_s132_6.0.0.dir/__/__/mesh/dfu/src/nrf_mesh_dfu.c.obj
 .text.abort_timeout
                0x0002f8b8       0x80 examples/dfu/CMakeFiles/dfu_no_serial_nrf52832_xxAA_s132_6.0.0.dir/__/__/mesh/dfu/src/nrf_mesh_dfu.c.obj
 .text.timer_timeout
                0x0002f938       0x7c examples/dfu/CMakeFiles/dfu_no_serial_nrf52832_xxAA_s132_6.0.0.dir/__/__/mesh/dfu/src/nrf_mesh_dfu.c.obj
 .text.nrf_mesh_dfu_rx
                0x0002f9b4       0xc8 examples/dfu/CMakeFiles/dfu_no_serial_nrf52832_xxAA_s132_6.0.0.dir/__/__/mesh/dfu/src/nrf_mesh_dfu.c.obj
                0x0002f9b4                nrf_mesh_dfu_rx
 .text.nrf_mesh_dfu_request
                0x0002fa7c       0x98 examples/dfu/CMakeFiles/dfu_no_serial_nrf52832_xxAA_s132_6.0.0.dir/__/__/mesh/dfu/src/nrf_mesh_dfu.c.obj
                0x0002fa7c                nrf_mesh_dfu_request
 .text.nrf_mesh_dfu_relay
                0x0002fb14       0x68 examples/dfu/CMakeFiles/dfu_no_serial_nrf52832_xxAA_s132_6.0.0.dir/__/__/mesh/dfu/src/nrf_mesh_dfu.c.obj
                0x0002fb14                nrf_mesh_dfu_relay
 .text.nrf_mesh_dfu_bank_flash
                0x0002fb7c       0x28 examples/dfu/CMakeFiles/dfu_no_serial_nrf52832_xxAA_s132_6.0.0.dir/__/__/mesh/dfu/src/nrf_mesh_dfu.c.obj
                0x0002fb7c                nrf_mesh_dfu_bank_flash
 .text.app_error_fault_handler
                0x0002fba4      0x204 examples/dfu/CMakeFiles/dfu_no_serial_nrf52832_xxAA_s132_6.0.0.dir/__/common/src/app_error_weak.c.obj
                0x0002fba4                app_error_fault_handler
 .text.mesh_assertion_handler
                0x0002fda8       0x24 examples/dfu/CMakeFiles/dfu_no_serial_nrf52832_xxAA_s132_6.0.0.dir/__/common/src/assertion_handler_weak.c.obj
                0x0002fda8                mesh_assertion_handler
 .text.nrf_mesh_configure_device_uuid_set
                0x0002fdcc       0x10 examples/dfu/CMakeFiles/dfu_no_serial_nrf52832_xxAA_s132_6.0.0.dir/__/__/mesh/core/src/nrf_mesh_configure.c.obj
                0x0002fdcc                nrf_mesh_configure_device_uuid_set
 .text.nrf_mesh_configure_device_uuid_reset
                0x0002fddc       0x28 examples/dfu/CMakeFiles/dfu_no_serial_nrf52832_xxAA_s132_6.0.0.dir/__/__/mesh/core/src/nrf_mesh_configure.c.obj
                0x0002fddc                nrf_mesh_configure_device_uuid_reset
 .text.nrf_mesh_configure_device_uuid_get
                0x0002fe04        0x8 examples/dfu/CMakeFiles/dfu_no_serial_nrf52832_xxAA_s132_6.0.0.dir/__/__/mesh/core/src/nrf_mesh_configure.c.obj
                0x0002fe04                nrf_mesh_configure_device_uuid_get
 .text.sd_ecb_block_encrypt
                0x0002fe0c        0x4 examples/dfu/CMakeFiles/dfu_no_serial_nrf52832_xxAA_s132_6.0.0.dir/__/__/mesh/core/src/aes.c.obj
 .text.aes_encrypt
                0x0002fe10       0x32 examples/dfu/CMakeFiles/dfu_no_serial_nrf52832_xxAA_s132_6.0.0.dir/__/__/mesh/core/src/aes.c.obj
                0x0002fe10                aes_encrypt
 *fill*         0x0002fe42        0x2 
 .text.msg_cache_init
                0x0002fe44       0x24 examples/dfu/CMakeFiles/dfu_no_serial_nrf52832_xxAA_s132_6.0.0.dir/__/__/mesh/core/src/msg_cache.c.obj
                0x0002fe44                msg_cache_init
 .text.msg_cache_entry_exists
                0x0002fe68       0x3c examples/dfu/CMakeFiles/dfu_no_serial_nrf52832_xxAA_s132_6.0.0.dir/__/__/mesh/core/src/msg_cache.c.obj
                0x0002fe68                msg_cache_entry_exists
 .text.msg_cache_entry_add
                0x0002fea4       0x2c examples/dfu/CMakeFiles/dfu_no_serial_nrf52832_xxAA_s132_6.0.0.dir/__/__/mesh/core/src/msg_cache.c.obj
                0x0002fea4                msg_cache_entry_add
 .text.seqauth_sequence_number_get
                0x0002fed0       0x12 examples/dfu/CMakeFiles/dfu_no_serial_nrf52832_xxAA_s132_6.0.0.dir/__/__/mesh/core/src/transport.c.obj
 *fill*         0x0002fee2        0x2 
 .text.control_packet_callback_get
                0x0002fee4       0x44 examples/dfu/CMakeFiles/dfu_no_serial_nrf52832_xxAA_s132_6.0.0.dir/__/__/mesh/core/src/transport.c.obj
 .text.tx_complete
                0x0002ff28       0x30 examples/dfu/CMakeFiles/dfu_no_serial_nrf52832_xxAA_s132_6.0.0.dir/__/__/mesh/core/src/transport.c.obj
 .text.block_ack_full
                0x0002ff58       0x1a examples/dfu/CMakeFiles/dfu_no_serial_nrf52832_xxAA_s132_6.0.0.dir/__/__/mesh/core/src/transport.c.obj
 *fill*         0x0002ff72        0x2 
 .text.sar_rx_session_mark_as_handled
                0x0002ff74       0x48 examples/dfu/CMakeFiles/dfu_no_serial_nrf52832_xxAA_s132_6.0.0.dir/__/__/mesh/core/src/transport.c.obj
 .text.upper_trs_packet_encrypt
                0x0002ffbc       0x90 examples/dfu/CMakeFiles/dfu_no_serial_nrf52832_xxAA_s132_6.0.0.dir/__/__/mesh/core/src/transport.c.obj
 .text.sar_ctx_free
                0x0003004c       0x3c examples/dfu/CMakeFiles/dfu_no_serial_nrf52832_xxAA_s132_6.0.0.dir/__/__/mesh/core/src/transport.c.obj
 .text.sar_ctx_tx_complete
                0x00030088       0x2e examples/dfu/CMakeFiles/dfu_no_serial_nrf52832_xxAA_s132_6.0.0.dir/__/__/mesh/core/src/transport.c.obj
 *fill*         0x000300b6        0x2 
 .text.sar_ctx_alloc
                0x000300b8       0xa4 examples/dfu/CMakeFiles/dfu_no_serial_nrf52832_xxAA_s132_6.0.0.dir/__/__/mesh/core/src/transport.c.obj
 .text.test_transport_decrypt
                0x0003015c       0x88 examples/dfu/CMakeFiles/dfu_no_serial_nrf52832_xxAA_s132_6.0.0.dir/__/__/mesh/core/src/transport.c.obj
 .text.upper_transport_access_packet_in
                0x000301e4      0x19c examples/dfu/CMakeFiles/dfu_no_serial_nrf52832_xxAA_s132_6.0.0.dir/__/__/mesh/core/src/transport.c.obj
 .text.trs_packet_header_build
                0x00030380       0xa6 examples/dfu/CMakeFiles/dfu_no_serial_nrf52832_xxAA_s132_6.0.0.dir/__/__/mesh/core/src/transport.c.obj
 *fill*         0x00030426        0x2 
 .text.tx_retry_timer_reset
                0x00030428       0x44 examples/dfu/CMakeFiles/dfu_no_serial_nrf52832_xxAA_s132_6.0.0.dir/__/__/mesh/core/src/transport.c.obj
 .text.sar_ctx_cancel
                0x0003046c       0xa8 examples/dfu/CMakeFiles/dfu_no_serial_nrf52832_xxAA_s132_6.0.0.dir/__/__/mesh/core/src/transport.c.obj
 .text.abort_timeout
                0x00030514        0x8 examples/dfu/CMakeFiles/dfu_no_serial_nrf52832_xxAA_s132_6.0.0.dir/__/__/mesh/core/src/transport.c.obj
 .text.trs_sar_packet_out
                0x0003051c       0xda examples/dfu/CMakeFiles/dfu_no_serial_nrf52832_xxAA_s132_6.0.0.dir/__/__/mesh/core/src/transport.c.obj
 .text.retry_timeout
                0x000305f6       0x46 examples/dfu/CMakeFiles/dfu_no_serial_nrf52832_xxAA_s132_6.0.0.dir/__/__/mesh/core/src/transport.c.obj
 .text.upper_transport_packet_in
                0x0003063c      0x150 examples/dfu/CMakeFiles/dfu_no_serial_nrf52832_xxAA_s132_6.0.0.dir/__/__/mesh/core/src/transport.c.obj
 .text.upper_transport_tx
                0x0003078c      0x1e4 examples/dfu/CMakeFiles/dfu_no_serial_nrf52832_xxAA_s132_6.0.0.dir/__/__/mesh/core/src/transport.c.obj
 .text.transport_sar_mem_funcs_reset
                0x00030970       0x28 examples/dfu/CMakeFiles/dfu_no_serial_nrf52832_xxAA_s132_6.0.0.dir/__/__/mesh/core/src/transport.c.obj
                0x00030970                transport_sar_mem_funcs_reset
 .text.transport_init
                0x00030998       0x8c examples/dfu/CMakeFiles/dfu_no_serial_nrf52832_xxAA_s132_6.0.0.dir/__/__/mesh/core/src/transport.c.obj
                0x00030998                transport_init
 .text.transport_tx
                0x00030a24       0xb4 examples/dfu/CMakeFiles/dfu_no_serial_nrf52832_xxAA_s132_6.0.0.dir/__/__/mesh/core/src/transport.c.obj
                0x00030a24                transport_tx
 .text.transport_control_tx
                0x00030ad8       0x8e examples/dfu/CMakeFiles/dfu_no_serial_nrf52832_xxAA_s132_6.0.0.dir/__/__/mesh/core/src/transport.c.obj
                0x00030ad8                transport_control_tx
 *fill*         0x00030b66        0x2 
 .text.sar_ack_send
                0x00030b68       0xa0 examples/dfu/CMakeFiles/dfu_no_serial_nrf52832_xxAA_s132_6.0.0.dir/__/__/mesh/core/src/transport.c.obj
 .text.transport_sar_process
                0x00030c08       0x74 examples/dfu/CMakeFiles/dfu_no_serial_nrf52832_xxAA_s132_6.0.0.dir/__/__/mesh/core/src/transport.c.obj
 .text.transport_packet_in
                0x00030c7c      0x434 examples/dfu/CMakeFiles/dfu_no_serial_nrf52832_xxAA_s132_6.0.0.dir/__/__/mesh/core/src/transport.c.obj
                0x00030c7c                transport_packet_in
 .text.ack_timeout
                0x000310b0       0x28 examples/dfu/CMakeFiles/dfu_no_serial_nrf52832_xxAA_s132_6.0.0.dir/__/__/mesh/core/src/transport.c.obj
 .text.transport_opt_set
                0x000310d8       0xd0 examples/dfu/CMakeFiles/dfu_no_serial_nrf52832_xxAA_s132_6.0.0.dir/__/__/mesh/core/src/transport.c.obj
                0x000310d8                transport_opt_set
 .text.transport_opt_get
                0x000311a8       0x68 examples/dfu/CMakeFiles/dfu_no_serial_nrf52832_xxAA_s132_6.0.0.dir/__/__/mesh/core/src/transport.c.obj
                0x000311a8                transport_opt_get
 .text.transport_control_packet_consumer_add
                0x00031210       0x5c examples/dfu/CMakeFiles/dfu_no_serial_nrf52832_xxAA_s132_6.0.0.dir/__/__/mesh/core/src/transport.c.obj
                0x00031210                transport_control_packet_consumer_add
 .text.event_handle
                0x0003126c       0x24 examples/dfu/CMakeFiles/dfu_no_serial_nrf52832_xxAA_s132_6.0.0.dir/__/__/mesh/core/src/event.c.obj
                0x0003126c                event_handle
 .text.event_handler_add
                0x00031290       0x1c examples/dfu/CMakeFiles/dfu_no_serial_nrf52832_xxAA_s132_6.0.0.dir/__/__/mesh/core/src/event.c.obj
                0x00031290                event_handler_add
 .text.event_handler_remove
                0x000312ac       0x1c examples/dfu/CMakeFiles/dfu_no_serial_nrf52832_xxAA_s132_6.0.0.dir/__/__/mesh/core/src/event.c.obj
                0x000312ac                event_handler_remove
 .text.m_index_increment
                0x000312c8       0x1e examples/dfu/CMakeFiles/dfu_no_serial_nrf52832_xxAA_s132_6.0.0.dir/__/__/mesh/core/src/packet_buffer.c.obj
 .text.packet_buffer_init
                0x000312e6       0xac examples/dfu/CMakeFiles/dfu_no_serial_nrf52832_xxAA_s132_6.0.0.dir/__/__/mesh/core/src/packet_buffer.c.obj
                0x000312e6                packet_buffer_init
 .text.packet_buffer_flush
                0x00031392       0x60 examples/dfu/CMakeFiles/dfu_no_serial_nrf52832_xxAA_s132_6.0.0.dir/__/__/mesh/core/src/packet_buffer.c.obj
                0x00031392                packet_buffer_flush
 .text.packet_buffer_reserve
                0x000313f2       0x96 examples/dfu/CMakeFiles/dfu_no_serial_nrf52832_xxAA_s132_6.0.0.dir/__/__/mesh/core/src/packet_buffer.c.obj
                0x000313f2                packet_buffer_reserve
 .text.packet_buffer_commit
                0x00031488       0x58 examples/dfu/CMakeFiles/dfu_no_serial_nrf52832_xxAA_s132_6.0.0.dir/__/__/mesh/core/src/packet_buffer.c.obj
                0x00031488                packet_buffer_commit
 .text.packet_buffer_pop
                0x000314e0       0x3c examples/dfu/CMakeFiles/dfu_no_serial_nrf52832_xxAA_s132_6.0.0.dir/__/__/mesh/core/src/packet_buffer.c.obj
                0x000314e0                packet_buffer_pop
 .text.packet_buffer_can_pop
                0x0003151c       0x1c examples/dfu/CMakeFiles/dfu_no_serial_nrf52832_xxAA_s132_6.0.0.dir/__/__/mesh/core/src/packet_buffer.c.obj
                0x0003151c                packet_buffer_can_pop
 .text.packet_buffer_packets_ready_to_pop
                0x00031538       0x3a examples/dfu/CMakeFiles/dfu_no_serial_nrf52832_xxAA_s132_6.0.0.dir/__/__/mesh/core/src/packet_buffer.c.obj
                0x00031538                packet_buffer_packets_ready_to_pop
 .text.packet_buffer_free
                0x00031572       0x6e examples/dfu/CMakeFiles/dfu_no_serial_nrf52832_xxAA_s132_6.0.0.dir/__/__/mesh/core/src/packet_buffer.c.obj
                0x00031572                packet_buffer_free
 .text.get_last_page
                0x000315e0       0x14 examples/dfu/CMakeFiles/dfu_no_serial_nrf52832_xxAA_s132_6.0.0.dir/__/__/mesh/core/src/flash_manager_defrag.c.obj
 .text.defrag_on_end
                0x000315f4       0x1c examples/dfu/CMakeFiles/dfu_no_serial_nrf52832_xxAA_s132_6.0.0.dir/__/__/mesh/core/src/flash_manager_defrag.c.obj
 .text.execute_procedure_step
                0x00031610       0x7c examples/dfu/CMakeFiles/dfu_no_serial_nrf52832_xxAA_s132_6.0.0.dir/__/__/mesh/core/src/flash_manager_defrag.c.obj
 .text.get_next_entry
                0x0003168c       0x34 examples/dfu/CMakeFiles/dfu_no_serial_nrf52832_xxAA_s132_6.0.0.dir/__/__/mesh/core/src/flash_manager_defrag.c.obj
 .text.get_next_data_entry
                0x000316c0       0x26 examples/dfu/CMakeFiles/dfu_no_serial_nrf52832_xxAA_s132_6.0.0.dir/__/__/mesh/core/src/flash_manager_defrag.c.obj
 *fill*         0x000316e6        0x2 
 .text.on_flash_op_end
                0x000316e8       0x30 examples/dfu/CMakeFiles/dfu_no_serial_nrf52832_xxAA_s132_6.0.0.dir/__/__/mesh/core/src/flash_manager_defrag.c.obj
 .text.check_for_invalid_entries
                0x00031718       0x38 examples/dfu/CMakeFiles/dfu_no_serial_nrf52832_xxAA_s132_6.0.0.dir/__/__/mesh/core/src/flash_manager_defrag.c.obj
 .text.erase_recovery_area
                0x00031750       0x34 examples/dfu/CMakeFiles/dfu_no_serial_nrf52832_xxAA_s132_6.0.0.dir/__/__/mesh/core/src/flash_manager_defrag.c.obj
 .text.flash.constprop.6
                0x00031784       0x24 examples/dfu/CMakeFiles/dfu_no_serial_nrf52832_xxAA_s132_6.0.0.dir/__/__/mesh/core/src/flash_manager_defrag.c.obj
 .text.seal_storage_page
                0x000317a8       0x50 examples/dfu/CMakeFiles/dfu_no_serial_nrf52832_xxAA_s132_6.0.0.dir/__/__/mesh/core/src/flash_manager_defrag.c.obj
 .text.invalidate_duplicate_entries
                0x000317f8       0x9c examples/dfu/CMakeFiles/dfu_no_serial_nrf52832_xxAA_s132_6.0.0.dir/__/__/mesh/core/src/flash_manager_defrag.c.obj
 .text.copy_metadata
                0x00031894       0x3c examples/dfu/CMakeFiles/dfu_no_serial_nrf52832_xxAA_s132_6.0.0.dir/__/__/mesh/core/src/flash_manager_defrag.c.obj
 .text.write_defrag_start_pointer
                0x000318d0       0x20 examples/dfu/CMakeFiles/dfu_no_serial_nrf52832_xxAA_s132_6.0.0.dir/__/__/mesh/core/src/flash_manager_defrag.c.obj
 .text.write_back
                0x000318f0       0x28 examples/dfu/CMakeFiles/dfu_no_serial_nrf52832_xxAA_s132_6.0.0.dir/__/__/mesh/core/src/flash_manager_defrag.c.obj
 .text.post_process
                0x00031918       0x40 examples/dfu/CMakeFiles/dfu_no_serial_nrf52832_xxAA_s132_6.0.0.dir/__/__/mesh/core/src/flash_manager_defrag.c.obj
 .text.backup_entries
                0x00031958       0xf8 examples/dfu/CMakeFiles/dfu_no_serial_nrf52832_xxAA_s132_6.0.0.dir/__/__/mesh/core/src/flash_manager_defrag.c.obj
 .text.erase_source
                0x00031a50       0x34 examples/dfu/CMakeFiles/dfu_no_serial_nrf52832_xxAA_s132_6.0.0.dir/__/__/mesh/core/src/flash_manager_defrag.c.obj
 .text.flash_manager_defrag_init
                0x00031a84       0x8c examples/dfu/CMakeFiles/dfu_no_serial_nrf52832_xxAA_s132_6.0.0.dir/__/__/mesh/core/src/flash_manager_defrag.c.obj
                0x00031a84                flash_manager_defrag_init
 .text.flash_manager_defrag_is_running
                0x00031b10       0x10 examples/dfu/CMakeFiles/dfu_no_serial_nrf52832_xxAA_s132_6.0.0.dir/__/__/mesh/core/src/flash_manager_defrag.c.obj
                0x00031b10                flash_manager_defrag_is_running
 .text.flash_manager_defrag
                0x00031b20       0x44 examples/dfu/CMakeFiles/dfu_no_serial_nrf52832_xxAA_s132_6.0.0.dir/__/__/mesh/core/src/flash_manager_defrag.c.obj
                0x00031b20                flash_manager_defrag
 .text.flash_manager_defrag_recovery_page_get
                0x00031b64        0xc examples/dfu/CMakeFiles/dfu_no_serial_nrf52832_xxAA_s132_6.0.0.dir/__/__/mesh/core/src/flash_manager_defrag.c.obj
                0x00031b64                flash_manager_defrag_recovery_page_get
 .text.fifo_init
                0x00031b70       0x34 examples/dfu/CMakeFiles/dfu_no_serial_nrf52832_xxAA_s132_6.0.0.dir/__/__/mesh/core/src/fifo.c.obj
                0x00031b70                fifo_init
 .text.fifo_push
                0x00031ba4       0x50 examples/dfu/CMakeFiles/dfu_no_serial_nrf52832_xxAA_s132_6.0.0.dir/__/__/mesh/core/src/fifo.c.obj
                0x00031ba4                fifo_push
 .text.fifo_pop
                0x00031bf4       0x52 examples/dfu/CMakeFiles/dfu_no_serial_nrf52832_xxAA_s132_6.0.0.dir/__/__/mesh/core/src/fifo.c.obj
                0x00031bf4                fifo_pop
 *fill*         0x00031c46        0x2 
 .text.wait_for_ready
                0x00031c48       0x10 examples/dfu/CMakeFiles/dfu_no_serial_nrf52832_xxAA_s132_6.0.0.dir/__/__/mesh/core/src/nrf_flash.c.obj
 .text.nrf_flash_erase
                0x00031c58       0x50 examples/dfu/CMakeFiles/dfu_no_serial_nrf52832_xxAA_s132_6.0.0.dir/__/__/mesh/core/src/nrf_flash.c.obj
                0x00031c58                nrf_flash_erase
 .text.nrf_flash_write
                0x00031ca8       0x50 examples/dfu/CMakeFiles/dfu_no_serial_nrf52832_xxAA_s132_6.0.0.dir/__/__/mesh/core/src/nrf_flash.c.obj
                0x00031ca8                nrf_flash_write
 .text.packet_mgr_init
                0x00031cf8       0x4c examples/dfu/CMakeFiles/dfu_no_serial_nrf52832_xxAA_s132_6.0.0.dir/__/__/mesh/core/src/packet_mgr.c.obj
                0x00031cf8                packet_mgr_init
 .text.flash_store_iv_index
                0x00031d44       0x38 examples/dfu/CMakeFiles/dfu_no_serial_nrf52832_xxAA_s132_6.0.0.dir/__/__/mesh/core/src/net_state.c.obj
 .text.flash_mem_available
                0x00031d7c       0x14 examples/dfu/CMakeFiles/dfu_no_serial_nrf52832_xxAA_s132_6.0.0.dir/__/__/mesh/core/src/net_state.c.obj
 .text.seqnum_block_allocate
                0x00031d90       0x4c examples/dfu/CMakeFiles/dfu_no_serial_nrf52832_xxAA_s132_6.0.0.dir/__/__/mesh/core/src/net_state.c.obj
 .text.net_state_reset
                0x00031ddc       0x3c examples/dfu/CMakeFiles/dfu_no_serial_nrf52832_xxAA_s132_6.0.0.dir/__/__/mesh/core/src/net_state.c.obj
                0x00031ddc                net_state_reset
 .text.flash_write_complete
                0x00031e18       0x64 examples/dfu/CMakeFiles/dfu_no_serial_nrf52832_xxAA_s132_6.0.0.dir/__/__/mesh/core/src/net_state.c.obj
 .text.net_state_recover_from_flash
                0x00031e7c       0x8c examples/dfu/CMakeFiles/dfu_no_serial_nrf52832_xxAA_s132_6.0.0.dir/__/__/mesh/core/src/net_state.c.obj
                0x00031e7c                net_state_recover_from_flash
 .text.net_state_flash_area_get
                0x00031f08        0xc examples/dfu/CMakeFiles/dfu_no_serial_nrf52832_xxAA_s132_6.0.0.dir/__/__/mesh/core/src/net_state.c.obj
                0x00031f08                net_state_flash_area_get
 .text.init_flash_storage
                0x00031f14       0x40 examples/dfu/CMakeFiles/dfu_no_serial_nrf52832_xxAA_s132_6.0.0.dir/__/__/mesh/core/src/net_state.c.obj
 .text.net_state_init
                0x00031f54       0x5c examples/dfu/CMakeFiles/dfu_no_serial_nrf52832_xxAA_s132_6.0.0.dir/__/__/mesh/core/src/net_state.c.obj
                0x00031f54                net_state_init
 .text.net_state_iv_update_start
                0x00031fb0       0x68 examples/dfu/CMakeFiles/dfu_no_serial_nrf52832_xxAA_s132_6.0.0.dir/__/__/mesh/core/src/net_state.c.obj
                0x00031fb0                net_state_iv_update_start
 .text.iv_update_trigger_if_pending
                0x00032018       0x80 examples/dfu/CMakeFiles/dfu_no_serial_nrf52832_xxAA_s132_6.0.0.dir/__/__/mesh/core/src/net_state.c.obj
 .text.mesh_evt_handler
                0x00032098       0xa0 examples/dfu/CMakeFiles/dfu_no_serial_nrf52832_xxAA_s132_6.0.0.dir/__/__/mesh/core/src/net_state.c.obj
 .text.iv_update_timer_handler
                0x00032138       0x68 examples/dfu/CMakeFiles/dfu_no_serial_nrf52832_xxAA_s132_6.0.0.dir/__/__/mesh/core/src/net_state.c.obj
 .text.net_state_seqnum_alloc
                0x000321a0       0x68 examples/dfu/CMakeFiles/dfu_no_serial_nrf52832_xxAA_s132_6.0.0.dir/__/__/mesh/core/src/net_state.c.obj
                0x000321a0                net_state_seqnum_alloc
 .text.net_state_iv_index_lock
                0x00032208       0x3c examples/dfu/CMakeFiles/dfu_no_serial_nrf52832_xxAA_s132_6.0.0.dir/__/__/mesh/core/src/net_state.c.obj
                0x00032208                net_state_iv_index_lock
 .text.net_state_key_refresh_phase_changed
                0x00032244       0x20 examples/dfu/CMakeFiles/dfu_no_serial_nrf52832_xxAA_s132_6.0.0.dir/__/__/mesh/core/src/net_state.c.obj
                0x00032244                net_state_key_refresh_phase_changed
 .text.net_state_beacon_iv_index_get
                0x00032264        0xc examples/dfu/CMakeFiles/dfu_no_serial_nrf52832_xxAA_s132_6.0.0.dir/__/__/mesh/core/src/net_state.c.obj
                0x00032264                net_state_beacon_iv_index_get
 .text.net_state_tx_iv_index_get
                0x00032270       0x14 examples/dfu/CMakeFiles/dfu_no_serial_nrf52832_xxAA_s132_6.0.0.dir/__/__/mesh/core/src/net_state.c.obj
                0x00032270                net_state_tx_iv_index_get
 .text.net_state_rx_iv_index_get
                0x00032284       0x18 examples/dfu/CMakeFiles/dfu_no_serial_nrf52832_xxAA_s132_6.0.0.dir/__/__/mesh/core/src/net_state.c.obj
                0x00032284                net_state_rx_iv_index_get
 .text.net_state_iv_update_get
                0x0003229c        0xc examples/dfu/CMakeFiles/dfu_no_serial_nrf52832_xxAA_s132_6.0.0.dir/__/__/mesh/core/src/net_state.c.obj
                0x0003229c                net_state_iv_update_get
 .text.net_state_iv_index_set
                0x000322a8       0x30 examples/dfu/CMakeFiles/dfu_no_serial_nrf52832_xxAA_s132_6.0.0.dir/__/__/mesh/core/src/net_state.c.obj
                0x000322a8                net_state_iv_index_set
 .text.send_end_events
                0x000322d8       0x84 examples/dfu/CMakeFiles/dfu_no_serial_nrf52832_xxAA_s132_6.0.0.dir/__/__/mesh/core/src/mesh_flash.c.obj
 .text.flash_op_schedule
                0x0003235c       0x88 examples/dfu/CMakeFiles/dfu_no_serial_nrf52832_xxAA_s132_6.0.0.dir/__/__/mesh/core/src/mesh_flash.c.obj
 .text.flash_op_start
                0x000323e4      0x13c examples/dfu/CMakeFiles/dfu_no_serial_nrf52832_xxAA_s132_6.0.0.dir/__/__/mesh/core/src/mesh_flash.c.obj
 .text.mesh_flash_init
                0x00032520       0x88 examples/dfu/CMakeFiles/dfu_no_serial_nrf52832_xxAA_s132_6.0.0.dir/__/__/mesh/core/src/mesh_flash.c.obj
                0x00032520                mesh_flash_init
 .text.mesh_flash_user_callback_set
                0x000325a8       0x20 examples/dfu/CMakeFiles/dfu_no_serial_nrf52832_xxAA_s132_6.0.0.dir/__/__/mesh/core/src/mesh_flash.c.obj
                0x000325a8                mesh_flash_user_callback_set
 .text.mesh_flash_op_push
                0x000325c8       0xe4 examples/dfu/CMakeFiles/dfu_no_serial_nrf52832_xxAA_s132_6.0.0.dir/__/__/mesh/core/src/mesh_flash.c.obj
                0x000325c8                mesh_flash_op_push
 .text.mesh_flash_in_progress
                0x000326ac       0x34 examples/dfu/CMakeFiles/dfu_no_serial_nrf52832_xxAA_s132_6.0.0.dir/__/__/mesh/core/src/mesh_flash.c.obj
                0x000326ac                mesh_flash_in_progress
 .text.mesh_flash_set_suspended
                0x000326e0       0x74 examples/dfu/CMakeFiles/dfu_no_serial_nrf52832_xxAA_s132_6.0.0.dir/__/__/mesh/core/src/mesh_flash.c.obj
                0x000326e0                mesh_flash_set_suspended
 .text.nrf_mesh_address_type_get
                0x00032754       0x10 examples/dfu/CMakeFiles/dfu_no_serial_nrf52832_xxAA_s132_6.0.0.dir/__/__/mesh/core/src/nrf_mesh_utils.c.obj
                0x00032754                nrf_mesh_address_type_get
 .text.sd_softdevice_is_enabled
                0x00032764        0x4 examples/dfu/CMakeFiles/dfu_no_serial_nrf52832_xxAA_s132_6.0.0.dir/__/__/mesh/core/src/nrf_mesh.c.obj
 .text.nrf_mesh_listen
                0x00032768      0x138 examples/dfu/CMakeFiles/dfu_no_serial_nrf52832_xxAA_s132_6.0.0.dir/__/__/mesh/core/src/nrf_mesh.c.obj
 .text.flash_stable_cb
                0x000328a0       0x20 examples/dfu/CMakeFiles/dfu_no_serial_nrf52832_xxAA_s132_6.0.0.dir/__/__/mesh/core/src/nrf_mesh.c.obj
 .text.scanner_packet_process_cb
                0x000328c0       0x8c examples/dfu/CMakeFiles/dfu_no_serial_nrf52832_xxAA_s132_6.0.0.dir/__/__/mesh/core/src/nrf_mesh.c.obj
 .text.nrf_mesh_init
                0x0003294c       0xd8 examples/dfu/CMakeFiles/dfu_no_serial_nrf52832_xxAA_s132_6.0.0.dir/__/__/mesh/core/src/nrf_mesh.c.obj
                0x0003294c                nrf_mesh_init
 .text.nrf_mesh_enable
                0x00032a24       0x3c examples/dfu/CMakeFiles/dfu_no_serial_nrf52832_xxAA_s132_6.0.0.dir/__/__/mesh/core/src/nrf_mesh.c.obj
                0x00032a24                nrf_mesh_enable
 .text.nrf_mesh_packet_send
                0x00032a60       0x7c examples/dfu/CMakeFiles/dfu_no_serial_nrf52832_xxAA_s132_6.0.0.dir/__/__/mesh/core/src/nrf_mesh.c.obj
                0x00032a60                nrf_mesh_packet_send
 .text.nrf_mesh_evt_handler_add
                0x00032adc        0x4 examples/dfu/CMakeFiles/dfu_no_serial_nrf52832_xxAA_s132_6.0.0.dir/__/__/mesh/core/src/nrf_mesh.c.obj
                0x00032adc                nrf_mesh_evt_handler_add
 .text.nrf_mesh_on_sd_evt
                0x00032ae0        0xa examples/dfu/CMakeFiles/dfu_no_serial_nrf52832_xxAA_s132_6.0.0.dir/__/__/mesh/core/src/nrf_mesh.c.obj
                0x00032ae0                nrf_mesh_on_sd_evt
 .text.nrf_mesh_subnet_added
                0x00032aea        0x2 examples/dfu/CMakeFiles/dfu_no_serial_nrf52832_xxAA_s132_6.0.0.dir/__/__/mesh/core/src/nrf_mesh.c.obj
                0x00032aea                nrf_mesh_subnet_added
 .text.queue_init
                0x00032aec       0x14 examples/dfu/CMakeFiles/dfu_no_serial_nrf52832_xxAA_s132_6.0.0.dir/__/__/mesh/core/src/queue.c.obj
                0x00032aec                queue_init
 .text.queue_push
                0x00032b00       0x34 examples/dfu/CMakeFiles/dfu_no_serial_nrf52832_xxAA_s132_6.0.0.dir/__/__/mesh/core/src/queue.c.obj
                0x00032b00                queue_push
 .text.queue_pop
                0x00032b34       0x26 examples/dfu/CMakeFiles/dfu_no_serial_nrf52832_xxAA_s132_6.0.0.dir/__/__/mesh/core/src/queue.c.obj
                0x00032b34                queue_pop
 .text.queue_peek
                0x00032b5a       0x10 examples/dfu/CMakeFiles/dfu_no_serial_nrf52832_xxAA_s132_6.0.0.dir/__/__/mesh/core/src/queue.c.obj
                0x00032b5a                queue_peek
 .text.sd_power_reset_reason_clr
                0x00032b6a        0x4 examples/dfu/CMakeFiles/dfu_no_serial_nrf52832_xxAA_s132_6.0.0.dir/__/__/mesh/core/src/hal.c.obj
 .text.sd_power_gpregret_set
                0x00032b6e        0x4 examples/dfu/CMakeFiles/dfu_no_serial_nrf52832_xxAA_s132_6.0.0.dir/__/__/mesh/core/src/hal.c.obj
 *fill*         0x00032b72        0x2 
 .text.hal_device_reset
                0x00032b74       0x38 examples/dfu/CMakeFiles/dfu_no_serial_nrf52832_xxAA_s132_6.0.0.dir/__/__/mesh/core/src/hal.c.obj
                0x00032b74                hal_device_reset
 .text.hal_lfclk_ppm_get
                0x00032bac       0x14 examples/dfu/CMakeFiles/dfu_no_serial_nrf52832_xxAA_s132_6.0.0.dir/__/__/mesh/core/src/hal.c.obj
                0x00032bac                hal_lfclk_ppm_get
 .text.my_xor.constprop.1
                0x00032bc0       0x20 examples/dfu/CMakeFiles/dfu_no_serial_nrf52832_xxAA_s132_6.0.0.dir/__/__/mesh/core/src/aes_cmac.c.obj
 .text.utils_lshift.constprop.2
                0x00032be0       0x24 examples/dfu/CMakeFiles/dfu_no_serial_nrf52832_xxAA_s132_6.0.0.dir/__/__/mesh/core/src/aes_cmac.c.obj
 .text.aes_cmac_subkey_generate
                0x00032c04       0x6c examples/dfu/CMakeFiles/dfu_no_serial_nrf52832_xxAA_s132_6.0.0.dir/__/__/mesh/core/src/aes_cmac.c.obj
                0x00032c04                aes_cmac_subkey_generate
 .text.aes_cmac
                0x00032c70       0xbc examples/dfu/CMakeFiles/dfu_no_serial_nrf52832_xxAA_s132_6.0.0.dir/__/__/mesh/core/src/aes_cmac.c.obj
                0x00032c70                aes_cmac
 .text.add_to_add_list
                0x00032d2c       0x30 examples/dfu/CMakeFiles/dfu_no_serial_nrf52832_xxAA_s132_6.0.0.dir/__/__/mesh/core/src/timer_scheduler.c.obj
 .text.process_dirty_events
                0x00032d5c       0x5c examples/dfu/CMakeFiles/dfu_no_serial_nrf52832_xxAA_s132_6.0.0.dir/__/__/mesh/core/src/timer_scheduler.c.obj
 .text.timer_cb
                0x00032db8        0xc examples/dfu/CMakeFiles/dfu_no_serial_nrf52832_xxAA_s132_6.0.0.dir/__/__/mesh/core/src/timer_scheduler.c.obj
 .text.add_evt.constprop.1
                0x00032dc4       0x58 examples/dfu/CMakeFiles/dfu_no_serial_nrf52832_xxAA_s132_6.0.0.dir/__/__/mesh/core/src/timer_scheduler.c.obj
 .text.process_add_list
                0x00032e1c       0x3c examples/dfu/CMakeFiles/dfu_no_serial_nrf52832_xxAA_s132_6.0.0.dir/__/__/mesh/core/src/timer_scheduler.c.obj
 .text.flag_event_cb
                0x00032e58       0xd8 examples/dfu/CMakeFiles/dfu_no_serial_nrf52832_xxAA_s132_6.0.0.dir/__/__/mesh/core/src/timer_scheduler.c.obj
 .text.timer_sch_init
                0x00032f30       0x24 examples/dfu/CMakeFiles/dfu_no_serial_nrf52832_xxAA_s132_6.0.0.dir/__/__/mesh/core/src/timer_scheduler.c.obj
                0x00032f30                timer_sch_init
 .text.timer_sch_schedule
                0x00032f54       0x3c examples/dfu/CMakeFiles/dfu_no_serial_nrf52832_xxAA_s132_6.0.0.dir/__/__/mesh/core/src/timer_scheduler.c.obj
                0x00032f54                timer_sch_schedule
 .text.timer_sch_abort
                0x00032f90       0x58 examples/dfu/CMakeFiles/dfu_no_serial_nrf52832_xxAA_s132_6.0.0.dir/__/__/mesh/core/src/timer_scheduler.c.obj
                0x00032f90                timer_sch_abort
 .text.timer_sch_reschedule
                0x00032fe8       0x64 examples/dfu/CMakeFiles/dfu_no_serial_nrf52832_xxAA_s132_6.0.0.dir/__/__/mesh/core/src/timer_scheduler.c.obj
                0x00032fe8                timer_sch_reschedule
 .text.timer_mut_unlock
                0x0003304c       0x10 examples/dfu/CMakeFiles/dfu_no_serial_nrf52832_xxAA_s132_6.0.0.dir/__/__/mesh/core/src/timer.c.obj
 .text.timer_order_cb
                0x0003305c       0x94 examples/dfu/CMakeFiles/dfu_no_serial_nrf52832_xxAA_s132_6.0.0.dir/__/__/mesh/core/src/timer.c.obj
                0x0003305c                timer_order_cb
 .text.timer_now
                0x000330f0       0x48 examples/dfu/CMakeFiles/dfu_no_serial_nrf52832_xxAA_s132_6.0.0.dir/__/__/mesh/core/src/timer.c.obj
                0x000330f0                timer_now
 .text.timer_event_handler
                0x00033138       0x84 examples/dfu/CMakeFiles/dfu_no_serial_nrf52832_xxAA_s132_6.0.0.dir/__/__/mesh/core/src/timer.c.obj
                0x00033138                timer_event_handler
 .text.timer_on_ts_begin
                0x000331bc       0xf4 examples/dfu/CMakeFiles/dfu_no_serial_nrf52832_xxAA_s132_6.0.0.dir/__/__/mesh/core/src/timer.c.obj
                0x000331bc                timer_on_ts_begin
 .text.timer_on_ts_end
                0x000332b0       0x60 examples/dfu/CMakeFiles/dfu_no_serial_nrf52832_xxAA_s132_6.0.0.dir/__/__/mesh/core/src/timer.c.obj
                0x000332b0                timer_on_ts_end
 .text.timer_cb
                0x00033310       0x10 examples/dfu/CMakeFiles/dfu_no_serial_nrf52832_xxAA_s132_6.0.0.dir/__/__/mesh/core/src/ticker.c.obj
 .text.ticker_init
                0x00033320       0x3c examples/dfu/CMakeFiles/dfu_no_serial_nrf52832_xxAA_s132_6.0.0.dir/__/__/mesh/core/src/ticker.c.obj
                0x00033320                ticker_init
 .text.sd_rand_application_bytes_available_get
                0x0003335c        0x4 examples/dfu/CMakeFiles/dfu_no_serial_nrf52832_xxAA_s132_6.0.0.dir/__/__/mesh/core/src/rand.c.obj
 .text.sd_rand_application_vector_get
                0x00033360        0x4 examples/dfu/CMakeFiles/dfu_no_serial_nrf52832_xxAA_s132_6.0.0.dir/__/__/mesh/core/src/rand.c.obj
 .text.rand_prng_get
                0x00033364       0x22 examples/dfu/CMakeFiles/dfu_no_serial_nrf52832_xxAA_s132_6.0.0.dir/__/__/mesh/core/src/rand.c.obj
                0x00033364                rand_prng_get
 .text.rand_hw_rng_get
                0x00033386       0x44 examples/dfu/CMakeFiles/dfu_no_serial_nrf52832_xxAA_s132_6.0.0.dir/__/__/mesh/core/src/rand.c.obj
                0x00033386                rand_hw_rng_get
 *fill*         0x000333ca        0x2 
 .text.rand_prng_seed
                0x000333cc       0x34 examples/dfu/CMakeFiles/dfu_no_serial_nrf52832_xxAA_s132_6.0.0.dir/__/__/mesh/core/src/rand.c.obj
                0x000333cc                rand_prng_seed
 .text.nrf_mesh_opt_set
                0x00033400       0x26 examples/dfu/CMakeFiles/dfu_no_serial_nrf52832_xxAA_s132_6.0.0.dir/__/__/mesh/core/src/nrf_mesh_opt.c.obj
                0x00033400                nrf_mesh_opt_set
 .text.nrf_mesh_opt_get
                0x00033426       0x26 examples/dfu/CMakeFiles/dfu_no_serial_nrf52832_xxAA_s132_6.0.0.dir/__/__/mesh/core/src/nrf_mesh_opt.c.obj
                0x00033426                nrf_mesh_opt_get
 .text.sd_radio_session_open
                0x0003344c        0x4 examples/dfu/CMakeFiles/dfu_no_serial_nrf52832_xxAA_s132_6.0.0.dir/__/__/mesh/core/src/timeslot.c.obj
 .text.sd_radio_session_close
                0x00033450        0x4 examples/dfu/CMakeFiles/dfu_no_serial_nrf52832_xxAA_s132_6.0.0.dir/__/__/mesh/core/src/timeslot.c.obj
 .text.sd_radio_request
                0x00033454        0x4 examples/dfu/CMakeFiles/dfu_no_serial_nrf52832_xxAA_s132_6.0.0.dir/__/__/mesh/core/src/timeslot.c.obj
 .text.end_timer_handler
                0x00033458       0x24 examples/dfu/CMakeFiles/dfu_no_serial_nrf52832_xxAA_s132_6.0.0.dir/__/__/mesh/core/src/timeslot.c.obj
 .text.get_end_time.constprop.10
                0x0003347c       0x28 examples/dfu/CMakeFiles/dfu_no_serial_nrf52832_xxAA_s132_6.0.0.dir/__/__/mesh/core/src/timeslot.c.obj
 .text.handle_extend_end.constprop.3
                0x000334a4       0xb4 examples/dfu/CMakeFiles/dfu_no_serial_nrf52832_xxAA_s132_6.0.0.dir/__/__/mesh/core/src/timeslot.c.obj
 .text.radio_signal_callback
                0x00033558      0x138 examples/dfu/CMakeFiles/dfu_no_serial_nrf52832_xxAA_s132_6.0.0.dir/__/__/mesh/core/src/timeslot.c.obj
 .text.timeslot_sd_event_handler
                0x00033690       0x38 examples/dfu/CMakeFiles/dfu_no_serial_nrf52832_xxAA_s132_6.0.0.dir/__/__/mesh/core/src/timeslot.c.obj
                0x00033690                timeslot_sd_event_handler
 .text.timeslot_init
                0x000336c8       0x48 examples/dfu/CMakeFiles/dfu_no_serial_nrf52832_xxAA_s132_6.0.0.dir/__/__/mesh/core/src/timeslot.c.obj
                0x000336c8                timeslot_init
 .text.timeslot_start
                0x00033710       0x20 examples/dfu/CMakeFiles/dfu_no_serial_nrf52832_xxAA_s132_6.0.0.dir/__/__/mesh/core/src/timeslot.c.obj
                0x00033710                timeslot_start
 .text.timeslot_end_is_pending
                0x00033730       0x24 examples/dfu/CMakeFiles/dfu_no_serial_nrf52832_xxAA_s132_6.0.0.dir/__/__/mesh/core/src/timeslot.c.obj
                0x00033730                timeslot_end_is_pending
 .text.timeslot_start_time_get
                0x00033754        0xc examples/dfu/CMakeFiles/dfu_no_serial_nrf52832_xxAA_s132_6.0.0.dir/__/__/mesh/core/src/timeslot.c.obj
                0x00033754                timeslot_start_time_get
 .text.timeslot_remaining_time_get
                0x00033760       0x20 examples/dfu/CMakeFiles/dfu_no_serial_nrf52832_xxAA_s132_6.0.0.dir/__/__/mesh/core/src/timeslot.c.obj
                0x00033760                timeslot_remaining_time_get
 .text.timeslot_is_in_cb
                0x00033780        0xc examples/dfu/CMakeFiles/dfu_no_serial_nrf52832_xxAA_s132_6.0.0.dir/__/__/mesh/core/src/timeslot.c.obj
                0x00033780                timeslot_is_in_cb
 .text.timeslot_trigger
                0x0003378c       0x24 examples/dfu/CMakeFiles/dfu_no_serial_nrf52832_xxAA_s132_6.0.0.dir/__/__/mesh/core/src/timeslot.c.obj
                0x0003378c                timeslot_trigger
 .text.timeslot_stop
                0x000337b0       0x10 examples/dfu/CMakeFiles/dfu_no_serial_nrf52832_xxAA_s132_6.0.0.dir/__/__/mesh/core/src/timeslot.c.obj
                0x000337b0                timeslot_stop
 .text.timeslot_state_lock
                0x000337c0       0x28 examples/dfu/CMakeFiles/dfu_no_serial_nrf52832_xxAA_s132_6.0.0.dir/__/__/mesh/core/src/timeslot.c.obj
                0x000337c0                timeslot_state_lock
 .text.trigger_event_handler
                0x000337e8       0x1c examples/dfu/CMakeFiles/dfu_no_serial_nrf52832_xxAA_s132_6.0.0.dir/__/__/mesh/core/src/bearer_event.c.obj
 .text.evt_push
                0x00033804       0x1c examples/dfu/CMakeFiles/dfu_no_serial_nrf52832_xxAA_s132_6.0.0.dir/__/__/mesh/core/src/bearer_event.c.obj
 .text.bearer_event_init
                0x00033820       0x48 examples/dfu/CMakeFiles/dfu_no_serial_nrf52832_xxAA_s132_6.0.0.dir/__/__/mesh/core/src/bearer_event.c.obj
                0x00033820                bearer_event_init
 .text.bearer_event_timer_post
                0x00033868       0x24 examples/dfu/CMakeFiles/dfu_no_serial_nrf52832_xxAA_s132_6.0.0.dir/__/__/mesh/core/src/bearer_event.c.obj
                0x00033868                bearer_event_timer_post
 .text.bearer_event_critical_section_begin
                0x0003388c       0x44 examples/dfu/CMakeFiles/dfu_no_serial_nrf52832_xxAA_s132_6.0.0.dir/__/__/mesh/core/src/bearer_event.c.obj
                0x0003388c                bearer_event_critical_section_begin
 .text.bearer_event_critical_section_end
                0x000338d0       0x40 examples/dfu/CMakeFiles/dfu_no_serial_nrf52832_xxAA_s132_6.0.0.dir/__/__/mesh/core/src/bearer_event.c.obj
                0x000338d0                bearer_event_critical_section_end
 .text.bearer_event_flag_add
                0x00033910       0x3c examples/dfu/CMakeFiles/dfu_no_serial_nrf52832_xxAA_s132_6.0.0.dir/__/__/mesh/core/src/bearer_event.c.obj
                0x00033910                bearer_event_flag_add
 .text.bearer_event_flag_set
                0x0003394c       0x44 examples/dfu/CMakeFiles/dfu_no_serial_nrf52832_xxAA_s132_6.0.0.dir/__/__/mesh/core/src/bearer_event.c.obj
                0x0003394c                bearer_event_flag_set
 .text.bearer_event_sequential_add
                0x00033990       0x2e examples/dfu/CMakeFiles/dfu_no_serial_nrf52832_xxAA_s132_6.0.0.dir/__/__/mesh/core/src/bearer_event.c.obj
                0x00033990                bearer_event_sequential_add
 *fill*         0x000339be        0x2 
 .text.bearer_event_sequential_post
                0x000339c0       0x44 examples/dfu/CMakeFiles/dfu_no_serial_nrf52832_xxAA_s132_6.0.0.dir/__/__/mesh/core/src/bearer_event.c.obj
                0x000339c0                bearer_event_sequential_post
 .text.bearer_event_sequential_pending
                0x00033a04       0x10 examples/dfu/CMakeFiles/dfu_no_serial_nrf52832_xxAA_s132_6.0.0.dir/__/__/mesh/core/src/bearer_event.c.obj
                0x00033a04                bearer_event_sequential_pending
 .text.bearer_event_handler
                0x00033a14       0xe8 examples/dfu/CMakeFiles/dfu_no_serial_nrf52832_xxAA_s132_6.0.0.dir/__/__/mesh/core/src/bearer_event.c.obj
                0x00033a14                bearer_event_handler
 .text.QDEC_IRQHandler
                0x00033afc        0x4 examples/dfu/CMakeFiles/dfu_no_serial_nrf52832_xxAA_s132_6.0.0.dir/__/__/mesh/core/src/bearer_event.c.obj
                0x00033afc                QDEC_IRQHandler
 .text.enc_aes_encrypt
                0x00033b00        0x4 examples/dfu/CMakeFiles/dfu_no_serial_nrf52832_xxAA_s132_6.0.0.dir/__/__/mesh/core/src/enc.c.obj
                0x00033b00                enc_aes_encrypt
 .text.enc_aes_cmac
                0x00033b04        0x4 examples/dfu/CMakeFiles/dfu_no_serial_nrf52832_xxAA_s132_6.0.0.dir/__/__/mesh/core/src/enc.c.obj
                0x00033b04                enc_aes_cmac
 .text.enc_aes_ccm_encrypt
                0x00033b08        0x4 examples/dfu/CMakeFiles/dfu_no_serial_nrf52832_xxAA_s132_6.0.0.dir/__/__/mesh/core/src/enc.c.obj
                0x00033b08                enc_aes_ccm_encrypt
 .text.enc_aes_ccm_decrypt
                0x00033b0c        0x4 examples/dfu/CMakeFiles/dfu_no_serial_nrf52832_xxAA_s132_6.0.0.dir/__/__/mesh/core/src/enc.c.obj
                0x00033b0c                enc_aes_ccm_decrypt
 .text.enc_nonce_generate
                0x00033b10       0xbc examples/dfu/CMakeFiles/dfu_no_serial_nrf52832_xxAA_s132_6.0.0.dir/__/__/mesh/core/src/enc.c.obj
                0x00033b10                enc_nonce_generate
 .text.enc_s1   0x00033bcc       0x2c examples/dfu/CMakeFiles/dfu_no_serial_nrf52832_xxAA_s132_6.0.0.dir/__/__/mesh/core/src/enc.c.obj
                0x00033bcc                enc_s1
 .text.enc_k1   0x00033bf8       0x3c examples/dfu/CMakeFiles/dfu_no_serial_nrf52832_xxAA_s132_6.0.0.dir/__/__/mesh/core/src/enc.c.obj
                0x00033bf8                enc_k1
 .text.enc_k2   0x00033c34       0xc8 examples/dfu/CMakeFiles/dfu_no_serial_nrf52832_xxAA_s132_6.0.0.dir/__/__/mesh/core/src/enc.c.obj
                0x00033c34                enc_k2
 .text.enc_k3   0x00033cfc       0x5c examples/dfu/CMakeFiles/dfu_no_serial_nrf52832_xxAA_s132_6.0.0.dir/__/__/mesh/core/src/enc.c.obj
                0x00033cfc                enc_k3
 .text.enc_k4   0x00033d58       0x54 examples/dfu/CMakeFiles/dfu_no_serial_nrf52832_xxAA_s132_6.0.0.dir/__/__/mesh/core/src/enc.c.obj
                0x00033d58                enc_k4
 .text.allocate_packet
                0x00033dac       0x6a examples/dfu/CMakeFiles/dfu_no_serial_nrf52832_xxAA_s132_6.0.0.dir/__/__/mesh/core/src/network.c.obj
 *fill*         0x00033e16        0x2 
 .text.network_init
                0x00033e18       0x2c examples/dfu/CMakeFiles/dfu_no_serial_nrf52832_xxAA_s132_6.0.0.dir/__/__/mesh/core/src/network.c.obj
                0x00033e18                network_init
 .text.network_opt_set
                0x00033e44       0x70 examples/dfu/CMakeFiles/dfu_no_serial_nrf52832_xxAA_s132_6.0.0.dir/__/__/mesh/core/src/network.c.obj
                0x00033e44                network_opt_set
 .text.network_opt_get
                0x00033eb4       0x4c examples/dfu/CMakeFiles/dfu_no_serial_nrf52832_xxAA_s132_6.0.0.dir/__/__/mesh/core/src/network.c.obj
                0x00033eb4                network_opt_get
 .text.network_packet_alloc
                0x00033f00       0x30 examples/dfu/CMakeFiles/dfu_no_serial_nrf52832_xxAA_s132_6.0.0.dir/__/__/mesh/core/src/network.c.obj
                0x00033f00                network_packet_alloc
 .text.network_packet_send
                0x00033f30       0x46 examples/dfu/CMakeFiles/dfu_no_serial_nrf52832_xxAA_s132_6.0.0.dir/__/__/mesh/core/src/network.c.obj
                0x00033f30                network_packet_send
 *fill*         0x00033f76        0x2 
 .text.network_packet_in
                0x00033f78      0x168 examples/dfu/CMakeFiles/dfu_no_serial_nrf52832_xxAA_s132_6.0.0.dir/__/__/mesh/core/src/network.c.obj
                0x00033f78                network_packet_in
 .text.nonce_type_get
                0x000340e0       0x16 examples/dfu/CMakeFiles/dfu_no_serial_nrf52832_xxAA_s132_6.0.0.dir/__/__/mesh/core/src/net_packet.c.obj
 .text.header_transfuscate
                0x000340f6       0x54 examples/dfu/CMakeFiles/dfu_no_serial_nrf52832_xxAA_s132_6.0.0.dir/__/__/mesh/core/src/net_packet.c.obj
 *fill*         0x0003414a        0x2 
 .text.net_packet_decrypt
                0x0003414c      0x224 examples/dfu/CMakeFiles/dfu_no_serial_nrf52832_xxAA_s132_6.0.0.dir/__/__/mesh/core/src/net_packet.c.obj
                0x0003414c                net_packet_decrypt
 .text.net_packet_encrypt
                0x00034370       0x7e examples/dfu/CMakeFiles/dfu_no_serial_nrf52832_xxAA_s132_6.0.0.dir/__/__/mesh/core/src/net_packet.c.obj
                0x00034370                net_packet_encrypt
 .text.net_packet_header_set
                0x000343ee       0xaa examples/dfu/CMakeFiles/dfu_no_serial_nrf52832_xxAA_s132_6.0.0.dir/__/__/mesh/core/src/net_packet.c.obj
                0x000343ee                net_packet_header_set
 .text.net_packet_payload_len_get
                0x00034498       0x10 examples/dfu/CMakeFiles/dfu_no_serial_nrf52832_xxAA_s132_6.0.0.dir/__/__/mesh/core/src/net_packet.c.obj
                0x00034498                net_packet_payload_len_get
 .text.net_packet_from_payload
                0x000344a8        0x4 examples/dfu/CMakeFiles/dfu_no_serial_nrf52832_xxAA_s132_6.0.0.dir/__/__/mesh/core/src/net_packet.c.obj
                0x000344a8                net_packet_from_payload
 .text.net_packet_obfuscation_start_get
                0x000344ac        0x4 examples/dfu/CMakeFiles/dfu_no_serial_nrf52832_xxAA_s132_6.0.0.dir/__/__/mesh/core/src/net_packet.c.obj
                0x000344ac                net_packet_obfuscation_start_get
 .text.stage_get_available
                0x000344b0       0x24 examples/dfu/CMakeFiles/dfu_no_serial_nrf52832_xxAA_s132_6.0.0.dir/__/__/mesh/core/src/msqueue.c.obj
 .text.msq_get  0x000344d4       0x38 examples/dfu/CMakeFiles/dfu_no_serial_nrf52832_xxAA_s132_6.0.0.dir/__/__/mesh/core/src/msqueue.c.obj
                0x000344d4                msq_get
 .text.msq_move
                0x0003450c       0x2e examples/dfu/CMakeFiles/dfu_no_serial_nrf52832_xxAA_s132_6.0.0.dir/__/__/mesh/core/src/msqueue.c.obj
                0x0003450c                msq_move
 .text.msq_reset
                0x0003453a       0x20 examples/dfu/CMakeFiles/dfu_no_serial_nrf52832_xxAA_s132_6.0.0.dir/__/__/mesh/core/src/msqueue.c.obj
                0x0003453a                msq_reset
 .text.msq_init
                0x0003455a       0x4a examples/dfu/CMakeFiles/dfu_no_serial_nrf52832_xxAA_s132_6.0.0.dir/__/__/mesh/core/src/msqueue.c.obj
                0x0003455a                msq_init
 .text.msq_available
                0x000345a4       0x26 examples/dfu/CMakeFiles/dfu_no_serial_nrf52832_xxAA_s132_6.0.0.dir/__/__/mesh/core/src/msqueue.c.obj
                0x000345a4                msq_available
 .text.nrf_mesh_keygen_aid
                0x000345ca       0x12 examples/dfu/CMakeFiles/dfu_no_serial_nrf52832_xxAA_s132_6.0.0.dir/__/__/mesh/core/src/nrf_mesh_keygen.c.obj
                0x000345ca                nrf_mesh_keygen_aid
 .text.nrf_mesh_keygen_network_secmat
                0x000345dc       0x20 examples/dfu/CMakeFiles/dfu_no_serial_nrf52832_xxAA_s132_6.0.0.dir/__/__/mesh/core/src/nrf_mesh_keygen.c.obj
                0x000345dc                nrf_mesh_keygen_network_secmat
 .text.nrf_mesh_keygen_beacon_secmat
                0x000345fc       0x50 examples/dfu/CMakeFiles/dfu_no_serial_nrf52832_xxAA_s132_6.0.0.dir/__/__/mesh/core/src/nrf_mesh_keygen.c.obj
                0x000345fc                nrf_mesh_keygen_beacon_secmat
 .text.nrf_mesh_keygen_virtual_address
                0x0003464c       0x50 examples/dfu/CMakeFiles/dfu_no_serial_nrf52832_xxAA_s132_6.0.0.dir/__/__/mesh/core/src/nrf_mesh_keygen.c.obj
                0x0003464c                nrf_mesh_keygen_virtual_address
 .text.list_insert
                0x0003469c       0x1c examples/dfu/CMakeFiles/dfu_no_serial_nrf52832_xxAA_s132_6.0.0.dir/__/__/mesh/core/src/list.c.obj
 .text.list_add
                0x000346b8       0x42 examples/dfu/CMakeFiles/dfu_no_serial_nrf52832_xxAA_s132_6.0.0.dir/__/__/mesh/core/src/list.c.obj
                0x000346b8                list_add
 .text.list_remove
                0x000346fa       0x3a examples/dfu/CMakeFiles/dfu_no_serial_nrf52832_xxAA_s132_6.0.0.dir/__/__/mesh/core/src/list.c.obj
                0x000346fa                list_remove
 .text.list_compare_add
                0x00034734       0x56 examples/dfu/CMakeFiles/dfu_no_serial_nrf52832_xxAA_s132_6.0.0.dir/__/__/mesh/core/src/list.c.obj
                0x00034734                list_compare_add
 *fill*         0x0003478a        0x2 
 .text.log_callback_rtt
                0x0003478c       0x2c examples/dfu/CMakeFiles/dfu_no_serial_nrf52832_xxAA_s132_6.0.0.dir/__/__/mesh/core/src/log.c.obj
                0x0003478c                log_callback_rtt
 .text.log_init
                0x000347b8       0x1c examples/dfu/CMakeFiles/dfu_no_serial_nrf52832_xxAA_s132_6.0.0.dir/__/__/mesh/core/src/log.c.obj
                0x000347b8                log_init
 .text.log_vprintf
                0x000347d4       0x18 examples/dfu/CMakeFiles/dfu_no_serial_nrf52832_xxAA_s132_6.0.0.dir/__/__/mesh/core/src/log.c.obj
                0x000347d4                log_vprintf
 .text.log_printf
                0x000347ec       0x18 examples/dfu/CMakeFiles/dfu_no_serial_nrf52832_xxAA_s132_6.0.0.dir/__/__/mesh/core/src/log.c.obj
                0x000347ec                log_printf
 .text.get_area_end
                0x00034804        0xc examples/dfu/CMakeFiles/dfu_no_serial_nrf52832_xxAA_s132_6.0.0.dir/__/__/mesh/core/src/flash_manager.c.obj
 .text.handle_matches_filter
                0x00034810       0x26 examples/dfu/CMakeFiles/dfu_no_serial_nrf52832_xxAA_s132_6.0.0.dir/__/__/mesh/core/src/flash_manager.c.obj
 .text.flash_area_is_blank
                0x00034836       0x34 examples/dfu/CMakeFiles/dfu_no_serial_nrf52832_xxAA_s132_6.0.0.dir/__/__/mesh/core/src/flash_manager.c.obj
 *fill*         0x0003486a        0x2 
 .text.get_packet_buffer
                0x0003486c       0x20 examples/dfu/CMakeFiles/dfu_no_serial_nrf52832_xxAA_s132_6.0.0.dir/__/__/mesh/core/src/flash_manager.c.obj
 .text.flash    0x0003488c       0x1c examples/dfu/CMakeFiles/dfu_no_serial_nrf52832_xxAA_s132_6.0.0.dir/__/__/mesh/core/src/flash_manager.c.obj
 .text.free_packet_buffer
                0x000348a8       0x3c examples/dfu/CMakeFiles/dfu_no_serial_nrf52832_xxAA_s132_6.0.0.dir/__/__/mesh/core/src/flash_manager.c.obj
 .text.reserve_action_buffer
                0x000348e4       0x24 examples/dfu/CMakeFiles/dfu_no_serial_nrf52832_xxAA_s132_6.0.0.dir/__/__/mesh/core/src/flash_manager.c.obj
 .text.commit_action_buffer
                0x00034908       0x18 examples/dfu/CMakeFiles/dfu_no_serial_nrf52832_xxAA_s132_6.0.0.dir/__/__/mesh/core/src/flash_manager.c.obj
 .text.schedule_processing
                0x00034920        0xc examples/dfu/CMakeFiles/dfu_no_serial_nrf52832_xxAA_s132_6.0.0.dir/__/__/mesh/core/src/flash_manager.c.obj
 .text.get_next_entry
                0x0003492c       0x34 examples/dfu/CMakeFiles/dfu_no_serial_nrf52832_xxAA_s132_6.0.0.dir/__/__/mesh/core/src/flash_manager.c.obj
 .text.get_last_entry.isra.1
                0x00034960       0x30 examples/dfu/CMakeFiles/dfu_no_serial_nrf52832_xxAA_s132_6.0.0.dir/__/__/mesh/core/src/flash_manager.c.obj
 .text.process_action_queue
                0x00034990      0x3b0 examples/dfu/CMakeFiles/dfu_no_serial_nrf52832_xxAA_s132_6.0.0.dir/__/__/mesh/core/src/flash_manager.c.obj
 .text.flash_op_ended_callback
                0x00034d40       0x24 examples/dfu/CMakeFiles/dfu_no_serial_nrf52832_xxAA_s132_6.0.0.dir/__/__/mesh/core/src/flash_manager.c.obj
 .text.flash_manager_init
                0x00034d64       0x68 examples/dfu/CMakeFiles/dfu_no_serial_nrf52832_xxAA_s132_6.0.0.dir/__/__/mesh/core/src/flash_manager.c.obj
                0x00034d64                flash_manager_init
 .text.flash_manager_remove
                0x00034dcc       0x24 examples/dfu/CMakeFiles/dfu_no_serial_nrf52832_xxAA_s132_6.0.0.dir/__/__/mesh/core/src/flash_manager.c.obj
                0x00034dcc                flash_manager_remove
 .text.flash_manager_entry_get
                0x00034df0       0x3c examples/dfu/CMakeFiles/dfu_no_serial_nrf52832_xxAA_s132_6.0.0.dir/__/__/mesh/core/src/flash_manager.c.obj
                0x00034df0                flash_manager_entry_get
 .text.flash_manager_entry_next_get
                0x00034e2c       0x60 examples/dfu/CMakeFiles/dfu_no_serial_nrf52832_xxAA_s132_6.0.0.dir/__/__/mesh/core/src/flash_manager.c.obj
                0x00034e2c                flash_manager_entry_next_get
 .text.flash_manager_entry_alloc
                0x00034e8c       0x5c examples/dfu/CMakeFiles/dfu_no_serial_nrf52832_xxAA_s132_6.0.0.dir/__/__/mesh/core/src/flash_manager.c.obj
                0x00034e8c                flash_manager_entry_alloc
 .text.flash_manager_entry_commit
                0x00034ee8       0x2c examples/dfu/CMakeFiles/dfu_no_serial_nrf52832_xxAA_s132_6.0.0.dir/__/__/mesh/core/src/flash_manager.c.obj
                0x00034ee8                flash_manager_entry_commit
 .text.flash_manager_entry_invalidate
                0x00034f14       0x4e examples/dfu/CMakeFiles/dfu_no_serial_nrf52832_xxAA_s132_6.0.0.dir/__/__/mesh/core/src/flash_manager.c.obj
                0x00034f14                flash_manager_entry_invalidate
 .text.flash_manager_add
                0x00034f62      0x1f6 examples/dfu/CMakeFiles/dfu_no_serial_nrf52832_xxAA_s132_6.0.0.dir/__/__/mesh/core/src/flash_manager.c.obj
                0x00034f62                flash_manager_add
 .text.flash_manager_mem_listener_register
                0x00035158       0x30 examples/dfu/CMakeFiles/dfu_no_serial_nrf52832_xxAA_s132_6.0.0.dir/__/__/mesh/core/src/flash_manager.c.obj
                0x00035158                flash_manager_mem_listener_register
 .text.flash_manager_is_stable
                0x00035188       0x24 examples/dfu/CMakeFiles/dfu_no_serial_nrf52832_xxAA_s132_6.0.0.dir/__/__/mesh/core/src/flash_manager.c.obj
                0x00035188                flash_manager_is_stable
 .text.flash_manager_on_defrag_end
                0x000351ac       0x4c examples/dfu/CMakeFiles/dfu_no_serial_nrf52832_xxAA_s132_6.0.0.dir/__/__/mesh/core/src/flash_manager.c.obj
                0x000351ac                flash_manager_on_defrag_end
 .text.flash_manager_recovery_page_get
                0x000351f8        0x4 examples/dfu/CMakeFiles/dfu_no_serial_nrf52832_xxAA_s132_6.0.0.dir/__/__/mesh/core/src/flash_manager.c.obj
                0x000351f8                flash_manager_recovery_page_get
 .text.flash_manager_action_queue_empty_cb_set
                0x000351fc       0x1c examples/dfu/CMakeFiles/dfu_no_serial_nrf52832_xxAA_s132_6.0.0.dir/__/__/mesh/core/src/flash_manager.c.obj
                0x000351fc                flash_manager_action_queue_empty_cb_set
 .text.utils_xor
                0x00035218       0x14 examples/dfu/CMakeFiles/dfu_no_serial_nrf52832_xxAA_s132_6.0.0.dir/__/__/mesh/core/src/ccm_soft.c.obj
 .text.ccm_soft_authenticate_blocks
                0x0003522c       0x68 examples/dfu/CMakeFiles/dfu_no_serial_nrf52832_xxAA_s132_6.0.0.dir/__/__/mesh/core/src/ccm_soft.c.obj
 .text.utils_reverse_memcpy.constprop.0
                0x00035294        0xa examples/dfu/CMakeFiles/dfu_no_serial_nrf52832_xxAA_s132_6.0.0.dir/__/__/mesh/core/src/ccm_soft.c.obj
 .text.ccm_soft_authenticate
                0x0003529e       0xa0 examples/dfu/CMakeFiles/dfu_no_serial_nrf52832_xxAA_s132_6.0.0.dir/__/__/mesh/core/src/ccm_soft.c.obj
 .text.ccm_soft_crypt
                0x0003533e       0x6c examples/dfu/CMakeFiles/dfu_no_serial_nrf52832_xxAA_s132_6.0.0.dir/__/__/mesh/core/src/ccm_soft.c.obj
 .text.ccm_soft_encrypt
                0x000353aa       0x70 examples/dfu/CMakeFiles/dfu_no_serial_nrf52832_xxAA_s132_6.0.0.dir/__/__/mesh/core/src/ccm_soft.c.obj
                0x000353aa                ccm_soft_encrypt
 .text.ccm_soft_decrypt
                0x0003541a       0xfe examples/dfu/CMakeFiles/dfu_no_serial_nrf52832_xxAA_s132_6.0.0.dir/__/__/mesh/core/src/ccm_soft.c.obj
                0x0003541a                ccm_soft_decrypt
 .text.replay_cache_add
                0x00035518       0x50 examples/dfu/CMakeFiles/dfu_no_serial_nrf52832_xxAA_s132_6.0.0.dir/__/__/mesh/core/src/replay_cache.c.obj
                0x00035518                replay_cache_add
 .text.replay_cache_has_elem
                0x00035568       0x38 examples/dfu/CMakeFiles/dfu_no_serial_nrf52832_xxAA_s132_6.0.0.dir/__/__/mesh/core/src/replay_cache.c.obj
                0x00035568                replay_cache_has_elem
 .text.replay_cache_clear
                0x000355a0       0x20 examples/dfu/CMakeFiles/dfu_no_serial_nrf52832_xxAA_s132_6.0.0.dir/__/__/mesh/core/src/replay_cache.c.obj
                0x000355a0                replay_cache_clear
 .text.replay_cache_init
                0x000355c0        0x4 examples/dfu/CMakeFiles/dfu_no_serial_nrf52832_xxAA_s132_6.0.0.dir/__/__/mesh/core/src/replay_cache.c.obj
                0x000355c0                replay_cache_init
 .text.beacon_create
                0x000355c4       0x46 examples/dfu/CMakeFiles/dfu_no_serial_nrf52832_xxAA_s132_6.0.0.dir/__/__/mesh/core/src/beacon.c.obj
                0x000355c4                beacon_create
 *fill*         0x0003560a        0x2 
 .text.beacon_packet_in
                0x0003560c      0x154 examples/dfu/CMakeFiles/dfu_no_serial_nrf52832_xxAA_s132_6.0.0.dir/__/__/mesh/core/src/beacon.c.obj
                0x0003560c                beacon_packet_in
 .text.entry_get
                0x00035760       0x78 examples/dfu/CMakeFiles/dfu_no_serial_nrf52832_xxAA_s132_6.0.0.dir/__/__/mesh/core/src/flash_manager_internal.c.obj
                0x00035760                entry_get
 .text.core_tx_complete_cb_set
                0x000357d8        0xc examples/dfu/CMakeFiles/dfu_no_serial_nrf52832_xxAA_s132_6.0.0.dir/__/__/mesh/core/src/core_tx.c.obj
                0x000357d8                core_tx_complete_cb_set
 .text.core_tx_packet_alloc
                0x000357e4       0x98 examples/dfu/CMakeFiles/dfu_no_serial_nrf52832_xxAA_s132_6.0.0.dir/__/__/mesh/core/src/core_tx.c.obj
                0x000357e4                core_tx_packet_alloc
 .text.core_tx_packet_send
                0x0003587c       0x4c examples/dfu/CMakeFiles/dfu_no_serial_nrf52832_xxAA_s132_6.0.0.dir/__/__/mesh/core/src/core_tx.c.obj
                0x0003587c                core_tx_packet_send
 .text.core_tx_packet_discard
                0x000358c8       0x40 examples/dfu/CMakeFiles/dfu_no_serial_nrf52832_xxAA_s132_6.0.0.dir/__/__/mesh/core/src/core_tx.c.obj
                0x000358c8                core_tx_packet_discard
 .text.core_tx_complete
                0x00035908       0x34 examples/dfu/CMakeFiles/dfu_no_serial_nrf52832_xxAA_s132_6.0.0.dir/__/__/mesh/core/src/core_tx.c.obj
                0x00035908                core_tx_complete
 .text.core_tx_bearer_add
                0x0003593c       0x70 examples/dfu/CMakeFiles/dfu_no_serial_nrf52832_xxAA_s132_6.0.0.dir/__/__/mesh/core/src/core_tx.c.obj
                0x0003593c                core_tx_bearer_add
 .text.heartbeat_subscription_timer_cb
                0x000359ac       0x1c examples/dfu/CMakeFiles/dfu_no_serial_nrf52832_xxAA_s132_6.0.0.dir/__/__/mesh/core/src/heartbeat.c.obj
 .text.heartbeat_opcode_handle
                0x000359c8       0x88 examples/dfu/CMakeFiles/dfu_no_serial_nrf52832_xxAA_s132_6.0.0.dir/__/__/mesh/core/src/heartbeat.c.obj
 .text.heartbeat_send
                0x00035a50       0xb0 examples/dfu/CMakeFiles/dfu_no_serial_nrf52832_xxAA_s132_6.0.0.dir/__/__/mesh/core/src/heartbeat.c.obj
 .text.heartbeat_publication_timer_cb
                0x00035b00       0xa8 examples/dfu/CMakeFiles/dfu_no_serial_nrf52832_xxAA_s132_6.0.0.dir/__/__/mesh/core/src/heartbeat.c.obj
 .text.heartbeat_core_evt_cb
                0x00035ba8       0x7c examples/dfu/CMakeFiles/dfu_no_serial_nrf52832_xxAA_s132_6.0.0.dir/__/__/mesh/core/src/heartbeat.c.obj
 .text.heartbeat_on_feature_change_trigger
                0x00035c24       0x44 examples/dfu/CMakeFiles/dfu_no_serial_nrf52832_xxAA_s132_6.0.0.dir/__/__/mesh/core/src/heartbeat.c.obj
                0x00035c24                heartbeat_on_feature_change_trigger
 .text.heartbeat_init
                0x00035c68       0x78 examples/dfu/CMakeFiles/dfu_no_serial_nrf52832_xxAA_s132_6.0.0.dir/__/__/mesh/core/src/heartbeat.c.obj
                0x00035c68                heartbeat_init
 .text.heartbeat_subscription_set
                0x00035ce0       0xa4 examples/dfu/CMakeFiles/dfu_no_serial_nrf52832_xxAA_s132_6.0.0.dir/__/__/mesh/core/src/heartbeat.c.obj
                0x00035ce0                heartbeat_subscription_set
 .text.heartbeat_subscription_get
                0x00035d84        0x8 examples/dfu/CMakeFiles/dfu_no_serial_nrf52832_xxAA_s132_6.0.0.dir/__/__/mesh/core/src/heartbeat.c.obj
                0x00035d84                heartbeat_subscription_get
 .text.heartbeat_config_server_cb_set
                0x00035d8c       0x28 examples/dfu/CMakeFiles/dfu_no_serial_nrf52832_xxAA_s132_6.0.0.dir/__/__/mesh/core/src/heartbeat.c.obj
                0x00035d8c                heartbeat_config_server_cb_set
 .text.heartbeat_publication_state_updated
                0x00035db4       0x74 examples/dfu/CMakeFiles/dfu_no_serial_nrf52832_xxAA_s132_6.0.0.dir/__/__/mesh/core/src/heartbeat.c.obj
                0x00035db4                heartbeat_publication_state_updated
 .text.make_network_beacon_packet
                0x00035e28       0x50 examples/dfu/CMakeFiles/dfu_no_serial_nrf52832_xxAA_s132_6.0.0.dir/__/__/mesh/core/src/net_beacon.c.obj
 .text.beacon_tx
                0x00035e78      0x12c examples/dfu/CMakeFiles/dfu_no_serial_nrf52832_xxAA_s132_6.0.0.dir/__/__/mesh/core/src/net_beacon.c.obj
 .text.tx_complete_cb
                0x00035fa4        0xe examples/dfu/CMakeFiles/dfu_no_serial_nrf52832_xxAA_s132_6.0.0.dir/__/__/mesh/core/src/net_beacon.c.obj
 .text.beacon_tx_timeout
                0x00035fb2        0x4 examples/dfu/CMakeFiles/dfu_no_serial_nrf52832_xxAA_s132_6.0.0.dir/__/__/mesh/core/src/net_beacon.c.obj
 .text.is_valid_beacon_pkt.part.0
                0x00035fb6       0x30 examples/dfu/CMakeFiles/dfu_no_serial_nrf52832_xxAA_s132_6.0.0.dir/__/__/mesh/core/src/net_beacon.c.obj
 *fill*         0x00035fe6        0x2 
 .text.net_beacon_init
                0x00035fe8       0x94 examples/dfu/CMakeFiles/dfu_no_serial_nrf52832_xxAA_s132_6.0.0.dir/__/__/mesh/core/src/net_beacon.c.obj
                0x00035fe8                net_beacon_init
 .text.net_beacon_state_set
                0x0003607c       0x34 examples/dfu/CMakeFiles/dfu_no_serial_nrf52832_xxAA_s132_6.0.0.dir/__/__/mesh/core/src/net_beacon.c.obj
                0x0003607c                net_beacon_state_set
 .text.net_beacon_state_get
                0x000360b0        0xc examples/dfu/CMakeFiles/dfu_no_serial_nrf52832_xxAA_s132_6.0.0.dir/__/__/mesh/core/src/net_beacon.c.obj
                0x000360b0                net_beacon_state_get
 .text.net_beacon_packet_in
                0x000360bc       0xf2 examples/dfu/CMakeFiles/dfu_no_serial_nrf52832_xxAA_s132_6.0.0.dir/__/__/mesh/core/src/net_beacon.c.obj
                0x000360bc                net_beacon_packet_in
 *fill*         0x000361ae        0x2 
 .text.packet_discard
                0x000361b0       0x40 examples/dfu/CMakeFiles/dfu_no_serial_nrf52832_xxAA_s132_6.0.0.dir/__/__/mesh/core/src/core_tx_adv.c.obj
 .text.packet_send
                0x000361f0       0x58 examples/dfu/CMakeFiles/dfu_no_serial_nrf52832_xxAA_s132_6.0.0.dir/__/__/mesh/core/src/core_tx_adv.c.obj
 .text.packet_alloc
                0x00036248       0x58 examples/dfu/CMakeFiles/dfu_no_serial_nrf52832_xxAA_s132_6.0.0.dir/__/__/mesh/core/src/core_tx_adv.c.obj
 .text.adv_tx_complete_callback
                0x000362a0       0x20 examples/dfu/CMakeFiles/dfu_no_serial_nrf52832_xxAA_s132_6.0.0.dir/__/__/mesh/core/src/core_tx_adv.c.obj
 .text.core_tx_adv_init
                0x000362c0       0x60 examples/dfu/CMakeFiles/dfu_no_serial_nrf52832_xxAA_s132_6.0.0.dir/__/__/mesh/core/src/core_tx_adv.c.obj
                0x000362c0                core_tx_adv_init
 .text.core_tx_adv_count_set
                0x00036320       0x28 examples/dfu/CMakeFiles/dfu_no_serial_nrf52832_xxAA_s132_6.0.0.dir/__/__/mesh/core/src/core_tx_adv.c.obj
                0x00036320                core_tx_adv_count_set
 .text.core_tx_adv_count_get
                0x00036348       0x1c examples/dfu/CMakeFiles/dfu_no_serial_nrf52832_xxAA_s132_6.0.0.dir/__/__/mesh/core/src/core_tx_adv.c.obj
                0x00036348                core_tx_adv_count_get
 .text.core_tx_adv_interval_set
                0x00036364       0x28 examples/dfu/CMakeFiles/dfu_no_serial_nrf52832_xxAA_s132_6.0.0.dir/__/__/mesh/core/src/core_tx_adv.c.obj
                0x00036364                core_tx_adv_interval_set
 .text.core_tx_adv_interval_get
                0x0003638c       0x28 examples/dfu/CMakeFiles/dfu_no_serial_nrf52832_xxAA_s132_6.0.0.dir/__/__/mesh/core/src/core_tx_adv.c.obj
                0x0003638c                core_tx_adv_interval_get
 .text.ad_listener_subscribe
                0x000363b4       0x5c examples/dfu/CMakeFiles/dfu_no_serial_nrf52832_xxAA_s132_6.0.0.dir/__/__/mesh/bearer/src/ad_listener.c.obj
                0x000363b4                ad_listener_subscribe
 .text.ad_listener_process
                0x00036410       0x64 examples/dfu/CMakeFiles/dfu_no_serial_nrf52832_xxAA_s132_6.0.0.dir/__/__/mesh/bearer/src/ad_listener.c.obj
                0x00036410                ad_listener_process
 .text.adtype_filter_handle
                0x00036474       0x64 examples/dfu/CMakeFiles/dfu_no_serial_nrf52832_xxAA_s132_6.0.0.dir/__/__/mesh/bearer/src/ad_type_filter.c.obj
 .text.bearer_adtype_filtering_set
                0x000364d8       0x1c examples/dfu/CMakeFiles/dfu_no_serial_nrf52832_xxAA_s132_6.0.0.dir/__/__/mesh/bearer/src/ad_type_filter.c.obj
                0x000364d8                bearer_adtype_filtering_set
 .text.bearer_adtype_add
                0x000364f4       0x20 examples/dfu/CMakeFiles/dfu_no_serial_nrf52832_xxAA_s132_6.0.0.dir/__/__/mesh/bearer/src/ad_type_filter.c.obj
                0x000364f4                bearer_adtype_add
 .text.bearer_adtype_mode_set
                0x00036514       0x18 examples/dfu/CMakeFiles/dfu_no_serial_nrf52832_xxAA_s132_6.0.0.dir/__/__/mesh/bearer/src/ad_type_filter.c.obj
                0x00036514                bearer_adtype_mode_set
 .text.tx_complete_event_callback
                0x0003652c       0x28 examples/dfu/CMakeFiles/dfu_no_serial_nrf52832_xxAA_s132_6.0.0.dir/__/__/mesh/bearer/src/advertiser.c.obj
 .text.set_gap_addr_type
                0x00036554       0x26 examples/dfu/CMakeFiles/dfu_no_serial_nrf52832_xxAA_s132_6.0.0.dir/__/__/mesh/bearer/src/advertiser.c.obj
 .text.broadcast_complete_cb
                0x0003657a       0x46 examples/dfu/CMakeFiles/dfu_no_serial_nrf52832_xxAA_s132_6.0.0.dir/__/__/mesh/bearer/src/advertiser.c.obj
 .text.schedule_first_time
                0x000365c0       0x28 examples/dfu/CMakeFiles/dfu_no_serial_nrf52832_xxAA_s132_6.0.0.dir/__/__/mesh/bearer/src/advertiser.c.obj
 .text.timeout_event
                0x000365e8      0x10c examples/dfu/CMakeFiles/dfu_no_serial_nrf52832_xxAA_s132_6.0.0.dir/__/__/mesh/bearer/src/advertiser.c.obj
 .text.advertiser_init
                0x000366f4        0xc examples/dfu/CMakeFiles/dfu_no_serial_nrf52832_xxAA_s132_6.0.0.dir/__/__/mesh/bearer/src/advertiser.c.obj
                0x000366f4                advertiser_init
 .text.advertiser_enable
                0x00036700       0x2a examples/dfu/CMakeFiles/dfu_no_serial_nrf52832_xxAA_s132_6.0.0.dir/__/__/mesh/bearer/src/advertiser.c.obj
                0x00036700                advertiser_enable
 .text.advertiser_packet_alloc
                0x0003672a       0x76 examples/dfu/CMakeFiles/dfu_no_serial_nrf52832_xxAA_s132_6.0.0.dir/__/__/mesh/bearer/src/advertiser.c.obj
                0x0003672a                advertiser_packet_alloc
 .text.advertiser_packet_send
                0x000367a0       0x62 examples/dfu/CMakeFiles/dfu_no_serial_nrf52832_xxAA_s132_6.0.0.dir/__/__/mesh/bearer/src/advertiser.c.obj
                0x000367a0                advertiser_packet_send
 .text.advertiser_packet_discard
                0x00036802       0x1e examples/dfu/CMakeFiles/dfu_no_serial_nrf52832_xxAA_s132_6.0.0.dir/__/__/mesh/bearer/src/advertiser.c.obj
                0x00036802                advertiser_packet_discard
 .text.advertiser_interval_set
                0x00036820       0x54 examples/dfu/CMakeFiles/dfu_no_serial_nrf52832_xxAA_s132_6.0.0.dir/__/__/mesh/bearer/src/advertiser.c.obj
                0x00036820                advertiser_interval_set
 .text.advertiser_flush
                0x00036874       0x1e examples/dfu/CMakeFiles/dfu_no_serial_nrf52832_xxAA_s132_6.0.0.dir/__/__/mesh/bearer/src/advertiser.c.obj
                0x00036874                advertiser_flush
 *fill*         0x00036892        0x2 
 .text.advertiser_address_default_get
                0x00036894       0x38 examples/dfu/CMakeFiles/dfu_no_serial_nrf52832_xxAA_s132_6.0.0.dir/__/__/mesh/bearer/src/advertiser.c.obj
                0x00036894                advertiser_address_default_get
 .text.advertiser_instance_init
                0x000368cc       0xa4 examples/dfu/CMakeFiles/dfu_no_serial_nrf52832_xxAA_s132_6.0.0.dir/__/__/mesh/bearer/src/advertiser.c.obj
                0x000368cc                advertiser_instance_init
 .text.action_switch
                0x00036970       0xb4 examples/dfu/CMakeFiles/dfu_no_serial_nrf52832_xxAA_s132_6.0.0.dir/__/__/mesh/bearer/src/bearer_handler.c.obj
 .text.bearer_handler_init
                0x00036a24       0x2c examples/dfu/CMakeFiles/dfu_no_serial_nrf52832_xxAA_s132_6.0.0.dir/__/__/mesh/bearer/src/bearer_handler.c.obj
                0x00036a24                bearer_handler_init
 .text.bearer_handler_start
                0x00036a50       0x1c examples/dfu/CMakeFiles/dfu_no_serial_nrf52832_xxAA_s132_6.0.0.dir/__/__/mesh/bearer/src/bearer_handler.c.obj
                0x00036a50                bearer_handler_start
 .text.bearer_handler_action_enqueue
                0x00036a6c       0x6c examples/dfu/CMakeFiles/dfu_no_serial_nrf52832_xxAA_s132_6.0.0.dir/__/__/mesh/bearer/src/bearer_handler.c.obj
                0x00036a6c                bearer_handler_action_enqueue
 .text.bearer_handler_action_end
                0x00036ad8       0x5c examples/dfu/CMakeFiles/dfu_no_serial_nrf52832_xxAA_s132_6.0.0.dir/__/__/mesh/bearer/src/bearer_handler.c.obj
                0x00036ad8                bearer_handler_action_end
 .text.bearer_handler_radio_irq_handler
                0x00036b34       0x48 examples/dfu/CMakeFiles/dfu_no_serial_nrf52832_xxAA_s132_6.0.0.dir/__/__/mesh/bearer/src/bearer_handler.c.obj
                0x00036b34                bearer_handler_radio_irq_handler
 .text.bearer_handler_timer_irq_handler
                0x00036b7c       0x24 examples/dfu/CMakeFiles/dfu_no_serial_nrf52832_xxAA_s132_6.0.0.dir/__/__/mesh/bearer/src/bearer_handler.c.obj
                0x00036b7c                bearer_handler_timer_irq_handler
 .text.bearer_handler_on_ts_begin
                0x00036ba0       0x30 examples/dfu/CMakeFiles/dfu_no_serial_nrf52832_xxAA_s132_6.0.0.dir/__/__/mesh/bearer/src/bearer_handler.c.obj
                0x00036ba0                bearer_handler_on_ts_begin
 .text.bearer_handler_on_ts_end
                0x00036bd0       0x34 examples/dfu/CMakeFiles/dfu_no_serial_nrf52832_xxAA_s132_6.0.0.dir/__/__/mesh/bearer/src/bearer_handler.c.obj
                0x00036bd0                bearer_handler_on_ts_end
 .text.radio_irq_handler
                0x00036c04       0x94 examples/dfu/CMakeFiles/dfu_no_serial_nrf52832_xxAA_s132_6.0.0.dir/__/__/mesh/bearer/src/broadcast.c.obj
 .text.broadcast_start
                0x00036c98       0x8c examples/dfu/CMakeFiles/dfu_no_serial_nrf52832_xxAA_s132_6.0.0.dir/__/__/mesh/bearer/src/broadcast.c.obj
 .text.broadcast_send
                0x00036d24       0x6c examples/dfu/CMakeFiles/dfu_no_serial_nrf52832_xxAA_s132_6.0.0.dir/__/__/mesh/bearer/src/broadcast.c.obj
                0x00036d24                broadcast_send
 .text.fen_filter_start
                0x00036d90       0x28 examples/dfu/CMakeFiles/dfu_no_serial_nrf52832_xxAA_s132_6.0.0.dir/__/__/mesh/bearer/src/filter_engine.c.obj
                0x00036d90                fen_filter_start
 .text.fen_filter_stop
                0x00036db8       0x20 examples/dfu/CMakeFiles/dfu_no_serial_nrf52832_xxAA_s132_6.0.0.dir/__/__/mesh/bearer/src/filter_engine.c.obj
                0x00036db8                fen_filter_stop
 .text.fen_filters_apply
                0x00036dd8       0x34 examples/dfu/CMakeFiles/dfu_no_serial_nrf52832_xxAA_s132_6.0.0.dir/__/__/mesh/bearer/src/filter_engine.c.obj
                0x00036dd8                fen_filters_apply
 .text.radio_config_reset
                0x00036e0c       0x34 examples/dfu/CMakeFiles/dfu_no_serial_nrf52832_xxAA_s132_6.0.0.dir/__/__/mesh/bearer/src/radio_config.c.obj
                0x00036e0c                radio_config_reset
 .text.radio_config_channel_set
                0x00036e40       0x28 examples/dfu/CMakeFiles/dfu_no_serial_nrf52832_xxAA_s132_6.0.0.dir/__/__/mesh/bearer/src/radio_config.c.obj
                0x00036e40                radio_config_channel_set
 .text.radio_config_config
                0x00036e68       0x90 examples/dfu/CMakeFiles/dfu_no_serial_nrf52832_xxAA_s132_6.0.0.dir/__/__/mesh/bearer/src/radio_config.c.obj
                0x00036e68                radio_config_config
 .text.radio_config_access_addr_set
                0x00036ef8       0x50 examples/dfu/CMakeFiles/dfu_no_serial_nrf52832_xxAA_s132_6.0.0.dir/__/__/mesh/bearer/src/radio_config.c.obj
                0x00036ef8                radio_config_access_addr_set
 .text.radio_trigger
                0x00036f48       0x24 examples/dfu/CMakeFiles/dfu_no_serial_nrf52832_xxAA_s132_6.0.0.dir/__/__/mesh/bearer/src/scanner.c.obj
 .text.scan_window_end
                0x00036f6c       0x10 examples/dfu/CMakeFiles/dfu_no_serial_nrf52832_xxAA_s132_6.0.0.dir/__/__/mesh/bearer/src/scanner.c.obj
 .text.scan_window_start
                0x00036f7c       0x24 examples/dfu/CMakeFiles/dfu_no_serial_nrf52832_xxAA_s132_6.0.0.dir/__/__/mesh/bearer/src/scanner.c.obj
 .text.radio_configure
                0x00036fa0       0x78 examples/dfu/CMakeFiles/dfu_no_serial_nrf52832_xxAA_s132_6.0.0.dir/__/__/mesh/bearer/src/scanner.c.obj
 .text.radio_set_packet
                0x00037018       0x44 examples/dfu/CMakeFiles/dfu_no_serial_nrf52832_xxAA_s132_6.0.0.dir/__/__/mesh/bearer/src/scanner.c.obj
 .text.radio_start
                0x0003705c       0x40 examples/dfu/CMakeFiles/dfu_no_serial_nrf52832_xxAA_s132_6.0.0.dir/__/__/mesh/bearer/src/scanner.c.obj
 .text.radio_stop
                0x0003709c       0x30 examples/dfu/CMakeFiles/dfu_no_serial_nrf52832_xxAA_s132_6.0.0.dir/__/__/mesh/bearer/src/scanner.c.obj
 .text.schedule_timers
                0x000370cc       0x38 examples/dfu/CMakeFiles/dfu_no_serial_nrf52832_xxAA_s132_6.0.0.dir/__/__/mesh/bearer/src/scanner.c.obj
 .text.scanner_radio_start
                0x00037104       0x28 examples/dfu/CMakeFiles/dfu_no_serial_nrf52832_xxAA_s132_6.0.0.dir/__/__/mesh/bearer/src/scanner.c.obj
                0x00037104                scanner_radio_start
 .text.scanner_radio_stop
                0x0003712c       0x10 examples/dfu/CMakeFiles/dfu_no_serial_nrf52832_xxAA_s132_6.0.0.dir/__/__/mesh/bearer/src/scanner.c.obj
                0x0003712c                scanner_radio_stop
 .text.scanner_radio_irq_handler
                0x0003713c      0x130 examples/dfu/CMakeFiles/dfu_no_serial_nrf52832_xxAA_s132_6.0.0.dir/__/__/mesh/bearer/src/scanner.c.obj
                0x0003713c                scanner_radio_irq_handler
 .text.scanner_enable
                0x0003726c       0x24 examples/dfu/CMakeFiles/dfu_no_serial_nrf52832_xxAA_s132_6.0.0.dir/__/__/mesh/bearer/src/scanner.c.obj
                0x0003726c                scanner_enable
 .text.scanner_packet_release
                0x00037290       0x2c examples/dfu/CMakeFiles/dfu_no_serial_nrf52832_xxAA_s132_6.0.0.dir/__/__/mesh/bearer/src/scanner.c.obj
                0x00037290                scanner_packet_release
 .text.scanner_rx
                0x000372bc       0x30 examples/dfu/CMakeFiles/dfu_no_serial_nrf52832_xxAA_s132_6.0.0.dir/__/__/mesh/bearer/src/scanner.c.obj
                0x000372bc                scanner_rx
 .text.scanner_rx_pending
                0x000372ec        0xc examples/dfu/CMakeFiles/dfu_no_serial_nrf52832_xxAA_s132_6.0.0.dir/__/__/mesh/bearer/src/scanner.c.obj
                0x000372ec                scanner_rx_pending
 .text.scanner_config_scan_time_set
                0x000372f8       0x4c examples/dfu/CMakeFiles/dfu_no_serial_nrf52832_xxAA_s132_6.0.0.dir/__/__/mesh/bearer/src/scanner.c.obj
                0x000372f8                scanner_config_scan_time_set
 .text.scanner_config_channels_set
                0x00037344       0x50 examples/dfu/CMakeFiles/dfu_no_serial_nrf52832_xxAA_s132_6.0.0.dir/__/__/mesh/bearer/src/scanner.c.obj
                0x00037344                scanner_config_channels_set
 .text.scanner_config_access_addresses_set
                0x00037394       0x38 examples/dfu/CMakeFiles/dfu_no_serial_nrf52832_xxAA_s132_6.0.0.dir/__/__/mesh/bearer/src/scanner.c.obj
                0x00037394                scanner_config_access_addresses_set
 .text.scanner_config_reset
                0x000373cc       0x50 examples/dfu/CMakeFiles/dfu_no_serial_nrf52832_xxAA_s132_6.0.0.dir/__/__/mesh/bearer/src/scanner.c.obj
                0x000373cc                scanner_config_reset
 .text.scanner_init
                0x0003741c       0x54 examples/dfu/CMakeFiles/dfu_no_serial_nrf52832_xxAA_s132_6.0.0.dir/__/__/mesh/bearer/src/scanner.c.obj
                0x0003741c                scanner_init
 .text.errata_57
                0x00037470       0x34 examples/dfu/CMakeFiles/dfu_no_serial_nrf52832_xxAA_s132_6.0.0.dir/C_/ver/mod/nRF5_SDK_15.0.0_a53641a/modules/nrfx/mdk/system_nrf52.c.obj
 .text.errata_136
                0x000374a4       0x40 examples/dfu/CMakeFiles/dfu_no_serial_nrf52832_xxAA_s132_6.0.0.dir/C_/ver/mod/nRF5_SDK_15.0.0_a53641a/modules/nrfx/mdk/system_nrf52.c.obj
 .text.SystemInit
                0x000374e4      0x264 examples/dfu/CMakeFiles/dfu_no_serial_nrf52832_xxAA_s132_6.0.0.dir/C_/ver/mod/nRF5_SDK_15.0.0_a53641a/modules/nrfx/mdk/system_nrf52.c.obj
                0x000374e4                SystemInit
 .text          0x00037748       0x3c examples/dfu/CMakeFiles/dfu_no_serial_nrf52832_xxAA_s132_6.0.0.dir/C_/ver/mod/nRF5_SDK_15.0.0_a53641a/modules/nrfx/mdk/gcc_startup_nrf52.S.obj
                0x00037748                Reset_Handler
                0x00037770                NMI_Handler
                0x00037772                HardFault_Handler
                0x00037774                MemoryManagement_Handler
                0x00037776                BusFault_Handler
                0x00037778                UsageFault_Handler
                0x0003777a                SVC_Handler
                0x0003777c                DebugMon_Handler
                0x0003777e                PendSV_Handler
                0x00037780                SysTick_Handler
                0x00037782                RADIO_IRQHandler
                0x00037782                PDM_IRQHandler
                0x00037782                TEMP_IRQHandler
                0x00037782                TIMER3_IRQHandler
                0x00037782                FPU_IRQHandler
                0x00037782                RTC0_IRQHandler
                0x00037782                PWM1_IRQHandler
                0x00037782                UARTE0_UART0_IRQHandler
                0x00037782                POWER_CLOCK_IRQHandler
                0x00037782                I2S_IRQHandler
                0x00037782                SWI4_EGU4_IRQHandler
                0x00037782                TIMER0_IRQHandler
                0x00037782                SPIM0_SPIS0_TWIM0_TWIS0_SPI0_TWI0_IRQHandler
                0x00037782                TIMER1_IRQHandler
                0x00037782                PWM2_IRQHandler
                0x00037782                ECB_IRQHandler
                0x00037782                SPIM1_SPIS1_TWIM1_TWIS1_SPI1_TWI1_IRQHandler
                0x00037782                Default_Handler
                0x00037782                SAADC_IRQHandler
                0x00037782                CCM_AAR_IRQHandler
                0x00037782                WDT_IRQHandler
                0x00037782                TIMER4_IRQHandler
                0x00037782                SWI5_EGU5_IRQHandler
                0x00037782                RNG_IRQHandler
                0x00037782                RTC2_IRQHandler
                0x00037782                PWM0_IRQHandler
                0x00037782                SWI3_EGU3_IRQHandler
                0x00037782                RTC1_IRQHandler
                0x00037782                SWI1_EGU1_IRQHandler
                0x00037782                SPIM2_SPIS2_SPI2_IRQHandler
                0x00037782                NFCT_IRQHandler
                0x00037782                SWI0_EGU0_IRQHandler
                0x00037782                MWU_IRQHandler
                0x00037782                TIMER2_IRQHandler
                0x00037782                COMP_LPCOMP_IRQHandler
 .text.app_error_handler_bare
                0x00037784       0x1a examples/dfu/CMakeFiles/dfu_no_serial_nrf52832_xxAA_s132_6.0.0.dir/C_/ver/mod/nRF5_SDK_15.0.0_a53641a/components/libraries/util/app_error.c.obj
                0x00037784                app_error_handler_bare
 .text.app_error_handler
                0x0003779e       0x1a examples/dfu/CMakeFiles/dfu_no_serial_nrf52832_xxAA_s132_6.0.0.dir/C_/ver/mod/nRF5_SDK_15.0.0_a53641a/components/libraries/util/app_error_handler_gcc.c.obj
                0x0003779e                app_error_handler
 .text._GetAvailWriteSpace
                0x000377b8       0x1c external/rtt/librtt_nrf52832_xxAA.a(SEGGER_RTT.c.obj)
 .text._WriteNoCheck
                0x000377d4       0x3c external/rtt/librtt_nrf52832_xxAA.a(SEGGER_RTT.c.obj)
 .text._WriteBlocking
                0x00037810       0x52 external/rtt/librtt_nrf52832_xxAA.a(SEGGER_RTT.c.obj)
 *fill*         0x00037862        0x2 
 .text._DoInit  0x00037864       0x60 external/rtt/librtt_nrf52832_xxAA.a(SEGGER_RTT.c.obj)
 .text.SEGGER_RTT_WriteNoLock
                0x000378c4       0x68 external/rtt/librtt_nrf52832_xxAA.a(SEGGER_RTT.c.obj)
                0x000378c4                SEGGER_RTT_WriteNoLock
 .text.SEGGER_RTT_Write
                0x0003792c       0x34 external/rtt/librtt_nrf52832_xxAA.a(SEGGER_RTT.c.obj)
                0x0003792c                SEGGER_RTT_Write
 .text._StoreChar
                0x00037960       0x3e external/rtt/librtt_nrf52832_xxAA.a(SEGGER_RTT_printf.c.obj)
 *fill*         0x0003799e        0x2 
 .text._PrintUnsigned
                0x000379a0       0xd0 external/rtt/librtt_nrf52832_xxAA.a(SEGGER_RTT_printf.c.obj)
 .text.SEGGER_RTT_vprintf
                0x00037a70      0x246 external/rtt/librtt_nrf52832_xxAA.a(SEGGER_RTT_printf.c.obj)
                0x00037a70                SEGGER_RTT_vprintf
 .text.SEGGER_RTT_printf
                0x00037cb6       0x1e external/rtt/librtt_nrf52832_xxAA.a(SEGGER_RTT_printf.c.obj)
                0x00037cb6                SEGGER_RTT_printf
 .text.uECC_vli_mult
                0x00037cd4       0x64 external/micro-ecc/libuECC_nrf52832_xxAA.a(uECC.c.obj)
 .text.uECC_vli_clear
                0x00037d38       0x16 external/micro-ecc/libuECC_nrf52832_xxAA.a(uECC.c.obj)
 .text.uECC_vli_isZero
                0x00037d4e       0x1e external/micro-ecc/libuECC_nrf52832_xxAA.a(uECC.c.obj)
 .text.uECC_vli_testBit
                0x00037d6c       0x14 external/micro-ecc/libuECC_nrf52832_xxAA.a(uECC.c.obj)
 .text.uECC_vli_numBits
                0x00037d80       0x3a external/micro-ecc/libuECC_nrf52832_xxAA.a(uECC.c.obj)
 .text.uECC_vli_set
                0x00037dba       0x18 external/micro-ecc/libuECC_nrf52832_xxAA.a(uECC.c.obj)
 .text.uECC_vli_cmp_unsafe
                0x00037dd2       0x28 external/micro-ecc/libuECC_nrf52832_xxAA.a(uECC.c.obj)
 .text.uECC_vli_rshift1
                0x00037dfa       0x1c external/micro-ecc/libuECC_nrf52832_xxAA.a(uECC.c.obj)
 .text.uECC_vli_modMult_fast
                0x00037e16       0x20 external/micro-ecc/libuECC_nrf52832_xxAA.a(uECC.c.obj)
 .text.uECC_vli_modSquare_fast
                0x00037e36        0x8 external/micro-ecc/libuECC_nrf52832_xxAA.a(uECC.c.obj)
 .text.apply_z  0x00037e3e       0x3e external/micro-ecc/libuECC_nrf52832_xxAA.a(uECC.c.obj)
 .text.uECC_vli_nativeToBytes
                0x00037e7c       0x28 external/micro-ecc/libuECC_nrf52832_xxAA.a(uECC.c.obj)
 .text.uECC_vli_bytesToNative
                0x00037ea4       0x40 external/micro-ecc/libuECC_nrf52832_xxAA.a(uECC.c.obj)
 .text.default_RNG
                0x00037ee4        0xc external/micro-ecc/libuECC_nrf52832_xxAA.a(uECC.c.obj)
 .text.uECC_vli_add.isra.0
                0x00037ef0       0x4a external/micro-ecc/libuECC_nrf52832_xxAA.a(uECC.c.obj)
 .text.regularize_k
                0x00037f3a       0x50 external/micro-ecc/libuECC_nrf52832_xxAA.a(uECC.c.obj)
 .text.uECC_vli_sub.isra.1
                0x00037f8a       0x4e external/micro-ecc/libuECC_nrf52832_xxAA.a(uECC.c.obj)
 .text.uECC_vli_cmp
                0x00037fd8       0x30 external/micro-ecc/libuECC_nrf52832_xxAA.a(uECC.c.obj)
 .text.uECC_generate_random_int
                0x00038008       0x78 external/micro-ecc/libuECC_nrf52832_xxAA.a(uECC.c.obj)
 .text.uECC_vli_modAdd
                0x00038080       0x2e external/micro-ecc/libuECC_nrf52832_xxAA.a(uECC.c.obj)
 *fill*         0x000380ae        0x2 
 .text.vli_mmod_fast_secp256r1
                0x000380b0      0x194 external/micro-ecc/libuECC_nrf52832_xxAA.a(uECC.c.obj)
 .text.uECC_vli_modSub.isra.2
                0x00038244       0x1c external/micro-ecc/libuECC_nrf52832_xxAA.a(uECC.c.obj)
 .text.double_jacobian_default
                0x00038260      0x14a external/micro-ecc/libuECC_nrf52832_xxAA.a(uECC.c.obj)
 .text.x_side_default
                0x000383aa       0x5a external/micro-ecc/libuECC_nrf52832_xxAA.a(uECC.c.obj)
 .text.XYcZ_add
                0x00038404       0xbc external/micro-ecc/libuECC_nrf52832_xxAA.a(uECC.c.obj)
 .text.XYcZ_addC
                0x000384c0      0x10a external/micro-ecc/libuECC_nrf52832_xxAA.a(uECC.c.obj)
 .text.vli_modInv_update
                0x000385ca       0x36 external/micro-ecc/libuECC_nrf52832_xxAA.a(uECC.c.obj)
 .text.uECC_vli_modInv
                0x00038600      0x102 external/micro-ecc/libuECC_nrf52832_xxAA.a(uECC.c.obj)
 .text.EccPoint_mult
                0x00038702      0x19e external/micro-ecc/libuECC_nrf52832_xxAA.a(uECC.c.obj)
 .text.EccPoint_compute_public_key
                0x000388a0       0x54 external/micro-ecc/libuECC_nrf52832_xxAA.a(uECC.c.obj)
 .text.uECC_secp256r1
                0x000388f4        0x8 external/micro-ecc/libuECC_nrf52832_xxAA.a(uECC.c.obj)
                0x000388f4                uECC_secp256r1
 .text.uECC_make_key
                0x000388fc       0x7e external/micro-ecc/libuECC_nrf52832_xxAA.a(uECC.c.obj)
                0x000388fc                uECC_make_key
 *fill*         0x0003897a        0x2 
 .text.uECC_shared_secret
                0x0003897c       0xbc external/micro-ecc/libuECC_nrf52832_xxAA.a(uECC.c.obj)
                0x0003897c                uECC_shared_secret
 .text.uECC_valid_point
                0x00038a38       0x86 external/micro-ecc/libuECC_nrf52832_xxAA.a(uECC.c.obj)
                0x00038a38                uECC_valid_point
 .text.uECC_valid_public_key
                0x00038abe       0x32 external/micro-ecc/libuECC_nrf52832_xxAA.a(uECC.c.obj)
                0x00038abe                uECC_valid_public_key
 .text.exit     0x00038af0       0x28 c:/mesh/arm_gcc/bin/../lib/gcc/arm-none-eabi/6.3.1/../../../../arm-none-eabi/lib/thumb/v7e-m/fpv4-sp/hard\libg_nano.a(lib_a-exit.o)
                0x00038af0                exit
 .text.__libc_init_array
                0x00038b18       0x48 c:/mesh/arm_gcc/bin/../lib/gcc/arm-none-eabi/6.3.1/../../../../arm-none-eabi/lib/thumb/v7e-m/fpv4-sp/hard\libg_nano.a(lib_a-init.o)
                0x00038b18                __libc_init_array
 .text.malloc   0x00038b60       0x10 c:/mesh/arm_gcc/bin/../lib/gcc/arm-none-eabi/6.3.1/../../../../arm-none-eabi/lib/thumb/v7e-m/fpv4-sp/hard\libg_nano.a(lib_a-malloc.o)
                0x00038b60                malloc
 .text.free     0x00038b70       0x10 c:/mesh/arm_gcc/bin/../lib/gcc/arm-none-eabi/6.3.1/../../../../arm-none-eabi/lib/thumb/v7e-m/fpv4-sp/hard\libg_nano.a(lib_a-malloc.o)
                0x00038b70                free
 .text.memcmp   0x00038b80       0x1e c:/mesh/arm_gcc/bin/../lib/gcc/arm-none-eabi/6.3.1/../../../../arm-none-eabi/lib/thumb/v7e-m/fpv4-sp/hard\libg_nano.a(lib_a-memcmp.o)
                0x00038b80                memcmp
 .text.memcpy   0x00038b9e       0x16 c:/mesh/arm_gcc/bin/../lib/gcc/arm-none-eabi/6.3.1/../../../../arm-none-eabi/lib/thumb/v7e-m/fpv4-sp/hard\libg_nano.a(lib_a-memcpy-stub.o)
                0x00038b9e                memcpy
 .text.memset   0x00038bb4       0x10 c:/mesh/arm_gcc/bin/../lib/gcc/arm-none-eabi/6.3.1/../../../../arm-none-eabi/lib/thumb/v7e-m/fpv4-sp/hard\libg_nano.a(lib_a-memset.o)
                0x00038bb4                memset
 .text._free_r  0x00038bc4       0x9c c:/mesh/arm_gcc/bin/../lib/gcc/arm-none-eabi/6.3.1/../../../../arm-none-eabi/lib/thumb/v7e-m/fpv4-sp/hard\libg_nano.a(lib_a-nano-freer.o)
                0x00038bc4                _free_r
 .text._malloc_r
                0x00038c60       0xbc c:/mesh/arm_gcc/bin/../lib/gcc/arm-none-eabi/6.3.1/../../../../arm-none-eabi/lib/thumb/v7e-m/fpv4-sp/hard\libg_nano.a(lib_a-nano-mallocr.o)
                0x00038c60                _malloc_r
 .text._sbrk_r  0x00038d1c       0x20 c:/mesh/arm_gcc/bin/../lib/gcc/arm-none-eabi/6.3.1/../../../../arm-none-eabi/lib/thumb/v7e-m/fpv4-sp/hard\libg_nano.a(lib_a-sbrkr.o)
                0x00038d1c                _sbrk_r
 .text.strcpy   0x00038d3c       0x10 c:/mesh/arm_gcc/bin/../lib/gcc/arm-none-eabi/6.3.1/../../../../arm-none-eabi/lib/thumb/v7e-m/fpv4-sp/hard\libg_nano.a(lib_a-strcpy.o)
                0x00038d3c                strcpy
 .text          0x00038d4c       0x10 c:/mesh/arm_gcc/bin/../lib/gcc/arm-none-eabi/6.3.1/../../../../arm-none-eabi/lib/thumb/v7e-m/fpv4-sp/hard\libg_nano.a(lib_a-strlen.o)
                0x00038d4c                strlen
 .text.strrchr  0x00038d5c       0x26 c:/mesh/arm_gcc/bin/../lib/gcc/arm-none-eabi/6.3.1/../../../../arm-none-eabi/lib/thumb/v7e-m/fpv4-sp/hard\libg_nano.a(lib_a-strrchr.o)
                0x00038d5c                strrchr
 .text.__malloc_lock
                0x00038d82        0x2 c:/mesh/arm_gcc/bin/../lib/gcc/arm-none-eabi/6.3.1/../../../../arm-none-eabi/lib/thumb/v7e-m/fpv4-sp/hard\libg_nano.a(lib_a-mlock.o)
                0x00038d82                __malloc_lock
 .text.__malloc_unlock
                0x00038d84        0x2 c:/mesh/arm_gcc/bin/../lib/gcc/arm-none-eabi/6.3.1/../../../../arm-none-eabi/lib/thumb/v7e-m/fpv4-sp/hard\libg_nano.a(lib_a-mlock.o)
                0x00038d84                __malloc_unlock
 .text.strchr   0x00038d86       0x1c c:/mesh/arm_gcc/bin/../lib/gcc/arm-none-eabi/6.3.1/../../../../arm-none-eabi/lib/thumb/v7e-m/fpv4-sp/hard\libg_nano.a(lib_a-strchr.o)
                0x00038d86                strchr
 *fill*         0x00038da2        0x2 
 .text._sbrk    0x00038da4       0x1c c:/mesh/arm_gcc/bin/../lib/gcc/arm-none-eabi/6.3.1/../../../../arm-none-eabi/lib/thumb/v7e-m/fpv4-sp/hard\libnosys.a(sbrk.o)
                0x00038da4                _sbrk
 .text._exit    0x00038dc0        0x4 c:/mesh/arm_gcc/bin/../lib/gcc/arm-none-eabi/6.3.1/../../../../arm-none-eabi/lib/thumb/v7e-m/fpv4-sp/hard\libnosys.a(_exit.o)
                0x00038dc0                _exit
 *(.init)
 .init          0x00038dc4        0x4 c:/mesh/arm_gcc/bin/../lib/gcc/arm-none-eabi/6.3.1/thumb/v7e-m/fpv4-sp/hard/crti.o
                0x00038dc4                _init
 .init          0x00038dc8        0x8 c:/mesh/arm_gcc/bin/../lib/gcc/arm-none-eabi/6.3.1/thumb/v7e-m/fpv4-sp/hard/crtn.o
 *(.fini)
 .fini          0x00038dd0        0x4 c:/mesh/arm_gcc/bin/../lib/gcc/arm-none-eabi/6.3.1/thumb/v7e-m/fpv4-sp/hard/crti.o
                0x00038dd0                _fini
 .fini          0x00038dd4        0x8 c:/mesh/arm_gcc/bin/../lib/gcc/arm-none-eabi/6.3.1/thumb/v7e-m/fpv4-sp/hard/crtn.o
 *crtbegin.o(.ctors)
 *crtbegin?.o(.ctors)
 *(EXCLUDE_FILE(*crtend.o *crtend?.o) .ctors)
 *(SORT(.ctors.*))
 *(.ctors)
 *crtbegin.o(.dtors)
 *crtbegin?.o(.dtors)
 *(EXCLUDE_FILE(*crtend.o *crtend?.o) .dtors)
 *(SORT(.dtors.*))
 *(.dtors)
 *(.rodata*)
 .rodata.config_server_evt_cb.str1.1
                0x00038ddc       0x34 examples/dfu/CMakeFiles/dfu_no_serial_nrf52832_xxAA_s132_6.0.0.dir/src/main.c.obj
 .rodata.main.str1.1
                0x00038e10       0x95 examples/dfu/CMakeFiles/dfu_no_serial_nrf52832_xxAA_s132_6.0.0.dir/src/main.c.obj
 .rodata.static_auth_data.12554
                0x00038ea5       0x10 examples/dfu/CMakeFiles/dfu_no_serial_nrf52832_xxAA_s132_6.0.0.dir/src/main.c.obj
 .rodata.mesh_softdevice_init.str1.1
                0x00038eb5       0xa4 examples/dfu/CMakeFiles/dfu_no_serial_nrf52832_xxAA_s132_6.0.0.dir/__/common/src/mesh_softdevice_init.c.obj
 .rodata        0x00038f59        0xb examples/dfu/CMakeFiles/dfu_no_serial_nrf52832_xxAA_s132_6.0.0.dir/__/common/src/mesh_provisionee.c.obj
 *fill*         0x00038f64        0xc 
 .rodata.delay_bytecode.8414
                0x00038f70        0x6 examples/dfu/CMakeFiles/dfu_no_serial_nrf52832_xxAA_s132_6.0.0.dir/__/common/src/simple_hal.c.obj
 .rodata.m_buttons_list
                0x00038f76        0x4 examples/dfu/CMakeFiles/dfu_no_serial_nrf52832_xxAA_s132_6.0.0.dir/__/common/src/simple_hal.c.obj
 .rodata.mesh_evt_cb.str1.1
                0x00038f7a       0x2f examples/dfu/CMakeFiles/dfu_no_serial_nrf52832_xxAA_s132_6.0.0.dir/__/__/mesh/access/src/access.c.obj
 .rodata.multiply_de_bruijn_bit_position.9260
                0x00038fa9       0x20 examples/dfu/CMakeFiles/dfu_no_serial_nrf52832_xxAA_s132_6.0.0.dir/__/__/mesh/access/src/access.c.obj
 .rodata.packet_tx.str1.1
                0x00038fc9       0x24 examples/dfu/CMakeFiles/dfu_no_serial_nrf52832_xxAA_s132_6.0.0.dir/__/__/mesh/access/src/access.c.obj
 *fill*         0x00038fed        0x3 
 .rodata.m_flash_groups
                0x00038ff0       0xa8 examples/dfu/CMakeFiles/dfu_no_serial_nrf52832_xxAA_s132_6.0.0.dir/__/__/mesh/access/src/device_state_manager.c.obj
 .rodata.multiply_de_bruijn_bit_position.9366
                0x00039098       0x20 examples/dfu/CMakeFiles/dfu_no_serial_nrf52832_xxAA_s132_6.0.0.dir/__/__/mesh/access/src/device_state_manager.c.obj
 .rodata        0x000390b8        0x8 examples/dfu/CMakeFiles/dfu_no_serial_nrf52832_xxAA_s132_6.0.0.dir/__/__/models/config/src/config_server.c.obj
 .rodata.CSWTCH.122
                0x000390c0       0x10 examples/dfu/CMakeFiles/dfu_no_serial_nrf52832_xxAA_s132_6.0.0.dir/__/__/models/config/src/config_server.c.obj
 .rodata.opcode_handlers
                0x000390d0      0x170 examples/dfu/CMakeFiles/dfu_no_serial_nrf52832_xxAA_s132_6.0.0.dir/__/__/models/config/src/config_server.c.obj
 .rodata.m_opcode_handlers
                0x00039240       0x58 examples/dfu/CMakeFiles/dfu_no_serial_nrf52832_xxAA_s132_6.0.0.dir/__/__/models/health/src/health_server.c.obj
 .rodata.multiply_de_bruijn_bit_position.9304
                0x00039298       0x20 examples/dfu/CMakeFiles/dfu_no_serial_nrf52832_xxAA_s132_6.0.0.dir/__/__/models/health/src/health_server.c.obj
 .rodata.m_prov_callbacks
                0x000392b8       0x10 examples/dfu/CMakeFiles/dfu_no_serial_nrf52832_xxAA_s132_6.0.0.dir/__/__/mesh/prov/src/prov_provisionee.c.obj
 .rodata.prov_provisionee_cb_ack_received.str1.1
                0x000392c8       0x53 examples/dfu/CMakeFiles/dfu_no_serial_nrf52832_xxAA_s132_6.0.0.dir/__/__/mesh/prov/src/prov_provisionee.c.obj
 .rodata.multiply_de_bruijn_bit_position.9313
                0x0003931b       0x20 examples/dfu/CMakeFiles/dfu_no_serial_nrf52832_xxAA_s132_6.0.0.dir/__/__/mesh/prov/src/nrf_mesh_prov.c.obj
 .rodata.pdu_sizes.11238
                0x0003933b        0xa examples/dfu/CMakeFiles/dfu_no_serial_nrf52832_xxAA_s132_6.0.0.dir/__/__/mesh/prov/src/provisioning.c.obj
 .rodata.alphanumeric.11343
                0x00039345       0x25 examples/dfu/CMakeFiles/dfu_no_serial_nrf52832_xxAA_s132_6.0.0.dir/__/__/mesh/prov/src/prov_utils.c.obj
 *fill*         0x0003936a        0x2 
 .rodata.numeric_max.11337
                0x0003936c       0x24 examples/dfu/CMakeFiles/dfu_no_serial_nrf52832_xxAA_s132_6.0.0.dir/__/__/mesh/prov/src/prov_utils.c.obj
 .rodata.prov_utils_authentication_values_derive.str1.1
                0x00039390        0x5 examples/dfu/CMakeFiles/dfu_no_serial_nrf52832_xxAA_s132_6.0.0.dir/__/__/mesh/prov/src/prov_utils.c.obj
 .rodata.prov_utils_derive_keys.str1.1
                0x00039395        0xf examples/dfu/CMakeFiles/dfu_no_serial_nrf52832_xxAA_s132_6.0.0.dir/__/__/mesh/prov/src/prov_utils.c.obj
 .rodata.add_active_bearer.str1.1
                0x000393a4       0x2c examples/dfu/CMakeFiles/dfu_no_serial_nrf52832_xxAA_s132_6.0.0.dir/__/__/mesh/prov/src/prov_bearer_adv.c.obj
 .rodata.crctable.10972
                0x000393d0      0x100 examples/dfu/CMakeFiles/dfu_no_serial_nrf52832_xxAA_s132_6.0.0.dir/__/__/mesh/prov/src/prov_bearer_adv.c.obj
 .rodata.interface.11202
                0x000394d0       0x14 examples/dfu/CMakeFiles/dfu_no_serial_nrf52832_xxAA_s132_6.0.0.dir/__/__/mesh/prov/src/prov_bearer_adv.c.obj
 .rodata.prov_bearer_adv_packet_in.str1.1
                0x000394e4      0x26e examples/dfu/CMakeFiles/dfu_no_serial_nrf52832_xxAA_s132_6.0.0.dir/__/__/mesh/prov/src/prov_bearer_adv.c.obj
 .rodata.tx_retry_cb.str1.1
                0x00039752       0x37 examples/dfu/CMakeFiles/dfu_no_serial_nrf52832_xxAA_s132_6.0.0.dir/__/__/mesh/prov/src/prov_bearer_adv.c.obj
 .rodata.abort_timeout.str1.1
                0x00039789       0x19 examples/dfu/CMakeFiles/dfu_no_serial_nrf52832_xxAA_s132_6.0.0.dir/__/__/mesh/dfu/src/nrf_mesh_dfu.c.obj
 .rodata.dfu_evt_handler.str1.1
                0x000397a2      0x182 examples/dfu/CMakeFiles/dfu_no_serial_nrf52832_xxAA_s132_6.0.0.dir/__/__/mesh/dfu/src/nrf_mesh_dfu.c.obj
 .rodata.flash_op_complete.str1.1
                0x00039924       0x3b examples/dfu/CMakeFiles/dfu_no_serial_nrf52832_xxAA_s132_6.0.0.dir/__/__/mesh/dfu/src/nrf_mesh_dfu.c.obj
 .rodata.m_adv_channels
                0x0003995f        0x3 examples/dfu/CMakeFiles/dfu_no_serial_nrf52832_xxAA_s132_6.0.0.dir/__/__/mesh/dfu/src/nrf_mesh_dfu.c.obj
 .rodata.nrf_mesh_dfu_cmd_send.str1.1
                0x00039962       0x18 examples/dfu/CMakeFiles/dfu_no_serial_nrf52832_xxAA_s132_6.0.0.dir/__/__/mesh/dfu/src/nrf_mesh_dfu.c.obj
 .rodata.timer_timeout.str1.1
                0x0003997a       0x18 examples/dfu/CMakeFiles/dfu_no_serial_nrf52832_xxAA_s132_6.0.0.dir/__/__/mesh/dfu/src/nrf_mesh_dfu.c.obj
                                 0x13 (size before relaxing)
 .rodata.app_error_fault_handler.str1.1
                0x0003997a       0xbd examples/dfu/CMakeFiles/dfu_no_serial_nrf52832_xxAA_s132_6.0.0.dir/__/common/src/app_error_weak.c.obj
 .rodata.mesh_assertion_handler.str1.1
                0x00039a37       0xbd examples/dfu/CMakeFiles/dfu_no_serial_nrf52832_xxAA_s132_6.0.0.dir/__/common/src/assertion_handler_weak.c.obj
                                  0x1 (size before relaxing)
 .rodata.sar_ctx_cancel.str1.1
                0x00039a37       0x23 examples/dfu/CMakeFiles/dfu_no_serial_nrf52832_xxAA_s132_6.0.0.dir/__/__/mesh/core/src/transport.c.obj
 .rodata.test_transport_decrypt.str1.1
                0x00039a5a       0x30 examples/dfu/CMakeFiles/dfu_no_serial_nrf52832_xxAA_s132_6.0.0.dir/__/__/mesh/core/src/transport.c.obj
 .rodata.transport_packet_in.str1.1
                0x00039a8a       0x24 examples/dfu/CMakeFiles/dfu_no_serial_nrf52832_xxAA_s132_6.0.0.dir/__/__/mesh/core/src/transport.c.obj
 .rodata.upper_transport_access_packet_in.str1.1
                0x00039aae       0x29 examples/dfu/CMakeFiles/dfu_no_serial_nrf52832_xxAA_s132_6.0.0.dir/__/__/mesh/core/src/transport.c.obj
 .rodata.upper_transport_packet_in.str1.1
                0x00039ad7       0x2e examples/dfu/CMakeFiles/dfu_no_serial_nrf52832_xxAA_s132_6.0.0.dir/__/__/mesh/core/src/transport.c.obj
 .rodata.upper_transport_tx.str1.1
                0x00039b05        0xe examples/dfu/CMakeFiles/dfu_no_serial_nrf52832_xxAA_s132_6.0.0.dir/__/__/mesh/core/src/transport.c.obj
                                 0x16 (size before relaxing)
 *fill*         0x00039b13        0x1 
 .rodata.m_procedure_steps
                0x00039b14       0x28 examples/dfu/CMakeFiles/dfu_no_serial_nrf52832_xxAA_s132_6.0.0.dir/__/__/mesh/core/src/flash_manager_defrag.c.obj
 .rodata.m_all_operations
                0x00039b3c       0x10 examples/dfu/CMakeFiles/dfu_no_serial_nrf52832_xxAA_s132_6.0.0.dir/__/__/mesh/core/src/mesh_flash.c.obj
 .rodata.types_lookup.9059
                0x00039b4c        0x4 examples/dfu/CMakeFiles/dfu_no_serial_nrf52832_xxAA_s132_6.0.0.dir/__/__/mesh/core/src/nrf_mesh_utils.c.obj
 .rodata.__func__.11531
                0x00039b50       0x15 examples/dfu/CMakeFiles/dfu_no_serial_nrf52832_xxAA_s132_6.0.0.dir/__/__/mesh/core/src/nrf_mesh.c.obj
 .rodata.nrf_mesh_listen.str1.1
                0x00039b65       0x70 examples/dfu/CMakeFiles/dfu_no_serial_nrf52832_xxAA_s132_6.0.0.dir/__/__/mesh/core/src/nrf_mesh.c.obj
 .rodata.nrf_mesh_packet_send.str1.1
                0x00039bd5       0x70 examples/dfu/CMakeFiles/dfu_no_serial_nrf52832_xxAA_s132_6.0.0.dir/__/__/mesh/core/src/nrf_mesh.c.obj
                                  0x4 (size before relaxing)
 *fill*         0x00039bd5        0x1 
 .rodata.CSWTCH.8
                0x00039bd6       0x10 examples/dfu/CMakeFiles/dfu_no_serial_nrf52832_xxAA_s132_6.0.0.dir/__/__/mesh/core/src/hal.c.obj
 .rodata.Rb.7352
                0x00039be6       0x10 examples/dfu/CMakeFiles/dfu_no_serial_nrf52832_xxAA_s132_6.0.0.dir/__/__/mesh/core/src/aes_cmac.c.obj
 .rodata        0x00039bf6       0x15 examples/dfu/CMakeFiles/dfu_no_serial_nrf52832_xxAA_s132_6.0.0.dir/__/__/mesh/core/src/enc.c.obj
 .rodata.network_packet_in.str1.1
                0x00039c0b       0x48 examples/dfu/CMakeFiles/dfu_no_serial_nrf52832_xxAA_s132_6.0.0.dir/__/__/mesh/core/src/network.c.obj
 .rodata.net_packet_decrypt.str1.1
                0x00039c53       0x31 examples/dfu/CMakeFiles/dfu_no_serial_nrf52832_xxAA_s132_6.0.0.dir/__/__/mesh/core/src/net_packet.c.obj
                                 0x39 (size before relaxing)
 .rodata        0x00039c84        0x7 examples/dfu/CMakeFiles/dfu_no_serial_nrf52832_xxAA_s132_6.0.0.dir/__/__/mesh/core/src/nrf_mesh_keygen.c.obj
 .rodata.log_callback_rtt.str1.1
                0x00039c8b       0x15 examples/dfu/CMakeFiles/dfu_no_serial_nrf52832_xxAA_s132_6.0.0.dir/__/__/mesh/core/src/log.c.obj
 .rodata.str1.1
                0x00039ca0       0x11 examples/dfu/CMakeFiles/dfu_no_serial_nrf52832_xxAA_s132_6.0.0.dir/__/__/mesh/core/src/log.c.obj
 *fill*         0x00039cb1        0x3 
 .rodata.INVALID_HEADER
                0x00039cb4        0x4 examples/dfu/CMakeFiles/dfu_no_serial_nrf52832_xxAA_s132_6.0.0.dir/__/__/mesh/core/src/flash_manager.c.obj
                0x00039cb4                INVALID_HEADER
 .rodata.PADDING_HEADER
                0x00039cb8        0x4 examples/dfu/CMakeFiles/dfu_no_serial_nrf52832_xxAA_s132_6.0.0.dir/__/__/mesh/core/src/flash_manager.c.obj
                0x00039cb8                PADDING_HEADER
 .rodata.SEAL_HEADER
                0x00039cbc        0x4 examples/dfu/CMakeFiles/dfu_no_serial_nrf52832_xxAA_s132_6.0.0.dir/__/__/mesh/core/src/flash_manager.c.obj
                0x00039cbc                SEAL_HEADER
 .rodata.beacon_packet_in.str1.1
                0x00039cc0       0x51 examples/dfu/CMakeFiles/dfu_no_serial_nrf52832_xxAA_s132_6.0.0.dir/__/__/mesh/core/src/beacon.c.obj
                                 0x59 (size before relaxing)
 *fill*         0x00039d11        0x3 
 .rodata.cp_handler
                0x00039d14        0x8 examples/dfu/CMakeFiles/dfu_no_serial_nrf52832_xxAA_s132_6.0.0.dir/__/__/mesh/core/src/heartbeat.c.obj
 .rodata.beacon_tx.str1.1
                0x00039d1c       0x35 examples/dfu/CMakeFiles/dfu_no_serial_nrf52832_xxAA_s132_6.0.0.dir/__/__/mesh/core/src/net_beacon.c.obj
 .rodata.net_beacon_init.str1.1
                0x00039d51        0x5 examples/dfu/CMakeFiles/dfu_no_serial_nrf52832_xxAA_s132_6.0.0.dir/__/__/mesh/core/src/net_beacon.c.obj
 *fill*         0x00039d56        0x2 
 .rodata.m_interface
                0x00039d58        0xc examples/dfu/CMakeFiles/dfu_no_serial_nrf52832_xxAA_s132_6.0.0.dir/__/__/mesh/core/src/core_tx_adv.c.obj
 .rodata.radio_mode_to_us_per_byte.9452
                0x00039d64        0x6 examples/dfu/CMakeFiles/dfu_no_serial_nrf52832_xxAA_s132_6.0.0.dir/__/__/mesh/bearer/src/broadcast.c.obj
 .rodata.channel_rf_offsets.8693
                0x00039d6a       0x28 examples/dfu/CMakeFiles/dfu_no_serial_nrf52832_xxAA_s132_6.0.0.dir/__/__/mesh/bearer/src/radio_config.c.obj
 .rodata        0x00039d92        0x3 examples/dfu/CMakeFiles/dfu_no_serial_nrf52832_xxAA_s132_6.0.0.dir/__/__/mesh/bearer/src/scanner.c.obj
 .rodata._DoInit.str1.1
                0x00039d95       0x14 external/rtt/librtt_nrf52832_xxAA.a(SEGGER_RTT.c.obj)
 .rodata._aV2C.5497
                0x00039da9       0x10 external/rtt/librtt_nrf52832_xxAA.a(SEGGER_RTT_printf.c.obj)
 *fill*         0x00039db9        0x3 
 .rodata.curve_secp256r1
                0x00039dbc       0xb0 external/micro-ecc/libuECC_nrf52832_xxAA.a(uECC.c.obj)
 .rodata._global_impure_ptr
                0x00039e6c        0x4 c:/mesh/arm_gcc/bin/../lib/gcc/arm-none-eabi/6.3.1/../../../../arm-none-eabi/lib/thumb/v7e-m/fpv4-sp/hard\libg_nano.a(lib_a-impure.o)
                0x00039e6c                _global_impure_ptr
 *(.eh_frame*)
 .eh_frame      0x00039e70        0x0 c:/mesh/arm_gcc/bin/../lib/gcc/arm-none-eabi/6.3.1/thumb/v7e-m/fpv4-sp/hard/crtbegin.o
 .eh_frame      0x00039e70        0x4 c:/mesh/arm_gcc/bin/../lib/gcc/arm-none-eabi/6.3.1/thumb/v7e-m/fpv4-sp/hard/crtend.o

.glue_7         0x00039e74        0x0
 .glue_7        0x00039e74        0x0 linker stubs

.glue_7t        0x00039e74        0x0
 .glue_7t       0x00039e74        0x0 linker stubs

.vfp11_veneer   0x00039e74        0x0
 .vfp11_veneer  0x00039e74        0x0 linker stubs

.v4_bx          0x00039e74        0x0
 .v4_bx         0x00039e74        0x0 linker stubs

.iplt           0x00039e74        0x0
 .iplt          0x00039e74        0x0 c:/mesh/arm_gcc/bin/../lib/gcc/arm-none-eabi/6.3.1/thumb/v7e-m/fpv4-sp/hard/crtbegin.o

.pwr_mgmt_data  0x00039e74        0x0
                [!provide]                PROVIDE (__start_pwr_mgmt_data, .)
 *(SORT(.pwr_mgmt_data*))
                [!provide]                PROVIDE (__stop_pwr_mgmt_data, .)

.log_const_data
                0x00039e74        0x0
                [!provide]                PROVIDE (__start_log_const_data, .)
 *(.log_const_data)
                [!provide]                PROVIDE (__stop_log_const_data, .)

.cli_command    0x00039e74        0x0
                [!provide]                PROVIDE (__start_cli_command, .)
 *(.cli_command)
                [!provide]                PROVIDE (__stop_cli_command, .)

.sdh_stack_observers
                0x00039e74        0x0
                [!provide]                PROVIDE (__start_sdh_stack_observers, .)
 *(SORT(.sdh_stack_observers*))
                [!provide]                PROVIDE (__stop_sdh_stack_observers, .)

.sdh_req_observers
                0x00039e74        0x0
                [!provide]                PROVIDE (__start_sdh_req_observers, .)
 *(SORT(.sdh_req_observers*))
                [!provide]                PROVIDE (__stop_sdh_req_observers, .)

.sdh_state_observers
                0x00039e74        0x0
                [!provide]                PROVIDE (__start_sdh_state_observers, .)
 *(SORT(.sdh_state_observers*))
                [!provide]                PROVIDE (__stop_sdh_state_observers, .)

.sdh_ant_observers
                0x00039e74        0x0
                [!provide]                PROVIDE (__start_sdh_ant_observers, .)
 *(SORT(.sdh_ant_observers*))
                [!provide]                PROVIDE (__stop_sdh_ant_observers, .)

.sdh_ble_observers
                0x00039e74        0x0
                [!provide]                PROVIDE (__start_sdh_ble_observers, .)
 *(SORT(.sdh_ble_observers*))
                [!provide]                PROVIDE (__stop_sdh_ble_observers, .)

.sdh_soc_observers
                0x00039e74        0x0
                [!provide]                PROVIDE (__start_sdh_soc_observers, .)
 *(SORT(.sdh_soc_observers*))
                [!provide]                PROVIDE (__stop_sdh_soc_observers, .)

.ARM.extab
 *(.ARM.extab* .gnu.linkonce.armextab.*)
                0x00039e74                __exidx_start = .

.ARM.exidx      0x00039e74        0x8
 *(.ARM.exidx* .gnu.linkonce.armexidx.*)
 .ARM.exidx     0x00039e74        0x8 c:/mesh/arm_gcc/bin/../lib/gcc/arm-none-eabi/6.3.1/../../../../arm-none-eabi/lib/thumb/v7e-m/fpv4-sp/hard/crt0.o
                0x00039e7c                __exidx_end = .
                0x00039e7c                __etext = .

.rel.dyn        0x00039e7c        0x0
 .rel.iplt      0x00039e7c        0x0 c:/mesh/arm_gcc/bin/../lib/gcc/arm-none-eabi/6.3.1/thumb/v7e-m/fpv4-sp/hard/crtbegin.o

.data           0x200032c8      0x14c load address 0x00039e7c
                0x200032c8                __data_start__ = .
 *(vtable)
 *(.data*)
 .data.rom_base
                0x200032c8        0x4 examples/dfu/CMakeFiles/dfu_no_serial_nrf52832_xxAA_s132_6.0.0.dir/src/main.c.obj
                0x200032c8                rom_base
 .data.rom_end  0x200032cc        0x4 examples/dfu/CMakeFiles/dfu_no_serial_nrf52832_xxAA_s132_6.0.0.dir/src/main.c.obj
                0x200032cc                rom_end
 .data.s_evt_handler.11055
                0x200032d0        0x8 examples/dfu/CMakeFiles/dfu_no_serial_nrf52832_xxAA_s132_6.0.0.dir/__/__/mesh/stack/src/mesh_stack.c.obj
 .data.flash_add_mem_available_struct.10384
                0x200032d8       0x10 examples/dfu/CMakeFiles/dfu_no_serial_nrf52832_xxAA_s132_6.0.0.dir/__/__/mesh/access/src/access.c.obj
 .data.flash_clear_mem_available_struct.10473
                0x200032e8       0x10 examples/dfu/CMakeFiles/dfu_no_serial_nrf52832_xxAA_s132_6.0.0.dir/__/__/mesh/access/src/access.c.obj
 .data.flash_store_mem_available_struct.10497
                0x200032f8       0x10 examples/dfu/CMakeFiles/dfu_no_serial_nrf52832_xxAA_s132_6.0.0.dir/__/__/mesh/access/src/access.c.obj
 .data.m_default_ttl
                0x20003308        0x1 examples/dfu/CMakeFiles/dfu_no_serial_nrf52832_xxAA_s132_6.0.0.dir/__/__/mesh/access/src/access.c.obj
 *fill*         0x20003309        0x3 
 .data.mem_listener.10673
                0x2000330c       0x10 examples/dfu/CMakeFiles/dfu_no_serial_nrf52832_xxAA_s132_6.0.0.dir/__/__/mesh/access/src/device_state_manager.c.obj
 .data.mem_listener.10699
                0x2000331c       0x10 examples/dfu/CMakeFiles/dfu_no_serial_nrf52832_xxAA_s132_6.0.0.dir/__/__/mesh/access/src/device_state_manager.c.obj
 .data.m_config_server_handle
                0x2000332c        0x2 examples/dfu/CMakeFiles/dfu_no_serial_nrf52832_xxAA_s132_6.0.0.dir/__/__/models/config/src/config_server.c.obj
 *fill*         0x2000332e        0x2 
 .data.m_mesh_evt_handler
                0x20003330        0x8 examples/dfu/CMakeFiles/dfu_no_serial_nrf52832_xxAA_s132_6.0.0.dir/__/__/models/config/src/config_server.c.obj
 .data.m_async_process_flag
                0x20003338        0x4 examples/dfu/CMakeFiles/dfu_no_serial_nrf52832_xxAA_s132_6.0.0.dir/__/__/mesh/prov/src/prov_bearer_adv.c.obj
 .data.wait.8936
                0x2000333c        0x1 examples/dfu/CMakeFiles/dfu_no_serial_nrf52832_xxAA_s132_6.0.0.dir/__/common/src/app_error_weak.c.obj
 *fill*         0x2000333d        0x3 
 .data.mem_listener.9810
                0x20003340       0x10 examples/dfu/CMakeFiles/dfu_no_serial_nrf52832_xxAA_s132_6.0.0.dir/__/__/mesh/core/src/net_state.c.obj
 .data.mem_listener.9815
                0x20003350       0x10 examples/dfu/CMakeFiles/dfu_no_serial_nrf52832_xxAA_s132_6.0.0.dir/__/__/mesh/core/src/net_state.c.obj
 .data.mem_listener.9829
                0x20003360       0x10 examples/dfu/CMakeFiles/dfu_no_serial_nrf52832_xxAA_s132_6.0.0.dir/__/__/mesh/core/src/net_state.c.obj
 .data.mem_listener.9846
                0x20003370       0x10 examples/dfu/CMakeFiles/dfu_no_serial_nrf52832_xxAA_s132_6.0.0.dir/__/__/mesh/core/src/net_state.c.obj
 .data.m_nrf_mesh_listener
                0x20003380        0xc examples/dfu/CMakeFiles/dfu_no_serial_nrf52832_xxAA_s132_6.0.0.dir/__/__/mesh/core/src/nrf_mesh.c.obj
 .data.g_log_dbg_lvl
                0x2000338c        0x4 examples/dfu/CMakeFiles/dfu_no_serial_nrf52832_xxAA_s132_6.0.0.dir/__/__/mesh/core/src/log.c.obj
                0x2000338c                g_log_dbg_lvl
 .data.g_log_dbg_msk
                0x20003390        0x4 examples/dfu/CMakeFiles/dfu_no_serial_nrf52832_xxAA_s132_6.0.0.dir/__/__/mesh/core/src/log.c.obj
                0x20003390                g_log_dbg_msk
 .data.g_log_hex_digits
                0x20003394        0x4 examples/dfu/CMakeFiles/dfu_no_serial_nrf52832_xxAA_s132_6.0.0.dir/__/__/mesh/core/src/log.c.obj
                0x20003394                g_log_hex_digits
 .data.m_log_callback
                0x20003398        0x4 examples/dfu/CMakeFiles/dfu_no_serial_nrf52832_xxAA_s132_6.0.0.dir/__/__/mesh/core/src/log.c.obj
                0x20003398                m_log_callback
 .data.SystemCoreClock
                0x2000339c        0x4 examples/dfu/CMakeFiles/dfu_no_serial_nrf52832_xxAA_s132_6.0.0.dir/C_/ver/mod/nRF5_SDK_15.0.0_a53641a/modules/nrfx/mdk/system_nrf52.c.obj
                0x2000339c                SystemCoreClock
 .data.g_rng_function
                0x200033a0        0x4 external/micro-ecc/libuECC_nrf52832_xxAA.a(uECC.c.obj)
 .data._impure_ptr
                0x200033a4        0x4 c:/mesh/arm_gcc/bin/../lib/gcc/arm-none-eabi/6.3.1/../../../../arm-none-eabi/lib/thumb/v7e-m/fpv4-sp/hard\libg_nano.a(lib_a-impure.o)
                0x200033a4                _impure_ptr
 .data.impure_data
                0x200033a8       0x60 c:/mesh/arm_gcc/bin/../lib/gcc/arm-none-eabi/6.3.1/../../../../arm-none-eabi/lib/thumb/v7e-m/fpv4-sp/hard\libg_nano.a(lib_a-impure.o)
                0x20003408                . = ALIGN (0x4)
                0x20003408                PROVIDE (__preinit_array_start, .)
 *(.preinit_array)
                0x20003408                PROVIDE (__preinit_array_end, .)
                0x20003408                . = ALIGN (0x4)
                0x20003408                PROVIDE (__init_array_start, .)
 *(SORT(.init_array.*))
 *(.init_array)
 .init_array    0x20003408        0x4 c:/mesh/arm_gcc/bin/../lib/gcc/arm-none-eabi/6.3.1/thumb/v7e-m/fpv4-sp/hard/crtbegin.o
                0x2000340c                PROVIDE (__init_array_end, .)
                0x2000340c                . = ALIGN (0x4)
                [!provide]                PROVIDE (__fini_array_start, .)
 *(SORT(.fini_array.*))
 *(.fini_array)
 .fini_array    0x2000340c        0x4 c:/mesh/arm_gcc/bin/../lib/gcc/arm-none-eabi/6.3.1/thumb/v7e-m/fpv4-sp/hard/crtbegin.o
                [!provide]                PROVIDE (__fini_array_end, .)
 *(.jcr*)
 .jcr           0x20003410        0x0 c:/mesh/arm_gcc/bin/../lib/gcc/arm-none-eabi/6.3.1/thumb/v7e-m/fpv4-sp/hard/crtbegin.o
 .jcr           0x20003410        0x4 c:/mesh/arm_gcc/bin/../lib/gcc/arm-none-eabi/6.3.1/thumb/v7e-m/fpv4-sp/hard/crtend.o
                0x20003414                . = ALIGN (0x4)
                0x20003414                __data_end__ = .
LOAD c:/mesh/arm_gcc/bin/../lib/gcc/arm-none-eabi/6.3.1/thumb/v7e-m/fpv4-sp/hard/crti.o
LOAD c:/mesh/arm_gcc/bin/../lib/gcc/arm-none-eabi/6.3.1/thumb/v7e-m/fpv4-sp/hard/crtbegin.o
LOAD c:/mesh/arm_gcc/bin/../lib/gcc/arm-none-eabi/6.3.1/../../../../arm-none-eabi/lib/thumb/v7e-m/fpv4-sp/hard/crt0.o
LOAD examples/dfu/CMakeFiles/dfu_no_serial_nrf52832_xxAA_s132_6.0.0.dir/src/main.c.obj
LOAD examples/dfu/CMakeFiles/dfu_no_serial_nrf52832_xxAA_s132_6.0.0.dir/__/__/mesh/stack/src/mesh_stack.c.obj
LOAD examples/dfu/CMakeFiles/dfu_no_serial_nrf52832_xxAA_s132_6.0.0.dir/__/common/src/mesh_softdevice_init.c.obj
LOAD examples/dfu/CMakeFiles/dfu_no_serial_nrf52832_xxAA_s132_6.0.0.dir/__/common/src/mesh_provisionee.c.obj
LOAD examples/dfu/CMakeFiles/dfu_no_serial_nrf52832_xxAA_s132_6.0.0.dir/__/common/src/simple_hal.c.obj
LOAD examples/dfu/CMakeFiles/dfu_no_serial_nrf52832_xxAA_s132_6.0.0.dir/__/__/mesh/access/src/access_publish.c.obj
LOAD examples/dfu/CMakeFiles/dfu_no_serial_nrf52832_xxAA_s132_6.0.0.dir/__/__/mesh/access/src/access.c.obj
LOAD examples/dfu/CMakeFiles/dfu_no_serial_nrf52832_xxAA_s132_6.0.0.dir/__/__/mesh/access/src/access_reliable.c.obj
LOAD examples/dfu/CMakeFiles/dfu_no_serial_nrf52832_xxAA_s132_6.0.0.dir/__/__/mesh/access/src/device_state_manager.c.obj
LOAD examples/dfu/CMakeFiles/dfu_no_serial_nrf52832_xxAA_s132_6.0.0.dir/__/__/models/config/src/composition_data.c.obj
LOAD examples/dfu/CMakeFiles/dfu_no_serial_nrf52832_xxAA_s132_6.0.0.dir/__/__/models/config/src/config_server.c.obj
LOAD examples/dfu/CMakeFiles/dfu_no_serial_nrf52832_xxAA_s132_6.0.0.dir/__/__/models/config/src/packed_index_list.c.obj
LOAD examples/dfu/CMakeFiles/dfu_no_serial_nrf52832_xxAA_s132_6.0.0.dir/__/__/models/health/src/health_server.c.obj
LOAD examples/dfu/CMakeFiles/dfu_no_serial_nrf52832_xxAA_s132_6.0.0.dir/__/__/mesh/prov/src/prov_provisioner.c.obj
LOAD examples/dfu/CMakeFiles/dfu_no_serial_nrf52832_xxAA_s132_6.0.0.dir/__/__/mesh/prov/src/prov_provisionee.c.obj
LOAD examples/dfu/CMakeFiles/dfu_no_serial_nrf52832_xxAA_s132_6.0.0.dir/__/__/mesh/prov/src/nrf_mesh_prov.c.obj
LOAD examples/dfu/CMakeFiles/dfu_no_serial_nrf52832_xxAA_s132_6.0.0.dir/__/__/mesh/prov/src/provisioning.c.obj
LOAD examples/dfu/CMakeFiles/dfu_no_serial_nrf52832_xxAA_s132_6.0.0.dir/__/__/mesh/prov/src/prov_beacon.c.obj
LOAD examples/dfu/CMakeFiles/dfu_no_serial_nrf52832_xxAA_s132_6.0.0.dir/__/__/mesh/prov/src/prov_utils.c.obj
LOAD examples/dfu/CMakeFiles/dfu_no_serial_nrf52832_xxAA_s132_6.0.0.dir/__/__/mesh/prov/src/prov_bearer_adv.c.obj
LOAD examples/dfu/CMakeFiles/dfu_no_serial_nrf52832_xxAA_s132_6.0.0.dir/__/__/mesh/dfu/src/nrf_mesh_dfu.c.obj
LOAD examples/dfu/CMakeFiles/dfu_no_serial_nrf52832_xxAA_s132_6.0.0.dir/__/nrf_mesh_weak.c.obj
LOAD examples/dfu/CMakeFiles/dfu_no_serial_nrf52832_xxAA_s132_6.0.0.dir/__/common/src/app_error_weak.c.obj
LOAD examples/dfu/CMakeFiles/dfu_no_serial_nrf52832_xxAA_s132_6.0.0.dir/__/common/src/assertion_handler_weak.c.obj
LOAD examples/dfu/CMakeFiles/dfu_no_serial_nrf52832_xxAA_s132_6.0.0.dir/__/__/mesh/core/src/internal_event.c.obj
LOAD examples/dfu/CMakeFiles/dfu_no_serial_nrf52832_xxAA_s132_6.0.0.dir/__/__/mesh/core/src/nrf_mesh_configure.c.obj
LOAD examples/dfu/CMakeFiles/dfu_no_serial_nrf52832_xxAA_s132_6.0.0.dir/__/__/mesh/core/src/aes.c.obj
LOAD examples/dfu/CMakeFiles/dfu_no_serial_nrf52832_xxAA_s132_6.0.0.dir/__/__/mesh/core/src/msg_cache.c.obj
LOAD examples/dfu/CMakeFiles/dfu_no_serial_nrf52832_xxAA_s132_6.0.0.dir/__/__/mesh/core/src/transport.c.obj
LOAD examples/dfu/CMakeFiles/dfu_no_serial_nrf52832_xxAA_s132_6.0.0.dir/__/__/mesh/core/src/event.c.obj
LOAD examples/dfu/CMakeFiles/dfu_no_serial_nrf52832_xxAA_s132_6.0.0.dir/__/__/mesh/core/src/packet_buffer.c.obj
LOAD examples/dfu/CMakeFiles/dfu_no_serial_nrf52832_xxAA_s132_6.0.0.dir/__/__/mesh/core/src/flash_manager_defrag.c.obj
LOAD examples/dfu/CMakeFiles/dfu_no_serial_nrf52832_xxAA_s132_6.0.0.dir/__/__/mesh/core/src/fifo.c.obj
LOAD examples/dfu/CMakeFiles/dfu_no_serial_nrf52832_xxAA_s132_6.0.0.dir/__/__/mesh/core/src/nrf_flash.c.obj
LOAD examples/dfu/CMakeFiles/dfu_no_serial_nrf52832_xxAA_s132_6.0.0.dir/__/__/mesh/core/src/packet_mgr.c.obj
LOAD examples/dfu/CMakeFiles/dfu_no_serial_nrf52832_xxAA_s132_6.0.0.dir/__/__/mesh/core/src/net_state.c.obj
LOAD examples/dfu/CMakeFiles/dfu_no_serial_nrf52832_xxAA_s132_6.0.0.dir/__/__/mesh/core/src/mesh_flash.c.obj
LOAD examples/dfu/CMakeFiles/dfu_no_serial_nrf52832_xxAA_s132_6.0.0.dir/__/__/mesh/core/src/nrf_mesh_utils.c.obj
LOAD examples/dfu/CMakeFiles/dfu_no_serial_nrf52832_xxAA_s132_6.0.0.dir/__/__/mesh/core/src/nrf_mesh.c.obj
LOAD examples/dfu/CMakeFiles/dfu_no_serial_nrf52832_xxAA_s132_6.0.0.dir/__/__/mesh/core/src/queue.c.obj
LOAD examples/dfu/CMakeFiles/dfu_no_serial_nrf52832_xxAA_s132_6.0.0.dir/__/__/mesh/core/src/hal.c.obj
LOAD examples/dfu/CMakeFiles/dfu_no_serial_nrf52832_xxAA_s132_6.0.0.dir/__/__/mesh/core/src/aes_cmac.c.obj
LOAD examples/dfu/CMakeFiles/dfu_no_serial_nrf52832_xxAA_s132_6.0.0.dir/__/__/mesh/core/src/timer_scheduler.c.obj
LOAD examples/dfu/CMakeFiles/dfu_no_serial_nrf52832_xxAA_s132_6.0.0.dir/__/__/mesh/core/src/timer.c.obj
LOAD examples/dfu/CMakeFiles/dfu_no_serial_nrf52832_xxAA_s132_6.0.0.dir/__/__/mesh/core/src/ticker.c.obj
LOAD examples/dfu/CMakeFiles/dfu_no_serial_nrf52832_xxAA_s132_6.0.0.dir/__/__/mesh/core/src/rand.c.obj
LOAD examples/dfu/CMakeFiles/dfu_no_serial_nrf52832_xxAA_s132_6.0.0.dir/__/__/mesh/core/src/nrf_mesh_opt.c.obj
LOAD examples/dfu/CMakeFiles/dfu_no_serial_nrf52832_xxAA_s132_6.0.0.dir/__/__/mesh/core/src/timeslot.c.obj
LOAD examples/dfu/CMakeFiles/dfu_no_serial_nrf52832_xxAA_s132_6.0.0.dir/__/__/mesh/core/src/bearer_event.c.obj
LOAD examples/dfu/CMakeFiles/dfu_no_serial_nrf52832_xxAA_s132_6.0.0.dir/__/__/mesh/core/src/enc.c.obj
LOAD examples/dfu/CMakeFiles/dfu_no_serial_nrf52832_xxAA_s132_6.0.0.dir/__/__/mesh/core/src/network.c.obj
LOAD examples/dfu/CMakeFiles/dfu_no_serial_nrf52832_xxAA_s132_6.0.0.dir/__/__/mesh/core/src/net_packet.c.obj
LOAD examples/dfu/CMakeFiles/dfu_no_serial_nrf52832_xxAA_s132_6.0.0.dir/__/__/mesh/core/src/msqueue.c.obj
LOAD examples/dfu/CMakeFiles/dfu_no_serial_nrf52832_xxAA_s132_6.0.0.dir/__/__/mesh/core/src/nrf_mesh_keygen.c.obj
LOAD examples/dfu/CMakeFiles/dfu_no_serial_nrf52832_xxAA_s132_6.0.0.dir/__/__/mesh/core/src/cache.c.obj
LOAD examples/dfu/CMakeFiles/dfu_no_serial_nrf52832_xxAA_s132_6.0.0.dir/__/__/mesh/core/src/uri.c.obj
LOAD examples/dfu/CMakeFiles/dfu_no_serial_nrf52832_xxAA_s132_6.0.0.dir/__/__/mesh/core/src/list.c.obj
LOAD examples/dfu/CMakeFiles/dfu_no_serial_nrf52832_xxAA_s132_6.0.0.dir/__/__/mesh/core/src/log.c.obj
LOAD examples/dfu/CMakeFiles/dfu_no_serial_nrf52832_xxAA_s132_6.0.0.dir/__/__/mesh/core/src/flash_manager.c.obj
LOAD examples/dfu/CMakeFiles/dfu_no_serial_nrf52832_xxAA_s132_6.0.0.dir/__/__/mesh/core/src/ccm_soft.c.obj
LOAD examples/dfu/CMakeFiles/dfu_no_serial_nrf52832_xxAA_s132_6.0.0.dir/__/__/mesh/core/src/toolchain.c.obj
LOAD examples/dfu/CMakeFiles/dfu_no_serial_nrf52832_xxAA_s132_6.0.0.dir/__/__/mesh/core/src/replay_cache.c.obj
LOAD examples/dfu/CMakeFiles/dfu_no_serial_nrf52832_xxAA_s132_6.0.0.dir/__/__/mesh/core/src/beacon.c.obj
LOAD examples/dfu/CMakeFiles/dfu_no_serial_nrf52832_xxAA_s132_6.0.0.dir/__/__/mesh/core/src/flash_manager_internal.c.obj
LOAD examples/dfu/CMakeFiles/dfu_no_serial_nrf52832_xxAA_s132_6.0.0.dir/__/__/mesh/core/src/core_tx.c.obj
LOAD examples/dfu/CMakeFiles/dfu_no_serial_nrf52832_xxAA_s132_6.0.0.dir/__/__/mesh/core/src/heartbeat.c.obj
LOAD examples/dfu/CMakeFiles/dfu_no_serial_nrf52832_xxAA_s132_6.0.0.dir/__/__/mesh/core/src/net_beacon.c.obj
LOAD examples/dfu/CMakeFiles/dfu_no_serial_nrf52832_xxAA_s132_6.0.0.dir/__/__/mesh/core/src/fsm.c.obj
LOAD examples/dfu/CMakeFiles/dfu_no_serial_nrf52832_xxAA_s132_6.0.0.dir/__/__/mesh/core/src/core_tx_adv.c.obj
LOAD examples/dfu/CMakeFiles/dfu_no_serial_nrf52832_xxAA_s132_6.0.0.dir/__/__/mesh/bearer/src/ad_listener.c.obj
LOAD examples/dfu/CMakeFiles/dfu_no_serial_nrf52832_xxAA_s132_6.0.0.dir/__/__/mesh/bearer/src/ad_type_filter.c.obj
LOAD examples/dfu/CMakeFiles/dfu_no_serial_nrf52832_xxAA_s132_6.0.0.dir/__/__/mesh/bearer/src/adv_packet_filter.c.obj
LOAD examples/dfu/CMakeFiles/dfu_no_serial_nrf52832_xxAA_s132_6.0.0.dir/__/__/mesh/bearer/src/advertiser.c.obj
LOAD examples/dfu/CMakeFiles/dfu_no_serial_nrf52832_xxAA_s132_6.0.0.dir/__/__/mesh/bearer/src/bearer_handler.c.obj
LOAD examples/dfu/CMakeFiles/dfu_no_serial_nrf52832_xxAA_s132_6.0.0.dir/__/__/mesh/bearer/src/broadcast.c.obj
LOAD examples/dfu/CMakeFiles/dfu_no_serial_nrf52832_xxAA_s132_6.0.0.dir/__/__/mesh/bearer/src/filter_engine.c.obj
LOAD examples/dfu/CMakeFiles/dfu_no_serial_nrf52832_xxAA_s132_6.0.0.dir/__/__/mesh/bearer/src/gap_address_filter.c.obj
LOAD examples/dfu/CMakeFiles/dfu_no_serial_nrf52832_xxAA_s132_6.0.0.dir/__/__/mesh/bearer/src/radio_config.c.obj
LOAD examples/dfu/CMakeFiles/dfu_no_serial_nrf52832_xxAA_s132_6.0.0.dir/__/__/mesh/bearer/src/rssi_filter.c.obj
LOAD examples/dfu/CMakeFiles/dfu_no_serial_nrf52832_xxAA_s132_6.0.0.dir/__/__/mesh/bearer/src/scanner.c.obj
LOAD examples/dfu/CMakeFiles/dfu_no_serial_nrf52832_xxAA_s132_6.0.0.dir/C_/ver/mod/nRF5_SDK_15.0.0_a53641a/modules/nrfx/mdk/system_nrf52.c.obj
LOAD examples/dfu/CMakeFiles/dfu_no_serial_nrf52832_xxAA_s132_6.0.0.dir/C_/ver/mod/nRF5_SDK_15.0.0_a53641a/modules/nrfx/mdk/gcc_startup_nrf52.S.obj
LOAD examples/dfu/CMakeFiles/dfu_no_serial_nrf52832_xxAA_s132_6.0.0.dir/C_/ver/mod/nRF5_SDK_15.0.0_a53641a/components/libraries/util/app_error.c.obj
LOAD examples/dfu/CMakeFiles/dfu_no_serial_nrf52832_xxAA_s132_6.0.0.dir/C_/ver/mod/nRF5_SDK_15.0.0_a53641a/components/libraries/util/app_error_handler_gcc.c.obj
LOAD external/rtt/librtt_nrf52832_xxAA.a
LOAD external/micro-ecc/libuECC_nrf52832_xxAA.a
START GROUP
LOAD c:/mesh/arm_gcc/bin/../lib/gcc/arm-none-eabi/6.3.1/thumb/v7e-m/fpv4-sp/hard\libgcc.a
LOAD c:/mesh/arm_gcc/bin/../lib/gcc/arm-none-eabi/6.3.1/../../../../arm-none-eabi/lib/thumb/v7e-m/fpv4-sp/hard\libg_nano.a
LOAD c:/mesh/arm_gcc/bin/../lib/gcc/arm-none-eabi/6.3.1/../../../../arm-none-eabi/lib/thumb/v7e-m/fpv4-sp/hard\libc_nano.a
END GROUP
START GROUP
LOAD c:/mesh/arm_gcc/bin/../lib/gcc/arm-none-eabi/6.3.1/thumb/v7e-m/fpv4-sp/hard\libgcc.a
LOAD c:/mesh/arm_gcc/bin/../lib/gcc/arm-none-eabi/6.3.1/../../../../arm-none-eabi/lib/thumb/v7e-m/fpv4-sp/hard\libc_nano.a
END GROUP
LOAD c:/mesh/arm_gcc/bin/../lib/gcc/arm-none-eabi/6.3.1/thumb/v7e-m/fpv4-sp/hard/crtend.o
LOAD c:/mesh/arm_gcc/bin/../lib/gcc/arm-none-eabi/6.3.1/thumb/v7e-m/fpv4-sp/hard/crtn.o
START GROUP
LOAD c:/mesh/arm_gcc/bin/../lib/gcc/arm-none-eabi/6.3.1/thumb/v7e-m/fpv4-sp/hard\libgcc.a
LOAD c:/mesh/arm_gcc/bin/../lib/gcc/arm-none-eabi/6.3.1/../../../../arm-none-eabi/lib/thumb/v7e-m/fpv4-sp/hard\libc.a
LOAD c:/mesh/arm_gcc/bin/../lib/gcc/arm-none-eabi/6.3.1/../../../../arm-none-eabi/lib/thumb/v7e-m/fpv4-sp/hard\libnosys.a
END GROUP

.igot.plt       0x20003414        0x0 load address 0x00039fc8
 .igot.plt      0x20003414        0x0 c:/mesh/arm_gcc/bin/../lib/gcc/arm-none-eabi/6.3.1/thumb/v7e-m/fpv4-sp/hard/crtbegin.o
                0x20003414                . = ALIGN (0x4)

.svc_data       0x20003414        0x0
                [!provide]                PROVIDE (__start_svc_data, .)
 *(.svc_data)
                [!provide]                PROVIDE (__stop_svc_data, .)

.fs_data        0x20003414        0x0
                [!provide]                PROVIDE (__start_fs_data, .)
 *(.fs_data)
                [!provide]                PROVIDE (__stop_fs_data, .)

.log_dynamic_data
                0x20003414        0x0
                [!provide]                PROVIDE (__start_log_dynamic_data, .)
 *(.log_dynamic_data)
                [!provide]                PROVIDE (__stop_log_dynamic_data, .)

.cli_sorted_cmd_ptrs
                0x20003414        0x0
                [!provide]                PROVIDE (__start_cli_sorted_cmd_ptrs, .)
 *(.cli_sorted_cmd_ptrs)
                [!provide]                PROVIDE (__stop_cli_sorted_cmd_ptrs, .)

.bss            0x20003418     0x34ac load address 0x00039fd0
                0x20003418                . = ALIGN (0x4)
                0x20003418                __bss_start__ = .
 *(.bss*)
 .bss           0x20003418       0x1c c:/mesh/arm_gcc/bin/../lib/gcc/arm-none-eabi/6.3.1/thumb/v7e-m/fpv4-sp/hard/crtbegin.o
 .bss.m_device_provisioned
                0x20003434        0x1 examples/dfu/CMakeFiles/dfu_no_serial_nrf52832_xxAA_s132_6.0.0.dir/src/main.c.obj
 *fill*         0x20003435        0x3 
 .bss.m_evt_handler
                0x20003438        0x8 examples/dfu/CMakeFiles/dfu_no_serial_nrf52832_xxAA_s132_6.0.0.dir/src/main.c.obj
 .bss.m_health_server
                0x20003440       0x5c examples/dfu/CMakeFiles/dfu_no_serial_nrf52832_xxAA_s132_6.0.0.dir/__/__/mesh/stack/src/mesh_stack.c.obj
 .bss.m_init_params
                0x2000349c       0x24 examples/dfu/CMakeFiles/dfu_no_serial_nrf52832_xxAA_s132_6.0.0.dir/__/__/mesh/stack/src/mesh_stack.c.obj
 .bss.m_device_provisioned
                0x200034c0        0x1 examples/dfu/CMakeFiles/dfu_no_serial_nrf52832_xxAA_s132_6.0.0.dir/__/common/src/mesh_provisionee.c.obj
 *fill*         0x200034c1        0x3 
 .bss.m_params  0x200034c4        0xc examples/dfu/CMakeFiles/dfu_no_serial_nrf52832_xxAA_s132_6.0.0.dir/__/common/src/mesh_provisionee.c.obj
 .bss.m_private_key
                0x200034d0       0x20 examples/dfu/CMakeFiles/dfu_no_serial_nrf52832_xxAA_s132_6.0.0.dir/__/common/src/mesh_provisionee.c.obj
 .bss.m_prov_bearer_adv
                0x200034f0      0x1c4 examples/dfu/CMakeFiles/dfu_no_serial_nrf52832_xxAA_s132_6.0.0.dir/__/common/src/mesh_provisionee.c.obj
 .bss.m_prov_ctx
                0x200036b4      0x134 examples/dfu/CMakeFiles/dfu_no_serial_nrf52832_xxAA_s132_6.0.0.dir/__/common/src/mesh_provisionee.c.obj
 .bss.m_public_key
                0x200037e8       0x40 examples/dfu/CMakeFiles/dfu_no_serial_nrf52832_xxAA_s132_6.0.0.dir/__/common/src/mesh_provisionee.c.obj
 .bss.m_button_handler_cb
                0x20003828        0x4 examples/dfu/CMakeFiles/dfu_no_serial_nrf52832_xxAA_s132_6.0.0.dir/__/common/src/simple_hal.c.obj
 .bss.m_last_button_press
                0x2000382c        0x4 examples/dfu/CMakeFiles/dfu_no_serial_nrf52832_xxAA_s132_6.0.0.dir/__/common/src/simple_hal.c.obj
 .bss.m_publish_timer
                0x20003830       0x18 examples/dfu/CMakeFiles/dfu_no_serial_nrf52832_xxAA_s132_6.0.0.dir/__/__/mesh/access/src/access_publish.c.obj
 .bss.m_publish_timer_counter
                0x20003848        0x4 examples/dfu/CMakeFiles/dfu_no_serial_nrf52832_xxAA_s132_6.0.0.dir/__/__/mesh/access/src/access_publish.c.obj
 .bss.m_publish_timer_running
                0x2000384c        0x1 examples/dfu/CMakeFiles/dfu_no_serial_nrf52832_xxAA_s132_6.0.0.dir/__/__/mesh/access/src/access_publish.c.obj
 .bss.m_timer_resolution
                0x2000384d        0x1 examples/dfu/CMakeFiles/dfu_no_serial_nrf52832_xxAA_s132_6.0.0.dir/__/__/mesh/access/src/access_publish.c.obj
 *fill*         0x2000384e        0x2 
 .bss.mp_publication_list
                0x20003850        0x4 examples/dfu/CMakeFiles/dfu_no_serial_nrf52832_xxAA_s132_6.0.0.dir/__/__/mesh/access/src/access_publish.c.obj
 .bss.m_element_pool
                0x20003854        0x6 examples/dfu/CMakeFiles/dfu_no_serial_nrf52832_xxAA_s132_6.0.0.dir/__/__/mesh/access/src/access.c.obj
 *fill*         0x2000385a        0x2 
 .bss.m_evt_handler
                0x2000385c        0x8 examples/dfu/CMakeFiles/dfu_no_serial_nrf52832_xxAA_s132_6.0.0.dir/__/__/mesh/access/src/access.c.obj
 .bss.m_flash_manager
                0x20003864       0x24 examples/dfu/CMakeFiles/dfu_no_serial_nrf52832_xxAA_s132_6.0.0.dir/__/__/mesh/access/src/access.c.obj
 .bss.m_flash_not_ready
                0x20003888        0x1 examples/dfu/CMakeFiles/dfu_no_serial_nrf52832_xxAA_s132_6.0.0.dir/__/__/mesh/access/src/access.c.obj
 .bss.m_metadata_stored
                0x20003889        0x1 examples/dfu/CMakeFiles/dfu_no_serial_nrf52832_xxAA_s132_6.0.0.dir/__/__/mesh/access/src/access.c.obj
 *fill*         0x2000388a        0x2 
 .bss.m_model_pool
                0x2000388c       0x68 examples/dfu/CMakeFiles/dfu_no_serial_nrf52832_xxAA_s132_6.0.0.dir/__/__/mesh/access/src/access.c.obj
 .bss.m_subscription_list_pool
                0x200038f4       0x10 examples/dfu/CMakeFiles/dfu_no_serial_nrf52832_xxAA_s132_6.0.0.dir/__/__/mesh/access/src/access.c.obj
 .bss.m_reliable
                0x20003904       0x74 examples/dfu/CMakeFiles/dfu_no_serial_nrf52832_xxAA_s132_6.0.0.dir/__/__/mesh/access/src/access_reliable.c.obj
 .bss.m_addr_nonvirtual_allocated
                0x20003978        0x4 examples/dfu/CMakeFiles/dfu_no_serial_nrf52832_xxAA_s132_6.0.0.dir/__/__/mesh/access/src/device_state_manager.c.obj
 .bss.m_addr_nonvirtual_needs_flashing
                0x2000397c        0x4 examples/dfu/CMakeFiles/dfu_no_serial_nrf52832_xxAA_s132_6.0.0.dir/__/__/mesh/access/src/device_state_manager.c.obj
 .bss.m_addr_unicast_allocated
                0x20003980        0x4 examples/dfu/CMakeFiles/dfu_no_serial_nrf52832_xxAA_s132_6.0.0.dir/__/__/mesh/access/src/device_state_manager.c.obj
 .bss.m_addr_unicast_needs_flashing
                0x20003984        0x4 examples/dfu/CMakeFiles/dfu_no_serial_nrf52832_xxAA_s132_6.0.0.dir/__/__/mesh/access/src/device_state_manager.c.obj
 .bss.m_addr_virtual_allocated
                0x20003988        0x4 examples/dfu/CMakeFiles/dfu_no_serial_nrf52832_xxAA_s132_6.0.0.dir/__/__/mesh/access/src/device_state_manager.c.obj
 .bss.m_addr_virtual_needs_flashing
                0x2000398c        0x4 examples/dfu/CMakeFiles/dfu_no_serial_nrf52832_xxAA_s132_6.0.0.dir/__/__/mesh/access/src/device_state_manager.c.obj
 .bss.m_addresses
                0x20003990       0x40 examples/dfu/CMakeFiles/dfu_no_serial_nrf52832_xxAA_s132_6.0.0.dir/__/__/mesh/access/src/device_state_manager.c.obj
 .bss.m_appkey_allocated
                0x200039d0        0x4 examples/dfu/CMakeFiles/dfu_no_serial_nrf52832_xxAA_s132_6.0.0.dir/__/__/mesh/access/src/device_state_manager.c.obj
 .bss.m_appkey_needs_flashing
                0x200039d4        0x4 examples/dfu/CMakeFiles/dfu_no_serial_nrf52832_xxAA_s132_6.0.0.dir/__/__/mesh/access/src/device_state_manager.c.obj
 .bss.m_appkeys
                0x200039d8      0x150 examples/dfu/CMakeFiles/dfu_no_serial_nrf52832_xxAA_s132_6.0.0.dir/__/__/mesh/access/src/device_state_manager.c.obj
 .bss.m_devkey_allocated
                0x20003b28        0x4 examples/dfu/CMakeFiles/dfu_no_serial_nrf52832_xxAA_s132_6.0.0.dir/__/__/mesh/access/src/device_state_manager.c.obj
 .bss.m_devkey_needs_flashing
                0x20003b2c        0x4 examples/dfu/CMakeFiles/dfu_no_serial_nrf52832_xxAA_s132_6.0.0.dir/__/__/mesh/access/src/device_state_manager.c.obj
 .bss.m_devkeys
                0x20003b30       0x16 examples/dfu/CMakeFiles/dfu_no_serial_nrf52832_xxAA_s132_6.0.0.dir/__/__/mesh/access/src/device_state_manager.c.obj
 .bss.m_flash_is_available
                0x20003b46        0x1 examples/dfu/CMakeFiles/dfu_no_serial_nrf52832_xxAA_s132_6.0.0.dir/__/__/mesh/access/src/device_state_manager.c.obj
 *fill*         0x20003b47        0x1 
 .bss.m_flash_manager
                0x20003b48       0x24 examples/dfu/CMakeFiles/dfu_no_serial_nrf52832_xxAA_s132_6.0.0.dir/__/__/mesh/access/src/device_state_manager.c.obj
 .bss.m_flash_mem_listener_update_all
                0x20003b6c       0x10 examples/dfu/CMakeFiles/dfu_no_serial_nrf52832_xxAA_s132_6.0.0.dir/__/__/mesh/access/src/device_state_manager.c.obj
 .bss.m_has_primary_subnet
                0x20003b7c        0x1 examples/dfu/CMakeFiles/dfu_no_serial_nrf52832_xxAA_s132_6.0.0.dir/__/__/mesh/access/src/device_state_manager.c.obj
 *fill*         0x20003b7d        0x1 
 .bss.m_local_unicast_addr
                0x20003b7e        0x4 examples/dfu/CMakeFiles/dfu_no_serial_nrf52832_xxAA_s132_6.0.0.dir/__/__/mesh/access/src/device_state_manager.c.obj
 *fill*         0x20003b82        0x2 
 .bss.m_mesh_evt_handler
                0x20003b84        0x8 examples/dfu/CMakeFiles/dfu_no_serial_nrf52832_xxAA_s132_6.0.0.dir/__/__/mesh/access/src/device_state_manager.c.obj
 .bss.m_subnet_allocated
                0x20003b8c        0x4 examples/dfu/CMakeFiles/dfu_no_serial_nrf52832_xxAA_s132_6.0.0.dir/__/__/mesh/access/src/device_state_manager.c.obj
 .bss.m_subnet_needs_flashing
                0x20003b90        0x4 examples/dfu/CMakeFiles/dfu_no_serial_nrf52832_xxAA_s132_6.0.0.dir/__/__/mesh/access/src/device_state_manager.c.obj
 .bss.m_subnets
                0x20003b94      0x2a0 examples/dfu/CMakeFiles/dfu_no_serial_nrf52832_xxAA_s132_6.0.0.dir/__/__/mesh/access/src/device_state_manager.c.obj
 .bss.m_virtual_addresses
                0x20003e34       0xa0 examples/dfu/CMakeFiles/dfu_no_serial_nrf52832_xxAA_s132_6.0.0.dir/__/__/mesh/access/src/device_state_manager.c.obj
 .bss.m_evt_cb  0x20003ed4        0x4 examples/dfu/CMakeFiles/dfu_no_serial_nrf52832_xxAA_s132_6.0.0.dir/__/__/models/config/src/config_server.c.obj
 .bss.m_heartbeat_publication
                0x20003ed8       0x14 examples/dfu/CMakeFiles/dfu_no_serial_nrf52832_xxAA_s132_6.0.0.dir/__/__/models/config/src/config_server.c.obj
 .bss.m_node_reset_pending
                0x20003eec        0x1 examples/dfu/CMakeFiles/dfu_no_serial_nrf52832_xxAA_s132_6.0.0.dir/__/__/models/config/src/config_server.c.obj
 *fill*         0x20003eed        0x3 
 .bss.m_attention_timer
                0x20003ef0       0x18 examples/dfu/CMakeFiles/dfu_no_serial_nrf52832_xxAA_s132_6.0.0.dir/__/__/models/health/src/health_server.c.obj
 .bss.mp_attention_list
                0x20003f08        0x4 examples/dfu/CMakeFiles/dfu_no_serial_nrf52832_xxAA_s132_6.0.0.dir/__/__/models/health/src/health_server.c.obj
 .bss.m_event_handler
                0x20003f0c        0x4 examples/dfu/CMakeFiles/dfu_no_serial_nrf52832_xxAA_s132_6.0.0.dir/__/__/mesh/prov/src/prov_beacon.c.obj
 .bss.m_offload_ecdh
                0x20003f10        0x1 examples/dfu/CMakeFiles/dfu_no_serial_nrf52832_xxAA_s132_6.0.0.dir/__/__/mesh/prov/src/prov_utils.c.obj
 *fill*         0x20003f11        0x3 
 .bss.mp_bearer_head
                0x20003f14        0x4 examples/dfu/CMakeFiles/dfu_no_serial_nrf52832_xxAA_s132_6.0.0.dir/__/__/mesh/prov/src/prov_bearer_adv.c.obj
 .bss.m_adv_packet
                0x20003f18       0x28 examples/dfu/CMakeFiles/dfu_no_serial_nrf52832_xxAA_s132_6.0.0.dir/__/__/mesh/dfu/src/nrf_mesh_dfu.c.obj
 .bss.m_broadcast
                0x20003f40       0x38 examples/dfu/CMakeFiles/dfu_no_serial_nrf52832_xxAA_s132_6.0.0.dir/__/__/mesh/dfu/src/nrf_mesh_dfu.c.obj
 .bss.m_prng    0x20003f78       0x10 examples/dfu/CMakeFiles/dfu_no_serial_nrf52832_xxAA_s132_6.0.0.dir/__/__/mesh/dfu/src/nrf_mesh_dfu.c.obj
 .bss.m_timer_evt
                0x20003f88       0x18 examples/dfu/CMakeFiles/dfu_no_serial_nrf52832_xxAA_s132_6.0.0.dir/__/__/mesh/dfu/src/nrf_mesh_dfu.c.obj
 .bss.m_transfer_state
                0x20003fa0       0x12 examples/dfu/CMakeFiles/dfu_no_serial_nrf52832_xxAA_s132_6.0.0.dir/__/__/mesh/dfu/src/nrf_mesh_dfu.c.obj
 *fill*         0x20003fb2        0x2 
 .bss.m_tx_slots
                0x20003fb4      0x120 examples/dfu/CMakeFiles/dfu_no_serial_nrf52832_xxAA_s132_6.0.0.dir/__/__/mesh/dfu/src/nrf_mesh_dfu.c.obj
 .bss.m_tx_timer_evt
                0x200040d4       0x18 examples/dfu/CMakeFiles/dfu_no_serial_nrf52832_xxAA_s132_6.0.0.dir/__/__/mesh/dfu/src/nrf_mesh_dfu.c.obj
 .bss.mp_curr_fwid
                0x200040ec        0x4 examples/dfu/CMakeFiles/dfu_no_serial_nrf52832_xxAA_s132_6.0.0.dir/__/__/mesh/dfu/src/nrf_mesh_dfu.c.obj
 .bss.m_uuid    0x200040f0       0x10 examples/dfu/CMakeFiles/dfu_no_serial_nrf52832_xxAA_s132_6.0.0.dir/__/__/mesh/core/src/nrf_mesh_configure.c.obj
 .bss.m_msg_cache
                0x20004100      0x100 examples/dfu/CMakeFiles/dfu_no_serial_nrf52832_xxAA_s132_6.0.0.dir/__/__/mesh/core/src/msg_cache.c.obj
 .bss.m_msg_cache_head
                0x20004200        0x4 examples/dfu/CMakeFiles/dfu_no_serial_nrf52832_xxAA_s132_6.0.0.dir/__/__/mesh/core/src/msg_cache.c.obj
 .bss.m_control_packet_consumer_count
                0x20004204        0x4 examples/dfu/CMakeFiles/dfu_no_serial_nrf52832_xxAA_s132_6.0.0.dir/__/__/mesh/core/src/transport.c.obj
 .bss.m_control_packet_consumers
                0x20004208        0x8 examples/dfu/CMakeFiles/dfu_no_serial_nrf52832_xxAA_s132_6.0.0.dir/__/__/mesh/core/src/transport.c.obj
 .bss.m_sar_alloc
                0x20004210        0x4 examples/dfu/CMakeFiles/dfu_no_serial_nrf52832_xxAA_s132_6.0.0.dir/__/__/mesh/core/src/transport.c.obj
 .bss.m_sar_process_flag
                0x20004214        0x4 examples/dfu/CMakeFiles/dfu_no_serial_nrf52832_xxAA_s132_6.0.0.dir/__/__/mesh/core/src/transport.c.obj
 .bss.m_sar_release
                0x20004218        0x4 examples/dfu/CMakeFiles/dfu_no_serial_nrf52832_xxAA_s132_6.0.0.dir/__/__/mesh/core/src/transport.c.obj
 .bss.m_sar_session_cache
                0x2000421c       0x40 examples/dfu/CMakeFiles/dfu_no_serial_nrf52832_xxAA_s132_6.0.0.dir/__/__/mesh/core/src/transport.c.obj
 .bss.m_sar_session_cache_head
                0x2000425c        0x4 examples/dfu/CMakeFiles/dfu_no_serial_nrf52832_xxAA_s132_6.0.0.dir/__/__/mesh/core/src/transport.c.obj
 .bss.m_trs_config
                0x20004260       0x18 examples/dfu/CMakeFiles/dfu_no_serial_nrf52832_xxAA_s132_6.0.0.dir/__/__/mesh/core/src/transport.c.obj
 .bss.m_trs_sar_sessions
                0x20004278      0x1b0 examples/dfu/CMakeFiles/dfu_no_serial_nrf52832_xxAA_s132_6.0.0.dir/__/__/mesh/core/src/transport.c.obj
 .bss.mp_evt_handlers_head
                0x20004428        0x4 examples/dfu/CMakeFiles/dfu_no_serial_nrf52832_xxAA_s132_6.0.0.dir/__/__/mesh/core/src/event.c.obj
 .bss.m_defrag  0x2000442c       0x1c examples/dfu/CMakeFiles/dfu_no_serial_nrf52832_xxAA_s132_6.0.0.dir/__/__/mesh/core/src/flash_manager_defrag.c.obj
 .bss.m_token   0x20004448        0x2 examples/dfu/CMakeFiles/dfu_no_serial_nrf52832_xxAA_s132_6.0.0.dir/__/__/mesh/core/src/flash_manager_defrag.c.obj
 *fill*         0x2000444a        0x2 
 .bss.mp_recovery_area
                0x2000444c        0x4 examples/dfu/CMakeFiles/dfu_no_serial_nrf52832_xxAA_s132_6.0.0.dir/__/__/mesh/core/src/flash_manager_defrag.c.obj
 .bss.p_null_ptr.10241
                0x20004450        0x4 examples/dfu/CMakeFiles/dfu_no_serial_nrf52832_xxAA_s132_6.0.0.dir/__/__/mesh/core/src/flash_manager_defrag.c.obj
 .bss.m_pool    0x20004454     0x1000 examples/dfu/CMakeFiles/dfu_no_serial_nrf52832_xxAA_s132_6.0.0.dir/__/__/mesh/core/src/packet_mgr.c.obj
 .bss.mp_free_head
                0x20005454        0x4 examples/dfu/CMakeFiles/dfu_no_serial_nrf52832_xxAA_s132_6.0.0.dir/__/__/mesh/core/src/packet_mgr.c.obj
 .bss.iv_state_set.9896
                0x20005458        0x1 examples/dfu/CMakeFiles/dfu_no_serial_nrf52832_xxAA_s132_6.0.0.dir/__/__/mesh/core/src/net_state.c.obj
 *fill*         0x20005459        0x3 
 .bss.lock_count.9872
                0x2000545c        0x4 examples/dfu/CMakeFiles/dfu_no_serial_nrf52832_xxAA_s132_6.0.0.dir/__/__/mesh/core/src/net_state.c.obj
 .bss.m_flash_manager
                0x20005460       0x24 examples/dfu/CMakeFiles/dfu_no_serial_nrf52832_xxAA_s132_6.0.0.dir/__/__/mesh/core/src/net_state.c.obj
 .bss.m_iv_update_timer
                0x20005484       0x18 examples/dfu/CMakeFiles/dfu_no_serial_nrf52832_xxAA_s132_6.0.0.dir/__/__/mesh/core/src/net_state.c.obj
 .bss.m_mesh_evt_handler
                0x2000549c        0x8 examples/dfu/CMakeFiles/dfu_no_serial_nrf52832_xxAA_s132_6.0.0.dir/__/__/mesh/core/src/net_state.c.obj
 .bss.m_net_state
                0x200054a4       0x14 examples/dfu/CMakeFiles/dfu_no_serial_nrf52832_xxAA_s132_6.0.0.dir/__/__/mesh/core/src/net_state.c.obj
 .bss.m_seqnum_allocation_in_progress
                0x200054b8        0x1 examples/dfu/CMakeFiles/dfu_no_serial_nrf52832_xxAA_s132_6.0.0.dir/__/__/mesh/core/src/net_state.c.obj
 .bss.m_test_mode
                0x200054b9        0x1 examples/dfu/CMakeFiles/dfu_no_serial_nrf52832_xxAA_s132_6.0.0.dir/__/__/mesh/core/src/net_state.c.obj
 *fill*         0x200054ba        0x2 
 .bss.m_event_flag
                0x200054bc        0x4 examples/dfu/CMakeFiles/dfu_no_serial_nrf52832_xxAA_s132_6.0.0.dir/__/__/mesh/core/src/mesh_flash.c.obj
 .bss.m_suspended
                0x200054c0        0x1 examples/dfu/CMakeFiles/dfu_no_serial_nrf52832_xxAA_s132_6.0.0.dir/__/__/mesh/core/src/mesh_flash.c.obj
 *fill*         0x200054c1        0x3 
 .bss.m_users   0x200054c4      0x228 examples/dfu/CMakeFiles/dfu_no_serial_nrf52832_xxAA_s132_6.0.0.dir/__/__/mesh/core/src/mesh_flash.c.obj
 .bss.suspend_count.10123
                0x200056ec        0x4 examples/dfu/CMakeFiles/dfu_no_serial_nrf52832_xxAA_s132_6.0.0.dir/__/__/mesh/core/src/mesh_flash.c.obj
 .bss.m_is_enabled
                0x200056f0        0x1 examples/dfu/CMakeFiles/dfu_no_serial_nrf52832_xxAA_s132_6.0.0.dir/__/__/mesh/core/src/nrf_mesh.c.obj
 .bss.m_is_initialized
                0x200056f1        0x1 examples/dfu/CMakeFiles/dfu_no_serial_nrf52832_xxAA_s132_6.0.0.dir/__/__/mesh/core/src/nrf_mesh.c.obj
 *fill*         0x200056f2        0x2 
 .bss.m_rx_cb   0x200056f4        0x4 examples/dfu/CMakeFiles/dfu_no_serial_nrf52832_xxAA_s132_6.0.0.dir/__/__/mesh/core/src/nrf_mesh.c.obj
 .bss.m_128buf  0x200056f8       0x10 examples/dfu/CMakeFiles/dfu_no_serial_nrf52832_xxAA_s132_6.0.0.dir/__/__/mesh/core/src/aes_cmac.c.obj
 .bss.m_subkey1
                0x20005708       0x10 examples/dfu/CMakeFiles/dfu_no_serial_nrf52832_xxAA_s132_6.0.0.dir/__/__/mesh/core/src/aes_cmac.c.obj
 .bss.m_subkey2
                0x20005718       0x10 examples/dfu/CMakeFiles/dfu_no_serial_nrf52832_xxAA_s132_6.0.0.dir/__/__/mesh/core/src/aes_cmac.c.obj
 .bss.m_event_flag
                0x20005728        0x4 examples/dfu/CMakeFiles/dfu_no_serial_nrf52832_xxAA_s132_6.0.0.dir/__/__/mesh/core/src/timer_scheduler.c.obj
 .bss.m_scheduler
                0x2000572c       0x10 examples/dfu/CMakeFiles/dfu_no_serial_nrf52832_xxAA_s132_6.0.0.dir/__/__/mesh/core/src/timer_scheduler.c.obj
 .bss.m_attributes
                0x2000573c        0x3 examples/dfu/CMakeFiles/dfu_no_serial_nrf52832_xxAA_s132_6.0.0.dir/__/__/mesh/core/src/timer.c.obj
 *fill*         0x2000573f        0x1 
 .bss.m_callbacks
                0x20005740        0xc examples/dfu/CMakeFiles/dfu_no_serial_nrf52832_xxAA_s132_6.0.0.dir/__/__/mesh/core/src/timer.c.obj
 .bss.m_is_in_ts
                0x2000574c        0x1 examples/dfu/CMakeFiles/dfu_no_serial_nrf52832_xxAA_s132_6.0.0.dir/__/__/mesh/core/src/timer.c.obj
 *fill*         0x2000574d        0x3 
 .bss.m_reference_time
                0x20005750        0x4 examples/dfu/CMakeFiles/dfu_no_serial_nrf52832_xxAA_s132_6.0.0.dir/__/__/mesh/core/src/timer.c.obj
 .bss.m_timeouts
                0x20005754        0xc examples/dfu/CMakeFiles/dfu_no_serial_nrf52832_xxAA_s132_6.0.0.dir/__/__/mesh/core/src/timer.c.obj
 .bss.m_timer_mut
                0x20005760        0x4 examples/dfu/CMakeFiles/dfu_no_serial_nrf52832_xxAA_s132_6.0.0.dir/__/__/mesh/core/src/timer.c.obj
 .bss.m_ts_end_time
                0x20005764        0x4 examples/dfu/CMakeFiles/dfu_no_serial_nrf52832_xxAA_s132_6.0.0.dir/__/__/mesh/core/src/timer.c.obj
 .bss.mp_ppi_tasks
                0x20005768        0xc examples/dfu/CMakeFiles/dfu_no_serial_nrf52832_xxAA_s132_6.0.0.dir/__/__/mesh/core/src/timer.c.obj
 .bss.m_current_time
                0x20005774        0x4 examples/dfu/CMakeFiles/dfu_no_serial_nrf52832_xxAA_s132_6.0.0.dir/__/__/mesh/core/src/ticker.c.obj
 .bss.m_timer   0x20005778       0x18 examples/dfu/CMakeFiles/dfu_no_serial_nrf52832_xxAA_s132_6.0.0.dir/__/__/mesh/core/src/ticker.c.obj
 .bss.m_current_timeslot
                0x20005790       0x1c examples/dfu/CMakeFiles/dfu_no_serial_nrf52832_xxAA_s132_6.0.0.dir/__/__/mesh/core/src/timeslot.c.obj
 .bss.m_lfclk_ppm
                0x200057ac        0x4 examples/dfu/CMakeFiles/dfu_no_serial_nrf52832_xxAA_s132_6.0.0.dir/__/__/mesh/core/src/timeslot.c.obj
 .bss.m_radio_request_earliest
                0x200057b0       0x10 examples/dfu/CMakeFiles/dfu_no_serial_nrf52832_xxAA_s132_6.0.0.dir/__/__/mesh/core/src/timeslot.c.obj
 .bss.m_state_lock
                0x200057c0        0x1 examples/dfu/CMakeFiles/dfu_no_serial_nrf52832_xxAA_s132_6.0.0.dir/__/__/mesh/core/src/timeslot.c.obj
 .bss.m_timeslot_forced_command
                0x200057c1        0x1 examples/dfu/CMakeFiles/dfu_no_serial_nrf52832_xxAA_s132_6.0.0.dir/__/__/mesh/core/src/timeslot.c.obj
 *fill*         0x200057c2        0x6 
 .bss.s_last_rtc_value.9299
                0x200057c8        0x8 examples/dfu/CMakeFiles/dfu_no_serial_nrf52832_xxAA_s132_6.0.0.dir/__/__/mesh/core/src/timeslot.c.obj
 .bss.m_bearer_event_fifo
                0x200057d0       0x14 examples/dfu/CMakeFiles/dfu_no_serial_nrf52832_xxAA_s132_6.0.0.dir/__/__/mesh/core/src/bearer_event.c.obj
 .bss.m_bearer_event_fifo_buffer
                0x200057e4      0x100 examples/dfu/CMakeFiles/dfu_no_serial_nrf52832_xxAA_s132_6.0.0.dir/__/__/mesh/core/src/bearer_event.c.obj
 .bss.m_critical
                0x200058e4        0x4 examples/dfu/CMakeFiles/dfu_no_serial_nrf52832_xxAA_s132_6.0.0.dir/__/__/mesh/core/src/bearer_event.c.obj
 .bss.m_flag_count
                0x200058e8        0x4 examples/dfu/CMakeFiles/dfu_no_serial_nrf52832_xxAA_s132_6.0.0.dir/__/__/mesh/core/src/bearer_event.c.obj
 .bss.m_flag_event_callbacks
                0x200058ec       0x20 examples/dfu/CMakeFiles/dfu_no_serial_nrf52832_xxAA_s132_6.0.0.dir/__/__/mesh/core/src/bearer_event.c.obj
 .bss.m_flags   0x2000590c        0x4 examples/dfu/CMakeFiles/dfu_no_serial_nrf52832_xxAA_s132_6.0.0.dir/__/__/mesh/core/src/bearer_event.c.obj
 .bss.m_irq_priority
                0x20005910        0x1 examples/dfu/CMakeFiles/dfu_no_serial_nrf52832_xxAA_s132_6.0.0.dir/__/__/mesh/core/src/bearer_event.c.obj
 *fill*         0x20005911        0x3 
 .bss.m_sequential_event_queue
                0x20005914        0x8 examples/dfu/CMakeFiles/dfu_no_serial_nrf52832_xxAA_s132_6.0.0.dir/__/__/mesh/core/src/bearer_event.c.obj
 .bss.s_recursion_guard.9430
                0x2000591c        0x1 examples/dfu/CMakeFiles/dfu_no_serial_nrf52832_xxAA_s132_6.0.0.dir/__/__/mesh/core/src/bearer_event.c.obj
 *fill*         0x2000591d        0x3 
 .bss.m_relay_check_cb
                0x20005920        0x4 examples/dfu/CMakeFiles/dfu_no_serial_nrf52832_xxAA_s132_6.0.0.dir/__/__/mesh/core/src/network.c.obj
 .bss.m_relay_enable
                0x20005924        0x1 examples/dfu/CMakeFiles/dfu_no_serial_nrf52832_xxAA_s132_6.0.0.dir/__/__/mesh/core/src/network.c.obj
 *fill*         0x20005925        0x3 
 .bss.m_action_queue
                0x20005928        0xc examples/dfu/CMakeFiles/dfu_no_serial_nrf52832_xxAA_s132_6.0.0.dir/__/__/mesh/core/src/flash_manager.c.obj
 .bss.m_action_queue_buffer
                0x20005934      0x104 examples/dfu/CMakeFiles/dfu_no_serial_nrf52832_xxAA_s132_6.0.0.dir/__/__/mesh/core/src/flash_manager.c.obj
 .bss.m_action_state
                0x20005a38        0x1 examples/dfu/CMakeFiles/dfu_no_serial_nrf52832_xxAA_s132_6.0.0.dir/__/__/mesh/core/src/flash_manager.c.obj
 *fill*         0x20005a39        0x3 
 .bss.m_memory_listener_queue
                0x20005a3c        0x8 examples/dfu/CMakeFiles/dfu_no_serial_nrf52832_xxAA_s132_6.0.0.dir/__/__/mesh/core/src/flash_manager.c.obj
 .bss.m_processing_flag
                0x20005a44        0x4 examples/dfu/CMakeFiles/dfu_no_serial_nrf52832_xxAA_s132_6.0.0.dir/__/__/mesh/core/src/flash_manager.c.obj
 .bss.m_queue_empty_cb
                0x20005a48        0x4 examples/dfu/CMakeFiles/dfu_no_serial_nrf52832_xxAA_s132_6.0.0.dir/__/__/mesh/core/src/flash_manager.c.obj
 .bss.m_state   0x20005a4c        0x1 examples/dfu/CMakeFiles/dfu_no_serial_nrf52832_xxAA_s132_6.0.0.dir/__/__/mesh/core/src/flash_manager.c.obj
 *fill*         0x20005a4d        0x1 
 .bss.m_token   0x20005a4e        0x2 examples/dfu/CMakeFiles/dfu_no_serial_nrf52832_xxAA_s132_6.0.0.dir/__/__/mesh/core/src/flash_manager.c.obj
 .bss.p_current.11149
                0x20005a50        0x4 examples/dfu/CMakeFiles/dfu_no_serial_nrf52832_xxAA_s132_6.0.0.dir/__/__/mesh/core/src/flash_manager.c.obj
 .bss.result.11150
                0x20005a54        0x1 examples/dfu/CMakeFiles/dfu_no_serial_nrf52832_xxAA_s132_6.0.0.dir/__/__/mesh/core/src/flash_manager.c.obj
 .bss.m_cache_index
                0x20005a55        0x1 examples/dfu/CMakeFiles/dfu_no_serial_nrf52832_xxAA_s132_6.0.0.dir/__/__/mesh/core/src/replay_cache.c.obj
 *fill*         0x20005a56        0x2 
 .bss.m_replay_cache
                0x20005a58      0x200 examples/dfu/CMakeFiles/dfu_no_serial_nrf52832_xxAA_s132_6.0.0.dir/__/__/mesh/core/src/replay_cache.c.obj
 .bss.m_bearer_count
                0x20005c58        0x1 examples/dfu/CMakeFiles/dfu_no_serial_nrf52832_xxAA_s132_6.0.0.dir/__/__/mesh/core/src/core_tx.c.obj
 *fill*         0x20005c59        0x3 
 .bss.m_tx_complete_callback
                0x20005c5c        0x4 examples/dfu/CMakeFiles/dfu_no_serial_nrf52832_xxAA_s132_6.0.0.dir/__/__/mesh/core/src/core_tx.c.obj
 .bss.mp_bearers
                0x20005c60        0x4 examples/dfu/CMakeFiles/dfu_no_serial_nrf52832_xxAA_s132_6.0.0.dir/__/__/mesh/core/src/core_tx.c.obj
 .bss.m_hb_core_evt_handler
                0x20005c64        0x8 examples/dfu/CMakeFiles/dfu_no_serial_nrf52832_xxAA_s132_6.0.0.dir/__/__/mesh/core/src/heartbeat.c.obj
 .bss.m_hb_pending_feat_msg
                0x20005c6c        0x1 examples/dfu/CMakeFiles/dfu_no_serial_nrf52832_xxAA_s132_6.0.0.dir/__/__/mesh/core/src/heartbeat.c.obj
 .bss.m_hb_pending_pub_msg
                0x20005c6d        0x1 examples/dfu/CMakeFiles/dfu_no_serial_nrf52832_xxAA_s132_6.0.0.dir/__/__/mesh/core/src/heartbeat.c.obj
 .bss.m_heartbeat_init_done
                0x20005c6e        0x1 examples/dfu/CMakeFiles/dfu_no_serial_nrf52832_xxAA_s132_6.0.0.dir/__/__/mesh/core/src/heartbeat.c.obj
 *fill*         0x20005c6f        0x1 
 .bss.m_heartbeat_subscription
                0x20005c70       0x10 examples/dfu/CMakeFiles/dfu_no_serial_nrf52832_xxAA_s132_6.0.0.dir/__/__/mesh/core/src/heartbeat.c.obj
 .bss.m_publication_count_decrement_cb
                0x20005c80        0x4 examples/dfu/CMakeFiles/dfu_no_serial_nrf52832_xxAA_s132_6.0.0.dir/__/__/mesh/core/src/heartbeat.c.obj
 .bss.m_publication_get_cb
                0x20005c84        0x4 examples/dfu/CMakeFiles/dfu_no_serial_nrf52832_xxAA_s132_6.0.0.dir/__/__/mesh/core/src/heartbeat.c.obj
 .bss.m_publication_timer
                0x20005c88       0x1c examples/dfu/CMakeFiles/dfu_no_serial_nrf52832_xxAA_s132_6.0.0.dir/__/__/mesh/core/src/heartbeat.c.obj
 .bss.m_subscription_timer
                0x20005ca4       0x18 examples/dfu/CMakeFiles/dfu_no_serial_nrf52832_xxAA_s132_6.0.0.dir/__/__/mesh/core/src/heartbeat.c.obj
 .bss.m_adv     0x20005cbc       0x98 examples/dfu/CMakeFiles/dfu_no_serial_nrf52832_xxAA_s132_6.0.0.dir/__/__/mesh/core/src/net_beacon.c.obj
 .bss.m_adv_buf
                0x20005d54       0x34 examples/dfu/CMakeFiles/dfu_no_serial_nrf52832_xxAA_s132_6.0.0.dir/__/__/mesh/core/src/net_beacon.c.obj
 .bss.m_beacon_salt
                0x20005d88       0x10 examples/dfu/CMakeFiles/dfu_no_serial_nrf52832_xxAA_s132_6.0.0.dir/__/__/mesh/core/src/net_beacon.c.obj
 .bss.m_enabled
                0x20005d98        0x1 examples/dfu/CMakeFiles/dfu_no_serial_nrf52832_xxAA_s132_6.0.0.dir/__/__/mesh/core/src/net_beacon.c.obj
 *fill*         0x20005d99        0x3 
 .bss.m_tx_timer
                0x20005d9c       0x18 examples/dfu/CMakeFiles/dfu_no_serial_nrf52832_xxAA_s132_6.0.0.dir/__/__/mesh/core/src/net_beacon.c.obj
 .bss.mp_beacon_info
                0x20005db4        0x4 examples/dfu/CMakeFiles/dfu_no_serial_nrf52832_xxAA_s132_6.0.0.dir/__/__/mesh/core/src/net_beacon.c.obj
 .bss.m_bearer  0x20005db8        0xc examples/dfu/CMakeFiles/dfu_no_serial_nrf52832_xxAA_s132_6.0.0.dir/__/__/mesh/core/src/core_tx_adv.c.obj
 .bss.m_bearer_roles
                0x20005dc4      0x138 examples/dfu/CMakeFiles/dfu_no_serial_nrf52832_xxAA_s132_6.0.0.dir/__/__/mesh/core/src/core_tx_adv.c.obj
 .bss.m_current_alloc
                0x20005efc        0x8 examples/dfu/CMakeFiles/dfu_no_serial_nrf52832_xxAA_s132_6.0.0.dir/__/__/mesh/core/src/core_tx_adv.c.obj
 .bss.m_originator_adv_packet_buffer
                0x20005f04      0x100 examples/dfu/CMakeFiles/dfu_no_serial_nrf52832_xxAA_s132_6.0.0.dir/__/__/mesh/core/src/core_tx_adv.c.obj
 .bss.m_relay_adv_packet_buffer
                0x20006004       0x80 examples/dfu/CMakeFiles/dfu_no_serial_nrf52832_xxAA_s132_6.0.0.dir/__/__/mesh/core/src/core_tx_adv.c.obj
 .bss.m_subscribers
                0x20006084        0x4 examples/dfu/CMakeFiles/dfu_no_serial_nrf52832_xxAA_s132_6.0.0.dir/__/__/mesh/bearer/src/ad_listener.c.obj
 .bss.m_adtype_filter
                0x20006088       0x38 examples/dfu/CMakeFiles/dfu_no_serial_nrf52832_xxAA_s132_6.0.0.dir/__/__/mesh/bearer/src/ad_type_filter.c.obj
 .bss.m_adv_prng
                0x200060c0       0x10 examples/dfu/CMakeFiles/dfu_no_serial_nrf52832_xxAA_s132_6.0.0.dir/__/__/mesh/bearer/src/advertiser.c.obj
 .bss.m_action_queue
                0x200060d0        0x8 examples/dfu/CMakeFiles/dfu_no_serial_nrf52832_xxAA_s132_6.0.0.dir/__/__/mesh/bearer/src/bearer_handler.c.obj
 .bss.m_end_time
                0x200060d8        0x4 examples/dfu/CMakeFiles/dfu_no_serial_nrf52832_xxAA_s132_6.0.0.dir/__/__/mesh/bearer/src/bearer_handler.c.obj
 .bss.m_scanner_is_active
                0x200060dc        0x1 examples/dfu/CMakeFiles/dfu_no_serial_nrf52832_xxAA_s132_6.0.0.dir/__/__/mesh/bearer/src/bearer_handler.c.obj
 .bss.m_stopped
                0x200060dd        0x1 examples/dfu/CMakeFiles/dfu_no_serial_nrf52832_xxAA_s132_6.0.0.dir/__/__/mesh/bearer/src/bearer_handler.c.obj
 *fill*         0x200060de        0x2 
 .bss.mp_action
                0x200060e0        0x4 examples/dfu/CMakeFiles/dfu_no_serial_nrf52832_xxAA_s132_6.0.0.dir/__/__/mesh/bearer/src/bearer_handler.c.obj
 .bss.m_next_channel_index
                0x200060e4        0x1 examples/dfu/CMakeFiles/dfu_no_serial_nrf52832_xxAA_s132_6.0.0.dir/__/__/mesh/bearer/src/broadcast.c.obj
 *fill*         0x200060e5        0x3 
 .bss.m_accepted_amount
                0x200060e8        0x4 examples/dfu/CMakeFiles/dfu_no_serial_nrf52832_xxAA_s132_6.0.0.dir/__/__/mesh/bearer/src/filter_engine.c.obj
 .bss.m_filter_list_head
                0x200060ec        0x4 examples/dfu/CMakeFiles/dfu_no_serial_nrf52832_xxAA_s132_6.0.0.dir/__/__/mesh/bearer/src/filter_engine.c.obj
 .bss.m_scanner
                0x200060f0      0x290 examples/dfu/CMakeFiles/dfu_no_serial_nrf52832_xxAA_s132_6.0.0.dir/__/__/mesh/bearer/src/scanner.c.obj
 .bss._acDownBuffer
                0x20006380       0x80 external/rtt/librtt_nrf52832_xxAA.a(SEGGER_RTT.c.obj)
 .bss._acUpBuffer
                0x20006400      0x400 external/rtt/librtt_nrf52832_xxAA.a(SEGGER_RTT.c.obj)
 .bss.__malloc_free_list
                0x20006800        0x4 c:/mesh/arm_gcc/bin/../lib/gcc/arm-none-eabi/6.3.1/../../../../arm-none-eabi/lib/thumb/v7e-m/fpv4-sp/hard\libg_nano.a(lib_a-nano-mallocr.o)
                0x20006800                __malloc_free_list
 .bss.__malloc_sbrk_start
                0x20006804        0x4 c:/mesh/arm_gcc/bin/../lib/gcc/arm-none-eabi/6.3.1/../../../../arm-none-eabi/lib/thumb/v7e-m/fpv4-sp/hard\libg_nano.a(lib_a-nano-mallocr.o)
                0x20006804                __malloc_sbrk_start
 .bss.heap_end.5239
                0x20006808        0x4 c:/mesh/arm_gcc/bin/../lib/gcc/arm-none-eabi/6.3.1/../../../../arm-none-eabi/lib/thumb/v7e-m/fpv4-sp/hard\libnosys.a(sbrk.o)
 *(COMMON)
 COMMON         0x2000680c        0x8 examples/dfu/CMakeFiles/dfu_no_serial_nrf52832_xxAA_s132_6.0.0.dir/src/main.c.obj
                0x2000680c                bank_addr
                0x20006810                rom_length
 COMMON         0x20006814        0xc examples/dfu/CMakeFiles/dfu_no_serial_nrf52832_xxAA_s132_6.0.0.dir/__/common/src/mesh_softdevice_init.c.obj
                0x20006814                nrf_nvic_state
 COMMON         0x20006820        0x4 examples/dfu/CMakeFiles/dfu_no_serial_nrf52832_xxAA_s132_6.0.0.dir/__/__/mesh/dfu/src/nrf_mesh_dfu.c.obj
                0x20006820                m_cmd_handler
 COMMON         0x20006824       0x24 examples/dfu/CMakeFiles/dfu_no_serial_nrf52832_xxAA_s132_6.0.0.dir/__/__/mesh/core/src/core_tx.c.obj
                0x20006824                m_packet
 COMMON         0x20006848       0x78 external/rtt/librtt_nrf52832_xxAA.a(SEGGER_RTT.c.obj)
                0x20006848                _SEGGER_RTT
 COMMON         0x200068c0        0x4 c:/mesh/arm_gcc/bin/../lib/gcc/arm-none-eabi/6.3.1/../../../../arm-none-eabi/lib/thumb/v7e-m/fpv4-sp/hard\libg_nano.a(lib_a-reent.o)
                0x200068c0                errno
                0x200068c4                . = ALIGN (0x4)
                0x200068c4                __bss_end__ = .

.heap           0x200068c8     0x2000
                0x200068c8                __HeapBase = .
                0x200068c8                __end__ = .
                0x200068c8                PROVIDE (end, .)
 *(.heap*)
 .heap          0x200068c8     0x2000 examples/dfu/CMakeFiles/dfu_no_serial_nrf52832_xxAA_s132_6.0.0.dir/C_/ver/mod/nRF5_SDK_15.0.0_a53641a/modules/nrfx/mdk/gcc_startup_nrf52.S.obj
                0x200088c8                __HeapLimit = .

.stack_dummy    0x200068c8     0x2000
 *(.stack*)
 .stack         0x200068c8     0x2000 examples/dfu/CMakeFiles/dfu_no_serial_nrf52832_xxAA_s132_6.0.0.dir/C_/ver/mod/nRF5_SDK_15.0.0_a53641a/modules/nrfx/mdk/gcc_startup_nrf52.S.obj
                0x2000fd00                __StackTop = (ORIGIN (RAM) + LENGTH (RAM))
                0x2000dd00                __StackLimit = (__StackTop - SIZEOF (.stack_dummy))
                0x2000fd00                PROVIDE (__stack, __StackTop)
                0x00000001                ASSERT ((__StackLimit >= __HeapLimit), region RAM overflowed with stack)
                0x00000150                DataInitFlashUsed = (__bss_start__ - __data_start__)
                0x00013e7c                CodeFlashUsed = (__etext - ORIGIN (FLASH))
                0x00013fcc                TotalFlashUsed = (CodeFlashUsed + DataInitFlashUsed)
                0x00000001                ASSERT ((TotalFlashUsed <= LENGTH (FLASH)), region FLASH overflowed with .data and user data)
OUTPUT(examples\dfu\dfu_no_serial_nrf52832_xxAA_s132_6.0.0.elf elf32-littlearm)

.ARM.attributes
                0x00000000       0x30
 .ARM.attributes
                0x00000000       0x22 c:/mesh/arm_gcc/bin/../lib/gcc/arm-none-eabi/6.3.1/thumb/v7e-m/fpv4-sp/hard/crti.o
 .ARM.attributes
                0x00000022       0x34 c:/mesh/arm_gcc/bin/../lib/gcc/arm-none-eabi/6.3.1/thumb/v7e-m/fpv4-sp/hard/crtbegin.o
 .ARM.attributes
                0x00000056       0x20 c:/mesh/arm_gcc/bin/../lib/gcc/arm-none-eabi/6.3.1/../../../../arm-none-eabi/lib/thumb/v7e-m/fpv4-sp/hard/crt0.o
 .ARM.attributes
                0x00000076       0x39 examples/dfu/CMakeFiles/dfu_no_serial_nrf52832_xxAA_s132_6.0.0.dir/src/main.c.obj
 .ARM.attributes
                0x000000af       0x39 examples/dfu/CMakeFiles/dfu_no_serial_nrf52832_xxAA_s132_6.0.0.dir/__/__/mesh/stack/src/mesh_stack.c.obj
 .ARM.attributes
                0x000000e8       0x39 examples/dfu/CMakeFiles/dfu_no_serial_nrf52832_xxAA_s132_6.0.0.dir/__/common/src/mesh_softdevice_init.c.obj
 .ARM.attributes
                0x00000121       0x39 examples/dfu/CMakeFiles/dfu_no_serial_nrf52832_xxAA_s132_6.0.0.dir/__/common/src/mesh_provisionee.c.obj
 .ARM.attributes
                0x0000015a       0x39 examples/dfu/CMakeFiles/dfu_no_serial_nrf52832_xxAA_s132_6.0.0.dir/__/common/src/simple_hal.c.obj
 .ARM.attributes
                0x00000193       0x39 examples/dfu/CMakeFiles/dfu_no_serial_nrf52832_xxAA_s132_6.0.0.dir/__/__/mesh/access/src/access_publish.c.obj
 .ARM.attributes
                0x000001cc       0x39 examples/dfu/CMakeFiles/dfu_no_serial_nrf52832_xxAA_s132_6.0.0.dir/__/__/mesh/access/src/access.c.obj
 .ARM.attributes
                0x00000205       0x39 examples/dfu/CMakeFiles/dfu_no_serial_nrf52832_xxAA_s132_6.0.0.dir/__/__/mesh/access/src/access_reliable.c.obj
 .ARM.attributes
                0x0000023e       0x39 examples/dfu/CMakeFiles/dfu_no_serial_nrf52832_xxAA_s132_6.0.0.dir/__/__/mesh/access/src/device_state_manager.c.obj
 .ARM.attributes
                0x00000277       0x39 examples/dfu/CMakeFiles/dfu_no_serial_nrf52832_xxAA_s132_6.0.0.dir/__/__/models/config/src/composition_data.c.obj
 .ARM.attributes
                0x000002b0       0x39 examples/dfu/CMakeFiles/dfu_no_serial_nrf52832_xxAA_s132_6.0.0.dir/__/__/models/config/src/config_server.c.obj
 .ARM.attributes
                0x000002e9       0x39 examples/dfu/CMakeFiles/dfu_no_serial_nrf52832_xxAA_s132_6.0.0.dir/__/__/models/config/src/packed_index_list.c.obj
 .ARM.attributes
                0x00000322       0x39 examples/dfu/CMakeFiles/dfu_no_serial_nrf52832_xxAA_s132_6.0.0.dir/__/__/models/health/src/health_server.c.obj
 .ARM.attributes
                0x0000035b       0x39 examples/dfu/CMakeFiles/dfu_no_serial_nrf52832_xxAA_s132_6.0.0.dir/__/__/mesh/prov/src/prov_provisioner.c.obj
 .ARM.attributes
                0x00000394       0x39 examples/dfu/CMakeFiles/dfu_no_serial_nrf52832_xxAA_s132_6.0.0.dir/__/__/mesh/prov/src/prov_provisionee.c.obj
 .ARM.attributes
                0x000003cd       0x39 examples/dfu/CMakeFiles/dfu_no_serial_nrf52832_xxAA_s132_6.0.0.dir/__/__/mesh/prov/src/nrf_mesh_prov.c.obj
 .ARM.attributes
                0x00000406       0x39 examples/dfu/CMakeFiles/dfu_no_serial_nrf52832_xxAA_s132_6.0.0.dir/__/__/mesh/prov/src/provisioning.c.obj
 .ARM.attributes
                0x0000043f       0x39 examples/dfu/CMakeFiles/dfu_no_serial_nrf52832_xxAA_s132_6.0.0.dir/__/__/mesh/prov/src/prov_beacon.c.obj
 .ARM.attributes
                0x00000478       0x39 examples/dfu/CMakeFiles/dfu_no_serial_nrf52832_xxAA_s132_6.0.0.dir/__/__/mesh/prov/src/prov_utils.c.obj
 .ARM.attributes
                0x000004b1       0x39 examples/dfu/CMakeFiles/dfu_no_serial_nrf52832_xxAA_s132_6.0.0.dir/__/__/mesh/prov/src/prov_bearer_adv.c.obj
 .ARM.attributes
                0x000004ea       0x39 examples/dfu/CMakeFiles/dfu_no_serial_nrf52832_xxAA_s132_6.0.0.dir/__/__/mesh/dfu/src/nrf_mesh_dfu.c.obj
 .ARM.attributes
                0x00000523       0x39 examples/dfu/CMakeFiles/dfu_no_serial_nrf52832_xxAA_s132_6.0.0.dir/__/common/src/app_error_weak.c.obj
 .ARM.attributes
                0x0000055c       0x39 examples/dfu/CMakeFiles/dfu_no_serial_nrf52832_xxAA_s132_6.0.0.dir/__/common/src/assertion_handler_weak.c.obj
 .ARM.attributes
                0x00000595       0x39 examples/dfu/CMakeFiles/dfu_no_serial_nrf52832_xxAA_s132_6.0.0.dir/__/__/mesh/core/src/nrf_mesh_configure.c.obj
 .ARM.attributes
                0x000005ce       0x39 examples/dfu/CMakeFiles/dfu_no_serial_nrf52832_xxAA_s132_6.0.0.dir/__/__/mesh/core/src/aes.c.obj
 .ARM.attributes
                0x00000607       0x39 examples/dfu/CMakeFiles/dfu_no_serial_nrf52832_xxAA_s132_6.0.0.dir/__/__/mesh/core/src/msg_cache.c.obj
 .ARM.attributes
                0x00000640       0x39 examples/dfu/CMakeFiles/dfu_no_serial_nrf52832_xxAA_s132_6.0.0.dir/__/__/mesh/core/src/transport.c.obj
 .ARM.attributes
                0x00000679       0x39 examples/dfu/CMakeFiles/dfu_no_serial_nrf52832_xxAA_s132_6.0.0.dir/__/__/mesh/core/src/event.c.obj
 .ARM.attributes
                0x000006b2       0x39 examples/dfu/CMakeFiles/dfu_no_serial_nrf52832_xxAA_s132_6.0.0.dir/__/__/mesh/core/src/packet_buffer.c.obj
 .ARM.attributes
                0x000006eb       0x39 examples/dfu/CMakeFiles/dfu_no_serial_nrf52832_xxAA_s132_6.0.0.dir/__/__/mesh/core/src/flash_manager_defrag.c.obj
 .ARM.attributes
                0x00000724       0x39 examples/dfu/CMakeFiles/dfu_no_serial_nrf52832_xxAA_s132_6.0.0.dir/__/__/mesh/core/src/fifo.c.obj
 .ARM.attributes
                0x0000075d       0x39 examples/dfu/CMakeFiles/dfu_no_serial_nrf52832_xxAA_s132_6.0.0.dir/__/__/mesh/core/src/nrf_flash.c.obj
 .ARM.attributes
                0x00000796       0x39 examples/dfu/CMakeFiles/dfu_no_serial_nrf52832_xxAA_s132_6.0.0.dir/__/__/mesh/core/src/packet_mgr.c.obj
 .ARM.attributes
                0x000007cf       0x39 examples/dfu/CMakeFiles/dfu_no_serial_nrf52832_xxAA_s132_6.0.0.dir/__/__/mesh/core/src/net_state.c.obj
 .ARM.attributes
                0x00000808       0x39 examples/dfu/CMakeFiles/dfu_no_serial_nrf52832_xxAA_s132_6.0.0.dir/__/__/mesh/core/src/mesh_flash.c.obj
 .ARM.attributes
                0x00000841       0x39 examples/dfu/CMakeFiles/dfu_no_serial_nrf52832_xxAA_s132_6.0.0.dir/__/__/mesh/core/src/nrf_mesh_utils.c.obj
 .ARM.attributes
                0x0000087a       0x39 examples/dfu/CMakeFiles/dfu_no_serial_nrf52832_xxAA_s132_6.0.0.dir/__/__/mesh/core/src/nrf_mesh.c.obj
 .ARM.attributes
                0x000008b3       0x39 examples/dfu/CMakeFiles/dfu_no_serial_nrf52832_xxAA_s132_6.0.0.dir/__/__/mesh/core/src/queue.c.obj
 .ARM.attributes
                0x000008ec       0x39 examples/dfu/CMakeFiles/dfu_no_serial_nrf52832_xxAA_s132_6.0.0.dir/__/__/mesh/core/src/hal.c.obj
 .ARM.attributes
                0x00000925       0x39 examples/dfu/CMakeFiles/dfu_no_serial_nrf52832_xxAA_s132_6.0.0.dir/__/__/mesh/core/src/aes_cmac.c.obj
 .ARM.attributes
                0x0000095e       0x39 examples/dfu/CMakeFiles/dfu_no_serial_nrf52832_xxAA_s132_6.0.0.dir/__/__/mesh/core/src/timer_scheduler.c.obj
 .ARM.attributes
                0x00000997       0x39 examples/dfu/CMakeFiles/dfu_no_serial_nrf52832_xxAA_s132_6.0.0.dir/__/__/mesh/core/src/timer.c.obj
 .ARM.attributes
                0x000009d0       0x39 examples/dfu/CMakeFiles/dfu_no_serial_nrf52832_xxAA_s132_6.0.0.dir/__/__/mesh/core/src/ticker.c.obj
 .ARM.attributes
                0x00000a09       0x39 examples/dfu/CMakeFiles/dfu_no_serial_nrf52832_xxAA_s132_6.0.0.dir/__/__/mesh/core/src/rand.c.obj
 .ARM.attributes
                0x00000a42       0x39 examples/dfu/CMakeFiles/dfu_no_serial_nrf52832_xxAA_s132_6.0.0.dir/__/__/mesh/core/src/nrf_mesh_opt.c.obj
 .ARM.attributes
                0x00000a7b       0x39 examples/dfu/CMakeFiles/dfu_no_serial_nrf52832_xxAA_s132_6.0.0.dir/__/__/mesh/core/src/timeslot.c.obj
 .ARM.attributes
                0x00000ab4       0x39 examples/dfu/CMakeFiles/dfu_no_serial_nrf52832_xxAA_s132_6.0.0.dir/__/__/mesh/core/src/bearer_event.c.obj
 .ARM.attributes
                0x00000aed       0x39 examples/dfu/CMakeFiles/dfu_no_serial_nrf52832_xxAA_s132_6.0.0.dir/__/__/mesh/core/src/enc.c.obj
 .ARM.attributes
                0x00000b26       0x39 examples/dfu/CMakeFiles/dfu_no_serial_nrf52832_xxAA_s132_6.0.0.dir/__/__/mesh/core/src/network.c.obj
 .ARM.attributes
                0x00000b5f       0x39 examples/dfu/CMakeFiles/dfu_no_serial_nrf52832_xxAA_s132_6.0.0.dir/__/__/mesh/core/src/net_packet.c.obj
 .ARM.attributes
                0x00000b98       0x39 examples/dfu/CMakeFiles/dfu_no_serial_nrf52832_xxAA_s132_6.0.0.dir/__/__/mesh/core/src/msqueue.c.obj
 .ARM.attributes
                0x00000bd1       0x39 examples/dfu/CMakeFiles/dfu_no_serial_nrf52832_xxAA_s132_6.0.0.dir/__/__/mesh/core/src/nrf_mesh_keygen.c.obj
 .ARM.attributes
                0x00000c0a       0x39 examples/dfu/CMakeFiles/dfu_no_serial_nrf52832_xxAA_s132_6.0.0.dir/__/__/mesh/core/src/list.c.obj
 .ARM.attributes
                0x00000c43       0x39 examples/dfu/CMakeFiles/dfu_no_serial_nrf52832_xxAA_s132_6.0.0.dir/__/__/mesh/core/src/log.c.obj
 .ARM.attributes
                0x00000c7c       0x39 examples/dfu/CMakeFiles/dfu_no_serial_nrf52832_xxAA_s132_6.0.0.dir/__/__/mesh/core/src/flash_manager.c.obj
 .ARM.attributes
                0x00000cb5       0x39 examples/dfu/CMakeFiles/dfu_no_serial_nrf52832_xxAA_s132_6.0.0.dir/__/__/mesh/core/src/ccm_soft.c.obj
 .ARM.attributes
                0x00000cee       0x39 examples/dfu/CMakeFiles/dfu_no_serial_nrf52832_xxAA_s132_6.0.0.dir/__/__/mesh/core/src/replay_cache.c.obj
 .ARM.attributes
                0x00000d27       0x39 examples/dfu/CMakeFiles/dfu_no_serial_nrf52832_xxAA_s132_6.0.0.dir/__/__/mesh/core/src/beacon.c.obj
 .ARM.attributes
                0x00000d60       0x39 examples/dfu/CMakeFiles/dfu_no_serial_nrf52832_xxAA_s132_6.0.0.dir/__/__/mesh/core/src/flash_manager_internal.c.obj
 .ARM.attributes
                0x00000d99       0x39 examples/dfu/CMakeFiles/dfu_no_serial_nrf52832_xxAA_s132_6.0.0.dir/__/__/mesh/core/src/core_tx.c.obj
 .ARM.attributes
                0x00000dd2       0x39 examples/dfu/CMakeFiles/dfu_no_serial_nrf52832_xxAA_s132_6.0.0.dir/__/__/mesh/core/src/heartbeat.c.obj
 .ARM.attributes
                0x00000e0b       0x39 examples/dfu/CMakeFiles/dfu_no_serial_nrf52832_xxAA_s132_6.0.0.dir/__/__/mesh/core/src/net_beacon.c.obj
 .ARM.attributes
                0x00000e44       0x39 examples/dfu/CMakeFiles/dfu_no_serial_nrf52832_xxAA_s132_6.0.0.dir/__/__/mesh/core/src/core_tx_adv.c.obj
 .ARM.attributes
                0x00000e7d       0x39 examples/dfu/CMakeFiles/dfu_no_serial_nrf52832_xxAA_s132_6.0.0.dir/__/__/mesh/bearer/src/ad_listener.c.obj
 .ARM.attributes
                0x00000eb6       0x39 examples/dfu/CMakeFiles/dfu_no_serial_nrf52832_xxAA_s132_6.0.0.dir/__/__/mesh/bearer/src/ad_type_filter.c.obj
 .ARM.attributes
                0x00000eef       0x39 examples/dfu/CMakeFiles/dfu_no_serial_nrf52832_xxAA_s132_6.0.0.dir/__/__/mesh/bearer/src/advertiser.c.obj
 .ARM.attributes
                0x00000f28       0x39 examples/dfu/CMakeFiles/dfu_no_serial_nrf52832_xxAA_s132_6.0.0.dir/__/__/mesh/bearer/src/bearer_handler.c.obj
 .ARM.attributes
                0x00000f61       0x39 examples/dfu/CMakeFiles/dfu_no_serial_nrf52832_xxAA_s132_6.0.0.dir/__/__/mesh/bearer/src/broadcast.c.obj
 .ARM.attributes
                0x00000f9a       0x39 examples/dfu/CMakeFiles/dfu_no_serial_nrf52832_xxAA_s132_6.0.0.dir/__/__/mesh/bearer/src/filter_engine.c.obj
 .ARM.attributes
                0x00000fd3       0x39 examples/dfu/CMakeFiles/dfu_no_serial_nrf52832_xxAA_s132_6.0.0.dir/__/__/mesh/bearer/src/radio_config.c.obj
 .ARM.attributes
                0x0000100c       0x39 examples/dfu/CMakeFiles/dfu_no_serial_nrf52832_xxAA_s132_6.0.0.dir/__/__/mesh/bearer/src/scanner.c.obj
 .ARM.attributes
                0x00001045       0x39 examples/dfu/CMakeFiles/dfu_no_serial_nrf52832_xxAA_s132_6.0.0.dir/C_/ver/mod/nRF5_SDK_15.0.0_a53641a/modules/nrfx/mdk/system_nrf52.c.obj
 .ARM.attributes
                0x0000107e       0x20 examples/dfu/CMakeFiles/dfu_no_serial_nrf52832_xxAA_s132_6.0.0.dir/C_/ver/mod/nRF5_SDK_15.0.0_a53641a/modules/nrfx/mdk/gcc_startup_nrf52.S.obj
 .ARM.attributes
                0x0000109e       0x39 examples/dfu/CMakeFiles/dfu_no_serial_nrf52832_xxAA_s132_6.0.0.dir/C_/ver/mod/nRF5_SDK_15.0.0_a53641a/components/libraries/util/app_error.c.obj
 .ARM.attributes
                0x000010d7       0x39 examples/dfu/CMakeFiles/dfu_no_serial_nrf52832_xxAA_s132_6.0.0.dir/C_/ver/mod/nRF5_SDK_15.0.0_a53641a/components/libraries/util/app_error_handler_gcc.c.obj
 .ARM.attributes
                0x00001110       0x39 external/rtt/librtt_nrf52832_xxAA.a(SEGGER_RTT.c.obj)
 .ARM.attributes
                0x00001149       0x39 external/rtt/librtt_nrf52832_xxAA.a(SEGGER_RTT_printf.c.obj)
 .ARM.attributes
                0x00001182       0x39 external/micro-ecc/libuECC_nrf52832_xxAA.a(uECC.c.obj)
 .ARM.attributes
                0x000011bb       0x34 c:/mesh/arm_gcc/bin/../lib/gcc/arm-none-eabi/6.3.1/../../../../arm-none-eabi/lib/thumb/v7e-m/fpv4-sp/hard\libg_nano.a(lib_a-exit.o)
 .ARM.attributes
                0x000011ef       0x34 c:/mesh/arm_gcc/bin/../lib/gcc/arm-none-eabi/6.3.1/../../../../arm-none-eabi/lib/thumb/v7e-m/fpv4-sp/hard\libg_nano.a(lib_a-impure.o)
 .ARM.attributes
                0x00001223       0x34 c:/mesh/arm_gcc/bin/../lib/gcc/arm-none-eabi/6.3.1/../../../../arm-none-eabi/lib/thumb/v7e-m/fpv4-sp/hard\libg_nano.a(lib_a-init.o)
 .ARM.attributes
                0x00001257       0x34 c:/mesh/arm_gcc/bin/../lib/gcc/arm-none-eabi/6.3.1/../../../../arm-none-eabi/lib/thumb/v7e-m/fpv4-sp/hard\libg_nano.a(lib_a-malloc.o)
 .ARM.attributes
                0x0000128b       0x34 c:/mesh/arm_gcc/bin/../lib/gcc/arm-none-eabi/6.3.1/../../../../arm-none-eabi/lib/thumb/v7e-m/fpv4-sp/hard\libg_nano.a(lib_a-memcmp.o)
 .ARM.attributes
                0x000012bf       0x34 c:/mesh/arm_gcc/bin/../lib/gcc/arm-none-eabi/6.3.1/../../../../arm-none-eabi/lib/thumb/v7e-m/fpv4-sp/hard\libg_nano.a(lib_a-memcpy-stub.o)
 .ARM.attributes
                0x000012f3       0x34 c:/mesh/arm_gcc/bin/../lib/gcc/arm-none-eabi/6.3.1/../../../../arm-none-eabi/lib/thumb/v7e-m/fpv4-sp/hard\libg_nano.a(lib_a-memset.o)
 .ARM.attributes
                0x00001327       0x34 c:/mesh/arm_gcc/bin/../lib/gcc/arm-none-eabi/6.3.1/../../../../arm-none-eabi/lib/thumb/v7e-m/fpv4-sp/hard\libg_nano.a(lib_a-nano-freer.o)
 .ARM.attributes
                0x0000135b       0x34 c:/mesh/arm_gcc/bin/../lib/gcc/arm-none-eabi/6.3.1/../../../../arm-none-eabi/lib/thumb/v7e-m/fpv4-sp/hard\libg_nano.a(lib_a-nano-mallocr.o)
 .ARM.attributes
                0x0000138f       0x34 c:/mesh/arm_gcc/bin/../lib/gcc/arm-none-eabi/6.3.1/../../../../arm-none-eabi/lib/thumb/v7e-m/fpv4-sp/hard\libg_nano.a(lib_a-sbrkr.o)
 .ARM.attributes
                0x000013c3       0x34 c:/mesh/arm_gcc/bin/../lib/gcc/arm-none-eabi/6.3.1/../../../../arm-none-eabi/lib/thumb/v7e-m/fpv4-sp/hard\libg_nano.a(lib_a-strcpy.o)
 .ARM.attributes
                0x000013f7       0x1b c:/mesh/arm_gcc/bin/../lib/gcc/arm-none-eabi/6.3.1/../../../../arm-none-eabi/lib/thumb/v7e-m/fpv4-sp/hard\libg_nano.a(lib_a-strlen.o)
 .ARM.attributes
                0x00001412       0x34 c:/mesh/arm_gcc/bin/../lib/gcc/arm-none-eabi/6.3.1/../../../../arm-none-eabi/lib/thumb/v7e-m/fpv4-sp/hard\libg_nano.a(lib_a-strrchr.o)
 .ARM.attributes
                0x00001446       0x34 c:/mesh/arm_gcc/bin/../lib/gcc/arm-none-eabi/6.3.1/../../../../arm-none-eabi/lib/thumb/v7e-m/fpv4-sp/hard\libg_nano.a(lib_a-mlock.o)
 .ARM.attributes
                0x0000147a       0x34 c:/mesh/arm_gcc/bin/../lib/gcc/arm-none-eabi/6.3.1/../../../../arm-none-eabi/lib/thumb/v7e-m/fpv4-sp/hard\libg_nano.a(lib_a-reent.o)
 .ARM.attributes
                0x000014ae       0x34 c:/mesh/arm_gcc/bin/../lib/gcc/arm-none-eabi/6.3.1/../../../../arm-none-eabi/lib/thumb/v7e-m/fpv4-sp/hard\libg_nano.a(lib_a-strchr.o)
 .ARM.attributes
                0x000014e2       0x34 c:/mesh/arm_gcc/bin/../lib/gcc/arm-none-eabi/6.3.1/thumb/v7e-m/fpv4-sp/hard/crtend.o
 .ARM.attributes
                0x00001516       0x22 c:/mesh/arm_gcc/bin/../lib/gcc/arm-none-eabi/6.3.1/thumb/v7e-m/fpv4-sp/hard/crtn.o
 .ARM.attributes
                0x00001538       0x34 c:/mesh/arm_gcc/bin/../lib/gcc/arm-none-eabi/6.3.1/../../../../arm-none-eabi/lib/thumb/v7e-m/fpv4-sp/hard\libnosys.a(sbrk.o)
 .ARM.attributes
                0x0000156c       0x34 c:/mesh/arm_gcc/bin/../lib/gcc/arm-none-eabi/6.3.1/../../../../arm-none-eabi/lib/thumb/v7e-m/fpv4-sp/hard\libnosys.a(_exit.o)

.comment        0x00000000       0x7f
 .comment       0x00000000       0x7f examples/dfu/CMakeFiles/dfu_no_serial_nrf52832_xxAA_s132_6.0.0.dir/src/main.c.obj
                                 0x80 (size before relaxing)
 .comment       0x0000007f       0x80 examples/dfu/CMakeFiles/dfu_no_serial_nrf52832_xxAA_s132_6.0.0.dir/__/__/mesh/stack/src/mesh_stack.c.obj
 .comment       0x0000007f       0x80 examples/dfu/CMakeFiles/dfu_no_serial_nrf52832_xxAA_s132_6.0.0.dir/__/common/src/mesh_softdevice_init.c.obj
 .comment       0x0000007f       0x80 examples/dfu/CMakeFiles/dfu_no_serial_nrf52832_xxAA_s132_6.0.0.dir/__/common/src/mesh_provisionee.c.obj
 .comment       0x0000007f       0x80 examples/dfu/CMakeFiles/dfu_no_serial_nrf52832_xxAA_s132_6.0.0.dir/__/common/src/simple_hal.c.obj
 .comment       0x0000007f       0x80 examples/dfu/CMakeFiles/dfu_no_serial_nrf52832_xxAA_s132_6.0.0.dir/__/__/mesh/access/src/access_publish.c.obj
 .comment       0x0000007f       0x80 examples/dfu/CMakeFiles/dfu_no_serial_nrf52832_xxAA_s132_6.0.0.dir/__/__/mesh/access/src/access.c.obj
 .comment       0x0000007f       0x80 examples/dfu/CMakeFiles/dfu_no_serial_nrf52832_xxAA_s132_6.0.0.dir/__/__/mesh/access/src/access_reliable.c.obj
 .comment       0x0000007f       0x80 examples/dfu/CMakeFiles/dfu_no_serial_nrf52832_xxAA_s132_6.0.0.dir/__/__/mesh/access/src/device_state_manager.c.obj
 .comment       0x0000007f       0x80 examples/dfu/CMakeFiles/dfu_no_serial_nrf52832_xxAA_s132_6.0.0.dir/__/__/models/config/src/composition_data.c.obj
 .comment       0x0000007f       0x80 examples/dfu/CMakeFiles/dfu_no_serial_nrf52832_xxAA_s132_6.0.0.dir/__/__/models/config/src/config_server.c.obj
 .comment       0x0000007f       0x80 examples/dfu/CMakeFiles/dfu_no_serial_nrf52832_xxAA_s132_6.0.0.dir/__/__/models/config/src/packed_index_list.c.obj
 .comment       0x0000007f       0x80 examples/dfu/CMakeFiles/dfu_no_serial_nrf52832_xxAA_s132_6.0.0.dir/__/__/models/health/src/health_server.c.obj
 .comment       0x0000007f       0x80 examples/dfu/CMakeFiles/dfu_no_serial_nrf52832_xxAA_s132_6.0.0.dir/__/__/mesh/prov/src/prov_provisioner.c.obj
 .comment       0x0000007f       0x80 examples/dfu/CMakeFiles/dfu_no_serial_nrf52832_xxAA_s132_6.0.0.dir/__/__/mesh/prov/src/prov_provisionee.c.obj
 .comment       0x0000007f       0x80 examples/dfu/CMakeFiles/dfu_no_serial_nrf52832_xxAA_s132_6.0.0.dir/__/__/mesh/prov/src/nrf_mesh_prov.c.obj
 .comment       0x0000007f       0x80 examples/dfu/CMakeFiles/dfu_no_serial_nrf52832_xxAA_s132_6.0.0.dir/__/__/mesh/prov/src/provisioning.c.obj
 .comment       0x0000007f       0x80 examples/dfu/CMakeFiles/dfu_no_serial_nrf52832_xxAA_s132_6.0.0.dir/__/__/mesh/prov/src/prov_beacon.c.obj
 .comment       0x0000007f       0x80 examples/dfu/CMakeFiles/dfu_no_serial_nrf52832_xxAA_s132_6.0.0.dir/__/__/mesh/prov/src/prov_utils.c.obj
 .comment       0x0000007f       0x80 examples/dfu/CMakeFiles/dfu_no_serial_nrf52832_xxAA_s132_6.0.0.dir/__/__/mesh/prov/src/prov_bearer_adv.c.obj
 .comment       0x0000007f       0x80 examples/dfu/CMakeFiles/dfu_no_serial_nrf52832_xxAA_s132_6.0.0.dir/__/__/mesh/dfu/src/nrf_mesh_dfu.c.obj
 .comment       0x0000007f       0x80 examples/dfu/CMakeFiles/dfu_no_serial_nrf52832_xxAA_s132_6.0.0.dir/__/common/src/app_error_weak.c.obj
 .comment       0x0000007f       0x80 examples/dfu/CMakeFiles/dfu_no_serial_nrf52832_xxAA_s132_6.0.0.dir/__/common/src/assertion_handler_weak.c.obj
 .comment       0x0000007f       0x80 examples/dfu/CMakeFiles/dfu_no_serial_nrf52832_xxAA_s132_6.0.0.dir/__/__/mesh/core/src/nrf_mesh_configure.c.obj
 .comment       0x0000007f       0x80 examples/dfu/CMakeFiles/dfu_no_serial_nrf52832_xxAA_s132_6.0.0.dir/__/__/mesh/core/src/aes.c.obj
 .comment       0x0000007f       0x80 examples/dfu/CMakeFiles/dfu_no_serial_nrf52832_xxAA_s132_6.0.0.dir/__/__/mesh/core/src/msg_cache.c.obj
 .comment       0x0000007f       0x80 examples/dfu/CMakeFiles/dfu_no_serial_nrf52832_xxAA_s132_6.0.0.dir/__/__/mesh/core/src/transport.c.obj
 .comment       0x0000007f       0x80 examples/dfu/CMakeFiles/dfu_no_serial_nrf52832_xxAA_s132_6.0.0.dir/__/__/mesh/core/src/event.c.obj
 .comment       0x0000007f       0x80 examples/dfu/CMakeFiles/dfu_no_serial_nrf52832_xxAA_s132_6.0.0.dir/__/__/mesh/core/src/packet_buffer.c.obj
 .comment       0x0000007f       0x80 examples/dfu/CMakeFiles/dfu_no_serial_nrf52832_xxAA_s132_6.0.0.dir/__/__/mesh/core/src/flash_manager_defrag.c.obj
 .comment       0x0000007f       0x80 examples/dfu/CMakeFiles/dfu_no_serial_nrf52832_xxAA_s132_6.0.0.dir/__/__/mesh/core/src/fifo.c.obj
 .comment       0x0000007f       0x80 examples/dfu/CMakeFiles/dfu_no_serial_nrf52832_xxAA_s132_6.0.0.dir/__/__/mesh/core/src/nrf_flash.c.obj
 .comment       0x0000007f       0x80 examples/dfu/CMakeFiles/dfu_no_serial_nrf52832_xxAA_s132_6.0.0.dir/__/__/mesh/core/src/packet_mgr.c.obj
 .comment       0x0000007f       0x80 examples/dfu/CMakeFiles/dfu_no_serial_nrf52832_xxAA_s132_6.0.0.dir/__/__/mesh/core/src/net_state.c.obj
 .comment       0x0000007f       0x80 examples/dfu/CMakeFiles/dfu_no_serial_nrf52832_xxAA_s132_6.0.0.dir/__/__/mesh/core/src/mesh_flash.c.obj
 .comment       0x0000007f       0x80 examples/dfu/CMakeFiles/dfu_no_serial_nrf52832_xxAA_s132_6.0.0.dir/__/__/mesh/core/src/nrf_mesh_utils.c.obj
 .comment       0x0000007f       0x80 examples/dfu/CMakeFiles/dfu_no_serial_nrf52832_xxAA_s132_6.0.0.dir/__/__/mesh/core/src/nrf_mesh.c.obj
 .comment       0x0000007f       0x80 examples/dfu/CMakeFiles/dfu_no_serial_nrf52832_xxAA_s132_6.0.0.dir/__/__/mesh/core/src/queue.c.obj
 .comment       0x0000007f       0x80 examples/dfu/CMakeFiles/dfu_no_serial_nrf52832_xxAA_s132_6.0.0.dir/__/__/mesh/core/src/hal.c.obj
 .comment       0x0000007f       0x80 examples/dfu/CMakeFiles/dfu_no_serial_nrf52832_xxAA_s132_6.0.0.dir/__/__/mesh/core/src/aes_cmac.c.obj
 .comment       0x0000007f       0x80 examples/dfu/CMakeFiles/dfu_no_serial_nrf52832_xxAA_s132_6.0.0.dir/__/__/mesh/core/src/timer_scheduler.c.obj
 .comment       0x0000007f       0x80 examples/dfu/CMakeFiles/dfu_no_serial_nrf52832_xxAA_s132_6.0.0.dir/__/__/mesh/core/src/timer.c.obj
 .comment       0x0000007f       0x80 examples/dfu/CMakeFiles/dfu_no_serial_nrf52832_xxAA_s132_6.0.0.dir/__/__/mesh/core/src/ticker.c.obj
 .comment       0x0000007f       0x80 examples/dfu/CMakeFiles/dfu_no_serial_nrf52832_xxAA_s132_6.0.0.dir/__/__/mesh/core/src/rand.c.obj
 .comment       0x0000007f       0x80 examples/dfu/CMakeFiles/dfu_no_serial_nrf52832_xxAA_s132_6.0.0.dir/__/__/mesh/core/src/nrf_mesh_opt.c.obj
 .comment       0x0000007f       0x80 examples/dfu/CMakeFiles/dfu_no_serial_nrf52832_xxAA_s132_6.0.0.dir/__/__/mesh/core/src/timeslot.c.obj
 .comment       0x0000007f       0x80 examples/dfu/CMakeFiles/dfu_no_serial_nrf52832_xxAA_s132_6.0.0.dir/__/__/mesh/core/src/bearer_event.c.obj
 .comment       0x0000007f       0x80 examples/dfu/CMakeFiles/dfu_no_serial_nrf52832_xxAA_s132_6.0.0.dir/__/__/mesh/core/src/enc.c.obj
 .comment       0x0000007f       0x80 examples/dfu/CMakeFiles/dfu_no_serial_nrf52832_xxAA_s132_6.0.0.dir/__/__/mesh/core/src/network.c.obj
 .comment       0x0000007f       0x80 examples/dfu/CMakeFiles/dfu_no_serial_nrf52832_xxAA_s132_6.0.0.dir/__/__/mesh/core/src/net_packet.c.obj
 .comment       0x0000007f       0x80 examples/dfu/CMakeFiles/dfu_no_serial_nrf52832_xxAA_s132_6.0.0.dir/__/__/mesh/core/src/msqueue.c.obj
 .comment       0x0000007f       0x80 examples/dfu/CMakeFiles/dfu_no_serial_nrf52832_xxAA_s132_6.0.0.dir/__/__/mesh/core/src/nrf_mesh_keygen.c.obj
 .comment       0x0000007f       0x80 examples/dfu/CMakeFiles/dfu_no_serial_nrf52832_xxAA_s132_6.0.0.dir/__/__/mesh/core/src/list.c.obj
 .comment       0x0000007f       0x80 examples/dfu/CMakeFiles/dfu_no_serial_nrf52832_xxAA_s132_6.0.0.dir/__/__/mesh/core/src/log.c.obj
 .comment       0x0000007f       0x80 examples/dfu/CMakeFiles/dfu_no_serial_nrf52832_xxAA_s132_6.0.0.dir/__/__/mesh/core/src/flash_manager.c.obj
 .comment       0x0000007f       0x80 examples/dfu/CMakeFiles/dfu_no_serial_nrf52832_xxAA_s132_6.0.0.dir/__/__/mesh/core/src/ccm_soft.c.obj
 .comment       0x0000007f       0x80 examples/dfu/CMakeFiles/dfu_no_serial_nrf52832_xxAA_s132_6.0.0.dir/__/__/mesh/core/src/replay_cache.c.obj
 .comment       0x0000007f       0x80 examples/dfu/CMakeFiles/dfu_no_serial_nrf52832_xxAA_s132_6.0.0.dir/__/__/mesh/core/src/beacon.c.obj
 .comment       0x0000007f       0x80 examples/dfu/CMakeFiles/dfu_no_serial_nrf52832_xxAA_s132_6.0.0.dir/__/__/mesh/core/src/flash_manager_internal.c.obj
 .comment       0x0000007f       0x80 examples/dfu/CMakeFiles/dfu_no_serial_nrf52832_xxAA_s132_6.0.0.dir/__/__/mesh/core/src/core_tx.c.obj
 .comment       0x0000007f       0x80 examples/dfu/CMakeFiles/dfu_no_serial_nrf52832_xxAA_s132_6.0.0.dir/__/__/mesh/core/src/heartbeat.c.obj
 .comment       0x0000007f       0x80 examples/dfu/CMakeFiles/dfu_no_serial_nrf52832_xxAA_s132_6.0.0.dir/__/__/mesh/core/src/net_beacon.c.obj
 .comment       0x0000007f       0x80 examples/dfu/CMakeFiles/dfu_no_serial_nrf52832_xxAA_s132_6.0.0.dir/__/__/mesh/core/src/core_tx_adv.c.obj
 .comment       0x0000007f       0x80 examples/dfu/CMakeFiles/dfu_no_serial_nrf52832_xxAA_s132_6.0.0.dir/__/__/mesh/bearer/src/ad_listener.c.obj
 .comment       0x0000007f       0x80 examples/dfu/CMakeFiles/dfu_no_serial_nrf52832_xxAA_s132_6.0.0.dir/__/__/mesh/bearer/src/ad_type_filter.c.obj
 .comment       0x0000007f       0x80 examples/dfu/CMakeFiles/dfu_no_serial_nrf52832_xxAA_s132_6.0.0.dir/__/__/mesh/bearer/src/advertiser.c.obj
 .comment       0x0000007f       0x80 examples/dfu/CMakeFiles/dfu_no_serial_nrf52832_xxAA_s132_6.0.0.dir/__/__/mesh/bearer/src/bearer_handler.c.obj
 .comment       0x0000007f       0x80 examples/dfu/CMakeFiles/dfu_no_serial_nrf52832_xxAA_s132_6.0.0.dir/__/__/mesh/bearer/src/broadcast.c.obj
 .comment       0x0000007f       0x80 examples/dfu/CMakeFiles/dfu_no_serial_nrf52832_xxAA_s132_6.0.0.dir/__/__/mesh/bearer/src/filter_engine.c.obj
 .comment       0x0000007f       0x80 examples/dfu/CMakeFiles/dfu_no_serial_nrf52832_xxAA_s132_6.0.0.dir/__/__/mesh/bearer/src/radio_config.c.obj
 .comment       0x0000007f       0x80 examples/dfu/CMakeFiles/dfu_no_serial_nrf52832_xxAA_s132_6.0.0.dir/__/__/mesh/bearer/src/scanner.c.obj
 .comment       0x0000007f       0x80 examples/dfu/CMakeFiles/dfu_no_serial_nrf52832_xxAA_s132_6.0.0.dir/C_/ver/mod/nRF5_SDK_15.0.0_a53641a/modules/nrfx/mdk/system_nrf52.c.obj
 .comment       0x0000007f       0x80 examples/dfu/CMakeFiles/dfu_no_serial_nrf52832_xxAA_s132_6.0.0.dir/C_/ver/mod/nRF5_SDK_15.0.0_a53641a/components/libraries/util/app_error.c.obj
 .comment       0x0000007f       0x80 examples/dfu/CMakeFiles/dfu_no_serial_nrf52832_xxAA_s132_6.0.0.dir/C_/ver/mod/nRF5_SDK_15.0.0_a53641a/components/libraries/util/app_error_handler_gcc.c.obj
 .comment       0x0000007f       0x80 external/rtt/librtt_nrf52832_xxAA.a(SEGGER_RTT.c.obj)
 .comment       0x0000007f       0x80 external/rtt/librtt_nrf52832_xxAA.a(SEGGER_RTT_printf.c.obj)
 .comment       0x0000007f       0x80 external/micro-ecc/libuECC_nrf52832_xxAA.a(uECC.c.obj)

.debug_info     0x00000000    0x82277
 .debug_info    0x00000000     0x307f examples/dfu/CMakeFiles/dfu_no_serial_nrf52832_xxAA_s132_6.0.0.dir/src/main.c.obj
 .debug_info    0x0000307f     0x230b examples/dfu/CMakeFiles/dfu_no_serial_nrf52832_xxAA_s132_6.0.0.dir/__/__/mesh/stack/src/mesh_stack.c.obj
 .debug_info    0x0000538a     0x1714 examples/dfu/CMakeFiles/dfu_no_serial_nrf52832_xxAA_s132_6.0.0.dir/__/common/src/mesh_softdevice_init.c.obj
 .debug_info    0x00006a9e     0x2171 examples/dfu/CMakeFiles/dfu_no_serial_nrf52832_xxAA_s132_6.0.0.dir/__/common/src/mesh_provisionee.c.obj
 .debug_info    0x00008c0f     0x156c examples/dfu/CMakeFiles/dfu_no_serial_nrf52832_xxAA_s132_6.0.0.dir/__/common/src/simple_hal.c.obj
 .debug_info    0x0000a17b     0x1155 examples/dfu/CMakeFiles/dfu_no_serial_nrf52832_xxAA_s132_6.0.0.dir/__/__/mesh/access/src/access_publish.c.obj
 .debug_info    0x0000b2d0     0x4a41 examples/dfu/CMakeFiles/dfu_no_serial_nrf52832_xxAA_s132_6.0.0.dir/__/__/mesh/access/src/access.c.obj
 .debug_info    0x0000fd11     0x19d3 examples/dfu/CMakeFiles/dfu_no_serial_nrf52832_xxAA_s132_6.0.0.dir/__/__/mesh/access/src/access_reliable.c.obj
 .debug_info    0x000116e4     0x65d4 examples/dfu/CMakeFiles/dfu_no_serial_nrf52832_xxAA_s132_6.0.0.dir/__/__/mesh/access/src/device_state_manager.c.obj
 .debug_info    0x00017cb8      0xece examples/dfu/CMakeFiles/dfu_no_serial_nrf52832_xxAA_s132_6.0.0.dir/__/__/models/config/src/composition_data.c.obj
 .debug_info    0x00018b86     0x89e6 examples/dfu/CMakeFiles/dfu_no_serial_nrf52832_xxAA_s132_6.0.0.dir/__/__/models/config/src/config_server.c.obj
 .debug_info    0x0002156c      0x126 examples/dfu/CMakeFiles/dfu_no_serial_nrf52832_xxAA_s132_6.0.0.dir/__/__/models/config/src/packed_index_list.c.obj
 .debug_info    0x00021692     0x270a examples/dfu/CMakeFiles/dfu_no_serial_nrf52832_xxAA_s132_6.0.0.dir/__/__/models/health/src/health_server.c.obj
 .debug_info    0x00023d9c     0x2438 examples/dfu/CMakeFiles/dfu_no_serial_nrf52832_xxAA_s132_6.0.0.dir/__/__/mesh/prov/src/prov_provisioner.c.obj
 .debug_info    0x000261d4     0x2823 examples/dfu/CMakeFiles/dfu_no_serial_nrf52832_xxAA_s132_6.0.0.dir/__/__/mesh/prov/src/prov_provisionee.c.obj
 .debug_info    0x000289f7     0x1ed2 examples/dfu/CMakeFiles/dfu_no_serial_nrf52832_xxAA_s132_6.0.0.dir/__/__/mesh/prov/src/nrf_mesh_prov.c.obj
 .debug_info    0x0002a8c9     0x1586 examples/dfu/CMakeFiles/dfu_no_serial_nrf52832_xxAA_s132_6.0.0.dir/__/__/mesh/prov/src/provisioning.c.obj
 .debug_info    0x0002be4f     0x1a48 examples/dfu/CMakeFiles/dfu_no_serial_nrf52832_xxAA_s132_6.0.0.dir/__/__/mesh/prov/src/prov_beacon.c.obj
 .debug_info    0x0002d897     0x2054 examples/dfu/CMakeFiles/dfu_no_serial_nrf52832_xxAA_s132_6.0.0.dir/__/__/mesh/prov/src/prov_utils.c.obj
 .debug_info    0x0002f8eb     0x3ab2 examples/dfu/CMakeFiles/dfu_no_serial_nrf52832_xxAA_s132_6.0.0.dir/__/__/mesh/prov/src/prov_bearer_adv.c.obj
 .debug_info    0x0003339d     0x4fe5 examples/dfu/CMakeFiles/dfu_no_serial_nrf52832_xxAA_s132_6.0.0.dir/__/__/mesh/dfu/src/nrf_mesh_dfu.c.obj
 .debug_info    0x00038382     0x106b examples/dfu/CMakeFiles/dfu_no_serial_nrf52832_xxAA_s132_6.0.0.dir/__/common/src/app_error_weak.c.obj
 .debug_info    0x000393ed      0x99b examples/dfu/CMakeFiles/dfu_no_serial_nrf52832_xxAA_s132_6.0.0.dir/__/common/src/assertion_handler_weak.c.obj
 .debug_info    0x00039d88      0xd04 examples/dfu/CMakeFiles/dfu_no_serial_nrf52832_xxAA_s132_6.0.0.dir/__/__/mesh/core/src/nrf_mesh_configure.c.obj
 .debug_info    0x0003aa8c      0xbd2 examples/dfu/CMakeFiles/dfu_no_serial_nrf52832_xxAA_s132_6.0.0.dir/__/__/mesh/core/src/aes.c.obj
 .debug_info    0x0003b65e      0xa5a examples/dfu/CMakeFiles/dfu_no_serial_nrf52832_xxAA_s132_6.0.0.dir/__/__/mesh/core/src/msg_cache.c.obj
 .debug_info    0x0003c0b8     0x5086 examples/dfu/CMakeFiles/dfu_no_serial_nrf52832_xxAA_s132_6.0.0.dir/__/__/mesh/core/src/transport.c.obj
 .debug_info    0x0004113e     0x171f examples/dfu/CMakeFiles/dfu_no_serial_nrf52832_xxAA_s132_6.0.0.dir/__/__/mesh/core/src/event.c.obj
 .debug_info    0x0004285d     0x1927 examples/dfu/CMakeFiles/dfu_no_serial_nrf52832_xxAA_s132_6.0.0.dir/__/__/mesh/core/src/packet_buffer.c.obj
 .debug_info    0x00044184     0x1fec examples/dfu/CMakeFiles/dfu_no_serial_nrf52832_xxAA_s132_6.0.0.dir/__/__/mesh/core/src/flash_manager_defrag.c.obj
 .debug_info    0x00046170      0xd19 examples/dfu/CMakeFiles/dfu_no_serial_nrf52832_xxAA_s132_6.0.0.dir/__/__/mesh/core/src/fifo.c.obj
 .debug_info    0x00046e89      0xb20 examples/dfu/CMakeFiles/dfu_no_serial_nrf52832_xxAA_s132_6.0.0.dir/__/__/mesh/core/src/nrf_flash.c.obj
 .debug_info    0x000479a9     0x118d examples/dfu/CMakeFiles/dfu_no_serial_nrf52832_xxAA_s132_6.0.0.dir/__/__/mesh/core/src/packet_mgr.c.obj
 .debug_info    0x00048b36     0x27ed examples/dfu/CMakeFiles/dfu_no_serial_nrf52832_xxAA_s132_6.0.0.dir/__/__/mesh/core/src/net_state.c.obj
 .debug_info    0x0004b323     0x1931 examples/dfu/CMakeFiles/dfu_no_serial_nrf52832_xxAA_s132_6.0.0.dir/__/__/mesh/core/src/mesh_flash.c.obj
 .debug_info    0x0004cc54      0xa78 examples/dfu/CMakeFiles/dfu_no_serial_nrf52832_xxAA_s132_6.0.0.dir/__/__/mesh/core/src/nrf_mesh_utils.c.obj
 .debug_info    0x0004d6cc     0x25a6 examples/dfu/CMakeFiles/dfu_no_serial_nrf52832_xxAA_s132_6.0.0.dir/__/__/mesh/core/src/nrf_mesh.c.obj
 .debug_info    0x0004fc72      0xb11 examples/dfu/CMakeFiles/dfu_no_serial_nrf52832_xxAA_s132_6.0.0.dir/__/__/mesh/core/src/queue.c.obj
 .debug_info    0x00050783      0x54f examples/dfu/CMakeFiles/dfu_no_serial_nrf52832_xxAA_s132_6.0.0.dir/__/__/mesh/core/src/hal.c.obj
 .debug_info    0x00050cd2      0xe48 examples/dfu/CMakeFiles/dfu_no_serial_nrf52832_xxAA_s132_6.0.0.dir/__/__/mesh/core/src/aes_cmac.c.obj
 .debug_info    0x00051b1a     0x10e0 examples/dfu/CMakeFiles/dfu_no_serial_nrf52832_xxAA_s132_6.0.0.dir/__/__/mesh/core/src/timer_scheduler.c.obj
 .debug_info    0x00052bfa      0xd90 examples/dfu/CMakeFiles/dfu_no_serial_nrf52832_xxAA_s132_6.0.0.dir/__/__/mesh/core/src/timer.c.obj
 .debug_info    0x0005398a      0x20b examples/dfu/CMakeFiles/dfu_no_serial_nrf52832_xxAA_s132_6.0.0.dir/__/__/mesh/core/src/ticker.c.obj
 .debug_info    0x00053b95      0x408 examples/dfu/CMakeFiles/dfu_no_serial_nrf52832_xxAA_s132_6.0.0.dir/__/__/mesh/core/src/rand.c.obj
 .debug_info    0x00053f9d      0xaf5 examples/dfu/CMakeFiles/dfu_no_serial_nrf52832_xxAA_s132_6.0.0.dir/__/__/mesh/core/src/nrf_mesh_opt.c.obj
 .debug_info    0x00054a92     0x1a1c examples/dfu/CMakeFiles/dfu_no_serial_nrf52832_xxAA_s132_6.0.0.dir/__/__/mesh/core/src/timeslot.c.obj
 .debug_info    0x000564ae     0x1a78 examples/dfu/CMakeFiles/dfu_no_serial_nrf52832_xxAA_s132_6.0.0.dir/__/__/mesh/core/src/bearer_event.c.obj
 .debug_info    0x00057f26     0x1703 examples/dfu/CMakeFiles/dfu_no_serial_nrf52832_xxAA_s132_6.0.0.dir/__/__/mesh/core/src/enc.c.obj
 .debug_info    0x00059629     0x1acb examples/dfu/CMakeFiles/dfu_no_serial_nrf52832_xxAA_s132_6.0.0.dir/__/__/mesh/core/src/network.c.obj
 .debug_info    0x0005b0f4     0x1cad examples/dfu/CMakeFiles/dfu_no_serial_nrf52832_xxAA_s132_6.0.0.dir/__/__/mesh/core/src/net_packet.c.obj
 .debug_info    0x0005cda1      0xd86 examples/dfu/CMakeFiles/dfu_no_serial_nrf52832_xxAA_s132_6.0.0.dir/__/__/mesh/core/src/msqueue.c.obj
 .debug_info    0x0005db27      0x4c7 examples/dfu/CMakeFiles/dfu_no_serial_nrf52832_xxAA_s132_6.0.0.dir/__/__/mesh/core/src/nrf_mesh_keygen.c.obj
 .debug_info    0x0005dfee      0x506 examples/dfu/CMakeFiles/dfu_no_serial_nrf52832_xxAA_s132_6.0.0.dir/__/__/mesh/core/src/list.c.obj
 .debug_info    0x0005e4f4      0xe28 examples/dfu/CMakeFiles/dfu_no_serial_nrf52832_xxAA_s132_6.0.0.dir/__/__/mesh/core/src/log.c.obj
 .debug_info    0x0005f31c     0x3024 examples/dfu/CMakeFiles/dfu_no_serial_nrf52832_xxAA_s132_6.0.0.dir/__/__/mesh/core/src/flash_manager.c.obj
 .debug_info    0x00062340     0x10a3 examples/dfu/CMakeFiles/dfu_no_serial_nrf52832_xxAA_s132_6.0.0.dir/__/__/mesh/core/src/ccm_soft.c.obj
 .debug_info    0x000633e3      0xa93 examples/dfu/CMakeFiles/dfu_no_serial_nrf52832_xxAA_s132_6.0.0.dir/__/__/mesh/core/src/replay_cache.c.obj
 .debug_info    0x00063e76     0x177f examples/dfu/CMakeFiles/dfu_no_serial_nrf52832_xxAA_s132_6.0.0.dir/__/__/mesh/core/src/beacon.c.obj
 .debug_info    0x000655f5      0xb9b examples/dfu/CMakeFiles/dfu_no_serial_nrf52832_xxAA_s132_6.0.0.dir/__/__/mesh/core/src/flash_manager_internal.c.obj
 .debug_info    0x00066190     0x126f examples/dfu/CMakeFiles/dfu_no_serial_nrf52832_xxAA_s132_6.0.0.dir/__/__/mesh/core/src/core_tx.c.obj
 .debug_info    0x000673ff     0x24d8 examples/dfu/CMakeFiles/dfu_no_serial_nrf52832_xxAA_s132_6.0.0.dir/__/__/mesh/core/src/heartbeat.c.obj
 .debug_info    0x000698d7     0x28ac examples/dfu/CMakeFiles/dfu_no_serial_nrf52832_xxAA_s132_6.0.0.dir/__/__/mesh/core/src/net_beacon.c.obj
 .debug_info    0x0006c183     0x197b examples/dfu/CMakeFiles/dfu_no_serial_nrf52832_xxAA_s132_6.0.0.dir/__/__/mesh/core/src/core_tx_adv.c.obj
 .debug_info    0x0006dafe     0x1164 examples/dfu/CMakeFiles/dfu_no_serial_nrf52832_xxAA_s132_6.0.0.dir/__/__/mesh/bearer/src/ad_listener.c.obj
 .debug_info    0x0006ec62      0xfbe examples/dfu/CMakeFiles/dfu_no_serial_nrf52832_xxAA_s132_6.0.0.dir/__/__/mesh/bearer/src/ad_type_filter.c.obj
 .debug_info    0x0006fc20     0x2584 examples/dfu/CMakeFiles/dfu_no_serial_nrf52832_xxAA_s132_6.0.0.dir/__/__/mesh/bearer/src/advertiser.c.obj
 .debug_info    0x000721a4     0x19de examples/dfu/CMakeFiles/dfu_no_serial_nrf52832_xxAA_s132_6.0.0.dir/__/__/mesh/bearer/src/bearer_handler.c.obj
 .debug_info    0x00073b82     0x19a6 examples/dfu/CMakeFiles/dfu_no_serial_nrf52832_xxAA_s132_6.0.0.dir/__/__/mesh/bearer/src/broadcast.c.obj
 .debug_info    0x00075528      0xcff examples/dfu/CMakeFiles/dfu_no_serial_nrf52832_xxAA_s132_6.0.0.dir/__/__/mesh/bearer/src/filter_engine.c.obj
 .debug_info    0x00076227      0x8e4 examples/dfu/CMakeFiles/dfu_no_serial_nrf52832_xxAA_s132_6.0.0.dir/__/__/mesh/bearer/src/radio_config.c.obj
 .debug_info    0x00076b0b     0x262e examples/dfu/CMakeFiles/dfu_no_serial_nrf52832_xxAA_s132_6.0.0.dir/__/__/mesh/bearer/src/scanner.c.obj
 .debug_info    0x00079139     0x10f2 examples/dfu/CMakeFiles/dfu_no_serial_nrf52832_xxAA_s132_6.0.0.dir/C_/ver/mod/nRF5_SDK_15.0.0_a53641a/modules/nrfx/mdk/system_nrf52.c.obj
 .debug_info    0x0007a22b      0xaee examples/dfu/CMakeFiles/dfu_no_serial_nrf52832_xxAA_s132_6.0.0.dir/C_/ver/mod/nRF5_SDK_15.0.0_a53641a/components/libraries/util/app_error.c.obj
 .debug_info    0x0007ad19      0x974 examples/dfu/CMakeFiles/dfu_no_serial_nrf52832_xxAA_s132_6.0.0.dir/C_/ver/mod/nRF5_SDK_15.0.0_a53641a/components/libraries/util/app_error_handler_gcc.c.obj
 .debug_info    0x0007b68d     0x1818 external/rtt/librtt_nrf52832_xxAA.a(SEGGER_RTT.c.obj)
 .debug_info    0x0007cea5      0xec1 external/rtt/librtt_nrf52832_xxAA.a(SEGGER_RTT_printf.c.obj)
 .debug_info    0x0007dd66     0x4511 external/micro-ecc/libuECC_nrf52832_xxAA.a(uECC.c.obj)

.debug_abbrev   0x00000000    0x10b50
 .debug_abbrev  0x00000000      0x4da examples/dfu/CMakeFiles/dfu_no_serial_nrf52832_xxAA_s132_6.0.0.dir/src/main.c.obj
 .debug_abbrev  0x000004da      0x36b examples/dfu/CMakeFiles/dfu_no_serial_nrf52832_xxAA_s132_6.0.0.dir/__/__/mesh/stack/src/mesh_stack.c.obj
 .debug_abbrev  0x00000845      0x40b examples/dfu/CMakeFiles/dfu_no_serial_nrf52832_xxAA_s132_6.0.0.dir/__/common/src/mesh_softdevice_init.c.obj
 .debug_abbrev  0x00000c50      0x312 examples/dfu/CMakeFiles/dfu_no_serial_nrf52832_xxAA_s132_6.0.0.dir/__/common/src/mesh_provisionee.c.obj
 .debug_abbrev  0x00000f62      0x36b examples/dfu/CMakeFiles/dfu_no_serial_nrf52832_xxAA_s132_6.0.0.dir/__/common/src/simple_hal.c.obj
 .debug_abbrev  0x000012cd      0x434 examples/dfu/CMakeFiles/dfu_no_serial_nrf52832_xxAA_s132_6.0.0.dir/__/__/mesh/access/src/access_publish.c.obj
 .debug_abbrev  0x00001701      0x646 examples/dfu/CMakeFiles/dfu_no_serial_nrf52832_xxAA_s132_6.0.0.dir/__/__/mesh/access/src/access.c.obj
 .debug_abbrev  0x00001d47      0x43b examples/dfu/CMakeFiles/dfu_no_serial_nrf52832_xxAA_s132_6.0.0.dir/__/__/mesh/access/src/access_reliable.c.obj
 .debug_abbrev  0x00002182      0x604 examples/dfu/CMakeFiles/dfu_no_serial_nrf52832_xxAA_s132_6.0.0.dir/__/__/mesh/access/src/device_state_manager.c.obj
 .debug_abbrev  0x00002786      0x2db examples/dfu/CMakeFiles/dfu_no_serial_nrf52832_xxAA_s132_6.0.0.dir/__/__/models/config/src/composition_data.c.obj
 .debug_abbrev  0x00002a61      0x54e examples/dfu/CMakeFiles/dfu_no_serial_nrf52832_xxAA_s132_6.0.0.dir/__/__/models/config/src/config_server.c.obj
 .debug_abbrev  0x00002faf       0x95 examples/dfu/CMakeFiles/dfu_no_serial_nrf52832_xxAA_s132_6.0.0.dir/__/__/models/config/src/packed_index_list.c.obj
 .debug_abbrev  0x00003044      0x4d0 examples/dfu/CMakeFiles/dfu_no_serial_nrf52832_xxAA_s132_6.0.0.dir/__/__/models/health/src/health_server.c.obj
 .debug_abbrev  0x00003514      0x40e examples/dfu/CMakeFiles/dfu_no_serial_nrf52832_xxAA_s132_6.0.0.dir/__/__/mesh/prov/src/prov_provisioner.c.obj
 .debug_abbrev  0x00003922      0x491 examples/dfu/CMakeFiles/dfu_no_serial_nrf52832_xxAA_s132_6.0.0.dir/__/__/mesh/prov/src/prov_provisionee.c.obj
 .debug_abbrev  0x00003db3      0x434 examples/dfu/CMakeFiles/dfu_no_serial_nrf52832_xxAA_s132_6.0.0.dir/__/__/mesh/prov/src/nrf_mesh_prov.c.obj
 .debug_abbrev  0x000041e7      0x2a9 examples/dfu/CMakeFiles/dfu_no_serial_nrf52832_xxAA_s132_6.0.0.dir/__/__/mesh/prov/src/provisioning.c.obj
 .debug_abbrev  0x00004490      0x2c8 examples/dfu/CMakeFiles/dfu_no_serial_nrf52832_xxAA_s132_6.0.0.dir/__/__/mesh/prov/src/prov_beacon.c.obj
 .debug_abbrev  0x00004758      0x3ca examples/dfu/CMakeFiles/dfu_no_serial_nrf52832_xxAA_s132_6.0.0.dir/__/__/mesh/prov/src/prov_utils.c.obj
 .debug_abbrev  0x00004b22      0x4eb examples/dfu/CMakeFiles/dfu_no_serial_nrf52832_xxAA_s132_6.0.0.dir/__/__/mesh/prov/src/prov_bearer_adv.c.obj
 .debug_abbrev  0x0000500d      0x563 examples/dfu/CMakeFiles/dfu_no_serial_nrf52832_xxAA_s132_6.0.0.dir/__/__/mesh/dfu/src/nrf_mesh_dfu.c.obj
 .debug_abbrev  0x00005570      0x2de examples/dfu/CMakeFiles/dfu_no_serial_nrf52832_xxAA_s132_6.0.0.dir/__/common/src/app_error_weak.c.obj
 .debug_abbrev  0x0000584e      0x1f6 examples/dfu/CMakeFiles/dfu_no_serial_nrf52832_xxAA_s132_6.0.0.dir/__/common/src/assertion_handler_weak.c.obj
 .debug_abbrev  0x00005a44      0x24b examples/dfu/CMakeFiles/dfu_no_serial_nrf52832_xxAA_s132_6.0.0.dir/__/__/mesh/core/src/nrf_mesh_configure.c.obj
 .debug_abbrev  0x00005c8f      0x264 examples/dfu/CMakeFiles/dfu_no_serial_nrf52832_xxAA_s132_6.0.0.dir/__/__/mesh/core/src/aes.c.obj
 .debug_abbrev  0x00005ef3      0x25d examples/dfu/CMakeFiles/dfu_no_serial_nrf52832_xxAA_s132_6.0.0.dir/__/__/mesh/core/src/msg_cache.c.obj
 .debug_abbrev  0x00006150      0x5e8 examples/dfu/CMakeFiles/dfu_no_serial_nrf52832_xxAA_s132_6.0.0.dir/__/__/mesh/core/src/transport.c.obj
 .debug_abbrev  0x00006738      0x2be examples/dfu/CMakeFiles/dfu_no_serial_nrf52832_xxAA_s132_6.0.0.dir/__/__/mesh/core/src/event.c.obj
 .debug_abbrev  0x000069f6      0x45f examples/dfu/CMakeFiles/dfu_no_serial_nrf52832_xxAA_s132_6.0.0.dir/__/__/mesh/core/src/packet_buffer.c.obj
 .debug_abbrev  0x00006e55      0x50e examples/dfu/CMakeFiles/dfu_no_serial_nrf52832_xxAA_s132_6.0.0.dir/__/__/mesh/core/src/flash_manager_defrag.c.obj
 .debug_abbrev  0x00007363      0x2f2 examples/dfu/CMakeFiles/dfu_no_serial_nrf52832_xxAA_s132_6.0.0.dir/__/__/mesh/core/src/fifo.c.obj
 .debug_abbrev  0x00007655      0x21f examples/dfu/CMakeFiles/dfu_no_serial_nrf52832_xxAA_s132_6.0.0.dir/__/__/mesh/core/src/nrf_flash.c.obj
 .debug_abbrev  0x00007874      0x3b1 examples/dfu/CMakeFiles/dfu_no_serial_nrf52832_xxAA_s132_6.0.0.dir/__/__/mesh/core/src/packet_mgr.c.obj
 .debug_abbrev  0x00007c25      0x552 examples/dfu/CMakeFiles/dfu_no_serial_nrf52832_xxAA_s132_6.0.0.dir/__/__/mesh/core/src/net_state.c.obj
 .debug_abbrev  0x00008177      0x453 examples/dfu/CMakeFiles/dfu_no_serial_nrf52832_xxAA_s132_6.0.0.dir/__/__/mesh/core/src/mesh_flash.c.obj
 .debug_abbrev  0x000085ca      0x242 examples/dfu/CMakeFiles/dfu_no_serial_nrf52832_xxAA_s132_6.0.0.dir/__/__/mesh/core/src/nrf_mesh_utils.c.obj
 .debug_abbrev  0x0000880c      0x476 examples/dfu/CMakeFiles/dfu_no_serial_nrf52832_xxAA_s132_6.0.0.dir/__/__/mesh/core/src/nrf_mesh.c.obj
 .debug_abbrev  0x00008c82      0x247 examples/dfu/CMakeFiles/dfu_no_serial_nrf52832_xxAA_s132_6.0.0.dir/__/__/mesh/core/src/queue.c.obj
 .debug_abbrev  0x00008ec9      0x1eb examples/dfu/CMakeFiles/dfu_no_serial_nrf52832_xxAA_s132_6.0.0.dir/__/__/mesh/core/src/hal.c.obj
 .debug_abbrev  0x000090b4      0x332 examples/dfu/CMakeFiles/dfu_no_serial_nrf52832_xxAA_s132_6.0.0.dir/__/__/mesh/core/src/aes_cmac.c.obj
 .debug_abbrev  0x000093e6      0x3bc examples/dfu/CMakeFiles/dfu_no_serial_nrf52832_xxAA_s132_6.0.0.dir/__/__/mesh/core/src/timer_scheduler.c.obj
 .debug_abbrev  0x000097a2      0x337 examples/dfu/CMakeFiles/dfu_no_serial_nrf52832_xxAA_s132_6.0.0.dir/__/__/mesh/core/src/timer.c.obj
 .debug_abbrev  0x00009ad9      0x152 examples/dfu/CMakeFiles/dfu_no_serial_nrf52832_xxAA_s132_6.0.0.dir/__/__/mesh/core/src/ticker.c.obj
 .debug_abbrev  0x00009c2b      0x194 examples/dfu/CMakeFiles/dfu_no_serial_nrf52832_xxAA_s132_6.0.0.dir/__/__/mesh/core/src/rand.c.obj
 .debug_abbrev  0x00009dbf      0x24a examples/dfu/CMakeFiles/dfu_no_serial_nrf52832_xxAA_s132_6.0.0.dir/__/__/mesh/core/src/nrf_mesh_opt.c.obj
 .debug_abbrev  0x0000a009      0x4a4 examples/dfu/CMakeFiles/dfu_no_serial_nrf52832_xxAA_s132_6.0.0.dir/__/__/mesh/core/src/timeslot.c.obj
 .debug_abbrev  0x0000a4ad      0x4b5 examples/dfu/CMakeFiles/dfu_no_serial_nrf52832_xxAA_s132_6.0.0.dir/__/__/mesh/core/src/bearer_event.c.obj
 .debug_abbrev  0x0000a962      0x375 examples/dfu/CMakeFiles/dfu_no_serial_nrf52832_xxAA_s132_6.0.0.dir/__/__/mesh/core/src/enc.c.obj
 .debug_abbrev  0x0000acd7      0x496 examples/dfu/CMakeFiles/dfu_no_serial_nrf52832_xxAA_s132_6.0.0.dir/__/__/mesh/core/src/network.c.obj
 .debug_abbrev  0x0000b16d      0x4a1 examples/dfu/CMakeFiles/dfu_no_serial_nrf52832_xxAA_s132_6.0.0.dir/__/__/mesh/core/src/net_packet.c.obj
 .debug_abbrev  0x0000b60e      0x2c0 examples/dfu/CMakeFiles/dfu_no_serial_nrf52832_xxAA_s132_6.0.0.dir/__/__/mesh/core/src/msqueue.c.obj
 .debug_abbrev  0x0000b8ce      0x156 examples/dfu/CMakeFiles/dfu_no_serial_nrf52832_xxAA_s132_6.0.0.dir/__/__/mesh/core/src/nrf_mesh_keygen.c.obj
 .debug_abbrev  0x0000ba24      0x1a4 examples/dfu/CMakeFiles/dfu_no_serial_nrf52832_xxAA_s132_6.0.0.dir/__/__/mesh/core/src/list.c.obj
 .debug_abbrev  0x0000bbc8      0x24e examples/dfu/CMakeFiles/dfu_no_serial_nrf52832_xxAA_s132_6.0.0.dir/__/__/mesh/core/src/log.c.obj
 .debug_abbrev  0x0000be16      0x524 examples/dfu/CMakeFiles/dfu_no_serial_nrf52832_xxAA_s132_6.0.0.dir/__/__/mesh/core/src/flash_manager.c.obj
 .debug_abbrev  0x0000c33a      0x2b3 examples/dfu/CMakeFiles/dfu_no_serial_nrf52832_xxAA_s132_6.0.0.dir/__/__/mesh/core/src/ccm_soft.c.obj
 .debug_abbrev  0x0000c5ed      0x270 examples/dfu/CMakeFiles/dfu_no_serial_nrf52832_xxAA_s132_6.0.0.dir/__/__/mesh/core/src/replay_cache.c.obj
 .debug_abbrev  0x0000c85d      0x2c4 examples/dfu/CMakeFiles/dfu_no_serial_nrf52832_xxAA_s132_6.0.0.dir/__/__/mesh/core/src/beacon.c.obj
 .debug_abbrev  0x0000cb21      0x288 examples/dfu/CMakeFiles/dfu_no_serial_nrf52832_xxAA_s132_6.0.0.dir/__/__/mesh/core/src/flash_manager_internal.c.obj
 .debug_abbrev  0x0000cda9      0x2ed examples/dfu/CMakeFiles/dfu_no_serial_nrf52832_xxAA_s132_6.0.0.dir/__/__/mesh/core/src/core_tx.c.obj
 .debug_abbrev  0x0000d096      0x4be examples/dfu/CMakeFiles/dfu_no_serial_nrf52832_xxAA_s132_6.0.0.dir/__/__/mesh/core/src/heartbeat.c.obj
 .debug_abbrev  0x0000d554      0x4ac examples/dfu/CMakeFiles/dfu_no_serial_nrf52832_xxAA_s132_6.0.0.dir/__/__/mesh/core/src/net_beacon.c.obj
 .debug_abbrev  0x0000da00      0x2fa examples/dfu/CMakeFiles/dfu_no_serial_nrf52832_xxAA_s132_6.0.0.dir/__/__/mesh/core/src/core_tx_adv.c.obj
 .debug_abbrev  0x0000dcfa      0x341 examples/dfu/CMakeFiles/dfu_no_serial_nrf52832_xxAA_s132_6.0.0.dir/__/__/mesh/bearer/src/ad_listener.c.obj
 .debug_abbrev  0x0000e03b      0x368 examples/dfu/CMakeFiles/dfu_no_serial_nrf52832_xxAA_s132_6.0.0.dir/__/__/mesh/bearer/src/ad_type_filter.c.obj
 .debug_abbrev  0x0000e3a3      0x4e4 examples/dfu/CMakeFiles/dfu_no_serial_nrf52832_xxAA_s132_6.0.0.dir/__/__/mesh/bearer/src/advertiser.c.obj
 .debug_abbrev  0x0000e887      0x3e2 examples/dfu/CMakeFiles/dfu_no_serial_nrf52832_xxAA_s132_6.0.0.dir/__/__/mesh/bearer/src/bearer_handler.c.obj
 .debug_abbrev  0x0000ec69      0x3c8 examples/dfu/CMakeFiles/dfu_no_serial_nrf52832_xxAA_s132_6.0.0.dir/__/__/mesh/bearer/src/broadcast.c.obj
 .debug_abbrev  0x0000f031      0x2a6 examples/dfu/CMakeFiles/dfu_no_serial_nrf52832_xxAA_s132_6.0.0.dir/__/__/mesh/bearer/src/filter_engine.c.obj
 .debug_abbrev  0x0000f2d7      0x1d5 examples/dfu/CMakeFiles/dfu_no_serial_nrf52832_xxAA_s132_6.0.0.dir/__/__/mesh/bearer/src/radio_config.c.obj
 .debug_abbrev  0x0000f4ac      0x52a examples/dfu/CMakeFiles/dfu_no_serial_nrf52832_xxAA_s132_6.0.0.dir/__/__/mesh/bearer/src/scanner.c.obj
 .debug_abbrev  0x0000f9d6      0x200 examples/dfu/CMakeFiles/dfu_no_serial_nrf52832_xxAA_s132_6.0.0.dir/C_/ver/mod/nRF5_SDK_15.0.0_a53641a/modules/nrfx/mdk/system_nrf52.c.obj
 .debug_abbrev  0x0000fbd6      0x232 examples/dfu/CMakeFiles/dfu_no_serial_nrf52832_xxAA_s132_6.0.0.dir/C_/ver/mod/nRF5_SDK_15.0.0_a53641a/components/libraries/util/app_error.c.obj
 .debug_abbrev  0x0000fe08      0x1bd examples/dfu/CMakeFiles/dfu_no_serial_nrf52832_xxAA_s132_6.0.0.dir/C_/ver/mod/nRF5_SDK_15.0.0_a53641a/components/libraries/util/app_error_handler_gcc.c.obj
 .debug_abbrev  0x0000ffc5      0x3a9 external/rtt/librtt_nrf52832_xxAA.a(SEGGER_RTT.c.obj)
 .debug_abbrev  0x0001036e      0x32e external/rtt/librtt_nrf52832_xxAA.a(SEGGER_RTT_printf.c.obj)
 .debug_abbrev  0x0001069c      0x4b4 external/micro-ecc/libuECC_nrf52832_xxAA.a(uECC.c.obj)

.debug_loc      0x00000000    0x24669
 .debug_loc     0x00000000      0x206 examples/dfu/CMakeFiles/dfu_no_serial_nrf52832_xxAA_s132_6.0.0.dir/src/main.c.obj
 .debug_loc     0x00000206      0x192 examples/dfu/CMakeFiles/dfu_no_serial_nrf52832_xxAA_s132_6.0.0.dir/__/__/mesh/stack/src/mesh_stack.c.obj
 .debug_loc     0x00000398      0x1b3 examples/dfu/CMakeFiles/dfu_no_serial_nrf52832_xxAA_s132_6.0.0.dir/__/common/src/mesh_softdevice_init.c.obj
 .debug_loc     0x0000054b      0x10a examples/dfu/CMakeFiles/dfu_no_serial_nrf52832_xxAA_s132_6.0.0.dir/__/common/src/mesh_provisionee.c.obj
 .debug_loc     0x00000655      0x277 examples/dfu/CMakeFiles/dfu_no_serial_nrf52832_xxAA_s132_6.0.0.dir/__/common/src/simple_hal.c.obj
 .debug_loc     0x000008cc      0x4d4 examples/dfu/CMakeFiles/dfu_no_serial_nrf52832_xxAA_s132_6.0.0.dir/__/__/mesh/access/src/access_publish.c.obj
 .debug_loc     0x00000da0     0x2460 examples/dfu/CMakeFiles/dfu_no_serial_nrf52832_xxAA_s132_6.0.0.dir/__/__/mesh/access/src/access.c.obj
 .debug_loc     0x00003200      0x886 examples/dfu/CMakeFiles/dfu_no_serial_nrf52832_xxAA_s132_6.0.0.dir/__/__/mesh/access/src/access_reliable.c.obj
 .debug_loc     0x00003a86     0x39ce examples/dfu/CMakeFiles/dfu_no_serial_nrf52832_xxAA_s132_6.0.0.dir/__/__/mesh/access/src/device_state_manager.c.obj
 .debug_loc     0x00007454      0x26f examples/dfu/CMakeFiles/dfu_no_serial_nrf52832_xxAA_s132_6.0.0.dir/__/__/models/config/src/composition_data.c.obj
 .debug_loc     0x000076c3     0x4c34 examples/dfu/CMakeFiles/dfu_no_serial_nrf52832_xxAA_s132_6.0.0.dir/__/__/models/config/src/config_server.c.obj
 .debug_loc     0x0000c2f7       0x89 examples/dfu/CMakeFiles/dfu_no_serial_nrf52832_xxAA_s132_6.0.0.dir/__/__/models/config/src/packed_index_list.c.obj
 .debug_loc     0x0000c380     0x13e7 examples/dfu/CMakeFiles/dfu_no_serial_nrf52832_xxAA_s132_6.0.0.dir/__/__/models/health/src/health_server.c.obj
 .debug_loc     0x0000d767      0x747 examples/dfu/CMakeFiles/dfu_no_serial_nrf52832_xxAA_s132_6.0.0.dir/__/__/mesh/prov/src/prov_provisioner.c.obj
 .debug_loc     0x0000deae      0x766 examples/dfu/CMakeFiles/dfu_no_serial_nrf52832_xxAA_s132_6.0.0.dir/__/__/mesh/prov/src/prov_provisionee.c.obj
 .debug_loc     0x0000e614      0xa4b examples/dfu/CMakeFiles/dfu_no_serial_nrf52832_xxAA_s132_6.0.0.dir/__/__/mesh/prov/src/nrf_mesh_prov.c.obj
 .debug_loc     0x0000f05f      0x490 examples/dfu/CMakeFiles/dfu_no_serial_nrf52832_xxAA_s132_6.0.0.dir/__/__/mesh/prov/src/provisioning.c.obj
 .debug_loc     0x0000f4ef      0x18c examples/dfu/CMakeFiles/dfu_no_serial_nrf52832_xxAA_s132_6.0.0.dir/__/__/mesh/prov/src/prov_beacon.c.obj
 .debug_loc     0x0000f67b      0x40b examples/dfu/CMakeFiles/dfu_no_serial_nrf52832_xxAA_s132_6.0.0.dir/__/__/mesh/prov/src/prov_utils.c.obj
 .debug_loc     0x0000fa86     0x1457 examples/dfu/CMakeFiles/dfu_no_serial_nrf52832_xxAA_s132_6.0.0.dir/__/__/mesh/prov/src/prov_bearer_adv.c.obj
 .debug_loc     0x00010edd      0xbc4 examples/dfu/CMakeFiles/dfu_no_serial_nrf52832_xxAA_s132_6.0.0.dir/__/__/mesh/dfu/src/nrf_mesh_dfu.c.obj
 .debug_loc     0x00011aa1      0x18c examples/dfu/CMakeFiles/dfu_no_serial_nrf52832_xxAA_s132_6.0.0.dir/__/common/src/app_error_weak.c.obj
 .debug_loc     0x00011c2d       0x2c examples/dfu/CMakeFiles/dfu_no_serial_nrf52832_xxAA_s132_6.0.0.dir/__/common/src/assertion_handler_weak.c.obj
 .debug_loc     0x00011c59       0x2c examples/dfu/CMakeFiles/dfu_no_serial_nrf52832_xxAA_s132_6.0.0.dir/__/__/mesh/core/src/nrf_mesh_configure.c.obj
 .debug_loc     0x00011c85       0x89 examples/dfu/CMakeFiles/dfu_no_serial_nrf52832_xxAA_s132_6.0.0.dir/__/__/mesh/core/src/aes.c.obj
 .debug_loc     0x00011d0e      0x10d examples/dfu/CMakeFiles/dfu_no_serial_nrf52832_xxAA_s132_6.0.0.dir/__/__/mesh/core/src/msg_cache.c.obj
 .debug_loc     0x00011e1b     0x259a examples/dfu/CMakeFiles/dfu_no_serial_nrf52832_xxAA_s132_6.0.0.dir/__/__/mesh/core/src/transport.c.obj
 .debug_loc     0x000143b5       0xff examples/dfu/CMakeFiles/dfu_no_serial_nrf52832_xxAA_s132_6.0.0.dir/__/__/mesh/core/src/event.c.obj
 .debug_loc     0x000144b4      0x816 examples/dfu/CMakeFiles/dfu_no_serial_nrf52832_xxAA_s132_6.0.0.dir/__/__/mesh/core/src/packet_buffer.c.obj
 .debug_loc     0x00014cca      0x7fe examples/dfu/CMakeFiles/dfu_no_serial_nrf52832_xxAA_s132_6.0.0.dir/__/__/mesh/core/src/flash_manager_defrag.c.obj
 .debug_loc     0x000154c8      0x4f6 examples/dfu/CMakeFiles/dfu_no_serial_nrf52832_xxAA_s132_6.0.0.dir/__/__/mesh/core/src/fifo.c.obj
 .debug_loc     0x000159be      0x17a examples/dfu/CMakeFiles/dfu_no_serial_nrf52832_xxAA_s132_6.0.0.dir/__/__/mesh/core/src/nrf_flash.c.obj
 .debug_loc     0x00015b38      0x6c1 examples/dfu/CMakeFiles/dfu_no_serial_nrf52832_xxAA_s132_6.0.0.dir/__/__/mesh/core/src/packet_mgr.c.obj
 .debug_loc     0x000161f9      0x936 examples/dfu/CMakeFiles/dfu_no_serial_nrf52832_xxAA_s132_6.0.0.dir/__/__/mesh/core/src/net_state.c.obj
 .debug_loc     0x00016b2f      0x8be examples/dfu/CMakeFiles/dfu_no_serial_nrf52832_xxAA_s132_6.0.0.dir/__/__/mesh/core/src/mesh_flash.c.obj
 .debug_loc     0x000173ed       0xf8 examples/dfu/CMakeFiles/dfu_no_serial_nrf52832_xxAA_s132_6.0.0.dir/__/__/mesh/core/src/nrf_mesh_utils.c.obj
 .debug_loc     0x000174e5      0x4f8 examples/dfu/CMakeFiles/dfu_no_serial_nrf52832_xxAA_s132_6.0.0.dir/__/__/mesh/core/src/nrf_mesh.c.obj
 .debug_loc     0x000179dd       0xf5 examples/dfu/CMakeFiles/dfu_no_serial_nrf52832_xxAA_s132_6.0.0.dir/__/__/mesh/core/src/queue.c.obj
 .debug_loc     0x00017ad2       0x84 examples/dfu/CMakeFiles/dfu_no_serial_nrf52832_xxAA_s132_6.0.0.dir/__/__/mesh/core/src/hal.c.obj
 .debug_loc     0x00017b56      0x3f8 examples/dfu/CMakeFiles/dfu_no_serial_nrf52832_xxAA_s132_6.0.0.dir/__/__/mesh/core/src/aes_cmac.c.obj
 .debug_loc     0x00017f4e      0x2d1 examples/dfu/CMakeFiles/dfu_no_serial_nrf52832_xxAA_s132_6.0.0.dir/__/__/mesh/core/src/timer_scheduler.c.obj
 .debug_loc     0x0001821f      0x5f9 examples/dfu/CMakeFiles/dfu_no_serial_nrf52832_xxAA_s132_6.0.0.dir/__/__/mesh/core/src/timer.c.obj
 .debug_loc     0x00018818      0x14e examples/dfu/CMakeFiles/dfu_no_serial_nrf52832_xxAA_s132_6.0.0.dir/__/__/mesh/core/src/rand.c.obj
 .debug_loc     0x00018966      0x194 examples/dfu/CMakeFiles/dfu_no_serial_nrf52832_xxAA_s132_6.0.0.dir/__/__/mesh/core/src/nrf_mesh_opt.c.obj
 .debug_loc     0x00018afa      0x344 examples/dfu/CMakeFiles/dfu_no_serial_nrf52832_xxAA_s132_6.0.0.dir/__/__/mesh/core/src/timeslot.c.obj
 .debug_loc     0x00018e3e      0x526 examples/dfu/CMakeFiles/dfu_no_serial_nrf52832_xxAA_s132_6.0.0.dir/__/__/mesh/core/src/bearer_event.c.obj
 .debug_loc     0x00019364      0x8c1 examples/dfu/CMakeFiles/dfu_no_serial_nrf52832_xxAA_s132_6.0.0.dir/__/__/mesh/core/src/enc.c.obj
 .debug_loc     0x00019c25      0x5da examples/dfu/CMakeFiles/dfu_no_serial_nrf52832_xxAA_s132_6.0.0.dir/__/__/mesh/core/src/network.c.obj
 .debug_loc     0x0001a1ff      0x817 examples/dfu/CMakeFiles/dfu_no_serial_nrf52832_xxAA_s132_6.0.0.dir/__/__/mesh/core/src/net_packet.c.obj
 .debug_loc     0x0001aa16      0x2ed examples/dfu/CMakeFiles/dfu_no_serial_nrf52832_xxAA_s132_6.0.0.dir/__/__/mesh/core/src/msqueue.c.obj
 .debug_loc     0x0001ad03      0x1ee examples/dfu/CMakeFiles/dfu_no_serial_nrf52832_xxAA_s132_6.0.0.dir/__/__/mesh/core/src/nrf_mesh_keygen.c.obj
 .debug_loc     0x0001aef1      0x3bf examples/dfu/CMakeFiles/dfu_no_serial_nrf52832_xxAA_s132_6.0.0.dir/__/__/mesh/core/src/list.c.obj
 .debug_loc     0x0001b2b0      0x348 examples/dfu/CMakeFiles/dfu_no_serial_nrf52832_xxAA_s132_6.0.0.dir/__/__/mesh/core/src/log.c.obj
 .debug_loc     0x0001b5f8     0x1439 examples/dfu/CMakeFiles/dfu_no_serial_nrf52832_xxAA_s132_6.0.0.dir/__/__/mesh/core/src/flash_manager.c.obj
 .debug_loc     0x0001ca31      0x371 examples/dfu/CMakeFiles/dfu_no_serial_nrf52832_xxAA_s132_6.0.0.dir/__/__/mesh/core/src/ccm_soft.c.obj
 .debug_loc     0x0001cda2      0x141 examples/dfu/CMakeFiles/dfu_no_serial_nrf52832_xxAA_s132_6.0.0.dir/__/__/mesh/core/src/replay_cache.c.obj
 .debug_loc     0x0001cee3      0x30d examples/dfu/CMakeFiles/dfu_no_serial_nrf52832_xxAA_s132_6.0.0.dir/__/__/mesh/core/src/beacon.c.obj
 .debug_loc     0x0001d1f0       0xe3 examples/dfu/CMakeFiles/dfu_no_serial_nrf52832_xxAA_s132_6.0.0.dir/__/__/mesh/core/src/flash_manager_internal.c.obj
 .debug_loc     0x0001d2d3      0x3c5 examples/dfu/CMakeFiles/dfu_no_serial_nrf52832_xxAA_s132_6.0.0.dir/__/__/mesh/core/src/core_tx.c.obj
 .debug_loc     0x0001d698      0x570 examples/dfu/CMakeFiles/dfu_no_serial_nrf52832_xxAA_s132_6.0.0.dir/__/__/mesh/core/src/heartbeat.c.obj
 .debug_loc     0x0001dc08      0x5f5 examples/dfu/CMakeFiles/dfu_no_serial_nrf52832_xxAA_s132_6.0.0.dir/__/__/mesh/core/src/net_beacon.c.obj
 .debug_loc     0x0001e1fd      0x3ca examples/dfu/CMakeFiles/dfu_no_serial_nrf52832_xxAA_s132_6.0.0.dir/__/__/mesh/core/src/core_tx_adv.c.obj
 .debug_loc     0x0001e5c7      0x42e examples/dfu/CMakeFiles/dfu_no_serial_nrf52832_xxAA_s132_6.0.0.dir/__/__/mesh/bearer/src/ad_listener.c.obj
 .debug_loc     0x0001e9f5      0x3ae examples/dfu/CMakeFiles/dfu_no_serial_nrf52832_xxAA_s132_6.0.0.dir/__/__/mesh/bearer/src/ad_type_filter.c.obj
 .debug_loc     0x0001eda3      0xca9 examples/dfu/CMakeFiles/dfu_no_serial_nrf52832_xxAA_s132_6.0.0.dir/__/__/mesh/bearer/src/advertiser.c.obj
 .debug_loc     0x0001fa4c      0x333 examples/dfu/CMakeFiles/dfu_no_serial_nrf52832_xxAA_s132_6.0.0.dir/__/__/mesh/bearer/src/bearer_handler.c.obj
 .debug_loc     0x0001fd7f      0x306 examples/dfu/CMakeFiles/dfu_no_serial_nrf52832_xxAA_s132_6.0.0.dir/__/__/mesh/bearer/src/broadcast.c.obj
 .debug_loc     0x00020085       0xde examples/dfu/CMakeFiles/dfu_no_serial_nrf52832_xxAA_s132_6.0.0.dir/__/__/mesh/bearer/src/filter_engine.c.obj
 .debug_loc     0x00020163      0x232 examples/dfu/CMakeFiles/dfu_no_serial_nrf52832_xxAA_s132_6.0.0.dir/__/__/mesh/bearer/src/radio_config.c.obj
 .debug_loc     0x00020395      0x442 examples/dfu/CMakeFiles/dfu_no_serial_nrf52832_xxAA_s132_6.0.0.dir/__/__/mesh/bearer/src/scanner.c.obj
 .debug_loc     0x000207d7       0xb5 examples/dfu/CMakeFiles/dfu_no_serial_nrf52832_xxAA_s132_6.0.0.dir/C_/ver/mod/nRF5_SDK_15.0.0_a53641a/components/libraries/util/app_error.c.obj
 .debug_loc     0x0002088c       0x63 examples/dfu/CMakeFiles/dfu_no_serial_nrf52832_xxAA_s132_6.0.0.dir/C_/ver/mod/nRF5_SDK_15.0.0_a53641a/components/libraries/util/app_error_handler_gcc.c.obj
 .debug_loc     0x000208ef     0x1222 external/rtt/librtt_nrf52832_xxAA.a(SEGGER_RTT.c.obj)
 .debug_loc     0x00021b11      0x70f external/rtt/librtt_nrf52832_xxAA.a(SEGGER_RTT_printf.c.obj)
 .debug_loc     0x00022220     0x2449 external/micro-ecc/libuECC_nrf52832_xxAA.a(uECC.c.obj)

.debug_aranges  0x00000000     0x2370
 .debug_aranges
                0x00000000       0x38 examples/dfu/CMakeFiles/dfu_no_serial_nrf52832_xxAA_s132_6.0.0.dir/src/main.c.obj
 .debug_aranges
                0x00000038       0x50 examples/dfu/CMakeFiles/dfu_no_serial_nrf52832_xxAA_s132_6.0.0.dir/__/__/mesh/stack/src/mesh_stack.c.obj
 .debug_aranges
                0x00000088       0x40 examples/dfu/CMakeFiles/dfu_no_serial_nrf52832_xxAA_s132_6.0.0.dir/__/common/src/mesh_softdevice_init.c.obj
 .debug_aranges
                0x000000c8       0x30 examples/dfu/CMakeFiles/dfu_no_serial_nrf52832_xxAA_s132_6.0.0.dir/__/common/src/mesh_provisionee.c.obj
 .debug_aranges
                0x000000f8       0x50 examples/dfu/CMakeFiles/dfu_no_serial_nrf52832_xxAA_s132_6.0.0.dir/__/common/src/simple_hal.c.obj
 .debug_aranges
                0x00000148       0x50 examples/dfu/CMakeFiles/dfu_no_serial_nrf52832_xxAA_s132_6.0.0.dir/__/__/mesh/access/src/access_publish.c.obj
 .debug_aranges
                0x00000198      0x1d0 examples/dfu/CMakeFiles/dfu_no_serial_nrf52832_xxAA_s132_6.0.0.dir/__/__/mesh/access/src/access.c.obj
 .debug_aranges
                0x00000368       0x50 examples/dfu/CMakeFiles/dfu_no_serial_nrf52832_xxAA_s132_6.0.0.dir/__/__/mesh/access/src/access_reliable.c.obj
 .debug_aranges
                0x000003b8      0x318 examples/dfu/CMakeFiles/dfu_no_serial_nrf52832_xxAA_s132_6.0.0.dir/__/__/mesh/access/src/device_state_manager.c.obj
 .debug_aranges
                0x000006d0       0x20 examples/dfu/CMakeFiles/dfu_no_serial_nrf52832_xxAA_s132_6.0.0.dir/__/__/models/config/src/composition_data.c.obj
 .debug_aranges
                0x000006f0      0x210 examples/dfu/CMakeFiles/dfu_no_serial_nrf52832_xxAA_s132_6.0.0.dir/__/__/models/config/src/config_server.c.obj
 .debug_aranges
                0x00000900       0x20 examples/dfu/CMakeFiles/dfu_no_serial_nrf52832_xxAA_s132_6.0.0.dir/__/__/models/config/src/packed_index_list.c.obj
 .debug_aranges
                0x00000920       0xc8 examples/dfu/CMakeFiles/dfu_no_serial_nrf52832_xxAA_s132_6.0.0.dir/__/__/models/health/src/health_server.c.obj
 .debug_aranges
                0x000009e8       0x78 examples/dfu/CMakeFiles/dfu_no_serial_nrf52832_xxAA_s132_6.0.0.dir/__/__/mesh/prov/src/prov_provisioner.c.obj
 .debug_aranges
                0x00000a60       0x70 examples/dfu/CMakeFiles/dfu_no_serial_nrf52832_xxAA_s132_6.0.0.dir/__/__/mesh/prov/src/prov_provisionee.c.obj
 .debug_aranges
                0x00000ad0       0x88 examples/dfu/CMakeFiles/dfu_no_serial_nrf52832_xxAA_s132_6.0.0.dir/__/__/mesh/prov/src/nrf_mesh_prov.c.obj
 .debug_aranges
                0x00000b58       0x80 examples/dfu/CMakeFiles/dfu_no_serial_nrf52832_xxAA_s132_6.0.0.dir/__/__/mesh/prov/src/provisioning.c.obj
 .debug_aranges
                0x00000bd8       0x38 examples/dfu/CMakeFiles/dfu_no_serial_nrf52832_xxAA_s132_6.0.0.dir/__/__/mesh/prov/src/prov_beacon.c.obj
 .debug_aranges
                0x00000c10       0x70 examples/dfu/CMakeFiles/dfu_no_serial_nrf52832_xxAA_s132_6.0.0.dir/__/__/mesh/prov/src/prov_utils.c.obj
 .debug_aranges
                0x00000c80       0xc8 examples/dfu/CMakeFiles/dfu_no_serial_nrf52832_xxAA_s132_6.0.0.dir/__/__/mesh/prov/src/prov_bearer_adv.c.obj
 .debug_aranges
                0x00000d48       0xb0 examples/dfu/CMakeFiles/dfu_no_serial_nrf52832_xxAA_s132_6.0.0.dir/__/__/mesh/dfu/src/nrf_mesh_dfu.c.obj
 .debug_aranges
                0x00000df8       0x20 examples/dfu/CMakeFiles/dfu_no_serial_nrf52832_xxAA_s132_6.0.0.dir/__/common/src/app_error_weak.c.obj
 .debug_aranges
                0x00000e18       0x20 examples/dfu/CMakeFiles/dfu_no_serial_nrf52832_xxAA_s132_6.0.0.dir/__/common/src/assertion_handler_weak.c.obj
 .debug_aranges
                0x00000e38       0x30 examples/dfu/CMakeFiles/dfu_no_serial_nrf52832_xxAA_s132_6.0.0.dir/__/__/mesh/core/src/nrf_mesh_configure.c.obj
 .debug_aranges
                0x00000e68       0x28 examples/dfu/CMakeFiles/dfu_no_serial_nrf52832_xxAA_s132_6.0.0.dir/__/__/mesh/core/src/aes.c.obj
 .debug_aranges
                0x00000e90       0x38 examples/dfu/CMakeFiles/dfu_no_serial_nrf52832_xxAA_s132_6.0.0.dir/__/__/mesh/core/src/msg_cache.c.obj
 .debug_aranges
                0x00000ec8      0x110 examples/dfu/CMakeFiles/dfu_no_serial_nrf52832_xxAA_s132_6.0.0.dir/__/__/mesh/core/src/transport.c.obj
 .debug_aranges
                0x00000fd8       0x30 examples/dfu/CMakeFiles/dfu_no_serial_nrf52832_xxAA_s132_6.0.0.dir/__/__/mesh/core/src/event.c.obj
 .debug_aranges
                0x00001008       0x68 examples/dfu/CMakeFiles/dfu_no_serial_nrf52832_xxAA_s132_6.0.0.dir/__/__/mesh/core/src/packet_buffer.c.obj
 .debug_aranges
                0x00001070       0xc8 examples/dfu/CMakeFiles/dfu_no_serial_nrf52832_xxAA_s132_6.0.0.dir/__/__/mesh/core/src/flash_manager_defrag.c.obj
 .debug_aranges
                0x00001138       0x60 examples/dfu/CMakeFiles/dfu_no_serial_nrf52832_xxAA_s132_6.0.0.dir/__/__/mesh/core/src/fifo.c.obj
 .debug_aranges
                0x00001198       0x30 examples/dfu/CMakeFiles/dfu_no_serial_nrf52832_xxAA_s132_6.0.0.dir/__/__/mesh/core/src/nrf_flash.c.obj
 .debug_aranges
                0x000011c8       0x48 examples/dfu/CMakeFiles/dfu_no_serial_nrf52832_xxAA_s132_6.0.0.dir/__/__/mesh/core/src/packet_mgr.c.obj
 .debug_aranges
                0x00001210       0xd0 examples/dfu/CMakeFiles/dfu_no_serial_nrf52832_xxAA_s132_6.0.0.dir/__/__/mesh/core/src/net_state.c.obj
 .debug_aranges
                0x000012e0       0x60 examples/dfu/CMakeFiles/dfu_no_serial_nrf52832_xxAA_s132_6.0.0.dir/__/__/mesh/core/src/mesh_flash.c.obj
 .debug_aranges
                0x00001340       0x30 examples/dfu/CMakeFiles/dfu_no_serial_nrf52832_xxAA_s132_6.0.0.dir/__/__/mesh/core/src/nrf_mesh_utils.c.obj
 .debug_aranges
                0x00001370       0x90 examples/dfu/CMakeFiles/dfu_no_serial_nrf52832_xxAA_s132_6.0.0.dir/__/__/mesh/core/src/nrf_mesh.c.obj
 .debug_aranges
                0x00001400       0x38 examples/dfu/CMakeFiles/dfu_no_serial_nrf52832_xxAA_s132_6.0.0.dir/__/__/mesh/core/src/queue.c.obj
 .debug_aranges
                0x00001438       0x38 examples/dfu/CMakeFiles/dfu_no_serial_nrf52832_xxAA_s132_6.0.0.dir/__/__/mesh/core/src/hal.c.obj
 .debug_aranges
                0x00001470       0x38 examples/dfu/CMakeFiles/dfu_no_serial_nrf52832_xxAA_s132_6.0.0.dir/__/__/mesh/core/src/aes_cmac.c.obj
 .debug_aranges
                0x000014a8       0x68 examples/dfu/CMakeFiles/dfu_no_serial_nrf52832_xxAA_s132_6.0.0.dir/__/__/mesh/core/src/timer_scheduler.c.obj
 .debug_aranges
                0x00001510       0x60 examples/dfu/CMakeFiles/dfu_no_serial_nrf52832_xxAA_s132_6.0.0.dir/__/__/mesh/core/src/timer.c.obj
 .debug_aranges
                0x00001570       0x30 examples/dfu/CMakeFiles/dfu_no_serial_nrf52832_xxAA_s132_6.0.0.dir/__/__/mesh/core/src/ticker.c.obj
 .debug_aranges
                0x000015a0       0x40 examples/dfu/CMakeFiles/dfu_no_serial_nrf52832_xxAA_s132_6.0.0.dir/__/__/mesh/core/src/rand.c.obj
 .debug_aranges
                0x000015e0       0x28 examples/dfu/CMakeFiles/dfu_no_serial_nrf52832_xxAA_s132_6.0.0.dir/__/__/mesh/core/src/nrf_mesh_opt.c.obj
 .debug_aranges
                0x00001608       0xb8 examples/dfu/CMakeFiles/dfu_no_serial_nrf52832_xxAA_s132_6.0.0.dir/__/__/mesh/core/src/timeslot.c.obj
 .debug_aranges
                0x000016c0       0x98 examples/dfu/CMakeFiles/dfu_no_serial_nrf52832_xxAA_s132_6.0.0.dir/__/__/mesh/core/src/bearer_event.c.obj
 .debug_aranges
                0x00001758       0x70 examples/dfu/CMakeFiles/dfu_no_serial_nrf52832_xxAA_s132_6.0.0.dir/__/__/mesh/core/src/enc.c.obj
 .debug_aranges
                0x000017c8       0x58 examples/dfu/CMakeFiles/dfu_no_serial_nrf52832_xxAA_s132_6.0.0.dir/__/__/mesh/core/src/network.c.obj
 .debug_aranges
                0x00001820       0x68 examples/dfu/CMakeFiles/dfu_no_serial_nrf52832_xxAA_s132_6.0.0.dir/__/__/mesh/core/src/net_packet.c.obj
 .debug_aranges
                0x00001888       0x48 examples/dfu/CMakeFiles/dfu_no_serial_nrf52832_xxAA_s132_6.0.0.dir/__/__/mesh/core/src/msqueue.c.obj
 .debug_aranges
                0x000018d0       0x40 examples/dfu/CMakeFiles/dfu_no_serial_nrf52832_xxAA_s132_6.0.0.dir/__/__/mesh/core/src/nrf_mesh_keygen.c.obj
 .debug_aranges
                0x00001910       0x48 examples/dfu/CMakeFiles/dfu_no_serial_nrf52832_xxAA_s132_6.0.0.dir/__/__/mesh/core/src/list.c.obj
 .debug_aranges
                0x00001958       0x48 examples/dfu/CMakeFiles/dfu_no_serial_nrf52832_xxAA_s132_6.0.0.dir/__/__/mesh/core/src/log.c.obj
 .debug_aranges
                0x000019a0       0xf8 examples/dfu/CMakeFiles/dfu_no_serial_nrf52832_xxAA_s132_6.0.0.dir/__/__/mesh/core/src/flash_manager.c.obj
 .debug_aranges
                0x00001a98       0x50 examples/dfu/CMakeFiles/dfu_no_serial_nrf52832_xxAA_s132_6.0.0.dir/__/__/mesh/core/src/ccm_soft.c.obj
 .debug_aranges
                0x00001ae8       0x40 examples/dfu/CMakeFiles/dfu_no_serial_nrf52832_xxAA_s132_6.0.0.dir/__/__/mesh/core/src/replay_cache.c.obj
 .debug_aranges
                0x00001b28       0x28 examples/dfu/CMakeFiles/dfu_no_serial_nrf52832_xxAA_s132_6.0.0.dir/__/__/mesh/core/src/beacon.c.obj
 .debug_aranges
                0x00001b50       0x20 examples/dfu/CMakeFiles/dfu_no_serial_nrf52832_xxAA_s132_6.0.0.dir/__/__/mesh/core/src/flash_manager_internal.c.obj
 .debug_aranges
                0x00001b70       0x58 examples/dfu/CMakeFiles/dfu_no_serial_nrf52832_xxAA_s132_6.0.0.dir/__/__/mesh/core/src/core_tx.c.obj
 .debug_aranges
                0x00001bc8       0x70 examples/dfu/CMakeFiles/dfu_no_serial_nrf52832_xxAA_s132_6.0.0.dir/__/__/mesh/core/src/heartbeat.c.obj
 .debug_aranges
                0x00001c38       0x68 examples/dfu/CMakeFiles/dfu_no_serial_nrf52832_xxAA_s132_6.0.0.dir/__/__/mesh/core/src/net_beacon.c.obj
 .debug_aranges
                0x00001ca0       0x68 examples/dfu/CMakeFiles/dfu_no_serial_nrf52832_xxAA_s132_6.0.0.dir/__/__/mesh/core/src/core_tx_adv.c.obj
 .debug_aranges
                0x00001d08       0x30 examples/dfu/CMakeFiles/dfu_no_serial_nrf52832_xxAA_s132_6.0.0.dir/__/__/mesh/bearer/src/ad_listener.c.obj
 .debug_aranges
                0x00001d38       0x58 examples/dfu/CMakeFiles/dfu_no_serial_nrf52832_xxAA_s132_6.0.0.dir/__/__/mesh/bearer/src/ad_type_filter.c.obj
 .debug_aranges
                0x00001d90       0xb0 examples/dfu/CMakeFiles/dfu_no_serial_nrf52832_xxAA_s132_6.0.0.dir/__/__/mesh/bearer/src/advertiser.c.obj
 .debug_aranges
                0x00001e40       0x70 examples/dfu/CMakeFiles/dfu_no_serial_nrf52832_xxAA_s132_6.0.0.dir/__/__/mesh/bearer/src/bearer_handler.c.obj
 .debug_aranges
                0x00001eb0       0x30 examples/dfu/CMakeFiles/dfu_no_serial_nrf52832_xxAA_s132_6.0.0.dir/__/__/mesh/bearer/src/broadcast.c.obj
 .debug_aranges
                0x00001ee0       0x38 examples/dfu/CMakeFiles/dfu_no_serial_nrf52832_xxAA_s132_6.0.0.dir/__/__/mesh/bearer/src/filter_engine.c.obj
 .debug_aranges
                0x00001f18       0x40 examples/dfu/CMakeFiles/dfu_no_serial_nrf52832_xxAA_s132_6.0.0.dir/__/__/mesh/bearer/src/radio_config.c.obj
 .debug_aranges
                0x00001f58       0xe0 examples/dfu/CMakeFiles/dfu_no_serial_nrf52832_xxAA_s132_6.0.0.dir/__/__/mesh/bearer/src/scanner.c.obj
 .debug_aranges
                0x00002038       0x38 examples/dfu/CMakeFiles/dfu_no_serial_nrf52832_xxAA_s132_6.0.0.dir/C_/ver/mod/nRF5_SDK_15.0.0_a53641a/modules/nrfx/mdk/system_nrf52.c.obj
 .debug_aranges
                0x00002070       0x28 examples/dfu/CMakeFiles/dfu_no_serial_nrf52832_xxAA_s132_6.0.0.dir/C_/ver/mod/nRF5_SDK_15.0.0_a53641a/components/libraries/util/app_error.c.obj
 .debug_aranges
                0x00002098       0x20 examples/dfu/CMakeFiles/dfu_no_serial_nrf52832_xxAA_s132_6.0.0.dir/C_/ver/mod/nRF5_SDK_15.0.0_a53641a/components/libraries/util/app_error_handler_gcc.c.obj
 .debug_aranges
                0x000020b8       0xd8 external/rtt/librtt_nrf52832_xxAA.a(SEGGER_RTT.c.obj)
 .debug_aranges
                0x00002190       0x38 external/rtt/librtt_nrf52832_xxAA.a(SEGGER_RTT_printf.c.obj)
 .debug_aranges
                0x000021c8      0x1a8 external/micro-ecc/libuECC_nrf52832_xxAA.a(uECC.c.obj)

.debug_ranges   0x00000000     0x5d08
 .debug_ranges  0x00000000      0x198 examples/dfu/CMakeFiles/dfu_no_serial_nrf52832_xxAA_s132_6.0.0.dir/src/main.c.obj
 .debug_ranges  0x00000198       0x70 examples/dfu/CMakeFiles/dfu_no_serial_nrf52832_xxAA_s132_6.0.0.dir/__/__/mesh/stack/src/mesh_stack.c.obj
 .debug_ranges  0x00000208       0xb0 examples/dfu/CMakeFiles/dfu_no_serial_nrf52832_xxAA_s132_6.0.0.dir/__/common/src/mesh_softdevice_init.c.obj
 .debug_ranges  0x000002b8       0x50 examples/dfu/CMakeFiles/dfu_no_serial_nrf52832_xxAA_s132_6.0.0.dir/__/common/src/mesh_provisionee.c.obj
 .debug_ranges  0x00000308       0xe0 examples/dfu/CMakeFiles/dfu_no_serial_nrf52832_xxAA_s132_6.0.0.dir/__/common/src/simple_hal.c.obj
 .debug_ranges  0x000003e8      0x118 examples/dfu/CMakeFiles/dfu_no_serial_nrf52832_xxAA_s132_6.0.0.dir/__/__/mesh/access/src/access_publish.c.obj
 .debug_ranges  0x00000500      0x770 examples/dfu/CMakeFiles/dfu_no_serial_nrf52832_xxAA_s132_6.0.0.dir/__/__/mesh/access/src/access.c.obj
 .debug_ranges  0x00000c70      0x198 examples/dfu/CMakeFiles/dfu_no_serial_nrf52832_xxAA_s132_6.0.0.dir/__/__/mesh/access/src/access_reliable.c.obj
 .debug_ranges  0x00000e08      0x808 examples/dfu/CMakeFiles/dfu_no_serial_nrf52832_xxAA_s132_6.0.0.dir/__/__/mesh/access/src/device_state_manager.c.obj
 .debug_ranges  0x00001610       0xa8 examples/dfu/CMakeFiles/dfu_no_serial_nrf52832_xxAA_s132_6.0.0.dir/__/__/models/config/src/composition_data.c.obj
 .debug_ranges  0x000016b8      0x788 examples/dfu/CMakeFiles/dfu_no_serial_nrf52832_xxAA_s132_6.0.0.dir/__/__/models/config/src/config_server.c.obj
 .debug_ranges  0x00001e40       0x10 examples/dfu/CMakeFiles/dfu_no_serial_nrf52832_xxAA_s132_6.0.0.dir/__/__/models/config/src/packed_index_list.c.obj
 .debug_ranges  0x00001e50      0x260 examples/dfu/CMakeFiles/dfu_no_serial_nrf52832_xxAA_s132_6.0.0.dir/__/__/models/health/src/health_server.c.obj
 .debug_ranges  0x000020b0      0x100 examples/dfu/CMakeFiles/dfu_no_serial_nrf52832_xxAA_s132_6.0.0.dir/__/__/mesh/prov/src/prov_provisioner.c.obj
 .debug_ranges  0x000021b0      0x148 examples/dfu/CMakeFiles/dfu_no_serial_nrf52832_xxAA_s132_6.0.0.dir/__/__/mesh/prov/src/prov_provisionee.c.obj
 .debug_ranges  0x000022f8      0x130 examples/dfu/CMakeFiles/dfu_no_serial_nrf52832_xxAA_s132_6.0.0.dir/__/__/mesh/prov/src/nrf_mesh_prov.c.obj
 .debug_ranges  0x00002428       0x70 examples/dfu/CMakeFiles/dfu_no_serial_nrf52832_xxAA_s132_6.0.0.dir/__/__/mesh/prov/src/provisioning.c.obj
 .debug_ranges  0x00002498       0x40 examples/dfu/CMakeFiles/dfu_no_serial_nrf52832_xxAA_s132_6.0.0.dir/__/__/mesh/prov/src/prov_beacon.c.obj
 .debug_ranges  0x000024d8       0xa0 examples/dfu/CMakeFiles/dfu_no_serial_nrf52832_xxAA_s132_6.0.0.dir/__/__/mesh/prov/src/prov_utils.c.obj
 .debug_ranges  0x00002578      0x498 examples/dfu/CMakeFiles/dfu_no_serial_nrf52832_xxAA_s132_6.0.0.dir/__/__/mesh/prov/src/prov_bearer_adv.c.obj
 .debug_ranges  0x00002a10      0x450 examples/dfu/CMakeFiles/dfu_no_serial_nrf52832_xxAA_s132_6.0.0.dir/__/__/mesh/dfu/src/nrf_mesh_dfu.c.obj
 .debug_ranges  0x00002e60       0xb8 examples/dfu/CMakeFiles/dfu_no_serial_nrf52832_xxAA_s132_6.0.0.dir/__/common/src/app_error_weak.c.obj
 .debug_ranges  0x00002f18       0x10 examples/dfu/CMakeFiles/dfu_no_serial_nrf52832_xxAA_s132_6.0.0.dir/__/common/src/assertion_handler_weak.c.obj
 .debug_ranges  0x00002f28       0x20 examples/dfu/CMakeFiles/dfu_no_serial_nrf52832_xxAA_s132_6.0.0.dir/__/__/mesh/core/src/nrf_mesh_configure.c.obj
 .debug_ranges  0x00002f48       0x18 examples/dfu/CMakeFiles/dfu_no_serial_nrf52832_xxAA_s132_6.0.0.dir/__/__/mesh/core/src/aes.c.obj
 .debug_ranges  0x00002f60       0x48 examples/dfu/CMakeFiles/dfu_no_serial_nrf52832_xxAA_s132_6.0.0.dir/__/__/mesh/core/src/msg_cache.c.obj
 .debug_ranges  0x00002fa8      0x5d0 examples/dfu/CMakeFiles/dfu_no_serial_nrf52832_xxAA_s132_6.0.0.dir/__/__/mesh/core/src/transport.c.obj
 .debug_ranges  0x00003578       0x20 examples/dfu/CMakeFiles/dfu_no_serial_nrf52832_xxAA_s132_6.0.0.dir/__/__/mesh/core/src/event.c.obj
 .debug_ranges  0x00003598      0x128 examples/dfu/CMakeFiles/dfu_no_serial_nrf52832_xxAA_s132_6.0.0.dir/__/__/mesh/core/src/packet_buffer.c.obj
 .debug_ranges  0x000036c0      0x230 examples/dfu/CMakeFiles/dfu_no_serial_nrf52832_xxAA_s132_6.0.0.dir/__/__/mesh/core/src/flash_manager_defrag.c.obj
 .debug_ranges  0x000038f0       0x68 examples/dfu/CMakeFiles/dfu_no_serial_nrf52832_xxAA_s132_6.0.0.dir/__/__/mesh/core/src/fifo.c.obj
 .debug_ranges  0x00003958       0x38 examples/dfu/CMakeFiles/dfu_no_serial_nrf52832_xxAA_s132_6.0.0.dir/__/__/mesh/core/src/nrf_flash.c.obj
 .debug_ranges  0x00003990       0xe0 examples/dfu/CMakeFiles/dfu_no_serial_nrf52832_xxAA_s132_6.0.0.dir/__/__/mesh/core/src/packet_mgr.c.obj
 .debug_ranges  0x00003a70      0x1f8 examples/dfu/CMakeFiles/dfu_no_serial_nrf52832_xxAA_s132_6.0.0.dir/__/__/mesh/core/src/net_state.c.obj
 .debug_ranges  0x00003c68      0x1c8 examples/dfu/CMakeFiles/dfu_no_serial_nrf52832_xxAA_s132_6.0.0.dir/__/__/mesh/core/src/mesh_flash.c.obj
 .debug_ranges  0x00003e30       0x20 examples/dfu/CMakeFiles/dfu_no_serial_nrf52832_xxAA_s132_6.0.0.dir/__/__/mesh/core/src/nrf_mesh_utils.c.obj
 .debug_ranges  0x00003e50       0xe0 examples/dfu/CMakeFiles/dfu_no_serial_nrf52832_xxAA_s132_6.0.0.dir/__/__/mesh/core/src/nrf_mesh.c.obj
 .debug_ranges  0x00003f30       0x28 examples/dfu/CMakeFiles/dfu_no_serial_nrf52832_xxAA_s132_6.0.0.dir/__/__/mesh/core/src/queue.c.obj
 .debug_ranges  0x00003f58       0x28 examples/dfu/CMakeFiles/dfu_no_serial_nrf52832_xxAA_s132_6.0.0.dir/__/__/mesh/core/src/hal.c.obj
 .debug_ranges  0x00003f80       0x98 examples/dfu/CMakeFiles/dfu_no_serial_nrf52832_xxAA_s132_6.0.0.dir/__/__/mesh/core/src/aes_cmac.c.obj
 .debug_ranges  0x00004018       0xf0 examples/dfu/CMakeFiles/dfu_no_serial_nrf52832_xxAA_s132_6.0.0.dir/__/__/mesh/core/src/timer_scheduler.c.obj
 .debug_ranges  0x00004108       0xd8 examples/dfu/CMakeFiles/dfu_no_serial_nrf52832_xxAA_s132_6.0.0.dir/__/__/mesh/core/src/timer.c.obj
 .debug_ranges  0x000041e0       0x20 examples/dfu/CMakeFiles/dfu_no_serial_nrf52832_xxAA_s132_6.0.0.dir/__/__/mesh/core/src/ticker.c.obj
 .debug_ranges  0x00004200       0x30 examples/dfu/CMakeFiles/dfu_no_serial_nrf52832_xxAA_s132_6.0.0.dir/__/__/mesh/core/src/rand.c.obj
 .debug_ranges  0x00004230       0x18 examples/dfu/CMakeFiles/dfu_no_serial_nrf52832_xxAA_s132_6.0.0.dir/__/__/mesh/core/src/nrf_mesh_opt.c.obj
 .debug_ranges  0x00004248      0x168 examples/dfu/CMakeFiles/dfu_no_serial_nrf52832_xxAA_s132_6.0.0.dir/__/__/mesh/core/src/timeslot.c.obj
 .debug_ranges  0x000043b0       0xf8 examples/dfu/CMakeFiles/dfu_no_serial_nrf52832_xxAA_s132_6.0.0.dir/__/__/mesh/core/src/bearer_event.c.obj
 .debug_ranges  0x000044a8       0xb0 examples/dfu/CMakeFiles/dfu_no_serial_nrf52832_xxAA_s132_6.0.0.dir/__/__/mesh/core/src/enc.c.obj
 .debug_ranges  0x00004558       0xe8 examples/dfu/CMakeFiles/dfu_no_serial_nrf52832_xxAA_s132_6.0.0.dir/__/__/mesh/core/src/network.c.obj
 .debug_ranges  0x00004640      0x160 examples/dfu/CMakeFiles/dfu_no_serial_nrf52832_xxAA_s132_6.0.0.dir/__/__/mesh/core/src/net_packet.c.obj
 .debug_ranges  0x000047a0       0x50 examples/dfu/CMakeFiles/dfu_no_serial_nrf52832_xxAA_s132_6.0.0.dir/__/__/mesh/core/src/msqueue.c.obj
 .debug_ranges  0x000047f0       0x30 examples/dfu/CMakeFiles/dfu_no_serial_nrf52832_xxAA_s132_6.0.0.dir/__/__/mesh/core/src/nrf_mesh_keygen.c.obj
 .debug_ranges  0x00004820       0x78 examples/dfu/CMakeFiles/dfu_no_serial_nrf52832_xxAA_s132_6.0.0.dir/__/__/mesh/core/src/list.c.obj
 .debug_ranges  0x00004898       0x38 examples/dfu/CMakeFiles/dfu_no_serial_nrf52832_xxAA_s132_6.0.0.dir/__/__/mesh/core/src/log.c.obj
 .debug_ranges  0x000048d0      0x388 examples/dfu/CMakeFiles/dfu_no_serial_nrf52832_xxAA_s132_6.0.0.dir/__/__/mesh/core/src/flash_manager.c.obj
 .debug_ranges  0x00004c58       0x40 examples/dfu/CMakeFiles/dfu_no_serial_nrf52832_xxAA_s132_6.0.0.dir/__/__/mesh/core/src/ccm_soft.c.obj
 .debug_ranges  0x00004c98       0x30 examples/dfu/CMakeFiles/dfu_no_serial_nrf52832_xxAA_s132_6.0.0.dir/__/__/mesh/core/src/replay_cache.c.obj
 .debug_ranges  0x00004cc8       0x90 examples/dfu/CMakeFiles/dfu_no_serial_nrf52832_xxAA_s132_6.0.0.dir/__/__/mesh/core/src/beacon.c.obj
 .debug_ranges  0x00004d58       0x10 examples/dfu/CMakeFiles/dfu_no_serial_nrf52832_xxAA_s132_6.0.0.dir/__/__/mesh/core/src/flash_manager_internal.c.obj
 .debug_ranges  0x00004d68       0xf8 examples/dfu/CMakeFiles/dfu_no_serial_nrf52832_xxAA_s132_6.0.0.dir/__/__/mesh/core/src/core_tx.c.obj
 .debug_ranges  0x00004e60       0xa8 examples/dfu/CMakeFiles/dfu_no_serial_nrf52832_xxAA_s132_6.0.0.dir/__/__/mesh/core/src/heartbeat.c.obj
 .debug_ranges  0x00004f08      0x170 examples/dfu/CMakeFiles/dfu_no_serial_nrf52832_xxAA_s132_6.0.0.dir/__/__/mesh/core/src/net_beacon.c.obj
 .debug_ranges  0x00005078       0x58 examples/dfu/CMakeFiles/dfu_no_serial_nrf52832_xxAA_s132_6.0.0.dir/__/__/mesh/core/src/core_tx_adv.c.obj
 .debug_ranges  0x000050d0       0xf8 examples/dfu/CMakeFiles/dfu_no_serial_nrf52832_xxAA_s132_6.0.0.dir/__/__/mesh/bearer/src/ad_listener.c.obj
 .debug_ranges  0x000051c8       0xd0 examples/dfu/CMakeFiles/dfu_no_serial_nrf52832_xxAA_s132_6.0.0.dir/__/__/mesh/bearer/src/ad_type_filter.c.obj
 .debug_ranges  0x00005298      0x240 examples/dfu/CMakeFiles/dfu_no_serial_nrf52832_xxAA_s132_6.0.0.dir/__/__/mesh/bearer/src/advertiser.c.obj
 .debug_ranges  0x000054d8       0xb0 examples/dfu/CMakeFiles/dfu_no_serial_nrf52832_xxAA_s132_6.0.0.dir/__/__/mesh/bearer/src/bearer_handler.c.obj
 .debug_ranges  0x00005588       0xa8 examples/dfu/CMakeFiles/dfu_no_serial_nrf52832_xxAA_s132_6.0.0.dir/__/__/mesh/bearer/src/broadcast.c.obj
 .debug_ranges  0x00005630       0x48 examples/dfu/CMakeFiles/dfu_no_serial_nrf52832_xxAA_s132_6.0.0.dir/__/__/mesh/bearer/src/filter_engine.c.obj
 .debug_ranges  0x00005678       0x48 examples/dfu/CMakeFiles/dfu_no_serial_nrf52832_xxAA_s132_6.0.0.dir/__/__/mesh/bearer/src/radio_config.c.obj
 .debug_ranges  0x000056c0      0x198 examples/dfu/CMakeFiles/dfu_no_serial_nrf52832_xxAA_s132_6.0.0.dir/__/__/mesh/bearer/src/scanner.c.obj
 .debug_ranges  0x00005858       0x28 examples/dfu/CMakeFiles/dfu_no_serial_nrf52832_xxAA_s132_6.0.0.dir/C_/ver/mod/nRF5_SDK_15.0.0_a53641a/modules/nrfx/mdk/system_nrf52.c.obj
 .debug_ranges  0x00005880       0x18 examples/dfu/CMakeFiles/dfu_no_serial_nrf52832_xxAA_s132_6.0.0.dir/C_/ver/mod/nRF5_SDK_15.0.0_a53641a/components/libraries/util/app_error.c.obj
 .debug_ranges  0x00005898       0x10 examples/dfu/CMakeFiles/dfu_no_serial_nrf52832_xxAA_s132_6.0.0.dir/C_/ver/mod/nRF5_SDK_15.0.0_a53641a/components/libraries/util/app_error_handler_gcc.c.obj
 .debug_ranges  0x000058a8      0x130 external/rtt/librtt_nrf52832_xxAA.a(SEGGER_RTT.c.obj)
 .debug_ranges  0x000059d8       0x48 external/rtt/librtt_nrf52832_xxAA.a(SEGGER_RTT_printf.c.obj)
 .debug_ranges  0x00005a20      0x2e8 external/micro-ecc/libuECC_nrf52832_xxAA.a(uECC.c.obj)

.debug_line     0x00000000    0x17da6
 .debug_line    0x00000000      0x61f examples/dfu/CMakeFiles/dfu_no_serial_nrf52832_xxAA_s132_6.0.0.dir/src/main.c.obj
 .debug_line    0x0000061f      0x4a8 examples/dfu/CMakeFiles/dfu_no_serial_nrf52832_xxAA_s132_6.0.0.dir/__/__/mesh/stack/src/mesh_stack.c.obj
 .debug_line    0x00000ac7      0x3e6 examples/dfu/CMakeFiles/dfu_no_serial_nrf52832_xxAA_s132_6.0.0.dir/__/common/src/mesh_softdevice_init.c.obj
 .debug_line    0x00000ead      0x4f6 examples/dfu/CMakeFiles/dfu_no_serial_nrf52832_xxAA_s132_6.0.0.dir/__/common/src/mesh_provisionee.c.obj
 .debug_line    0x000013a3      0x496 examples/dfu/CMakeFiles/dfu_no_serial_nrf52832_xxAA_s132_6.0.0.dir/__/common/src/simple_hal.c.obj
 .debug_line    0x00001839      0x41a examples/dfu/CMakeFiles/dfu_no_serial_nrf52832_xxAA_s132_6.0.0.dir/__/__/mesh/access/src/access_publish.c.obj
 .debug_line    0x00001c53      0xef5 examples/dfu/CMakeFiles/dfu_no_serial_nrf52832_xxAA_s132_6.0.0.dir/__/__/mesh/access/src/access.c.obj
 .debug_line    0x00002b48      0x528 examples/dfu/CMakeFiles/dfu_no_serial_nrf52832_xxAA_s132_6.0.0.dir/__/__/mesh/access/src/access_reliable.c.obj
 .debug_line    0x00003070     0x13e6 examples/dfu/CMakeFiles/dfu_no_serial_nrf52832_xxAA_s132_6.0.0.dir/__/__/mesh/access/src/device_state_manager.c.obj
 .debug_line    0x00004456      0x2f6 examples/dfu/CMakeFiles/dfu_no_serial_nrf52832_xxAA_s132_6.0.0.dir/__/__/models/config/src/composition_data.c.obj
 .debug_line    0x0000474c     0x134f examples/dfu/CMakeFiles/dfu_no_serial_nrf52832_xxAA_s132_6.0.0.dir/__/__/models/config/src/config_server.c.obj
 .debug_line    0x00005a9b       0xef examples/dfu/CMakeFiles/dfu_no_serial_nrf52832_xxAA_s132_6.0.0.dir/__/__/models/config/src/packed_index_list.c.obj
 .debug_line    0x00005b8a      0x6a0 examples/dfu/CMakeFiles/dfu_no_serial_nrf52832_xxAA_s132_6.0.0.dir/__/__/models/health/src/health_server.c.obj
 .debug_line    0x0000622a      0x591 examples/dfu/CMakeFiles/dfu_no_serial_nrf52832_xxAA_s132_6.0.0.dir/__/__/mesh/prov/src/prov_provisioner.c.obj
 .debug_line    0x000067bb      0x62a examples/dfu/CMakeFiles/dfu_no_serial_nrf52832_xxAA_s132_6.0.0.dir/__/__/mesh/prov/src/prov_provisionee.c.obj
 .debug_line    0x00006de5      0x560 examples/dfu/CMakeFiles/dfu_no_serial_nrf52832_xxAA_s132_6.0.0.dir/__/__/mesh/prov/src/nrf_mesh_prov.c.obj
 .debug_line    0x00007345      0x3ba examples/dfu/CMakeFiles/dfu_no_serial_nrf52832_xxAA_s132_6.0.0.dir/__/__/mesh/prov/src/provisioning.c.obj
 .debug_line    0x000076ff      0x460 examples/dfu/CMakeFiles/dfu_no_serial_nrf52832_xxAA_s132_6.0.0.dir/__/__/mesh/prov/src/prov_beacon.c.obj
 .debug_line    0x00007b5f      0x49d examples/dfu/CMakeFiles/dfu_no_serial_nrf52832_xxAA_s132_6.0.0.dir/__/__/mesh/prov/src/prov_utils.c.obj
 .debug_line    0x00007ffc      0xb27 examples/dfu/CMakeFiles/dfu_no_serial_nrf52832_xxAA_s132_6.0.0.dir/__/__/mesh/prov/src/prov_bearer_adv.c.obj
 .debug_line    0x00008b23      0xddd examples/dfu/CMakeFiles/dfu_no_serial_nrf52832_xxAA_s132_6.0.0.dir/__/__/mesh/dfu/src/nrf_mesh_dfu.c.obj
 .debug_line    0x00009900      0x485 examples/dfu/CMakeFiles/dfu_no_serial_nrf52832_xxAA_s132_6.0.0.dir/__/common/src/app_error_weak.c.obj
 .debug_line    0x00009d85      0x23a examples/dfu/CMakeFiles/dfu_no_serial_nrf52832_xxAA_s132_6.0.0.dir/__/common/src/assertion_handler_weak.c.obj
 .debug_line    0x00009fbf      0x22b examples/dfu/CMakeFiles/dfu_no_serial_nrf52832_xxAA_s132_6.0.0.dir/__/__/mesh/core/src/nrf_mesh_configure.c.obj
 .debug_line    0x0000a1ea      0x259 examples/dfu/CMakeFiles/dfu_no_serial_nrf52832_xxAA_s132_6.0.0.dir/__/__/mesh/core/src/aes.c.obj
 .debug_line    0x0000a443      0x261 examples/dfu/CMakeFiles/dfu_no_serial_nrf52832_xxAA_s132_6.0.0.dir/__/__/mesh/core/src/msg_cache.c.obj
 .debug_line    0x0000a6a4      0xcc3 examples/dfu/CMakeFiles/dfu_no_serial_nrf52832_xxAA_s132_6.0.0.dir/__/__/mesh/core/src/transport.c.obj
 .debug_line    0x0000b367      0x2e9 examples/dfu/CMakeFiles/dfu_no_serial_nrf52832_xxAA_s132_6.0.0.dir/__/__/mesh/core/src/event.c.obj
 .debug_line    0x0000b650      0x4b5 examples/dfu/CMakeFiles/dfu_no_serial_nrf52832_xxAA_s132_6.0.0.dir/__/__/mesh/core/src/packet_buffer.c.obj
 .debug_line    0x0000bb05      0x6d7 examples/dfu/CMakeFiles/dfu_no_serial_nrf52832_xxAA_s132_6.0.0.dir/__/__/mesh/core/src/flash_manager_defrag.c.obj
 .debug_line    0x0000c1dc      0x378 examples/dfu/CMakeFiles/dfu_no_serial_nrf52832_xxAA_s132_6.0.0.dir/__/__/mesh/core/src/fifo.c.obj
 .debug_line    0x0000c554      0x23c examples/dfu/CMakeFiles/dfu_no_serial_nrf52832_xxAA_s132_6.0.0.dir/__/__/mesh/core/src/nrf_flash.c.obj
 .debug_line    0x0000c790      0x41d examples/dfu/CMakeFiles/dfu_no_serial_nrf52832_xxAA_s132_6.0.0.dir/__/__/mesh/core/src/packet_mgr.c.obj
 .debug_line    0x0000cbad      0x6bc examples/dfu/CMakeFiles/dfu_no_serial_nrf52832_xxAA_s132_6.0.0.dir/__/__/mesh/core/src/net_state.c.obj
 .debug_line    0x0000d269      0x514 examples/dfu/CMakeFiles/dfu_no_serial_nrf52832_xxAA_s132_6.0.0.dir/__/__/mesh/core/src/mesh_flash.c.obj
 .debug_line    0x0000d77d      0x255 examples/dfu/CMakeFiles/dfu_no_serial_nrf52832_xxAA_s132_6.0.0.dir/__/__/mesh/core/src/nrf_mesh_utils.c.obj
 .debug_line    0x0000d9d2      0x759 examples/dfu/CMakeFiles/dfu_no_serial_nrf52832_xxAA_s132_6.0.0.dir/__/__/mesh/core/src/nrf_mesh.c.obj
 .debug_line    0x0000e12b      0x28d examples/dfu/CMakeFiles/dfu_no_serial_nrf52832_xxAA_s132_6.0.0.dir/__/__/mesh/core/src/queue.c.obj
 .debug_line    0x0000e3b8      0x21f examples/dfu/CMakeFiles/dfu_no_serial_nrf52832_xxAA_s132_6.0.0.dir/__/__/mesh/core/src/hal.c.obj
 .debug_line    0x0000e5d7      0x2d2 examples/dfu/CMakeFiles/dfu_no_serial_nrf52832_xxAA_s132_6.0.0.dir/__/__/mesh/core/src/aes_cmac.c.obj
 .debug_line    0x0000e8a9      0x42b examples/dfu/CMakeFiles/dfu_no_serial_nrf52832_xxAA_s132_6.0.0.dir/__/__/mesh/core/src/timer_scheduler.c.obj
 .debug_line    0x0000ecd4      0x3ab examples/dfu/CMakeFiles/dfu_no_serial_nrf52832_xxAA_s132_6.0.0.dir/__/__/mesh/core/src/timer.c.obj
 .debug_line    0x0000f07f      0x124 examples/dfu/CMakeFiles/dfu_no_serial_nrf52832_xxAA_s132_6.0.0.dir/__/__/mesh/core/src/ticker.c.obj
 .debug_line    0x0000f1a3      0x278 examples/dfu/CMakeFiles/dfu_no_serial_nrf52832_xxAA_s132_6.0.0.dir/__/__/mesh/core/src/rand.c.obj
 .debug_line    0x0000f41b      0x263 examples/dfu/CMakeFiles/dfu_no_serial_nrf52832_xxAA_s132_6.0.0.dir/__/__/mesh/core/src/nrf_mesh_opt.c.obj
 .debug_line    0x0000f67e      0x55a examples/dfu/CMakeFiles/dfu_no_serial_nrf52832_xxAA_s132_6.0.0.dir/__/__/mesh/core/src/timeslot.c.obj
 .debug_line    0x0000fbd8      0x513 examples/dfu/CMakeFiles/dfu_no_serial_nrf52832_xxAA_s132_6.0.0.dir/__/__/mesh/core/src/bearer_event.c.obj
 .debug_line    0x000100eb      0x41f examples/dfu/CMakeFiles/dfu_no_serial_nrf52832_xxAA_s132_6.0.0.dir/__/__/mesh/core/src/enc.c.obj
 .debug_line    0x0001050a      0x532 examples/dfu/CMakeFiles/dfu_no_serial_nrf52832_xxAA_s132_6.0.0.dir/__/__/mesh/core/src/network.c.obj
 .debug_line    0x00010a3c      0x55a examples/dfu/CMakeFiles/dfu_no_serial_nrf52832_xxAA_s132_6.0.0.dir/__/__/mesh/core/src/net_packet.c.obj
 .debug_line    0x00010f96      0x2fc examples/dfu/CMakeFiles/dfu_no_serial_nrf52832_xxAA_s132_6.0.0.dir/__/__/mesh/core/src/msqueue.c.obj
 .debug_line    0x00011292      0x232 examples/dfu/CMakeFiles/dfu_no_serial_nrf52832_xxAA_s132_6.0.0.dir/__/__/mesh/core/src/nrf_mesh_keygen.c.obj
 .debug_line    0x000114c4      0x2dc examples/dfu/CMakeFiles/dfu_no_serial_nrf52832_xxAA_s132_6.0.0.dir/__/__/mesh/core/src/list.c.obj
 .debug_line    0x000117a0      0x281 examples/dfu/CMakeFiles/dfu_no_serial_nrf52832_xxAA_s132_6.0.0.dir/__/__/mesh/core/src/log.c.obj
 .debug_line    0x00011a21      0x902 examples/dfu/CMakeFiles/dfu_no_serial_nrf52832_xxAA_s132_6.0.0.dir/__/__/mesh/core/src/flash_manager.c.obj
 .debug_line    0x00012323      0x349 examples/dfu/CMakeFiles/dfu_no_serial_nrf52832_xxAA_s132_6.0.0.dir/__/__/mesh/core/src/ccm_soft.c.obj
 .debug_line    0x0001266c      0x1cd examples/dfu/CMakeFiles/dfu_no_serial_nrf52832_xxAA_s132_6.0.0.dir/__/__/mesh/core/src/replay_cache.c.obj
 .debug_line    0x00012839      0x490 examples/dfu/CMakeFiles/dfu_no_serial_nrf52832_xxAA_s132_6.0.0.dir/__/__/mesh/core/src/beacon.c.obj
 .debug_line    0x00012cc9      0x275 examples/dfu/CMakeFiles/dfu_no_serial_nrf52832_xxAA_s132_6.0.0.dir/__/__/mesh/core/src/flash_manager_internal.c.obj
 .debug_line    0x00012f3e      0x3a2 examples/dfu/CMakeFiles/dfu_no_serial_nrf52832_xxAA_s132_6.0.0.dir/__/__/mesh/core/src/core_tx.c.obj
 .debug_line    0x000132e0      0x5a9 examples/dfu/CMakeFiles/dfu_no_serial_nrf52832_xxAA_s132_6.0.0.dir/__/__/mesh/core/src/heartbeat.c.obj
 .debug_line    0x00013889      0x5fa examples/dfu/CMakeFiles/dfu_no_serial_nrf52832_xxAA_s132_6.0.0.dir/__/__/mesh/core/src/net_beacon.c.obj
 .debug_line    0x00013e83      0x4c2 examples/dfu/CMakeFiles/dfu_no_serial_nrf52832_xxAA_s132_6.0.0.dir/__/__/mesh/core/src/core_tx_adv.c.obj
 .debug_line    0x00014345      0x339 examples/dfu/CMakeFiles/dfu_no_serial_nrf52832_xxAA_s132_6.0.0.dir/__/__/mesh/bearer/src/ad_listener.c.obj
 .debug_line    0x0001467e      0x3ee examples/dfu/CMakeFiles/dfu_no_serial_nrf52832_xxAA_s132_6.0.0.dir/__/__/mesh/bearer/src/ad_type_filter.c.obj
 .debug_line    0x00014a6c      0x6d9 examples/dfu/CMakeFiles/dfu_no_serial_nrf52832_xxAA_s132_6.0.0.dir/__/__/mesh/bearer/src/advertiser.c.obj
 .debug_line    0x00015145      0x4a1 examples/dfu/CMakeFiles/dfu_no_serial_nrf52832_xxAA_s132_6.0.0.dir/__/__/mesh/bearer/src/bearer_handler.c.obj
 .debug_line    0x000155e6      0x35d examples/dfu/CMakeFiles/dfu_no_serial_nrf52832_xxAA_s132_6.0.0.dir/__/__/mesh/bearer/src/broadcast.c.obj
 .debug_line    0x00015943      0x32c examples/dfu/CMakeFiles/dfu_no_serial_nrf52832_xxAA_s132_6.0.0.dir/__/__/mesh/bearer/src/filter_engine.c.obj
 .debug_line    0x00015c6f      0x292 examples/dfu/CMakeFiles/dfu_no_serial_nrf52832_xxAA_s132_6.0.0.dir/__/__/mesh/bearer/src/radio_config.c.obj
 .debug_line    0x00015f01      0x688 examples/dfu/CMakeFiles/dfu_no_serial_nrf52832_xxAA_s132_6.0.0.dir/__/__/mesh/bearer/src/scanner.c.obj
 .debug_line    0x00016589      0x24f examples/dfu/CMakeFiles/dfu_no_serial_nrf52832_xxAA_s132_6.0.0.dir/C_/ver/mod/nRF5_SDK_15.0.0_a53641a/modules/nrfx/mdk/system_nrf52.c.obj
 .debug_line    0x000167d8      0x272 examples/dfu/CMakeFiles/dfu_no_serial_nrf52832_xxAA_s132_6.0.0.dir/C_/ver/mod/nRF5_SDK_15.0.0_a53641a/components/libraries/util/app_error.c.obj
 .debug_line    0x00016a4a      0x217 examples/dfu/CMakeFiles/dfu_no_serial_nrf52832_xxAA_s132_6.0.0.dir/C_/ver/mod/nRF5_SDK_15.0.0_a53641a/components/libraries/util/app_error_handler_gcc.c.obj
 .debug_line    0x00016c61      0x4c3 external/rtt/librtt_nrf52832_xxAA.a(SEGGER_RTT.c.obj)
 .debug_line    0x00017124      0x285 external/rtt/librtt_nrf52832_xxAA.a(SEGGER_RTT_printf.c.obj)
 .debug_line    0x000173a9      0x9fd external/micro-ecc/libuECC_nrf52832_xxAA.a(uECC.c.obj)

.debug_str      0x00000000    0x13eb1
 .debug_str     0x00000000     0x2b0f examples/dfu/CMakeFiles/dfu_no_serial_nrf52832_xxAA_s132_6.0.0.dir/src/main.c.obj
                               0x2f9f (size before relaxing)
 .debug_str     0x00002b0f      0x2d9 examples/dfu/CMakeFiles/dfu_no_serial_nrf52832_xxAA_s132_6.0.0.dir/__/__/mesh/stack/src/mesh_stack.c.obj
                               0x272e (size before relaxing)
 .debug_str     0x00002de8      0x317 examples/dfu/CMakeFiles/dfu_no_serial_nrf52832_xxAA_s132_6.0.0.dir/__/common/src/mesh_softdevice_init.c.obj
                               0x117c (size before relaxing)
 .debug_str     0x000030ff     0x181f examples/dfu/CMakeFiles/dfu_no_serial_nrf52832_xxAA_s132_6.0.0.dir/__/common/src/mesh_provisionee.c.obj
                               0x2441 (size before relaxing)
 .debug_str     0x0000491e      0x206 examples/dfu/CMakeFiles/dfu_no_serial_nrf52832_xxAA_s132_6.0.0.dir/__/common/src/simple_hal.c.obj
                                0xceb (size before relaxing)
 .debug_str     0x00004b24      0x365 examples/dfu/CMakeFiles/dfu_no_serial_nrf52832_xxAA_s132_6.0.0.dir/__/__/mesh/access/src/access_publish.c.obj
                                0xbcc (size before relaxing)
 .debug_str     0x00004e89     0x12fe examples/dfu/CMakeFiles/dfu_no_serial_nrf52832_xxAA_s132_6.0.0.dir/__/__/mesh/access/src/access.c.obj
                               0x2f65 (size before relaxing)
 .debug_str     0x00006187      0x213 examples/dfu/CMakeFiles/dfu_no_serial_nrf52832_xxAA_s132_6.0.0.dir/__/__/mesh/access/src/access_reliable.c.obj
                               0x1006 (size before relaxing)
 .debug_str     0x0000639a     0x1127 examples/dfu/CMakeFiles/dfu_no_serial_nrf52832_xxAA_s132_6.0.0.dir/__/__/mesh/access/src/device_state_manager.c.obj
                               0x3068 (size before relaxing)
 .debug_str     0x000074c1      0x198 examples/dfu/CMakeFiles/dfu_no_serial_nrf52832_xxAA_s132_6.0.0.dir/__/__/models/config/src/composition_data.c.obj
                                0x8dd (size before relaxing)
 .debug_str     0x00007659     0x23f8 examples/dfu/CMakeFiles/dfu_no_serial_nrf52832_xxAA_s132_6.0.0.dir/__/__/models/config/src/config_server.c.obj
                               0x4fe9 (size before relaxing)
 .debug_str     0x00009a51       0x69 examples/dfu/CMakeFiles/dfu_no_serial_nrf52832_xxAA_s132_6.0.0.dir/__/__/models/config/src/packed_index_list.c.obj
                                0x24d (size before relaxing)
 .debug_str     0x00009aba      0x5cd examples/dfu/CMakeFiles/dfu_no_serial_nrf52832_xxAA_s132_6.0.0.dir/__/__/models/health/src/health_server.c.obj
                               0x169f (size before relaxing)
 .debug_str     0x0000a087      0x55d examples/dfu/CMakeFiles/dfu_no_serial_nrf52832_xxAA_s132_6.0.0.dir/__/__/mesh/prov/src/prov_provisioner.c.obj
                               0x1f74 (size before relaxing)
 .debug_str     0x0000a5e4      0x28d examples/dfu/CMakeFiles/dfu_no_serial_nrf52832_xxAA_s132_6.0.0.dir/__/__/mesh/prov/src/prov_provisionee.c.obj
                               0x21e8 (size before relaxing)
 .debug_str     0x0000a871      0x1ce examples/dfu/CMakeFiles/dfu_no_serial_nrf52832_xxAA_s132_6.0.0.dir/__/__/mesh/prov/src/nrf_mesh_prov.c.obj
                               0x1dda (size before relaxing)
 .debug_str     0x0000aa3f       0xc3 examples/dfu/CMakeFiles/dfu_no_serial_nrf52832_xxAA_s132_6.0.0.dir/__/__/mesh/prov/src/provisioning.c.obj
                                0xf2b (size before relaxing)
 .debug_str     0x0000ab02      0x113 examples/dfu/CMakeFiles/dfu_no_serial_nrf52832_xxAA_s132_6.0.0.dir/__/__/mesh/prov/src/prov_beacon.c.obj
                               0x195c (size before relaxing)
 .debug_str     0x0000ac15      0x1e2 examples/dfu/CMakeFiles/dfu_no_serial_nrf52832_xxAA_s132_6.0.0.dir/__/__/mesh/prov/src/prov_utils.c.obj
                               0x1f04 (size before relaxing)
 .debug_str     0x0000adf7      0x53e examples/dfu/CMakeFiles/dfu_no_serial_nrf52832_xxAA_s132_6.0.0.dir/__/__/mesh/prov/src/prov_bearer_adv.c.obj
                               0x1bc0 (size before relaxing)
 .debug_str     0x0000b335     0x168e examples/dfu/CMakeFiles/dfu_no_serial_nrf52832_xxAA_s132_6.0.0.dir/__/__/mesh/dfu/src/nrf_mesh_dfu.c.obj
                               0x3715 (size before relaxing)
 .debug_str     0x0000c9c3       0x97 examples/dfu/CMakeFiles/dfu_no_serial_nrf52832_xxAA_s132_6.0.0.dir/__/common/src/app_error_weak.c.obj
                                0x85d (size before relaxing)
 .debug_str     0x0000ca5a       0x30 examples/dfu/CMakeFiles/dfu_no_serial_nrf52832_xxAA_s132_6.0.0.dir/__/common/src/assertion_handler_weak.c.obj
                                0x672 (size before relaxing)
 .debug_str     0x0000ca8a       0x75 examples/dfu/CMakeFiles/dfu_no_serial_nrf52832_xxAA_s132_6.0.0.dir/__/__/mesh/core/src/nrf_mesh_configure.c.obj
                                0x77e (size before relaxing)
 .debug_str     0x0000caff       0xc1 examples/dfu/CMakeFiles/dfu_no_serial_nrf52832_xxAA_s132_6.0.0.dir/__/__/mesh/core/src/aes.c.obj
                                0xa89 (size before relaxing)
 .debug_str     0x0000cbc0       0xbb examples/dfu/CMakeFiles/dfu_no_serial_nrf52832_xxAA_s132_6.0.0.dir/__/__/mesh/core/src/msg_cache.c.obj
                                0x6b9 (size before relaxing)
 .debug_str     0x0000cc7b     0x1188 examples/dfu/CMakeFiles/dfu_no_serial_nrf52832_xxAA_s132_6.0.0.dir/__/__/mesh/core/src/transport.c.obj
                               0x3106 (size before relaxing)
 .debug_str     0x0000de03       0x82 examples/dfu/CMakeFiles/dfu_no_serial_nrf52832_xxAA_s132_6.0.0.dir/__/__/mesh/core/src/event.c.obj
                               0x16b3 (size before relaxing)
 .debug_str     0x0000de85      0x305 examples/dfu/CMakeFiles/dfu_no_serial_nrf52832_xxAA_s132_6.0.0.dir/__/__/mesh/core/src/packet_buffer.c.obj
                                0xaac (size before relaxing)
 .debug_str     0x0000e18a      0x49f examples/dfu/CMakeFiles/dfu_no_serial_nrf52832_xxAA_s132_6.0.0.dir/__/__/mesh/core/src/flash_manager_defrag.c.obj
                               0x1104 (size before relaxing)
 .debug_str     0x0000e629       0x9e examples/dfu/CMakeFiles/dfu_no_serial_nrf52832_xxAA_s132_6.0.0.dir/__/__/mesh/core/src/fifo.c.obj
                                0x6db (size before relaxing)
 .debug_str     0x0000e6c7       0xaa examples/dfu/CMakeFiles/dfu_no_serial_nrf52832_xxAA_s132_6.0.0.dir/__/__/mesh/core/src/nrf_flash.c.obj
                                0x6bb (size before relaxing)
 .debug_str     0x0000e771      0x276 examples/dfu/CMakeFiles/dfu_no_serial_nrf52832_xxAA_s132_6.0.0.dir/__/__/mesh/core/src/packet_mgr.c.obj
                                0x9a5 (size before relaxing)
 .debug_str     0x0000e9e7      0x3cf examples/dfu/CMakeFiles/dfu_no_serial_nrf52832_xxAA_s132_6.0.0.dir/__/__/mesh/core/src/net_state.c.obj
                               0x2148 (size before relaxing)
 .debug_str     0x0000edb6      0x357 examples/dfu/CMakeFiles/dfu_no_serial_nrf52832_xxAA_s132_6.0.0.dir/__/__/mesh/core/src/mesh_flash.c.obj
                                0xcdc (size before relaxing)
 .debug_str     0x0000f10d       0x8b examples/dfu/CMakeFiles/dfu_no_serial_nrf52832_xxAA_s132_6.0.0.dir/__/__/mesh/core/src/nrf_mesh_utils.c.obj
                                0x751 (size before relaxing)
 .debug_str     0x0000f198      0x46a examples/dfu/CMakeFiles/dfu_no_serial_nrf52832_xxAA_s132_6.0.0.dir/__/__/mesh/core/src/nrf_mesh.c.obj
                               0x2137 (size before relaxing)
 .debug_str     0x0000f602       0x5b examples/dfu/CMakeFiles/dfu_no_serial_nrf52832_xxAA_s132_6.0.0.dir/__/__/mesh/core/src/queue.c.obj
                                0x683 (size before relaxing)
 .debug_str     0x0000f65d       0xb5 examples/dfu/CMakeFiles/dfu_no_serial_nrf52832_xxAA_s132_6.0.0.dir/__/__/mesh/core/src/hal.c.obj
                                0x749 (size before relaxing)
 .debug_str     0x0000f712       0xd0 examples/dfu/CMakeFiles/dfu_no_serial_nrf52832_xxAA_s132_6.0.0.dir/__/__/mesh/core/src/aes_cmac.c.obj
                                0x715 (size before relaxing)
 .debug_str     0x0000f7e2      0x13d examples/dfu/CMakeFiles/dfu_no_serial_nrf52832_xxAA_s132_6.0.0.dir/__/__/mesh/core/src/timer_scheduler.c.obj
                                0x934 (size before relaxing)
 .debug_str     0x0000f91f      0x22c examples/dfu/CMakeFiles/dfu_no_serial_nrf52832_xxAA_s132_6.0.0.dir/__/__/mesh/core/src/timer.c.obj
                                0x869 (size before relaxing)
 .debug_str     0x0000fb4b       0x3c examples/dfu/CMakeFiles/dfu_no_serial_nrf52832_xxAA_s132_6.0.0.dir/__/__/mesh/core/src/ticker.c.obj
                                0x34c (size before relaxing)
 .debug_str     0x0000fb87       0x88 examples/dfu/CMakeFiles/dfu_no_serial_nrf52832_xxAA_s132_6.0.0.dir/__/__/mesh/core/src/rand.c.obj
                                0x6dd (size before relaxing)
 .debug_str     0x0000fc0f       0x40 examples/dfu/CMakeFiles/dfu_no_serial_nrf52832_xxAA_s132_6.0.0.dir/__/__/mesh/core/src/nrf_mesh_opt.c.obj
                                0x8f0 (size before relaxing)
 .debug_str     0x0000fc4f      0x8af examples/dfu/CMakeFiles/dfu_no_serial_nrf52832_xxAA_s132_6.0.0.dir/__/__/mesh/core/src/timeslot.c.obj
                               0x17f6 (size before relaxing)
 .debug_str     0x000104fe      0x292 examples/dfu/CMakeFiles/dfu_no_serial_nrf52832_xxAA_s132_6.0.0.dir/__/__/mesh/core/src/bearer_event.c.obj
                                0xeb9 (size before relaxing)
 .debug_str     0x00010790      0x153 examples/dfu/CMakeFiles/dfu_no_serial_nrf52832_xxAA_s132_6.0.0.dir/__/__/mesh/core/src/enc.c.obj
                                0x9ef (size before relaxing)
 .debug_str     0x000108e3      0x2f9 examples/dfu/CMakeFiles/dfu_no_serial_nrf52832_xxAA_s132_6.0.0.dir/__/__/mesh/core/src/network.c.obj
                               0x12e8 (size before relaxing)
 .debug_str     0x00010bdc      0x2f2 examples/dfu/CMakeFiles/dfu_no_serial_nrf52832_xxAA_s132_6.0.0.dir/__/__/mesh/core/src/net_packet.c.obj
                                0xe86 (size before relaxing)
 .debug_str     0x00010ece       0x53 examples/dfu/CMakeFiles/dfu_no_serial_nrf52832_xxAA_s132_6.0.0.dir/__/__/mesh/core/src/msqueue.c.obj
                                0x6bf (size before relaxing)
 .debug_str     0x00010f21       0x57 examples/dfu/CMakeFiles/dfu_no_serial_nrf52832_xxAA_s132_6.0.0.dir/__/__/mesh/core/src/nrf_mesh_keygen.c.obj
                                0x397 (size before relaxing)
 .debug_str     0x00010f78       0x65 examples/dfu/CMakeFiles/dfu_no_serial_nrf52832_xxAA_s132_6.0.0.dir/__/__/mesh/core/src/list.c.obj
                                0x2be (size before relaxing)
 .debug_str     0x00010fdd      0x184 examples/dfu/CMakeFiles/dfu_no_serial_nrf52832_xxAA_s132_6.0.0.dir/__/__/mesh/core/src/log.c.obj
                                0x7d0 (size before relaxing)
 .debug_str     0x00011161      0x4e4 examples/dfu/CMakeFiles/dfu_no_serial_nrf52832_xxAA_s132_6.0.0.dir/__/__/mesh/core/src/flash_manager.c.obj
                               0x1578 (size before relaxing)
 .debug_str     0x00011645       0x85 examples/dfu/CMakeFiles/dfu_no_serial_nrf52832_xxAA_s132_6.0.0.dir/__/__/mesh/core/src/ccm_soft.c.obj
                                0x75d (size before relaxing)
 .debug_str     0x000116ca       0x92 examples/dfu/CMakeFiles/dfu_no_serial_nrf52832_xxAA_s132_6.0.0.dir/__/__/mesh/core/src/replay_cache.c.obj
                                0x68d (size before relaxing)
 .debug_str     0x0001175c       0x8b examples/dfu/CMakeFiles/dfu_no_serial_nrf52832_xxAA_s132_6.0.0.dir/__/__/mesh/core/src/beacon.c.obj
                               0x1103 (size before relaxing)
 .debug_str     0x000117e7       0x38 examples/dfu/CMakeFiles/dfu_no_serial_nrf52832_xxAA_s132_6.0.0.dir/__/__/mesh/core/src/flash_manager_internal.c.obj
                                0x7a4 (size before relaxing)
 .debug_str     0x0001181f      0x2be examples/dfu/CMakeFiles/dfu_no_serial_nrf52832_xxAA_s132_6.0.0.dir/__/__/mesh/core/src/core_tx.c.obj
                                0xbef (size before relaxing)
 .debug_str     0x00011add      0x35b examples/dfu/CMakeFiles/dfu_no_serial_nrf52832_xxAA_s132_6.0.0.dir/__/__/mesh/core/src/heartbeat.c.obj
                               0x2240 (size before relaxing)
 .debug_str     0x00011e38      0x1ae examples/dfu/CMakeFiles/dfu_no_serial_nrf52832_xxAA_s132_6.0.0.dir/__/__/mesh/core/src/net_beacon.c.obj
                               0x20a0 (size before relaxing)
 .debug_str     0x00011fe6      0x107 examples/dfu/CMakeFiles/dfu_no_serial_nrf52832_xxAA_s132_6.0.0.dir/__/__/mesh/core/src/core_tx_adv.c.obj
                               0x12d9 (size before relaxing)
 .debug_str     0x000120ed      0x179 examples/dfu/CMakeFiles/dfu_no_serial_nrf52832_xxAA_s132_6.0.0.dir/__/__/mesh/bearer/src/ad_listener.c.obj
                                0xbe2 (size before relaxing)
 .debug_str     0x00012266      0x14f examples/dfu/CMakeFiles/dfu_no_serial_nrf52832_xxAA_s132_6.0.0.dir/__/__/mesh/bearer/src/ad_type_filter.c.obj
                                0x99f (size before relaxing)
 .debug_str     0x000123b5      0x2d6 examples/dfu/CMakeFiles/dfu_no_serial_nrf52832_xxAA_s132_6.0.0.dir/__/__/mesh/bearer/src/advertiser.c.obj
                               0x14f2 (size before relaxing)
 .debug_str     0x0001268b      0x328 examples/dfu/CMakeFiles/dfu_no_serial_nrf52832_xxAA_s132_6.0.0.dir/__/__/mesh/bearer/src/bearer_handler.c.obj
                                0xf75 (size before relaxing)
 .debug_str     0x000129b3      0x1ac examples/dfu/CMakeFiles/dfu_no_serial_nrf52832_xxAA_s132_6.0.0.dir/__/__/mesh/bearer/src/broadcast.c.obj
                                0xf2c (size before relaxing)
 .debug_str     0x00012b5f       0x72 examples/dfu/CMakeFiles/dfu_no_serial_nrf52832_xxAA_s132_6.0.0.dir/__/__/mesh/bearer/src/filter_engine.c.obj
                                0x80c (size before relaxing)
 .debug_str     0x00012bd1       0x79 examples/dfu/CMakeFiles/dfu_no_serial_nrf52832_xxAA_s132_6.0.0.dir/__/__/mesh/bearer/src/radio_config.c.obj
                                0x77a (size before relaxing)
 .debug_str     0x00012c4a      0x45d examples/dfu/CMakeFiles/dfu_no_serial_nrf52832_xxAA_s132_6.0.0.dir/__/__/mesh/bearer/src/scanner.c.obj
                               0x18be (size before relaxing)
 .debug_str     0x000130a7      0x2ec examples/dfu/CMakeFiles/dfu_no_serial_nrf52832_xxAA_s132_6.0.0.dir/C_/ver/mod/nRF5_SDK_15.0.0_a53641a/modules/nrfx/mdk/system_nrf52.c.obj
                                0x768 (size before relaxing)
 .debug_str     0x00013393       0xa2 examples/dfu/CMakeFiles/dfu_no_serial_nrf52832_xxAA_s132_6.0.0.dir/C_/ver/mod/nRF5_SDK_15.0.0_a53641a/components/libraries/util/app_error.c.obj
                                0x72a (size before relaxing)
 .debug_str     0x00013435       0x55 examples/dfu/CMakeFiles/dfu_no_serial_nrf52832_xxAA_s132_6.0.0.dir/C_/ver/mod/nRF5_SDK_15.0.0_a53641a/components/libraries/util/app_error_handler_gcc.c.obj
                                0x68f (size before relaxing)
 .debug_str     0x0001348a      0x2d1 external/rtt/librtt_nrf52832_xxAA.a(SEGGER_RTT.c.obj)
                                0x922 (size before relaxing)
 .debug_str     0x0001375b       0xdf external/rtt/librtt_nrf52832_xxAA.a(SEGGER_RTT_printf.c.obj)
                                0x792 (size before relaxing)
 .debug_str     0x0001383a      0x677 external/micro-ecc/libuECC_nrf52832_xxAA.a(uECC.c.obj)
                                0x880 (size before relaxing)

.debug_frame    0x00000000     0x6e58
 .debug_frame   0x00000000       0x88 examples/dfu/CMakeFiles/dfu_no_serial_nrf52832_xxAA_s132_6.0.0.dir/src/main.c.obj
 .debug_frame   0x00000088       0xcc examples/dfu/CMakeFiles/dfu_no_serial_nrf52832_xxAA_s132_6.0.0.dir/__/__/mesh/stack/src/mesh_stack.c.obj
 .debug_frame   0x00000154       0x80 examples/dfu/CMakeFiles/dfu_no_serial_nrf52832_xxAA_s132_6.0.0.dir/__/common/src/mesh_softdevice_init.c.obj
 .debug_frame   0x000001d4       0x70 examples/dfu/CMakeFiles/dfu_no_serial_nrf52832_xxAA_s132_6.0.0.dir/__/common/src/mesh_provisionee.c.obj
 .debug_frame   0x00000244       0xa0 examples/dfu/CMakeFiles/dfu_no_serial_nrf52832_xxAA_s132_6.0.0.dir/__/common/src/simple_hal.c.obj
 .debug_frame   0x000002e4      0x114 examples/dfu/CMakeFiles/dfu_no_serial_nrf52832_xxAA_s132_6.0.0.dir/__/__/mesh/access/src/access_publish.c.obj
 .debug_frame   0x000003f8      0x5b0 examples/dfu/CMakeFiles/dfu_no_serial_nrf52832_xxAA_s132_6.0.0.dir/__/__/mesh/access/src/access.c.obj
 .debug_frame   0x000009a8      0x120 examples/dfu/CMakeFiles/dfu_no_serial_nrf52832_xxAA_s132_6.0.0.dir/__/__/mesh/access/src/access_reliable.c.obj
 .debug_frame   0x00000ac8      0xaf4 examples/dfu/CMakeFiles/dfu_no_serial_nrf52832_xxAA_s132_6.0.0.dir/__/__/mesh/access/src/device_state_manager.c.obj
 .debug_frame   0x000015bc       0x40 examples/dfu/CMakeFiles/dfu_no_serial_nrf52832_xxAA_s132_6.0.0.dir/__/__/models/config/src/composition_data.c.obj
 .debug_frame   0x000015fc      0x8bc examples/dfu/CMakeFiles/dfu_no_serial_nrf52832_xxAA_s132_6.0.0.dir/__/__/models/config/src/config_server.c.obj
 .debug_frame   0x00001eb8       0x2c examples/dfu/CMakeFiles/dfu_no_serial_nrf52832_xxAA_s132_6.0.0.dir/__/__/models/config/src/packed_index_list.c.obj
 .debug_frame   0x00001ee4      0x2a0 examples/dfu/CMakeFiles/dfu_no_serial_nrf52832_xxAA_s132_6.0.0.dir/__/__/models/health/src/health_server.c.obj
 .debug_frame   0x00002184      0x190 examples/dfu/CMakeFiles/dfu_no_serial_nrf52832_xxAA_s132_6.0.0.dir/__/__/mesh/prov/src/prov_provisioner.c.obj
 .debug_frame   0x00002314      0x198 examples/dfu/CMakeFiles/dfu_no_serial_nrf52832_xxAA_s132_6.0.0.dir/__/__/mesh/prov/src/prov_provisionee.c.obj
 .debug_frame   0x000024ac      0x160 examples/dfu/CMakeFiles/dfu_no_serial_nrf52832_xxAA_s132_6.0.0.dir/__/__/mesh/prov/src/nrf_mesh_prov.c.obj
 .debug_frame   0x0000260c      0x170 examples/dfu/CMakeFiles/dfu_no_serial_nrf52832_xxAA_s132_6.0.0.dir/__/__/mesh/prov/src/provisioning.c.obj
 .debug_frame   0x0000277c       0x84 examples/dfu/CMakeFiles/dfu_no_serial_nrf52832_xxAA_s132_6.0.0.dir/__/__/mesh/prov/src/prov_beacon.c.obj
 .debug_frame   0x00002800      0x150 examples/dfu/CMakeFiles/dfu_no_serial_nrf52832_xxAA_s132_6.0.0.dir/__/__/mesh/prov/src/prov_utils.c.obj
 .debug_frame   0x00002950      0x324 examples/dfu/CMakeFiles/dfu_no_serial_nrf52832_xxAA_s132_6.0.0.dir/__/__/mesh/prov/src/prov_bearer_adv.c.obj
 .debug_frame   0x00002c74      0x280 examples/dfu/CMakeFiles/dfu_no_serial_nrf52832_xxAA_s132_6.0.0.dir/__/__/mesh/dfu/src/nrf_mesh_dfu.c.obj
 .debug_frame   0x00002ef4       0x34 examples/dfu/CMakeFiles/dfu_no_serial_nrf52832_xxAA_s132_6.0.0.dir/__/common/src/app_error_weak.c.obj
 .debug_frame   0x00002f28       0x28 examples/dfu/CMakeFiles/dfu_no_serial_nrf52832_xxAA_s132_6.0.0.dir/__/common/src/assertion_handler_weak.c.obj
 .debug_frame   0x00002f50       0x4c examples/dfu/CMakeFiles/dfu_no_serial_nrf52832_xxAA_s132_6.0.0.dir/__/__/mesh/core/src/nrf_mesh_configure.c.obj
 .debug_frame   0x00002f9c       0x40 examples/dfu/CMakeFiles/dfu_no_serial_nrf52832_xxAA_s132_6.0.0.dir/__/__/mesh/core/src/aes.c.obj
 .debug_frame   0x00002fdc       0x6c examples/dfu/CMakeFiles/dfu_no_serial_nrf52832_xxAA_s132_6.0.0.dir/__/__/mesh/core/src/msg_cache.c.obj
 .debug_frame   0x00003048      0x404 examples/dfu/CMakeFiles/dfu_no_serial_nrf52832_xxAA_s132_6.0.0.dir/__/__/mesh/core/src/transport.c.obj
 .debug_frame   0x0000344c       0x64 examples/dfu/CMakeFiles/dfu_no_serial_nrf52832_xxAA_s132_6.0.0.dir/__/__/mesh/core/src/event.c.obj
 .debug_frame   0x000034b0      0x128 examples/dfu/CMakeFiles/dfu_no_serial_nrf52832_xxAA_s132_6.0.0.dir/__/__/mesh/core/src/packet_buffer.c.obj
 .debug_frame   0x000035d8      0x24c examples/dfu/CMakeFiles/dfu_no_serial_nrf52832_xxAA_s132_6.0.0.dir/__/__/mesh/core/src/flash_manager_defrag.c.obj
 .debug_frame   0x00003824       0xd0 examples/dfu/CMakeFiles/dfu_no_serial_nrf52832_xxAA_s132_6.0.0.dir/__/__/mesh/core/src/fifo.c.obj
 .debug_frame   0x000038f4       0x54 examples/dfu/CMakeFiles/dfu_no_serial_nrf52832_xxAA_s132_6.0.0.dir/__/__/mesh/core/src/nrf_flash.c.obj
 .debug_frame   0x00003948       0xa0 examples/dfu/CMakeFiles/dfu_no_serial_nrf52832_xxAA_s132_6.0.0.dir/__/__/mesh/core/src/packet_mgr.c.obj
 .debug_frame   0x000039e8      0x298 examples/dfu/CMakeFiles/dfu_no_serial_nrf52832_xxAA_s132_6.0.0.dir/__/__/mesh/core/src/net_state.c.obj
 .debug_frame   0x00003c80      0x150 examples/dfu/CMakeFiles/dfu_no_serial_nrf52832_xxAA_s132_6.0.0.dir/__/__/mesh/core/src/mesh_flash.c.obj
 .debug_frame   0x00003dd0       0x50 examples/dfu/CMakeFiles/dfu_no_serial_nrf52832_xxAA_s132_6.0.0.dir/__/__/mesh/core/src/nrf_mesh_utils.c.obj
 .debug_frame   0x00003e20      0x190 examples/dfu/CMakeFiles/dfu_no_serial_nrf52832_xxAA_s132_6.0.0.dir/__/__/mesh/core/src/nrf_mesh.c.obj
 .debug_frame   0x00003fb0       0x74 examples/dfu/CMakeFiles/dfu_no_serial_nrf52832_xxAA_s132_6.0.0.dir/__/__/mesh/core/src/queue.c.obj
 .debug_frame   0x00004024       0x58 examples/dfu/CMakeFiles/dfu_no_serial_nrf52832_xxAA_s132_6.0.0.dir/__/__/mesh/core/src/hal.c.obj
 .debug_frame   0x0000407c       0xa4 examples/dfu/CMakeFiles/dfu_no_serial_nrf52832_xxAA_s132_6.0.0.dir/__/__/mesh/core/src/aes_cmac.c.obj
 .debug_frame   0x00004120      0x134 examples/dfu/CMakeFiles/dfu_no_serial_nrf52832_xxAA_s132_6.0.0.dir/__/__/mesh/core/src/timer_scheduler.c.obj
 .debug_frame   0x00004254      0x10c examples/dfu/CMakeFiles/dfu_no_serial_nrf52832_xxAA_s132_6.0.0.dir/__/__/mesh/core/src/timer.c.obj
 .debug_frame   0x00004360       0x4c examples/dfu/CMakeFiles/dfu_no_serial_nrf52832_xxAA_s132_6.0.0.dir/__/__/mesh/core/src/ticker.c.obj
 .debug_frame   0x000043ac       0x84 examples/dfu/CMakeFiles/dfu_no_serial_nrf52832_xxAA_s132_6.0.0.dir/__/__/mesh/core/src/rand.c.obj
 .debug_frame   0x00004430       0x30 examples/dfu/CMakeFiles/dfu_no_serial_nrf52832_xxAA_s132_6.0.0.dir/__/__/mesh/core/src/nrf_mesh_opt.c.obj
 .debug_frame   0x00004460      0x1a0 examples/dfu/CMakeFiles/dfu_no_serial_nrf52832_xxAA_s132_6.0.0.dir/__/__/mesh/core/src/timeslot.c.obj
 .debug_frame   0x00004600      0x1bc examples/dfu/CMakeFiles/dfu_no_serial_nrf52832_xxAA_s132_6.0.0.dir/__/__/mesh/core/src/bearer_event.c.obj
 .debug_frame   0x000047bc      0x13c examples/dfu/CMakeFiles/dfu_no_serial_nrf52832_xxAA_s132_6.0.0.dir/__/__/mesh/core/src/enc.c.obj
 .debug_frame   0x000048f8      0x100 examples/dfu/CMakeFiles/dfu_no_serial_nrf52832_xxAA_s132_6.0.0.dir/__/__/mesh/core/src/network.c.obj
 .debug_frame   0x000049f8      0x114 examples/dfu/CMakeFiles/dfu_no_serial_nrf52832_xxAA_s132_6.0.0.dir/__/__/mesh/core/src/net_packet.c.obj
 .debug_frame   0x00004b0c       0xb4 examples/dfu/CMakeFiles/dfu_no_serial_nrf52832_xxAA_s132_6.0.0.dir/__/__/mesh/core/src/msqueue.c.obj
 .debug_frame   0x00004bc0       0xb4 examples/dfu/CMakeFiles/dfu_no_serial_nrf52832_xxAA_s132_6.0.0.dir/__/__/mesh/core/src/nrf_mesh_keygen.c.obj
 .debug_frame   0x00004c74       0xc8 examples/dfu/CMakeFiles/dfu_no_serial_nrf52832_xxAA_s132_6.0.0.dir/__/__/mesh/core/src/list.c.obj
 .debug_frame   0x00004d3c       0xb0 examples/dfu/CMakeFiles/dfu_no_serial_nrf52832_xxAA_s132_6.0.0.dir/__/__/mesh/core/src/log.c.obj
 .debug_frame   0x00004dec      0x320 examples/dfu/CMakeFiles/dfu_no_serial_nrf52832_xxAA_s132_6.0.0.dir/__/__/mesh/core/src/flash_manager.c.obj
 .debug_frame   0x0000510c      0x10c examples/dfu/CMakeFiles/dfu_no_serial_nrf52832_xxAA_s132_6.0.0.dir/__/__/mesh/core/src/ccm_soft.c.obj
 .debug_frame   0x00005218       0x80 examples/dfu/CMakeFiles/dfu_no_serial_nrf52832_xxAA_s132_6.0.0.dir/__/__/mesh/core/src/replay_cache.c.obj
 .debug_frame   0x00005298       0x60 examples/dfu/CMakeFiles/dfu_no_serial_nrf52832_xxAA_s132_6.0.0.dir/__/__/mesh/core/src/beacon.c.obj
 .debug_frame   0x000052f8       0x34 examples/dfu/CMakeFiles/dfu_no_serial_nrf52832_xxAA_s132_6.0.0.dir/__/__/mesh/core/src/flash_manager_internal.c.obj
 .debug_frame   0x0000532c       0xf0 examples/dfu/CMakeFiles/dfu_no_serial_nrf52832_xxAA_s132_6.0.0.dir/__/__/mesh/core/src/core_tx.c.obj
 .debug_frame   0x0000541c      0x160 examples/dfu/CMakeFiles/dfu_no_serial_nrf52832_xxAA_s132_6.0.0.dir/__/__/mesh/core/src/heartbeat.c.obj
 .debug_frame   0x0000557c      0x138 examples/dfu/CMakeFiles/dfu_no_serial_nrf52832_xxAA_s132_6.0.0.dir/__/__/mesh/core/src/net_beacon.c.obj
 .debug_frame   0x000056b4      0x12c examples/dfu/CMakeFiles/dfu_no_serial_nrf52832_xxAA_s132_6.0.0.dir/__/__/mesh/core/src/core_tx_adv.c.obj
 .debug_frame   0x000057e0       0x6c examples/dfu/CMakeFiles/dfu_no_serial_nrf52832_xxAA_s132_6.0.0.dir/__/__/mesh/bearer/src/ad_listener.c.obj
 .debug_frame   0x0000584c       0xa8 examples/dfu/CMakeFiles/dfu_no_serial_nrf52832_xxAA_s132_6.0.0.dir/__/__/mesh/bearer/src/ad_type_filter.c.obj
 .debug_frame   0x000058f4      0x268 examples/dfu/CMakeFiles/dfu_no_serial_nrf52832_xxAA_s132_6.0.0.dir/__/__/mesh/bearer/src/advertiser.c.obj
 .debug_frame   0x00005b5c      0x158 examples/dfu/CMakeFiles/dfu_no_serial_nrf52832_xxAA_s132_6.0.0.dir/__/__/mesh/bearer/src/bearer_handler.c.obj
 .debug_frame   0x00005cb4       0x70 examples/dfu/CMakeFiles/dfu_no_serial_nrf52832_xxAA_s132_6.0.0.dir/__/__/mesh/bearer/src/broadcast.c.obj
 .debug_frame   0x00005d24       0x74 examples/dfu/CMakeFiles/dfu_no_serial_nrf52832_xxAA_s132_6.0.0.dir/__/__/mesh/bearer/src/filter_engine.c.obj
 .debug_frame   0x00005d98       0x94 examples/dfu/CMakeFiles/dfu_no_serial_nrf52832_xxAA_s132_6.0.0.dir/__/__/mesh/bearer/src/radio_config.c.obj
 .debug_frame   0x00005e2c      0x2a4 examples/dfu/CMakeFiles/dfu_no_serial_nrf52832_xxAA_s132_6.0.0.dir/__/__/mesh/bearer/src/scanner.c.obj
 .debug_frame   0x000060d0       0x58 examples/dfu/CMakeFiles/dfu_no_serial_nrf52832_xxAA_s132_6.0.0.dir/C_/ver/mod/nRF5_SDK_15.0.0_a53641a/modules/nrfx/mdk/system_nrf52.c.obj
 .debug_frame   0x00006128       0x44 examples/dfu/CMakeFiles/dfu_no_serial_nrf52832_xxAA_s132_6.0.0.dir/C_/ver/mod/nRF5_SDK_15.0.0_a53641a/components/libraries/util/app_error.c.obj
 .debug_frame   0x0000616c       0x20 examples/dfu/CMakeFiles/dfu_no_serial_nrf52832_xxAA_s132_6.0.0.dir/C_/ver/mod/nRF5_SDK_15.0.0_a53641a/components/libraries/util/app_error_handler_gcc.c.obj
 .debug_frame   0x0000618c      0x2d8 external/rtt/librtt_nrf52832_xxAA.a(SEGGER_RTT.c.obj)
 .debug_frame   0x00006464       0xac external/rtt/librtt_nrf52832_xxAA.a(SEGGER_RTT_printf.c.obj)
 .debug_frame   0x00006510      0x684 external/micro-ecc/libuECC_nrf52832_xxAA.a(uECC.c.obj)
 .debug_frame   0x00006b94       0x28 c:/mesh/arm_gcc/bin/../lib/gcc/arm-none-eabi/6.3.1/../../../../arm-none-eabi/lib/thumb/v7e-m/fpv4-sp/hard\libg_nano.a(lib_a-exit.o)
 .debug_frame   0x00006bbc       0x2c c:/mesh/arm_gcc/bin/../lib/gcc/arm-none-eabi/6.3.1/../../../../arm-none-eabi/lib/thumb/v7e-m/fpv4-sp/hard\libg_nano.a(lib_a-init.o)
 .debug_frame   0x00006be8       0x30 c:/mesh/arm_gcc/bin/../lib/gcc/arm-none-eabi/6.3.1/../../../../arm-none-eabi/lib/thumb/v7e-m/fpv4-sp/hard\libg_nano.a(lib_a-malloc.o)
 .debug_frame   0x00006c18       0x28 c:/mesh/arm_gcc/bin/../lib/gcc/arm-none-eabi/6.3.1/../../../../arm-none-eabi/lib/thumb/v7e-m/fpv4-sp/hard\libg_nano.a(lib_a-memcmp.o)
 .debug_frame   0x00006c40       0x28 c:/mesh/arm_gcc/bin/../lib/gcc/arm-none-eabi/6.3.1/../../../../arm-none-eabi/lib/thumb/v7e-m/fpv4-sp/hard\libg_nano.a(lib_a-memcpy-stub.o)
 .debug_frame   0x00006c68       0x20 c:/mesh/arm_gcc/bin/../lib/gcc/arm-none-eabi/6.3.1/../../../../arm-none-eabi/lib/thumb/v7e-m/fpv4-sp/hard\libg_nano.a(lib_a-memset.o)
 .debug_frame   0x00006c88       0x38 c:/mesh/arm_gcc/bin/../lib/gcc/arm-none-eabi/6.3.1/../../../../arm-none-eabi/lib/thumb/v7e-m/fpv4-sp/hard\libg_nano.a(lib_a-nano-freer.o)
 .debug_frame   0x00006cc0       0x2c c:/mesh/arm_gcc/bin/../lib/gcc/arm-none-eabi/6.3.1/../../../../arm-none-eabi/lib/thumb/v7e-m/fpv4-sp/hard\libg_nano.a(lib_a-nano-mallocr.o)
 .debug_frame   0x00006cec       0x2c c:/mesh/arm_gcc/bin/../lib/gcc/arm-none-eabi/6.3.1/../../../../arm-none-eabi/lib/thumb/v7e-m/fpv4-sp/hard\libg_nano.a(lib_a-sbrkr.o)
 .debug_frame   0x00006d18       0x20 c:/mesh/arm_gcc/bin/../lib/gcc/arm-none-eabi/6.3.1/../../../../arm-none-eabi/lib/thumb/v7e-m/fpv4-sp/hard\libg_nano.a(lib_a-strcpy.o)
 .debug_frame   0x00006d38       0x34 c:/mesh/arm_gcc/bin/../lib/gcc/arm-none-eabi/6.3.1/../../../../arm-none-eabi/lib/thumb/v7e-m/fpv4-sp/hard\libg_nano.a(lib_a-strrchr.o)
 .debug_frame   0x00006d6c       0x30 c:/mesh/arm_gcc/bin/../lib/gcc/arm-none-eabi/6.3.1/../../../../arm-none-eabi/lib/thumb/v7e-m/fpv4-sp/hard\libg_nano.a(lib_a-mlock.o)
 .debug_frame   0x00006d9c       0x5c c:/mesh/arm_gcc/bin/../lib/gcc/arm-none-eabi/6.3.1/../../../../arm-none-eabi/lib/thumb/v7e-m/fpv4-sp/hard\libg_nano.a(lib_a-reent.o)
 .debug_frame   0x00006df8       0x20 c:/mesh/arm_gcc/bin/../lib/gcc/arm-none-eabi/6.3.1/../../../../arm-none-eabi/lib/thumb/v7e-m/fpv4-sp/hard\libg_nano.a(lib_a-strchr.o)
 .debug_frame   0x00006e18       0x20 c:/mesh/arm_gcc/bin/../lib/gcc/arm-none-eabi/6.3.1/../../../../arm-none-eabi/lib/thumb/v7e-m/fpv4-sp/hard\libnosys.a(sbrk.o)
 .debug_frame   0x00006e38       0x20 c:/mesh/arm_gcc/bin/../lib/gcc/arm-none-eabi/6.3.1/../../../../arm-none-eabi/lib/thumb/v7e-m/fpv4-sp/hard\libnosys.a(_exit.o)
