Archive member included to satisfy reference by file (symbol)

external/rtt/librtt_nrf52840_xxAA.a(SEGGER_RTT.c.obj)
                              examples/enocean_switch/CMakeFiles/enocean_switch_nrf52840_xxAA_s140_6.0.0.dir/__/__/mesh/core/src/log.c.obj (SEGGER_RTT_Write)
external/rtt/librtt_nrf52840_xxAA.a(SEGGER_RTT_printf.c.obj)
                              examples/enocean_switch/CMakeFiles/enocean_switch_nrf52840_xxAA_s140_6.0.0.dir/__/__/mesh/core/src/log.c.obj (SEGGER_RTT_vprintf)
external/micro-ecc/libuECC_nrf52840_xxAA.a(uECC.c.obj)
                              examples/enocean_switch/CMakeFiles/enocean_switch_nrf52840_xxAA_s140_6.0.0.dir/__/__/mesh/prov/src/prov_utils.c.obj (uECC_secp256r1)
c:/mesh/arm_gcc/bin/../lib/gcc/arm-none-eabi/6.3.1/thumb/v7e-m/fpv4-sp/hard\libgcc.a(_aeabi_uldivmod.o)
                              examples/enocean_switch/CMakeFiles/enocean_switch_nrf52840_xxAA_s140_6.0.0.dir/__/common/src/rtt_input.c.obj (__aeabi_uldivmod)
c:/mesh/arm_gcc/bin/../lib/gcc/arm-none-eabi/6.3.1/thumb/v7e-m/fpv4-sp/hard\libgcc.a(_udivmoddi4.o)
                              c:/mesh/arm_gcc/bin/../lib/gcc/arm-none-eabi/6.3.1/thumb/v7e-m/fpv4-sp/hard\libgcc.a(_aeabi_uldivmod.o) (__udivmoddi4)
c:/mesh/arm_gcc/bin/../lib/gcc/arm-none-eabi/6.3.1/thumb/v7e-m/fpv4-sp/hard\libgcc.a(_dvmd_tls.o)
                              c:/mesh/arm_gcc/bin/../lib/gcc/arm-none-eabi/6.3.1/thumb/v7e-m/fpv4-sp/hard\libgcc.a(_aeabi_uldivmod.o) (__aeabi_ldiv0)
c:/mesh/arm_gcc/bin/../lib/gcc/arm-none-eabi/6.3.1/../../../../arm-none-eabi/lib/thumb/v7e-m/fpv4-sp/hard\libg_nano.a(lib_a-exit.o)
                              c:/mesh/arm_gcc/bin/../lib/gcc/arm-none-eabi/6.3.1/../../../../arm-none-eabi/lib/thumb/v7e-m/fpv4-sp/hard/crt0.o (exit)
c:/mesh/arm_gcc/bin/../lib/gcc/arm-none-eabi/6.3.1/../../../../arm-none-eabi/lib/thumb/v7e-m/fpv4-sp/hard\libg_nano.a(lib_a-impure.o)
                              c:/mesh/arm_gcc/bin/../lib/gcc/arm-none-eabi/6.3.1/../../../../arm-none-eabi/lib/thumb/v7e-m/fpv4-sp/hard\libg_nano.a(lib_a-exit.o) (_global_impure_ptr)
c:/mesh/arm_gcc/bin/../lib/gcc/arm-none-eabi/6.3.1/../../../../arm-none-eabi/lib/thumb/v7e-m/fpv4-sp/hard\libg_nano.a(lib_a-init.o)
                              c:/mesh/arm_gcc/bin/../lib/gcc/arm-none-eabi/6.3.1/../../../../arm-none-eabi/lib/thumb/v7e-m/fpv4-sp/hard/crt0.o (__libc_init_array)
c:/mesh/arm_gcc/bin/../lib/gcc/arm-none-eabi/6.3.1/../../../../arm-none-eabi/lib/thumb/v7e-m/fpv4-sp/hard\libg_nano.a(lib_a-malloc.o)
                              examples/enocean_switch/CMakeFiles/enocean_switch_nrf52840_xxAA_s140_6.0.0.dir/__/__/mesh/core/src/transport.c.obj (malloc)
c:/mesh/arm_gcc/bin/../lib/gcc/arm-none-eabi/6.3.1/../../../../arm-none-eabi/lib/thumb/v7e-m/fpv4-sp/hard\libg_nano.a(lib_a-memcmp.o)
                              examples/enocean_switch/CMakeFiles/enocean_switch_nrf52840_xxAA_s140_6.0.0.dir/src/enocean.c.obj (memcmp)
c:/mesh/arm_gcc/bin/../lib/gcc/arm-none-eabi/6.3.1/../../../../arm-none-eabi/lib/thumb/v7e-m/fpv4-sp/hard\libg_nano.a(lib_a-memcpy-stub.o)
                              examples/enocean_switch/CMakeFiles/enocean_switch_nrf52840_xxAA_s140_6.0.0.dir/src/main.c.obj (memcpy)
c:/mesh/arm_gcc/bin/../lib/gcc/arm-none-eabi/6.3.1/../../../../arm-none-eabi/lib/thumb/v7e-m/fpv4-sp/hard\libg_nano.a(lib_a-memset.o)
                              c:/mesh/arm_gcc/bin/../lib/gcc/arm-none-eabi/6.3.1/../../../../arm-none-eabi/lib/thumb/v7e-m/fpv4-sp/hard/crt0.o (memset)
c:/mesh/arm_gcc/bin/../lib/gcc/arm-none-eabi/6.3.1/../../../../arm-none-eabi/lib/thumb/v7e-m/fpv4-sp/hard\libg_nano.a(lib_a-nano-freer.o)
                              c:/mesh/arm_gcc/bin/../lib/gcc/arm-none-eabi/6.3.1/../../../../arm-none-eabi/lib/thumb/v7e-m/fpv4-sp/hard\libg_nano.a(lib_a-malloc.o) (_free_r)
c:/mesh/arm_gcc/bin/../lib/gcc/arm-none-eabi/6.3.1/../../../../arm-none-eabi/lib/thumb/v7e-m/fpv4-sp/hard\libg_nano.a(lib_a-nano-mallocr.o)
                              c:/mesh/arm_gcc/bin/../lib/gcc/arm-none-eabi/6.3.1/../../../../arm-none-eabi/lib/thumb/v7e-m/fpv4-sp/hard\libg_nano.a(lib_a-malloc.o) (_malloc_r)
c:/mesh/arm_gcc/bin/../lib/gcc/arm-none-eabi/6.3.1/../../../../arm-none-eabi/lib/thumb/v7e-m/fpv4-sp/hard\libg_nano.a(lib_a-sbrkr.o)
                              c:/mesh/arm_gcc/bin/../lib/gcc/arm-none-eabi/6.3.1/../../../../arm-none-eabi/lib/thumb/v7e-m/fpv4-sp/hard\libg_nano.a(lib_a-nano-mallocr.o) (_sbrk_r)
c:/mesh/arm_gcc/bin/../lib/gcc/arm-none-eabi/6.3.1/../../../../arm-none-eabi/lib/thumb/v7e-m/fpv4-sp/hard\libg_nano.a(lib_a-strcpy.o)
                              external/rtt/librtt_nrf52840_xxAA.a(SEGGER_RTT.c.obj) (strcpy)
c:/mesh/arm_gcc/bin/../lib/gcc/arm-none-eabi/6.3.1/../../../../arm-none-eabi/lib/thumb/v7e-m/fpv4-sp/hard\libg_nano.a(lib_a-strlen.o)
                              examples/enocean_switch/CMakeFiles/enocean_switch_nrf52840_xxAA_s140_6.0.0.dir/__/__/mesh/core/src/uri.c.obj (strlen)
c:/mesh/arm_gcc/bin/../lib/gcc/arm-none-eabi/6.3.1/../../../../arm-none-eabi/lib/thumb/v7e-m/fpv4-sp/hard\libg_nano.a(lib_a-strrchr.o)
                              examples/enocean_switch/CMakeFiles/enocean_switch_nrf52840_xxAA_s140_6.0.0.dir/src/main.c.obj (strrchr)
c:/mesh/arm_gcc/bin/../lib/gcc/arm-none-eabi/6.3.1/../../../../arm-none-eabi/lib/thumb/v7e-m/fpv4-sp/hard\libg_nano.a(lib_a-mlock.o)
                              c:/mesh/arm_gcc/bin/../lib/gcc/arm-none-eabi/6.3.1/../../../../arm-none-eabi/lib/thumb/v7e-m/fpv4-sp/hard\libg_nano.a(lib_a-nano-freer.o) (__malloc_lock)
c:/mesh/arm_gcc/bin/../lib/gcc/arm-none-eabi/6.3.1/../../../../arm-none-eabi/lib/thumb/v7e-m/fpv4-sp/hard\libg_nano.a(lib_a-reent.o)
                              c:/mesh/arm_gcc/bin/../lib/gcc/arm-none-eabi/6.3.1/../../../../arm-none-eabi/lib/thumb/v7e-m/fpv4-sp/hard\libg_nano.a(lib_a-sbrkr.o) (errno)
c:/mesh/arm_gcc/bin/../lib/gcc/arm-none-eabi/6.3.1/../../../../arm-none-eabi/lib/thumb/v7e-m/fpv4-sp/hard\libg_nano.a(lib_a-strchr.o)
                              c:/mesh/arm_gcc/bin/../lib/gcc/arm-none-eabi/6.3.1/../../../../arm-none-eabi/lib/thumb/v7e-m/fpv4-sp/hard\libg_nano.a(lib_a-strrchr.o) (strchr)
c:/mesh/arm_gcc/bin/../lib/gcc/arm-none-eabi/6.3.1/../../../../arm-none-eabi/lib/thumb/v7e-m/fpv4-sp/hard\libnosys.a(sbrk.o)
                              c:/mesh/arm_gcc/bin/../lib/gcc/arm-none-eabi/6.3.1/../../../../arm-none-eabi/lib/thumb/v7e-m/fpv4-sp/hard\libg_nano.a(lib_a-sbrkr.o) (_sbrk)
c:/mesh/arm_gcc/bin/../lib/gcc/arm-none-eabi/6.3.1/../../../../arm-none-eabi/lib/thumb/v7e-m/fpv4-sp/hard\libnosys.a(_exit.o)
                              c:/mesh/arm_gcc/bin/../lib/gcc/arm-none-eabi/6.3.1/../../../../arm-none-eabi/lib/thumb/v7e-m/fpv4-sp/hard\libg_nano.a(lib_a-exit.o) (_exit)

Allocating common symbols
Common symbol       size              file

nrf_nvic_state      0xc               examples/enocean_switch/CMakeFiles/enocean_switch_nrf52840_xxAA_s140_6.0.0.dir/__/common/src/mesh_softdevice_init.c.obj
m_packet            0x24              examples/enocean_switch/CMakeFiles/enocean_switch_nrf52840_xxAA_s140_6.0.0.dir/__/__/mesh/core/src/core_tx.c.obj
errno               0x4               c:/mesh/arm_gcc/bin/../lib/gcc/arm-none-eabi/6.3.1/../../../../arm-none-eabi/lib/thumb/v7e-m/fpv4-sp/hard\libg_nano.a(lib_a-reent.o)
_SEGGER_RTT         0x78              external/rtt/librtt_nrf52840_xxAA.a(SEGGER_RTT.c.obj)

Discarded input sections

 .text          0x00000000        0x0 c:/mesh/arm_gcc/bin/../lib/gcc/arm-none-eabi/6.3.1/thumb/v7e-m/fpv4-sp/hard/crti.o
 .data          0x00000000        0x0 c:/mesh/arm_gcc/bin/../lib/gcc/arm-none-eabi/6.3.1/thumb/v7e-m/fpv4-sp/hard/crti.o
 .bss           0x00000000        0x0 c:/mesh/arm_gcc/bin/../lib/gcc/arm-none-eabi/6.3.1/thumb/v7e-m/fpv4-sp/hard/crti.o
 .data          0x00000000        0x4 c:/mesh/arm_gcc/bin/../lib/gcc/arm-none-eabi/6.3.1/thumb/v7e-m/fpv4-sp/hard/crtbegin.o
 .data          0x00000000        0x0 c:/mesh/arm_gcc/bin/../lib/gcc/arm-none-eabi/6.3.1/../../../../arm-none-eabi/lib/thumb/v7e-m/fpv4-sp/hard/crt0.o
 .bss           0x00000000        0x0 c:/mesh/arm_gcc/bin/../lib/gcc/arm-none-eabi/6.3.1/../../../../arm-none-eabi/lib/thumb/v7e-m/fpv4-sp/hard/crt0.o
 .ARM.extab     0x00000000        0x0 c:/mesh/arm_gcc/bin/../lib/gcc/arm-none-eabi/6.3.1/../../../../arm-none-eabi/lib/thumb/v7e-m/fpv4-sp/hard/crt0.o
 .text          0x00000000        0x0 examples/enocean_switch/CMakeFiles/enocean_switch_nrf52840_xxAA_s140_6.0.0.dir/src/main.c.obj
 .data          0x00000000        0x0 examples/enocean_switch/CMakeFiles/enocean_switch_nrf52840_xxAA_s140_6.0.0.dir/src/main.c.obj
 .bss           0x00000000        0x0 examples/enocean_switch/CMakeFiles/enocean_switch_nrf52840_xxAA_s140_6.0.0.dir/src/main.c.obj
 .text          0x00000000        0x0 examples/enocean_switch/CMakeFiles/enocean_switch_nrf52840_xxAA_s140_6.0.0.dir/src/enocean.c.obj
 .data          0x00000000        0x0 examples/enocean_switch/CMakeFiles/enocean_switch_nrf52840_xxAA_s140_6.0.0.dir/src/enocean.c.obj
 .bss           0x00000000        0x0 examples/enocean_switch/CMakeFiles/enocean_switch_nrf52840_xxAA_s140_6.0.0.dir/src/enocean.c.obj
 .text          0x00000000        0x0 examples/enocean_switch/CMakeFiles/enocean_switch_nrf52840_xxAA_s140_6.0.0.dir/src/flash_helper.c.obj
 .data          0x00000000        0x0 examples/enocean_switch/CMakeFiles/enocean_switch_nrf52840_xxAA_s140_6.0.0.dir/src/flash_helper.c.obj
 .bss           0x00000000        0x0 examples/enocean_switch/CMakeFiles/enocean_switch_nrf52840_xxAA_s140_6.0.0.dir/src/flash_helper.c.obj
 .text          0x00000000        0x0 examples/enocean_switch/CMakeFiles/enocean_switch_nrf52840_xxAA_s140_6.0.0.dir/__/__/mesh/stack/src/mesh_stack.c.obj
 .data          0x00000000        0x0 examples/enocean_switch/CMakeFiles/enocean_switch_nrf52840_xxAA_s140_6.0.0.dir/__/__/mesh/stack/src/mesh_stack.c.obj
 .bss           0x00000000        0x0 examples/enocean_switch/CMakeFiles/enocean_switch_nrf52840_xxAA_s140_6.0.0.dir/__/__/mesh/stack/src/mesh_stack.c.obj
 .text          0x00000000        0x0 examples/enocean_switch/CMakeFiles/enocean_switch_nrf52840_xxAA_s140_6.0.0.dir/__/common/src/mesh_softdevice_init.c.obj
 .data          0x00000000        0x0 examples/enocean_switch/CMakeFiles/enocean_switch_nrf52840_xxAA_s140_6.0.0.dir/__/common/src/mesh_softdevice_init.c.obj
 .bss           0x00000000        0x0 examples/enocean_switch/CMakeFiles/enocean_switch_nrf52840_xxAA_s140_6.0.0.dir/__/common/src/mesh_softdevice_init.c.obj
 .text          0x00000000        0x0 examples/enocean_switch/CMakeFiles/enocean_switch_nrf52840_xxAA_s140_6.0.0.dir/__/common/src/mesh_provisionee.c.obj
 .data          0x00000000        0x0 examples/enocean_switch/CMakeFiles/enocean_switch_nrf52840_xxAA_s140_6.0.0.dir/__/common/src/mesh_provisionee.c.obj
 .bss           0x00000000        0x0 examples/enocean_switch/CMakeFiles/enocean_switch_nrf52840_xxAA_s140_6.0.0.dir/__/common/src/mesh_provisionee.c.obj
 .text          0x00000000        0x0 examples/enocean_switch/CMakeFiles/enocean_switch_nrf52840_xxAA_s140_6.0.0.dir/__/common/src/rtt_input.c.obj
 .data          0x00000000        0x0 examples/enocean_switch/CMakeFiles/enocean_switch_nrf52840_xxAA_s140_6.0.0.dir/__/common/src/rtt_input.c.obj
 .bss           0x00000000        0x0 examples/enocean_switch/CMakeFiles/enocean_switch_nrf52840_xxAA_s140_6.0.0.dir/__/common/src/rtt_input.c.obj
 .text.rtt_input_disable
                0x00000000       0x24 examples/enocean_switch/CMakeFiles/enocean_switch_nrf52840_xxAA_s140_6.0.0.dir/__/common/src/rtt_input.c.obj
 .text          0x00000000        0x0 examples/enocean_switch/CMakeFiles/enocean_switch_nrf52840_xxAA_s140_6.0.0.dir/__/common/src/simple_hal.c.obj
 .data          0x00000000        0x0 examples/enocean_switch/CMakeFiles/enocean_switch_nrf52840_xxAA_s140_6.0.0.dir/__/common/src/simple_hal.c.obj
 .bss           0x00000000        0x0 examples/enocean_switch/CMakeFiles/enocean_switch_nrf52840_xxAA_s140_6.0.0.dir/__/common/src/simple_hal.c.obj
 .text.hal_led_pin_get
                0x00000000       0x18 examples/enocean_switch/CMakeFiles/enocean_switch_nrf52840_xxAA_s140_6.0.0.dir/__/common/src/simple_hal.c.obj
 .text          0x00000000        0x0 examples/enocean_switch/CMakeFiles/enocean_switch_nrf52840_xxAA_s140_6.0.0.dir/__/common/src/mesh_app_utils.c.obj
 .data          0x00000000        0x0 examples/enocean_switch/CMakeFiles/enocean_switch_nrf52840_xxAA_s140_6.0.0.dir/__/common/src/mesh_app_utils.c.obj
 .bss           0x00000000        0x0 examples/enocean_switch/CMakeFiles/enocean_switch_nrf52840_xxAA_s140_6.0.0.dir/__/common/src/mesh_app_utils.c.obj
 .text.mesh_app_uuid_gen
                0x00000000       0x30 examples/enocean_switch/CMakeFiles/enocean_switch_nrf52840_xxAA_s140_6.0.0.dir/__/common/src/mesh_app_utils.c.obj
 .debug_info    0x00000000      0xde7 examples/enocean_switch/CMakeFiles/enocean_switch_nrf52840_xxAA_s140_6.0.0.dir/__/common/src/mesh_app_utils.c.obj
 .debug_abbrev  0x00000000      0x22a examples/enocean_switch/CMakeFiles/enocean_switch_nrf52840_xxAA_s140_6.0.0.dir/__/common/src/mesh_app_utils.c.obj
 .debug_loc     0x00000000       0x9a examples/enocean_switch/CMakeFiles/enocean_switch_nrf52840_xxAA_s140_6.0.0.dir/__/common/src/mesh_app_utils.c.obj
 .debug_aranges
                0x00000000       0x20 examples/enocean_switch/CMakeFiles/enocean_switch_nrf52840_xxAA_s140_6.0.0.dir/__/common/src/mesh_app_utils.c.obj
 .debug_ranges  0x00000000       0x10 examples/enocean_switch/CMakeFiles/enocean_switch_nrf52840_xxAA_s140_6.0.0.dir/__/common/src/mesh_app_utils.c.obj
 .debug_line    0x00000000      0x210 examples/enocean_switch/CMakeFiles/enocean_switch_nrf52840_xxAA_s140_6.0.0.dir/__/common/src/mesh_app_utils.c.obj
 .debug_str     0x00000000      0x7b9 examples/enocean_switch/CMakeFiles/enocean_switch_nrf52840_xxAA_s140_6.0.0.dir/__/common/src/mesh_app_utils.c.obj
 .comment       0x00000000       0x80 examples/enocean_switch/CMakeFiles/enocean_switch_nrf52840_xxAA_s140_6.0.0.dir/__/common/src/mesh_app_utils.c.obj
 .debug_frame   0x00000000       0x2c examples/enocean_switch/CMakeFiles/enocean_switch_nrf52840_xxAA_s140_6.0.0.dir/__/common/src/mesh_app_utils.c.obj
 .ARM.attributes
                0x00000000       0x39 examples/enocean_switch/CMakeFiles/enocean_switch_nrf52840_xxAA_s140_6.0.0.dir/__/common/src/mesh_app_utils.c.obj
 .text          0x00000000        0x0 examples/enocean_switch/CMakeFiles/enocean_switch_nrf52840_xxAA_s140_6.0.0.dir/__/nrf_mesh_weak.c.obj
 .data          0x00000000        0x0 examples/enocean_switch/CMakeFiles/enocean_switch_nrf52840_xxAA_s140_6.0.0.dir/__/nrf_mesh_weak.c.obj
 .bss           0x00000000        0x0 examples/enocean_switch/CMakeFiles/enocean_switch_nrf52840_xxAA_s140_6.0.0.dir/__/nrf_mesh_weak.c.obj
 .text._weak_handler_ptr
                0x00000000        0x4 examples/enocean_switch/CMakeFiles/enocean_switch_nrf52840_xxAA_s140_6.0.0.dir/__/nrf_mesh_weak.c.obj
 .text          0x00000000        0x0 examples/enocean_switch/CMakeFiles/enocean_switch_nrf52840_xxAA_s140_6.0.0.dir/__/common/src/app_error_weak.c.obj
 .data          0x00000000        0x0 examples/enocean_switch/CMakeFiles/enocean_switch_nrf52840_xxAA_s140_6.0.0.dir/__/common/src/app_error_weak.c.obj
 .bss           0x00000000        0x0 examples/enocean_switch/CMakeFiles/enocean_switch_nrf52840_xxAA_s140_6.0.0.dir/__/common/src/app_error_weak.c.obj
 .text          0x00000000        0x0 examples/enocean_switch/CMakeFiles/enocean_switch_nrf52840_xxAA_s140_6.0.0.dir/__/common/src/assertion_handler_weak.c.obj
 .data          0x00000000        0x0 examples/enocean_switch/CMakeFiles/enocean_switch_nrf52840_xxAA_s140_6.0.0.dir/__/common/src/assertion_handler_weak.c.obj
 .bss           0x00000000        0x0 examples/enocean_switch/CMakeFiles/enocean_switch_nrf52840_xxAA_s140_6.0.0.dir/__/common/src/assertion_handler_weak.c.obj
 .text          0x00000000        0x0 examples/enocean_switch/CMakeFiles/enocean_switch_nrf52840_xxAA_s140_6.0.0.dir/__/__/mesh/core/src/internal_event.c.obj
 .data          0x00000000        0x0 examples/enocean_switch/CMakeFiles/enocean_switch_nrf52840_xxAA_s140_6.0.0.dir/__/__/mesh/core/src/internal_event.c.obj
 .bss           0x00000000        0x0 examples/enocean_switch/CMakeFiles/enocean_switch_nrf52840_xxAA_s140_6.0.0.dir/__/__/mesh/core/src/internal_event.c.obj
 .debug_info    0x00000000      0x8f2 examples/enocean_switch/CMakeFiles/enocean_switch_nrf52840_xxAA_s140_6.0.0.dir/__/__/mesh/core/src/internal_event.c.obj
 .debug_abbrev  0x00000000      0x192 examples/enocean_switch/CMakeFiles/enocean_switch_nrf52840_xxAA_s140_6.0.0.dir/__/__/mesh/core/src/internal_event.c.obj
 .debug_aranges
                0x00000000       0x18 examples/enocean_switch/CMakeFiles/enocean_switch_nrf52840_xxAA_s140_6.0.0.dir/__/__/mesh/core/src/internal_event.c.obj
 .debug_line    0x00000000      0x1a6 examples/enocean_switch/CMakeFiles/enocean_switch_nrf52840_xxAA_s140_6.0.0.dir/__/__/mesh/core/src/internal_event.c.obj
 .debug_str     0x00000000      0x602 examples/enocean_switch/CMakeFiles/enocean_switch_nrf52840_xxAA_s140_6.0.0.dir/__/__/mesh/core/src/internal_event.c.obj
 .comment       0x00000000       0x80 examples/enocean_switch/CMakeFiles/enocean_switch_nrf52840_xxAA_s140_6.0.0.dir/__/__/mesh/core/src/internal_event.c.obj
 .ARM.attributes
                0x00000000       0x39 examples/enocean_switch/CMakeFiles/enocean_switch_nrf52840_xxAA_s140_6.0.0.dir/__/__/mesh/core/src/internal_event.c.obj
 .text          0x00000000        0x0 examples/enocean_switch/CMakeFiles/enocean_switch_nrf52840_xxAA_s140_6.0.0.dir/__/__/mesh/core/src/nrf_mesh_configure.c.obj
 .data          0x00000000        0x0 examples/enocean_switch/CMakeFiles/enocean_switch_nrf52840_xxAA_s140_6.0.0.dir/__/__/mesh/core/src/nrf_mesh_configure.c.obj
 .bss           0x00000000        0x0 examples/enocean_switch/CMakeFiles/enocean_switch_nrf52840_xxAA_s140_6.0.0.dir/__/__/mesh/core/src/nrf_mesh_configure.c.obj
 .text          0x00000000        0x0 examples/enocean_switch/CMakeFiles/enocean_switch_nrf52840_xxAA_s140_6.0.0.dir/__/__/mesh/core/src/aes.c.obj
 .data          0x00000000        0x0 examples/enocean_switch/CMakeFiles/enocean_switch_nrf52840_xxAA_s140_6.0.0.dir/__/__/mesh/core/src/aes.c.obj
 .bss           0x00000000        0x0 examples/enocean_switch/CMakeFiles/enocean_switch_nrf52840_xxAA_s140_6.0.0.dir/__/__/mesh/core/src/aes.c.obj
 .text          0x00000000        0x0 examples/enocean_switch/CMakeFiles/enocean_switch_nrf52840_xxAA_s140_6.0.0.dir/__/__/mesh/core/src/msg_cache.c.obj
 .data          0x00000000        0x0 examples/enocean_switch/CMakeFiles/enocean_switch_nrf52840_xxAA_s140_6.0.0.dir/__/__/mesh/core/src/msg_cache.c.obj
 .bss           0x00000000        0x0 examples/enocean_switch/CMakeFiles/enocean_switch_nrf52840_xxAA_s140_6.0.0.dir/__/__/mesh/core/src/msg_cache.c.obj
 .text.msg_cache_clear
                0x00000000       0x18 examples/enocean_switch/CMakeFiles/enocean_switch_nrf52840_xxAA_s140_6.0.0.dir/__/__/mesh/core/src/msg_cache.c.obj
 .text          0x00000000        0x0 examples/enocean_switch/CMakeFiles/enocean_switch_nrf52840_xxAA_s140_6.0.0.dir/__/__/mesh/core/src/transport.c.obj
 .data          0x00000000        0x0 examples/enocean_switch/CMakeFiles/enocean_switch_nrf52840_xxAA_s140_6.0.0.dir/__/__/mesh/core/src/transport.c.obj
 .bss           0x00000000        0x0 examples/enocean_switch/CMakeFiles/enocean_switch_nrf52840_xxAA_s140_6.0.0.dir/__/__/mesh/core/src/transport.c.obj
 .text.transport_sar_mem_funcs_set
                0x00000000       0x44 examples/enocean_switch/CMakeFiles/enocean_switch_nrf52840_xxAA_s140_6.0.0.dir/__/__/mesh/core/src/transport.c.obj
 .text          0x00000000        0x0 examples/enocean_switch/CMakeFiles/enocean_switch_nrf52840_xxAA_s140_6.0.0.dir/__/__/mesh/core/src/event.c.obj
 .data          0x00000000        0x0 examples/enocean_switch/CMakeFiles/enocean_switch_nrf52840_xxAA_s140_6.0.0.dir/__/__/mesh/core/src/event.c.obj
 .bss           0x00000000        0x0 examples/enocean_switch/CMakeFiles/enocean_switch_nrf52840_xxAA_s140_6.0.0.dir/__/__/mesh/core/src/event.c.obj
 .text          0x00000000        0x0 examples/enocean_switch/CMakeFiles/enocean_switch_nrf52840_xxAA_s140_6.0.0.dir/__/__/mesh/core/src/packet_buffer.c.obj
 .data          0x00000000        0x0 examples/enocean_switch/CMakeFiles/enocean_switch_nrf52840_xxAA_s140_6.0.0.dir/__/__/mesh/core/src/packet_buffer.c.obj
 .bss           0x00000000        0x0 examples/enocean_switch/CMakeFiles/enocean_switch_nrf52840_xxAA_s140_6.0.0.dir/__/__/mesh/core/src/packet_buffer.c.obj
 .text.packet_buffer_max_packet_len_get
                0x00000000       0x20 examples/enocean_switch/CMakeFiles/enocean_switch_nrf52840_xxAA_s140_6.0.0.dir/__/__/mesh/core/src/packet_buffer.c.obj
 .text          0x00000000        0x0 examples/enocean_switch/CMakeFiles/enocean_switch_nrf52840_xxAA_s140_6.0.0.dir/__/__/mesh/core/src/flash_manager_defrag.c.obj
 .data          0x00000000        0x0 examples/enocean_switch/CMakeFiles/enocean_switch_nrf52840_xxAA_s140_6.0.0.dir/__/__/mesh/core/src/flash_manager_defrag.c.obj
 .bss           0x00000000        0x0 examples/enocean_switch/CMakeFiles/enocean_switch_nrf52840_xxAA_s140_6.0.0.dir/__/__/mesh/core/src/flash_manager_defrag.c.obj
 .text.flash_manager_defragging
                0x00000000       0x38 examples/enocean_switch/CMakeFiles/enocean_switch_nrf52840_xxAA_s140_6.0.0.dir/__/__/mesh/core/src/flash_manager_defrag.c.obj
 .text          0x00000000        0x0 examples/enocean_switch/CMakeFiles/enocean_switch_nrf52840_xxAA_s140_6.0.0.dir/__/__/mesh/core/src/fifo.c.obj
 .data          0x00000000        0x0 examples/enocean_switch/CMakeFiles/enocean_switch_nrf52840_xxAA_s140_6.0.0.dir/__/__/mesh/core/src/fifo.c.obj
 .bss           0x00000000        0x0 examples/enocean_switch/CMakeFiles/enocean_switch_nrf52840_xxAA_s140_6.0.0.dir/__/__/mesh/core/src/fifo.c.obj
 .text.fifo_peek_at
                0x00000000       0x50 examples/enocean_switch/CMakeFiles/enocean_switch_nrf52840_xxAA_s140_6.0.0.dir/__/__/mesh/core/src/fifo.c.obj
 .text.fifo_peek
                0x00000000        0x6 examples/enocean_switch/CMakeFiles/enocean_switch_nrf52840_xxAA_s140_6.0.0.dir/__/__/mesh/core/src/fifo.c.obj
 .text.fifo_flush
                0x00000000        0x6 examples/enocean_switch/CMakeFiles/enocean_switch_nrf52840_xxAA_s140_6.0.0.dir/__/__/mesh/core/src/fifo.c.obj
 .text.fifo_get_len
                0x00000000        0x8 examples/enocean_switch/CMakeFiles/enocean_switch_nrf52840_xxAA_s140_6.0.0.dir/__/__/mesh/core/src/fifo.c.obj
 .text.fifo_is_full
                0x00000000       0x10 examples/enocean_switch/CMakeFiles/enocean_switch_nrf52840_xxAA_s140_6.0.0.dir/__/__/mesh/core/src/fifo.c.obj
 .text.fifo_is_empty
                0x00000000        0xc examples/enocean_switch/CMakeFiles/enocean_switch_nrf52840_xxAA_s140_6.0.0.dir/__/__/mesh/core/src/fifo.c.obj
 .text          0x00000000        0x0 examples/enocean_switch/CMakeFiles/enocean_switch_nrf52840_xxAA_s140_6.0.0.dir/__/__/mesh/core/src/nrf_flash.c.obj
 .data          0x00000000        0x0 examples/enocean_switch/CMakeFiles/enocean_switch_nrf52840_xxAA_s140_6.0.0.dir/__/__/mesh/core/src/nrf_flash.c.obj
 .bss           0x00000000        0x0 examples/enocean_switch/CMakeFiles/enocean_switch_nrf52840_xxAA_s140_6.0.0.dir/__/__/mesh/core/src/nrf_flash.c.obj
 .text          0x00000000        0x0 examples/enocean_switch/CMakeFiles/enocean_switch_nrf52840_xxAA_s140_6.0.0.dir/__/__/mesh/core/src/packet_mgr.c.obj
 .data          0x00000000        0x0 examples/enocean_switch/CMakeFiles/enocean_switch_nrf52840_xxAA_s140_6.0.0.dir/__/__/mesh/core/src/packet_mgr.c.obj
 .bss           0x00000000        0x0 examples/enocean_switch/CMakeFiles/enocean_switch_nrf52840_xxAA_s140_6.0.0.dir/__/__/mesh/core/src/packet_mgr.c.obj
 .text.packet_mgr_alloc
                0x00000000      0x17c examples/enocean_switch/CMakeFiles/enocean_switch_nrf52840_xxAA_s140_6.0.0.dir/__/__/mesh/core/src/packet_mgr.c.obj
 .text.packet_mgr_free
                0x00000000       0x58 examples/enocean_switch/CMakeFiles/enocean_switch_nrf52840_xxAA_s140_6.0.0.dir/__/__/mesh/core/src/packet_mgr.c.obj
 .text.packet_mgr_get_free_space
                0x00000000       0x1c examples/enocean_switch/CMakeFiles/enocean_switch_nrf52840_xxAA_s140_6.0.0.dir/__/__/mesh/core/src/packet_mgr.c.obj
 .text.packet_mgr_refcount_get
                0x00000000        0x6 examples/enocean_switch/CMakeFiles/enocean_switch_nrf52840_xxAA_s140_6.0.0.dir/__/__/mesh/core/src/packet_mgr.c.obj
 .text.packet_mgr_size_get
                0x00000000        0x6 examples/enocean_switch/CMakeFiles/enocean_switch_nrf52840_xxAA_s140_6.0.0.dir/__/__/mesh/core/src/packet_mgr.c.obj
 .text          0x00000000        0x0 examples/enocean_switch/CMakeFiles/enocean_switch_nrf52840_xxAA_s140_6.0.0.dir/__/__/mesh/core/src/net_state.c.obj
 .data          0x00000000        0x0 examples/enocean_switch/CMakeFiles/enocean_switch_nrf52840_xxAA_s140_6.0.0.dir/__/__/mesh/core/src/net_state.c.obj
 .bss           0x00000000        0x0 examples/enocean_switch/CMakeFiles/enocean_switch_nrf52840_xxAA_s140_6.0.0.dir/__/__/mesh/core/src/net_state.c.obj
 .text.net_state_iv_update_test_mode_set
                0x00000000        0xc examples/enocean_switch/CMakeFiles/enocean_switch_nrf52840_xxAA_s140_6.0.0.dir/__/__/mesh/core/src/net_state.c.obj
 .text.net_state_test_mode_transition_run
                0x00000000       0x2c examples/enocean_switch/CMakeFiles/enocean_switch_nrf52840_xxAA_s140_6.0.0.dir/__/__/mesh/core/src/net_state.c.obj
 .text          0x00000000        0x0 examples/enocean_switch/CMakeFiles/enocean_switch_nrf52840_xxAA_s140_6.0.0.dir/__/__/mesh/core/src/mesh_flash.c.obj
 .data          0x00000000        0x0 examples/enocean_switch/CMakeFiles/enocean_switch_nrf52840_xxAA_s140_6.0.0.dir/__/__/mesh/core/src/mesh_flash.c.obj
 .bss           0x00000000        0x0 examples/enocean_switch/CMakeFiles/enocean_switch_nrf52840_xxAA_s140_6.0.0.dir/__/__/mesh/core/src/mesh_flash.c.obj
 .text.mesh_flash_op_available_slots
                0x00000000       0x2c examples/enocean_switch/CMakeFiles/enocean_switch_nrf52840_xxAA_s140_6.0.0.dir/__/__/mesh/core/src/mesh_flash.c.obj
 .text.mesh_flash_in_progress
                0x00000000       0x34 examples/enocean_switch/CMakeFiles/enocean_switch_nrf52840_xxAA_s140_6.0.0.dir/__/__/mesh/core/src/mesh_flash.c.obj
 .text.mesh_flash_set_suspended
                0x00000000       0x74 examples/enocean_switch/CMakeFiles/enocean_switch_nrf52840_xxAA_s140_6.0.0.dir/__/__/mesh/core/src/mesh_flash.c.obj
 .bss.suspend_count.10416
                0x00000000        0x4 examples/enocean_switch/CMakeFiles/enocean_switch_nrf52840_xxAA_s140_6.0.0.dir/__/__/mesh/core/src/mesh_flash.c.obj
 .text          0x00000000        0x0 examples/enocean_switch/CMakeFiles/enocean_switch_nrf52840_xxAA_s140_6.0.0.dir/__/__/mesh/core/src/nrf_mesh_utils.c.obj
 .data          0x00000000        0x0 examples/enocean_switch/CMakeFiles/enocean_switch_nrf52840_xxAA_s140_6.0.0.dir/__/__/mesh/core/src/nrf_mesh_utils.c.obj
 .bss           0x00000000        0x0 examples/enocean_switch/CMakeFiles/enocean_switch_nrf52840_xxAA_s140_6.0.0.dir/__/__/mesh/core/src/nrf_mesh_utils.c.obj
 .text.nrf_mesh_rand_get
                0x00000000       0x10 examples/enocean_switch/CMakeFiles/enocean_switch_nrf52840_xxAA_s140_6.0.0.dir/__/__/mesh/core/src/nrf_mesh_utils.c.obj
 .text.nrf_mesh_gap_address_type_get
                0x00000000       0x30 examples/enocean_switch/CMakeFiles/enocean_switch_nrf52840_xxAA_s140_6.0.0.dir/__/__/mesh/core/src/nrf_mesh_utils.c.obj
 .text          0x00000000        0x0 examples/enocean_switch/CMakeFiles/enocean_switch_nrf52840_xxAA_s140_6.0.0.dir/__/__/mesh/core/src/nrf_mesh.c.obj
 .data          0x00000000        0x0 examples/enocean_switch/CMakeFiles/enocean_switch_nrf52840_xxAA_s140_6.0.0.dir/__/__/mesh/core/src/nrf_mesh.c.obj
 .bss           0x00000000        0x0 examples/enocean_switch/CMakeFiles/enocean_switch_nrf52840_xxAA_s140_6.0.0.dir/__/__/mesh/core/src/nrf_mesh.c.obj
 .text.nrf_mesh_disable
                0x00000000       0x28 examples/enocean_switch/CMakeFiles/enocean_switch_nrf52840_xxAA_s140_6.0.0.dir/__/__/mesh/core/src/nrf_mesh.c.obj
 .text.nrf_mesh_process
                0x00000000        0x4 examples/enocean_switch/CMakeFiles/enocean_switch_nrf52840_xxAA_s140_6.0.0.dir/__/__/mesh/core/src/nrf_mesh.c.obj
 .text.nrf_mesh_evt_handler_remove
                0x00000000        0x4 examples/enocean_switch/CMakeFiles/enocean_switch_nrf52840_xxAA_s140_6.0.0.dir/__/__/mesh/core/src/nrf_mesh.c.obj
 .text.nrf_mesh_rx_cb_clear
                0x00000000        0xc examples/enocean_switch/CMakeFiles/enocean_switch_nrf52840_xxAA_s140_6.0.0.dir/__/__/mesh/core/src/nrf_mesh.c.obj
 .text          0x00000000        0x0 examples/enocean_switch/CMakeFiles/enocean_switch_nrf52840_xxAA_s140_6.0.0.dir/__/__/mesh/core/src/queue.c.obj
 .data          0x00000000        0x0 examples/enocean_switch/CMakeFiles/enocean_switch_nrf52840_xxAA_s140_6.0.0.dir/__/__/mesh/core/src/queue.c.obj
 .bss           0x00000000        0x0 examples/enocean_switch/CMakeFiles/enocean_switch_nrf52840_xxAA_s140_6.0.0.dir/__/__/mesh/core/src/queue.c.obj
 .text          0x00000000        0x0 examples/enocean_switch/CMakeFiles/enocean_switch_nrf52840_xxAA_s140_6.0.0.dir/__/__/mesh/core/src/hal.c.obj
 .data          0x00000000        0x0 examples/enocean_switch/CMakeFiles/enocean_switch_nrf52840_xxAA_s140_6.0.0.dir/__/__/mesh/core/src/hal.c.obj
 .bss           0x00000000        0x0 examples/enocean_switch/CMakeFiles/enocean_switch_nrf52840_xxAA_s140_6.0.0.dir/__/__/mesh/core/src/hal.c.obj
 .text          0x00000000        0x0 examples/enocean_switch/CMakeFiles/enocean_switch_nrf52840_xxAA_s140_6.0.0.dir/__/__/mesh/core/src/aes_cmac.c.obj
 .data          0x00000000        0x0 examples/enocean_switch/CMakeFiles/enocean_switch_nrf52840_xxAA_s140_6.0.0.dir/__/__/mesh/core/src/aes_cmac.c.obj
 .bss           0x00000000        0x0 examples/enocean_switch/CMakeFiles/enocean_switch_nrf52840_xxAA_s140_6.0.0.dir/__/__/mesh/core/src/aes_cmac.c.obj
 .text          0x00000000        0x0 examples/enocean_switch/CMakeFiles/enocean_switch_nrf52840_xxAA_s140_6.0.0.dir/__/__/mesh/core/src/timer_scheduler.c.obj
 .data          0x00000000        0x0 examples/enocean_switch/CMakeFiles/enocean_switch_nrf52840_xxAA_s140_6.0.0.dir/__/__/mesh/core/src/timer_scheduler.c.obj
 .bss           0x00000000        0x0 examples/enocean_switch/CMakeFiles/enocean_switch_nrf52840_xxAA_s140_6.0.0.dir/__/__/mesh/core/src/timer_scheduler.c.obj
 .text          0x00000000        0x0 examples/enocean_switch/CMakeFiles/enocean_switch_nrf52840_xxAA_s140_6.0.0.dir/__/__/mesh/core/src/timer.c.obj
 .data          0x00000000        0x0 examples/enocean_switch/CMakeFiles/enocean_switch_nrf52840_xxAA_s140_6.0.0.dir/__/__/mesh/core/src/timer.c.obj
 .bss           0x00000000        0x0 examples/enocean_switch/CMakeFiles/enocean_switch_nrf52840_xxAA_s140_6.0.0.dir/__/__/mesh/core/src/timer.c.obj
 .text.timer_order_cb_ppi
                0x00000000       0xc4 examples/enocean_switch/CMakeFiles/enocean_switch_nrf52840_xxAA_s140_6.0.0.dir/__/__/mesh/core/src/timer.c.obj
 .text.timer_order_ppi
                0x00000000       0xc0 examples/enocean_switch/CMakeFiles/enocean_switch_nrf52840_xxAA_s140_6.0.0.dir/__/__/mesh/core/src/timer.c.obj
 .text.timer_abort
                0x00000000       0x78 examples/enocean_switch/CMakeFiles/enocean_switch_nrf52840_xxAA_s140_6.0.0.dir/__/__/mesh/core/src/timer.c.obj
 .text          0x00000000        0x0 examples/enocean_switch/CMakeFiles/enocean_switch_nrf52840_xxAA_s140_6.0.0.dir/__/__/mesh/core/src/ticker.c.obj
 .data          0x00000000        0x0 examples/enocean_switch/CMakeFiles/enocean_switch_nrf52840_xxAA_s140_6.0.0.dir/__/__/mesh/core/src/ticker.c.obj
 .bss           0x00000000        0x0 examples/enocean_switch/CMakeFiles/enocean_switch_nrf52840_xxAA_s140_6.0.0.dir/__/__/mesh/core/src/ticker.c.obj
 .text.ticker_get
                0x00000000        0xc examples/enocean_switch/CMakeFiles/enocean_switch_nrf52840_xxAA_s140_6.0.0.dir/__/__/mesh/core/src/ticker.c.obj
 .text          0x00000000        0x0 examples/enocean_switch/CMakeFiles/enocean_switch_nrf52840_xxAA_s140_6.0.0.dir/__/__/mesh/core/src/rand.c.obj
 .data          0x00000000        0x0 examples/enocean_switch/CMakeFiles/enocean_switch_nrf52840_xxAA_s140_6.0.0.dir/__/__/mesh/core/src/rand.c.obj
 .bss           0x00000000        0x0 examples/enocean_switch/CMakeFiles/enocean_switch_nrf52840_xxAA_s140_6.0.0.dir/__/__/mesh/core/src/rand.c.obj
 .text          0x00000000        0x0 examples/enocean_switch/CMakeFiles/enocean_switch_nrf52840_xxAA_s140_6.0.0.dir/__/__/mesh/core/src/nrf_mesh_opt.c.obj
 .data          0x00000000        0x0 examples/enocean_switch/CMakeFiles/enocean_switch_nrf52840_xxAA_s140_6.0.0.dir/__/__/mesh/core/src/nrf_mesh_opt.c.obj
 .bss           0x00000000        0x0 examples/enocean_switch/CMakeFiles/enocean_switch_nrf52840_xxAA_s140_6.0.0.dir/__/__/mesh/core/src/nrf_mesh_opt.c.obj
 .text          0x00000000        0x0 examples/enocean_switch/CMakeFiles/enocean_switch_nrf52840_xxAA_s140_6.0.0.dir/__/__/mesh/core/src/timeslot.c.obj
 .data          0x00000000        0x0 examples/enocean_switch/CMakeFiles/enocean_switch_nrf52840_xxAA_s140_6.0.0.dir/__/__/mesh/core/src/timeslot.c.obj
 .bss           0x00000000        0x0 examples/enocean_switch/CMakeFiles/enocean_switch_nrf52840_xxAA_s140_6.0.0.dir/__/__/mesh/core/src/timeslot.c.obj
 .text.timeslot_end_time_get
                0x00000000       0x10 examples/enocean_switch/CMakeFiles/enocean_switch_nrf52840_xxAA_s140_6.0.0.dir/__/__/mesh/core/src/timeslot.c.obj
 .text.timeslot_is_in_ts
                0x00000000        0xc examples/enocean_switch/CMakeFiles/enocean_switch_nrf52840_xxAA_s140_6.0.0.dir/__/__/mesh/core/src/timeslot.c.obj
 .text.timeslot_restart
                0x00000000       0x10 examples/enocean_switch/CMakeFiles/enocean_switch_nrf52840_xxAA_s140_6.0.0.dir/__/__/mesh/core/src/timeslot.c.obj
 .text          0x00000000        0x0 examples/enocean_switch/CMakeFiles/enocean_switch_nrf52840_xxAA_s140_6.0.0.dir/__/__/mesh/core/src/bearer_event.c.obj
 .data          0x00000000        0x0 examples/enocean_switch/CMakeFiles/enocean_switch_nrf52840_xxAA_s140_6.0.0.dir/__/__/mesh/core/src/bearer_event.c.obj
 .bss           0x00000000        0x0 examples/enocean_switch/CMakeFiles/enocean_switch_nrf52840_xxAA_s140_6.0.0.dir/__/__/mesh/core/src/bearer_event.c.obj
 .text.bearer_event_generic_post
                0x00000000       0x24 examples/enocean_switch/CMakeFiles/enocean_switch_nrf52840_xxAA_s140_6.0.0.dir/__/__/mesh/core/src/bearer_event.c.obj
 .text.bearer_event_timer_sch_post
                0x00000000       0x26 examples/enocean_switch/CMakeFiles/enocean_switch_nrf52840_xxAA_s140_6.0.0.dir/__/__/mesh/core/src/bearer_event.c.obj
 .text.bearer_event_in_correct_irq_priority
                0x00000000       0x48 examples/enocean_switch/CMakeFiles/enocean_switch_nrf52840_xxAA_s140_6.0.0.dir/__/__/mesh/core/src/bearer_event.c.obj
 .text          0x00000000        0x0 examples/enocean_switch/CMakeFiles/enocean_switch_nrf52840_xxAA_s140_6.0.0.dir/__/__/mesh/core/src/enc.c.obj
 .data          0x00000000        0x0 examples/enocean_switch/CMakeFiles/enocean_switch_nrf52840_xxAA_s140_6.0.0.dir/__/__/mesh/core/src/enc.c.obj
 .bss           0x00000000        0x0 examples/enocean_switch/CMakeFiles/enocean_switch_nrf52840_xxAA_s140_6.0.0.dir/__/__/mesh/core/src/enc.c.obj
 .text.enc_key_generate
                0x00000000        0x6 examples/enocean_switch/CMakeFiles/enocean_switch_nrf52840_xxAA_s140_6.0.0.dir/__/__/mesh/core/src/enc.c.obj
 .text          0x00000000        0x0 examples/enocean_switch/CMakeFiles/enocean_switch_nrf52840_xxAA_s140_6.0.0.dir/__/__/mesh/core/src/network.c.obj
 .data          0x00000000        0x0 examples/enocean_switch/CMakeFiles/enocean_switch_nrf52840_xxAA_s140_6.0.0.dir/__/__/mesh/core/src/network.c.obj
 .bss           0x00000000        0x0 examples/enocean_switch/CMakeFiles/enocean_switch_nrf52840_xxAA_s140_6.0.0.dir/__/__/mesh/core/src/network.c.obj
 .text.network_packet_discard
                0x00000000       0x1e examples/enocean_switch/CMakeFiles/enocean_switch_nrf52840_xxAA_s140_6.0.0.dir/__/__/mesh/core/src/network.c.obj
 .text          0x00000000        0x0 examples/enocean_switch/CMakeFiles/enocean_switch_nrf52840_xxAA_s140_6.0.0.dir/__/__/mesh/core/src/net_packet.c.obj
 .data          0x00000000        0x0 examples/enocean_switch/CMakeFiles/enocean_switch_nrf52840_xxAA_s140_6.0.0.dir/__/__/mesh/core/src/net_packet.c.obj
 .bss           0x00000000        0x0 examples/enocean_switch/CMakeFiles/enocean_switch_nrf52840_xxAA_s140_6.0.0.dir/__/__/mesh/core/src/net_packet.c.obj
 .text.net_packet_enc_start_get
                0x00000000        0x4 examples/enocean_switch/CMakeFiles/enocean_switch_nrf52840_xxAA_s140_6.0.0.dir/__/__/mesh/core/src/net_packet.c.obj
 .text.net_packet_payload_get
                0x00000000        0x4 examples/enocean_switch/CMakeFiles/enocean_switch_nrf52840_xxAA_s140_6.0.0.dir/__/__/mesh/core/src/net_packet.c.obj
 .text          0x00000000        0x0 examples/enocean_switch/CMakeFiles/enocean_switch_nrf52840_xxAA_s140_6.0.0.dir/__/__/mesh/core/src/msqueue.c.obj
 .data          0x00000000        0x0 examples/enocean_switch/CMakeFiles/enocean_switch_nrf52840_xxAA_s140_6.0.0.dir/__/__/mesh/core/src/msqueue.c.obj
 .bss           0x00000000        0x0 examples/enocean_switch/CMakeFiles/enocean_switch_nrf52840_xxAA_s140_6.0.0.dir/__/__/mesh/core/src/msqueue.c.obj
 .text          0x00000000        0x0 examples/enocean_switch/CMakeFiles/enocean_switch_nrf52840_xxAA_s140_6.0.0.dir/__/__/mesh/core/src/nrf_mesh_keygen.c.obj
 .data          0x00000000        0x0 examples/enocean_switch/CMakeFiles/enocean_switch_nrf52840_xxAA_s140_6.0.0.dir/__/__/mesh/core/src/nrf_mesh_keygen.c.obj
 .bss           0x00000000        0x0 examples/enocean_switch/CMakeFiles/enocean_switch_nrf52840_xxAA_s140_6.0.0.dir/__/__/mesh/core/src/nrf_mesh_keygen.c.obj
 .text.nrf_mesh_keygen_identitykey
                0x00000000       0x4c examples/enocean_switch/CMakeFiles/enocean_switch_nrf52840_xxAA_s140_6.0.0.dir/__/__/mesh/core/src/nrf_mesh_keygen.c.obj
 .text          0x00000000        0x0 examples/enocean_switch/CMakeFiles/enocean_switch_nrf52840_xxAA_s140_6.0.0.dir/__/__/mesh/core/src/cache.c.obj
 .data          0x00000000        0x0 examples/enocean_switch/CMakeFiles/enocean_switch_nrf52840_xxAA_s140_6.0.0.dir/__/__/mesh/core/src/cache.c.obj
 .bss           0x00000000        0x0 examples/enocean_switch/CMakeFiles/enocean_switch_nrf52840_xxAA_s140_6.0.0.dir/__/__/mesh/core/src/cache.c.obj
 .text.erase_at
                0x00000000       0x1c examples/enocean_switch/CMakeFiles/enocean_switch_nrf52840_xxAA_s140_6.0.0.dir/__/__/mesh/core/src/cache.c.obj
 .text.cache_init
                0x00000000       0x1e examples/enocean_switch/CMakeFiles/enocean_switch_nrf52840_xxAA_s140_6.0.0.dir/__/__/mesh/core/src/cache.c.obj
 .text.cache_has_elem
                0x00000000       0x3e examples/enocean_switch/CMakeFiles/enocean_switch_nrf52840_xxAA_s140_6.0.0.dir/__/__/mesh/core/src/cache.c.obj
 .text.cache_put
                0x00000000       0x2a examples/enocean_switch/CMakeFiles/enocean_switch_nrf52840_xxAA_s140_6.0.0.dir/__/__/mesh/core/src/cache.c.obj
 .text.cache_erase_elem
                0x00000000       0x4c examples/enocean_switch/CMakeFiles/enocean_switch_nrf52840_xxAA_s140_6.0.0.dir/__/__/mesh/core/src/cache.c.obj
 .debug_info    0x00000000      0xbe1 examples/enocean_switch/CMakeFiles/enocean_switch_nrf52840_xxAA_s140_6.0.0.dir/__/__/mesh/core/src/cache.c.obj
 .debug_abbrev  0x00000000      0x2a3 examples/enocean_switch/CMakeFiles/enocean_switch_nrf52840_xxAA_s140_6.0.0.dir/__/__/mesh/core/src/cache.c.obj
 .debug_loc     0x00000000      0x29b examples/enocean_switch/CMakeFiles/enocean_switch_nrf52840_xxAA_s140_6.0.0.dir/__/__/mesh/core/src/cache.c.obj
 .debug_aranges
                0x00000000       0x40 examples/enocean_switch/CMakeFiles/enocean_switch_nrf52840_xxAA_s140_6.0.0.dir/__/__/mesh/core/src/cache.c.obj
 .debug_ranges  0x00000000       0x80 examples/enocean_switch/CMakeFiles/enocean_switch_nrf52840_xxAA_s140_6.0.0.dir/__/__/mesh/core/src/cache.c.obj
 .debug_line    0x00000000      0x21e examples/enocean_switch/CMakeFiles/enocean_switch_nrf52840_xxAA_s140_6.0.0.dir/__/__/mesh/core/src/cache.c.obj
 .debug_str     0x00000000      0x6af examples/enocean_switch/CMakeFiles/enocean_switch_nrf52840_xxAA_s140_6.0.0.dir/__/__/mesh/core/src/cache.c.obj
 .comment       0x00000000       0x80 examples/enocean_switch/CMakeFiles/enocean_switch_nrf52840_xxAA_s140_6.0.0.dir/__/__/mesh/core/src/cache.c.obj
 .debug_frame   0x00000000       0xb0 examples/enocean_switch/CMakeFiles/enocean_switch_nrf52840_xxAA_s140_6.0.0.dir/__/__/mesh/core/src/cache.c.obj
 .ARM.attributes
                0x00000000       0x39 examples/enocean_switch/CMakeFiles/enocean_switch_nrf52840_xxAA_s140_6.0.0.dir/__/__/mesh/core/src/cache.c.obj
 .text          0x00000000        0x0 examples/enocean_switch/CMakeFiles/enocean_switch_nrf52840_xxAA_s140_6.0.0.dir/__/__/mesh/core/src/uri.c.obj
 .data          0x00000000        0x0 examples/enocean_switch/CMakeFiles/enocean_switch_nrf52840_xxAA_s140_6.0.0.dir/__/__/mesh/core/src/uri.c.obj
 .bss           0x00000000        0x0 examples/enocean_switch/CMakeFiles/enocean_switch_nrf52840_xxAA_s140_6.0.0.dir/__/__/mesh/core/src/uri.c.obj
 .text.uri_data_parse
                0x00000000       0x78 examples/enocean_switch/CMakeFiles/enocean_switch_nrf52840_xxAA_s140_6.0.0.dir/__/__/mesh/core/src/uri.c.obj
 .text.uri_scheme_name_code_point
                0x00000000       0x5c examples/enocean_switch/CMakeFiles/enocean_switch_nrf52840_xxAA_s140_6.0.0.dir/__/__/mesh/core/src/uri.c.obj
 .text.uri_data_generate
                0x00000000       0x52 examples/enocean_switch/CMakeFiles/enocean_switch_nrf52840_xxAA_s140_6.0.0.dir/__/__/mesh/core/src/uri.c.obj
 .text.uri_scheme_name_string
                0x00000000       0x14 examples/enocean_switch/CMakeFiles/enocean_switch_nrf52840_xxAA_s140_6.0.0.dir/__/__/mesh/core/src/uri.c.obj
 .rodata.m_code_point_strings
                0x00000000      0x2ec examples/enocean_switch/CMakeFiles/enocean_switch_nrf52840_xxAA_s140_6.0.0.dir/__/__/mesh/core/src/uri.c.obj
 .rodata.str1.1
                0x00000000      0x566 examples/enocean_switch/CMakeFiles/enocean_switch_nrf52840_xxAA_s140_6.0.0.dir/__/__/mesh/core/src/uri.c.obj
 .debug_info    0x00000000      0xcac examples/enocean_switch/CMakeFiles/enocean_switch_nrf52840_xxAA_s140_6.0.0.dir/__/__/mesh/core/src/uri.c.obj
 .debug_abbrev  0x00000000      0x2e4 examples/enocean_switch/CMakeFiles/enocean_switch_nrf52840_xxAA_s140_6.0.0.dir/__/__/mesh/core/src/uri.c.obj
 .debug_loc     0x00000000      0x253 examples/enocean_switch/CMakeFiles/enocean_switch_nrf52840_xxAA_s140_6.0.0.dir/__/__/mesh/core/src/uri.c.obj
 .debug_aranges
                0x00000000       0x38 examples/enocean_switch/CMakeFiles/enocean_switch_nrf52840_xxAA_s140_6.0.0.dir/__/__/mesh/core/src/uri.c.obj
 .debug_ranges  0x00000000       0x48 examples/enocean_switch/CMakeFiles/enocean_switch_nrf52840_xxAA_s140_6.0.0.dir/__/__/mesh/core/src/uri.c.obj
 .debug_line    0x00000000      0x2b1 examples/enocean_switch/CMakeFiles/enocean_switch_nrf52840_xxAA_s140_6.0.0.dir/__/__/mesh/core/src/uri.c.obj
 .debug_str     0x00000000      0x6dd examples/enocean_switch/CMakeFiles/enocean_switch_nrf52840_xxAA_s140_6.0.0.dir/__/__/mesh/core/src/uri.c.obj
 .comment       0x00000000       0x80 examples/enocean_switch/CMakeFiles/enocean_switch_nrf52840_xxAA_s140_6.0.0.dir/__/__/mesh/core/src/uri.c.obj
 .debug_frame   0x00000000       0x84 examples/enocean_switch/CMakeFiles/enocean_switch_nrf52840_xxAA_s140_6.0.0.dir/__/__/mesh/core/src/uri.c.obj
 .ARM.attributes
                0x00000000       0x39 examples/enocean_switch/CMakeFiles/enocean_switch_nrf52840_xxAA_s140_6.0.0.dir/__/__/mesh/core/src/uri.c.obj
 .text          0x00000000        0x0 examples/enocean_switch/CMakeFiles/enocean_switch_nrf52840_xxAA_s140_6.0.0.dir/__/__/mesh/core/src/list.c.obj
 .data          0x00000000        0x0 examples/enocean_switch/CMakeFiles/enocean_switch_nrf52840_xxAA_s140_6.0.0.dir/__/__/mesh/core/src/list.c.obj
 .bss           0x00000000        0x0 examples/enocean_switch/CMakeFiles/enocean_switch_nrf52840_xxAA_s140_6.0.0.dir/__/__/mesh/core/src/list.c.obj
 .text.list_size_get
                0x00000000       0x12 examples/enocean_switch/CMakeFiles/enocean_switch_nrf52840_xxAA_s140_6.0.0.dir/__/__/mesh/core/src/list.c.obj
 .text.list_sorted_add
                0x00000000       0x6c examples/enocean_switch/CMakeFiles/enocean_switch_nrf52840_xxAA_s140_6.0.0.dir/__/__/mesh/core/src/list.c.obj
 .text          0x00000000        0x0 examples/enocean_switch/CMakeFiles/enocean_switch_nrf52840_xxAA_s140_6.0.0.dir/__/__/mesh/core/src/log.c.obj
 .data          0x00000000        0x0 examples/enocean_switch/CMakeFiles/enocean_switch_nrf52840_xxAA_s140_6.0.0.dir/__/__/mesh/core/src/log.c.obj
 .bss           0x00000000        0x0 examples/enocean_switch/CMakeFiles/enocean_switch_nrf52840_xxAA_s140_6.0.0.dir/__/__/mesh/core/src/log.c.obj
 .text.log_callback_logview
                0x00000000       0x38 examples/enocean_switch/CMakeFiles/enocean_switch_nrf52840_xxAA_s140_6.0.0.dir/__/__/mesh/core/src/log.c.obj
 .text.log_set_callback
                0x00000000        0xc examples/enocean_switch/CMakeFiles/enocean_switch_nrf52840_xxAA_s140_6.0.0.dir/__/__/mesh/core/src/log.c.obj
 .rodata.log_callback_logview.str1.1
                0x00000000        0xf examples/enocean_switch/CMakeFiles/enocean_switch_nrf52840_xxAA_s140_6.0.0.dir/__/__/mesh/core/src/log.c.obj
 .text          0x00000000        0x0 examples/enocean_switch/CMakeFiles/enocean_switch_nrf52840_xxAA_s140_6.0.0.dir/__/__/mesh/core/src/flash_manager.c.obj
 .data          0x00000000        0x0 examples/enocean_switch/CMakeFiles/enocean_switch_nrf52840_xxAA_s140_6.0.0.dir/__/__/mesh/core/src/flash_manager.c.obj
 .bss           0x00000000        0x0 examples/enocean_switch/CMakeFiles/enocean_switch_nrf52840_xxAA_s140_6.0.0.dir/__/__/mesh/core/src/flash_manager.c.obj
 .text.flash_manager_entry_count_get
                0x00000000       0x50 examples/enocean_switch/CMakeFiles/enocean_switch_nrf52840_xxAA_s140_6.0.0.dir/__/__/mesh/core/src/flash_manager.c.obj
 .text.flash_manager_entry_release
                0x00000000       0x2c examples/enocean_switch/CMakeFiles/enocean_switch_nrf52840_xxAA_s140_6.0.0.dir/__/__/mesh/core/src/flash_manager.c.obj
 .text          0x00000000        0x0 examples/enocean_switch/CMakeFiles/enocean_switch_nrf52840_xxAA_s140_6.0.0.dir/__/__/mesh/core/src/ccm_soft.c.obj
 .data          0x00000000        0x0 examples/enocean_switch/CMakeFiles/enocean_switch_nrf52840_xxAA_s140_6.0.0.dir/__/__/mesh/core/src/ccm_soft.c.obj
 .bss           0x00000000        0x0 examples/enocean_switch/CMakeFiles/enocean_switch_nrf52840_xxAA_s140_6.0.0.dir/__/__/mesh/core/src/ccm_soft.c.obj
 .text          0x00000000        0x0 examples/enocean_switch/CMakeFiles/enocean_switch_nrf52840_xxAA_s140_6.0.0.dir/__/__/mesh/core/src/toolchain.c.obj
 .data          0x00000000        0x0 examples/enocean_switch/CMakeFiles/enocean_switch_nrf52840_xxAA_s140_6.0.0.dir/__/__/mesh/core/src/toolchain.c.obj
 .bss           0x00000000        0x0 examples/enocean_switch/CMakeFiles/enocean_switch_nrf52840_xxAA_s140_6.0.0.dir/__/__/mesh/core/src/toolchain.c.obj
 .debug_info    0x00000000       0xb3 examples/enocean_switch/CMakeFiles/enocean_switch_nrf52840_xxAA_s140_6.0.0.dir/__/__/mesh/core/src/toolchain.c.obj
 .debug_abbrev  0x00000000       0x5c examples/enocean_switch/CMakeFiles/enocean_switch_nrf52840_xxAA_s140_6.0.0.dir/__/__/mesh/core/src/toolchain.c.obj
 .debug_aranges
                0x00000000       0x18 examples/enocean_switch/CMakeFiles/enocean_switch_nrf52840_xxAA_s140_6.0.0.dir/__/__/mesh/core/src/toolchain.c.obj
 .debug_line    0x00000000      0x127 examples/enocean_switch/CMakeFiles/enocean_switch_nrf52840_xxAA_s140_6.0.0.dir/__/__/mesh/core/src/toolchain.c.obj
 .debug_str     0x00000000      0x1fa examples/enocean_switch/CMakeFiles/enocean_switch_nrf52840_xxAA_s140_6.0.0.dir/__/__/mesh/core/src/toolchain.c.obj
 .comment       0x00000000       0x80 examples/enocean_switch/CMakeFiles/enocean_switch_nrf52840_xxAA_s140_6.0.0.dir/__/__/mesh/core/src/toolchain.c.obj
 .ARM.attributes
                0x00000000       0x39 examples/enocean_switch/CMakeFiles/enocean_switch_nrf52840_xxAA_s140_6.0.0.dir/__/__/mesh/core/src/toolchain.c.obj
 .text          0x00000000        0x0 examples/enocean_switch/CMakeFiles/enocean_switch_nrf52840_xxAA_s140_6.0.0.dir/__/__/mesh/core/src/replay_cache.c.obj
 .data          0x00000000        0x0 examples/enocean_switch/CMakeFiles/enocean_switch_nrf52840_xxAA_s140_6.0.0.dir/__/__/mesh/core/src/replay_cache.c.obj
 .bss           0x00000000        0x0 examples/enocean_switch/CMakeFiles/enocean_switch_nrf52840_xxAA_s140_6.0.0.dir/__/__/mesh/core/src/replay_cache.c.obj
 .text.replay_cache_on_iv_update
                0x00000000       0x24 examples/enocean_switch/CMakeFiles/enocean_switch_nrf52840_xxAA_s140_6.0.0.dir/__/__/mesh/core/src/replay_cache.c.obj
 .text          0x00000000        0x0 examples/enocean_switch/CMakeFiles/enocean_switch_nrf52840_xxAA_s140_6.0.0.dir/__/__/mesh/core/src/beacon.c.obj
 .data          0x00000000        0x0 examples/enocean_switch/CMakeFiles/enocean_switch_nrf52840_xxAA_s140_6.0.0.dir/__/__/mesh/core/src/beacon.c.obj
 .bss           0x00000000        0x0 examples/enocean_switch/CMakeFiles/enocean_switch_nrf52840_xxAA_s140_6.0.0.dir/__/__/mesh/core/src/beacon.c.obj
 .text          0x00000000        0x0 examples/enocean_switch/CMakeFiles/enocean_switch_nrf52840_xxAA_s140_6.0.0.dir/__/__/mesh/core/src/flash_manager_internal.c.obj
 .data          0x00000000        0x0 examples/enocean_switch/CMakeFiles/enocean_switch_nrf52840_xxAA_s140_6.0.0.dir/__/__/mesh/core/src/flash_manager_internal.c.obj
 .bss           0x00000000        0x0 examples/enocean_switch/CMakeFiles/enocean_switch_nrf52840_xxAA_s140_6.0.0.dir/__/__/mesh/core/src/flash_manager_internal.c.obj
 .text          0x00000000        0x0 examples/enocean_switch/CMakeFiles/enocean_switch_nrf52840_xxAA_s140_6.0.0.dir/__/__/mesh/core/src/core_tx.c.obj
 .data          0x00000000        0x0 examples/enocean_switch/CMakeFiles/enocean_switch_nrf52840_xxAA_s140_6.0.0.dir/__/__/mesh/core/src/core_tx.c.obj
 .bss           0x00000000        0x0 examples/enocean_switch/CMakeFiles/enocean_switch_nrf52840_xxAA_s140_6.0.0.dir/__/__/mesh/core/src/core_tx.c.obj
 .text.core_tx_bearer_type_get
                0x00000000       0x1c examples/enocean_switch/CMakeFiles/enocean_switch_nrf52840_xxAA_s140_6.0.0.dir/__/__/mesh/core/src/core_tx.c.obj
 .text.core_tx_bearer_count_get
                0x00000000        0xc examples/enocean_switch/CMakeFiles/enocean_switch_nrf52840_xxAA_s140_6.0.0.dir/__/__/mesh/core/src/core_tx.c.obj
 .text          0x00000000        0x0 examples/enocean_switch/CMakeFiles/enocean_switch_nrf52840_xxAA_s140_6.0.0.dir/__/__/mesh/core/src/heartbeat.c.obj
 .data          0x00000000        0x0 examples/enocean_switch/CMakeFiles/enocean_switch_nrf52840_xxAA_s140_6.0.0.dir/__/__/mesh/core/src/heartbeat.c.obj
 .bss           0x00000000        0x0 examples/enocean_switch/CMakeFiles/enocean_switch_nrf52840_xxAA_s140_6.0.0.dir/__/__/mesh/core/src/heartbeat.c.obj
 .text          0x00000000        0x0 examples/enocean_switch/CMakeFiles/enocean_switch_nrf52840_xxAA_s140_6.0.0.dir/__/__/mesh/core/src/net_beacon.c.obj
 .data          0x00000000        0x0 examples/enocean_switch/CMakeFiles/enocean_switch_nrf52840_xxAA_s140_6.0.0.dir/__/__/mesh/core/src/net_beacon.c.obj
 .bss           0x00000000        0x0 examples/enocean_switch/CMakeFiles/enocean_switch_nrf52840_xxAA_s140_6.0.0.dir/__/__/mesh/core/src/net_beacon.c.obj
 .text.net_beacon_build
                0x00000000       0x24 examples/enocean_switch/CMakeFiles/enocean_switch_nrf52840_xxAA_s140_6.0.0.dir/__/__/mesh/core/src/net_beacon.c.obj
 .text          0x00000000        0x0 examples/enocean_switch/CMakeFiles/enocean_switch_nrf52840_xxAA_s140_6.0.0.dir/__/__/mesh/core/src/fsm.c.obj
 .data          0x00000000        0x0 examples/enocean_switch/CMakeFiles/enocean_switch_nrf52840_xxAA_s140_6.0.0.dir/__/__/mesh/core/src/fsm.c.obj
 .bss           0x00000000        0x0 examples/enocean_switch/CMakeFiles/enocean_switch_nrf52840_xxAA_s140_6.0.0.dir/__/__/mesh/core/src/fsm.c.obj
 .text.fsm_event_post_try
                0x00000000      0x1ec examples/enocean_switch/CMakeFiles/enocean_switch_nrf52840_xxAA_s140_6.0.0.dir/__/__/mesh/core/src/fsm.c.obj
 .text.fsm_init
                0x00000000       0xcc examples/enocean_switch/CMakeFiles/enocean_switch_nrf52840_xxAA_s140_6.0.0.dir/__/__/mesh/core/src/fsm.c.obj
 .text.fsm_event_post
                0x00000000       0xac examples/enocean_switch/CMakeFiles/enocean_switch_nrf52840_xxAA_s140_6.0.0.dir/__/__/mesh/core/src/fsm.c.obj
 .text.fsm_is_processing
                0x00000000        0xa examples/enocean_switch/CMakeFiles/enocean_switch_nrf52840_xxAA_s140_6.0.0.dir/__/__/mesh/core/src/fsm.c.obj
 .rodata.fsm_event_post.str1.1
                0x00000000        0xb examples/enocean_switch/CMakeFiles/enocean_switch_nrf52840_xxAA_s140_6.0.0.dir/__/__/mesh/core/src/fsm.c.obj
 .rodata.fsm_event_post_try.str1.1
                0x00000000       0x41 examples/enocean_switch/CMakeFiles/enocean_switch_nrf52840_xxAA_s140_6.0.0.dir/__/__/mesh/core/src/fsm.c.obj
 .rodata.fsm_init.str1.1
                0x00000000        0xa examples/enocean_switch/CMakeFiles/enocean_switch_nrf52840_xxAA_s140_6.0.0.dir/__/__/mesh/core/src/fsm.c.obj
 .debug_info    0x00000000     0x132d examples/enocean_switch/CMakeFiles/enocean_switch_nrf52840_xxAA_s140_6.0.0.dir/__/__/mesh/core/src/fsm.c.obj
 .debug_abbrev  0x00000000      0x345 examples/enocean_switch/CMakeFiles/enocean_switch_nrf52840_xxAA_s140_6.0.0.dir/__/__/mesh/core/src/fsm.c.obj
 .debug_loc     0x00000000      0x3fd examples/enocean_switch/CMakeFiles/enocean_switch_nrf52840_xxAA_s140_6.0.0.dir/__/__/mesh/core/src/fsm.c.obj
 .debug_aranges
                0x00000000       0x38 examples/enocean_switch/CMakeFiles/enocean_switch_nrf52840_xxAA_s140_6.0.0.dir/__/__/mesh/core/src/fsm.c.obj
 .debug_ranges  0x00000000       0xe0 examples/enocean_switch/CMakeFiles/enocean_switch_nrf52840_xxAA_s140_6.0.0.dir/__/__/mesh/core/src/fsm.c.obj
 .debug_line    0x00000000      0x3dc examples/enocean_switch/CMakeFiles/enocean_switch_nrf52840_xxAA_s140_6.0.0.dir/__/__/mesh/core/src/fsm.c.obj
 .debug_str     0x00000000      0x984 examples/enocean_switch/CMakeFiles/enocean_switch_nrf52840_xxAA_s140_6.0.0.dir/__/__/mesh/core/src/fsm.c.obj
 .comment       0x00000000       0x80 examples/enocean_switch/CMakeFiles/enocean_switch_nrf52840_xxAA_s140_6.0.0.dir/__/__/mesh/core/src/fsm.c.obj
 .debug_frame   0x00000000       0x9c examples/enocean_switch/CMakeFiles/enocean_switch_nrf52840_xxAA_s140_6.0.0.dir/__/__/mesh/core/src/fsm.c.obj
 .ARM.attributes
                0x00000000       0x39 examples/enocean_switch/CMakeFiles/enocean_switch_nrf52840_xxAA_s140_6.0.0.dir/__/__/mesh/core/src/fsm.c.obj
 .text          0x00000000        0x0 examples/enocean_switch/CMakeFiles/enocean_switch_nrf52840_xxAA_s140_6.0.0.dir/__/__/mesh/core/src/core_tx_adv.c.obj
 .data          0x00000000        0x0 examples/enocean_switch/CMakeFiles/enocean_switch_nrf52840_xxAA_s140_6.0.0.dir/__/__/mesh/core/src/core_tx_adv.c.obj
 .bss           0x00000000        0x0 examples/enocean_switch/CMakeFiles/enocean_switch_nrf52840_xxAA_s140_6.0.0.dir/__/__/mesh/core/src/core_tx_adv.c.obj
 .text.core_tx_adv_address_set
                0x00000000       0x28 examples/enocean_switch/CMakeFiles/enocean_switch_nrf52840_xxAA_s140_6.0.0.dir/__/__/mesh/core/src/core_tx_adv.c.obj
 .text          0x00000000        0x0 examples/enocean_switch/CMakeFiles/enocean_switch_nrf52840_xxAA_s140_6.0.0.dir/__/__/mesh/bearer/src/ad_listener.c.obj
 .data          0x00000000        0x0 examples/enocean_switch/CMakeFiles/enocean_switch_nrf52840_xxAA_s140_6.0.0.dir/__/__/mesh/bearer/src/ad_listener.c.obj
 .bss           0x00000000        0x0 examples/enocean_switch/CMakeFiles/enocean_switch_nrf52840_xxAA_s140_6.0.0.dir/__/__/mesh/bearer/src/ad_listener.c.obj
 .text.ad_listener_unsubscribe
                0x00000000       0x6c examples/enocean_switch/CMakeFiles/enocean_switch_nrf52840_xxAA_s140_6.0.0.dir/__/__/mesh/bearer/src/ad_listener.c.obj
 .text          0x00000000        0x0 examples/enocean_switch/CMakeFiles/enocean_switch_nrf52840_xxAA_s140_6.0.0.dir/__/__/mesh/bearer/src/ad_type_filter.c.obj
 .data          0x00000000        0x0 examples/enocean_switch/CMakeFiles/enocean_switch_nrf52840_xxAA_s140_6.0.0.dir/__/__/mesh/bearer/src/ad_type_filter.c.obj
 .bss           0x00000000        0x0 examples/enocean_switch/CMakeFiles/enocean_switch_nrf52840_xxAA_s140_6.0.0.dir/__/__/mesh/bearer/src/ad_type_filter.c.obj
 .text.bearer_adtype_remove
                0x00000000       0x20 examples/enocean_switch/CMakeFiles/enocean_switch_nrf52840_xxAA_s140_6.0.0.dir/__/__/mesh/bearer/src/ad_type_filter.c.obj
 .text.bearer_adtype_clear
                0x00000000       0x10 examples/enocean_switch/CMakeFiles/enocean_switch_nrf52840_xxAA_s140_6.0.0.dir/__/__/mesh/bearer/src/ad_type_filter.c.obj
 .text.bearer_invalid_length_amount_get
                0x00000000        0xc examples/enocean_switch/CMakeFiles/enocean_switch_nrf52840_xxAA_s140_6.0.0.dir/__/__/mesh/bearer/src/ad_type_filter.c.obj
 .text.bearer_adtype_filtered_amount_get
                0x00000000        0xc examples/enocean_switch/CMakeFiles/enocean_switch_nrf52840_xxAA_s140_6.0.0.dir/__/__/mesh/bearer/src/ad_type_filter.c.obj
 .text          0x00000000        0x0 examples/enocean_switch/CMakeFiles/enocean_switch_nrf52840_xxAA_s140_6.0.0.dir/__/__/mesh/bearer/src/adv_packet_filter.c.obj
 .data          0x00000000        0x0 examples/enocean_switch/CMakeFiles/enocean_switch_nrf52840_xxAA_s140_6.0.0.dir/__/__/mesh/bearer/src/adv_packet_filter.c.obj
 .bss           0x00000000        0x0 examples/enocean_switch/CMakeFiles/enocean_switch_nrf52840_xxAA_s140_6.0.0.dir/__/__/mesh/bearer/src/adv_packet_filter.c.obj
 .text.adv_filter_handle
                0x00000000       0x3c examples/enocean_switch/CMakeFiles/enocean_switch_nrf52840_xxAA_s140_6.0.0.dir/__/__/mesh/bearer/src/adv_packet_filter.c.obj
 .text.bearer_adv_packet_filtering_set
                0x00000000       0x1c examples/enocean_switch/CMakeFiles/enocean_switch_nrf52840_xxAA_s140_6.0.0.dir/__/__/mesh/bearer/src/adv_packet_filter.c.obj
 .text.bearer_adv_packet_remove
                0x00000000       0x18 examples/enocean_switch/CMakeFiles/enocean_switch_nrf52840_xxAA_s140_6.0.0.dir/__/__/mesh/bearer/src/adv_packet_filter.c.obj
 .text.bearer_adv_packet_add
                0x00000000       0x14 examples/enocean_switch/CMakeFiles/enocean_switch_nrf52840_xxAA_s140_6.0.0.dir/__/__/mesh/bearer/src/adv_packet_filter.c.obj
 .text.bearer_adv_packet_clear
                0x00000000        0xc examples/enocean_switch/CMakeFiles/enocean_switch_nrf52840_xxAA_s140_6.0.0.dir/__/__/mesh/bearer/src/adv_packet_filter.c.obj
 .text.bearer_adv_packet_filter_mode_set
                0x00000000       0x18 examples/enocean_switch/CMakeFiles/enocean_switch_nrf52840_xxAA_s140_6.0.0.dir/__/__/mesh/bearer/src/adv_packet_filter.c.obj
 .text.bearer_adv_packet_filtered_amount_get
                0x00000000        0xc examples/enocean_switch/CMakeFiles/enocean_switch_nrf52840_xxAA_s140_6.0.0.dir/__/__/mesh/bearer/src/adv_packet_filter.c.obj
 .bss.m_adv_packet_filter
                0x00000000       0x14 examples/enocean_switch/CMakeFiles/enocean_switch_nrf52840_xxAA_s140_6.0.0.dir/__/__/mesh/bearer/src/adv_packet_filter.c.obj
 .debug_info    0x00000000      0xd97 examples/enocean_switch/CMakeFiles/enocean_switch_nrf52840_xxAA_s140_6.0.0.dir/__/__/mesh/bearer/src/adv_packet_filter.c.obj
 .debug_abbrev  0x00000000      0x2c9 examples/enocean_switch/CMakeFiles/enocean_switch_nrf52840_xxAA_s140_6.0.0.dir/__/__/mesh/bearer/src/adv_packet_filter.c.obj
 .debug_loc     0x00000000      0x1c0 examples/enocean_switch/CMakeFiles/enocean_switch_nrf52840_xxAA_s140_6.0.0.dir/__/__/mesh/bearer/src/adv_packet_filter.c.obj
 .debug_aranges
                0x00000000       0x50 examples/enocean_switch/CMakeFiles/enocean_switch_nrf52840_xxAA_s140_6.0.0.dir/__/__/mesh/bearer/src/adv_packet_filter.c.obj
 .debug_ranges  0x00000000       0x40 examples/enocean_switch/CMakeFiles/enocean_switch_nrf52840_xxAA_s140_6.0.0.dir/__/__/mesh/bearer/src/adv_packet_filter.c.obj
 .debug_line    0x00000000      0x35e examples/enocean_switch/CMakeFiles/enocean_switch_nrf52840_xxAA_s140_6.0.0.dir/__/__/mesh/bearer/src/adv_packet_filter.c.obj
 .debug_str     0x00000000      0xa28 examples/enocean_switch/CMakeFiles/enocean_switch_nrf52840_xxAA_s140_6.0.0.dir/__/__/mesh/bearer/src/adv_packet_filter.c.obj
 .comment       0x00000000       0x80 examples/enocean_switch/CMakeFiles/enocean_switch_nrf52840_xxAA_s140_6.0.0.dir/__/__/mesh/bearer/src/adv_packet_filter.c.obj
 .debug_frame   0x00000000       0x88 examples/enocean_switch/CMakeFiles/enocean_switch_nrf52840_xxAA_s140_6.0.0.dir/__/__/mesh/bearer/src/adv_packet_filter.c.obj
 .ARM.attributes
                0x00000000       0x39 examples/enocean_switch/CMakeFiles/enocean_switch_nrf52840_xxAA_s140_6.0.0.dir/__/__/mesh/bearer/src/adv_packet_filter.c.obj
 .text          0x00000000        0x0 examples/enocean_switch/CMakeFiles/enocean_switch_nrf52840_xxAA_s140_6.0.0.dir/__/__/mesh/bearer/src/advertiser.c.obj
 .data          0x00000000        0x0 examples/enocean_switch/CMakeFiles/enocean_switch_nrf52840_xxAA_s140_6.0.0.dir/__/__/mesh/bearer/src/advertiser.c.obj
 .bss           0x00000000        0x0 examples/enocean_switch/CMakeFiles/enocean_switch_nrf52840_xxAA_s140_6.0.0.dir/__/__/mesh/bearer/src/advertiser.c.obj
 .text.advertiser_disable
                0x00000000        0xa examples/enocean_switch/CMakeFiles/enocean_switch_nrf52840_xxAA_s140_6.0.0.dir/__/__/mesh/bearer/src/advertiser.c.obj
 .text.advertiser_channels_set
                0x00000000       0x60 examples/enocean_switch/CMakeFiles/enocean_switch_nrf52840_xxAA_s140_6.0.0.dir/__/__/mesh/bearer/src/advertiser.c.obj
 .text.advertiser_address_set
                0x00000000       0x3c examples/enocean_switch/CMakeFiles/enocean_switch_nrf52840_xxAA_s140_6.0.0.dir/__/__/mesh/bearer/src/advertiser.c.obj
 .text.advertiser_config_set
                0x00000000       0x36 examples/enocean_switch/CMakeFiles/enocean_switch_nrf52840_xxAA_s140_6.0.0.dir/__/__/mesh/bearer/src/advertiser.c.obj
 .text.advertiser_config_get
                0x00000000       0x20 examples/enocean_switch/CMakeFiles/enocean_switch_nrf52840_xxAA_s140_6.0.0.dir/__/__/mesh/bearer/src/advertiser.c.obj
 .text          0x00000000        0x0 examples/enocean_switch/CMakeFiles/enocean_switch_nrf52840_xxAA_s140_6.0.0.dir/__/__/mesh/bearer/src/bearer_handler.c.obj
 .data          0x00000000        0x0 examples/enocean_switch/CMakeFiles/enocean_switch_nrf52840_xxAA_s140_6.0.0.dir/__/__/mesh/bearer/src/bearer_handler.c.obj
 .bss           0x00000000        0x0 examples/enocean_switch/CMakeFiles/enocean_switch_nrf52840_xxAA_s140_6.0.0.dir/__/__/mesh/bearer/src/bearer_handler.c.obj
 .text.bearer_handler_stop
                0x00000000       0x20 examples/enocean_switch/CMakeFiles/enocean_switch_nrf52840_xxAA_s140_6.0.0.dir/__/__/mesh/bearer/src/bearer_handler.c.obj
 .text.bearer_handler_action_fire
                0x00000000       0x94 examples/enocean_switch/CMakeFiles/enocean_switch_nrf52840_xxAA_s140_6.0.0.dir/__/__/mesh/bearer/src/bearer_handler.c.obj
 .text          0x00000000        0x0 examples/enocean_switch/CMakeFiles/enocean_switch_nrf52840_xxAA_s140_6.0.0.dir/__/__/mesh/bearer/src/broadcast.c.obj
 .data          0x00000000        0x0 examples/enocean_switch/CMakeFiles/enocean_switch_nrf52840_xxAA_s140_6.0.0.dir/__/__/mesh/bearer/src/broadcast.c.obj
 .bss           0x00000000        0x0 examples/enocean_switch/CMakeFiles/enocean_switch_nrf52840_xxAA_s140_6.0.0.dir/__/__/mesh/bearer/src/broadcast.c.obj
 .text          0x00000000        0x0 examples/enocean_switch/CMakeFiles/enocean_switch_nrf52840_xxAA_s140_6.0.0.dir/__/__/mesh/bearer/src/filter_engine.c.obj
 .data          0x00000000        0x0 examples/enocean_switch/CMakeFiles/enocean_switch_nrf52840_xxAA_s140_6.0.0.dir/__/__/mesh/bearer/src/filter_engine.c.obj
 .bss           0x00000000        0x0 examples/enocean_switch/CMakeFiles/enocean_switch_nrf52840_xxAA_s140_6.0.0.dir/__/__/mesh/bearer/src/filter_engine.c.obj
 .text.fen_accepted_amount_get
                0x00000000        0xc examples/enocean_switch/CMakeFiles/enocean_switch_nrf52840_xxAA_s140_6.0.0.dir/__/__/mesh/bearer/src/filter_engine.c.obj
 .text          0x00000000        0x0 examples/enocean_switch/CMakeFiles/enocean_switch_nrf52840_xxAA_s140_6.0.0.dir/__/__/mesh/bearer/src/gap_address_filter.c.obj
 .data          0x00000000        0x0 examples/enocean_switch/CMakeFiles/enocean_switch_nrf52840_xxAA_s140_6.0.0.dir/__/__/mesh/bearer/src/gap_address_filter.c.obj
 .bss           0x00000000        0x0 examples/enocean_switch/CMakeFiles/enocean_switch_nrf52840_xxAA_s140_6.0.0.dir/__/__/mesh/bearer/src/gap_address_filter.c.obj
 .text.gap_address_filter_handle
                0x00000000       0xa6 examples/enocean_switch/CMakeFiles/enocean_switch_nrf52840_xxAA_s140_6.0.0.dir/__/__/mesh/bearer/src/gap_address_filter.c.obj
 .text.gap_addr_filter_set
                0x00000000       0x40 examples/enocean_switch/CMakeFiles/enocean_switch_nrf52840_xxAA_s140_6.0.0.dir/__/__/mesh/bearer/src/gap_address_filter.c.obj
 .text.bearer_filter_gap_addr_whitelist_set
                0x00000000        0x6 examples/enocean_switch/CMakeFiles/enocean_switch_nrf52840_xxAA_s140_6.0.0.dir/__/__/mesh/bearer/src/gap_address_filter.c.obj
 .text.bearer_filter_gap_addr_blacklist_set
                0x00000000        0x6 examples/enocean_switch/CMakeFiles/enocean_switch_nrf52840_xxAA_s140_6.0.0.dir/__/__/mesh/bearer/src/gap_address_filter.c.obj
 .text.bearer_filter_gap_addr_range_set
                0x00000000       0x38 examples/enocean_switch/CMakeFiles/enocean_switch_nrf52840_xxAA_s140_6.0.0.dir/__/__/mesh/bearer/src/gap_address_filter.c.obj
 .text.bearer_filter_gap_addr_clear
                0x00000000       0x20 examples/enocean_switch/CMakeFiles/enocean_switch_nrf52840_xxAA_s140_6.0.0.dir/__/__/mesh/bearer/src/gap_address_filter.c.obj
 .text.bearer_gap_addr_filtered_amount_get
                0x00000000        0xc examples/enocean_switch/CMakeFiles/enocean_switch_nrf52840_xxAA_s140_6.0.0.dir/__/__/mesh/bearer/src/gap_address_filter.c.obj
 .bss.m_addr_filter
                0x00000000       0x18 examples/enocean_switch/CMakeFiles/enocean_switch_nrf52840_xxAA_s140_6.0.0.dir/__/__/mesh/bearer/src/gap_address_filter.c.obj
 .debug_info    0x00000000      0xebb examples/enocean_switch/CMakeFiles/enocean_switch_nrf52840_xxAA_s140_6.0.0.dir/__/__/mesh/bearer/src/gap_address_filter.c.obj
 .debug_abbrev  0x00000000      0x2f4 examples/enocean_switch/CMakeFiles/enocean_switch_nrf52840_xxAA_s140_6.0.0.dir/__/__/mesh/bearer/src/gap_address_filter.c.obj
 .debug_loc     0x00000000      0x3e8 examples/enocean_switch/CMakeFiles/enocean_switch_nrf52840_xxAA_s140_6.0.0.dir/__/__/mesh/bearer/src/gap_address_filter.c.obj
 .debug_aranges
                0x00000000       0x50 examples/enocean_switch/CMakeFiles/enocean_switch_nrf52840_xxAA_s140_6.0.0.dir/__/__/mesh/bearer/src/gap_address_filter.c.obj
 .debug_ranges  0x00000000       0x58 examples/enocean_switch/CMakeFiles/enocean_switch_nrf52840_xxAA_s140_6.0.0.dir/__/__/mesh/bearer/src/gap_address_filter.c.obj
 .debug_line    0x00000000      0x3b6 examples/enocean_switch/CMakeFiles/enocean_switch_nrf52840_xxAA_s140_6.0.0.dir/__/__/mesh/bearer/src/gap_address_filter.c.obj
 .debug_str     0x00000000      0x982 examples/enocean_switch/CMakeFiles/enocean_switch_nrf52840_xxAA_s140_6.0.0.dir/__/__/mesh/bearer/src/gap_address_filter.c.obj
 .comment       0x00000000       0x80 examples/enocean_switch/CMakeFiles/enocean_switch_nrf52840_xxAA_s140_6.0.0.dir/__/__/mesh/bearer/src/gap_address_filter.c.obj
 .debug_frame   0x00000000       0xb4 examples/enocean_switch/CMakeFiles/enocean_switch_nrf52840_xxAA_s140_6.0.0.dir/__/__/mesh/bearer/src/gap_address_filter.c.obj
 .ARM.attributes
                0x00000000       0x39 examples/enocean_switch/CMakeFiles/enocean_switch_nrf52840_xxAA_s140_6.0.0.dir/__/__/mesh/bearer/src/gap_address_filter.c.obj
 .text          0x00000000        0x0 examples/enocean_switch/CMakeFiles/enocean_switch_nrf52840_xxAA_s140_6.0.0.dir/__/__/mesh/bearer/src/radio_config.c.obj
 .data          0x00000000        0x0 examples/enocean_switch/CMakeFiles/enocean_switch_nrf52840_xxAA_s140_6.0.0.dir/__/__/mesh/bearer/src/radio_config.c.obj
 .bss           0x00000000        0x0 examples/enocean_switch/CMakeFiles/enocean_switch_nrf52840_xxAA_s140_6.0.0.dir/__/__/mesh/bearer/src/radio_config.c.obj
 .text.radio_config_access_addr_get
                0x00000000       0x4c examples/enocean_switch/CMakeFiles/enocean_switch_nrf52840_xxAA_s140_6.0.0.dir/__/__/mesh/bearer/src/radio_config.c.obj
 .text          0x00000000        0x0 examples/enocean_switch/CMakeFiles/enocean_switch_nrf52840_xxAA_s140_6.0.0.dir/__/__/mesh/bearer/src/rssi_filter.c.obj
 .data          0x00000000        0x0 examples/enocean_switch/CMakeFiles/enocean_switch_nrf52840_xxAA_s140_6.0.0.dir/__/__/mesh/bearer/src/rssi_filter.c.obj
 .bss           0x00000000        0x0 examples/enocean_switch/CMakeFiles/enocean_switch_nrf52840_xxAA_s140_6.0.0.dir/__/__/mesh/bearer/src/rssi_filter.c.obj
 .text.rssi_filter_handle
                0x00000000       0x20 examples/enocean_switch/CMakeFiles/enocean_switch_nrf52840_xxAA_s140_6.0.0.dir/__/__/mesh/bearer/src/rssi_filter.c.obj
 .text.bearer_rssi_filtering_set
                0x00000000       0x34 examples/enocean_switch/CMakeFiles/enocean_switch_nrf52840_xxAA_s140_6.0.0.dir/__/__/mesh/bearer/src/rssi_filter.c.obj
 .text.bearer_rssi_filtered_amount_get
                0x00000000        0xc examples/enocean_switch/CMakeFiles/enocean_switch_nrf52840_xxAA_s140_6.0.0.dir/__/__/mesh/bearer/src/rssi_filter.c.obj
 .bss.m_rssi_filter
                0x00000000       0x18 examples/enocean_switch/CMakeFiles/enocean_switch_nrf52840_xxAA_s140_6.0.0.dir/__/__/mesh/bearer/src/rssi_filter.c.obj
 .debug_info    0x00000000      0xc73 examples/enocean_switch/CMakeFiles/enocean_switch_nrf52840_xxAA_s140_6.0.0.dir/__/__/mesh/bearer/src/rssi_filter.c.obj
 .debug_abbrev  0x00000000      0x28e examples/enocean_switch/CMakeFiles/enocean_switch_nrf52840_xxAA_s140_6.0.0.dir/__/__/mesh/bearer/src/rssi_filter.c.obj
 .debug_loc     0x00000000       0xb3 examples/enocean_switch/CMakeFiles/enocean_switch_nrf52840_xxAA_s140_6.0.0.dir/__/__/mesh/bearer/src/rssi_filter.c.obj
 .debug_aranges
                0x00000000       0x30 examples/enocean_switch/CMakeFiles/enocean_switch_nrf52840_xxAA_s140_6.0.0.dir/__/__/mesh/bearer/src/rssi_filter.c.obj
 .debug_ranges  0x00000000       0x20 examples/enocean_switch/CMakeFiles/enocean_switch_nrf52840_xxAA_s140_6.0.0.dir/__/__/mesh/bearer/src/rssi_filter.c.obj
 .debug_line    0x00000000      0x2d3 examples/enocean_switch/CMakeFiles/enocean_switch_nrf52840_xxAA_s140_6.0.0.dir/__/__/mesh/bearer/src/rssi_filter.c.obj
 .debug_str     0x00000000      0x83d examples/enocean_switch/CMakeFiles/enocean_switch_nrf52840_xxAA_s140_6.0.0.dir/__/__/mesh/bearer/src/rssi_filter.c.obj
 .comment       0x00000000       0x80 examples/enocean_switch/CMakeFiles/enocean_switch_nrf52840_xxAA_s140_6.0.0.dir/__/__/mesh/bearer/src/rssi_filter.c.obj
 .debug_frame   0x00000000       0x54 examples/enocean_switch/CMakeFiles/enocean_switch_nrf52840_xxAA_s140_6.0.0.dir/__/__/mesh/bearer/src/rssi_filter.c.obj
 .ARM.attributes
                0x00000000       0x39 examples/enocean_switch/CMakeFiles/enocean_switch_nrf52840_xxAA_s140_6.0.0.dir/__/__/mesh/bearer/src/rssi_filter.c.obj
 .text          0x00000000        0x0 examples/enocean_switch/CMakeFiles/enocean_switch_nrf52840_xxAA_s140_6.0.0.dir/__/__/mesh/bearer/src/scanner.c.obj
 .data          0x00000000        0x0 examples/enocean_switch/CMakeFiles/enocean_switch_nrf52840_xxAA_s140_6.0.0.dir/__/__/mesh/bearer/src/scanner.c.obj
 .bss           0x00000000        0x0 examples/enocean_switch/CMakeFiles/enocean_switch_nrf52840_xxAA_s140_6.0.0.dir/__/__/mesh/bearer/src/scanner.c.obj
 .text.scanner_rx_callback_set
                0x00000000       0x20 examples/enocean_switch/CMakeFiles/enocean_switch_nrf52840_xxAA_s140_6.0.0.dir/__/__/mesh/bearer/src/scanner.c.obj
 .text.scanner_disable
                0x00000000       0x3c examples/enocean_switch/CMakeFiles/enocean_switch_nrf52840_xxAA_s140_6.0.0.dir/__/__/mesh/bearer/src/scanner.c.obj
 .text.scanner_is_enabled
                0x00000000       0x10 examples/enocean_switch/CMakeFiles/enocean_switch_nrf52840_xxAA_s140_6.0.0.dir/__/__/mesh/bearer/src/scanner.c.obj
 .text.scanner_stats_get
                0x00000000        0x8 examples/enocean_switch/CMakeFiles/enocean_switch_nrf52840_xxAA_s140_6.0.0.dir/__/__/mesh/bearer/src/scanner.c.obj
 .text.scanner_config_radio_mode_set
                0x00000000       0x10 examples/enocean_switch/CMakeFiles/enocean_switch_nrf52840_xxAA_s140_6.0.0.dir/__/__/mesh/bearer/src/scanner.c.obj
 .text          0x00000000        0x0 examples/enocean_switch/CMakeFiles/enocean_switch_nrf52840_xxAA_s140_6.0.0.dir/__/__/models/simple_on_off/src/simple_on_off_client.c.obj
 .data          0x00000000        0x0 examples/enocean_switch/CMakeFiles/enocean_switch_nrf52840_xxAA_s140_6.0.0.dir/__/__/models/simple_on_off/src/simple_on_off_client.c.obj
 .bss           0x00000000        0x0 examples/enocean_switch/CMakeFiles/enocean_switch_nrf52840_xxAA_s140_6.0.0.dir/__/__/models/simple_on_off/src/simple_on_off_client.c.obj
 .text.simple_on_off_client_get
                0x00000000       0x64 examples/enocean_switch/CMakeFiles/enocean_switch_nrf52840_xxAA_s140_6.0.0.dir/__/__/models/simple_on_off/src/simple_on_off_client.c.obj
 .text.simple_on_off_client_pending_msg_cancel
                0x00000000        0x6 examples/enocean_switch/CMakeFiles/enocean_switch_nrf52840_xxAA_s140_6.0.0.dir/__/__/models/simple_on_off/src/simple_on_off_client.c.obj
 .text          0x00000000        0x0 examples/enocean_switch/CMakeFiles/enocean_switch_nrf52840_xxAA_s140_6.0.0.dir/__/__/models/config/src/composition_data.c.obj
 .data          0x00000000        0x0 examples/enocean_switch/CMakeFiles/enocean_switch_nrf52840_xxAA_s140_6.0.0.dir/__/__/models/config/src/composition_data.c.obj
 .bss           0x00000000        0x0 examples/enocean_switch/CMakeFiles/enocean_switch_nrf52840_xxAA_s140_6.0.0.dir/__/__/models/config/src/composition_data.c.obj
 .text          0x00000000        0x0 examples/enocean_switch/CMakeFiles/enocean_switch_nrf52840_xxAA_s140_6.0.0.dir/__/__/models/config/src/config_server.c.obj
 .data          0x00000000        0x0 examples/enocean_switch/CMakeFiles/enocean_switch_nrf52840_xxAA_s140_6.0.0.dir/__/__/models/config/src/config_server.c.obj
 .bss           0x00000000        0x0 examples/enocean_switch/CMakeFiles/enocean_switch_nrf52840_xxAA_s140_6.0.0.dir/__/__/models/config/src/config_server.c.obj
 .text          0x00000000        0x0 examples/enocean_switch/CMakeFiles/enocean_switch_nrf52840_xxAA_s140_6.0.0.dir/__/__/models/config/src/packed_index_list.c.obj
 .data          0x00000000        0x0 examples/enocean_switch/CMakeFiles/enocean_switch_nrf52840_xxAA_s140_6.0.0.dir/__/__/models/config/src/packed_index_list.c.obj
 .bss           0x00000000        0x0 examples/enocean_switch/CMakeFiles/enocean_switch_nrf52840_xxAA_s140_6.0.0.dir/__/__/models/config/src/packed_index_list.c.obj
 .text          0x00000000        0x0 examples/enocean_switch/CMakeFiles/enocean_switch_nrf52840_xxAA_s140_6.0.0.dir/__/__/models/health/src/health_server.c.obj
 .data          0x00000000        0x0 examples/enocean_switch/CMakeFiles/enocean_switch_nrf52840_xxAA_s140_6.0.0.dir/__/__/models/health/src/health_server.c.obj
 .bss           0x00000000        0x0 examples/enocean_switch/CMakeFiles/enocean_switch_nrf52840_xxAA_s140_6.0.0.dir/__/__/models/health/src/health_server.c.obj
 .text.health_server_fault_is_set
                0x00000000       0x1c examples/enocean_switch/CMakeFiles/enocean_switch_nrf52840_xxAA_s140_6.0.0.dir/__/__/models/health/src/health_server.c.obj
 .text.health_server_fault_count_get
                0x00000000        0xc examples/enocean_switch/CMakeFiles/enocean_switch_nrf52840_xxAA_s140_6.0.0.dir/__/__/models/health/src/health_server.c.obj
 .text.health_server_fault_register
                0x00000000       0xca examples/enocean_switch/CMakeFiles/enocean_switch_nrf52840_xxAA_s140_6.0.0.dir/__/__/models/health/src/health_server.c.obj
 .text.health_server_fault_clear
                0x00000000       0x48 examples/enocean_switch/CMakeFiles/enocean_switch_nrf52840_xxAA_s140_6.0.0.dir/__/__/models/health/src/health_server.c.obj
 .text.health_server_attention_get
                0x00000000        0x6 examples/enocean_switch/CMakeFiles/enocean_switch_nrf52840_xxAA_s140_6.0.0.dir/__/__/models/health/src/health_server.c.obj
 .text.health_server_attention_set
                0x00000000        0x4 examples/enocean_switch/CMakeFiles/enocean_switch_nrf52840_xxAA_s140_6.0.0.dir/__/__/models/health/src/health_server.c.obj
 .text          0x00000000        0x0 examples/enocean_switch/CMakeFiles/enocean_switch_nrf52840_xxAA_s140_6.0.0.dir/__/__/mesh/access/src/access_publish.c.obj
 .data          0x00000000        0x0 examples/enocean_switch/CMakeFiles/enocean_switch_nrf52840_xxAA_s140_6.0.0.dir/__/__/mesh/access/src/access_publish.c.obj
 .bss           0x00000000        0x0 examples/enocean_switch/CMakeFiles/enocean_switch_nrf52840_xxAA_s140_6.0.0.dir/__/__/mesh/access/src/access_publish.c.obj
 .text          0x00000000        0x0 examples/enocean_switch/CMakeFiles/enocean_switch_nrf52840_xxAA_s140_6.0.0.dir/__/__/mesh/access/src/access.c.obj
 .data          0x00000000        0x0 examples/enocean_switch/CMakeFiles/enocean_switch_nrf52840_xxAA_s140_6.0.0.dir/__/__/mesh/access/src/access.c.obj
 .bss           0x00000000        0x0 examples/enocean_switch/CMakeFiles/enocean_switch_nrf52840_xxAA_s140_6.0.0.dir/__/__/mesh/access/src/access.c.obj
 .text.access_model_subscription_lists_share
                0x00000000       0x4c examples/enocean_switch/CMakeFiles/enocean_switch_nrf52840_xxAA_s140_6.0.0.dir/__/__/mesh/access/src/access.c.obj
 .text.access_element_location_set
                0x00000000       0x2c examples/enocean_switch/CMakeFiles/enocean_switch_nrf52840_xxAA_s140_6.0.0.dir/__/__/mesh/access/src/access.c.obj
 .text          0x00000000        0x0 examples/enocean_switch/CMakeFiles/enocean_switch_nrf52840_xxAA_s140_6.0.0.dir/__/__/mesh/access/src/access_reliable.c.obj
 .data          0x00000000        0x0 examples/enocean_switch/CMakeFiles/enocean_switch_nrf52840_xxAA_s140_6.0.0.dir/__/__/mesh/access/src/access_reliable.c.obj
 .bss           0x00000000        0x0 examples/enocean_switch/CMakeFiles/enocean_switch_nrf52840_xxAA_s140_6.0.0.dir/__/__/mesh/access/src/access_reliable.c.obj
 .text          0x00000000        0x0 examples/enocean_switch/CMakeFiles/enocean_switch_nrf52840_xxAA_s140_6.0.0.dir/__/__/mesh/access/src/device_state_manager.c.obj
 .data          0x00000000        0x0 examples/enocean_switch/CMakeFiles/enocean_switch_nrf52840_xxAA_s140_6.0.0.dir/__/__/mesh/access/src/device_state_manager.c.obj
 .bss           0x00000000        0x0 examples/enocean_switch/CMakeFiles/enocean_switch_nrf52840_xxAA_s140_6.0.0.dir/__/__/mesh/access/src/device_state_manager.c.obj
 .text.dsm_has_unflashed_data
                0x00000000       0x24 examples/enocean_switch/CMakeFiles/enocean_switch_nrf52840_xxAA_s140_6.0.0.dir/__/__/mesh/access/src/device_state_manager.c.obj
 .text.dsm_address_subscription_count_get
                0x00000000       0x58 examples/enocean_switch/CMakeFiles/enocean_switch_nrf52840_xxAA_s140_6.0.0.dir/__/__/mesh/access/src/device_state_manager.c.obj
 .text.dsm_address_get_all
                0x00000000       0x74 examples/enocean_switch/CMakeFiles/enocean_switch_nrf52840_xxAA_s140_6.0.0.dir/__/__/mesh/access/src/device_state_manager.c.obj
 .text.dsm_subnet_handle_to_netkey_index
                0x00000000       0x34 examples/enocean_switch/CMakeFiles/enocean_switch_nrf52840_xxAA_s140_6.0.0.dir/__/__/mesh/access/src/device_state_manager.c.obj
 .text.dsm_devkey_delete
                0x00000000       0x38 examples/enocean_switch/CMakeFiles/enocean_switch_nrf52840_xxAA_s140_6.0.0.dir/__/__/mesh/access/src/device_state_manager.c.obj
 .text.dsm_devkey_handle_get
                0x00000000       0x34 examples/enocean_switch/CMakeFiles/enocean_switch_nrf52840_xxAA_s140_6.0.0.dir/__/__/mesh/access/src/device_state_manager.c.obj
 .text.dsm_beacon_info_get
                0x00000000       0x38 examples/enocean_switch/CMakeFiles/enocean_switch_nrf52840_xxAA_s140_6.0.0.dir/__/__/mesh/access/src/device_state_manager.c.obj
 .text          0x00000000        0x0 examples/enocean_switch/CMakeFiles/enocean_switch_nrf52840_xxAA_s140_6.0.0.dir/__/__/mesh/prov/src/prov_provisionee.c.obj
 .data          0x00000000        0x0 examples/enocean_switch/CMakeFiles/enocean_switch_nrf52840_xxAA_s140_6.0.0.dir/__/__/mesh/prov/src/prov_provisionee.c.obj
 .bss           0x00000000        0x0 examples/enocean_switch/CMakeFiles/enocean_switch_nrf52840_xxAA_s140_6.0.0.dir/__/__/mesh/prov/src/prov_provisionee.c.obj
 .text.prov_provisionee_shared_secret
                0x00000000       0x28 examples/enocean_switch/CMakeFiles/enocean_switch_nrf52840_xxAA_s140_6.0.0.dir/__/__/mesh/prov/src/prov_provisionee.c.obj
 .text          0x00000000        0x0 examples/enocean_switch/CMakeFiles/enocean_switch_nrf52840_xxAA_s140_6.0.0.dir/__/__/mesh/prov/src/nrf_mesh_prov.c.obj
 .data          0x00000000        0x0 examples/enocean_switch/CMakeFiles/enocean_switch_nrf52840_xxAA_s140_6.0.0.dir/__/__/mesh/prov/src/nrf_mesh_prov.c.obj
 .bss           0x00000000        0x0 examples/enocean_switch/CMakeFiles/enocean_switch_nrf52840_xxAA_s140_6.0.0.dir/__/__/mesh/prov/src/nrf_mesh_prov.c.obj
 .text.nrf_mesh_prov_provision
                0x00000000       0x4e examples/enocean_switch/CMakeFiles/enocean_switch_nrf52840_xxAA_s140_6.0.0.dir/__/__/mesh/prov/src/nrf_mesh_prov.c.obj
 .text.nrf_mesh_prov_oob_use
                0x00000000       0x18 examples/enocean_switch/CMakeFiles/enocean_switch_nrf52840_xxAA_s140_6.0.0.dir/__/__/mesh/prov/src/nrf_mesh_prov.c.obj
 .text.nrf_mesh_prov_shared_secret_provide
                0x00000000        0xe examples/enocean_switch/CMakeFiles/enocean_switch_nrf52840_xxAA_s140_6.0.0.dir/__/__/mesh/prov/src/nrf_mesh_prov.c.obj
 .text.nrf_mesh_prov_pubkey_provide
                0x00000000       0x10 examples/enocean_switch/CMakeFiles/enocean_switch_nrf52840_xxAA_s140_6.0.0.dir/__/__/mesh/prov/src/nrf_mesh_prov.c.obj
 .text.nrf_mesh_prov_scan_start
                0x00000000       0x10 examples/enocean_switch/CMakeFiles/enocean_switch_nrf52840_xxAA_s140_6.0.0.dir/__/__/mesh/prov/src/nrf_mesh_prov.c.obj
 .text.nrf_mesh_prov_scan_stop
                0x00000000        0x4 examples/enocean_switch/CMakeFiles/enocean_switch_nrf52840_xxAA_s140_6.0.0.dir/__/__/mesh/prov/src/nrf_mesh_prov.c.obj
 .text          0x00000000        0x0 examples/enocean_switch/CMakeFiles/enocean_switch_nrf52840_xxAA_s140_6.0.0.dir/__/__/mesh/prov/src/provisioning.c.obj
 .data          0x00000000        0x0 examples/enocean_switch/CMakeFiles/enocean_switch_nrf52840_xxAA_s140_6.0.0.dir/__/__/mesh/prov/src/provisioning.c.obj
 .bss           0x00000000        0x0 examples/enocean_switch/CMakeFiles/enocean_switch_nrf52840_xxAA_s140_6.0.0.dir/__/__/mesh/prov/src/provisioning.c.obj
 .text.prov_tx_invite
                0x00000000       0x28 examples/enocean_switch/CMakeFiles/enocean_switch_nrf52840_xxAA_s140_6.0.0.dir/__/__/mesh/prov/src/provisioning.c.obj
 .text.prov_tx_start
                0x00000000       0x20 examples/enocean_switch/CMakeFiles/enocean_switch_nrf52840_xxAA_s140_6.0.0.dir/__/__/mesh/prov/src/provisioning.c.obj
 .text.prov_tx_data
                0x00000000        0x6 examples/enocean_switch/CMakeFiles/enocean_switch_nrf52840_xxAA_s140_6.0.0.dir/__/__/mesh/prov/src/provisioning.c.obj
 .text.prov_tx  0x00000000        0x4 examples/enocean_switch/CMakeFiles/enocean_switch_nrf52840_xxAA_s140_6.0.0.dir/__/__/mesh/prov/src/provisioning.c.obj
 .text          0x00000000        0x0 examples/enocean_switch/CMakeFiles/enocean_switch_nrf52840_xxAA_s140_6.0.0.dir/__/__/mesh/prov/src/prov_beacon.c.obj
 .data          0x00000000        0x0 examples/enocean_switch/CMakeFiles/enocean_switch_nrf52840_xxAA_s140_6.0.0.dir/__/__/mesh/prov/src/prov_beacon.c.obj
 .bss           0x00000000        0x0 examples/enocean_switch/CMakeFiles/enocean_switch_nrf52840_xxAA_s140_6.0.0.dir/__/__/mesh/prov/src/prov_beacon.c.obj
 .text.prov_beacon_scan_start
                0x00000000       0x18 examples/enocean_switch/CMakeFiles/enocean_switch_nrf52840_xxAA_s140_6.0.0.dir/__/__/mesh/prov/src/prov_beacon.c.obj
 .text.prov_beacon_scan_stop
                0x00000000        0xc examples/enocean_switch/CMakeFiles/enocean_switch_nrf52840_xxAA_s140_6.0.0.dir/__/__/mesh/prov/src/prov_beacon.c.obj
 .text          0x00000000        0x0 examples/enocean_switch/CMakeFiles/enocean_switch_nrf52840_xxAA_s140_6.0.0.dir/__/__/mesh/prov/src/prov_utils.c.obj
 .data          0x00000000        0x0 examples/enocean_switch/CMakeFiles/enocean_switch_nrf52840_xxAA_s140_6.0.0.dir/__/__/mesh/prov/src/prov_utils.c.obj
 .bss           0x00000000        0x0 examples/enocean_switch/CMakeFiles/enocean_switch_nrf52840_xxAA_s140_6.0.0.dir/__/__/mesh/prov/src/prov_utils.c.obj
 .text          0x00000000        0x0 examples/enocean_switch/CMakeFiles/enocean_switch_nrf52840_xxAA_s140_6.0.0.dir/__/__/mesh/prov/src/prov_bearer_adv.c.obj
 .data          0x00000000        0x0 examples/enocean_switch/CMakeFiles/enocean_switch_nrf52840_xxAA_s140_6.0.0.dir/__/__/mesh/prov/src/prov_bearer_adv.c.obj
 .bss           0x00000000        0x0 examples/enocean_switch/CMakeFiles/enocean_switch_nrf52840_xxAA_s140_6.0.0.dir/__/__/mesh/prov/src/prov_bearer_adv.c.obj
 .text          0x00000000        0x0 examples/enocean_switch/CMakeFiles/enocean_switch_nrf52840_xxAA_s140_6.0.0.dir/C_/b/nRF5_SDK_15.0.0_a53641a/modules/nrfx/mdk/system_nrf52840.c.obj
 .data          0x00000000        0x0 examples/enocean_switch/CMakeFiles/enocean_switch_nrf52840_xxAA_s140_6.0.0.dir/C_/b/nRF5_SDK_15.0.0_a53641a/modules/nrfx/mdk/system_nrf52840.c.obj
 .bss           0x00000000        0x0 examples/enocean_switch/CMakeFiles/enocean_switch_nrf52840_xxAA_s140_6.0.0.dir/C_/b/nRF5_SDK_15.0.0_a53641a/modules/nrfx/mdk/system_nrf52840.c.obj
 .text.SystemCoreClockUpdate
                0x00000000       0x10 examples/enocean_switch/CMakeFiles/enocean_switch_nrf52840_xxAA_s140_6.0.0.dir/C_/b/nRF5_SDK_15.0.0_a53641a/modules/nrfx/mdk/system_nrf52840.c.obj
 .data          0x00000000        0x0 examples/enocean_switch/CMakeFiles/enocean_switch_nrf52840_xxAA_s140_6.0.0.dir/C_/b/nRF5_SDK_15.0.0_a53641a/modules/nrfx/mdk/gcc_startup_nrf52840.S.obj
 .bss           0x00000000        0x0 examples/enocean_switch/CMakeFiles/enocean_switch_nrf52840_xxAA_s140_6.0.0.dir/C_/b/nRF5_SDK_15.0.0_a53641a/modules/nrfx/mdk/gcc_startup_nrf52840.S.obj
 .text          0x00000000        0x0 examples/enocean_switch/CMakeFiles/enocean_switch_nrf52840_xxAA_s140_6.0.0.dir/C_/b/nRF5_SDK_15.0.0_a53641a/components/libraries/util/app_error.c.obj
 .data          0x00000000        0x0 examples/enocean_switch/CMakeFiles/enocean_switch_nrf52840_xxAA_s140_6.0.0.dir/C_/b/nRF5_SDK_15.0.0_a53641a/components/libraries/util/app_error.c.obj
 .bss           0x00000000        0x0 examples/enocean_switch/CMakeFiles/enocean_switch_nrf52840_xxAA_s140_6.0.0.dir/C_/b/nRF5_SDK_15.0.0_a53641a/components/libraries/util/app_error.c.obj
 .text.app_error_save_and_stop
                0x00000000       0x58 examples/enocean_switch/CMakeFiles/enocean_switch_nrf52840_xxAA_s140_6.0.0.dir/C_/b/nRF5_SDK_15.0.0_a53641a/components/libraries/util/app_error.c.obj
 .bss.m_error_data.8119
                0x00000000       0x20 examples/enocean_switch/CMakeFiles/enocean_switch_nrf52840_xxAA_s140_6.0.0.dir/C_/b/nRF5_SDK_15.0.0_a53641a/components/libraries/util/app_error.c.obj
 .text          0x00000000        0x0 examples/enocean_switch/CMakeFiles/enocean_switch_nrf52840_xxAA_s140_6.0.0.dir/C_/b/nRF5_SDK_15.0.0_a53641a/components/libraries/util/app_error_handler_gcc.c.obj
 .data          0x00000000        0x0 examples/enocean_switch/CMakeFiles/enocean_switch_nrf52840_xxAA_s140_6.0.0.dir/C_/b/nRF5_SDK_15.0.0_a53641a/components/libraries/util/app_error_handler_gcc.c.obj
 .bss           0x00000000        0x0 examples/enocean_switch/CMakeFiles/enocean_switch_nrf52840_xxAA_s140_6.0.0.dir/C_/b/nRF5_SDK_15.0.0_a53641a/components/libraries/util/app_error_handler_gcc.c.obj
 .text          0x00000000        0x0 external/rtt/librtt_nrf52840_xxAA.a(SEGGER_RTT.c.obj)
 .data          0x00000000        0x0 external/rtt/librtt_nrf52840_xxAA.a(SEGGER_RTT.c.obj)
 .bss           0x00000000        0x0 external/rtt/librtt_nrf52840_xxAA.a(SEGGER_RTT.c.obj)
 .text._PostTerminalSwitch.constprop.0
                0x00000000       0x28 external/rtt/librtt_nrf52840_xxAA.a(SEGGER_RTT.c.obj)
 .text.SEGGER_RTT_WriteSkipNoLock
                0x00000000       0xb4 external/rtt/librtt_nrf52840_xxAA.a(SEGGER_RTT.c.obj)
 .text.SEGGER_RTT_WriteString
                0x00000000       0x1a external/rtt/librtt_nrf52840_xxAA.a(SEGGER_RTT.c.obj)
 .text.SEGGER_RTT_WaitKey
                0x00000000        0xc external/rtt/librtt_nrf52840_xxAA.a(SEGGER_RTT.c.obj)
 .text.SEGGER_RTT_HasKey
                0x00000000       0x1c external/rtt/librtt_nrf52840_xxAA.a(SEGGER_RTT.c.obj)
 .text.SEGGER_RTT_HasData
                0x00000000       0x14 external/rtt/librtt_nrf52840_xxAA.a(SEGGER_RTT.c.obj)
 .text.SEGGER_RTT_AllocDownBuffer
                0x00000000       0x68 external/rtt/librtt_nrf52840_xxAA.a(SEGGER_RTT.c.obj)
 .text.SEGGER_RTT_AllocUpBuffer
                0x00000000       0x70 external/rtt/librtt_nrf52840_xxAA.a(SEGGER_RTT.c.obj)
 .text.SEGGER_RTT_ConfigUpBuffer
                0x00000000       0x68 external/rtt/librtt_nrf52840_xxAA.a(SEGGER_RTT.c.obj)
 .text.SEGGER_RTT_ConfigDownBuffer
                0x00000000       0x60 external/rtt/librtt_nrf52840_xxAA.a(SEGGER_RTT.c.obj)
 .text.SEGGER_RTT_SetNameUpBuffer
                0x00000000       0x3c external/rtt/librtt_nrf52840_xxAA.a(SEGGER_RTT.c.obj)
 .text.SEGGER_RTT_SetNameDownBuffer
                0x00000000       0x3c external/rtt/librtt_nrf52840_xxAA.a(SEGGER_RTT.c.obj)
 .text.SEGGER_RTT_Init
                0x00000000       0x10 external/rtt/librtt_nrf52840_xxAA.a(SEGGER_RTT.c.obj)
 .text.SEGGER_RTT_SetTerminal
                0x00000000       0x84 external/rtt/librtt_nrf52840_xxAA.a(SEGGER_RTT.c.obj)
 .text.SEGGER_RTT_TerminalOut
                0x00000000       0xa0 external/rtt/librtt_nrf52840_xxAA.a(SEGGER_RTT.c.obj)
 .bss._ActiveTerminal
                0x00000000        0x1 external/rtt/librtt_nrf52840_xxAA.a(SEGGER_RTT.c.obj)
 .rodata._aTerminalId
                0x00000000       0x10 external/rtt/librtt_nrf52840_xxAA.a(SEGGER_RTT.c.obj)
 .text          0x00000000        0x0 external/rtt/librtt_nrf52840_xxAA.a(SEGGER_RTT_printf.c.obj)
 .data          0x00000000        0x0 external/rtt/librtt_nrf52840_xxAA.a(SEGGER_RTT_printf.c.obj)
 .bss           0x00000000        0x0 external/rtt/librtt_nrf52840_xxAA.a(SEGGER_RTT_printf.c.obj)
 .text          0x00000000        0x0 external/micro-ecc/libuECC_nrf52840_xxAA.a(uECC.c.obj)
 .data          0x00000000        0x0 external/micro-ecc/libuECC_nrf52840_xxAA.a(uECC.c.obj)
 .bss           0x00000000        0x0 external/micro-ecc/libuECC_nrf52840_xxAA.a(uECC.c.obj)
 .text.uECC_vli_modMult
                0x00000000      0x148 external/micro-ecc/libuECC_nrf52840_xxAA.a(uECC.c.obj)
 .text.HMAC_init
                0x00000000       0x46 external/micro-ecc/libuECC_nrf52840_xxAA.a(uECC.c.obj)
 .text.HMAC_update
                0x00000000        0x4 external/micro-ecc/libuECC_nrf52840_xxAA.a(uECC.c.obj)
 .text.HMAC_finish
                0x00000000       0x62 external/micro-ecc/libuECC_nrf52840_xxAA.a(uECC.c.obj)
 .text.update_V
                0x00000000       0x24 external/micro-ecc/libuECC_nrf52840_xxAA.a(uECC.c.obj)
 .text.bits2int
                0x00000000       0x88 external/micro-ecc/libuECC_nrf52840_xxAA.a(uECC.c.obj)
 .text.uECC_sign_with_k
                0x00000000      0x17c external/micro-ecc/libuECC_nrf52840_xxAA.a(uECC.c.obj)
 .text.uECC_set_rng
                0x00000000        0xc external/micro-ecc/libuECC_nrf52840_xxAA.a(uECC.c.obj)
 .text.uECC_get_rng
                0x00000000        0xc external/micro-ecc/libuECC_nrf52840_xxAA.a(uECC.c.obj)
 .text.uECC_curve_private_key_size
                0x00000000        0xe external/micro-ecc/libuECC_nrf52840_xxAA.a(uECC.c.obj)
 .text.uECC_curve_public_key_size
                0x00000000        0x8 external/micro-ecc/libuECC_nrf52840_xxAA.a(uECC.c.obj)
 .text.uECC_compute_public_key
                0x00000000       0x7e external/micro-ecc/libuECC_nrf52840_xxAA.a(uECC.c.obj)
 .text.uECC_sign
                0x00000000       0x56 external/micro-ecc/libuECC_nrf52840_xxAA.a(uECC.c.obj)
 .text.uECC_sign_deterministic
                0x00000000      0x192 external/micro-ecc/libuECC_nrf52840_xxAA.a(uECC.c.obj)
 .text.uECC_verify
                0x00000000      0x2f0 external/micro-ecc/libuECC_nrf52840_xxAA.a(uECC.c.obj)
 .data          0x00000000        0x0 c:/mesh/arm_gcc/bin/../lib/gcc/arm-none-eabi/6.3.1/thumb/v7e-m/fpv4-sp/hard\libgcc.a(_aeabi_uldivmod.o)
 .bss           0x00000000        0x0 c:/mesh/arm_gcc/bin/../lib/gcc/arm-none-eabi/6.3.1/thumb/v7e-m/fpv4-sp/hard\libgcc.a(_aeabi_uldivmod.o)
 .data          0x00000000        0x0 c:/mesh/arm_gcc/bin/../lib/gcc/arm-none-eabi/6.3.1/thumb/v7e-m/fpv4-sp/hard\libgcc.a(_udivmoddi4.o)
 .bss           0x00000000        0x0 c:/mesh/arm_gcc/bin/../lib/gcc/arm-none-eabi/6.3.1/thumb/v7e-m/fpv4-sp/hard\libgcc.a(_udivmoddi4.o)
 .ARM.extab     0x00000000        0x0 c:/mesh/arm_gcc/bin/../lib/gcc/arm-none-eabi/6.3.1/thumb/v7e-m/fpv4-sp/hard\libgcc.a(_udivmoddi4.o)
 .data          0x00000000        0x0 c:/mesh/arm_gcc/bin/../lib/gcc/arm-none-eabi/6.3.1/thumb/v7e-m/fpv4-sp/hard\libgcc.a(_dvmd_tls.o)
 .bss           0x00000000        0x0 c:/mesh/arm_gcc/bin/../lib/gcc/arm-none-eabi/6.3.1/thumb/v7e-m/fpv4-sp/hard\libgcc.a(_dvmd_tls.o)
 .text          0x00000000        0x0 c:/mesh/arm_gcc/bin/../lib/gcc/arm-none-eabi/6.3.1/../../../../arm-none-eabi/lib/thumb/v7e-m/fpv4-sp/hard\libg_nano.a(lib_a-exit.o)
 .data          0x00000000        0x0 c:/mesh/arm_gcc/bin/../lib/gcc/arm-none-eabi/6.3.1/../../../../arm-none-eabi/lib/thumb/v7e-m/fpv4-sp/hard\libg_nano.a(lib_a-exit.o)
 .bss           0x00000000        0x0 c:/mesh/arm_gcc/bin/../lib/gcc/arm-none-eabi/6.3.1/../../../../arm-none-eabi/lib/thumb/v7e-m/fpv4-sp/hard\libg_nano.a(lib_a-exit.o)
 .text          0x00000000        0x0 c:/mesh/arm_gcc/bin/../lib/gcc/arm-none-eabi/6.3.1/../../../../arm-none-eabi/lib/thumb/v7e-m/fpv4-sp/hard\libg_nano.a(lib_a-impure.o)
 .data          0x00000000        0x0 c:/mesh/arm_gcc/bin/../lib/gcc/arm-none-eabi/6.3.1/../../../../arm-none-eabi/lib/thumb/v7e-m/fpv4-sp/hard\libg_nano.a(lib_a-impure.o)
 .bss           0x00000000        0x0 c:/mesh/arm_gcc/bin/../lib/gcc/arm-none-eabi/6.3.1/../../../../arm-none-eabi/lib/thumb/v7e-m/fpv4-sp/hard\libg_nano.a(lib_a-impure.o)
 .text          0x00000000        0x0 c:/mesh/arm_gcc/bin/../lib/gcc/arm-none-eabi/6.3.1/../../../../arm-none-eabi/lib/thumb/v7e-m/fpv4-sp/hard\libg_nano.a(lib_a-init.o)
 .data          0x00000000        0x0 c:/mesh/arm_gcc/bin/../lib/gcc/arm-none-eabi/6.3.1/../../../../arm-none-eabi/lib/thumb/v7e-m/fpv4-sp/hard\libg_nano.a(lib_a-init.o)
 .bss           0x00000000        0x0 c:/mesh/arm_gcc/bin/../lib/gcc/arm-none-eabi/6.3.1/../../../../arm-none-eabi/lib/thumb/v7e-m/fpv4-sp/hard\libg_nano.a(lib_a-init.o)
 .text          0x00000000        0x0 c:/mesh/arm_gcc/bin/../lib/gcc/arm-none-eabi/6.3.1/../../../../arm-none-eabi/lib/thumb/v7e-m/fpv4-sp/hard\libg_nano.a(lib_a-malloc.o)
 .data          0x00000000        0x0 c:/mesh/arm_gcc/bin/../lib/gcc/arm-none-eabi/6.3.1/../../../../arm-none-eabi/lib/thumb/v7e-m/fpv4-sp/hard\libg_nano.a(lib_a-malloc.o)
 .bss           0x00000000        0x0 c:/mesh/arm_gcc/bin/../lib/gcc/arm-none-eabi/6.3.1/../../../../arm-none-eabi/lib/thumb/v7e-m/fpv4-sp/hard\libg_nano.a(lib_a-malloc.o)
 .text          0x00000000        0x0 c:/mesh/arm_gcc/bin/../lib/gcc/arm-none-eabi/6.3.1/../../../../arm-none-eabi/lib/thumb/v7e-m/fpv4-sp/hard\libg_nano.a(lib_a-memcmp.o)
 .data          0x00000000        0x0 c:/mesh/arm_gcc/bin/../lib/gcc/arm-none-eabi/6.3.1/../../../../arm-none-eabi/lib/thumb/v7e-m/fpv4-sp/hard\libg_nano.a(lib_a-memcmp.o)
 .bss           0x00000000        0x0 c:/mesh/arm_gcc/bin/../lib/gcc/arm-none-eabi/6.3.1/../../../../arm-none-eabi/lib/thumb/v7e-m/fpv4-sp/hard\libg_nano.a(lib_a-memcmp.o)
 .text          0x00000000        0x0 c:/mesh/arm_gcc/bin/../lib/gcc/arm-none-eabi/6.3.1/../../../../arm-none-eabi/lib/thumb/v7e-m/fpv4-sp/hard\libg_nano.a(lib_a-memcpy-stub.o)
 .data          0x00000000        0x0 c:/mesh/arm_gcc/bin/../lib/gcc/arm-none-eabi/6.3.1/../../../../arm-none-eabi/lib/thumb/v7e-m/fpv4-sp/hard\libg_nano.a(lib_a-memcpy-stub.o)
 .bss           0x00000000        0x0 c:/mesh/arm_gcc/bin/../lib/gcc/arm-none-eabi/6.3.1/../../../../arm-none-eabi/lib/thumb/v7e-m/fpv4-sp/hard\libg_nano.a(lib_a-memcpy-stub.o)
 .text          0x00000000        0x0 c:/mesh/arm_gcc/bin/../lib/gcc/arm-none-eabi/6.3.1/../../../../arm-none-eabi/lib/thumb/v7e-m/fpv4-sp/hard\libg_nano.a(lib_a-memset.o)
 .data          0x00000000        0x0 c:/mesh/arm_gcc/bin/../lib/gcc/arm-none-eabi/6.3.1/../../../../arm-none-eabi/lib/thumb/v7e-m/fpv4-sp/hard\libg_nano.a(lib_a-memset.o)
 .bss           0x00000000        0x0 c:/mesh/arm_gcc/bin/../lib/gcc/arm-none-eabi/6.3.1/../../../../arm-none-eabi/lib/thumb/v7e-m/fpv4-sp/hard\libg_nano.a(lib_a-memset.o)
 .text          0x00000000        0x0 c:/mesh/arm_gcc/bin/../lib/gcc/arm-none-eabi/6.3.1/../../../../arm-none-eabi/lib/thumb/v7e-m/fpv4-sp/hard\libg_nano.a(lib_a-nano-freer.o)
 .data          0x00000000        0x0 c:/mesh/arm_gcc/bin/../lib/gcc/arm-none-eabi/6.3.1/../../../../arm-none-eabi/lib/thumb/v7e-m/fpv4-sp/hard\libg_nano.a(lib_a-nano-freer.o)
 .bss           0x00000000        0x0 c:/mesh/arm_gcc/bin/../lib/gcc/arm-none-eabi/6.3.1/../../../../arm-none-eabi/lib/thumb/v7e-m/fpv4-sp/hard\libg_nano.a(lib_a-nano-freer.o)
 .text          0x00000000        0x0 c:/mesh/arm_gcc/bin/../lib/gcc/arm-none-eabi/6.3.1/../../../../arm-none-eabi/lib/thumb/v7e-m/fpv4-sp/hard\libg_nano.a(lib_a-nano-mallocr.o)
 .data          0x00000000        0x0 c:/mesh/arm_gcc/bin/../lib/gcc/arm-none-eabi/6.3.1/../../../../arm-none-eabi/lib/thumb/v7e-m/fpv4-sp/hard\libg_nano.a(lib_a-nano-mallocr.o)
 .bss           0x00000000        0x0 c:/mesh/arm_gcc/bin/../lib/gcc/arm-none-eabi/6.3.1/../../../../arm-none-eabi/lib/thumb/v7e-m/fpv4-sp/hard\libg_nano.a(lib_a-nano-mallocr.o)
 .text          0x00000000        0x0 c:/mesh/arm_gcc/bin/../lib/gcc/arm-none-eabi/6.3.1/../../../../arm-none-eabi/lib/thumb/v7e-m/fpv4-sp/hard\libg_nano.a(lib_a-sbrkr.o)
 .data          0x00000000        0x0 c:/mesh/arm_gcc/bin/../lib/gcc/arm-none-eabi/6.3.1/../../../../arm-none-eabi/lib/thumb/v7e-m/fpv4-sp/hard\libg_nano.a(lib_a-sbrkr.o)
 .bss           0x00000000        0x0 c:/mesh/arm_gcc/bin/../lib/gcc/arm-none-eabi/6.3.1/../../../../arm-none-eabi/lib/thumb/v7e-m/fpv4-sp/hard\libg_nano.a(lib_a-sbrkr.o)
 .text          0x00000000        0x0 c:/mesh/arm_gcc/bin/../lib/gcc/arm-none-eabi/6.3.1/../../../../arm-none-eabi/lib/thumb/v7e-m/fpv4-sp/hard\libg_nano.a(lib_a-strcpy.o)
 .data          0x00000000        0x0 c:/mesh/arm_gcc/bin/../lib/gcc/arm-none-eabi/6.3.1/../../../../arm-none-eabi/lib/thumb/v7e-m/fpv4-sp/hard\libg_nano.a(lib_a-strcpy.o)
 .bss           0x00000000        0x0 c:/mesh/arm_gcc/bin/../lib/gcc/arm-none-eabi/6.3.1/../../../../arm-none-eabi/lib/thumb/v7e-m/fpv4-sp/hard\libg_nano.a(lib_a-strcpy.o)
 .data          0x00000000        0x0 c:/mesh/arm_gcc/bin/../lib/gcc/arm-none-eabi/6.3.1/../../../../arm-none-eabi/lib/thumb/v7e-m/fpv4-sp/hard\libg_nano.a(lib_a-strlen.o)
 .bss           0x00000000        0x0 c:/mesh/arm_gcc/bin/../lib/gcc/arm-none-eabi/6.3.1/../../../../arm-none-eabi/lib/thumb/v7e-m/fpv4-sp/hard\libg_nano.a(lib_a-strlen.o)
 .text          0x00000000        0x0 c:/mesh/arm_gcc/bin/../lib/gcc/arm-none-eabi/6.3.1/../../../../arm-none-eabi/lib/thumb/v7e-m/fpv4-sp/hard\libg_nano.a(lib_a-strrchr.o)
 .data          0x00000000        0x0 c:/mesh/arm_gcc/bin/../lib/gcc/arm-none-eabi/6.3.1/../../../../arm-none-eabi/lib/thumb/v7e-m/fpv4-sp/hard\libg_nano.a(lib_a-strrchr.o)
 .bss           0x00000000        0x0 c:/mesh/arm_gcc/bin/../lib/gcc/arm-none-eabi/6.3.1/../../../../arm-none-eabi/lib/thumb/v7e-m/fpv4-sp/hard\libg_nano.a(lib_a-strrchr.o)
 .text          0x00000000        0x0 c:/mesh/arm_gcc/bin/../lib/gcc/arm-none-eabi/6.3.1/../../../../arm-none-eabi/lib/thumb/v7e-m/fpv4-sp/hard\libg_nano.a(lib_a-mlock.o)
 .data          0x00000000        0x0 c:/mesh/arm_gcc/bin/../lib/gcc/arm-none-eabi/6.3.1/../../../../arm-none-eabi/lib/thumb/v7e-m/fpv4-sp/hard\libg_nano.a(lib_a-mlock.o)
 .bss           0x00000000        0x0 c:/mesh/arm_gcc/bin/../lib/gcc/arm-none-eabi/6.3.1/../../../../arm-none-eabi/lib/thumb/v7e-m/fpv4-sp/hard\libg_nano.a(lib_a-mlock.o)
 .text          0x00000000        0x0 c:/mesh/arm_gcc/bin/../lib/gcc/arm-none-eabi/6.3.1/../../../../arm-none-eabi/lib/thumb/v7e-m/fpv4-sp/hard\libg_nano.a(lib_a-reent.o)
 .data          0x00000000        0x0 c:/mesh/arm_gcc/bin/../lib/gcc/arm-none-eabi/6.3.1/../../../../arm-none-eabi/lib/thumb/v7e-m/fpv4-sp/hard\libg_nano.a(lib_a-reent.o)
 .bss           0x00000000        0x0 c:/mesh/arm_gcc/bin/../lib/gcc/arm-none-eabi/6.3.1/../../../../arm-none-eabi/lib/thumb/v7e-m/fpv4-sp/hard\libg_nano.a(lib_a-reent.o)
 .text.cleanup_glue
                0x00000000       0x1a c:/mesh/arm_gcc/bin/../lib/gcc/arm-none-eabi/6.3.1/../../../../arm-none-eabi/lib/thumb/v7e-m/fpv4-sp/hard\libg_nano.a(lib_a-reent.o)
 .text._reclaim_reent
                0x00000000       0xb8 c:/mesh/arm_gcc/bin/../lib/gcc/arm-none-eabi/6.3.1/../../../../arm-none-eabi/lib/thumb/v7e-m/fpv4-sp/hard\libg_nano.a(lib_a-reent.o)
 .text          0x00000000        0x0 c:/mesh/arm_gcc/bin/../lib/gcc/arm-none-eabi/6.3.1/../../../../arm-none-eabi/lib/thumb/v7e-m/fpv4-sp/hard\libg_nano.a(lib_a-strchr.o)
 .data          0x00000000        0x0 c:/mesh/arm_gcc/bin/../lib/gcc/arm-none-eabi/6.3.1/../../../../arm-none-eabi/lib/thumb/v7e-m/fpv4-sp/hard\libg_nano.a(lib_a-strchr.o)
 .bss           0x00000000        0x0 c:/mesh/arm_gcc/bin/../lib/gcc/arm-none-eabi/6.3.1/../../../../arm-none-eabi/lib/thumb/v7e-m/fpv4-sp/hard\libg_nano.a(lib_a-strchr.o)
 .text          0x00000000        0x0 c:/mesh/arm_gcc/bin/../lib/gcc/arm-none-eabi/6.3.1/thumb/v7e-m/fpv4-sp/hard/crtend.o
 .data          0x00000000        0x0 c:/mesh/arm_gcc/bin/../lib/gcc/arm-none-eabi/6.3.1/thumb/v7e-m/fpv4-sp/hard/crtend.o
 .bss           0x00000000        0x0 c:/mesh/arm_gcc/bin/../lib/gcc/arm-none-eabi/6.3.1/thumb/v7e-m/fpv4-sp/hard/crtend.o
 .text          0x00000000        0x0 c:/mesh/arm_gcc/bin/../lib/gcc/arm-none-eabi/6.3.1/thumb/v7e-m/fpv4-sp/hard/crtn.o
 .data          0x00000000        0x0 c:/mesh/arm_gcc/bin/../lib/gcc/arm-none-eabi/6.3.1/thumb/v7e-m/fpv4-sp/hard/crtn.o
 .bss           0x00000000        0x0 c:/mesh/arm_gcc/bin/../lib/gcc/arm-none-eabi/6.3.1/thumb/v7e-m/fpv4-sp/hard/crtn.o
 .text          0x00000000        0x0 c:/mesh/arm_gcc/bin/../lib/gcc/arm-none-eabi/6.3.1/../../../../arm-none-eabi/lib/thumb/v7e-m/fpv4-sp/hard\libnosys.a(sbrk.o)
 .data          0x00000000        0x0 c:/mesh/arm_gcc/bin/../lib/gcc/arm-none-eabi/6.3.1/../../../../arm-none-eabi/lib/thumb/v7e-m/fpv4-sp/hard\libnosys.a(sbrk.o)
 .bss           0x00000000        0x0 c:/mesh/arm_gcc/bin/../lib/gcc/arm-none-eabi/6.3.1/../../../../arm-none-eabi/lib/thumb/v7e-m/fpv4-sp/hard\libnosys.a(sbrk.o)
 .text          0x00000000        0x0 c:/mesh/arm_gcc/bin/../lib/gcc/arm-none-eabi/6.3.1/../../../../arm-none-eabi/lib/thumb/v7e-m/fpv4-sp/hard\libnosys.a(_exit.o)
 .data          0x00000000        0x0 c:/mesh/arm_gcc/bin/../lib/gcc/arm-none-eabi/6.3.1/../../../../arm-none-eabi/lib/thumb/v7e-m/fpv4-sp/hard\libnosys.a(_exit.o)
 .bss           0x00000000        0x0 c:/mesh/arm_gcc/bin/../lib/gcc/arm-none-eabi/6.3.1/../../../../arm-none-eabi/lib/thumb/v7e-m/fpv4-sp/hard\libnosys.a(_exit.o)

Memory Configuration

Name             Origin             Length             Attributes
FLASH            0x00026000         0x000d1000         xr
RAM              0x200032c8         0x0003ca38         xrw
*default*        0x00000000         0xffffffff

Linker script and memory map


.text           0x00026000    0x142e4
 *(.isr_vector)
 .isr_vector    0x00026000      0x200 examples/enocean_switch/CMakeFiles/enocean_switch_nrf52840_xxAA_s140_6.0.0.dir/C_/b/nRF5_SDK_15.0.0_a53641a/modules/nrfx/mdk/gcc_startup_nrf52840.S.obj
                0x00026000                __isr_vector
 *(.text*)
 .text          0x00026200       0x6c c:/mesh/arm_gcc/bin/../lib/gcc/arm-none-eabi/6.3.1/thumb/v7e-m/fpv4-sp/hard/crtbegin.o
 .text          0x0002626c       0x74 c:/mesh/arm_gcc/bin/../lib/gcc/arm-none-eabi/6.3.1/../../../../arm-none-eabi/lib/thumb/v7e-m/fpv4-sp/hard/crt0.o
                0x0002626c                _start
                0x0002626c                _mainCRTStartup
 .text.sd_app_evt_wait
                0x000262e0        0x4 examples/enocean_switch/CMakeFiles/enocean_switch_nrf52840_xxAA_s140_6.0.0.dir/src/main.c.obj
 .text.provisioning_complete_cb
                0x000262e4       0xd4 examples/enocean_switch/CMakeFiles/enocean_switch_nrf52840_xxAA_s140_6.0.0.dir/src/main.c.obj
 .text.app_data_store_try
                0x000263b8      0x104 examples/enocean_switch/CMakeFiles/enocean_switch_nrf52840_xxAA_s140_6.0.0.dir/src/main.c.obj
 .text.node_reset
                0x000264bc       0x78 examples/enocean_switch/CMakeFiles/enocean_switch_nrf52840_xxAA_s140_6.0.0.dir/src/main.c.obj
 .text.button_event_handler
                0x00026534       0x94 examples/enocean_switch/CMakeFiles/enocean_switch_nrf52840_xxAA_s140_6.0.0.dir/src/main.c.obj
 .text.app_rtt_input_handler
                0x000265c8        0xc examples/enocean_switch/CMakeFiles/enocean_switch_nrf52840_xxAA_s140_6.0.0.dir/src/main.c.obj
 .text.config_server_evt_cb
                0x000265d4        0xc examples/enocean_switch/CMakeFiles/enocean_switch_nrf52840_xxAA_s140_6.0.0.dir/src/main.c.obj
 .text.app_enocean_cb
                0x000265e0      0x388 examples/enocean_switch/CMakeFiles/enocean_switch_nrf52840_xxAA_s140_6.0.0.dir/src/main.c.obj
 .text.rx_callback
                0x00026968        0x4 examples/enocean_switch/CMakeFiles/enocean_switch_nrf52840_xxAA_s140_6.0.0.dir/src/main.c.obj
 .text.models_init_cb
                0x0002696c       0xa8 examples/enocean_switch/CMakeFiles/enocean_switch_nrf52840_xxAA_s140_6.0.0.dir/src/main.c.obj
 .text.client_status_cb
                0x00026a14       0xb8 examples/enocean_switch/CMakeFiles/enocean_switch_nrf52840_xxAA_s140_6.0.0.dir/src/main.c.obj
 .text.app_mesh_core_event_cb
                0x00026acc      0x158 examples/enocean_switch/CMakeFiles/enocean_switch_nrf52840_xxAA_s140_6.0.0.dir/src/main.c.obj
 .text.startup.main
                0x00026c24      0x288 examples/enocean_switch/CMakeFiles/enocean_switch_nrf52840_xxAA_s140_6.0.0.dir/src/main.c.obj
                0x00026c24                main
 .text.enocean_packet_process
                0x00026eac      0x28c examples/enocean_switch/CMakeFiles/enocean_switch_nrf52840_xxAA_s140_6.0.0.dir/src/enocean.c.obj
                0x00026eac                enocean_packet_process
 .text.enocean_secmat_add
                0x00027138       0x20 examples/enocean_switch/CMakeFiles/enocean_switch_nrf52840_xxAA_s140_6.0.0.dir/src/enocean.c.obj
                0x00027138                enocean_secmat_add
 .text.enocean_translator_init
                0x00027158       0x18 examples/enocean_switch/CMakeFiles/enocean_switch_nrf52840_xxAA_s140_6.0.0.dir/src/enocean.c.obj
                0x00027158                enocean_translator_init
 .text.flash_manager_mem_available
                0x00027170       0x6c examples/enocean_switch/CMakeFiles/enocean_switch_nrf52840_xxAA_s140_6.0.0.dir/src/flash_helper.c.obj
 .text.flash_invalidate_complete
                0x000271dc       0x10 examples/enocean_switch/CMakeFiles/enocean_switch_nrf52840_xxAA_s140_6.0.0.dir/src/flash_helper.c.obj
 .text.flash_write_complete
                0x000271ec       0x8c examples/enocean_switch/CMakeFiles/enocean_switch_nrf52840_xxAA_s140_6.0.0.dir/src/flash_helper.c.obj
 .text.flash_manager_wait
                0x00027278       0x16 examples/enocean_switch/CMakeFiles/enocean_switch_nrf52840_xxAA_s140_6.0.0.dir/src/flash_helper.c.obj
 *fill*         0x0002728e        0x2 
 .text.flash_reset
                0x00027290       0x80 examples/enocean_switch/CMakeFiles/enocean_switch_nrf52840_xxAA_s140_6.0.0.dir/src/flash_helper.c.obj
 .text.app_flash_init
                0x00027310       0xa8 examples/enocean_switch/CMakeFiles/enocean_switch_nrf52840_xxAA_s140_6.0.0.dir/src/flash_helper.c.obj
                0x00027310                app_flash_init
 .text.flash_remove_complete
                0x000273b8       0x64 examples/enocean_switch/CMakeFiles/enocean_switch_nrf52840_xxAA_s140_6.0.0.dir/src/flash_helper.c.obj
 .text.app_flash_data_load
                0x0002741c       0x34 examples/enocean_switch/CMakeFiles/enocean_switch_nrf52840_xxAA_s140_6.0.0.dir/src/flash_helper.c.obj
                0x0002741c                app_flash_data_load
 .text.app_flash_data_store
                0x00027450       0x94 examples/enocean_switch/CMakeFiles/enocean_switch_nrf52840_xxAA_s140_6.0.0.dir/src/flash_helper.c.obj
                0x00027450                app_flash_data_store
 .text.app_flash_clear
                0x000274e4       0x12 examples/enocean_switch/CMakeFiles/enocean_switch_nrf52840_xxAA_s140_6.0.0.dir/src/flash_helper.c.obj
                0x000274e4                app_flash_clear
 .text.mesh_evt_handler
                0x000274f6        0xe examples/enocean_switch/CMakeFiles/enocean_switch_nrf52840_xxAA_s140_6.0.0.dir/__/__/mesh/stack/src/mesh_stack.c.obj
 .text.mesh_stack_start
                0x00027504        0x4 examples/enocean_switch/CMakeFiles/enocean_switch_nrf52840_xxAA_s140_6.0.0.dir/__/__/mesh/stack/src/mesh_stack.c.obj
                0x00027504                mesh_stack_start
 .text.mesh_stack_provisioning_data_store
                0x00027508       0x6c examples/enocean_switch/CMakeFiles/enocean_switch_nrf52840_xxAA_s140_6.0.0.dir/__/__/mesh/stack/src/mesh_stack.c.obj
                0x00027508                mesh_stack_provisioning_data_store
 .text.mesh_stack_config_clear
                0x00027574       0x12 examples/enocean_switch/CMakeFiles/enocean_switch_nrf52840_xxAA_s140_6.0.0.dir/__/__/mesh/stack/src/mesh_stack.c.obj
                0x00027574                mesh_stack_config_clear
 .text.mesh_stack_is_device_provisioned
                0x00027586       0x18 examples/enocean_switch/CMakeFiles/enocean_switch_nrf52840_xxAA_s140_6.0.0.dir/__/__/mesh/stack/src/mesh_stack.c.obj
                0x00027586                mesh_stack_is_device_provisioned
 *fill*         0x0002759e        0x2 
 .text.mesh_stack_init
                0x000275a0       0x78 examples/enocean_switch/CMakeFiles/enocean_switch_nrf52840_xxAA_s140_6.0.0.dir/__/__/mesh/stack/src/mesh_stack.c.obj
                0x000275a0                mesh_stack_init
 .text.mesh_stack_device_reset
                0x00027618       0x20 examples/enocean_switch/CMakeFiles/enocean_switch_nrf52840_xxAA_s140_6.0.0.dir/__/__/mesh/stack/src/mesh_stack.c.obj
                0x00027618                mesh_stack_device_reset
 .text.sd_evt_get
                0x00027638        0x4 examples/enocean_switch/CMakeFiles/enocean_switch_nrf52840_xxAA_s140_6.0.0.dir/__/common/src/mesh_softdevice_init.c.obj
 .text.sd_softdevice_enable
                0x0002763c        0x4 examples/enocean_switch/CMakeFiles/enocean_switch_nrf52840_xxAA_s140_6.0.0.dir/__/common/src/mesh_softdevice_init.c.obj
 .text.sd_ble_enable
                0x00027640        0x4 examples/enocean_switch/CMakeFiles/enocean_switch_nrf52840_xxAA_s140_6.0.0.dir/__/common/src/mesh_softdevice_init.c.obj
 .text.SWI2_EGU2_IRQHandler
                0x00027644       0x18 examples/enocean_switch/CMakeFiles/enocean_switch_nrf52840_xxAA_s140_6.0.0.dir/__/common/src/mesh_softdevice_init.c.obj
                0x00027644                SWI2_EGU2_IRQHandler
 .text.mesh_softdevice_init
                0x0002765c      0x1c0 examples/enocean_switch/CMakeFiles/enocean_switch_nrf52840_xxAA_s140_6.0.0.dir/__/common/src/mesh_softdevice_init.c.obj
                0x0002765c                mesh_softdevice_init
 .text.provisionee_start
                0x0002781c       0x18 examples/enocean_switch/CMakeFiles/enocean_switch_nrf52840_xxAA_s140_6.0.0.dir/__/common/src/mesh_provisionee.c.obj
 .text.prov_evt_handler
                0x00027834       0x64 examples/enocean_switch/CMakeFiles/enocean_switch_nrf52840_xxAA_s140_6.0.0.dir/__/common/src/mesh_provisionee.c.obj
 .text.mesh_provisionee_prov_start
                0x00027898       0x78 examples/enocean_switch/CMakeFiles/enocean_switch_nrf52840_xxAA_s140_6.0.0.dir/__/common/src/mesh_provisionee.c.obj
                0x00027898                mesh_provisionee_prov_start
 .text.TIMER2_IRQHandler
                0x00027910       0x30 examples/enocean_switch/CMakeFiles/enocean_switch_nrf52840_xxAA_s140_6.0.0.dir/__/common/src/rtt_input.c.obj
                0x00027910                TIMER2_IRQHandler
 .text.rtt_input_enable
                0x00027940       0x5c examples/enocean_switch/CMakeFiles/enocean_switch_nrf52840_xxAA_s140_6.0.0.dir/__/common/src/rtt_input.c.obj
                0x00027940                rtt_input_enable
 .text.hal_led_pin_set
                0x0002799c       0x16 examples/enocean_switch/CMakeFiles/enocean_switch_nrf52840_xxAA_s140_6.0.0.dir/__/common/src/simple_hal.c.obj
                0x0002799c                hal_led_pin_set
 .text.hal_led_mask_set
                0x000279b2       0x12 examples/enocean_switch/CMakeFiles/enocean_switch_nrf52840_xxAA_s140_6.0.0.dir/__/common/src/simple_hal.c.obj
                0x000279b2                hal_led_mask_set
 .text.hal_led_blink_ms
                0x000279c4       0x44 examples/enocean_switch/CMakeFiles/enocean_switch_nrf52840_xxAA_s140_6.0.0.dir/__/common/src/simple_hal.c.obj
                0x000279c4                hal_led_blink_ms
 .text.hal_leds_init
                0x00027a08       0x38 examples/enocean_switch/CMakeFiles/enocean_switch_nrf52840_xxAA_s140_6.0.0.dir/__/common/src/simple_hal.c.obj
                0x00027a08                hal_leds_init
 .text.hal_buttons_init
                0x00027a40       0x50 examples/enocean_switch/CMakeFiles/enocean_switch_nrf52840_xxAA_s140_6.0.0.dir/__/common/src/simple_hal.c.obj
                0x00027a40                hal_buttons_init
 .text.GPIOTE_IRQHandler
                0x00027a90       0x60 examples/enocean_switch/CMakeFiles/enocean_switch_nrf52840_xxAA_s140_6.0.0.dir/__/common/src/simple_hal.c.obj
                0x00027a90                GPIOTE_IRQHandler
 .text._weak_handler
                0x00027af0        0x4 examples/enocean_switch/CMakeFiles/enocean_switch_nrf52840_xxAA_s140_6.0.0.dir/__/nrf_mesh_weak.c.obj
                0x00027af0                nrf_mesh_dfu_init
                0x00027af0                nrf_mesh_dfu_jump_to_bootloader
                0x00027af0                nrf_mesh_dfu_rx
                0x00027af0                prov_provisioner_provision
                0x00027af0                nrf_mesh_dfu_bank_info_get
                0x00027af0                prov_provisioner_oob_pubkey
                0x00027af0                nrf_mesh_dfu_request
                0x00027af0                nrf_mesh_dfu_bank_flash
                0x00027af0                _weak_handler
                0x00027af0                nrf_mesh_dfu_relay
                0x00027af0                nrf_mesh_dfu_abort
                0x00027af0                mesh_flash_op_execute
                0x00027af0                prov_provisionee_init
                0x00027af0                nrf_mesh_dfu_state_get
                0x00027af0                prov_provisioner_shared_secret
                0x00027af0                prov_provisioner_auth_data
                0x00027af0                prov_provisioner_oob_use
 .text.app_error_fault_handler
                0x00027af4      0x204 examples/enocean_switch/CMakeFiles/enocean_switch_nrf52840_xxAA_s140_6.0.0.dir/__/common/src/app_error_weak.c.obj
                0x00027af4                app_error_fault_handler
 .text.mesh_assertion_handler
                0x00027cf8       0x24 examples/enocean_switch/CMakeFiles/enocean_switch_nrf52840_xxAA_s140_6.0.0.dir/__/common/src/assertion_handler_weak.c.obj
                0x00027cf8                mesh_assertion_handler
 .text.nrf_mesh_configure_device_uuid_set
                0x00027d1c       0x10 examples/enocean_switch/CMakeFiles/enocean_switch_nrf52840_xxAA_s140_6.0.0.dir/__/__/mesh/core/src/nrf_mesh_configure.c.obj
                0x00027d1c                nrf_mesh_configure_device_uuid_set
 .text.nrf_mesh_configure_device_uuid_reset
                0x00027d2c       0x28 examples/enocean_switch/CMakeFiles/enocean_switch_nrf52840_xxAA_s140_6.0.0.dir/__/__/mesh/core/src/nrf_mesh_configure.c.obj
                0x00027d2c                nrf_mesh_configure_device_uuid_reset
 .text.nrf_mesh_configure_device_uuid_get
                0x00027d54        0x8 examples/enocean_switch/CMakeFiles/enocean_switch_nrf52840_xxAA_s140_6.0.0.dir/__/__/mesh/core/src/nrf_mesh_configure.c.obj
                0x00027d54                nrf_mesh_configure_device_uuid_get
 .text.sd_ecb_block_encrypt
                0x00027d5c        0x4 examples/enocean_switch/CMakeFiles/enocean_switch_nrf52840_xxAA_s140_6.0.0.dir/__/__/mesh/core/src/aes.c.obj
 .text.aes_encrypt
                0x00027d60       0x32 examples/enocean_switch/CMakeFiles/enocean_switch_nrf52840_xxAA_s140_6.0.0.dir/__/__/mesh/core/src/aes.c.obj
                0x00027d60                aes_encrypt
 *fill*         0x00027d92        0x2 
 .text.msg_cache_init
                0x00027d94       0x24 examples/enocean_switch/CMakeFiles/enocean_switch_nrf52840_xxAA_s140_6.0.0.dir/__/__/mesh/core/src/msg_cache.c.obj
                0x00027d94                msg_cache_init
 .text.msg_cache_entry_exists
                0x00027db8       0x3c examples/enocean_switch/CMakeFiles/enocean_switch_nrf52840_xxAA_s140_6.0.0.dir/__/__/mesh/core/src/msg_cache.c.obj
                0x00027db8                msg_cache_entry_exists
 .text.msg_cache_entry_add
                0x00027df4       0x2c examples/enocean_switch/CMakeFiles/enocean_switch_nrf52840_xxAA_s140_6.0.0.dir/__/__/mesh/core/src/msg_cache.c.obj
                0x00027df4                msg_cache_entry_add
 .text.seqauth_sequence_number_get
                0x00027e20       0x12 examples/enocean_switch/CMakeFiles/enocean_switch_nrf52840_xxAA_s140_6.0.0.dir/__/__/mesh/core/src/transport.c.obj
 *fill*         0x00027e32        0x2 
 .text.control_packet_callback_get
                0x00027e34       0x44 examples/enocean_switch/CMakeFiles/enocean_switch_nrf52840_xxAA_s140_6.0.0.dir/__/__/mesh/core/src/transport.c.obj
 .text.tx_complete
                0x00027e78       0x30 examples/enocean_switch/CMakeFiles/enocean_switch_nrf52840_xxAA_s140_6.0.0.dir/__/__/mesh/core/src/transport.c.obj
 .text.block_ack_full
                0x00027ea8       0x1a examples/enocean_switch/CMakeFiles/enocean_switch_nrf52840_xxAA_s140_6.0.0.dir/__/__/mesh/core/src/transport.c.obj
 *fill*         0x00027ec2        0x2 
 .text.sar_rx_session_mark_as_handled
                0x00027ec4       0x48 examples/enocean_switch/CMakeFiles/enocean_switch_nrf52840_xxAA_s140_6.0.0.dir/__/__/mesh/core/src/transport.c.obj
 .text.upper_trs_packet_encrypt
                0x00027f0c       0x90 examples/enocean_switch/CMakeFiles/enocean_switch_nrf52840_xxAA_s140_6.0.0.dir/__/__/mesh/core/src/transport.c.obj
 .text.sar_ctx_free
                0x00027f9c       0x3c examples/enocean_switch/CMakeFiles/enocean_switch_nrf52840_xxAA_s140_6.0.0.dir/__/__/mesh/core/src/transport.c.obj
 .text.sar_ctx_tx_complete
                0x00027fd8       0x2e examples/enocean_switch/CMakeFiles/enocean_switch_nrf52840_xxAA_s140_6.0.0.dir/__/__/mesh/core/src/transport.c.obj
 *fill*         0x00028006        0x2 
 .text.sar_ctx_alloc
                0x00028008       0xa4 examples/enocean_switch/CMakeFiles/enocean_switch_nrf52840_xxAA_s140_6.0.0.dir/__/__/mesh/core/src/transport.c.obj
 .text.test_transport_decrypt
                0x000280ac       0x88 examples/enocean_switch/CMakeFiles/enocean_switch_nrf52840_xxAA_s140_6.0.0.dir/__/__/mesh/core/src/transport.c.obj
 .text.upper_transport_access_packet_in
                0x00028134      0x19c examples/enocean_switch/CMakeFiles/enocean_switch_nrf52840_xxAA_s140_6.0.0.dir/__/__/mesh/core/src/transport.c.obj
 .text.trs_packet_header_build
                0x000282d0       0xa6 examples/enocean_switch/CMakeFiles/enocean_switch_nrf52840_xxAA_s140_6.0.0.dir/__/__/mesh/core/src/transport.c.obj
 *fill*         0x00028376        0x2 
 .text.tx_retry_timer_reset
                0x00028378       0x44 examples/enocean_switch/CMakeFiles/enocean_switch_nrf52840_xxAA_s140_6.0.0.dir/__/__/mesh/core/src/transport.c.obj
 .text.sar_ctx_cancel
                0x000283bc       0xa8 examples/enocean_switch/CMakeFiles/enocean_switch_nrf52840_xxAA_s140_6.0.0.dir/__/__/mesh/core/src/transport.c.obj
 .text.abort_timeout
                0x00028464        0x8 examples/enocean_switch/CMakeFiles/enocean_switch_nrf52840_xxAA_s140_6.0.0.dir/__/__/mesh/core/src/transport.c.obj
 .text.trs_sar_packet_out
                0x0002846c       0xda examples/enocean_switch/CMakeFiles/enocean_switch_nrf52840_xxAA_s140_6.0.0.dir/__/__/mesh/core/src/transport.c.obj
 .text.retry_timeout
                0x00028546       0x46 examples/enocean_switch/CMakeFiles/enocean_switch_nrf52840_xxAA_s140_6.0.0.dir/__/__/mesh/core/src/transport.c.obj
 .text.upper_transport_packet_in
                0x0002858c      0x150 examples/enocean_switch/CMakeFiles/enocean_switch_nrf52840_xxAA_s140_6.0.0.dir/__/__/mesh/core/src/transport.c.obj
 .text.upper_transport_tx
                0x000286dc      0x1e4 examples/enocean_switch/CMakeFiles/enocean_switch_nrf52840_xxAA_s140_6.0.0.dir/__/__/mesh/core/src/transport.c.obj
 .text.transport_sar_mem_funcs_reset
                0x000288c0       0x28 examples/enocean_switch/CMakeFiles/enocean_switch_nrf52840_xxAA_s140_6.0.0.dir/__/__/mesh/core/src/transport.c.obj
                0x000288c0                transport_sar_mem_funcs_reset
 .text.transport_init
                0x000288e8       0x8c examples/enocean_switch/CMakeFiles/enocean_switch_nrf52840_xxAA_s140_6.0.0.dir/__/__/mesh/core/src/transport.c.obj
                0x000288e8                transport_init
 .text.transport_tx
                0x00028974       0xb4 examples/enocean_switch/CMakeFiles/enocean_switch_nrf52840_xxAA_s140_6.0.0.dir/__/__/mesh/core/src/transport.c.obj
                0x00028974                transport_tx
 .text.transport_control_tx
                0x00028a28       0x8e examples/enocean_switch/CMakeFiles/enocean_switch_nrf52840_xxAA_s140_6.0.0.dir/__/__/mesh/core/src/transport.c.obj
                0x00028a28                transport_control_tx
 *fill*         0x00028ab6        0x2 
 .text.sar_ack_send
                0x00028ab8       0xa0 examples/enocean_switch/CMakeFiles/enocean_switch_nrf52840_xxAA_s140_6.0.0.dir/__/__/mesh/core/src/transport.c.obj
 .text.transport_sar_process
                0x00028b58       0x74 examples/enocean_switch/CMakeFiles/enocean_switch_nrf52840_xxAA_s140_6.0.0.dir/__/__/mesh/core/src/transport.c.obj
 .text.transport_packet_in
                0x00028bcc      0x434 examples/enocean_switch/CMakeFiles/enocean_switch_nrf52840_xxAA_s140_6.0.0.dir/__/__/mesh/core/src/transport.c.obj
                0x00028bcc                transport_packet_in
 .text.ack_timeout
                0x00029000       0x28 examples/enocean_switch/CMakeFiles/enocean_switch_nrf52840_xxAA_s140_6.0.0.dir/__/__/mesh/core/src/transport.c.obj
 .text.transport_opt_set
                0x00029028       0xd0 examples/enocean_switch/CMakeFiles/enocean_switch_nrf52840_xxAA_s140_6.0.0.dir/__/__/mesh/core/src/transport.c.obj
                0x00029028                transport_opt_set
 .text.transport_opt_get
                0x000290f8       0x68 examples/enocean_switch/CMakeFiles/enocean_switch_nrf52840_xxAA_s140_6.0.0.dir/__/__/mesh/core/src/transport.c.obj
                0x000290f8                transport_opt_get
 .text.transport_control_packet_consumer_add
                0x00029160       0x5c examples/enocean_switch/CMakeFiles/enocean_switch_nrf52840_xxAA_s140_6.0.0.dir/__/__/mesh/core/src/transport.c.obj
                0x00029160                transport_control_packet_consumer_add
 .text.event_handle
                0x000291bc       0x24 examples/enocean_switch/CMakeFiles/enocean_switch_nrf52840_xxAA_s140_6.0.0.dir/__/__/mesh/core/src/event.c.obj
                0x000291bc                event_handle
 .text.event_handler_add
                0x000291e0       0x1c examples/enocean_switch/CMakeFiles/enocean_switch_nrf52840_xxAA_s140_6.0.0.dir/__/__/mesh/core/src/event.c.obj
                0x000291e0                event_handler_add
 .text.event_handler_remove
                0x000291fc       0x1c examples/enocean_switch/CMakeFiles/enocean_switch_nrf52840_xxAA_s140_6.0.0.dir/__/__/mesh/core/src/event.c.obj
                0x000291fc                event_handler_remove
 .text.m_index_increment
                0x00029218       0x1e examples/enocean_switch/CMakeFiles/enocean_switch_nrf52840_xxAA_s140_6.0.0.dir/__/__/mesh/core/src/packet_buffer.c.obj
 .text.packet_buffer_init
                0x00029236       0xac examples/enocean_switch/CMakeFiles/enocean_switch_nrf52840_xxAA_s140_6.0.0.dir/__/__/mesh/core/src/packet_buffer.c.obj
                0x00029236                packet_buffer_init
 .text.packet_buffer_flush
                0x000292e2       0x60 examples/enocean_switch/CMakeFiles/enocean_switch_nrf52840_xxAA_s140_6.0.0.dir/__/__/mesh/core/src/packet_buffer.c.obj
                0x000292e2                packet_buffer_flush
 .text.packet_buffer_reserve
                0x00029342       0x96 examples/enocean_switch/CMakeFiles/enocean_switch_nrf52840_xxAA_s140_6.0.0.dir/__/__/mesh/core/src/packet_buffer.c.obj
                0x00029342                packet_buffer_reserve
 .text.packet_buffer_commit
                0x000293d8       0x58 examples/enocean_switch/CMakeFiles/enocean_switch_nrf52840_xxAA_s140_6.0.0.dir/__/__/mesh/core/src/packet_buffer.c.obj
                0x000293d8                packet_buffer_commit
 .text.packet_buffer_pop
                0x00029430       0x3c examples/enocean_switch/CMakeFiles/enocean_switch_nrf52840_xxAA_s140_6.0.0.dir/__/__/mesh/core/src/packet_buffer.c.obj
                0x00029430                packet_buffer_pop
 .text.packet_buffer_can_pop
                0x0002946c       0x1c examples/enocean_switch/CMakeFiles/enocean_switch_nrf52840_xxAA_s140_6.0.0.dir/__/__/mesh/core/src/packet_buffer.c.obj
                0x0002946c                packet_buffer_can_pop
 .text.packet_buffer_packets_ready_to_pop
                0x00029488       0x3a examples/enocean_switch/CMakeFiles/enocean_switch_nrf52840_xxAA_s140_6.0.0.dir/__/__/mesh/core/src/packet_buffer.c.obj
                0x00029488                packet_buffer_packets_ready_to_pop
 .text.packet_buffer_free
                0x000294c2       0x6e examples/enocean_switch/CMakeFiles/enocean_switch_nrf52840_xxAA_s140_6.0.0.dir/__/__/mesh/core/src/packet_buffer.c.obj
                0x000294c2                packet_buffer_free
 .text.get_last_page
                0x00029530       0x14 examples/enocean_switch/CMakeFiles/enocean_switch_nrf52840_xxAA_s140_6.0.0.dir/__/__/mesh/core/src/flash_manager_defrag.c.obj
 .text.defrag_on_end
                0x00029544       0x1c examples/enocean_switch/CMakeFiles/enocean_switch_nrf52840_xxAA_s140_6.0.0.dir/__/__/mesh/core/src/flash_manager_defrag.c.obj
 .text.execute_procedure_step
                0x00029560       0x7c examples/enocean_switch/CMakeFiles/enocean_switch_nrf52840_xxAA_s140_6.0.0.dir/__/__/mesh/core/src/flash_manager_defrag.c.obj
 .text.get_next_entry
                0x000295dc       0x34 examples/enocean_switch/CMakeFiles/enocean_switch_nrf52840_xxAA_s140_6.0.0.dir/__/__/mesh/core/src/flash_manager_defrag.c.obj
 .text.get_next_data_entry
                0x00029610       0x26 examples/enocean_switch/CMakeFiles/enocean_switch_nrf52840_xxAA_s140_6.0.0.dir/__/__/mesh/core/src/flash_manager_defrag.c.obj
 *fill*         0x00029636        0x2 
 .text.on_flash_op_end
                0x00029638       0x30 examples/enocean_switch/CMakeFiles/enocean_switch_nrf52840_xxAA_s140_6.0.0.dir/__/__/mesh/core/src/flash_manager_defrag.c.obj
 .text.check_for_invalid_entries
                0x00029668       0x38 examples/enocean_switch/CMakeFiles/enocean_switch_nrf52840_xxAA_s140_6.0.0.dir/__/__/mesh/core/src/flash_manager_defrag.c.obj
 .text.erase_recovery_area
                0x000296a0       0x34 examples/enocean_switch/CMakeFiles/enocean_switch_nrf52840_xxAA_s140_6.0.0.dir/__/__/mesh/core/src/flash_manager_defrag.c.obj
 .text.flash.constprop.6
                0x000296d4       0x24 examples/enocean_switch/CMakeFiles/enocean_switch_nrf52840_xxAA_s140_6.0.0.dir/__/__/mesh/core/src/flash_manager_defrag.c.obj
 .text.seal_storage_page
                0x000296f8       0x50 examples/enocean_switch/CMakeFiles/enocean_switch_nrf52840_xxAA_s140_6.0.0.dir/__/__/mesh/core/src/flash_manager_defrag.c.obj
 .text.invalidate_duplicate_entries
                0x00029748       0x9c examples/enocean_switch/CMakeFiles/enocean_switch_nrf52840_xxAA_s140_6.0.0.dir/__/__/mesh/core/src/flash_manager_defrag.c.obj
 .text.copy_metadata
                0x000297e4       0x3c examples/enocean_switch/CMakeFiles/enocean_switch_nrf52840_xxAA_s140_6.0.0.dir/__/__/mesh/core/src/flash_manager_defrag.c.obj
 .text.write_defrag_start_pointer
                0x00029820       0x20 examples/enocean_switch/CMakeFiles/enocean_switch_nrf52840_xxAA_s140_6.0.0.dir/__/__/mesh/core/src/flash_manager_defrag.c.obj
 .text.write_back
                0x00029840       0x28 examples/enocean_switch/CMakeFiles/enocean_switch_nrf52840_xxAA_s140_6.0.0.dir/__/__/mesh/core/src/flash_manager_defrag.c.obj
 .text.post_process
                0x00029868       0x40 examples/enocean_switch/CMakeFiles/enocean_switch_nrf52840_xxAA_s140_6.0.0.dir/__/__/mesh/core/src/flash_manager_defrag.c.obj
 .text.backup_entries
                0x000298a8       0xf8 examples/enocean_switch/CMakeFiles/enocean_switch_nrf52840_xxAA_s140_6.0.0.dir/__/__/mesh/core/src/flash_manager_defrag.c.obj
 .text.erase_source
                0x000299a0       0x34 examples/enocean_switch/CMakeFiles/enocean_switch_nrf52840_xxAA_s140_6.0.0.dir/__/__/mesh/core/src/flash_manager_defrag.c.obj
 .text.flash_manager_defrag_init
                0x000299d4       0x8c examples/enocean_switch/CMakeFiles/enocean_switch_nrf52840_xxAA_s140_6.0.0.dir/__/__/mesh/core/src/flash_manager_defrag.c.obj
                0x000299d4                flash_manager_defrag_init
 .text.flash_manager_defrag_is_running
                0x00029a60       0x10 examples/enocean_switch/CMakeFiles/enocean_switch_nrf52840_xxAA_s140_6.0.0.dir/__/__/mesh/core/src/flash_manager_defrag.c.obj
                0x00029a60                flash_manager_defrag_is_running
 .text.flash_manager_defrag
                0x00029a70       0x44 examples/enocean_switch/CMakeFiles/enocean_switch_nrf52840_xxAA_s140_6.0.0.dir/__/__/mesh/core/src/flash_manager_defrag.c.obj
                0x00029a70                flash_manager_defrag
 .text.flash_manager_defrag_recovery_page_get
                0x00029ab4        0xc examples/enocean_switch/CMakeFiles/enocean_switch_nrf52840_xxAA_s140_6.0.0.dir/__/__/mesh/core/src/flash_manager_defrag.c.obj
                0x00029ab4                flash_manager_defrag_recovery_page_get
 .text.fifo_init
                0x00029ac0       0x34 examples/enocean_switch/CMakeFiles/enocean_switch_nrf52840_xxAA_s140_6.0.0.dir/__/__/mesh/core/src/fifo.c.obj
                0x00029ac0                fifo_init
 .text.fifo_push
                0x00029af4       0x50 examples/enocean_switch/CMakeFiles/enocean_switch_nrf52840_xxAA_s140_6.0.0.dir/__/__/mesh/core/src/fifo.c.obj
                0x00029af4                fifo_push
 .text.fifo_pop
                0x00029b44       0x52 examples/enocean_switch/CMakeFiles/enocean_switch_nrf52840_xxAA_s140_6.0.0.dir/__/__/mesh/core/src/fifo.c.obj
                0x00029b44                fifo_pop
 *fill*         0x00029b96        0x2 
 .text.wait_for_ready
                0x00029b98       0x10 examples/enocean_switch/CMakeFiles/enocean_switch_nrf52840_xxAA_s140_6.0.0.dir/__/__/mesh/core/src/nrf_flash.c.obj
 .text.nrf_flash_erase
                0x00029ba8       0x50 examples/enocean_switch/CMakeFiles/enocean_switch_nrf52840_xxAA_s140_6.0.0.dir/__/__/mesh/core/src/nrf_flash.c.obj
                0x00029ba8                nrf_flash_erase
 .text.nrf_flash_write
                0x00029bf8       0x50 examples/enocean_switch/CMakeFiles/enocean_switch_nrf52840_xxAA_s140_6.0.0.dir/__/__/mesh/core/src/nrf_flash.c.obj
                0x00029bf8                nrf_flash_write
 .text.packet_mgr_init
                0x00029c48       0x4c examples/enocean_switch/CMakeFiles/enocean_switch_nrf52840_xxAA_s140_6.0.0.dir/__/__/mesh/core/src/packet_mgr.c.obj
                0x00029c48                packet_mgr_init
 .text.flash_store_iv_index
                0x00029c94       0x38 examples/enocean_switch/CMakeFiles/enocean_switch_nrf52840_xxAA_s140_6.0.0.dir/__/__/mesh/core/src/net_state.c.obj
 .text.flash_mem_available
                0x00029ccc       0x14 examples/enocean_switch/CMakeFiles/enocean_switch_nrf52840_xxAA_s140_6.0.0.dir/__/__/mesh/core/src/net_state.c.obj
 .text.seqnum_block_allocate
                0x00029ce0       0x4c examples/enocean_switch/CMakeFiles/enocean_switch_nrf52840_xxAA_s140_6.0.0.dir/__/__/mesh/core/src/net_state.c.obj
 .text.net_state_reset
                0x00029d2c       0x3c examples/enocean_switch/CMakeFiles/enocean_switch_nrf52840_xxAA_s140_6.0.0.dir/__/__/mesh/core/src/net_state.c.obj
                0x00029d2c                net_state_reset
 .text.flash_write_complete
                0x00029d68       0x64 examples/enocean_switch/CMakeFiles/enocean_switch_nrf52840_xxAA_s140_6.0.0.dir/__/__/mesh/core/src/net_state.c.obj
 .text.net_state_recover_from_flash
                0x00029dcc       0x8c examples/enocean_switch/CMakeFiles/enocean_switch_nrf52840_xxAA_s140_6.0.0.dir/__/__/mesh/core/src/net_state.c.obj
                0x00029dcc                net_state_recover_from_flash
 .text.net_state_flash_area_get
                0x00029e58        0xc examples/enocean_switch/CMakeFiles/enocean_switch_nrf52840_xxAA_s140_6.0.0.dir/__/__/mesh/core/src/net_state.c.obj
                0x00029e58                net_state_flash_area_get
 .text.init_flash_storage
                0x00029e64       0x40 examples/enocean_switch/CMakeFiles/enocean_switch_nrf52840_xxAA_s140_6.0.0.dir/__/__/mesh/core/src/net_state.c.obj
 .text.net_state_init
                0x00029ea4       0x5c examples/enocean_switch/CMakeFiles/enocean_switch_nrf52840_xxAA_s140_6.0.0.dir/__/__/mesh/core/src/net_state.c.obj
                0x00029ea4                net_state_init
 .text.net_state_iv_update_start
                0x00029f00       0x68 examples/enocean_switch/CMakeFiles/enocean_switch_nrf52840_xxAA_s140_6.0.0.dir/__/__/mesh/core/src/net_state.c.obj
                0x00029f00                net_state_iv_update_start
 .text.iv_update_trigger_if_pending
                0x00029f68       0x80 examples/enocean_switch/CMakeFiles/enocean_switch_nrf52840_xxAA_s140_6.0.0.dir/__/__/mesh/core/src/net_state.c.obj
 .text.mesh_evt_handler
                0x00029fe8       0xa0 examples/enocean_switch/CMakeFiles/enocean_switch_nrf52840_xxAA_s140_6.0.0.dir/__/__/mesh/core/src/net_state.c.obj
 .text.iv_update_timer_handler
                0x0002a088       0x68 examples/enocean_switch/CMakeFiles/enocean_switch_nrf52840_xxAA_s140_6.0.0.dir/__/__/mesh/core/src/net_state.c.obj
 .text.net_state_seqnum_alloc
                0x0002a0f0       0x68 examples/enocean_switch/CMakeFiles/enocean_switch_nrf52840_xxAA_s140_6.0.0.dir/__/__/mesh/core/src/net_state.c.obj
                0x0002a0f0                net_state_seqnum_alloc
 .text.net_state_iv_index_lock
                0x0002a158       0x3c examples/enocean_switch/CMakeFiles/enocean_switch_nrf52840_xxAA_s140_6.0.0.dir/__/__/mesh/core/src/net_state.c.obj
                0x0002a158                net_state_iv_index_lock
 .text.net_state_key_refresh_phase_changed
                0x0002a194       0x20 examples/enocean_switch/CMakeFiles/enocean_switch_nrf52840_xxAA_s140_6.0.0.dir/__/__/mesh/core/src/net_state.c.obj
                0x0002a194                net_state_key_refresh_phase_changed
 .text.net_state_beacon_iv_index_get
                0x0002a1b4        0xc examples/enocean_switch/CMakeFiles/enocean_switch_nrf52840_xxAA_s140_6.0.0.dir/__/__/mesh/core/src/net_state.c.obj
                0x0002a1b4                net_state_beacon_iv_index_get
 .text.net_state_tx_iv_index_get
                0x0002a1c0       0x14 examples/enocean_switch/CMakeFiles/enocean_switch_nrf52840_xxAA_s140_6.0.0.dir/__/__/mesh/core/src/net_state.c.obj
                0x0002a1c0                net_state_tx_iv_index_get
 .text.net_state_rx_iv_index_get
                0x0002a1d4       0x18 examples/enocean_switch/CMakeFiles/enocean_switch_nrf52840_xxAA_s140_6.0.0.dir/__/__/mesh/core/src/net_state.c.obj
                0x0002a1d4                net_state_rx_iv_index_get
 .text.net_state_iv_update_get
                0x0002a1ec        0xc examples/enocean_switch/CMakeFiles/enocean_switch_nrf52840_xxAA_s140_6.0.0.dir/__/__/mesh/core/src/net_state.c.obj
                0x0002a1ec                net_state_iv_update_get
 .text.net_state_iv_index_set
                0x0002a1f8       0x30 examples/enocean_switch/CMakeFiles/enocean_switch_nrf52840_xxAA_s140_6.0.0.dir/__/__/mesh/core/src/net_state.c.obj
                0x0002a1f8                net_state_iv_index_set
 .text.send_end_events
                0x0002a228       0x84 examples/enocean_switch/CMakeFiles/enocean_switch_nrf52840_xxAA_s140_6.0.0.dir/__/__/mesh/core/src/mesh_flash.c.obj
 .text.flash_op_schedule
                0x0002a2ac       0x88 examples/enocean_switch/CMakeFiles/enocean_switch_nrf52840_xxAA_s140_6.0.0.dir/__/__/mesh/core/src/mesh_flash.c.obj
 .text.flash_op_start
                0x0002a334      0x13c examples/enocean_switch/CMakeFiles/enocean_switch_nrf52840_xxAA_s140_6.0.0.dir/__/__/mesh/core/src/mesh_flash.c.obj
 .text.mesh_flash_init
                0x0002a470       0x88 examples/enocean_switch/CMakeFiles/enocean_switch_nrf52840_xxAA_s140_6.0.0.dir/__/__/mesh/core/src/mesh_flash.c.obj
                0x0002a470                mesh_flash_init
 .text.mesh_flash_user_callback_set
                0x0002a4f8       0x20 examples/enocean_switch/CMakeFiles/enocean_switch_nrf52840_xxAA_s140_6.0.0.dir/__/__/mesh/core/src/mesh_flash.c.obj
                0x0002a4f8                mesh_flash_user_callback_set
 .text.mesh_flash_op_push
                0x0002a518       0xe4 examples/enocean_switch/CMakeFiles/enocean_switch_nrf52840_xxAA_s140_6.0.0.dir/__/__/mesh/core/src/mesh_flash.c.obj
                0x0002a518                mesh_flash_op_push
 .text.nrf_mesh_address_type_get
                0x0002a5fc       0x10 examples/enocean_switch/CMakeFiles/enocean_switch_nrf52840_xxAA_s140_6.0.0.dir/__/__/mesh/core/src/nrf_mesh_utils.c.obj
                0x0002a5fc                nrf_mesh_address_type_get
 .text.sd_softdevice_is_enabled
                0x0002a60c        0x4 examples/enocean_switch/CMakeFiles/enocean_switch_nrf52840_xxAA_s140_6.0.0.dir/__/__/mesh/core/src/nrf_mesh.c.obj
 .text.nrf_mesh_listen
                0x0002a610      0x138 examples/enocean_switch/CMakeFiles/enocean_switch_nrf52840_xxAA_s140_6.0.0.dir/__/__/mesh/core/src/nrf_mesh.c.obj
 .text.flash_stable_cb
                0x0002a748       0x20 examples/enocean_switch/CMakeFiles/enocean_switch_nrf52840_xxAA_s140_6.0.0.dir/__/__/mesh/core/src/nrf_mesh.c.obj
 .text.scanner_packet_process_cb
                0x0002a768       0x8c examples/enocean_switch/CMakeFiles/enocean_switch_nrf52840_xxAA_s140_6.0.0.dir/__/__/mesh/core/src/nrf_mesh.c.obj
 .text.nrf_mesh_init
                0x0002a7f4       0xd8 examples/enocean_switch/CMakeFiles/enocean_switch_nrf52840_xxAA_s140_6.0.0.dir/__/__/mesh/core/src/nrf_mesh.c.obj
                0x0002a7f4                nrf_mesh_init
 .text.nrf_mesh_enable
                0x0002a8cc       0x3c examples/enocean_switch/CMakeFiles/enocean_switch_nrf52840_xxAA_s140_6.0.0.dir/__/__/mesh/core/src/nrf_mesh.c.obj
                0x0002a8cc                nrf_mesh_enable
 .text.nrf_mesh_packet_send
                0x0002a908       0x7c examples/enocean_switch/CMakeFiles/enocean_switch_nrf52840_xxAA_s140_6.0.0.dir/__/__/mesh/core/src/nrf_mesh.c.obj
                0x0002a908                nrf_mesh_packet_send
 .text.nrf_mesh_evt_handler_add
                0x0002a984        0x4 examples/enocean_switch/CMakeFiles/enocean_switch_nrf52840_xxAA_s140_6.0.0.dir/__/__/mesh/core/src/nrf_mesh.c.obj
                0x0002a984                nrf_mesh_evt_handler_add
 .text.nrf_mesh_on_sd_evt
                0x0002a988        0xa examples/enocean_switch/CMakeFiles/enocean_switch_nrf52840_xxAA_s140_6.0.0.dir/__/__/mesh/core/src/nrf_mesh.c.obj
                0x0002a988                nrf_mesh_on_sd_evt
 *fill*         0x0002a992        0x2 
 .text.nrf_mesh_rx_cb_set
                0x0002a994        0xc examples/enocean_switch/CMakeFiles/enocean_switch_nrf52840_xxAA_s140_6.0.0.dir/__/__/mesh/core/src/nrf_mesh.c.obj
                0x0002a994                nrf_mesh_rx_cb_set
 .text.nrf_mesh_subnet_added
                0x0002a9a0        0x2 examples/enocean_switch/CMakeFiles/enocean_switch_nrf52840_xxAA_s140_6.0.0.dir/__/__/mesh/core/src/nrf_mesh.c.obj
                0x0002a9a0                nrf_mesh_subnet_added
 .text.queue_init
                0x0002a9a2       0x14 examples/enocean_switch/CMakeFiles/enocean_switch_nrf52840_xxAA_s140_6.0.0.dir/__/__/mesh/core/src/queue.c.obj
                0x0002a9a2                queue_init
 .text.queue_push
                0x0002a9b6       0x34 examples/enocean_switch/CMakeFiles/enocean_switch_nrf52840_xxAA_s140_6.0.0.dir/__/__/mesh/core/src/queue.c.obj
                0x0002a9b6                queue_push
 .text.queue_pop
                0x0002a9ea       0x26 examples/enocean_switch/CMakeFiles/enocean_switch_nrf52840_xxAA_s140_6.0.0.dir/__/__/mesh/core/src/queue.c.obj
                0x0002a9ea                queue_pop
 .text.queue_peek
                0x0002aa10       0x10 examples/enocean_switch/CMakeFiles/enocean_switch_nrf52840_xxAA_s140_6.0.0.dir/__/__/mesh/core/src/queue.c.obj
                0x0002aa10                queue_peek
 .text.sd_power_reset_reason_clr
                0x0002aa20        0x4 examples/enocean_switch/CMakeFiles/enocean_switch_nrf52840_xxAA_s140_6.0.0.dir/__/__/mesh/core/src/hal.c.obj
 .text.hal_device_reset
                0x0002aa24       0x2c examples/enocean_switch/CMakeFiles/enocean_switch_nrf52840_xxAA_s140_6.0.0.dir/__/__/mesh/core/src/hal.c.obj
                0x0002aa24                hal_device_reset
 .text.hal_lfclk_ppm_get
                0x0002aa50       0x14 examples/enocean_switch/CMakeFiles/enocean_switch_nrf52840_xxAA_s140_6.0.0.dir/__/__/mesh/core/src/hal.c.obj
                0x0002aa50                hal_lfclk_ppm_get
 .text.my_xor.constprop.1
                0x0002aa64       0x20 examples/enocean_switch/CMakeFiles/enocean_switch_nrf52840_xxAA_s140_6.0.0.dir/__/__/mesh/core/src/aes_cmac.c.obj
 .text.utils_lshift.constprop.2
                0x0002aa84       0x24 examples/enocean_switch/CMakeFiles/enocean_switch_nrf52840_xxAA_s140_6.0.0.dir/__/__/mesh/core/src/aes_cmac.c.obj
 .text.aes_cmac_subkey_generate
                0x0002aaa8       0x6c examples/enocean_switch/CMakeFiles/enocean_switch_nrf52840_xxAA_s140_6.0.0.dir/__/__/mesh/core/src/aes_cmac.c.obj
                0x0002aaa8                aes_cmac_subkey_generate
 .text.aes_cmac
                0x0002ab14       0xbc examples/enocean_switch/CMakeFiles/enocean_switch_nrf52840_xxAA_s140_6.0.0.dir/__/__/mesh/core/src/aes_cmac.c.obj
                0x0002ab14                aes_cmac
 .text.add_to_add_list
                0x0002abd0       0x30 examples/enocean_switch/CMakeFiles/enocean_switch_nrf52840_xxAA_s140_6.0.0.dir/__/__/mesh/core/src/timer_scheduler.c.obj
 .text.process_dirty_events
                0x0002ac00       0x5c examples/enocean_switch/CMakeFiles/enocean_switch_nrf52840_xxAA_s140_6.0.0.dir/__/__/mesh/core/src/timer_scheduler.c.obj
 .text.timer_cb
                0x0002ac5c        0xc examples/enocean_switch/CMakeFiles/enocean_switch_nrf52840_xxAA_s140_6.0.0.dir/__/__/mesh/core/src/timer_scheduler.c.obj
 .text.add_evt.constprop.1
                0x0002ac68       0x58 examples/enocean_switch/CMakeFiles/enocean_switch_nrf52840_xxAA_s140_6.0.0.dir/__/__/mesh/core/src/timer_scheduler.c.obj
 .text.process_add_list
                0x0002acc0       0x3c examples/enocean_switch/CMakeFiles/enocean_switch_nrf52840_xxAA_s140_6.0.0.dir/__/__/mesh/core/src/timer_scheduler.c.obj
 .text.flag_event_cb
                0x0002acfc       0xd8 examples/enocean_switch/CMakeFiles/enocean_switch_nrf52840_xxAA_s140_6.0.0.dir/__/__/mesh/core/src/timer_scheduler.c.obj
 .text.timer_sch_init
                0x0002add4       0x24 examples/enocean_switch/CMakeFiles/enocean_switch_nrf52840_xxAA_s140_6.0.0.dir/__/__/mesh/core/src/timer_scheduler.c.obj
                0x0002add4                timer_sch_init
 .text.timer_sch_schedule
                0x0002adf8       0x3c examples/enocean_switch/CMakeFiles/enocean_switch_nrf52840_xxAA_s140_6.0.0.dir/__/__/mesh/core/src/timer_scheduler.c.obj
                0x0002adf8                timer_sch_schedule
 .text.timer_sch_abort
                0x0002ae34       0x58 examples/enocean_switch/CMakeFiles/enocean_switch_nrf52840_xxAA_s140_6.0.0.dir/__/__/mesh/core/src/timer_scheduler.c.obj
                0x0002ae34                timer_sch_abort
 .text.timer_sch_reschedule
                0x0002ae8c       0x64 examples/enocean_switch/CMakeFiles/enocean_switch_nrf52840_xxAA_s140_6.0.0.dir/__/__/mesh/core/src/timer_scheduler.c.obj
                0x0002ae8c                timer_sch_reschedule
 .text.timer_mut_unlock
                0x0002aef0       0x10 examples/enocean_switch/CMakeFiles/enocean_switch_nrf52840_xxAA_s140_6.0.0.dir/__/__/mesh/core/src/timer.c.obj
 .text.timer_order_cb
                0x0002af00       0x94 examples/enocean_switch/CMakeFiles/enocean_switch_nrf52840_xxAA_s140_6.0.0.dir/__/__/mesh/core/src/timer.c.obj
                0x0002af00                timer_order_cb
 .text.timer_now
                0x0002af94       0x48 examples/enocean_switch/CMakeFiles/enocean_switch_nrf52840_xxAA_s140_6.0.0.dir/__/__/mesh/core/src/timer.c.obj
                0x0002af94                timer_now
 .text.timer_event_handler
                0x0002afdc       0x84 examples/enocean_switch/CMakeFiles/enocean_switch_nrf52840_xxAA_s140_6.0.0.dir/__/__/mesh/core/src/timer.c.obj
                0x0002afdc                timer_event_handler
 .text.timer_on_ts_begin
                0x0002b060       0xf4 examples/enocean_switch/CMakeFiles/enocean_switch_nrf52840_xxAA_s140_6.0.0.dir/__/__/mesh/core/src/timer.c.obj
                0x0002b060                timer_on_ts_begin
 .text.timer_on_ts_end
                0x0002b154       0x60 examples/enocean_switch/CMakeFiles/enocean_switch_nrf52840_xxAA_s140_6.0.0.dir/__/__/mesh/core/src/timer.c.obj
                0x0002b154                timer_on_ts_end
 .text.timer_cb
                0x0002b1b4       0x10 examples/enocean_switch/CMakeFiles/enocean_switch_nrf52840_xxAA_s140_6.0.0.dir/__/__/mesh/core/src/ticker.c.obj
 .text.ticker_init
                0x0002b1c4       0x3c examples/enocean_switch/CMakeFiles/enocean_switch_nrf52840_xxAA_s140_6.0.0.dir/__/__/mesh/core/src/ticker.c.obj
                0x0002b1c4                ticker_init
 .text.sd_rand_application_bytes_available_get
                0x0002b200        0x4 examples/enocean_switch/CMakeFiles/enocean_switch_nrf52840_xxAA_s140_6.0.0.dir/__/__/mesh/core/src/rand.c.obj
 .text.sd_rand_application_vector_get
                0x0002b204        0x4 examples/enocean_switch/CMakeFiles/enocean_switch_nrf52840_xxAA_s140_6.0.0.dir/__/__/mesh/core/src/rand.c.obj
 .text.rand_prng_get
                0x0002b208       0x22 examples/enocean_switch/CMakeFiles/enocean_switch_nrf52840_xxAA_s140_6.0.0.dir/__/__/mesh/core/src/rand.c.obj
                0x0002b208                rand_prng_get
 .text.rand_hw_rng_get
                0x0002b22a       0x44 examples/enocean_switch/CMakeFiles/enocean_switch_nrf52840_xxAA_s140_6.0.0.dir/__/__/mesh/core/src/rand.c.obj
                0x0002b22a                rand_hw_rng_get
 *fill*         0x0002b26e        0x2 
 .text.rand_prng_seed
                0x0002b270       0x34 examples/enocean_switch/CMakeFiles/enocean_switch_nrf52840_xxAA_s140_6.0.0.dir/__/__/mesh/core/src/rand.c.obj
                0x0002b270                rand_prng_seed
 .text.nrf_mesh_opt_set
                0x0002b2a4       0x26 examples/enocean_switch/CMakeFiles/enocean_switch_nrf52840_xxAA_s140_6.0.0.dir/__/__/mesh/core/src/nrf_mesh_opt.c.obj
                0x0002b2a4                nrf_mesh_opt_set
 .text.nrf_mesh_opt_get
                0x0002b2ca       0x26 examples/enocean_switch/CMakeFiles/enocean_switch_nrf52840_xxAA_s140_6.0.0.dir/__/__/mesh/core/src/nrf_mesh_opt.c.obj
                0x0002b2ca                nrf_mesh_opt_get
 .text.sd_radio_session_open
                0x0002b2f0        0x4 examples/enocean_switch/CMakeFiles/enocean_switch_nrf52840_xxAA_s140_6.0.0.dir/__/__/mesh/core/src/timeslot.c.obj
 .text.sd_radio_session_close
                0x0002b2f4        0x4 examples/enocean_switch/CMakeFiles/enocean_switch_nrf52840_xxAA_s140_6.0.0.dir/__/__/mesh/core/src/timeslot.c.obj
 .text.sd_radio_request
                0x0002b2f8        0x4 examples/enocean_switch/CMakeFiles/enocean_switch_nrf52840_xxAA_s140_6.0.0.dir/__/__/mesh/core/src/timeslot.c.obj
 .text.end_timer_handler
                0x0002b2fc       0x24 examples/enocean_switch/CMakeFiles/enocean_switch_nrf52840_xxAA_s140_6.0.0.dir/__/__/mesh/core/src/timeslot.c.obj
 .text.get_end_time.constprop.10
                0x0002b320       0x28 examples/enocean_switch/CMakeFiles/enocean_switch_nrf52840_xxAA_s140_6.0.0.dir/__/__/mesh/core/src/timeslot.c.obj
 .text.handle_extend_end.constprop.3
                0x0002b348       0xb4 examples/enocean_switch/CMakeFiles/enocean_switch_nrf52840_xxAA_s140_6.0.0.dir/__/__/mesh/core/src/timeslot.c.obj
 .text.radio_signal_callback
                0x0002b3fc      0x138 examples/enocean_switch/CMakeFiles/enocean_switch_nrf52840_xxAA_s140_6.0.0.dir/__/__/mesh/core/src/timeslot.c.obj
 .text.timeslot_sd_event_handler
                0x0002b534       0x38 examples/enocean_switch/CMakeFiles/enocean_switch_nrf52840_xxAA_s140_6.0.0.dir/__/__/mesh/core/src/timeslot.c.obj
                0x0002b534                timeslot_sd_event_handler
 .text.timeslot_init
                0x0002b56c       0x48 examples/enocean_switch/CMakeFiles/enocean_switch_nrf52840_xxAA_s140_6.0.0.dir/__/__/mesh/core/src/timeslot.c.obj
                0x0002b56c                timeslot_init
 .text.timeslot_start
                0x0002b5b4       0x20 examples/enocean_switch/CMakeFiles/enocean_switch_nrf52840_xxAA_s140_6.0.0.dir/__/__/mesh/core/src/timeslot.c.obj
                0x0002b5b4                timeslot_start
 .text.timeslot_end_is_pending
                0x0002b5d4       0x24 examples/enocean_switch/CMakeFiles/enocean_switch_nrf52840_xxAA_s140_6.0.0.dir/__/__/mesh/core/src/timeslot.c.obj
                0x0002b5d4                timeslot_end_is_pending
 .text.timeslot_start_time_get
                0x0002b5f8        0xc examples/enocean_switch/CMakeFiles/enocean_switch_nrf52840_xxAA_s140_6.0.0.dir/__/__/mesh/core/src/timeslot.c.obj
                0x0002b5f8                timeslot_start_time_get
 .text.timeslot_remaining_time_get
                0x0002b604       0x20 examples/enocean_switch/CMakeFiles/enocean_switch_nrf52840_xxAA_s140_6.0.0.dir/__/__/mesh/core/src/timeslot.c.obj
                0x0002b604                timeslot_remaining_time_get
 .text.timeslot_is_in_cb
                0x0002b624        0xc examples/enocean_switch/CMakeFiles/enocean_switch_nrf52840_xxAA_s140_6.0.0.dir/__/__/mesh/core/src/timeslot.c.obj
                0x0002b624                timeslot_is_in_cb
 .text.timeslot_trigger
                0x0002b630       0x24 examples/enocean_switch/CMakeFiles/enocean_switch_nrf52840_xxAA_s140_6.0.0.dir/__/__/mesh/core/src/timeslot.c.obj
                0x0002b630                timeslot_trigger
 .text.timeslot_stop
                0x0002b654       0x10 examples/enocean_switch/CMakeFiles/enocean_switch_nrf52840_xxAA_s140_6.0.0.dir/__/__/mesh/core/src/timeslot.c.obj
                0x0002b654                timeslot_stop
 .text.timeslot_state_lock
                0x0002b664       0x28 examples/enocean_switch/CMakeFiles/enocean_switch_nrf52840_xxAA_s140_6.0.0.dir/__/__/mesh/core/src/timeslot.c.obj
                0x0002b664                timeslot_state_lock
 .text.trigger_event_handler
                0x0002b68c       0x1c examples/enocean_switch/CMakeFiles/enocean_switch_nrf52840_xxAA_s140_6.0.0.dir/__/__/mesh/core/src/bearer_event.c.obj
 .text.evt_push
                0x0002b6a8       0x1c examples/enocean_switch/CMakeFiles/enocean_switch_nrf52840_xxAA_s140_6.0.0.dir/__/__/mesh/core/src/bearer_event.c.obj
 .text.bearer_event_init
                0x0002b6c4       0x48 examples/enocean_switch/CMakeFiles/enocean_switch_nrf52840_xxAA_s140_6.0.0.dir/__/__/mesh/core/src/bearer_event.c.obj
                0x0002b6c4                bearer_event_init
 .text.bearer_event_timer_post
                0x0002b70c       0x24 examples/enocean_switch/CMakeFiles/enocean_switch_nrf52840_xxAA_s140_6.0.0.dir/__/__/mesh/core/src/bearer_event.c.obj
                0x0002b70c                bearer_event_timer_post
 .text.bearer_event_critical_section_begin
                0x0002b730       0x44 examples/enocean_switch/CMakeFiles/enocean_switch_nrf52840_xxAA_s140_6.0.0.dir/__/__/mesh/core/src/bearer_event.c.obj
                0x0002b730                bearer_event_critical_section_begin
 .text.bearer_event_critical_section_end
                0x0002b774       0x40 examples/enocean_switch/CMakeFiles/enocean_switch_nrf52840_xxAA_s140_6.0.0.dir/__/__/mesh/core/src/bearer_event.c.obj
                0x0002b774                bearer_event_critical_section_end
 .text.bearer_event_flag_add
                0x0002b7b4       0x3c examples/enocean_switch/CMakeFiles/enocean_switch_nrf52840_xxAA_s140_6.0.0.dir/__/__/mesh/core/src/bearer_event.c.obj
                0x0002b7b4                bearer_event_flag_add
 .text.bearer_event_flag_set
                0x0002b7f0       0x44 examples/enocean_switch/CMakeFiles/enocean_switch_nrf52840_xxAA_s140_6.0.0.dir/__/__/mesh/core/src/bearer_event.c.obj
                0x0002b7f0                bearer_event_flag_set
 .text.bearer_event_sequential_add
                0x0002b834       0x2e examples/enocean_switch/CMakeFiles/enocean_switch_nrf52840_xxAA_s140_6.0.0.dir/__/__/mesh/core/src/bearer_event.c.obj
                0x0002b834                bearer_event_sequential_add
 *fill*         0x0002b862        0x2 
 .text.bearer_event_sequential_post
                0x0002b864       0x44 examples/enocean_switch/CMakeFiles/enocean_switch_nrf52840_xxAA_s140_6.0.0.dir/__/__/mesh/core/src/bearer_event.c.obj
                0x0002b864                bearer_event_sequential_post
 .text.bearer_event_sequential_pending
                0x0002b8a8       0x10 examples/enocean_switch/CMakeFiles/enocean_switch_nrf52840_xxAA_s140_6.0.0.dir/__/__/mesh/core/src/bearer_event.c.obj
                0x0002b8a8                bearer_event_sequential_pending
 .text.bearer_event_handler
                0x0002b8b8       0xe8 examples/enocean_switch/CMakeFiles/enocean_switch_nrf52840_xxAA_s140_6.0.0.dir/__/__/mesh/core/src/bearer_event.c.obj
                0x0002b8b8                bearer_event_handler
 .text.QDEC_IRQHandler
                0x0002b9a0        0x4 examples/enocean_switch/CMakeFiles/enocean_switch_nrf52840_xxAA_s140_6.0.0.dir/__/__/mesh/core/src/bearer_event.c.obj
                0x0002b9a0                QDEC_IRQHandler
 .text.enc_aes_encrypt
                0x0002b9a4        0x4 examples/enocean_switch/CMakeFiles/enocean_switch_nrf52840_xxAA_s140_6.0.0.dir/__/__/mesh/core/src/enc.c.obj
                0x0002b9a4                enc_aes_encrypt
 .text.enc_aes_cmac
                0x0002b9a8        0x4 examples/enocean_switch/CMakeFiles/enocean_switch_nrf52840_xxAA_s140_6.0.0.dir/__/__/mesh/core/src/enc.c.obj
                0x0002b9a8                enc_aes_cmac
 .text.enc_aes_ccm_encrypt
                0x0002b9ac        0x4 examples/enocean_switch/CMakeFiles/enocean_switch_nrf52840_xxAA_s140_6.0.0.dir/__/__/mesh/core/src/enc.c.obj
                0x0002b9ac                enc_aes_ccm_encrypt
 .text.enc_aes_ccm_decrypt
                0x0002b9b0        0x4 examples/enocean_switch/CMakeFiles/enocean_switch_nrf52840_xxAA_s140_6.0.0.dir/__/__/mesh/core/src/enc.c.obj
                0x0002b9b0                enc_aes_ccm_decrypt
 .text.enc_nonce_generate
                0x0002b9b4       0xbc examples/enocean_switch/CMakeFiles/enocean_switch_nrf52840_xxAA_s140_6.0.0.dir/__/__/mesh/core/src/enc.c.obj
                0x0002b9b4                enc_nonce_generate
 .text.enc_s1   0x0002ba70       0x2c examples/enocean_switch/CMakeFiles/enocean_switch_nrf52840_xxAA_s140_6.0.0.dir/__/__/mesh/core/src/enc.c.obj
                0x0002ba70                enc_s1
 .text.enc_k1   0x0002ba9c       0x3c examples/enocean_switch/CMakeFiles/enocean_switch_nrf52840_xxAA_s140_6.0.0.dir/__/__/mesh/core/src/enc.c.obj
                0x0002ba9c                enc_k1
 .text.enc_k2   0x0002bad8       0xc8 examples/enocean_switch/CMakeFiles/enocean_switch_nrf52840_xxAA_s140_6.0.0.dir/__/__/mesh/core/src/enc.c.obj
                0x0002bad8                enc_k2
 .text.enc_k3   0x0002bba0       0x5c examples/enocean_switch/CMakeFiles/enocean_switch_nrf52840_xxAA_s140_6.0.0.dir/__/__/mesh/core/src/enc.c.obj
                0x0002bba0                enc_k3
 .text.enc_k4   0x0002bbfc       0x54 examples/enocean_switch/CMakeFiles/enocean_switch_nrf52840_xxAA_s140_6.0.0.dir/__/__/mesh/core/src/enc.c.obj
                0x0002bbfc                enc_k4
 .text.allocate_packet
                0x0002bc50       0x6a examples/enocean_switch/CMakeFiles/enocean_switch_nrf52840_xxAA_s140_6.0.0.dir/__/__/mesh/core/src/network.c.obj
 *fill*         0x0002bcba        0x2 
 .text.network_init
                0x0002bcbc       0x2c examples/enocean_switch/CMakeFiles/enocean_switch_nrf52840_xxAA_s140_6.0.0.dir/__/__/mesh/core/src/network.c.obj
                0x0002bcbc                network_init
 .text.network_opt_set
                0x0002bce8       0x70 examples/enocean_switch/CMakeFiles/enocean_switch_nrf52840_xxAA_s140_6.0.0.dir/__/__/mesh/core/src/network.c.obj
                0x0002bce8                network_opt_set
 .text.network_opt_get
                0x0002bd58       0x4c examples/enocean_switch/CMakeFiles/enocean_switch_nrf52840_xxAA_s140_6.0.0.dir/__/__/mesh/core/src/network.c.obj
                0x0002bd58                network_opt_get
 .text.network_packet_alloc
                0x0002bda4       0x30 examples/enocean_switch/CMakeFiles/enocean_switch_nrf52840_xxAA_s140_6.0.0.dir/__/__/mesh/core/src/network.c.obj
                0x0002bda4                network_packet_alloc
 .text.network_packet_send
                0x0002bdd4       0x46 examples/enocean_switch/CMakeFiles/enocean_switch_nrf52840_xxAA_s140_6.0.0.dir/__/__/mesh/core/src/network.c.obj
                0x0002bdd4                network_packet_send
 *fill*         0x0002be1a        0x2 
 .text.network_packet_in
                0x0002be1c      0x168 examples/enocean_switch/CMakeFiles/enocean_switch_nrf52840_xxAA_s140_6.0.0.dir/__/__/mesh/core/src/network.c.obj
                0x0002be1c                network_packet_in
 .text.nonce_type_get
                0x0002bf84       0x16 examples/enocean_switch/CMakeFiles/enocean_switch_nrf52840_xxAA_s140_6.0.0.dir/__/__/mesh/core/src/net_packet.c.obj
 .text.header_transfuscate
                0x0002bf9a       0x54 examples/enocean_switch/CMakeFiles/enocean_switch_nrf52840_xxAA_s140_6.0.0.dir/__/__/mesh/core/src/net_packet.c.obj
 *fill*         0x0002bfee        0x2 
 .text.net_packet_decrypt
                0x0002bff0      0x224 examples/enocean_switch/CMakeFiles/enocean_switch_nrf52840_xxAA_s140_6.0.0.dir/__/__/mesh/core/src/net_packet.c.obj
                0x0002bff0                net_packet_decrypt
 .text.net_packet_encrypt
                0x0002c214       0x7e examples/enocean_switch/CMakeFiles/enocean_switch_nrf52840_xxAA_s140_6.0.0.dir/__/__/mesh/core/src/net_packet.c.obj
                0x0002c214                net_packet_encrypt
 .text.net_packet_header_set
                0x0002c292       0xaa examples/enocean_switch/CMakeFiles/enocean_switch_nrf52840_xxAA_s140_6.0.0.dir/__/__/mesh/core/src/net_packet.c.obj
                0x0002c292                net_packet_header_set
 .text.net_packet_payload_len_get
                0x0002c33c       0x10 examples/enocean_switch/CMakeFiles/enocean_switch_nrf52840_xxAA_s140_6.0.0.dir/__/__/mesh/core/src/net_packet.c.obj
                0x0002c33c                net_packet_payload_len_get
 .text.net_packet_from_payload
                0x0002c34c        0x4 examples/enocean_switch/CMakeFiles/enocean_switch_nrf52840_xxAA_s140_6.0.0.dir/__/__/mesh/core/src/net_packet.c.obj
                0x0002c34c                net_packet_from_payload
 .text.net_packet_obfuscation_start_get
                0x0002c350        0x4 examples/enocean_switch/CMakeFiles/enocean_switch_nrf52840_xxAA_s140_6.0.0.dir/__/__/mesh/core/src/net_packet.c.obj
                0x0002c350                net_packet_obfuscation_start_get
 .text.stage_get_available
                0x0002c354       0x24 examples/enocean_switch/CMakeFiles/enocean_switch_nrf52840_xxAA_s140_6.0.0.dir/__/__/mesh/core/src/msqueue.c.obj
 .text.msq_get  0x0002c378       0x38 examples/enocean_switch/CMakeFiles/enocean_switch_nrf52840_xxAA_s140_6.0.0.dir/__/__/mesh/core/src/msqueue.c.obj
                0x0002c378                msq_get
 .text.msq_move
                0x0002c3b0       0x2e examples/enocean_switch/CMakeFiles/enocean_switch_nrf52840_xxAA_s140_6.0.0.dir/__/__/mesh/core/src/msqueue.c.obj
                0x0002c3b0                msq_move
 .text.msq_reset
                0x0002c3de       0x20 examples/enocean_switch/CMakeFiles/enocean_switch_nrf52840_xxAA_s140_6.0.0.dir/__/__/mesh/core/src/msqueue.c.obj
                0x0002c3de                msq_reset
 .text.msq_init
                0x0002c3fe       0x4a examples/enocean_switch/CMakeFiles/enocean_switch_nrf52840_xxAA_s140_6.0.0.dir/__/__/mesh/core/src/msqueue.c.obj
                0x0002c3fe                msq_init
 .text.msq_available
                0x0002c448       0x26 examples/enocean_switch/CMakeFiles/enocean_switch_nrf52840_xxAA_s140_6.0.0.dir/__/__/mesh/core/src/msqueue.c.obj
                0x0002c448                msq_available
 .text.nrf_mesh_keygen_aid
                0x0002c46e       0x12 examples/enocean_switch/CMakeFiles/enocean_switch_nrf52840_xxAA_s140_6.0.0.dir/__/__/mesh/core/src/nrf_mesh_keygen.c.obj
                0x0002c46e                nrf_mesh_keygen_aid
 .text.nrf_mesh_keygen_network_secmat
                0x0002c480       0x20 examples/enocean_switch/CMakeFiles/enocean_switch_nrf52840_xxAA_s140_6.0.0.dir/__/__/mesh/core/src/nrf_mesh_keygen.c.obj
                0x0002c480                nrf_mesh_keygen_network_secmat
 .text.nrf_mesh_keygen_beacon_secmat
                0x0002c4a0       0x50 examples/enocean_switch/CMakeFiles/enocean_switch_nrf52840_xxAA_s140_6.0.0.dir/__/__/mesh/core/src/nrf_mesh_keygen.c.obj
                0x0002c4a0                nrf_mesh_keygen_beacon_secmat
 .text.nrf_mesh_keygen_virtual_address
                0x0002c4f0       0x50 examples/enocean_switch/CMakeFiles/enocean_switch_nrf52840_xxAA_s140_6.0.0.dir/__/__/mesh/core/src/nrf_mesh_keygen.c.obj
                0x0002c4f0                nrf_mesh_keygen_virtual_address
 .text.list_insert
                0x0002c540       0x1c examples/enocean_switch/CMakeFiles/enocean_switch_nrf52840_xxAA_s140_6.0.0.dir/__/__/mesh/core/src/list.c.obj
 .text.list_add
                0x0002c55c       0x42 examples/enocean_switch/CMakeFiles/enocean_switch_nrf52840_xxAA_s140_6.0.0.dir/__/__/mesh/core/src/list.c.obj
                0x0002c55c                list_add
 .text.list_remove
                0x0002c59e       0x3a examples/enocean_switch/CMakeFiles/enocean_switch_nrf52840_xxAA_s140_6.0.0.dir/__/__/mesh/core/src/list.c.obj
                0x0002c59e                list_remove
 .text.list_compare_add
                0x0002c5d8       0x56 examples/enocean_switch/CMakeFiles/enocean_switch_nrf52840_xxAA_s140_6.0.0.dir/__/__/mesh/core/src/list.c.obj
                0x0002c5d8                list_compare_add
 *fill*         0x0002c62e        0x2 
 .text.log_callback_rtt
                0x0002c630       0x2c examples/enocean_switch/CMakeFiles/enocean_switch_nrf52840_xxAA_s140_6.0.0.dir/__/__/mesh/core/src/log.c.obj
                0x0002c630                log_callback_rtt
 .text.log_init
                0x0002c65c       0x1c examples/enocean_switch/CMakeFiles/enocean_switch_nrf52840_xxAA_s140_6.0.0.dir/__/__/mesh/core/src/log.c.obj
                0x0002c65c                log_init
 .text.log_vprintf
                0x0002c678       0x18 examples/enocean_switch/CMakeFiles/enocean_switch_nrf52840_xxAA_s140_6.0.0.dir/__/__/mesh/core/src/log.c.obj
                0x0002c678                log_vprintf
 .text.log_printf
                0x0002c690       0x18 examples/enocean_switch/CMakeFiles/enocean_switch_nrf52840_xxAA_s140_6.0.0.dir/__/__/mesh/core/src/log.c.obj
                0x0002c690                log_printf
 .text.get_area_end
                0x0002c6a8        0xc examples/enocean_switch/CMakeFiles/enocean_switch_nrf52840_xxAA_s140_6.0.0.dir/__/__/mesh/core/src/flash_manager.c.obj
 .text.handle_matches_filter
                0x0002c6b4       0x26 examples/enocean_switch/CMakeFiles/enocean_switch_nrf52840_xxAA_s140_6.0.0.dir/__/__/mesh/core/src/flash_manager.c.obj
 .text.flash_area_is_blank
                0x0002c6da       0x34 examples/enocean_switch/CMakeFiles/enocean_switch_nrf52840_xxAA_s140_6.0.0.dir/__/__/mesh/core/src/flash_manager.c.obj
 *fill*         0x0002c70e        0x2 
 .text.get_packet_buffer
                0x0002c710       0x20 examples/enocean_switch/CMakeFiles/enocean_switch_nrf52840_xxAA_s140_6.0.0.dir/__/__/mesh/core/src/flash_manager.c.obj
 .text.flash    0x0002c730       0x1c examples/enocean_switch/CMakeFiles/enocean_switch_nrf52840_xxAA_s140_6.0.0.dir/__/__/mesh/core/src/flash_manager.c.obj
 .text.free_packet_buffer
                0x0002c74c       0x3c examples/enocean_switch/CMakeFiles/enocean_switch_nrf52840_xxAA_s140_6.0.0.dir/__/__/mesh/core/src/flash_manager.c.obj
 .text.reserve_action_buffer
                0x0002c788       0x24 examples/enocean_switch/CMakeFiles/enocean_switch_nrf52840_xxAA_s140_6.0.0.dir/__/__/mesh/core/src/flash_manager.c.obj
 .text.commit_action_buffer
                0x0002c7ac       0x18 examples/enocean_switch/CMakeFiles/enocean_switch_nrf52840_xxAA_s140_6.0.0.dir/__/__/mesh/core/src/flash_manager.c.obj
 .text.schedule_processing
                0x0002c7c4        0xc examples/enocean_switch/CMakeFiles/enocean_switch_nrf52840_xxAA_s140_6.0.0.dir/__/__/mesh/core/src/flash_manager.c.obj
 .text.get_next_entry
                0x0002c7d0       0x34 examples/enocean_switch/CMakeFiles/enocean_switch_nrf52840_xxAA_s140_6.0.0.dir/__/__/mesh/core/src/flash_manager.c.obj
 .text.get_last_entry.isra.1
                0x0002c804       0x30 examples/enocean_switch/CMakeFiles/enocean_switch_nrf52840_xxAA_s140_6.0.0.dir/__/__/mesh/core/src/flash_manager.c.obj
 .text.process_action_queue
                0x0002c834      0x3b0 examples/enocean_switch/CMakeFiles/enocean_switch_nrf52840_xxAA_s140_6.0.0.dir/__/__/mesh/core/src/flash_manager.c.obj
 .text.flash_op_ended_callback
                0x0002cbe4       0x24 examples/enocean_switch/CMakeFiles/enocean_switch_nrf52840_xxAA_s140_6.0.0.dir/__/__/mesh/core/src/flash_manager.c.obj
 .text.flash_manager_init
                0x0002cc08       0x68 examples/enocean_switch/CMakeFiles/enocean_switch_nrf52840_xxAA_s140_6.0.0.dir/__/__/mesh/core/src/flash_manager.c.obj
                0x0002cc08                flash_manager_init
 .text.flash_manager_remove
                0x0002cc70       0x24 examples/enocean_switch/CMakeFiles/enocean_switch_nrf52840_xxAA_s140_6.0.0.dir/__/__/mesh/core/src/flash_manager.c.obj
                0x0002cc70                flash_manager_remove
 .text.flash_manager_entry_get
                0x0002cc94       0x3c examples/enocean_switch/CMakeFiles/enocean_switch_nrf52840_xxAA_s140_6.0.0.dir/__/__/mesh/core/src/flash_manager.c.obj
                0x0002cc94                flash_manager_entry_get
 .text.flash_manager_entry_next_get
                0x0002ccd0       0x60 examples/enocean_switch/CMakeFiles/enocean_switch_nrf52840_xxAA_s140_6.0.0.dir/__/__/mesh/core/src/flash_manager.c.obj
                0x0002ccd0                flash_manager_entry_next_get
 .text.flash_manager_entry_alloc
                0x0002cd30       0x5c examples/enocean_switch/CMakeFiles/enocean_switch_nrf52840_xxAA_s140_6.0.0.dir/__/__/mesh/core/src/flash_manager.c.obj
                0x0002cd30                flash_manager_entry_alloc
 .text.flash_manager_entry_commit
                0x0002cd8c       0x2c examples/enocean_switch/CMakeFiles/enocean_switch_nrf52840_xxAA_s140_6.0.0.dir/__/__/mesh/core/src/flash_manager.c.obj
                0x0002cd8c                flash_manager_entry_commit
 .text.flash_manager_entry_invalidate
                0x0002cdb8       0x4e examples/enocean_switch/CMakeFiles/enocean_switch_nrf52840_xxAA_s140_6.0.0.dir/__/__/mesh/core/src/flash_manager.c.obj
                0x0002cdb8                flash_manager_entry_invalidate
 .text.flash_manager_add
                0x0002ce06      0x1f6 examples/enocean_switch/CMakeFiles/enocean_switch_nrf52840_xxAA_s140_6.0.0.dir/__/__/mesh/core/src/flash_manager.c.obj
                0x0002ce06                flash_manager_add
 .text.flash_manager_mem_listener_register
                0x0002cffc       0x30 examples/enocean_switch/CMakeFiles/enocean_switch_nrf52840_xxAA_s140_6.0.0.dir/__/__/mesh/core/src/flash_manager.c.obj
                0x0002cffc                flash_manager_mem_listener_register
 .text.flash_manager_is_stable
                0x0002d02c       0x24 examples/enocean_switch/CMakeFiles/enocean_switch_nrf52840_xxAA_s140_6.0.0.dir/__/__/mesh/core/src/flash_manager.c.obj
                0x0002d02c                flash_manager_is_stable
 .text.flash_manager_on_defrag_end
                0x0002d050       0x4c examples/enocean_switch/CMakeFiles/enocean_switch_nrf52840_xxAA_s140_6.0.0.dir/__/__/mesh/core/src/flash_manager.c.obj
                0x0002d050                flash_manager_on_defrag_end
 .text.flash_manager_recovery_page_get
                0x0002d09c        0x4 examples/enocean_switch/CMakeFiles/enocean_switch_nrf52840_xxAA_s140_6.0.0.dir/__/__/mesh/core/src/flash_manager.c.obj
                0x0002d09c                flash_manager_recovery_page_get
 .text.flash_manager_action_queue_empty_cb_set
                0x0002d0a0       0x1c examples/enocean_switch/CMakeFiles/enocean_switch_nrf52840_xxAA_s140_6.0.0.dir/__/__/mesh/core/src/flash_manager.c.obj
                0x0002d0a0                flash_manager_action_queue_empty_cb_set
 .text.utils_xor
                0x0002d0bc       0x14 examples/enocean_switch/CMakeFiles/enocean_switch_nrf52840_xxAA_s140_6.0.0.dir/__/__/mesh/core/src/ccm_soft.c.obj
 .text.ccm_soft_authenticate_blocks
                0x0002d0d0       0x68 examples/enocean_switch/CMakeFiles/enocean_switch_nrf52840_xxAA_s140_6.0.0.dir/__/__/mesh/core/src/ccm_soft.c.obj
 .text.utils_reverse_memcpy.constprop.0
                0x0002d138        0xa examples/enocean_switch/CMakeFiles/enocean_switch_nrf52840_xxAA_s140_6.0.0.dir/__/__/mesh/core/src/ccm_soft.c.obj
 .text.ccm_soft_authenticate
                0x0002d142       0xa0 examples/enocean_switch/CMakeFiles/enocean_switch_nrf52840_xxAA_s140_6.0.0.dir/__/__/mesh/core/src/ccm_soft.c.obj
 .text.ccm_soft_crypt
                0x0002d1e2       0x6c examples/enocean_switch/CMakeFiles/enocean_switch_nrf52840_xxAA_s140_6.0.0.dir/__/__/mesh/core/src/ccm_soft.c.obj
 .text.ccm_soft_encrypt
                0x0002d24e       0x70 examples/enocean_switch/CMakeFiles/enocean_switch_nrf52840_xxAA_s140_6.0.0.dir/__/__/mesh/core/src/ccm_soft.c.obj
                0x0002d24e                ccm_soft_encrypt
 .text.ccm_soft_decrypt
                0x0002d2be       0xfe examples/enocean_switch/CMakeFiles/enocean_switch_nrf52840_xxAA_s140_6.0.0.dir/__/__/mesh/core/src/ccm_soft.c.obj
                0x0002d2be                ccm_soft_decrypt
 .text.replay_cache_add
                0x0002d3bc       0x50 examples/enocean_switch/CMakeFiles/enocean_switch_nrf52840_xxAA_s140_6.0.0.dir/__/__/mesh/core/src/replay_cache.c.obj
                0x0002d3bc                replay_cache_add
 .text.replay_cache_has_elem
                0x0002d40c       0x38 examples/enocean_switch/CMakeFiles/enocean_switch_nrf52840_xxAA_s140_6.0.0.dir/__/__/mesh/core/src/replay_cache.c.obj
                0x0002d40c                replay_cache_has_elem
 .text.replay_cache_clear
                0x0002d444       0x20 examples/enocean_switch/CMakeFiles/enocean_switch_nrf52840_xxAA_s140_6.0.0.dir/__/__/mesh/core/src/replay_cache.c.obj
                0x0002d444                replay_cache_clear
 .text.replay_cache_init
                0x0002d464        0x4 examples/enocean_switch/CMakeFiles/enocean_switch_nrf52840_xxAA_s140_6.0.0.dir/__/__/mesh/core/src/replay_cache.c.obj
                0x0002d464                replay_cache_init
 .text.beacon_create
                0x0002d468       0x46 examples/enocean_switch/CMakeFiles/enocean_switch_nrf52840_xxAA_s140_6.0.0.dir/__/__/mesh/core/src/beacon.c.obj
                0x0002d468                beacon_create
 *fill*         0x0002d4ae        0x2 
 .text.beacon_packet_in
                0x0002d4b0      0x154 examples/enocean_switch/CMakeFiles/enocean_switch_nrf52840_xxAA_s140_6.0.0.dir/__/__/mesh/core/src/beacon.c.obj
                0x0002d4b0                beacon_packet_in
 .text.entry_get
                0x0002d604       0x78 examples/enocean_switch/CMakeFiles/enocean_switch_nrf52840_xxAA_s140_6.0.0.dir/__/__/mesh/core/src/flash_manager_internal.c.obj
                0x0002d604                entry_get
 .text.core_tx_complete_cb_set
                0x0002d67c        0xc examples/enocean_switch/CMakeFiles/enocean_switch_nrf52840_xxAA_s140_6.0.0.dir/__/__/mesh/core/src/core_tx.c.obj
                0x0002d67c                core_tx_complete_cb_set
 .text.core_tx_packet_alloc
                0x0002d688       0x98 examples/enocean_switch/CMakeFiles/enocean_switch_nrf52840_xxAA_s140_6.0.0.dir/__/__/mesh/core/src/core_tx.c.obj
                0x0002d688                core_tx_packet_alloc
 .text.core_tx_packet_send
                0x0002d720       0x4c examples/enocean_switch/CMakeFiles/enocean_switch_nrf52840_xxAA_s140_6.0.0.dir/__/__/mesh/core/src/core_tx.c.obj
                0x0002d720                core_tx_packet_send
 .text.core_tx_packet_discard
                0x0002d76c       0x40 examples/enocean_switch/CMakeFiles/enocean_switch_nrf52840_xxAA_s140_6.0.0.dir/__/__/mesh/core/src/core_tx.c.obj
                0x0002d76c                core_tx_packet_discard
 .text.core_tx_complete
                0x0002d7ac       0x34 examples/enocean_switch/CMakeFiles/enocean_switch_nrf52840_xxAA_s140_6.0.0.dir/__/__/mesh/core/src/core_tx.c.obj
                0x0002d7ac                core_tx_complete
 .text.core_tx_bearer_add
                0x0002d7e0       0x70 examples/enocean_switch/CMakeFiles/enocean_switch_nrf52840_xxAA_s140_6.0.0.dir/__/__/mesh/core/src/core_tx.c.obj
                0x0002d7e0                core_tx_bearer_add
 .text.heartbeat_subscription_timer_cb
                0x0002d850       0x1c examples/enocean_switch/CMakeFiles/enocean_switch_nrf52840_xxAA_s140_6.0.0.dir/__/__/mesh/core/src/heartbeat.c.obj
 .text.heartbeat_opcode_handle
                0x0002d86c       0x88 examples/enocean_switch/CMakeFiles/enocean_switch_nrf52840_xxAA_s140_6.0.0.dir/__/__/mesh/core/src/heartbeat.c.obj
 .text.heartbeat_send
                0x0002d8f4       0xb0 examples/enocean_switch/CMakeFiles/enocean_switch_nrf52840_xxAA_s140_6.0.0.dir/__/__/mesh/core/src/heartbeat.c.obj
 .text.heartbeat_publication_timer_cb
                0x0002d9a4       0xa8 examples/enocean_switch/CMakeFiles/enocean_switch_nrf52840_xxAA_s140_6.0.0.dir/__/__/mesh/core/src/heartbeat.c.obj
 .text.heartbeat_core_evt_cb
                0x0002da4c       0x7c examples/enocean_switch/CMakeFiles/enocean_switch_nrf52840_xxAA_s140_6.0.0.dir/__/__/mesh/core/src/heartbeat.c.obj
 .text.heartbeat_on_feature_change_trigger
                0x0002dac8       0x44 examples/enocean_switch/CMakeFiles/enocean_switch_nrf52840_xxAA_s140_6.0.0.dir/__/__/mesh/core/src/heartbeat.c.obj
                0x0002dac8                heartbeat_on_feature_change_trigger
 .text.heartbeat_init
                0x0002db0c       0x78 examples/enocean_switch/CMakeFiles/enocean_switch_nrf52840_xxAA_s140_6.0.0.dir/__/__/mesh/core/src/heartbeat.c.obj
                0x0002db0c                heartbeat_init
 .text.heartbeat_subscription_set
                0x0002db84       0xa4 examples/enocean_switch/CMakeFiles/enocean_switch_nrf52840_xxAA_s140_6.0.0.dir/__/__/mesh/core/src/heartbeat.c.obj
                0x0002db84                heartbeat_subscription_set
 .text.heartbeat_subscription_get
                0x0002dc28        0x8 examples/enocean_switch/CMakeFiles/enocean_switch_nrf52840_xxAA_s140_6.0.0.dir/__/__/mesh/core/src/heartbeat.c.obj
                0x0002dc28                heartbeat_subscription_get
 .text.heartbeat_config_server_cb_set
                0x0002dc30       0x28 examples/enocean_switch/CMakeFiles/enocean_switch_nrf52840_xxAA_s140_6.0.0.dir/__/__/mesh/core/src/heartbeat.c.obj
                0x0002dc30                heartbeat_config_server_cb_set
 .text.heartbeat_publication_state_updated
                0x0002dc58       0x74 examples/enocean_switch/CMakeFiles/enocean_switch_nrf52840_xxAA_s140_6.0.0.dir/__/__/mesh/core/src/heartbeat.c.obj
                0x0002dc58                heartbeat_publication_state_updated
 .text.make_network_beacon_packet
                0x0002dccc       0x50 examples/enocean_switch/CMakeFiles/enocean_switch_nrf52840_xxAA_s140_6.0.0.dir/__/__/mesh/core/src/net_beacon.c.obj
 .text.beacon_tx
                0x0002dd1c      0x12c examples/enocean_switch/CMakeFiles/enocean_switch_nrf52840_xxAA_s140_6.0.0.dir/__/__/mesh/core/src/net_beacon.c.obj
 .text.tx_complete_cb
                0x0002de48        0xe examples/enocean_switch/CMakeFiles/enocean_switch_nrf52840_xxAA_s140_6.0.0.dir/__/__/mesh/core/src/net_beacon.c.obj
 .text.beacon_tx_timeout
                0x0002de56        0x4 examples/enocean_switch/CMakeFiles/enocean_switch_nrf52840_xxAA_s140_6.0.0.dir/__/__/mesh/core/src/net_beacon.c.obj
 .text.is_valid_beacon_pkt.part.0
                0x0002de5a       0x30 examples/enocean_switch/CMakeFiles/enocean_switch_nrf52840_xxAA_s140_6.0.0.dir/__/__/mesh/core/src/net_beacon.c.obj
 *fill*         0x0002de8a        0x2 
 .text.net_beacon_init
                0x0002de8c       0x94 examples/enocean_switch/CMakeFiles/enocean_switch_nrf52840_xxAA_s140_6.0.0.dir/__/__/mesh/core/src/net_beacon.c.obj
                0x0002de8c                net_beacon_init
 .text.net_beacon_state_set
                0x0002df20       0x34 examples/enocean_switch/CMakeFiles/enocean_switch_nrf52840_xxAA_s140_6.0.0.dir/__/__/mesh/core/src/net_beacon.c.obj
                0x0002df20                net_beacon_state_set
 .text.net_beacon_state_get
                0x0002df54        0xc examples/enocean_switch/CMakeFiles/enocean_switch_nrf52840_xxAA_s140_6.0.0.dir/__/__/mesh/core/src/net_beacon.c.obj
                0x0002df54                net_beacon_state_get
 .text.net_beacon_packet_in
                0x0002df60       0xf2 examples/enocean_switch/CMakeFiles/enocean_switch_nrf52840_xxAA_s140_6.0.0.dir/__/__/mesh/core/src/net_beacon.c.obj
                0x0002df60                net_beacon_packet_in
 *fill*         0x0002e052        0x2 
 .text.packet_discard
                0x0002e054       0x40 examples/enocean_switch/CMakeFiles/enocean_switch_nrf52840_xxAA_s140_6.0.0.dir/__/__/mesh/core/src/core_tx_adv.c.obj
 .text.packet_send
                0x0002e094       0x58 examples/enocean_switch/CMakeFiles/enocean_switch_nrf52840_xxAA_s140_6.0.0.dir/__/__/mesh/core/src/core_tx_adv.c.obj
 .text.packet_alloc
                0x0002e0ec       0x58 examples/enocean_switch/CMakeFiles/enocean_switch_nrf52840_xxAA_s140_6.0.0.dir/__/__/mesh/core/src/core_tx_adv.c.obj
 .text.adv_tx_complete_callback
                0x0002e144       0x20 examples/enocean_switch/CMakeFiles/enocean_switch_nrf52840_xxAA_s140_6.0.0.dir/__/__/mesh/core/src/core_tx_adv.c.obj
 .text.core_tx_adv_init
                0x0002e164       0x60 examples/enocean_switch/CMakeFiles/enocean_switch_nrf52840_xxAA_s140_6.0.0.dir/__/__/mesh/core/src/core_tx_adv.c.obj
                0x0002e164                core_tx_adv_init
 .text.core_tx_adv_count_set
                0x0002e1c4       0x28 examples/enocean_switch/CMakeFiles/enocean_switch_nrf52840_xxAA_s140_6.0.0.dir/__/__/mesh/core/src/core_tx_adv.c.obj
                0x0002e1c4                core_tx_adv_count_set
 .text.core_tx_adv_count_get
                0x0002e1ec       0x1c examples/enocean_switch/CMakeFiles/enocean_switch_nrf52840_xxAA_s140_6.0.0.dir/__/__/mesh/core/src/core_tx_adv.c.obj
                0x0002e1ec                core_tx_adv_count_get
 .text.core_tx_adv_interval_set
                0x0002e208       0x28 examples/enocean_switch/CMakeFiles/enocean_switch_nrf52840_xxAA_s140_6.0.0.dir/__/__/mesh/core/src/core_tx_adv.c.obj
                0x0002e208                core_tx_adv_interval_set
 .text.core_tx_adv_interval_get
                0x0002e230       0x28 examples/enocean_switch/CMakeFiles/enocean_switch_nrf52840_xxAA_s140_6.0.0.dir/__/__/mesh/core/src/core_tx_adv.c.obj
                0x0002e230                core_tx_adv_interval_get
 .text.ad_listener_subscribe
                0x0002e258       0x5c examples/enocean_switch/CMakeFiles/enocean_switch_nrf52840_xxAA_s140_6.0.0.dir/__/__/mesh/bearer/src/ad_listener.c.obj
                0x0002e258                ad_listener_subscribe
 .text.ad_listener_process
                0x0002e2b4       0x64 examples/enocean_switch/CMakeFiles/enocean_switch_nrf52840_xxAA_s140_6.0.0.dir/__/__/mesh/bearer/src/ad_listener.c.obj
                0x0002e2b4                ad_listener_process
 .text.adtype_filter_handle
                0x0002e318       0x64 examples/enocean_switch/CMakeFiles/enocean_switch_nrf52840_xxAA_s140_6.0.0.dir/__/__/mesh/bearer/src/ad_type_filter.c.obj
 .text.bearer_adtype_filtering_set
                0x0002e37c       0x1c examples/enocean_switch/CMakeFiles/enocean_switch_nrf52840_xxAA_s140_6.0.0.dir/__/__/mesh/bearer/src/ad_type_filter.c.obj
                0x0002e37c                bearer_adtype_filtering_set
 .text.bearer_adtype_add
                0x0002e398       0x20 examples/enocean_switch/CMakeFiles/enocean_switch_nrf52840_xxAA_s140_6.0.0.dir/__/__/mesh/bearer/src/ad_type_filter.c.obj
                0x0002e398                bearer_adtype_add
 .text.bearer_adtype_mode_set
                0x0002e3b8       0x18 examples/enocean_switch/CMakeFiles/enocean_switch_nrf52840_xxAA_s140_6.0.0.dir/__/__/mesh/bearer/src/ad_type_filter.c.obj
                0x0002e3b8                bearer_adtype_mode_set
 .text.tx_complete_event_callback
                0x0002e3d0       0x28 examples/enocean_switch/CMakeFiles/enocean_switch_nrf52840_xxAA_s140_6.0.0.dir/__/__/mesh/bearer/src/advertiser.c.obj
 .text.set_gap_addr_type
                0x0002e3f8       0x26 examples/enocean_switch/CMakeFiles/enocean_switch_nrf52840_xxAA_s140_6.0.0.dir/__/__/mesh/bearer/src/advertiser.c.obj
 .text.broadcast_complete_cb
                0x0002e41e       0x46 examples/enocean_switch/CMakeFiles/enocean_switch_nrf52840_xxAA_s140_6.0.0.dir/__/__/mesh/bearer/src/advertiser.c.obj
 .text.schedule_first_time
                0x0002e464       0x28 examples/enocean_switch/CMakeFiles/enocean_switch_nrf52840_xxAA_s140_6.0.0.dir/__/__/mesh/bearer/src/advertiser.c.obj
 .text.timeout_event
                0x0002e48c      0x10c examples/enocean_switch/CMakeFiles/enocean_switch_nrf52840_xxAA_s140_6.0.0.dir/__/__/mesh/bearer/src/advertiser.c.obj
 .text.advertiser_init
                0x0002e598        0xc examples/enocean_switch/CMakeFiles/enocean_switch_nrf52840_xxAA_s140_6.0.0.dir/__/__/mesh/bearer/src/advertiser.c.obj
                0x0002e598                advertiser_init
 .text.advertiser_enable
                0x0002e5a4       0x2a examples/enocean_switch/CMakeFiles/enocean_switch_nrf52840_xxAA_s140_6.0.0.dir/__/__/mesh/bearer/src/advertiser.c.obj
                0x0002e5a4                advertiser_enable
 .text.advertiser_packet_alloc
                0x0002e5ce       0x76 examples/enocean_switch/CMakeFiles/enocean_switch_nrf52840_xxAA_s140_6.0.0.dir/__/__/mesh/bearer/src/advertiser.c.obj
                0x0002e5ce                advertiser_packet_alloc
 .text.advertiser_packet_send
                0x0002e644       0x62 examples/enocean_switch/CMakeFiles/enocean_switch_nrf52840_xxAA_s140_6.0.0.dir/__/__/mesh/bearer/src/advertiser.c.obj
                0x0002e644                advertiser_packet_send
 .text.advertiser_packet_discard
                0x0002e6a6       0x1e examples/enocean_switch/CMakeFiles/enocean_switch_nrf52840_xxAA_s140_6.0.0.dir/__/__/mesh/bearer/src/advertiser.c.obj
                0x0002e6a6                advertiser_packet_discard
 .text.advertiser_interval_set
                0x0002e6c4       0x54 examples/enocean_switch/CMakeFiles/enocean_switch_nrf52840_xxAA_s140_6.0.0.dir/__/__/mesh/bearer/src/advertiser.c.obj
                0x0002e6c4                advertiser_interval_set
 .text.advertiser_flush
                0x0002e718       0x1e examples/enocean_switch/CMakeFiles/enocean_switch_nrf52840_xxAA_s140_6.0.0.dir/__/__/mesh/bearer/src/advertiser.c.obj
                0x0002e718                advertiser_flush
 *fill*         0x0002e736        0x2 
 .text.advertiser_address_default_get
                0x0002e738       0x38 examples/enocean_switch/CMakeFiles/enocean_switch_nrf52840_xxAA_s140_6.0.0.dir/__/__/mesh/bearer/src/advertiser.c.obj
                0x0002e738                advertiser_address_default_get
 .text.advertiser_instance_init
                0x0002e770       0xa4 examples/enocean_switch/CMakeFiles/enocean_switch_nrf52840_xxAA_s140_6.0.0.dir/__/__/mesh/bearer/src/advertiser.c.obj
                0x0002e770                advertiser_instance_init
 .text.action_switch
                0x0002e814       0xb4 examples/enocean_switch/CMakeFiles/enocean_switch_nrf52840_xxAA_s140_6.0.0.dir/__/__/mesh/bearer/src/bearer_handler.c.obj
 .text.bearer_handler_init
                0x0002e8c8       0x2c examples/enocean_switch/CMakeFiles/enocean_switch_nrf52840_xxAA_s140_6.0.0.dir/__/__/mesh/bearer/src/bearer_handler.c.obj
                0x0002e8c8                bearer_handler_init
 .text.bearer_handler_start
                0x0002e8f4       0x1c examples/enocean_switch/CMakeFiles/enocean_switch_nrf52840_xxAA_s140_6.0.0.dir/__/__/mesh/bearer/src/bearer_handler.c.obj
                0x0002e8f4                bearer_handler_start
 .text.bearer_handler_action_enqueue
                0x0002e910       0x6c examples/enocean_switch/CMakeFiles/enocean_switch_nrf52840_xxAA_s140_6.0.0.dir/__/__/mesh/bearer/src/bearer_handler.c.obj
                0x0002e910                bearer_handler_action_enqueue
 .text.bearer_handler_action_end
                0x0002e97c       0x5c examples/enocean_switch/CMakeFiles/enocean_switch_nrf52840_xxAA_s140_6.0.0.dir/__/__/mesh/bearer/src/bearer_handler.c.obj
                0x0002e97c                bearer_handler_action_end
 .text.bearer_handler_radio_irq_handler
                0x0002e9d8       0x48 examples/enocean_switch/CMakeFiles/enocean_switch_nrf52840_xxAA_s140_6.0.0.dir/__/__/mesh/bearer/src/bearer_handler.c.obj
                0x0002e9d8                bearer_handler_radio_irq_handler
 .text.bearer_handler_timer_irq_handler
                0x0002ea20       0x24 examples/enocean_switch/CMakeFiles/enocean_switch_nrf52840_xxAA_s140_6.0.0.dir/__/__/mesh/bearer/src/bearer_handler.c.obj
                0x0002ea20                bearer_handler_timer_irq_handler
 .text.bearer_handler_on_ts_begin
                0x0002ea44       0x30 examples/enocean_switch/CMakeFiles/enocean_switch_nrf52840_xxAA_s140_6.0.0.dir/__/__/mesh/bearer/src/bearer_handler.c.obj
                0x0002ea44                bearer_handler_on_ts_begin
 .text.bearer_handler_on_ts_end
                0x0002ea74       0x34 examples/enocean_switch/CMakeFiles/enocean_switch_nrf52840_xxAA_s140_6.0.0.dir/__/__/mesh/bearer/src/bearer_handler.c.obj
                0x0002ea74                bearer_handler_on_ts_end
 .text.radio_irq_handler
                0x0002eaa8       0x94 examples/enocean_switch/CMakeFiles/enocean_switch_nrf52840_xxAA_s140_6.0.0.dir/__/__/mesh/bearer/src/broadcast.c.obj
 .text.broadcast_start
                0x0002eb3c       0x8c examples/enocean_switch/CMakeFiles/enocean_switch_nrf52840_xxAA_s140_6.0.0.dir/__/__/mesh/bearer/src/broadcast.c.obj
 .text.broadcast_send
                0x0002ebc8       0x6c examples/enocean_switch/CMakeFiles/enocean_switch_nrf52840_xxAA_s140_6.0.0.dir/__/__/mesh/bearer/src/broadcast.c.obj
                0x0002ebc8                broadcast_send
 .text.fen_filter_start
                0x0002ec34       0x28 examples/enocean_switch/CMakeFiles/enocean_switch_nrf52840_xxAA_s140_6.0.0.dir/__/__/mesh/bearer/src/filter_engine.c.obj
                0x0002ec34                fen_filter_start
 .text.fen_filter_stop
                0x0002ec5c       0x20 examples/enocean_switch/CMakeFiles/enocean_switch_nrf52840_xxAA_s140_6.0.0.dir/__/__/mesh/bearer/src/filter_engine.c.obj
                0x0002ec5c                fen_filter_stop
 .text.fen_filters_apply
                0x0002ec7c       0x34 examples/enocean_switch/CMakeFiles/enocean_switch_nrf52840_xxAA_s140_6.0.0.dir/__/__/mesh/bearer/src/filter_engine.c.obj
                0x0002ec7c                fen_filters_apply
 .text.radio_config_reset
                0x0002ecb0       0x34 examples/enocean_switch/CMakeFiles/enocean_switch_nrf52840_xxAA_s140_6.0.0.dir/__/__/mesh/bearer/src/radio_config.c.obj
                0x0002ecb0                radio_config_reset
 .text.radio_config_channel_set
                0x0002ece4       0x28 examples/enocean_switch/CMakeFiles/enocean_switch_nrf52840_xxAA_s140_6.0.0.dir/__/__/mesh/bearer/src/radio_config.c.obj
                0x0002ece4                radio_config_channel_set
 .text.radio_config_config
                0x0002ed0c       0x90 examples/enocean_switch/CMakeFiles/enocean_switch_nrf52840_xxAA_s140_6.0.0.dir/__/__/mesh/bearer/src/radio_config.c.obj
                0x0002ed0c                radio_config_config
 .text.radio_config_access_addr_set
                0x0002ed9c       0x50 examples/enocean_switch/CMakeFiles/enocean_switch_nrf52840_xxAA_s140_6.0.0.dir/__/__/mesh/bearer/src/radio_config.c.obj
                0x0002ed9c                radio_config_access_addr_set
 .text.radio_trigger
                0x0002edec       0x24 examples/enocean_switch/CMakeFiles/enocean_switch_nrf52840_xxAA_s140_6.0.0.dir/__/__/mesh/bearer/src/scanner.c.obj
 .text.scan_window_end
                0x0002ee10       0x10 examples/enocean_switch/CMakeFiles/enocean_switch_nrf52840_xxAA_s140_6.0.0.dir/__/__/mesh/bearer/src/scanner.c.obj
 .text.scan_window_start
                0x0002ee20       0x24 examples/enocean_switch/CMakeFiles/enocean_switch_nrf52840_xxAA_s140_6.0.0.dir/__/__/mesh/bearer/src/scanner.c.obj
 .text.radio_configure
                0x0002ee44       0x78 examples/enocean_switch/CMakeFiles/enocean_switch_nrf52840_xxAA_s140_6.0.0.dir/__/__/mesh/bearer/src/scanner.c.obj
 .text.radio_set_packet
                0x0002eebc       0x44 examples/enocean_switch/CMakeFiles/enocean_switch_nrf52840_xxAA_s140_6.0.0.dir/__/__/mesh/bearer/src/scanner.c.obj
 .text.radio_start
                0x0002ef00       0x40 examples/enocean_switch/CMakeFiles/enocean_switch_nrf52840_xxAA_s140_6.0.0.dir/__/__/mesh/bearer/src/scanner.c.obj
 .text.radio_stop
                0x0002ef40       0x30 examples/enocean_switch/CMakeFiles/enocean_switch_nrf52840_xxAA_s140_6.0.0.dir/__/__/mesh/bearer/src/scanner.c.obj
 .text.schedule_timers
                0x0002ef70       0x38 examples/enocean_switch/CMakeFiles/enocean_switch_nrf52840_xxAA_s140_6.0.0.dir/__/__/mesh/bearer/src/scanner.c.obj
 .text.scanner_radio_start
                0x0002efa8       0x28 examples/enocean_switch/CMakeFiles/enocean_switch_nrf52840_xxAA_s140_6.0.0.dir/__/__/mesh/bearer/src/scanner.c.obj
                0x0002efa8                scanner_radio_start
 .text.scanner_radio_stop
                0x0002efd0       0x10 examples/enocean_switch/CMakeFiles/enocean_switch_nrf52840_xxAA_s140_6.0.0.dir/__/__/mesh/bearer/src/scanner.c.obj
                0x0002efd0                scanner_radio_stop
 .text.scanner_radio_irq_handler
                0x0002efe0      0x130 examples/enocean_switch/CMakeFiles/enocean_switch_nrf52840_xxAA_s140_6.0.0.dir/__/__/mesh/bearer/src/scanner.c.obj
                0x0002efe0                scanner_radio_irq_handler
 .text.scanner_enable
                0x0002f110       0x24 examples/enocean_switch/CMakeFiles/enocean_switch_nrf52840_xxAA_s140_6.0.0.dir/__/__/mesh/bearer/src/scanner.c.obj
                0x0002f110                scanner_enable
 .text.scanner_packet_release
                0x0002f134       0x2c examples/enocean_switch/CMakeFiles/enocean_switch_nrf52840_xxAA_s140_6.0.0.dir/__/__/mesh/bearer/src/scanner.c.obj
                0x0002f134                scanner_packet_release
 .text.scanner_rx
                0x0002f160       0x30 examples/enocean_switch/CMakeFiles/enocean_switch_nrf52840_xxAA_s140_6.0.0.dir/__/__/mesh/bearer/src/scanner.c.obj
                0x0002f160                scanner_rx
 .text.scanner_rx_pending
                0x0002f190        0xc examples/enocean_switch/CMakeFiles/enocean_switch_nrf52840_xxAA_s140_6.0.0.dir/__/__/mesh/bearer/src/scanner.c.obj
                0x0002f190                scanner_rx_pending
 .text.scanner_config_scan_time_set
                0x0002f19c       0x4c examples/enocean_switch/CMakeFiles/enocean_switch_nrf52840_xxAA_s140_6.0.0.dir/__/__/mesh/bearer/src/scanner.c.obj
                0x0002f19c                scanner_config_scan_time_set
 .text.scanner_config_channels_set
                0x0002f1e8       0x50 examples/enocean_switch/CMakeFiles/enocean_switch_nrf52840_xxAA_s140_6.0.0.dir/__/__/mesh/bearer/src/scanner.c.obj
                0x0002f1e8                scanner_config_channels_set
 .text.scanner_config_access_addresses_set
                0x0002f238       0x38 examples/enocean_switch/CMakeFiles/enocean_switch_nrf52840_xxAA_s140_6.0.0.dir/__/__/mesh/bearer/src/scanner.c.obj
                0x0002f238                scanner_config_access_addresses_set
 .text.scanner_config_reset
                0x0002f270       0x50 examples/enocean_switch/CMakeFiles/enocean_switch_nrf52840_xxAA_s140_6.0.0.dir/__/__/mesh/bearer/src/scanner.c.obj
                0x0002f270                scanner_config_reset
 .text.scanner_init
                0x0002f2c0       0x54 examples/enocean_switch/CMakeFiles/enocean_switch_nrf52840_xxAA_s140_6.0.0.dir/__/__/mesh/bearer/src/scanner.c.obj
                0x0002f2c0                scanner_init
 .text.handle_publish_timeout
                0x0002f314        0x8 examples/enocean_switch/CMakeFiles/enocean_switch_nrf52840_xxAA_s140_6.0.0.dir/__/__/models/simple_on_off/src/simple_on_off_client.c.obj
 .text.reliable_status_cb
                0x0002f31c       0x3c examples/enocean_switch/CMakeFiles/enocean_switch_nrf52840_xxAA_s140_6.0.0.dir/__/__/models/simple_on_off/src/simple_on_off_client.c.obj
 .text.handle_status_cb
                0x0002f358       0x50 examples/enocean_switch/CMakeFiles/enocean_switch_nrf52840_xxAA_s140_6.0.0.dir/__/__/models/simple_on_off/src/simple_on_off_client.c.obj
 .text.simple_on_off_client_init
                0x0002f3a8       0x40 examples/enocean_switch/CMakeFiles/enocean_switch_nrf52840_xxAA_s140_6.0.0.dir/__/__/models/simple_on_off/src/simple_on_off_client.c.obj
                0x0002f3a8                simple_on_off_client_init
 .text.simple_on_off_client_set
                0x0002f3e8       0x78 examples/enocean_switch/CMakeFiles/enocean_switch_nrf52840_xxAA_s140_6.0.0.dir/__/__/models/simple_on_off/src/simple_on_off_client.c.obj
                0x0002f3e8                simple_on_off_client_set
 .text.simple_on_off_client_set_unreliable
                0x0002f460       0x58 examples/enocean_switch/CMakeFiles/enocean_switch_nrf52840_xxAA_s140_6.0.0.dir/__/__/models/simple_on_off/src/simple_on_off_client.c.obj
                0x0002f460                simple_on_off_client_set_unreliable
 .text.config_composition_data_get
                0x0002f4b8      0x184 examples/enocean_switch/CMakeFiles/enocean_switch_nrf52840_xxAA_s140_6.0.0.dir/__/__/models/config/src/composition_data.c.obj
                0x0002f4b8                config_composition_data_get
 .text.app_evt_send
                0x0002f63c       0x10 examples/enocean_switch/CMakeFiles/enocean_switch_nrf52840_xxAA_s140_6.0.0.dir/__/__/models/config/src/config_server.c.obj
 .text.config_server_heartbeat_publication_count_decrement
                0x0002f64c       0x1c examples/enocean_switch/CMakeFiles/enocean_switch_nrf52840_xxAA_s140_6.0.0.dir/__/__/models/config/src/config_server.c.obj
 .text.get_element_index
                0x0002f668       0x2a examples/enocean_switch/CMakeFiles/enocean_switch_nrf52840_xxAA_s140_6.0.0.dir/__/__/models/config/src/config_server.c.obj
 *fill*         0x0002f692        0x2 
 .text.config_server_heartbeat_publication_params_get
                0x0002f694       0x34 examples/enocean_switch/CMakeFiles/enocean_switch_nrf52840_xxAA_s140_6.0.0.dir/__/__/models/config/src/config_server.c.obj
 .text.send_reply
                0x0002f6c8       0x34 examples/enocean_switch/CMakeFiles/enocean_switch_nrf52840_xxAA_s140_6.0.0.dir/__/__/models/config/src/config_server.c.obj
 .text.send_network_transmit_status
                0x0002f6fc       0x72 examples/enocean_switch/CMakeFiles/enocean_switch_nrf52840_xxAA_s140_6.0.0.dir/__/__/models/config/src/config_server.c.obj
 .text.handle_config_network_transmit_set
                0x0002f76e       0x82 examples/enocean_switch/CMakeFiles/enocean_switch_nrf52840_xxAA_s140_6.0.0.dir/__/__/models/config/src/config_server.c.obj
 .text.handle_config_network_transmit_get
                0x0002f7f0        0xa examples/enocean_switch/CMakeFiles/enocean_switch_nrf52840_xxAA_s140_6.0.0.dir/__/__/models/config/src/config_server.c.obj
 *fill*         0x0002f7fa        0x2 
 .text.handle_node_reset
                0x0002f7fc       0x1c examples/enocean_switch/CMakeFiles/enocean_switch_nrf52840_xxAA_s140_6.0.0.dir/__/__/models/config/src/config_server.c.obj
 .text.send_netkey_status
                0x0002f818       0x22 examples/enocean_switch/CMakeFiles/enocean_switch_nrf52840_xxAA_s140_6.0.0.dir/__/__/models/config/src/config_server.c.obj
 .text.send_relay_status
                0x0002f83a       0xa6 examples/enocean_switch/CMakeFiles/enocean_switch_nrf52840_xxAA_s140_6.0.0.dir/__/__/models/config/src/config_server.c.obj
 .text.handle_config_relay_set
                0x0002f8e0       0xb6 examples/enocean_switch/CMakeFiles/enocean_switch_nrf52840_xxAA_s140_6.0.0.dir/__/__/models/config/src/config_server.c.obj
 .text.handle_config_relay_get
                0x0002f996        0xa examples/enocean_switch/CMakeFiles/enocean_switch_nrf52840_xxAA_s140_6.0.0.dir/__/__/models/config/src/config_server.c.obj
 .text.send_subscription_status
                0x0002f9a0       0x3a examples/enocean_switch/CMakeFiles/enocean_switch_nrf52840_xxAA_s140_6.0.0.dir/__/__/models/config/src/config_server.c.obj
 .text.send_appkey_status
                0x0002f9da       0x30 examples/enocean_switch/CMakeFiles/enocean_switch_nrf52840_xxAA_s140_6.0.0.dir/__/__/models/config/src/config_server.c.obj
 .text.handle_netkey_get
                0x0002fa0a       0x4c examples/enocean_switch/CMakeFiles/enocean_switch_nrf52840_xxAA_s140_6.0.0.dir/__/__/models/config/src/config_server.c.obj
 .text.handle_netkey_delete
                0x0002fa56       0xbc examples/enocean_switch/CMakeFiles/enocean_switch_nrf52840_xxAA_s140_6.0.0.dir/__/__/models/config/src/config_server.c.obj
 *fill*         0x0002fb12        0x2 
 .text.handle_netkey_add_update
                0x0002fb14       0x78 examples/enocean_switch/CMakeFiles/enocean_switch_nrf52840_xxAA_s140_6.0.0.dir/__/__/models/config/src/config_server.c.obj
 .text.status_error_sub_send
                0x0002fb8c      0x11e examples/enocean_switch/CMakeFiles/enocean_switch_nrf52840_xxAA_s140_6.0.0.dir/__/__/models/config/src/config_server.c.obj
 .text.delete_all_subscriptions
                0x0002fcaa       0x66 examples/enocean_switch/CMakeFiles/enocean_switch_nrf52840_xxAA_s140_6.0.0.dir/__/__/models/config/src/config_server.c.obj
 .text.send_publication_status
                0x0002fd10      0x16e examples/enocean_switch/CMakeFiles/enocean_switch_nrf52840_xxAA_s140_6.0.0.dir/__/__/models/config/src/config_server.c.obj
 .text.handle_config_key_refresh_phase_set
                0x0002fe7e       0xc6 examples/enocean_switch/CMakeFiles/enocean_switch_nrf52840_xxAA_s140_6.0.0.dir/__/__/models/config/src/config_server.c.obj
 .text.handle_config_default_ttl_set
                0x0002ff44       0x4e examples/enocean_switch/CMakeFiles/enocean_switch_nrf52840_xxAA_s140_6.0.0.dir/__/__/models/config/src/config_server.c.obj
 .text.send_net_beacon_state
                0x0002ff92       0x2a examples/enocean_switch/CMakeFiles/enocean_switch_nrf52840_xxAA_s140_6.0.0.dir/__/__/models/config/src/config_server.c.obj
 .text.handle_config_beacon_get
                0x0002ffbc        0xa examples/enocean_switch/CMakeFiles/enocean_switch_nrf52840_xxAA_s140_6.0.0.dir/__/__/models/config/src/config_server.c.obj
 *fill*         0x0002ffc6        0x2 
 .text.handle_heartbeat_publication_set
                0x0002ffc8      0x128 examples/enocean_switch/CMakeFiles/enocean_switch_nrf52840_xxAA_s140_6.0.0.dir/__/__/models/config/src/config_server.c.obj
 .text.mesh_event_cb
                0x000300f0       0x64 examples/enocean_switch/CMakeFiles/enocean_switch_nrf52840_xxAA_s140_6.0.0.dir/__/__/models/config/src/config_server.c.obj
 .text.handle_node_identity_set
                0x00030154       0x32 examples/enocean_switch/CMakeFiles/enocean_switch_nrf52840_xxAA_s140_6.0.0.dir/__/__/models/config/src/config_server.c.obj
 .text.handle_node_identity_get
                0x00030186       0x2e examples/enocean_switch/CMakeFiles/enocean_switch_nrf52840_xxAA_s140_6.0.0.dir/__/__/models/config/src/config_server.c.obj
 .text.handle_config_gatt_proxy_set
                0x000301b4       0x2a examples/enocean_switch/CMakeFiles/enocean_switch_nrf52840_xxAA_s140_6.0.0.dir/__/__/models/config/src/config_server.c.obj
 .text.handle_config_friend_set
                0x000301de       0x2a examples/enocean_switch/CMakeFiles/enocean_switch_nrf52840_xxAA_s140_6.0.0.dir/__/__/models/config/src/config_server.c.obj
 .text.status_error_pub_send
                0x00030208       0x9a examples/enocean_switch/CMakeFiles/enocean_switch_nrf52840_xxAA_s140_6.0.0.dir/__/__/models/config/src/config_server.c.obj
 .text.handle_config_key_refresh_phase_get
                0x000302a2       0x54 examples/enocean_switch/CMakeFiles/enocean_switch_nrf52840_xxAA_s140_6.0.0.dir/__/__/models/config/src/config_server.c.obj
 .text.handle_config_default_ttl_get
                0x000302f6       0x2a examples/enocean_switch/CMakeFiles/enocean_switch_nrf52840_xxAA_s140_6.0.0.dir/__/__/models/config/src/config_server.c.obj
 .text.handle_config_beacon_set
                0x00030320       0x42 examples/enocean_switch/CMakeFiles/enocean_switch_nrf52840_xxAA_s140_6.0.0.dir/__/__/models/config/src/config_server.c.obj
 .text.handle_composition_data_get
                0x00030362       0x4c examples/enocean_switch/CMakeFiles/enocean_switch_nrf52840_xxAA_s140_6.0.0.dir/__/__/models/config/src/config_server.c.obj
 .text.handle_appkey_delete
                0x000303ae       0xc2 examples/enocean_switch/CMakeFiles/enocean_switch_nrf52840_xxAA_s140_6.0.0.dir/__/__/models/config/src/config_server.c.obj
 .text.get_subscription_list.constprop.25
                0x00030470       0x50 examples/enocean_switch/CMakeFiles/enocean_switch_nrf52840_xxAA_s140_6.0.0.dir/__/__/models/config/src/config_server.c.obj
 .text.handle_appkey_get
                0x000304c0       0xb8 examples/enocean_switch/CMakeFiles/enocean_switch_nrf52840_xxAA_s140_6.0.0.dir/__/__/models/config/src/config_server.c.obj
 .text.heartbeat_subscription_count_encode
                0x00030578       0x26 examples/enocean_switch/CMakeFiles/enocean_switch_nrf52840_xxAA_s140_6.0.0.dir/__/__/models/config/src/config_server.c.obj
 .text.handle_appkey_add
                0x0003059e       0xba examples/enocean_switch/CMakeFiles/enocean_switch_nrf52840_xxAA_s140_6.0.0.dir/__/__/models/config/src/config_server.c.obj
 .text.handle_appkey_update
                0x00030658       0xbc examples/enocean_switch/CMakeFiles/enocean_switch_nrf52840_xxAA_s140_6.0.0.dir/__/__/models/config/src/config_server.c.obj
 .text.heartbeat_pubsub_period_encode
                0x00030714       0x26 examples/enocean_switch/CMakeFiles/enocean_switch_nrf52840_xxAA_s140_6.0.0.dir/__/__/models/config/src/config_server.c.obj
 *fill*         0x0003073a        0x2 
 .text.handle_heartbeat_publication_get
                0x0003073c       0x7c examples/enocean_switch/CMakeFiles/enocean_switch_nrf52840_xxAA_s140_6.0.0.dir/__/__/models/config/src/config_server.c.obj
 .text.handle_heartbeat_subscription_get
                0x000307b8       0x82 examples/enocean_switch/CMakeFiles/enocean_switch_nrf52840_xxAA_s140_6.0.0.dir/__/__/models/config/src/config_server.c.obj
 .text.handle_heartbeat_subscription_set
                0x0003083a       0xa4 examples/enocean_switch/CMakeFiles/enocean_switch_nrf52840_xxAA_s140_6.0.0.dir/__/__/models/config/src/config_server.c.obj
 .text.handle_config_model_publication_get
                0x000308de       0x94 examples/enocean_switch/CMakeFiles/enocean_switch_nrf52840_xxAA_s140_6.0.0.dir/__/__/models/config/src/config_server.c.obj
 .text.handle_config_model_subscription_delete_all
                0x00030972       0xca examples/enocean_switch/CMakeFiles/enocean_switch_nrf52840_xxAA_s140_6.0.0.dir/__/__/models/config/src/config_server.c.obj
 .text.handle_config_sig_model_subscription_get
                0x00030a3c       0xc4 examples/enocean_switch/CMakeFiles/enocean_switch_nrf52840_xxAA_s140_6.0.0.dir/__/__/models/config/src/config_server.c.obj
 .text.handle_config_vendor_model_subscription_get
                0x00030b00      0x100 examples/enocean_switch/CMakeFiles/enocean_switch_nrf52840_xxAA_s140_6.0.0.dir/__/__/models/config/src/config_server.c.obj
 .text.handle_config_model_subscription_virtual_address_delete
                0x00030c00      0x110 examples/enocean_switch/CMakeFiles/enocean_switch_nrf52840_xxAA_s140_6.0.0.dir/__/__/models/config/src/config_server.c.obj
 .text.handle_config_model_subscription_virtual_address_add
                0x00030d10      0x10e examples/enocean_switch/CMakeFiles/enocean_switch_nrf52840_xxAA_s140_6.0.0.dir/__/__/models/config/src/config_server.c.obj
 .text.handle_config_model_subscription_delete
                0x00030e1e      0x116 examples/enocean_switch/CMakeFiles/enocean_switch_nrf52840_xxAA_s140_6.0.0.dir/__/__/models/config/src/config_server.c.obj
 .text.handle_config_model_subscription_add
                0x00030f34      0x114 examples/enocean_switch/CMakeFiles/enocean_switch_nrf52840_xxAA_s140_6.0.0.dir/__/__/models/config/src/config_server.c.obj
 .text.handle_model_app_get
                0x00031048      0x19e examples/enocean_switch/CMakeFiles/enocean_switch_nrf52840_xxAA_s140_6.0.0.dir/__/__/models/config/src/config_server.c.obj
 .text.handle_config_model_subscription_virtual_address_overwrite
                0x000311e6      0x128 examples/enocean_switch/CMakeFiles/enocean_switch_nrf52840_xxAA_s140_6.0.0.dir/__/__/models/config/src/config_server.c.obj
 .text.handle_config_model_subscription_overwrite
                0x0003130e      0x122 examples/enocean_switch/CMakeFiles/enocean_switch_nrf52840_xxAA_s140_6.0.0.dir/__/__/models/config/src/config_server.c.obj
 .text.handle_model_app_bind_unbind
                0x00031430      0x174 examples/enocean_switch/CMakeFiles/enocean_switch_nrf52840_xxAA_s140_6.0.0.dir/__/__/models/config/src/config_server.c.obj
 .text.handle_config_gatt_proxy_get
                0x000315a4       0x20 examples/enocean_switch/CMakeFiles/enocean_switch_nrf52840_xxAA_s140_6.0.0.dir/__/__/models/config/src/config_server.c.obj
 .text.handle_config_friend_get
                0x000315c4       0x20 examples/enocean_switch/CMakeFiles/enocean_switch_nrf52840_xxAA_s140_6.0.0.dir/__/__/models/config/src/config_server.c.obj
 .text.handle_config_model_publication_set
                0x000315e4      0x2ce examples/enocean_switch/CMakeFiles/enocean_switch_nrf52840_xxAA_s140_6.0.0.dir/__/__/models/config/src/config_server.c.obj
 *fill*         0x000318b2        0x2 
 .text.config_server_init
                0x000318b4       0x64 examples/enocean_switch/CMakeFiles/enocean_switch_nrf52840_xxAA_s140_6.0.0.dir/__/__/models/config/src/config_server.c.obj
                0x000318b4                config_server_init
 .text.config_server_bind
                0x00031918       0x10 examples/enocean_switch/CMakeFiles/enocean_switch_nrf52840_xxAA_s140_6.0.0.dir/__/__/models/config/src/config_server.c.obj
                0x00031918                config_server_bind
 .text.packed_index_list_create
                0x00031928       0x32 examples/enocean_switch/CMakeFiles/enocean_switch_nrf52840_xxAA_s140_6.0.0.dir/__/__/models/config/src/packed_index_list.c.obj
                0x00031928                packed_index_list_create
 *fill*         0x0003195a        0x2 
 .text.attention_timer_set
                0x0003195c       0x8c examples/enocean_switch/CMakeFiles/enocean_switch_nrf52840_xxAA_s140_6.0.0.dir/__/__/models/health/src/health_server.c.obj
 .text.attention_timer_handler
                0x000319e8       0x5c examples/enocean_switch/CMakeFiles/enocean_switch_nrf52840_xxAA_s140_6.0.0.dir/__/__/models/health/src/health_server.c.obj
 .text.send_attention_status.isra.1
                0x00031a44       0x44 examples/enocean_switch/CMakeFiles/enocean_switch_nrf52840_xxAA_s140_6.0.0.dir/__/__/models/health/src/health_server.c.obj
 .text.handle_attention_set
                0x00031a88       0x32 examples/enocean_switch/CMakeFiles/enocean_switch_nrf52840_xxAA_s140_6.0.0.dir/__/__/models/health/src/health_server.c.obj
 .text.send_period_status.isra.4
                0x00031aba       0x44 examples/enocean_switch/CMakeFiles/enocean_switch_nrf52840_xxAA_s140_6.0.0.dir/__/__/models/health/src/health_server.c.obj
 .text.handle_period_set
                0x00031afe       0x28 examples/enocean_switch/CMakeFiles/enocean_switch_nrf52840_xxAA_s140_6.0.0.dir/__/__/models/health/src/health_server.c.obj
 *fill*         0x00031b26        0x2 
 .text.bitfield_next_get.part.0.constprop.13
                0x00031b28       0x44 examples/enocean_switch/CMakeFiles/enocean_switch_nrf52840_xxAA_s140_6.0.0.dir/__/__/models/health/src/health_server.c.obj
 .text.bitfield_popcount.constprop.11
                0x00031b6c       0x28 examples/enocean_switch/CMakeFiles/enocean_switch_nrf52840_xxAA_s140_6.0.0.dir/__/__/models/health/src/health_server.c.obj
 .text.send_fault_status
                0x00031b94       0xa8 examples/enocean_switch/CMakeFiles/enocean_switch_nrf52840_xxAA_s140_6.0.0.dir/__/__/models/health/src/health_server.c.obj
 .text.health_publish_timeout_handler
                0x00031c3c        0xa examples/enocean_switch/CMakeFiles/enocean_switch_nrf52840_xxAA_s140_6.0.0.dir/__/__/models/health/src/health_server.c.obj
 .text.handle_fault_test
                0x00031c46       0x68 examples/enocean_switch/CMakeFiles/enocean_switch_nrf52840_xxAA_s140_6.0.0.dir/__/__/models/health/src/health_server.c.obj
 .text.handle_fault_get
                0x00031cae       0x32 examples/enocean_switch/CMakeFiles/enocean_switch_nrf52840_xxAA_s140_6.0.0.dir/__/__/models/health/src/health_server.c.obj
 .text.handle_fault_clear
                0x00031ce0       0x48 examples/enocean_switch/CMakeFiles/enocean_switch_nrf52840_xxAA_s140_6.0.0.dir/__/__/models/health/src/health_server.c.obj
 .text.handle_attention_get
                0x00031d28       0x14 examples/enocean_switch/CMakeFiles/enocean_switch_nrf52840_xxAA_s140_6.0.0.dir/__/__/models/health/src/health_server.c.obj
 .text.handle_period_get
                0x00031d3c       0x12 examples/enocean_switch/CMakeFiles/enocean_switch_nrf52840_xxAA_s140_6.0.0.dir/__/__/models/health/src/health_server.c.obj
 *fill*         0x00031d4e        0x2 
 .text.health_server_init
                0x00031d50       0x6c examples/enocean_switch/CMakeFiles/enocean_switch_nrf52840_xxAA_s140_6.0.0.dir/__/__/models/health/src/health_server.c.obj
                0x00031d50                health_server_init
 .text.add_to_publication_list
                0x00031dbc       0x78 examples/enocean_switch/CMakeFiles/enocean_switch_nrf52840_xxAA_s140_6.0.0.dir/__/__/mesh/access/src/access_publish.c.obj
 .text.step_resolution_to_us
                0x00031e34       0x38 examples/enocean_switch/CMakeFiles/enocean_switch_nrf52840_xxAA_s140_6.0.0.dir/__/__/mesh/access/src/access_publish.c.obj
 .text.schedule_publication_timer
                0x00031e6c      0x184 examples/enocean_switch/CMakeFiles/enocean_switch_nrf52840_xxAA_s140_6.0.0.dir/__/__/mesh/access/src/access_publish.c.obj
 .text.publish_timer_tick
                0x00031ff0       0xa8 examples/enocean_switch/CMakeFiles/enocean_switch_nrf52840_xxAA_s140_6.0.0.dir/__/__/mesh/access/src/access_publish.c.obj
 .text.access_publish_init
                0x00032098       0x38 examples/enocean_switch/CMakeFiles/enocean_switch_nrf52840_xxAA_s140_6.0.0.dir/__/__/mesh/access/src/access_publish.c.obj
                0x00032098                access_publish_init
 .text.access_publish_period_set
                0x000320d0       0x60 examples/enocean_switch/CMakeFiles/enocean_switch_nrf52840_xxAA_s140_6.0.0.dir/__/__/mesh/access/src/access_publish.c.obj
                0x000320d0                access_publish_period_set
 .text.access_publish_period_get
                0x00032130       0x22 examples/enocean_switch/CMakeFiles/enocean_switch_nrf52840_xxAA_s140_6.0.0.dir/__/__/mesh/access/src/access_publish.c.obj
                0x00032130                access_publish_period_get
 .text.bitfield_get
                0x00032152       0x1a examples/enocean_switch/CMakeFiles/enocean_switch_nrf52840_xxAA_s140_6.0.0.dir/__/__/mesh/access/src/access.c.obj
 .text.is_valid_opcode
                0x0003216c       0x42 examples/enocean_switch/CMakeFiles/enocean_switch_nrf52840_xxAA_s140_6.0.0.dir/__/__/mesh/access/src/access.c.obj
 *fill*         0x000321ae        0x2 
 .text.model_handle_valid_and_allocated
                0x000321b0       0x20 examples/enocean_switch/CMakeFiles/enocean_switch_nrf52840_xxAA_s140_6.0.0.dir/__/__/mesh/access/src/access.c.obj
 .text.flash_manager_mem_available
                0x000321d0        0x2 examples/enocean_switch/CMakeFiles/enocean_switch_nrf52840_xxAA_s140_6.0.0.dir/__/__/mesh/access/src/access.c.obj
 *fill*         0x000321d2        0x2 
 .text.restore_acquired_subscription
                0x000321d4       0x30 examples/enocean_switch/CMakeFiles/enocean_switch_nrf52840_xxAA_s140_6.0.0.dir/__/__/mesh/access/src/access.c.obj
 .text.restore_acquired_element
                0x00032204       0x20 examples/enocean_switch/CMakeFiles/enocean_switch_nrf52840_xxAA_s140_6.0.0.dir/__/__/mesh/access/src/access.c.obj
 .text.restore_flash_data
                0x00032224       0x50 examples/enocean_switch/CMakeFiles/enocean_switch_nrf52840_xxAA_s140_6.0.0.dir/__/__/mesh/access/src/access.c.obj
 .text.flash_invalidate_complete
                0x00032274        0x6 examples/enocean_switch/CMakeFiles/enocean_switch_nrf52840_xxAA_s140_6.0.0.dir/__/__/mesh/access/src/access.c.obj
 *fill*         0x0003227a        0x2 
 .text.access_flash_config_clear
                0x0003227c       0x28 examples/enocean_switch/CMakeFiles/enocean_switch_nrf52840_xxAA_s140_6.0.0.dir/__/__/mesh/access/src/access.c.obj
 .text.access_flash_config_store
                0x000322a4      0x150 examples/enocean_switch/CMakeFiles/enocean_switch_nrf52840_xxAA_s140_6.0.0.dir/__/__/mesh/access/src/access.c.obj
                0x000322a4                access_flash_config_store
 .text.access_state_clear
                0x000323f4       0x4c examples/enocean_switch/CMakeFiles/enocean_switch_nrf52840_xxAA_s140_6.0.0.dir/__/__/mesh/access/src/access.c.obj
 .text.add_flash_manager
                0x00032440       0x58 examples/enocean_switch/CMakeFiles/enocean_switch_nrf52840_xxAA_s140_6.0.0.dir/__/__/mesh/access/src/access.c.obj
 .text.flash_remove_complete
                0x00032498       0x64 examples/enocean_switch/CMakeFiles/enocean_switch_nrf52840_xxAA_s140_6.0.0.dir/__/__/mesh/access/src/access.c.obj
 .text.flash_write_complete
                0x000324fc       0x46 examples/enocean_switch/CMakeFiles/enocean_switch_nrf52840_xxAA_s140_6.0.0.dir/__/__/mesh/access/src/access.c.obj
 *fill*         0x00032542        0x2 
 .text.unlikely.bitfield_next_get.part.0.constprop.4
                0x00032544       0x34 examples/enocean_switch/CMakeFiles/enocean_switch_nrf52840_xxAA_s140_6.0.0.dir/__/__/mesh/access/src/access.c.obj
 .text.restore_acquired_model
                0x00032578       0x94 examples/enocean_switch/CMakeFiles/enocean_switch_nrf52840_xxAA_s140_6.0.0.dir/__/__/mesh/access/src/access.c.obj
 .text.handle_incoming
                0x0003260c      0x144 examples/enocean_switch/CMakeFiles/enocean_switch_nrf52840_xxAA_s140_6.0.0.dir/__/__/mesh/access/src/access.c.obj
 .text.mesh_evt_cb
                0x00032750      0x134 examples/enocean_switch/CMakeFiles/enocean_switch_nrf52840_xxAA_s140_6.0.0.dir/__/__/mesh/access/src/access.c.obj
 .text.packet_tx
                0x00032884      0x380 examples/enocean_switch/CMakeFiles/enocean_switch_nrf52840_xxAA_s140_6.0.0.dir/__/__/mesh/access/src/access.c.obj
 .text.access_flash_config_load
                0x00032c04      0x11c examples/enocean_switch/CMakeFiles/enocean_switch_nrf52840_xxAA_s140_6.0.0.dir/__/__/mesh/access/src/access.c.obj
                0x00032c04                access_flash_config_load
 .text.access_clear
                0x00032d20       0x12 examples/enocean_switch/CMakeFiles/enocean_switch_nrf52840_xxAA_s140_6.0.0.dir/__/__/mesh/access/src/access.c.obj
                0x00032d20                access_clear
 *fill*         0x00032d32        0x2 
 .text.access_init
                0x00032d34       0x28 examples/enocean_switch/CMakeFiles/enocean_switch_nrf52840_xxAA_s140_6.0.0.dir/__/__/mesh/access/src/access.c.obj
                0x00032d34                access_init
 .text.access_model_add
                0x00032d5c      0x1bc examples/enocean_switch/CMakeFiles/enocean_switch_nrf52840_xxAA_s140_6.0.0.dir/__/__/mesh/access/src/access.c.obj
                0x00032d5c                access_model_add
 .text.access_model_publish
                0x00032f18        0xc examples/enocean_switch/CMakeFiles/enocean_switch_nrf52840_xxAA_s140_6.0.0.dir/__/__/mesh/access/src/access.c.obj
                0x00032f18                access_model_publish
 .text.access_model_reply
                0x00032f24       0x12 examples/enocean_switch/CMakeFiles/enocean_switch_nrf52840_xxAA_s140_6.0.0.dir/__/__/mesh/access/src/access.c.obj
                0x00032f24                access_model_reply
 *fill*         0x00032f36        0x2 
 .text.access_model_publish_address_set
                0x00032f38       0x3c examples/enocean_switch/CMakeFiles/enocean_switch_nrf52840_xxAA_s140_6.0.0.dir/__/__/mesh/access/src/access.c.obj
                0x00032f38                access_model_publish_address_set
 .text.access_model_publish_address_get
                0x00032f74       0x28 examples/enocean_switch/CMakeFiles/enocean_switch_nrf52840_xxAA_s140_6.0.0.dir/__/__/mesh/access/src/access.c.obj
                0x00032f74                access_model_publish_address_get
 .text.access_model_publish_retransmit_set
                0x00032f9c       0x4c examples/enocean_switch/CMakeFiles/enocean_switch_nrf52840_xxAA_s140_6.0.0.dir/__/__/mesh/access/src/access.c.obj
                0x00032f9c                access_model_publish_retransmit_set
 .text.access_model_publish_retransmit_get
                0x00032fe8       0x2c examples/enocean_switch/CMakeFiles/enocean_switch_nrf52840_xxAA_s140_6.0.0.dir/__/__/mesh/access/src/access.c.obj
                0x00032fe8                access_model_publish_retransmit_get
 .text.access_model_publish_period_set
                0x00033014       0x6c examples/enocean_switch/CMakeFiles/enocean_switch_nrf52840_xxAA_s140_6.0.0.dir/__/__/mesh/access/src/access.c.obj
                0x00033014                access_model_publish_period_set
 .text.access_model_publish_period_get
                0x00033080       0x3c examples/enocean_switch/CMakeFiles/enocean_switch_nrf52840_xxAA_s140_6.0.0.dir/__/__/mesh/access/src/access.c.obj
                0x00033080                access_model_publish_period_get
 .text.access_model_subscription_list_alloc
                0x000330bc       0x54 examples/enocean_switch/CMakeFiles/enocean_switch_nrf52840_xxAA_s140_6.0.0.dir/__/__/mesh/access/src/access.c.obj
                0x000330bc                access_model_subscription_list_alloc
 .text.access_model_subscription_add
                0x00033110       0x60 examples/enocean_switch/CMakeFiles/enocean_switch_nrf52840_xxAA_s140_6.0.0.dir/__/__/mesh/access/src/access.c.obj
                0x00033110                access_model_subscription_add
 .text.access_model_subscription_remove
                0x00033170       0x60 examples/enocean_switch/CMakeFiles/enocean_switch_nrf52840_xxAA_s140_6.0.0.dir/__/__/mesh/access/src/access.c.obj
                0x00033170                access_model_subscription_remove
 .text.access_model_subscriptions_get
                0x000331d0       0x7c examples/enocean_switch/CMakeFiles/enocean_switch_nrf52840_xxAA_s140_6.0.0.dir/__/__/mesh/access/src/access.c.obj
                0x000331d0                access_model_subscriptions_get
 .text.access_model_application_bind
                0x0003324c       0x50 examples/enocean_switch/CMakeFiles/enocean_switch_nrf52840_xxAA_s140_6.0.0.dir/__/__/mesh/access/src/access.c.obj
                0x0003324c                access_model_application_bind
 .text.access_model_application_unbind
                0x0003329c       0x50 examples/enocean_switch/CMakeFiles/enocean_switch_nrf52840_xxAA_s140_6.0.0.dir/__/__/mesh/access/src/access.c.obj
                0x0003329c                access_model_application_unbind
 .text.access_model_applications_get
                0x000332ec       0x64 examples/enocean_switch/CMakeFiles/enocean_switch_nrf52840_xxAA_s140_6.0.0.dir/__/__/mesh/access/src/access.c.obj
                0x000332ec                access_model_applications_get
 .text.access_model_publish_application_set
                0x00033350       0x3c examples/enocean_switch/CMakeFiles/enocean_switch_nrf52840_xxAA_s140_6.0.0.dir/__/__/mesh/access/src/access.c.obj
                0x00033350                access_model_publish_application_set
 .text.access_model_publish_application_get
                0x0003338c       0x28 examples/enocean_switch/CMakeFiles/enocean_switch_nrf52840_xxAA_s140_6.0.0.dir/__/__/mesh/access/src/access.c.obj
                0x0003338c                access_model_publish_application_get
 .text.access_default_ttl_set
                0x000333b4       0x18 examples/enocean_switch/CMakeFiles/enocean_switch_nrf52840_xxAA_s140_6.0.0.dir/__/__/mesh/access/src/access.c.obj
                0x000333b4                access_default_ttl_set
 .text.access_default_ttl_get
                0x000333cc        0xc examples/enocean_switch/CMakeFiles/enocean_switch_nrf52840_xxAA_s140_6.0.0.dir/__/__/mesh/access/src/access.c.obj
                0x000333cc                access_default_ttl_get
 .text.access_model_publish_ttl_set
                0x000333d8       0x40 examples/enocean_switch/CMakeFiles/enocean_switch_nrf52840_xxAA_s140_6.0.0.dir/__/__/mesh/access/src/access.c.obj
                0x000333d8                access_model_publish_ttl_set
 .text.access_model_publish_ttl_get
                0x00033418       0x28 examples/enocean_switch/CMakeFiles/enocean_switch_nrf52840_xxAA_s140_6.0.0.dir/__/__/mesh/access/src/access.c.obj
                0x00033418                access_model_publish_ttl_get
 .text.access_element_location_get
                0x00033440       0x20 examples/enocean_switch/CMakeFiles/enocean_switch_nrf52840_xxAA_s140_6.0.0.dir/__/__/mesh/access/src/access.c.obj
                0x00033440                access_element_location_get
 .text.access_element_sig_model_count_get
                0x00033460       0x24 examples/enocean_switch/CMakeFiles/enocean_switch_nrf52840_xxAA_s140_6.0.0.dir/__/__/mesh/access/src/access.c.obj
                0x00033460                access_element_sig_model_count_get
 .text.access_element_vendor_model_count_get
                0x00033484       0x24 examples/enocean_switch/CMakeFiles/enocean_switch_nrf52840_xxAA_s140_6.0.0.dir/__/__/mesh/access/src/access.c.obj
                0x00033484                access_element_vendor_model_count_get
 .text.access_model_id_get
                0x000334a8       0x2c examples/enocean_switch/CMakeFiles/enocean_switch_nrf52840_xxAA_s140_6.0.0.dir/__/__/mesh/access/src/access.c.obj
                0x000334a8                access_model_id_get
 .text.access_handle_get
                0x000334d4       0x50 examples/enocean_switch/CMakeFiles/enocean_switch_nrf52840_xxAA_s140_6.0.0.dir/__/__/mesh/access/src/access.c.obj
                0x000334d4                access_handle_get
 .text.access_element_models_get
                0x00033524       0x50 examples/enocean_switch/CMakeFiles/enocean_switch_nrf52840_xxAA_s140_6.0.0.dir/__/__/mesh/access/src/access.c.obj
                0x00033524                access_element_models_get
 .text.access_model_p_args_get
                0x00033574       0x28 examples/enocean_switch/CMakeFiles/enocean_switch_nrf52840_xxAA_s140_6.0.0.dir/__/__/mesh/access/src/access.c.obj
                0x00033574                access_model_p_args_get
 .text.access_model_publication_stop
                0x0003359c       0x70 examples/enocean_switch/CMakeFiles/enocean_switch_nrf52840_xxAA_s140_6.0.0.dir/__/__/mesh/access/src/access.c.obj
                0x0003359c                access_model_publication_stop
 .text.access_model_publication_by_appkey_stop
                0x0003360c       0x36 examples/enocean_switch/CMakeFiles/enocean_switch_nrf52840_xxAA_s140_6.0.0.dir/__/__/mesh/access/src/access.c.obj
                0x0003360c                access_model_publication_by_appkey_stop
 *fill*         0x00033642        0x2 
 .text.reliable_timer_cb
                0x00033644      0x11c examples/enocean_switch/CMakeFiles/enocean_switch_nrf52840_xxAA_s140_6.0.0.dir/__/__/mesh/access/src/access_reliable.c.obj
 .text.remove_and_reschedule
                0x00033760       0xac examples/enocean_switch/CMakeFiles/enocean_switch_nrf52840_xxAA_s140_6.0.0.dir/__/__/mesh/access/src/access_reliable.c.obj
 .text.access_reliable_message_rx_cb
                0x0003380c       0x68 examples/enocean_switch/CMakeFiles/enocean_switch_nrf52840_xxAA_s140_6.0.0.dir/__/__/mesh/access/src/access_reliable.c.obj
                0x0003380c                access_reliable_message_rx_cb
 .text.access_reliable_init
                0x00033874       0x20 examples/enocean_switch/CMakeFiles/enocean_switch_nrf52840_xxAA_s140_6.0.0.dir/__/__/mesh/access/src/access_reliable.c.obj
                0x00033874                access_reliable_init
 .text.access_reliable_cancel_all
                0x00033894       0x60 examples/enocean_switch/CMakeFiles/enocean_switch_nrf52840_xxAA_s140_6.0.0.dir/__/__/mesh/access/src/access_reliable.c.obj
                0x00033894                access_reliable_cancel_all
 .text.access_model_reliable_cancel
                0x000338f4       0x68 examples/enocean_switch/CMakeFiles/enocean_switch_nrf52840_xxAA_s140_6.0.0.dir/__/__/mesh/access/src/access_reliable.c.obj
                0x000338f4                access_model_reliable_cancel
 .text.access_model_reliable_publish
                0x0003395c      0x1b8 examples/enocean_switch/CMakeFiles/enocean_switch_nrf52840_xxAA_s140_6.0.0.dir/__/__/mesh/access/src/access_reliable.c.obj
                0x0003395c                access_model_reliable_publish
 .text.bitfield_get
                0x00033b14       0x1a examples/enocean_switch/CMakeFiles/enocean_switch_nrf52840_xxAA_s140_6.0.0.dir/__/__/mesh/access/src/device_state_manager.c.obj
 .text.bitfield_set
                0x00033b2e       0x18 examples/enocean_switch/CMakeFiles/enocean_switch_nrf52840_xxAA_s140_6.0.0.dir/__/__/mesh/access/src/device_state_manager.c.obj
 .text.bitfield_clear
                0x00033b46       0x1a examples/enocean_switch/CMakeFiles/enocean_switch_nrf52840_xxAA_s140_6.0.0.dir/__/__/mesh/access/src/device_state_manager.c.obj
 .text.bitfield_is_all_clear
                0x00033b60       0x3c examples/enocean_switch/CMakeFiles/enocean_switch_nrf52840_xxAA_s140_6.0.0.dir/__/__/mesh/access/src/device_state_manager.c.obj
 .text.address_handle_virtual_valid
                0x00033b9c       0x18 examples/enocean_switch/CMakeFiles/enocean_switch_nrf52840_xxAA_s140_6.0.0.dir/__/__/mesh/access/src/device_state_manager.c.obj
 .text.net_key_handle_get
                0x00033bb4       0x58 examples/enocean_switch/CMakeFiles/enocean_switch_nrf52840_xxAA_s140_6.0.0.dir/__/__/mesh/access/src/device_state_manager.c.obj
 .text.dev_key_handle_get
                0x00033c0c       0x30 examples/enocean_switch/CMakeFiles/enocean_switch_nrf52840_xxAA_s140_6.0.0.dir/__/__/mesh/access/src/device_state_manager.c.obj
 .text.app_key_handle_get
                0x00033c3c       0x58 examples/enocean_switch/CMakeFiles/enocean_switch_nrf52840_xxAA_s140_6.0.0.dir/__/__/mesh/access/src/device_state_manager.c.obj
 .text.addr_nonvirtual_to_flash_entry
                0x00033c94       0x10 examples/enocean_switch/CMakeFiles/enocean_switch_nrf52840_xxAA_s140_6.0.0.dir/__/__/mesh/access/src/device_state_manager.c.obj
 .text.devkey_set
                0x00033ca4       0x50 examples/enocean_switch/CMakeFiles/enocean_switch_nrf52840_xxAA_s140_6.0.0.dir/__/__/mesh/access/src/device_state_manager.c.obj
 .text.devkey_to_dsm_entry
                0x00033cf4       0x18 examples/enocean_switch/CMakeFiles/enocean_switch_nrf52840_xxAA_s140_6.0.0.dir/__/__/mesh/access/src/device_state_manager.c.obj
 .text.devkey_to_flash_entry
                0x00033d0c       0x28 examples/enocean_switch/CMakeFiles/enocean_switch_nrf52840_xxAA_s140_6.0.0.dir/__/__/mesh/access/src/device_state_manager.c.obj
 .text.addr_virtual_to_flash_entry
                0x00033d34       0x18 examples/enocean_switch/CMakeFiles/enocean_switch_nrf52840_xxAA_s140_6.0.0.dir/__/__/mesh/access/src/device_state_manager.c.obj
 .text.addr_unicast_to_dsm_entry
                0x00033d4c        0xc examples/enocean_switch/CMakeFiles/enocean_switch_nrf52840_xxAA_s140_6.0.0.dir/__/__/mesh/access/src/device_state_manager.c.obj
 .text.addr_unicast_to_flash_entry
                0x00033d58       0x10 examples/enocean_switch/CMakeFiles/enocean_switch_nrf52840_xxAA_s140_6.0.0.dir/__/__/mesh/access/src/device_state_manager.c.obj
 .text.flash_mem_listener_callback
                0x00033d68       0x14 examples/enocean_switch/CMakeFiles/enocean_switch_nrf52840_xxAA_s140_6.0.0.dir/__/__/mesh/access/src/device_state_manager.c.obj
 .text.get_subnet_handle
                0x00033d7c       0x40 examples/enocean_switch/CMakeFiles/enocean_switch_nrf52840_xxAA_s140_6.0.0.dir/__/__/mesh/access/src/device_state_manager.c.obj
 .text.appkey_set
                0x00033dbc       0x70 examples/enocean_switch/CMakeFiles/enocean_switch_nrf52840_xxAA_s140_6.0.0.dir/__/__/mesh/access/src/device_state_manager.c.obj
 .text.appkey_to_flash_entry
                0x00033e2c       0x54 examples/enocean_switch/CMakeFiles/enocean_switch_nrf52840_xxAA_s140_6.0.0.dir/__/__/mesh/access/src/device_state_manager.c.obj
 .text.subnet_to_flash_entry
                0x00033e80       0x60 examples/enocean_switch/CMakeFiles/enocean_switch_nrf52840_xxAA_s140_6.0.0.dir/__/__/mesh/access/src/device_state_manager.c.obj
 .text.bitfield_clear_all
                0x00033ee0        0xe examples/enocean_switch/CMakeFiles/enocean_switch_nrf52840_xxAA_s140_6.0.0.dir/__/__/mesh/access/src/device_state_manager.c.obj
 *fill*         0x00033eee        0x2 
 .text.subnet_set
                0x00033ef0       0x98 examples/enocean_switch/CMakeFiles/enocean_switch_nrf52840_xxAA_s140_6.0.0.dir/__/__/mesh/access/src/device_state_manager.c.obj
 .text.virtual_address_set
                0x00033f88       0x4c examples/enocean_switch/CMakeFiles/enocean_switch_nrf52840_xxAA_s140_6.0.0.dir/__/__/mesh/access/src/device_state_manager.c.obj
 .text.addr_virtual_to_dsm_entry
                0x00033fd4        0xe examples/enocean_switch/CMakeFiles/enocean_switch_nrf52840_xxAA_s140_6.0.0.dir/__/__/mesh/access/src/device_state_manager.c.obj
 *fill*         0x00033fe2        0x2 
 .text.reset_flash_area
                0x00033fe4       0x28 examples/enocean_switch/CMakeFiles/enocean_switch_nrf52840_xxAA_s140_6.0.0.dir/__/__/mesh/access/src/device_state_manager.c.obj
 .text.flash_save
                0x0003400c       0x7c examples/enocean_switch/CMakeFiles/enocean_switch_nrf52840_xxAA_s140_6.0.0.dir/__/__/mesh/access/src/device_state_manager.c.obj
 .text.flash_invalidate
                0x00034088       0x64 examples/enocean_switch/CMakeFiles/enocean_switch_nrf52840_xxAA_s140_6.0.0.dir/__/__/mesh/access/src/device_state_manager.c.obj
 .text.flash_update_all
                0x000340ec       0x6c examples/enocean_switch/CMakeFiles/enocean_switch_nrf52840_xxAA_s140_6.0.0.dir/__/__/mesh/access/src/device_state_manager.c.obj
 .text.virtual_address_uuid_index_get
                0x00034158       0x60 examples/enocean_switch/CMakeFiles/enocean_switch_nrf52840_xxAA_s140_6.0.0.dir/__/__/mesh/access/src/device_state_manager.c.obj
 .text.add_address_virtual
                0x000341b8       0x74 examples/enocean_switch/CMakeFiles/enocean_switch_nrf52840_xxAA_s140_6.0.0.dir/__/__/mesh/access/src/device_state_manager.c.obj
 .text.get_subnet_handle_by_beacon_info
                0x0003422c       0x30 examples/enocean_switch/CMakeFiles/enocean_switch_nrf52840_xxAA_s140_6.0.0.dir/__/__/mesh/access/src/device_state_manager.c.obj
 .text.get_app_handle
                0x0003425c       0x44 examples/enocean_switch/CMakeFiles/enocean_switch_nrf52840_xxAA_s140_6.0.0.dir/__/__/mesh/access/src/device_state_manager.c.obj
 .text.appkey_to_dsm_entry
                0x000342a0       0x68 examples/enocean_switch/CMakeFiles/enocean_switch_nrf52840_xxAA_s140_6.0.0.dir/__/__/mesh/access/src/device_state_manager.c.obj
 .text.subnet_to_dsm_entry
                0x00034308       0x68 examples/enocean_switch/CMakeFiles/enocean_switch_nrf52840_xxAA_s140_6.0.0.dir/__/__/mesh/access/src/device_state_manager.c.obj
 .text.flash_operation_complete
                0x00034370       0x4c examples/enocean_switch/CMakeFiles/enocean_switch_nrf52840_xxAA_s140_6.0.0.dir/__/__/mesh/access/src/device_state_manager.c.obj
 .text.flash_invalidate_complete
                0x000343bc        0x8 examples/enocean_switch/CMakeFiles/enocean_switch_nrf52840_xxAA_s140_6.0.0.dir/__/__/mesh/access/src/device_state_manager.c.obj
 .text.flash_write_complete
                0x000343c4        0x8 examples/enocean_switch/CMakeFiles/enocean_switch_nrf52840_xxAA_s140_6.0.0.dir/__/__/mesh/access/src/device_state_manager.c.obj
 .text.add_address.part.8
                0x000343cc      0x164 examples/enocean_switch/CMakeFiles/enocean_switch_nrf52840_xxAA_s140_6.0.0.dir/__/__/mesh/access/src/device_state_manager.c.obj
 .text.bitfield_next_get.part.0.constprop.17
                0x00034530       0x3c examples/enocean_switch/CMakeFiles/enocean_switch_nrf52840_xxAA_s140_6.0.0.dir/__/__/mesh/access/src/device_state_manager.c.obj
 .text.address_handle_valid
                0x0003456c       0x28 examples/enocean_switch/CMakeFiles/enocean_switch_nrf52840_xxAA_s140_6.0.0.dir/__/__/mesh/access/src/device_state_manager.c.obj
 .text.address_handle_nonvirtual_valid
                0x00034594       0x14 examples/enocean_switch/CMakeFiles/enocean_switch_nrf52840_xxAA_s140_6.0.0.dir/__/__/mesh/access/src/device_state_manager.c.obj
 .text.address_delete_if_unused
                0x000345a8       0x78 examples/enocean_switch/CMakeFiles/enocean_switch_nrf52840_xxAA_s140_6.0.0.dir/__/__/mesh/access/src/device_state_manager.c.obj
 .text.addr_nonvirtual_to_dsm_entry
                0x00034620       0x38 examples/enocean_switch/CMakeFiles/enocean_switch_nrf52840_xxAA_s140_6.0.0.dir/__/__/mesh/access/src/device_state_manager.c.obj
 .text.dsm_flash_config_load
                0x00034658      0x120 examples/enocean_switch/CMakeFiles/enocean_switch_nrf52840_xxAA_s140_6.0.0.dir/__/__/mesh/access/src/device_state_manager.c.obj
                0x00034658                dsm_flash_config_load
 .text.dsm_flash_area_get
                0x00034778        0xc examples/enocean_switch/CMakeFiles/enocean_switch_nrf52840_xxAA_s140_6.0.0.dir/__/__/mesh/access/src/device_state_manager.c.obj
                0x00034778                dsm_flash_area_get
 .text.build_flash_area
                0x00034784       0x8c examples/enocean_switch/CMakeFiles/enocean_switch_nrf52840_xxAA_s140_6.0.0.dir/__/__/mesh/access/src/device_state_manager.c.obj
 .text.flash_remove_complete
                0x00034810        0x4 examples/enocean_switch/CMakeFiles/enocean_switch_nrf52840_xxAA_s140_6.0.0.dir/__/__/mesh/access/src/device_state_manager.c.obj
 .text.dsm_clear
                0x00034814       0xb4 examples/enocean_switch/CMakeFiles/enocean_switch_nrf52840_xxAA_s140_6.0.0.dir/__/__/mesh/access/src/device_state_manager.c.obj
                0x00034814                dsm_clear
 .text.dsm_init
                0x000348c8       0x3c examples/enocean_switch/CMakeFiles/enocean_switch_nrf52840_xxAA_s140_6.0.0.dir/__/__/mesh/access/src/device_state_manager.c.obj
                0x000348c8                dsm_init
 .text.dsm_local_unicast_addresses_set
                0x00034904       0x78 examples/enocean_switch/CMakeFiles/enocean_switch_nrf52840_xxAA_s140_6.0.0.dir/__/__/mesh/access/src/device_state_manager.c.obj
                0x00034904                dsm_local_unicast_addresses_set
 .text.dsm_local_unicast_addresses_get
                0x0003497c       0x20 examples/enocean_switch/CMakeFiles/enocean_switch_nrf52840_xxAA_s140_6.0.0.dir/__/__/mesh/access/src/device_state_manager.c.obj
                0x0003497c                dsm_local_unicast_addresses_get
 .text.dsm_address_publish_add
                0x0003499c        0xc examples/enocean_switch/CMakeFiles/enocean_switch_nrf52840_xxAA_s140_6.0.0.dir/__/__/mesh/access/src/device_state_manager.c.obj
                0x0003499c                dsm_address_publish_add
 .text.dsm_address_publish_add_handle
                0x000349a8       0x38 examples/enocean_switch/CMakeFiles/enocean_switch_nrf52840_xxAA_s140_6.0.0.dir/__/__/mesh/access/src/device_state_manager.c.obj
                0x000349a8                dsm_address_publish_add_handle
 .text.dsm_address_publish_virtual_add
                0x000349e0        0x6 examples/enocean_switch/CMakeFiles/enocean_switch_nrf52840_xxAA_s140_6.0.0.dir/__/__/mesh/access/src/device_state_manager.c.obj
                0x000349e0                dsm_address_publish_virtual_add
 *fill*         0x000349e6        0x2 
 .text.dsm_address_publish_remove
                0x000349e8       0x44 examples/enocean_switch/CMakeFiles/enocean_switch_nrf52840_xxAA_s140_6.0.0.dir/__/__/mesh/access/src/device_state_manager.c.obj
                0x000349e8                dsm_address_publish_remove
 .text.dsm_address_subscription_add
                0x00034a2c        0xc examples/enocean_switch/CMakeFiles/enocean_switch_nrf52840_xxAA_s140_6.0.0.dir/__/__/mesh/access/src/device_state_manager.c.obj
                0x00034a2c                dsm_address_subscription_add
 .text.dsm_address_subscription_virtual_add
                0x00034a38        0x6 examples/enocean_switch/CMakeFiles/enocean_switch_nrf52840_xxAA_s140_6.0.0.dir/__/__/mesh/access/src/device_state_manager.c.obj
                0x00034a38                dsm_address_subscription_virtual_add
 *fill*         0x00034a3e        0x2 
 .text.dsm_address_subscription_add_handle
                0x00034a40       0x38 examples/enocean_switch/CMakeFiles/enocean_switch_nrf52840_xxAA_s140_6.0.0.dir/__/__/mesh/access/src/device_state_manager.c.obj
                0x00034a40                dsm_address_subscription_add_handle
 .text.dsm_address_subscription_get
                0x00034a78       0x34 examples/enocean_switch/CMakeFiles/enocean_switch_nrf52840_xxAA_s140_6.0.0.dir/__/__/mesh/access/src/device_state_manager.c.obj
                0x00034a78                dsm_address_subscription_get
 .text.dsm_address_get
                0x00034aac       0x5c examples/enocean_switch/CMakeFiles/enocean_switch_nrf52840_xxAA_s140_6.0.0.dir/__/__/mesh/access/src/device_state_manager.c.obj
                0x00034aac                dsm_address_get
 .text.dsm_address_subscription_remove
                0x00034b08       0x5c examples/enocean_switch/CMakeFiles/enocean_switch_nrf52840_xxAA_s140_6.0.0.dir/__/__/mesh/access/src/device_state_manager.c.obj
                0x00034b08                dsm_address_subscription_remove
 .text.dsm_address_handle_get
                0x00034b64       0x98 examples/enocean_switch/CMakeFiles/enocean_switch_nrf52840_xxAA_s140_6.0.0.dir/__/__/mesh/access/src/device_state_manager.c.obj
                0x00034b64                dsm_address_handle_get
 .text.dsm_net_key_index_to_subnet_handle
                0x00034bfc       0x1c examples/enocean_switch/CMakeFiles/enocean_switch_nrf52840_xxAA_s140_6.0.0.dir/__/__/mesh/access/src/device_state_manager.c.obj
                0x00034bfc                dsm_net_key_index_to_subnet_handle
 .text.dsm_subnet_handle_get
                0x00034c18        0xc examples/enocean_switch/CMakeFiles/enocean_switch_nrf52840_xxAA_s140_6.0.0.dir/__/__/mesh/access/src/device_state_manager.c.obj
                0x00034c18                dsm_subnet_handle_get
 .text.dsm_appkey_index_to_appkey_handle
                0x00034c24       0x1c examples/enocean_switch/CMakeFiles/enocean_switch_nrf52840_xxAA_s140_6.0.0.dir/__/__/mesh/access/src/device_state_manager.c.obj
                0x00034c24                dsm_appkey_index_to_appkey_handle
 .text.dsm_appkey_handle_get
                0x00034c40        0xc examples/enocean_switch/CMakeFiles/enocean_switch_nrf52840_xxAA_s140_6.0.0.dir/__/__/mesh/access/src/device_state_manager.c.obj
                0x00034c40                dsm_appkey_handle_get
 .text.dsm_appkey_handle_to_appkey_index
                0x00034c4c       0x34 examples/enocean_switch/CMakeFiles/enocean_switch_nrf52840_xxAA_s140_6.0.0.dir/__/__/mesh/access/src/device_state_manager.c.obj
                0x00034c4c                dsm_appkey_handle_to_appkey_index
 .text.dsm_appkey_handle_to_subnet_handle
                0x00034c80       0xa0 examples/enocean_switch/CMakeFiles/enocean_switch_nrf52840_xxAA_s140_6.0.0.dir/__/__/mesh/access/src/device_state_manager.c.obj
                0x00034c80                dsm_appkey_handle_to_subnet_handle
 .text.dsm_subnet_add
                0x00034d20       0x78 examples/enocean_switch/CMakeFiles/enocean_switch_nrf52840_xxAA_s140_6.0.0.dir/__/__/mesh/access/src/device_state_manager.c.obj
                0x00034d20                dsm_subnet_add
 .text.dsm_subnet_kr_phase_get
                0x00034d98       0x34 examples/enocean_switch/CMakeFiles/enocean_switch_nrf52840_xxAA_s140_6.0.0.dir/__/__/mesh/access/src/device_state_manager.c.obj
                0x00034d98                dsm_subnet_kr_phase_get
 .text.dsm_subnet_update
                0x00034dcc       0xc8 examples/enocean_switch/CMakeFiles/enocean_switch_nrf52840_xxAA_s140_6.0.0.dir/__/__/mesh/access/src/device_state_manager.c.obj
                0x00034dcc                dsm_subnet_update
 .text.dsm_subnet_update_swap_keys
                0x00034e94       0x5c examples/enocean_switch/CMakeFiles/enocean_switch_nrf52840_xxAA_s140_6.0.0.dir/__/__/mesh/access/src/device_state_manager.c.obj
                0x00034e94                dsm_subnet_update_swap_keys
 .text.dsm_subnet_update_commit
                0x00034ef0       0xf4 examples/enocean_switch/CMakeFiles/enocean_switch_nrf52840_xxAA_s140_6.0.0.dir/__/__/mesh/access/src/device_state_manager.c.obj
                0x00034ef0                dsm_subnet_update_commit
 .text.mesh_evt_handler
                0x00034fe4       0x4c examples/enocean_switch/CMakeFiles/enocean_switch_nrf52840_xxAA_s140_6.0.0.dir/__/__/mesh/access/src/device_state_manager.c.obj
 .text.dsm_subnet_get_all
                0x00035030       0x60 examples/enocean_switch/CMakeFiles/enocean_switch_nrf52840_xxAA_s140_6.0.0.dir/__/__/mesh/access/src/device_state_manager.c.obj
                0x00035030                dsm_subnet_get_all
 .text.dsm_devkey_add
                0x00035090       0x7c examples/enocean_switch/CMakeFiles/enocean_switch_nrf52840_xxAA_s140_6.0.0.dir/__/__/mesh/access/src/device_state_manager.c.obj
                0x00035090                dsm_devkey_add
 .text.dsm_appkey_add
                0x0003510c       0x90 examples/enocean_switch/CMakeFiles/enocean_switch_nrf52840_xxAA_s140_6.0.0.dir/__/__/mesh/access/src/device_state_manager.c.obj
                0x0003510c                dsm_appkey_add
 .text.dsm_appkey_update
                0x0003519c       0xa4 examples/enocean_switch/CMakeFiles/enocean_switch_nrf52840_xxAA_s140_6.0.0.dir/__/__/mesh/access/src/device_state_manager.c.obj
                0x0003519c                dsm_appkey_update
 .text.dsm_appkey_delete
                0x00035240       0x30 examples/enocean_switch/CMakeFiles/enocean_switch_nrf52840_xxAA_s140_6.0.0.dir/__/__/mesh/access/src/device_state_manager.c.obj
                0x00035240                dsm_appkey_delete
 .text.dsm_subnet_delete
                0x00035270       0xac examples/enocean_switch/CMakeFiles/enocean_switch_nrf52840_xxAA_s140_6.0.0.dir/__/__/mesh/access/src/device_state_manager.c.obj
                0x00035270                dsm_subnet_delete
 .text.dsm_appkey_get_all
                0x0003531c       0x88 examples/enocean_switch/CMakeFiles/enocean_switch_nrf52840_xxAA_s140_6.0.0.dir/__/__/mesh/access/src/device_state_manager.c.obj
                0x0003531c                dsm_appkey_get_all
 .text.dsm_tx_secmat_get
                0x000353a4       0xc4 examples/enocean_switch/CMakeFiles/enocean_switch_nrf52840_xxAA_s140_6.0.0.dir/__/__/mesh/access/src/device_state_manager.c.obj
                0x000353a4                dsm_tx_secmat_get
 .text.dsm_net_secmat_from_keyindex_get
                0x00035468       0x3c examples/enocean_switch/CMakeFiles/enocean_switch_nrf52840_xxAA_s140_6.0.0.dir/__/__/mesh/access/src/device_state_manager.c.obj
                0x00035468                dsm_net_secmat_from_keyindex_get
 .text.nrf_mesh_net_secmat_next_get
                0x000354a4       0xb4 examples/enocean_switch/CMakeFiles/enocean_switch_nrf52840_xxAA_s140_6.0.0.dir/__/__/mesh/access/src/device_state_manager.c.obj
                0x000354a4                nrf_mesh_net_secmat_next_get
 .text.nrf_mesh_app_secmat_next_get
                0x00035558       0x88 examples/enocean_switch/CMakeFiles/enocean_switch_nrf52840_xxAA_s140_6.0.0.dir/__/__/mesh/access/src/device_state_manager.c.obj
                0x00035558                nrf_mesh_app_secmat_next_get
 .text.nrf_mesh_devkey_secmat_get
                0x000355e0       0x28 examples/enocean_switch/CMakeFiles/enocean_switch_nrf52840_xxAA_s140_6.0.0.dir/__/__/mesh/access/src/device_state_manager.c.obj
                0x000355e0                nrf_mesh_devkey_secmat_get
 .text.nrf_mesh_beacon_info_next_get
                0x00035608       0xd4 examples/enocean_switch/CMakeFiles/enocean_switch_nrf52840_xxAA_s140_6.0.0.dir/__/__/mesh/access/src/device_state_manager.c.obj
                0x00035608                nrf_mesh_beacon_info_next_get
 .text.nrf_mesh_rx_address_get
                0x000356dc      0x118 examples/enocean_switch/CMakeFiles/enocean_switch_nrf52840_xxAA_s140_6.0.0.dir/__/__/mesh/access/src/device_state_manager.c.obj
                0x000356dc                nrf_mesh_rx_address_get
 .text.nrf_mesh_unicast_address_get
                0x000357f4       0x20 examples/enocean_switch/CMakeFiles/enocean_switch_nrf52840_xxAA_s140_6.0.0.dir/__/__/mesh/access/src/device_state_manager.c.obj
                0x000357f4                nrf_mesh_unicast_address_get
 .text.complete_provisioning
                0x00035814       0x24 examples/enocean_switch/CMakeFiles/enocean_switch_nrf52840_xxAA_s140_6.0.0.dir/__/__/mesh/prov/src/prov_provisionee.c.obj
 .text.prov_provisionee_cb_link_established
                0x00035838       0x36 examples/enocean_switch/CMakeFiles/enocean_switch_nrf52840_xxAA_s140_6.0.0.dir/__/__/mesh/prov/src/prov_provisionee.c.obj
 .text.prov_provisionee_cb_link_closed
                0x0003586e       0x34 examples/enocean_switch/CMakeFiles/enocean_switch_nrf52840_xxAA_s140_6.0.0.dir/__/__/mesh/prov/src/prov_provisionee.c.obj
 .text.request_authentication
                0x000358a2       0x8a examples/enocean_switch/CMakeFiles/enocean_switch_nrf52840_xxAA_s140_6.0.0.dir/__/__/mesh/prov/src/prov_provisionee.c.obj
 .text.send_failed
                0x0003592c       0x3a examples/enocean_switch/CMakeFiles/enocean_switch_nrf52840_xxAA_s140_6.0.0.dir/__/__/mesh/prov/src/prov_provisionee.c.obj
 .text.start_authentication
                0x00035966       0x52 examples/enocean_switch/CMakeFiles/enocean_switch_nrf52840_xxAA_s140_6.0.0.dir/__/__/mesh/prov/src/prov_provisionee.c.obj
 .text.prov_provisionee_cb_ack_received
                0x000359b8       0xc8 examples/enocean_switch/CMakeFiles/enocean_switch_nrf52840_xxAA_s140_6.0.0.dir/__/__/mesh/prov/src/prov_provisionee.c.obj
 .text.prov_provisionee_pkt_in
                0x00035a80      0x2e4 examples/enocean_switch/CMakeFiles/enocean_switch_nrf52840_xxAA_s140_6.0.0.dir/__/__/mesh/prov/src/prov_provisionee.c.obj
 .text.prov_provisionee_listen
                0x00035d64       0x30 examples/enocean_switch/CMakeFiles/enocean_switch_nrf52840_xxAA_s140_6.0.0.dir/__/__/mesh/prov/src/prov_provisionee.c.obj
                0x00035d64                prov_provisionee_listen
 .text.prov_provisionee_auth_data
                0x00035d94       0x98 examples/enocean_switch/CMakeFiles/enocean_switch_nrf52840_xxAA_s140_6.0.0.dir/__/__/mesh/prov/src/prov_provisionee.c.obj
                0x00035d94                prov_provisionee_auth_data
 .text.bearer_compare_callback
                0x00035e2c        0xc examples/enocean_switch/CMakeFiles/enocean_switch_nrf52840_xxAA_s140_6.0.0.dir/__/__/mesh/prov/src/nrf_mesh_prov.c.obj
 .text.bitfield_next_get.part.0.constprop.4
                0x00035e38       0x34 examples/enocean_switch/CMakeFiles/enocean_switch_nrf52840_xxAA_s140_6.0.0.dir/__/__/mesh/prov/src/nrf_mesh_prov.c.obj
 .text.nrf_mesh_prov_init
                0x00035e6c       0x32 examples/enocean_switch/CMakeFiles/enocean_switch_nrf52840_xxAA_s140_6.0.0.dir/__/__/mesh/prov/src/nrf_mesh_prov.c.obj
                0x00035e6c                nrf_mesh_prov_init
 *fill*         0x00035e9e        0x2 
 .text.nrf_mesh_prov_bearer_add
                0x00035ea0       0x28 examples/enocean_switch/CMakeFiles/enocean_switch_nrf52840_xxAA_s140_6.0.0.dir/__/__/mesh/prov/src/nrf_mesh_prov.c.obj
                0x00035ea0                nrf_mesh_prov_bearer_add
 .text.nrf_mesh_prov_generate_keys
                0x00035ec8        0x4 examples/enocean_switch/CMakeFiles/enocean_switch_nrf52840_xxAA_s140_6.0.0.dir/__/__/mesh/prov/src/nrf_mesh_prov.c.obj
                0x00035ec8                nrf_mesh_prov_generate_keys
 .text.nrf_mesh_prov_listen_stop
                0x00035ecc       0x2e examples/enocean_switch/CMakeFiles/enocean_switch_nrf52840_xxAA_s140_6.0.0.dir/__/__/mesh/prov/src/nrf_mesh_prov.c.obj
                0x00035ecc                nrf_mesh_prov_listen_stop
 .text.nrf_mesh_prov_listen
                0x00035efa       0x88 examples/enocean_switch/CMakeFiles/enocean_switch_nrf52840_xxAA_s140_6.0.0.dir/__/__/mesh/prov/src/nrf_mesh_prov.c.obj
                0x00035efa                nrf_mesh_prov_listen
 .text.nrf_mesh_prov_auth_data_provide
                0x00035f82        0xe examples/enocean_switch/CMakeFiles/enocean_switch_nrf52840_xxAA_s140_6.0.0.dir/__/__/mesh/prov/src/nrf_mesh_prov.c.obj
                0x00035f82                nrf_mesh_prov_auth_data_provide
 .text.send_data
                0x00035f90       0x28 examples/enocean_switch/CMakeFiles/enocean_switch_nrf52840_xxAA_s140_6.0.0.dir/__/__/mesh/prov/src/provisioning.c.obj
 .text.prov_packet_length_valid
                0x00035fb8       0x1c examples/enocean_switch/CMakeFiles/enocean_switch_nrf52840_xxAA_s140_6.0.0.dir/__/__/mesh/prov/src/provisioning.c.obj
                0x00035fb8                prov_packet_length_valid
 .text.prov_tx_capabilities
                0x00035fd4       0x1e examples/enocean_switch/CMakeFiles/enocean_switch_nrf52840_xxAA_s140_6.0.0.dir/__/__/mesh/prov/src/provisioning.c.obj
                0x00035fd4                prov_tx_capabilities
 .text.prov_tx_public_key
                0x00035ff2       0x26 examples/enocean_switch/CMakeFiles/enocean_switch_nrf52840_xxAA_s140_6.0.0.dir/__/__/mesh/prov/src/provisioning.c.obj
                0x00035ff2                prov_tx_public_key
 .text.prov_tx_input_complete
                0x00036018       0x16 examples/enocean_switch/CMakeFiles/enocean_switch_nrf52840_xxAA_s140_6.0.0.dir/__/__/mesh/prov/src/provisioning.c.obj
                0x00036018                prov_tx_input_complete
 .text.prov_tx_confirmation
                0x0003602e       0x26 examples/enocean_switch/CMakeFiles/enocean_switch_nrf52840_xxAA_s140_6.0.0.dir/__/__/mesh/prov/src/provisioning.c.obj
                0x0003602e                prov_tx_confirmation
 .text.prov_tx_random
                0x00036054       0x26 examples/enocean_switch/CMakeFiles/enocean_switch_nrf52840_xxAA_s140_6.0.0.dir/__/__/mesh/prov/src/provisioning.c.obj
                0x00036054                prov_tx_random
 .text.prov_tx_complete
                0x0003607a       0x16 examples/enocean_switch/CMakeFiles/enocean_switch_nrf52840_xxAA_s140_6.0.0.dir/__/__/mesh/prov/src/provisioning.c.obj
                0x0003607a                prov_tx_complete
 .text.prov_tx_failed
                0x00036090       0x1a examples/enocean_switch/CMakeFiles/enocean_switch_nrf52840_xxAA_s140_6.0.0.dir/__/__/mesh/prov/src/provisioning.c.obj
                0x00036090                prov_tx_failed
 .text.prov_beacon_unprov_build
                0x000360aa       0x54 examples/enocean_switch/CMakeFiles/enocean_switch_nrf52840_xxAA_s140_6.0.0.dir/__/__/mesh/prov/src/prov_beacon.c.obj
                0x000360aa                prov_beacon_unprov_build
 *fill*         0x000360fe        0x2 
 .text.prov_beacon_unprov_packet_in
                0x00036100       0x88 examples/enocean_switch/CMakeFiles/enocean_switch_nrf52840_xxAA_s140_6.0.0.dir/__/__/mesh/prov/src/prov_beacon.c.obj
                0x00036100                prov_beacon_unprov_packet_in
 .text.oob_gen_alphanumeric
                0x00036188       0x34 examples/enocean_switch/CMakeFiles/enocean_switch_nrf52840_xxAA_s140_6.0.0.dir/__/__/mesh/prov/src/prov_utils.c.obj
 .text.oob_gen_numeric
                0x000361bc       0x3c examples/enocean_switch/CMakeFiles/enocean_switch_nrf52840_xxAA_s140_6.0.0.dir/__/__/mesh/prov/src/prov_utils.c.obj
 .text.prov_utils_opt_set
                0x000361f8       0x20 examples/enocean_switch/CMakeFiles/enocean_switch_nrf52840_xxAA_s140_6.0.0.dir/__/__/mesh/prov/src/prov_utils.c.obj
                0x000361f8                prov_utils_opt_set
 .text.prov_utils_opt_get
                0x00036218       0x1c examples/enocean_switch/CMakeFiles/enocean_switch_nrf52840_xxAA_s140_6.0.0.dir/__/__/mesh/prov/src/prov_utils.c.obj
                0x00036218                prov_utils_opt_get
 .text.prov_utils_use_ecdh_offloading
                0x00036234        0xc examples/enocean_switch/CMakeFiles/enocean_switch_nrf52840_xxAA_s140_6.0.0.dir/__/__/mesh/prov/src/prov_utils.c.obj
                0x00036234                prov_utils_use_ecdh_offloading
 .text.prov_utils_authentication_values_derive
                0x00036240       0xa0 examples/enocean_switch/CMakeFiles/enocean_switch_nrf52840_xxAA_s140_6.0.0.dir/__/__/mesh/prov/src/prov_utils.c.obj
                0x00036240                prov_utils_authentication_values_derive
 .text.prov_utils_keys_generate
                0x000362e0       0x1e examples/enocean_switch/CMakeFiles/enocean_switch_nrf52840_xxAA_s140_6.0.0.dir/__/__/mesh/prov/src/prov_utils.c.obj
                0x000362e0                prov_utils_keys_generate
 *fill*         0x000362fe        0x2 
 .text.prov_utils_derive_keys
                0x00036300       0xac examples/enocean_switch/CMakeFiles/enocean_switch_nrf52840_xxAA_s140_6.0.0.dir/__/__/mesh/prov/src/prov_utils.c.obj
                0x00036300                prov_utils_derive_keys
 .text.prov_utils_calculate_shared_secret
                0x000363ac       0x36 examples/enocean_switch/CMakeFiles/enocean_switch_nrf52840_xxAA_s140_6.0.0.dir/__/__/mesh/prov/src/prov_utils.c.obj
                0x000363ac                prov_utils_calculate_shared_secret
 .text.prov_utils_generate_oob_data
                0x000363e2       0x8a examples/enocean_switch/CMakeFiles/enocean_switch_nrf52840_xxAA_s140_6.0.0.dir/__/__/mesh/prov/src/prov_utils.c.obj
                0x000363e2                prov_utils_generate_oob_data
 .text.prov_utils_confirmation_check
                0x0003646c       0x5c examples/enocean_switch/CMakeFiles/enocean_switch_nrf52840_xxAA_s140_6.0.0.dir/__/__/mesh/prov/src/prov_utils.c.obj
                0x0003646c                prov_utils_confirmation_check
 .text.link_timeout_cb
                0x000364c8       0x10 examples/enocean_switch/CMakeFiles/enocean_switch_nrf52840_xxAA_s140_6.0.0.dir/__/__/mesh/prov/src/prov_bearer_adv.c.obj
 .text.remove_active_bearer
                0x000364d8       0x4c examples/enocean_switch/CMakeFiles/enocean_switch_nrf52840_xxAA_s140_6.0.0.dir/__/__/mesh/prov/src/prov_bearer_adv.c.obj
 .text.close_link
                0x00036524       0x58 examples/enocean_switch/CMakeFiles/enocean_switch_nrf52840_xxAA_s140_6.0.0.dir/__/__/mesh/prov/src/prov_bearer_adv.c.obj
 .text.prov_bearer_adv_listen_stop
                0x0003657c       0x30 examples/enocean_switch/CMakeFiles/enocean_switch_nrf52840_xxAA_s140_6.0.0.dir/__/__/mesh/prov/src/prov_bearer_adv.c.obj
 .text.send_packet
                0x000365ac       0x5e examples/enocean_switch/CMakeFiles/enocean_switch_nrf52840_xxAA_s140_6.0.0.dir/__/__/mesh/prov/src/prov_bearer_adv.c.obj
 .text.prov_buffer_tx
                0x0003660a      0x134 examples/enocean_switch/CMakeFiles/enocean_switch_nrf52840_xxAA_s140_6.0.0.dir/__/__/mesh/prov/src/prov_bearer_adv.c.obj
 .text.send_link_close
                0x0003673e       0x38 examples/enocean_switch/CMakeFiles/enocean_switch_nrf52840_xxAA_s140_6.0.0.dir/__/__/mesh/prov/src/prov_bearer_adv.c.obj
 .text.prov_bearer_adv_link_close
                0x00036776       0x56 examples/enocean_switch/CMakeFiles/enocean_switch_nrf52840_xxAA_s140_6.0.0.dir/__/__/mesh/prov/src/prov_bearer_adv.c.obj
 .text.send_transaction_ack
                0x000367cc       0x24 examples/enocean_switch/CMakeFiles/enocean_switch_nrf52840_xxAA_s140_6.0.0.dir/__/__/mesh/prov/src/prov_bearer_adv.c.obj
 .text.send_link_ack
                0x000367f0       0x32 examples/enocean_switch/CMakeFiles/enocean_switch_nrf52840_xxAA_s140_6.0.0.dir/__/__/mesh/prov/src/prov_bearer_adv.c.obj
 .text.reset_timeout_timer
                0x00036822       0x1a examples/enocean_switch/CMakeFiles/enocean_switch_nrf52840_xxAA_s140_6.0.0.dir/__/__/mesh/prov/src/prov_bearer_adv.c.obj
 .text.tx_complete_cb
                0x0003683c       0x1c examples/enocean_switch/CMakeFiles/enocean_switch_nrf52840_xxAA_s140_6.0.0.dir/__/__/mesh/prov/src/prov_bearer_adv.c.obj
 .text.tx_retry_cb
                0x00036858       0xcc examples/enocean_switch/CMakeFiles/enocean_switch_nrf52840_xxAA_s140_6.0.0.dir/__/__/mesh/prov/src/prov_bearer_adv.c.obj
 .text.add_active_bearer
                0x00036924       0x80 examples/enocean_switch/CMakeFiles/enocean_switch_nrf52840_xxAA_s140_6.0.0.dir/__/__/mesh/prov/src/prov_bearer_adv.c.obj
 .text.prov_bearer_adv_link_open
                0x000369a4       0xec examples/enocean_switch/CMakeFiles/enocean_switch_nrf52840_xxAA_s140_6.0.0.dir/__/__/mesh/prov/src/prov_bearer_adv.c.obj
 .text.async_process
                0x00036a90       0x50 examples/enocean_switch/CMakeFiles/enocean_switch_nrf52840_xxAA_s140_6.0.0.dir/__/__/mesh/prov/src/prov_bearer_adv.c.obj
 .text.prov_bearer_adv_listen
                0x00036ae0       0xd8 examples/enocean_switch/CMakeFiles/enocean_switch_nrf52840_xxAA_s140_6.0.0.dir/__/__/mesh/prov/src/prov_bearer_adv.c.obj
 .text.calculate_3GPP_CRC
                0x00036bb8       0x24 examples/enocean_switch/CMakeFiles/enocean_switch_nrf52840_xxAA_s140_6.0.0.dir/__/__/mesh/prov/src/prov_bearer_adv.c.obj
                0x00036bb8                calculate_3GPP_CRC
 .text.prov_bearer_adv_tx
                0x00036bdc       0xb4 examples/enocean_switch/CMakeFiles/enocean_switch_nrf52840_xxAA_s140_6.0.0.dir/__/__/mesh/prov/src/prov_bearer_adv.c.obj
 .text.prov_buffer_rx
                0x00036c90       0x6e examples/enocean_switch/CMakeFiles/enocean_switch_nrf52840_xxAA_s140_6.0.0.dir/__/__/mesh/prov/src/prov_bearer_adv.c.obj
 *fill*         0x00036cfe        0x2 
 .text.nrf_mesh_prov_bearer_adv_interface_get
                0x00036d00       0x3c examples/enocean_switch/CMakeFiles/enocean_switch_nrf52840_xxAA_s140_6.0.0.dir/__/__/mesh/prov/src/prov_bearer_adv.c.obj
                0x00036d00                nrf_mesh_prov_bearer_adv_interface_get
 .text.prov_bearer_adv_packet_in
                0x00036d3c      0x7f8 examples/enocean_switch/CMakeFiles/enocean_switch_nrf52840_xxAA_s140_6.0.0.dir/__/__/mesh/prov/src/prov_bearer_adv.c.obj
                0x00036d3c                prov_bearer_adv_packet_in
 .text.errata_120
                0x00037534       0x20 examples/enocean_switch/CMakeFiles/enocean_switch_nrf52840_xxAA_s140_6.0.0.dir/C_/b/nRF5_SDK_15.0.0_a53641a/modules/nrfx/mdk/system_nrf52840.c.obj
 .text.SystemInit
                0x00037554      0x1b8 examples/enocean_switch/CMakeFiles/enocean_switch_nrf52840_xxAA_s140_6.0.0.dir/C_/b/nRF5_SDK_15.0.0_a53641a/modules/nrfx/mdk/system_nrf52840.c.obj
                0x00037554                SystemInit
 .text          0x0003770c       0x3c examples/enocean_switch/CMakeFiles/enocean_switch_nrf52840_xxAA_s140_6.0.0.dir/C_/b/nRF5_SDK_15.0.0_a53641a/modules/nrfx/mdk/gcc_startup_nrf52840.S.obj
                0x0003770c                Reset_Handler
                0x00037734                NMI_Handler
                0x00037736                HardFault_Handler
                0x00037738                MemoryManagement_Handler
                0x0003773a                BusFault_Handler
                0x0003773c                UsageFault_Handler
                0x0003773e                SVC_Handler
                0x00037740                DebugMon_Handler
                0x00037742                PendSV_Handler
                0x00037744                SysTick_Handler
                0x00037746                PDM_IRQHandler
                0x00037746                TEMP_IRQHandler
                0x00037746                TIMER3_IRQHandler
                0x00037746                PWM3_IRQHandler
                0x00037746                FPU_IRQHandler
                0x00037746                USBD_IRQHandler
                0x00037746                SPIM0_SPIS0_TWIM0_TWIS0_SPI0_TWI0_IRQHandler
                0x00037746                RADIO_IRQHandler
                0x00037746                UARTE0_UART0_IRQHandler
                0x00037746                TIMER4_IRQHandler
                0x00037746                CRYPTOCELL_IRQHandler
                0x00037746                I2S_IRQHandler
                0x00037746                SWI4_EGU4_IRQHandler
                0x00037746                TIMER0_IRQHandler
                0x00037746                RTC0_IRQHandler
                0x00037746                UARTE1_IRQHandler
                0x00037746                POWER_CLOCK_IRQHandler
                0x00037746                SPIM3_IRQHandler
                0x00037746                PWM2_IRQHandler
                0x00037746                ECB_IRQHandler
                0x00037746                SPIM1_SPIS1_TWIM1_TWIS1_SPI1_TWI1_IRQHandler
                0x00037746                Default_Handler
                0x00037746                SAADC_IRQHandler
                0x00037746                CCM_AAR_IRQHandler
                0x00037746                WDT_IRQHandler
                0x00037746                SWI0_EGU0_IRQHandler
                0x00037746                SWI5_EGU5_IRQHandler
                0x00037746                RNG_IRQHandler
                0x00037746                RTC2_IRQHandler
                0x00037746                PWM0_IRQHandler
                0x00037746                SWI3_EGU3_IRQHandler
                0x00037746                RTC1_IRQHandler
                0x00037746                SWI1_EGU1_IRQHandler
                0x00037746                SPIM2_SPIS2_SPI2_IRQHandler
                0x00037746                NFCT_IRQHandler
                0x00037746                PWM1_IRQHandler
                0x00037746                MWU_IRQHandler
                0x00037746                TIMER1_IRQHandler
                0x00037746                QSPI_IRQHandler
                0x00037746                COMP_LPCOMP_IRQHandler
 .text.app_error_handler_bare
                0x00037748       0x1a examples/enocean_switch/CMakeFiles/enocean_switch_nrf52840_xxAA_s140_6.0.0.dir/C_/b/nRF5_SDK_15.0.0_a53641a/components/libraries/util/app_error.c.obj
                0x00037748                app_error_handler_bare
 .text.app_error_handler
                0x00037762       0x1a examples/enocean_switch/CMakeFiles/enocean_switch_nrf52840_xxAA_s140_6.0.0.dir/C_/b/nRF5_SDK_15.0.0_a53641a/components/libraries/util/app_error_handler_gcc.c.obj
                0x00037762                app_error_handler
 .text._GetAvailWriteSpace
                0x0003777c       0x1c external/rtt/librtt_nrf52840_xxAA.a(SEGGER_RTT.c.obj)
 .text._WriteNoCheck
                0x00037798       0x3c external/rtt/librtt_nrf52840_xxAA.a(SEGGER_RTT.c.obj)
 .text._WriteBlocking
                0x000377d4       0x52 external/rtt/librtt_nrf52840_xxAA.a(SEGGER_RTT.c.obj)
 *fill*         0x00037826        0x2 
 .text._DoInit  0x00037828       0x60 external/rtt/librtt_nrf52840_xxAA.a(SEGGER_RTT.c.obj)
 .text.SEGGER_RTT_ReadNoLock
                0x00037888       0x88 external/rtt/librtt_nrf52840_xxAA.a(SEGGER_RTT.c.obj)
                0x00037888                SEGGER_RTT_ReadNoLock
 .text.SEGGER_RTT_Read
                0x00037910       0x1c external/rtt/librtt_nrf52840_xxAA.a(SEGGER_RTT.c.obj)
                0x00037910                SEGGER_RTT_Read
 .text.SEGGER_RTT_WriteNoLock
                0x0003792c       0x68 external/rtt/librtt_nrf52840_xxAA.a(SEGGER_RTT.c.obj)
                0x0003792c                SEGGER_RTT_WriteNoLock
 .text.SEGGER_RTT_Write
                0x00037994       0x34 external/rtt/librtt_nrf52840_xxAA.a(SEGGER_RTT.c.obj)
                0x00037994                SEGGER_RTT_Write
 .text.SEGGER_RTT_GetKey
                0x000379c8       0x20 external/rtt/librtt_nrf52840_xxAA.a(SEGGER_RTT.c.obj)
                0x000379c8                SEGGER_RTT_GetKey
 .text._StoreChar
                0x000379e8       0x3e external/rtt/librtt_nrf52840_xxAA.a(SEGGER_RTT_printf.c.obj)
 *fill*         0x00037a26        0x2 
 .text._PrintUnsigned
                0x00037a28       0xd0 external/rtt/librtt_nrf52840_xxAA.a(SEGGER_RTT_printf.c.obj)
 .text.SEGGER_RTT_vprintf
                0x00037af8      0x246 external/rtt/librtt_nrf52840_xxAA.a(SEGGER_RTT_printf.c.obj)
                0x00037af8                SEGGER_RTT_vprintf
 .text.SEGGER_RTT_printf
                0x00037d3e       0x1e external/rtt/librtt_nrf52840_xxAA.a(SEGGER_RTT_printf.c.obj)
                0x00037d3e                SEGGER_RTT_printf
 .text.uECC_vli_mult
                0x00037d5c       0x64 external/micro-ecc/libuECC_nrf52840_xxAA.a(uECC.c.obj)
 .text.uECC_vli_clear
                0x00037dc0       0x16 external/micro-ecc/libuECC_nrf52840_xxAA.a(uECC.c.obj)
 .text.uECC_vli_isZero
                0x00037dd6       0x1e external/micro-ecc/libuECC_nrf52840_xxAA.a(uECC.c.obj)
 .text.uECC_vli_testBit
                0x00037df4       0x14 external/micro-ecc/libuECC_nrf52840_xxAA.a(uECC.c.obj)
 .text.uECC_vli_numBits
                0x00037e08       0x3a external/micro-ecc/libuECC_nrf52840_xxAA.a(uECC.c.obj)
 .text.uECC_vli_set
                0x00037e42       0x18 external/micro-ecc/libuECC_nrf52840_xxAA.a(uECC.c.obj)
 .text.uECC_vli_cmp_unsafe
                0x00037e5a       0x28 external/micro-ecc/libuECC_nrf52840_xxAA.a(uECC.c.obj)
 .text.uECC_vli_rshift1
                0x00037e82       0x1c external/micro-ecc/libuECC_nrf52840_xxAA.a(uECC.c.obj)
 .text.uECC_vli_modMult_fast
                0x00037e9e       0x20 external/micro-ecc/libuECC_nrf52840_xxAA.a(uECC.c.obj)
 .text.uECC_vli_modSquare_fast
                0x00037ebe        0x8 external/micro-ecc/libuECC_nrf52840_xxAA.a(uECC.c.obj)
 .text.apply_z  0x00037ec6       0x3e external/micro-ecc/libuECC_nrf52840_xxAA.a(uECC.c.obj)
 .text.uECC_vli_nativeToBytes
                0x00037f04       0x28 external/micro-ecc/libuECC_nrf52840_xxAA.a(uECC.c.obj)
 .text.uECC_vli_bytesToNative
                0x00037f2c       0x40 external/micro-ecc/libuECC_nrf52840_xxAA.a(uECC.c.obj)
 .text.default_RNG
                0x00037f6c        0xc external/micro-ecc/libuECC_nrf52840_xxAA.a(uECC.c.obj)
 .text.uECC_vli_add.isra.0
                0x00037f78       0x4a external/micro-ecc/libuECC_nrf52840_xxAA.a(uECC.c.obj)
 .text.regularize_k
                0x00037fc2       0x50 external/micro-ecc/libuECC_nrf52840_xxAA.a(uECC.c.obj)
 .text.uECC_vli_sub.isra.1
                0x00038012       0x4e external/micro-ecc/libuECC_nrf52840_xxAA.a(uECC.c.obj)
 .text.uECC_vli_cmp
                0x00038060       0x30 external/micro-ecc/libuECC_nrf52840_xxAA.a(uECC.c.obj)
 .text.uECC_generate_random_int
                0x00038090       0x78 external/micro-ecc/libuECC_nrf52840_xxAA.a(uECC.c.obj)
 .text.uECC_vli_modAdd
                0x00038108       0x2e external/micro-ecc/libuECC_nrf52840_xxAA.a(uECC.c.obj)
 *fill*         0x00038136        0x2 
 .text.vli_mmod_fast_secp256r1
                0x00038138      0x194 external/micro-ecc/libuECC_nrf52840_xxAA.a(uECC.c.obj)
 .text.uECC_vli_modSub.isra.2
                0x000382cc       0x1c external/micro-ecc/libuECC_nrf52840_xxAA.a(uECC.c.obj)
 .text.double_jacobian_default
                0x000382e8      0x14a external/micro-ecc/libuECC_nrf52840_xxAA.a(uECC.c.obj)
 .text.x_side_default
                0x00038432       0x5a external/micro-ecc/libuECC_nrf52840_xxAA.a(uECC.c.obj)
 .text.XYcZ_add
                0x0003848c       0xbc external/micro-ecc/libuECC_nrf52840_xxAA.a(uECC.c.obj)
 .text.XYcZ_addC
                0x00038548      0x10a external/micro-ecc/libuECC_nrf52840_xxAA.a(uECC.c.obj)
 .text.vli_modInv_update
                0x00038652       0x36 external/micro-ecc/libuECC_nrf52840_xxAA.a(uECC.c.obj)
 .text.uECC_vli_modInv
                0x00038688      0x102 external/micro-ecc/libuECC_nrf52840_xxAA.a(uECC.c.obj)
 .text.EccPoint_mult
                0x0003878a      0x19e external/micro-ecc/libuECC_nrf52840_xxAA.a(uECC.c.obj)
 .text.EccPoint_compute_public_key
                0x00038928       0x54 external/micro-ecc/libuECC_nrf52840_xxAA.a(uECC.c.obj)
 .text.uECC_secp256r1
                0x0003897c        0x8 external/micro-ecc/libuECC_nrf52840_xxAA.a(uECC.c.obj)
                0x0003897c                uECC_secp256r1
 .text.uECC_make_key
                0x00038984       0x7e external/micro-ecc/libuECC_nrf52840_xxAA.a(uECC.c.obj)
                0x00038984                uECC_make_key
 *fill*         0x00038a02        0x2 
 .text.uECC_shared_secret
                0x00038a04       0xbc external/micro-ecc/libuECC_nrf52840_xxAA.a(uECC.c.obj)
                0x00038a04                uECC_shared_secret
 .text.uECC_valid_point
                0x00038ac0       0x86 external/micro-ecc/libuECC_nrf52840_xxAA.a(uECC.c.obj)
                0x00038ac0                uECC_valid_point
 .text.uECC_valid_public_key
                0x00038b46       0x32 external/micro-ecc/libuECC_nrf52840_xxAA.a(uECC.c.obj)
                0x00038b46                uECC_valid_public_key
 .text          0x00038b78       0x30 c:/mesh/arm_gcc/bin/../lib/gcc/arm-none-eabi/6.3.1/thumb/v7e-m/fpv4-sp/hard\libgcc.a(_aeabi_uldivmod.o)
                0x00038b78                __aeabi_uldivmod
 .text          0x00038ba8      0x2dc c:/mesh/arm_gcc/bin/../lib/gcc/arm-none-eabi/6.3.1/thumb/v7e-m/fpv4-sp/hard\libgcc.a(_udivmoddi4.o)
                0x00038ba8                __udivmoddi4
 .text          0x00038e84        0x4 c:/mesh/arm_gcc/bin/../lib/gcc/arm-none-eabi/6.3.1/thumb/v7e-m/fpv4-sp/hard\libgcc.a(_dvmd_tls.o)
                0x00038e84                __aeabi_idiv0
                0x00038e84                __aeabi_ldiv0
 .text.exit     0x00038e88       0x28 c:/mesh/arm_gcc/bin/../lib/gcc/arm-none-eabi/6.3.1/../../../../arm-none-eabi/lib/thumb/v7e-m/fpv4-sp/hard\libg_nano.a(lib_a-exit.o)
                0x00038e88                exit
 .text.__libc_init_array
                0x00038eb0       0x48 c:/mesh/arm_gcc/bin/../lib/gcc/arm-none-eabi/6.3.1/../../../../arm-none-eabi/lib/thumb/v7e-m/fpv4-sp/hard\libg_nano.a(lib_a-init.o)
                0x00038eb0                __libc_init_array
 .text.malloc   0x00038ef8       0x10 c:/mesh/arm_gcc/bin/../lib/gcc/arm-none-eabi/6.3.1/../../../../arm-none-eabi/lib/thumb/v7e-m/fpv4-sp/hard\libg_nano.a(lib_a-malloc.o)
                0x00038ef8                malloc
 .text.free     0x00038f08       0x10 c:/mesh/arm_gcc/bin/../lib/gcc/arm-none-eabi/6.3.1/../../../../arm-none-eabi/lib/thumb/v7e-m/fpv4-sp/hard\libg_nano.a(lib_a-malloc.o)
                0x00038f08                free
 .text.memcmp   0x00038f18       0x1e c:/mesh/arm_gcc/bin/../lib/gcc/arm-none-eabi/6.3.1/../../../../arm-none-eabi/lib/thumb/v7e-m/fpv4-sp/hard\libg_nano.a(lib_a-memcmp.o)
                0x00038f18                memcmp
 .text.memcpy   0x00038f36       0x16 c:/mesh/arm_gcc/bin/../lib/gcc/arm-none-eabi/6.3.1/../../../../arm-none-eabi/lib/thumb/v7e-m/fpv4-sp/hard\libg_nano.a(lib_a-memcpy-stub.o)
                0x00038f36                memcpy
 .text.memset   0x00038f4c       0x10 c:/mesh/arm_gcc/bin/../lib/gcc/arm-none-eabi/6.3.1/../../../../arm-none-eabi/lib/thumb/v7e-m/fpv4-sp/hard\libg_nano.a(lib_a-memset.o)
                0x00038f4c                memset
 .text._free_r  0x00038f5c       0x9c c:/mesh/arm_gcc/bin/../lib/gcc/arm-none-eabi/6.3.1/../../../../arm-none-eabi/lib/thumb/v7e-m/fpv4-sp/hard\libg_nano.a(lib_a-nano-freer.o)
                0x00038f5c                _free_r
 .text._malloc_r
                0x00038ff8       0xbc c:/mesh/arm_gcc/bin/../lib/gcc/arm-none-eabi/6.3.1/../../../../arm-none-eabi/lib/thumb/v7e-m/fpv4-sp/hard\libg_nano.a(lib_a-nano-mallocr.o)
                0x00038ff8                _malloc_r
 .text._sbrk_r  0x000390b4       0x20 c:/mesh/arm_gcc/bin/../lib/gcc/arm-none-eabi/6.3.1/../../../../arm-none-eabi/lib/thumb/v7e-m/fpv4-sp/hard\libg_nano.a(lib_a-sbrkr.o)
                0x000390b4                _sbrk_r
 .text.strcpy   0x000390d4       0x10 c:/mesh/arm_gcc/bin/../lib/gcc/arm-none-eabi/6.3.1/../../../../arm-none-eabi/lib/thumb/v7e-m/fpv4-sp/hard\libg_nano.a(lib_a-strcpy.o)
                0x000390d4                strcpy
 .text          0x000390e4       0x10 c:/mesh/arm_gcc/bin/../lib/gcc/arm-none-eabi/6.3.1/../../../../arm-none-eabi/lib/thumb/v7e-m/fpv4-sp/hard\libg_nano.a(lib_a-strlen.o)
                0x000390e4                strlen
 .text.strrchr  0x000390f4       0x26 c:/mesh/arm_gcc/bin/../lib/gcc/arm-none-eabi/6.3.1/../../../../arm-none-eabi/lib/thumb/v7e-m/fpv4-sp/hard\libg_nano.a(lib_a-strrchr.o)
                0x000390f4                strrchr
 .text.__malloc_lock
                0x0003911a        0x2 c:/mesh/arm_gcc/bin/../lib/gcc/arm-none-eabi/6.3.1/../../../../arm-none-eabi/lib/thumb/v7e-m/fpv4-sp/hard\libg_nano.a(lib_a-mlock.o)
                0x0003911a                __malloc_lock
 .text.__malloc_unlock
                0x0003911c        0x2 c:/mesh/arm_gcc/bin/../lib/gcc/arm-none-eabi/6.3.1/../../../../arm-none-eabi/lib/thumb/v7e-m/fpv4-sp/hard\libg_nano.a(lib_a-mlock.o)
                0x0003911c                __malloc_unlock
 .text.strchr   0x0003911e       0x1c c:/mesh/arm_gcc/bin/../lib/gcc/arm-none-eabi/6.3.1/../../../../arm-none-eabi/lib/thumb/v7e-m/fpv4-sp/hard\libg_nano.a(lib_a-strchr.o)
                0x0003911e                strchr
 *fill*         0x0003913a        0x2 
 .text._sbrk    0x0003913c       0x1c c:/mesh/arm_gcc/bin/../lib/gcc/arm-none-eabi/6.3.1/../../../../arm-none-eabi/lib/thumb/v7e-m/fpv4-sp/hard\libnosys.a(sbrk.o)
                0x0003913c                _sbrk
 .text._exit    0x00039158        0x4 c:/mesh/arm_gcc/bin/../lib/gcc/arm-none-eabi/6.3.1/../../../../arm-none-eabi/lib/thumb/v7e-m/fpv4-sp/hard\libnosys.a(_exit.o)
                0x00039158                _exit
 *(.init)
 .init          0x0003915c        0x4 c:/mesh/arm_gcc/bin/../lib/gcc/arm-none-eabi/6.3.1/thumb/v7e-m/fpv4-sp/hard/crti.o
                0x0003915c                _init
 .init          0x00039160        0x8 c:/mesh/arm_gcc/bin/../lib/gcc/arm-none-eabi/6.3.1/thumb/v7e-m/fpv4-sp/hard/crtn.o
 *(.fini)
 .fini          0x00039168        0x4 c:/mesh/arm_gcc/bin/../lib/gcc/arm-none-eabi/6.3.1/thumb/v7e-m/fpv4-sp/hard/crti.o
                0x00039168                _fini
 .fini          0x0003916c        0x8 c:/mesh/arm_gcc/bin/../lib/gcc/arm-none-eabi/6.3.1/thumb/v7e-m/fpv4-sp/hard/crtn.o
 *crtbegin.o(.ctors)
 *crtbegin?.o(.ctors)
 *(EXCLUDE_FILE(*crtend.o *crtend?.o) .ctors)
 *(SORT(.ctors.*))
 *(.ctors)
 *crtbegin.o(.dtors)
 *crtbegin?.o(.dtors)
 *(EXCLUDE_FILE(*crtend.o *crtend?.o) .dtors)
 *(SORT(.dtors.*))
 *(.dtors)
 *(.rodata*)
 .rodata        0x00039174       0x10 examples/enocean_switch/CMakeFiles/enocean_switch_nrf52840_xxAA_s140_6.0.0.dir/src/main.c.obj
 .rodata.app_data_store_try.str1.1
                0x00039184       0x8b examples/enocean_switch/CMakeFiles/enocean_switch_nrf52840_xxAA_s140_6.0.0.dir/src/main.c.obj
 .rodata.app_enocean_cb.str1.1
                0x0003920f       0x8e examples/enocean_switch/CMakeFiles/enocean_switch_nrf52840_xxAA_s140_6.0.0.dir/src/main.c.obj
 .rodata.app_mesh_core_event_cb.str1.1
                0x0003929d       0x56 examples/enocean_switch/CMakeFiles/enocean_switch_nrf52840_xxAA_s140_6.0.0.dir/src/main.c.obj
 .rodata.button_event_handler.str1.1
                0x000392f3       0x13 examples/enocean_switch/CMakeFiles/enocean_switch_nrf52840_xxAA_s140_6.0.0.dir/src/main.c.obj
 .rodata.client_status_cb.str1.1
                0x00039306       0x2f examples/enocean_switch/CMakeFiles/enocean_switch_nrf52840_xxAA_s140_6.0.0.dir/src/main.c.obj
 .rodata.main.str1.1
                0x00039335       0x4a examples/enocean_switch/CMakeFiles/enocean_switch_nrf52840_xxAA_s140_6.0.0.dir/src/main.c.obj
 .rodata.models_init_cb.str1.1
                0x0003937f       0x20 examples/enocean_switch/CMakeFiles/enocean_switch_nrf52840_xxAA_s140_6.0.0.dir/src/main.c.obj
 .rodata.node_reset.str1.1
                0x0003939f       0x19 examples/enocean_switch/CMakeFiles/enocean_switch_nrf52840_xxAA_s140_6.0.0.dir/src/main.c.obj
 .rodata.provisioning_complete_cb.str1.1
                0x000393b8       0x57 examples/enocean_switch/CMakeFiles/enocean_switch_nrf52840_xxAA_s140_6.0.0.dir/src/main.c.obj
 .rodata.static_auth_data.12908
                0x0003940f       0x10 examples/enocean_switch/CMakeFiles/enocean_switch_nrf52840_xxAA_s140_6.0.0.dir/src/main.c.obj
 .rodata.enocean_packet_process.str1.1
                0x0003941f       0x45 examples/enocean_switch/CMakeFiles/enocean_switch_nrf52840_xxAA_s140_6.0.0.dir/src/enocean.c.obj
 .rodata.app_flash_data_store.str1.1
                0x00039464        0xe examples/enocean_switch/CMakeFiles/enocean_switch_nrf52840_xxAA_s140_6.0.0.dir/src/flash_helper.c.obj
 .rodata.app_flash_init.str1.1
                0x00039472       0x2a examples/enocean_switch/CMakeFiles/enocean_switch_nrf52840_xxAA_s140_6.0.0.dir/src/flash_helper.c.obj
 .rodata.flash_manager_mem_available.str1.1
                0x0003949c       0x43 examples/enocean_switch/CMakeFiles/enocean_switch_nrf52840_xxAA_s140_6.0.0.dir/src/flash_helper.c.obj
 .rodata.flash_remove_complete.str1.1
                0x000394df       0x17 examples/enocean_switch/CMakeFiles/enocean_switch_nrf52840_xxAA_s140_6.0.0.dir/src/flash_helper.c.obj
 .rodata.flash_reset.str1.1
                0x000394f6        0xf examples/enocean_switch/CMakeFiles/enocean_switch_nrf52840_xxAA_s140_6.0.0.dir/src/flash_helper.c.obj
 .rodata.flash_write_complete.str1.1
                0x00039505       0x16 examples/enocean_switch/CMakeFiles/enocean_switch_nrf52840_xxAA_s140_6.0.0.dir/src/flash_helper.c.obj
 .rodata.mesh_softdevice_init.str1.1
                0x0003951b       0xa4 examples/enocean_switch/CMakeFiles/enocean_switch_nrf52840_xxAA_s140_6.0.0.dir/__/common/src/mesh_softdevice_init.c.obj
 .rodata        0x000395bf        0xb examples/enocean_switch/CMakeFiles/enocean_switch_nrf52840_xxAA_s140_6.0.0.dir/__/common/src/mesh_provisionee.c.obj
 *fill*         0x000395ca        0x6 
 .rodata.delay_bytecode.8707
                0x000395d0        0x6 examples/enocean_switch/CMakeFiles/enocean_switch_nrf52840_xxAA_s140_6.0.0.dir/__/common/src/simple_hal.c.obj
 .rodata.m_buttons_list
                0x000395d6        0x4 examples/enocean_switch/CMakeFiles/enocean_switch_nrf52840_xxAA_s140_6.0.0.dir/__/common/src/simple_hal.c.obj
 .rodata.app_error_fault_handler.str1.1
                0x000395da       0xbd examples/enocean_switch/CMakeFiles/enocean_switch_nrf52840_xxAA_s140_6.0.0.dir/__/common/src/app_error_weak.c.obj
 .rodata.mesh_assertion_handler.str1.1
                0x00039697       0xbd examples/enocean_switch/CMakeFiles/enocean_switch_nrf52840_xxAA_s140_6.0.0.dir/__/common/src/assertion_handler_weak.c.obj
                                  0x1 (size before relaxing)
 .rodata.sar_ctx_cancel.str1.1
                0x00039697       0x23 examples/enocean_switch/CMakeFiles/enocean_switch_nrf52840_xxAA_s140_6.0.0.dir/__/__/mesh/core/src/transport.c.obj
 .rodata.test_transport_decrypt.str1.1
                0x000396ba       0x30 examples/enocean_switch/CMakeFiles/enocean_switch_nrf52840_xxAA_s140_6.0.0.dir/__/__/mesh/core/src/transport.c.obj
 .rodata.transport_packet_in.str1.1
                0x000396ea       0x24 examples/enocean_switch/CMakeFiles/enocean_switch_nrf52840_xxAA_s140_6.0.0.dir/__/__/mesh/core/src/transport.c.obj
 .rodata.upper_transport_access_packet_in.str1.1
                0x0003970e       0x29 examples/enocean_switch/CMakeFiles/enocean_switch_nrf52840_xxAA_s140_6.0.0.dir/__/__/mesh/core/src/transport.c.obj
 .rodata.upper_transport_packet_in.str1.1
                0x00039737       0x2e examples/enocean_switch/CMakeFiles/enocean_switch_nrf52840_xxAA_s140_6.0.0.dir/__/__/mesh/core/src/transport.c.obj
 .rodata.upper_transport_tx.str1.1
                0x00039765        0xe examples/enocean_switch/CMakeFiles/enocean_switch_nrf52840_xxAA_s140_6.0.0.dir/__/__/mesh/core/src/transport.c.obj
                                 0x16 (size before relaxing)
 *fill*         0x00039773        0x1 
 .rodata.m_procedure_steps
                0x00039774       0x28 examples/enocean_switch/CMakeFiles/enocean_switch_nrf52840_xxAA_s140_6.0.0.dir/__/__/mesh/core/src/flash_manager_defrag.c.obj
 .rodata.m_all_operations
                0x0003979c       0x10 examples/enocean_switch/CMakeFiles/enocean_switch_nrf52840_xxAA_s140_6.0.0.dir/__/__/mesh/core/src/mesh_flash.c.obj
 .rodata.types_lookup.9352
                0x000397ac        0x4 examples/enocean_switch/CMakeFiles/enocean_switch_nrf52840_xxAA_s140_6.0.0.dir/__/__/mesh/core/src/nrf_mesh_utils.c.obj
 .rodata.__func__.11824
                0x000397b0       0x15 examples/enocean_switch/CMakeFiles/enocean_switch_nrf52840_xxAA_s140_6.0.0.dir/__/__/mesh/core/src/nrf_mesh.c.obj
 .rodata.nrf_mesh_listen.str1.1
                0x000397c5       0x70 examples/enocean_switch/CMakeFiles/enocean_switch_nrf52840_xxAA_s140_6.0.0.dir/__/__/mesh/core/src/nrf_mesh.c.obj
 .rodata.nrf_mesh_packet_send.str1.1
                0x00039835       0x70 examples/enocean_switch/CMakeFiles/enocean_switch_nrf52840_xxAA_s140_6.0.0.dir/__/__/mesh/core/src/nrf_mesh.c.obj
                                  0x4 (size before relaxing)
 *fill*         0x00039835        0x1 
 .rodata.CSWTCH.7
                0x00039836       0x10 examples/enocean_switch/CMakeFiles/enocean_switch_nrf52840_xxAA_s140_6.0.0.dir/__/__/mesh/core/src/hal.c.obj
 .rodata.Rb.7608
                0x00039846       0x10 examples/enocean_switch/CMakeFiles/enocean_switch_nrf52840_xxAA_s140_6.0.0.dir/__/__/mesh/core/src/aes_cmac.c.obj
 .rodata        0x00039856       0x15 examples/enocean_switch/CMakeFiles/enocean_switch_nrf52840_xxAA_s140_6.0.0.dir/__/__/mesh/core/src/enc.c.obj
 .rodata.network_packet_in.str1.1
                0x0003986b       0x48 examples/enocean_switch/CMakeFiles/enocean_switch_nrf52840_xxAA_s140_6.0.0.dir/__/__/mesh/core/src/network.c.obj
 .rodata.net_packet_decrypt.str1.1
                0x000398b3       0x31 examples/enocean_switch/CMakeFiles/enocean_switch_nrf52840_xxAA_s140_6.0.0.dir/__/__/mesh/core/src/net_packet.c.obj
                                 0x39 (size before relaxing)
 .rodata        0x000398e4        0x7 examples/enocean_switch/CMakeFiles/enocean_switch_nrf52840_xxAA_s140_6.0.0.dir/__/__/mesh/core/src/nrf_mesh_keygen.c.obj
 .rodata.log_callback_rtt.str1.1
                0x000398eb       0x15 examples/enocean_switch/CMakeFiles/enocean_switch_nrf52840_xxAA_s140_6.0.0.dir/__/__/mesh/core/src/log.c.obj
 .rodata.str1.1
                0x00039900       0x11 examples/enocean_switch/CMakeFiles/enocean_switch_nrf52840_xxAA_s140_6.0.0.dir/__/__/mesh/core/src/log.c.obj
 *fill*         0x00039911        0x3 
 .rodata.INVALID_HEADER
                0x00039914        0x4 examples/enocean_switch/CMakeFiles/enocean_switch_nrf52840_xxAA_s140_6.0.0.dir/__/__/mesh/core/src/flash_manager.c.obj
                0x00039914                INVALID_HEADER
 .rodata.PADDING_HEADER
                0x00039918        0x4 examples/enocean_switch/CMakeFiles/enocean_switch_nrf52840_xxAA_s140_6.0.0.dir/__/__/mesh/core/src/flash_manager.c.obj
                0x00039918                PADDING_HEADER
 .rodata.SEAL_HEADER
                0x0003991c        0x4 examples/enocean_switch/CMakeFiles/enocean_switch_nrf52840_xxAA_s140_6.0.0.dir/__/__/mesh/core/src/flash_manager.c.obj
                0x0003991c                SEAL_HEADER
 .rodata.beacon_packet_in.str1.1
                0x00039920       0x51 examples/enocean_switch/CMakeFiles/enocean_switch_nrf52840_xxAA_s140_6.0.0.dir/__/__/mesh/core/src/beacon.c.obj
                                 0x59 (size before relaxing)
 *fill*         0x00039971        0x3 
 .rodata.cp_handler
                0x00039974        0x8 examples/enocean_switch/CMakeFiles/enocean_switch_nrf52840_xxAA_s140_6.0.0.dir/__/__/mesh/core/src/heartbeat.c.obj
 .rodata.beacon_tx.str1.1
                0x0003997c       0x35 examples/enocean_switch/CMakeFiles/enocean_switch_nrf52840_xxAA_s140_6.0.0.dir/__/__/mesh/core/src/net_beacon.c.obj
 .rodata.net_beacon_init.str1.1
                0x000399b1        0x5 examples/enocean_switch/CMakeFiles/enocean_switch_nrf52840_xxAA_s140_6.0.0.dir/__/__/mesh/core/src/net_beacon.c.obj
 *fill*         0x000399b6        0x2 
 .rodata.m_interface
                0x000399b8        0xc examples/enocean_switch/CMakeFiles/enocean_switch_nrf52840_xxAA_s140_6.0.0.dir/__/__/mesh/core/src/core_tx_adv.c.obj
 .rodata.radio_mode_to_us_per_byte.9745
                0x000399c4        0x6 examples/enocean_switch/CMakeFiles/enocean_switch_nrf52840_xxAA_s140_6.0.0.dir/__/__/mesh/bearer/src/broadcast.c.obj
 .rodata.channel_rf_offsets.8986
                0x000399ca       0x28 examples/enocean_switch/CMakeFiles/enocean_switch_nrf52840_xxAA_s140_6.0.0.dir/__/__/mesh/bearer/src/radio_config.c.obj
 .rodata        0x000399f2        0x3 examples/enocean_switch/CMakeFiles/enocean_switch_nrf52840_xxAA_s140_6.0.0.dir/__/__/mesh/bearer/src/scanner.c.obj
 *fill*         0x000399f5        0x3 
 .rodata.m_opcode_handlers
                0x000399f8        0x8 examples/enocean_switch/CMakeFiles/enocean_switch_nrf52840_xxAA_s140_6.0.0.dir/__/__/models/simple_on_off/src/simple_on_off_client.c.obj
 .rodata        0x00039a00        0x8 examples/enocean_switch/CMakeFiles/enocean_switch_nrf52840_xxAA_s140_6.0.0.dir/__/__/models/config/src/config_server.c.obj
 .rodata.CSWTCH.121
                0x00039a08       0x10 examples/enocean_switch/CMakeFiles/enocean_switch_nrf52840_xxAA_s140_6.0.0.dir/__/__/models/config/src/config_server.c.obj
 .rodata.opcode_handlers
                0x00039a18      0x170 examples/enocean_switch/CMakeFiles/enocean_switch_nrf52840_xxAA_s140_6.0.0.dir/__/__/models/config/src/config_server.c.obj
 .rodata.m_opcode_handlers
                0x00039b88       0x58 examples/enocean_switch/CMakeFiles/enocean_switch_nrf52840_xxAA_s140_6.0.0.dir/__/__/models/health/src/health_server.c.obj
 .rodata.multiply_de_bruijn_bit_position.9597
                0x00039be0       0x20 examples/enocean_switch/CMakeFiles/enocean_switch_nrf52840_xxAA_s140_6.0.0.dir/__/__/models/health/src/health_server.c.obj
 .rodata.mesh_evt_cb.str1.1
                0x00039c00       0x2f examples/enocean_switch/CMakeFiles/enocean_switch_nrf52840_xxAA_s140_6.0.0.dir/__/__/mesh/access/src/access.c.obj
 .rodata.multiply_de_bruijn_bit_position.9553
                0x00039c2f       0x20 examples/enocean_switch/CMakeFiles/enocean_switch_nrf52840_xxAA_s140_6.0.0.dir/__/__/mesh/access/src/access.c.obj
 .rodata.packet_tx.str1.1
                0x00039c4f       0x1c examples/enocean_switch/CMakeFiles/enocean_switch_nrf52840_xxAA_s140_6.0.0.dir/__/__/mesh/access/src/access.c.obj
                                 0x24 (size before relaxing)
 *fill*         0x00039c6b        0x1 
 .rodata.m_flash_groups
                0x00039c6c       0xa8 examples/enocean_switch/CMakeFiles/enocean_switch_nrf52840_xxAA_s140_6.0.0.dir/__/__/mesh/access/src/device_state_manager.c.obj
 .rodata.multiply_de_bruijn_bit_position.9659
                0x00039d14       0x20 examples/enocean_switch/CMakeFiles/enocean_switch_nrf52840_xxAA_s140_6.0.0.dir/__/__/mesh/access/src/device_state_manager.c.obj
 .rodata.m_prov_callbacks
                0x00039d34       0x10 examples/enocean_switch/CMakeFiles/enocean_switch_nrf52840_xxAA_s140_6.0.0.dir/__/__/mesh/prov/src/prov_provisionee.c.obj
 .rodata.prov_provisionee_cb_ack_received.str1.1
                0x00039d44       0x53 examples/enocean_switch/CMakeFiles/enocean_switch_nrf52840_xxAA_s140_6.0.0.dir/__/__/mesh/prov/src/prov_provisionee.c.obj
 .rodata.multiply_de_bruijn_bit_position.9606
                0x00039d97       0x20 examples/enocean_switch/CMakeFiles/enocean_switch_nrf52840_xxAA_s140_6.0.0.dir/__/__/mesh/prov/src/nrf_mesh_prov.c.obj
 .rodata.pdu_sizes.11531
                0x00039db7        0xa examples/enocean_switch/CMakeFiles/enocean_switch_nrf52840_xxAA_s140_6.0.0.dir/__/__/mesh/prov/src/provisioning.c.obj
 .rodata.alphanumeric.11636
                0x00039dc1       0x25 examples/enocean_switch/CMakeFiles/enocean_switch_nrf52840_xxAA_s140_6.0.0.dir/__/__/mesh/prov/src/prov_utils.c.obj
 *fill*         0x00039de6        0x2 
 .rodata.numeric_max.11630
                0x00039de8       0x24 examples/enocean_switch/CMakeFiles/enocean_switch_nrf52840_xxAA_s140_6.0.0.dir/__/__/mesh/prov/src/prov_utils.c.obj
 .rodata.prov_utils_authentication_values_derive.str1.1
                0x00039e0c        0x5 examples/enocean_switch/CMakeFiles/enocean_switch_nrf52840_xxAA_s140_6.0.0.dir/__/__/mesh/prov/src/prov_utils.c.obj
 .rodata.prov_utils_derive_keys.str1.1
                0x00039e11        0xf examples/enocean_switch/CMakeFiles/enocean_switch_nrf52840_xxAA_s140_6.0.0.dir/__/__/mesh/prov/src/prov_utils.c.obj
 .rodata.add_active_bearer.str1.1
                0x00039e20       0x2c examples/enocean_switch/CMakeFiles/enocean_switch_nrf52840_xxAA_s140_6.0.0.dir/__/__/mesh/prov/src/prov_bearer_adv.c.obj
 .rodata.crctable.11265
                0x00039e4c      0x100 examples/enocean_switch/CMakeFiles/enocean_switch_nrf52840_xxAA_s140_6.0.0.dir/__/__/mesh/prov/src/prov_bearer_adv.c.obj
 .rodata.interface.11495
                0x00039f4c       0x14 examples/enocean_switch/CMakeFiles/enocean_switch_nrf52840_xxAA_s140_6.0.0.dir/__/__/mesh/prov/src/prov_bearer_adv.c.obj
 .rodata.prov_bearer_adv_packet_in.str1.1
                0x00039f60      0x26e examples/enocean_switch/CMakeFiles/enocean_switch_nrf52840_xxAA_s140_6.0.0.dir/__/__/mesh/prov/src/prov_bearer_adv.c.obj
 .rodata.tx_retry_cb.str1.1
                0x0003a1ce       0x37 examples/enocean_switch/CMakeFiles/enocean_switch_nrf52840_xxAA_s140_6.0.0.dir/__/__/mesh/prov/src/prov_bearer_adv.c.obj
 .rodata._DoInit.str1.1
                0x0003a205       0x14 external/rtt/librtt_nrf52840_xxAA.a(SEGGER_RTT.c.obj)
 .rodata._aV2C.5497
                0x0003a219       0x10 external/rtt/librtt_nrf52840_xxAA.a(SEGGER_RTT_printf.c.obj)
 *fill*         0x0003a229        0x3 
 .rodata.curve_secp256r1
                0x0003a22c       0xb0 external/micro-ecc/libuECC_nrf52840_xxAA.a(uECC.c.obj)
 .rodata._global_impure_ptr
                0x0003a2dc        0x4 c:/mesh/arm_gcc/bin/../lib/gcc/arm-none-eabi/6.3.1/../../../../arm-none-eabi/lib/thumb/v7e-m/fpv4-sp/hard\libg_nano.a(lib_a-impure.o)
                0x0003a2dc                _global_impure_ptr
 *(.eh_frame*)
 .eh_frame      0x0003a2e0        0x0 c:/mesh/arm_gcc/bin/../lib/gcc/arm-none-eabi/6.3.1/thumb/v7e-m/fpv4-sp/hard/crtbegin.o
 .eh_frame      0x0003a2e0        0x4 c:/mesh/arm_gcc/bin/../lib/gcc/arm-none-eabi/6.3.1/thumb/v7e-m/fpv4-sp/hard/crtend.o

.glue_7         0x0003a2e4        0x0
 .glue_7        0x0003a2e4        0x0 linker stubs

.glue_7t        0x0003a2e4        0x0
 .glue_7t       0x0003a2e4        0x0 linker stubs

.vfp11_veneer   0x0003a2e4        0x0
 .vfp11_veneer  0x0003a2e4        0x0 linker stubs

.v4_bx          0x0003a2e4        0x0
 .v4_bx         0x0003a2e4        0x0 linker stubs

.iplt           0x0003a2e4        0x0
 .iplt          0x0003a2e4        0x0 c:/mesh/arm_gcc/bin/../lib/gcc/arm-none-eabi/6.3.1/thumb/v7e-m/fpv4-sp/hard/crtbegin.o

.pwr_mgmt_data  0x0003a2e4        0x0
                [!provide]                PROVIDE (__start_pwr_mgmt_data, .)
 *(SORT(.pwr_mgmt_data*))
                [!provide]                PROVIDE (__stop_pwr_mgmt_data, .)

.log_const_data
                0x0003a2e4        0x0
                [!provide]                PROVIDE (__start_log_const_data, .)
 *(.log_const_data)
                [!provide]                PROVIDE (__stop_log_const_data, .)

.cli_command    0x0003a2e4        0x0
                [!provide]                PROVIDE (__start_cli_command, .)
 *(.cli_command)
                [!provide]                PROVIDE (__stop_cli_command, .)

.sdh_stack_observers
                0x0003a2e4        0x0
                [!provide]                PROVIDE (__start_sdh_stack_observers, .)
 *(SORT(.sdh_stack_observers*))
                [!provide]                PROVIDE (__stop_sdh_stack_observers, .)

.sdh_req_observers
                0x0003a2e4        0x0
                [!provide]                PROVIDE (__start_sdh_req_observers, .)
 *(SORT(.sdh_req_observers*))
                [!provide]                PROVIDE (__stop_sdh_req_observers, .)

.sdh_state_observers
                0x0003a2e4        0x0
                [!provide]                PROVIDE (__start_sdh_state_observers, .)
 *(SORT(.sdh_state_observers*))
                [!provide]                PROVIDE (__stop_sdh_state_observers, .)

.sdh_ant_observers
                0x0003a2e4        0x0
                [!provide]                PROVIDE (__start_sdh_ant_observers, .)
 *(SORT(.sdh_ant_observers*))
                [!provide]                PROVIDE (__stop_sdh_ant_observers, .)

.sdh_ble_observers
                0x0003a2e4        0x0
                [!provide]                PROVIDE (__start_sdh_ble_observers, .)
 *(SORT(.sdh_ble_observers*))
                [!provide]                PROVIDE (__stop_sdh_ble_observers, .)

.sdh_soc_observers
                0x0003a2e4        0x0
                [!provide]                PROVIDE (__start_sdh_soc_observers, .)
 *(SORT(.sdh_soc_observers*))
                [!provide]                PROVIDE (__stop_sdh_soc_observers, .)

.ARM.extab
 *(.ARM.extab* .gnu.linkonce.armextab.*)
                0x0003a2e4                __exidx_start = .

.ARM.exidx      0x0003a2e4        0x8
 *(.ARM.exidx* .gnu.linkonce.armexidx.*)
 .ARM.exidx     0x0003a2e4        0x8 c:/mesh/arm_gcc/bin/../lib/gcc/arm-none-eabi/6.3.1/../../../../arm-none-eabi/lib/thumb/v7e-m/fpv4-sp/hard/crt0.o
 .ARM.exidx     0x0003a2ec        0x0 c:/mesh/arm_gcc/bin/../lib/gcc/arm-none-eabi/6.3.1/thumb/v7e-m/fpv4-sp/hard\libgcc.a(_udivmoddi4.o)
                                  0x8 (size before relaxing)
                0x0003a2ec                __exidx_end = .
                0x0003a2ec                __etext = .

.rel.dyn        0x0003a2ec        0x0
 .rel.iplt      0x0003a2ec        0x0 c:/mesh/arm_gcc/bin/../lib/gcc/arm-none-eabi/6.3.1/thumb/v7e-m/fpv4-sp/hard/crtbegin.o

.data           0x200032c8      0x16c load address 0x0003a2ec
                0x200032c8                __data_start__ = .
 *(vtable)
 *(.data*)
 .data.m_mesh_core_event_handler
                0x200032c8        0x8 examples/enocean_switch/CMakeFiles/enocean_switch_nrf52840_xxAA_s140_6.0.0.dir/src/main.c.obj
 .data.flash_add_mem_available_struct.10111
                0x200032d0       0x10 examples/enocean_switch/CMakeFiles/enocean_switch_nrf52840_xxAA_s140_6.0.0.dir/src/flash_helper.c.obj
 .data.mem_listener.10107
                0x200032e0       0x10 examples/enocean_switch/CMakeFiles/enocean_switch_nrf52840_xxAA_s140_6.0.0.dir/src/flash_helper.c.obj
 .data.s_evt_handler.11348
                0x200032f0        0x8 examples/enocean_switch/CMakeFiles/enocean_switch_nrf52840_xxAA_s140_6.0.0.dir/__/__/mesh/stack/src/mesh_stack.c.obj
 .data.wait.9229
                0x200032f8        0x1 examples/enocean_switch/CMakeFiles/enocean_switch_nrf52840_xxAA_s140_6.0.0.dir/__/common/src/app_error_weak.c.obj
 *fill*         0x200032f9        0x3 
 .data.mem_listener.10103
                0x200032fc       0x10 examples/enocean_switch/CMakeFiles/enocean_switch_nrf52840_xxAA_s140_6.0.0.dir/__/__/mesh/core/src/net_state.c.obj
 .data.mem_listener.10108
                0x2000330c       0x10 examples/enocean_switch/CMakeFiles/enocean_switch_nrf52840_xxAA_s140_6.0.0.dir/__/__/mesh/core/src/net_state.c.obj
 .data.mem_listener.10122
                0x2000331c       0x10 examples/enocean_switch/CMakeFiles/enocean_switch_nrf52840_xxAA_s140_6.0.0.dir/__/__/mesh/core/src/net_state.c.obj
 .data.mem_listener.10139
                0x2000332c       0x10 examples/enocean_switch/CMakeFiles/enocean_switch_nrf52840_xxAA_s140_6.0.0.dir/__/__/mesh/core/src/net_state.c.obj
 .data.m_nrf_mesh_listener
                0x2000333c        0xc examples/enocean_switch/CMakeFiles/enocean_switch_nrf52840_xxAA_s140_6.0.0.dir/__/__/mesh/core/src/nrf_mesh.c.obj
 .data.g_log_dbg_lvl
                0x20003348        0x4 examples/enocean_switch/CMakeFiles/enocean_switch_nrf52840_xxAA_s140_6.0.0.dir/__/__/mesh/core/src/log.c.obj
                0x20003348                g_log_dbg_lvl
 .data.g_log_dbg_msk
                0x2000334c        0x4 examples/enocean_switch/CMakeFiles/enocean_switch_nrf52840_xxAA_s140_6.0.0.dir/__/__/mesh/core/src/log.c.obj
                0x2000334c                g_log_dbg_msk
 .data.g_log_hex_digits
                0x20003350        0x4 examples/enocean_switch/CMakeFiles/enocean_switch_nrf52840_xxAA_s140_6.0.0.dir/__/__/mesh/core/src/log.c.obj
                0x20003350                g_log_hex_digits
 .data.m_log_callback
                0x20003354        0x4 examples/enocean_switch/CMakeFiles/enocean_switch_nrf52840_xxAA_s140_6.0.0.dir/__/__/mesh/core/src/log.c.obj
                0x20003354                m_log_callback
 .data.m_config_server_handle
                0x20003358        0x2 examples/enocean_switch/CMakeFiles/enocean_switch_nrf52840_xxAA_s140_6.0.0.dir/__/__/models/config/src/config_server.c.obj
 *fill*         0x2000335a        0x2 
 .data.m_mesh_evt_handler
                0x2000335c        0x8 examples/enocean_switch/CMakeFiles/enocean_switch_nrf52840_xxAA_s140_6.0.0.dir/__/__/models/config/src/config_server.c.obj
 .data.flash_add_mem_available_struct.10677
                0x20003364       0x10 examples/enocean_switch/CMakeFiles/enocean_switch_nrf52840_xxAA_s140_6.0.0.dir/__/__/mesh/access/src/access.c.obj
 .data.flash_clear_mem_available_struct.10766
                0x20003374       0x10 examples/enocean_switch/CMakeFiles/enocean_switch_nrf52840_xxAA_s140_6.0.0.dir/__/__/mesh/access/src/access.c.obj
 .data.flash_store_mem_available_struct.10790
                0x20003384       0x10 examples/enocean_switch/CMakeFiles/enocean_switch_nrf52840_xxAA_s140_6.0.0.dir/__/__/mesh/access/src/access.c.obj
 .data.m_default_ttl
                0x20003394        0x1 examples/enocean_switch/CMakeFiles/enocean_switch_nrf52840_xxAA_s140_6.0.0.dir/__/__/mesh/access/src/access.c.obj
 *fill*         0x20003395        0x3 
 .data.mem_listener.10966
                0x20003398       0x10 examples/enocean_switch/CMakeFiles/enocean_switch_nrf52840_xxAA_s140_6.0.0.dir/__/__/mesh/access/src/device_state_manager.c.obj
 .data.mem_listener.10992
                0x200033a8       0x10 examples/enocean_switch/CMakeFiles/enocean_switch_nrf52840_xxAA_s140_6.0.0.dir/__/__/mesh/access/src/device_state_manager.c.obj
 .data.m_async_process_flag
                0x200033b8        0x4 examples/enocean_switch/CMakeFiles/enocean_switch_nrf52840_xxAA_s140_6.0.0.dir/__/__/mesh/prov/src/prov_bearer_adv.c.obj
 .data.SystemCoreClock
                0x200033bc        0x4 examples/enocean_switch/CMakeFiles/enocean_switch_nrf52840_xxAA_s140_6.0.0.dir/C_/b/nRF5_SDK_15.0.0_a53641a/modules/nrfx/mdk/system_nrf52840.c.obj
                0x200033bc                SystemCoreClock
 .data.g_rng_function
                0x200033c0        0x4 external/micro-ecc/libuECC_nrf52840_xxAA.a(uECC.c.obj)
 .data._impure_ptr
                0x200033c4        0x4 c:/mesh/arm_gcc/bin/../lib/gcc/arm-none-eabi/6.3.1/../../../../arm-none-eabi/lib/thumb/v7e-m/fpv4-sp/hard\libg_nano.a(lib_a-impure.o)
                0x200033c4                _impure_ptr
 .data.impure_data
                0x200033c8       0x60 c:/mesh/arm_gcc/bin/../lib/gcc/arm-none-eabi/6.3.1/../../../../arm-none-eabi/lib/thumb/v7e-m/fpv4-sp/hard\libg_nano.a(lib_a-impure.o)
                0x20003428                . = ALIGN (0x4)
                0x20003428                PROVIDE (__preinit_array_start, .)
 *(.preinit_array)
                0x20003428                PROVIDE (__preinit_array_end, .)
                0x20003428                . = ALIGN (0x4)
                0x20003428                PROVIDE (__init_array_start, .)
 *(SORT(.init_array.*))
 *(.init_array)
 .init_array    0x20003428        0x4 c:/mesh/arm_gcc/bin/../lib/gcc/arm-none-eabi/6.3.1/thumb/v7e-m/fpv4-sp/hard/crtbegin.o
                0x2000342c                PROVIDE (__init_array_end, .)
                0x2000342c                . = ALIGN (0x4)
                [!provide]                PROVIDE (__fini_array_start, .)
 *(SORT(.fini_array.*))
 *(.fini_array)
 .fini_array    0x2000342c        0x4 c:/mesh/arm_gcc/bin/../lib/gcc/arm-none-eabi/6.3.1/thumb/v7e-m/fpv4-sp/hard/crtbegin.o
                [!provide]                PROVIDE (__fini_array_end, .)
 *(.jcr*)
 .jcr           0x20003430        0x0 c:/mesh/arm_gcc/bin/../lib/gcc/arm-none-eabi/6.3.1/thumb/v7e-m/fpv4-sp/hard/crtbegin.o
 .jcr           0x20003430        0x4 c:/mesh/arm_gcc/bin/../lib/gcc/arm-none-eabi/6.3.1/thumb/v7e-m/fpv4-sp/hard/crtend.o
                0x20003434                . = ALIGN (0x4)
                0x20003434                __data_end__ = .
LOAD c:/mesh/arm_gcc/bin/../lib/gcc/arm-none-eabi/6.3.1/thumb/v7e-m/fpv4-sp/hard/crti.o
LOAD c:/mesh/arm_gcc/bin/../lib/gcc/arm-none-eabi/6.3.1/thumb/v7e-m/fpv4-sp/hard/crtbegin.o
LOAD c:/mesh/arm_gcc/bin/../lib/gcc/arm-none-eabi/6.3.1/../../../../arm-none-eabi/lib/thumb/v7e-m/fpv4-sp/hard/crt0.o
LOAD examples/enocean_switch/CMakeFiles/enocean_switch_nrf52840_xxAA_s140_6.0.0.dir/src/main.c.obj
LOAD examples/enocean_switch/CMakeFiles/enocean_switch_nrf52840_xxAA_s140_6.0.0.dir/src/enocean.c.obj
LOAD examples/enocean_switch/CMakeFiles/enocean_switch_nrf52840_xxAA_s140_6.0.0.dir/src/flash_helper.c.obj
LOAD examples/enocean_switch/CMakeFiles/enocean_switch_nrf52840_xxAA_s140_6.0.0.dir/__/__/mesh/stack/src/mesh_stack.c.obj
LOAD examples/enocean_switch/CMakeFiles/enocean_switch_nrf52840_xxAA_s140_6.0.0.dir/__/common/src/mesh_softdevice_init.c.obj
LOAD examples/enocean_switch/CMakeFiles/enocean_switch_nrf52840_xxAA_s140_6.0.0.dir/__/common/src/mesh_provisionee.c.obj
LOAD examples/enocean_switch/CMakeFiles/enocean_switch_nrf52840_xxAA_s140_6.0.0.dir/__/common/src/rtt_input.c.obj
LOAD examples/enocean_switch/CMakeFiles/enocean_switch_nrf52840_xxAA_s140_6.0.0.dir/__/common/src/simple_hal.c.obj
LOAD examples/enocean_switch/CMakeFiles/enocean_switch_nrf52840_xxAA_s140_6.0.0.dir/__/common/src/mesh_app_utils.c.obj
LOAD examples/enocean_switch/CMakeFiles/enocean_switch_nrf52840_xxAA_s140_6.0.0.dir/__/nrf_mesh_weak.c.obj
LOAD examples/enocean_switch/CMakeFiles/enocean_switch_nrf52840_xxAA_s140_6.0.0.dir/__/common/src/app_error_weak.c.obj
LOAD examples/enocean_switch/CMakeFiles/enocean_switch_nrf52840_xxAA_s140_6.0.0.dir/__/common/src/assertion_handler_weak.c.obj
LOAD examples/enocean_switch/CMakeFiles/enocean_switch_nrf52840_xxAA_s140_6.0.0.dir/__/__/mesh/core/src/internal_event.c.obj
LOAD examples/enocean_switch/CMakeFiles/enocean_switch_nrf52840_xxAA_s140_6.0.0.dir/__/__/mesh/core/src/nrf_mesh_configure.c.obj
LOAD examples/enocean_switch/CMakeFiles/enocean_switch_nrf52840_xxAA_s140_6.0.0.dir/__/__/mesh/core/src/aes.c.obj
LOAD examples/enocean_switch/CMakeFiles/enocean_switch_nrf52840_xxAA_s140_6.0.0.dir/__/__/mesh/core/src/msg_cache.c.obj
LOAD examples/enocean_switch/CMakeFiles/enocean_switch_nrf52840_xxAA_s140_6.0.0.dir/__/__/mesh/core/src/transport.c.obj
LOAD examples/enocean_switch/CMakeFiles/enocean_switch_nrf52840_xxAA_s140_6.0.0.dir/__/__/mesh/core/src/event.c.obj
LOAD examples/enocean_switch/CMakeFiles/enocean_switch_nrf52840_xxAA_s140_6.0.0.dir/__/__/mesh/core/src/packet_buffer.c.obj
LOAD examples/enocean_switch/CMakeFiles/enocean_switch_nrf52840_xxAA_s140_6.0.0.dir/__/__/mesh/core/src/flash_manager_defrag.c.obj
LOAD examples/enocean_switch/CMakeFiles/enocean_switch_nrf52840_xxAA_s140_6.0.0.dir/__/__/mesh/core/src/fifo.c.obj
LOAD examples/enocean_switch/CMakeFiles/enocean_switch_nrf52840_xxAA_s140_6.0.0.dir/__/__/mesh/core/src/nrf_flash.c.obj
LOAD examples/enocean_switch/CMakeFiles/enocean_switch_nrf52840_xxAA_s140_6.0.0.dir/__/__/mesh/core/src/packet_mgr.c.obj
LOAD examples/enocean_switch/CMakeFiles/enocean_switch_nrf52840_xxAA_s140_6.0.0.dir/__/__/mesh/core/src/net_state.c.obj
LOAD examples/enocean_switch/CMakeFiles/enocean_switch_nrf52840_xxAA_s140_6.0.0.dir/__/__/mesh/core/src/mesh_flash.c.obj
LOAD examples/enocean_switch/CMakeFiles/enocean_switch_nrf52840_xxAA_s140_6.0.0.dir/__/__/mesh/core/src/nrf_mesh_utils.c.obj
LOAD examples/enocean_switch/CMakeFiles/enocean_switch_nrf52840_xxAA_s140_6.0.0.dir/__/__/mesh/core/src/nrf_mesh.c.obj
LOAD examples/enocean_switch/CMakeFiles/enocean_switch_nrf52840_xxAA_s140_6.0.0.dir/__/__/mesh/core/src/queue.c.obj
LOAD examples/enocean_switch/CMakeFiles/enocean_switch_nrf52840_xxAA_s140_6.0.0.dir/__/__/mesh/core/src/hal.c.obj
LOAD examples/enocean_switch/CMakeFiles/enocean_switch_nrf52840_xxAA_s140_6.0.0.dir/__/__/mesh/core/src/aes_cmac.c.obj
LOAD examples/enocean_switch/CMakeFiles/enocean_switch_nrf52840_xxAA_s140_6.0.0.dir/__/__/mesh/core/src/timer_scheduler.c.obj
LOAD examples/enocean_switch/CMakeFiles/enocean_switch_nrf52840_xxAA_s140_6.0.0.dir/__/__/mesh/core/src/timer.c.obj
LOAD examples/enocean_switch/CMakeFiles/enocean_switch_nrf52840_xxAA_s140_6.0.0.dir/__/__/mesh/core/src/ticker.c.obj
LOAD examples/enocean_switch/CMakeFiles/enocean_switch_nrf52840_xxAA_s140_6.0.0.dir/__/__/mesh/core/src/rand.c.obj
LOAD examples/enocean_switch/CMakeFiles/enocean_switch_nrf52840_xxAA_s140_6.0.0.dir/__/__/mesh/core/src/nrf_mesh_opt.c.obj
LOAD examples/enocean_switch/CMakeFiles/enocean_switch_nrf52840_xxAA_s140_6.0.0.dir/__/__/mesh/core/src/timeslot.c.obj
LOAD examples/enocean_switch/CMakeFiles/enocean_switch_nrf52840_xxAA_s140_6.0.0.dir/__/__/mesh/core/src/bearer_event.c.obj
LOAD examples/enocean_switch/CMakeFiles/enocean_switch_nrf52840_xxAA_s140_6.0.0.dir/__/__/mesh/core/src/enc.c.obj
LOAD examples/enocean_switch/CMakeFiles/enocean_switch_nrf52840_xxAA_s140_6.0.0.dir/__/__/mesh/core/src/network.c.obj
LOAD examples/enocean_switch/CMakeFiles/enocean_switch_nrf52840_xxAA_s140_6.0.0.dir/__/__/mesh/core/src/net_packet.c.obj
LOAD examples/enocean_switch/CMakeFiles/enocean_switch_nrf52840_xxAA_s140_6.0.0.dir/__/__/mesh/core/src/msqueue.c.obj
LOAD examples/enocean_switch/CMakeFiles/enocean_switch_nrf52840_xxAA_s140_6.0.0.dir/__/__/mesh/core/src/nrf_mesh_keygen.c.obj
LOAD examples/enocean_switch/CMakeFiles/enocean_switch_nrf52840_xxAA_s140_6.0.0.dir/__/__/mesh/core/src/cache.c.obj
LOAD examples/enocean_switch/CMakeFiles/enocean_switch_nrf52840_xxAA_s140_6.0.0.dir/__/__/mesh/core/src/uri.c.obj
LOAD examples/enocean_switch/CMakeFiles/enocean_switch_nrf52840_xxAA_s140_6.0.0.dir/__/__/mesh/core/src/list.c.obj
LOAD examples/enocean_switch/CMakeFiles/enocean_switch_nrf52840_xxAA_s140_6.0.0.dir/__/__/mesh/core/src/log.c.obj
LOAD examples/enocean_switch/CMakeFiles/enocean_switch_nrf52840_xxAA_s140_6.0.0.dir/__/__/mesh/core/src/flash_manager.c.obj
LOAD examples/enocean_switch/CMakeFiles/enocean_switch_nrf52840_xxAA_s140_6.0.0.dir/__/__/mesh/core/src/ccm_soft.c.obj
LOAD examples/enocean_switch/CMakeFiles/enocean_switch_nrf52840_xxAA_s140_6.0.0.dir/__/__/mesh/core/src/toolchain.c.obj
LOAD examples/enocean_switch/CMakeFiles/enocean_switch_nrf52840_xxAA_s140_6.0.0.dir/__/__/mesh/core/src/replay_cache.c.obj
LOAD examples/enocean_switch/CMakeFiles/enocean_switch_nrf52840_xxAA_s140_6.0.0.dir/__/__/mesh/core/src/beacon.c.obj
LOAD examples/enocean_switch/CMakeFiles/enocean_switch_nrf52840_xxAA_s140_6.0.0.dir/__/__/mesh/core/src/flash_manager_internal.c.obj
LOAD examples/enocean_switch/CMakeFiles/enocean_switch_nrf52840_xxAA_s140_6.0.0.dir/__/__/mesh/core/src/core_tx.c.obj
LOAD examples/enocean_switch/CMakeFiles/enocean_switch_nrf52840_xxAA_s140_6.0.0.dir/__/__/mesh/core/src/heartbeat.c.obj
LOAD examples/enocean_switch/CMakeFiles/enocean_switch_nrf52840_xxAA_s140_6.0.0.dir/__/__/mesh/core/src/net_beacon.c.obj
LOAD examples/enocean_switch/CMakeFiles/enocean_switch_nrf52840_xxAA_s140_6.0.0.dir/__/__/mesh/core/src/fsm.c.obj
LOAD examples/enocean_switch/CMakeFiles/enocean_switch_nrf52840_xxAA_s140_6.0.0.dir/__/__/mesh/core/src/core_tx_adv.c.obj
LOAD examples/enocean_switch/CMakeFiles/enocean_switch_nrf52840_xxAA_s140_6.0.0.dir/__/__/mesh/bearer/src/ad_listener.c.obj
LOAD examples/enocean_switch/CMakeFiles/enocean_switch_nrf52840_xxAA_s140_6.0.0.dir/__/__/mesh/bearer/src/ad_type_filter.c.obj
LOAD examples/enocean_switch/CMakeFiles/enocean_switch_nrf52840_xxAA_s140_6.0.0.dir/__/__/mesh/bearer/src/adv_packet_filter.c.obj
LOAD examples/enocean_switch/CMakeFiles/enocean_switch_nrf52840_xxAA_s140_6.0.0.dir/__/__/mesh/bearer/src/advertiser.c.obj
LOAD examples/enocean_switch/CMakeFiles/enocean_switch_nrf52840_xxAA_s140_6.0.0.dir/__/__/mesh/bearer/src/bearer_handler.c.obj
LOAD examples/enocean_switch/CMakeFiles/enocean_switch_nrf52840_xxAA_s140_6.0.0.dir/__/__/mesh/bearer/src/broadcast.c.obj
LOAD examples/enocean_switch/CMakeFiles/enocean_switch_nrf52840_xxAA_s140_6.0.0.dir/__/__/mesh/bearer/src/filter_engine.c.obj
LOAD examples/enocean_switch/CMakeFiles/enocean_switch_nrf52840_xxAA_s140_6.0.0.dir/__/__/mesh/bearer/src/gap_address_filter.c.obj
LOAD examples/enocean_switch/CMakeFiles/enocean_switch_nrf52840_xxAA_s140_6.0.0.dir/__/__/mesh/bearer/src/radio_config.c.obj
LOAD examples/enocean_switch/CMakeFiles/enocean_switch_nrf52840_xxAA_s140_6.0.0.dir/__/__/mesh/bearer/src/rssi_filter.c.obj
LOAD examples/enocean_switch/CMakeFiles/enocean_switch_nrf52840_xxAA_s140_6.0.0.dir/__/__/mesh/bearer/src/scanner.c.obj
LOAD examples/enocean_switch/CMakeFiles/enocean_switch_nrf52840_xxAA_s140_6.0.0.dir/__/__/models/simple_on_off/src/simple_on_off_client.c.obj
LOAD examples/enocean_switch/CMakeFiles/enocean_switch_nrf52840_xxAA_s140_6.0.0.dir/__/__/models/config/src/composition_data.c.obj
LOAD examples/enocean_switch/CMakeFiles/enocean_switch_nrf52840_xxAA_s140_6.0.0.dir/__/__/models/config/src/config_server.c.obj
LOAD examples/enocean_switch/CMakeFiles/enocean_switch_nrf52840_xxAA_s140_6.0.0.dir/__/__/models/config/src/packed_index_list.c.obj
LOAD examples/enocean_switch/CMakeFiles/enocean_switch_nrf52840_xxAA_s140_6.0.0.dir/__/__/models/health/src/health_server.c.obj
LOAD examples/enocean_switch/CMakeFiles/enocean_switch_nrf52840_xxAA_s140_6.0.0.dir/__/__/mesh/access/src/access_publish.c.obj
LOAD examples/enocean_switch/CMakeFiles/enocean_switch_nrf52840_xxAA_s140_6.0.0.dir/__/__/mesh/access/src/access.c.obj
LOAD examples/enocean_switch/CMakeFiles/enocean_switch_nrf52840_xxAA_s140_6.0.0.dir/__/__/mesh/access/src/access_reliable.c.obj
LOAD examples/enocean_switch/CMakeFiles/enocean_switch_nrf52840_xxAA_s140_6.0.0.dir/__/__/mesh/access/src/device_state_manager.c.obj
LOAD examples/enocean_switch/CMakeFiles/enocean_switch_nrf52840_xxAA_s140_6.0.0.dir/__/__/mesh/prov/src/prov_provisionee.c.obj
LOAD examples/enocean_switch/CMakeFiles/enocean_switch_nrf52840_xxAA_s140_6.0.0.dir/__/__/mesh/prov/src/nrf_mesh_prov.c.obj
LOAD examples/enocean_switch/CMakeFiles/enocean_switch_nrf52840_xxAA_s140_6.0.0.dir/__/__/mesh/prov/src/provisioning.c.obj
LOAD examples/enocean_switch/CMakeFiles/enocean_switch_nrf52840_xxAA_s140_6.0.0.dir/__/__/mesh/prov/src/prov_beacon.c.obj
LOAD examples/enocean_switch/CMakeFiles/enocean_switch_nrf52840_xxAA_s140_6.0.0.dir/__/__/mesh/prov/src/prov_utils.c.obj
LOAD examples/enocean_switch/CMakeFiles/enocean_switch_nrf52840_xxAA_s140_6.0.0.dir/__/__/mesh/prov/src/prov_bearer_adv.c.obj
LOAD examples/enocean_switch/CMakeFiles/enocean_switch_nrf52840_xxAA_s140_6.0.0.dir/C_/b/nRF5_SDK_15.0.0_a53641a/modules/nrfx/mdk/system_nrf52840.c.obj
LOAD examples/enocean_switch/CMakeFiles/enocean_switch_nrf52840_xxAA_s140_6.0.0.dir/C_/b/nRF5_SDK_15.0.0_a53641a/modules/nrfx/mdk/gcc_startup_nrf52840.S.obj
LOAD examples/enocean_switch/CMakeFiles/enocean_switch_nrf52840_xxAA_s140_6.0.0.dir/C_/b/nRF5_SDK_15.0.0_a53641a/components/libraries/util/app_error.c.obj
LOAD examples/enocean_switch/CMakeFiles/enocean_switch_nrf52840_xxAA_s140_6.0.0.dir/C_/b/nRF5_SDK_15.0.0_a53641a/components/libraries/util/app_error_handler_gcc.c.obj
LOAD external/rtt/librtt_nrf52840_xxAA.a
LOAD external/micro-ecc/libuECC_nrf52840_xxAA.a
START GROUP
LOAD c:/mesh/arm_gcc/bin/../lib/gcc/arm-none-eabi/6.3.1/thumb/v7e-m/fpv4-sp/hard\libgcc.a
LOAD c:/mesh/arm_gcc/bin/../lib/gcc/arm-none-eabi/6.3.1/../../../../arm-none-eabi/lib/thumb/v7e-m/fpv4-sp/hard\libg_nano.a
LOAD c:/mesh/arm_gcc/bin/../lib/gcc/arm-none-eabi/6.3.1/../../../../arm-none-eabi/lib/thumb/v7e-m/fpv4-sp/hard\libc_nano.a
END GROUP
START GROUP
LOAD c:/mesh/arm_gcc/bin/../lib/gcc/arm-none-eabi/6.3.1/thumb/v7e-m/fpv4-sp/hard\libgcc.a
LOAD c:/mesh/arm_gcc/bin/../lib/gcc/arm-none-eabi/6.3.1/../../../../arm-none-eabi/lib/thumb/v7e-m/fpv4-sp/hard\libc_nano.a
END GROUP
LOAD c:/mesh/arm_gcc/bin/../lib/gcc/arm-none-eabi/6.3.1/thumb/v7e-m/fpv4-sp/hard/crtend.o
LOAD c:/mesh/arm_gcc/bin/../lib/gcc/arm-none-eabi/6.3.1/thumb/v7e-m/fpv4-sp/hard/crtn.o
START GROUP
LOAD c:/mesh/arm_gcc/bin/../lib/gcc/arm-none-eabi/6.3.1/thumb/v7e-m/fpv4-sp/hard\libgcc.a
LOAD c:/mesh/arm_gcc/bin/../lib/gcc/arm-none-eabi/6.3.1/../../../../arm-none-eabi/lib/thumb/v7e-m/fpv4-sp/hard\libc.a
LOAD c:/mesh/arm_gcc/bin/../lib/gcc/arm-none-eabi/6.3.1/../../../../arm-none-eabi/lib/thumb/v7e-m/fpv4-sp/hard\libnosys.a
END GROUP

.igot.plt       0x20003434        0x0 load address 0x0003a458
 .igot.plt      0x20003434        0x0 c:/mesh/arm_gcc/bin/../lib/gcc/arm-none-eabi/6.3.1/thumb/v7e-m/fpv4-sp/hard/crtbegin.o
                0x20003434                . = ALIGN (0x4)

.svc_data       0x20003434        0x0
                [!provide]                PROVIDE (__start_svc_data, .)
 *(.svc_data)
                [!provide]                PROVIDE (__stop_svc_data, .)

.fs_data        0x20003434        0x0
                [!provide]                PROVIDE (__start_fs_data, .)
 *(.fs_data)
                [!provide]                PROVIDE (__stop_fs_data, .)

.log_dynamic_data
                0x20003434        0x0
                [!provide]                PROVIDE (__start_log_dynamic_data, .)
 *(.log_dynamic_data)
                [!provide]                PROVIDE (__stop_log_dynamic_data, .)

.cli_sorted_cmd_ptrs
                0x20003434        0x0
                [!provide]                PROVIDE (__start_cli_sorted_cmd_ptrs, .)
 *(.cli_sorted_cmd_ptrs)
                [!provide]                PROVIDE (__stop_cli_sorted_cmd_ptrs, .)

.bss            0x20003438     0x3534 load address 0x0003a460
                0x20003438                . = ALIGN (0x4)
                0x20003438                __bss_start__ = .
 *(.bss*)
 .bss           0x20003438       0x1c c:/mesh/arm_gcc/bin/../lib/gcc/arm-none-eabi/6.3.1/thumb/v7e-m/fpv4-sp/hard/crtbegin.o
 .bss.m_app_secmat
                0x20003454       0x10 examples/enocean_switch/CMakeFiles/enocean_switch_nrf52840_xxAA_s140_6.0.0.dir/src/main.c.obj
 .bss.m_app_secmat_flash
                0x20003464       0x1c examples/enocean_switch/CMakeFiles/enocean_switch_nrf52840_xxAA_s140_6.0.0.dir/src/main.c.obj
 .bss.m_clients
                0x20003480       0x40 examples/enocean_switch/CMakeFiles/enocean_switch_nrf52840_xxAA_s140_6.0.0.dir/src/main.c.obj
 .bss.m_device_provisioned
                0x200034c0        0x1 examples/enocean_switch/CMakeFiles/enocean_switch_nrf52840_xxAA_s140_6.0.0.dir/src/main.c.obj
 .bss.m_enocean_dev_cnt
                0x200034c1        0x1 examples/enocean_switch/CMakeFiles/enocean_switch_nrf52840_xxAA_s140_6.0.0.dir/src/main.c.obj
 *fill*         0x200034c2        0x2 
 .bss.m_switch_state
                0x200034c4       0x20 examples/enocean_switch/CMakeFiles/enocean_switch_nrf52840_xxAA_s140_6.0.0.dir/src/main.c.obj
 .bss.s_app_started.12865
                0x200034e4        0x1 examples/enocean_switch/CMakeFiles/enocean_switch_nrf52840_xxAA_s140_6.0.0.dir/src/main.c.obj
 *fill*         0x200034e5        0x3 
 .bss.m_app_cb  0x200034e8        0x4 examples/enocean_switch/CMakeFiles/enocean_switch_nrf52840_xxAA_s140_6.0.0.dir/src/enocean.c.obj
 .bss.mp_secmats_list_head
                0x200034ec        0x4 examples/enocean_switch/CMakeFiles/enocean_switch_nrf52840_xxAA_s140_6.0.0.dir/src/enocean.c.obj
 .bss.m_flash_manager
                0x200034f0       0x24 examples/enocean_switch/CMakeFiles/enocean_switch_nrf52840_xxAA_s140_6.0.0.dir/src/flash_helper.c.obj
 .bss.m_health_server
                0x20003514       0x5c examples/enocean_switch/CMakeFiles/enocean_switch_nrf52840_xxAA_s140_6.0.0.dir/__/__/mesh/stack/src/mesh_stack.c.obj
 .bss.m_init_params
                0x20003570       0x24 examples/enocean_switch/CMakeFiles/enocean_switch_nrf52840_xxAA_s140_6.0.0.dir/__/__/mesh/stack/src/mesh_stack.c.obj
 .bss.m_device_provisioned
                0x20003594        0x1 examples/enocean_switch/CMakeFiles/enocean_switch_nrf52840_xxAA_s140_6.0.0.dir/__/common/src/mesh_provisionee.c.obj
 *fill*         0x20003595        0x3 
 .bss.m_params  0x20003598        0xc examples/enocean_switch/CMakeFiles/enocean_switch_nrf52840_xxAA_s140_6.0.0.dir/__/common/src/mesh_provisionee.c.obj
 .bss.m_private_key
                0x200035a4       0x20 examples/enocean_switch/CMakeFiles/enocean_switch_nrf52840_xxAA_s140_6.0.0.dir/__/common/src/mesh_provisionee.c.obj
 .bss.m_prov_bearer_adv
                0x200035c4      0x1c4 examples/enocean_switch/CMakeFiles/enocean_switch_nrf52840_xxAA_s140_6.0.0.dir/__/common/src/mesh_provisionee.c.obj
 .bss.m_prov_ctx
                0x20003788      0x134 examples/enocean_switch/CMakeFiles/enocean_switch_nrf52840_xxAA_s140_6.0.0.dir/__/common/src/mesh_provisionee.c.obj
 .bss.m_public_key
                0x200038bc       0x40 examples/enocean_switch/CMakeFiles/enocean_switch_nrf52840_xxAA_s140_6.0.0.dir/__/common/src/mesh_provisionee.c.obj
 .bss.m_rtt_input_handler
                0x200038fc        0x4 examples/enocean_switch/CMakeFiles/enocean_switch_nrf52840_xxAA_s140_6.0.0.dir/__/common/src/rtt_input.c.obj
 .bss.m_button_handler_cb
                0x20003900        0x4 examples/enocean_switch/CMakeFiles/enocean_switch_nrf52840_xxAA_s140_6.0.0.dir/__/common/src/simple_hal.c.obj
 .bss.m_last_button_press
                0x20003904        0x4 examples/enocean_switch/CMakeFiles/enocean_switch_nrf52840_xxAA_s140_6.0.0.dir/__/common/src/simple_hal.c.obj
 .bss.m_uuid    0x20003908       0x10 examples/enocean_switch/CMakeFiles/enocean_switch_nrf52840_xxAA_s140_6.0.0.dir/__/__/mesh/core/src/nrf_mesh_configure.c.obj
 .bss.m_msg_cache
                0x20003918      0x100 examples/enocean_switch/CMakeFiles/enocean_switch_nrf52840_xxAA_s140_6.0.0.dir/__/__/mesh/core/src/msg_cache.c.obj
 .bss.m_msg_cache_head
                0x20003a18        0x4 examples/enocean_switch/CMakeFiles/enocean_switch_nrf52840_xxAA_s140_6.0.0.dir/__/__/mesh/core/src/msg_cache.c.obj
 .bss.m_control_packet_consumer_count
                0x20003a1c        0x4 examples/enocean_switch/CMakeFiles/enocean_switch_nrf52840_xxAA_s140_6.0.0.dir/__/__/mesh/core/src/transport.c.obj
 .bss.m_control_packet_consumers
                0x20003a20        0x8 examples/enocean_switch/CMakeFiles/enocean_switch_nrf52840_xxAA_s140_6.0.0.dir/__/__/mesh/core/src/transport.c.obj
 .bss.m_sar_alloc
                0x20003a28        0x4 examples/enocean_switch/CMakeFiles/enocean_switch_nrf52840_xxAA_s140_6.0.0.dir/__/__/mesh/core/src/transport.c.obj
 .bss.m_sar_process_flag
                0x20003a2c        0x4 examples/enocean_switch/CMakeFiles/enocean_switch_nrf52840_xxAA_s140_6.0.0.dir/__/__/mesh/core/src/transport.c.obj
 .bss.m_sar_release
                0x20003a30        0x4 examples/enocean_switch/CMakeFiles/enocean_switch_nrf52840_xxAA_s140_6.0.0.dir/__/__/mesh/core/src/transport.c.obj
 .bss.m_sar_session_cache
                0x20003a34       0x40 examples/enocean_switch/CMakeFiles/enocean_switch_nrf52840_xxAA_s140_6.0.0.dir/__/__/mesh/core/src/transport.c.obj
 .bss.m_sar_session_cache_head
                0x20003a74        0x4 examples/enocean_switch/CMakeFiles/enocean_switch_nrf52840_xxAA_s140_6.0.0.dir/__/__/mesh/core/src/transport.c.obj
 .bss.m_trs_config
                0x20003a78       0x18 examples/enocean_switch/CMakeFiles/enocean_switch_nrf52840_xxAA_s140_6.0.0.dir/__/__/mesh/core/src/transport.c.obj
 .bss.m_trs_sar_sessions
                0x20003a90      0x1b0 examples/enocean_switch/CMakeFiles/enocean_switch_nrf52840_xxAA_s140_6.0.0.dir/__/__/mesh/core/src/transport.c.obj
 .bss.mp_evt_handlers_head
                0x20003c40        0x4 examples/enocean_switch/CMakeFiles/enocean_switch_nrf52840_xxAA_s140_6.0.0.dir/__/__/mesh/core/src/event.c.obj
 .bss.m_defrag  0x20003c44       0x1c examples/enocean_switch/CMakeFiles/enocean_switch_nrf52840_xxAA_s140_6.0.0.dir/__/__/mesh/core/src/flash_manager_defrag.c.obj
 .bss.m_token   0x20003c60        0x2 examples/enocean_switch/CMakeFiles/enocean_switch_nrf52840_xxAA_s140_6.0.0.dir/__/__/mesh/core/src/flash_manager_defrag.c.obj
 *fill*         0x20003c62        0x2 
 .bss.mp_recovery_area
                0x20003c64        0x4 examples/enocean_switch/CMakeFiles/enocean_switch_nrf52840_xxAA_s140_6.0.0.dir/__/__/mesh/core/src/flash_manager_defrag.c.obj
 .bss.p_null_ptr.10534
                0x20003c68        0x4 examples/enocean_switch/CMakeFiles/enocean_switch_nrf52840_xxAA_s140_6.0.0.dir/__/__/mesh/core/src/flash_manager_defrag.c.obj
 .bss.m_pool    0x20003c6c     0x1000 examples/enocean_switch/CMakeFiles/enocean_switch_nrf52840_xxAA_s140_6.0.0.dir/__/__/mesh/core/src/packet_mgr.c.obj
 .bss.mp_free_head
                0x20004c6c        0x4 examples/enocean_switch/CMakeFiles/enocean_switch_nrf52840_xxAA_s140_6.0.0.dir/__/__/mesh/core/src/packet_mgr.c.obj
 .bss.iv_state_set.10189
                0x20004c70        0x1 examples/enocean_switch/CMakeFiles/enocean_switch_nrf52840_xxAA_s140_6.0.0.dir/__/__/mesh/core/src/net_state.c.obj
 *fill*         0x20004c71        0x3 
 .bss.lock_count.10165
                0x20004c74        0x4 examples/enocean_switch/CMakeFiles/enocean_switch_nrf52840_xxAA_s140_6.0.0.dir/__/__/mesh/core/src/net_state.c.obj
 .bss.m_flash_manager
                0x20004c78       0x24 examples/enocean_switch/CMakeFiles/enocean_switch_nrf52840_xxAA_s140_6.0.0.dir/__/__/mesh/core/src/net_state.c.obj
 .bss.m_iv_update_timer
                0x20004c9c       0x18 examples/enocean_switch/CMakeFiles/enocean_switch_nrf52840_xxAA_s140_6.0.0.dir/__/__/mesh/core/src/net_state.c.obj
 .bss.m_mesh_evt_handler
                0x20004cb4        0x8 examples/enocean_switch/CMakeFiles/enocean_switch_nrf52840_xxAA_s140_6.0.0.dir/__/__/mesh/core/src/net_state.c.obj
 .bss.m_net_state
                0x20004cbc       0x14 examples/enocean_switch/CMakeFiles/enocean_switch_nrf52840_xxAA_s140_6.0.0.dir/__/__/mesh/core/src/net_state.c.obj
 .bss.m_seqnum_allocation_in_progress
                0x20004cd0        0x1 examples/enocean_switch/CMakeFiles/enocean_switch_nrf52840_xxAA_s140_6.0.0.dir/__/__/mesh/core/src/net_state.c.obj
 .bss.m_test_mode
                0x20004cd1        0x1 examples/enocean_switch/CMakeFiles/enocean_switch_nrf52840_xxAA_s140_6.0.0.dir/__/__/mesh/core/src/net_state.c.obj
 *fill*         0x20004cd2        0x2 
 .bss.m_event_flag
                0x20004cd4        0x4 examples/enocean_switch/CMakeFiles/enocean_switch_nrf52840_xxAA_s140_6.0.0.dir/__/__/mesh/core/src/mesh_flash.c.obj
 .bss.m_suspended
                0x20004cd8        0x1 examples/enocean_switch/CMakeFiles/enocean_switch_nrf52840_xxAA_s140_6.0.0.dir/__/__/mesh/core/src/mesh_flash.c.obj
 *fill*         0x20004cd9        0x3 
 .bss.m_users   0x20004cdc      0x228 examples/enocean_switch/CMakeFiles/enocean_switch_nrf52840_xxAA_s140_6.0.0.dir/__/__/mesh/core/src/mesh_flash.c.obj
 .bss.m_is_enabled
                0x20004f04        0x1 examples/enocean_switch/CMakeFiles/enocean_switch_nrf52840_xxAA_s140_6.0.0.dir/__/__/mesh/core/src/nrf_mesh.c.obj
 .bss.m_is_initialized
                0x20004f05        0x1 examples/enocean_switch/CMakeFiles/enocean_switch_nrf52840_xxAA_s140_6.0.0.dir/__/__/mesh/core/src/nrf_mesh.c.obj
 *fill*         0x20004f06        0x2 
 .bss.m_rx_cb   0x20004f08        0x4 examples/enocean_switch/CMakeFiles/enocean_switch_nrf52840_xxAA_s140_6.0.0.dir/__/__/mesh/core/src/nrf_mesh.c.obj
 .bss.m_128buf  0x20004f0c       0x10 examples/enocean_switch/CMakeFiles/enocean_switch_nrf52840_xxAA_s140_6.0.0.dir/__/__/mesh/core/src/aes_cmac.c.obj
 .bss.m_subkey1
                0x20004f1c       0x10 examples/enocean_switch/CMakeFiles/enocean_switch_nrf52840_xxAA_s140_6.0.0.dir/__/__/mesh/core/src/aes_cmac.c.obj
 .bss.m_subkey2
                0x20004f2c       0x10 examples/enocean_switch/CMakeFiles/enocean_switch_nrf52840_xxAA_s140_6.0.0.dir/__/__/mesh/core/src/aes_cmac.c.obj
 .bss.m_event_flag
                0x20004f3c        0x4 examples/enocean_switch/CMakeFiles/enocean_switch_nrf52840_xxAA_s140_6.0.0.dir/__/__/mesh/core/src/timer_scheduler.c.obj
 .bss.m_scheduler
                0x20004f40       0x10 examples/enocean_switch/CMakeFiles/enocean_switch_nrf52840_xxAA_s140_6.0.0.dir/__/__/mesh/core/src/timer_scheduler.c.obj
 .bss.m_attributes
                0x20004f50        0x3 examples/enocean_switch/CMakeFiles/enocean_switch_nrf52840_xxAA_s140_6.0.0.dir/__/__/mesh/core/src/timer.c.obj
 *fill*         0x20004f53        0x1 
 .bss.m_callbacks
                0x20004f54        0xc examples/enocean_switch/CMakeFiles/enocean_switch_nrf52840_xxAA_s140_6.0.0.dir/__/__/mesh/core/src/timer.c.obj
 .bss.m_is_in_ts
                0x20004f60        0x1 examples/enocean_switch/CMakeFiles/enocean_switch_nrf52840_xxAA_s140_6.0.0.dir/__/__/mesh/core/src/timer.c.obj
 *fill*         0x20004f61        0x3 
 .bss.m_reference_time
                0x20004f64        0x4 examples/enocean_switch/CMakeFiles/enocean_switch_nrf52840_xxAA_s140_6.0.0.dir/__/__/mesh/core/src/timer.c.obj
 .bss.m_timeouts
                0x20004f68        0xc examples/enocean_switch/CMakeFiles/enocean_switch_nrf52840_xxAA_s140_6.0.0.dir/__/__/mesh/core/src/timer.c.obj
 .bss.m_timer_mut
                0x20004f74        0x4 examples/enocean_switch/CMakeFiles/enocean_switch_nrf52840_xxAA_s140_6.0.0.dir/__/__/mesh/core/src/timer.c.obj
 .bss.m_ts_end_time
                0x20004f78        0x4 examples/enocean_switch/CMakeFiles/enocean_switch_nrf52840_xxAA_s140_6.0.0.dir/__/__/mesh/core/src/timer.c.obj
 .bss.mp_ppi_tasks
                0x20004f7c        0xc examples/enocean_switch/CMakeFiles/enocean_switch_nrf52840_xxAA_s140_6.0.0.dir/__/__/mesh/core/src/timer.c.obj
 .bss.m_current_time
                0x20004f88        0x4 examples/enocean_switch/CMakeFiles/enocean_switch_nrf52840_xxAA_s140_6.0.0.dir/__/__/mesh/core/src/ticker.c.obj
 .bss.m_timer   0x20004f8c       0x18 examples/enocean_switch/CMakeFiles/enocean_switch_nrf52840_xxAA_s140_6.0.0.dir/__/__/mesh/core/src/ticker.c.obj
 .bss.m_current_timeslot
                0x20004fa4       0x1c examples/enocean_switch/CMakeFiles/enocean_switch_nrf52840_xxAA_s140_6.0.0.dir/__/__/mesh/core/src/timeslot.c.obj
 .bss.m_lfclk_ppm
                0x20004fc0        0x4 examples/enocean_switch/CMakeFiles/enocean_switch_nrf52840_xxAA_s140_6.0.0.dir/__/__/mesh/core/src/timeslot.c.obj
 .bss.m_radio_request_earliest
                0x20004fc4       0x10 examples/enocean_switch/CMakeFiles/enocean_switch_nrf52840_xxAA_s140_6.0.0.dir/__/__/mesh/core/src/timeslot.c.obj
 .bss.m_state_lock
                0x20004fd4        0x1 examples/enocean_switch/CMakeFiles/enocean_switch_nrf52840_xxAA_s140_6.0.0.dir/__/__/mesh/core/src/timeslot.c.obj
 .bss.m_timeslot_forced_command
                0x20004fd5        0x1 examples/enocean_switch/CMakeFiles/enocean_switch_nrf52840_xxAA_s140_6.0.0.dir/__/__/mesh/core/src/timeslot.c.obj
 *fill*         0x20004fd6        0x2 
 .bss.s_last_rtc_value.9592
                0x20004fd8        0x8 examples/enocean_switch/CMakeFiles/enocean_switch_nrf52840_xxAA_s140_6.0.0.dir/__/__/mesh/core/src/timeslot.c.obj
 .bss.m_bearer_event_fifo
                0x20004fe0       0x14 examples/enocean_switch/CMakeFiles/enocean_switch_nrf52840_xxAA_s140_6.0.0.dir/__/__/mesh/core/src/bearer_event.c.obj
 .bss.m_bearer_event_fifo_buffer
                0x20004ff4      0x100 examples/enocean_switch/CMakeFiles/enocean_switch_nrf52840_xxAA_s140_6.0.0.dir/__/__/mesh/core/src/bearer_event.c.obj
 .bss.m_critical
                0x200050f4        0x4 examples/enocean_switch/CMakeFiles/enocean_switch_nrf52840_xxAA_s140_6.0.0.dir/__/__/mesh/core/src/bearer_event.c.obj
 .bss.m_flag_count
                0x200050f8        0x4 examples/enocean_switch/CMakeFiles/enocean_switch_nrf52840_xxAA_s140_6.0.0.dir/__/__/mesh/core/src/bearer_event.c.obj
 .bss.m_flag_event_callbacks
                0x200050fc       0x20 examples/enocean_switch/CMakeFiles/enocean_switch_nrf52840_xxAA_s140_6.0.0.dir/__/__/mesh/core/src/bearer_event.c.obj
 .bss.m_flags   0x2000511c        0x4 examples/enocean_switch/CMakeFiles/enocean_switch_nrf52840_xxAA_s140_6.0.0.dir/__/__/mesh/core/src/bearer_event.c.obj
 .bss.m_irq_priority
                0x20005120        0x1 examples/enocean_switch/CMakeFiles/enocean_switch_nrf52840_xxAA_s140_6.0.0.dir/__/__/mesh/core/src/bearer_event.c.obj
 *fill*         0x20005121        0x3 
 .bss.m_sequential_event_queue
                0x20005124        0x8 examples/enocean_switch/CMakeFiles/enocean_switch_nrf52840_xxAA_s140_6.0.0.dir/__/__/mesh/core/src/bearer_event.c.obj
 .bss.s_recursion_guard.9723
                0x2000512c        0x1 examples/enocean_switch/CMakeFiles/enocean_switch_nrf52840_xxAA_s140_6.0.0.dir/__/__/mesh/core/src/bearer_event.c.obj
 *fill*         0x2000512d        0x3 
 .bss.m_relay_check_cb
                0x20005130        0x4 examples/enocean_switch/CMakeFiles/enocean_switch_nrf52840_xxAA_s140_6.0.0.dir/__/__/mesh/core/src/network.c.obj
 .bss.m_relay_enable
                0x20005134        0x1 examples/enocean_switch/CMakeFiles/enocean_switch_nrf52840_xxAA_s140_6.0.0.dir/__/__/mesh/core/src/network.c.obj
 *fill*         0x20005135        0x3 
 .bss.m_action_queue
                0x20005138        0xc examples/enocean_switch/CMakeFiles/enocean_switch_nrf52840_xxAA_s140_6.0.0.dir/__/__/mesh/core/src/flash_manager.c.obj
 .bss.m_action_queue_buffer
                0x20005144      0x104 examples/enocean_switch/CMakeFiles/enocean_switch_nrf52840_xxAA_s140_6.0.0.dir/__/__/mesh/core/src/flash_manager.c.obj
 .bss.m_action_state
                0x20005248        0x1 examples/enocean_switch/CMakeFiles/enocean_switch_nrf52840_xxAA_s140_6.0.0.dir/__/__/mesh/core/src/flash_manager.c.obj
 *fill*         0x20005249        0x3 
 .bss.m_memory_listener_queue
                0x2000524c        0x8 examples/enocean_switch/CMakeFiles/enocean_switch_nrf52840_xxAA_s140_6.0.0.dir/__/__/mesh/core/src/flash_manager.c.obj
 .bss.m_processing_flag
                0x20005254        0x4 examples/enocean_switch/CMakeFiles/enocean_switch_nrf52840_xxAA_s140_6.0.0.dir/__/__/mesh/core/src/flash_manager.c.obj
 .bss.m_queue_empty_cb
                0x20005258        0x4 examples/enocean_switch/CMakeFiles/enocean_switch_nrf52840_xxAA_s140_6.0.0.dir/__/__/mesh/core/src/flash_manager.c.obj
 .bss.m_state   0x2000525c        0x1 examples/enocean_switch/CMakeFiles/enocean_switch_nrf52840_xxAA_s140_6.0.0.dir/__/__/mesh/core/src/flash_manager.c.obj
 *fill*         0x2000525d        0x1 
 .bss.m_token   0x2000525e        0x2 examples/enocean_switch/CMakeFiles/enocean_switch_nrf52840_xxAA_s140_6.0.0.dir/__/__/mesh/core/src/flash_manager.c.obj
 .bss.p_current.11442
                0x20005260        0x4 examples/enocean_switch/CMakeFiles/enocean_switch_nrf52840_xxAA_s140_6.0.0.dir/__/__/mesh/core/src/flash_manager.c.obj
 .bss.result.11443
                0x20005264        0x1 examples/enocean_switch/CMakeFiles/enocean_switch_nrf52840_xxAA_s140_6.0.0.dir/__/__/mesh/core/src/flash_manager.c.obj
 .bss.m_cache_index
                0x20005265        0x1 examples/enocean_switch/CMakeFiles/enocean_switch_nrf52840_xxAA_s140_6.0.0.dir/__/__/mesh/core/src/replay_cache.c.obj
 *fill*         0x20005266        0x2 
 .bss.m_replay_cache
                0x20005268      0x200 examples/enocean_switch/CMakeFiles/enocean_switch_nrf52840_xxAA_s140_6.0.0.dir/__/__/mesh/core/src/replay_cache.c.obj
 .bss.m_bearer_count
                0x20005468        0x1 examples/enocean_switch/CMakeFiles/enocean_switch_nrf52840_xxAA_s140_6.0.0.dir/__/__/mesh/core/src/core_tx.c.obj
 *fill*         0x20005469        0x3 
 .bss.m_tx_complete_callback
                0x2000546c        0x4 examples/enocean_switch/CMakeFiles/enocean_switch_nrf52840_xxAA_s140_6.0.0.dir/__/__/mesh/core/src/core_tx.c.obj
 .bss.mp_bearers
                0x20005470        0x4 examples/enocean_switch/CMakeFiles/enocean_switch_nrf52840_xxAA_s140_6.0.0.dir/__/__/mesh/core/src/core_tx.c.obj
 .bss.m_hb_core_evt_handler
                0x20005474        0x8 examples/enocean_switch/CMakeFiles/enocean_switch_nrf52840_xxAA_s140_6.0.0.dir/__/__/mesh/core/src/heartbeat.c.obj
 .bss.m_hb_pending_feat_msg
                0x2000547c        0x1 examples/enocean_switch/CMakeFiles/enocean_switch_nrf52840_xxAA_s140_6.0.0.dir/__/__/mesh/core/src/heartbeat.c.obj
 .bss.m_hb_pending_pub_msg
                0x2000547d        0x1 examples/enocean_switch/CMakeFiles/enocean_switch_nrf52840_xxAA_s140_6.0.0.dir/__/__/mesh/core/src/heartbeat.c.obj
 .bss.m_heartbeat_init_done
                0x2000547e        0x1 examples/enocean_switch/CMakeFiles/enocean_switch_nrf52840_xxAA_s140_6.0.0.dir/__/__/mesh/core/src/heartbeat.c.obj
 *fill*         0x2000547f        0x1 
 .bss.m_heartbeat_subscription
                0x20005480       0x10 examples/enocean_switch/CMakeFiles/enocean_switch_nrf52840_xxAA_s140_6.0.0.dir/__/__/mesh/core/src/heartbeat.c.obj
 .bss.m_publication_count_decrement_cb
                0x20005490        0x4 examples/enocean_switch/CMakeFiles/enocean_switch_nrf52840_xxAA_s140_6.0.0.dir/__/__/mesh/core/src/heartbeat.c.obj
 .bss.m_publication_get_cb
                0x20005494        0x4 examples/enocean_switch/CMakeFiles/enocean_switch_nrf52840_xxAA_s140_6.0.0.dir/__/__/mesh/core/src/heartbeat.c.obj
 .bss.m_publication_timer
                0x20005498       0x1c examples/enocean_switch/CMakeFiles/enocean_switch_nrf52840_xxAA_s140_6.0.0.dir/__/__/mesh/core/src/heartbeat.c.obj
 .bss.m_subscription_timer
                0x200054b4       0x18 examples/enocean_switch/CMakeFiles/enocean_switch_nrf52840_xxAA_s140_6.0.0.dir/__/__/mesh/core/src/heartbeat.c.obj
 .bss.m_adv     0x200054cc       0x98 examples/enocean_switch/CMakeFiles/enocean_switch_nrf52840_xxAA_s140_6.0.0.dir/__/__/mesh/core/src/net_beacon.c.obj
 .bss.m_adv_buf
                0x20005564       0x34 examples/enocean_switch/CMakeFiles/enocean_switch_nrf52840_xxAA_s140_6.0.0.dir/__/__/mesh/core/src/net_beacon.c.obj
 .bss.m_beacon_salt
                0x20005598       0x10 examples/enocean_switch/CMakeFiles/enocean_switch_nrf52840_xxAA_s140_6.0.0.dir/__/__/mesh/core/src/net_beacon.c.obj
 .bss.m_enabled
                0x200055a8        0x1 examples/enocean_switch/CMakeFiles/enocean_switch_nrf52840_xxAA_s140_6.0.0.dir/__/__/mesh/core/src/net_beacon.c.obj
 *fill*         0x200055a9        0x3 
 .bss.m_tx_timer
                0x200055ac       0x18 examples/enocean_switch/CMakeFiles/enocean_switch_nrf52840_xxAA_s140_6.0.0.dir/__/__/mesh/core/src/net_beacon.c.obj
 .bss.mp_beacon_info
                0x200055c4        0x4 examples/enocean_switch/CMakeFiles/enocean_switch_nrf52840_xxAA_s140_6.0.0.dir/__/__/mesh/core/src/net_beacon.c.obj
 .bss.m_bearer  0x200055c8        0xc examples/enocean_switch/CMakeFiles/enocean_switch_nrf52840_xxAA_s140_6.0.0.dir/__/__/mesh/core/src/core_tx_adv.c.obj
 .bss.m_bearer_roles
                0x200055d4      0x138 examples/enocean_switch/CMakeFiles/enocean_switch_nrf52840_xxAA_s140_6.0.0.dir/__/__/mesh/core/src/core_tx_adv.c.obj
 .bss.m_current_alloc
                0x2000570c        0x8 examples/enocean_switch/CMakeFiles/enocean_switch_nrf52840_xxAA_s140_6.0.0.dir/__/__/mesh/core/src/core_tx_adv.c.obj
 .bss.m_originator_adv_packet_buffer
                0x20005714      0x100 examples/enocean_switch/CMakeFiles/enocean_switch_nrf52840_xxAA_s140_6.0.0.dir/__/__/mesh/core/src/core_tx_adv.c.obj
 .bss.m_relay_adv_packet_buffer
                0x20005814       0x80 examples/enocean_switch/CMakeFiles/enocean_switch_nrf52840_xxAA_s140_6.0.0.dir/__/__/mesh/core/src/core_tx_adv.c.obj
 .bss.m_subscribers
                0x20005894        0x4 examples/enocean_switch/CMakeFiles/enocean_switch_nrf52840_xxAA_s140_6.0.0.dir/__/__/mesh/bearer/src/ad_listener.c.obj
 .bss.m_adtype_filter
                0x20005898       0x38 examples/enocean_switch/CMakeFiles/enocean_switch_nrf52840_xxAA_s140_6.0.0.dir/__/__/mesh/bearer/src/ad_type_filter.c.obj
 .bss.m_adv_prng
                0x200058d0       0x10 examples/enocean_switch/CMakeFiles/enocean_switch_nrf52840_xxAA_s140_6.0.0.dir/__/__/mesh/bearer/src/advertiser.c.obj
 .bss.m_action_queue
                0x200058e0        0x8 examples/enocean_switch/CMakeFiles/enocean_switch_nrf52840_xxAA_s140_6.0.0.dir/__/__/mesh/bearer/src/bearer_handler.c.obj
 .bss.m_end_time
                0x200058e8        0x4 examples/enocean_switch/CMakeFiles/enocean_switch_nrf52840_xxAA_s140_6.0.0.dir/__/__/mesh/bearer/src/bearer_handler.c.obj
 .bss.m_scanner_is_active
                0x200058ec        0x1 examples/enocean_switch/CMakeFiles/enocean_switch_nrf52840_xxAA_s140_6.0.0.dir/__/__/mesh/bearer/src/bearer_handler.c.obj
 .bss.m_stopped
                0x200058ed        0x1 examples/enocean_switch/CMakeFiles/enocean_switch_nrf52840_xxAA_s140_6.0.0.dir/__/__/mesh/bearer/src/bearer_handler.c.obj
 *fill*         0x200058ee        0x2 
 .bss.mp_action
                0x200058f0        0x4 examples/enocean_switch/CMakeFiles/enocean_switch_nrf52840_xxAA_s140_6.0.0.dir/__/__/mesh/bearer/src/bearer_handler.c.obj
 .bss.m_next_channel_index
                0x200058f4        0x1 examples/enocean_switch/CMakeFiles/enocean_switch_nrf52840_xxAA_s140_6.0.0.dir/__/__/mesh/bearer/src/broadcast.c.obj
 *fill*         0x200058f5        0x3 
 .bss.m_accepted_amount
                0x200058f8        0x4 examples/enocean_switch/CMakeFiles/enocean_switch_nrf52840_xxAA_s140_6.0.0.dir/__/__/mesh/bearer/src/filter_engine.c.obj
 .bss.m_filter_list_head
                0x200058fc        0x4 examples/enocean_switch/CMakeFiles/enocean_switch_nrf52840_xxAA_s140_6.0.0.dir/__/__/mesh/bearer/src/filter_engine.c.obj
 .bss.m_scanner
                0x20005900      0x290 examples/enocean_switch/CMakeFiles/enocean_switch_nrf52840_xxAA_s140_6.0.0.dir/__/__/mesh/bearer/src/scanner.c.obj
 .bss.m_tid     0x20005b90        0x1 examples/enocean_switch/CMakeFiles/enocean_switch_nrf52840_xxAA_s140_6.0.0.dir/__/__/models/simple_on_off/src/simple_on_off_client.c.obj
 *fill*         0x20005b91        0x3 
 .bss.m_evt_cb  0x20005b94        0x4 examples/enocean_switch/CMakeFiles/enocean_switch_nrf52840_xxAA_s140_6.0.0.dir/__/__/models/config/src/config_server.c.obj
 .bss.m_heartbeat_publication
                0x20005b98       0x14 examples/enocean_switch/CMakeFiles/enocean_switch_nrf52840_xxAA_s140_6.0.0.dir/__/__/models/config/src/config_server.c.obj
 .bss.m_node_reset_pending
                0x20005bac        0x1 examples/enocean_switch/CMakeFiles/enocean_switch_nrf52840_xxAA_s140_6.0.0.dir/__/__/models/config/src/config_server.c.obj
 *fill*         0x20005bad        0x3 
 .bss.m_attention_timer
                0x20005bb0       0x18 examples/enocean_switch/CMakeFiles/enocean_switch_nrf52840_xxAA_s140_6.0.0.dir/__/__/models/health/src/health_server.c.obj
 .bss.mp_attention_list
                0x20005bc8        0x4 examples/enocean_switch/CMakeFiles/enocean_switch_nrf52840_xxAA_s140_6.0.0.dir/__/__/models/health/src/health_server.c.obj
 .bss.m_publish_timer
                0x20005bcc       0x18 examples/enocean_switch/CMakeFiles/enocean_switch_nrf52840_xxAA_s140_6.0.0.dir/__/__/mesh/access/src/access_publish.c.obj
 .bss.m_publish_timer_counter
                0x20005be4        0x4 examples/enocean_switch/CMakeFiles/enocean_switch_nrf52840_xxAA_s140_6.0.0.dir/__/__/mesh/access/src/access_publish.c.obj
 .bss.m_publish_timer_running
                0x20005be8        0x1 examples/enocean_switch/CMakeFiles/enocean_switch_nrf52840_xxAA_s140_6.0.0.dir/__/__/mesh/access/src/access_publish.c.obj
 .bss.m_timer_resolution
                0x20005be9        0x1 examples/enocean_switch/CMakeFiles/enocean_switch_nrf52840_xxAA_s140_6.0.0.dir/__/__/mesh/access/src/access_publish.c.obj
 *fill*         0x20005bea        0x2 
 .bss.mp_publication_list
                0x20005bec        0x4 examples/enocean_switch/CMakeFiles/enocean_switch_nrf52840_xxAA_s140_6.0.0.dir/__/__/mesh/access/src/access_publish.c.obj
 .bss.m_element_pool
                0x20005bf0       0x1e examples/enocean_switch/CMakeFiles/enocean_switch_nrf52840_xxAA_s140_6.0.0.dir/__/__/mesh/access/src/access.c.obj
 *fill*         0x20005c0e        0x2 
 .bss.m_evt_handler
                0x20005c10        0x8 examples/enocean_switch/CMakeFiles/enocean_switch_nrf52840_xxAA_s140_6.0.0.dir/__/__/mesh/access/src/access.c.obj
 .bss.m_flash_manager
                0x20005c18       0x24 examples/enocean_switch/CMakeFiles/enocean_switch_nrf52840_xxAA_s140_6.0.0.dir/__/__/mesh/access/src/access.c.obj
 .bss.m_flash_not_ready
                0x20005c3c        0x1 examples/enocean_switch/CMakeFiles/enocean_switch_nrf52840_xxAA_s140_6.0.0.dir/__/__/mesh/access/src/access.c.obj
 .bss.m_metadata_stored
                0x20005c3d        0x1 examples/enocean_switch/CMakeFiles/enocean_switch_nrf52840_xxAA_s140_6.0.0.dir/__/__/mesh/access/src/access.c.obj
 *fill*         0x20005c3e        0x2 
 .bss.m_model_pool
                0x20005c40      0x138 examples/enocean_switch/CMakeFiles/enocean_switch_nrf52840_xxAA_s140_6.0.0.dir/__/__/mesh/access/src/access.c.obj
 .bss.m_subscription_list_pool
                0x20005d78       0x30 examples/enocean_switch/CMakeFiles/enocean_switch_nrf52840_xxAA_s140_6.0.0.dir/__/__/mesh/access/src/access.c.obj
 .bss.m_reliable
                0x20005da8      0x124 examples/enocean_switch/CMakeFiles/enocean_switch_nrf52840_xxAA_s140_6.0.0.dir/__/__/mesh/access/src/access_reliable.c.obj
 .bss.m_addr_nonvirtual_allocated
                0x20005ecc        0x4 examples/enocean_switch/CMakeFiles/enocean_switch_nrf52840_xxAA_s140_6.0.0.dir/__/__/mesh/access/src/device_state_manager.c.obj
 .bss.m_addr_nonvirtual_needs_flashing
                0x20005ed0        0x4 examples/enocean_switch/CMakeFiles/enocean_switch_nrf52840_xxAA_s140_6.0.0.dir/__/__/mesh/access/src/device_state_manager.c.obj
 .bss.m_addr_unicast_allocated
                0x20005ed4        0x4 examples/enocean_switch/CMakeFiles/enocean_switch_nrf52840_xxAA_s140_6.0.0.dir/__/__/mesh/access/src/device_state_manager.c.obj
 .bss.m_addr_unicast_needs_flashing
                0x20005ed8        0x4 examples/enocean_switch/CMakeFiles/enocean_switch_nrf52840_xxAA_s140_6.0.0.dir/__/__/mesh/access/src/device_state_manager.c.obj
 .bss.m_addr_virtual_allocated
                0x20005edc        0x4 examples/enocean_switch/CMakeFiles/enocean_switch_nrf52840_xxAA_s140_6.0.0.dir/__/__/mesh/access/src/device_state_manager.c.obj
 .bss.m_addr_virtual_needs_flashing
                0x20005ee0        0x4 examples/enocean_switch/CMakeFiles/enocean_switch_nrf52840_xxAA_s140_6.0.0.dir/__/__/mesh/access/src/device_state_manager.c.obj
 .bss.m_addresses
                0x20005ee4       0x40 examples/enocean_switch/CMakeFiles/enocean_switch_nrf52840_xxAA_s140_6.0.0.dir/__/__/mesh/access/src/device_state_manager.c.obj
 .bss.m_appkey_allocated
                0x20005f24        0x4 examples/enocean_switch/CMakeFiles/enocean_switch_nrf52840_xxAA_s140_6.0.0.dir/__/__/mesh/access/src/device_state_manager.c.obj
 .bss.m_appkey_needs_flashing
                0x20005f28        0x4 examples/enocean_switch/CMakeFiles/enocean_switch_nrf52840_xxAA_s140_6.0.0.dir/__/__/mesh/access/src/device_state_manager.c.obj
 .bss.m_appkeys
                0x20005f2c      0x150 examples/enocean_switch/CMakeFiles/enocean_switch_nrf52840_xxAA_s140_6.0.0.dir/__/__/mesh/access/src/device_state_manager.c.obj
 .bss.m_devkey_allocated
                0x2000607c        0x4 examples/enocean_switch/CMakeFiles/enocean_switch_nrf52840_xxAA_s140_6.0.0.dir/__/__/mesh/access/src/device_state_manager.c.obj
 .bss.m_devkey_needs_flashing
                0x20006080        0x4 examples/enocean_switch/CMakeFiles/enocean_switch_nrf52840_xxAA_s140_6.0.0.dir/__/__/mesh/access/src/device_state_manager.c.obj
 .bss.m_devkeys
                0x20006084       0x16 examples/enocean_switch/CMakeFiles/enocean_switch_nrf52840_xxAA_s140_6.0.0.dir/__/__/mesh/access/src/device_state_manager.c.obj
 .bss.m_flash_is_available
                0x2000609a        0x1 examples/enocean_switch/CMakeFiles/enocean_switch_nrf52840_xxAA_s140_6.0.0.dir/__/__/mesh/access/src/device_state_manager.c.obj
 *fill*         0x2000609b        0x1 
 .bss.m_flash_manager
                0x2000609c       0x24 examples/enocean_switch/CMakeFiles/enocean_switch_nrf52840_xxAA_s140_6.0.0.dir/__/__/mesh/access/src/device_state_manager.c.obj
 .bss.m_flash_mem_listener_update_all
                0x200060c0       0x10 examples/enocean_switch/CMakeFiles/enocean_switch_nrf52840_xxAA_s140_6.0.0.dir/__/__/mesh/access/src/device_state_manager.c.obj
 .bss.m_has_primary_subnet
                0x200060d0        0x1 examples/enocean_switch/CMakeFiles/enocean_switch_nrf52840_xxAA_s140_6.0.0.dir/__/__/mesh/access/src/device_state_manager.c.obj
 *fill*         0x200060d1        0x1 
 .bss.m_local_unicast_addr
                0x200060d2        0x4 examples/enocean_switch/CMakeFiles/enocean_switch_nrf52840_xxAA_s140_6.0.0.dir/__/__/mesh/access/src/device_state_manager.c.obj
 *fill*         0x200060d6        0x2 
 .bss.m_mesh_evt_handler
                0x200060d8        0x8 examples/enocean_switch/CMakeFiles/enocean_switch_nrf52840_xxAA_s140_6.0.0.dir/__/__/mesh/access/src/device_state_manager.c.obj
 .bss.m_subnet_allocated
                0x200060e0        0x4 examples/enocean_switch/CMakeFiles/enocean_switch_nrf52840_xxAA_s140_6.0.0.dir/__/__/mesh/access/src/device_state_manager.c.obj
 .bss.m_subnet_needs_flashing
                0x200060e4        0x4 examples/enocean_switch/CMakeFiles/enocean_switch_nrf52840_xxAA_s140_6.0.0.dir/__/__/mesh/access/src/device_state_manager.c.obj
 .bss.m_subnets
                0x200060e8      0x2a0 examples/enocean_switch/CMakeFiles/enocean_switch_nrf52840_xxAA_s140_6.0.0.dir/__/__/mesh/access/src/device_state_manager.c.obj
 .bss.m_virtual_addresses
                0x20006388       0xa0 examples/enocean_switch/CMakeFiles/enocean_switch_nrf52840_xxAA_s140_6.0.0.dir/__/__/mesh/access/src/device_state_manager.c.obj
 .bss.m_event_handler
                0x20006428        0x4 examples/enocean_switch/CMakeFiles/enocean_switch_nrf52840_xxAA_s140_6.0.0.dir/__/__/mesh/prov/src/prov_beacon.c.obj
 .bss.m_offload_ecdh
                0x2000642c        0x1 examples/enocean_switch/CMakeFiles/enocean_switch_nrf52840_xxAA_s140_6.0.0.dir/__/__/mesh/prov/src/prov_utils.c.obj
 *fill*         0x2000642d        0x3 
 .bss.mp_bearer_head
                0x20006430        0x4 examples/enocean_switch/CMakeFiles/enocean_switch_nrf52840_xxAA_s140_6.0.0.dir/__/__/mesh/prov/src/prov_bearer_adv.c.obj
 .bss._acDownBuffer
                0x20006434       0x80 external/rtt/librtt_nrf52840_xxAA.a(SEGGER_RTT.c.obj)
 .bss._acUpBuffer
                0x200064b4      0x400 external/rtt/librtt_nrf52840_xxAA.a(SEGGER_RTT.c.obj)
 .bss.__malloc_free_list
                0x200068b4        0x4 c:/mesh/arm_gcc/bin/../lib/gcc/arm-none-eabi/6.3.1/../../../../arm-none-eabi/lib/thumb/v7e-m/fpv4-sp/hard\libg_nano.a(lib_a-nano-mallocr.o)
                0x200068b4                __malloc_free_list
 .bss.__malloc_sbrk_start
                0x200068b8        0x4 c:/mesh/arm_gcc/bin/../lib/gcc/arm-none-eabi/6.3.1/../../../../arm-none-eabi/lib/thumb/v7e-m/fpv4-sp/hard\libg_nano.a(lib_a-nano-mallocr.o)
                0x200068b8                __malloc_sbrk_start
 .bss.heap_end.5239
                0x200068bc        0x4 c:/mesh/arm_gcc/bin/../lib/gcc/arm-none-eabi/6.3.1/../../../../arm-none-eabi/lib/thumb/v7e-m/fpv4-sp/hard\libnosys.a(sbrk.o)
 *(COMMON)
 COMMON         0x200068c0        0xc examples/enocean_switch/CMakeFiles/enocean_switch_nrf52840_xxAA_s140_6.0.0.dir/__/common/src/mesh_softdevice_init.c.obj
                0x200068c0                nrf_nvic_state
 COMMON         0x200068cc       0x24 examples/enocean_switch/CMakeFiles/enocean_switch_nrf52840_xxAA_s140_6.0.0.dir/__/__/mesh/core/src/core_tx.c.obj
                0x200068cc                m_packet
 COMMON         0x200068f0       0x78 external/rtt/librtt_nrf52840_xxAA.a(SEGGER_RTT.c.obj)
                0x200068f0                _SEGGER_RTT
 COMMON         0x20006968        0x4 c:/mesh/arm_gcc/bin/../lib/gcc/arm-none-eabi/6.3.1/../../../../arm-none-eabi/lib/thumb/v7e-m/fpv4-sp/hard\libg_nano.a(lib_a-reent.o)
                0x20006968                errno
                0x2000696c                . = ALIGN (0x4)
                0x2000696c                __bss_end__ = .

.heap           0x20006970     0x2000
                0x20006970                __HeapBase = .
                0x20006970                __end__ = .
                0x20006970                PROVIDE (end, .)
 *(.heap*)
 .heap          0x20006970     0x2000 examples/enocean_switch/CMakeFiles/enocean_switch_nrf52840_xxAA_s140_6.0.0.dir/C_/b/nRF5_SDK_15.0.0_a53641a/modules/nrfx/mdk/gcc_startup_nrf52840.S.obj
                0x20008970                __HeapLimit = .

.stack_dummy    0x20006970     0x2000
 *(.stack*)
 .stack         0x20006970     0x2000 examples/enocean_switch/CMakeFiles/enocean_switch_nrf52840_xxAA_s140_6.0.0.dir/C_/b/nRF5_SDK_15.0.0_a53641a/modules/nrfx/mdk/gcc_startup_nrf52840.S.obj
                0x2003fd00                __StackTop = (ORIGIN (RAM) + LENGTH (RAM))
                0x2003dd00                __StackLimit = (__StackTop - SIZEOF (.stack_dummy))
                0x2003fd00                PROVIDE (__stack, __StackTop)
                0x00000001                ASSERT ((__StackLimit >= __HeapLimit), region RAM overflowed with stack)
                0x00000170                DataInitFlashUsed = (__bss_start__ - __data_start__)
                0x000142ec                CodeFlashUsed = (__etext - ORIGIN (FLASH))
                0x0001445c                TotalFlashUsed = (CodeFlashUsed + DataInitFlashUsed)
                0x00000001                ASSERT ((TotalFlashUsed <= LENGTH (FLASH)), region FLASH overflowed with .data and user data)
OUTPUT(examples\enocean_switch\enocean_switch_nrf52840_xxAA_s140_6.0.0.elf elf32-littlearm)

.ARM.attributes
                0x00000000       0x30
 .ARM.attributes
                0x00000000       0x22 c:/mesh/arm_gcc/bin/../lib/gcc/arm-none-eabi/6.3.1/thumb/v7e-m/fpv4-sp/hard/crti.o
 .ARM.attributes
                0x00000022       0x34 c:/mesh/arm_gcc/bin/../lib/gcc/arm-none-eabi/6.3.1/thumb/v7e-m/fpv4-sp/hard/crtbegin.o
 .ARM.attributes
                0x00000056       0x20 c:/mesh/arm_gcc/bin/../lib/gcc/arm-none-eabi/6.3.1/../../../../arm-none-eabi/lib/thumb/v7e-m/fpv4-sp/hard/crt0.o
 .ARM.attributes
                0x00000076       0x39 examples/enocean_switch/CMakeFiles/enocean_switch_nrf52840_xxAA_s140_6.0.0.dir/src/main.c.obj
 .ARM.attributes
                0x000000af       0x39 examples/enocean_switch/CMakeFiles/enocean_switch_nrf52840_xxAA_s140_6.0.0.dir/src/enocean.c.obj
 .ARM.attributes
                0x000000e8       0x39 examples/enocean_switch/CMakeFiles/enocean_switch_nrf52840_xxAA_s140_6.0.0.dir/src/flash_helper.c.obj
 .ARM.attributes
                0x00000121       0x39 examples/enocean_switch/CMakeFiles/enocean_switch_nrf52840_xxAA_s140_6.0.0.dir/__/__/mesh/stack/src/mesh_stack.c.obj
 .ARM.attributes
                0x0000015a       0x39 examples/enocean_switch/CMakeFiles/enocean_switch_nrf52840_xxAA_s140_6.0.0.dir/__/common/src/mesh_softdevice_init.c.obj
 .ARM.attributes
                0x00000193       0x39 examples/enocean_switch/CMakeFiles/enocean_switch_nrf52840_xxAA_s140_6.0.0.dir/__/common/src/mesh_provisionee.c.obj
 .ARM.attributes
                0x000001cc       0x39 examples/enocean_switch/CMakeFiles/enocean_switch_nrf52840_xxAA_s140_6.0.0.dir/__/common/src/rtt_input.c.obj
 .ARM.attributes
                0x00000205       0x39 examples/enocean_switch/CMakeFiles/enocean_switch_nrf52840_xxAA_s140_6.0.0.dir/__/common/src/simple_hal.c.obj
 .ARM.attributes
                0x0000023e       0x39 examples/enocean_switch/CMakeFiles/enocean_switch_nrf52840_xxAA_s140_6.0.0.dir/__/nrf_mesh_weak.c.obj
 .ARM.attributes
                0x00000277       0x39 examples/enocean_switch/CMakeFiles/enocean_switch_nrf52840_xxAA_s140_6.0.0.dir/__/common/src/app_error_weak.c.obj
 .ARM.attributes
                0x000002b0       0x39 examples/enocean_switch/CMakeFiles/enocean_switch_nrf52840_xxAA_s140_6.0.0.dir/__/common/src/assertion_handler_weak.c.obj
 .ARM.attributes
                0x000002e9       0x39 examples/enocean_switch/CMakeFiles/enocean_switch_nrf52840_xxAA_s140_6.0.0.dir/__/__/mesh/core/src/nrf_mesh_configure.c.obj
 .ARM.attributes
                0x00000322       0x39 examples/enocean_switch/CMakeFiles/enocean_switch_nrf52840_xxAA_s140_6.0.0.dir/__/__/mesh/core/src/aes.c.obj
 .ARM.attributes
                0x0000035b       0x39 examples/enocean_switch/CMakeFiles/enocean_switch_nrf52840_xxAA_s140_6.0.0.dir/__/__/mesh/core/src/msg_cache.c.obj
 .ARM.attributes
                0x00000394       0x39 examples/enocean_switch/CMakeFiles/enocean_switch_nrf52840_xxAA_s140_6.0.0.dir/__/__/mesh/core/src/transport.c.obj
 .ARM.attributes
                0x000003cd       0x39 examples/enocean_switch/CMakeFiles/enocean_switch_nrf52840_xxAA_s140_6.0.0.dir/__/__/mesh/core/src/event.c.obj
 .ARM.attributes
                0x00000406       0x39 examples/enocean_switch/CMakeFiles/enocean_switch_nrf52840_xxAA_s140_6.0.0.dir/__/__/mesh/core/src/packet_buffer.c.obj
 .ARM.attributes
                0x0000043f       0x39 examples/enocean_switch/CMakeFiles/enocean_switch_nrf52840_xxAA_s140_6.0.0.dir/__/__/mesh/core/src/flash_manager_defrag.c.obj
 .ARM.attributes
                0x00000478       0x39 examples/enocean_switch/CMakeFiles/enocean_switch_nrf52840_xxAA_s140_6.0.0.dir/__/__/mesh/core/src/fifo.c.obj
 .ARM.attributes
                0x000004b1       0x39 examples/enocean_switch/CMakeFiles/enocean_switch_nrf52840_xxAA_s140_6.0.0.dir/__/__/mesh/core/src/nrf_flash.c.obj
 .ARM.attributes
                0x000004ea       0x39 examples/enocean_switch/CMakeFiles/enocean_switch_nrf52840_xxAA_s140_6.0.0.dir/__/__/mesh/core/src/packet_mgr.c.obj
 .ARM.attributes
                0x00000523       0x39 examples/enocean_switch/CMakeFiles/enocean_switch_nrf52840_xxAA_s140_6.0.0.dir/__/__/mesh/core/src/net_state.c.obj
 .ARM.attributes
                0x0000055c       0x39 examples/enocean_switch/CMakeFiles/enocean_switch_nrf52840_xxAA_s140_6.0.0.dir/__/__/mesh/core/src/mesh_flash.c.obj
 .ARM.attributes
                0x00000595       0x39 examples/enocean_switch/CMakeFiles/enocean_switch_nrf52840_xxAA_s140_6.0.0.dir/__/__/mesh/core/src/nrf_mesh_utils.c.obj
 .ARM.attributes
                0x000005ce       0x39 examples/enocean_switch/CMakeFiles/enocean_switch_nrf52840_xxAA_s140_6.0.0.dir/__/__/mesh/core/src/nrf_mesh.c.obj
 .ARM.attributes
                0x00000607       0x39 examples/enocean_switch/CMakeFiles/enocean_switch_nrf52840_xxAA_s140_6.0.0.dir/__/__/mesh/core/src/queue.c.obj
 .ARM.attributes
                0x00000640       0x39 examples/enocean_switch/CMakeFiles/enocean_switch_nrf52840_xxAA_s140_6.0.0.dir/__/__/mesh/core/src/hal.c.obj
 .ARM.attributes
                0x00000679       0x39 examples/enocean_switch/CMakeFiles/enocean_switch_nrf52840_xxAA_s140_6.0.0.dir/__/__/mesh/core/src/aes_cmac.c.obj
 .ARM.attributes
                0x000006b2       0x39 examples/enocean_switch/CMakeFiles/enocean_switch_nrf52840_xxAA_s140_6.0.0.dir/__/__/mesh/core/src/timer_scheduler.c.obj
 .ARM.attributes
                0x000006eb       0x39 examples/enocean_switch/CMakeFiles/enocean_switch_nrf52840_xxAA_s140_6.0.0.dir/__/__/mesh/core/src/timer.c.obj
 .ARM.attributes
                0x00000724       0x39 examples/enocean_switch/CMakeFiles/enocean_switch_nrf52840_xxAA_s140_6.0.0.dir/__/__/mesh/core/src/ticker.c.obj
 .ARM.attributes
                0x0000075d       0x39 examples/enocean_switch/CMakeFiles/enocean_switch_nrf52840_xxAA_s140_6.0.0.dir/__/__/mesh/core/src/rand.c.obj
 .ARM.attributes
                0x00000796       0x39 examples/enocean_switch/CMakeFiles/enocean_switch_nrf52840_xxAA_s140_6.0.0.dir/__/__/mesh/core/src/nrf_mesh_opt.c.obj
 .ARM.attributes
                0x000007cf       0x39 examples/enocean_switch/CMakeFiles/enocean_switch_nrf52840_xxAA_s140_6.0.0.dir/__/__/mesh/core/src/timeslot.c.obj
 .ARM.attributes
                0x00000808       0x39 examples/enocean_switch/CMakeFiles/enocean_switch_nrf52840_xxAA_s140_6.0.0.dir/__/__/mesh/core/src/bearer_event.c.obj
 .ARM.attributes
                0x00000841       0x39 examples/enocean_switch/CMakeFiles/enocean_switch_nrf52840_xxAA_s140_6.0.0.dir/__/__/mesh/core/src/enc.c.obj
 .ARM.attributes
                0x0000087a       0x39 examples/enocean_switch/CMakeFiles/enocean_switch_nrf52840_xxAA_s140_6.0.0.dir/__/__/mesh/core/src/network.c.obj
 .ARM.attributes
                0x000008b3       0x39 examples/enocean_switch/CMakeFiles/enocean_switch_nrf52840_xxAA_s140_6.0.0.dir/__/__/mesh/core/src/net_packet.c.obj
 .ARM.attributes
                0x000008ec       0x39 examples/enocean_switch/CMakeFiles/enocean_switch_nrf52840_xxAA_s140_6.0.0.dir/__/__/mesh/core/src/msqueue.c.obj
 .ARM.attributes
                0x00000925       0x39 examples/enocean_switch/CMakeFiles/enocean_switch_nrf52840_xxAA_s140_6.0.0.dir/__/__/mesh/core/src/nrf_mesh_keygen.c.obj
 .ARM.attributes
                0x0000095e       0x39 examples/enocean_switch/CMakeFiles/enocean_switch_nrf52840_xxAA_s140_6.0.0.dir/__/__/mesh/core/src/list.c.obj
 .ARM.attributes
                0x00000997       0x39 examples/enocean_switch/CMakeFiles/enocean_switch_nrf52840_xxAA_s140_6.0.0.dir/__/__/mesh/core/src/log.c.obj
 .ARM.attributes
                0x000009d0       0x39 examples/enocean_switch/CMakeFiles/enocean_switch_nrf52840_xxAA_s140_6.0.0.dir/__/__/mesh/core/src/flash_manager.c.obj
 .ARM.attributes
                0x00000a09       0x39 examples/enocean_switch/CMakeFiles/enocean_switch_nrf52840_xxAA_s140_6.0.0.dir/__/__/mesh/core/src/ccm_soft.c.obj
 .ARM.attributes
                0x00000a42       0x39 examples/enocean_switch/CMakeFiles/enocean_switch_nrf52840_xxAA_s140_6.0.0.dir/__/__/mesh/core/src/replay_cache.c.obj
 .ARM.attributes
                0x00000a7b       0x39 examples/enocean_switch/CMakeFiles/enocean_switch_nrf52840_xxAA_s140_6.0.0.dir/__/__/mesh/core/src/beacon.c.obj
 .ARM.attributes
                0x00000ab4       0x39 examples/enocean_switch/CMakeFiles/enocean_switch_nrf52840_xxAA_s140_6.0.0.dir/__/__/mesh/core/src/flash_manager_internal.c.obj
 .ARM.attributes
                0x00000aed       0x39 examples/enocean_switch/CMakeFiles/enocean_switch_nrf52840_xxAA_s140_6.0.0.dir/__/__/mesh/core/src/core_tx.c.obj
 .ARM.attributes
                0x00000b26       0x39 examples/enocean_switch/CMakeFiles/enocean_switch_nrf52840_xxAA_s140_6.0.0.dir/__/__/mesh/core/src/heartbeat.c.obj
 .ARM.attributes
                0x00000b5f       0x39 examples/enocean_switch/CMakeFiles/enocean_switch_nrf52840_xxAA_s140_6.0.0.dir/__/__/mesh/core/src/net_beacon.c.obj
 .ARM.attributes
                0x00000b98       0x39 examples/enocean_switch/CMakeFiles/enocean_switch_nrf52840_xxAA_s140_6.0.0.dir/__/__/mesh/core/src/core_tx_adv.c.obj
 .ARM.attributes
                0x00000bd1       0x39 examples/enocean_switch/CMakeFiles/enocean_switch_nrf52840_xxAA_s140_6.0.0.dir/__/__/mesh/bearer/src/ad_listener.c.obj
 .ARM.attributes
                0x00000c0a       0x39 examples/enocean_switch/CMakeFiles/enocean_switch_nrf52840_xxAA_s140_6.0.0.dir/__/__/mesh/bearer/src/ad_type_filter.c.obj
 .ARM.attributes
                0x00000c43       0x39 examples/enocean_switch/CMakeFiles/enocean_switch_nrf52840_xxAA_s140_6.0.0.dir/__/__/mesh/bearer/src/advertiser.c.obj
 .ARM.attributes
                0x00000c7c       0x39 examples/enocean_switch/CMakeFiles/enocean_switch_nrf52840_xxAA_s140_6.0.0.dir/__/__/mesh/bearer/src/bearer_handler.c.obj
 .ARM.attributes
                0x00000cb5       0x39 examples/enocean_switch/CMakeFiles/enocean_switch_nrf52840_xxAA_s140_6.0.0.dir/__/__/mesh/bearer/src/broadcast.c.obj
 .ARM.attributes
                0x00000cee       0x39 examples/enocean_switch/CMakeFiles/enocean_switch_nrf52840_xxAA_s140_6.0.0.dir/__/__/mesh/bearer/src/filter_engine.c.obj
 .ARM.attributes
                0x00000d27       0x39 examples/enocean_switch/CMakeFiles/enocean_switch_nrf52840_xxAA_s140_6.0.0.dir/__/__/mesh/bearer/src/radio_config.c.obj
 .ARM.attributes
                0x00000d60       0x39 examples/enocean_switch/CMakeFiles/enocean_switch_nrf52840_xxAA_s140_6.0.0.dir/__/__/mesh/bearer/src/scanner.c.obj
 .ARM.attributes
                0x00000d99       0x39 examples/enocean_switch/CMakeFiles/enocean_switch_nrf52840_xxAA_s140_6.0.0.dir/__/__/models/simple_on_off/src/simple_on_off_client.c.obj
 .ARM.attributes
                0x00000dd2       0x39 examples/enocean_switch/CMakeFiles/enocean_switch_nrf52840_xxAA_s140_6.0.0.dir/__/__/models/config/src/composition_data.c.obj
 .ARM.attributes
                0x00000e0b       0x39 examples/enocean_switch/CMakeFiles/enocean_switch_nrf52840_xxAA_s140_6.0.0.dir/__/__/models/config/src/config_server.c.obj
 .ARM.attributes
                0x00000e44       0x39 examples/enocean_switch/CMakeFiles/enocean_switch_nrf52840_xxAA_s140_6.0.0.dir/__/__/models/config/src/packed_index_list.c.obj
 .ARM.attributes
                0x00000e7d       0x39 examples/enocean_switch/CMakeFiles/enocean_switch_nrf52840_xxAA_s140_6.0.0.dir/__/__/models/health/src/health_server.c.obj
 .ARM.attributes
                0x00000eb6       0x39 examples/enocean_switch/CMakeFiles/enocean_switch_nrf52840_xxAA_s140_6.0.0.dir/__/__/mesh/access/src/access_publish.c.obj
 .ARM.attributes
                0x00000eef       0x39 examples/enocean_switch/CMakeFiles/enocean_switch_nrf52840_xxAA_s140_6.0.0.dir/__/__/mesh/access/src/access.c.obj
 .ARM.attributes
                0x00000f28       0x39 examples/enocean_switch/CMakeFiles/enocean_switch_nrf52840_xxAA_s140_6.0.0.dir/__/__/mesh/access/src/access_reliable.c.obj
 .ARM.attributes
                0x00000f61       0x39 examples/enocean_switch/CMakeFiles/enocean_switch_nrf52840_xxAA_s140_6.0.0.dir/__/__/mesh/access/src/device_state_manager.c.obj
 .ARM.attributes
                0x00000f9a       0x39 examples/enocean_switch/CMakeFiles/enocean_switch_nrf52840_xxAA_s140_6.0.0.dir/__/__/mesh/prov/src/prov_provisionee.c.obj
 .ARM.attributes
                0x00000fd3       0x39 examples/enocean_switch/CMakeFiles/enocean_switch_nrf52840_xxAA_s140_6.0.0.dir/__/__/mesh/prov/src/nrf_mesh_prov.c.obj
 .ARM.attributes
                0x0000100c       0x39 examples/enocean_switch/CMakeFiles/enocean_switch_nrf52840_xxAA_s140_6.0.0.dir/__/__/mesh/prov/src/provisioning.c.obj
 .ARM.attributes
                0x00001045       0x39 examples/enocean_switch/CMakeFiles/enocean_switch_nrf52840_xxAA_s140_6.0.0.dir/__/__/mesh/prov/src/prov_beacon.c.obj
 .ARM.attributes
                0x0000107e       0x39 examples/enocean_switch/CMakeFiles/enocean_switch_nrf52840_xxAA_s140_6.0.0.dir/__/__/mesh/prov/src/prov_utils.c.obj
 .ARM.attributes
                0x000010b7       0x39 examples/enocean_switch/CMakeFiles/enocean_switch_nrf52840_xxAA_s140_6.0.0.dir/__/__/mesh/prov/src/prov_bearer_adv.c.obj
 .ARM.attributes
                0x000010f0       0x39 examples/enocean_switch/CMakeFiles/enocean_switch_nrf52840_xxAA_s140_6.0.0.dir/C_/b/nRF5_SDK_15.0.0_a53641a/modules/nrfx/mdk/system_nrf52840.c.obj
 .ARM.attributes
                0x00001129       0x20 examples/enocean_switch/CMakeFiles/enocean_switch_nrf52840_xxAA_s140_6.0.0.dir/C_/b/nRF5_SDK_15.0.0_a53641a/modules/nrfx/mdk/gcc_startup_nrf52840.S.obj
 .ARM.attributes
                0x00001149       0x39 examples/enocean_switch/CMakeFiles/enocean_switch_nrf52840_xxAA_s140_6.0.0.dir/C_/b/nRF5_SDK_15.0.0_a53641a/components/libraries/util/app_error.c.obj
 .ARM.attributes
                0x00001182       0x39 examples/enocean_switch/CMakeFiles/enocean_switch_nrf52840_xxAA_s140_6.0.0.dir/C_/b/nRF5_SDK_15.0.0_a53641a/components/libraries/util/app_error_handler_gcc.c.obj
 .ARM.attributes
                0x000011bb       0x39 external/rtt/librtt_nrf52840_xxAA.a(SEGGER_RTT.c.obj)
 .ARM.attributes
                0x000011f4       0x39 external/rtt/librtt_nrf52840_xxAA.a(SEGGER_RTT_printf.c.obj)
 .ARM.attributes
                0x0000122d       0x39 external/micro-ecc/libuECC_nrf52840_xxAA.a(uECC.c.obj)
 .ARM.attributes
                0x00001266       0x22 c:/mesh/arm_gcc/bin/../lib/gcc/arm-none-eabi/6.3.1/thumb/v7e-m/fpv4-sp/hard\libgcc.a(_aeabi_uldivmod.o)
 .ARM.attributes
                0x00001288       0x34 c:/mesh/arm_gcc/bin/../lib/gcc/arm-none-eabi/6.3.1/thumb/v7e-m/fpv4-sp/hard\libgcc.a(_udivmoddi4.o)
 .ARM.attributes
                0x000012bc       0x22 c:/mesh/arm_gcc/bin/../lib/gcc/arm-none-eabi/6.3.1/thumb/v7e-m/fpv4-sp/hard\libgcc.a(_dvmd_tls.o)
 .ARM.attributes
                0x000012de       0x34 c:/mesh/arm_gcc/bin/../lib/gcc/arm-none-eabi/6.3.1/../../../../arm-none-eabi/lib/thumb/v7e-m/fpv4-sp/hard\libg_nano.a(lib_a-exit.o)
 .ARM.attributes
                0x00001312       0x34 c:/mesh/arm_gcc/bin/../lib/gcc/arm-none-eabi/6.3.1/../../../../arm-none-eabi/lib/thumb/v7e-m/fpv4-sp/hard\libg_nano.a(lib_a-impure.o)
 .ARM.attributes
                0x00001346       0x34 c:/mesh/arm_gcc/bin/../lib/gcc/arm-none-eabi/6.3.1/../../../../arm-none-eabi/lib/thumb/v7e-m/fpv4-sp/hard\libg_nano.a(lib_a-init.o)
 .ARM.attributes
                0x0000137a       0x34 c:/mesh/arm_gcc/bin/../lib/gcc/arm-none-eabi/6.3.1/../../../../arm-none-eabi/lib/thumb/v7e-m/fpv4-sp/hard\libg_nano.a(lib_a-malloc.o)
 .ARM.attributes
                0x000013ae       0x34 c:/mesh/arm_gcc/bin/../lib/gcc/arm-none-eabi/6.3.1/../../../../arm-none-eabi/lib/thumb/v7e-m/fpv4-sp/hard\libg_nano.a(lib_a-memcmp.o)
 .ARM.attributes
                0x000013e2       0x34 c:/mesh/arm_gcc/bin/../lib/gcc/arm-none-eabi/6.3.1/../../../../arm-none-eabi/lib/thumb/v7e-m/fpv4-sp/hard\libg_nano.a(lib_a-memcpy-stub.o)
 .ARM.attributes
                0x00001416       0x34 c:/mesh/arm_gcc/bin/../lib/gcc/arm-none-eabi/6.3.1/../../../../arm-none-eabi/lib/thumb/v7e-m/fpv4-sp/hard\libg_nano.a(lib_a-memset.o)
 .ARM.attributes
                0x0000144a       0x34 c:/mesh/arm_gcc/bin/../lib/gcc/arm-none-eabi/6.3.1/../../../../arm-none-eabi/lib/thumb/v7e-m/fpv4-sp/hard\libg_nano.a(lib_a-nano-freer.o)
 .ARM.attributes
                0x0000147e       0x34 c:/mesh/arm_gcc/bin/../lib/gcc/arm-none-eabi/6.3.1/../../../../arm-none-eabi/lib/thumb/v7e-m/fpv4-sp/hard\libg_nano.a(lib_a-nano-mallocr.o)
 .ARM.attributes
                0x000014b2       0x34 c:/mesh/arm_gcc/bin/../lib/gcc/arm-none-eabi/6.3.1/../../../../arm-none-eabi/lib/thumb/v7e-m/fpv4-sp/hard\libg_nano.a(lib_a-sbrkr.o)
 .ARM.attributes
                0x000014e6       0x34 c:/mesh/arm_gcc/bin/../lib/gcc/arm-none-eabi/6.3.1/../../../../arm-none-eabi/lib/thumb/v7e-m/fpv4-sp/hard\libg_nano.a(lib_a-strcpy.o)
 .ARM.attributes
                0x0000151a       0x1b c:/mesh/arm_gcc/bin/../lib/gcc/arm-none-eabi/6.3.1/../../../../arm-none-eabi/lib/thumb/v7e-m/fpv4-sp/hard\libg_nano.a(lib_a-strlen.o)
 .ARM.attributes
                0x00001535       0x34 c:/mesh/arm_gcc/bin/../lib/gcc/arm-none-eabi/6.3.1/../../../../arm-none-eabi/lib/thumb/v7e-m/fpv4-sp/hard\libg_nano.a(lib_a-strrchr.o)
 .ARM.attributes
                0x00001569       0x34 c:/mesh/arm_gcc/bin/../lib/gcc/arm-none-eabi/6.3.1/../../../../arm-none-eabi/lib/thumb/v7e-m/fpv4-sp/hard\libg_nano.a(lib_a-mlock.o)
 .ARM.attributes
                0x0000159d       0x34 c:/mesh/arm_gcc/bin/../lib/gcc/arm-none-eabi/6.3.1/../../../../arm-none-eabi/lib/thumb/v7e-m/fpv4-sp/hard\libg_nano.a(lib_a-reent.o)
 .ARM.attributes
                0x000015d1       0x34 c:/mesh/arm_gcc/bin/../lib/gcc/arm-none-eabi/6.3.1/../../../../arm-none-eabi/lib/thumb/v7e-m/fpv4-sp/hard\libg_nano.a(lib_a-strchr.o)
 .ARM.attributes
                0x00001605       0x34 c:/mesh/arm_gcc/bin/../lib/gcc/arm-none-eabi/6.3.1/thumb/v7e-m/fpv4-sp/hard/crtend.o
 .ARM.attributes
                0x00001639       0x22 c:/mesh/arm_gcc/bin/../lib/gcc/arm-none-eabi/6.3.1/thumb/v7e-m/fpv4-sp/hard/crtn.o
 .ARM.attributes
                0x0000165b       0x34 c:/mesh/arm_gcc/bin/../lib/gcc/arm-none-eabi/6.3.1/../../../../arm-none-eabi/lib/thumb/v7e-m/fpv4-sp/hard\libnosys.a(sbrk.o)
 .ARM.attributes
                0x0000168f       0x34 c:/mesh/arm_gcc/bin/../lib/gcc/arm-none-eabi/6.3.1/../../../../arm-none-eabi/lib/thumb/v7e-m/fpv4-sp/hard\libnosys.a(_exit.o)

.comment        0x00000000       0x7f
 .comment       0x00000000       0x7f examples/enocean_switch/CMakeFiles/enocean_switch_nrf52840_xxAA_s140_6.0.0.dir/src/main.c.obj
                                 0x80 (size before relaxing)
 .comment       0x0000007f       0x80 examples/enocean_switch/CMakeFiles/enocean_switch_nrf52840_xxAA_s140_6.0.0.dir/src/enocean.c.obj
 .comment       0x0000007f       0x80 examples/enocean_switch/CMakeFiles/enocean_switch_nrf52840_xxAA_s140_6.0.0.dir/src/flash_helper.c.obj
 .comment       0x0000007f       0x80 examples/enocean_switch/CMakeFiles/enocean_switch_nrf52840_xxAA_s140_6.0.0.dir/__/__/mesh/stack/src/mesh_stack.c.obj
 .comment       0x0000007f       0x80 examples/enocean_switch/CMakeFiles/enocean_switch_nrf52840_xxAA_s140_6.0.0.dir/__/common/src/mesh_softdevice_init.c.obj
 .comment       0x0000007f       0x80 examples/enocean_switch/CMakeFiles/enocean_switch_nrf52840_xxAA_s140_6.0.0.dir/__/common/src/mesh_provisionee.c.obj
 .comment       0x0000007f       0x80 examples/enocean_switch/CMakeFiles/enocean_switch_nrf52840_xxAA_s140_6.0.0.dir/__/common/src/rtt_input.c.obj
 .comment       0x0000007f       0x80 examples/enocean_switch/CMakeFiles/enocean_switch_nrf52840_xxAA_s140_6.0.0.dir/__/common/src/simple_hal.c.obj
 .comment       0x0000007f       0x80 examples/enocean_switch/CMakeFiles/enocean_switch_nrf52840_xxAA_s140_6.0.0.dir/__/nrf_mesh_weak.c.obj
 .comment       0x0000007f       0x80 examples/enocean_switch/CMakeFiles/enocean_switch_nrf52840_xxAA_s140_6.0.0.dir/__/common/src/app_error_weak.c.obj
 .comment       0x0000007f       0x80 examples/enocean_switch/CMakeFiles/enocean_switch_nrf52840_xxAA_s140_6.0.0.dir/__/common/src/assertion_handler_weak.c.obj
 .comment       0x0000007f       0x80 examples/enocean_switch/CMakeFiles/enocean_switch_nrf52840_xxAA_s140_6.0.0.dir/__/__/mesh/core/src/nrf_mesh_configure.c.obj
 .comment       0x0000007f       0x80 examples/enocean_switch/CMakeFiles/enocean_switch_nrf52840_xxAA_s140_6.0.0.dir/__/__/mesh/core/src/aes.c.obj
 .comment       0x0000007f       0x80 examples/enocean_switch/CMakeFiles/enocean_switch_nrf52840_xxAA_s140_6.0.0.dir/__/__/mesh/core/src/msg_cache.c.obj
 .comment       0x0000007f       0x80 examples/enocean_switch/CMakeFiles/enocean_switch_nrf52840_xxAA_s140_6.0.0.dir/__/__/mesh/core/src/transport.c.obj
 .comment       0x0000007f       0x80 examples/enocean_switch/CMakeFiles/enocean_switch_nrf52840_xxAA_s140_6.0.0.dir/__/__/mesh/core/src/event.c.obj
 .comment       0x0000007f       0x80 examples/enocean_switch/CMakeFiles/enocean_switch_nrf52840_xxAA_s140_6.0.0.dir/__/__/mesh/core/src/packet_buffer.c.obj
 .comment       0x0000007f       0x80 examples/enocean_switch/CMakeFiles/enocean_switch_nrf52840_xxAA_s140_6.0.0.dir/__/__/mesh/core/src/flash_manager_defrag.c.obj
 .comment       0x0000007f       0x80 examples/enocean_switch/CMakeFiles/enocean_switch_nrf52840_xxAA_s140_6.0.0.dir/__/__/mesh/core/src/fifo.c.obj
 .comment       0x0000007f       0x80 examples/enocean_switch/CMakeFiles/enocean_switch_nrf52840_xxAA_s140_6.0.0.dir/__/__/mesh/core/src/nrf_flash.c.obj
 .comment       0x0000007f       0x80 examples/enocean_switch/CMakeFiles/enocean_switch_nrf52840_xxAA_s140_6.0.0.dir/__/__/mesh/core/src/packet_mgr.c.obj
 .comment       0x0000007f       0x80 examples/enocean_switch/CMakeFiles/enocean_switch_nrf52840_xxAA_s140_6.0.0.dir/__/__/mesh/core/src/net_state.c.obj
 .comment       0x0000007f       0x80 examples/enocean_switch/CMakeFiles/enocean_switch_nrf52840_xxAA_s140_6.0.0.dir/__/__/mesh/core/src/mesh_flash.c.obj
 .comment       0x0000007f       0x80 examples/enocean_switch/CMakeFiles/enocean_switch_nrf52840_xxAA_s140_6.0.0.dir/__/__/mesh/core/src/nrf_mesh_utils.c.obj
 .comment       0x0000007f       0x80 examples/enocean_switch/CMakeFiles/enocean_switch_nrf52840_xxAA_s140_6.0.0.dir/__/__/mesh/core/src/nrf_mesh.c.obj
 .comment       0x0000007f       0x80 examples/enocean_switch/CMakeFiles/enocean_switch_nrf52840_xxAA_s140_6.0.0.dir/__/__/mesh/core/src/queue.c.obj
 .comment       0x0000007f       0x80 examples/enocean_switch/CMakeFiles/enocean_switch_nrf52840_xxAA_s140_6.0.0.dir/__/__/mesh/core/src/hal.c.obj
 .comment       0x0000007f       0x80 examples/enocean_switch/CMakeFiles/enocean_switch_nrf52840_xxAA_s140_6.0.0.dir/__/__/mesh/core/src/aes_cmac.c.obj
 .comment       0x0000007f       0x80 examples/enocean_switch/CMakeFiles/enocean_switch_nrf52840_xxAA_s140_6.0.0.dir/__/__/mesh/core/src/timer_scheduler.c.obj
 .comment       0x0000007f       0x80 examples/enocean_switch/CMakeFiles/enocean_switch_nrf52840_xxAA_s140_6.0.0.dir/__/__/mesh/core/src/timer.c.obj
 .comment       0x0000007f       0x80 examples/enocean_switch/CMakeFiles/enocean_switch_nrf52840_xxAA_s140_6.0.0.dir/__/__/mesh/core/src/ticker.c.obj
 .comment       0x0000007f       0x80 examples/enocean_switch/CMakeFiles/enocean_switch_nrf52840_xxAA_s140_6.0.0.dir/__/__/mesh/core/src/rand.c.obj
 .comment       0x0000007f       0x80 examples/enocean_switch/CMakeFiles/enocean_switch_nrf52840_xxAA_s140_6.0.0.dir/__/__/mesh/core/src/nrf_mesh_opt.c.obj
 .comment       0x0000007f       0x80 examples/enocean_switch/CMakeFiles/enocean_switch_nrf52840_xxAA_s140_6.0.0.dir/__/__/mesh/core/src/timeslot.c.obj
 .comment       0x0000007f       0x80 examples/enocean_switch/CMakeFiles/enocean_switch_nrf52840_xxAA_s140_6.0.0.dir/__/__/mesh/core/src/bearer_event.c.obj
 .comment       0x0000007f       0x80 examples/enocean_switch/CMakeFiles/enocean_switch_nrf52840_xxAA_s140_6.0.0.dir/__/__/mesh/core/src/enc.c.obj
 .comment       0x0000007f       0x80 examples/enocean_switch/CMakeFiles/enocean_switch_nrf52840_xxAA_s140_6.0.0.dir/__/__/mesh/core/src/network.c.obj
 .comment       0x0000007f       0x80 examples/enocean_switch/CMakeFiles/enocean_switch_nrf52840_xxAA_s140_6.0.0.dir/__/__/mesh/core/src/net_packet.c.obj
 .comment       0x0000007f       0x80 examples/enocean_switch/CMakeFiles/enocean_switch_nrf52840_xxAA_s140_6.0.0.dir/__/__/mesh/core/src/msqueue.c.obj
 .comment       0x0000007f       0x80 examples/enocean_switch/CMakeFiles/enocean_switch_nrf52840_xxAA_s140_6.0.0.dir/__/__/mesh/core/src/nrf_mesh_keygen.c.obj
 .comment       0x0000007f       0x80 examples/enocean_switch/CMakeFiles/enocean_switch_nrf52840_xxAA_s140_6.0.0.dir/__/__/mesh/core/src/list.c.obj
 .comment       0x0000007f       0x80 examples/enocean_switch/CMakeFiles/enocean_switch_nrf52840_xxAA_s140_6.0.0.dir/__/__/mesh/core/src/log.c.obj
 .comment       0x0000007f       0x80 examples/enocean_switch/CMakeFiles/enocean_switch_nrf52840_xxAA_s140_6.0.0.dir/__/__/mesh/core/src/flash_manager.c.obj
 .comment       0x0000007f       0x80 examples/enocean_switch/CMakeFiles/enocean_switch_nrf52840_xxAA_s140_6.0.0.dir/__/__/mesh/core/src/ccm_soft.c.obj
 .comment       0x0000007f       0x80 examples/enocean_switch/CMakeFiles/enocean_switch_nrf52840_xxAA_s140_6.0.0.dir/__/__/mesh/core/src/replay_cache.c.obj
 .comment       0x0000007f       0x80 examples/enocean_switch/CMakeFiles/enocean_switch_nrf52840_xxAA_s140_6.0.0.dir/__/__/mesh/core/src/beacon.c.obj
 .comment       0x0000007f       0x80 examples/enocean_switch/CMakeFiles/enocean_switch_nrf52840_xxAA_s140_6.0.0.dir/__/__/mesh/core/src/flash_manager_internal.c.obj
 .comment       0x0000007f       0x80 examples/enocean_switch/CMakeFiles/enocean_switch_nrf52840_xxAA_s140_6.0.0.dir/__/__/mesh/core/src/core_tx.c.obj
 .comment       0x0000007f       0x80 examples/enocean_switch/CMakeFiles/enocean_switch_nrf52840_xxAA_s140_6.0.0.dir/__/__/mesh/core/src/heartbeat.c.obj
 .comment       0x0000007f       0x80 examples/enocean_switch/CMakeFiles/enocean_switch_nrf52840_xxAA_s140_6.0.0.dir/__/__/mesh/core/src/net_beacon.c.obj
 .comment       0x0000007f       0x80 examples/enocean_switch/CMakeFiles/enocean_switch_nrf52840_xxAA_s140_6.0.0.dir/__/__/mesh/core/src/core_tx_adv.c.obj
 .comment       0x0000007f       0x80 examples/enocean_switch/CMakeFiles/enocean_switch_nrf52840_xxAA_s140_6.0.0.dir/__/__/mesh/bearer/src/ad_listener.c.obj
 .comment       0x0000007f       0x80 examples/enocean_switch/CMakeFiles/enocean_switch_nrf52840_xxAA_s140_6.0.0.dir/__/__/mesh/bearer/src/ad_type_filter.c.obj
 .comment       0x0000007f       0x80 examples/enocean_switch/CMakeFiles/enocean_switch_nrf52840_xxAA_s140_6.0.0.dir/__/__/mesh/bearer/src/advertiser.c.obj
 .comment       0x0000007f       0x80 examples/enocean_switch/CMakeFiles/enocean_switch_nrf52840_xxAA_s140_6.0.0.dir/__/__/mesh/bearer/src/bearer_handler.c.obj
 .comment       0x0000007f       0x80 examples/enocean_switch/CMakeFiles/enocean_switch_nrf52840_xxAA_s140_6.0.0.dir/__/__/mesh/bearer/src/broadcast.c.obj
 .comment       0x0000007f       0x80 examples/enocean_switch/CMakeFiles/enocean_switch_nrf52840_xxAA_s140_6.0.0.dir/__/__/mesh/bearer/src/filter_engine.c.obj
 .comment       0x0000007f       0x80 examples/enocean_switch/CMakeFiles/enocean_switch_nrf52840_xxAA_s140_6.0.0.dir/__/__/mesh/bearer/src/radio_config.c.obj
 .comment       0x0000007f       0x80 examples/enocean_switch/CMakeFiles/enocean_switch_nrf52840_xxAA_s140_6.0.0.dir/__/__/mesh/bearer/src/scanner.c.obj
 .comment       0x0000007f       0x80 examples/enocean_switch/CMakeFiles/enocean_switch_nrf52840_xxAA_s140_6.0.0.dir/__/__/models/simple_on_off/src/simple_on_off_client.c.obj
 .comment       0x0000007f       0x80 examples/enocean_switch/CMakeFiles/enocean_switch_nrf52840_xxAA_s140_6.0.0.dir/__/__/models/config/src/composition_data.c.obj
 .comment       0x0000007f       0x80 examples/enocean_switch/CMakeFiles/enocean_switch_nrf52840_xxAA_s140_6.0.0.dir/__/__/models/config/src/config_server.c.obj
 .comment       0x0000007f       0x80 examples/enocean_switch/CMakeFiles/enocean_switch_nrf52840_xxAA_s140_6.0.0.dir/__/__/models/config/src/packed_index_list.c.obj
 .comment       0x0000007f       0x80 examples/enocean_switch/CMakeFiles/enocean_switch_nrf52840_xxAA_s140_6.0.0.dir/__/__/models/health/src/health_server.c.obj
 .comment       0x0000007f       0x80 examples/enocean_switch/CMakeFiles/enocean_switch_nrf52840_xxAA_s140_6.0.0.dir/__/__/mesh/access/src/access_publish.c.obj
 .comment       0x0000007f       0x80 examples/enocean_switch/CMakeFiles/enocean_switch_nrf52840_xxAA_s140_6.0.0.dir/__/__/mesh/access/src/access.c.obj
 .comment       0x0000007f       0x80 examples/enocean_switch/CMakeFiles/enocean_switch_nrf52840_xxAA_s140_6.0.0.dir/__/__/mesh/access/src/access_reliable.c.obj
 .comment       0x0000007f       0x80 examples/enocean_switch/CMakeFiles/enocean_switch_nrf52840_xxAA_s140_6.0.0.dir/__/__/mesh/access/src/device_state_manager.c.obj
 .comment       0x0000007f       0x80 examples/enocean_switch/CMakeFiles/enocean_switch_nrf52840_xxAA_s140_6.0.0.dir/__/__/mesh/prov/src/prov_provisionee.c.obj
 .comment       0x0000007f       0x80 examples/enocean_switch/CMakeFiles/enocean_switch_nrf52840_xxAA_s140_6.0.0.dir/__/__/mesh/prov/src/nrf_mesh_prov.c.obj
 .comment       0x0000007f       0x80 examples/enocean_switch/CMakeFiles/enocean_switch_nrf52840_xxAA_s140_6.0.0.dir/__/__/mesh/prov/src/provisioning.c.obj
 .comment       0x0000007f       0x80 examples/enocean_switch/CMakeFiles/enocean_switch_nrf52840_xxAA_s140_6.0.0.dir/__/__/mesh/prov/src/prov_beacon.c.obj
 .comment       0x0000007f       0x80 examples/enocean_switch/CMakeFiles/enocean_switch_nrf52840_xxAA_s140_6.0.0.dir/__/__/mesh/prov/src/prov_utils.c.obj
 .comment       0x0000007f       0x80 examples/enocean_switch/CMakeFiles/enocean_switch_nrf52840_xxAA_s140_6.0.0.dir/__/__/mesh/prov/src/prov_bearer_adv.c.obj
 .comment       0x0000007f       0x80 examples/enocean_switch/CMakeFiles/enocean_switch_nrf52840_xxAA_s140_6.0.0.dir/C_/b/nRF5_SDK_15.0.0_a53641a/modules/nrfx/mdk/system_nrf52840.c.obj
 .comment       0x0000007f       0x80 examples/enocean_switch/CMakeFiles/enocean_switch_nrf52840_xxAA_s140_6.0.0.dir/C_/b/nRF5_SDK_15.0.0_a53641a/components/libraries/util/app_error.c.obj
 .comment       0x0000007f       0x80 examples/enocean_switch/CMakeFiles/enocean_switch_nrf52840_xxAA_s140_6.0.0.dir/C_/b/nRF5_SDK_15.0.0_a53641a/components/libraries/util/app_error_handler_gcc.c.obj
 .comment       0x0000007f       0x80 external/rtt/librtt_nrf52840_xxAA.a(SEGGER_RTT.c.obj)
 .comment       0x0000007f       0x80 external/rtt/librtt_nrf52840_xxAA.a(SEGGER_RTT_printf.c.obj)
 .comment       0x0000007f       0x80 external/micro-ecc/libuECC_nrf52840_xxAA.a(uECC.c.obj)

.debug_info     0x00000000    0x83093
 .debug_info    0x00000000     0x423b examples/enocean_switch/CMakeFiles/enocean_switch_nrf52840_xxAA_s140_6.0.0.dir/src/main.c.obj
 .debug_info    0x0000423b     0x19e8 examples/enocean_switch/CMakeFiles/enocean_switch_nrf52840_xxAA_s140_6.0.0.dir/src/enocean.c.obj
 .debug_info    0x00005c23     0x1705 examples/enocean_switch/CMakeFiles/enocean_switch_nrf52840_xxAA_s140_6.0.0.dir/src/flash_helper.c.obj
 .debug_info    0x00007328     0x230b examples/enocean_switch/CMakeFiles/enocean_switch_nrf52840_xxAA_s140_6.0.0.dir/__/__/mesh/stack/src/mesh_stack.c.obj
 .debug_info    0x00009633     0x1756 examples/enocean_switch/CMakeFiles/enocean_switch_nrf52840_xxAA_s140_6.0.0.dir/__/common/src/mesh_softdevice_init.c.obj
 .debug_info    0x0000ad89     0x2171 examples/enocean_switch/CMakeFiles/enocean_switch_nrf52840_xxAA_s140_6.0.0.dir/__/common/src/mesh_provisionee.c.obj
 .debug_info    0x0000cefa     0x1193 examples/enocean_switch/CMakeFiles/enocean_switch_nrf52840_xxAA_s140_6.0.0.dir/__/common/src/rtt_input.c.obj
 .debug_info    0x0000e08d     0x1590 examples/enocean_switch/CMakeFiles/enocean_switch_nrf52840_xxAA_s140_6.0.0.dir/__/common/src/simple_hal.c.obj
 .debug_info    0x0000f61d      0x924 examples/enocean_switch/CMakeFiles/enocean_switch_nrf52840_xxAA_s140_6.0.0.dir/__/nrf_mesh_weak.c.obj
 .debug_info    0x0000ff41     0x106b examples/enocean_switch/CMakeFiles/enocean_switch_nrf52840_xxAA_s140_6.0.0.dir/__/common/src/app_error_weak.c.obj
 .debug_info    0x00010fac      0x99b examples/enocean_switch/CMakeFiles/enocean_switch_nrf52840_xxAA_s140_6.0.0.dir/__/common/src/assertion_handler_weak.c.obj
 .debug_info    0x00011947      0xdff examples/enocean_switch/CMakeFiles/enocean_switch_nrf52840_xxAA_s140_6.0.0.dir/__/__/mesh/core/src/nrf_mesh_configure.c.obj
 .debug_info    0x00012746      0xbf0 examples/enocean_switch/CMakeFiles/enocean_switch_nrf52840_xxAA_s140_6.0.0.dir/__/__/mesh/core/src/aes.c.obj
 .debug_info    0x00013336      0xa5a examples/enocean_switch/CMakeFiles/enocean_switch_nrf52840_xxAA_s140_6.0.0.dir/__/__/mesh/core/src/msg_cache.c.obj
 .debug_info    0x00013d90     0x5086 examples/enocean_switch/CMakeFiles/enocean_switch_nrf52840_xxAA_s140_6.0.0.dir/__/__/mesh/core/src/transport.c.obj
 .debug_info    0x00018e16     0x171f examples/enocean_switch/CMakeFiles/enocean_switch_nrf52840_xxAA_s140_6.0.0.dir/__/__/mesh/core/src/event.c.obj
 .debug_info    0x0001a535     0x1a22 examples/enocean_switch/CMakeFiles/enocean_switch_nrf52840_xxAA_s140_6.0.0.dir/__/__/mesh/core/src/packet_buffer.c.obj
 .debug_info    0x0001bf57     0x212b examples/enocean_switch/CMakeFiles/enocean_switch_nrf52840_xxAA_s140_6.0.0.dir/__/__/mesh/core/src/flash_manager_defrag.c.obj
 .debug_info    0x0001e082      0xd19 examples/enocean_switch/CMakeFiles/enocean_switch_nrf52840_xxAA_s140_6.0.0.dir/__/__/mesh/core/src/fifo.c.obj
 .debug_info    0x0001ed9b      0xb58 examples/enocean_switch/CMakeFiles/enocean_switch_nrf52840_xxAA_s140_6.0.0.dir/__/__/mesh/core/src/nrf_flash.c.obj
 .debug_info    0x0001f8f3     0x118d examples/enocean_switch/CMakeFiles/enocean_switch_nrf52840_xxAA_s140_6.0.0.dir/__/__/mesh/core/src/packet_mgr.c.obj
 .debug_info    0x00020a80     0x27ed examples/enocean_switch/CMakeFiles/enocean_switch_nrf52840_xxAA_s140_6.0.0.dir/__/__/mesh/core/src/net_state.c.obj
 .debug_info    0x0002326d     0x1931 examples/enocean_switch/CMakeFiles/enocean_switch_nrf52840_xxAA_s140_6.0.0.dir/__/__/mesh/core/src/mesh_flash.c.obj
 .debug_info    0x00024b9e      0xa78 examples/enocean_switch/CMakeFiles/enocean_switch_nrf52840_xxAA_s140_6.0.0.dir/__/__/mesh/core/src/nrf_mesh_utils.c.obj
 .debug_info    0x00025616     0x25a6 examples/enocean_switch/CMakeFiles/enocean_switch_nrf52840_xxAA_s140_6.0.0.dir/__/__/mesh/core/src/nrf_mesh.c.obj
 .debug_info    0x00027bbc      0xb11 examples/enocean_switch/CMakeFiles/enocean_switch_nrf52840_xxAA_s140_6.0.0.dir/__/__/mesh/core/src/queue.c.obj
 .debug_info    0x000286cd      0x51a examples/enocean_switch/CMakeFiles/enocean_switch_nrf52840_xxAA_s140_6.0.0.dir/__/__/mesh/core/src/hal.c.obj
 .debug_info    0x00028be7      0xe48 examples/enocean_switch/CMakeFiles/enocean_switch_nrf52840_xxAA_s140_6.0.0.dir/__/__/mesh/core/src/aes_cmac.c.obj
 .debug_info    0x00029a2f     0x10e0 examples/enocean_switch/CMakeFiles/enocean_switch_nrf52840_xxAA_s140_6.0.0.dir/__/__/mesh/core/src/timer_scheduler.c.obj
 .debug_info    0x0002ab0f      0xdb4 examples/enocean_switch/CMakeFiles/enocean_switch_nrf52840_xxAA_s140_6.0.0.dir/__/__/mesh/core/src/timer.c.obj
 .debug_info    0x0002b8c3      0x20b examples/enocean_switch/CMakeFiles/enocean_switch_nrf52840_xxAA_s140_6.0.0.dir/__/__/mesh/core/src/ticker.c.obj
 .debug_info    0x0002bace      0x426 examples/enocean_switch/CMakeFiles/enocean_switch_nrf52840_xxAA_s140_6.0.0.dir/__/__/mesh/core/src/rand.c.obj
 .debug_info    0x0002bef4      0xaf5 examples/enocean_switch/CMakeFiles/enocean_switch_nrf52840_xxAA_s140_6.0.0.dir/__/__/mesh/core/src/nrf_mesh_opt.c.obj
 .debug_info    0x0002c9e9     0x1a71 examples/enocean_switch/CMakeFiles/enocean_switch_nrf52840_xxAA_s140_6.0.0.dir/__/__/mesh/core/src/timeslot.c.obj
 .debug_info    0x0002e45a     0x1a9c examples/enocean_switch/CMakeFiles/enocean_switch_nrf52840_xxAA_s140_6.0.0.dir/__/__/mesh/core/src/bearer_event.c.obj
 .debug_info    0x0002fef6     0x1703 examples/enocean_switch/CMakeFiles/enocean_switch_nrf52840_xxAA_s140_6.0.0.dir/__/__/mesh/core/src/enc.c.obj
 .debug_info    0x000315f9     0x1acb examples/enocean_switch/CMakeFiles/enocean_switch_nrf52840_xxAA_s140_6.0.0.dir/__/__/mesh/core/src/network.c.obj
 .debug_info    0x000330c4     0x1cad examples/enocean_switch/CMakeFiles/enocean_switch_nrf52840_xxAA_s140_6.0.0.dir/__/__/mesh/core/src/net_packet.c.obj
 .debug_info    0x00034d71      0xd86 examples/enocean_switch/CMakeFiles/enocean_switch_nrf52840_xxAA_s140_6.0.0.dir/__/__/mesh/core/src/msqueue.c.obj
 .debug_info    0x00035af7      0x4c7 examples/enocean_switch/CMakeFiles/enocean_switch_nrf52840_xxAA_s140_6.0.0.dir/__/__/mesh/core/src/nrf_mesh_keygen.c.obj
 .debug_info    0x00035fbe      0x506 examples/enocean_switch/CMakeFiles/enocean_switch_nrf52840_xxAA_s140_6.0.0.dir/__/__/mesh/core/src/list.c.obj
 .debug_info    0x000364c4      0xe28 examples/enocean_switch/CMakeFiles/enocean_switch_nrf52840_xxAA_s140_6.0.0.dir/__/__/mesh/core/src/log.c.obj
 .debug_info    0x000372ec     0x3024 examples/enocean_switch/CMakeFiles/enocean_switch_nrf52840_xxAA_s140_6.0.0.dir/__/__/mesh/core/src/flash_manager.c.obj
 .debug_info    0x0003a310     0x10a3 examples/enocean_switch/CMakeFiles/enocean_switch_nrf52840_xxAA_s140_6.0.0.dir/__/__/mesh/core/src/ccm_soft.c.obj
 .debug_info    0x0003b3b3      0xa93 examples/enocean_switch/CMakeFiles/enocean_switch_nrf52840_xxAA_s140_6.0.0.dir/__/__/mesh/core/src/replay_cache.c.obj
 .debug_info    0x0003be46     0x177f examples/enocean_switch/CMakeFiles/enocean_switch_nrf52840_xxAA_s140_6.0.0.dir/__/__/mesh/core/src/beacon.c.obj
 .debug_info    0x0003d5c5      0xb9b examples/enocean_switch/CMakeFiles/enocean_switch_nrf52840_xxAA_s140_6.0.0.dir/__/__/mesh/core/src/flash_manager_internal.c.obj
 .debug_info    0x0003e160     0x126f examples/enocean_switch/CMakeFiles/enocean_switch_nrf52840_xxAA_s140_6.0.0.dir/__/__/mesh/core/src/core_tx.c.obj
 .debug_info    0x0003f3cf     0x24d8 examples/enocean_switch/CMakeFiles/enocean_switch_nrf52840_xxAA_s140_6.0.0.dir/__/__/mesh/core/src/heartbeat.c.obj
 .debug_info    0x000418a7     0x28ac examples/enocean_switch/CMakeFiles/enocean_switch_nrf52840_xxAA_s140_6.0.0.dir/__/__/mesh/core/src/net_beacon.c.obj
 .debug_info    0x00044153     0x197b examples/enocean_switch/CMakeFiles/enocean_switch_nrf52840_xxAA_s140_6.0.0.dir/__/__/mesh/core/src/core_tx_adv.c.obj
 .debug_info    0x00045ace     0x1164 examples/enocean_switch/CMakeFiles/enocean_switch_nrf52840_xxAA_s140_6.0.0.dir/__/__/mesh/bearer/src/ad_listener.c.obj
 .debug_info    0x00046c32      0xfbe examples/enocean_switch/CMakeFiles/enocean_switch_nrf52840_xxAA_s140_6.0.0.dir/__/__/mesh/bearer/src/ad_type_filter.c.obj
 .debug_info    0x00047bf0     0x267f examples/enocean_switch/CMakeFiles/enocean_switch_nrf52840_xxAA_s140_6.0.0.dir/__/__/mesh/bearer/src/advertiser.c.obj
 .debug_info    0x0004a26f     0x1b53 examples/enocean_switch/CMakeFiles/enocean_switch_nrf52840_xxAA_s140_6.0.0.dir/__/__/mesh/bearer/src/bearer_handler.c.obj
 .debug_info    0x0004bdc2     0x1af7 examples/enocean_switch/CMakeFiles/enocean_switch_nrf52840_xxAA_s140_6.0.0.dir/__/__/mesh/bearer/src/broadcast.c.obj
 .debug_info    0x0004d8b9      0xcff examples/enocean_switch/CMakeFiles/enocean_switch_nrf52840_xxAA_s140_6.0.0.dir/__/__/mesh/bearer/src/filter_engine.c.obj
 .debug_info    0x0004e5b8      0xa35 examples/enocean_switch/CMakeFiles/enocean_switch_nrf52840_xxAA_s140_6.0.0.dir/__/__/mesh/bearer/src/radio_config.c.obj
 .debug_info    0x0004efed     0x27a3 examples/enocean_switch/CMakeFiles/enocean_switch_nrf52840_xxAA_s140_6.0.0.dir/__/__/mesh/bearer/src/scanner.c.obj
 .debug_info    0x00051790     0x16d0 examples/enocean_switch/CMakeFiles/enocean_switch_nrf52840_xxAA_s140_6.0.0.dir/__/__/models/simple_on_off/src/simple_on_off_client.c.obj
 .debug_info    0x00052e60      0xed7 examples/enocean_switch/CMakeFiles/enocean_switch_nrf52840_xxAA_s140_6.0.0.dir/__/__/models/config/src/composition_data.c.obj
 .debug_info    0x00053d37     0x8a99 examples/enocean_switch/CMakeFiles/enocean_switch_nrf52840_xxAA_s140_6.0.0.dir/__/__/models/config/src/config_server.c.obj
 .debug_info    0x0005c7d0      0x126 examples/enocean_switch/CMakeFiles/enocean_switch_nrf52840_xxAA_s140_6.0.0.dir/__/__/models/config/src/packed_index_list.c.obj
 .debug_info    0x0005c8f6     0x270a examples/enocean_switch/CMakeFiles/enocean_switch_nrf52840_xxAA_s140_6.0.0.dir/__/__/models/health/src/health_server.c.obj
 .debug_info    0x0005f000     0x1155 examples/enocean_switch/CMakeFiles/enocean_switch_nrf52840_xxAA_s140_6.0.0.dir/__/__/mesh/access/src/access_publish.c.obj
 .debug_info    0x00060155     0x49d7 examples/enocean_switch/CMakeFiles/enocean_switch_nrf52840_xxAA_s140_6.0.0.dir/__/__/mesh/access/src/access.c.obj
 .debug_info    0x00064b2c     0x19df examples/enocean_switch/CMakeFiles/enocean_switch_nrf52840_xxAA_s140_6.0.0.dir/__/__/mesh/access/src/access_reliable.c.obj
 .debug_info    0x0006650b     0x65d4 examples/enocean_switch/CMakeFiles/enocean_switch_nrf52840_xxAA_s140_6.0.0.dir/__/__/mesh/access/src/device_state_manager.c.obj
 .debug_info    0x0006cadf     0x2823 examples/enocean_switch/CMakeFiles/enocean_switch_nrf52840_xxAA_s140_6.0.0.dir/__/__/mesh/prov/src/prov_provisionee.c.obj
 .debug_info    0x0006f302     0x1ed2 examples/enocean_switch/CMakeFiles/enocean_switch_nrf52840_xxAA_s140_6.0.0.dir/__/__/mesh/prov/src/nrf_mesh_prov.c.obj
 .debug_info    0x000711d4     0x1586 examples/enocean_switch/CMakeFiles/enocean_switch_nrf52840_xxAA_s140_6.0.0.dir/__/__/mesh/prov/src/provisioning.c.obj
 .debug_info    0x0007275a     0x1a48 examples/enocean_switch/CMakeFiles/enocean_switch_nrf52840_xxAA_s140_6.0.0.dir/__/__/mesh/prov/src/prov_beacon.c.obj
 .debug_info    0x000741a2     0x2054 examples/enocean_switch/CMakeFiles/enocean_switch_nrf52840_xxAA_s140_6.0.0.dir/__/__/mesh/prov/src/prov_utils.c.obj
 .debug_info    0x000761f6     0x3ab2 examples/enocean_switch/CMakeFiles/enocean_switch_nrf52840_xxAA_s140_6.0.0.dir/__/__/mesh/prov/src/prov_bearer_adv.c.obj
 .debug_info    0x00079ca8     0x139f examples/enocean_switch/CMakeFiles/enocean_switch_nrf52840_xxAA_s140_6.0.0.dir/C_/b/nRF5_SDK_15.0.0_a53641a/modules/nrfx/mdk/system_nrf52840.c.obj
 .debug_info    0x0007b047      0xaee examples/enocean_switch/CMakeFiles/enocean_switch_nrf52840_xxAA_s140_6.0.0.dir/C_/b/nRF5_SDK_15.0.0_a53641a/components/libraries/util/app_error.c.obj
 .debug_info    0x0007bb35      0x974 examples/enocean_switch/CMakeFiles/enocean_switch_nrf52840_xxAA_s140_6.0.0.dir/C_/b/nRF5_SDK_15.0.0_a53641a/components/libraries/util/app_error_handler_gcc.c.obj
 .debug_info    0x0007c4a9     0x1818 external/rtt/librtt_nrf52840_xxAA.a(SEGGER_RTT.c.obj)
 .debug_info    0x0007dcc1      0xec1 external/rtt/librtt_nrf52840_xxAA.a(SEGGER_RTT_printf.c.obj)
 .debug_info    0x0007eb82     0x4511 external/micro-ecc/libuECC_nrf52840_xxAA.a(uECC.c.obj)

.debug_abbrev   0x00000000    0x112bf
 .debug_abbrev  0x00000000      0x5c6 examples/enocean_switch/CMakeFiles/enocean_switch_nrf52840_xxAA_s140_6.0.0.dir/src/main.c.obj
 .debug_abbrev  0x000005c6      0x3a6 examples/enocean_switch/CMakeFiles/enocean_switch_nrf52840_xxAA_s140_6.0.0.dir/src/enocean.c.obj
 .debug_abbrev  0x0000096c      0x413 examples/enocean_switch/CMakeFiles/enocean_switch_nrf52840_xxAA_s140_6.0.0.dir/src/flash_helper.c.obj
 .debug_abbrev  0x00000d7f      0x36b examples/enocean_switch/CMakeFiles/enocean_switch_nrf52840_xxAA_s140_6.0.0.dir/__/__/mesh/stack/src/mesh_stack.c.obj
 .debug_abbrev  0x000010ea      0x40b examples/enocean_switch/CMakeFiles/enocean_switch_nrf52840_xxAA_s140_6.0.0.dir/__/common/src/mesh_softdevice_init.c.obj
 .debug_abbrev  0x000014f5      0x312 examples/enocean_switch/CMakeFiles/enocean_switch_nrf52840_xxAA_s140_6.0.0.dir/__/common/src/mesh_provisionee.c.obj
 .debug_abbrev  0x00001807      0x2b8 examples/enocean_switch/CMakeFiles/enocean_switch_nrf52840_xxAA_s140_6.0.0.dir/__/common/src/rtt_input.c.obj
 .debug_abbrev  0x00001abf      0x36b examples/enocean_switch/CMakeFiles/enocean_switch_nrf52840_xxAA_s140_6.0.0.dir/__/common/src/simple_hal.c.obj
 .debug_abbrev  0x00001e2a      0x1ae examples/enocean_switch/CMakeFiles/enocean_switch_nrf52840_xxAA_s140_6.0.0.dir/__/nrf_mesh_weak.c.obj
 .debug_abbrev  0x00001fd8      0x2de examples/enocean_switch/CMakeFiles/enocean_switch_nrf52840_xxAA_s140_6.0.0.dir/__/common/src/app_error_weak.c.obj
 .debug_abbrev  0x000022b6      0x1f6 examples/enocean_switch/CMakeFiles/enocean_switch_nrf52840_xxAA_s140_6.0.0.dir/__/common/src/assertion_handler_weak.c.obj
 .debug_abbrev  0x000024ac      0x254 examples/enocean_switch/CMakeFiles/enocean_switch_nrf52840_xxAA_s140_6.0.0.dir/__/__/mesh/core/src/nrf_mesh_configure.c.obj
 .debug_abbrev  0x00002700      0x264 examples/enocean_switch/CMakeFiles/enocean_switch_nrf52840_xxAA_s140_6.0.0.dir/__/__/mesh/core/src/aes.c.obj
 .debug_abbrev  0x00002964      0x25d examples/enocean_switch/CMakeFiles/enocean_switch_nrf52840_xxAA_s140_6.0.0.dir/__/__/mesh/core/src/msg_cache.c.obj
 .debug_abbrev  0x00002bc1      0x5e8 examples/enocean_switch/CMakeFiles/enocean_switch_nrf52840_xxAA_s140_6.0.0.dir/__/__/mesh/core/src/transport.c.obj
 .debug_abbrev  0x000031a9      0x2be examples/enocean_switch/CMakeFiles/enocean_switch_nrf52840_xxAA_s140_6.0.0.dir/__/__/mesh/core/src/event.c.obj
 .debug_abbrev  0x00003467      0x468 examples/enocean_switch/CMakeFiles/enocean_switch_nrf52840_xxAA_s140_6.0.0.dir/__/__/mesh/core/src/packet_buffer.c.obj
 .debug_abbrev  0x000038cf      0x50e examples/enocean_switch/CMakeFiles/enocean_switch_nrf52840_xxAA_s140_6.0.0.dir/__/__/mesh/core/src/flash_manager_defrag.c.obj
 .debug_abbrev  0x00003ddd      0x2f2 examples/enocean_switch/CMakeFiles/enocean_switch_nrf52840_xxAA_s140_6.0.0.dir/__/__/mesh/core/src/fifo.c.obj
 .debug_abbrev  0x000040cf      0x21f examples/enocean_switch/CMakeFiles/enocean_switch_nrf52840_xxAA_s140_6.0.0.dir/__/__/mesh/core/src/nrf_flash.c.obj
 .debug_abbrev  0x000042ee      0x3b1 examples/enocean_switch/CMakeFiles/enocean_switch_nrf52840_xxAA_s140_6.0.0.dir/__/__/mesh/core/src/packet_mgr.c.obj
 .debug_abbrev  0x0000469f      0x552 examples/enocean_switch/CMakeFiles/enocean_switch_nrf52840_xxAA_s140_6.0.0.dir/__/__/mesh/core/src/net_state.c.obj
 .debug_abbrev  0x00004bf1      0x453 examples/enocean_switch/CMakeFiles/enocean_switch_nrf52840_xxAA_s140_6.0.0.dir/__/__/mesh/core/src/mesh_flash.c.obj
 .debug_abbrev  0x00005044      0x242 examples/enocean_switch/CMakeFiles/enocean_switch_nrf52840_xxAA_s140_6.0.0.dir/__/__/mesh/core/src/nrf_mesh_utils.c.obj
 .debug_abbrev  0x00005286      0x476 examples/enocean_switch/CMakeFiles/enocean_switch_nrf52840_xxAA_s140_6.0.0.dir/__/__/mesh/core/src/nrf_mesh.c.obj
 .debug_abbrev  0x000056fc      0x247 examples/enocean_switch/CMakeFiles/enocean_switch_nrf52840_xxAA_s140_6.0.0.dir/__/__/mesh/core/src/queue.c.obj
 .debug_abbrev  0x00005943      0x1cf examples/enocean_switch/CMakeFiles/enocean_switch_nrf52840_xxAA_s140_6.0.0.dir/__/__/mesh/core/src/hal.c.obj
 .debug_abbrev  0x00005b12      0x332 examples/enocean_switch/CMakeFiles/enocean_switch_nrf52840_xxAA_s140_6.0.0.dir/__/__/mesh/core/src/aes_cmac.c.obj
 .debug_abbrev  0x00005e44      0x3bc examples/enocean_switch/CMakeFiles/enocean_switch_nrf52840_xxAA_s140_6.0.0.dir/__/__/mesh/core/src/timer_scheduler.c.obj
 .debug_abbrev  0x00006200      0x337 examples/enocean_switch/CMakeFiles/enocean_switch_nrf52840_xxAA_s140_6.0.0.dir/__/__/mesh/core/src/timer.c.obj
 .debug_abbrev  0x00006537      0x152 examples/enocean_switch/CMakeFiles/enocean_switch_nrf52840_xxAA_s140_6.0.0.dir/__/__/mesh/core/src/ticker.c.obj
 .debug_abbrev  0x00006689      0x194 examples/enocean_switch/CMakeFiles/enocean_switch_nrf52840_xxAA_s140_6.0.0.dir/__/__/mesh/core/src/rand.c.obj
 .debug_abbrev  0x0000681d      0x24a examples/enocean_switch/CMakeFiles/enocean_switch_nrf52840_xxAA_s140_6.0.0.dir/__/__/mesh/core/src/nrf_mesh_opt.c.obj
 .debug_abbrev  0x00006a67      0x4a4 examples/enocean_switch/CMakeFiles/enocean_switch_nrf52840_xxAA_s140_6.0.0.dir/__/__/mesh/core/src/timeslot.c.obj
 .debug_abbrev  0x00006f0b      0x4b5 examples/enocean_switch/CMakeFiles/enocean_switch_nrf52840_xxAA_s140_6.0.0.dir/__/__/mesh/core/src/bearer_event.c.obj
 .debug_abbrev  0x000073c0      0x375 examples/enocean_switch/CMakeFiles/enocean_switch_nrf52840_xxAA_s140_6.0.0.dir/__/__/mesh/core/src/enc.c.obj
 .debug_abbrev  0x00007735      0x496 examples/enocean_switch/CMakeFiles/enocean_switch_nrf52840_xxAA_s140_6.0.0.dir/__/__/mesh/core/src/network.c.obj
 .debug_abbrev  0x00007bcb      0x4a1 examples/enocean_switch/CMakeFiles/enocean_switch_nrf52840_xxAA_s140_6.0.0.dir/__/__/mesh/core/src/net_packet.c.obj
 .debug_abbrev  0x0000806c      0x2c0 examples/enocean_switch/CMakeFiles/enocean_switch_nrf52840_xxAA_s140_6.0.0.dir/__/__/mesh/core/src/msqueue.c.obj
 .debug_abbrev  0x0000832c      0x156 examples/enocean_switch/CMakeFiles/enocean_switch_nrf52840_xxAA_s140_6.0.0.dir/__/__/mesh/core/src/nrf_mesh_keygen.c.obj
 .debug_abbrev  0x00008482      0x1a4 examples/enocean_switch/CMakeFiles/enocean_switch_nrf52840_xxAA_s140_6.0.0.dir/__/__/mesh/core/src/list.c.obj
 .debug_abbrev  0x00008626      0x24e examples/enocean_switch/CMakeFiles/enocean_switch_nrf52840_xxAA_s140_6.0.0.dir/__/__/mesh/core/src/log.c.obj
 .debug_abbrev  0x00008874      0x524 examples/enocean_switch/CMakeFiles/enocean_switch_nrf52840_xxAA_s140_6.0.0.dir/__/__/mesh/core/src/flash_manager.c.obj
 .debug_abbrev  0x00008d98      0x2b3 examples/enocean_switch/CMakeFiles/enocean_switch_nrf52840_xxAA_s140_6.0.0.dir/__/__/mesh/core/src/ccm_soft.c.obj
 .debug_abbrev  0x0000904b      0x270 examples/enocean_switch/CMakeFiles/enocean_switch_nrf52840_xxAA_s140_6.0.0.dir/__/__/mesh/core/src/replay_cache.c.obj
 .debug_abbrev  0x000092bb      0x2c4 examples/enocean_switch/CMakeFiles/enocean_switch_nrf52840_xxAA_s140_6.0.0.dir/__/__/mesh/core/src/beacon.c.obj
 .debug_abbrev  0x0000957f      0x288 examples/enocean_switch/CMakeFiles/enocean_switch_nrf52840_xxAA_s140_6.0.0.dir/__/__/mesh/core/src/flash_manager_internal.c.obj
 .debug_abbrev  0x00009807      0x2ed examples/enocean_switch/CMakeFiles/enocean_switch_nrf52840_xxAA_s140_6.0.0.dir/__/__/mesh/core/src/core_tx.c.obj
 .debug_abbrev  0x00009af4      0x4be examples/enocean_switch/CMakeFiles/enocean_switch_nrf52840_xxAA_s140_6.0.0.dir/__/__/mesh/core/src/heartbeat.c.obj
 .debug_abbrev  0x00009fb2      0x4ac examples/enocean_switch/CMakeFiles/enocean_switch_nrf52840_xxAA_s140_6.0.0.dir/__/__/mesh/core/src/net_beacon.c.obj
 .debug_abbrev  0x0000a45e      0x2fa examples/enocean_switch/CMakeFiles/enocean_switch_nrf52840_xxAA_s140_6.0.0.dir/__/__/mesh/core/src/core_tx_adv.c.obj
 .debug_abbrev  0x0000a758      0x341 examples/enocean_switch/CMakeFiles/enocean_switch_nrf52840_xxAA_s140_6.0.0.dir/__/__/mesh/bearer/src/ad_listener.c.obj
 .debug_abbrev  0x0000aa99      0x368 examples/enocean_switch/CMakeFiles/enocean_switch_nrf52840_xxAA_s140_6.0.0.dir/__/__/mesh/bearer/src/ad_type_filter.c.obj
 .debug_abbrev  0x0000ae01      0x4ed examples/enocean_switch/CMakeFiles/enocean_switch_nrf52840_xxAA_s140_6.0.0.dir/__/__/mesh/bearer/src/advertiser.c.obj
 .debug_abbrev  0x0000b2ee      0x3e2 examples/enocean_switch/CMakeFiles/enocean_switch_nrf52840_xxAA_s140_6.0.0.dir/__/__/mesh/bearer/src/bearer_handler.c.obj
 .debug_abbrev  0x0000b6d0      0x3c8 examples/enocean_switch/CMakeFiles/enocean_switch_nrf52840_xxAA_s140_6.0.0.dir/__/__/mesh/bearer/src/broadcast.c.obj
 .debug_abbrev  0x0000ba98      0x2a6 examples/enocean_switch/CMakeFiles/enocean_switch_nrf52840_xxAA_s140_6.0.0.dir/__/__/mesh/bearer/src/filter_engine.c.obj
 .debug_abbrev  0x0000bd3e      0x1d5 examples/enocean_switch/CMakeFiles/enocean_switch_nrf52840_xxAA_s140_6.0.0.dir/__/__/mesh/bearer/src/radio_config.c.obj
 .debug_abbrev  0x0000bf13      0x52a examples/enocean_switch/CMakeFiles/enocean_switch_nrf52840_xxAA_s140_6.0.0.dir/__/__/mesh/bearer/src/scanner.c.obj
 .debug_abbrev  0x0000c43d      0x3c6 examples/enocean_switch/CMakeFiles/enocean_switch_nrf52840_xxAA_s140_6.0.0.dir/__/__/models/simple_on_off/src/simple_on_off_client.c.obj
 .debug_abbrev  0x0000c803      0x2e2 examples/enocean_switch/CMakeFiles/enocean_switch_nrf52840_xxAA_s140_6.0.0.dir/__/__/models/config/src/composition_data.c.obj
 .debug_abbrev  0x0000cae5      0x54e examples/enocean_switch/CMakeFiles/enocean_switch_nrf52840_xxAA_s140_6.0.0.dir/__/__/models/config/src/config_server.c.obj
 .debug_abbrev  0x0000d033       0x95 examples/enocean_switch/CMakeFiles/enocean_switch_nrf52840_xxAA_s140_6.0.0.dir/__/__/models/config/src/packed_index_list.c.obj
 .debug_abbrev  0x0000d0c8      0x4d0 examples/enocean_switch/CMakeFiles/enocean_switch_nrf52840_xxAA_s140_6.0.0.dir/__/__/models/health/src/health_server.c.obj
 .debug_abbrev  0x0000d598      0x434 examples/enocean_switch/CMakeFiles/enocean_switch_nrf52840_xxAA_s140_6.0.0.dir/__/__/mesh/access/src/access_publish.c.obj
 .debug_abbrev  0x0000d9cc      0x637 examples/enocean_switch/CMakeFiles/enocean_switch_nrf52840_xxAA_s140_6.0.0.dir/__/__/mesh/access/src/access.c.obj
 .debug_abbrev  0x0000e003      0x448 examples/enocean_switch/CMakeFiles/enocean_switch_nrf52840_xxAA_s140_6.0.0.dir/__/__/mesh/access/src/access_reliable.c.obj
 .debug_abbrev  0x0000e44b      0x604 examples/enocean_switch/CMakeFiles/enocean_switch_nrf52840_xxAA_s140_6.0.0.dir/__/__/mesh/access/src/device_state_manager.c.obj
 .debug_abbrev  0x0000ea4f      0x491 examples/enocean_switch/CMakeFiles/enocean_switch_nrf52840_xxAA_s140_6.0.0.dir/__/__/mesh/prov/src/prov_provisionee.c.obj
 .debug_abbrev  0x0000eee0      0x434 examples/enocean_switch/CMakeFiles/enocean_switch_nrf52840_xxAA_s140_6.0.0.dir/__/__/mesh/prov/src/nrf_mesh_prov.c.obj
 .debug_abbrev  0x0000f314      0x2a9 examples/enocean_switch/CMakeFiles/enocean_switch_nrf52840_xxAA_s140_6.0.0.dir/__/__/mesh/prov/src/provisioning.c.obj
 .debug_abbrev  0x0000f5bd      0x2c8 examples/enocean_switch/CMakeFiles/enocean_switch_nrf52840_xxAA_s140_6.0.0.dir/__/__/mesh/prov/src/prov_beacon.c.obj
 .debug_abbrev  0x0000f885      0x3ca examples/enocean_switch/CMakeFiles/enocean_switch_nrf52840_xxAA_s140_6.0.0.dir/__/__/mesh/prov/src/prov_utils.c.obj
 .debug_abbrev  0x0000fc4f      0x4eb examples/enocean_switch/CMakeFiles/enocean_switch_nrf52840_xxAA_s140_6.0.0.dir/__/__/mesh/prov/src/prov_bearer_adv.c.obj
 .debug_abbrev  0x0001013a      0x20b examples/enocean_switch/CMakeFiles/enocean_switch_nrf52840_xxAA_s140_6.0.0.dir/C_/b/nRF5_SDK_15.0.0_a53641a/modules/nrfx/mdk/system_nrf52840.c.obj
 .debug_abbrev  0x00010345      0x232 examples/enocean_switch/CMakeFiles/enocean_switch_nrf52840_xxAA_s140_6.0.0.dir/C_/b/nRF5_SDK_15.0.0_a53641a/components/libraries/util/app_error.c.obj
 .debug_abbrev  0x00010577      0x1bd examples/enocean_switch/CMakeFiles/enocean_switch_nrf52840_xxAA_s140_6.0.0.dir/C_/b/nRF5_SDK_15.0.0_a53641a/components/libraries/util/app_error_handler_gcc.c.obj
 .debug_abbrev  0x00010734      0x3a9 external/rtt/librtt_nrf52840_xxAA.a(SEGGER_RTT.c.obj)
 .debug_abbrev  0x00010add      0x32e external/rtt/librtt_nrf52840_xxAA.a(SEGGER_RTT_printf.c.obj)
 .debug_abbrev  0x00010e0b      0x4b4 external/micro-ecc/libuECC_nrf52840_xxAA.a(uECC.c.obj)

.debug_loc      0x00000000    0x244a8
 .debug_loc     0x00000000      0x53f examples/enocean_switch/CMakeFiles/enocean_switch_nrf52840_xxAA_s140_6.0.0.dir/src/main.c.obj
 .debug_loc     0x0000053f      0x4ff examples/enocean_switch/CMakeFiles/enocean_switch_nrf52840_xxAA_s140_6.0.0.dir/src/enocean.c.obj
 .debug_loc     0x00000a3e      0x2f6 examples/enocean_switch/CMakeFiles/enocean_switch_nrf52840_xxAA_s140_6.0.0.dir/src/flash_helper.c.obj
 .debug_loc     0x00000d34      0x192 examples/enocean_switch/CMakeFiles/enocean_switch_nrf52840_xxAA_s140_6.0.0.dir/__/__/mesh/stack/src/mesh_stack.c.obj
 .debug_loc     0x00000ec6      0x1b3 examples/enocean_switch/CMakeFiles/enocean_switch_nrf52840_xxAA_s140_6.0.0.dir/__/common/src/mesh_softdevice_init.c.obj
 .debug_loc     0x00001079      0x10a examples/enocean_switch/CMakeFiles/enocean_switch_nrf52840_xxAA_s140_6.0.0.dir/__/common/src/mesh_provisionee.c.obj
 .debug_loc     0x00001183       0xa5 examples/enocean_switch/CMakeFiles/enocean_switch_nrf52840_xxAA_s140_6.0.0.dir/__/common/src/rtt_input.c.obj
 .debug_loc     0x00001228      0x277 examples/enocean_switch/CMakeFiles/enocean_switch_nrf52840_xxAA_s140_6.0.0.dir/__/common/src/simple_hal.c.obj
 .debug_loc     0x0000149f      0x18c examples/enocean_switch/CMakeFiles/enocean_switch_nrf52840_xxAA_s140_6.0.0.dir/__/common/src/app_error_weak.c.obj
 .debug_loc     0x0000162b       0x2c examples/enocean_switch/CMakeFiles/enocean_switch_nrf52840_xxAA_s140_6.0.0.dir/__/common/src/assertion_handler_weak.c.obj
 .debug_loc     0x00001657       0x2c examples/enocean_switch/CMakeFiles/enocean_switch_nrf52840_xxAA_s140_6.0.0.dir/__/__/mesh/core/src/nrf_mesh_configure.c.obj
 .debug_loc     0x00001683       0x89 examples/enocean_switch/CMakeFiles/enocean_switch_nrf52840_xxAA_s140_6.0.0.dir/__/__/mesh/core/src/aes.c.obj
 .debug_loc     0x0000170c      0x10d examples/enocean_switch/CMakeFiles/enocean_switch_nrf52840_xxAA_s140_6.0.0.dir/__/__/mesh/core/src/msg_cache.c.obj
 .debug_loc     0x00001819     0x259a examples/enocean_switch/CMakeFiles/enocean_switch_nrf52840_xxAA_s140_6.0.0.dir/__/__/mesh/core/src/transport.c.obj
 .debug_loc     0x00003db3       0xff examples/enocean_switch/CMakeFiles/enocean_switch_nrf52840_xxAA_s140_6.0.0.dir/__/__/mesh/core/src/event.c.obj
 .debug_loc     0x00003eb2      0x816 examples/enocean_switch/CMakeFiles/enocean_switch_nrf52840_xxAA_s140_6.0.0.dir/__/__/mesh/core/src/packet_buffer.c.obj
 .debug_loc     0x000046c8      0x7fe examples/enocean_switch/CMakeFiles/enocean_switch_nrf52840_xxAA_s140_6.0.0.dir/__/__/mesh/core/src/flash_manager_defrag.c.obj
 .debug_loc     0x00004ec6      0x4f6 examples/enocean_switch/CMakeFiles/enocean_switch_nrf52840_xxAA_s140_6.0.0.dir/__/__/mesh/core/src/fifo.c.obj
 .debug_loc     0x000053bc      0x17a examples/enocean_switch/CMakeFiles/enocean_switch_nrf52840_xxAA_s140_6.0.0.dir/__/__/mesh/core/src/nrf_flash.c.obj
 .debug_loc     0x00005536      0x6c1 examples/enocean_switch/CMakeFiles/enocean_switch_nrf52840_xxAA_s140_6.0.0.dir/__/__/mesh/core/src/packet_mgr.c.obj
 .debug_loc     0x00005bf7      0x936 examples/enocean_switch/CMakeFiles/enocean_switch_nrf52840_xxAA_s140_6.0.0.dir/__/__/mesh/core/src/net_state.c.obj
 .debug_loc     0x0000652d      0x8be examples/enocean_switch/CMakeFiles/enocean_switch_nrf52840_xxAA_s140_6.0.0.dir/__/__/mesh/core/src/mesh_flash.c.obj
 .debug_loc     0x00006deb       0xf8 examples/enocean_switch/CMakeFiles/enocean_switch_nrf52840_xxAA_s140_6.0.0.dir/__/__/mesh/core/src/nrf_mesh_utils.c.obj
 .debug_loc     0x00006ee3      0x4f8 examples/enocean_switch/CMakeFiles/enocean_switch_nrf52840_xxAA_s140_6.0.0.dir/__/__/mesh/core/src/nrf_mesh.c.obj
 .debug_loc     0x000073db       0xf5 examples/enocean_switch/CMakeFiles/enocean_switch_nrf52840_xxAA_s140_6.0.0.dir/__/__/mesh/core/src/queue.c.obj
 .debug_loc     0x000074d0       0x63 examples/enocean_switch/CMakeFiles/enocean_switch_nrf52840_xxAA_s140_6.0.0.dir/__/__/mesh/core/src/hal.c.obj
 .debug_loc     0x00007533      0x3f8 examples/enocean_switch/CMakeFiles/enocean_switch_nrf52840_xxAA_s140_6.0.0.dir/__/__/mesh/core/src/aes_cmac.c.obj
 .debug_loc     0x0000792b      0x2d1 examples/enocean_switch/CMakeFiles/enocean_switch_nrf52840_xxAA_s140_6.0.0.dir/__/__/mesh/core/src/timer_scheduler.c.obj
 .debug_loc     0x00007bfc      0x5f9 examples/enocean_switch/CMakeFiles/enocean_switch_nrf52840_xxAA_s140_6.0.0.dir/__/__/mesh/core/src/timer.c.obj
 .debug_loc     0x000081f5      0x14e examples/enocean_switch/CMakeFiles/enocean_switch_nrf52840_xxAA_s140_6.0.0.dir/__/__/mesh/core/src/rand.c.obj
 .debug_loc     0x00008343      0x194 examples/enocean_switch/CMakeFiles/enocean_switch_nrf52840_xxAA_s140_6.0.0.dir/__/__/mesh/core/src/nrf_mesh_opt.c.obj
 .debug_loc     0x000084d7      0x344 examples/enocean_switch/CMakeFiles/enocean_switch_nrf52840_xxAA_s140_6.0.0.dir/__/__/mesh/core/src/timeslot.c.obj
 .debug_loc     0x0000881b      0x526 examples/enocean_switch/CMakeFiles/enocean_switch_nrf52840_xxAA_s140_6.0.0.dir/__/__/mesh/core/src/bearer_event.c.obj
 .debug_loc     0x00008d41      0x8c1 examples/enocean_switch/CMakeFiles/enocean_switch_nrf52840_xxAA_s140_6.0.0.dir/__/__/mesh/core/src/enc.c.obj
 .debug_loc     0x00009602      0x5da examples/enocean_switch/CMakeFiles/enocean_switch_nrf52840_xxAA_s140_6.0.0.dir/__/__/mesh/core/src/network.c.obj
 .debug_loc     0x00009bdc      0x817 examples/enocean_switch/CMakeFiles/enocean_switch_nrf52840_xxAA_s140_6.0.0.dir/__/__/mesh/core/src/net_packet.c.obj
 .debug_loc     0x0000a3f3      0x2ed examples/enocean_switch/CMakeFiles/enocean_switch_nrf52840_xxAA_s140_6.0.0.dir/__/__/mesh/core/src/msqueue.c.obj
 .debug_loc     0x0000a6e0      0x1ee examples/enocean_switch/CMakeFiles/enocean_switch_nrf52840_xxAA_s140_6.0.0.dir/__/__/mesh/core/src/nrf_mesh_keygen.c.obj
 .debug_loc     0x0000a8ce      0x3bf examples/enocean_switch/CMakeFiles/enocean_switch_nrf52840_xxAA_s140_6.0.0.dir/__/__/mesh/core/src/list.c.obj
 .debug_loc     0x0000ac8d      0x348 examples/enocean_switch/CMakeFiles/enocean_switch_nrf52840_xxAA_s140_6.0.0.dir/__/__/mesh/core/src/log.c.obj
 .debug_loc     0x0000afd5     0x1439 examples/enocean_switch/CMakeFiles/enocean_switch_nrf52840_xxAA_s140_6.0.0.dir/__/__/mesh/core/src/flash_manager.c.obj
 .debug_loc     0x0000c40e      0x371 examples/enocean_switch/CMakeFiles/enocean_switch_nrf52840_xxAA_s140_6.0.0.dir/__/__/mesh/core/src/ccm_soft.c.obj
 .debug_loc     0x0000c77f      0x141 examples/enocean_switch/CMakeFiles/enocean_switch_nrf52840_xxAA_s140_6.0.0.dir/__/__/mesh/core/src/replay_cache.c.obj
 .debug_loc     0x0000c8c0      0x30d examples/enocean_switch/CMakeFiles/enocean_switch_nrf52840_xxAA_s140_6.0.0.dir/__/__/mesh/core/src/beacon.c.obj
 .debug_loc     0x0000cbcd       0xe3 examples/enocean_switch/CMakeFiles/enocean_switch_nrf52840_xxAA_s140_6.0.0.dir/__/__/mesh/core/src/flash_manager_internal.c.obj
 .debug_loc     0x0000ccb0      0x3c5 examples/enocean_switch/CMakeFiles/enocean_switch_nrf52840_xxAA_s140_6.0.0.dir/__/__/mesh/core/src/core_tx.c.obj
 .debug_loc     0x0000d075      0x570 examples/enocean_switch/CMakeFiles/enocean_switch_nrf52840_xxAA_s140_6.0.0.dir/__/__/mesh/core/src/heartbeat.c.obj
 .debug_loc     0x0000d5e5      0x5f5 examples/enocean_switch/CMakeFiles/enocean_switch_nrf52840_xxAA_s140_6.0.0.dir/__/__/mesh/core/src/net_beacon.c.obj
 .debug_loc     0x0000dbda      0x3ca examples/enocean_switch/CMakeFiles/enocean_switch_nrf52840_xxAA_s140_6.0.0.dir/__/__/mesh/core/src/core_tx_adv.c.obj
 .debug_loc     0x0000dfa4      0x42e examples/enocean_switch/CMakeFiles/enocean_switch_nrf52840_xxAA_s140_6.0.0.dir/__/__/mesh/bearer/src/ad_listener.c.obj
 .debug_loc     0x0000e3d2      0x3ae examples/enocean_switch/CMakeFiles/enocean_switch_nrf52840_xxAA_s140_6.0.0.dir/__/__/mesh/bearer/src/ad_type_filter.c.obj
 .debug_loc     0x0000e780      0xcb6 examples/enocean_switch/CMakeFiles/enocean_switch_nrf52840_xxAA_s140_6.0.0.dir/__/__/mesh/bearer/src/advertiser.c.obj
 .debug_loc     0x0000f436      0x333 examples/enocean_switch/CMakeFiles/enocean_switch_nrf52840_xxAA_s140_6.0.0.dir/__/__/mesh/bearer/src/bearer_handler.c.obj
 .debug_loc     0x0000f769      0x306 examples/enocean_switch/CMakeFiles/enocean_switch_nrf52840_xxAA_s140_6.0.0.dir/__/__/mesh/bearer/src/broadcast.c.obj
 .debug_loc     0x0000fa6f       0xde examples/enocean_switch/CMakeFiles/enocean_switch_nrf52840_xxAA_s140_6.0.0.dir/__/__/mesh/bearer/src/filter_engine.c.obj
 .debug_loc     0x0000fb4d      0x232 examples/enocean_switch/CMakeFiles/enocean_switch_nrf52840_xxAA_s140_6.0.0.dir/__/__/mesh/bearer/src/radio_config.c.obj
 .debug_loc     0x0000fd7f      0x442 examples/enocean_switch/CMakeFiles/enocean_switch_nrf52840_xxAA_s140_6.0.0.dir/__/__/mesh/bearer/src/scanner.c.obj
 .debug_loc     0x000101c1      0x5a7 examples/enocean_switch/CMakeFiles/enocean_switch_nrf52840_xxAA_s140_6.0.0.dir/__/__/models/simple_on_off/src/simple_on_off_client.c.obj
 .debug_loc     0x00010768      0x254 examples/enocean_switch/CMakeFiles/enocean_switch_nrf52840_xxAA_s140_6.0.0.dir/__/__/models/config/src/composition_data.c.obj
 .debug_loc     0x000109bc     0x4c87 examples/enocean_switch/CMakeFiles/enocean_switch_nrf52840_xxAA_s140_6.0.0.dir/__/__/models/config/src/config_server.c.obj
 .debug_loc     0x00015643       0x89 examples/enocean_switch/CMakeFiles/enocean_switch_nrf52840_xxAA_s140_6.0.0.dir/__/__/models/config/src/packed_index_list.c.obj
 .debug_loc     0x000156cc     0x13e7 examples/enocean_switch/CMakeFiles/enocean_switch_nrf52840_xxAA_s140_6.0.0.dir/__/__/models/health/src/health_server.c.obj
 .debug_loc     0x00016ab3      0x4d4 examples/enocean_switch/CMakeFiles/enocean_switch_nrf52840_xxAA_s140_6.0.0.dir/__/__/mesh/access/src/access_publish.c.obj
 .debug_loc     0x00016f87     0x250e examples/enocean_switch/CMakeFiles/enocean_switch_nrf52840_xxAA_s140_6.0.0.dir/__/__/mesh/access/src/access.c.obj
 .debug_loc     0x00019495      0x784 examples/enocean_switch/CMakeFiles/enocean_switch_nrf52840_xxAA_s140_6.0.0.dir/__/__/mesh/access/src/access_reliable.c.obj
 .debug_loc     0x00019c19     0x39ce examples/enocean_switch/CMakeFiles/enocean_switch_nrf52840_xxAA_s140_6.0.0.dir/__/__/mesh/access/src/device_state_manager.c.obj
 .debug_loc     0x0001d5e7      0x766 examples/enocean_switch/CMakeFiles/enocean_switch_nrf52840_xxAA_s140_6.0.0.dir/__/__/mesh/prov/src/prov_provisionee.c.obj
 .debug_loc     0x0001dd4d      0xa4b examples/enocean_switch/CMakeFiles/enocean_switch_nrf52840_xxAA_s140_6.0.0.dir/__/__/mesh/prov/src/nrf_mesh_prov.c.obj
 .debug_loc     0x0001e798      0x490 examples/enocean_switch/CMakeFiles/enocean_switch_nrf52840_xxAA_s140_6.0.0.dir/__/__/mesh/prov/src/provisioning.c.obj
 .debug_loc     0x0001ec28      0x18c examples/enocean_switch/CMakeFiles/enocean_switch_nrf52840_xxAA_s140_6.0.0.dir/__/__/mesh/prov/src/prov_beacon.c.obj
 .debug_loc     0x0001edb4      0x40b examples/enocean_switch/CMakeFiles/enocean_switch_nrf52840_xxAA_s140_6.0.0.dir/__/__/mesh/prov/src/prov_utils.c.obj
 .debug_loc     0x0001f1bf     0x1457 examples/enocean_switch/CMakeFiles/enocean_switch_nrf52840_xxAA_s140_6.0.0.dir/__/__/mesh/prov/src/prov_bearer_adv.c.obj
 .debug_loc     0x00020616       0xb5 examples/enocean_switch/CMakeFiles/enocean_switch_nrf52840_xxAA_s140_6.0.0.dir/C_/b/nRF5_SDK_15.0.0_a53641a/components/libraries/util/app_error.c.obj
 .debug_loc     0x000206cb       0x63 examples/enocean_switch/CMakeFiles/enocean_switch_nrf52840_xxAA_s140_6.0.0.dir/C_/b/nRF5_SDK_15.0.0_a53641a/components/libraries/util/app_error_handler_gcc.c.obj
 .debug_loc     0x0002072e     0x1222 external/rtt/librtt_nrf52840_xxAA.a(SEGGER_RTT.c.obj)
 .debug_loc     0x00021950      0x70f external/rtt/librtt_nrf52840_xxAA.a(SEGGER_RTT_printf.c.obj)
 .debug_loc     0x0002205f     0x2449 external/micro-ecc/libuECC_nrf52840_xxAA.a(uECC.c.obj)

.debug_aranges  0x00000000     0x23c8
 .debug_aranges
                0x00000000       0x80 examples/enocean_switch/CMakeFiles/enocean_switch_nrf52840_xxAA_s140_6.0.0.dir/src/main.c.obj
 .debug_aranges
                0x00000080       0x30 examples/enocean_switch/CMakeFiles/enocean_switch_nrf52840_xxAA_s140_6.0.0.dir/src/enocean.c.obj
 .debug_aranges
                0x000000b0       0x68 examples/enocean_switch/CMakeFiles/enocean_switch_nrf52840_xxAA_s140_6.0.0.dir/src/flash_helper.c.obj
 .debug_aranges
                0x00000118       0x50 examples/enocean_switch/CMakeFiles/enocean_switch_nrf52840_xxAA_s140_6.0.0.dir/__/__/mesh/stack/src/mesh_stack.c.obj
 .debug_aranges
                0x00000168       0x40 examples/enocean_switch/CMakeFiles/enocean_switch_nrf52840_xxAA_s140_6.0.0.dir/__/common/src/mesh_softdevice_init.c.obj
 .debug_aranges
                0x000001a8       0x30 examples/enocean_switch/CMakeFiles/enocean_switch_nrf52840_xxAA_s140_6.0.0.dir/__/common/src/mesh_provisionee.c.obj
 .debug_aranges
                0x000001d8       0x30 examples/enocean_switch/CMakeFiles/enocean_switch_nrf52840_xxAA_s140_6.0.0.dir/__/common/src/rtt_input.c.obj
 .debug_aranges
                0x00000208       0x50 examples/enocean_switch/CMakeFiles/enocean_switch_nrf52840_xxAA_s140_6.0.0.dir/__/common/src/simple_hal.c.obj
 .debug_aranges
                0x00000258       0x28 examples/enocean_switch/CMakeFiles/enocean_switch_nrf52840_xxAA_s140_6.0.0.dir/__/nrf_mesh_weak.c.obj
 .debug_aranges
                0x00000280       0x20 examples/enocean_switch/CMakeFiles/enocean_switch_nrf52840_xxAA_s140_6.0.0.dir/__/common/src/app_error_weak.c.obj
 .debug_aranges
                0x000002a0       0x20 examples/enocean_switch/CMakeFiles/enocean_switch_nrf52840_xxAA_s140_6.0.0.dir/__/common/src/assertion_handler_weak.c.obj
 .debug_aranges
                0x000002c0       0x30 examples/enocean_switch/CMakeFiles/enocean_switch_nrf52840_xxAA_s140_6.0.0.dir/__/__/mesh/core/src/nrf_mesh_configure.c.obj
 .debug_aranges
                0x000002f0       0x28 examples/enocean_switch/CMakeFiles/enocean_switch_nrf52840_xxAA_s140_6.0.0.dir/__/__/mesh/core/src/aes.c.obj
 .debug_aranges
                0x00000318       0x38 examples/enocean_switch/CMakeFiles/enocean_switch_nrf52840_xxAA_s140_6.0.0.dir/__/__/mesh/core/src/msg_cache.c.obj
 .debug_aranges
                0x00000350      0x110 examples/enocean_switch/CMakeFiles/enocean_switch_nrf52840_xxAA_s140_6.0.0.dir/__/__/mesh/core/src/transport.c.obj
 .debug_aranges
                0x00000460       0x30 examples/enocean_switch/CMakeFiles/enocean_switch_nrf52840_xxAA_s140_6.0.0.dir/__/__/mesh/core/src/event.c.obj
 .debug_aranges
                0x00000490       0x68 examples/enocean_switch/CMakeFiles/enocean_switch_nrf52840_xxAA_s140_6.0.0.dir/__/__/mesh/core/src/packet_buffer.c.obj
 .debug_aranges
                0x000004f8       0xc8 examples/enocean_switch/CMakeFiles/enocean_switch_nrf52840_xxAA_s140_6.0.0.dir/__/__/mesh/core/src/flash_manager_defrag.c.obj
 .debug_aranges
                0x000005c0       0x60 examples/enocean_switch/CMakeFiles/enocean_switch_nrf52840_xxAA_s140_6.0.0.dir/__/__/mesh/core/src/fifo.c.obj
 .debug_aranges
                0x00000620       0x30 examples/enocean_switch/CMakeFiles/enocean_switch_nrf52840_xxAA_s140_6.0.0.dir/__/__/mesh/core/src/nrf_flash.c.obj
 .debug_aranges
                0x00000650       0x48 examples/enocean_switch/CMakeFiles/enocean_switch_nrf52840_xxAA_s140_6.0.0.dir/__/__/mesh/core/src/packet_mgr.c.obj
 .debug_aranges
                0x00000698       0xd0 examples/enocean_switch/CMakeFiles/enocean_switch_nrf52840_xxAA_s140_6.0.0.dir/__/__/mesh/core/src/net_state.c.obj
 .debug_aranges
                0x00000768       0x60 examples/enocean_switch/CMakeFiles/enocean_switch_nrf52840_xxAA_s140_6.0.0.dir/__/__/mesh/core/src/mesh_flash.c.obj
 .debug_aranges
                0x000007c8       0x30 examples/enocean_switch/CMakeFiles/enocean_switch_nrf52840_xxAA_s140_6.0.0.dir/__/__/mesh/core/src/nrf_mesh_utils.c.obj
 .debug_aranges
                0x000007f8       0x90 examples/enocean_switch/CMakeFiles/enocean_switch_nrf52840_xxAA_s140_6.0.0.dir/__/__/mesh/core/src/nrf_mesh.c.obj
 .debug_aranges
                0x00000888       0x38 examples/enocean_switch/CMakeFiles/enocean_switch_nrf52840_xxAA_s140_6.0.0.dir/__/__/mesh/core/src/queue.c.obj
 .debug_aranges
                0x000008c0       0x30 examples/enocean_switch/CMakeFiles/enocean_switch_nrf52840_xxAA_s140_6.0.0.dir/__/__/mesh/core/src/hal.c.obj
 .debug_aranges
                0x000008f0       0x38 examples/enocean_switch/CMakeFiles/enocean_switch_nrf52840_xxAA_s140_6.0.0.dir/__/__/mesh/core/src/aes_cmac.c.obj
 .debug_aranges
                0x00000928       0x68 examples/enocean_switch/CMakeFiles/enocean_switch_nrf52840_xxAA_s140_6.0.0.dir/__/__/mesh/core/src/timer_scheduler.c.obj
 .debug_aranges
                0x00000990       0x60 examples/enocean_switch/CMakeFiles/enocean_switch_nrf52840_xxAA_s140_6.0.0.dir/__/__/mesh/core/src/timer.c.obj
 .debug_aranges
                0x000009f0       0x30 examples/enocean_switch/CMakeFiles/enocean_switch_nrf52840_xxAA_s140_6.0.0.dir/__/__/mesh/core/src/ticker.c.obj
 .debug_aranges
                0x00000a20       0x40 examples/enocean_switch/CMakeFiles/enocean_switch_nrf52840_xxAA_s140_6.0.0.dir/__/__/mesh/core/src/rand.c.obj
 .debug_aranges
                0x00000a60       0x28 examples/enocean_switch/CMakeFiles/enocean_switch_nrf52840_xxAA_s140_6.0.0.dir/__/__/mesh/core/src/nrf_mesh_opt.c.obj
 .debug_aranges
                0x00000a88       0xb8 examples/enocean_switch/CMakeFiles/enocean_switch_nrf52840_xxAA_s140_6.0.0.dir/__/__/mesh/core/src/timeslot.c.obj
 .debug_aranges
                0x00000b40       0x98 examples/enocean_switch/CMakeFiles/enocean_switch_nrf52840_xxAA_s140_6.0.0.dir/__/__/mesh/core/src/bearer_event.c.obj
 .debug_aranges
                0x00000bd8       0x70 examples/enocean_switch/CMakeFiles/enocean_switch_nrf52840_xxAA_s140_6.0.0.dir/__/__/mesh/core/src/enc.c.obj
 .debug_aranges
                0x00000c48       0x58 examples/enocean_switch/CMakeFiles/enocean_switch_nrf52840_xxAA_s140_6.0.0.dir/__/__/mesh/core/src/network.c.obj
 .debug_aranges
                0x00000ca0       0x68 examples/enocean_switch/CMakeFiles/enocean_switch_nrf52840_xxAA_s140_6.0.0.dir/__/__/mesh/core/src/net_packet.c.obj
 .debug_aranges
                0x00000d08       0x48 examples/enocean_switch/CMakeFiles/enocean_switch_nrf52840_xxAA_s140_6.0.0.dir/__/__/mesh/core/src/msqueue.c.obj
 .debug_aranges
                0x00000d50       0x40 examples/enocean_switch/CMakeFiles/enocean_switch_nrf52840_xxAA_s140_6.0.0.dir/__/__/mesh/core/src/nrf_mesh_keygen.c.obj
 .debug_aranges
                0x00000d90       0x48 examples/enocean_switch/CMakeFiles/enocean_switch_nrf52840_xxAA_s140_6.0.0.dir/__/__/mesh/core/src/list.c.obj
 .debug_aranges
                0x00000dd8       0x48 examples/enocean_switch/CMakeFiles/enocean_switch_nrf52840_xxAA_s140_6.0.0.dir/__/__/mesh/core/src/log.c.obj
 .debug_aranges
                0x00000e20       0xf8 examples/enocean_switch/CMakeFiles/enocean_switch_nrf52840_xxAA_s140_6.0.0.dir/__/__/mesh/core/src/flash_manager.c.obj
 .debug_aranges
                0x00000f18       0x50 examples/enocean_switch/CMakeFiles/enocean_switch_nrf52840_xxAA_s140_6.0.0.dir/__/__/mesh/core/src/ccm_soft.c.obj
 .debug_aranges
                0x00000f68       0x40 examples/enocean_switch/CMakeFiles/enocean_switch_nrf52840_xxAA_s140_6.0.0.dir/__/__/mesh/core/src/replay_cache.c.obj
 .debug_aranges
                0x00000fa8       0x28 examples/enocean_switch/CMakeFiles/enocean_switch_nrf52840_xxAA_s140_6.0.0.dir/__/__/mesh/core/src/beacon.c.obj
 .debug_aranges
                0x00000fd0       0x20 examples/enocean_switch/CMakeFiles/enocean_switch_nrf52840_xxAA_s140_6.0.0.dir/__/__/mesh/core/src/flash_manager_internal.c.obj
 .debug_aranges
                0x00000ff0       0x58 examples/enocean_switch/CMakeFiles/enocean_switch_nrf52840_xxAA_s140_6.0.0.dir/__/__/mesh/core/src/core_tx.c.obj
 .debug_aranges
                0x00001048       0x70 examples/enocean_switch/CMakeFiles/enocean_switch_nrf52840_xxAA_s140_6.0.0.dir/__/__/mesh/core/src/heartbeat.c.obj
 .debug_aranges
                0x000010b8       0x68 examples/enocean_switch/CMakeFiles/enocean_switch_nrf52840_xxAA_s140_6.0.0.dir/__/__/mesh/core/src/net_beacon.c.obj
 .debug_aranges
                0x00001120       0x68 examples/enocean_switch/CMakeFiles/enocean_switch_nrf52840_xxAA_s140_6.0.0.dir/__/__/mesh/core/src/core_tx_adv.c.obj
 .debug_aranges
                0x00001188       0x30 examples/enocean_switch/CMakeFiles/enocean_switch_nrf52840_xxAA_s140_6.0.0.dir/__/__/mesh/bearer/src/ad_listener.c.obj
 .debug_aranges
                0x000011b8       0x58 examples/enocean_switch/CMakeFiles/enocean_switch_nrf52840_xxAA_s140_6.0.0.dir/__/__/mesh/bearer/src/ad_type_filter.c.obj
 .debug_aranges
                0x00001210       0xb0 examples/enocean_switch/CMakeFiles/enocean_switch_nrf52840_xxAA_s140_6.0.0.dir/__/__/mesh/bearer/src/advertiser.c.obj
 .debug_aranges
                0x000012c0       0x70 examples/enocean_switch/CMakeFiles/enocean_switch_nrf52840_xxAA_s140_6.0.0.dir/__/__/mesh/bearer/src/bearer_handler.c.obj
 .debug_aranges
                0x00001330       0x30 examples/enocean_switch/CMakeFiles/enocean_switch_nrf52840_xxAA_s140_6.0.0.dir/__/__/mesh/bearer/src/broadcast.c.obj
 .debug_aranges
                0x00001360       0x38 examples/enocean_switch/CMakeFiles/enocean_switch_nrf52840_xxAA_s140_6.0.0.dir/__/__/mesh/bearer/src/filter_engine.c.obj
 .debug_aranges
                0x00001398       0x40 examples/enocean_switch/CMakeFiles/enocean_switch_nrf52840_xxAA_s140_6.0.0.dir/__/__/mesh/bearer/src/radio_config.c.obj
 .debug_aranges
                0x000013d8       0xe0 examples/enocean_switch/CMakeFiles/enocean_switch_nrf52840_xxAA_s140_6.0.0.dir/__/__/mesh/bearer/src/scanner.c.obj
 .debug_aranges
                0x000014b8       0x58 examples/enocean_switch/CMakeFiles/enocean_switch_nrf52840_xxAA_s140_6.0.0.dir/__/__/models/simple_on_off/src/simple_on_off_client.c.obj
 .debug_aranges
                0x00001510       0x20 examples/enocean_switch/CMakeFiles/enocean_switch_nrf52840_xxAA_s140_6.0.0.dir/__/__/models/config/src/composition_data.c.obj
 .debug_aranges
                0x00001530      0x210 examples/enocean_switch/CMakeFiles/enocean_switch_nrf52840_xxAA_s140_6.0.0.dir/__/__/models/config/src/config_server.c.obj
 .debug_aranges
                0x00001740       0x20 examples/enocean_switch/CMakeFiles/enocean_switch_nrf52840_xxAA_s140_6.0.0.dir/__/__/models/config/src/packed_index_list.c.obj
 .debug_aranges
                0x00001760       0xc8 examples/enocean_switch/CMakeFiles/enocean_switch_nrf52840_xxAA_s140_6.0.0.dir/__/__/models/health/src/health_server.c.obj
 .debug_aranges
                0x00001828       0x50 examples/enocean_switch/CMakeFiles/enocean_switch_nrf52840_xxAA_s140_6.0.0.dir/__/__/mesh/access/src/access_publish.c.obj
 .debug_aranges
                0x00001878      0x1d0 examples/enocean_switch/CMakeFiles/enocean_switch_nrf52840_xxAA_s140_6.0.0.dir/__/__/mesh/access/src/access.c.obj
 .debug_aranges
                0x00001a48       0x50 examples/enocean_switch/CMakeFiles/enocean_switch_nrf52840_xxAA_s140_6.0.0.dir/__/__/mesh/access/src/access_reliable.c.obj
 .debug_aranges
                0x00001a98      0x318 examples/enocean_switch/CMakeFiles/enocean_switch_nrf52840_xxAA_s140_6.0.0.dir/__/__/mesh/access/src/device_state_manager.c.obj
 .debug_aranges
                0x00001db0       0x70 examples/enocean_switch/CMakeFiles/enocean_switch_nrf52840_xxAA_s140_6.0.0.dir/__/__/mesh/prov/src/prov_provisionee.c.obj
 .debug_aranges
                0x00001e20       0x88 examples/enocean_switch/CMakeFiles/enocean_switch_nrf52840_xxAA_s140_6.0.0.dir/__/__/mesh/prov/src/nrf_mesh_prov.c.obj
 .debug_aranges
                0x00001ea8       0x80 examples/enocean_switch/CMakeFiles/enocean_switch_nrf52840_xxAA_s140_6.0.0.dir/__/__/mesh/prov/src/provisioning.c.obj
 .debug_aranges
                0x00001f28       0x38 examples/enocean_switch/CMakeFiles/enocean_switch_nrf52840_xxAA_s140_6.0.0.dir/__/__/mesh/prov/src/prov_beacon.c.obj
 .debug_aranges
                0x00001f60       0x70 examples/enocean_switch/CMakeFiles/enocean_switch_nrf52840_xxAA_s140_6.0.0.dir/__/__/mesh/prov/src/prov_utils.c.obj
 .debug_aranges
                0x00001fd0       0xc8 examples/enocean_switch/CMakeFiles/enocean_switch_nrf52840_xxAA_s140_6.0.0.dir/__/__/mesh/prov/src/prov_bearer_adv.c.obj
 .debug_aranges
                0x00002098       0x30 examples/enocean_switch/CMakeFiles/enocean_switch_nrf52840_xxAA_s140_6.0.0.dir/C_/b/nRF5_SDK_15.0.0_a53641a/modules/nrfx/mdk/system_nrf52840.c.obj
 .debug_aranges
                0x000020c8       0x28 examples/enocean_switch/CMakeFiles/enocean_switch_nrf52840_xxAA_s140_6.0.0.dir/C_/b/nRF5_SDK_15.0.0_a53641a/components/libraries/util/app_error.c.obj
 .debug_aranges
                0x000020f0       0x20 examples/enocean_switch/CMakeFiles/enocean_switch_nrf52840_xxAA_s140_6.0.0.dir/C_/b/nRF5_SDK_15.0.0_a53641a/components/libraries/util/app_error_handler_gcc.c.obj
 .debug_aranges
                0x00002110       0xd8 external/rtt/librtt_nrf52840_xxAA.a(SEGGER_RTT.c.obj)
 .debug_aranges
                0x000021e8       0x38 external/rtt/librtt_nrf52840_xxAA.a(SEGGER_RTT_printf.c.obj)
 .debug_aranges
                0x00002220      0x1a8 external/micro-ecc/libuECC_nrf52840_xxAA.a(uECC.c.obj)

.debug_ranges   0x00000000     0x5de0
 .debug_ranges  0x00000000      0x420 examples/enocean_switch/CMakeFiles/enocean_switch_nrf52840_xxAA_s140_6.0.0.dir/src/main.c.obj
 .debug_ranges  0x00000420       0xe8 examples/enocean_switch/CMakeFiles/enocean_switch_nrf52840_xxAA_s140_6.0.0.dir/src/enocean.c.obj
 .debug_ranges  0x00000508      0x148 examples/enocean_switch/CMakeFiles/enocean_switch_nrf52840_xxAA_s140_6.0.0.dir/src/flash_helper.c.obj
 .debug_ranges  0x00000650       0x70 examples/enocean_switch/CMakeFiles/enocean_switch_nrf52840_xxAA_s140_6.0.0.dir/__/__/mesh/stack/src/mesh_stack.c.obj
 .debug_ranges  0x000006c0       0xb0 examples/enocean_switch/CMakeFiles/enocean_switch_nrf52840_xxAA_s140_6.0.0.dir/__/common/src/mesh_softdevice_init.c.obj
 .debug_ranges  0x00000770       0x50 examples/enocean_switch/CMakeFiles/enocean_switch_nrf52840_xxAA_s140_6.0.0.dir/__/common/src/mesh_provisionee.c.obj
 .debug_ranges  0x000007c0       0x20 examples/enocean_switch/CMakeFiles/enocean_switch_nrf52840_xxAA_s140_6.0.0.dir/__/common/src/rtt_input.c.obj
 .debug_ranges  0x000007e0       0xe0 examples/enocean_switch/CMakeFiles/enocean_switch_nrf52840_xxAA_s140_6.0.0.dir/__/common/src/simple_hal.c.obj
 .debug_ranges  0x000008c0       0x18 examples/enocean_switch/CMakeFiles/enocean_switch_nrf52840_xxAA_s140_6.0.0.dir/__/nrf_mesh_weak.c.obj
 .debug_ranges  0x000008d8       0xb8 examples/enocean_switch/CMakeFiles/enocean_switch_nrf52840_xxAA_s140_6.0.0.dir/__/common/src/app_error_weak.c.obj
 .debug_ranges  0x00000990       0x10 examples/enocean_switch/CMakeFiles/enocean_switch_nrf52840_xxAA_s140_6.0.0.dir/__/common/src/assertion_handler_weak.c.obj
 .debug_ranges  0x000009a0       0x20 examples/enocean_switch/CMakeFiles/enocean_switch_nrf52840_xxAA_s140_6.0.0.dir/__/__/mesh/core/src/nrf_mesh_configure.c.obj
 .debug_ranges  0x000009c0       0x18 examples/enocean_switch/CMakeFiles/enocean_switch_nrf52840_xxAA_s140_6.0.0.dir/__/__/mesh/core/src/aes.c.obj
 .debug_ranges  0x000009d8       0x48 examples/enocean_switch/CMakeFiles/enocean_switch_nrf52840_xxAA_s140_6.0.0.dir/__/__/mesh/core/src/msg_cache.c.obj
 .debug_ranges  0x00000a20      0x5d0 examples/enocean_switch/CMakeFiles/enocean_switch_nrf52840_xxAA_s140_6.0.0.dir/__/__/mesh/core/src/transport.c.obj
 .debug_ranges  0x00000ff0       0x20 examples/enocean_switch/CMakeFiles/enocean_switch_nrf52840_xxAA_s140_6.0.0.dir/__/__/mesh/core/src/event.c.obj
 .debug_ranges  0x00001010      0x128 examples/enocean_switch/CMakeFiles/enocean_switch_nrf52840_xxAA_s140_6.0.0.dir/__/__/mesh/core/src/packet_buffer.c.obj
 .debug_ranges  0x00001138      0x230 examples/enocean_switch/CMakeFiles/enocean_switch_nrf52840_xxAA_s140_6.0.0.dir/__/__/mesh/core/src/flash_manager_defrag.c.obj
 .debug_ranges  0x00001368       0x68 examples/enocean_switch/CMakeFiles/enocean_switch_nrf52840_xxAA_s140_6.0.0.dir/__/__/mesh/core/src/fifo.c.obj
 .debug_ranges  0x000013d0       0x38 examples/enocean_switch/CMakeFiles/enocean_switch_nrf52840_xxAA_s140_6.0.0.dir/__/__/mesh/core/src/nrf_flash.c.obj
 .debug_ranges  0x00001408       0xe0 examples/enocean_switch/CMakeFiles/enocean_switch_nrf52840_xxAA_s140_6.0.0.dir/__/__/mesh/core/src/packet_mgr.c.obj
 .debug_ranges  0x000014e8      0x1f8 examples/enocean_switch/CMakeFiles/enocean_switch_nrf52840_xxAA_s140_6.0.0.dir/__/__/mesh/core/src/net_state.c.obj
 .debug_ranges  0x000016e0      0x1c8 examples/enocean_switch/CMakeFiles/enocean_switch_nrf52840_xxAA_s140_6.0.0.dir/__/__/mesh/core/src/mesh_flash.c.obj
 .debug_ranges  0x000018a8       0x20 examples/enocean_switch/CMakeFiles/enocean_switch_nrf52840_xxAA_s140_6.0.0.dir/__/__/mesh/core/src/nrf_mesh_utils.c.obj
 .debug_ranges  0x000018c8       0xe0 examples/enocean_switch/CMakeFiles/enocean_switch_nrf52840_xxAA_s140_6.0.0.dir/__/__/mesh/core/src/nrf_mesh.c.obj
 .debug_ranges  0x000019a8       0x28 examples/enocean_switch/CMakeFiles/enocean_switch_nrf52840_xxAA_s140_6.0.0.dir/__/__/mesh/core/src/queue.c.obj
 .debug_ranges  0x000019d0       0x20 examples/enocean_switch/CMakeFiles/enocean_switch_nrf52840_xxAA_s140_6.0.0.dir/__/__/mesh/core/src/hal.c.obj
 .debug_ranges  0x000019f0       0x98 examples/enocean_switch/CMakeFiles/enocean_switch_nrf52840_xxAA_s140_6.0.0.dir/__/__/mesh/core/src/aes_cmac.c.obj
 .debug_ranges  0x00001a88       0xf0 examples/enocean_switch/CMakeFiles/enocean_switch_nrf52840_xxAA_s140_6.0.0.dir/__/__/mesh/core/src/timer_scheduler.c.obj
 .debug_ranges  0x00001b78       0xd8 examples/enocean_switch/CMakeFiles/enocean_switch_nrf52840_xxAA_s140_6.0.0.dir/__/__/mesh/core/src/timer.c.obj
 .debug_ranges  0x00001c50       0x20 examples/enocean_switch/CMakeFiles/enocean_switch_nrf52840_xxAA_s140_6.0.0.dir/__/__/mesh/core/src/ticker.c.obj
 .debug_ranges  0x00001c70       0x30 examples/enocean_switch/CMakeFiles/enocean_switch_nrf52840_xxAA_s140_6.0.0.dir/__/__/mesh/core/src/rand.c.obj
 .debug_ranges  0x00001ca0       0x18 examples/enocean_switch/CMakeFiles/enocean_switch_nrf52840_xxAA_s140_6.0.0.dir/__/__/mesh/core/src/nrf_mesh_opt.c.obj
 .debug_ranges  0x00001cb8      0x168 examples/enocean_switch/CMakeFiles/enocean_switch_nrf52840_xxAA_s140_6.0.0.dir/__/__/mesh/core/src/timeslot.c.obj
 .debug_ranges  0x00001e20       0xf8 examples/enocean_switch/CMakeFiles/enocean_switch_nrf52840_xxAA_s140_6.0.0.dir/__/__/mesh/core/src/bearer_event.c.obj
 .debug_ranges  0x00001f18       0xb0 examples/enocean_switch/CMakeFiles/enocean_switch_nrf52840_xxAA_s140_6.0.0.dir/__/__/mesh/core/src/enc.c.obj
 .debug_ranges  0x00001fc8       0xe8 examples/enocean_switch/CMakeFiles/enocean_switch_nrf52840_xxAA_s140_6.0.0.dir/__/__/mesh/core/src/network.c.obj
 .debug_ranges  0x000020b0      0x160 examples/enocean_switch/CMakeFiles/enocean_switch_nrf52840_xxAA_s140_6.0.0.dir/__/__/mesh/core/src/net_packet.c.obj
 .debug_ranges  0x00002210       0x50 examples/enocean_switch/CMakeFiles/enocean_switch_nrf52840_xxAA_s140_6.0.0.dir/__/__/mesh/core/src/msqueue.c.obj
 .debug_ranges  0x00002260       0x30 examples/enocean_switch/CMakeFiles/enocean_switch_nrf52840_xxAA_s140_6.0.0.dir/__/__/mesh/core/src/nrf_mesh_keygen.c.obj
 .debug_ranges  0x00002290       0x78 examples/enocean_switch/CMakeFiles/enocean_switch_nrf52840_xxAA_s140_6.0.0.dir/__/__/mesh/core/src/list.c.obj
 .debug_ranges  0x00002308       0x38 examples/enocean_switch/CMakeFiles/enocean_switch_nrf52840_xxAA_s140_6.0.0.dir/__/__/mesh/core/src/log.c.obj
 .debug_ranges  0x00002340      0x388 examples/enocean_switch/CMakeFiles/enocean_switch_nrf52840_xxAA_s140_6.0.0.dir/__/__/mesh/core/src/flash_manager.c.obj
 .debug_ranges  0x000026c8       0x40 examples/enocean_switch/CMakeFiles/enocean_switch_nrf52840_xxAA_s140_6.0.0.dir/__/__/mesh/core/src/ccm_soft.c.obj
 .debug_ranges  0x00002708       0x30 examples/enocean_switch/CMakeFiles/enocean_switch_nrf52840_xxAA_s140_6.0.0.dir/__/__/mesh/core/src/replay_cache.c.obj
 .debug_ranges  0x00002738       0x90 examples/enocean_switch/CMakeFiles/enocean_switch_nrf52840_xxAA_s140_6.0.0.dir/__/__/mesh/core/src/beacon.c.obj
 .debug_ranges  0x000027c8       0x10 examples/enocean_switch/CMakeFiles/enocean_switch_nrf52840_xxAA_s140_6.0.0.dir/__/__/mesh/core/src/flash_manager_internal.c.obj
 .debug_ranges  0x000027d8       0xf8 examples/enocean_switch/CMakeFiles/enocean_switch_nrf52840_xxAA_s140_6.0.0.dir/__/__/mesh/core/src/core_tx.c.obj
 .debug_ranges  0x000028d0       0xa8 examples/enocean_switch/CMakeFiles/enocean_switch_nrf52840_xxAA_s140_6.0.0.dir/__/__/mesh/core/src/heartbeat.c.obj
 .debug_ranges  0x00002978      0x170 examples/enocean_switch/CMakeFiles/enocean_switch_nrf52840_xxAA_s140_6.0.0.dir/__/__/mesh/core/src/net_beacon.c.obj
 .debug_ranges  0x00002ae8       0x58 examples/enocean_switch/CMakeFiles/enocean_switch_nrf52840_xxAA_s140_6.0.0.dir/__/__/mesh/core/src/core_tx_adv.c.obj
 .debug_ranges  0x00002b40       0xf8 examples/enocean_switch/CMakeFiles/enocean_switch_nrf52840_xxAA_s140_6.0.0.dir/__/__/mesh/bearer/src/ad_listener.c.obj
 .debug_ranges  0x00002c38       0xd0 examples/enocean_switch/CMakeFiles/enocean_switch_nrf52840_xxAA_s140_6.0.0.dir/__/__/mesh/bearer/src/ad_type_filter.c.obj
 .debug_ranges  0x00002d08      0x240 examples/enocean_switch/CMakeFiles/enocean_switch_nrf52840_xxAA_s140_6.0.0.dir/__/__/mesh/bearer/src/advertiser.c.obj
 .debug_ranges  0x00002f48       0xb0 examples/enocean_switch/CMakeFiles/enocean_switch_nrf52840_xxAA_s140_6.0.0.dir/__/__/mesh/bearer/src/bearer_handler.c.obj
 .debug_ranges  0x00002ff8       0xa8 examples/enocean_switch/CMakeFiles/enocean_switch_nrf52840_xxAA_s140_6.0.0.dir/__/__/mesh/bearer/src/broadcast.c.obj
 .debug_ranges  0x000030a0       0x48 examples/enocean_switch/CMakeFiles/enocean_switch_nrf52840_xxAA_s140_6.0.0.dir/__/__/mesh/bearer/src/filter_engine.c.obj
 .debug_ranges  0x000030e8       0x48 examples/enocean_switch/CMakeFiles/enocean_switch_nrf52840_xxAA_s140_6.0.0.dir/__/__/mesh/bearer/src/radio_config.c.obj
 .debug_ranges  0x00003130      0x198 examples/enocean_switch/CMakeFiles/enocean_switch_nrf52840_xxAA_s140_6.0.0.dir/__/__/mesh/bearer/src/scanner.c.obj
 .debug_ranges  0x000032c8       0x90 examples/enocean_switch/CMakeFiles/enocean_switch_nrf52840_xxAA_s140_6.0.0.dir/__/__/models/simple_on_off/src/simple_on_off_client.c.obj
 .debug_ranges  0x00003358       0xb8 examples/enocean_switch/CMakeFiles/enocean_switch_nrf52840_xxAA_s140_6.0.0.dir/__/__/models/config/src/composition_data.c.obj
 .debug_ranges  0x00003410      0x788 examples/enocean_switch/CMakeFiles/enocean_switch_nrf52840_xxAA_s140_6.0.0.dir/__/__/models/config/src/config_server.c.obj
 .debug_ranges  0x00003b98       0x10 examples/enocean_switch/CMakeFiles/enocean_switch_nrf52840_xxAA_s140_6.0.0.dir/__/__/models/config/src/packed_index_list.c.obj
 .debug_ranges  0x00003ba8      0x260 examples/enocean_switch/CMakeFiles/enocean_switch_nrf52840_xxAA_s140_6.0.0.dir/__/__/models/health/src/health_server.c.obj
 .debug_ranges  0x00003e08      0x118 examples/enocean_switch/CMakeFiles/enocean_switch_nrf52840_xxAA_s140_6.0.0.dir/__/__/mesh/access/src/access_publish.c.obj
 .debug_ranges  0x00003f20      0x850 examples/enocean_switch/CMakeFiles/enocean_switch_nrf52840_xxAA_s140_6.0.0.dir/__/__/mesh/access/src/access.c.obj
 .debug_ranges  0x00004770      0x160 examples/enocean_switch/CMakeFiles/enocean_switch_nrf52840_xxAA_s140_6.0.0.dir/__/__/mesh/access/src/access_reliable.c.obj
 .debug_ranges  0x000048d0      0x808 examples/enocean_switch/CMakeFiles/enocean_switch_nrf52840_xxAA_s140_6.0.0.dir/__/__/mesh/access/src/device_state_manager.c.obj
 .debug_ranges  0x000050d8      0x148 examples/enocean_switch/CMakeFiles/enocean_switch_nrf52840_xxAA_s140_6.0.0.dir/__/__/mesh/prov/src/prov_provisionee.c.obj
 .debug_ranges  0x00005220      0x130 examples/enocean_switch/CMakeFiles/enocean_switch_nrf52840_xxAA_s140_6.0.0.dir/__/__/mesh/prov/src/nrf_mesh_prov.c.obj
 .debug_ranges  0x00005350       0x70 examples/enocean_switch/CMakeFiles/enocean_switch_nrf52840_xxAA_s140_6.0.0.dir/__/__/mesh/prov/src/provisioning.c.obj
 .debug_ranges  0x000053c0       0x40 examples/enocean_switch/CMakeFiles/enocean_switch_nrf52840_xxAA_s140_6.0.0.dir/__/__/mesh/prov/src/prov_beacon.c.obj
 .debug_ranges  0x00005400       0xa0 examples/enocean_switch/CMakeFiles/enocean_switch_nrf52840_xxAA_s140_6.0.0.dir/__/__/mesh/prov/src/prov_utils.c.obj
 .debug_ranges  0x000054a0      0x498 examples/enocean_switch/CMakeFiles/enocean_switch_nrf52840_xxAA_s140_6.0.0.dir/__/__/mesh/prov/src/prov_bearer_adv.c.obj
 .debug_ranges  0x00005938       0x20 examples/enocean_switch/CMakeFiles/enocean_switch_nrf52840_xxAA_s140_6.0.0.dir/C_/b/nRF5_SDK_15.0.0_a53641a/modules/nrfx/mdk/system_nrf52840.c.obj
 .debug_ranges  0x00005958       0x18 examples/enocean_switch/CMakeFiles/enocean_switch_nrf52840_xxAA_s140_6.0.0.dir/C_/b/nRF5_SDK_15.0.0_a53641a/components/libraries/util/app_error.c.obj
 .debug_ranges  0x00005970       0x10 examples/enocean_switch/CMakeFiles/enocean_switch_nrf52840_xxAA_s140_6.0.0.dir/C_/b/nRF5_SDK_15.0.0_a53641a/components/libraries/util/app_error_handler_gcc.c.obj
 .debug_ranges  0x00005980      0x130 external/rtt/librtt_nrf52840_xxAA.a(SEGGER_RTT.c.obj)
 .debug_ranges  0x00005ab0       0x48 external/rtt/librtt_nrf52840_xxAA.a(SEGGER_RTT_printf.c.obj)
 .debug_ranges  0x00005af8      0x2e8 external/micro-ecc/libuECC_nrf52840_xxAA.a(uECC.c.obj)

.debug_line     0x00000000    0x17fe8
 .debug_line    0x00000000      0xc18 examples/enocean_switch/CMakeFiles/enocean_switch_nrf52840_xxAA_s140_6.0.0.dir/src/main.c.obj
 .debug_line    0x00000c18      0x420 examples/enocean_switch/CMakeFiles/enocean_switch_nrf52840_xxAA_s140_6.0.0.dir/src/enocean.c.obj
 .debug_line    0x00001038      0x58d examples/enocean_switch/CMakeFiles/enocean_switch_nrf52840_xxAA_s140_6.0.0.dir/src/flash_helper.c.obj
 .debug_line    0x000015c5      0x499 examples/enocean_switch/CMakeFiles/enocean_switch_nrf52840_xxAA_s140_6.0.0.dir/__/__/mesh/stack/src/mesh_stack.c.obj
 .debug_line    0x00001a5e      0x3da examples/enocean_switch/CMakeFiles/enocean_switch_nrf52840_xxAA_s140_6.0.0.dir/__/common/src/mesh_softdevice_init.c.obj
 .debug_line    0x00001e38      0x4e1 examples/enocean_switch/CMakeFiles/enocean_switch_nrf52840_xxAA_s140_6.0.0.dir/__/common/src/mesh_provisionee.c.obj
 .debug_line    0x00002319      0x2a0 examples/enocean_switch/CMakeFiles/enocean_switch_nrf52840_xxAA_s140_6.0.0.dir/__/common/src/rtt_input.c.obj
 .debug_line    0x000025b9      0x472 examples/enocean_switch/CMakeFiles/enocean_switch_nrf52840_xxAA_s140_6.0.0.dir/__/common/src/simple_hal.c.obj
 .debug_line    0x00002a2b      0x1e5 examples/enocean_switch/CMakeFiles/enocean_switch_nrf52840_xxAA_s140_6.0.0.dir/__/nrf_mesh_weak.c.obj
 .debug_line    0x00002c10      0x473 examples/enocean_switch/CMakeFiles/enocean_switch_nrf52840_xxAA_s140_6.0.0.dir/__/common/src/app_error_weak.c.obj
 .debug_line    0x00003083      0x22b examples/enocean_switch/CMakeFiles/enocean_switch_nrf52840_xxAA_s140_6.0.0.dir/__/common/src/assertion_handler_weak.c.obj
 .debug_line    0x000032ae      0x225 examples/enocean_switch/CMakeFiles/enocean_switch_nrf52840_xxAA_s140_6.0.0.dir/__/__/mesh/core/src/nrf_mesh_configure.c.obj
 .debug_line    0x000034d3      0x24a examples/enocean_switch/CMakeFiles/enocean_switch_nrf52840_xxAA_s140_6.0.0.dir/__/__/mesh/core/src/aes.c.obj
 .debug_line    0x0000371d      0x258 examples/enocean_switch/CMakeFiles/enocean_switch_nrf52840_xxAA_s140_6.0.0.dir/__/__/mesh/core/src/msg_cache.c.obj
 .debug_line    0x00003975      0xcb7 examples/enocean_switch/CMakeFiles/enocean_switch_nrf52840_xxAA_s140_6.0.0.dir/__/__/mesh/core/src/transport.c.obj
 .debug_line    0x0000462c      0x2da examples/enocean_switch/CMakeFiles/enocean_switch_nrf52840_xxAA_s140_6.0.0.dir/__/__/mesh/core/src/event.c.obj
 .debug_line    0x00004906      0x4af examples/enocean_switch/CMakeFiles/enocean_switch_nrf52840_xxAA_s140_6.0.0.dir/__/__/mesh/core/src/packet_buffer.c.obj
 .debug_line    0x00004db5      0x6d1 examples/enocean_switch/CMakeFiles/enocean_switch_nrf52840_xxAA_s140_6.0.0.dir/__/__/mesh/core/src/flash_manager_defrag.c.obj
 .debug_line    0x00005486      0x36f examples/enocean_switch/CMakeFiles/enocean_switch_nrf52840_xxAA_s140_6.0.0.dir/__/__/mesh/core/src/fifo.c.obj
 .debug_line    0x000057f5      0x236 examples/enocean_switch/CMakeFiles/enocean_switch_nrf52840_xxAA_s140_6.0.0.dir/__/__/mesh/core/src/nrf_flash.c.obj
 .debug_line    0x00005a2b      0x40e examples/enocean_switch/CMakeFiles/enocean_switch_nrf52840_xxAA_s140_6.0.0.dir/__/__/mesh/core/src/packet_mgr.c.obj
 .debug_line    0x00005e39      0x6ad examples/enocean_switch/CMakeFiles/enocean_switch_nrf52840_xxAA_s140_6.0.0.dir/__/__/mesh/core/src/net_state.c.obj
 .debug_line    0x000064e6      0x50b examples/enocean_switch/CMakeFiles/enocean_switch_nrf52840_xxAA_s140_6.0.0.dir/__/__/mesh/core/src/mesh_flash.c.obj
 .debug_line    0x000069f1      0x24c examples/enocean_switch/CMakeFiles/enocean_switch_nrf52840_xxAA_s140_6.0.0.dir/__/__/mesh/core/src/nrf_mesh_utils.c.obj
 .debug_line    0x00006c3d      0x74d examples/enocean_switch/CMakeFiles/enocean_switch_nrf52840_xxAA_s140_6.0.0.dir/__/__/mesh/core/src/nrf_mesh.c.obj
 .debug_line    0x0000738a      0x284 examples/enocean_switch/CMakeFiles/enocean_switch_nrf52840_xxAA_s140_6.0.0.dir/__/__/mesh/core/src/queue.c.obj
 .debug_line    0x0000760e      0x1fd examples/enocean_switch/CMakeFiles/enocean_switch_nrf52840_xxAA_s140_6.0.0.dir/__/__/mesh/core/src/hal.c.obj
 .debug_line    0x0000780b      0x2c9 examples/enocean_switch/CMakeFiles/enocean_switch_nrf52840_xxAA_s140_6.0.0.dir/__/__/mesh/core/src/aes_cmac.c.obj
 .debug_line    0x00007ad4      0x422 examples/enocean_switch/CMakeFiles/enocean_switch_nrf52840_xxAA_s140_6.0.0.dir/__/__/mesh/core/src/timer_scheduler.c.obj
 .debug_line    0x00007ef6      0x3a5 examples/enocean_switch/CMakeFiles/enocean_switch_nrf52840_xxAA_s140_6.0.0.dir/__/__/mesh/core/src/timer.c.obj
 .debug_line    0x0000829b      0x124 examples/enocean_switch/CMakeFiles/enocean_switch_nrf52840_xxAA_s140_6.0.0.dir/__/__/mesh/core/src/ticker.c.obj
 .debug_line    0x000083bf      0x269 examples/enocean_switch/CMakeFiles/enocean_switch_nrf52840_xxAA_s140_6.0.0.dir/__/__/mesh/core/src/rand.c.obj
 .debug_line    0x00008628      0x25a examples/enocean_switch/CMakeFiles/enocean_switch_nrf52840_xxAA_s140_6.0.0.dir/__/__/mesh/core/src/nrf_mesh_opt.c.obj
 .debug_line    0x00008882      0x54e examples/enocean_switch/CMakeFiles/enocean_switch_nrf52840_xxAA_s140_6.0.0.dir/__/__/mesh/core/src/timeslot.c.obj
 .debug_line    0x00008dd0      0x50d examples/enocean_switch/CMakeFiles/enocean_switch_nrf52840_xxAA_s140_6.0.0.dir/__/__/mesh/core/src/bearer_event.c.obj
 .debug_line    0x000092dd      0x416 examples/enocean_switch/CMakeFiles/enocean_switch_nrf52840_xxAA_s140_6.0.0.dir/__/__/mesh/core/src/enc.c.obj
 .debug_line    0x000096f3      0x526 examples/enocean_switch/CMakeFiles/enocean_switch_nrf52840_xxAA_s140_6.0.0.dir/__/__/mesh/core/src/network.c.obj
 .debug_line    0x00009c19      0x554 examples/enocean_switch/CMakeFiles/enocean_switch_nrf52840_xxAA_s140_6.0.0.dir/__/__/mesh/core/src/net_packet.c.obj
 .debug_line    0x0000a16d      0x2f3 examples/enocean_switch/CMakeFiles/enocean_switch_nrf52840_xxAA_s140_6.0.0.dir/__/__/mesh/core/src/msqueue.c.obj
 .debug_line    0x0000a460      0x229 examples/enocean_switch/CMakeFiles/enocean_switch_nrf52840_xxAA_s140_6.0.0.dir/__/__/mesh/core/src/nrf_mesh_keygen.c.obj
 .debug_line    0x0000a689      0x2d3 examples/enocean_switch/CMakeFiles/enocean_switch_nrf52840_xxAA_s140_6.0.0.dir/__/__/mesh/core/src/list.c.obj
 .debug_line    0x0000a95c      0x278 examples/enocean_switch/CMakeFiles/enocean_switch_nrf52840_xxAA_s140_6.0.0.dir/__/__/mesh/core/src/log.c.obj
 .debug_line    0x0000abd4      0x8f9 examples/enocean_switch/CMakeFiles/enocean_switch_nrf52840_xxAA_s140_6.0.0.dir/__/__/mesh/core/src/flash_manager.c.obj
 .debug_line    0x0000b4cd      0x340 examples/enocean_switch/CMakeFiles/enocean_switch_nrf52840_xxAA_s140_6.0.0.dir/__/__/mesh/core/src/ccm_soft.c.obj
 .debug_line    0x0000b80d      0x1cd examples/enocean_switch/CMakeFiles/enocean_switch_nrf52840_xxAA_s140_6.0.0.dir/__/__/mesh/core/src/replay_cache.c.obj
 .debug_line    0x0000b9da      0x484 examples/enocean_switch/CMakeFiles/enocean_switch_nrf52840_xxAA_s140_6.0.0.dir/__/__/mesh/core/src/beacon.c.obj
 .debug_line    0x0000be5e      0x26c examples/enocean_switch/CMakeFiles/enocean_switch_nrf52840_xxAA_s140_6.0.0.dir/__/__/mesh/core/src/flash_manager_internal.c.obj
 .debug_line    0x0000c0ca      0x399 examples/enocean_switch/CMakeFiles/enocean_switch_nrf52840_xxAA_s140_6.0.0.dir/__/__/mesh/core/src/core_tx.c.obj
 .debug_line    0x0000c463      0x59a examples/enocean_switch/CMakeFiles/enocean_switch_nrf52840_xxAA_s140_6.0.0.dir/__/__/mesh/core/src/heartbeat.c.obj
 .debug_line    0x0000c9fd      0x5ee examples/enocean_switch/CMakeFiles/enocean_switch_nrf52840_xxAA_s140_6.0.0.dir/__/__/mesh/core/src/net_beacon.c.obj
 .debug_line    0x0000cfeb      0x4b3 examples/enocean_switch/CMakeFiles/enocean_switch_nrf52840_xxAA_s140_6.0.0.dir/__/__/mesh/core/src/core_tx_adv.c.obj
 .debug_line    0x0000d49e      0x32a examples/enocean_switch/CMakeFiles/enocean_switch_nrf52840_xxAA_s140_6.0.0.dir/__/__/mesh/bearer/src/ad_listener.c.obj
 .debug_line    0x0000d7c8      0x3df examples/enocean_switch/CMakeFiles/enocean_switch_nrf52840_xxAA_s140_6.0.0.dir/__/__/mesh/bearer/src/ad_type_filter.c.obj
 .debug_line    0x0000dba7      0x6cd examples/enocean_switch/CMakeFiles/enocean_switch_nrf52840_xxAA_s140_6.0.0.dir/__/__/mesh/bearer/src/advertiser.c.obj
 .debug_line    0x0000e274      0x49b examples/enocean_switch/CMakeFiles/enocean_switch_nrf52840_xxAA_s140_6.0.0.dir/__/__/mesh/bearer/src/bearer_handler.c.obj
 .debug_line    0x0000e70f      0x357 examples/enocean_switch/CMakeFiles/enocean_switch_nrf52840_xxAA_s140_6.0.0.dir/__/__/mesh/bearer/src/broadcast.c.obj
 .debug_line    0x0000ea66      0x31d examples/enocean_switch/CMakeFiles/enocean_switch_nrf52840_xxAA_s140_6.0.0.dir/__/__/mesh/bearer/src/filter_engine.c.obj
 .debug_line    0x0000ed83      0x28c examples/enocean_switch/CMakeFiles/enocean_switch_nrf52840_xxAA_s140_6.0.0.dir/__/__/mesh/bearer/src/radio_config.c.obj
 .debug_line    0x0000f00f      0x67c examples/enocean_switch/CMakeFiles/enocean_switch_nrf52840_xxAA_s140_6.0.0.dir/__/__/mesh/bearer/src/scanner.c.obj
 .debug_line    0x0000f68b      0x475 examples/enocean_switch/CMakeFiles/enocean_switch_nrf52840_xxAA_s140_6.0.0.dir/__/__/models/simple_on_off/src/simple_on_off_client.c.obj
 .debug_line    0x0000fb00      0x307 examples/enocean_switch/CMakeFiles/enocean_switch_nrf52840_xxAA_s140_6.0.0.dir/__/__/models/config/src/composition_data.c.obj
 .debug_line    0x0000fe07     0x1353 examples/enocean_switch/CMakeFiles/enocean_switch_nrf52840_xxAA_s140_6.0.0.dir/__/__/models/config/src/config_server.c.obj
 .debug_line    0x0001115a       0xef examples/enocean_switch/CMakeFiles/enocean_switch_nrf52840_xxAA_s140_6.0.0.dir/__/__/models/config/src/packed_index_list.c.obj
 .debug_line    0x00011249      0x691 examples/enocean_switch/CMakeFiles/enocean_switch_nrf52840_xxAA_s140_6.0.0.dir/__/__/models/health/src/health_server.c.obj
 .debug_line    0x000118da      0x411 examples/enocean_switch/CMakeFiles/enocean_switch_nrf52840_xxAA_s140_6.0.0.dir/__/__/mesh/access/src/access_publish.c.obj
 .debug_line    0x00011ceb      0xf47 examples/enocean_switch/CMakeFiles/enocean_switch_nrf52840_xxAA_s140_6.0.0.dir/__/__/mesh/access/src/access.c.obj
 .debug_line    0x00012c32      0x516 examples/enocean_switch/CMakeFiles/enocean_switch_nrf52840_xxAA_s140_6.0.0.dir/__/__/mesh/access/src/access_reliable.c.obj
 .debug_line    0x00013148     0x13d7 examples/enocean_switch/CMakeFiles/enocean_switch_nrf52840_xxAA_s140_6.0.0.dir/__/__/mesh/access/src/device_state_manager.c.obj
 .debug_line    0x0001451f      0x61e examples/enocean_switch/CMakeFiles/enocean_switch_nrf52840_xxAA_s140_6.0.0.dir/__/__/mesh/prov/src/prov_provisionee.c.obj
 .debug_line    0x00014b3d      0x551 examples/enocean_switch/CMakeFiles/enocean_switch_nrf52840_xxAA_s140_6.0.0.dir/__/__/mesh/prov/src/nrf_mesh_prov.c.obj
 .debug_line    0x0001508e      0x3b1 examples/enocean_switch/CMakeFiles/enocean_switch_nrf52840_xxAA_s140_6.0.0.dir/__/__/mesh/prov/src/provisioning.c.obj
 .debug_line    0x0001543f      0x451 examples/enocean_switch/CMakeFiles/enocean_switch_nrf52840_xxAA_s140_6.0.0.dir/__/__/mesh/prov/src/prov_beacon.c.obj
 .debug_line    0x00015890      0x48e examples/enocean_switch/CMakeFiles/enocean_switch_nrf52840_xxAA_s140_6.0.0.dir/__/__/mesh/prov/src/prov_utils.c.obj
 .debug_line    0x00015d1e      0xb1b examples/enocean_switch/CMakeFiles/enocean_switch_nrf52840_xxAA_s140_6.0.0.dir/__/__/mesh/prov/src/prov_bearer_adv.c.obj
 .debug_line    0x00016839      0x1ff examples/enocean_switch/CMakeFiles/enocean_switch_nrf52840_xxAA_s140_6.0.0.dir/C_/b/nRF5_SDK_15.0.0_a53641a/modules/nrfx/mdk/system_nrf52840.c.obj
 .debug_line    0x00016a38      0x263 examples/enocean_switch/CMakeFiles/enocean_switch_nrf52840_xxAA_s140_6.0.0.dir/C_/b/nRF5_SDK_15.0.0_a53641a/components/libraries/util/app_error.c.obj
 .debug_line    0x00016c9b      0x208 examples/enocean_switch/CMakeFiles/enocean_switch_nrf52840_xxAA_s140_6.0.0.dir/C_/b/nRF5_SDK_15.0.0_a53641a/components/libraries/util/app_error_handler_gcc.c.obj
 .debug_line    0x00016ea3      0x4c3 external/rtt/librtt_nrf52840_xxAA.a(SEGGER_RTT.c.obj)
 .debug_line    0x00017366      0x285 external/rtt/librtt_nrf52840_xxAA.a(SEGGER_RTT_printf.c.obj)
 .debug_line    0x000175eb      0x9fd external/micro-ecc/libuECC_nrf52840_xxAA.a(uECC.c.obj)

.debug_str      0x00000000    0x13948
 .debug_str     0x00000000     0x324a examples/enocean_switch/CMakeFiles/enocean_switch_nrf52840_xxAA_s140_6.0.0.dir/src/main.c.obj
                               0x36e4 (size before relaxing)
 .debug_str     0x0000324a      0x2cc examples/enocean_switch/CMakeFiles/enocean_switch_nrf52840_xxAA_s140_6.0.0.dir/src/enocean.c.obj
                                0xeaf (size before relaxing)
 .debug_str     0x00003516      0x4e2 examples/enocean_switch/CMakeFiles/enocean_switch_nrf52840_xxAA_s140_6.0.0.dir/src/flash_helper.c.obj
                                0xd4f (size before relaxing)
 .debug_str     0x000039f8      0x248 examples/enocean_switch/CMakeFiles/enocean_switch_nrf52840_xxAA_s140_6.0.0.dir/__/__/mesh/stack/src/mesh_stack.c.obj
                               0x272e (size before relaxing)
 .debug_str     0x00003c40      0x317 examples/enocean_switch/CMakeFiles/enocean_switch_nrf52840_xxAA_s140_6.0.0.dir/__/common/src/mesh_softdevice_init.c.obj
                               0x1252 (size before relaxing)
 .debug_str     0x00003f57     0x17f0 examples/enocean_switch/CMakeFiles/enocean_switch_nrf52840_xxAA_s140_6.0.0.dir/__/common/src/mesh_provisionee.c.obj
                               0x2441 (size before relaxing)
 .debug_str     0x00005747      0x18d examples/enocean_switch/CMakeFiles/enocean_switch_nrf52840_xxAA_s140_6.0.0.dir/__/common/src/rtt_input.c.obj
                                0xbae (size before relaxing)
 .debug_str     0x000058d4      0x1ce examples/enocean_switch/CMakeFiles/enocean_switch_nrf52840_xxAA_s140_6.0.0.dir/__/common/src/simple_hal.c.obj
                                0xd30 (size before relaxing)
 .debug_str     0x00005aa2       0x3c examples/enocean_switch/CMakeFiles/enocean_switch_nrf52840_xxAA_s140_6.0.0.dir/__/nrf_mesh_weak.c.obj
                                0x61c (size before relaxing)
 .debug_str     0x00005ade       0xa0 examples/enocean_switch/CMakeFiles/enocean_switch_nrf52840_xxAA_s140_6.0.0.dir/__/common/src/app_error_weak.c.obj
                                0x85d (size before relaxing)
 .debug_str     0x00005b7e       0x30 examples/enocean_switch/CMakeFiles/enocean_switch_nrf52840_xxAA_s140_6.0.0.dir/__/common/src/assertion_handler_weak.c.obj
                                0x672 (size before relaxing)
 .debug_str     0x00005bae      0x19b examples/enocean_switch/CMakeFiles/enocean_switch_nrf52840_xxAA_s140_6.0.0.dir/__/__/mesh/core/src/nrf_mesh_configure.c.obj
                                0x7ed (size before relaxing)
 .debug_str     0x00005d49       0xc1 examples/enocean_switch/CMakeFiles/enocean_switch_nrf52840_xxAA_s140_6.0.0.dir/__/__/mesh/core/src/aes.c.obj
                                0xb1a (size before relaxing)
 .debug_str     0x00005e0a       0xbb examples/enocean_switch/CMakeFiles/enocean_switch_nrf52840_xxAA_s140_6.0.0.dir/__/__/mesh/core/src/msg_cache.c.obj
                                0x6b9 (size before relaxing)
 .debug_str     0x00005ec5     0x1650 examples/enocean_switch/CMakeFiles/enocean_switch_nrf52840_xxAA_s140_6.0.0.dir/__/__/mesh/core/src/transport.c.obj
                               0x3106 (size before relaxing)
 .debug_str     0x00007515       0x79 examples/enocean_switch/CMakeFiles/enocean_switch_nrf52840_xxAA_s140_6.0.0.dir/__/__/mesh/core/src/event.c.obj
                               0x16b3 (size before relaxing)
 .debug_str     0x0000758e      0x30d examples/enocean_switch/CMakeFiles/enocean_switch_nrf52840_xxAA_s140_6.0.0.dir/__/__/mesh/core/src/packet_buffer.c.obj
                                0xb1b (size before relaxing)
 .debug_str     0x0000789b      0x658 examples/enocean_switch/CMakeFiles/enocean_switch_nrf52840_xxAA_s140_6.0.0.dir/__/__/mesh/core/src/flash_manager_defrag.c.obj
                               0x118d (size before relaxing)
 .debug_str     0x00007ef3       0xa5 examples/enocean_switch/CMakeFiles/enocean_switch_nrf52840_xxAA_s140_6.0.0.dir/__/__/mesh/core/src/fifo.c.obj
                                0x6db (size before relaxing)
 .debug_str     0x00007f98       0xd9 examples/enocean_switch/CMakeFiles/enocean_switch_nrf52840_xxAA_s140_6.0.0.dir/__/__/mesh/core/src/nrf_flash.c.obj
                                0x6f4 (size before relaxing)
 .debug_str     0x00008071      0x287 examples/enocean_switch/CMakeFiles/enocean_switch_nrf52840_xxAA_s140_6.0.0.dir/__/__/mesh/core/src/packet_mgr.c.obj
                                0x9a5 (size before relaxing)
 .debug_str     0x000082f8      0x488 examples/enocean_switch/CMakeFiles/enocean_switch_nrf52840_xxAA_s140_6.0.0.dir/__/__/mesh/core/src/net_state.c.obj
                               0x2148 (size before relaxing)
 .debug_str     0x00008780      0x387 examples/enocean_switch/CMakeFiles/enocean_switch_nrf52840_xxAA_s140_6.0.0.dir/__/__/mesh/core/src/mesh_flash.c.obj
                                0xcdc (size before relaxing)
 .debug_str     0x00008b07       0x94 examples/enocean_switch/CMakeFiles/enocean_switch_nrf52840_xxAA_s140_6.0.0.dir/__/__/mesh/core/src/nrf_mesh_utils.c.obj
                                0x751 (size before relaxing)
 .debug_str     0x00008b9b      0x5bb examples/enocean_switch/CMakeFiles/enocean_switch_nrf52840_xxAA_s140_6.0.0.dir/__/__/mesh/core/src/nrf_mesh.c.obj
                               0x2137 (size before relaxing)
 .debug_str     0x00009156       0x5b examples/enocean_switch/CMakeFiles/enocean_switch_nrf52840_xxAA_s140_6.0.0.dir/__/__/mesh/core/src/queue.c.obj
                                0x683 (size before relaxing)
 .debug_str     0x000091b1       0x86 examples/enocean_switch/CMakeFiles/enocean_switch_nrf52840_xxAA_s140_6.0.0.dir/__/__/mesh/core/src/hal.c.obj
                                0x7ab (size before relaxing)
 .debug_str     0x00009237       0xb8 examples/enocean_switch/CMakeFiles/enocean_switch_nrf52840_xxAA_s140_6.0.0.dir/__/__/mesh/core/src/aes_cmac.c.obj
                                0x715 (size before relaxing)
 .debug_str     0x000092ef      0x146 examples/enocean_switch/CMakeFiles/enocean_switch_nrf52840_xxAA_s140_6.0.0.dir/__/__/mesh/core/src/timer_scheduler.c.obj
                                0x934 (size before relaxing)
 .debug_str     0x00009435      0x1db examples/enocean_switch/CMakeFiles/enocean_switch_nrf52840_xxAA_s140_6.0.0.dir/__/__/mesh/core/src/timer.c.obj
                                0x8ae (size before relaxing)
 .debug_str     0x00009610       0x42 examples/enocean_switch/CMakeFiles/enocean_switch_nrf52840_xxAA_s140_6.0.0.dir/__/__/mesh/core/src/ticker.c.obj
                                0x34c (size before relaxing)
 .debug_str     0x00009652       0xac examples/enocean_switch/CMakeFiles/enocean_switch_nrf52840_xxAA_s140_6.0.0.dir/__/__/mesh/core/src/rand.c.obj
                                0x76e (size before relaxing)
 .debug_str     0x000096fe       0x88 examples/enocean_switch/CMakeFiles/enocean_switch_nrf52840_xxAA_s140_6.0.0.dir/__/__/mesh/core/src/nrf_mesh_opt.c.obj
                                0x8f0 (size before relaxing)
 .debug_str     0x00009786      0x90a examples/enocean_switch/CMakeFiles/enocean_switch_nrf52840_xxAA_s140_6.0.0.dir/__/__/mesh/core/src/timeslot.c.obj
                               0x191f (size before relaxing)
 .debug_str     0x0000a090      0x2c0 examples/enocean_switch/CMakeFiles/enocean_switch_nrf52840_xxAA_s140_6.0.0.dir/__/__/mesh/core/src/bearer_event.c.obj
                                0xefe (size before relaxing)
 .debug_str     0x0000a350      0x16e examples/enocean_switch/CMakeFiles/enocean_switch_nrf52840_xxAA_s140_6.0.0.dir/__/__/mesh/core/src/enc.c.obj
                                0x9ef (size before relaxing)
 .debug_str     0x0000a4be      0x2f9 examples/enocean_switch/CMakeFiles/enocean_switch_nrf52840_xxAA_s140_6.0.0.dir/__/__/mesh/core/src/network.c.obj
                               0x12e8 (size before relaxing)
 .debug_str     0x0000a7b7      0x30f examples/enocean_switch/CMakeFiles/enocean_switch_nrf52840_xxAA_s140_6.0.0.dir/__/__/mesh/core/src/net_packet.c.obj
                                0xe86 (size before relaxing)
 .debug_str     0x0000aac6       0x53 examples/enocean_switch/CMakeFiles/enocean_switch_nrf52840_xxAA_s140_6.0.0.dir/__/__/mesh/core/src/msqueue.c.obj
                                0x6bf (size before relaxing)
 .debug_str     0x0000ab19       0xc8 examples/enocean_switch/CMakeFiles/enocean_switch_nrf52840_xxAA_s140_6.0.0.dir/__/__/mesh/core/src/nrf_mesh_keygen.c.obj
                                0x397 (size before relaxing)
 .debug_str     0x0000abe1       0x7d examples/enocean_switch/CMakeFiles/enocean_switch_nrf52840_xxAA_s140_6.0.0.dir/__/__/mesh/core/src/list.c.obj
                                0x2be (size before relaxing)
 .debug_str     0x0000ac5e       0xf0 examples/enocean_switch/CMakeFiles/enocean_switch_nrf52840_xxAA_s140_6.0.0.dir/__/__/mesh/core/src/log.c.obj
                                0x7d0 (size before relaxing)
 .debug_str     0x0000ad4e      0x4e9 examples/enocean_switch/CMakeFiles/enocean_switch_nrf52840_xxAA_s140_6.0.0.dir/__/__/mesh/core/src/flash_manager.c.obj
                               0x1578 (size before relaxing)
 .debug_str     0x0000b237       0x85 examples/enocean_switch/CMakeFiles/enocean_switch_nrf52840_xxAA_s140_6.0.0.dir/__/__/mesh/core/src/ccm_soft.c.obj
                                0x75d (size before relaxing)
 .debug_str     0x0000b2bc       0x92 examples/enocean_switch/CMakeFiles/enocean_switch_nrf52840_xxAA_s140_6.0.0.dir/__/__/mesh/core/src/replay_cache.c.obj
                                0x68d (size before relaxing)
 .debug_str     0x0000b34e       0xd4 examples/enocean_switch/CMakeFiles/enocean_switch_nrf52840_xxAA_s140_6.0.0.dir/__/__/mesh/core/src/beacon.c.obj
                               0x1103 (size before relaxing)
 .debug_str     0x0000b422       0x38 examples/enocean_switch/CMakeFiles/enocean_switch_nrf52840_xxAA_s140_6.0.0.dir/__/__/mesh/core/src/flash_manager_internal.c.obj
                                0x7a4 (size before relaxing)
 .debug_str     0x0000b45a      0x2b5 examples/enocean_switch/CMakeFiles/enocean_switch_nrf52840_xxAA_s140_6.0.0.dir/__/__/mesh/core/src/core_tx.c.obj
                                0xbef (size before relaxing)
 .debug_str     0x0000b70f      0x418 examples/enocean_switch/CMakeFiles/enocean_switch_nrf52840_xxAA_s140_6.0.0.dir/__/__/mesh/core/src/heartbeat.c.obj
                               0x2240 (size before relaxing)
 .debug_str     0x0000bb27      0x25c examples/enocean_switch/CMakeFiles/enocean_switch_nrf52840_xxAA_s140_6.0.0.dir/__/__/mesh/core/src/net_beacon.c.obj
                               0x20a0 (size before relaxing)
 .debug_str     0x0000bd83      0x107 examples/enocean_switch/CMakeFiles/enocean_switch_nrf52840_xxAA_s140_6.0.0.dir/__/__/mesh/core/src/core_tx_adv.c.obj
                               0x12d9 (size before relaxing)
 .debug_str     0x0000be8a      0x18d examples/enocean_switch/CMakeFiles/enocean_switch_nrf52840_xxAA_s140_6.0.0.dir/__/__/mesh/bearer/src/ad_listener.c.obj
                                0xbe2 (size before relaxing)
 .debug_str     0x0000c017      0x162 examples/enocean_switch/CMakeFiles/enocean_switch_nrf52840_xxAA_s140_6.0.0.dir/__/__/mesh/bearer/src/ad_type_filter.c.obj
                                0x99f (size before relaxing)
 .debug_str     0x0000c179      0x321 examples/enocean_switch/CMakeFiles/enocean_switch_nrf52840_xxAA_s140_6.0.0.dir/__/__/mesh/bearer/src/advertiser.c.obj
                               0x1561 (size before relaxing)
 .debug_str     0x0000c49a      0x45c examples/enocean_switch/CMakeFiles/enocean_switch_nrf52840_xxAA_s140_6.0.0.dir/__/__/mesh/bearer/src/bearer_handler.c.obj
                               0x10f0 (size before relaxing)
 .debug_str     0x0000c8f6      0x1ac examples/enocean_switch/CMakeFiles/enocean_switch_nrf52840_xxAA_s140_6.0.0.dir/__/__/mesh/bearer/src/broadcast.c.obj
                               0x1062 (size before relaxing)
 .debug_str     0x0000caa2       0x72 examples/enocean_switch/CMakeFiles/enocean_switch_nrf52840_xxAA_s140_6.0.0.dir/__/__/mesh/bearer/src/filter_engine.c.obj
                                0x80c (size before relaxing)
 .debug_str     0x0000cb14       0x79 examples/enocean_switch/CMakeFiles/enocean_switch_nrf52840_xxAA_s140_6.0.0.dir/__/__/mesh/bearer/src/radio_config.c.obj
                                0x8b0 (size before relaxing)
 .debug_str     0x0000cb8d      0x451 examples/enocean_switch/CMakeFiles/enocean_switch_nrf52840_xxAA_s140_6.0.0.dir/__/__/mesh/bearer/src/scanner.c.obj
                               0x1a39 (size before relaxing)
 .debug_str     0x0000cfde      0x463 examples/enocean_switch/CMakeFiles/enocean_switch_nrf52840_xxAA_s140_6.0.0.dir/__/__/models/simple_on_off/src/simple_on_off_client.c.obj
                               0x10ea (size before relaxing)
 .debug_str     0x0000d441      0x22b examples/enocean_switch/CMakeFiles/enocean_switch_nrf52840_xxAA_s140_6.0.0.dir/__/__/models/config/src/composition_data.c.obj
                                0x8dd (size before relaxing)
 .debug_str     0x0000d66c     0x263e examples/enocean_switch/CMakeFiles/enocean_switch_nrf52840_xxAA_s140_6.0.0.dir/__/__/models/config/src/config_server.c.obj
                               0x5005 (size before relaxing)
 .debug_str     0x0000fcaa       0x69 examples/enocean_switch/CMakeFiles/enocean_switch_nrf52840_xxAA_s140_6.0.0.dir/__/__/models/config/src/packed_index_list.c.obj
                                0x24d (size before relaxing)
 .debug_str     0x0000fd13      0x60a examples/enocean_switch/CMakeFiles/enocean_switch_nrf52840_xxAA_s140_6.0.0.dir/__/__/models/health/src/health_server.c.obj
                               0x169f (size before relaxing)
 .debug_str     0x0001031d      0x264 examples/enocean_switch/CMakeFiles/enocean_switch_nrf52840_xxAA_s140_6.0.0.dir/__/__/mesh/access/src/access_publish.c.obj
                                0xbcc (size before relaxing)
 .debug_str     0x00010581      0x776 examples/enocean_switch/CMakeFiles/enocean_switch_nrf52840_xxAA_s140_6.0.0.dir/__/__/mesh/access/src/access.c.obj
                               0x2f65 (size before relaxing)
 .debug_str     0x00010cf7      0x12f examples/enocean_switch/CMakeFiles/enocean_switch_nrf52840_xxAA_s140_6.0.0.dir/__/__/mesh/access/src/access_reliable.c.obj
                               0x1006 (size before relaxing)
 .debug_str     0x00010e26      0xcdb examples/enocean_switch/CMakeFiles/enocean_switch_nrf52840_xxAA_s140_6.0.0.dir/__/__/mesh/access/src/device_state_manager.c.obj
                               0x3068 (size before relaxing)
 .debug_str     0x00011b01      0x5d8 examples/enocean_switch/CMakeFiles/enocean_switch_nrf52840_xxAA_s140_6.0.0.dir/__/__/mesh/prov/src/prov_provisionee.c.obj
                               0x21e8 (size before relaxing)
 .debug_str     0x000120d9      0x247 examples/enocean_switch/CMakeFiles/enocean_switch_nrf52840_xxAA_s140_6.0.0.dir/__/__/mesh/prov/src/nrf_mesh_prov.c.obj
                               0x1dda (size before relaxing)
 .debug_str     0x00012320       0xed examples/enocean_switch/CMakeFiles/enocean_switch_nrf52840_xxAA_s140_6.0.0.dir/__/__/mesh/prov/src/provisioning.c.obj
                                0xf2b (size before relaxing)
 .debug_str     0x0001240d       0xb1 examples/enocean_switch/CMakeFiles/enocean_switch_nrf52840_xxAA_s140_6.0.0.dir/__/__/mesh/prov/src/prov_beacon.c.obj
                               0x195c (size before relaxing)
 .debug_str     0x000124be      0x19e examples/enocean_switch/CMakeFiles/enocean_switch_nrf52840_xxAA_s140_6.0.0.dir/__/__/mesh/prov/src/prov_utils.c.obj
                               0x1f04 (size before relaxing)
 .debug_str     0x0001265c      0x417 examples/enocean_switch/CMakeFiles/enocean_switch_nrf52840_xxAA_s140_6.0.0.dir/__/__/mesh/prov/src/prov_bearer_adv.c.obj
                               0x1bc0 (size before relaxing)
 .debug_str     0x00012a73      0x3bb examples/enocean_switch/CMakeFiles/enocean_switch_nrf52840_xxAA_s140_6.0.0.dir/C_/b/nRF5_SDK_15.0.0_a53641a/modules/nrfx/mdk/system_nrf52840.c.obj
                                0x911 (size before relaxing)
 .debug_str     0x00012e2e       0x9c examples/enocean_switch/CMakeFiles/enocean_switch_nrf52840_xxAA_s140_6.0.0.dir/C_/b/nRF5_SDK_15.0.0_a53641a/components/libraries/util/app_error.c.obj
                                0x724 (size before relaxing)
 .debug_str     0x00012eca       0x4f examples/enocean_switch/CMakeFiles/enocean_switch_nrf52840_xxAA_s140_6.0.0.dir/C_/b/nRF5_SDK_15.0.0_a53641a/components/libraries/util/app_error_handler_gcc.c.obj
                                0x689 (size before relaxing)
 .debug_str     0x00012f19      0x2bf external/rtt/librtt_nrf52840_xxAA.a(SEGGER_RTT.c.obj)
                                0x922 (size before relaxing)
 .debug_str     0x000131d8       0xdf external/rtt/librtt_nrf52840_xxAA.a(SEGGER_RTT_printf.c.obj)
                                0x792 (size before relaxing)
 .debug_str     0x000132b7      0x691 external/micro-ecc/libuECC_nrf52840_xxAA.a(uECC.c.obj)
                                0x880 (size before relaxing)

.debug_frame    0x00000000     0x6f14
 .debug_frame   0x00000000      0x1bc examples/enocean_switch/CMakeFiles/enocean_switch_nrf52840_xxAA_s140_6.0.0.dir/src/main.c.obj
 .debug_frame   0x000001bc       0x78 examples/enocean_switch/CMakeFiles/enocean_switch_nrf52840_xxAA_s140_6.0.0.dir/src/enocean.c.obj
 .debug_frame   0x00000234      0x148 examples/enocean_switch/CMakeFiles/enocean_switch_nrf52840_xxAA_s140_6.0.0.dir/src/flash_helper.c.obj
 .debug_frame   0x0000037c       0xcc examples/enocean_switch/CMakeFiles/enocean_switch_nrf52840_xxAA_s140_6.0.0.dir/__/__/mesh/stack/src/mesh_stack.c.obj
 .debug_frame   0x00000448       0x80 examples/enocean_switch/CMakeFiles/enocean_switch_nrf52840_xxAA_s140_6.0.0.dir/__/common/src/mesh_softdevice_init.c.obj
 .debug_frame   0x000004c8       0x70 examples/enocean_switch/CMakeFiles/enocean_switch_nrf52840_xxAA_s140_6.0.0.dir/__/common/src/mesh_provisionee.c.obj
 .debug_frame   0x00000538       0x54 examples/enocean_switch/CMakeFiles/enocean_switch_nrf52840_xxAA_s140_6.0.0.dir/__/common/src/rtt_input.c.obj
 .debug_frame   0x0000058c       0xa0 examples/enocean_switch/CMakeFiles/enocean_switch_nrf52840_xxAA_s140_6.0.0.dir/__/common/src/simple_hal.c.obj
 .debug_frame   0x0000062c       0x30 examples/enocean_switch/CMakeFiles/enocean_switch_nrf52840_xxAA_s140_6.0.0.dir/__/nrf_mesh_weak.c.obj
 .debug_frame   0x0000065c       0x34 examples/enocean_switch/CMakeFiles/enocean_switch_nrf52840_xxAA_s140_6.0.0.dir/__/common/src/app_error_weak.c.obj
 .debug_frame   0x00000690       0x28 examples/enocean_switch/CMakeFiles/enocean_switch_nrf52840_xxAA_s140_6.0.0.dir/__/common/src/assertion_handler_weak.c.obj
 .debug_frame   0x000006b8       0x4c examples/enocean_switch/CMakeFiles/enocean_switch_nrf52840_xxAA_s140_6.0.0.dir/__/__/mesh/core/src/nrf_mesh_configure.c.obj
 .debug_frame   0x00000704       0x40 examples/enocean_switch/CMakeFiles/enocean_switch_nrf52840_xxAA_s140_6.0.0.dir/__/__/mesh/core/src/aes.c.obj
 .debug_frame   0x00000744       0x6c examples/enocean_switch/CMakeFiles/enocean_switch_nrf52840_xxAA_s140_6.0.0.dir/__/__/mesh/core/src/msg_cache.c.obj
 .debug_frame   0x000007b0      0x404 examples/enocean_switch/CMakeFiles/enocean_switch_nrf52840_xxAA_s140_6.0.0.dir/__/__/mesh/core/src/transport.c.obj
 .debug_frame   0x00000bb4       0x64 examples/enocean_switch/CMakeFiles/enocean_switch_nrf52840_xxAA_s140_6.0.0.dir/__/__/mesh/core/src/event.c.obj
 .debug_frame   0x00000c18      0x128 examples/enocean_switch/CMakeFiles/enocean_switch_nrf52840_xxAA_s140_6.0.0.dir/__/__/mesh/core/src/packet_buffer.c.obj
 .debug_frame   0x00000d40      0x24c examples/enocean_switch/CMakeFiles/enocean_switch_nrf52840_xxAA_s140_6.0.0.dir/__/__/mesh/core/src/flash_manager_defrag.c.obj
 .debug_frame   0x00000f8c       0xd0 examples/enocean_switch/CMakeFiles/enocean_switch_nrf52840_xxAA_s140_6.0.0.dir/__/__/mesh/core/src/fifo.c.obj
 .debug_frame   0x0000105c       0x54 examples/enocean_switch/CMakeFiles/enocean_switch_nrf52840_xxAA_s140_6.0.0.dir/__/__/mesh/core/src/nrf_flash.c.obj
 .debug_frame   0x000010b0       0xa0 examples/enocean_switch/CMakeFiles/enocean_switch_nrf52840_xxAA_s140_6.0.0.dir/__/__/mesh/core/src/packet_mgr.c.obj
 .debug_frame   0x00001150      0x298 examples/enocean_switch/CMakeFiles/enocean_switch_nrf52840_xxAA_s140_6.0.0.dir/__/__/mesh/core/src/net_state.c.obj
 .debug_frame   0x000013e8      0x150 examples/enocean_switch/CMakeFiles/enocean_switch_nrf52840_xxAA_s140_6.0.0.dir/__/__/mesh/core/src/mesh_flash.c.obj
 .debug_frame   0x00001538       0x50 examples/enocean_switch/CMakeFiles/enocean_switch_nrf52840_xxAA_s140_6.0.0.dir/__/__/mesh/core/src/nrf_mesh_utils.c.obj
 .debug_frame   0x00001588      0x190 examples/enocean_switch/CMakeFiles/enocean_switch_nrf52840_xxAA_s140_6.0.0.dir/__/__/mesh/core/src/nrf_mesh.c.obj
 .debug_frame   0x00001718       0x74 examples/enocean_switch/CMakeFiles/enocean_switch_nrf52840_xxAA_s140_6.0.0.dir/__/__/mesh/core/src/queue.c.obj
 .debug_frame   0x0000178c       0x48 examples/enocean_switch/CMakeFiles/enocean_switch_nrf52840_xxAA_s140_6.0.0.dir/__/__/mesh/core/src/hal.c.obj
 .debug_frame   0x000017d4       0xa4 examples/enocean_switch/CMakeFiles/enocean_switch_nrf52840_xxAA_s140_6.0.0.dir/__/__/mesh/core/src/aes_cmac.c.obj
 .debug_frame   0x00001878      0x134 examples/enocean_switch/CMakeFiles/enocean_switch_nrf52840_xxAA_s140_6.0.0.dir/__/__/mesh/core/src/timer_scheduler.c.obj
 .debug_frame   0x000019ac      0x10c examples/enocean_switch/CMakeFiles/enocean_switch_nrf52840_xxAA_s140_6.0.0.dir/__/__/mesh/core/src/timer.c.obj
 .debug_frame   0x00001ab8       0x4c examples/enocean_switch/CMakeFiles/enocean_switch_nrf52840_xxAA_s140_6.0.0.dir/__/__/mesh/core/src/ticker.c.obj
 .debug_frame   0x00001b04       0x84 examples/enocean_switch/CMakeFiles/enocean_switch_nrf52840_xxAA_s140_6.0.0.dir/__/__/mesh/core/src/rand.c.obj
 .debug_frame   0x00001b88       0x30 examples/enocean_switch/CMakeFiles/enocean_switch_nrf52840_xxAA_s140_6.0.0.dir/__/__/mesh/core/src/nrf_mesh_opt.c.obj
 .debug_frame   0x00001bb8      0x1a0 examples/enocean_switch/CMakeFiles/enocean_switch_nrf52840_xxAA_s140_6.0.0.dir/__/__/mesh/core/src/timeslot.c.obj
 .debug_frame   0x00001d58      0x1bc examples/enocean_switch/CMakeFiles/enocean_switch_nrf52840_xxAA_s140_6.0.0.dir/__/__/mesh/core/src/bearer_event.c.obj
 .debug_frame   0x00001f14      0x13c examples/enocean_switch/CMakeFiles/enocean_switch_nrf52840_xxAA_s140_6.0.0.dir/__/__/mesh/core/src/enc.c.obj
 .debug_frame   0x00002050      0x100 examples/enocean_switch/CMakeFiles/enocean_switch_nrf52840_xxAA_s140_6.0.0.dir/__/__/mesh/core/src/network.c.obj
 .debug_frame   0x00002150      0x114 examples/enocean_switch/CMakeFiles/enocean_switch_nrf52840_xxAA_s140_6.0.0.dir/__/__/mesh/core/src/net_packet.c.obj
 .debug_frame   0x00002264       0xb4 examples/enocean_switch/CMakeFiles/enocean_switch_nrf52840_xxAA_s140_6.0.0.dir/__/__/mesh/core/src/msqueue.c.obj
 .debug_frame   0x00002318       0xb4 examples/enocean_switch/CMakeFiles/enocean_switch_nrf52840_xxAA_s140_6.0.0.dir/__/__/mesh/core/src/nrf_mesh_keygen.c.obj
 .debug_frame   0x000023cc       0xc8 examples/enocean_switch/CMakeFiles/enocean_switch_nrf52840_xxAA_s140_6.0.0.dir/__/__/mesh/core/src/list.c.obj
 .debug_frame   0x00002494       0xb0 examples/enocean_switch/CMakeFiles/enocean_switch_nrf52840_xxAA_s140_6.0.0.dir/__/__/mesh/core/src/log.c.obj
 .debug_frame   0x00002544      0x320 examples/enocean_switch/CMakeFiles/enocean_switch_nrf52840_xxAA_s140_6.0.0.dir/__/__/mesh/core/src/flash_manager.c.obj
 .debug_frame   0x00002864      0x10c examples/enocean_switch/CMakeFiles/enocean_switch_nrf52840_xxAA_s140_6.0.0.dir/__/__/mesh/core/src/ccm_soft.c.obj
 .debug_frame   0x00002970       0x80 examples/enocean_switch/CMakeFiles/enocean_switch_nrf52840_xxAA_s140_6.0.0.dir/__/__/mesh/core/src/replay_cache.c.obj
 .debug_frame   0x000029f0       0x60 examples/enocean_switch/CMakeFiles/enocean_switch_nrf52840_xxAA_s140_6.0.0.dir/__/__/mesh/core/src/beacon.c.obj
 .debug_frame   0x00002a50       0x34 examples/enocean_switch/CMakeFiles/enocean_switch_nrf52840_xxAA_s140_6.0.0.dir/__/__/mesh/core/src/flash_manager_internal.c.obj
 .debug_frame   0x00002a84       0xf0 examples/enocean_switch/CMakeFiles/enocean_switch_nrf52840_xxAA_s140_6.0.0.dir/__/__/mesh/core/src/core_tx.c.obj
 .debug_frame   0x00002b74      0x160 examples/enocean_switch/CMakeFiles/enocean_switch_nrf52840_xxAA_s140_6.0.0.dir/__/__/mesh/core/src/heartbeat.c.obj
 .debug_frame   0x00002cd4      0x138 examples/enocean_switch/CMakeFiles/enocean_switch_nrf52840_xxAA_s140_6.0.0.dir/__/__/mesh/core/src/net_beacon.c.obj
 .debug_frame   0x00002e0c      0x12c examples/enocean_switch/CMakeFiles/enocean_switch_nrf52840_xxAA_s140_6.0.0.dir/__/__/mesh/core/src/core_tx_adv.c.obj
 .debug_frame   0x00002f38       0x6c examples/enocean_switch/CMakeFiles/enocean_switch_nrf52840_xxAA_s140_6.0.0.dir/__/__/mesh/bearer/src/ad_listener.c.obj
 .debug_frame   0x00002fa4       0xa8 examples/enocean_switch/CMakeFiles/enocean_switch_nrf52840_xxAA_s140_6.0.0.dir/__/__/mesh/bearer/src/ad_type_filter.c.obj
 .debug_frame   0x0000304c      0x268 examples/enocean_switch/CMakeFiles/enocean_switch_nrf52840_xxAA_s140_6.0.0.dir/__/__/mesh/bearer/src/advertiser.c.obj
 .debug_frame   0x000032b4      0x158 examples/enocean_switch/CMakeFiles/enocean_switch_nrf52840_xxAA_s140_6.0.0.dir/__/__/mesh/bearer/src/bearer_handler.c.obj
 .debug_frame   0x0000340c       0x70 examples/enocean_switch/CMakeFiles/enocean_switch_nrf52840_xxAA_s140_6.0.0.dir/__/__/mesh/bearer/src/broadcast.c.obj
 .debug_frame   0x0000347c       0x74 examples/enocean_switch/CMakeFiles/enocean_switch_nrf52840_xxAA_s140_6.0.0.dir/__/__/mesh/bearer/src/filter_engine.c.obj
 .debug_frame   0x000034f0       0x94 examples/enocean_switch/CMakeFiles/enocean_switch_nrf52840_xxAA_s140_6.0.0.dir/__/__/mesh/bearer/src/radio_config.c.obj
 .debug_frame   0x00003584      0x2a4 examples/enocean_switch/CMakeFiles/enocean_switch_nrf52840_xxAA_s140_6.0.0.dir/__/__/mesh/bearer/src/scanner.c.obj
 .debug_frame   0x00003828      0x100 examples/enocean_switch/CMakeFiles/enocean_switch_nrf52840_xxAA_s140_6.0.0.dir/__/__/models/simple_on_off/src/simple_on_off_client.c.obj
 .debug_frame   0x00003928       0x40 examples/enocean_switch/CMakeFiles/enocean_switch_nrf52840_xxAA_s140_6.0.0.dir/__/__/models/config/src/composition_data.c.obj
 .debug_frame   0x00003968      0x8bc examples/enocean_switch/CMakeFiles/enocean_switch_nrf52840_xxAA_s140_6.0.0.dir/__/__/models/config/src/config_server.c.obj
 .debug_frame   0x00004224       0x2c examples/enocean_switch/CMakeFiles/enocean_switch_nrf52840_xxAA_s140_6.0.0.dir/__/__/models/config/src/packed_index_list.c.obj
 .debug_frame   0x00004250      0x2a0 examples/enocean_switch/CMakeFiles/enocean_switch_nrf52840_xxAA_s140_6.0.0.dir/__/__/models/health/src/health_server.c.obj
 .debug_frame   0x000044f0      0x114 examples/enocean_switch/CMakeFiles/enocean_switch_nrf52840_xxAA_s140_6.0.0.dir/__/__/mesh/access/src/access_publish.c.obj
 .debug_frame   0x00004604      0x5c0 examples/enocean_switch/CMakeFiles/enocean_switch_nrf52840_xxAA_s140_6.0.0.dir/__/__/mesh/access/src/access.c.obj
 .debug_frame   0x00004bc4      0x124 examples/enocean_switch/CMakeFiles/enocean_switch_nrf52840_xxAA_s140_6.0.0.dir/__/__/mesh/access/src/access_reliable.c.obj
 .debug_frame   0x00004ce8      0xaf4 examples/enocean_switch/CMakeFiles/enocean_switch_nrf52840_xxAA_s140_6.0.0.dir/__/__/mesh/access/src/device_state_manager.c.obj
 .debug_frame   0x000057dc      0x198 examples/enocean_switch/CMakeFiles/enocean_switch_nrf52840_xxAA_s140_6.0.0.dir/__/__/mesh/prov/src/prov_provisionee.c.obj
 .debug_frame   0x00005974      0x160 examples/enocean_switch/CMakeFiles/enocean_switch_nrf52840_xxAA_s140_6.0.0.dir/__/__/mesh/prov/src/nrf_mesh_prov.c.obj
 .debug_frame   0x00005ad4      0x170 examples/enocean_switch/CMakeFiles/enocean_switch_nrf52840_xxAA_s140_6.0.0.dir/__/__/mesh/prov/src/provisioning.c.obj
 .debug_frame   0x00005c44       0x84 examples/enocean_switch/CMakeFiles/enocean_switch_nrf52840_xxAA_s140_6.0.0.dir/__/__/mesh/prov/src/prov_beacon.c.obj
 .debug_frame   0x00005cc8      0x150 examples/enocean_switch/CMakeFiles/enocean_switch_nrf52840_xxAA_s140_6.0.0.dir/__/__/mesh/prov/src/prov_utils.c.obj
 .debug_frame   0x00005e18      0x324 examples/enocean_switch/CMakeFiles/enocean_switch_nrf52840_xxAA_s140_6.0.0.dir/__/__/mesh/prov/src/prov_bearer_adv.c.obj
 .debug_frame   0x0000613c       0x48 examples/enocean_switch/CMakeFiles/enocean_switch_nrf52840_xxAA_s140_6.0.0.dir/C_/b/nRF5_SDK_15.0.0_a53641a/modules/nrfx/mdk/system_nrf52840.c.obj
 .debug_frame   0x00006184       0x44 examples/enocean_switch/CMakeFiles/enocean_switch_nrf52840_xxAA_s140_6.0.0.dir/C_/b/nRF5_SDK_15.0.0_a53641a/components/libraries/util/app_error.c.obj
 .debug_frame   0x000061c8       0x20 examples/enocean_switch/CMakeFiles/enocean_switch_nrf52840_xxAA_s140_6.0.0.dir/C_/b/nRF5_SDK_15.0.0_a53641a/components/libraries/util/app_error_handler_gcc.c.obj
 .debug_frame   0x000061e8      0x2d8 external/rtt/librtt_nrf52840_xxAA.a(SEGGER_RTT.c.obj)
 .debug_frame   0x000064c0       0xac external/rtt/librtt_nrf52840_xxAA.a(SEGGER_RTT_printf.c.obj)
 .debug_frame   0x0000656c      0x684 external/micro-ecc/libuECC_nrf52840_xxAA.a(uECC.c.obj)
 .debug_frame   0x00006bf0       0x2c c:/mesh/arm_gcc/bin/../lib/gcc/arm-none-eabi/6.3.1/thumb/v7e-m/fpv4-sp/hard\libgcc.a(_aeabi_uldivmod.o)
 .debug_frame   0x00006c1c       0x34 c:/mesh/arm_gcc/bin/../lib/gcc/arm-none-eabi/6.3.1/thumb/v7e-m/fpv4-sp/hard\libgcc.a(_udivmoddi4.o)
 .debug_frame   0x00006c50       0x28 c:/mesh/arm_gcc/bin/../lib/gcc/arm-none-eabi/6.3.1/../../../../arm-none-eabi/lib/thumb/v7e-m/fpv4-sp/hard\libg_nano.a(lib_a-exit.o)
 .debug_frame   0x00006c78       0x2c c:/mesh/arm_gcc/bin/../lib/gcc/arm-none-eabi/6.3.1/../../../../arm-none-eabi/lib/thumb/v7e-m/fpv4-sp/hard\libg_nano.a(lib_a-init.o)
 .debug_frame   0x00006ca4       0x30 c:/mesh/arm_gcc/bin/../lib/gcc/arm-none-eabi/6.3.1/../../../../arm-none-eabi/lib/thumb/v7e-m/fpv4-sp/hard\libg_nano.a(lib_a-malloc.o)
 .debug_frame   0x00006cd4       0x28 c:/mesh/arm_gcc/bin/../lib/gcc/arm-none-eabi/6.3.1/../../../../arm-none-eabi/lib/thumb/v7e-m/fpv4-sp/hard\libg_nano.a(lib_a-memcmp.o)
 .debug_frame   0x00006cfc       0x28 c:/mesh/arm_gcc/bin/../lib/gcc/arm-none-eabi/6.3.1/../../../../arm-none-eabi/lib/thumb/v7e-m/fpv4-sp/hard\libg_nano.a(lib_a-memcpy-stub.o)
 .debug_frame   0x00006d24       0x20 c:/mesh/arm_gcc/bin/../lib/gcc/arm-none-eabi/6.3.1/../../../../arm-none-eabi/lib/thumb/v7e-m/fpv4-sp/hard\libg_nano.a(lib_a-memset.o)
 .debug_frame   0x00006d44       0x38 c:/mesh/arm_gcc/bin/../lib/gcc/arm-none-eabi/6.3.1/../../../../arm-none-eabi/lib/thumb/v7e-m/fpv4-sp/hard\libg_nano.a(lib_a-nano-freer.o)
 .debug_frame   0x00006d7c       0x2c c:/mesh/arm_gcc/bin/../lib/gcc/arm-none-eabi/6.3.1/../../../../arm-none-eabi/lib/thumb/v7e-m/fpv4-sp/hard\libg_nano.a(lib_a-nano-mallocr.o)
 .debug_frame   0x00006da8       0x2c c:/mesh/arm_gcc/bin/../lib/gcc/arm-none-eabi/6.3.1/../../../../arm-none-eabi/lib/thumb/v7e-m/fpv4-sp/hard\libg_nano.a(lib_a-sbrkr.o)
 .debug_frame   0x00006dd4       0x20 c:/mesh/arm_gcc/bin/../lib/gcc/arm-none-eabi/6.3.1/../../../../arm-none-eabi/lib/thumb/v7e-m/fpv4-sp/hard\libg_nano.a(lib_a-strcpy.o)
 .debug_frame   0x00006df4       0x34 c:/mesh/arm_gcc/bin/../lib/gcc/arm-none-eabi/6.3.1/../../../../arm-none-eabi/lib/thumb/v7e-m/fpv4-sp/hard\libg_nano.a(lib_a-strrchr.o)
 .debug_frame   0x00006e28       0x30 c:/mesh/arm_gcc/bin/../lib/gcc/arm-none-eabi/6.3.1/../../../../arm-none-eabi/lib/thumb/v7e-m/fpv4-sp/hard\libg_nano.a(lib_a-mlock.o)
 .debug_frame   0x00006e58       0x5c c:/mesh/arm_gcc/bin/../lib/gcc/arm-none-eabi/6.3.1/../../../../arm-none-eabi/lib/thumb/v7e-m/fpv4-sp/hard\libg_nano.a(lib_a-reent.o)
 .debug_frame   0x00006eb4       0x20 c:/mesh/arm_gcc/bin/../lib/gcc/arm-none-eabi/6.3.1/../../../../arm-none-eabi/lib/thumb/v7e-m/fpv4-sp/hard\libg_nano.a(lib_a-strchr.o)
 .debug_frame   0x00006ed4       0x20 c:/mesh/arm_gcc/bin/../lib/gcc/arm-none-eabi/6.3.1/../../../../arm-none-eabi/lib/thumb/v7e-m/fpv4-sp/hard\libnosys.a(sbrk.o)
 .debug_frame   0x00006ef4       0x20 c:/mesh/arm_gcc/bin/../lib/gcc/arm-none-eabi/6.3.1/../../../../arm-none-eabi/lib/thumb/v7e-m/fpv4-sp/hard\libnosys.a(_exit.o)
