Archive member included to satisfy reference by file (symbol)

external/rtt/librtt_nrf52832_xxAA.a(SEGGER_RTT.c.obj)
                              examples/light_switch/proxy_server/CMakeFiles/light_switch_proxy_server_nrf52832_xxAA_s132_6.0.0.dir/__/__/__/mesh/core/src/log.c.obj (SEGGER_RTT_Write)
external/rtt/librtt_nrf52832_xxAA.a(SEGGER_RTT_printf.c.obj)
                              examples/light_switch/proxy_server/CMakeFiles/light_switch_proxy_server_nrf52832_xxAA_s132_6.0.0.dir/__/__/__/mesh/core/src/log.c.obj (SEGGER_RTT_vprintf)
external/micro-ecc/libuECC_nrf52832_xxAA.a(uECC.c.obj)
                              examples/light_switch/proxy_server/CMakeFiles/light_switch_proxy_server_nrf52832_xxAA_s132_6.0.0.dir/__/__/__/mesh/prov/src/prov_utils.c.obj (uECC_secp256r1)
c:/mesh/arm_gcc/bin/../lib/gcc/arm-none-eabi/6.3.1/thumb/v7e-m/fpv4-sp/hard\libgcc.a(_aeabi_uldivmod.o)
                              examples/light_switch/proxy_server/CMakeFiles/light_switch_proxy_server_nrf52832_xxAA_s132_6.0.0.dir/__/__/common/src/rtt_input.c.obj (__aeabi_uldivmod)
c:/mesh/arm_gcc/bin/../lib/gcc/arm-none-eabi/6.3.1/thumb/v7e-m/fpv4-sp/hard\libgcc.a(_udivmoddi4.o)
                              c:/mesh/arm_gcc/bin/../lib/gcc/arm-none-eabi/6.3.1/thumb/v7e-m/fpv4-sp/hard\libgcc.a(_aeabi_uldivmod.o) (__udivmoddi4)
c:/mesh/arm_gcc/bin/../lib/gcc/arm-none-eabi/6.3.1/thumb/v7e-m/fpv4-sp/hard\libgcc.a(_dvmd_tls.o)
                              c:/mesh/arm_gcc/bin/../lib/gcc/arm-none-eabi/6.3.1/thumb/v7e-m/fpv4-sp/hard\libgcc.a(_aeabi_uldivmod.o) (__aeabi_ldiv0)
c:/mesh/arm_gcc/bin/../lib/gcc/arm-none-eabi/6.3.1/../../../../arm-none-eabi/lib/thumb/v7e-m/fpv4-sp/hard\libg_nano.a(lib_a-exit.o)
                              c:/mesh/arm_gcc/bin/../lib/gcc/arm-none-eabi/6.3.1/../../../../arm-none-eabi/lib/thumb/v7e-m/fpv4-sp/hard/crt0.o (exit)
c:/mesh/arm_gcc/bin/../lib/gcc/arm-none-eabi/6.3.1/../../../../arm-none-eabi/lib/thumb/v7e-m/fpv4-sp/hard\libg_nano.a(lib_a-impure.o)
                              c:/mesh/arm_gcc/bin/../lib/gcc/arm-none-eabi/6.3.1/../../../../arm-none-eabi/lib/thumb/v7e-m/fpv4-sp/hard\libg_nano.a(lib_a-exit.o) (_global_impure_ptr)
c:/mesh/arm_gcc/bin/../lib/gcc/arm-none-eabi/6.3.1/../../../../arm-none-eabi/lib/thumb/v7e-m/fpv4-sp/hard\libg_nano.a(lib_a-init.o)
                              c:/mesh/arm_gcc/bin/../lib/gcc/arm-none-eabi/6.3.1/../../../../arm-none-eabi/lib/thumb/v7e-m/fpv4-sp/hard/crt0.o (__libc_init_array)
c:/mesh/arm_gcc/bin/../lib/gcc/arm-none-eabi/6.3.1/../../../../arm-none-eabi/lib/thumb/v7e-m/fpv4-sp/hard\libg_nano.a(lib_a-malloc.o)
                              examples/light_switch/proxy_server/CMakeFiles/light_switch_proxy_server_nrf52832_xxAA_s132_6.0.0.dir/__/__/__/mesh/core/src/transport.c.obj (malloc)
c:/mesh/arm_gcc/bin/../lib/gcc/arm-none-eabi/6.3.1/../../../../arm-none-eabi/lib/thumb/v7e-m/fpv4-sp/hard\libg_nano.a(lib_a-memcmp.o)
                              examples/light_switch/proxy_server/CMakeFiles/light_switch_proxy_server_nrf52832_xxAA_s132_6.0.0.dir/C_/b/nRF5_SDK_15.0.0_a53641a/components/ble/common/ble_advdata.c.obj (memcmp)
c:/mesh/arm_gcc/bin/../lib/gcc/arm-none-eabi/6.3.1/../../../../arm-none-eabi/lib/thumb/v7e-m/fpv4-sp/hard\libg_nano.a(lib_a-memcpy-stub.o)
                              examples/light_switch/proxy_server/CMakeFiles/light_switch_proxy_server_nrf52832_xxAA_s132_6.0.0.dir/__/__/common/src/mesh_app_utils.c.obj (memcpy)
c:/mesh/arm_gcc/bin/../lib/gcc/arm-none-eabi/6.3.1/../../../../arm-none-eabi/lib/thumb/v7e-m/fpv4-sp/hard\libg_nano.a(lib_a-memset.o)
                              c:/mesh/arm_gcc/bin/../lib/gcc/arm-none-eabi/6.3.1/../../../../arm-none-eabi/lib/thumb/v7e-m/fpv4-sp/hard/crt0.o (memset)
c:/mesh/arm_gcc/bin/../lib/gcc/arm-none-eabi/6.3.1/../../../../arm-none-eabi/lib/thumb/v7e-m/fpv4-sp/hard\libg_nano.a(lib_a-nano-freer.o)
                              c:/mesh/arm_gcc/bin/../lib/gcc/arm-none-eabi/6.3.1/../../../../arm-none-eabi/lib/thumb/v7e-m/fpv4-sp/hard\libg_nano.a(lib_a-malloc.o) (_free_r)
c:/mesh/arm_gcc/bin/../lib/gcc/arm-none-eabi/6.3.1/../../../../arm-none-eabi/lib/thumb/v7e-m/fpv4-sp/hard\libg_nano.a(lib_a-nano-mallocr.o)
                              c:/mesh/arm_gcc/bin/../lib/gcc/arm-none-eabi/6.3.1/../../../../arm-none-eabi/lib/thumb/v7e-m/fpv4-sp/hard\libg_nano.a(lib_a-malloc.o) (_malloc_r)
c:/mesh/arm_gcc/bin/../lib/gcc/arm-none-eabi/6.3.1/../../../../arm-none-eabi/lib/thumb/v7e-m/fpv4-sp/hard\libg_nano.a(lib_a-sbrkr.o)
                              c:/mesh/arm_gcc/bin/../lib/gcc/arm-none-eabi/6.3.1/../../../../arm-none-eabi/lib/thumb/v7e-m/fpv4-sp/hard\libg_nano.a(lib_a-nano-mallocr.o) (_sbrk_r)
c:/mesh/arm_gcc/bin/../lib/gcc/arm-none-eabi/6.3.1/../../../../arm-none-eabi/lib/thumb/v7e-m/fpv4-sp/hard\libg_nano.a(lib_a-strcpy.o)
                              external/rtt/librtt_nrf52832_xxAA.a(SEGGER_RTT.c.obj) (strcpy)
c:/mesh/arm_gcc/bin/../lib/gcc/arm-none-eabi/6.3.1/../../../../arm-none-eabi/lib/thumb/v7e-m/fpv4-sp/hard\libg_nano.a(lib_a-strlen.o)
                              examples/light_switch/proxy_server/CMakeFiles/light_switch_proxy_server_nrf52832_xxAA_s132_6.0.0.dir/src/main.c.obj (strlen)
c:/mesh/arm_gcc/bin/../lib/gcc/arm-none-eabi/6.3.1/../../../../arm-none-eabi/lib/thumb/v7e-m/fpv4-sp/hard\libg_nano.a(lib_a-strrchr.o)
                              examples/light_switch/proxy_server/CMakeFiles/light_switch_proxy_server_nrf52832_xxAA_s132_6.0.0.dir/src/main.c.obj (strrchr)
c:/mesh/arm_gcc/bin/../lib/gcc/arm-none-eabi/6.3.1/../../../../arm-none-eabi/lib/thumb/v7e-m/fpv4-sp/hard\libg_nano.a(lib_a-mlock.o)
                              c:/mesh/arm_gcc/bin/../lib/gcc/arm-none-eabi/6.3.1/../../../../arm-none-eabi/lib/thumb/v7e-m/fpv4-sp/hard\libg_nano.a(lib_a-nano-freer.o) (__malloc_lock)
c:/mesh/arm_gcc/bin/../lib/gcc/arm-none-eabi/6.3.1/../../../../arm-none-eabi/lib/thumb/v7e-m/fpv4-sp/hard\libg_nano.a(lib_a-reent.o)
                              c:/mesh/arm_gcc/bin/../lib/gcc/arm-none-eabi/6.3.1/../../../../arm-none-eabi/lib/thumb/v7e-m/fpv4-sp/hard\libg_nano.a(lib_a-sbrkr.o) (errno)
c:/mesh/arm_gcc/bin/../lib/gcc/arm-none-eabi/6.3.1/../../../../arm-none-eabi/lib/thumb/v7e-m/fpv4-sp/hard\libg_nano.a(lib_a-strchr.o)
                              c:/mesh/arm_gcc/bin/../lib/gcc/arm-none-eabi/6.3.1/../../../../arm-none-eabi/lib/thumb/v7e-m/fpv4-sp/hard\libg_nano.a(lib_a-strrchr.o) (strchr)
c:/mesh/arm_gcc/bin/../lib/gcc/arm-none-eabi/6.3.1/../../../../arm-none-eabi/lib/thumb/v7e-m/fpv4-sp/hard\libnosys.a(sbrk.o)
                              c:/mesh/arm_gcc/bin/../lib/gcc/arm-none-eabi/6.3.1/../../../../arm-none-eabi/lib/thumb/v7e-m/fpv4-sp/hard\libg_nano.a(lib_a-sbrkr.o) (_sbrk)
c:/mesh/arm_gcc/bin/../lib/gcc/arm-none-eabi/6.3.1/../../../../arm-none-eabi/lib/thumb/v7e-m/fpv4-sp/hard\libnosys.a(_exit.o)
                              c:/mesh/arm_gcc/bin/../lib/gcc/arm-none-eabi/6.3.1/../../../../arm-none-eabi/lib/thumb/v7e-m/fpv4-sp/hard\libg_nano.a(lib_a-exit.o) (_exit)

Allocating common symbols
Common symbol       size              file

nrf_nvic_state      0xc               examples/light_switch/proxy_server/CMakeFiles/light_switch_proxy_server_nrf52832_xxAA_s132_6.0.0.dir/C_/b/nRF5_SDK_15.0.0_a53641a/components/libraries/util/app_util_platform.c.obj
m_packet            0x24              examples/light_switch/proxy_server/CMakeFiles/light_switch_proxy_server_nrf52832_xxAA_s132_6.0.0.dir/__/__/__/mesh/core/src/core_tx.c.obj
errno               0x4               c:/mesh/arm_gcc/bin/../lib/gcc/arm-none-eabi/6.3.1/../../../../arm-none-eabi/lib/thumb/v7e-m/fpv4-sp/hard\libg_nano.a(lib_a-reent.o)
_SEGGER_RTT         0x78              external/rtt/librtt_nrf52832_xxAA.a(SEGGER_RTT.c.obj)

Discarded input sections

 .text          0x00000000        0x0 c:/mesh/arm_gcc/bin/../lib/gcc/arm-none-eabi/6.3.1/thumb/v7e-m/fpv4-sp/hard/crti.o
 .data          0x00000000        0x0 c:/mesh/arm_gcc/bin/../lib/gcc/arm-none-eabi/6.3.1/thumb/v7e-m/fpv4-sp/hard/crti.o
 .bss           0x00000000        0x0 c:/mesh/arm_gcc/bin/../lib/gcc/arm-none-eabi/6.3.1/thumb/v7e-m/fpv4-sp/hard/crti.o
 .data          0x00000000        0x4 c:/mesh/arm_gcc/bin/../lib/gcc/arm-none-eabi/6.3.1/thumb/v7e-m/fpv4-sp/hard/crtbegin.o
 .data          0x00000000        0x0 c:/mesh/arm_gcc/bin/../lib/gcc/arm-none-eabi/6.3.1/../../../../arm-none-eabi/lib/thumb/v7e-m/fpv4-sp/hard/crt0.o
 .bss           0x00000000        0x0 c:/mesh/arm_gcc/bin/../lib/gcc/arm-none-eabi/6.3.1/../../../../arm-none-eabi/lib/thumb/v7e-m/fpv4-sp/hard/crt0.o
 .ARM.extab     0x00000000        0x0 c:/mesh/arm_gcc/bin/../lib/gcc/arm-none-eabi/6.3.1/../../../../arm-none-eabi/lib/thumb/v7e-m/fpv4-sp/hard/crt0.o
 .text          0x00000000        0x0 examples/light_switch/proxy_server/CMakeFiles/light_switch_proxy_server_nrf52832_xxAA_s132_6.0.0.dir/src/main.c.obj
 .data          0x00000000        0x0 examples/light_switch/proxy_server/CMakeFiles/light_switch_proxy_server_nrf52832_xxAA_s132_6.0.0.dir/src/main.c.obj
 .bss           0x00000000        0x0 examples/light_switch/proxy_server/CMakeFiles/light_switch_proxy_server_nrf52832_xxAA_s132_6.0.0.dir/src/main.c.obj
 .text          0x00000000        0x0 examples/light_switch/proxy_server/CMakeFiles/light_switch_proxy_server_nrf52832_xxAA_s132_6.0.0.dir/__/__/__/mesh/stack/src/mesh_stack.c.obj
 .data          0x00000000        0x0 examples/light_switch/proxy_server/CMakeFiles/light_switch_proxy_server_nrf52832_xxAA_s132_6.0.0.dir/__/__/__/mesh/stack/src/mesh_stack.c.obj
 .bss           0x00000000        0x0 examples/light_switch/proxy_server/CMakeFiles/light_switch_proxy_server_nrf52832_xxAA_s132_6.0.0.dir/__/__/__/mesh/stack/src/mesh_stack.c.obj
 .text          0x00000000        0x0 examples/light_switch/proxy_server/CMakeFiles/light_switch_proxy_server_nrf52832_xxAA_s132_6.0.0.dir/__/__/common/src/mesh_provisionee.c.obj
 .data          0x00000000        0x0 examples/light_switch/proxy_server/CMakeFiles/light_switch_proxy_server_nrf52832_xxAA_s132_6.0.0.dir/__/__/common/src/mesh_provisionee.c.obj
 .bss           0x00000000        0x0 examples/light_switch/proxy_server/CMakeFiles/light_switch_proxy_server_nrf52832_xxAA_s132_6.0.0.dir/__/__/common/src/mesh_provisionee.c.obj
 .text          0x00000000        0x0 examples/light_switch/proxy_server/CMakeFiles/light_switch_proxy_server_nrf52832_xxAA_s132_6.0.0.dir/__/__/common/src/rtt_input.c.obj
 .data          0x00000000        0x0 examples/light_switch/proxy_server/CMakeFiles/light_switch_proxy_server_nrf52832_xxAA_s132_6.0.0.dir/__/__/common/src/rtt_input.c.obj
 .bss           0x00000000        0x0 examples/light_switch/proxy_server/CMakeFiles/light_switch_proxy_server_nrf52832_xxAA_s132_6.0.0.dir/__/__/common/src/rtt_input.c.obj
 .text.rtt_input_disable
                0x00000000       0x24 examples/light_switch/proxy_server/CMakeFiles/light_switch_proxy_server_nrf52832_xxAA_s132_6.0.0.dir/__/__/common/src/rtt_input.c.obj
 .text          0x00000000        0x0 examples/light_switch/proxy_server/CMakeFiles/light_switch_proxy_server_nrf52832_xxAA_s132_6.0.0.dir/__/__/common/src/simple_hal.c.obj
 .data          0x00000000        0x0 examples/light_switch/proxy_server/CMakeFiles/light_switch_proxy_server_nrf52832_xxAA_s132_6.0.0.dir/__/__/common/src/simple_hal.c.obj
 .bss           0x00000000        0x0 examples/light_switch/proxy_server/CMakeFiles/light_switch_proxy_server_nrf52832_xxAA_s132_6.0.0.dir/__/__/common/src/simple_hal.c.obj
 .text          0x00000000        0x0 examples/light_switch/proxy_server/CMakeFiles/light_switch_proxy_server_nrf52832_xxAA_s132_6.0.0.dir/__/__/common/src/mesh_app_utils.c.obj
 .data          0x00000000        0x0 examples/light_switch/proxy_server/CMakeFiles/light_switch_proxy_server_nrf52832_xxAA_s132_6.0.0.dir/__/__/common/src/mesh_app_utils.c.obj
 .bss           0x00000000        0x0 examples/light_switch/proxy_server/CMakeFiles/light_switch_proxy_server_nrf52832_xxAA_s132_6.0.0.dir/__/__/common/src/mesh_app_utils.c.obj
 .text          0x00000000        0x0 examples/light_switch/proxy_server/CMakeFiles/light_switch_proxy_server_nrf52832_xxAA_s132_6.0.0.dir/__/__/common/src/mesh_adv.c.obj
 .data          0x00000000        0x0 examples/light_switch/proxy_server/CMakeFiles/light_switch_proxy_server_nrf52832_xxAA_s132_6.0.0.dir/__/__/common/src/mesh_adv.c.obj
 .bss           0x00000000        0x0 examples/light_switch/proxy_server/CMakeFiles/light_switch_proxy_server_nrf52832_xxAA_s132_6.0.0.dir/__/__/common/src/mesh_adv.c.obj
 .text          0x00000000        0x0 examples/light_switch/proxy_server/CMakeFiles/light_switch_proxy_server_nrf52832_xxAA_s132_6.0.0.dir/__/__/__/mesh/prov/src/nrf_mesh_prov_bearer_gatt.c.obj
 .data          0x00000000        0x0 examples/light_switch/proxy_server/CMakeFiles/light_switch_proxy_server_nrf52832_xxAA_s132_6.0.0.dir/__/__/__/mesh/prov/src/nrf_mesh_prov_bearer_gatt.c.obj
 .bss           0x00000000        0x0 examples/light_switch/proxy_server/CMakeFiles/light_switch_proxy_server_nrf52832_xxAA_s132_6.0.0.dir/__/__/__/mesh/prov/src/nrf_mesh_prov_bearer_gatt.c.obj
 .text          0x00000000        0x0 examples/light_switch/proxy_server/CMakeFiles/light_switch_proxy_server_nrf52832_xxAA_s132_6.0.0.dir/C_/b/nRF5_SDK_15.0.0_a53641a/components/libraries/util/app_util_platform.c.obj
 .data          0x00000000        0x0 examples/light_switch/proxy_server/CMakeFiles/light_switch_proxy_server_nrf52832_xxAA_s132_6.0.0.dir/C_/b/nRF5_SDK_15.0.0_a53641a/components/libraries/util/app_util_platform.c.obj
 .bss           0x00000000        0x0 examples/light_switch/proxy_server/CMakeFiles/light_switch_proxy_server_nrf52832_xxAA_s132_6.0.0.dir/C_/b/nRF5_SDK_15.0.0_a53641a/components/libraries/util/app_util_platform.c.obj
 .text.app_util_disable_irq
                0x00000000       0x10 examples/light_switch/proxy_server/CMakeFiles/light_switch_proxy_server_nrf52832_xxAA_s132_6.0.0.dir/C_/b/nRF5_SDK_15.0.0_a53641a/components/libraries/util/app_util_platform.c.obj
 .text.app_util_enable_irq
                0x00000000       0x14 examples/light_switch/proxy_server/CMakeFiles/light_switch_proxy_server_nrf52832_xxAA_s132_6.0.0.dir/C_/b/nRF5_SDK_15.0.0_a53641a/components/libraries/util/app_util_platform.c.obj
 .text.privilege_level_get
                0x00000000       0x1a examples/light_switch/proxy_server/CMakeFiles/light_switch_proxy_server_nrf52832_xxAA_s132_6.0.0.dir/C_/b/nRF5_SDK_15.0.0_a53641a/components/libraries/util/app_util_platform.c.obj
 .text.current_int_priority_get
                0x00000000       0x38 examples/light_switch/proxy_server/CMakeFiles/light_switch_proxy_server_nrf52832_xxAA_s132_6.0.0.dir/C_/b/nRF5_SDK_15.0.0_a53641a/components/libraries/util/app_util_platform.c.obj
 .bss.m_in_critical_region
                0x00000000        0x4 examples/light_switch/proxy_server/CMakeFiles/light_switch_proxy_server_nrf52832_xxAA_s132_6.0.0.dir/C_/b/nRF5_SDK_15.0.0_a53641a/components/libraries/util/app_util_platform.c.obj
 .text          0x00000000        0x0 examples/light_switch/proxy_server/CMakeFiles/light_switch_proxy_server_nrf52832_xxAA_s132_6.0.0.dir/C_/b/nRF5_SDK_15.0.0_a53641a/components/ble/common/ble_advdata.c.obj
 .data          0x00000000        0x0 examples/light_switch/proxy_server/CMakeFiles/light_switch_proxy_server_nrf52832_xxAA_s132_6.0.0.dir/C_/b/nRF5_SDK_15.0.0_a53641a/components/ble/common/ble_advdata.c.obj
 .bss           0x00000000        0x0 examples/light_switch/proxy_server/CMakeFiles/light_switch_proxy_server_nrf52832_xxAA_s132_6.0.0.dir/C_/b/nRF5_SDK_15.0.0_a53641a/components/ble/common/ble_advdata.c.obj
 .text.ble_advdata_search
                0x00000000       0x38 examples/light_switch/proxy_server/CMakeFiles/light_switch_proxy_server_nrf52832_xxAA_s132_6.0.0.dir/C_/b/nRF5_SDK_15.0.0_a53641a/components/ble/common/ble_advdata.c.obj
 .text.ble_advdata_parse
                0x00000000       0x20 examples/light_switch/proxy_server/CMakeFiles/light_switch_proxy_server_nrf52832_xxAA_s132_6.0.0.dir/C_/b/nRF5_SDK_15.0.0_a53641a/components/ble/common/ble_advdata.c.obj
 .text.ble_advdata_name_find
                0x00000000       0x48 examples/light_switch/proxy_server/CMakeFiles/light_switch_proxy_server_nrf52832_xxAA_s132_6.0.0.dir/C_/b/nRF5_SDK_15.0.0_a53641a/components/ble/common/ble_advdata.c.obj
 .text.ble_advdata_short_name_find
                0x00000000       0x52 examples/light_switch/proxy_server/CMakeFiles/light_switch_proxy_server_nrf52832_xxAA_s132_6.0.0.dir/C_/b/nRF5_SDK_15.0.0_a53641a/components/ble/common/ble_advdata.c.obj
 .text.ble_advdata_uuid_find
                0x00000000       0xb6 examples/light_switch/proxy_server/CMakeFiles/light_switch_proxy_server_nrf52832_xxAA_s132_6.0.0.dir/C_/b/nRF5_SDK_15.0.0_a53641a/components/ble/common/ble_advdata.c.obj
 .text.ble_advdata_appearance_find
                0x00000000       0x40 examples/light_switch/proxy_server/CMakeFiles/light_switch_proxy_server_nrf52832_xxAA_s132_6.0.0.dir/C_/b/nRF5_SDK_15.0.0_a53641a/components/ble/common/ble_advdata.c.obj
 .text          0x00000000        0x0 examples/light_switch/proxy_server/CMakeFiles/light_switch_proxy_server_nrf52832_xxAA_s132_6.0.0.dir/C_/b/nRF5_SDK_15.0.0_a53641a/components/libraries/experimental_section_vars/nrf_section_iter.c.obj
 .data          0x00000000        0x0 examples/light_switch/proxy_server/CMakeFiles/light_switch_proxy_server_nrf52832_xxAA_s132_6.0.0.dir/C_/b/nRF5_SDK_15.0.0_a53641a/components/libraries/experimental_section_vars/nrf_section_iter.c.obj
 .bss           0x00000000        0x0 examples/light_switch/proxy_server/CMakeFiles/light_switch_proxy_server_nrf52832_xxAA_s132_6.0.0.dir/C_/b/nRF5_SDK_15.0.0_a53641a/components/libraries/experimental_section_vars/nrf_section_iter.c.obj
 .text          0x00000000        0x0 examples/light_switch/proxy_server/CMakeFiles/light_switch_proxy_server_nrf52832_xxAA_s132_6.0.0.dir/C_/b/nRF5_SDK_15.0.0_a53641a/components/softdevice/common/nrf_sdh.c.obj
 .data          0x00000000        0x0 examples/light_switch/proxy_server/CMakeFiles/light_switch_proxy_server_nrf52832_xxAA_s132_6.0.0.dir/C_/b/nRF5_SDK_15.0.0_a53641a/components/softdevice/common/nrf_sdh.c.obj
 .bss           0x00000000        0x0 examples/light_switch/proxy_server/CMakeFiles/light_switch_proxy_server_nrf52832_xxAA_s132_6.0.0.dir/C_/b/nRF5_SDK_15.0.0_a53641a/components/softdevice/common/nrf_sdh.c.obj
 .text.nrf_sdh_request_continue
                0x00000000       0x20 examples/light_switch/proxy_server/CMakeFiles/light_switch_proxy_server_nrf52832_xxAA_s132_6.0.0.dir/C_/b/nRF5_SDK_15.0.0_a53641a/components/softdevice/common/nrf_sdh.c.obj
 .text.nrf_sdh_is_enabled
                0x00000000        0xc examples/light_switch/proxy_server/CMakeFiles/light_switch_proxy_server_nrf52832_xxAA_s132_6.0.0.dir/C_/b/nRF5_SDK_15.0.0_a53641a/components/softdevice/common/nrf_sdh.c.obj
 .text.nrf_sdh_suspend
                0x00000000       0x1c examples/light_switch/proxy_server/CMakeFiles/light_switch_proxy_server_nrf52832_xxAA_s132_6.0.0.dir/C_/b/nRF5_SDK_15.0.0_a53641a/components/softdevice/common/nrf_sdh.c.obj
 .text.nrf_sdh_resume
                0x00000000       0x30 examples/light_switch/proxy_server/CMakeFiles/light_switch_proxy_server_nrf52832_xxAA_s132_6.0.0.dir/C_/b/nRF5_SDK_15.0.0_a53641a/components/softdevice/common/nrf_sdh.c.obj
 .text.nrf_sdh_is_suspended
                0x00000000       0x18 examples/light_switch/proxy_server/CMakeFiles/light_switch_proxy_server_nrf52832_xxAA_s132_6.0.0.dir/C_/b/nRF5_SDK_15.0.0_a53641a/components/softdevice/common/nrf_sdh.c.obj
 .text          0x00000000        0x0 examples/light_switch/proxy_server/CMakeFiles/light_switch_proxy_server_nrf52832_xxAA_s132_6.0.0.dir/C_/b/nRF5_SDK_15.0.0_a53641a/components/softdevice/common/nrf_sdh_soc.c.obj
 .data          0x00000000        0x0 examples/light_switch/proxy_server/CMakeFiles/light_switch_proxy_server_nrf52832_xxAA_s132_6.0.0.dir/C_/b/nRF5_SDK_15.0.0_a53641a/components/softdevice/common/nrf_sdh_soc.c.obj
 .bss           0x00000000        0x0 examples/light_switch/proxy_server/CMakeFiles/light_switch_proxy_server_nrf52832_xxAA_s132_6.0.0.dir/C_/b/nRF5_SDK_15.0.0_a53641a/components/softdevice/common/nrf_sdh_soc.c.obj
 .text          0x00000000        0x0 examples/light_switch/proxy_server/CMakeFiles/light_switch_proxy_server_nrf52832_xxAA_s132_6.0.0.dir/C_/b/nRF5_SDK_15.0.0_a53641a/components/softdevice/common/nrf_sdh_ble.c.obj
 .data          0x00000000        0x0 examples/light_switch/proxy_server/CMakeFiles/light_switch_proxy_server_nrf52832_xxAA_s132_6.0.0.dir/C_/b/nRF5_SDK_15.0.0_a53641a/components/softdevice/common/nrf_sdh_ble.c.obj
 .bss           0x00000000        0x0 examples/light_switch/proxy_server/CMakeFiles/light_switch_proxy_server_nrf52832_xxAA_s132_6.0.0.dir/C_/b/nRF5_SDK_15.0.0_a53641a/components/softdevice/common/nrf_sdh_ble.c.obj
 .text.nrf_sdh_ble_app_ram_start_get
                0x00000000       0x14 examples/light_switch/proxy_server/CMakeFiles/light_switch_proxy_server_nrf52832_xxAA_s132_6.0.0.dir/C_/b/nRF5_SDK_15.0.0_a53641a/components/softdevice/common/nrf_sdh_ble.c.obj
 .rodata.m_ram_start
                0x00000000        0x4 examples/light_switch/proxy_server/CMakeFiles/light_switch_proxy_server_nrf52832_xxAA_s132_6.0.0.dir/C_/b/nRF5_SDK_15.0.0_a53641a/components/softdevice/common/nrf_sdh_ble.c.obj
 .text          0x00000000        0x0 examples/light_switch/proxy_server/CMakeFiles/light_switch_proxy_server_nrf52832_xxAA_s132_6.0.0.dir/__/__/nrf_mesh_weak.c.obj
 .data          0x00000000        0x0 examples/light_switch/proxy_server/CMakeFiles/light_switch_proxy_server_nrf52832_xxAA_s132_6.0.0.dir/__/__/nrf_mesh_weak.c.obj
 .bss           0x00000000        0x0 examples/light_switch/proxy_server/CMakeFiles/light_switch_proxy_server_nrf52832_xxAA_s132_6.0.0.dir/__/__/nrf_mesh_weak.c.obj
 .text._weak_handler_ptr
                0x00000000        0x4 examples/light_switch/proxy_server/CMakeFiles/light_switch_proxy_server_nrf52832_xxAA_s132_6.0.0.dir/__/__/nrf_mesh_weak.c.obj
 .text          0x00000000        0x0 examples/light_switch/proxy_server/CMakeFiles/light_switch_proxy_server_nrf52832_xxAA_s132_6.0.0.dir/__/__/common/src/app_error_weak.c.obj
 .data          0x00000000        0x0 examples/light_switch/proxy_server/CMakeFiles/light_switch_proxy_server_nrf52832_xxAA_s132_6.0.0.dir/__/__/common/src/app_error_weak.c.obj
 .bss           0x00000000        0x0 examples/light_switch/proxy_server/CMakeFiles/light_switch_proxy_server_nrf52832_xxAA_s132_6.0.0.dir/__/__/common/src/app_error_weak.c.obj
 .text          0x00000000        0x0 examples/light_switch/proxy_server/CMakeFiles/light_switch_proxy_server_nrf52832_xxAA_s132_6.0.0.dir/__/__/common/src/assertion_handler_weak.c.obj
 .data          0x00000000        0x0 examples/light_switch/proxy_server/CMakeFiles/light_switch_proxy_server_nrf52832_xxAA_s132_6.0.0.dir/__/__/common/src/assertion_handler_weak.c.obj
 .bss           0x00000000        0x0 examples/light_switch/proxy_server/CMakeFiles/light_switch_proxy_server_nrf52832_xxAA_s132_6.0.0.dir/__/__/common/src/assertion_handler_weak.c.obj
 .text          0x00000000        0x0 examples/light_switch/proxy_server/CMakeFiles/light_switch_proxy_server_nrf52832_xxAA_s132_6.0.0.dir/__/__/__/mesh/core/src/internal_event.c.obj
 .data          0x00000000        0x0 examples/light_switch/proxy_server/CMakeFiles/light_switch_proxy_server_nrf52832_xxAA_s132_6.0.0.dir/__/__/__/mesh/core/src/internal_event.c.obj
 .bss           0x00000000        0x0 examples/light_switch/proxy_server/CMakeFiles/light_switch_proxy_server_nrf52832_xxAA_s132_6.0.0.dir/__/__/__/mesh/core/src/internal_event.c.obj
 .debug_info    0x00000000      0x8f2 examples/light_switch/proxy_server/CMakeFiles/light_switch_proxy_server_nrf52832_xxAA_s132_6.0.0.dir/__/__/__/mesh/core/src/internal_event.c.obj
 .debug_abbrev  0x00000000      0x192 examples/light_switch/proxy_server/CMakeFiles/light_switch_proxy_server_nrf52832_xxAA_s132_6.0.0.dir/__/__/__/mesh/core/src/internal_event.c.obj
 .debug_aranges
                0x00000000       0x18 examples/light_switch/proxy_server/CMakeFiles/light_switch_proxy_server_nrf52832_xxAA_s132_6.0.0.dir/__/__/__/mesh/core/src/internal_event.c.obj
 .debug_line    0x00000000      0x1a3 examples/light_switch/proxy_server/CMakeFiles/light_switch_proxy_server_nrf52832_xxAA_s132_6.0.0.dir/__/__/__/mesh/core/src/internal_event.c.obj
 .debug_str     0x00000000      0x602 examples/light_switch/proxy_server/CMakeFiles/light_switch_proxy_server_nrf52832_xxAA_s132_6.0.0.dir/__/__/__/mesh/core/src/internal_event.c.obj
 .comment       0x00000000       0x80 examples/light_switch/proxy_server/CMakeFiles/light_switch_proxy_server_nrf52832_xxAA_s132_6.0.0.dir/__/__/__/mesh/core/src/internal_event.c.obj
 .ARM.attributes
                0x00000000       0x39 examples/light_switch/proxy_server/CMakeFiles/light_switch_proxy_server_nrf52832_xxAA_s132_6.0.0.dir/__/__/__/mesh/core/src/internal_event.c.obj
 .text          0x00000000        0x0 examples/light_switch/proxy_server/CMakeFiles/light_switch_proxy_server_nrf52832_xxAA_s132_6.0.0.dir/__/__/__/mesh/core/src/nrf_mesh_configure.c.obj
 .data          0x00000000        0x0 examples/light_switch/proxy_server/CMakeFiles/light_switch_proxy_server_nrf52832_xxAA_s132_6.0.0.dir/__/__/__/mesh/core/src/nrf_mesh_configure.c.obj
 .bss           0x00000000        0x0 examples/light_switch/proxy_server/CMakeFiles/light_switch_proxy_server_nrf52832_xxAA_s132_6.0.0.dir/__/__/__/mesh/core/src/nrf_mesh_configure.c.obj
 .text          0x00000000        0x0 examples/light_switch/proxy_server/CMakeFiles/light_switch_proxy_server_nrf52832_xxAA_s132_6.0.0.dir/__/__/__/mesh/core/src/aes.c.obj
 .data          0x00000000        0x0 examples/light_switch/proxy_server/CMakeFiles/light_switch_proxy_server_nrf52832_xxAA_s132_6.0.0.dir/__/__/__/mesh/core/src/aes.c.obj
 .bss           0x00000000        0x0 examples/light_switch/proxy_server/CMakeFiles/light_switch_proxy_server_nrf52832_xxAA_s132_6.0.0.dir/__/__/__/mesh/core/src/aes.c.obj
 .text          0x00000000        0x0 examples/light_switch/proxy_server/CMakeFiles/light_switch_proxy_server_nrf52832_xxAA_s132_6.0.0.dir/__/__/__/mesh/core/src/msg_cache.c.obj
 .data          0x00000000        0x0 examples/light_switch/proxy_server/CMakeFiles/light_switch_proxy_server_nrf52832_xxAA_s132_6.0.0.dir/__/__/__/mesh/core/src/msg_cache.c.obj
 .bss           0x00000000        0x0 examples/light_switch/proxy_server/CMakeFiles/light_switch_proxy_server_nrf52832_xxAA_s132_6.0.0.dir/__/__/__/mesh/core/src/msg_cache.c.obj
 .text.msg_cache_clear
                0x00000000       0x18 examples/light_switch/proxy_server/CMakeFiles/light_switch_proxy_server_nrf52832_xxAA_s132_6.0.0.dir/__/__/__/mesh/core/src/msg_cache.c.obj
 .text          0x00000000        0x0 examples/light_switch/proxy_server/CMakeFiles/light_switch_proxy_server_nrf52832_xxAA_s132_6.0.0.dir/__/__/__/mesh/core/src/transport.c.obj
 .data          0x00000000        0x0 examples/light_switch/proxy_server/CMakeFiles/light_switch_proxy_server_nrf52832_xxAA_s132_6.0.0.dir/__/__/__/mesh/core/src/transport.c.obj
 .bss           0x00000000        0x0 examples/light_switch/proxy_server/CMakeFiles/light_switch_proxy_server_nrf52832_xxAA_s132_6.0.0.dir/__/__/__/mesh/core/src/transport.c.obj
 .text.transport_sar_mem_funcs_set
                0x00000000       0x44 examples/light_switch/proxy_server/CMakeFiles/light_switch_proxy_server_nrf52832_xxAA_s132_6.0.0.dir/__/__/__/mesh/core/src/transport.c.obj
 .text          0x00000000        0x0 examples/light_switch/proxy_server/CMakeFiles/light_switch_proxy_server_nrf52832_xxAA_s132_6.0.0.dir/__/__/__/mesh/core/src/event.c.obj
 .data          0x00000000        0x0 examples/light_switch/proxy_server/CMakeFiles/light_switch_proxy_server_nrf52832_xxAA_s132_6.0.0.dir/__/__/__/mesh/core/src/event.c.obj
 .bss           0x00000000        0x0 examples/light_switch/proxy_server/CMakeFiles/light_switch_proxy_server_nrf52832_xxAA_s132_6.0.0.dir/__/__/__/mesh/core/src/event.c.obj
 .text          0x00000000        0x0 examples/light_switch/proxy_server/CMakeFiles/light_switch_proxy_server_nrf52832_xxAA_s132_6.0.0.dir/__/__/__/mesh/core/src/packet_buffer.c.obj
 .data          0x00000000        0x0 examples/light_switch/proxy_server/CMakeFiles/light_switch_proxy_server_nrf52832_xxAA_s132_6.0.0.dir/__/__/__/mesh/core/src/packet_buffer.c.obj
 .bss           0x00000000        0x0 examples/light_switch/proxy_server/CMakeFiles/light_switch_proxy_server_nrf52832_xxAA_s132_6.0.0.dir/__/__/__/mesh/core/src/packet_buffer.c.obj
 .text.packet_buffer_max_packet_len_get
                0x00000000       0x20 examples/light_switch/proxy_server/CMakeFiles/light_switch_proxy_server_nrf52832_xxAA_s132_6.0.0.dir/__/__/__/mesh/core/src/packet_buffer.c.obj
 .text          0x00000000        0x0 examples/light_switch/proxy_server/CMakeFiles/light_switch_proxy_server_nrf52832_xxAA_s132_6.0.0.dir/__/__/__/mesh/core/src/flash_manager_defrag.c.obj
 .data          0x00000000        0x0 examples/light_switch/proxy_server/CMakeFiles/light_switch_proxy_server_nrf52832_xxAA_s132_6.0.0.dir/__/__/__/mesh/core/src/flash_manager_defrag.c.obj
 .bss           0x00000000        0x0 examples/light_switch/proxy_server/CMakeFiles/light_switch_proxy_server_nrf52832_xxAA_s132_6.0.0.dir/__/__/__/mesh/core/src/flash_manager_defrag.c.obj
 .text.flash_manager_defragging
                0x00000000       0x38 examples/light_switch/proxy_server/CMakeFiles/light_switch_proxy_server_nrf52832_xxAA_s132_6.0.0.dir/__/__/__/mesh/core/src/flash_manager_defrag.c.obj
 .text          0x00000000        0x0 examples/light_switch/proxy_server/CMakeFiles/light_switch_proxy_server_nrf52832_xxAA_s132_6.0.0.dir/__/__/__/mesh/core/src/fifo.c.obj
 .data          0x00000000        0x0 examples/light_switch/proxy_server/CMakeFiles/light_switch_proxy_server_nrf52832_xxAA_s132_6.0.0.dir/__/__/__/mesh/core/src/fifo.c.obj
 .bss           0x00000000        0x0 examples/light_switch/proxy_server/CMakeFiles/light_switch_proxy_server_nrf52832_xxAA_s132_6.0.0.dir/__/__/__/mesh/core/src/fifo.c.obj
 .text.fifo_peek_at
                0x00000000       0x50 examples/light_switch/proxy_server/CMakeFiles/light_switch_proxy_server_nrf52832_xxAA_s132_6.0.0.dir/__/__/__/mesh/core/src/fifo.c.obj
 .text.fifo_peek
                0x00000000        0x6 examples/light_switch/proxy_server/CMakeFiles/light_switch_proxy_server_nrf52832_xxAA_s132_6.0.0.dir/__/__/__/mesh/core/src/fifo.c.obj
 .text.fifo_flush
                0x00000000        0x6 examples/light_switch/proxy_server/CMakeFiles/light_switch_proxy_server_nrf52832_xxAA_s132_6.0.0.dir/__/__/__/mesh/core/src/fifo.c.obj
 .text.fifo_get_len
                0x00000000        0x8 examples/light_switch/proxy_server/CMakeFiles/light_switch_proxy_server_nrf52832_xxAA_s132_6.0.0.dir/__/__/__/mesh/core/src/fifo.c.obj
 .text.fifo_is_full
                0x00000000       0x10 examples/light_switch/proxy_server/CMakeFiles/light_switch_proxy_server_nrf52832_xxAA_s132_6.0.0.dir/__/__/__/mesh/core/src/fifo.c.obj
 .text.fifo_is_empty
                0x00000000        0xc examples/light_switch/proxy_server/CMakeFiles/light_switch_proxy_server_nrf52832_xxAA_s132_6.0.0.dir/__/__/__/mesh/core/src/fifo.c.obj
 .text          0x00000000        0x0 examples/light_switch/proxy_server/CMakeFiles/light_switch_proxy_server_nrf52832_xxAA_s132_6.0.0.dir/__/__/__/mesh/core/src/nrf_flash.c.obj
 .data          0x00000000        0x0 examples/light_switch/proxy_server/CMakeFiles/light_switch_proxy_server_nrf52832_xxAA_s132_6.0.0.dir/__/__/__/mesh/core/src/nrf_flash.c.obj
 .bss           0x00000000        0x0 examples/light_switch/proxy_server/CMakeFiles/light_switch_proxy_server_nrf52832_xxAA_s132_6.0.0.dir/__/__/__/mesh/core/src/nrf_flash.c.obj
 .text          0x00000000        0x0 examples/light_switch/proxy_server/CMakeFiles/light_switch_proxy_server_nrf52832_xxAA_s132_6.0.0.dir/__/__/__/mesh/core/src/packet_mgr.c.obj
 .data          0x00000000        0x0 examples/light_switch/proxy_server/CMakeFiles/light_switch_proxy_server_nrf52832_xxAA_s132_6.0.0.dir/__/__/__/mesh/core/src/packet_mgr.c.obj
 .bss           0x00000000        0x0 examples/light_switch/proxy_server/CMakeFiles/light_switch_proxy_server_nrf52832_xxAA_s132_6.0.0.dir/__/__/__/mesh/core/src/packet_mgr.c.obj
 .text.packet_mgr_alloc
                0x00000000      0x17c examples/light_switch/proxy_server/CMakeFiles/light_switch_proxy_server_nrf52832_xxAA_s132_6.0.0.dir/__/__/__/mesh/core/src/packet_mgr.c.obj
 .text.packet_mgr_free
                0x00000000       0x58 examples/light_switch/proxy_server/CMakeFiles/light_switch_proxy_server_nrf52832_xxAA_s132_6.0.0.dir/__/__/__/mesh/core/src/packet_mgr.c.obj
 .text.packet_mgr_get_free_space
                0x00000000       0x1c examples/light_switch/proxy_server/CMakeFiles/light_switch_proxy_server_nrf52832_xxAA_s132_6.0.0.dir/__/__/__/mesh/core/src/packet_mgr.c.obj
 .text.packet_mgr_refcount_get
                0x00000000        0x6 examples/light_switch/proxy_server/CMakeFiles/light_switch_proxy_server_nrf52832_xxAA_s132_6.0.0.dir/__/__/__/mesh/core/src/packet_mgr.c.obj
 .text.packet_mgr_size_get
                0x00000000        0x6 examples/light_switch/proxy_server/CMakeFiles/light_switch_proxy_server_nrf52832_xxAA_s132_6.0.0.dir/__/__/__/mesh/core/src/packet_mgr.c.obj
 .text          0x00000000        0x0 examples/light_switch/proxy_server/CMakeFiles/light_switch_proxy_server_nrf52832_xxAA_s132_6.0.0.dir/__/__/__/mesh/core/src/net_state.c.obj
 .data          0x00000000        0x0 examples/light_switch/proxy_server/CMakeFiles/light_switch_proxy_server_nrf52832_xxAA_s132_6.0.0.dir/__/__/__/mesh/core/src/net_state.c.obj
 .bss           0x00000000        0x0 examples/light_switch/proxy_server/CMakeFiles/light_switch_proxy_server_nrf52832_xxAA_s132_6.0.0.dir/__/__/__/mesh/core/src/net_state.c.obj
 .text.net_state_iv_update_test_mode_set
                0x00000000        0xc examples/light_switch/proxy_server/CMakeFiles/light_switch_proxy_server_nrf52832_xxAA_s132_6.0.0.dir/__/__/__/mesh/core/src/net_state.c.obj
 .text.net_state_test_mode_transition_run
                0x00000000       0x2c examples/light_switch/proxy_server/CMakeFiles/light_switch_proxy_server_nrf52832_xxAA_s132_6.0.0.dir/__/__/__/mesh/core/src/net_state.c.obj
 .text          0x00000000        0x0 examples/light_switch/proxy_server/CMakeFiles/light_switch_proxy_server_nrf52832_xxAA_s132_6.0.0.dir/__/__/__/mesh/core/src/mesh_flash.c.obj
 .data          0x00000000        0x0 examples/light_switch/proxy_server/CMakeFiles/light_switch_proxy_server_nrf52832_xxAA_s132_6.0.0.dir/__/__/__/mesh/core/src/mesh_flash.c.obj
 .bss           0x00000000        0x0 examples/light_switch/proxy_server/CMakeFiles/light_switch_proxy_server_nrf52832_xxAA_s132_6.0.0.dir/__/__/__/mesh/core/src/mesh_flash.c.obj
 .text.mesh_flash_op_available_slots
                0x00000000       0x2c examples/light_switch/proxy_server/CMakeFiles/light_switch_proxy_server_nrf52832_xxAA_s132_6.0.0.dir/__/__/__/mesh/core/src/mesh_flash.c.obj
 .text.mesh_flash_in_progress
                0x00000000       0x34 examples/light_switch/proxy_server/CMakeFiles/light_switch_proxy_server_nrf52832_xxAA_s132_6.0.0.dir/__/__/__/mesh/core/src/mesh_flash.c.obj
 .text.mesh_flash_set_suspended
                0x00000000       0x74 examples/light_switch/proxy_server/CMakeFiles/light_switch_proxy_server_nrf52832_xxAA_s132_6.0.0.dir/__/__/__/mesh/core/src/mesh_flash.c.obj
 .bss.suspend_count.10124
                0x00000000        0x4 examples/light_switch/proxy_server/CMakeFiles/light_switch_proxy_server_nrf52832_xxAA_s132_6.0.0.dir/__/__/__/mesh/core/src/mesh_flash.c.obj
 .text          0x00000000        0x0 examples/light_switch/proxy_server/CMakeFiles/light_switch_proxy_server_nrf52832_xxAA_s132_6.0.0.dir/__/__/__/mesh/core/src/nrf_mesh_utils.c.obj
 .data          0x00000000        0x0 examples/light_switch/proxy_server/CMakeFiles/light_switch_proxy_server_nrf52832_xxAA_s132_6.0.0.dir/__/__/__/mesh/core/src/nrf_mesh_utils.c.obj
 .bss           0x00000000        0x0 examples/light_switch/proxy_server/CMakeFiles/light_switch_proxy_server_nrf52832_xxAA_s132_6.0.0.dir/__/__/__/mesh/core/src/nrf_mesh_utils.c.obj
 .text.nrf_mesh_rand_get
                0x00000000       0x10 examples/light_switch/proxy_server/CMakeFiles/light_switch_proxy_server_nrf52832_xxAA_s132_6.0.0.dir/__/__/__/mesh/core/src/nrf_mesh_utils.c.obj
 .text.nrf_mesh_gap_address_type_get
                0x00000000       0x30 examples/light_switch/proxy_server/CMakeFiles/light_switch_proxy_server_nrf52832_xxAA_s132_6.0.0.dir/__/__/__/mesh/core/src/nrf_mesh_utils.c.obj
 .text          0x00000000        0x0 examples/light_switch/proxy_server/CMakeFiles/light_switch_proxy_server_nrf52832_xxAA_s132_6.0.0.dir/__/__/__/mesh/core/src/nrf_mesh.c.obj
 .data          0x00000000        0x0 examples/light_switch/proxy_server/CMakeFiles/light_switch_proxy_server_nrf52832_xxAA_s132_6.0.0.dir/__/__/__/mesh/core/src/nrf_mesh.c.obj
 .bss           0x00000000        0x0 examples/light_switch/proxy_server/CMakeFiles/light_switch_proxy_server_nrf52832_xxAA_s132_6.0.0.dir/__/__/__/mesh/core/src/nrf_mesh.c.obj
 .text.nrf_mesh_process
                0x00000000        0x4 examples/light_switch/proxy_server/CMakeFiles/light_switch_proxy_server_nrf52832_xxAA_s132_6.0.0.dir/__/__/__/mesh/core/src/nrf_mesh.c.obj
 .text.nrf_mesh_evt_handler_remove
                0x00000000        0x4 examples/light_switch/proxy_server/CMakeFiles/light_switch_proxy_server_nrf52832_xxAA_s132_6.0.0.dir/__/__/__/mesh/core/src/nrf_mesh.c.obj
 .text.nrf_mesh_rx_cb_set
                0x00000000        0xc examples/light_switch/proxy_server/CMakeFiles/light_switch_proxy_server_nrf52832_xxAA_s132_6.0.0.dir/__/__/__/mesh/core/src/nrf_mesh.c.obj
 .text.nrf_mesh_rx_cb_clear
                0x00000000        0xc examples/light_switch/proxy_server/CMakeFiles/light_switch_proxy_server_nrf52832_xxAA_s132_6.0.0.dir/__/__/__/mesh/core/src/nrf_mesh.c.obj
 .text          0x00000000        0x0 examples/light_switch/proxy_server/CMakeFiles/light_switch_proxy_server_nrf52832_xxAA_s132_6.0.0.dir/__/__/__/mesh/core/src/queue.c.obj
 .data          0x00000000        0x0 examples/light_switch/proxy_server/CMakeFiles/light_switch_proxy_server_nrf52832_xxAA_s132_6.0.0.dir/__/__/__/mesh/core/src/queue.c.obj
 .bss           0x00000000        0x0 examples/light_switch/proxy_server/CMakeFiles/light_switch_proxy_server_nrf52832_xxAA_s132_6.0.0.dir/__/__/__/mesh/core/src/queue.c.obj
 .text          0x00000000        0x0 examples/light_switch/proxy_server/CMakeFiles/light_switch_proxy_server_nrf52832_xxAA_s132_6.0.0.dir/__/__/__/mesh/core/src/hal.c.obj
 .data          0x00000000        0x0 examples/light_switch/proxy_server/CMakeFiles/light_switch_proxy_server_nrf52832_xxAA_s132_6.0.0.dir/__/__/__/mesh/core/src/hal.c.obj
 .bss           0x00000000        0x0 examples/light_switch/proxy_server/CMakeFiles/light_switch_proxy_server_nrf52832_xxAA_s132_6.0.0.dir/__/__/__/mesh/core/src/hal.c.obj
 .text          0x00000000        0x0 examples/light_switch/proxy_server/CMakeFiles/light_switch_proxy_server_nrf52832_xxAA_s132_6.0.0.dir/__/__/__/mesh/core/src/aes_cmac.c.obj
 .data          0x00000000        0x0 examples/light_switch/proxy_server/CMakeFiles/light_switch_proxy_server_nrf52832_xxAA_s132_6.0.0.dir/__/__/__/mesh/core/src/aes_cmac.c.obj
 .bss           0x00000000        0x0 examples/light_switch/proxy_server/CMakeFiles/light_switch_proxy_server_nrf52832_xxAA_s132_6.0.0.dir/__/__/__/mesh/core/src/aes_cmac.c.obj
 .text          0x00000000        0x0 examples/light_switch/proxy_server/CMakeFiles/light_switch_proxy_server_nrf52832_xxAA_s132_6.0.0.dir/__/__/__/mesh/core/src/timer_scheduler.c.obj
 .data          0x00000000        0x0 examples/light_switch/proxy_server/CMakeFiles/light_switch_proxy_server_nrf52832_xxAA_s132_6.0.0.dir/__/__/__/mesh/core/src/timer_scheduler.c.obj
 .bss           0x00000000        0x0 examples/light_switch/proxy_server/CMakeFiles/light_switch_proxy_server_nrf52832_xxAA_s132_6.0.0.dir/__/__/__/mesh/core/src/timer_scheduler.c.obj
 .text          0x00000000        0x0 examples/light_switch/proxy_server/CMakeFiles/light_switch_proxy_server_nrf52832_xxAA_s132_6.0.0.dir/__/__/__/mesh/core/src/timer.c.obj
 .data          0x00000000        0x0 examples/light_switch/proxy_server/CMakeFiles/light_switch_proxy_server_nrf52832_xxAA_s132_6.0.0.dir/__/__/__/mesh/core/src/timer.c.obj
 .bss           0x00000000        0x0 examples/light_switch/proxy_server/CMakeFiles/light_switch_proxy_server_nrf52832_xxAA_s132_6.0.0.dir/__/__/__/mesh/core/src/timer.c.obj
 .text.timer_order_cb_ppi
                0x00000000       0xc4 examples/light_switch/proxy_server/CMakeFiles/light_switch_proxy_server_nrf52832_xxAA_s132_6.0.0.dir/__/__/__/mesh/core/src/timer.c.obj
 .text.timer_order_ppi
                0x00000000       0xc0 examples/light_switch/proxy_server/CMakeFiles/light_switch_proxy_server_nrf52832_xxAA_s132_6.0.0.dir/__/__/__/mesh/core/src/timer.c.obj
 .text.timer_abort
                0x00000000       0x78 examples/light_switch/proxy_server/CMakeFiles/light_switch_proxy_server_nrf52832_xxAA_s132_6.0.0.dir/__/__/__/mesh/core/src/timer.c.obj
 .text          0x00000000        0x0 examples/light_switch/proxy_server/CMakeFiles/light_switch_proxy_server_nrf52832_xxAA_s132_6.0.0.dir/__/__/__/mesh/core/src/ticker.c.obj
 .data          0x00000000        0x0 examples/light_switch/proxy_server/CMakeFiles/light_switch_proxy_server_nrf52832_xxAA_s132_6.0.0.dir/__/__/__/mesh/core/src/ticker.c.obj
 .bss           0x00000000        0x0 examples/light_switch/proxy_server/CMakeFiles/light_switch_proxy_server_nrf52832_xxAA_s132_6.0.0.dir/__/__/__/mesh/core/src/ticker.c.obj
 .text.ticker_get
                0x00000000        0xc examples/light_switch/proxy_server/CMakeFiles/light_switch_proxy_server_nrf52832_xxAA_s132_6.0.0.dir/__/__/__/mesh/core/src/ticker.c.obj
 .text          0x00000000        0x0 examples/light_switch/proxy_server/CMakeFiles/light_switch_proxy_server_nrf52832_xxAA_s132_6.0.0.dir/__/__/__/mesh/core/src/rand.c.obj
 .data          0x00000000        0x0 examples/light_switch/proxy_server/CMakeFiles/light_switch_proxy_server_nrf52832_xxAA_s132_6.0.0.dir/__/__/__/mesh/core/src/rand.c.obj
 .bss           0x00000000        0x0 examples/light_switch/proxy_server/CMakeFiles/light_switch_proxy_server_nrf52832_xxAA_s132_6.0.0.dir/__/__/__/mesh/core/src/rand.c.obj
 .text          0x00000000        0x0 examples/light_switch/proxy_server/CMakeFiles/light_switch_proxy_server_nrf52832_xxAA_s132_6.0.0.dir/__/__/__/mesh/core/src/nrf_mesh_opt.c.obj
 .data          0x00000000        0x0 examples/light_switch/proxy_server/CMakeFiles/light_switch_proxy_server_nrf52832_xxAA_s132_6.0.0.dir/__/__/__/mesh/core/src/nrf_mesh_opt.c.obj
 .bss           0x00000000        0x0 examples/light_switch/proxy_server/CMakeFiles/light_switch_proxy_server_nrf52832_xxAA_s132_6.0.0.dir/__/__/__/mesh/core/src/nrf_mesh_opt.c.obj
 .text          0x00000000        0x0 examples/light_switch/proxy_server/CMakeFiles/light_switch_proxy_server_nrf52832_xxAA_s132_6.0.0.dir/__/__/__/mesh/core/src/timeslot.c.obj
 .data          0x00000000        0x0 examples/light_switch/proxy_server/CMakeFiles/light_switch_proxy_server_nrf52832_xxAA_s132_6.0.0.dir/__/__/__/mesh/core/src/timeslot.c.obj
 .bss           0x00000000        0x0 examples/light_switch/proxy_server/CMakeFiles/light_switch_proxy_server_nrf52832_xxAA_s132_6.0.0.dir/__/__/__/mesh/core/src/timeslot.c.obj
 .text.timeslot_end_time_get
                0x00000000       0x10 examples/light_switch/proxy_server/CMakeFiles/light_switch_proxy_server_nrf52832_xxAA_s132_6.0.0.dir/__/__/__/mesh/core/src/timeslot.c.obj
 .text.timeslot_is_in_ts
                0x00000000        0xc examples/light_switch/proxy_server/CMakeFiles/light_switch_proxy_server_nrf52832_xxAA_s132_6.0.0.dir/__/__/__/mesh/core/src/timeslot.c.obj
 .text.timeslot_restart
                0x00000000       0x10 examples/light_switch/proxy_server/CMakeFiles/light_switch_proxy_server_nrf52832_xxAA_s132_6.0.0.dir/__/__/__/mesh/core/src/timeslot.c.obj
 .text          0x00000000        0x0 examples/light_switch/proxy_server/CMakeFiles/light_switch_proxy_server_nrf52832_xxAA_s132_6.0.0.dir/__/__/__/mesh/core/src/bearer_event.c.obj
 .data          0x00000000        0x0 examples/light_switch/proxy_server/CMakeFiles/light_switch_proxy_server_nrf52832_xxAA_s132_6.0.0.dir/__/__/__/mesh/core/src/bearer_event.c.obj
 .bss           0x00000000        0x0 examples/light_switch/proxy_server/CMakeFiles/light_switch_proxy_server_nrf52832_xxAA_s132_6.0.0.dir/__/__/__/mesh/core/src/bearer_event.c.obj
 .text.bearer_event_generic_post
                0x00000000       0x24 examples/light_switch/proxy_server/CMakeFiles/light_switch_proxy_server_nrf52832_xxAA_s132_6.0.0.dir/__/__/__/mesh/core/src/bearer_event.c.obj
 .text.bearer_event_timer_sch_post
                0x00000000       0x26 examples/light_switch/proxy_server/CMakeFiles/light_switch_proxy_server_nrf52832_xxAA_s132_6.0.0.dir/__/__/__/mesh/core/src/bearer_event.c.obj
 .text.bearer_event_in_correct_irq_priority
                0x00000000       0x48 examples/light_switch/proxy_server/CMakeFiles/light_switch_proxy_server_nrf52832_xxAA_s132_6.0.0.dir/__/__/__/mesh/core/src/bearer_event.c.obj
 .text          0x00000000        0x0 examples/light_switch/proxy_server/CMakeFiles/light_switch_proxy_server_nrf52832_xxAA_s132_6.0.0.dir/__/__/__/mesh/core/src/enc.c.obj
 .data          0x00000000        0x0 examples/light_switch/proxy_server/CMakeFiles/light_switch_proxy_server_nrf52832_xxAA_s132_6.0.0.dir/__/__/__/mesh/core/src/enc.c.obj
 .bss           0x00000000        0x0 examples/light_switch/proxy_server/CMakeFiles/light_switch_proxy_server_nrf52832_xxAA_s132_6.0.0.dir/__/__/__/mesh/core/src/enc.c.obj
 .text.enc_key_generate
                0x00000000        0x6 examples/light_switch/proxy_server/CMakeFiles/light_switch_proxy_server_nrf52832_xxAA_s132_6.0.0.dir/__/__/__/mesh/core/src/enc.c.obj
 .text          0x00000000        0x0 examples/light_switch/proxy_server/CMakeFiles/light_switch_proxy_server_nrf52832_xxAA_s132_6.0.0.dir/__/__/__/mesh/core/src/network.c.obj
 .data          0x00000000        0x0 examples/light_switch/proxy_server/CMakeFiles/light_switch_proxy_server_nrf52832_xxAA_s132_6.0.0.dir/__/__/__/mesh/core/src/network.c.obj
 .bss           0x00000000        0x0 examples/light_switch/proxy_server/CMakeFiles/light_switch_proxy_server_nrf52832_xxAA_s132_6.0.0.dir/__/__/__/mesh/core/src/network.c.obj
 .text.network_packet_discard
                0x00000000       0x1e examples/light_switch/proxy_server/CMakeFiles/light_switch_proxy_server_nrf52832_xxAA_s132_6.0.0.dir/__/__/__/mesh/core/src/network.c.obj
 .text          0x00000000        0x0 examples/light_switch/proxy_server/CMakeFiles/light_switch_proxy_server_nrf52832_xxAA_s132_6.0.0.dir/__/__/__/mesh/core/src/net_packet.c.obj
 .data          0x00000000        0x0 examples/light_switch/proxy_server/CMakeFiles/light_switch_proxy_server_nrf52832_xxAA_s132_6.0.0.dir/__/__/__/mesh/core/src/net_packet.c.obj
 .bss           0x00000000        0x0 examples/light_switch/proxy_server/CMakeFiles/light_switch_proxy_server_nrf52832_xxAA_s132_6.0.0.dir/__/__/__/mesh/core/src/net_packet.c.obj
 .text.net_packet_enc_start_get
                0x00000000        0x4 examples/light_switch/proxy_server/CMakeFiles/light_switch_proxy_server_nrf52832_xxAA_s132_6.0.0.dir/__/__/__/mesh/core/src/net_packet.c.obj
 .text          0x00000000        0x0 examples/light_switch/proxy_server/CMakeFiles/light_switch_proxy_server_nrf52832_xxAA_s132_6.0.0.dir/__/__/__/mesh/core/src/msqueue.c.obj
 .data          0x00000000        0x0 examples/light_switch/proxy_server/CMakeFiles/light_switch_proxy_server_nrf52832_xxAA_s132_6.0.0.dir/__/__/__/mesh/core/src/msqueue.c.obj
 .bss           0x00000000        0x0 examples/light_switch/proxy_server/CMakeFiles/light_switch_proxy_server_nrf52832_xxAA_s132_6.0.0.dir/__/__/__/mesh/core/src/msqueue.c.obj
 .text          0x00000000        0x0 examples/light_switch/proxy_server/CMakeFiles/light_switch_proxy_server_nrf52832_xxAA_s132_6.0.0.dir/__/__/__/mesh/core/src/nrf_mesh_keygen.c.obj
 .data          0x00000000        0x0 examples/light_switch/proxy_server/CMakeFiles/light_switch_proxy_server_nrf52832_xxAA_s132_6.0.0.dir/__/__/__/mesh/core/src/nrf_mesh_keygen.c.obj
 .bss           0x00000000        0x0 examples/light_switch/proxy_server/CMakeFiles/light_switch_proxy_server_nrf52832_xxAA_s132_6.0.0.dir/__/__/__/mesh/core/src/nrf_mesh_keygen.c.obj
 .text          0x00000000        0x0 examples/light_switch/proxy_server/CMakeFiles/light_switch_proxy_server_nrf52832_xxAA_s132_6.0.0.dir/__/__/__/mesh/core/src/cache.c.obj
 .data          0x00000000        0x0 examples/light_switch/proxy_server/CMakeFiles/light_switch_proxy_server_nrf52832_xxAA_s132_6.0.0.dir/__/__/__/mesh/core/src/cache.c.obj
 .bss           0x00000000        0x0 examples/light_switch/proxy_server/CMakeFiles/light_switch_proxy_server_nrf52832_xxAA_s132_6.0.0.dir/__/__/__/mesh/core/src/cache.c.obj
 .text.cache_erase_elem
                0x00000000       0x4c examples/light_switch/proxy_server/CMakeFiles/light_switch_proxy_server_nrf52832_xxAA_s132_6.0.0.dir/__/__/__/mesh/core/src/cache.c.obj
 .text          0x00000000        0x0 examples/light_switch/proxy_server/CMakeFiles/light_switch_proxy_server_nrf52832_xxAA_s132_6.0.0.dir/__/__/__/mesh/core/src/uri.c.obj
 .data          0x00000000        0x0 examples/light_switch/proxy_server/CMakeFiles/light_switch_proxy_server_nrf52832_xxAA_s132_6.0.0.dir/__/__/__/mesh/core/src/uri.c.obj
 .bss           0x00000000        0x0 examples/light_switch/proxy_server/CMakeFiles/light_switch_proxy_server_nrf52832_xxAA_s132_6.0.0.dir/__/__/__/mesh/core/src/uri.c.obj
 .text.uri_data_parse
                0x00000000       0x78 examples/light_switch/proxy_server/CMakeFiles/light_switch_proxy_server_nrf52832_xxAA_s132_6.0.0.dir/__/__/__/mesh/core/src/uri.c.obj
 .text.uri_scheme_name_code_point
                0x00000000       0x5c examples/light_switch/proxy_server/CMakeFiles/light_switch_proxy_server_nrf52832_xxAA_s132_6.0.0.dir/__/__/__/mesh/core/src/uri.c.obj
 .text.uri_data_generate
                0x00000000       0x52 examples/light_switch/proxy_server/CMakeFiles/light_switch_proxy_server_nrf52832_xxAA_s132_6.0.0.dir/__/__/__/mesh/core/src/uri.c.obj
 .text.uri_scheme_name_string
                0x00000000       0x14 examples/light_switch/proxy_server/CMakeFiles/light_switch_proxy_server_nrf52832_xxAA_s132_6.0.0.dir/__/__/__/mesh/core/src/uri.c.obj
 .rodata.m_code_point_strings
                0x00000000      0x2ec examples/light_switch/proxy_server/CMakeFiles/light_switch_proxy_server_nrf52832_xxAA_s132_6.0.0.dir/__/__/__/mesh/core/src/uri.c.obj
 .rodata.str1.1
                0x00000000      0x566 examples/light_switch/proxy_server/CMakeFiles/light_switch_proxy_server_nrf52832_xxAA_s132_6.0.0.dir/__/__/__/mesh/core/src/uri.c.obj
 .debug_info    0x00000000      0xcac examples/light_switch/proxy_server/CMakeFiles/light_switch_proxy_server_nrf52832_xxAA_s132_6.0.0.dir/__/__/__/mesh/core/src/uri.c.obj
 .debug_abbrev  0x00000000      0x2e4 examples/light_switch/proxy_server/CMakeFiles/light_switch_proxy_server_nrf52832_xxAA_s132_6.0.0.dir/__/__/__/mesh/core/src/uri.c.obj
 .debug_loc     0x00000000      0x253 examples/light_switch/proxy_server/CMakeFiles/light_switch_proxy_server_nrf52832_xxAA_s132_6.0.0.dir/__/__/__/mesh/core/src/uri.c.obj
 .debug_aranges
                0x00000000       0x38 examples/light_switch/proxy_server/CMakeFiles/light_switch_proxy_server_nrf52832_xxAA_s132_6.0.0.dir/__/__/__/mesh/core/src/uri.c.obj
 .debug_ranges  0x00000000       0x48 examples/light_switch/proxy_server/CMakeFiles/light_switch_proxy_server_nrf52832_xxAA_s132_6.0.0.dir/__/__/__/mesh/core/src/uri.c.obj
 .debug_line    0x00000000      0x2ae examples/light_switch/proxy_server/CMakeFiles/light_switch_proxy_server_nrf52832_xxAA_s132_6.0.0.dir/__/__/__/mesh/core/src/uri.c.obj
 .debug_str     0x00000000      0x6dd examples/light_switch/proxy_server/CMakeFiles/light_switch_proxy_server_nrf52832_xxAA_s132_6.0.0.dir/__/__/__/mesh/core/src/uri.c.obj
 .comment       0x00000000       0x80 examples/light_switch/proxy_server/CMakeFiles/light_switch_proxy_server_nrf52832_xxAA_s132_6.0.0.dir/__/__/__/mesh/core/src/uri.c.obj
 .debug_frame   0x00000000       0x84 examples/light_switch/proxy_server/CMakeFiles/light_switch_proxy_server_nrf52832_xxAA_s132_6.0.0.dir/__/__/__/mesh/core/src/uri.c.obj
 .ARM.attributes
                0x00000000       0x39 examples/light_switch/proxy_server/CMakeFiles/light_switch_proxy_server_nrf52832_xxAA_s132_6.0.0.dir/__/__/__/mesh/core/src/uri.c.obj
 .text          0x00000000        0x0 examples/light_switch/proxy_server/CMakeFiles/light_switch_proxy_server_nrf52832_xxAA_s132_6.0.0.dir/__/__/__/mesh/core/src/list.c.obj
 .data          0x00000000        0x0 examples/light_switch/proxy_server/CMakeFiles/light_switch_proxy_server_nrf52832_xxAA_s132_6.0.0.dir/__/__/__/mesh/core/src/list.c.obj
 .bss           0x00000000        0x0 examples/light_switch/proxy_server/CMakeFiles/light_switch_proxy_server_nrf52832_xxAA_s132_6.0.0.dir/__/__/__/mesh/core/src/list.c.obj
 .text.list_size_get
                0x00000000       0x12 examples/light_switch/proxy_server/CMakeFiles/light_switch_proxy_server_nrf52832_xxAA_s132_6.0.0.dir/__/__/__/mesh/core/src/list.c.obj
 .text.list_sorted_add
                0x00000000       0x6c examples/light_switch/proxy_server/CMakeFiles/light_switch_proxy_server_nrf52832_xxAA_s132_6.0.0.dir/__/__/__/mesh/core/src/list.c.obj
 .text          0x00000000        0x0 examples/light_switch/proxy_server/CMakeFiles/light_switch_proxy_server_nrf52832_xxAA_s132_6.0.0.dir/__/__/__/mesh/core/src/log.c.obj
 .data          0x00000000        0x0 examples/light_switch/proxy_server/CMakeFiles/light_switch_proxy_server_nrf52832_xxAA_s132_6.0.0.dir/__/__/__/mesh/core/src/log.c.obj
 .bss           0x00000000        0x0 examples/light_switch/proxy_server/CMakeFiles/light_switch_proxy_server_nrf52832_xxAA_s132_6.0.0.dir/__/__/__/mesh/core/src/log.c.obj
 .text.log_callback_logview
                0x00000000       0x38 examples/light_switch/proxy_server/CMakeFiles/light_switch_proxy_server_nrf52832_xxAA_s132_6.0.0.dir/__/__/__/mesh/core/src/log.c.obj
 .text.log_set_callback
                0x00000000        0xc examples/light_switch/proxy_server/CMakeFiles/light_switch_proxy_server_nrf52832_xxAA_s132_6.0.0.dir/__/__/__/mesh/core/src/log.c.obj
 .rodata.log_callback_logview.str1.1
                0x00000000        0xf examples/light_switch/proxy_server/CMakeFiles/light_switch_proxy_server_nrf52832_xxAA_s132_6.0.0.dir/__/__/__/mesh/core/src/log.c.obj
 .text          0x00000000        0x0 examples/light_switch/proxy_server/CMakeFiles/light_switch_proxy_server_nrf52832_xxAA_s132_6.0.0.dir/__/__/__/mesh/core/src/flash_manager.c.obj
 .data          0x00000000        0x0 examples/light_switch/proxy_server/CMakeFiles/light_switch_proxy_server_nrf52832_xxAA_s132_6.0.0.dir/__/__/__/mesh/core/src/flash_manager.c.obj
 .bss           0x00000000        0x0 examples/light_switch/proxy_server/CMakeFiles/light_switch_proxy_server_nrf52832_xxAA_s132_6.0.0.dir/__/__/__/mesh/core/src/flash_manager.c.obj
 .text.flash_manager_entry_count_get
                0x00000000       0x50 examples/light_switch/proxy_server/CMakeFiles/light_switch_proxy_server_nrf52832_xxAA_s132_6.0.0.dir/__/__/__/mesh/core/src/flash_manager.c.obj
 .text.flash_manager_entry_release
                0x00000000       0x2c examples/light_switch/proxy_server/CMakeFiles/light_switch_proxy_server_nrf52832_xxAA_s132_6.0.0.dir/__/__/__/mesh/core/src/flash_manager.c.obj
 .text          0x00000000        0x0 examples/light_switch/proxy_server/CMakeFiles/light_switch_proxy_server_nrf52832_xxAA_s132_6.0.0.dir/__/__/__/mesh/core/src/ccm_soft.c.obj
 .data          0x00000000        0x0 examples/light_switch/proxy_server/CMakeFiles/light_switch_proxy_server_nrf52832_xxAA_s132_6.0.0.dir/__/__/__/mesh/core/src/ccm_soft.c.obj
 .bss           0x00000000        0x0 examples/light_switch/proxy_server/CMakeFiles/light_switch_proxy_server_nrf52832_xxAA_s132_6.0.0.dir/__/__/__/mesh/core/src/ccm_soft.c.obj
 .text          0x00000000        0x0 examples/light_switch/proxy_server/CMakeFiles/light_switch_proxy_server_nrf52832_xxAA_s132_6.0.0.dir/__/__/__/mesh/core/src/toolchain.c.obj
 .data          0x00000000        0x0 examples/light_switch/proxy_server/CMakeFiles/light_switch_proxy_server_nrf52832_xxAA_s132_6.0.0.dir/__/__/__/mesh/core/src/toolchain.c.obj
 .bss           0x00000000        0x0 examples/light_switch/proxy_server/CMakeFiles/light_switch_proxy_server_nrf52832_xxAA_s132_6.0.0.dir/__/__/__/mesh/core/src/toolchain.c.obj
 .debug_info    0x00000000       0xb3 examples/light_switch/proxy_server/CMakeFiles/light_switch_proxy_server_nrf52832_xxAA_s132_6.0.0.dir/__/__/__/mesh/core/src/toolchain.c.obj
 .debug_abbrev  0x00000000       0x5c examples/light_switch/proxy_server/CMakeFiles/light_switch_proxy_server_nrf52832_xxAA_s132_6.0.0.dir/__/__/__/mesh/core/src/toolchain.c.obj
 .debug_aranges
                0x00000000       0x18 examples/light_switch/proxy_server/CMakeFiles/light_switch_proxy_server_nrf52832_xxAA_s132_6.0.0.dir/__/__/__/mesh/core/src/toolchain.c.obj
 .debug_line    0x00000000      0x124 examples/light_switch/proxy_server/CMakeFiles/light_switch_proxy_server_nrf52832_xxAA_s132_6.0.0.dir/__/__/__/mesh/core/src/toolchain.c.obj
 .debug_str     0x00000000      0x1fa examples/light_switch/proxy_server/CMakeFiles/light_switch_proxy_server_nrf52832_xxAA_s132_6.0.0.dir/__/__/__/mesh/core/src/toolchain.c.obj
 .comment       0x00000000       0x80 examples/light_switch/proxy_server/CMakeFiles/light_switch_proxy_server_nrf52832_xxAA_s132_6.0.0.dir/__/__/__/mesh/core/src/toolchain.c.obj
 .ARM.attributes
                0x00000000       0x39 examples/light_switch/proxy_server/CMakeFiles/light_switch_proxy_server_nrf52832_xxAA_s132_6.0.0.dir/__/__/__/mesh/core/src/toolchain.c.obj
 .text          0x00000000        0x0 examples/light_switch/proxy_server/CMakeFiles/light_switch_proxy_server_nrf52832_xxAA_s132_6.0.0.dir/__/__/__/mesh/core/src/replay_cache.c.obj
 .data          0x00000000        0x0 examples/light_switch/proxy_server/CMakeFiles/light_switch_proxy_server_nrf52832_xxAA_s132_6.0.0.dir/__/__/__/mesh/core/src/replay_cache.c.obj
 .bss           0x00000000        0x0 examples/light_switch/proxy_server/CMakeFiles/light_switch_proxy_server_nrf52832_xxAA_s132_6.0.0.dir/__/__/__/mesh/core/src/replay_cache.c.obj
 .text.replay_cache_on_iv_update
                0x00000000       0x24 examples/light_switch/proxy_server/CMakeFiles/light_switch_proxy_server_nrf52832_xxAA_s132_6.0.0.dir/__/__/__/mesh/core/src/replay_cache.c.obj
 .text          0x00000000        0x0 examples/light_switch/proxy_server/CMakeFiles/light_switch_proxy_server_nrf52832_xxAA_s132_6.0.0.dir/__/__/__/mesh/core/src/beacon.c.obj
 .data          0x00000000        0x0 examples/light_switch/proxy_server/CMakeFiles/light_switch_proxy_server_nrf52832_xxAA_s132_6.0.0.dir/__/__/__/mesh/core/src/beacon.c.obj
 .bss           0x00000000        0x0 examples/light_switch/proxy_server/CMakeFiles/light_switch_proxy_server_nrf52832_xxAA_s132_6.0.0.dir/__/__/__/mesh/core/src/beacon.c.obj
 .text          0x00000000        0x0 examples/light_switch/proxy_server/CMakeFiles/light_switch_proxy_server_nrf52832_xxAA_s132_6.0.0.dir/__/__/__/mesh/core/src/flash_manager_internal.c.obj
 .data          0x00000000        0x0 examples/light_switch/proxy_server/CMakeFiles/light_switch_proxy_server_nrf52832_xxAA_s132_6.0.0.dir/__/__/__/mesh/core/src/flash_manager_internal.c.obj
 .bss           0x00000000        0x0 examples/light_switch/proxy_server/CMakeFiles/light_switch_proxy_server_nrf52832_xxAA_s132_6.0.0.dir/__/__/__/mesh/core/src/flash_manager_internal.c.obj
 .text          0x00000000        0x0 examples/light_switch/proxy_server/CMakeFiles/light_switch_proxy_server_nrf52832_xxAA_s132_6.0.0.dir/__/__/__/mesh/core/src/core_tx.c.obj
 .data          0x00000000        0x0 examples/light_switch/proxy_server/CMakeFiles/light_switch_proxy_server_nrf52832_xxAA_s132_6.0.0.dir/__/__/__/mesh/core/src/core_tx.c.obj
 .bss           0x00000000        0x0 examples/light_switch/proxy_server/CMakeFiles/light_switch_proxy_server_nrf52832_xxAA_s132_6.0.0.dir/__/__/__/mesh/core/src/core_tx.c.obj
 .text.core_tx_bearer_type_get
                0x00000000       0x1c examples/light_switch/proxy_server/CMakeFiles/light_switch_proxy_server_nrf52832_xxAA_s132_6.0.0.dir/__/__/__/mesh/core/src/core_tx.c.obj
 .text.core_tx_bearer_count_get
                0x00000000        0xc examples/light_switch/proxy_server/CMakeFiles/light_switch_proxy_server_nrf52832_xxAA_s132_6.0.0.dir/__/__/__/mesh/core/src/core_tx.c.obj
 .text          0x00000000        0x0 examples/light_switch/proxy_server/CMakeFiles/light_switch_proxy_server_nrf52832_xxAA_s132_6.0.0.dir/__/__/__/mesh/core/src/heartbeat.c.obj
 .data          0x00000000        0x0 examples/light_switch/proxy_server/CMakeFiles/light_switch_proxy_server_nrf52832_xxAA_s132_6.0.0.dir/__/__/__/mesh/core/src/heartbeat.c.obj
 .bss           0x00000000        0x0 examples/light_switch/proxy_server/CMakeFiles/light_switch_proxy_server_nrf52832_xxAA_s132_6.0.0.dir/__/__/__/mesh/core/src/heartbeat.c.obj
 .text          0x00000000        0x0 examples/light_switch/proxy_server/CMakeFiles/light_switch_proxy_server_nrf52832_xxAA_s132_6.0.0.dir/__/__/__/mesh/core/src/net_beacon.c.obj
 .data          0x00000000        0x0 examples/light_switch/proxy_server/CMakeFiles/light_switch_proxy_server_nrf52832_xxAA_s132_6.0.0.dir/__/__/__/mesh/core/src/net_beacon.c.obj
 .bss           0x00000000        0x0 examples/light_switch/proxy_server/CMakeFiles/light_switch_proxy_server_nrf52832_xxAA_s132_6.0.0.dir/__/__/__/mesh/core/src/net_beacon.c.obj
 .text          0x00000000        0x0 examples/light_switch/proxy_server/CMakeFiles/light_switch_proxy_server_nrf52832_xxAA_s132_6.0.0.dir/__/__/__/mesh/core/src/fsm.c.obj
 .data          0x00000000        0x0 examples/light_switch/proxy_server/CMakeFiles/light_switch_proxy_server_nrf52832_xxAA_s132_6.0.0.dir/__/__/__/mesh/core/src/fsm.c.obj
 .bss           0x00000000        0x0 examples/light_switch/proxy_server/CMakeFiles/light_switch_proxy_server_nrf52832_xxAA_s132_6.0.0.dir/__/__/__/mesh/core/src/fsm.c.obj
 .text          0x00000000        0x0 examples/light_switch/proxy_server/CMakeFiles/light_switch_proxy_server_nrf52832_xxAA_s132_6.0.0.dir/__/__/__/mesh/core/src/core_tx_adv.c.obj
 .data          0x00000000        0x0 examples/light_switch/proxy_server/CMakeFiles/light_switch_proxy_server_nrf52832_xxAA_s132_6.0.0.dir/__/__/__/mesh/core/src/core_tx_adv.c.obj
 .bss           0x00000000        0x0 examples/light_switch/proxy_server/CMakeFiles/light_switch_proxy_server_nrf52832_xxAA_s132_6.0.0.dir/__/__/__/mesh/core/src/core_tx_adv.c.obj
 .text.core_tx_adv_address_set
                0x00000000       0x28 examples/light_switch/proxy_server/CMakeFiles/light_switch_proxy_server_nrf52832_xxAA_s132_6.0.0.dir/__/__/__/mesh/core/src/core_tx_adv.c.obj
 .text          0x00000000        0x0 examples/light_switch/proxy_server/CMakeFiles/light_switch_proxy_server_nrf52832_xxAA_s132_6.0.0.dir/__/__/__/mesh/bearer/src/ad_listener.c.obj
 .data          0x00000000        0x0 examples/light_switch/proxy_server/CMakeFiles/light_switch_proxy_server_nrf52832_xxAA_s132_6.0.0.dir/__/__/__/mesh/bearer/src/ad_listener.c.obj
 .bss           0x00000000        0x0 examples/light_switch/proxy_server/CMakeFiles/light_switch_proxy_server_nrf52832_xxAA_s132_6.0.0.dir/__/__/__/mesh/bearer/src/ad_listener.c.obj
 .text.ad_listener_unsubscribe
                0x00000000       0x6c examples/light_switch/proxy_server/CMakeFiles/light_switch_proxy_server_nrf52832_xxAA_s132_6.0.0.dir/__/__/__/mesh/bearer/src/ad_listener.c.obj
 .text          0x00000000        0x0 examples/light_switch/proxy_server/CMakeFiles/light_switch_proxy_server_nrf52832_xxAA_s132_6.0.0.dir/__/__/__/mesh/bearer/src/ad_type_filter.c.obj
 .data          0x00000000        0x0 examples/light_switch/proxy_server/CMakeFiles/light_switch_proxy_server_nrf52832_xxAA_s132_6.0.0.dir/__/__/__/mesh/bearer/src/ad_type_filter.c.obj
 .bss           0x00000000        0x0 examples/light_switch/proxy_server/CMakeFiles/light_switch_proxy_server_nrf52832_xxAA_s132_6.0.0.dir/__/__/__/mesh/bearer/src/ad_type_filter.c.obj
 .text.bearer_adtype_remove
                0x00000000       0x20 examples/light_switch/proxy_server/CMakeFiles/light_switch_proxy_server_nrf52832_xxAA_s132_6.0.0.dir/__/__/__/mesh/bearer/src/ad_type_filter.c.obj
 .text.bearer_adtype_clear
                0x00000000       0x10 examples/light_switch/proxy_server/CMakeFiles/light_switch_proxy_server_nrf52832_xxAA_s132_6.0.0.dir/__/__/__/mesh/bearer/src/ad_type_filter.c.obj
 .text.bearer_invalid_length_amount_get
                0x00000000        0xc examples/light_switch/proxy_server/CMakeFiles/light_switch_proxy_server_nrf52832_xxAA_s132_6.0.0.dir/__/__/__/mesh/bearer/src/ad_type_filter.c.obj
 .text.bearer_adtype_filtered_amount_get
                0x00000000        0xc examples/light_switch/proxy_server/CMakeFiles/light_switch_proxy_server_nrf52832_xxAA_s132_6.0.0.dir/__/__/__/mesh/bearer/src/ad_type_filter.c.obj
 .text          0x00000000        0x0 examples/light_switch/proxy_server/CMakeFiles/light_switch_proxy_server_nrf52832_xxAA_s132_6.0.0.dir/__/__/__/mesh/bearer/src/adv_packet_filter.c.obj
 .data          0x00000000        0x0 examples/light_switch/proxy_server/CMakeFiles/light_switch_proxy_server_nrf52832_xxAA_s132_6.0.0.dir/__/__/__/mesh/bearer/src/adv_packet_filter.c.obj
 .bss           0x00000000        0x0 examples/light_switch/proxy_server/CMakeFiles/light_switch_proxy_server_nrf52832_xxAA_s132_6.0.0.dir/__/__/__/mesh/bearer/src/adv_packet_filter.c.obj
 .text.adv_filter_handle
                0x00000000       0x3c examples/light_switch/proxy_server/CMakeFiles/light_switch_proxy_server_nrf52832_xxAA_s132_6.0.0.dir/__/__/__/mesh/bearer/src/adv_packet_filter.c.obj
 .text.bearer_adv_packet_filtering_set
                0x00000000       0x1c examples/light_switch/proxy_server/CMakeFiles/light_switch_proxy_server_nrf52832_xxAA_s132_6.0.0.dir/__/__/__/mesh/bearer/src/adv_packet_filter.c.obj
 .text.bearer_adv_packet_remove
                0x00000000       0x18 examples/light_switch/proxy_server/CMakeFiles/light_switch_proxy_server_nrf52832_xxAA_s132_6.0.0.dir/__/__/__/mesh/bearer/src/adv_packet_filter.c.obj
 .text.bearer_adv_packet_add
                0x00000000       0x14 examples/light_switch/proxy_server/CMakeFiles/light_switch_proxy_server_nrf52832_xxAA_s132_6.0.0.dir/__/__/__/mesh/bearer/src/adv_packet_filter.c.obj
 .text.bearer_adv_packet_clear
                0x00000000        0xc examples/light_switch/proxy_server/CMakeFiles/light_switch_proxy_server_nrf52832_xxAA_s132_6.0.0.dir/__/__/__/mesh/bearer/src/adv_packet_filter.c.obj
 .text.bearer_adv_packet_filter_mode_set
                0x00000000       0x18 examples/light_switch/proxy_server/CMakeFiles/light_switch_proxy_server_nrf52832_xxAA_s132_6.0.0.dir/__/__/__/mesh/bearer/src/adv_packet_filter.c.obj
 .text.bearer_adv_packet_filtered_amount_get
                0x00000000        0xc examples/light_switch/proxy_server/CMakeFiles/light_switch_proxy_server_nrf52832_xxAA_s132_6.0.0.dir/__/__/__/mesh/bearer/src/adv_packet_filter.c.obj
 .bss.m_adv_packet_filter
                0x00000000       0x14 examples/light_switch/proxy_server/CMakeFiles/light_switch_proxy_server_nrf52832_xxAA_s132_6.0.0.dir/__/__/__/mesh/bearer/src/adv_packet_filter.c.obj
 .debug_info    0x00000000      0xd97 examples/light_switch/proxy_server/CMakeFiles/light_switch_proxy_server_nrf52832_xxAA_s132_6.0.0.dir/__/__/__/mesh/bearer/src/adv_packet_filter.c.obj
 .debug_abbrev  0x00000000      0x2c9 examples/light_switch/proxy_server/CMakeFiles/light_switch_proxy_server_nrf52832_xxAA_s132_6.0.0.dir/__/__/__/mesh/bearer/src/adv_packet_filter.c.obj
 .debug_loc     0x00000000      0x1c0 examples/light_switch/proxy_server/CMakeFiles/light_switch_proxy_server_nrf52832_xxAA_s132_6.0.0.dir/__/__/__/mesh/bearer/src/adv_packet_filter.c.obj
 .debug_aranges
                0x00000000       0x50 examples/light_switch/proxy_server/CMakeFiles/light_switch_proxy_server_nrf52832_xxAA_s132_6.0.0.dir/__/__/__/mesh/bearer/src/adv_packet_filter.c.obj
 .debug_ranges  0x00000000       0x40 examples/light_switch/proxy_server/CMakeFiles/light_switch_proxy_server_nrf52832_xxAA_s132_6.0.0.dir/__/__/__/mesh/bearer/src/adv_packet_filter.c.obj
 .debug_line    0x00000000      0x35b examples/light_switch/proxy_server/CMakeFiles/light_switch_proxy_server_nrf52832_xxAA_s132_6.0.0.dir/__/__/__/mesh/bearer/src/adv_packet_filter.c.obj
 .debug_str     0x00000000      0xa28 examples/light_switch/proxy_server/CMakeFiles/light_switch_proxy_server_nrf52832_xxAA_s132_6.0.0.dir/__/__/__/mesh/bearer/src/adv_packet_filter.c.obj
 .comment       0x00000000       0x80 examples/light_switch/proxy_server/CMakeFiles/light_switch_proxy_server_nrf52832_xxAA_s132_6.0.0.dir/__/__/__/mesh/bearer/src/adv_packet_filter.c.obj
 .debug_frame   0x00000000       0x88 examples/light_switch/proxy_server/CMakeFiles/light_switch_proxy_server_nrf52832_xxAA_s132_6.0.0.dir/__/__/__/mesh/bearer/src/adv_packet_filter.c.obj
 .ARM.attributes
                0x00000000       0x39 examples/light_switch/proxy_server/CMakeFiles/light_switch_proxy_server_nrf52832_xxAA_s132_6.0.0.dir/__/__/__/mesh/bearer/src/adv_packet_filter.c.obj
 .text          0x00000000        0x0 examples/light_switch/proxy_server/CMakeFiles/light_switch_proxy_server_nrf52832_xxAA_s132_6.0.0.dir/__/__/__/mesh/bearer/src/advertiser.c.obj
 .data          0x00000000        0x0 examples/light_switch/proxy_server/CMakeFiles/light_switch_proxy_server_nrf52832_xxAA_s132_6.0.0.dir/__/__/__/mesh/bearer/src/advertiser.c.obj
 .bss           0x00000000        0x0 examples/light_switch/proxy_server/CMakeFiles/light_switch_proxy_server_nrf52832_xxAA_s132_6.0.0.dir/__/__/__/mesh/bearer/src/advertiser.c.obj
 .text.advertiser_disable
                0x00000000        0xa examples/light_switch/proxy_server/CMakeFiles/light_switch_proxy_server_nrf52832_xxAA_s132_6.0.0.dir/__/__/__/mesh/bearer/src/advertiser.c.obj
 .text.advertiser_channels_set
                0x00000000       0x60 examples/light_switch/proxy_server/CMakeFiles/light_switch_proxy_server_nrf52832_xxAA_s132_6.0.0.dir/__/__/__/mesh/bearer/src/advertiser.c.obj
 .text.advertiser_address_set
                0x00000000       0x3c examples/light_switch/proxy_server/CMakeFiles/light_switch_proxy_server_nrf52832_xxAA_s132_6.0.0.dir/__/__/__/mesh/bearer/src/advertiser.c.obj
 .text.advertiser_config_set
                0x00000000       0x36 examples/light_switch/proxy_server/CMakeFiles/light_switch_proxy_server_nrf52832_xxAA_s132_6.0.0.dir/__/__/__/mesh/bearer/src/advertiser.c.obj
 .text.advertiser_config_get
                0x00000000       0x20 examples/light_switch/proxy_server/CMakeFiles/light_switch_proxy_server_nrf52832_xxAA_s132_6.0.0.dir/__/__/__/mesh/bearer/src/advertiser.c.obj
 .text          0x00000000        0x0 examples/light_switch/proxy_server/CMakeFiles/light_switch_proxy_server_nrf52832_xxAA_s132_6.0.0.dir/__/__/__/mesh/bearer/src/bearer_handler.c.obj
 .data          0x00000000        0x0 examples/light_switch/proxy_server/CMakeFiles/light_switch_proxy_server_nrf52832_xxAA_s132_6.0.0.dir/__/__/__/mesh/bearer/src/bearer_handler.c.obj
 .bss           0x00000000        0x0 examples/light_switch/proxy_server/CMakeFiles/light_switch_proxy_server_nrf52832_xxAA_s132_6.0.0.dir/__/__/__/mesh/bearer/src/bearer_handler.c.obj
 .text.bearer_handler_action_fire
                0x00000000       0x94 examples/light_switch/proxy_server/CMakeFiles/light_switch_proxy_server_nrf52832_xxAA_s132_6.0.0.dir/__/__/__/mesh/bearer/src/bearer_handler.c.obj
 .text          0x00000000        0x0 examples/light_switch/proxy_server/CMakeFiles/light_switch_proxy_server_nrf52832_xxAA_s132_6.0.0.dir/__/__/__/mesh/bearer/src/broadcast.c.obj
 .data          0x00000000        0x0 examples/light_switch/proxy_server/CMakeFiles/light_switch_proxy_server_nrf52832_xxAA_s132_6.0.0.dir/__/__/__/mesh/bearer/src/broadcast.c.obj
 .bss           0x00000000        0x0 examples/light_switch/proxy_server/CMakeFiles/light_switch_proxy_server_nrf52832_xxAA_s132_6.0.0.dir/__/__/__/mesh/bearer/src/broadcast.c.obj
 .text          0x00000000        0x0 examples/light_switch/proxy_server/CMakeFiles/light_switch_proxy_server_nrf52832_xxAA_s132_6.0.0.dir/__/__/__/mesh/bearer/src/filter_engine.c.obj
 .data          0x00000000        0x0 examples/light_switch/proxy_server/CMakeFiles/light_switch_proxy_server_nrf52832_xxAA_s132_6.0.0.dir/__/__/__/mesh/bearer/src/filter_engine.c.obj
 .bss           0x00000000        0x0 examples/light_switch/proxy_server/CMakeFiles/light_switch_proxy_server_nrf52832_xxAA_s132_6.0.0.dir/__/__/__/mesh/bearer/src/filter_engine.c.obj
 .text.fen_accepted_amount_get
                0x00000000        0xc examples/light_switch/proxy_server/CMakeFiles/light_switch_proxy_server_nrf52832_xxAA_s132_6.0.0.dir/__/__/__/mesh/bearer/src/filter_engine.c.obj
 .text          0x00000000        0x0 examples/light_switch/proxy_server/CMakeFiles/light_switch_proxy_server_nrf52832_xxAA_s132_6.0.0.dir/__/__/__/mesh/bearer/src/gap_address_filter.c.obj
 .data          0x00000000        0x0 examples/light_switch/proxy_server/CMakeFiles/light_switch_proxy_server_nrf52832_xxAA_s132_6.0.0.dir/__/__/__/mesh/bearer/src/gap_address_filter.c.obj
 .bss           0x00000000        0x0 examples/light_switch/proxy_server/CMakeFiles/light_switch_proxy_server_nrf52832_xxAA_s132_6.0.0.dir/__/__/__/mesh/bearer/src/gap_address_filter.c.obj
 .text.gap_address_filter_handle
                0x00000000       0xa6 examples/light_switch/proxy_server/CMakeFiles/light_switch_proxy_server_nrf52832_xxAA_s132_6.0.0.dir/__/__/__/mesh/bearer/src/gap_address_filter.c.obj
 .text.gap_addr_filter_set
                0x00000000       0x40 examples/light_switch/proxy_server/CMakeFiles/light_switch_proxy_server_nrf52832_xxAA_s132_6.0.0.dir/__/__/__/mesh/bearer/src/gap_address_filter.c.obj
 .text.bearer_filter_gap_addr_whitelist_set
                0x00000000        0x6 examples/light_switch/proxy_server/CMakeFiles/light_switch_proxy_server_nrf52832_xxAA_s132_6.0.0.dir/__/__/__/mesh/bearer/src/gap_address_filter.c.obj
 .text.bearer_filter_gap_addr_blacklist_set
                0x00000000        0x6 examples/light_switch/proxy_server/CMakeFiles/light_switch_proxy_server_nrf52832_xxAA_s132_6.0.0.dir/__/__/__/mesh/bearer/src/gap_address_filter.c.obj
 .text.bearer_filter_gap_addr_range_set
                0x00000000       0x38 examples/light_switch/proxy_server/CMakeFiles/light_switch_proxy_server_nrf52832_xxAA_s132_6.0.0.dir/__/__/__/mesh/bearer/src/gap_address_filter.c.obj
 .text.bearer_filter_gap_addr_clear
                0x00000000       0x20 examples/light_switch/proxy_server/CMakeFiles/light_switch_proxy_server_nrf52832_xxAA_s132_6.0.0.dir/__/__/__/mesh/bearer/src/gap_address_filter.c.obj
 .text.bearer_gap_addr_filtered_amount_get
                0x00000000        0xc examples/light_switch/proxy_server/CMakeFiles/light_switch_proxy_server_nrf52832_xxAA_s132_6.0.0.dir/__/__/__/mesh/bearer/src/gap_address_filter.c.obj
 .bss.m_addr_filter
                0x00000000       0x18 examples/light_switch/proxy_server/CMakeFiles/light_switch_proxy_server_nrf52832_xxAA_s132_6.0.0.dir/__/__/__/mesh/bearer/src/gap_address_filter.c.obj
 .debug_info    0x00000000      0xebb examples/light_switch/proxy_server/CMakeFiles/light_switch_proxy_server_nrf52832_xxAA_s132_6.0.0.dir/__/__/__/mesh/bearer/src/gap_address_filter.c.obj
 .debug_abbrev  0x00000000      0x2f4 examples/light_switch/proxy_server/CMakeFiles/light_switch_proxy_server_nrf52832_xxAA_s132_6.0.0.dir/__/__/__/mesh/bearer/src/gap_address_filter.c.obj
 .debug_loc     0x00000000      0x3e8 examples/light_switch/proxy_server/CMakeFiles/light_switch_proxy_server_nrf52832_xxAA_s132_6.0.0.dir/__/__/__/mesh/bearer/src/gap_address_filter.c.obj
 .debug_aranges
                0x00000000       0x50 examples/light_switch/proxy_server/CMakeFiles/light_switch_proxy_server_nrf52832_xxAA_s132_6.0.0.dir/__/__/__/mesh/bearer/src/gap_address_filter.c.obj
 .debug_ranges  0x00000000       0x58 examples/light_switch/proxy_server/CMakeFiles/light_switch_proxy_server_nrf52832_xxAA_s132_6.0.0.dir/__/__/__/mesh/bearer/src/gap_address_filter.c.obj
 .debug_line    0x00000000      0x3b3 examples/light_switch/proxy_server/CMakeFiles/light_switch_proxy_server_nrf52832_xxAA_s132_6.0.0.dir/__/__/__/mesh/bearer/src/gap_address_filter.c.obj
 .debug_str     0x00000000      0x982 examples/light_switch/proxy_server/CMakeFiles/light_switch_proxy_server_nrf52832_xxAA_s132_6.0.0.dir/__/__/__/mesh/bearer/src/gap_address_filter.c.obj
 .comment       0x00000000       0x80 examples/light_switch/proxy_server/CMakeFiles/light_switch_proxy_server_nrf52832_xxAA_s132_6.0.0.dir/__/__/__/mesh/bearer/src/gap_address_filter.c.obj
 .debug_frame   0x00000000       0xb4 examples/light_switch/proxy_server/CMakeFiles/light_switch_proxy_server_nrf52832_xxAA_s132_6.0.0.dir/__/__/__/mesh/bearer/src/gap_address_filter.c.obj
 .ARM.attributes
                0x00000000       0x39 examples/light_switch/proxy_server/CMakeFiles/light_switch_proxy_server_nrf52832_xxAA_s132_6.0.0.dir/__/__/__/mesh/bearer/src/gap_address_filter.c.obj
 .text          0x00000000        0x0 examples/light_switch/proxy_server/CMakeFiles/light_switch_proxy_server_nrf52832_xxAA_s132_6.0.0.dir/__/__/__/mesh/bearer/src/radio_config.c.obj
 .data          0x00000000        0x0 examples/light_switch/proxy_server/CMakeFiles/light_switch_proxy_server_nrf52832_xxAA_s132_6.0.0.dir/__/__/__/mesh/bearer/src/radio_config.c.obj
 .bss           0x00000000        0x0 examples/light_switch/proxy_server/CMakeFiles/light_switch_proxy_server_nrf52832_xxAA_s132_6.0.0.dir/__/__/__/mesh/bearer/src/radio_config.c.obj
 .text.radio_config_access_addr_get
                0x00000000       0x4c examples/light_switch/proxy_server/CMakeFiles/light_switch_proxy_server_nrf52832_xxAA_s132_6.0.0.dir/__/__/__/mesh/bearer/src/radio_config.c.obj
 .text          0x00000000        0x0 examples/light_switch/proxy_server/CMakeFiles/light_switch_proxy_server_nrf52832_xxAA_s132_6.0.0.dir/__/__/__/mesh/bearer/src/rssi_filter.c.obj
 .data          0x00000000        0x0 examples/light_switch/proxy_server/CMakeFiles/light_switch_proxy_server_nrf52832_xxAA_s132_6.0.0.dir/__/__/__/mesh/bearer/src/rssi_filter.c.obj
 .bss           0x00000000        0x0 examples/light_switch/proxy_server/CMakeFiles/light_switch_proxy_server_nrf52832_xxAA_s132_6.0.0.dir/__/__/__/mesh/bearer/src/rssi_filter.c.obj
 .text.rssi_filter_handle
                0x00000000       0x20 examples/light_switch/proxy_server/CMakeFiles/light_switch_proxy_server_nrf52832_xxAA_s132_6.0.0.dir/__/__/__/mesh/bearer/src/rssi_filter.c.obj
 .text.bearer_rssi_filtering_set
                0x00000000       0x34 examples/light_switch/proxy_server/CMakeFiles/light_switch_proxy_server_nrf52832_xxAA_s132_6.0.0.dir/__/__/__/mesh/bearer/src/rssi_filter.c.obj
 .text.bearer_rssi_filtered_amount_get
                0x00000000        0xc examples/light_switch/proxy_server/CMakeFiles/light_switch_proxy_server_nrf52832_xxAA_s132_6.0.0.dir/__/__/__/mesh/bearer/src/rssi_filter.c.obj
 .bss.m_rssi_filter
                0x00000000       0x18 examples/light_switch/proxy_server/CMakeFiles/light_switch_proxy_server_nrf52832_xxAA_s132_6.0.0.dir/__/__/__/mesh/bearer/src/rssi_filter.c.obj
 .debug_info    0x00000000      0xc73 examples/light_switch/proxy_server/CMakeFiles/light_switch_proxy_server_nrf52832_xxAA_s132_6.0.0.dir/__/__/__/mesh/bearer/src/rssi_filter.c.obj
 .debug_abbrev  0x00000000      0x28e examples/light_switch/proxy_server/CMakeFiles/light_switch_proxy_server_nrf52832_xxAA_s132_6.0.0.dir/__/__/__/mesh/bearer/src/rssi_filter.c.obj
 .debug_loc     0x00000000       0xb3 examples/light_switch/proxy_server/CMakeFiles/light_switch_proxy_server_nrf52832_xxAA_s132_6.0.0.dir/__/__/__/mesh/bearer/src/rssi_filter.c.obj
 .debug_aranges
                0x00000000       0x30 examples/light_switch/proxy_server/CMakeFiles/light_switch_proxy_server_nrf52832_xxAA_s132_6.0.0.dir/__/__/__/mesh/bearer/src/rssi_filter.c.obj
 .debug_ranges  0x00000000       0x20 examples/light_switch/proxy_server/CMakeFiles/light_switch_proxy_server_nrf52832_xxAA_s132_6.0.0.dir/__/__/__/mesh/bearer/src/rssi_filter.c.obj
 .debug_line    0x00000000      0x2d0 examples/light_switch/proxy_server/CMakeFiles/light_switch_proxy_server_nrf52832_xxAA_s132_6.0.0.dir/__/__/__/mesh/bearer/src/rssi_filter.c.obj
 .debug_str     0x00000000      0x83d examples/light_switch/proxy_server/CMakeFiles/light_switch_proxy_server_nrf52832_xxAA_s132_6.0.0.dir/__/__/__/mesh/bearer/src/rssi_filter.c.obj
 .comment       0x00000000       0x80 examples/light_switch/proxy_server/CMakeFiles/light_switch_proxy_server_nrf52832_xxAA_s132_6.0.0.dir/__/__/__/mesh/bearer/src/rssi_filter.c.obj
 .debug_frame   0x00000000       0x54 examples/light_switch/proxy_server/CMakeFiles/light_switch_proxy_server_nrf52832_xxAA_s132_6.0.0.dir/__/__/__/mesh/bearer/src/rssi_filter.c.obj
 .ARM.attributes
                0x00000000       0x39 examples/light_switch/proxy_server/CMakeFiles/light_switch_proxy_server_nrf52832_xxAA_s132_6.0.0.dir/__/__/__/mesh/bearer/src/rssi_filter.c.obj
 .text          0x00000000        0x0 examples/light_switch/proxy_server/CMakeFiles/light_switch_proxy_server_nrf52832_xxAA_s132_6.0.0.dir/__/__/__/mesh/bearer/src/scanner.c.obj
 .data          0x00000000        0x0 examples/light_switch/proxy_server/CMakeFiles/light_switch_proxy_server_nrf52832_xxAA_s132_6.0.0.dir/__/__/__/mesh/bearer/src/scanner.c.obj
 .bss           0x00000000        0x0 examples/light_switch/proxy_server/CMakeFiles/light_switch_proxy_server_nrf52832_xxAA_s132_6.0.0.dir/__/__/__/mesh/bearer/src/scanner.c.obj
 .text.scanner_rx_callback_set
                0x00000000       0x20 examples/light_switch/proxy_server/CMakeFiles/light_switch_proxy_server_nrf52832_xxAA_s132_6.0.0.dir/__/__/__/mesh/bearer/src/scanner.c.obj
 .text.scanner_is_enabled
                0x00000000       0x10 examples/light_switch/proxy_server/CMakeFiles/light_switch_proxy_server_nrf52832_xxAA_s132_6.0.0.dir/__/__/__/mesh/bearer/src/scanner.c.obj
 .text.scanner_stats_get
                0x00000000        0x8 examples/light_switch/proxy_server/CMakeFiles/light_switch_proxy_server_nrf52832_xxAA_s132_6.0.0.dir/__/__/__/mesh/bearer/src/scanner.c.obj
 .text.scanner_config_radio_mode_set
                0x00000000       0x10 examples/light_switch/proxy_server/CMakeFiles/light_switch_proxy_server_nrf52832_xxAA_s132_6.0.0.dir/__/__/__/mesh/bearer/src/scanner.c.obj
 .text          0x00000000        0x0 examples/light_switch/proxy_server/CMakeFiles/light_switch_proxy_server_nrf52832_xxAA_s132_6.0.0.dir/__/__/__/mesh/gatt/src/mesh_gatt.c.obj
 .data          0x00000000        0x0 examples/light_switch/proxy_server/CMakeFiles/light_switch_proxy_server_nrf52832_xxAA_s132_6.0.0.dir/__/__/__/mesh/gatt/src/mesh_gatt.c.obj
 .bss           0x00000000        0x0 examples/light_switch/proxy_server/CMakeFiles/light_switch_proxy_server_nrf52832_xxAA_s132_6.0.0.dir/__/__/__/mesh/gatt/src/mesh_gatt.c.obj
 .text          0x00000000        0x0 examples/light_switch/proxy_server/CMakeFiles/light_switch_proxy_server_nrf52832_xxAA_s132_6.0.0.dir/__/__/__/mesh/gatt/src/proxy.c.obj
 .data          0x00000000        0x0 examples/light_switch/proxy_server/CMakeFiles/light_switch_proxy_server_nrf52832_xxAA_s132_6.0.0.dir/__/__/__/mesh/gatt/src/proxy.c.obj
 .bss           0x00000000        0x0 examples/light_switch/proxy_server/CMakeFiles/light_switch_proxy_server_nrf52832_xxAA_s132_6.0.0.dir/__/__/__/mesh/gatt/src/proxy.c.obj
 .text.proxy_is_connected
                0x00000000       0x18 examples/light_switch/proxy_server/CMakeFiles/light_switch_proxy_server_nrf52832_xxAA_s132_6.0.0.dir/__/__/__/mesh/gatt/src/proxy.c.obj
 .text          0x00000000        0x0 examples/light_switch/proxy_server/CMakeFiles/light_switch_proxy_server_nrf52832_xxAA_s132_6.0.0.dir/__/__/__/mesh/gatt/src/proxy_filter.c.obj
 .data          0x00000000        0x0 examples/light_switch/proxy_server/CMakeFiles/light_switch_proxy_server_nrf52832_xxAA_s132_6.0.0.dir/__/__/__/mesh/gatt/src/proxy_filter.c.obj
 .bss           0x00000000        0x0 examples/light_switch/proxy_server/CMakeFiles/light_switch_proxy_server_nrf52832_xxAA_s132_6.0.0.dir/__/__/__/mesh/gatt/src/proxy_filter.c.obj
 .text          0x00000000        0x0 examples/light_switch/proxy_server/CMakeFiles/light_switch_proxy_server_nrf52832_xxAA_s132_6.0.0.dir/__/__/__/models/simple_on_off/src/simple_on_off_server.c.obj
 .data          0x00000000        0x0 examples/light_switch/proxy_server/CMakeFiles/light_switch_proxy_server_nrf52832_xxAA_s132_6.0.0.dir/__/__/__/models/simple_on_off/src/simple_on_off_server.c.obj
 .bss           0x00000000        0x0 examples/light_switch/proxy_server/CMakeFiles/light_switch_proxy_server_nrf52832_xxAA_s132_6.0.0.dir/__/__/__/models/simple_on_off/src/simple_on_off_server.c.obj
 .text          0x00000000        0x0 examples/light_switch/proxy_server/CMakeFiles/light_switch_proxy_server_nrf52832_xxAA_s132_6.0.0.dir/__/__/__/models/config/src/composition_data.c.obj
 .data          0x00000000        0x0 examples/light_switch/proxy_server/CMakeFiles/light_switch_proxy_server_nrf52832_xxAA_s132_6.0.0.dir/__/__/__/models/config/src/composition_data.c.obj
 .bss           0x00000000        0x0 examples/light_switch/proxy_server/CMakeFiles/light_switch_proxy_server_nrf52832_xxAA_s132_6.0.0.dir/__/__/__/models/config/src/composition_data.c.obj
 .text          0x00000000        0x0 examples/light_switch/proxy_server/CMakeFiles/light_switch_proxy_server_nrf52832_xxAA_s132_6.0.0.dir/__/__/__/models/config/src/config_server.c.obj
 .data          0x00000000        0x0 examples/light_switch/proxy_server/CMakeFiles/light_switch_proxy_server_nrf52832_xxAA_s132_6.0.0.dir/__/__/__/models/config/src/config_server.c.obj
 .bss           0x00000000        0x0 examples/light_switch/proxy_server/CMakeFiles/light_switch_proxy_server_nrf52832_xxAA_s132_6.0.0.dir/__/__/__/models/config/src/config_server.c.obj
 .text          0x00000000        0x0 examples/light_switch/proxy_server/CMakeFiles/light_switch_proxy_server_nrf52832_xxAA_s132_6.0.0.dir/__/__/__/models/config/src/packed_index_list.c.obj
 .data          0x00000000        0x0 examples/light_switch/proxy_server/CMakeFiles/light_switch_proxy_server_nrf52832_xxAA_s132_6.0.0.dir/__/__/__/models/config/src/packed_index_list.c.obj
 .bss           0x00000000        0x0 examples/light_switch/proxy_server/CMakeFiles/light_switch_proxy_server_nrf52832_xxAA_s132_6.0.0.dir/__/__/__/models/config/src/packed_index_list.c.obj
 .text          0x00000000        0x0 examples/light_switch/proxy_server/CMakeFiles/light_switch_proxy_server_nrf52832_xxAA_s132_6.0.0.dir/__/__/__/models/health/src/health_server.c.obj
 .data          0x00000000        0x0 examples/light_switch/proxy_server/CMakeFiles/light_switch_proxy_server_nrf52832_xxAA_s132_6.0.0.dir/__/__/__/models/health/src/health_server.c.obj
 .bss           0x00000000        0x0 examples/light_switch/proxy_server/CMakeFiles/light_switch_proxy_server_nrf52832_xxAA_s132_6.0.0.dir/__/__/__/models/health/src/health_server.c.obj
 .text.health_server_fault_is_set
                0x00000000       0x1c examples/light_switch/proxy_server/CMakeFiles/light_switch_proxy_server_nrf52832_xxAA_s132_6.0.0.dir/__/__/__/models/health/src/health_server.c.obj
 .text.health_server_fault_count_get
                0x00000000        0xc examples/light_switch/proxy_server/CMakeFiles/light_switch_proxy_server_nrf52832_xxAA_s132_6.0.0.dir/__/__/__/models/health/src/health_server.c.obj
 .text.health_server_fault_register
                0x00000000       0xca examples/light_switch/proxy_server/CMakeFiles/light_switch_proxy_server_nrf52832_xxAA_s132_6.0.0.dir/__/__/__/models/health/src/health_server.c.obj
 .text.health_server_fault_clear
                0x00000000       0x48 examples/light_switch/proxy_server/CMakeFiles/light_switch_proxy_server_nrf52832_xxAA_s132_6.0.0.dir/__/__/__/models/health/src/health_server.c.obj
 .text.health_server_attention_get
                0x00000000        0x6 examples/light_switch/proxy_server/CMakeFiles/light_switch_proxy_server_nrf52832_xxAA_s132_6.0.0.dir/__/__/__/models/health/src/health_server.c.obj
 .text.health_server_attention_set
                0x00000000        0x4 examples/light_switch/proxy_server/CMakeFiles/light_switch_proxy_server_nrf52832_xxAA_s132_6.0.0.dir/__/__/__/models/health/src/health_server.c.obj
 .text          0x00000000        0x0 examples/light_switch/proxy_server/CMakeFiles/light_switch_proxy_server_nrf52832_xxAA_s132_6.0.0.dir/__/__/__/mesh/access/src/access_publish.c.obj
 .data          0x00000000        0x0 examples/light_switch/proxy_server/CMakeFiles/light_switch_proxy_server_nrf52832_xxAA_s132_6.0.0.dir/__/__/__/mesh/access/src/access_publish.c.obj
 .bss           0x00000000        0x0 examples/light_switch/proxy_server/CMakeFiles/light_switch_proxy_server_nrf52832_xxAA_s132_6.0.0.dir/__/__/__/mesh/access/src/access_publish.c.obj
 .text          0x00000000        0x0 examples/light_switch/proxy_server/CMakeFiles/light_switch_proxy_server_nrf52832_xxAA_s132_6.0.0.dir/__/__/__/mesh/access/src/access.c.obj
 .data          0x00000000        0x0 examples/light_switch/proxy_server/CMakeFiles/light_switch_proxy_server_nrf52832_xxAA_s132_6.0.0.dir/__/__/__/mesh/access/src/access.c.obj
 .bss           0x00000000        0x0 examples/light_switch/proxy_server/CMakeFiles/light_switch_proxy_server_nrf52832_xxAA_s132_6.0.0.dir/__/__/__/mesh/access/src/access.c.obj
 .text.access_model_subscription_lists_share
                0x00000000       0x48 examples/light_switch/proxy_server/CMakeFiles/light_switch_proxy_server_nrf52832_xxAA_s132_6.0.0.dir/__/__/__/mesh/access/src/access.c.obj
 .text.access_element_location_set
                0x00000000       0x20 examples/light_switch/proxy_server/CMakeFiles/light_switch_proxy_server_nrf52832_xxAA_s132_6.0.0.dir/__/__/__/mesh/access/src/access.c.obj
 .text          0x00000000        0x0 examples/light_switch/proxy_server/CMakeFiles/light_switch_proxy_server_nrf52832_xxAA_s132_6.0.0.dir/__/__/__/mesh/access/src/access_reliable.c.obj
 .data          0x00000000        0x0 examples/light_switch/proxy_server/CMakeFiles/light_switch_proxy_server_nrf52832_xxAA_s132_6.0.0.dir/__/__/__/mesh/access/src/access_reliable.c.obj
 .bss           0x00000000        0x0 examples/light_switch/proxy_server/CMakeFiles/light_switch_proxy_server_nrf52832_xxAA_s132_6.0.0.dir/__/__/__/mesh/access/src/access_reliable.c.obj
 .text.access_model_reliable_publish
                0x00000000      0x1b8 examples/light_switch/proxy_server/CMakeFiles/light_switch_proxy_server_nrf52832_xxAA_s132_6.0.0.dir/__/__/__/mesh/access/src/access_reliable.c.obj
 .text          0x00000000        0x0 examples/light_switch/proxy_server/CMakeFiles/light_switch_proxy_server_nrf52832_xxAA_s132_6.0.0.dir/__/__/__/mesh/access/src/device_state_manager.c.obj
 .data          0x00000000        0x0 examples/light_switch/proxy_server/CMakeFiles/light_switch_proxy_server_nrf52832_xxAA_s132_6.0.0.dir/__/__/__/mesh/access/src/device_state_manager.c.obj
 .bss           0x00000000        0x0 examples/light_switch/proxy_server/CMakeFiles/light_switch_proxy_server_nrf52832_xxAA_s132_6.0.0.dir/__/__/__/mesh/access/src/device_state_manager.c.obj
 .text.dsm_has_unflashed_data
                0x00000000       0x24 examples/light_switch/proxy_server/CMakeFiles/light_switch_proxy_server_nrf52832_xxAA_s132_6.0.0.dir/__/__/__/mesh/access/src/device_state_manager.c.obj
 .text.dsm_address_subscription_count_get
                0x00000000       0x58 examples/light_switch/proxy_server/CMakeFiles/light_switch_proxy_server_nrf52832_xxAA_s132_6.0.0.dir/__/__/__/mesh/access/src/device_state_manager.c.obj
 .text.dsm_address_get_all
                0x00000000       0x74 examples/light_switch/proxy_server/CMakeFiles/light_switch_proxy_server_nrf52832_xxAA_s132_6.0.0.dir/__/__/__/mesh/access/src/device_state_manager.c.obj
 .text.dsm_subnet_handle_to_netkey_index
                0x00000000       0x34 examples/light_switch/proxy_server/CMakeFiles/light_switch_proxy_server_nrf52832_xxAA_s132_6.0.0.dir/__/__/__/mesh/access/src/device_state_manager.c.obj
 .text.dsm_devkey_delete
                0x00000000       0x38 examples/light_switch/proxy_server/CMakeFiles/light_switch_proxy_server_nrf52832_xxAA_s132_6.0.0.dir/__/__/__/mesh/access/src/device_state_manager.c.obj
 .text.dsm_devkey_handle_get
                0x00000000       0x34 examples/light_switch/proxy_server/CMakeFiles/light_switch_proxy_server_nrf52832_xxAA_s132_6.0.0.dir/__/__/__/mesh/access/src/device_state_manager.c.obj
 .text          0x00000000        0x0 examples/light_switch/proxy_server/CMakeFiles/light_switch_proxy_server_nrf52832_xxAA_s132_6.0.0.dir/__/__/__/mesh/prov/src/prov_provisionee.c.obj
 .data          0x00000000        0x0 examples/light_switch/proxy_server/CMakeFiles/light_switch_proxy_server_nrf52832_xxAA_s132_6.0.0.dir/__/__/__/mesh/prov/src/prov_provisionee.c.obj
 .bss           0x00000000        0x0 examples/light_switch/proxy_server/CMakeFiles/light_switch_proxy_server_nrf52832_xxAA_s132_6.0.0.dir/__/__/__/mesh/prov/src/prov_provisionee.c.obj
 .text.prov_provisionee_shared_secret
                0x00000000       0x28 examples/light_switch/proxy_server/CMakeFiles/light_switch_proxy_server_nrf52832_xxAA_s132_6.0.0.dir/__/__/__/mesh/prov/src/prov_provisionee.c.obj
 .text          0x00000000        0x0 examples/light_switch/proxy_server/CMakeFiles/light_switch_proxy_server_nrf52832_xxAA_s132_6.0.0.dir/__/__/__/mesh/prov/src/nrf_mesh_prov.c.obj
 .data          0x00000000        0x0 examples/light_switch/proxy_server/CMakeFiles/light_switch_proxy_server_nrf52832_xxAA_s132_6.0.0.dir/__/__/__/mesh/prov/src/nrf_mesh_prov.c.obj
 .bss           0x00000000        0x0 examples/light_switch/proxy_server/CMakeFiles/light_switch_proxy_server_nrf52832_xxAA_s132_6.0.0.dir/__/__/__/mesh/prov/src/nrf_mesh_prov.c.obj
 .text.nrf_mesh_prov_provision
                0x00000000       0x4e examples/light_switch/proxy_server/CMakeFiles/light_switch_proxy_server_nrf52832_xxAA_s132_6.0.0.dir/__/__/__/mesh/prov/src/nrf_mesh_prov.c.obj
 .text.nrf_mesh_prov_oob_use
                0x00000000       0x18 examples/light_switch/proxy_server/CMakeFiles/light_switch_proxy_server_nrf52832_xxAA_s132_6.0.0.dir/__/__/__/mesh/prov/src/nrf_mesh_prov.c.obj
 .text.nrf_mesh_prov_shared_secret_provide
                0x00000000        0xe examples/light_switch/proxy_server/CMakeFiles/light_switch_proxy_server_nrf52832_xxAA_s132_6.0.0.dir/__/__/__/mesh/prov/src/nrf_mesh_prov.c.obj
 .text.nrf_mesh_prov_pubkey_provide
                0x00000000       0x10 examples/light_switch/proxy_server/CMakeFiles/light_switch_proxy_server_nrf52832_xxAA_s132_6.0.0.dir/__/__/__/mesh/prov/src/nrf_mesh_prov.c.obj
 .text.nrf_mesh_prov_scan_start
                0x00000000       0x10 examples/light_switch/proxy_server/CMakeFiles/light_switch_proxy_server_nrf52832_xxAA_s132_6.0.0.dir/__/__/__/mesh/prov/src/nrf_mesh_prov.c.obj
 .text.nrf_mesh_prov_scan_stop
                0x00000000        0x4 examples/light_switch/proxy_server/CMakeFiles/light_switch_proxy_server_nrf52832_xxAA_s132_6.0.0.dir/__/__/__/mesh/prov/src/nrf_mesh_prov.c.obj
 .text          0x00000000        0x0 examples/light_switch/proxy_server/CMakeFiles/light_switch_proxy_server_nrf52832_xxAA_s132_6.0.0.dir/__/__/__/mesh/prov/src/provisioning.c.obj
 .data          0x00000000        0x0 examples/light_switch/proxy_server/CMakeFiles/light_switch_proxy_server_nrf52832_xxAA_s132_6.0.0.dir/__/__/__/mesh/prov/src/provisioning.c.obj
 .bss           0x00000000        0x0 examples/light_switch/proxy_server/CMakeFiles/light_switch_proxy_server_nrf52832_xxAA_s132_6.0.0.dir/__/__/__/mesh/prov/src/provisioning.c.obj
 .text.prov_tx_invite
                0x00000000       0x28 examples/light_switch/proxy_server/CMakeFiles/light_switch_proxy_server_nrf52832_xxAA_s132_6.0.0.dir/__/__/__/mesh/prov/src/provisioning.c.obj
 .text.prov_tx_start
                0x00000000       0x20 examples/light_switch/proxy_server/CMakeFiles/light_switch_proxy_server_nrf52832_xxAA_s132_6.0.0.dir/__/__/__/mesh/prov/src/provisioning.c.obj
 .text.prov_tx_data
                0x00000000        0x6 examples/light_switch/proxy_server/CMakeFiles/light_switch_proxy_server_nrf52832_xxAA_s132_6.0.0.dir/__/__/__/mesh/prov/src/provisioning.c.obj
 .text.prov_tx  0x00000000        0x4 examples/light_switch/proxy_server/CMakeFiles/light_switch_proxy_server_nrf52832_xxAA_s132_6.0.0.dir/__/__/__/mesh/prov/src/provisioning.c.obj
 .text          0x00000000        0x0 examples/light_switch/proxy_server/CMakeFiles/light_switch_proxy_server_nrf52832_xxAA_s132_6.0.0.dir/__/__/__/mesh/prov/src/prov_beacon.c.obj
 .data          0x00000000        0x0 examples/light_switch/proxy_server/CMakeFiles/light_switch_proxy_server_nrf52832_xxAA_s132_6.0.0.dir/__/__/__/mesh/prov/src/prov_beacon.c.obj
 .bss           0x00000000        0x0 examples/light_switch/proxy_server/CMakeFiles/light_switch_proxy_server_nrf52832_xxAA_s132_6.0.0.dir/__/__/__/mesh/prov/src/prov_beacon.c.obj
 .text.prov_beacon_scan_start
                0x00000000       0x18 examples/light_switch/proxy_server/CMakeFiles/light_switch_proxy_server_nrf52832_xxAA_s132_6.0.0.dir/__/__/__/mesh/prov/src/prov_beacon.c.obj
 .text.prov_beacon_scan_stop
                0x00000000        0xc examples/light_switch/proxy_server/CMakeFiles/light_switch_proxy_server_nrf52832_xxAA_s132_6.0.0.dir/__/__/__/mesh/prov/src/prov_beacon.c.obj
 .text          0x00000000        0x0 examples/light_switch/proxy_server/CMakeFiles/light_switch_proxy_server_nrf52832_xxAA_s132_6.0.0.dir/__/__/__/mesh/prov/src/prov_utils.c.obj
 .data          0x00000000        0x0 examples/light_switch/proxy_server/CMakeFiles/light_switch_proxy_server_nrf52832_xxAA_s132_6.0.0.dir/__/__/__/mesh/prov/src/prov_utils.c.obj
 .bss           0x00000000        0x0 examples/light_switch/proxy_server/CMakeFiles/light_switch_proxy_server_nrf52832_xxAA_s132_6.0.0.dir/__/__/__/mesh/prov/src/prov_utils.c.obj
 .text          0x00000000        0x0 examples/light_switch/proxy_server/CMakeFiles/light_switch_proxy_server_nrf52832_xxAA_s132_6.0.0.dir/__/__/__/mesh/prov/src/prov_bearer_adv.c.obj
 .data          0x00000000        0x0 examples/light_switch/proxy_server/CMakeFiles/light_switch_proxy_server_nrf52832_xxAA_s132_6.0.0.dir/__/__/__/mesh/prov/src/prov_bearer_adv.c.obj
 .bss           0x00000000        0x0 examples/light_switch/proxy_server/CMakeFiles/light_switch_proxy_server_nrf52832_xxAA_s132_6.0.0.dir/__/__/__/mesh/prov/src/prov_bearer_adv.c.obj
 .text          0x00000000        0x0 examples/light_switch/proxy_server/CMakeFiles/light_switch_proxy_server_nrf52832_xxAA_s132_6.0.0.dir/C_/b/nRF5_SDK_15.0.0_a53641a/modules/nrfx/mdk/system_nrf52.c.obj
 .data          0x00000000        0x0 examples/light_switch/proxy_server/CMakeFiles/light_switch_proxy_server_nrf52832_xxAA_s132_6.0.0.dir/C_/b/nRF5_SDK_15.0.0_a53641a/modules/nrfx/mdk/system_nrf52.c.obj
 .bss           0x00000000        0x0 examples/light_switch/proxy_server/CMakeFiles/light_switch_proxy_server_nrf52832_xxAA_s132_6.0.0.dir/C_/b/nRF5_SDK_15.0.0_a53641a/modules/nrfx/mdk/system_nrf52.c.obj
 .text.SystemCoreClockUpdate
                0x00000000       0x10 examples/light_switch/proxy_server/CMakeFiles/light_switch_proxy_server_nrf52832_xxAA_s132_6.0.0.dir/C_/b/nRF5_SDK_15.0.0_a53641a/modules/nrfx/mdk/system_nrf52.c.obj
 .data          0x00000000        0x0 examples/light_switch/proxy_server/CMakeFiles/light_switch_proxy_server_nrf52832_xxAA_s132_6.0.0.dir/C_/b/nRF5_SDK_15.0.0_a53641a/modules/nrfx/mdk/gcc_startup_nrf52.S.obj
 .bss           0x00000000        0x0 examples/light_switch/proxy_server/CMakeFiles/light_switch_proxy_server_nrf52832_xxAA_s132_6.0.0.dir/C_/b/nRF5_SDK_15.0.0_a53641a/modules/nrfx/mdk/gcc_startup_nrf52.S.obj
 .text          0x00000000        0x0 examples/light_switch/proxy_server/CMakeFiles/light_switch_proxy_server_nrf52832_xxAA_s132_6.0.0.dir/C_/b/nRF5_SDK_15.0.0_a53641a/components/libraries/util/app_error.c.obj
 .data          0x00000000        0x0 examples/light_switch/proxy_server/CMakeFiles/light_switch_proxy_server_nrf52832_xxAA_s132_6.0.0.dir/C_/b/nRF5_SDK_15.0.0_a53641a/components/libraries/util/app_error.c.obj
 .bss           0x00000000        0x0 examples/light_switch/proxy_server/CMakeFiles/light_switch_proxy_server_nrf52832_xxAA_s132_6.0.0.dir/C_/b/nRF5_SDK_15.0.0_a53641a/components/libraries/util/app_error.c.obj
 .text.app_error_save_and_stop
                0x00000000       0x58 examples/light_switch/proxy_server/CMakeFiles/light_switch_proxy_server_nrf52832_xxAA_s132_6.0.0.dir/C_/b/nRF5_SDK_15.0.0_a53641a/components/libraries/util/app_error.c.obj
 .bss.m_error_data.7863
                0x00000000       0x20 examples/light_switch/proxy_server/CMakeFiles/light_switch_proxy_server_nrf52832_xxAA_s132_6.0.0.dir/C_/b/nRF5_SDK_15.0.0_a53641a/components/libraries/util/app_error.c.obj
 .text          0x00000000        0x0 examples/light_switch/proxy_server/CMakeFiles/light_switch_proxy_server_nrf52832_xxAA_s132_6.0.0.dir/C_/b/nRF5_SDK_15.0.0_a53641a/components/libraries/util/app_error_handler_gcc.c.obj
 .data          0x00000000        0x0 examples/light_switch/proxy_server/CMakeFiles/light_switch_proxy_server_nrf52832_xxAA_s132_6.0.0.dir/C_/b/nRF5_SDK_15.0.0_a53641a/components/libraries/util/app_error_handler_gcc.c.obj
 .bss           0x00000000        0x0 examples/light_switch/proxy_server/CMakeFiles/light_switch_proxy_server_nrf52832_xxAA_s132_6.0.0.dir/C_/b/nRF5_SDK_15.0.0_a53641a/components/libraries/util/app_error_handler_gcc.c.obj
 .text          0x00000000        0x0 external/rtt/librtt_nrf52832_xxAA.a(SEGGER_RTT.c.obj)
 .data          0x00000000        0x0 external/rtt/librtt_nrf52832_xxAA.a(SEGGER_RTT.c.obj)
 .bss           0x00000000        0x0 external/rtt/librtt_nrf52832_xxAA.a(SEGGER_RTT.c.obj)
 .text._PostTerminalSwitch.constprop.0
                0x00000000       0x28 external/rtt/librtt_nrf52832_xxAA.a(SEGGER_RTT.c.obj)
 .text.SEGGER_RTT_WriteSkipNoLock
                0x00000000       0xb4 external/rtt/librtt_nrf52832_xxAA.a(SEGGER_RTT.c.obj)
 .text.SEGGER_RTT_WriteString
                0x00000000       0x1a external/rtt/librtt_nrf52832_xxAA.a(SEGGER_RTT.c.obj)
 .text.SEGGER_RTT_WaitKey
                0x00000000        0xc external/rtt/librtt_nrf52832_xxAA.a(SEGGER_RTT.c.obj)
 .text.SEGGER_RTT_HasKey
                0x00000000       0x1c external/rtt/librtt_nrf52832_xxAA.a(SEGGER_RTT.c.obj)
 .text.SEGGER_RTT_HasData
                0x00000000       0x14 external/rtt/librtt_nrf52832_xxAA.a(SEGGER_RTT.c.obj)
 .text.SEGGER_RTT_AllocDownBuffer
                0x00000000       0x68 external/rtt/librtt_nrf52832_xxAA.a(SEGGER_RTT.c.obj)
 .text.SEGGER_RTT_AllocUpBuffer
                0x00000000       0x70 external/rtt/librtt_nrf52832_xxAA.a(SEGGER_RTT.c.obj)
 .text.SEGGER_RTT_ConfigUpBuffer
                0x00000000       0x68 external/rtt/librtt_nrf52832_xxAA.a(SEGGER_RTT.c.obj)
 .text.SEGGER_RTT_ConfigDownBuffer
                0x00000000       0x60 external/rtt/librtt_nrf52832_xxAA.a(SEGGER_RTT.c.obj)
 .text.SEGGER_RTT_SetNameUpBuffer
                0x00000000       0x3c external/rtt/librtt_nrf52832_xxAA.a(SEGGER_RTT.c.obj)
 .text.SEGGER_RTT_SetNameDownBuffer
                0x00000000       0x3c external/rtt/librtt_nrf52832_xxAA.a(SEGGER_RTT.c.obj)
 .text.SEGGER_RTT_Init
                0x00000000       0x10 external/rtt/librtt_nrf52832_xxAA.a(SEGGER_RTT.c.obj)
 .text.SEGGER_RTT_SetTerminal
                0x00000000       0x84 external/rtt/librtt_nrf52832_xxAA.a(SEGGER_RTT.c.obj)
 .text.SEGGER_RTT_TerminalOut
                0x00000000       0xa0 external/rtt/librtt_nrf52832_xxAA.a(SEGGER_RTT.c.obj)
 .bss._ActiveTerminal
                0x00000000        0x1 external/rtt/librtt_nrf52832_xxAA.a(SEGGER_RTT.c.obj)
 .rodata._aTerminalId
                0x00000000       0x10 external/rtt/librtt_nrf52832_xxAA.a(SEGGER_RTT.c.obj)
 .text          0x00000000        0x0 external/rtt/librtt_nrf52832_xxAA.a(SEGGER_RTT_printf.c.obj)
 .data          0x00000000        0x0 external/rtt/librtt_nrf52832_xxAA.a(SEGGER_RTT_printf.c.obj)
 .bss           0x00000000        0x0 external/rtt/librtt_nrf52832_xxAA.a(SEGGER_RTT_printf.c.obj)
 .text          0x00000000        0x0 external/micro-ecc/libuECC_nrf52832_xxAA.a(uECC.c.obj)
 .data          0x00000000        0x0 external/micro-ecc/libuECC_nrf52832_xxAA.a(uECC.c.obj)
 .bss           0x00000000        0x0 external/micro-ecc/libuECC_nrf52832_xxAA.a(uECC.c.obj)
 .text.uECC_vli_modMult
                0x00000000      0x148 external/micro-ecc/libuECC_nrf52832_xxAA.a(uECC.c.obj)
 .text.HMAC_init
                0x00000000       0x46 external/micro-ecc/libuECC_nrf52832_xxAA.a(uECC.c.obj)
 .text.HMAC_update
                0x00000000        0x4 external/micro-ecc/libuECC_nrf52832_xxAA.a(uECC.c.obj)
 .text.HMAC_finish
                0x00000000       0x62 external/micro-ecc/libuECC_nrf52832_xxAA.a(uECC.c.obj)
 .text.update_V
                0x00000000       0x24 external/micro-ecc/libuECC_nrf52832_xxAA.a(uECC.c.obj)
 .text.bits2int
                0x00000000       0x88 external/micro-ecc/libuECC_nrf52832_xxAA.a(uECC.c.obj)
 .text.uECC_sign_with_k
                0x00000000      0x17c external/micro-ecc/libuECC_nrf52832_xxAA.a(uECC.c.obj)
 .text.uECC_set_rng
                0x00000000        0xc external/micro-ecc/libuECC_nrf52832_xxAA.a(uECC.c.obj)
 .text.uECC_get_rng
                0x00000000        0xc external/micro-ecc/libuECC_nrf52832_xxAA.a(uECC.c.obj)
 .text.uECC_curve_private_key_size
                0x00000000        0xe external/micro-ecc/libuECC_nrf52832_xxAA.a(uECC.c.obj)
 .text.uECC_curve_public_key_size
                0x00000000        0x8 external/micro-ecc/libuECC_nrf52832_xxAA.a(uECC.c.obj)
 .text.uECC_compute_public_key
                0x00000000       0x7e external/micro-ecc/libuECC_nrf52832_xxAA.a(uECC.c.obj)
 .text.uECC_sign
                0x00000000       0x56 external/micro-ecc/libuECC_nrf52832_xxAA.a(uECC.c.obj)
 .text.uECC_sign_deterministic
                0x00000000      0x192 external/micro-ecc/libuECC_nrf52832_xxAA.a(uECC.c.obj)
 .text.uECC_verify
                0x00000000      0x2f0 external/micro-ecc/libuECC_nrf52832_xxAA.a(uECC.c.obj)
 .data          0x00000000        0x0 c:/mesh/arm_gcc/bin/../lib/gcc/arm-none-eabi/6.3.1/thumb/v7e-m/fpv4-sp/hard\libgcc.a(_aeabi_uldivmod.o)
 .bss           0x00000000        0x0 c:/mesh/arm_gcc/bin/../lib/gcc/arm-none-eabi/6.3.1/thumb/v7e-m/fpv4-sp/hard\libgcc.a(_aeabi_uldivmod.o)
 .data          0x00000000        0x0 c:/mesh/arm_gcc/bin/../lib/gcc/arm-none-eabi/6.3.1/thumb/v7e-m/fpv4-sp/hard\libgcc.a(_udivmoddi4.o)
 .bss           0x00000000        0x0 c:/mesh/arm_gcc/bin/../lib/gcc/arm-none-eabi/6.3.1/thumb/v7e-m/fpv4-sp/hard\libgcc.a(_udivmoddi4.o)
 .ARM.extab     0x00000000        0x0 c:/mesh/arm_gcc/bin/../lib/gcc/arm-none-eabi/6.3.1/thumb/v7e-m/fpv4-sp/hard\libgcc.a(_udivmoddi4.o)
 .data          0x00000000        0x0 c:/mesh/arm_gcc/bin/../lib/gcc/arm-none-eabi/6.3.1/thumb/v7e-m/fpv4-sp/hard\libgcc.a(_dvmd_tls.o)
 .bss           0x00000000        0x0 c:/mesh/arm_gcc/bin/../lib/gcc/arm-none-eabi/6.3.1/thumb/v7e-m/fpv4-sp/hard\libgcc.a(_dvmd_tls.o)
 .text          0x00000000        0x0 c:/mesh/arm_gcc/bin/../lib/gcc/arm-none-eabi/6.3.1/../../../../arm-none-eabi/lib/thumb/v7e-m/fpv4-sp/hard\libg_nano.a(lib_a-exit.o)
 .data          0x00000000        0x0 c:/mesh/arm_gcc/bin/../lib/gcc/arm-none-eabi/6.3.1/../../../../arm-none-eabi/lib/thumb/v7e-m/fpv4-sp/hard\libg_nano.a(lib_a-exit.o)
 .bss           0x00000000        0x0 c:/mesh/arm_gcc/bin/../lib/gcc/arm-none-eabi/6.3.1/../../../../arm-none-eabi/lib/thumb/v7e-m/fpv4-sp/hard\libg_nano.a(lib_a-exit.o)
 .text          0x00000000        0x0 c:/mesh/arm_gcc/bin/../lib/gcc/arm-none-eabi/6.3.1/../../../../arm-none-eabi/lib/thumb/v7e-m/fpv4-sp/hard\libg_nano.a(lib_a-impure.o)
 .data          0x00000000        0x0 c:/mesh/arm_gcc/bin/../lib/gcc/arm-none-eabi/6.3.1/../../../../arm-none-eabi/lib/thumb/v7e-m/fpv4-sp/hard\libg_nano.a(lib_a-impure.o)
 .bss           0x00000000        0x0 c:/mesh/arm_gcc/bin/../lib/gcc/arm-none-eabi/6.3.1/../../../../arm-none-eabi/lib/thumb/v7e-m/fpv4-sp/hard\libg_nano.a(lib_a-impure.o)
 .text          0x00000000        0x0 c:/mesh/arm_gcc/bin/../lib/gcc/arm-none-eabi/6.3.1/../../../../arm-none-eabi/lib/thumb/v7e-m/fpv4-sp/hard\libg_nano.a(lib_a-init.o)
 .data          0x00000000        0x0 c:/mesh/arm_gcc/bin/../lib/gcc/arm-none-eabi/6.3.1/../../../../arm-none-eabi/lib/thumb/v7e-m/fpv4-sp/hard\libg_nano.a(lib_a-init.o)
 .bss           0x00000000        0x0 c:/mesh/arm_gcc/bin/../lib/gcc/arm-none-eabi/6.3.1/../../../../arm-none-eabi/lib/thumb/v7e-m/fpv4-sp/hard\libg_nano.a(lib_a-init.o)
 .text          0x00000000        0x0 c:/mesh/arm_gcc/bin/../lib/gcc/arm-none-eabi/6.3.1/../../../../arm-none-eabi/lib/thumb/v7e-m/fpv4-sp/hard\libg_nano.a(lib_a-malloc.o)
 .data          0x00000000        0x0 c:/mesh/arm_gcc/bin/../lib/gcc/arm-none-eabi/6.3.1/../../../../arm-none-eabi/lib/thumb/v7e-m/fpv4-sp/hard\libg_nano.a(lib_a-malloc.o)
 .bss           0x00000000        0x0 c:/mesh/arm_gcc/bin/../lib/gcc/arm-none-eabi/6.3.1/../../../../arm-none-eabi/lib/thumb/v7e-m/fpv4-sp/hard\libg_nano.a(lib_a-malloc.o)
 .text          0x00000000        0x0 c:/mesh/arm_gcc/bin/../lib/gcc/arm-none-eabi/6.3.1/../../../../arm-none-eabi/lib/thumb/v7e-m/fpv4-sp/hard\libg_nano.a(lib_a-memcmp.o)
 .data          0x00000000        0x0 c:/mesh/arm_gcc/bin/../lib/gcc/arm-none-eabi/6.3.1/../../../../arm-none-eabi/lib/thumb/v7e-m/fpv4-sp/hard\libg_nano.a(lib_a-memcmp.o)
 .bss           0x00000000        0x0 c:/mesh/arm_gcc/bin/../lib/gcc/arm-none-eabi/6.3.1/../../../../arm-none-eabi/lib/thumb/v7e-m/fpv4-sp/hard\libg_nano.a(lib_a-memcmp.o)
 .text          0x00000000        0x0 c:/mesh/arm_gcc/bin/../lib/gcc/arm-none-eabi/6.3.1/../../../../arm-none-eabi/lib/thumb/v7e-m/fpv4-sp/hard\libg_nano.a(lib_a-memcpy-stub.o)
 .data          0x00000000        0x0 c:/mesh/arm_gcc/bin/../lib/gcc/arm-none-eabi/6.3.1/../../../../arm-none-eabi/lib/thumb/v7e-m/fpv4-sp/hard\libg_nano.a(lib_a-memcpy-stub.o)
 .bss           0x00000000        0x0 c:/mesh/arm_gcc/bin/../lib/gcc/arm-none-eabi/6.3.1/../../../../arm-none-eabi/lib/thumb/v7e-m/fpv4-sp/hard\libg_nano.a(lib_a-memcpy-stub.o)
 .text          0x00000000        0x0 c:/mesh/arm_gcc/bin/../lib/gcc/arm-none-eabi/6.3.1/../../../../arm-none-eabi/lib/thumb/v7e-m/fpv4-sp/hard\libg_nano.a(lib_a-memset.o)
 .data          0x00000000        0x0 c:/mesh/arm_gcc/bin/../lib/gcc/arm-none-eabi/6.3.1/../../../../arm-none-eabi/lib/thumb/v7e-m/fpv4-sp/hard\libg_nano.a(lib_a-memset.o)
 .bss           0x00000000        0x0 c:/mesh/arm_gcc/bin/../lib/gcc/arm-none-eabi/6.3.1/../../../../arm-none-eabi/lib/thumb/v7e-m/fpv4-sp/hard\libg_nano.a(lib_a-memset.o)
 .text          0x00000000        0x0 c:/mesh/arm_gcc/bin/../lib/gcc/arm-none-eabi/6.3.1/../../../../arm-none-eabi/lib/thumb/v7e-m/fpv4-sp/hard\libg_nano.a(lib_a-nano-freer.o)
 .data          0x00000000        0x0 c:/mesh/arm_gcc/bin/../lib/gcc/arm-none-eabi/6.3.1/../../../../arm-none-eabi/lib/thumb/v7e-m/fpv4-sp/hard\libg_nano.a(lib_a-nano-freer.o)
 .bss           0x00000000        0x0 c:/mesh/arm_gcc/bin/../lib/gcc/arm-none-eabi/6.3.1/../../../../arm-none-eabi/lib/thumb/v7e-m/fpv4-sp/hard\libg_nano.a(lib_a-nano-freer.o)
 .text          0x00000000        0x0 c:/mesh/arm_gcc/bin/../lib/gcc/arm-none-eabi/6.3.1/../../../../arm-none-eabi/lib/thumb/v7e-m/fpv4-sp/hard\libg_nano.a(lib_a-nano-mallocr.o)
 .data          0x00000000        0x0 c:/mesh/arm_gcc/bin/../lib/gcc/arm-none-eabi/6.3.1/../../../../arm-none-eabi/lib/thumb/v7e-m/fpv4-sp/hard\libg_nano.a(lib_a-nano-mallocr.o)
 .bss           0x00000000        0x0 c:/mesh/arm_gcc/bin/../lib/gcc/arm-none-eabi/6.3.1/../../../../arm-none-eabi/lib/thumb/v7e-m/fpv4-sp/hard\libg_nano.a(lib_a-nano-mallocr.o)
 .text          0x00000000        0x0 c:/mesh/arm_gcc/bin/../lib/gcc/arm-none-eabi/6.3.1/../../../../arm-none-eabi/lib/thumb/v7e-m/fpv4-sp/hard\libg_nano.a(lib_a-sbrkr.o)
 .data          0x00000000        0x0 c:/mesh/arm_gcc/bin/../lib/gcc/arm-none-eabi/6.3.1/../../../../arm-none-eabi/lib/thumb/v7e-m/fpv4-sp/hard\libg_nano.a(lib_a-sbrkr.o)
 .bss           0x00000000        0x0 c:/mesh/arm_gcc/bin/../lib/gcc/arm-none-eabi/6.3.1/../../../../arm-none-eabi/lib/thumb/v7e-m/fpv4-sp/hard\libg_nano.a(lib_a-sbrkr.o)
 .text          0x00000000        0x0 c:/mesh/arm_gcc/bin/../lib/gcc/arm-none-eabi/6.3.1/../../../../arm-none-eabi/lib/thumb/v7e-m/fpv4-sp/hard\libg_nano.a(lib_a-strcpy.o)
 .data          0x00000000        0x0 c:/mesh/arm_gcc/bin/../lib/gcc/arm-none-eabi/6.3.1/../../../../arm-none-eabi/lib/thumb/v7e-m/fpv4-sp/hard\libg_nano.a(lib_a-strcpy.o)
 .bss           0x00000000        0x0 c:/mesh/arm_gcc/bin/../lib/gcc/arm-none-eabi/6.3.1/../../../../arm-none-eabi/lib/thumb/v7e-m/fpv4-sp/hard\libg_nano.a(lib_a-strcpy.o)
 .data          0x00000000        0x0 c:/mesh/arm_gcc/bin/../lib/gcc/arm-none-eabi/6.3.1/../../../../arm-none-eabi/lib/thumb/v7e-m/fpv4-sp/hard\libg_nano.a(lib_a-strlen.o)
 .bss           0x00000000        0x0 c:/mesh/arm_gcc/bin/../lib/gcc/arm-none-eabi/6.3.1/../../../../arm-none-eabi/lib/thumb/v7e-m/fpv4-sp/hard\libg_nano.a(lib_a-strlen.o)
 .text          0x00000000        0x0 c:/mesh/arm_gcc/bin/../lib/gcc/arm-none-eabi/6.3.1/../../../../arm-none-eabi/lib/thumb/v7e-m/fpv4-sp/hard\libg_nano.a(lib_a-strrchr.o)
 .data          0x00000000        0x0 c:/mesh/arm_gcc/bin/../lib/gcc/arm-none-eabi/6.3.1/../../../../arm-none-eabi/lib/thumb/v7e-m/fpv4-sp/hard\libg_nano.a(lib_a-strrchr.o)
 .bss           0x00000000        0x0 c:/mesh/arm_gcc/bin/../lib/gcc/arm-none-eabi/6.3.1/../../../../arm-none-eabi/lib/thumb/v7e-m/fpv4-sp/hard\libg_nano.a(lib_a-strrchr.o)
 .text          0x00000000        0x0 c:/mesh/arm_gcc/bin/../lib/gcc/arm-none-eabi/6.3.1/../../../../arm-none-eabi/lib/thumb/v7e-m/fpv4-sp/hard\libg_nano.a(lib_a-mlock.o)
 .data          0x00000000        0x0 c:/mesh/arm_gcc/bin/../lib/gcc/arm-none-eabi/6.3.1/../../../../arm-none-eabi/lib/thumb/v7e-m/fpv4-sp/hard\libg_nano.a(lib_a-mlock.o)
 .bss           0x00000000        0x0 c:/mesh/arm_gcc/bin/../lib/gcc/arm-none-eabi/6.3.1/../../../../arm-none-eabi/lib/thumb/v7e-m/fpv4-sp/hard\libg_nano.a(lib_a-mlock.o)
 .text          0x00000000        0x0 c:/mesh/arm_gcc/bin/../lib/gcc/arm-none-eabi/6.3.1/../../../../arm-none-eabi/lib/thumb/v7e-m/fpv4-sp/hard\libg_nano.a(lib_a-reent.o)
 .data          0x00000000        0x0 c:/mesh/arm_gcc/bin/../lib/gcc/arm-none-eabi/6.3.1/../../../../arm-none-eabi/lib/thumb/v7e-m/fpv4-sp/hard\libg_nano.a(lib_a-reent.o)
 .bss           0x00000000        0x0 c:/mesh/arm_gcc/bin/../lib/gcc/arm-none-eabi/6.3.1/../../../../arm-none-eabi/lib/thumb/v7e-m/fpv4-sp/hard\libg_nano.a(lib_a-reent.o)
 .text.cleanup_glue
                0x00000000       0x1a c:/mesh/arm_gcc/bin/../lib/gcc/arm-none-eabi/6.3.1/../../../../arm-none-eabi/lib/thumb/v7e-m/fpv4-sp/hard\libg_nano.a(lib_a-reent.o)
 .text._reclaim_reent
                0x00000000       0xb8 c:/mesh/arm_gcc/bin/../lib/gcc/arm-none-eabi/6.3.1/../../../../arm-none-eabi/lib/thumb/v7e-m/fpv4-sp/hard\libg_nano.a(lib_a-reent.o)
 .text          0x00000000        0x0 c:/mesh/arm_gcc/bin/../lib/gcc/arm-none-eabi/6.3.1/../../../../arm-none-eabi/lib/thumb/v7e-m/fpv4-sp/hard\libg_nano.a(lib_a-strchr.o)
 .data          0x00000000        0x0 c:/mesh/arm_gcc/bin/../lib/gcc/arm-none-eabi/6.3.1/../../../../arm-none-eabi/lib/thumb/v7e-m/fpv4-sp/hard\libg_nano.a(lib_a-strchr.o)
 .bss           0x00000000        0x0 c:/mesh/arm_gcc/bin/../lib/gcc/arm-none-eabi/6.3.1/../../../../arm-none-eabi/lib/thumb/v7e-m/fpv4-sp/hard\libg_nano.a(lib_a-strchr.o)
 .text          0x00000000        0x0 c:/mesh/arm_gcc/bin/../lib/gcc/arm-none-eabi/6.3.1/thumb/v7e-m/fpv4-sp/hard/crtend.o
 .data          0x00000000        0x0 c:/mesh/arm_gcc/bin/../lib/gcc/arm-none-eabi/6.3.1/thumb/v7e-m/fpv4-sp/hard/crtend.o
 .bss           0x00000000        0x0 c:/mesh/arm_gcc/bin/../lib/gcc/arm-none-eabi/6.3.1/thumb/v7e-m/fpv4-sp/hard/crtend.o
 .text          0x00000000        0x0 c:/mesh/arm_gcc/bin/../lib/gcc/arm-none-eabi/6.3.1/thumb/v7e-m/fpv4-sp/hard/crtn.o
 .data          0x00000000        0x0 c:/mesh/arm_gcc/bin/../lib/gcc/arm-none-eabi/6.3.1/thumb/v7e-m/fpv4-sp/hard/crtn.o
 .bss           0x00000000        0x0 c:/mesh/arm_gcc/bin/../lib/gcc/arm-none-eabi/6.3.1/thumb/v7e-m/fpv4-sp/hard/crtn.o
 .text          0x00000000        0x0 c:/mesh/arm_gcc/bin/../lib/gcc/arm-none-eabi/6.3.1/../../../../arm-none-eabi/lib/thumb/v7e-m/fpv4-sp/hard\libnosys.a(sbrk.o)
 .data          0x00000000        0x0 c:/mesh/arm_gcc/bin/../lib/gcc/arm-none-eabi/6.3.1/../../../../arm-none-eabi/lib/thumb/v7e-m/fpv4-sp/hard\libnosys.a(sbrk.o)
 .bss           0x00000000        0x0 c:/mesh/arm_gcc/bin/../lib/gcc/arm-none-eabi/6.3.1/../../../../arm-none-eabi/lib/thumb/v7e-m/fpv4-sp/hard\libnosys.a(sbrk.o)
 .text          0x00000000        0x0 c:/mesh/arm_gcc/bin/../lib/gcc/arm-none-eabi/6.3.1/../../../../arm-none-eabi/lib/thumb/v7e-m/fpv4-sp/hard\libnosys.a(_exit.o)
 .data          0x00000000        0x0 c:/mesh/arm_gcc/bin/../lib/gcc/arm-none-eabi/6.3.1/../../../../arm-none-eabi/lib/thumb/v7e-m/fpv4-sp/hard\libnosys.a(_exit.o)
 .bss           0x00000000        0x0 c:/mesh/arm_gcc/bin/../lib/gcc/arm-none-eabi/6.3.1/../../../../arm-none-eabi/lib/thumb/v7e-m/fpv4-sp/hard\libnosys.a(_exit.o)

Memory Configuration

Name             Origin             Length             Attributes
FLASH            0x00026000         0x00051000         xr
RAM              0x200032c8         0x0000ca38         xrw
*default*        0x00000000         0xffffffff

Linker script and memory map


.text           0x00026000    0x15d2c
 *(.isr_vector)
 .isr_vector    0x00026000      0x200 examples/light_switch/proxy_server/CMakeFiles/light_switch_proxy_server_nrf52832_xxAA_s132_6.0.0.dir/C_/b/nRF5_SDK_15.0.0_a53641a/modules/nrfx/mdk/gcc_startup_nrf52.S.obj
                0x00026000                __isr_vector
 *(.text*)
 .text          0x00026200       0x6c c:/mesh/arm_gcc/bin/../lib/gcc/arm-none-eabi/6.3.1/thumb/v7e-m/fpv4-sp/hard/crtbegin.o
 .text          0x0002626c       0x74 c:/mesh/arm_gcc/bin/../lib/gcc/arm-none-eabi/6.3.1/../../../../arm-none-eabi/lib/thumb/v7e-m/fpv4-sp/hard/crt0.o
                0x0002626c                _start
                0x0002626c                _mainCRTStartup
 .text.sd_app_evt_wait
                0x000262e0        0x4 examples/light_switch/proxy_server/CMakeFiles/light_switch_proxy_server_nrf52832_xxAA_s132_6.0.0.dir/src/main.c.obj
 .text.sd_ble_gap_ppcp_set
                0x000262e4        0x4 examples/light_switch/proxy_server/CMakeFiles/light_switch_proxy_server_nrf52832_xxAA_s132_6.0.0.dir/src/main.c.obj
 .text.sd_ble_gap_device_name_set
                0x000262e8        0x4 examples/light_switch/proxy_server/CMakeFiles/light_switch_proxy_server_nrf52832_xxAA_s132_6.0.0.dir/src/main.c.obj
 .text.on_sd_evt
                0x000262ec        0x4 examples/light_switch/proxy_server/CMakeFiles/light_switch_proxy_server_nrf52832_xxAA_s132_6.0.0.dir/src/main.c.obj
 .text.provisioning_complete_cb
                0x000262f0       0xd0 examples/light_switch/proxy_server/CMakeFiles/light_switch_proxy_server_nrf52832_xxAA_s132_6.0.0.dir/src/main.c.obj
 .text.on_off_server_get_cb
                0x000263c0        0x6 examples/light_switch/proxy_server/CMakeFiles/light_switch_proxy_server_nrf52832_xxAA_s132_6.0.0.dir/src/main.c.obj
 *fill*         0x000263c6        0x2 
 .text.on_off_server_set_cb
                0x000263c8       0x70 examples/light_switch/proxy_server/CMakeFiles/light_switch_proxy_server_nrf52832_xxAA_s132_6.0.0.dir/src/main.c.obj
 .text.node_reset
                0x00026438       0x74 examples/light_switch/proxy_server/CMakeFiles/light_switch_proxy_server_nrf52832_xxAA_s132_6.0.0.dir/src/main.c.obj
 .text.button_event_handler
                0x000264ac       0xf0 examples/light_switch/proxy_server/CMakeFiles/light_switch_proxy_server_nrf52832_xxAA_s132_6.0.0.dir/src/main.c.obj
 .text.app_rtt_input_handler
                0x0002659c        0xc examples/light_switch/proxy_server/CMakeFiles/light_switch_proxy_server_nrf52832_xxAA_s132_6.0.0.dir/src/main.c.obj
 .text.config_server_evt_cb
                0x000265a8        0xc examples/light_switch/proxy_server/CMakeFiles/light_switch_proxy_server_nrf52832_xxAA_s132_6.0.0.dir/src/main.c.obj
 .text.models_init_cb
                0x000265b4       0xb4 examples/light_switch/proxy_server/CMakeFiles/light_switch_proxy_server_nrf52832_xxAA_s132_6.0.0.dir/src/main.c.obj
 .text.startup.main
                0x00026668      0x2bc examples/light_switch/proxy_server/CMakeFiles/light_switch_proxy_server_nrf52832_xxAA_s132_6.0.0.dir/src/main.c.obj
                0x00026668                main
 .text.mesh_evt_handler
                0x00026924        0xe examples/light_switch/proxy_server/CMakeFiles/light_switch_proxy_server_nrf52832_xxAA_s132_6.0.0.dir/__/__/__/mesh/stack/src/mesh_stack.c.obj
 .text.mesh_stack_provisioning_data_store
                0x00026932       0x6c examples/light_switch/proxy_server/CMakeFiles/light_switch_proxy_server_nrf52832_xxAA_s132_6.0.0.dir/__/__/__/mesh/stack/src/mesh_stack.c.obj
                0x00026932                mesh_stack_provisioning_data_store
 .text.mesh_stack_config_clear
                0x0002699e       0x12 examples/light_switch/proxy_server/CMakeFiles/light_switch_proxy_server_nrf52832_xxAA_s132_6.0.0.dir/__/__/__/mesh/stack/src/mesh_stack.c.obj
                0x0002699e                mesh_stack_config_clear
 .text.mesh_stack_is_device_provisioned
                0x000269b0       0x18 examples/light_switch/proxy_server/CMakeFiles/light_switch_proxy_server_nrf52832_xxAA_s132_6.0.0.dir/__/__/__/mesh/stack/src/mesh_stack.c.obj
                0x000269b0                mesh_stack_is_device_provisioned
 .text.mesh_stack_init
                0x000269c8       0x80 examples/light_switch/proxy_server/CMakeFiles/light_switch_proxy_server_nrf52832_xxAA_s132_6.0.0.dir/__/__/__/mesh/stack/src/mesh_stack.c.obj
                0x000269c8                mesh_stack_init
 .text.mesh_stack_start
                0x00026a48       0x14 examples/light_switch/proxy_server/CMakeFiles/light_switch_proxy_server_nrf52832_xxAA_s132_6.0.0.dir/__/__/__/mesh/stack/src/mesh_stack.c.obj
                0x00026a48                mesh_stack_start
 .text.mesh_stack_device_reset
                0x00026a5c       0x20 examples/light_switch/proxy_server/CMakeFiles/light_switch_proxy_server_nrf52832_xxAA_s132_6.0.0.dir/__/__/__/mesh/stack/src/mesh_stack.c.obj
                0x00026a5c                mesh_stack_device_reset
 .text.provisionee_start
                0x00026a7c       0x18 examples/light_switch/proxy_server/CMakeFiles/light_switch_proxy_server_nrf52832_xxAA_s132_6.0.0.dir/__/__/common/src/mesh_provisionee.c.obj
 .text.sd_state_evt_handler
                0x00026a94       0x94 examples/light_switch/proxy_server/CMakeFiles/light_switch_proxy_server_nrf52832_xxAA_s132_6.0.0.dir/__/__/common/src/mesh_provisionee.c.obj
 .text.prov_evt_handler
                0x00026b28       0x78 examples/light_switch/proxy_server/CMakeFiles/light_switch_proxy_server_nrf52832_xxAA_s132_6.0.0.dir/__/__/common/src/mesh_provisionee.c.obj
 .text.mesh_provisionee_prov_start
                0x00026ba0       0x94 examples/light_switch/proxy_server/CMakeFiles/light_switch_proxy_server_nrf52832_xxAA_s132_6.0.0.dir/__/__/common/src/mesh_provisionee.c.obj
                0x00026ba0                mesh_provisionee_prov_start
 .text.TIMER2_IRQHandler
                0x00026c34       0x30 examples/light_switch/proxy_server/CMakeFiles/light_switch_proxy_server_nrf52832_xxAA_s132_6.0.0.dir/__/__/common/src/rtt_input.c.obj
                0x00026c34                TIMER2_IRQHandler
 .text.rtt_input_enable
                0x00026c64       0x5c examples/light_switch/proxy_server/CMakeFiles/light_switch_proxy_server_nrf52832_xxAA_s132_6.0.0.dir/__/__/common/src/rtt_input.c.obj
                0x00026c64                rtt_input_enable
 .text.hal_led_pin_get
                0x00026cc0       0x18 examples/light_switch/proxy_server/CMakeFiles/light_switch_proxy_server_nrf52832_xxAA_s132_6.0.0.dir/__/__/common/src/simple_hal.c.obj
                0x00026cc0                hal_led_pin_get
 .text.hal_led_pin_set
                0x00026cd8       0x16 examples/light_switch/proxy_server/CMakeFiles/light_switch_proxy_server_nrf52832_xxAA_s132_6.0.0.dir/__/__/common/src/simple_hal.c.obj
                0x00026cd8                hal_led_pin_set
 .text.hal_led_mask_set
                0x00026cee       0x12 examples/light_switch/proxy_server/CMakeFiles/light_switch_proxy_server_nrf52832_xxAA_s132_6.0.0.dir/__/__/common/src/simple_hal.c.obj
                0x00026cee                hal_led_mask_set
 .text.hal_led_blink_ms
                0x00026d00       0x44 examples/light_switch/proxy_server/CMakeFiles/light_switch_proxy_server_nrf52832_xxAA_s132_6.0.0.dir/__/__/common/src/simple_hal.c.obj
                0x00026d00                hal_led_blink_ms
 .text.hal_leds_init
                0x00026d44       0x38 examples/light_switch/proxy_server/CMakeFiles/light_switch_proxy_server_nrf52832_xxAA_s132_6.0.0.dir/__/__/common/src/simple_hal.c.obj
                0x00026d44                hal_leds_init
 .text.hal_buttons_init
                0x00026d7c       0x50 examples/light_switch/proxy_server/CMakeFiles/light_switch_proxy_server_nrf52832_xxAA_s132_6.0.0.dir/__/__/common/src/simple_hal.c.obj
                0x00026d7c                hal_buttons_init
 .text.GPIOTE_IRQHandler
                0x00026dcc       0x60 examples/light_switch/proxy_server/CMakeFiles/light_switch_proxy_server_nrf52832_xxAA_s132_6.0.0.dir/__/__/common/src/simple_hal.c.obj
                0x00026dcc                GPIOTE_IRQHandler
 .text.mesh_app_uuid_gen
                0x00026e2c       0x30 examples/light_switch/proxy_server/CMakeFiles/light_switch_proxy_server_nrf52832_xxAA_s132_6.0.0.dir/__/__/common/src/mesh_app_utils.c.obj
                0x00026e2c                mesh_app_uuid_gen
 .text.sd_ble_gap_adv_set_configure
                0x00026e5c        0x4 examples/light_switch/proxy_server/CMakeFiles/light_switch_proxy_server_nrf52832_xxAA_s132_6.0.0.dir/__/__/common/src/mesh_adv.c.obj
 .text.sd_ble_gap_adv_start
                0x00026e60        0x4 examples/light_switch/proxy_server/CMakeFiles/light_switch_proxy_server_nrf52832_xxAA_s132_6.0.0.dir/__/__/common/src/mesh_adv.c.obj
 .text.sd_ble_gap_adv_stop
                0x00026e64        0x4 examples/light_switch/proxy_server/CMakeFiles/light_switch_proxy_server_nrf52832_xxAA_s132_6.0.0.dir/__/__/common/src/mesh_adv.c.obj
 .text.mesh_adv_data_set
                0x00026e68       0xdc examples/light_switch/proxy_server/CMakeFiles/light_switch_proxy_server_nrf52832_xxAA_s132_6.0.0.dir/__/__/common/src/mesh_adv.c.obj
                0x00026e68                mesh_adv_data_set
 .text.mesh_adv_params_set
                0x00026f44       0x14 examples/light_switch/proxy_server/CMakeFiles/light_switch_proxy_server_nrf52832_xxAA_s132_6.0.0.dir/__/__/common/src/mesh_adv.c.obj
                0x00026f44                mesh_adv_params_set
 .text.mesh_adv_start
                0x00026f58       0x1c examples/light_switch/proxy_server/CMakeFiles/light_switch_proxy_server_nrf52832_xxAA_s132_6.0.0.dir/__/__/common/src/mesh_adv.c.obj
                0x00026f58                mesh_adv_start
 .text.mesh_adv_stop
                0x00026f74       0x1c examples/light_switch/proxy_server/CMakeFiles/light_switch_proxy_server_nrf52832_xxAA_s132_6.0.0.dir/__/__/common/src/mesh_adv.c.obj
                0x00026f74                mesh_adv_stop
 .text.pb_gatt_fsm_action
                0x00026f90       0x10 examples/light_switch/proxy_server/CMakeFiles/light_switch_proxy_server_nrf52832_xxAA_s132_6.0.0.dir/__/__/__/mesh/prov/src/nrf_mesh_prov_bearer_gatt.c.obj
 .text.pb_gatt_fsm_guard
                0x00026fa0        0xa examples/light_switch/proxy_server/CMakeFiles/light_switch_proxy_server_nrf52832_xxAA_s132_6.0.0.dir/__/__/__/mesh/prov/src/nrf_mesh_prov_bearer_gatt.c.obj
 .text.a_link_open_notify
                0x00026faa        0xa examples/light_switch/proxy_server/CMakeFiles/light_switch_proxy_server_nrf52832_xxAA_s132_6.0.0.dir/__/__/__/mesh/prov/src/nrf_mesh_prov_bearer_gatt.c.obj
 .text.a_pdu_ack
                0x00026fb4        0xa examples/light_switch/proxy_server/CMakeFiles/light_switch_proxy_server_nrf52832_xxAA_s132_6.0.0.dir/__/__/__/mesh/prov/src/nrf_mesh_prov_bearer_gatt.c.obj
 .text.link_evt_process
                0x00026fbe        0xa examples/light_switch/proxy_server/CMakeFiles/light_switch_proxy_server_nrf52832_xxAA_s132_6.0.0.dir/__/__/__/mesh/prov/src/nrf_mesh_prov_bearer_gatt.c.obj
 .text.link_timer_cb
                0x00026fc8       0x1e examples/light_switch/proxy_server/CMakeFiles/light_switch_proxy_server_nrf52832_xxAA_s132_6.0.0.dir/__/__/__/mesh/prov/src/nrf_mesh_prov_bearer_gatt.c.obj
 .text.tx_cb    0x00026fe6       0x2c examples/light_switch/proxy_server/CMakeFiles/light_switch_proxy_server_nrf52832_xxAA_s132_6.0.0.dir/__/__/__/mesh/prov/src/nrf_mesh_prov_bearer_gatt.c.obj
 .text.mesh_gatt_event_handler
                0x00027012       0x86 examples/light_switch/proxy_server/CMakeFiles/light_switch_proxy_server_nrf52832_xxAA_s132_6.0.0.dir/__/__/__/mesh/prov/src/nrf_mesh_prov_bearer_gatt.c.obj
 .text.a_listen_stop
                0x00027098        0x4 examples/light_switch/proxy_server/CMakeFiles/light_switch_proxy_server_nrf52832_xxAA_s132_6.0.0.dir/__/__/__/mesh/prov/src/nrf_mesh_prov_bearer_gatt.c.obj
 .text.a_listen_start
                0x0002709c       0x3c examples/light_switch/proxy_server/CMakeFiles/light_switch_proxy_server_nrf52832_xxAA_s132_6.0.0.dir/__/__/__/mesh/prov/src/nrf_mesh_prov_bearer_gatt.c.obj
 .text.link_timer_reset
                0x000270d8       0x18 examples/light_switch/proxy_server/CMakeFiles/light_switch_proxy_server_nrf52832_xxAA_s132_6.0.0.dir/__/__/__/mesh/prov/src/nrf_mesh_prov_bearer_gatt.c.obj
 .text.a_link_timer_start
                0x000270f0        0x6 examples/light_switch/proxy_server/CMakeFiles/light_switch_proxy_server_nrf52832_xxAA_s132_6.0.0.dir/__/__/__/mesh/prov/src/nrf_mesh_prov_bearer_gatt.c.obj
 .text.a_pdu_rx
                0x000270f6       0x1e examples/light_switch/proxy_server/CMakeFiles/light_switch_proxy_server_nrf52832_xxAA_s132_6.0.0.dir/__/__/__/mesh/prov/src/nrf_mesh_prov_bearer_gatt.c.obj
 .text.a_pdu_tx
                0x00027114       0x42 examples/light_switch/proxy_server/CMakeFiles/light_switch_proxy_server_nrf52832_xxAA_s132_6.0.0.dir/__/__/__/mesh/prov/src/nrf_mesh_prov_bearer_gatt.c.obj
 .text.a_link_close_notify
                0x00027156       0x1c examples/light_switch/proxy_server/CMakeFiles/light_switch_proxy_server_nrf52832_xxAA_s132_6.0.0.dir/__/__/__/mesh/prov/src/nrf_mesh_prov_bearer_gatt.c.obj
 .text.a_link_close
                0x00027172       0x18 examples/light_switch/proxy_server/CMakeFiles/light_switch_proxy_server_nrf52832_xxAA_s132_6.0.0.dir/__/__/__/mesh/prov/src/nrf_mesh_prov_bearer_gatt.c.obj
 *fill*         0x0002718a        0x2 
 .text.link_evt_send
                0x0002718c       0x28 examples/light_switch/proxy_server/CMakeFiles/light_switch_proxy_server_nrf52832_xxAA_s132_6.0.0.dir/__/__/__/mesh/prov/src/nrf_mesh_prov_bearer_gatt.c.obj
 .text.link_close_cb
                0x000271b4       0x24 examples/light_switch/proxy_server/CMakeFiles/light_switch_proxy_server_nrf52832_xxAA_s132_6.0.0.dir/__/__/__/mesh/prov/src/nrf_mesh_prov_bearer_gatt.c.obj
 .text.listen_stop_cb
                0x000271d8       0x24 examples/light_switch/proxy_server/CMakeFiles/light_switch_proxy_server_nrf52832_xxAA_s132_6.0.0.dir/__/__/__/mesh/prov/src/nrf_mesh_prov_bearer_gatt.c.obj
 .text.listen_start_cb
                0x000271fc       0x34 examples/light_switch/proxy_server/CMakeFiles/light_switch_proxy_server_nrf52832_xxAA_s132_6.0.0.dir/__/__/__/mesh/prov/src/nrf_mesh_prov_bearer_gatt.c.obj
 .text.nrf_mesh_prov_bearer_gatt_init
                0x00027230       0x6c examples/light_switch/proxy_server/CMakeFiles/light_switch_proxy_server_nrf52832_xxAA_s132_6.0.0.dir/__/__/__/mesh/prov/src/nrf_mesh_prov_bearer_gatt.c.obj
                0x00027230                nrf_mesh_prov_bearer_gatt_init
 .text.nrf_mesh_prov_bearer_gatt_interface_get
                0x0002729c       0x14 examples/light_switch/proxy_server/CMakeFiles/light_switch_proxy_server_nrf52832_xxAA_s132_6.0.0.dir/__/__/__/mesh/prov/src/nrf_mesh_prov_bearer_gatt.c.obj
                0x0002729c                nrf_mesh_prov_bearer_gatt_interface_get
 .text.app_util_critical_region_enter
                0x000272b0       0x48 examples/light_switch/proxy_server/CMakeFiles/light_switch_proxy_server_nrf52832_xxAA_s132_6.0.0.dir/C_/b/nRF5_SDK_15.0.0_a53641a/components/libraries/util/app_util_platform.c.obj
                0x000272b0                app_util_critical_region_enter
 .text.app_util_critical_region_exit
                0x000272f8       0x2c examples/light_switch/proxy_server/CMakeFiles/light_switch_proxy_server_nrf52832_xxAA_s132_6.0.0.dir/C_/b/nRF5_SDK_15.0.0_a53641a/components/libraries/util/app_util_platform.c.obj
                0x000272f8                app_util_critical_region_exit
 .text.sd_ble_gap_addr_get
                0x00027324        0x4 examples/light_switch/proxy_server/CMakeFiles/light_switch_proxy_server_nrf52832_xxAA_s132_6.0.0.dir/C_/b/nRF5_SDK_15.0.0_a53641a/components/ble/common/ble_advdata.c.obj
 .text.sd_ble_gap_appearance_get
                0x00027328        0x4 examples/light_switch/proxy_server/CMakeFiles/light_switch_proxy_server_nrf52832_xxAA_s132_6.0.0.dir/C_/b/nRF5_SDK_15.0.0_a53641a/components/ble/common/ble_advdata.c.obj
 .text.sd_ble_gap_device_name_get
                0x0002732c        0x4 examples/light_switch/proxy_server/CMakeFiles/light_switch_proxy_server_nrf52832_xxAA_s132_6.0.0.dir/C_/b/nRF5_SDK_15.0.0_a53641a/components/ble/common/ble_advdata.c.obj
 .text.sd_ble_uuid_encode
                0x00027330        0x4 examples/light_switch/proxy_server/CMakeFiles/light_switch_proxy_server_nrf52832_xxAA_s132_6.0.0.dir/C_/b/nRF5_SDK_15.0.0_a53641a/components/ble/common/ble_advdata.c.obj
 .text.uuid_list_sized_encode
                0x00027334       0xa4 examples/light_switch/proxy_server/CMakeFiles/light_switch_proxy_server_nrf52832_xxAA_s132_6.0.0.dir/C_/b/nRF5_SDK_15.0.0_a53641a/components/ble/common/ble_advdata.c.obj
 .text.uuid_list_encode
                0x000273d8       0x34 examples/light_switch/proxy_server/CMakeFiles/light_switch_proxy_server_nrf52832_xxAA_s132_6.0.0.dir/C_/b/nRF5_SDK_15.0.0_a53641a/components/ble/common/ble_advdata.c.obj
 .text.ble_advdata_encode
                0x0002740c      0x378 examples/light_switch/proxy_server/CMakeFiles/light_switch_proxy_server_nrf52832_xxAA_s132_6.0.0.dir/C_/b/nRF5_SDK_15.0.0_a53641a/components/ble/common/ble_advdata.c.obj
                0x0002740c                ble_advdata_encode
 .text.nrf_section_iter_init
                0x00027784       0x12 examples/light_switch/proxy_server/CMakeFiles/light_switch_proxy_server_nrf52832_xxAA_s132_6.0.0.dir/C_/b/nRF5_SDK_15.0.0_a53641a/components/libraries/experimental_section_vars/nrf_section_iter.c.obj
                0x00027784                nrf_section_iter_init
 .text.nrf_section_iter_next
                0x00027796       0x18 examples/light_switch/proxy_server/CMakeFiles/light_switch_proxy_server_nrf52832_xxAA_s132_6.0.0.dir/C_/b/nRF5_SDK_15.0.0_a53641a/components/libraries/experimental_section_vars/nrf_section_iter.c.obj
                0x00027796                nrf_section_iter_next
 .text.sd_softdevice_enable
                0x000277ae        0x4 examples/light_switch/proxy_server/CMakeFiles/light_switch_proxy_server_nrf52832_xxAA_s132_6.0.0.dir/C_/b/nRF5_SDK_15.0.0_a53641a/components/softdevice/common/nrf_sdh.c.obj
 .text.sd_softdevice_disable
                0x000277b2        0x4 examples/light_switch/proxy_server/CMakeFiles/light_switch_proxy_server_nrf52832_xxAA_s132_6.0.0.dir/C_/b/nRF5_SDK_15.0.0_a53641a/components/softdevice/common/nrf_sdh.c.obj
 *fill*         0x000277b6        0x2 
 .text.sdh_request_observer_notify
                0x000277b8       0x30 examples/light_switch/proxy_server/CMakeFiles/light_switch_proxy_server_nrf52832_xxAA_s132_6.0.0.dir/C_/b/nRF5_SDK_15.0.0_a53641a/components/softdevice/common/nrf_sdh.c.obj
 .text.sdh_state_observer_notify
                0x000277e8       0x28 examples/light_switch/proxy_server/CMakeFiles/light_switch_proxy_server_nrf52832_xxAA_s132_6.0.0.dir/C_/b/nRF5_SDK_15.0.0_a53641a/components/softdevice/common/nrf_sdh.c.obj
 .text.softdevices_evt_irq_enable
                0x00027810       0x3c examples/light_switch/proxy_server/CMakeFiles/light_switch_proxy_server_nrf52832_xxAA_s132_6.0.0.dir/C_/b/nRF5_SDK_15.0.0_a53641a/components/softdevice/common/nrf_sdh.c.obj
 .text.softdevice_evt_irq_disable
                0x0002784c       0x24 examples/light_switch/proxy_server/CMakeFiles/light_switch_proxy_server_nrf52832_xxAA_s132_6.0.0.dir/C_/b/nRF5_SDK_15.0.0_a53641a/components/softdevice/common/nrf_sdh.c.obj
 .text.nrf_sdh_enable_request
                0x00027870       0x88 examples/light_switch/proxy_server/CMakeFiles/light_switch_proxy_server_nrf52832_xxAA_s132_6.0.0.dir/C_/b/nRF5_SDK_15.0.0_a53641a/components/softdevice/common/nrf_sdh.c.obj
                0x00027870                nrf_sdh_enable_request
 .text.nrf_sdh_disable_request
                0x000278f8       0x60 examples/light_switch/proxy_server/CMakeFiles/light_switch_proxy_server_nrf52832_xxAA_s132_6.0.0.dir/C_/b/nRF5_SDK_15.0.0_a53641a/components/softdevice/common/nrf_sdh.c.obj
                0x000278f8                nrf_sdh_disable_request
 .text.nrf_sdh_evts_poll
                0x00027958       0x28 examples/light_switch/proxy_server/CMakeFiles/light_switch_proxy_server_nrf52832_xxAA_s132_6.0.0.dir/C_/b/nRF5_SDK_15.0.0_a53641a/components/softdevice/common/nrf_sdh.c.obj
                0x00027958                nrf_sdh_evts_poll
 .text.SWI2_EGU2_IRQHandler
                0x00027980        0x4 examples/light_switch/proxy_server/CMakeFiles/light_switch_proxy_server_nrf52832_xxAA_s132_6.0.0.dir/C_/b/nRF5_SDK_15.0.0_a53641a/components/softdevice/common/nrf_sdh.c.obj
                0x00027980                SWI2_EGU2_IRQHandler
 .text.sd_evt_get
                0x00027984        0x4 examples/light_switch/proxy_server/CMakeFiles/light_switch_proxy_server_nrf52832_xxAA_s132_6.0.0.dir/C_/b/nRF5_SDK_15.0.0_a53641a/components/softdevice/common/nrf_sdh_soc.c.obj
 .text.nrf_sdh_soc_evts_poll
                0x00027988       0x3c examples/light_switch/proxy_server/CMakeFiles/light_switch_proxy_server_nrf52832_xxAA_s132_6.0.0.dir/C_/b/nRF5_SDK_15.0.0_a53641a/components/softdevice/common/nrf_sdh_soc.c.obj
 .text.sd_ble_enable
                0x000279c4        0x4 examples/light_switch/proxy_server/CMakeFiles/light_switch_proxy_server_nrf52832_xxAA_s132_6.0.0.dir/C_/b/nRF5_SDK_15.0.0_a53641a/components/softdevice/common/nrf_sdh_ble.c.obj
 .text.sd_ble_cfg_set
                0x000279c8        0x4 examples/light_switch/proxy_server/CMakeFiles/light_switch_proxy_server_nrf52832_xxAA_s132_6.0.0.dir/C_/b/nRF5_SDK_15.0.0_a53641a/components/softdevice/common/nrf_sdh_ble.c.obj
 .text.sd_ble_evt_get
                0x000279cc        0x4 examples/light_switch/proxy_server/CMakeFiles/light_switch_proxy_server_nrf52832_xxAA_s132_6.0.0.dir/C_/b/nRF5_SDK_15.0.0_a53641a/components/softdevice/common/nrf_sdh_ble.c.obj
 .text.nrf_sdh_ble_evts_poll
                0x000279d0       0x50 examples/light_switch/proxy_server/CMakeFiles/light_switch_proxy_server_nrf52832_xxAA_s132_6.0.0.dir/C_/b/nRF5_SDK_15.0.0_a53641a/components/softdevice/common/nrf_sdh_ble.c.obj
 .text.nrf_sdh_ble_default_cfg_set
                0x00027a20       0xd4 examples/light_switch/proxy_server/CMakeFiles/light_switch_proxy_server_nrf52832_xxAA_s132_6.0.0.dir/C_/b/nRF5_SDK_15.0.0_a53641a/components/softdevice/common/nrf_sdh_ble.c.obj
                0x00027a20                nrf_sdh_ble_default_cfg_set
 .text.nrf_sdh_ble_enable
                0x00027af4       0x14 examples/light_switch/proxy_server/CMakeFiles/light_switch_proxy_server_nrf52832_xxAA_s132_6.0.0.dir/C_/b/nRF5_SDK_15.0.0_a53641a/components/softdevice/common/nrf_sdh_ble.c.obj
                0x00027af4                nrf_sdh_ble_enable
 .text._weak_handler
                0x00027b08        0x4 examples/light_switch/proxy_server/CMakeFiles/light_switch_proxy_server_nrf52832_xxAA_s132_6.0.0.dir/__/__/nrf_mesh_weak.c.obj
                0x00027b08                nrf_mesh_dfu_init
                0x00027b08                nrf_mesh_dfu_jump_to_bootloader
                0x00027b08                nrf_mesh_dfu_rx
                0x00027b08                prov_provisioner_provision
                0x00027b08                nrf_mesh_dfu_bank_info_get
                0x00027b08                prov_provisioner_oob_pubkey
                0x00027b08                nrf_mesh_dfu_request
                0x00027b08                nrf_mesh_dfu_bank_flash
                0x00027b08                _weak_handler
                0x00027b08                nrf_mesh_dfu_relay
                0x00027b08                nrf_mesh_dfu_abort
                0x00027b08                mesh_flash_op_execute
                0x00027b08                prov_provisionee_init
                0x00027b08                nrf_mesh_dfu_state_get
                0x00027b08                prov_provisioner_shared_secret
                0x00027b08                prov_provisioner_auth_data
                0x00027b08                prov_provisioner_oob_use
 .text.app_error_fault_handler
                0x00027b0c      0x204 examples/light_switch/proxy_server/CMakeFiles/light_switch_proxy_server_nrf52832_xxAA_s132_6.0.0.dir/__/__/common/src/app_error_weak.c.obj
                0x00027b0c                app_error_fault_handler
 .text.mesh_assertion_handler
                0x00027d10       0x24 examples/light_switch/proxy_server/CMakeFiles/light_switch_proxy_server_nrf52832_xxAA_s132_6.0.0.dir/__/__/common/src/assertion_handler_weak.c.obj
                0x00027d10                mesh_assertion_handler
 .text.nrf_mesh_configure_device_uuid_set
                0x00027d34       0x10 examples/light_switch/proxy_server/CMakeFiles/light_switch_proxy_server_nrf52832_xxAA_s132_6.0.0.dir/__/__/__/mesh/core/src/nrf_mesh_configure.c.obj
                0x00027d34                nrf_mesh_configure_device_uuid_set
 .text.nrf_mesh_configure_device_uuid_reset
                0x00027d44       0x28 examples/light_switch/proxy_server/CMakeFiles/light_switch_proxy_server_nrf52832_xxAA_s132_6.0.0.dir/__/__/__/mesh/core/src/nrf_mesh_configure.c.obj
                0x00027d44                nrf_mesh_configure_device_uuid_reset
 .text.nrf_mesh_configure_device_uuid_get
                0x00027d6c        0x8 examples/light_switch/proxy_server/CMakeFiles/light_switch_proxy_server_nrf52832_xxAA_s132_6.0.0.dir/__/__/__/mesh/core/src/nrf_mesh_configure.c.obj
                0x00027d6c                nrf_mesh_configure_device_uuid_get
 .text.sd_ecb_block_encrypt
                0x00027d74        0x4 examples/light_switch/proxy_server/CMakeFiles/light_switch_proxy_server_nrf52832_xxAA_s132_6.0.0.dir/__/__/__/mesh/core/src/aes.c.obj
 .text.aes_encrypt
                0x00027d78       0x32 examples/light_switch/proxy_server/CMakeFiles/light_switch_proxy_server_nrf52832_xxAA_s132_6.0.0.dir/__/__/__/mesh/core/src/aes.c.obj
                0x00027d78                aes_encrypt
 *fill*         0x00027daa        0x2 
 .text.msg_cache_init
                0x00027dac       0x24 examples/light_switch/proxy_server/CMakeFiles/light_switch_proxy_server_nrf52832_xxAA_s132_6.0.0.dir/__/__/__/mesh/core/src/msg_cache.c.obj
                0x00027dac                msg_cache_init
 .text.msg_cache_entry_exists
                0x00027dd0       0x3c examples/light_switch/proxy_server/CMakeFiles/light_switch_proxy_server_nrf52832_xxAA_s132_6.0.0.dir/__/__/__/mesh/core/src/msg_cache.c.obj
                0x00027dd0                msg_cache_entry_exists
 .text.msg_cache_entry_add
                0x00027e0c       0x2c examples/light_switch/proxy_server/CMakeFiles/light_switch_proxy_server_nrf52832_xxAA_s132_6.0.0.dir/__/__/__/mesh/core/src/msg_cache.c.obj
                0x00027e0c                msg_cache_entry_add
 .text.seqauth_sequence_number_get
                0x00027e38       0x12 examples/light_switch/proxy_server/CMakeFiles/light_switch_proxy_server_nrf52832_xxAA_s132_6.0.0.dir/__/__/__/mesh/core/src/transport.c.obj
 *fill*         0x00027e4a        0x2 
 .text.control_packet_callback_get
                0x00027e4c       0x44 examples/light_switch/proxy_server/CMakeFiles/light_switch_proxy_server_nrf52832_xxAA_s132_6.0.0.dir/__/__/__/mesh/core/src/transport.c.obj
 .text.tx_complete
                0x00027e90       0x30 examples/light_switch/proxy_server/CMakeFiles/light_switch_proxy_server_nrf52832_xxAA_s132_6.0.0.dir/__/__/__/mesh/core/src/transport.c.obj
 .text.block_ack_full
                0x00027ec0       0x1a examples/light_switch/proxy_server/CMakeFiles/light_switch_proxy_server_nrf52832_xxAA_s132_6.0.0.dir/__/__/__/mesh/core/src/transport.c.obj
 *fill*         0x00027eda        0x2 
 .text.sar_rx_session_mark_as_handled
                0x00027edc       0x48 examples/light_switch/proxy_server/CMakeFiles/light_switch_proxy_server_nrf52832_xxAA_s132_6.0.0.dir/__/__/__/mesh/core/src/transport.c.obj
 .text.upper_trs_packet_encrypt
                0x00027f24       0x90 examples/light_switch/proxy_server/CMakeFiles/light_switch_proxy_server_nrf52832_xxAA_s132_6.0.0.dir/__/__/__/mesh/core/src/transport.c.obj
 .text.sar_ctx_free
                0x00027fb4       0x3c examples/light_switch/proxy_server/CMakeFiles/light_switch_proxy_server_nrf52832_xxAA_s132_6.0.0.dir/__/__/__/mesh/core/src/transport.c.obj
 .text.sar_ctx_tx_complete
                0x00027ff0       0x2e examples/light_switch/proxy_server/CMakeFiles/light_switch_proxy_server_nrf52832_xxAA_s132_6.0.0.dir/__/__/__/mesh/core/src/transport.c.obj
 *fill*         0x0002801e        0x2 
 .text.sar_ctx_alloc
                0x00028020       0xa4 examples/light_switch/proxy_server/CMakeFiles/light_switch_proxy_server_nrf52832_xxAA_s132_6.0.0.dir/__/__/__/mesh/core/src/transport.c.obj
 .text.test_transport_decrypt
                0x000280c4       0x88 examples/light_switch/proxy_server/CMakeFiles/light_switch_proxy_server_nrf52832_xxAA_s132_6.0.0.dir/__/__/__/mesh/core/src/transport.c.obj
 .text.upper_transport_access_packet_in
                0x0002814c      0x19c examples/light_switch/proxy_server/CMakeFiles/light_switch_proxy_server_nrf52832_xxAA_s132_6.0.0.dir/__/__/__/mesh/core/src/transport.c.obj
 .text.trs_packet_header_build
                0x000282e8       0xa6 examples/light_switch/proxy_server/CMakeFiles/light_switch_proxy_server_nrf52832_xxAA_s132_6.0.0.dir/__/__/__/mesh/core/src/transport.c.obj
 *fill*         0x0002838e        0x2 
 .text.tx_retry_timer_reset
                0x00028390       0x44 examples/light_switch/proxy_server/CMakeFiles/light_switch_proxy_server_nrf52832_xxAA_s132_6.0.0.dir/__/__/__/mesh/core/src/transport.c.obj
 .text.sar_ctx_cancel
                0x000283d4       0xa8 examples/light_switch/proxy_server/CMakeFiles/light_switch_proxy_server_nrf52832_xxAA_s132_6.0.0.dir/__/__/__/mesh/core/src/transport.c.obj
 .text.abort_timeout
                0x0002847c        0x8 examples/light_switch/proxy_server/CMakeFiles/light_switch_proxy_server_nrf52832_xxAA_s132_6.0.0.dir/__/__/__/mesh/core/src/transport.c.obj
 .text.trs_sar_packet_out
                0x00028484       0xda examples/light_switch/proxy_server/CMakeFiles/light_switch_proxy_server_nrf52832_xxAA_s132_6.0.0.dir/__/__/__/mesh/core/src/transport.c.obj
 .text.retry_timeout
                0x0002855e       0x46 examples/light_switch/proxy_server/CMakeFiles/light_switch_proxy_server_nrf52832_xxAA_s132_6.0.0.dir/__/__/__/mesh/core/src/transport.c.obj
 .text.upper_transport_packet_in
                0x000285a4      0x150 examples/light_switch/proxy_server/CMakeFiles/light_switch_proxy_server_nrf52832_xxAA_s132_6.0.0.dir/__/__/__/mesh/core/src/transport.c.obj
 .text.upper_transport_tx
                0x000286f4      0x1e4 examples/light_switch/proxy_server/CMakeFiles/light_switch_proxy_server_nrf52832_xxAA_s132_6.0.0.dir/__/__/__/mesh/core/src/transport.c.obj
 .text.transport_sar_mem_funcs_reset
                0x000288d8       0x28 examples/light_switch/proxy_server/CMakeFiles/light_switch_proxy_server_nrf52832_xxAA_s132_6.0.0.dir/__/__/__/mesh/core/src/transport.c.obj
                0x000288d8                transport_sar_mem_funcs_reset
 .text.transport_init
                0x00028900       0x8c examples/light_switch/proxy_server/CMakeFiles/light_switch_proxy_server_nrf52832_xxAA_s132_6.0.0.dir/__/__/__/mesh/core/src/transport.c.obj
                0x00028900                transport_init
 .text.transport_tx
                0x0002898c       0xb4 examples/light_switch/proxy_server/CMakeFiles/light_switch_proxy_server_nrf52832_xxAA_s132_6.0.0.dir/__/__/__/mesh/core/src/transport.c.obj
                0x0002898c                transport_tx
 .text.transport_control_tx
                0x00028a40       0x8e examples/light_switch/proxy_server/CMakeFiles/light_switch_proxy_server_nrf52832_xxAA_s132_6.0.0.dir/__/__/__/mesh/core/src/transport.c.obj
                0x00028a40                transport_control_tx
 *fill*         0x00028ace        0x2 
 .text.sar_ack_send
                0x00028ad0       0xa0 examples/light_switch/proxy_server/CMakeFiles/light_switch_proxy_server_nrf52832_xxAA_s132_6.0.0.dir/__/__/__/mesh/core/src/transport.c.obj
 .text.transport_sar_process
                0x00028b70       0x74 examples/light_switch/proxy_server/CMakeFiles/light_switch_proxy_server_nrf52832_xxAA_s132_6.0.0.dir/__/__/__/mesh/core/src/transport.c.obj
 .text.transport_packet_in
                0x00028be4      0x434 examples/light_switch/proxy_server/CMakeFiles/light_switch_proxy_server_nrf52832_xxAA_s132_6.0.0.dir/__/__/__/mesh/core/src/transport.c.obj
                0x00028be4                transport_packet_in
 .text.ack_timeout
                0x00029018       0x28 examples/light_switch/proxy_server/CMakeFiles/light_switch_proxy_server_nrf52832_xxAA_s132_6.0.0.dir/__/__/__/mesh/core/src/transport.c.obj
 .text.transport_opt_set
                0x00029040       0xd0 examples/light_switch/proxy_server/CMakeFiles/light_switch_proxy_server_nrf52832_xxAA_s132_6.0.0.dir/__/__/__/mesh/core/src/transport.c.obj
                0x00029040                transport_opt_set
 .text.transport_opt_get
                0x00029110       0x68 examples/light_switch/proxy_server/CMakeFiles/light_switch_proxy_server_nrf52832_xxAA_s132_6.0.0.dir/__/__/__/mesh/core/src/transport.c.obj
                0x00029110                transport_opt_get
 .text.transport_control_packet_consumer_add
                0x00029178       0x5c examples/light_switch/proxy_server/CMakeFiles/light_switch_proxy_server_nrf52832_xxAA_s132_6.0.0.dir/__/__/__/mesh/core/src/transport.c.obj
                0x00029178                transport_control_packet_consumer_add
 .text.event_handle
                0x000291d4       0x24 examples/light_switch/proxy_server/CMakeFiles/light_switch_proxy_server_nrf52832_xxAA_s132_6.0.0.dir/__/__/__/mesh/core/src/event.c.obj
                0x000291d4                event_handle
 .text.event_handler_add
                0x000291f8       0x1c examples/light_switch/proxy_server/CMakeFiles/light_switch_proxy_server_nrf52832_xxAA_s132_6.0.0.dir/__/__/__/mesh/core/src/event.c.obj
                0x000291f8                event_handler_add
 .text.event_handler_remove
                0x00029214       0x1c examples/light_switch/proxy_server/CMakeFiles/light_switch_proxy_server_nrf52832_xxAA_s132_6.0.0.dir/__/__/__/mesh/core/src/event.c.obj
                0x00029214                event_handler_remove
 .text.m_index_increment
                0x00029230       0x1e examples/light_switch/proxy_server/CMakeFiles/light_switch_proxy_server_nrf52832_xxAA_s132_6.0.0.dir/__/__/__/mesh/core/src/packet_buffer.c.obj
 .text.packet_buffer_init
                0x0002924e       0xac examples/light_switch/proxy_server/CMakeFiles/light_switch_proxy_server_nrf52832_xxAA_s132_6.0.0.dir/__/__/__/mesh/core/src/packet_buffer.c.obj
                0x0002924e                packet_buffer_init
 .text.packet_buffer_flush
                0x000292fa       0x60 examples/light_switch/proxy_server/CMakeFiles/light_switch_proxy_server_nrf52832_xxAA_s132_6.0.0.dir/__/__/__/mesh/core/src/packet_buffer.c.obj
                0x000292fa                packet_buffer_flush
 .text.packet_buffer_reserve
                0x0002935a       0x96 examples/light_switch/proxy_server/CMakeFiles/light_switch_proxy_server_nrf52832_xxAA_s132_6.0.0.dir/__/__/__/mesh/core/src/packet_buffer.c.obj
                0x0002935a                packet_buffer_reserve
 .text.packet_buffer_commit
                0x000293f0       0x58 examples/light_switch/proxy_server/CMakeFiles/light_switch_proxy_server_nrf52832_xxAA_s132_6.0.0.dir/__/__/__/mesh/core/src/packet_buffer.c.obj
                0x000293f0                packet_buffer_commit
 .text.packet_buffer_pop
                0x00029448       0x3c examples/light_switch/proxy_server/CMakeFiles/light_switch_proxy_server_nrf52832_xxAA_s132_6.0.0.dir/__/__/__/mesh/core/src/packet_buffer.c.obj
                0x00029448                packet_buffer_pop
 .text.packet_buffer_can_pop
                0x00029484       0x1c examples/light_switch/proxy_server/CMakeFiles/light_switch_proxy_server_nrf52832_xxAA_s132_6.0.0.dir/__/__/__/mesh/core/src/packet_buffer.c.obj
                0x00029484                packet_buffer_can_pop
 .text.packet_buffer_packets_ready_to_pop
                0x000294a0       0x3a examples/light_switch/proxy_server/CMakeFiles/light_switch_proxy_server_nrf52832_xxAA_s132_6.0.0.dir/__/__/__/mesh/core/src/packet_buffer.c.obj
                0x000294a0                packet_buffer_packets_ready_to_pop
 .text.packet_buffer_free
                0x000294da       0x6e examples/light_switch/proxy_server/CMakeFiles/light_switch_proxy_server_nrf52832_xxAA_s132_6.0.0.dir/__/__/__/mesh/core/src/packet_buffer.c.obj
                0x000294da                packet_buffer_free
 .text.get_last_page
                0x00029548       0x14 examples/light_switch/proxy_server/CMakeFiles/light_switch_proxy_server_nrf52832_xxAA_s132_6.0.0.dir/__/__/__/mesh/core/src/flash_manager_defrag.c.obj
 .text.defrag_on_end
                0x0002955c       0x1c examples/light_switch/proxy_server/CMakeFiles/light_switch_proxy_server_nrf52832_xxAA_s132_6.0.0.dir/__/__/__/mesh/core/src/flash_manager_defrag.c.obj
 .text.execute_procedure_step
                0x00029578       0x7c examples/light_switch/proxy_server/CMakeFiles/light_switch_proxy_server_nrf52832_xxAA_s132_6.0.0.dir/__/__/__/mesh/core/src/flash_manager_defrag.c.obj
 .text.get_next_entry
                0x000295f4       0x34 examples/light_switch/proxy_server/CMakeFiles/light_switch_proxy_server_nrf52832_xxAA_s132_6.0.0.dir/__/__/__/mesh/core/src/flash_manager_defrag.c.obj
 .text.get_next_data_entry
                0x00029628       0x26 examples/light_switch/proxy_server/CMakeFiles/light_switch_proxy_server_nrf52832_xxAA_s132_6.0.0.dir/__/__/__/mesh/core/src/flash_manager_defrag.c.obj
 *fill*         0x0002964e        0x2 
 .text.on_flash_op_end
                0x00029650       0x30 examples/light_switch/proxy_server/CMakeFiles/light_switch_proxy_server_nrf52832_xxAA_s132_6.0.0.dir/__/__/__/mesh/core/src/flash_manager_defrag.c.obj
 .text.check_for_invalid_entries
                0x00029680       0x38 examples/light_switch/proxy_server/CMakeFiles/light_switch_proxy_server_nrf52832_xxAA_s132_6.0.0.dir/__/__/__/mesh/core/src/flash_manager_defrag.c.obj
 .text.erase_recovery_area
                0x000296b8       0x34 examples/light_switch/proxy_server/CMakeFiles/light_switch_proxy_server_nrf52832_xxAA_s132_6.0.0.dir/__/__/__/mesh/core/src/flash_manager_defrag.c.obj
 .text.flash.constprop.6
                0x000296ec       0x24 examples/light_switch/proxy_server/CMakeFiles/light_switch_proxy_server_nrf52832_xxAA_s132_6.0.0.dir/__/__/__/mesh/core/src/flash_manager_defrag.c.obj
 .text.seal_storage_page
                0x00029710       0x50 examples/light_switch/proxy_server/CMakeFiles/light_switch_proxy_server_nrf52832_xxAA_s132_6.0.0.dir/__/__/__/mesh/core/src/flash_manager_defrag.c.obj
 .text.invalidate_duplicate_entries
                0x00029760       0x9c examples/light_switch/proxy_server/CMakeFiles/light_switch_proxy_server_nrf52832_xxAA_s132_6.0.0.dir/__/__/__/mesh/core/src/flash_manager_defrag.c.obj
 .text.copy_metadata
                0x000297fc       0x3c examples/light_switch/proxy_server/CMakeFiles/light_switch_proxy_server_nrf52832_xxAA_s132_6.0.0.dir/__/__/__/mesh/core/src/flash_manager_defrag.c.obj
 .text.write_defrag_start_pointer
                0x00029838       0x20 examples/light_switch/proxy_server/CMakeFiles/light_switch_proxy_server_nrf52832_xxAA_s132_6.0.0.dir/__/__/__/mesh/core/src/flash_manager_defrag.c.obj
 .text.write_back
                0x00029858       0x28 examples/light_switch/proxy_server/CMakeFiles/light_switch_proxy_server_nrf52832_xxAA_s132_6.0.0.dir/__/__/__/mesh/core/src/flash_manager_defrag.c.obj
 .text.post_process
                0x00029880       0x40 examples/light_switch/proxy_server/CMakeFiles/light_switch_proxy_server_nrf52832_xxAA_s132_6.0.0.dir/__/__/__/mesh/core/src/flash_manager_defrag.c.obj
 .text.backup_entries
                0x000298c0       0xf8 examples/light_switch/proxy_server/CMakeFiles/light_switch_proxy_server_nrf52832_xxAA_s132_6.0.0.dir/__/__/__/mesh/core/src/flash_manager_defrag.c.obj
 .text.erase_source
                0x000299b8       0x34 examples/light_switch/proxy_server/CMakeFiles/light_switch_proxy_server_nrf52832_xxAA_s132_6.0.0.dir/__/__/__/mesh/core/src/flash_manager_defrag.c.obj
 .text.flash_manager_defrag_init
                0x000299ec       0x8c examples/light_switch/proxy_server/CMakeFiles/light_switch_proxy_server_nrf52832_xxAA_s132_6.0.0.dir/__/__/__/mesh/core/src/flash_manager_defrag.c.obj
                0x000299ec                flash_manager_defrag_init
 .text.flash_manager_defrag_is_running
                0x00029a78       0x10 examples/light_switch/proxy_server/CMakeFiles/light_switch_proxy_server_nrf52832_xxAA_s132_6.0.0.dir/__/__/__/mesh/core/src/flash_manager_defrag.c.obj
                0x00029a78                flash_manager_defrag_is_running
 .text.flash_manager_defrag
                0x00029a88       0x44 examples/light_switch/proxy_server/CMakeFiles/light_switch_proxy_server_nrf52832_xxAA_s132_6.0.0.dir/__/__/__/mesh/core/src/flash_manager_defrag.c.obj
                0x00029a88                flash_manager_defrag
 .text.flash_manager_defrag_recovery_page_get
                0x00029acc        0xc examples/light_switch/proxy_server/CMakeFiles/light_switch_proxy_server_nrf52832_xxAA_s132_6.0.0.dir/__/__/__/mesh/core/src/flash_manager_defrag.c.obj
                0x00029acc                flash_manager_defrag_recovery_page_get
 .text.fifo_init
                0x00029ad8       0x34 examples/light_switch/proxy_server/CMakeFiles/light_switch_proxy_server_nrf52832_xxAA_s132_6.0.0.dir/__/__/__/mesh/core/src/fifo.c.obj
                0x00029ad8                fifo_init
 .text.fifo_push
                0x00029b0c       0x50 examples/light_switch/proxy_server/CMakeFiles/light_switch_proxy_server_nrf52832_xxAA_s132_6.0.0.dir/__/__/__/mesh/core/src/fifo.c.obj
                0x00029b0c                fifo_push
 .text.fifo_pop
                0x00029b5c       0x52 examples/light_switch/proxy_server/CMakeFiles/light_switch_proxy_server_nrf52832_xxAA_s132_6.0.0.dir/__/__/__/mesh/core/src/fifo.c.obj
                0x00029b5c                fifo_pop
 *fill*         0x00029bae        0x2 
 .text.wait_for_ready
                0x00029bb0       0x10 examples/light_switch/proxy_server/CMakeFiles/light_switch_proxy_server_nrf52832_xxAA_s132_6.0.0.dir/__/__/__/mesh/core/src/nrf_flash.c.obj
 .text.nrf_flash_erase
                0x00029bc0       0x50 examples/light_switch/proxy_server/CMakeFiles/light_switch_proxy_server_nrf52832_xxAA_s132_6.0.0.dir/__/__/__/mesh/core/src/nrf_flash.c.obj
                0x00029bc0                nrf_flash_erase
 .text.nrf_flash_write
                0x00029c10       0x50 examples/light_switch/proxy_server/CMakeFiles/light_switch_proxy_server_nrf52832_xxAA_s132_6.0.0.dir/__/__/__/mesh/core/src/nrf_flash.c.obj
                0x00029c10                nrf_flash_write
 .text.packet_mgr_init
                0x00029c60       0x4c examples/light_switch/proxy_server/CMakeFiles/light_switch_proxy_server_nrf52832_xxAA_s132_6.0.0.dir/__/__/__/mesh/core/src/packet_mgr.c.obj
                0x00029c60                packet_mgr_init
 .text.flash_store_iv_index
                0x00029cac       0x38 examples/light_switch/proxy_server/CMakeFiles/light_switch_proxy_server_nrf52832_xxAA_s132_6.0.0.dir/__/__/__/mesh/core/src/net_state.c.obj
 .text.flash_mem_available
                0x00029ce4       0x14 examples/light_switch/proxy_server/CMakeFiles/light_switch_proxy_server_nrf52832_xxAA_s132_6.0.0.dir/__/__/__/mesh/core/src/net_state.c.obj
 .text.seqnum_block_allocate
                0x00029cf8       0x4c examples/light_switch/proxy_server/CMakeFiles/light_switch_proxy_server_nrf52832_xxAA_s132_6.0.0.dir/__/__/__/mesh/core/src/net_state.c.obj
 .text.net_state_reset
                0x00029d44       0x3c examples/light_switch/proxy_server/CMakeFiles/light_switch_proxy_server_nrf52832_xxAA_s132_6.0.0.dir/__/__/__/mesh/core/src/net_state.c.obj
                0x00029d44                net_state_reset
 .text.flash_write_complete
                0x00029d80       0x64 examples/light_switch/proxy_server/CMakeFiles/light_switch_proxy_server_nrf52832_xxAA_s132_6.0.0.dir/__/__/__/mesh/core/src/net_state.c.obj
 .text.net_state_recover_from_flash
                0x00029de4       0x8c examples/light_switch/proxy_server/CMakeFiles/light_switch_proxy_server_nrf52832_xxAA_s132_6.0.0.dir/__/__/__/mesh/core/src/net_state.c.obj
                0x00029de4                net_state_recover_from_flash
 .text.net_state_flash_area_get
                0x00029e70        0xc examples/light_switch/proxy_server/CMakeFiles/light_switch_proxy_server_nrf52832_xxAA_s132_6.0.0.dir/__/__/__/mesh/core/src/net_state.c.obj
                0x00029e70                net_state_flash_area_get
 .text.init_flash_storage
                0x00029e7c       0x40 examples/light_switch/proxy_server/CMakeFiles/light_switch_proxy_server_nrf52832_xxAA_s132_6.0.0.dir/__/__/__/mesh/core/src/net_state.c.obj
 .text.net_state_init
                0x00029ebc       0x5c examples/light_switch/proxy_server/CMakeFiles/light_switch_proxy_server_nrf52832_xxAA_s132_6.0.0.dir/__/__/__/mesh/core/src/net_state.c.obj
                0x00029ebc                net_state_init
 .text.net_state_iv_update_start
                0x00029f18       0x68 examples/light_switch/proxy_server/CMakeFiles/light_switch_proxy_server_nrf52832_xxAA_s132_6.0.0.dir/__/__/__/mesh/core/src/net_state.c.obj
                0x00029f18                net_state_iv_update_start
 .text.iv_update_trigger_if_pending
                0x00029f80       0x80 examples/light_switch/proxy_server/CMakeFiles/light_switch_proxy_server_nrf52832_xxAA_s132_6.0.0.dir/__/__/__/mesh/core/src/net_state.c.obj
 .text.mesh_evt_handler
                0x0002a000       0xa0 examples/light_switch/proxy_server/CMakeFiles/light_switch_proxy_server_nrf52832_xxAA_s132_6.0.0.dir/__/__/__/mesh/core/src/net_state.c.obj
 .text.iv_update_timer_handler
                0x0002a0a0       0x68 examples/light_switch/proxy_server/CMakeFiles/light_switch_proxy_server_nrf52832_xxAA_s132_6.0.0.dir/__/__/__/mesh/core/src/net_state.c.obj
 .text.net_state_seqnum_alloc
                0x0002a108       0x68 examples/light_switch/proxy_server/CMakeFiles/light_switch_proxy_server_nrf52832_xxAA_s132_6.0.0.dir/__/__/__/mesh/core/src/net_state.c.obj
                0x0002a108                net_state_seqnum_alloc
 .text.net_state_iv_index_lock
                0x0002a170       0x3c examples/light_switch/proxy_server/CMakeFiles/light_switch_proxy_server_nrf52832_xxAA_s132_6.0.0.dir/__/__/__/mesh/core/src/net_state.c.obj
                0x0002a170                net_state_iv_index_lock
 .text.net_state_key_refresh_phase_changed
                0x0002a1ac       0x20 examples/light_switch/proxy_server/CMakeFiles/light_switch_proxy_server_nrf52832_xxAA_s132_6.0.0.dir/__/__/__/mesh/core/src/net_state.c.obj
                0x0002a1ac                net_state_key_refresh_phase_changed
 .text.net_state_beacon_iv_index_get
                0x0002a1cc        0xc examples/light_switch/proxy_server/CMakeFiles/light_switch_proxy_server_nrf52832_xxAA_s132_6.0.0.dir/__/__/__/mesh/core/src/net_state.c.obj
                0x0002a1cc                net_state_beacon_iv_index_get
 .text.net_state_tx_iv_index_get
                0x0002a1d8       0x14 examples/light_switch/proxy_server/CMakeFiles/light_switch_proxy_server_nrf52832_xxAA_s132_6.0.0.dir/__/__/__/mesh/core/src/net_state.c.obj
                0x0002a1d8                net_state_tx_iv_index_get
 .text.net_state_rx_iv_index_get
                0x0002a1ec       0x18 examples/light_switch/proxy_server/CMakeFiles/light_switch_proxy_server_nrf52832_xxAA_s132_6.0.0.dir/__/__/__/mesh/core/src/net_state.c.obj
                0x0002a1ec                net_state_rx_iv_index_get
 .text.net_state_iv_update_get
                0x0002a204        0xc examples/light_switch/proxy_server/CMakeFiles/light_switch_proxy_server_nrf52832_xxAA_s132_6.0.0.dir/__/__/__/mesh/core/src/net_state.c.obj
                0x0002a204                net_state_iv_update_get
 .text.net_state_iv_index_set
                0x0002a210       0x30 examples/light_switch/proxy_server/CMakeFiles/light_switch_proxy_server_nrf52832_xxAA_s132_6.0.0.dir/__/__/__/mesh/core/src/net_state.c.obj
                0x0002a210                net_state_iv_index_set
 .text.send_end_events
                0x0002a240       0x84 examples/light_switch/proxy_server/CMakeFiles/light_switch_proxy_server_nrf52832_xxAA_s132_6.0.0.dir/__/__/__/mesh/core/src/mesh_flash.c.obj
 .text.flash_op_schedule
                0x0002a2c4       0x88 examples/light_switch/proxy_server/CMakeFiles/light_switch_proxy_server_nrf52832_xxAA_s132_6.0.0.dir/__/__/__/mesh/core/src/mesh_flash.c.obj
 .text.flash_op_start
                0x0002a34c      0x13c examples/light_switch/proxy_server/CMakeFiles/light_switch_proxy_server_nrf52832_xxAA_s132_6.0.0.dir/__/__/__/mesh/core/src/mesh_flash.c.obj
 .text.mesh_flash_init
                0x0002a488       0x88 examples/light_switch/proxy_server/CMakeFiles/light_switch_proxy_server_nrf52832_xxAA_s132_6.0.0.dir/__/__/__/mesh/core/src/mesh_flash.c.obj
                0x0002a488                mesh_flash_init
 .text.mesh_flash_user_callback_set
                0x0002a510       0x20 examples/light_switch/proxy_server/CMakeFiles/light_switch_proxy_server_nrf52832_xxAA_s132_6.0.0.dir/__/__/__/mesh/core/src/mesh_flash.c.obj
                0x0002a510                mesh_flash_user_callback_set
 .text.mesh_flash_op_push
                0x0002a530       0xe4 examples/light_switch/proxy_server/CMakeFiles/light_switch_proxy_server_nrf52832_xxAA_s132_6.0.0.dir/__/__/__/mesh/core/src/mesh_flash.c.obj
                0x0002a530                mesh_flash_op_push
 .text.nrf_mesh_address_type_get
                0x0002a614       0x10 examples/light_switch/proxy_server/CMakeFiles/light_switch_proxy_server_nrf52832_xxAA_s132_6.0.0.dir/__/__/__/mesh/core/src/nrf_mesh_utils.c.obj
                0x0002a614                nrf_mesh_address_type_get
 .text.sd_softdevice_is_enabled
                0x0002a624        0x4 examples/light_switch/proxy_server/CMakeFiles/light_switch_proxy_server_nrf52832_xxAA_s132_6.0.0.dir/__/__/__/mesh/core/src/nrf_mesh.c.obj
 .text.nrf_mesh_listen
                0x0002a628      0x138 examples/light_switch/proxy_server/CMakeFiles/light_switch_proxy_server_nrf52832_xxAA_s132_6.0.0.dir/__/__/__/mesh/core/src/nrf_mesh.c.obj
 .text.flash_stable_cb
                0x0002a760       0x20 examples/light_switch/proxy_server/CMakeFiles/light_switch_proxy_server_nrf52832_xxAA_s132_6.0.0.dir/__/__/__/mesh/core/src/nrf_mesh.c.obj
 .text.scanner_packet_process_cb
                0x0002a780       0x8c examples/light_switch/proxy_server/CMakeFiles/light_switch_proxy_server_nrf52832_xxAA_s132_6.0.0.dir/__/__/__/mesh/core/src/nrf_mesh.c.obj
 .text.nrf_mesh_init
                0x0002a80c       0xd8 examples/light_switch/proxy_server/CMakeFiles/light_switch_proxy_server_nrf52832_xxAA_s132_6.0.0.dir/__/__/__/mesh/core/src/nrf_mesh.c.obj
                0x0002a80c                nrf_mesh_init
 .text.nrf_mesh_enable
                0x0002a8e4       0x3c examples/light_switch/proxy_server/CMakeFiles/light_switch_proxy_server_nrf52832_xxAA_s132_6.0.0.dir/__/__/__/mesh/core/src/nrf_mesh.c.obj
                0x0002a8e4                nrf_mesh_enable
 .text.nrf_mesh_disable
                0x0002a920       0x28 examples/light_switch/proxy_server/CMakeFiles/light_switch_proxy_server_nrf52832_xxAA_s132_6.0.0.dir/__/__/__/mesh/core/src/nrf_mesh.c.obj
                0x0002a920                nrf_mesh_disable
 .text.nrf_mesh_packet_send
                0x0002a948       0x7c examples/light_switch/proxy_server/CMakeFiles/light_switch_proxy_server_nrf52832_xxAA_s132_6.0.0.dir/__/__/__/mesh/core/src/nrf_mesh.c.obj
                0x0002a948                nrf_mesh_packet_send
 .text.nrf_mesh_evt_handler_add
                0x0002a9c4        0x4 examples/light_switch/proxy_server/CMakeFiles/light_switch_proxy_server_nrf52832_xxAA_s132_6.0.0.dir/__/__/__/mesh/core/src/nrf_mesh.c.obj
                0x0002a9c4                nrf_mesh_evt_handler_add
 .text.nrf_mesh_on_sd_evt
                0x0002a9c8        0xa examples/light_switch/proxy_server/CMakeFiles/light_switch_proxy_server_nrf52832_xxAA_s132_6.0.0.dir/__/__/__/mesh/core/src/nrf_mesh.c.obj
                0x0002a9c8                nrf_mesh_on_sd_evt
 .text.nrf_mesh_subnet_added
                0x0002a9d2        0x4 examples/light_switch/proxy_server/CMakeFiles/light_switch_proxy_server_nrf52832_xxAA_s132_6.0.0.dir/__/__/__/mesh/core/src/nrf_mesh.c.obj
                0x0002a9d2                nrf_mesh_subnet_added
 .text.queue_init
                0x0002a9d6       0x14 examples/light_switch/proxy_server/CMakeFiles/light_switch_proxy_server_nrf52832_xxAA_s132_6.0.0.dir/__/__/__/mesh/core/src/queue.c.obj
                0x0002a9d6                queue_init
 .text.queue_push
                0x0002a9ea       0x34 examples/light_switch/proxy_server/CMakeFiles/light_switch_proxy_server_nrf52832_xxAA_s132_6.0.0.dir/__/__/__/mesh/core/src/queue.c.obj
                0x0002a9ea                queue_push
 .text.queue_pop
                0x0002aa1e       0x26 examples/light_switch/proxy_server/CMakeFiles/light_switch_proxy_server_nrf52832_xxAA_s132_6.0.0.dir/__/__/__/mesh/core/src/queue.c.obj
                0x0002aa1e                queue_pop
 .text.queue_peek
                0x0002aa44       0x10 examples/light_switch/proxy_server/CMakeFiles/light_switch_proxy_server_nrf52832_xxAA_s132_6.0.0.dir/__/__/__/mesh/core/src/queue.c.obj
                0x0002aa44                queue_peek
 .text.sd_power_reset_reason_clr
                0x0002aa54        0x4 examples/light_switch/proxy_server/CMakeFiles/light_switch_proxy_server_nrf52832_xxAA_s132_6.0.0.dir/__/__/__/mesh/core/src/hal.c.obj
 .text.sd_power_gpregret_set
                0x0002aa58        0x4 examples/light_switch/proxy_server/CMakeFiles/light_switch_proxy_server_nrf52832_xxAA_s132_6.0.0.dir/__/__/__/mesh/core/src/hal.c.obj
 .text.hal_device_reset
                0x0002aa5c       0x38 examples/light_switch/proxy_server/CMakeFiles/light_switch_proxy_server_nrf52832_xxAA_s132_6.0.0.dir/__/__/__/mesh/core/src/hal.c.obj
                0x0002aa5c                hal_device_reset
 .text.hal_lfclk_ppm_get
                0x0002aa94       0x14 examples/light_switch/proxy_server/CMakeFiles/light_switch_proxy_server_nrf52832_xxAA_s132_6.0.0.dir/__/__/__/mesh/core/src/hal.c.obj
                0x0002aa94                hal_lfclk_ppm_get
 .text.my_xor.constprop.1
                0x0002aaa8       0x20 examples/light_switch/proxy_server/CMakeFiles/light_switch_proxy_server_nrf52832_xxAA_s132_6.0.0.dir/__/__/__/mesh/core/src/aes_cmac.c.obj
 .text.utils_lshift.constprop.2
                0x0002aac8       0x24 examples/light_switch/proxy_server/CMakeFiles/light_switch_proxy_server_nrf52832_xxAA_s132_6.0.0.dir/__/__/__/mesh/core/src/aes_cmac.c.obj
 .text.aes_cmac_subkey_generate
                0x0002aaec       0x6c examples/light_switch/proxy_server/CMakeFiles/light_switch_proxy_server_nrf52832_xxAA_s132_6.0.0.dir/__/__/__/mesh/core/src/aes_cmac.c.obj
                0x0002aaec                aes_cmac_subkey_generate
 .text.aes_cmac
                0x0002ab58       0xbc examples/light_switch/proxy_server/CMakeFiles/light_switch_proxy_server_nrf52832_xxAA_s132_6.0.0.dir/__/__/__/mesh/core/src/aes_cmac.c.obj
                0x0002ab58                aes_cmac
 .text.add_to_add_list
                0x0002ac14       0x30 examples/light_switch/proxy_server/CMakeFiles/light_switch_proxy_server_nrf52832_xxAA_s132_6.0.0.dir/__/__/__/mesh/core/src/timer_scheduler.c.obj
 .text.process_dirty_events
                0x0002ac44       0x5c examples/light_switch/proxy_server/CMakeFiles/light_switch_proxy_server_nrf52832_xxAA_s132_6.0.0.dir/__/__/__/mesh/core/src/timer_scheduler.c.obj
 .text.timer_cb
                0x0002aca0        0xc examples/light_switch/proxy_server/CMakeFiles/light_switch_proxy_server_nrf52832_xxAA_s132_6.0.0.dir/__/__/__/mesh/core/src/timer_scheduler.c.obj
 .text.add_evt.constprop.1
                0x0002acac       0x58 examples/light_switch/proxy_server/CMakeFiles/light_switch_proxy_server_nrf52832_xxAA_s132_6.0.0.dir/__/__/__/mesh/core/src/timer_scheduler.c.obj
 .text.process_add_list
                0x0002ad04       0x3c examples/light_switch/proxy_server/CMakeFiles/light_switch_proxy_server_nrf52832_xxAA_s132_6.0.0.dir/__/__/__/mesh/core/src/timer_scheduler.c.obj
 .text.flag_event_cb
                0x0002ad40       0xd8 examples/light_switch/proxy_server/CMakeFiles/light_switch_proxy_server_nrf52832_xxAA_s132_6.0.0.dir/__/__/__/mesh/core/src/timer_scheduler.c.obj
 .text.timer_sch_init
                0x0002ae18       0x24 examples/light_switch/proxy_server/CMakeFiles/light_switch_proxy_server_nrf52832_xxAA_s132_6.0.0.dir/__/__/__/mesh/core/src/timer_scheduler.c.obj
                0x0002ae18                timer_sch_init
 .text.timer_sch_schedule
                0x0002ae3c       0x3c examples/light_switch/proxy_server/CMakeFiles/light_switch_proxy_server_nrf52832_xxAA_s132_6.0.0.dir/__/__/__/mesh/core/src/timer_scheduler.c.obj
                0x0002ae3c                timer_sch_schedule
 .text.timer_sch_abort
                0x0002ae78       0x58 examples/light_switch/proxy_server/CMakeFiles/light_switch_proxy_server_nrf52832_xxAA_s132_6.0.0.dir/__/__/__/mesh/core/src/timer_scheduler.c.obj
                0x0002ae78                timer_sch_abort
 .text.timer_sch_reschedule
                0x0002aed0       0x64 examples/light_switch/proxy_server/CMakeFiles/light_switch_proxy_server_nrf52832_xxAA_s132_6.0.0.dir/__/__/__/mesh/core/src/timer_scheduler.c.obj
                0x0002aed0                timer_sch_reschedule
 .text.timer_mut_unlock
                0x0002af34       0x10 examples/light_switch/proxy_server/CMakeFiles/light_switch_proxy_server_nrf52832_xxAA_s132_6.0.0.dir/__/__/__/mesh/core/src/timer.c.obj
 .text.timer_order_cb
                0x0002af44       0x94 examples/light_switch/proxy_server/CMakeFiles/light_switch_proxy_server_nrf52832_xxAA_s132_6.0.0.dir/__/__/__/mesh/core/src/timer.c.obj
                0x0002af44                timer_order_cb
 .text.timer_now
                0x0002afd8       0x48 examples/light_switch/proxy_server/CMakeFiles/light_switch_proxy_server_nrf52832_xxAA_s132_6.0.0.dir/__/__/__/mesh/core/src/timer.c.obj
                0x0002afd8                timer_now
 .text.timer_event_handler
                0x0002b020       0x84 examples/light_switch/proxy_server/CMakeFiles/light_switch_proxy_server_nrf52832_xxAA_s132_6.0.0.dir/__/__/__/mesh/core/src/timer.c.obj
                0x0002b020                timer_event_handler
 .text.timer_on_ts_begin
                0x0002b0a4       0xf4 examples/light_switch/proxy_server/CMakeFiles/light_switch_proxy_server_nrf52832_xxAA_s132_6.0.0.dir/__/__/__/mesh/core/src/timer.c.obj
                0x0002b0a4                timer_on_ts_begin
 .text.timer_on_ts_end
                0x0002b198       0x60 examples/light_switch/proxy_server/CMakeFiles/light_switch_proxy_server_nrf52832_xxAA_s132_6.0.0.dir/__/__/__/mesh/core/src/timer.c.obj
                0x0002b198                timer_on_ts_end
 .text.timer_cb
                0x0002b1f8       0x10 examples/light_switch/proxy_server/CMakeFiles/light_switch_proxy_server_nrf52832_xxAA_s132_6.0.0.dir/__/__/__/mesh/core/src/ticker.c.obj
 .text.ticker_init
                0x0002b208       0x3c examples/light_switch/proxy_server/CMakeFiles/light_switch_proxy_server_nrf52832_xxAA_s132_6.0.0.dir/__/__/__/mesh/core/src/ticker.c.obj
                0x0002b208                ticker_init
 .text.sd_rand_application_bytes_available_get
                0x0002b244        0x4 examples/light_switch/proxy_server/CMakeFiles/light_switch_proxy_server_nrf52832_xxAA_s132_6.0.0.dir/__/__/__/mesh/core/src/rand.c.obj
 .text.sd_rand_application_vector_get
                0x0002b248        0x4 examples/light_switch/proxy_server/CMakeFiles/light_switch_proxy_server_nrf52832_xxAA_s132_6.0.0.dir/__/__/__/mesh/core/src/rand.c.obj
 .text.rand_prng_get
                0x0002b24c       0x22 examples/light_switch/proxy_server/CMakeFiles/light_switch_proxy_server_nrf52832_xxAA_s132_6.0.0.dir/__/__/__/mesh/core/src/rand.c.obj
                0x0002b24c                rand_prng_get
 .text.rand_hw_rng_get
                0x0002b26e       0x44 examples/light_switch/proxy_server/CMakeFiles/light_switch_proxy_server_nrf52832_xxAA_s132_6.0.0.dir/__/__/__/mesh/core/src/rand.c.obj
                0x0002b26e                rand_hw_rng_get
 *fill*         0x0002b2b2        0x2 
 .text.rand_prng_seed
                0x0002b2b4       0x34 examples/light_switch/proxy_server/CMakeFiles/light_switch_proxy_server_nrf52832_xxAA_s132_6.0.0.dir/__/__/__/mesh/core/src/rand.c.obj
                0x0002b2b4                rand_prng_seed
 .text.nrf_mesh_opt_set
                0x0002b2e8       0x26 examples/light_switch/proxy_server/CMakeFiles/light_switch_proxy_server_nrf52832_xxAA_s132_6.0.0.dir/__/__/__/mesh/core/src/nrf_mesh_opt.c.obj
                0x0002b2e8                nrf_mesh_opt_set
 .text.nrf_mesh_opt_get
                0x0002b30e       0x26 examples/light_switch/proxy_server/CMakeFiles/light_switch_proxy_server_nrf52832_xxAA_s132_6.0.0.dir/__/__/__/mesh/core/src/nrf_mesh_opt.c.obj
                0x0002b30e                nrf_mesh_opt_get
 .text.sd_radio_session_open
                0x0002b334        0x4 examples/light_switch/proxy_server/CMakeFiles/light_switch_proxy_server_nrf52832_xxAA_s132_6.0.0.dir/__/__/__/mesh/core/src/timeslot.c.obj
 .text.sd_radio_session_close
                0x0002b338        0x4 examples/light_switch/proxy_server/CMakeFiles/light_switch_proxy_server_nrf52832_xxAA_s132_6.0.0.dir/__/__/__/mesh/core/src/timeslot.c.obj
 .text.sd_radio_request
                0x0002b33c        0x4 examples/light_switch/proxy_server/CMakeFiles/light_switch_proxy_server_nrf52832_xxAA_s132_6.0.0.dir/__/__/__/mesh/core/src/timeslot.c.obj
 .text.end_timer_handler
                0x0002b340       0x24 examples/light_switch/proxy_server/CMakeFiles/light_switch_proxy_server_nrf52832_xxAA_s132_6.0.0.dir/__/__/__/mesh/core/src/timeslot.c.obj
 .text.get_end_time.constprop.10
                0x0002b364       0x28 examples/light_switch/proxy_server/CMakeFiles/light_switch_proxy_server_nrf52832_xxAA_s132_6.0.0.dir/__/__/__/mesh/core/src/timeslot.c.obj
 .text.handle_extend_end.constprop.3
                0x0002b38c       0xb4 examples/light_switch/proxy_server/CMakeFiles/light_switch_proxy_server_nrf52832_xxAA_s132_6.0.0.dir/__/__/__/mesh/core/src/timeslot.c.obj
 .text.radio_signal_callback
                0x0002b440      0x138 examples/light_switch/proxy_server/CMakeFiles/light_switch_proxy_server_nrf52832_xxAA_s132_6.0.0.dir/__/__/__/mesh/core/src/timeslot.c.obj
 .text.timeslot_sd_event_handler
                0x0002b578       0x38 examples/light_switch/proxy_server/CMakeFiles/light_switch_proxy_server_nrf52832_xxAA_s132_6.0.0.dir/__/__/__/mesh/core/src/timeslot.c.obj
                0x0002b578                timeslot_sd_event_handler
 .text.timeslot_init
                0x0002b5b0       0x48 examples/light_switch/proxy_server/CMakeFiles/light_switch_proxy_server_nrf52832_xxAA_s132_6.0.0.dir/__/__/__/mesh/core/src/timeslot.c.obj
                0x0002b5b0                timeslot_init
 .text.timeslot_start
                0x0002b5f8       0x20 examples/light_switch/proxy_server/CMakeFiles/light_switch_proxy_server_nrf52832_xxAA_s132_6.0.0.dir/__/__/__/mesh/core/src/timeslot.c.obj
                0x0002b5f8                timeslot_start
 .text.timeslot_end_is_pending
                0x0002b618       0x24 examples/light_switch/proxy_server/CMakeFiles/light_switch_proxy_server_nrf52832_xxAA_s132_6.0.0.dir/__/__/__/mesh/core/src/timeslot.c.obj
                0x0002b618                timeslot_end_is_pending
 .text.timeslot_start_time_get
                0x0002b63c        0xc examples/light_switch/proxy_server/CMakeFiles/light_switch_proxy_server_nrf52832_xxAA_s132_6.0.0.dir/__/__/__/mesh/core/src/timeslot.c.obj
                0x0002b63c                timeslot_start_time_get
 .text.timeslot_remaining_time_get
                0x0002b648       0x20 examples/light_switch/proxy_server/CMakeFiles/light_switch_proxy_server_nrf52832_xxAA_s132_6.0.0.dir/__/__/__/mesh/core/src/timeslot.c.obj
                0x0002b648                timeslot_remaining_time_get
 .text.timeslot_is_in_cb
                0x0002b668        0xc examples/light_switch/proxy_server/CMakeFiles/light_switch_proxy_server_nrf52832_xxAA_s132_6.0.0.dir/__/__/__/mesh/core/src/timeslot.c.obj
                0x0002b668                timeslot_is_in_cb
 .text.timeslot_trigger
                0x0002b674       0x24 examples/light_switch/proxy_server/CMakeFiles/light_switch_proxy_server_nrf52832_xxAA_s132_6.0.0.dir/__/__/__/mesh/core/src/timeslot.c.obj
                0x0002b674                timeslot_trigger
 .text.timeslot_stop
                0x0002b698       0x10 examples/light_switch/proxy_server/CMakeFiles/light_switch_proxy_server_nrf52832_xxAA_s132_6.0.0.dir/__/__/__/mesh/core/src/timeslot.c.obj
                0x0002b698                timeslot_stop
 .text.timeslot_state_lock
                0x0002b6a8       0x28 examples/light_switch/proxy_server/CMakeFiles/light_switch_proxy_server_nrf52832_xxAA_s132_6.0.0.dir/__/__/__/mesh/core/src/timeslot.c.obj
                0x0002b6a8                timeslot_state_lock
 .text.trigger_event_handler
                0x0002b6d0       0x1c examples/light_switch/proxy_server/CMakeFiles/light_switch_proxy_server_nrf52832_xxAA_s132_6.0.0.dir/__/__/__/mesh/core/src/bearer_event.c.obj
 .text.evt_push
                0x0002b6ec       0x1c examples/light_switch/proxy_server/CMakeFiles/light_switch_proxy_server_nrf52832_xxAA_s132_6.0.0.dir/__/__/__/mesh/core/src/bearer_event.c.obj
 .text.bearer_event_init
                0x0002b708       0x48 examples/light_switch/proxy_server/CMakeFiles/light_switch_proxy_server_nrf52832_xxAA_s132_6.0.0.dir/__/__/__/mesh/core/src/bearer_event.c.obj
                0x0002b708                bearer_event_init
 .text.bearer_event_timer_post
                0x0002b750       0x24 examples/light_switch/proxy_server/CMakeFiles/light_switch_proxy_server_nrf52832_xxAA_s132_6.0.0.dir/__/__/__/mesh/core/src/bearer_event.c.obj
                0x0002b750                bearer_event_timer_post
 .text.bearer_event_critical_section_begin
                0x0002b774       0x44 examples/light_switch/proxy_server/CMakeFiles/light_switch_proxy_server_nrf52832_xxAA_s132_6.0.0.dir/__/__/__/mesh/core/src/bearer_event.c.obj
                0x0002b774                bearer_event_critical_section_begin
 .text.bearer_event_critical_section_end
                0x0002b7b8       0x40 examples/light_switch/proxy_server/CMakeFiles/light_switch_proxy_server_nrf52832_xxAA_s132_6.0.0.dir/__/__/__/mesh/core/src/bearer_event.c.obj
                0x0002b7b8                bearer_event_critical_section_end
 .text.bearer_event_flag_add
                0x0002b7f8       0x3c examples/light_switch/proxy_server/CMakeFiles/light_switch_proxy_server_nrf52832_xxAA_s132_6.0.0.dir/__/__/__/mesh/core/src/bearer_event.c.obj
                0x0002b7f8                bearer_event_flag_add
 .text.bearer_event_flag_set
                0x0002b834       0x44 examples/light_switch/proxy_server/CMakeFiles/light_switch_proxy_server_nrf52832_xxAA_s132_6.0.0.dir/__/__/__/mesh/core/src/bearer_event.c.obj
                0x0002b834                bearer_event_flag_set
 .text.bearer_event_sequential_add
                0x0002b878       0x2e examples/light_switch/proxy_server/CMakeFiles/light_switch_proxy_server_nrf52832_xxAA_s132_6.0.0.dir/__/__/__/mesh/core/src/bearer_event.c.obj
                0x0002b878                bearer_event_sequential_add
 *fill*         0x0002b8a6        0x2 
 .text.bearer_event_sequential_post
                0x0002b8a8       0x44 examples/light_switch/proxy_server/CMakeFiles/light_switch_proxy_server_nrf52832_xxAA_s132_6.0.0.dir/__/__/__/mesh/core/src/bearer_event.c.obj
                0x0002b8a8                bearer_event_sequential_post
 .text.bearer_event_sequential_pending
                0x0002b8ec       0x10 examples/light_switch/proxy_server/CMakeFiles/light_switch_proxy_server_nrf52832_xxAA_s132_6.0.0.dir/__/__/__/mesh/core/src/bearer_event.c.obj
                0x0002b8ec                bearer_event_sequential_pending
 .text.bearer_event_handler
                0x0002b8fc       0xe8 examples/light_switch/proxy_server/CMakeFiles/light_switch_proxy_server_nrf52832_xxAA_s132_6.0.0.dir/__/__/__/mesh/core/src/bearer_event.c.obj
                0x0002b8fc                bearer_event_handler
 .text.QDEC_IRQHandler
                0x0002b9e4        0x4 examples/light_switch/proxy_server/CMakeFiles/light_switch_proxy_server_nrf52832_xxAA_s132_6.0.0.dir/__/__/__/mesh/core/src/bearer_event.c.obj
                0x0002b9e4                QDEC_IRQHandler
 .text.enc_aes_encrypt
                0x0002b9e8        0x4 examples/light_switch/proxy_server/CMakeFiles/light_switch_proxy_server_nrf52832_xxAA_s132_6.0.0.dir/__/__/__/mesh/core/src/enc.c.obj
                0x0002b9e8                enc_aes_encrypt
 .text.enc_aes_cmac
                0x0002b9ec        0x4 examples/light_switch/proxy_server/CMakeFiles/light_switch_proxy_server_nrf52832_xxAA_s132_6.0.0.dir/__/__/__/mesh/core/src/enc.c.obj
                0x0002b9ec                enc_aes_cmac
 .text.enc_aes_ccm_encrypt
                0x0002b9f0        0x4 examples/light_switch/proxy_server/CMakeFiles/light_switch_proxy_server_nrf52832_xxAA_s132_6.0.0.dir/__/__/__/mesh/core/src/enc.c.obj
                0x0002b9f0                enc_aes_ccm_encrypt
 .text.enc_aes_ccm_decrypt
                0x0002b9f4        0x4 examples/light_switch/proxy_server/CMakeFiles/light_switch_proxy_server_nrf52832_xxAA_s132_6.0.0.dir/__/__/__/mesh/core/src/enc.c.obj
                0x0002b9f4                enc_aes_ccm_decrypt
 .text.enc_nonce_generate
                0x0002b9f8       0xbc examples/light_switch/proxy_server/CMakeFiles/light_switch_proxy_server_nrf52832_xxAA_s132_6.0.0.dir/__/__/__/mesh/core/src/enc.c.obj
                0x0002b9f8                enc_nonce_generate
 .text.enc_s1   0x0002bab4       0x2c examples/light_switch/proxy_server/CMakeFiles/light_switch_proxy_server_nrf52832_xxAA_s132_6.0.0.dir/__/__/__/mesh/core/src/enc.c.obj
                0x0002bab4                enc_s1
 .text.enc_k1   0x0002bae0       0x3c examples/light_switch/proxy_server/CMakeFiles/light_switch_proxy_server_nrf52832_xxAA_s132_6.0.0.dir/__/__/__/mesh/core/src/enc.c.obj
                0x0002bae0                enc_k1
 .text.enc_k2   0x0002bb1c       0xc8 examples/light_switch/proxy_server/CMakeFiles/light_switch_proxy_server_nrf52832_xxAA_s132_6.0.0.dir/__/__/__/mesh/core/src/enc.c.obj
                0x0002bb1c                enc_k2
 .text.enc_k3   0x0002bbe4       0x5c examples/light_switch/proxy_server/CMakeFiles/light_switch_proxy_server_nrf52832_xxAA_s132_6.0.0.dir/__/__/__/mesh/core/src/enc.c.obj
                0x0002bbe4                enc_k3
 .text.enc_k4   0x0002bc40       0x54 examples/light_switch/proxy_server/CMakeFiles/light_switch_proxy_server_nrf52832_xxAA_s132_6.0.0.dir/__/__/__/mesh/core/src/enc.c.obj
                0x0002bc40                enc_k4
 .text.allocate_packet
                0x0002bc94       0x6a examples/light_switch/proxy_server/CMakeFiles/light_switch_proxy_server_nrf52832_xxAA_s132_6.0.0.dir/__/__/__/mesh/core/src/network.c.obj
 *fill*         0x0002bcfe        0x2 
 .text.network_init
                0x0002bd00       0x2c examples/light_switch/proxy_server/CMakeFiles/light_switch_proxy_server_nrf52832_xxAA_s132_6.0.0.dir/__/__/__/mesh/core/src/network.c.obj
                0x0002bd00                network_init
 .text.network_opt_set
                0x0002bd2c       0x70 examples/light_switch/proxy_server/CMakeFiles/light_switch_proxy_server_nrf52832_xxAA_s132_6.0.0.dir/__/__/__/mesh/core/src/network.c.obj
                0x0002bd2c                network_opt_set
 .text.network_opt_get
                0x0002bd9c       0x4c examples/light_switch/proxy_server/CMakeFiles/light_switch_proxy_server_nrf52832_xxAA_s132_6.0.0.dir/__/__/__/mesh/core/src/network.c.obj
                0x0002bd9c                network_opt_get
 .text.network_packet_alloc
                0x0002bde8       0x30 examples/light_switch/proxy_server/CMakeFiles/light_switch_proxy_server_nrf52832_xxAA_s132_6.0.0.dir/__/__/__/mesh/core/src/network.c.obj
                0x0002bde8                network_packet_alloc
 .text.network_packet_send
                0x0002be18       0x46 examples/light_switch/proxy_server/CMakeFiles/light_switch_proxy_server_nrf52832_xxAA_s132_6.0.0.dir/__/__/__/mesh/core/src/network.c.obj
                0x0002be18                network_packet_send
 *fill*         0x0002be5e        0x2 
 .text.network_packet_in
                0x0002be60      0x170 examples/light_switch/proxy_server/CMakeFiles/light_switch_proxy_server_nrf52832_xxAA_s132_6.0.0.dir/__/__/__/mesh/core/src/network.c.obj
                0x0002be60                network_packet_in
 .text.nonce_type_get
                0x0002bfd0       0x16 examples/light_switch/proxy_server/CMakeFiles/light_switch_proxy_server_nrf52832_xxAA_s132_6.0.0.dir/__/__/__/mesh/core/src/net_packet.c.obj
 .text.header_transfuscate
                0x0002bfe6       0x54 examples/light_switch/proxy_server/CMakeFiles/light_switch_proxy_server_nrf52832_xxAA_s132_6.0.0.dir/__/__/__/mesh/core/src/net_packet.c.obj
 *fill*         0x0002c03a        0x2 
 .text.net_packet_decrypt
                0x0002c03c      0x224 examples/light_switch/proxy_server/CMakeFiles/light_switch_proxy_server_nrf52832_xxAA_s132_6.0.0.dir/__/__/__/mesh/core/src/net_packet.c.obj
                0x0002c03c                net_packet_decrypt
 .text.net_packet_encrypt
                0x0002c260       0x7e examples/light_switch/proxy_server/CMakeFiles/light_switch_proxy_server_nrf52832_xxAA_s132_6.0.0.dir/__/__/__/mesh/core/src/net_packet.c.obj
                0x0002c260                net_packet_encrypt
 .text.net_packet_header_set
                0x0002c2de       0xaa examples/light_switch/proxy_server/CMakeFiles/light_switch_proxy_server_nrf52832_xxAA_s132_6.0.0.dir/__/__/__/mesh/core/src/net_packet.c.obj
                0x0002c2de                net_packet_header_set
 .text.net_packet_payload_len_get
                0x0002c388       0x10 examples/light_switch/proxy_server/CMakeFiles/light_switch_proxy_server_nrf52832_xxAA_s132_6.0.0.dir/__/__/__/mesh/core/src/net_packet.c.obj
                0x0002c388                net_packet_payload_len_get
 .text.net_packet_from_payload
                0x0002c398        0x4 examples/light_switch/proxy_server/CMakeFiles/light_switch_proxy_server_nrf52832_xxAA_s132_6.0.0.dir/__/__/__/mesh/core/src/net_packet.c.obj
                0x0002c398                net_packet_from_payload
 .text.net_packet_payload_get
                0x0002c39c        0x4 examples/light_switch/proxy_server/CMakeFiles/light_switch_proxy_server_nrf52832_xxAA_s132_6.0.0.dir/__/__/__/mesh/core/src/net_packet.c.obj
                0x0002c39c                net_packet_payload_get
 .text.net_packet_obfuscation_start_get
                0x0002c3a0        0x4 examples/light_switch/proxy_server/CMakeFiles/light_switch_proxy_server_nrf52832_xxAA_s132_6.0.0.dir/__/__/__/mesh/core/src/net_packet.c.obj
                0x0002c3a0                net_packet_obfuscation_start_get
 .text.stage_get_available
                0x0002c3a4       0x24 examples/light_switch/proxy_server/CMakeFiles/light_switch_proxy_server_nrf52832_xxAA_s132_6.0.0.dir/__/__/__/mesh/core/src/msqueue.c.obj
 .text.msq_get  0x0002c3c8       0x38 examples/light_switch/proxy_server/CMakeFiles/light_switch_proxy_server_nrf52832_xxAA_s132_6.0.0.dir/__/__/__/mesh/core/src/msqueue.c.obj
                0x0002c3c8                msq_get
 .text.msq_move
                0x0002c400       0x2e examples/light_switch/proxy_server/CMakeFiles/light_switch_proxy_server_nrf52832_xxAA_s132_6.0.0.dir/__/__/__/mesh/core/src/msqueue.c.obj
                0x0002c400                msq_move
 .text.msq_reset
                0x0002c42e       0x20 examples/light_switch/proxy_server/CMakeFiles/light_switch_proxy_server_nrf52832_xxAA_s132_6.0.0.dir/__/__/__/mesh/core/src/msqueue.c.obj
                0x0002c42e                msq_reset
 .text.msq_init
                0x0002c44e       0x4a examples/light_switch/proxy_server/CMakeFiles/light_switch_proxy_server_nrf52832_xxAA_s132_6.0.0.dir/__/__/__/mesh/core/src/msqueue.c.obj
                0x0002c44e                msq_init
 .text.msq_available
                0x0002c498       0x26 examples/light_switch/proxy_server/CMakeFiles/light_switch_proxy_server_nrf52832_xxAA_s132_6.0.0.dir/__/__/__/mesh/core/src/msqueue.c.obj
                0x0002c498                msq_available
 .text.nrf_mesh_keygen_aid
                0x0002c4be       0x12 examples/light_switch/proxy_server/CMakeFiles/light_switch_proxy_server_nrf52832_xxAA_s132_6.0.0.dir/__/__/__/mesh/core/src/nrf_mesh_keygen.c.obj
                0x0002c4be                nrf_mesh_keygen_aid
 .text.nrf_mesh_keygen_network_secmat
                0x0002c4d0       0x20 examples/light_switch/proxy_server/CMakeFiles/light_switch_proxy_server_nrf52832_xxAA_s132_6.0.0.dir/__/__/__/mesh/core/src/nrf_mesh_keygen.c.obj
                0x0002c4d0                nrf_mesh_keygen_network_secmat
 .text.nrf_mesh_keygen_beacon_secmat
                0x0002c4f0       0x50 examples/light_switch/proxy_server/CMakeFiles/light_switch_proxy_server_nrf52832_xxAA_s132_6.0.0.dir/__/__/__/mesh/core/src/nrf_mesh_keygen.c.obj
                0x0002c4f0                nrf_mesh_keygen_beacon_secmat
 .text.nrf_mesh_keygen_identitykey
                0x0002c540       0x4c examples/light_switch/proxy_server/CMakeFiles/light_switch_proxy_server_nrf52832_xxAA_s132_6.0.0.dir/__/__/__/mesh/core/src/nrf_mesh_keygen.c.obj
                0x0002c540                nrf_mesh_keygen_identitykey
 .text.nrf_mesh_keygen_virtual_address
                0x0002c58c       0x50 examples/light_switch/proxy_server/CMakeFiles/light_switch_proxy_server_nrf52832_xxAA_s132_6.0.0.dir/__/__/__/mesh/core/src/nrf_mesh_keygen.c.obj
                0x0002c58c                nrf_mesh_keygen_virtual_address
 .text.erase_at
                0x0002c5dc       0x1c examples/light_switch/proxy_server/CMakeFiles/light_switch_proxy_server_nrf52832_xxAA_s132_6.0.0.dir/__/__/__/mesh/core/src/cache.c.obj
 .text.cache_init
                0x0002c5f8       0x1e examples/light_switch/proxy_server/CMakeFiles/light_switch_proxy_server_nrf52832_xxAA_s132_6.0.0.dir/__/__/__/mesh/core/src/cache.c.obj
                0x0002c5f8                cache_init
 .text.cache_has_elem
                0x0002c616       0x3e examples/light_switch/proxy_server/CMakeFiles/light_switch_proxy_server_nrf52832_xxAA_s132_6.0.0.dir/__/__/__/mesh/core/src/cache.c.obj
                0x0002c616                cache_has_elem
 .text.cache_put
                0x0002c654       0x2a examples/light_switch/proxy_server/CMakeFiles/light_switch_proxy_server_nrf52832_xxAA_s132_6.0.0.dir/__/__/__/mesh/core/src/cache.c.obj
                0x0002c654                cache_put
 .text.list_insert
                0x0002c67e       0x1c examples/light_switch/proxy_server/CMakeFiles/light_switch_proxy_server_nrf52832_xxAA_s132_6.0.0.dir/__/__/__/mesh/core/src/list.c.obj
 .text.list_add
                0x0002c69a       0x42 examples/light_switch/proxy_server/CMakeFiles/light_switch_proxy_server_nrf52832_xxAA_s132_6.0.0.dir/__/__/__/mesh/core/src/list.c.obj
                0x0002c69a                list_add
 .text.list_remove
                0x0002c6dc       0x3a examples/light_switch/proxy_server/CMakeFiles/light_switch_proxy_server_nrf52832_xxAA_s132_6.0.0.dir/__/__/__/mesh/core/src/list.c.obj
                0x0002c6dc                list_remove
 .text.list_compare_add
                0x0002c716       0x56 examples/light_switch/proxy_server/CMakeFiles/light_switch_proxy_server_nrf52832_xxAA_s132_6.0.0.dir/__/__/__/mesh/core/src/list.c.obj
                0x0002c716                list_compare_add
 .text.log_callback_rtt
                0x0002c76c       0x2c examples/light_switch/proxy_server/CMakeFiles/light_switch_proxy_server_nrf52832_xxAA_s132_6.0.0.dir/__/__/__/mesh/core/src/log.c.obj
                0x0002c76c                log_callback_rtt
 .text.log_init
                0x0002c798       0x1c examples/light_switch/proxy_server/CMakeFiles/light_switch_proxy_server_nrf52832_xxAA_s132_6.0.0.dir/__/__/__/mesh/core/src/log.c.obj
                0x0002c798                log_init
 .text.log_vprintf
                0x0002c7b4       0x18 examples/light_switch/proxy_server/CMakeFiles/light_switch_proxy_server_nrf52832_xxAA_s132_6.0.0.dir/__/__/__/mesh/core/src/log.c.obj
                0x0002c7b4                log_vprintf
 .text.log_printf
                0x0002c7cc       0x18 examples/light_switch/proxy_server/CMakeFiles/light_switch_proxy_server_nrf52832_xxAA_s132_6.0.0.dir/__/__/__/mesh/core/src/log.c.obj
                0x0002c7cc                log_printf
 .text.get_area_end
                0x0002c7e4        0xc examples/light_switch/proxy_server/CMakeFiles/light_switch_proxy_server_nrf52832_xxAA_s132_6.0.0.dir/__/__/__/mesh/core/src/flash_manager.c.obj
 .text.handle_matches_filter
                0x0002c7f0       0x26 examples/light_switch/proxy_server/CMakeFiles/light_switch_proxy_server_nrf52832_xxAA_s132_6.0.0.dir/__/__/__/mesh/core/src/flash_manager.c.obj
 .text.flash_area_is_blank
                0x0002c816       0x34 examples/light_switch/proxy_server/CMakeFiles/light_switch_proxy_server_nrf52832_xxAA_s132_6.0.0.dir/__/__/__/mesh/core/src/flash_manager.c.obj
 *fill*         0x0002c84a        0x2 
 .text.get_packet_buffer
                0x0002c84c       0x20 examples/light_switch/proxy_server/CMakeFiles/light_switch_proxy_server_nrf52832_xxAA_s132_6.0.0.dir/__/__/__/mesh/core/src/flash_manager.c.obj
 .text.flash    0x0002c86c       0x1c examples/light_switch/proxy_server/CMakeFiles/light_switch_proxy_server_nrf52832_xxAA_s132_6.0.0.dir/__/__/__/mesh/core/src/flash_manager.c.obj
 .text.free_packet_buffer
                0x0002c888       0x3c examples/light_switch/proxy_server/CMakeFiles/light_switch_proxy_server_nrf52832_xxAA_s132_6.0.0.dir/__/__/__/mesh/core/src/flash_manager.c.obj
 .text.reserve_action_buffer
                0x0002c8c4       0x24 examples/light_switch/proxy_server/CMakeFiles/light_switch_proxy_server_nrf52832_xxAA_s132_6.0.0.dir/__/__/__/mesh/core/src/flash_manager.c.obj
 .text.commit_action_buffer
                0x0002c8e8       0x18 examples/light_switch/proxy_server/CMakeFiles/light_switch_proxy_server_nrf52832_xxAA_s132_6.0.0.dir/__/__/__/mesh/core/src/flash_manager.c.obj
 .text.schedule_processing
                0x0002c900        0xc examples/light_switch/proxy_server/CMakeFiles/light_switch_proxy_server_nrf52832_xxAA_s132_6.0.0.dir/__/__/__/mesh/core/src/flash_manager.c.obj
 .text.get_next_entry
                0x0002c90c       0x34 examples/light_switch/proxy_server/CMakeFiles/light_switch_proxy_server_nrf52832_xxAA_s132_6.0.0.dir/__/__/__/mesh/core/src/flash_manager.c.obj
 .text.get_last_entry.isra.1
                0x0002c940       0x30 examples/light_switch/proxy_server/CMakeFiles/light_switch_proxy_server_nrf52832_xxAA_s132_6.0.0.dir/__/__/__/mesh/core/src/flash_manager.c.obj
 .text.process_action_queue
                0x0002c970      0x3b0 examples/light_switch/proxy_server/CMakeFiles/light_switch_proxy_server_nrf52832_xxAA_s132_6.0.0.dir/__/__/__/mesh/core/src/flash_manager.c.obj
 .text.flash_op_ended_callback
                0x0002cd20       0x24 examples/light_switch/proxy_server/CMakeFiles/light_switch_proxy_server_nrf52832_xxAA_s132_6.0.0.dir/__/__/__/mesh/core/src/flash_manager.c.obj
 .text.flash_manager_init
                0x0002cd44       0x68 examples/light_switch/proxy_server/CMakeFiles/light_switch_proxy_server_nrf52832_xxAA_s132_6.0.0.dir/__/__/__/mesh/core/src/flash_manager.c.obj
                0x0002cd44                flash_manager_init
 .text.flash_manager_remove
                0x0002cdac       0x24 examples/light_switch/proxy_server/CMakeFiles/light_switch_proxy_server_nrf52832_xxAA_s132_6.0.0.dir/__/__/__/mesh/core/src/flash_manager.c.obj
                0x0002cdac                flash_manager_remove
 .text.flash_manager_entry_get
                0x0002cdd0       0x3c examples/light_switch/proxy_server/CMakeFiles/light_switch_proxy_server_nrf52832_xxAA_s132_6.0.0.dir/__/__/__/mesh/core/src/flash_manager.c.obj
                0x0002cdd0                flash_manager_entry_get
 .text.flash_manager_entry_next_get
                0x0002ce0c       0x60 examples/light_switch/proxy_server/CMakeFiles/light_switch_proxy_server_nrf52832_xxAA_s132_6.0.0.dir/__/__/__/mesh/core/src/flash_manager.c.obj
                0x0002ce0c                flash_manager_entry_next_get
 .text.flash_manager_entry_alloc
                0x0002ce6c       0x5c examples/light_switch/proxy_server/CMakeFiles/light_switch_proxy_server_nrf52832_xxAA_s132_6.0.0.dir/__/__/__/mesh/core/src/flash_manager.c.obj
                0x0002ce6c                flash_manager_entry_alloc
 .text.flash_manager_entry_commit
                0x0002cec8       0x2c examples/light_switch/proxy_server/CMakeFiles/light_switch_proxy_server_nrf52832_xxAA_s132_6.0.0.dir/__/__/__/mesh/core/src/flash_manager.c.obj
                0x0002cec8                flash_manager_entry_commit
 .text.flash_manager_entry_invalidate
                0x0002cef4       0x4e examples/light_switch/proxy_server/CMakeFiles/light_switch_proxy_server_nrf52832_xxAA_s132_6.0.0.dir/__/__/__/mesh/core/src/flash_manager.c.obj
                0x0002cef4                flash_manager_entry_invalidate
 .text.flash_manager_add
                0x0002cf42      0x1f6 examples/light_switch/proxy_server/CMakeFiles/light_switch_proxy_server_nrf52832_xxAA_s132_6.0.0.dir/__/__/__/mesh/core/src/flash_manager.c.obj
                0x0002cf42                flash_manager_add
 .text.flash_manager_mem_listener_register
                0x0002d138       0x30 examples/light_switch/proxy_server/CMakeFiles/light_switch_proxy_server_nrf52832_xxAA_s132_6.0.0.dir/__/__/__/mesh/core/src/flash_manager.c.obj
                0x0002d138                flash_manager_mem_listener_register
 .text.flash_manager_is_stable
                0x0002d168       0x24 examples/light_switch/proxy_server/CMakeFiles/light_switch_proxy_server_nrf52832_xxAA_s132_6.0.0.dir/__/__/__/mesh/core/src/flash_manager.c.obj
                0x0002d168                flash_manager_is_stable
 .text.flash_manager_on_defrag_end
                0x0002d18c       0x4c examples/light_switch/proxy_server/CMakeFiles/light_switch_proxy_server_nrf52832_xxAA_s132_6.0.0.dir/__/__/__/mesh/core/src/flash_manager.c.obj
                0x0002d18c                flash_manager_on_defrag_end
 .text.flash_manager_recovery_page_get
                0x0002d1d8        0x4 examples/light_switch/proxy_server/CMakeFiles/light_switch_proxy_server_nrf52832_xxAA_s132_6.0.0.dir/__/__/__/mesh/core/src/flash_manager.c.obj
                0x0002d1d8                flash_manager_recovery_page_get
 .text.flash_manager_action_queue_empty_cb_set
                0x0002d1dc       0x1c examples/light_switch/proxy_server/CMakeFiles/light_switch_proxy_server_nrf52832_xxAA_s132_6.0.0.dir/__/__/__/mesh/core/src/flash_manager.c.obj
                0x0002d1dc                flash_manager_action_queue_empty_cb_set
 .text.utils_xor
                0x0002d1f8       0x14 examples/light_switch/proxy_server/CMakeFiles/light_switch_proxy_server_nrf52832_xxAA_s132_6.0.0.dir/__/__/__/mesh/core/src/ccm_soft.c.obj
 .text.ccm_soft_authenticate_blocks
                0x0002d20c       0x68 examples/light_switch/proxy_server/CMakeFiles/light_switch_proxy_server_nrf52832_xxAA_s132_6.0.0.dir/__/__/__/mesh/core/src/ccm_soft.c.obj
 .text.utils_reverse_memcpy.constprop.0
                0x0002d274        0xa examples/light_switch/proxy_server/CMakeFiles/light_switch_proxy_server_nrf52832_xxAA_s132_6.0.0.dir/__/__/__/mesh/core/src/ccm_soft.c.obj
 .text.ccm_soft_authenticate
                0x0002d27e       0xa0 examples/light_switch/proxy_server/CMakeFiles/light_switch_proxy_server_nrf52832_xxAA_s132_6.0.0.dir/__/__/__/mesh/core/src/ccm_soft.c.obj
 .text.ccm_soft_crypt
                0x0002d31e       0x6c examples/light_switch/proxy_server/CMakeFiles/light_switch_proxy_server_nrf52832_xxAA_s132_6.0.0.dir/__/__/__/mesh/core/src/ccm_soft.c.obj
 .text.ccm_soft_encrypt
                0x0002d38a       0x70 examples/light_switch/proxy_server/CMakeFiles/light_switch_proxy_server_nrf52832_xxAA_s132_6.0.0.dir/__/__/__/mesh/core/src/ccm_soft.c.obj
                0x0002d38a                ccm_soft_encrypt
 .text.ccm_soft_decrypt
                0x0002d3fa       0xfe examples/light_switch/proxy_server/CMakeFiles/light_switch_proxy_server_nrf52832_xxAA_s132_6.0.0.dir/__/__/__/mesh/core/src/ccm_soft.c.obj
                0x0002d3fa                ccm_soft_decrypt
 .text.replay_cache_add
                0x0002d4f8       0x50 examples/light_switch/proxy_server/CMakeFiles/light_switch_proxy_server_nrf52832_xxAA_s132_6.0.0.dir/__/__/__/mesh/core/src/replay_cache.c.obj
                0x0002d4f8                replay_cache_add
 .text.replay_cache_has_elem
                0x0002d548       0x38 examples/light_switch/proxy_server/CMakeFiles/light_switch_proxy_server_nrf52832_xxAA_s132_6.0.0.dir/__/__/__/mesh/core/src/replay_cache.c.obj
                0x0002d548                replay_cache_has_elem
 .text.replay_cache_clear
                0x0002d580       0x20 examples/light_switch/proxy_server/CMakeFiles/light_switch_proxy_server_nrf52832_xxAA_s132_6.0.0.dir/__/__/__/mesh/core/src/replay_cache.c.obj
                0x0002d580                replay_cache_clear
 .text.replay_cache_init
                0x0002d5a0        0x4 examples/light_switch/proxy_server/CMakeFiles/light_switch_proxy_server_nrf52832_xxAA_s132_6.0.0.dir/__/__/__/mesh/core/src/replay_cache.c.obj
                0x0002d5a0                replay_cache_init
 .text.beacon_create
                0x0002d5a4       0x46 examples/light_switch/proxy_server/CMakeFiles/light_switch_proxy_server_nrf52832_xxAA_s132_6.0.0.dir/__/__/__/mesh/core/src/beacon.c.obj
                0x0002d5a4                beacon_create
 *fill*         0x0002d5ea        0x2 
 .text.beacon_packet_in
                0x0002d5ec      0x154 examples/light_switch/proxy_server/CMakeFiles/light_switch_proxy_server_nrf52832_xxAA_s132_6.0.0.dir/__/__/__/mesh/core/src/beacon.c.obj
                0x0002d5ec                beacon_packet_in
 .text.entry_get
                0x0002d740       0x78 examples/light_switch/proxy_server/CMakeFiles/light_switch_proxy_server_nrf52832_xxAA_s132_6.0.0.dir/__/__/__/mesh/core/src/flash_manager_internal.c.obj
                0x0002d740                entry_get
 .text.core_tx_complete_cb_set
                0x0002d7b8        0xc examples/light_switch/proxy_server/CMakeFiles/light_switch_proxy_server_nrf52832_xxAA_s132_6.0.0.dir/__/__/__/mesh/core/src/core_tx.c.obj
                0x0002d7b8                core_tx_complete_cb_set
 .text.core_tx_packet_alloc
                0x0002d7c4       0x98 examples/light_switch/proxy_server/CMakeFiles/light_switch_proxy_server_nrf52832_xxAA_s132_6.0.0.dir/__/__/__/mesh/core/src/core_tx.c.obj
                0x0002d7c4                core_tx_packet_alloc
 .text.core_tx_packet_send
                0x0002d85c       0x4c examples/light_switch/proxy_server/CMakeFiles/light_switch_proxy_server_nrf52832_xxAA_s132_6.0.0.dir/__/__/__/mesh/core/src/core_tx.c.obj
                0x0002d85c                core_tx_packet_send
 .text.core_tx_packet_discard
                0x0002d8a8       0x40 examples/light_switch/proxy_server/CMakeFiles/light_switch_proxy_server_nrf52832_xxAA_s132_6.0.0.dir/__/__/__/mesh/core/src/core_tx.c.obj
                0x0002d8a8                core_tx_packet_discard
 .text.core_tx_complete
                0x0002d8e8       0x34 examples/light_switch/proxy_server/CMakeFiles/light_switch_proxy_server_nrf52832_xxAA_s132_6.0.0.dir/__/__/__/mesh/core/src/core_tx.c.obj
                0x0002d8e8                core_tx_complete
 .text.core_tx_bearer_add
                0x0002d91c       0x70 examples/light_switch/proxy_server/CMakeFiles/light_switch_proxy_server_nrf52832_xxAA_s132_6.0.0.dir/__/__/__/mesh/core/src/core_tx.c.obj
                0x0002d91c                core_tx_bearer_add
 .text.heartbeat_subscription_timer_cb
                0x0002d98c       0x1c examples/light_switch/proxy_server/CMakeFiles/light_switch_proxy_server_nrf52832_xxAA_s132_6.0.0.dir/__/__/__/mesh/core/src/heartbeat.c.obj
 .text.heartbeat_opcode_handle
                0x0002d9a8       0x88 examples/light_switch/proxy_server/CMakeFiles/light_switch_proxy_server_nrf52832_xxAA_s132_6.0.0.dir/__/__/__/mesh/core/src/heartbeat.c.obj
 .text.heartbeat_send
                0x0002da30       0xb0 examples/light_switch/proxy_server/CMakeFiles/light_switch_proxy_server_nrf52832_xxAA_s132_6.0.0.dir/__/__/__/mesh/core/src/heartbeat.c.obj
 .text.heartbeat_publication_timer_cb
                0x0002dae0       0xa8 examples/light_switch/proxy_server/CMakeFiles/light_switch_proxy_server_nrf52832_xxAA_s132_6.0.0.dir/__/__/__/mesh/core/src/heartbeat.c.obj
 .text.heartbeat_core_evt_cb
                0x0002db88       0x7c examples/light_switch/proxy_server/CMakeFiles/light_switch_proxy_server_nrf52832_xxAA_s132_6.0.0.dir/__/__/__/mesh/core/src/heartbeat.c.obj
 .text.heartbeat_on_feature_change_trigger
                0x0002dc04       0x44 examples/light_switch/proxy_server/CMakeFiles/light_switch_proxy_server_nrf52832_xxAA_s132_6.0.0.dir/__/__/__/mesh/core/src/heartbeat.c.obj
                0x0002dc04                heartbeat_on_feature_change_trigger
 .text.heartbeat_init
                0x0002dc48       0x78 examples/light_switch/proxy_server/CMakeFiles/light_switch_proxy_server_nrf52832_xxAA_s132_6.0.0.dir/__/__/__/mesh/core/src/heartbeat.c.obj
                0x0002dc48                heartbeat_init
 .text.heartbeat_subscription_set
                0x0002dcc0       0xa4 examples/light_switch/proxy_server/CMakeFiles/light_switch_proxy_server_nrf52832_xxAA_s132_6.0.0.dir/__/__/__/mesh/core/src/heartbeat.c.obj
                0x0002dcc0                heartbeat_subscription_set
 .text.heartbeat_subscription_get
                0x0002dd64        0x8 examples/light_switch/proxy_server/CMakeFiles/light_switch_proxy_server_nrf52832_xxAA_s132_6.0.0.dir/__/__/__/mesh/core/src/heartbeat.c.obj
                0x0002dd64                heartbeat_subscription_get
 .text.heartbeat_config_server_cb_set
                0x0002dd6c       0x28 examples/light_switch/proxy_server/CMakeFiles/light_switch_proxy_server_nrf52832_xxAA_s132_6.0.0.dir/__/__/__/mesh/core/src/heartbeat.c.obj
                0x0002dd6c                heartbeat_config_server_cb_set
 .text.heartbeat_publication_state_updated
                0x0002dd94       0x74 examples/light_switch/proxy_server/CMakeFiles/light_switch_proxy_server_nrf52832_xxAA_s132_6.0.0.dir/__/__/__/mesh/core/src/heartbeat.c.obj
                0x0002dd94                heartbeat_publication_state_updated
 .text.make_network_beacon_packet
                0x0002de08       0x50 examples/light_switch/proxy_server/CMakeFiles/light_switch_proxy_server_nrf52832_xxAA_s132_6.0.0.dir/__/__/__/mesh/core/src/net_beacon.c.obj
 .text.beacon_tx
                0x0002de58      0x12c examples/light_switch/proxy_server/CMakeFiles/light_switch_proxy_server_nrf52832_xxAA_s132_6.0.0.dir/__/__/__/mesh/core/src/net_beacon.c.obj
 .text.tx_complete_cb
                0x0002df84        0xe examples/light_switch/proxy_server/CMakeFiles/light_switch_proxy_server_nrf52832_xxAA_s132_6.0.0.dir/__/__/__/mesh/core/src/net_beacon.c.obj
 .text.beacon_tx_timeout
                0x0002df92        0x4 examples/light_switch/proxy_server/CMakeFiles/light_switch_proxy_server_nrf52832_xxAA_s132_6.0.0.dir/__/__/__/mesh/core/src/net_beacon.c.obj
 .text.is_valid_beacon_pkt.part.0
                0x0002df96       0x30 examples/light_switch/proxy_server/CMakeFiles/light_switch_proxy_server_nrf52832_xxAA_s132_6.0.0.dir/__/__/__/mesh/core/src/net_beacon.c.obj
 *fill*         0x0002dfc6        0x2 
 .text.net_beacon_init
                0x0002dfc8       0x94 examples/light_switch/proxy_server/CMakeFiles/light_switch_proxy_server_nrf52832_xxAA_s132_6.0.0.dir/__/__/__/mesh/core/src/net_beacon.c.obj
                0x0002dfc8                net_beacon_init
 .text.net_beacon_state_set
                0x0002e05c       0x34 examples/light_switch/proxy_server/CMakeFiles/light_switch_proxy_server_nrf52832_xxAA_s132_6.0.0.dir/__/__/__/mesh/core/src/net_beacon.c.obj
                0x0002e05c                net_beacon_state_set
 .text.net_beacon_state_get
                0x0002e090        0xc examples/light_switch/proxy_server/CMakeFiles/light_switch_proxy_server_nrf52832_xxAA_s132_6.0.0.dir/__/__/__/mesh/core/src/net_beacon.c.obj
                0x0002e090                net_beacon_state_get
 .text.net_beacon_build
                0x0002e09c       0x24 examples/light_switch/proxy_server/CMakeFiles/light_switch_proxy_server_nrf52832_xxAA_s132_6.0.0.dir/__/__/__/mesh/core/src/net_beacon.c.obj
                0x0002e09c                net_beacon_build
 .text.net_beacon_packet_in
                0x0002e0c0       0xf2 examples/light_switch/proxy_server/CMakeFiles/light_switch_proxy_server_nrf52832_xxAA_s132_6.0.0.dir/__/__/__/mesh/core/src/net_beacon.c.obj
                0x0002e0c0                net_beacon_packet_in
 *fill*         0x0002e1b2        0x2 
 .text.fsm_event_post_try
                0x0002e1b4      0x1ec examples/light_switch/proxy_server/CMakeFiles/light_switch_proxy_server_nrf52832_xxAA_s132_6.0.0.dir/__/__/__/mesh/core/src/fsm.c.obj
 .text.fsm_init
                0x0002e3a0       0xcc examples/light_switch/proxy_server/CMakeFiles/light_switch_proxy_server_nrf52832_xxAA_s132_6.0.0.dir/__/__/__/mesh/core/src/fsm.c.obj
                0x0002e3a0                fsm_init
 .text.fsm_event_post
                0x0002e46c       0xac examples/light_switch/proxy_server/CMakeFiles/light_switch_proxy_server_nrf52832_xxAA_s132_6.0.0.dir/__/__/__/mesh/core/src/fsm.c.obj
                0x0002e46c                fsm_event_post
 .text.fsm_is_processing
                0x0002e518        0xa examples/light_switch/proxy_server/CMakeFiles/light_switch_proxy_server_nrf52832_xxAA_s132_6.0.0.dir/__/__/__/mesh/core/src/fsm.c.obj
                0x0002e518                fsm_is_processing
 *fill*         0x0002e522        0x2 
 .text.packet_discard
                0x0002e524       0x40 examples/light_switch/proxy_server/CMakeFiles/light_switch_proxy_server_nrf52832_xxAA_s132_6.0.0.dir/__/__/__/mesh/core/src/core_tx_adv.c.obj
 .text.packet_send
                0x0002e564       0x58 examples/light_switch/proxy_server/CMakeFiles/light_switch_proxy_server_nrf52832_xxAA_s132_6.0.0.dir/__/__/__/mesh/core/src/core_tx_adv.c.obj
 .text.packet_alloc
                0x0002e5bc       0x58 examples/light_switch/proxy_server/CMakeFiles/light_switch_proxy_server_nrf52832_xxAA_s132_6.0.0.dir/__/__/__/mesh/core/src/core_tx_adv.c.obj
 .text.adv_tx_complete_callback
                0x0002e614       0x20 examples/light_switch/proxy_server/CMakeFiles/light_switch_proxy_server_nrf52832_xxAA_s132_6.0.0.dir/__/__/__/mesh/core/src/core_tx_adv.c.obj
 .text.core_tx_adv_init
                0x0002e634       0x60 examples/light_switch/proxy_server/CMakeFiles/light_switch_proxy_server_nrf52832_xxAA_s132_6.0.0.dir/__/__/__/mesh/core/src/core_tx_adv.c.obj
                0x0002e634                core_tx_adv_init
 .text.core_tx_adv_count_set
                0x0002e694       0x28 examples/light_switch/proxy_server/CMakeFiles/light_switch_proxy_server_nrf52832_xxAA_s132_6.0.0.dir/__/__/__/mesh/core/src/core_tx_adv.c.obj
                0x0002e694                core_tx_adv_count_set
 .text.core_tx_adv_count_get
                0x0002e6bc       0x1c examples/light_switch/proxy_server/CMakeFiles/light_switch_proxy_server_nrf52832_xxAA_s132_6.0.0.dir/__/__/__/mesh/core/src/core_tx_adv.c.obj
                0x0002e6bc                core_tx_adv_count_get
 .text.core_tx_adv_interval_set
                0x0002e6d8       0x28 examples/light_switch/proxy_server/CMakeFiles/light_switch_proxy_server_nrf52832_xxAA_s132_6.0.0.dir/__/__/__/mesh/core/src/core_tx_adv.c.obj
                0x0002e6d8                core_tx_adv_interval_set
 .text.core_tx_adv_interval_get
                0x0002e700       0x28 examples/light_switch/proxy_server/CMakeFiles/light_switch_proxy_server_nrf52832_xxAA_s132_6.0.0.dir/__/__/__/mesh/core/src/core_tx_adv.c.obj
                0x0002e700                core_tx_adv_interval_get
 .text.ad_listener_subscribe
                0x0002e728       0x5c examples/light_switch/proxy_server/CMakeFiles/light_switch_proxy_server_nrf52832_xxAA_s132_6.0.0.dir/__/__/__/mesh/bearer/src/ad_listener.c.obj
                0x0002e728                ad_listener_subscribe
 .text.ad_listener_process
                0x0002e784       0x64 examples/light_switch/proxy_server/CMakeFiles/light_switch_proxy_server_nrf52832_xxAA_s132_6.0.0.dir/__/__/__/mesh/bearer/src/ad_listener.c.obj
                0x0002e784                ad_listener_process
 .text.adtype_filter_handle
                0x0002e7e8       0x64 examples/light_switch/proxy_server/CMakeFiles/light_switch_proxy_server_nrf52832_xxAA_s132_6.0.0.dir/__/__/__/mesh/bearer/src/ad_type_filter.c.obj
 .text.bearer_adtype_filtering_set
                0x0002e84c       0x1c examples/light_switch/proxy_server/CMakeFiles/light_switch_proxy_server_nrf52832_xxAA_s132_6.0.0.dir/__/__/__/mesh/bearer/src/ad_type_filter.c.obj
                0x0002e84c                bearer_adtype_filtering_set
 .text.bearer_adtype_add
                0x0002e868       0x20 examples/light_switch/proxy_server/CMakeFiles/light_switch_proxy_server_nrf52832_xxAA_s132_6.0.0.dir/__/__/__/mesh/bearer/src/ad_type_filter.c.obj
                0x0002e868                bearer_adtype_add
 .text.bearer_adtype_mode_set
                0x0002e888       0x18 examples/light_switch/proxy_server/CMakeFiles/light_switch_proxy_server_nrf52832_xxAA_s132_6.0.0.dir/__/__/__/mesh/bearer/src/ad_type_filter.c.obj
                0x0002e888                bearer_adtype_mode_set
 .text.tx_complete_event_callback
                0x0002e8a0       0x28 examples/light_switch/proxy_server/CMakeFiles/light_switch_proxy_server_nrf52832_xxAA_s132_6.0.0.dir/__/__/__/mesh/bearer/src/advertiser.c.obj
 .text.set_gap_addr_type
                0x0002e8c8       0x26 examples/light_switch/proxy_server/CMakeFiles/light_switch_proxy_server_nrf52832_xxAA_s132_6.0.0.dir/__/__/__/mesh/bearer/src/advertiser.c.obj
 .text.broadcast_complete_cb
                0x0002e8ee       0x46 examples/light_switch/proxy_server/CMakeFiles/light_switch_proxy_server_nrf52832_xxAA_s132_6.0.0.dir/__/__/__/mesh/bearer/src/advertiser.c.obj
 .text.schedule_first_time
                0x0002e934       0x28 examples/light_switch/proxy_server/CMakeFiles/light_switch_proxy_server_nrf52832_xxAA_s132_6.0.0.dir/__/__/__/mesh/bearer/src/advertiser.c.obj
 .text.timeout_event
                0x0002e95c      0x10c examples/light_switch/proxy_server/CMakeFiles/light_switch_proxy_server_nrf52832_xxAA_s132_6.0.0.dir/__/__/__/mesh/bearer/src/advertiser.c.obj
 .text.advertiser_init
                0x0002ea68        0xc examples/light_switch/proxy_server/CMakeFiles/light_switch_proxy_server_nrf52832_xxAA_s132_6.0.0.dir/__/__/__/mesh/bearer/src/advertiser.c.obj
                0x0002ea68                advertiser_init
 .text.advertiser_enable
                0x0002ea74       0x2a examples/light_switch/proxy_server/CMakeFiles/light_switch_proxy_server_nrf52832_xxAA_s132_6.0.0.dir/__/__/__/mesh/bearer/src/advertiser.c.obj
                0x0002ea74                advertiser_enable
 .text.advertiser_packet_alloc
                0x0002ea9e       0x76 examples/light_switch/proxy_server/CMakeFiles/light_switch_proxy_server_nrf52832_xxAA_s132_6.0.0.dir/__/__/__/mesh/bearer/src/advertiser.c.obj
                0x0002ea9e                advertiser_packet_alloc
 .text.advertiser_packet_send
                0x0002eb14       0x62 examples/light_switch/proxy_server/CMakeFiles/light_switch_proxy_server_nrf52832_xxAA_s132_6.0.0.dir/__/__/__/mesh/bearer/src/advertiser.c.obj
                0x0002eb14                advertiser_packet_send
 .text.advertiser_packet_discard
                0x0002eb76       0x1e examples/light_switch/proxy_server/CMakeFiles/light_switch_proxy_server_nrf52832_xxAA_s132_6.0.0.dir/__/__/__/mesh/bearer/src/advertiser.c.obj
                0x0002eb76                advertiser_packet_discard
 .text.advertiser_interval_set
                0x0002eb94       0x54 examples/light_switch/proxy_server/CMakeFiles/light_switch_proxy_server_nrf52832_xxAA_s132_6.0.0.dir/__/__/__/mesh/bearer/src/advertiser.c.obj
                0x0002eb94                advertiser_interval_set
 .text.advertiser_flush
                0x0002ebe8       0x1e examples/light_switch/proxy_server/CMakeFiles/light_switch_proxy_server_nrf52832_xxAA_s132_6.0.0.dir/__/__/__/mesh/bearer/src/advertiser.c.obj
                0x0002ebe8                advertiser_flush
 *fill*         0x0002ec06        0x2 
 .text.advertiser_address_default_get
                0x0002ec08       0x38 examples/light_switch/proxy_server/CMakeFiles/light_switch_proxy_server_nrf52832_xxAA_s132_6.0.0.dir/__/__/__/mesh/bearer/src/advertiser.c.obj
                0x0002ec08                advertiser_address_default_get
 .text.advertiser_instance_init
                0x0002ec40       0xa4 examples/light_switch/proxy_server/CMakeFiles/light_switch_proxy_server_nrf52832_xxAA_s132_6.0.0.dir/__/__/__/mesh/bearer/src/advertiser.c.obj
                0x0002ec40                advertiser_instance_init
 .text.action_switch
                0x0002ece4       0xb4 examples/light_switch/proxy_server/CMakeFiles/light_switch_proxy_server_nrf52832_xxAA_s132_6.0.0.dir/__/__/__/mesh/bearer/src/bearer_handler.c.obj
 .text.bearer_handler_init
                0x0002ed98       0x2c examples/light_switch/proxy_server/CMakeFiles/light_switch_proxy_server_nrf52832_xxAA_s132_6.0.0.dir/__/__/__/mesh/bearer/src/bearer_handler.c.obj
                0x0002ed98                bearer_handler_init
 .text.bearer_handler_start
                0x0002edc4       0x1c examples/light_switch/proxy_server/CMakeFiles/light_switch_proxy_server_nrf52832_xxAA_s132_6.0.0.dir/__/__/__/mesh/bearer/src/bearer_handler.c.obj
                0x0002edc4                bearer_handler_start
 .text.bearer_handler_stop
                0x0002ede0       0x20 examples/light_switch/proxy_server/CMakeFiles/light_switch_proxy_server_nrf52832_xxAA_s132_6.0.0.dir/__/__/__/mesh/bearer/src/bearer_handler.c.obj
                0x0002ede0                bearer_handler_stop
 .text.bearer_handler_action_enqueue
                0x0002ee00       0x6c examples/light_switch/proxy_server/CMakeFiles/light_switch_proxy_server_nrf52832_xxAA_s132_6.0.0.dir/__/__/__/mesh/bearer/src/bearer_handler.c.obj
                0x0002ee00                bearer_handler_action_enqueue
 .text.bearer_handler_action_end
                0x0002ee6c       0x5c examples/light_switch/proxy_server/CMakeFiles/light_switch_proxy_server_nrf52832_xxAA_s132_6.0.0.dir/__/__/__/mesh/bearer/src/bearer_handler.c.obj
                0x0002ee6c                bearer_handler_action_end
 .text.bearer_handler_radio_irq_handler
                0x0002eec8       0x48 examples/light_switch/proxy_server/CMakeFiles/light_switch_proxy_server_nrf52832_xxAA_s132_6.0.0.dir/__/__/__/mesh/bearer/src/bearer_handler.c.obj
                0x0002eec8                bearer_handler_radio_irq_handler
 .text.bearer_handler_timer_irq_handler
                0x0002ef10       0x24 examples/light_switch/proxy_server/CMakeFiles/light_switch_proxy_server_nrf52832_xxAA_s132_6.0.0.dir/__/__/__/mesh/bearer/src/bearer_handler.c.obj
                0x0002ef10                bearer_handler_timer_irq_handler
 .text.bearer_handler_on_ts_begin
                0x0002ef34       0x30 examples/light_switch/proxy_server/CMakeFiles/light_switch_proxy_server_nrf52832_xxAA_s132_6.0.0.dir/__/__/__/mesh/bearer/src/bearer_handler.c.obj
                0x0002ef34                bearer_handler_on_ts_begin
 .text.bearer_handler_on_ts_end
                0x0002ef64       0x34 examples/light_switch/proxy_server/CMakeFiles/light_switch_proxy_server_nrf52832_xxAA_s132_6.0.0.dir/__/__/__/mesh/bearer/src/bearer_handler.c.obj
                0x0002ef64                bearer_handler_on_ts_end
 .text.radio_irq_handler
                0x0002ef98       0x94 examples/light_switch/proxy_server/CMakeFiles/light_switch_proxy_server_nrf52832_xxAA_s132_6.0.0.dir/__/__/__/mesh/bearer/src/broadcast.c.obj
 .text.broadcast_start
                0x0002f02c       0x8c examples/light_switch/proxy_server/CMakeFiles/light_switch_proxy_server_nrf52832_xxAA_s132_6.0.0.dir/__/__/__/mesh/bearer/src/broadcast.c.obj
 .text.broadcast_send
                0x0002f0b8       0x6c examples/light_switch/proxy_server/CMakeFiles/light_switch_proxy_server_nrf52832_xxAA_s132_6.0.0.dir/__/__/__/mesh/bearer/src/broadcast.c.obj
                0x0002f0b8                broadcast_send
 .text.fen_filter_start
                0x0002f124       0x28 examples/light_switch/proxy_server/CMakeFiles/light_switch_proxy_server_nrf52832_xxAA_s132_6.0.0.dir/__/__/__/mesh/bearer/src/filter_engine.c.obj
                0x0002f124                fen_filter_start
 .text.fen_filter_stop
                0x0002f14c       0x20 examples/light_switch/proxy_server/CMakeFiles/light_switch_proxy_server_nrf52832_xxAA_s132_6.0.0.dir/__/__/__/mesh/bearer/src/filter_engine.c.obj
                0x0002f14c                fen_filter_stop
 .text.fen_filters_apply
                0x0002f16c       0x34 examples/light_switch/proxy_server/CMakeFiles/light_switch_proxy_server_nrf52832_xxAA_s132_6.0.0.dir/__/__/__/mesh/bearer/src/filter_engine.c.obj
                0x0002f16c                fen_filters_apply
 .text.radio_config_reset
                0x0002f1a0       0x34 examples/light_switch/proxy_server/CMakeFiles/light_switch_proxy_server_nrf52832_xxAA_s132_6.0.0.dir/__/__/__/mesh/bearer/src/radio_config.c.obj
                0x0002f1a0                radio_config_reset
 .text.radio_config_channel_set
                0x0002f1d4       0x28 examples/light_switch/proxy_server/CMakeFiles/light_switch_proxy_server_nrf52832_xxAA_s132_6.0.0.dir/__/__/__/mesh/bearer/src/radio_config.c.obj
                0x0002f1d4                radio_config_channel_set
 .text.radio_config_config
                0x0002f1fc       0x90 examples/light_switch/proxy_server/CMakeFiles/light_switch_proxy_server_nrf52832_xxAA_s132_6.0.0.dir/__/__/__/mesh/bearer/src/radio_config.c.obj
                0x0002f1fc                radio_config_config
 .text.radio_config_access_addr_set
                0x0002f28c       0x50 examples/light_switch/proxy_server/CMakeFiles/light_switch_proxy_server_nrf52832_xxAA_s132_6.0.0.dir/__/__/__/mesh/bearer/src/radio_config.c.obj
                0x0002f28c                radio_config_access_addr_set
 .text.radio_trigger
                0x0002f2dc       0x24 examples/light_switch/proxy_server/CMakeFiles/light_switch_proxy_server_nrf52832_xxAA_s132_6.0.0.dir/__/__/__/mesh/bearer/src/scanner.c.obj
 .text.scan_window_end
                0x0002f300       0x10 examples/light_switch/proxy_server/CMakeFiles/light_switch_proxy_server_nrf52832_xxAA_s132_6.0.0.dir/__/__/__/mesh/bearer/src/scanner.c.obj
 .text.scan_window_start
                0x0002f310       0x24 examples/light_switch/proxy_server/CMakeFiles/light_switch_proxy_server_nrf52832_xxAA_s132_6.0.0.dir/__/__/__/mesh/bearer/src/scanner.c.obj
 .text.radio_configure
                0x0002f334       0x78 examples/light_switch/proxy_server/CMakeFiles/light_switch_proxy_server_nrf52832_xxAA_s132_6.0.0.dir/__/__/__/mesh/bearer/src/scanner.c.obj
 .text.radio_set_packet
                0x0002f3ac       0x44 examples/light_switch/proxy_server/CMakeFiles/light_switch_proxy_server_nrf52832_xxAA_s132_6.0.0.dir/__/__/__/mesh/bearer/src/scanner.c.obj
 .text.radio_start
                0x0002f3f0       0x40 examples/light_switch/proxy_server/CMakeFiles/light_switch_proxy_server_nrf52832_xxAA_s132_6.0.0.dir/__/__/__/mesh/bearer/src/scanner.c.obj
 .text.radio_stop
                0x0002f430       0x30 examples/light_switch/proxy_server/CMakeFiles/light_switch_proxy_server_nrf52832_xxAA_s132_6.0.0.dir/__/__/__/mesh/bearer/src/scanner.c.obj
 .text.schedule_timers
                0x0002f460       0x38 examples/light_switch/proxy_server/CMakeFiles/light_switch_proxy_server_nrf52832_xxAA_s132_6.0.0.dir/__/__/__/mesh/bearer/src/scanner.c.obj
 .text.scanner_radio_start
                0x0002f498       0x28 examples/light_switch/proxy_server/CMakeFiles/light_switch_proxy_server_nrf52832_xxAA_s132_6.0.0.dir/__/__/__/mesh/bearer/src/scanner.c.obj
                0x0002f498                scanner_radio_start
 .text.scanner_radio_stop
                0x0002f4c0       0x10 examples/light_switch/proxy_server/CMakeFiles/light_switch_proxy_server_nrf52832_xxAA_s132_6.0.0.dir/__/__/__/mesh/bearer/src/scanner.c.obj
                0x0002f4c0                scanner_radio_stop
 .text.scanner_radio_irq_handler
                0x0002f4d0      0x130 examples/light_switch/proxy_server/CMakeFiles/light_switch_proxy_server_nrf52832_xxAA_s132_6.0.0.dir/__/__/__/mesh/bearer/src/scanner.c.obj
                0x0002f4d0                scanner_radio_irq_handler
 .text.scanner_enable
                0x0002f600       0x24 examples/light_switch/proxy_server/CMakeFiles/light_switch_proxy_server_nrf52832_xxAA_s132_6.0.0.dir/__/__/__/mesh/bearer/src/scanner.c.obj
                0x0002f600                scanner_enable
 .text.scanner_disable
                0x0002f624       0x3c examples/light_switch/proxy_server/CMakeFiles/light_switch_proxy_server_nrf52832_xxAA_s132_6.0.0.dir/__/__/__/mesh/bearer/src/scanner.c.obj
                0x0002f624                scanner_disable
 .text.scanner_packet_release
                0x0002f660       0x2c examples/light_switch/proxy_server/CMakeFiles/light_switch_proxy_server_nrf52832_xxAA_s132_6.0.0.dir/__/__/__/mesh/bearer/src/scanner.c.obj
                0x0002f660                scanner_packet_release
 .text.scanner_rx
                0x0002f68c       0x30 examples/light_switch/proxy_server/CMakeFiles/light_switch_proxy_server_nrf52832_xxAA_s132_6.0.0.dir/__/__/__/mesh/bearer/src/scanner.c.obj
                0x0002f68c                scanner_rx
 .text.scanner_rx_pending
                0x0002f6bc        0xc examples/light_switch/proxy_server/CMakeFiles/light_switch_proxy_server_nrf52832_xxAA_s132_6.0.0.dir/__/__/__/mesh/bearer/src/scanner.c.obj
                0x0002f6bc                scanner_rx_pending
 .text.scanner_config_scan_time_set
                0x0002f6c8       0x4c examples/light_switch/proxy_server/CMakeFiles/light_switch_proxy_server_nrf52832_xxAA_s132_6.0.0.dir/__/__/__/mesh/bearer/src/scanner.c.obj
                0x0002f6c8                scanner_config_scan_time_set
 .text.scanner_config_channels_set
                0x0002f714       0x50 examples/light_switch/proxy_server/CMakeFiles/light_switch_proxy_server_nrf52832_xxAA_s132_6.0.0.dir/__/__/__/mesh/bearer/src/scanner.c.obj
                0x0002f714                scanner_config_channels_set
 .text.scanner_config_access_addresses_set
                0x0002f764       0x38 examples/light_switch/proxy_server/CMakeFiles/light_switch_proxy_server_nrf52832_xxAA_s132_6.0.0.dir/__/__/__/mesh/bearer/src/scanner.c.obj
                0x0002f764                scanner_config_access_addresses_set
 .text.scanner_config_reset
                0x0002f79c       0x50 examples/light_switch/proxy_server/CMakeFiles/light_switch_proxy_server_nrf52832_xxAA_s132_6.0.0.dir/__/__/__/mesh/bearer/src/scanner.c.obj
                0x0002f79c                scanner_config_reset
 .text.scanner_init
                0x0002f7ec       0x54 examples/light_switch/proxy_server/CMakeFiles/light_switch_proxy_server_nrf52832_xxAA_s132_6.0.0.dir/__/__/__/mesh/bearer/src/scanner.c.obj
                0x0002f7ec                scanner_init
 .text.sd_ble_gap_disconnect
                0x0002f840        0x4 examples/light_switch/proxy_server/CMakeFiles/light_switch_proxy_server_nrf52832_xxAA_s132_6.0.0.dir/__/__/__/mesh/gatt/src/mesh_gatt.c.obj
 .text.sd_ble_gap_sec_params_reply
                0x0002f844        0x4 examples/light_switch/proxy_server/CMakeFiles/light_switch_proxy_server_nrf52832_xxAA_s132_6.0.0.dir/__/__/__/mesh/gatt/src/mesh_gatt.c.obj
 .text.sd_ble_gap_phy_update
                0x0002f848        0x4 examples/light_switch/proxy_server/CMakeFiles/light_switch_proxy_server_nrf52832_xxAA_s132_6.0.0.dir/__/__/__/mesh/gatt/src/mesh_gatt.c.obj
 .text.sd_ble_gap_data_length_update
                0x0002f84c        0x4 examples/light_switch/proxy_server/CMakeFiles/light_switch_proxy_server_nrf52832_xxAA_s132_6.0.0.dir/__/__/__/mesh/gatt/src/mesh_gatt.c.obj
 .text.sd_ble_gatts_service_add
                0x0002f850        0x4 examples/light_switch/proxy_server/CMakeFiles/light_switch_proxy_server_nrf52832_xxAA_s132_6.0.0.dir/__/__/__/mesh/gatt/src/mesh_gatt.c.obj
 .text.sd_ble_gatts_characteristic_add
                0x0002f854        0x4 examples/light_switch/proxy_server/CMakeFiles/light_switch_proxy_server_nrf52832_xxAA_s132_6.0.0.dir/__/__/__/mesh/gatt/src/mesh_gatt.c.obj
 .text.sd_ble_gatts_hvx
                0x0002f858        0x4 examples/light_switch/proxy_server/CMakeFiles/light_switch_proxy_server_nrf52832_xxAA_s132_6.0.0.dir/__/__/__/mesh/gatt/src/mesh_gatt.c.obj
 .text.sd_ble_gatts_service_changed
                0x0002f85c        0x4 examples/light_switch/proxy_server/CMakeFiles/light_switch_proxy_server_nrf52832_xxAA_s132_6.0.0.dir/__/__/__/mesh/gatt/src/mesh_gatt.c.obj
 .text.sd_ble_gatts_sys_attr_set
                0x0002f860        0x4 examples/light_switch/proxy_server/CMakeFiles/light_switch_proxy_server_nrf52832_xxAA_s132_6.0.0.dir/__/__/__/mesh/gatt/src/mesh_gatt.c.obj
 .text.sd_ble_gatts_exchange_mtu_reply
                0x0002f864        0x4 examples/light_switch/proxy_server/CMakeFiles/light_switch_proxy_server_nrf52832_xxAA_s132_6.0.0.dir/__/__/__/mesh/gatt/src/mesh_gatt.c.obj
 .text.conn_handle_to_index
                0x0002f868       0x14 examples/light_switch/proxy_server/CMakeFiles/light_switch_proxy_server_nrf52832_xxAA_s132_6.0.0.dir/__/__/__/mesh/gatt/src/mesh_gatt.c.obj
 .text.timeout_cb
                0x0002f87c       0x1c examples/light_switch/proxy_server/CMakeFiles/light_switch_proxy_server_nrf52832_xxAA_s132_6.0.0.dir/__/__/__/mesh/gatt/src/mesh_gatt.c.obj
 .text.mesh_gatt_init
                0x0002f898      0x154 examples/light_switch/proxy_server/CMakeFiles/light_switch_proxy_server_nrf52832_xxAA_s132_6.0.0.dir/__/__/__/mesh/gatt/src/mesh_gatt.c.obj
                0x0002f898                mesh_gatt_init
 .text.mesh_gatt_packet_alloc
                0x0002f9ec       0x7c examples/light_switch/proxy_server/CMakeFiles/light_switch_proxy_server_nrf52832_xxAA_s132_6.0.0.dir/__/__/__/mesh/gatt/src/mesh_gatt.c.obj
                0x0002f9ec                mesh_gatt_packet_alloc
 .text.mesh_gatt_packet_discard
                0x0002fa68       0x48 examples/light_switch/proxy_server/CMakeFiles/light_switch_proxy_server_nrf52832_xxAA_s132_6.0.0.dir/__/__/__/mesh/gatt/src/mesh_gatt.c.obj
                0x0002fa68                mesh_gatt_packet_discard
 .text.mesh_gatt_disconnect
                0x0002fab0       0x30 examples/light_switch/proxy_server/CMakeFiles/light_switch_proxy_server_nrf52832_xxAA_s132_6.0.0.dir/__/__/__/mesh/gatt/src/mesh_gatt.c.obj
                0x0002fab0                mesh_gatt_disconnect
 .text.mesh_gatt_pdu_send
                0x0002fae0      0x140 examples/light_switch/proxy_server/CMakeFiles/light_switch_proxy_server_nrf52832_xxAA_s132_6.0.0.dir/__/__/__/mesh/gatt/src/mesh_gatt.c.obj
 .text.mesh_gatt_packet_send
                0x0002fc20       0x8c examples/light_switch/proxy_server/CMakeFiles/light_switch_proxy_server_nrf52832_xxAA_s132_6.0.0.dir/__/__/__/mesh/gatt/src/mesh_gatt.c.obj
                0x0002fc20                mesh_gatt_packet_send
 .text.mesh_gatt_on_ble_evt
                0x0002fcac      0x408 examples/light_switch/proxy_server/CMakeFiles/light_switch_proxy_server_nrf52832_xxAA_s132_6.0.0.dir/__/__/__/mesh/gatt/src/mesh_gatt.c.obj
                0x0002fcac                mesh_gatt_on_ble_evt
 .text.active_connection_count
                0x000300b4        0xc examples/light_switch/proxy_server/CMakeFiles/light_switch_proxy_server_nrf52832_xxAA_s132_6.0.0.dir/__/__/__/mesh/gatt/src/proxy.c.obj
 .text.packet_discard
                0x000300c0       0x30 examples/light_switch/proxy_server/CMakeFiles/light_switch_proxy_server_nrf52832_xxAA_s132_6.0.0.dir/__/__/__/mesh/gatt/src/proxy.c.obj
 .text.core_tx_packet_discard_cb
                0x000300f0       0x18 examples/light_switch/proxy_server/CMakeFiles/light_switch_proxy_server_nrf52832_xxAA_s132_6.0.0.dir/__/__/__/mesh/gatt/src/proxy.c.obj
 .text.packet_send
                0x00030108       0x3c examples/light_switch/proxy_server/CMakeFiles/light_switch_proxy_server_nrf52832_xxAA_s132_6.0.0.dir/__/__/__/mesh/gatt/src/proxy.c.obj
 .text.core_tx_packet_send_cb
                0x00030144       0x38 examples/light_switch/proxy_server/CMakeFiles/light_switch_proxy_server_nrf52832_xxAA_s132_6.0.0.dir/__/__/__/mesh/gatt/src/proxy.c.obj
 .text.packet_alloc
                0x0003017c       0x44 examples/light_switch/proxy_server/CMakeFiles/light_switch_proxy_server_nrf52832_xxAA_s132_6.0.0.dir/__/__/__/mesh/gatt/src/proxy.c.obj
 .text.core_tx_packet_alloc_cb
                0x000301c0       0x40 examples/light_switch/proxy_server/CMakeFiles/light_switch_proxy_server_nrf52832_xxAA_s132_6.0.0.dir/__/__/__/mesh/gatt/src/proxy.c.obj
 .text.adv_data_set
                0x00030200       0xa4 examples/light_switch/proxy_server/CMakeFiles/light_switch_proxy_server_nrf52832_xxAA_s132_6.0.0.dir/__/__/__/mesh/gatt/src/proxy.c.obj
 .text.adv_net_iterate
                0x000302a4       0x34 examples/light_switch/proxy_server/CMakeFiles/light_switch_proxy_server_nrf52832_xxAA_s132_6.0.0.dir/__/__/__/mesh/gatt/src/proxy.c.obj
 .text.adv_timer_handler
                0x000302d8        0xe examples/light_switch/proxy_server/CMakeFiles/light_switch_proxy_server_nrf52832_xxAA_s132_6.0.0.dir/__/__/__/mesh/gatt/src/proxy.c.obj
 *fill*         0x000302e6        0x2 
 .text.adv_start
                0x000302e8       0x58 examples/light_switch/proxy_server/CMakeFiles/light_switch_proxy_server_nrf52832_xxAA_s132_6.0.0.dir/__/__/__/mesh/gatt/src/proxy.c.obj
 .text.beacon_packet_send_to_all
                0x00030340       0x54 examples/light_switch/proxy_server/CMakeFiles/light_switch_proxy_server_nrf52832_xxAA_s132_6.0.0.dir/__/__/__/mesh/gatt/src/proxy.c.obj
 .text.mesh_evt_handle
                0x00030394       0x3c examples/light_switch/proxy_server/CMakeFiles/light_switch_proxy_server_nrf52832_xxAA_s132_6.0.0.dir/__/__/__/mesh/gatt/src/proxy.c.obj
 .text.gatt_evt_handler
                0x000303d0      0x67c examples/light_switch/proxy_server/CMakeFiles/light_switch_proxy_server_nrf52832_xxAA_s132_6.0.0.dir/__/__/__/mesh/gatt/src/proxy.c.obj
 .text.proxy_init
                0x00030a4c       0x8c examples/light_switch/proxy_server/CMakeFiles/light_switch_proxy_server_nrf52832_xxAA_s132_6.0.0.dir/__/__/__/mesh/gatt/src/proxy.c.obj
                0x00030a4c                proxy_init
 .text.proxy_subnet_added
                0x00030ad8       0x58 examples/light_switch/proxy_server/CMakeFiles/light_switch_proxy_server_nrf52832_xxAA_s132_6.0.0.dir/__/__/__/mesh/gatt/src/proxy.c.obj
                0x00030ad8                proxy_subnet_added
 .text.proxy_net_packet_processed
                0x00030b30       0x40 examples/light_switch/proxy_server/CMakeFiles/light_switch_proxy_server_nrf52832_xxAA_s132_6.0.0.dir/__/__/__/mesh/gatt/src/proxy.c.obj
                0x00030b30                proxy_net_packet_processed
 .text.proxy_enable
                0x00030b70       0x28 examples/light_switch/proxy_server/CMakeFiles/light_switch_proxy_server_nrf52832_xxAA_s132_6.0.0.dir/__/__/__/mesh/gatt/src/proxy.c.obj
                0x00030b70                proxy_enable
 .text.proxy_node_id_enable
                0x00030b98       0x38 examples/light_switch/proxy_server/CMakeFiles/light_switch_proxy_server_nrf52832_xxAA_s132_6.0.0.dir/__/__/__/mesh/gatt/src/proxy.c.obj
                0x00030b98                proxy_node_id_enable
 .text.proxy_node_id_is_enabled
                0x00030bd0       0x2c examples/light_switch/proxy_server/CMakeFiles/light_switch_proxy_server_nrf52832_xxAA_s132_6.0.0.dir/__/__/__/mesh/gatt/src/proxy.c.obj
                0x00030bd0                proxy_node_id_is_enabled
 .text.proxy_node_id_disable
                0x00030bfc       0x1a examples/light_switch/proxy_server/CMakeFiles/light_switch_proxy_server_nrf52832_xxAA_s132_6.0.0.dir/__/__/__/mesh/gatt/src/proxy.c.obj
                0x00030bfc                proxy_node_id_disable
 *fill*         0x00030c16        0x2 
 .text.proxy_disable
                0x00030c18       0x40 examples/light_switch/proxy_server/CMakeFiles/light_switch_proxy_server_nrf52832_xxAA_s132_6.0.0.dir/__/__/__/mesh/gatt/src/proxy.c.obj
                0x00030c18                proxy_disable
 .text.proxy_is_enabled
                0x00030c58        0xc examples/light_switch/proxy_server/CMakeFiles/light_switch_proxy_server_nrf52832_xxAA_s132_6.0.0.dir/__/__/__/mesh/gatt/src/proxy.c.obj
                0x00030c58                proxy_is_enabled
 .text.proxy_filter_clear
                0x00030c64       0x18 examples/light_switch/proxy_server/CMakeFiles/light_switch_proxy_server_nrf52832_xxAA_s132_6.0.0.dir/__/__/__/mesh/gatt/src/proxy_filter.c.obj
                0x00030c64                proxy_filter_clear
 .text.proxy_filter_type_set
                0x00030c7c       0x24 examples/light_switch/proxy_server/CMakeFiles/light_switch_proxy_server_nrf52832_xxAA_s132_6.0.0.dir/__/__/__/mesh/gatt/src/proxy_filter.c.obj
                0x00030c7c                proxy_filter_type_set
 .text.proxy_filter_add
                0x00030ca0       0x54 examples/light_switch/proxy_server/CMakeFiles/light_switch_proxy_server_nrf52832_xxAA_s132_6.0.0.dir/__/__/__/mesh/gatt/src/proxy_filter.c.obj
                0x00030ca0                proxy_filter_add
 .text.proxy_filter_remove
                0x00030cf4       0x4e examples/light_switch/proxy_server/CMakeFiles/light_switch_proxy_server_nrf52832_xxAA_s132_6.0.0.dir/__/__/__/mesh/gatt/src/proxy_filter.c.obj
                0x00030cf4                proxy_filter_remove
 .text.proxy_filter_accept
                0x00030d42       0x36 examples/light_switch/proxy_server/CMakeFiles/light_switch_proxy_server_nrf52832_xxAA_s132_6.0.0.dir/__/__/__/mesh/gatt/src/proxy_filter.c.obj
                0x00030d42                proxy_filter_accept
 .text.handle_get_cb
                0x00030d78       0x4e examples/light_switch/proxy_server/CMakeFiles/light_switch_proxy_server_nrf52832_xxAA_s132_6.0.0.dir/__/__/__/models/simple_on_off/src/simple_on_off_server.c.obj
 *fill*         0x00030dc6        0x2 
 .text.simple_on_off_server_init
                0x00030dc8       0x40 examples/light_switch/proxy_server/CMakeFiles/light_switch_proxy_server_nrf52832_xxAA_s132_6.0.0.dir/__/__/__/models/simple_on_off/src/simple_on_off_server.c.obj
                0x00030dc8                simple_on_off_server_init
 .text.simple_on_off_server_status_publish
                0x00030e08       0x36 examples/light_switch/proxy_server/CMakeFiles/light_switch_proxy_server_nrf52832_xxAA_s132_6.0.0.dir/__/__/__/models/simple_on_off/src/simple_on_off_server.c.obj
                0x00030e08                simple_on_off_server_status_publish
 .text.handle_set_unreliable_cb
                0x00030e3e       0x2c examples/light_switch/proxy_server/CMakeFiles/light_switch_proxy_server_nrf52832_xxAA_s132_6.0.0.dir/__/__/__/models/simple_on_off/src/simple_on_off_server.c.obj
 .text.handle_set_cb
                0x00030e6a       0x60 examples/light_switch/proxy_server/CMakeFiles/light_switch_proxy_server_nrf52832_xxAA_s132_6.0.0.dir/__/__/__/models/simple_on_off/src/simple_on_off_server.c.obj
 .text.config_composition_data_get
                0x00030eca      0x186 examples/light_switch/proxy_server/CMakeFiles/light_switch_proxy_server_nrf52832_xxAA_s132_6.0.0.dir/__/__/__/models/config/src/composition_data.c.obj
                0x00030eca                config_composition_data_get
 .text.app_evt_send
                0x00031050       0x10 examples/light_switch/proxy_server/CMakeFiles/light_switch_proxy_server_nrf52832_xxAA_s132_6.0.0.dir/__/__/__/models/config/src/config_server.c.obj
 .text.config_server_heartbeat_publication_count_decrement
                0x00031060       0x1c examples/light_switch/proxy_server/CMakeFiles/light_switch_proxy_server_nrf52832_xxAA_s132_6.0.0.dir/__/__/__/models/config/src/config_server.c.obj
 .text.get_element_index
                0x0003107c       0x26 examples/light_switch/proxy_server/CMakeFiles/light_switch_proxy_server_nrf52832_xxAA_s132_6.0.0.dir/__/__/__/models/config/src/config_server.c.obj
 *fill*         0x000310a2        0x2 
 .text.config_server_heartbeat_publication_params_get
                0x000310a4       0x34 examples/light_switch/proxy_server/CMakeFiles/light_switch_proxy_server_nrf52832_xxAA_s132_6.0.0.dir/__/__/__/models/config/src/config_server.c.obj
 .text.send_reply
                0x000310d8       0x34 examples/light_switch/proxy_server/CMakeFiles/light_switch_proxy_server_nrf52832_xxAA_s132_6.0.0.dir/__/__/__/models/config/src/config_server.c.obj
 .text.send_network_transmit_status
                0x0003110c       0x72 examples/light_switch/proxy_server/CMakeFiles/light_switch_proxy_server_nrf52832_xxAA_s132_6.0.0.dir/__/__/__/models/config/src/config_server.c.obj
 .text.handle_config_network_transmit_set
                0x0003117e       0x82 examples/light_switch/proxy_server/CMakeFiles/light_switch_proxy_server_nrf52832_xxAA_s132_6.0.0.dir/__/__/__/models/config/src/config_server.c.obj
 .text.handle_config_network_transmit_get
                0x00031200        0xa examples/light_switch/proxy_server/CMakeFiles/light_switch_proxy_server_nrf52832_xxAA_s132_6.0.0.dir/__/__/__/models/config/src/config_server.c.obj
 *fill*         0x0003120a        0x2 
 .text.handle_node_reset
                0x0003120c       0x1c examples/light_switch/proxy_server/CMakeFiles/light_switch_proxy_server_nrf52832_xxAA_s132_6.0.0.dir/__/__/__/models/config/src/config_server.c.obj
 .text.send_netkey_status
                0x00031228       0x22 examples/light_switch/proxy_server/CMakeFiles/light_switch_proxy_server_nrf52832_xxAA_s132_6.0.0.dir/__/__/__/models/config/src/config_server.c.obj
 .text.send_relay_status
                0x0003124a       0xa6 examples/light_switch/proxy_server/CMakeFiles/light_switch_proxy_server_nrf52832_xxAA_s132_6.0.0.dir/__/__/__/models/config/src/config_server.c.obj
 .text.handle_config_relay_set
                0x000312f0       0xb6 examples/light_switch/proxy_server/CMakeFiles/light_switch_proxy_server_nrf52832_xxAA_s132_6.0.0.dir/__/__/__/models/config/src/config_server.c.obj
 .text.handle_config_relay_get
                0x000313a6        0xa examples/light_switch/proxy_server/CMakeFiles/light_switch_proxy_server_nrf52832_xxAA_s132_6.0.0.dir/__/__/__/models/config/src/config_server.c.obj
 .text.send_subscription_status
                0x000313b0       0x3a examples/light_switch/proxy_server/CMakeFiles/light_switch_proxy_server_nrf52832_xxAA_s132_6.0.0.dir/__/__/__/models/config/src/config_server.c.obj
 .text.send_appkey_status
                0x000313ea       0x30 examples/light_switch/proxy_server/CMakeFiles/light_switch_proxy_server_nrf52832_xxAA_s132_6.0.0.dir/__/__/__/models/config/src/config_server.c.obj
 .text.handle_node_identity_set
                0x0003141a       0x9a examples/light_switch/proxy_server/CMakeFiles/light_switch_proxy_server_nrf52832_xxAA_s132_6.0.0.dir/__/__/__/models/config/src/config_server.c.obj
 .text.handle_netkey_get
                0x000314b4       0x4c examples/light_switch/proxy_server/CMakeFiles/light_switch_proxy_server_nrf52832_xxAA_s132_6.0.0.dir/__/__/__/models/config/src/config_server.c.obj
 .text.handle_netkey_delete
                0x00031500       0xbc examples/light_switch/proxy_server/CMakeFiles/light_switch_proxy_server_nrf52832_xxAA_s132_6.0.0.dir/__/__/__/models/config/src/config_server.c.obj
 .text.handle_netkey_add_update
                0x000315bc       0x78 examples/light_switch/proxy_server/CMakeFiles/light_switch_proxy_server_nrf52832_xxAA_s132_6.0.0.dir/__/__/__/models/config/src/config_server.c.obj
 .text.status_error_sub_send
                0x00031634      0x11e examples/light_switch/proxy_server/CMakeFiles/light_switch_proxy_server_nrf52832_xxAA_s132_6.0.0.dir/__/__/__/models/config/src/config_server.c.obj
 .text.delete_all_subscriptions
                0x00031752       0x66 examples/light_switch/proxy_server/CMakeFiles/light_switch_proxy_server_nrf52832_xxAA_s132_6.0.0.dir/__/__/__/models/config/src/config_server.c.obj
 .text.send_publication_status
                0x000317b8      0x16e examples/light_switch/proxy_server/CMakeFiles/light_switch_proxy_server_nrf52832_xxAA_s132_6.0.0.dir/__/__/__/models/config/src/config_server.c.obj
 .text.handle_config_key_refresh_phase_set
                0x00031926       0xc6 examples/light_switch/proxy_server/CMakeFiles/light_switch_proxy_server_nrf52832_xxAA_s132_6.0.0.dir/__/__/__/models/config/src/config_server.c.obj
 .text.handle_config_default_ttl_set
                0x000319ec       0x4e examples/light_switch/proxy_server/CMakeFiles/light_switch_proxy_server_nrf52832_xxAA_s132_6.0.0.dir/__/__/__/models/config/src/config_server.c.obj
 .text.send_net_beacon_state
                0x00031a3a       0x2a examples/light_switch/proxy_server/CMakeFiles/light_switch_proxy_server_nrf52832_xxAA_s132_6.0.0.dir/__/__/__/models/config/src/config_server.c.obj
 .text.handle_config_beacon_get
                0x00031a64        0xa examples/light_switch/proxy_server/CMakeFiles/light_switch_proxy_server_nrf52832_xxAA_s132_6.0.0.dir/__/__/__/models/config/src/config_server.c.obj
 *fill*         0x00031a6e        0x2 
 .text.handle_heartbeat_publication_set
                0x00031a70      0x128 examples/light_switch/proxy_server/CMakeFiles/light_switch_proxy_server_nrf52832_xxAA_s132_6.0.0.dir/__/__/__/models/config/src/config_server.c.obj
 .text.mesh_event_cb
                0x00031b98       0x64 examples/light_switch/proxy_server/CMakeFiles/light_switch_proxy_server_nrf52832_xxAA_s132_6.0.0.dir/__/__/__/models/config/src/config_server.c.obj
 .text.handle_config_friend_set
                0x00031bfc       0x2a examples/light_switch/proxy_server/CMakeFiles/light_switch_proxy_server_nrf52832_xxAA_s132_6.0.0.dir/__/__/__/models/config/src/config_server.c.obj
 .text.handle_config_key_refresh_phase_get
                0x00031c26       0x54 examples/light_switch/proxy_server/CMakeFiles/light_switch_proxy_server_nrf52832_xxAA_s132_6.0.0.dir/__/__/__/models/config/src/config_server.c.obj
 .text.handle_node_identity_get
                0x00031c7a       0x62 examples/light_switch/proxy_server/CMakeFiles/light_switch_proxy_server_nrf52832_xxAA_s132_6.0.0.dir/__/__/__/models/config/src/config_server.c.obj
 .text.status_error_pub_send
                0x00031cdc       0x9a examples/light_switch/proxy_server/CMakeFiles/light_switch_proxy_server_nrf52832_xxAA_s132_6.0.0.dir/__/__/__/models/config/src/config_server.c.obj
 .text.handle_config_gatt_proxy_set.part.16
                0x00031d76       0x2a examples/light_switch/proxy_server/CMakeFiles/light_switch_proxy_server_nrf52832_xxAA_s132_6.0.0.dir/__/__/__/models/config/src/config_server.c.obj
 .text.handle_config_gatt_proxy_get
                0x00031da0        0xa examples/light_switch/proxy_server/CMakeFiles/light_switch_proxy_server_nrf52832_xxAA_s132_6.0.0.dir/__/__/__/models/config/src/config_server.c.obj
 .text.handle_config_gatt_proxy_set
                0x00031daa       0x2e examples/light_switch/proxy_server/CMakeFiles/light_switch_proxy_server_nrf52832_xxAA_s132_6.0.0.dir/__/__/__/models/config/src/config_server.c.obj
 .text.handle_config_default_ttl_get
                0x00031dd8       0x2a examples/light_switch/proxy_server/CMakeFiles/light_switch_proxy_server_nrf52832_xxAA_s132_6.0.0.dir/__/__/__/models/config/src/config_server.c.obj
 .text.handle_config_beacon_set
                0x00031e02       0x42 examples/light_switch/proxy_server/CMakeFiles/light_switch_proxy_server_nrf52832_xxAA_s132_6.0.0.dir/__/__/__/models/config/src/config_server.c.obj
 .text.handle_composition_data_get
                0x00031e44       0x4c examples/light_switch/proxy_server/CMakeFiles/light_switch_proxy_server_nrf52832_xxAA_s132_6.0.0.dir/__/__/__/models/config/src/config_server.c.obj
 .text.handle_appkey_delete
                0x00031e90       0xc2 examples/light_switch/proxy_server/CMakeFiles/light_switch_proxy_server_nrf52832_xxAA_s132_6.0.0.dir/__/__/__/models/config/src/config_server.c.obj
 .text.get_subscription_list.constprop.24
                0x00031f52       0x50 examples/light_switch/proxy_server/CMakeFiles/light_switch_proxy_server_nrf52832_xxAA_s132_6.0.0.dir/__/__/__/models/config/src/config_server.c.obj
 .text.handle_appkey_get
                0x00031fa2       0xb8 examples/light_switch/proxy_server/CMakeFiles/light_switch_proxy_server_nrf52832_xxAA_s132_6.0.0.dir/__/__/__/models/config/src/config_server.c.obj
 .text.heartbeat_subscription_count_encode
                0x0003205a       0x26 examples/light_switch/proxy_server/CMakeFiles/light_switch_proxy_server_nrf52832_xxAA_s132_6.0.0.dir/__/__/__/models/config/src/config_server.c.obj
 .text.handle_appkey_add
                0x00032080       0xba examples/light_switch/proxy_server/CMakeFiles/light_switch_proxy_server_nrf52832_xxAA_s132_6.0.0.dir/__/__/__/models/config/src/config_server.c.obj
 .text.handle_appkey_update
                0x0003213a       0xbc examples/light_switch/proxy_server/CMakeFiles/light_switch_proxy_server_nrf52832_xxAA_s132_6.0.0.dir/__/__/__/models/config/src/config_server.c.obj
 .text.heartbeat_pubsub_period_encode
                0x000321f6       0x26 examples/light_switch/proxy_server/CMakeFiles/light_switch_proxy_server_nrf52832_xxAA_s132_6.0.0.dir/__/__/__/models/config/src/config_server.c.obj
 .text.handle_heartbeat_publication_get
                0x0003221c       0x7c examples/light_switch/proxy_server/CMakeFiles/light_switch_proxy_server_nrf52832_xxAA_s132_6.0.0.dir/__/__/__/models/config/src/config_server.c.obj
 .text.handle_heartbeat_subscription_get
                0x00032298       0x82 examples/light_switch/proxy_server/CMakeFiles/light_switch_proxy_server_nrf52832_xxAA_s132_6.0.0.dir/__/__/__/models/config/src/config_server.c.obj
 .text.handle_heartbeat_subscription_set
                0x0003231a       0xa4 examples/light_switch/proxy_server/CMakeFiles/light_switch_proxy_server_nrf52832_xxAA_s132_6.0.0.dir/__/__/__/models/config/src/config_server.c.obj
 .text.handle_config_model_publication_get
                0x000323be       0x94 examples/light_switch/proxy_server/CMakeFiles/light_switch_proxy_server_nrf52832_xxAA_s132_6.0.0.dir/__/__/__/models/config/src/config_server.c.obj
 .text.handle_config_model_subscription_delete_all
                0x00032452       0xca examples/light_switch/proxy_server/CMakeFiles/light_switch_proxy_server_nrf52832_xxAA_s132_6.0.0.dir/__/__/__/models/config/src/config_server.c.obj
 .text.handle_config_sig_model_subscription_get
                0x0003251c       0xc4 examples/light_switch/proxy_server/CMakeFiles/light_switch_proxy_server_nrf52832_xxAA_s132_6.0.0.dir/__/__/__/models/config/src/config_server.c.obj
 .text.handle_config_vendor_model_subscription_get
                0x000325e0       0xfe examples/light_switch/proxy_server/CMakeFiles/light_switch_proxy_server_nrf52832_xxAA_s132_6.0.0.dir/__/__/__/models/config/src/config_server.c.obj
 .text.handle_config_model_subscription_virtual_address_delete
                0x000326de      0x110 examples/light_switch/proxy_server/CMakeFiles/light_switch_proxy_server_nrf52832_xxAA_s132_6.0.0.dir/__/__/__/models/config/src/config_server.c.obj
 .text.handle_config_model_subscription_virtual_address_add
                0x000327ee      0x10e examples/light_switch/proxy_server/CMakeFiles/light_switch_proxy_server_nrf52832_xxAA_s132_6.0.0.dir/__/__/__/models/config/src/config_server.c.obj
 .text.handle_config_model_subscription_delete
                0x000328fc      0x116 examples/light_switch/proxy_server/CMakeFiles/light_switch_proxy_server_nrf52832_xxAA_s132_6.0.0.dir/__/__/__/models/config/src/config_server.c.obj
 .text.handle_config_model_subscription_add
                0x00032a12      0x114 examples/light_switch/proxy_server/CMakeFiles/light_switch_proxy_server_nrf52832_xxAA_s132_6.0.0.dir/__/__/__/models/config/src/config_server.c.obj
 .text.handle_model_app_get
                0x00032b26      0x19e examples/light_switch/proxy_server/CMakeFiles/light_switch_proxy_server_nrf52832_xxAA_s132_6.0.0.dir/__/__/__/models/config/src/config_server.c.obj
 .text.handle_config_model_subscription_virtual_address_overwrite
                0x00032cc4      0x128 examples/light_switch/proxy_server/CMakeFiles/light_switch_proxy_server_nrf52832_xxAA_s132_6.0.0.dir/__/__/__/models/config/src/config_server.c.obj
 .text.handle_config_model_subscription_overwrite
                0x00032dec      0x122 examples/light_switch/proxy_server/CMakeFiles/light_switch_proxy_server_nrf52832_xxAA_s132_6.0.0.dir/__/__/__/models/config/src/config_server.c.obj
 .text.handle_model_app_bind_unbind
                0x00032f0e      0x174 examples/light_switch/proxy_server/CMakeFiles/light_switch_proxy_server_nrf52832_xxAA_s132_6.0.0.dir/__/__/__/models/config/src/config_server.c.obj
 .text.handle_config_friend_get
                0x00033082       0x20 examples/light_switch/proxy_server/CMakeFiles/light_switch_proxy_server_nrf52832_xxAA_s132_6.0.0.dir/__/__/__/models/config/src/config_server.c.obj
 .text.handle_config_model_publication_set
                0x000330a2      0x2ce examples/light_switch/proxy_server/CMakeFiles/light_switch_proxy_server_nrf52832_xxAA_s132_6.0.0.dir/__/__/__/models/config/src/config_server.c.obj
 .text.config_server_init
                0x00033370       0x64 examples/light_switch/proxy_server/CMakeFiles/light_switch_proxy_server_nrf52832_xxAA_s132_6.0.0.dir/__/__/__/models/config/src/config_server.c.obj
                0x00033370                config_server_init
 .text.config_server_bind
                0x000333d4       0x10 examples/light_switch/proxy_server/CMakeFiles/light_switch_proxy_server_nrf52832_xxAA_s132_6.0.0.dir/__/__/__/models/config/src/config_server.c.obj
                0x000333d4                config_server_bind
 .text.packed_index_list_create
                0x000333e4       0x32 examples/light_switch/proxy_server/CMakeFiles/light_switch_proxy_server_nrf52832_xxAA_s132_6.0.0.dir/__/__/__/models/config/src/packed_index_list.c.obj
                0x000333e4                packed_index_list_create
 *fill*         0x00033416        0x2 
 .text.attention_timer_set
                0x00033418       0x8c examples/light_switch/proxy_server/CMakeFiles/light_switch_proxy_server_nrf52832_xxAA_s132_6.0.0.dir/__/__/__/models/health/src/health_server.c.obj
 .text.attention_timer_handler
                0x000334a4       0x5c examples/light_switch/proxy_server/CMakeFiles/light_switch_proxy_server_nrf52832_xxAA_s132_6.0.0.dir/__/__/__/models/health/src/health_server.c.obj
 .text.send_attention_status.isra.1
                0x00033500       0x44 examples/light_switch/proxy_server/CMakeFiles/light_switch_proxy_server_nrf52832_xxAA_s132_6.0.0.dir/__/__/__/models/health/src/health_server.c.obj
 .text.handle_attention_set
                0x00033544       0x32 examples/light_switch/proxy_server/CMakeFiles/light_switch_proxy_server_nrf52832_xxAA_s132_6.0.0.dir/__/__/__/models/health/src/health_server.c.obj
 .text.send_period_status.isra.4
                0x00033576       0x44 examples/light_switch/proxy_server/CMakeFiles/light_switch_proxy_server_nrf52832_xxAA_s132_6.0.0.dir/__/__/__/models/health/src/health_server.c.obj
 .text.handle_period_set
                0x000335ba       0x28 examples/light_switch/proxy_server/CMakeFiles/light_switch_proxy_server_nrf52832_xxAA_s132_6.0.0.dir/__/__/__/models/health/src/health_server.c.obj
 *fill*         0x000335e2        0x2 
 .text.bitfield_next_get.part.0.constprop.13
                0x000335e4       0x44 examples/light_switch/proxy_server/CMakeFiles/light_switch_proxy_server_nrf52832_xxAA_s132_6.0.0.dir/__/__/__/models/health/src/health_server.c.obj
 .text.bitfield_popcount.constprop.11
                0x00033628       0x28 examples/light_switch/proxy_server/CMakeFiles/light_switch_proxy_server_nrf52832_xxAA_s132_6.0.0.dir/__/__/__/models/health/src/health_server.c.obj
 .text.send_fault_status
                0x00033650       0xa8 examples/light_switch/proxy_server/CMakeFiles/light_switch_proxy_server_nrf52832_xxAA_s132_6.0.0.dir/__/__/__/models/health/src/health_server.c.obj
 .text.health_publish_timeout_handler
                0x000336f8        0xa examples/light_switch/proxy_server/CMakeFiles/light_switch_proxy_server_nrf52832_xxAA_s132_6.0.0.dir/__/__/__/models/health/src/health_server.c.obj
 .text.handle_fault_test
                0x00033702       0x68 examples/light_switch/proxy_server/CMakeFiles/light_switch_proxy_server_nrf52832_xxAA_s132_6.0.0.dir/__/__/__/models/health/src/health_server.c.obj
 .text.handle_fault_get
                0x0003376a       0x32 examples/light_switch/proxy_server/CMakeFiles/light_switch_proxy_server_nrf52832_xxAA_s132_6.0.0.dir/__/__/__/models/health/src/health_server.c.obj
 .text.handle_fault_clear
                0x0003379c       0x48 examples/light_switch/proxy_server/CMakeFiles/light_switch_proxy_server_nrf52832_xxAA_s132_6.0.0.dir/__/__/__/models/health/src/health_server.c.obj
 .text.handle_attention_get
                0x000337e4       0x14 examples/light_switch/proxy_server/CMakeFiles/light_switch_proxy_server_nrf52832_xxAA_s132_6.0.0.dir/__/__/__/models/health/src/health_server.c.obj
 .text.handle_period_get
                0x000337f8       0x12 examples/light_switch/proxy_server/CMakeFiles/light_switch_proxy_server_nrf52832_xxAA_s132_6.0.0.dir/__/__/__/models/health/src/health_server.c.obj
 *fill*         0x0003380a        0x2 
 .text.health_server_init
                0x0003380c       0x6c examples/light_switch/proxy_server/CMakeFiles/light_switch_proxy_server_nrf52832_xxAA_s132_6.0.0.dir/__/__/__/models/health/src/health_server.c.obj
                0x0003380c                health_server_init
 .text.add_to_publication_list
                0x00033878       0x78 examples/light_switch/proxy_server/CMakeFiles/light_switch_proxy_server_nrf52832_xxAA_s132_6.0.0.dir/__/__/__/mesh/access/src/access_publish.c.obj
 .text.step_resolution_to_us
                0x000338f0       0x38 examples/light_switch/proxy_server/CMakeFiles/light_switch_proxy_server_nrf52832_xxAA_s132_6.0.0.dir/__/__/__/mesh/access/src/access_publish.c.obj
 .text.schedule_publication_timer
                0x00033928      0x184 examples/light_switch/proxy_server/CMakeFiles/light_switch_proxy_server_nrf52832_xxAA_s132_6.0.0.dir/__/__/__/mesh/access/src/access_publish.c.obj
 .text.publish_timer_tick
                0x00033aac       0xa8 examples/light_switch/proxy_server/CMakeFiles/light_switch_proxy_server_nrf52832_xxAA_s132_6.0.0.dir/__/__/__/mesh/access/src/access_publish.c.obj
 .text.access_publish_init
                0x00033b54       0x38 examples/light_switch/proxy_server/CMakeFiles/light_switch_proxy_server_nrf52832_xxAA_s132_6.0.0.dir/__/__/__/mesh/access/src/access_publish.c.obj
                0x00033b54                access_publish_init
 .text.access_publish_period_set
                0x00033b8c       0x60 examples/light_switch/proxy_server/CMakeFiles/light_switch_proxy_server_nrf52832_xxAA_s132_6.0.0.dir/__/__/__/mesh/access/src/access_publish.c.obj
                0x00033b8c                access_publish_period_set
 .text.access_publish_period_get
                0x00033bec       0x22 examples/light_switch/proxy_server/CMakeFiles/light_switch_proxy_server_nrf52832_xxAA_s132_6.0.0.dir/__/__/__/mesh/access/src/access_publish.c.obj
                0x00033bec                access_publish_period_get
 .text.bitfield_get
                0x00033c0e       0x1a examples/light_switch/proxy_server/CMakeFiles/light_switch_proxy_server_nrf52832_xxAA_s132_6.0.0.dir/__/__/__/mesh/access/src/access.c.obj
 .text.is_valid_opcode
                0x00033c28       0x42 examples/light_switch/proxy_server/CMakeFiles/light_switch_proxy_server_nrf52832_xxAA_s132_6.0.0.dir/__/__/__/mesh/access/src/access.c.obj
 *fill*         0x00033c6a        0x2 
 .text.model_handle_valid_and_allocated
                0x00033c6c       0x20 examples/light_switch/proxy_server/CMakeFiles/light_switch_proxy_server_nrf52832_xxAA_s132_6.0.0.dir/__/__/__/mesh/access/src/access.c.obj
 .text.flash_manager_mem_available
                0x00033c8c        0x2 examples/light_switch/proxy_server/CMakeFiles/light_switch_proxy_server_nrf52832_xxAA_s132_6.0.0.dir/__/__/__/mesh/access/src/access.c.obj
 *fill*         0x00033c8e        0x2 
 .text.restore_acquired_subscription
                0x00033c90       0x24 examples/light_switch/proxy_server/CMakeFiles/light_switch_proxy_server_nrf52832_xxAA_s132_6.0.0.dir/__/__/__/mesh/access/src/access.c.obj
 .text.restore_acquired_element
                0x00033cb4       0x1c examples/light_switch/proxy_server/CMakeFiles/light_switch_proxy_server_nrf52832_xxAA_s132_6.0.0.dir/__/__/__/mesh/access/src/access.c.obj
 .text.restore_flash_data
                0x00033cd0       0x50 examples/light_switch/proxy_server/CMakeFiles/light_switch_proxy_server_nrf52832_xxAA_s132_6.0.0.dir/__/__/__/mesh/access/src/access.c.obj
 .text.flash_invalidate_complete
                0x00033d20        0x6 examples/light_switch/proxy_server/CMakeFiles/light_switch_proxy_server_nrf52832_xxAA_s132_6.0.0.dir/__/__/__/mesh/access/src/access.c.obj
 *fill*         0x00033d26        0x2 
 .text.access_flash_config_clear
                0x00033d28       0x28 examples/light_switch/proxy_server/CMakeFiles/light_switch_proxy_server_nrf52832_xxAA_s132_6.0.0.dir/__/__/__/mesh/access/src/access.c.obj
 .text.access_flash_config_store
                0x00033d50      0x114 examples/light_switch/proxy_server/CMakeFiles/light_switch_proxy_server_nrf52832_xxAA_s132_6.0.0.dir/__/__/__/mesh/access/src/access.c.obj
                0x00033d50                access_flash_config_store
 .text.access_state_clear
                0x00033e64       0x48 examples/light_switch/proxy_server/CMakeFiles/light_switch_proxy_server_nrf52832_xxAA_s132_6.0.0.dir/__/__/__/mesh/access/src/access.c.obj
 .text.add_flash_manager
                0x00033eac       0x58 examples/light_switch/proxy_server/CMakeFiles/light_switch_proxy_server_nrf52832_xxAA_s132_6.0.0.dir/__/__/__/mesh/access/src/access.c.obj
 .text.flash_remove_complete
                0x00033f04       0x4c examples/light_switch/proxy_server/CMakeFiles/light_switch_proxy_server_nrf52832_xxAA_s132_6.0.0.dir/__/__/__/mesh/access/src/access.c.obj
 .text.flash_write_complete
                0x00033f50       0x46 examples/light_switch/proxy_server/CMakeFiles/light_switch_proxy_server_nrf52832_xxAA_s132_6.0.0.dir/__/__/__/mesh/access/src/access.c.obj
 *fill*         0x00033f96        0x2 
 .text.unlikely.bitfield_next_get.part.0.constprop.4
                0x00033f98       0x34 examples/light_switch/proxy_server/CMakeFiles/light_switch_proxy_server_nrf52832_xxAA_s132_6.0.0.dir/__/__/__/mesh/access/src/access.c.obj
 .text.restore_acquired_model
                0x00033fcc       0x84 examples/light_switch/proxy_server/CMakeFiles/light_switch_proxy_server_nrf52832_xxAA_s132_6.0.0.dir/__/__/__/mesh/access/src/access.c.obj
 .text.handle_incoming
                0x00034050      0x140 examples/light_switch/proxy_server/CMakeFiles/light_switch_proxy_server_nrf52832_xxAA_s132_6.0.0.dir/__/__/__/mesh/access/src/access.c.obj
 .text.mesh_evt_cb
                0x00034190      0x134 examples/light_switch/proxy_server/CMakeFiles/light_switch_proxy_server_nrf52832_xxAA_s132_6.0.0.dir/__/__/__/mesh/access/src/access.c.obj
 .text.packet_tx
                0x000342c4      0x380 examples/light_switch/proxy_server/CMakeFiles/light_switch_proxy_server_nrf52832_xxAA_s132_6.0.0.dir/__/__/__/mesh/access/src/access.c.obj
 .text.access_flash_config_load
                0x00034644      0x118 examples/light_switch/proxy_server/CMakeFiles/light_switch_proxy_server_nrf52832_xxAA_s132_6.0.0.dir/__/__/__/mesh/access/src/access.c.obj
                0x00034644                access_flash_config_load
 .text.access_clear
                0x0003475c       0x12 examples/light_switch/proxy_server/CMakeFiles/light_switch_proxy_server_nrf52832_xxAA_s132_6.0.0.dir/__/__/__/mesh/access/src/access.c.obj
                0x0003475c                access_clear
 *fill*         0x0003476e        0x2 
 .text.access_init
                0x00034770       0x28 examples/light_switch/proxy_server/CMakeFiles/light_switch_proxy_server_nrf52832_xxAA_s132_6.0.0.dir/__/__/__/mesh/access/src/access.c.obj
                0x00034770                access_init
 .text.access_model_add
                0x00034798      0x1b8 examples/light_switch/proxy_server/CMakeFiles/light_switch_proxy_server_nrf52832_xxAA_s132_6.0.0.dir/__/__/__/mesh/access/src/access.c.obj
                0x00034798                access_model_add
 .text.access_model_publish
                0x00034950        0xc examples/light_switch/proxy_server/CMakeFiles/light_switch_proxy_server_nrf52832_xxAA_s132_6.0.0.dir/__/__/__/mesh/access/src/access.c.obj
                0x00034950                access_model_publish
 .text.access_model_reply
                0x0003495c       0x12 examples/light_switch/proxy_server/CMakeFiles/light_switch_proxy_server_nrf52832_xxAA_s132_6.0.0.dir/__/__/__/mesh/access/src/access.c.obj
                0x0003495c                access_model_reply
 *fill*         0x0003496e        0x2 
 .text.access_model_publish_address_set
                0x00034970       0x3c examples/light_switch/proxy_server/CMakeFiles/light_switch_proxy_server_nrf52832_xxAA_s132_6.0.0.dir/__/__/__/mesh/access/src/access.c.obj
                0x00034970                access_model_publish_address_set
 .text.access_model_publish_address_get
                0x000349ac       0x28 examples/light_switch/proxy_server/CMakeFiles/light_switch_proxy_server_nrf52832_xxAA_s132_6.0.0.dir/__/__/__/mesh/access/src/access.c.obj
                0x000349ac                access_model_publish_address_get
 .text.access_model_publish_retransmit_set
                0x000349d4       0x4c examples/light_switch/proxy_server/CMakeFiles/light_switch_proxy_server_nrf52832_xxAA_s132_6.0.0.dir/__/__/__/mesh/access/src/access.c.obj
                0x000349d4                access_model_publish_retransmit_set
 .text.access_model_publish_retransmit_get
                0x00034a20       0x2c examples/light_switch/proxy_server/CMakeFiles/light_switch_proxy_server_nrf52832_xxAA_s132_6.0.0.dir/__/__/__/mesh/access/src/access.c.obj
                0x00034a20                access_model_publish_retransmit_get
 .text.access_model_publish_period_set
                0x00034a4c       0x6c examples/light_switch/proxy_server/CMakeFiles/light_switch_proxy_server_nrf52832_xxAA_s132_6.0.0.dir/__/__/__/mesh/access/src/access.c.obj
                0x00034a4c                access_model_publish_period_set
 .text.access_model_publish_period_get
                0x00034ab8       0x3c examples/light_switch/proxy_server/CMakeFiles/light_switch_proxy_server_nrf52832_xxAA_s132_6.0.0.dir/__/__/__/mesh/access/src/access.c.obj
                0x00034ab8                access_model_publish_period_get
 .text.access_model_subscription_list_alloc
                0x00034af4       0x40 examples/light_switch/proxy_server/CMakeFiles/light_switch_proxy_server_nrf52832_xxAA_s132_6.0.0.dir/__/__/__/mesh/access/src/access.c.obj
                0x00034af4                access_model_subscription_list_alloc
 .text.access_model_subscription_add
                0x00034b34       0x60 examples/light_switch/proxy_server/CMakeFiles/light_switch_proxy_server_nrf52832_xxAA_s132_6.0.0.dir/__/__/__/mesh/access/src/access.c.obj
                0x00034b34                access_model_subscription_add
 .text.access_model_subscription_remove
                0x00034b94       0x60 examples/light_switch/proxy_server/CMakeFiles/light_switch_proxy_server_nrf52832_xxAA_s132_6.0.0.dir/__/__/__/mesh/access/src/access.c.obj
                0x00034b94                access_model_subscription_remove
 .text.access_model_subscriptions_get
                0x00034bf4       0x7c examples/light_switch/proxy_server/CMakeFiles/light_switch_proxy_server_nrf52832_xxAA_s132_6.0.0.dir/__/__/__/mesh/access/src/access.c.obj
                0x00034bf4                access_model_subscriptions_get
 .text.access_model_application_bind
                0x00034c70       0x50 examples/light_switch/proxy_server/CMakeFiles/light_switch_proxy_server_nrf52832_xxAA_s132_6.0.0.dir/__/__/__/mesh/access/src/access.c.obj
                0x00034c70                access_model_application_bind
 .text.access_model_application_unbind
                0x00034cc0       0x50 examples/light_switch/proxy_server/CMakeFiles/light_switch_proxy_server_nrf52832_xxAA_s132_6.0.0.dir/__/__/__/mesh/access/src/access.c.obj
                0x00034cc0                access_model_application_unbind
 .text.access_model_applications_get
                0x00034d10       0x64 examples/light_switch/proxy_server/CMakeFiles/light_switch_proxy_server_nrf52832_xxAA_s132_6.0.0.dir/__/__/__/mesh/access/src/access.c.obj
                0x00034d10                access_model_applications_get
 .text.access_model_publish_application_set
                0x00034d74       0x3c examples/light_switch/proxy_server/CMakeFiles/light_switch_proxy_server_nrf52832_xxAA_s132_6.0.0.dir/__/__/__/mesh/access/src/access.c.obj
                0x00034d74                access_model_publish_application_set
 .text.access_model_publish_application_get
                0x00034db0       0x28 examples/light_switch/proxy_server/CMakeFiles/light_switch_proxy_server_nrf52832_xxAA_s132_6.0.0.dir/__/__/__/mesh/access/src/access.c.obj
                0x00034db0                access_model_publish_application_get
 .text.access_default_ttl_set
                0x00034dd8       0x18 examples/light_switch/proxy_server/CMakeFiles/light_switch_proxy_server_nrf52832_xxAA_s132_6.0.0.dir/__/__/__/mesh/access/src/access.c.obj
                0x00034dd8                access_default_ttl_set
 .text.access_default_ttl_get
                0x00034df0        0xc examples/light_switch/proxy_server/CMakeFiles/light_switch_proxy_server_nrf52832_xxAA_s132_6.0.0.dir/__/__/__/mesh/access/src/access.c.obj
                0x00034df0                access_default_ttl_get
 .text.access_model_publish_ttl_set
                0x00034dfc       0x40 examples/light_switch/proxy_server/CMakeFiles/light_switch_proxy_server_nrf52832_xxAA_s132_6.0.0.dir/__/__/__/mesh/access/src/access.c.obj
                0x00034dfc                access_model_publish_ttl_set
 .text.access_model_publish_ttl_get
                0x00034e3c       0x28 examples/light_switch/proxy_server/CMakeFiles/light_switch_proxy_server_nrf52832_xxAA_s132_6.0.0.dir/__/__/__/mesh/access/src/access.c.obj
                0x00034e3c                access_model_publish_ttl_get
 .text.access_element_location_get
                0x00034e64       0x18 examples/light_switch/proxy_server/CMakeFiles/light_switch_proxy_server_nrf52832_xxAA_s132_6.0.0.dir/__/__/__/mesh/access/src/access.c.obj
                0x00034e64                access_element_location_get
 .text.access_element_sig_model_count_get
                0x00034e7c       0x18 examples/light_switch/proxy_server/CMakeFiles/light_switch_proxy_server_nrf52832_xxAA_s132_6.0.0.dir/__/__/__/mesh/access/src/access.c.obj
                0x00034e7c                access_element_sig_model_count_get
 .text.access_element_vendor_model_count_get
                0x00034e94       0x18 examples/light_switch/proxy_server/CMakeFiles/light_switch_proxy_server_nrf52832_xxAA_s132_6.0.0.dir/__/__/__/mesh/access/src/access.c.obj
                0x00034e94                access_element_vendor_model_count_get
 .text.access_model_id_get
                0x00034eac       0x2c examples/light_switch/proxy_server/CMakeFiles/light_switch_proxy_server_nrf52832_xxAA_s132_6.0.0.dir/__/__/__/mesh/access/src/access.c.obj
                0x00034eac                access_model_id_get
 .text.access_handle_get
                0x00034ed8       0x4c examples/light_switch/proxy_server/CMakeFiles/light_switch_proxy_server_nrf52832_xxAA_s132_6.0.0.dir/__/__/__/mesh/access/src/access.c.obj
                0x00034ed8                access_handle_get
 .text.access_element_models_get
                0x00034f24       0x48 examples/light_switch/proxy_server/CMakeFiles/light_switch_proxy_server_nrf52832_xxAA_s132_6.0.0.dir/__/__/__/mesh/access/src/access.c.obj
                0x00034f24                access_element_models_get
 .text.access_model_p_args_get
                0x00034f6c       0x28 examples/light_switch/proxy_server/CMakeFiles/light_switch_proxy_server_nrf52832_xxAA_s132_6.0.0.dir/__/__/__/mesh/access/src/access.c.obj
                0x00034f6c                access_model_p_args_get
 .text.access_model_publication_stop
                0x00034f94       0x70 examples/light_switch/proxy_server/CMakeFiles/light_switch_proxy_server_nrf52832_xxAA_s132_6.0.0.dir/__/__/__/mesh/access/src/access.c.obj
                0x00034f94                access_model_publication_stop
 .text.access_model_publication_by_appkey_stop
                0x00035004       0x36 examples/light_switch/proxy_server/CMakeFiles/light_switch_proxy_server_nrf52832_xxAA_s132_6.0.0.dir/__/__/__/mesh/access/src/access.c.obj
                0x00035004                access_model_publication_by_appkey_stop
 *fill*         0x0003503a        0x2 
 .text.reliable_timer_cb
                0x0003503c      0x11c examples/light_switch/proxy_server/CMakeFiles/light_switch_proxy_server_nrf52832_xxAA_s132_6.0.0.dir/__/__/__/mesh/access/src/access_reliable.c.obj
 .text.remove_and_reschedule
                0x00035158       0xac examples/light_switch/proxy_server/CMakeFiles/light_switch_proxy_server_nrf52832_xxAA_s132_6.0.0.dir/__/__/__/mesh/access/src/access_reliable.c.obj
 .text.access_reliable_message_rx_cb
                0x00035204       0x68 examples/light_switch/proxy_server/CMakeFiles/light_switch_proxy_server_nrf52832_xxAA_s132_6.0.0.dir/__/__/__/mesh/access/src/access_reliable.c.obj
                0x00035204                access_reliable_message_rx_cb
 .text.access_reliable_init
                0x0003526c       0x1c examples/light_switch/proxy_server/CMakeFiles/light_switch_proxy_server_nrf52832_xxAA_s132_6.0.0.dir/__/__/__/mesh/access/src/access_reliable.c.obj
                0x0003526c                access_reliable_init
 .text.access_reliable_cancel_all
                0x00035288       0x60 examples/light_switch/proxy_server/CMakeFiles/light_switch_proxy_server_nrf52832_xxAA_s132_6.0.0.dir/__/__/__/mesh/access/src/access_reliable.c.obj
                0x00035288                access_reliable_cancel_all
 .text.access_model_reliable_cancel
                0x000352e8       0x68 examples/light_switch/proxy_server/CMakeFiles/light_switch_proxy_server_nrf52832_xxAA_s132_6.0.0.dir/__/__/__/mesh/access/src/access_reliable.c.obj
                0x000352e8                access_model_reliable_cancel
 .text.bitfield_get
                0x00035350       0x1a examples/light_switch/proxy_server/CMakeFiles/light_switch_proxy_server_nrf52832_xxAA_s132_6.0.0.dir/__/__/__/mesh/access/src/device_state_manager.c.obj
 .text.bitfield_set
                0x0003536a       0x18 examples/light_switch/proxy_server/CMakeFiles/light_switch_proxy_server_nrf52832_xxAA_s132_6.0.0.dir/__/__/__/mesh/access/src/device_state_manager.c.obj
 .text.bitfield_clear
                0x00035382       0x1a examples/light_switch/proxy_server/CMakeFiles/light_switch_proxy_server_nrf52832_xxAA_s132_6.0.0.dir/__/__/__/mesh/access/src/device_state_manager.c.obj
 .text.bitfield_is_all_clear
                0x0003539c       0x3c examples/light_switch/proxy_server/CMakeFiles/light_switch_proxy_server_nrf52832_xxAA_s132_6.0.0.dir/__/__/__/mesh/access/src/device_state_manager.c.obj
 .text.address_handle_virtual_valid
                0x000353d8       0x18 examples/light_switch/proxy_server/CMakeFiles/light_switch_proxy_server_nrf52832_xxAA_s132_6.0.0.dir/__/__/__/mesh/access/src/device_state_manager.c.obj
 .text.net_key_handle_get
                0x000353f0       0x58 examples/light_switch/proxy_server/CMakeFiles/light_switch_proxy_server_nrf52832_xxAA_s132_6.0.0.dir/__/__/__/mesh/access/src/device_state_manager.c.obj
 .text.dev_key_handle_get
                0x00035448       0x30 examples/light_switch/proxy_server/CMakeFiles/light_switch_proxy_server_nrf52832_xxAA_s132_6.0.0.dir/__/__/__/mesh/access/src/device_state_manager.c.obj
 .text.app_key_handle_get
                0x00035478       0x58 examples/light_switch/proxy_server/CMakeFiles/light_switch_proxy_server_nrf52832_xxAA_s132_6.0.0.dir/__/__/__/mesh/access/src/device_state_manager.c.obj
 .text.addr_nonvirtual_to_flash_entry
                0x000354d0       0x10 examples/light_switch/proxy_server/CMakeFiles/light_switch_proxy_server_nrf52832_xxAA_s132_6.0.0.dir/__/__/__/mesh/access/src/device_state_manager.c.obj
 .text.devkey_set
                0x000354e0       0x50 examples/light_switch/proxy_server/CMakeFiles/light_switch_proxy_server_nrf52832_xxAA_s132_6.0.0.dir/__/__/__/mesh/access/src/device_state_manager.c.obj
 .text.devkey_to_dsm_entry
                0x00035530       0x18 examples/light_switch/proxy_server/CMakeFiles/light_switch_proxy_server_nrf52832_xxAA_s132_6.0.0.dir/__/__/__/mesh/access/src/device_state_manager.c.obj
 .text.devkey_to_flash_entry
                0x00035548       0x28 examples/light_switch/proxy_server/CMakeFiles/light_switch_proxy_server_nrf52832_xxAA_s132_6.0.0.dir/__/__/__/mesh/access/src/device_state_manager.c.obj
 .text.addr_virtual_to_flash_entry
                0x00035570       0x18 examples/light_switch/proxy_server/CMakeFiles/light_switch_proxy_server_nrf52832_xxAA_s132_6.0.0.dir/__/__/__/mesh/access/src/device_state_manager.c.obj
 .text.addr_unicast_to_dsm_entry
                0x00035588        0xc examples/light_switch/proxy_server/CMakeFiles/light_switch_proxy_server_nrf52832_xxAA_s132_6.0.0.dir/__/__/__/mesh/access/src/device_state_manager.c.obj
 .text.addr_unicast_to_flash_entry
                0x00035594       0x10 examples/light_switch/proxy_server/CMakeFiles/light_switch_proxy_server_nrf52832_xxAA_s132_6.0.0.dir/__/__/__/mesh/access/src/device_state_manager.c.obj
 .text.flash_mem_listener_callback
                0x000355a4       0x14 examples/light_switch/proxy_server/CMakeFiles/light_switch_proxy_server_nrf52832_xxAA_s132_6.0.0.dir/__/__/__/mesh/access/src/device_state_manager.c.obj
 .text.get_subnet_handle
                0x000355b8       0x54 examples/light_switch/proxy_server/CMakeFiles/light_switch_proxy_server_nrf52832_xxAA_s132_6.0.0.dir/__/__/__/mesh/access/src/device_state_manager.c.obj
 .text.appkey_set
                0x0003560c       0x70 examples/light_switch/proxy_server/CMakeFiles/light_switch_proxy_server_nrf52832_xxAA_s132_6.0.0.dir/__/__/__/mesh/access/src/device_state_manager.c.obj
 .text.appkey_to_flash_entry
                0x0003567c       0x54 examples/light_switch/proxy_server/CMakeFiles/light_switch_proxy_server_nrf52832_xxAA_s132_6.0.0.dir/__/__/__/mesh/access/src/device_state_manager.c.obj
 .text.subnet_to_flash_entry
                0x000356d0       0x60 examples/light_switch/proxy_server/CMakeFiles/light_switch_proxy_server_nrf52832_xxAA_s132_6.0.0.dir/__/__/__/mesh/access/src/device_state_manager.c.obj
 .text.bitfield_clear_all
                0x00035730        0xe examples/light_switch/proxy_server/CMakeFiles/light_switch_proxy_server_nrf52832_xxAA_s132_6.0.0.dir/__/__/__/mesh/access/src/device_state_manager.c.obj
 *fill*         0x0003573e        0x2 
 .text.subnet_set
                0x00035740       0xac examples/light_switch/proxy_server/CMakeFiles/light_switch_proxy_server_nrf52832_xxAA_s132_6.0.0.dir/__/__/__/mesh/access/src/device_state_manager.c.obj
 .text.virtual_address_set
                0x000357ec       0x4c examples/light_switch/proxy_server/CMakeFiles/light_switch_proxy_server_nrf52832_xxAA_s132_6.0.0.dir/__/__/__/mesh/access/src/device_state_manager.c.obj
 .text.addr_virtual_to_dsm_entry
                0x00035838        0xe examples/light_switch/proxy_server/CMakeFiles/light_switch_proxy_server_nrf52832_xxAA_s132_6.0.0.dir/__/__/__/mesh/access/src/device_state_manager.c.obj
 *fill*         0x00035846        0x2 
 .text.reset_flash_area
                0x00035848       0x28 examples/light_switch/proxy_server/CMakeFiles/light_switch_proxy_server_nrf52832_xxAA_s132_6.0.0.dir/__/__/__/mesh/access/src/device_state_manager.c.obj
 .text.flash_save
                0x00035870       0x7c examples/light_switch/proxy_server/CMakeFiles/light_switch_proxy_server_nrf52832_xxAA_s132_6.0.0.dir/__/__/__/mesh/access/src/device_state_manager.c.obj
 .text.flash_invalidate
                0x000358ec       0x64 examples/light_switch/proxy_server/CMakeFiles/light_switch_proxy_server_nrf52832_xxAA_s132_6.0.0.dir/__/__/__/mesh/access/src/device_state_manager.c.obj
 .text.flash_update_all
                0x00035950       0x6c examples/light_switch/proxy_server/CMakeFiles/light_switch_proxy_server_nrf52832_xxAA_s132_6.0.0.dir/__/__/__/mesh/access/src/device_state_manager.c.obj
 .text.virtual_address_uuid_index_get
                0x000359bc       0x60 examples/light_switch/proxy_server/CMakeFiles/light_switch_proxy_server_nrf52832_xxAA_s132_6.0.0.dir/__/__/__/mesh/access/src/device_state_manager.c.obj
 .text.add_address_virtual
                0x00035a1c       0x74 examples/light_switch/proxy_server/CMakeFiles/light_switch_proxy_server_nrf52832_xxAA_s132_6.0.0.dir/__/__/__/mesh/access/src/device_state_manager.c.obj
 .text.get_subnet_handle_by_beacon_info
                0x00035a90       0x30 examples/light_switch/proxy_server/CMakeFiles/light_switch_proxy_server_nrf52832_xxAA_s132_6.0.0.dir/__/__/__/mesh/access/src/device_state_manager.c.obj
 .text.get_app_handle
                0x00035ac0       0x44 examples/light_switch/proxy_server/CMakeFiles/light_switch_proxy_server_nrf52832_xxAA_s132_6.0.0.dir/__/__/__/mesh/access/src/device_state_manager.c.obj
 .text.appkey_to_dsm_entry
                0x00035b04       0x68 examples/light_switch/proxy_server/CMakeFiles/light_switch_proxy_server_nrf52832_xxAA_s132_6.0.0.dir/__/__/__/mesh/access/src/device_state_manager.c.obj
 .text.subnet_to_dsm_entry
                0x00035b6c       0x68 examples/light_switch/proxy_server/CMakeFiles/light_switch_proxy_server_nrf52832_xxAA_s132_6.0.0.dir/__/__/__/mesh/access/src/device_state_manager.c.obj
 .text.flash_operation_complete
                0x00035bd4       0x4c examples/light_switch/proxy_server/CMakeFiles/light_switch_proxy_server_nrf52832_xxAA_s132_6.0.0.dir/__/__/__/mesh/access/src/device_state_manager.c.obj
 .text.flash_invalidate_complete
                0x00035c20        0x8 examples/light_switch/proxy_server/CMakeFiles/light_switch_proxy_server_nrf52832_xxAA_s132_6.0.0.dir/__/__/__/mesh/access/src/device_state_manager.c.obj
 .text.flash_write_complete
                0x00035c28        0x8 examples/light_switch/proxy_server/CMakeFiles/light_switch_proxy_server_nrf52832_xxAA_s132_6.0.0.dir/__/__/__/mesh/access/src/device_state_manager.c.obj
 .text.add_address.part.8
                0x00035c30      0x164 examples/light_switch/proxy_server/CMakeFiles/light_switch_proxy_server_nrf52832_xxAA_s132_6.0.0.dir/__/__/__/mesh/access/src/device_state_manager.c.obj
 .text.bitfield_next_get.part.0.constprop.17
                0x00035d94       0x3c examples/light_switch/proxy_server/CMakeFiles/light_switch_proxy_server_nrf52832_xxAA_s132_6.0.0.dir/__/__/__/mesh/access/src/device_state_manager.c.obj
 .text.address_handle_valid
                0x00035dd0       0x28 examples/light_switch/proxy_server/CMakeFiles/light_switch_proxy_server_nrf52832_xxAA_s132_6.0.0.dir/__/__/__/mesh/access/src/device_state_manager.c.obj
 .text.address_handle_nonvirtual_valid
                0x00035df8       0x14 examples/light_switch/proxy_server/CMakeFiles/light_switch_proxy_server_nrf52832_xxAA_s132_6.0.0.dir/__/__/__/mesh/access/src/device_state_manager.c.obj
 .text.address_delete_if_unused
                0x00035e0c       0x78 examples/light_switch/proxy_server/CMakeFiles/light_switch_proxy_server_nrf52832_xxAA_s132_6.0.0.dir/__/__/__/mesh/access/src/device_state_manager.c.obj
 .text.addr_nonvirtual_to_dsm_entry
                0x00035e84       0x38 examples/light_switch/proxy_server/CMakeFiles/light_switch_proxy_server_nrf52832_xxAA_s132_6.0.0.dir/__/__/__/mesh/access/src/device_state_manager.c.obj
 .text.dsm_flash_config_load
                0x00035ebc      0x120 examples/light_switch/proxy_server/CMakeFiles/light_switch_proxy_server_nrf52832_xxAA_s132_6.0.0.dir/__/__/__/mesh/access/src/device_state_manager.c.obj
                0x00035ebc                dsm_flash_config_load
 .text.dsm_flash_area_get
                0x00035fdc        0xc examples/light_switch/proxy_server/CMakeFiles/light_switch_proxy_server_nrf52832_xxAA_s132_6.0.0.dir/__/__/__/mesh/access/src/device_state_manager.c.obj
                0x00035fdc                dsm_flash_area_get
 .text.build_flash_area
                0x00035fe8       0x8c examples/light_switch/proxy_server/CMakeFiles/light_switch_proxy_server_nrf52832_xxAA_s132_6.0.0.dir/__/__/__/mesh/access/src/device_state_manager.c.obj
 .text.flash_remove_complete
                0x00036074        0x4 examples/light_switch/proxy_server/CMakeFiles/light_switch_proxy_server_nrf52832_xxAA_s132_6.0.0.dir/__/__/__/mesh/access/src/device_state_manager.c.obj
 .text.dsm_clear
                0x00036078       0xb4 examples/light_switch/proxy_server/CMakeFiles/light_switch_proxy_server_nrf52832_xxAA_s132_6.0.0.dir/__/__/__/mesh/access/src/device_state_manager.c.obj
                0x00036078                dsm_clear
 .text.dsm_init
                0x0003612c       0x3c examples/light_switch/proxy_server/CMakeFiles/light_switch_proxy_server_nrf52832_xxAA_s132_6.0.0.dir/__/__/__/mesh/access/src/device_state_manager.c.obj
                0x0003612c                dsm_init
 .text.dsm_local_unicast_addresses_set
                0x00036168       0x78 examples/light_switch/proxy_server/CMakeFiles/light_switch_proxy_server_nrf52832_xxAA_s132_6.0.0.dir/__/__/__/mesh/access/src/device_state_manager.c.obj
                0x00036168                dsm_local_unicast_addresses_set
 .text.dsm_local_unicast_addresses_get
                0x000361e0       0x20 examples/light_switch/proxy_server/CMakeFiles/light_switch_proxy_server_nrf52832_xxAA_s132_6.0.0.dir/__/__/__/mesh/access/src/device_state_manager.c.obj
                0x000361e0                dsm_local_unicast_addresses_get
 .text.dsm_address_publish_add
                0x00036200        0xc examples/light_switch/proxy_server/CMakeFiles/light_switch_proxy_server_nrf52832_xxAA_s132_6.0.0.dir/__/__/__/mesh/access/src/device_state_manager.c.obj
                0x00036200                dsm_address_publish_add
 .text.dsm_address_publish_add_handle
                0x0003620c       0x38 examples/light_switch/proxy_server/CMakeFiles/light_switch_proxy_server_nrf52832_xxAA_s132_6.0.0.dir/__/__/__/mesh/access/src/device_state_manager.c.obj
                0x0003620c                dsm_address_publish_add_handle
 .text.dsm_address_publish_virtual_add
                0x00036244        0x6 examples/light_switch/proxy_server/CMakeFiles/light_switch_proxy_server_nrf52832_xxAA_s132_6.0.0.dir/__/__/__/mesh/access/src/device_state_manager.c.obj
                0x00036244                dsm_address_publish_virtual_add
 *fill*         0x0003624a        0x2 
 .text.dsm_address_publish_remove
                0x0003624c       0x44 examples/light_switch/proxy_server/CMakeFiles/light_switch_proxy_server_nrf52832_xxAA_s132_6.0.0.dir/__/__/__/mesh/access/src/device_state_manager.c.obj
                0x0003624c                dsm_address_publish_remove
 .text.dsm_address_subscription_add
                0x00036290        0xc examples/light_switch/proxy_server/CMakeFiles/light_switch_proxy_server_nrf52832_xxAA_s132_6.0.0.dir/__/__/__/mesh/access/src/device_state_manager.c.obj
                0x00036290                dsm_address_subscription_add
 .text.dsm_address_subscription_virtual_add
                0x0003629c        0x6 examples/light_switch/proxy_server/CMakeFiles/light_switch_proxy_server_nrf52832_xxAA_s132_6.0.0.dir/__/__/__/mesh/access/src/device_state_manager.c.obj
                0x0003629c                dsm_address_subscription_virtual_add
 *fill*         0x000362a2        0x2 
 .text.dsm_address_subscription_add_handle
                0x000362a4       0x38 examples/light_switch/proxy_server/CMakeFiles/light_switch_proxy_server_nrf52832_xxAA_s132_6.0.0.dir/__/__/__/mesh/access/src/device_state_manager.c.obj
                0x000362a4                dsm_address_subscription_add_handle
 .text.dsm_address_subscription_get
                0x000362dc       0x34 examples/light_switch/proxy_server/CMakeFiles/light_switch_proxy_server_nrf52832_xxAA_s132_6.0.0.dir/__/__/__/mesh/access/src/device_state_manager.c.obj
                0x000362dc                dsm_address_subscription_get
 .text.dsm_address_get
                0x00036310       0x5c examples/light_switch/proxy_server/CMakeFiles/light_switch_proxy_server_nrf52832_xxAA_s132_6.0.0.dir/__/__/__/mesh/access/src/device_state_manager.c.obj
                0x00036310                dsm_address_get
 .text.dsm_address_subscription_remove
                0x0003636c       0x5c examples/light_switch/proxy_server/CMakeFiles/light_switch_proxy_server_nrf52832_xxAA_s132_6.0.0.dir/__/__/__/mesh/access/src/device_state_manager.c.obj
                0x0003636c                dsm_address_subscription_remove
 .text.dsm_address_handle_get
                0x000363c8       0x98 examples/light_switch/proxy_server/CMakeFiles/light_switch_proxy_server_nrf52832_xxAA_s132_6.0.0.dir/__/__/__/mesh/access/src/device_state_manager.c.obj
                0x000363c8                dsm_address_handle_get
 .text.dsm_net_key_index_to_subnet_handle
                0x00036460       0x1c examples/light_switch/proxy_server/CMakeFiles/light_switch_proxy_server_nrf52832_xxAA_s132_6.0.0.dir/__/__/__/mesh/access/src/device_state_manager.c.obj
                0x00036460                dsm_net_key_index_to_subnet_handle
 .text.dsm_subnet_handle_get
                0x0003647c        0xc examples/light_switch/proxy_server/CMakeFiles/light_switch_proxy_server_nrf52832_xxAA_s132_6.0.0.dir/__/__/__/mesh/access/src/device_state_manager.c.obj
                0x0003647c                dsm_subnet_handle_get
 .text.dsm_appkey_index_to_appkey_handle
                0x00036488       0x1c examples/light_switch/proxy_server/CMakeFiles/light_switch_proxy_server_nrf52832_xxAA_s132_6.0.0.dir/__/__/__/mesh/access/src/device_state_manager.c.obj
                0x00036488                dsm_appkey_index_to_appkey_handle
 .text.dsm_appkey_handle_get
                0x000364a4        0xc examples/light_switch/proxy_server/CMakeFiles/light_switch_proxy_server_nrf52832_xxAA_s132_6.0.0.dir/__/__/__/mesh/access/src/device_state_manager.c.obj
                0x000364a4                dsm_appkey_handle_get
 .text.dsm_appkey_handle_to_appkey_index
                0x000364b0       0x34 examples/light_switch/proxy_server/CMakeFiles/light_switch_proxy_server_nrf52832_xxAA_s132_6.0.0.dir/__/__/__/mesh/access/src/device_state_manager.c.obj
                0x000364b0                dsm_appkey_handle_to_appkey_index
 .text.dsm_appkey_handle_to_subnet_handle
                0x000364e4       0xa0 examples/light_switch/proxy_server/CMakeFiles/light_switch_proxy_server_nrf52832_xxAA_s132_6.0.0.dir/__/__/__/mesh/access/src/device_state_manager.c.obj
                0x000364e4                dsm_appkey_handle_to_subnet_handle
 .text.dsm_subnet_add
                0x00036584       0x78 examples/light_switch/proxy_server/CMakeFiles/light_switch_proxy_server_nrf52832_xxAA_s132_6.0.0.dir/__/__/__/mesh/access/src/device_state_manager.c.obj
                0x00036584                dsm_subnet_add
 .text.dsm_subnet_kr_phase_get
                0x000365fc       0x34 examples/light_switch/proxy_server/CMakeFiles/light_switch_proxy_server_nrf52832_xxAA_s132_6.0.0.dir/__/__/__/mesh/access/src/device_state_manager.c.obj
                0x000365fc                dsm_subnet_kr_phase_get
 .text.dsm_subnet_update
                0x00036630       0xdc examples/light_switch/proxy_server/CMakeFiles/light_switch_proxy_server_nrf52832_xxAA_s132_6.0.0.dir/__/__/__/mesh/access/src/device_state_manager.c.obj
                0x00036630                dsm_subnet_update
 .text.dsm_subnet_update_swap_keys
                0x0003670c       0x5c examples/light_switch/proxy_server/CMakeFiles/light_switch_proxy_server_nrf52832_xxAA_s132_6.0.0.dir/__/__/__/mesh/access/src/device_state_manager.c.obj
                0x0003670c                dsm_subnet_update_swap_keys
 .text.dsm_subnet_update_commit
                0x00036768       0xf4 examples/light_switch/proxy_server/CMakeFiles/light_switch_proxy_server_nrf52832_xxAA_s132_6.0.0.dir/__/__/__/mesh/access/src/device_state_manager.c.obj
                0x00036768                dsm_subnet_update_commit
 .text.mesh_evt_handler
                0x0003685c       0x4c examples/light_switch/proxy_server/CMakeFiles/light_switch_proxy_server_nrf52832_xxAA_s132_6.0.0.dir/__/__/__/mesh/access/src/device_state_manager.c.obj
 .text.dsm_subnet_get_all
                0x000368a8       0x60 examples/light_switch/proxy_server/CMakeFiles/light_switch_proxy_server_nrf52832_xxAA_s132_6.0.0.dir/__/__/__/mesh/access/src/device_state_manager.c.obj
                0x000368a8                dsm_subnet_get_all
 .text.dsm_devkey_add
                0x00036908       0x7c examples/light_switch/proxy_server/CMakeFiles/light_switch_proxy_server_nrf52832_xxAA_s132_6.0.0.dir/__/__/__/mesh/access/src/device_state_manager.c.obj
                0x00036908                dsm_devkey_add
 .text.dsm_appkey_add
                0x00036984       0x90 examples/light_switch/proxy_server/CMakeFiles/light_switch_proxy_server_nrf52832_xxAA_s132_6.0.0.dir/__/__/__/mesh/access/src/device_state_manager.c.obj
                0x00036984                dsm_appkey_add
 .text.dsm_appkey_update
                0x00036a14       0xa4 examples/light_switch/proxy_server/CMakeFiles/light_switch_proxy_server_nrf52832_xxAA_s132_6.0.0.dir/__/__/__/mesh/access/src/device_state_manager.c.obj
                0x00036a14                dsm_appkey_update
 .text.dsm_appkey_delete
                0x00036ab8       0x30 examples/light_switch/proxy_server/CMakeFiles/light_switch_proxy_server_nrf52832_xxAA_s132_6.0.0.dir/__/__/__/mesh/access/src/device_state_manager.c.obj
                0x00036ab8                dsm_appkey_delete
 .text.dsm_subnet_delete
                0x00036ae8       0xac examples/light_switch/proxy_server/CMakeFiles/light_switch_proxy_server_nrf52832_xxAA_s132_6.0.0.dir/__/__/__/mesh/access/src/device_state_manager.c.obj
                0x00036ae8                dsm_subnet_delete
 .text.dsm_appkey_get_all
                0x00036b94       0x88 examples/light_switch/proxy_server/CMakeFiles/light_switch_proxy_server_nrf52832_xxAA_s132_6.0.0.dir/__/__/__/mesh/access/src/device_state_manager.c.obj
                0x00036b94                dsm_appkey_get_all
 .text.dsm_tx_secmat_get
                0x00036c1c       0xc4 examples/light_switch/proxy_server/CMakeFiles/light_switch_proxy_server_nrf52832_xxAA_s132_6.0.0.dir/__/__/__/mesh/access/src/device_state_manager.c.obj
                0x00036c1c                dsm_tx_secmat_get
 .text.dsm_beacon_info_get
                0x00036ce0       0x38 examples/light_switch/proxy_server/CMakeFiles/light_switch_proxy_server_nrf52832_xxAA_s132_6.0.0.dir/__/__/__/mesh/access/src/device_state_manager.c.obj
                0x00036ce0                dsm_beacon_info_get
 .text.dsm_net_secmat_from_keyindex_get
                0x00036d18       0x3c examples/light_switch/proxy_server/CMakeFiles/light_switch_proxy_server_nrf52832_xxAA_s132_6.0.0.dir/__/__/__/mesh/access/src/device_state_manager.c.obj
                0x00036d18                dsm_net_secmat_from_keyindex_get
 .text.nrf_mesh_net_secmat_next_get
                0x00036d54       0xb4 examples/light_switch/proxy_server/CMakeFiles/light_switch_proxy_server_nrf52832_xxAA_s132_6.0.0.dir/__/__/__/mesh/access/src/device_state_manager.c.obj
                0x00036d54                nrf_mesh_net_secmat_next_get
 .text.nrf_mesh_app_secmat_next_get
                0x00036e08       0x88 examples/light_switch/proxy_server/CMakeFiles/light_switch_proxy_server_nrf52832_xxAA_s132_6.0.0.dir/__/__/__/mesh/access/src/device_state_manager.c.obj
                0x00036e08                nrf_mesh_app_secmat_next_get
 .text.nrf_mesh_devkey_secmat_get
                0x00036e90       0x28 examples/light_switch/proxy_server/CMakeFiles/light_switch_proxy_server_nrf52832_xxAA_s132_6.0.0.dir/__/__/__/mesh/access/src/device_state_manager.c.obj
                0x00036e90                nrf_mesh_devkey_secmat_get
 .text.nrf_mesh_beacon_info_next_get
                0x00036eb8       0xd4 examples/light_switch/proxy_server/CMakeFiles/light_switch_proxy_server_nrf52832_xxAA_s132_6.0.0.dir/__/__/__/mesh/access/src/device_state_manager.c.obj
                0x00036eb8                nrf_mesh_beacon_info_next_get
 .text.nrf_mesh_rx_address_get
                0x00036f8c      0x118 examples/light_switch/proxy_server/CMakeFiles/light_switch_proxy_server_nrf52832_xxAA_s132_6.0.0.dir/__/__/__/mesh/access/src/device_state_manager.c.obj
                0x00036f8c                nrf_mesh_rx_address_get
 .text.nrf_mesh_unicast_address_get
                0x000370a4       0x20 examples/light_switch/proxy_server/CMakeFiles/light_switch_proxy_server_nrf52832_xxAA_s132_6.0.0.dir/__/__/__/mesh/access/src/device_state_manager.c.obj
                0x000370a4                nrf_mesh_unicast_address_get
 .text.complete_provisioning
                0x000370c4       0x24 examples/light_switch/proxy_server/CMakeFiles/light_switch_proxy_server_nrf52832_xxAA_s132_6.0.0.dir/__/__/__/mesh/prov/src/prov_provisionee.c.obj
 .text.prov_provisionee_cb_link_established
                0x000370e8       0x36 examples/light_switch/proxy_server/CMakeFiles/light_switch_proxy_server_nrf52832_xxAA_s132_6.0.0.dir/__/__/__/mesh/prov/src/prov_provisionee.c.obj
 .text.prov_provisionee_cb_link_closed
                0x0003711e       0x34 examples/light_switch/proxy_server/CMakeFiles/light_switch_proxy_server_nrf52832_xxAA_s132_6.0.0.dir/__/__/__/mesh/prov/src/prov_provisionee.c.obj
 .text.request_authentication
                0x00037152       0x8a examples/light_switch/proxy_server/CMakeFiles/light_switch_proxy_server_nrf52832_xxAA_s132_6.0.0.dir/__/__/__/mesh/prov/src/prov_provisionee.c.obj
 .text.send_failed
                0x000371dc       0x3a examples/light_switch/proxy_server/CMakeFiles/light_switch_proxy_server_nrf52832_xxAA_s132_6.0.0.dir/__/__/__/mesh/prov/src/prov_provisionee.c.obj
 .text.start_authentication
                0x00037216       0x52 examples/light_switch/proxy_server/CMakeFiles/light_switch_proxy_server_nrf52832_xxAA_s132_6.0.0.dir/__/__/__/mesh/prov/src/prov_provisionee.c.obj
 .text.prov_provisionee_cb_ack_received
                0x00037268       0xc8 examples/light_switch/proxy_server/CMakeFiles/light_switch_proxy_server_nrf52832_xxAA_s132_6.0.0.dir/__/__/__/mesh/prov/src/prov_provisionee.c.obj
 .text.prov_provisionee_pkt_in
                0x00037330      0x2e4 examples/light_switch/proxy_server/CMakeFiles/light_switch_proxy_server_nrf52832_xxAA_s132_6.0.0.dir/__/__/__/mesh/prov/src/prov_provisionee.c.obj
 .text.prov_provisionee_listen
                0x00037614       0x30 examples/light_switch/proxy_server/CMakeFiles/light_switch_proxy_server_nrf52832_xxAA_s132_6.0.0.dir/__/__/__/mesh/prov/src/prov_provisionee.c.obj
                0x00037614                prov_provisionee_listen
 .text.prov_provisionee_auth_data
                0x00037644       0x98 examples/light_switch/proxy_server/CMakeFiles/light_switch_proxy_server_nrf52832_xxAA_s132_6.0.0.dir/__/__/__/mesh/prov/src/prov_provisionee.c.obj
                0x00037644                prov_provisionee_auth_data
 .text.bearer_compare_callback
                0x000376dc        0xc examples/light_switch/proxy_server/CMakeFiles/light_switch_proxy_server_nrf52832_xxAA_s132_6.0.0.dir/__/__/__/mesh/prov/src/nrf_mesh_prov.c.obj
 .text.bitfield_next_get.part.0.constprop.4
                0x000376e8       0x34 examples/light_switch/proxy_server/CMakeFiles/light_switch_proxy_server_nrf52832_xxAA_s132_6.0.0.dir/__/__/__/mesh/prov/src/nrf_mesh_prov.c.obj
 .text.nrf_mesh_prov_init
                0x0003771c       0x32 examples/light_switch/proxy_server/CMakeFiles/light_switch_proxy_server_nrf52832_xxAA_s132_6.0.0.dir/__/__/__/mesh/prov/src/nrf_mesh_prov.c.obj
                0x0003771c                nrf_mesh_prov_init
 *fill*         0x0003774e        0x2 
 .text.nrf_mesh_prov_bearer_add
                0x00037750       0x28 examples/light_switch/proxy_server/CMakeFiles/light_switch_proxy_server_nrf52832_xxAA_s132_6.0.0.dir/__/__/__/mesh/prov/src/nrf_mesh_prov.c.obj
                0x00037750                nrf_mesh_prov_bearer_add
 .text.nrf_mesh_prov_generate_keys
                0x00037778        0x4 examples/light_switch/proxy_server/CMakeFiles/light_switch_proxy_server_nrf52832_xxAA_s132_6.0.0.dir/__/__/__/mesh/prov/src/nrf_mesh_prov.c.obj
                0x00037778                nrf_mesh_prov_generate_keys
 .text.nrf_mesh_prov_listen_stop
                0x0003777c       0x2e examples/light_switch/proxy_server/CMakeFiles/light_switch_proxy_server_nrf52832_xxAA_s132_6.0.0.dir/__/__/__/mesh/prov/src/nrf_mesh_prov.c.obj
                0x0003777c                nrf_mesh_prov_listen_stop
 .text.nrf_mesh_prov_listen
                0x000377aa       0x88 examples/light_switch/proxy_server/CMakeFiles/light_switch_proxy_server_nrf52832_xxAA_s132_6.0.0.dir/__/__/__/mesh/prov/src/nrf_mesh_prov.c.obj
                0x000377aa                nrf_mesh_prov_listen
 .text.nrf_mesh_prov_auth_data_provide
                0x00037832        0xe examples/light_switch/proxy_server/CMakeFiles/light_switch_proxy_server_nrf52832_xxAA_s132_6.0.0.dir/__/__/__/mesh/prov/src/nrf_mesh_prov.c.obj
                0x00037832                nrf_mesh_prov_auth_data_provide
 .text.send_data
                0x00037840       0x28 examples/light_switch/proxy_server/CMakeFiles/light_switch_proxy_server_nrf52832_xxAA_s132_6.0.0.dir/__/__/__/mesh/prov/src/provisioning.c.obj
 .text.prov_packet_length_valid
                0x00037868       0x1c examples/light_switch/proxy_server/CMakeFiles/light_switch_proxy_server_nrf52832_xxAA_s132_6.0.0.dir/__/__/__/mesh/prov/src/provisioning.c.obj
                0x00037868                prov_packet_length_valid
 .text.prov_tx_capabilities
                0x00037884       0x1e examples/light_switch/proxy_server/CMakeFiles/light_switch_proxy_server_nrf52832_xxAA_s132_6.0.0.dir/__/__/__/mesh/prov/src/provisioning.c.obj
                0x00037884                prov_tx_capabilities
 .text.prov_tx_public_key
                0x000378a2       0x26 examples/light_switch/proxy_server/CMakeFiles/light_switch_proxy_server_nrf52832_xxAA_s132_6.0.0.dir/__/__/__/mesh/prov/src/provisioning.c.obj
                0x000378a2                prov_tx_public_key
 .text.prov_tx_input_complete
                0x000378c8       0x16 examples/light_switch/proxy_server/CMakeFiles/light_switch_proxy_server_nrf52832_xxAA_s132_6.0.0.dir/__/__/__/mesh/prov/src/provisioning.c.obj
                0x000378c8                prov_tx_input_complete
 .text.prov_tx_confirmation
                0x000378de       0x26 examples/light_switch/proxy_server/CMakeFiles/light_switch_proxy_server_nrf52832_xxAA_s132_6.0.0.dir/__/__/__/mesh/prov/src/provisioning.c.obj
                0x000378de                prov_tx_confirmation
 .text.prov_tx_random
                0x00037904       0x26 examples/light_switch/proxy_server/CMakeFiles/light_switch_proxy_server_nrf52832_xxAA_s132_6.0.0.dir/__/__/__/mesh/prov/src/provisioning.c.obj
                0x00037904                prov_tx_random
 .text.prov_tx_complete
                0x0003792a       0x16 examples/light_switch/proxy_server/CMakeFiles/light_switch_proxy_server_nrf52832_xxAA_s132_6.0.0.dir/__/__/__/mesh/prov/src/provisioning.c.obj
                0x0003792a                prov_tx_complete
 .text.prov_tx_failed
                0x00037940       0x1a examples/light_switch/proxy_server/CMakeFiles/light_switch_proxy_server_nrf52832_xxAA_s132_6.0.0.dir/__/__/__/mesh/prov/src/provisioning.c.obj
                0x00037940                prov_tx_failed
 .text.prov_beacon_unprov_build
                0x0003795a       0x54 examples/light_switch/proxy_server/CMakeFiles/light_switch_proxy_server_nrf52832_xxAA_s132_6.0.0.dir/__/__/__/mesh/prov/src/prov_beacon.c.obj
                0x0003795a                prov_beacon_unprov_build
 *fill*         0x000379ae        0x2 
 .text.prov_beacon_unprov_packet_in
                0x000379b0       0x88 examples/light_switch/proxy_server/CMakeFiles/light_switch_proxy_server_nrf52832_xxAA_s132_6.0.0.dir/__/__/__/mesh/prov/src/prov_beacon.c.obj
                0x000379b0                prov_beacon_unprov_packet_in
 .text.oob_gen_alphanumeric
                0x00037a38       0x34 examples/light_switch/proxy_server/CMakeFiles/light_switch_proxy_server_nrf52832_xxAA_s132_6.0.0.dir/__/__/__/mesh/prov/src/prov_utils.c.obj
 .text.oob_gen_numeric
                0x00037a6c       0x3c examples/light_switch/proxy_server/CMakeFiles/light_switch_proxy_server_nrf52832_xxAA_s132_6.0.0.dir/__/__/__/mesh/prov/src/prov_utils.c.obj
 .text.prov_utils_opt_set
                0x00037aa8       0x20 examples/light_switch/proxy_server/CMakeFiles/light_switch_proxy_server_nrf52832_xxAA_s132_6.0.0.dir/__/__/__/mesh/prov/src/prov_utils.c.obj
                0x00037aa8                prov_utils_opt_set
 .text.prov_utils_opt_get
                0x00037ac8       0x1c examples/light_switch/proxy_server/CMakeFiles/light_switch_proxy_server_nrf52832_xxAA_s132_6.0.0.dir/__/__/__/mesh/prov/src/prov_utils.c.obj
                0x00037ac8                prov_utils_opt_get
 .text.prov_utils_use_ecdh_offloading
                0x00037ae4        0xc examples/light_switch/proxy_server/CMakeFiles/light_switch_proxy_server_nrf52832_xxAA_s132_6.0.0.dir/__/__/__/mesh/prov/src/prov_utils.c.obj
                0x00037ae4                prov_utils_use_ecdh_offloading
 .text.prov_utils_authentication_values_derive
                0x00037af0       0xa0 examples/light_switch/proxy_server/CMakeFiles/light_switch_proxy_server_nrf52832_xxAA_s132_6.0.0.dir/__/__/__/mesh/prov/src/prov_utils.c.obj
                0x00037af0                prov_utils_authentication_values_derive
 .text.prov_utils_keys_generate
                0x00037b90       0x1e examples/light_switch/proxy_server/CMakeFiles/light_switch_proxy_server_nrf52832_xxAA_s132_6.0.0.dir/__/__/__/mesh/prov/src/prov_utils.c.obj
                0x00037b90                prov_utils_keys_generate
 *fill*         0x00037bae        0x2 
 .text.prov_utils_derive_keys
                0x00037bb0       0xac examples/light_switch/proxy_server/CMakeFiles/light_switch_proxy_server_nrf52832_xxAA_s132_6.0.0.dir/__/__/__/mesh/prov/src/prov_utils.c.obj
                0x00037bb0                prov_utils_derive_keys
 .text.prov_utils_calculate_shared_secret
                0x00037c5c       0x36 examples/light_switch/proxy_server/CMakeFiles/light_switch_proxy_server_nrf52832_xxAA_s132_6.0.0.dir/__/__/__/mesh/prov/src/prov_utils.c.obj
                0x00037c5c                prov_utils_calculate_shared_secret
 .text.prov_utils_generate_oob_data
                0x00037c92       0x8a examples/light_switch/proxy_server/CMakeFiles/light_switch_proxy_server_nrf52832_xxAA_s132_6.0.0.dir/__/__/__/mesh/prov/src/prov_utils.c.obj
                0x00037c92                prov_utils_generate_oob_data
 .text.prov_utils_confirmation_check
                0x00037d1c       0x5c examples/light_switch/proxy_server/CMakeFiles/light_switch_proxy_server_nrf52832_xxAA_s132_6.0.0.dir/__/__/__/mesh/prov/src/prov_utils.c.obj
                0x00037d1c                prov_utils_confirmation_check
 .text.link_timeout_cb
                0x00037d78       0x10 examples/light_switch/proxy_server/CMakeFiles/light_switch_proxy_server_nrf52832_xxAA_s132_6.0.0.dir/__/__/__/mesh/prov/src/prov_bearer_adv.c.obj
 .text.remove_active_bearer
                0x00037d88       0x4c examples/light_switch/proxy_server/CMakeFiles/light_switch_proxy_server_nrf52832_xxAA_s132_6.0.0.dir/__/__/__/mesh/prov/src/prov_bearer_adv.c.obj
 .text.close_link
                0x00037dd4       0x58 examples/light_switch/proxy_server/CMakeFiles/light_switch_proxy_server_nrf52832_xxAA_s132_6.0.0.dir/__/__/__/mesh/prov/src/prov_bearer_adv.c.obj
 .text.prov_bearer_adv_listen_stop
                0x00037e2c       0x30 examples/light_switch/proxy_server/CMakeFiles/light_switch_proxy_server_nrf52832_xxAA_s132_6.0.0.dir/__/__/__/mesh/prov/src/prov_bearer_adv.c.obj
 .text.send_packet
                0x00037e5c       0x5e examples/light_switch/proxy_server/CMakeFiles/light_switch_proxy_server_nrf52832_xxAA_s132_6.0.0.dir/__/__/__/mesh/prov/src/prov_bearer_adv.c.obj
 .text.prov_buffer_tx
                0x00037eba      0x134 examples/light_switch/proxy_server/CMakeFiles/light_switch_proxy_server_nrf52832_xxAA_s132_6.0.0.dir/__/__/__/mesh/prov/src/prov_bearer_adv.c.obj
 .text.send_link_close
                0x00037fee       0x38 examples/light_switch/proxy_server/CMakeFiles/light_switch_proxy_server_nrf52832_xxAA_s132_6.0.0.dir/__/__/__/mesh/prov/src/prov_bearer_adv.c.obj
 .text.prov_bearer_adv_link_close
                0x00038026       0x56 examples/light_switch/proxy_server/CMakeFiles/light_switch_proxy_server_nrf52832_xxAA_s132_6.0.0.dir/__/__/__/mesh/prov/src/prov_bearer_adv.c.obj
 .text.send_transaction_ack
                0x0003807c       0x24 examples/light_switch/proxy_server/CMakeFiles/light_switch_proxy_server_nrf52832_xxAA_s132_6.0.0.dir/__/__/__/mesh/prov/src/prov_bearer_adv.c.obj
 .text.send_link_ack
                0x000380a0       0x32 examples/light_switch/proxy_server/CMakeFiles/light_switch_proxy_server_nrf52832_xxAA_s132_6.0.0.dir/__/__/__/mesh/prov/src/prov_bearer_adv.c.obj
 .text.reset_timeout_timer
                0x000380d2       0x1a examples/light_switch/proxy_server/CMakeFiles/light_switch_proxy_server_nrf52832_xxAA_s132_6.0.0.dir/__/__/__/mesh/prov/src/prov_bearer_adv.c.obj
 .text.tx_complete_cb
                0x000380ec       0x1c examples/light_switch/proxy_server/CMakeFiles/light_switch_proxy_server_nrf52832_xxAA_s132_6.0.0.dir/__/__/__/mesh/prov/src/prov_bearer_adv.c.obj
 .text.tx_retry_cb
                0x00038108       0xcc examples/light_switch/proxy_server/CMakeFiles/light_switch_proxy_server_nrf52832_xxAA_s132_6.0.0.dir/__/__/__/mesh/prov/src/prov_bearer_adv.c.obj
 .text.add_active_bearer
                0x000381d4       0x80 examples/light_switch/proxy_server/CMakeFiles/light_switch_proxy_server_nrf52832_xxAA_s132_6.0.0.dir/__/__/__/mesh/prov/src/prov_bearer_adv.c.obj
 .text.prov_bearer_adv_link_open
                0x00038254       0xec examples/light_switch/proxy_server/CMakeFiles/light_switch_proxy_server_nrf52832_xxAA_s132_6.0.0.dir/__/__/__/mesh/prov/src/prov_bearer_adv.c.obj
 .text.async_process
                0x00038340       0x50 examples/light_switch/proxy_server/CMakeFiles/light_switch_proxy_server_nrf52832_xxAA_s132_6.0.0.dir/__/__/__/mesh/prov/src/prov_bearer_adv.c.obj
 .text.prov_bearer_adv_listen
                0x00038390       0xd8 examples/light_switch/proxy_server/CMakeFiles/light_switch_proxy_server_nrf52832_xxAA_s132_6.0.0.dir/__/__/__/mesh/prov/src/prov_bearer_adv.c.obj
 .text.calculate_3GPP_CRC
                0x00038468       0x24 examples/light_switch/proxy_server/CMakeFiles/light_switch_proxy_server_nrf52832_xxAA_s132_6.0.0.dir/__/__/__/mesh/prov/src/prov_bearer_adv.c.obj
                0x00038468                calculate_3GPP_CRC
 .text.prov_bearer_adv_tx
                0x0003848c       0xb4 examples/light_switch/proxy_server/CMakeFiles/light_switch_proxy_server_nrf52832_xxAA_s132_6.0.0.dir/__/__/__/mesh/prov/src/prov_bearer_adv.c.obj
 .text.prov_buffer_rx
                0x00038540       0x6e examples/light_switch/proxy_server/CMakeFiles/light_switch_proxy_server_nrf52832_xxAA_s132_6.0.0.dir/__/__/__/mesh/prov/src/prov_bearer_adv.c.obj
 *fill*         0x000385ae        0x2 
 .text.nrf_mesh_prov_bearer_adv_interface_get
                0x000385b0       0x3c examples/light_switch/proxy_server/CMakeFiles/light_switch_proxy_server_nrf52832_xxAA_s132_6.0.0.dir/__/__/__/mesh/prov/src/prov_bearer_adv.c.obj
                0x000385b0                nrf_mesh_prov_bearer_adv_interface_get
 .text.prov_bearer_adv_packet_in
                0x000385ec      0x7f8 examples/light_switch/proxy_server/CMakeFiles/light_switch_proxy_server_nrf52832_xxAA_s132_6.0.0.dir/__/__/__/mesh/prov/src/prov_bearer_adv.c.obj
                0x000385ec                prov_bearer_adv_packet_in
 .text.errata_57
                0x00038de4       0x34 examples/light_switch/proxy_server/CMakeFiles/light_switch_proxy_server_nrf52832_xxAA_s132_6.0.0.dir/C_/b/nRF5_SDK_15.0.0_a53641a/modules/nrfx/mdk/system_nrf52.c.obj
 .text.errata_136
                0x00038e18       0x40 examples/light_switch/proxy_server/CMakeFiles/light_switch_proxy_server_nrf52832_xxAA_s132_6.0.0.dir/C_/b/nRF5_SDK_15.0.0_a53641a/modules/nrfx/mdk/system_nrf52.c.obj
 .text.SystemInit
                0x00038e58      0x264 examples/light_switch/proxy_server/CMakeFiles/light_switch_proxy_server_nrf52832_xxAA_s132_6.0.0.dir/C_/b/nRF5_SDK_15.0.0_a53641a/modules/nrfx/mdk/system_nrf52.c.obj
                0x00038e58                SystemInit
 .text          0x000390bc       0x3c examples/light_switch/proxy_server/CMakeFiles/light_switch_proxy_server_nrf52832_xxAA_s132_6.0.0.dir/C_/b/nRF5_SDK_15.0.0_a53641a/modules/nrfx/mdk/gcc_startup_nrf52.S.obj
                0x000390bc                Reset_Handler
                0x000390e4                NMI_Handler
                0x000390e6                HardFault_Handler
                0x000390e8                MemoryManagement_Handler
                0x000390ea                BusFault_Handler
                0x000390ec                UsageFault_Handler
                0x000390ee                SVC_Handler
                0x000390f0                DebugMon_Handler
                0x000390f2                PendSV_Handler
                0x000390f4                SysTick_Handler
                0x000390f6                PDM_IRQHandler
                0x000390f6                TEMP_IRQHandler
                0x000390f6                TIMER3_IRQHandler
                0x000390f6                FPU_IRQHandler
                0x000390f6                SPIM0_SPIS0_TWIM0_TWIS0_SPI0_TWI0_IRQHandler
                0x000390f6                RADIO_IRQHandler
                0x000390f6                UARTE0_UART0_IRQHandler
                0x000390f6                TIMER4_IRQHandler
                0x000390f6                I2S_IRQHandler
                0x000390f6                SWI4_EGU4_IRQHandler
                0x000390f6                TIMER0_IRQHandler
                0x000390f6                RTC0_IRQHandler
                0x000390f6                TIMER1_IRQHandler
                0x000390f6                POWER_CLOCK_IRQHandler
                0x000390f6                ECB_IRQHandler
                0x000390f6                SPIM1_SPIS1_TWIM1_TWIS1_SPI1_TWI1_IRQHandler
                0x000390f6                Default_Handler
                0x000390f6                SAADC_IRQHandler
                0x000390f6                CCM_AAR_IRQHandler
                0x000390f6                WDT_IRQHandler
                0x000390f6                SWI0_EGU0_IRQHandler
                0x000390f6                SWI5_EGU5_IRQHandler
                0x000390f6                RNG_IRQHandler
                0x000390f6                RTC2_IRQHandler
                0x000390f6                PWM0_IRQHandler
                0x000390f6                SWI3_EGU3_IRQHandler
                0x000390f6                RTC1_IRQHandler
                0x000390f6                SWI1_EGU1_IRQHandler
                0x000390f6                SPIM2_SPIS2_SPI2_IRQHandler
                0x000390f6                NFCT_IRQHandler
                0x000390f6                PWM1_IRQHandler
                0x000390f6                MWU_IRQHandler
                0x000390f6                PWM2_IRQHandler
                0x000390f6                COMP_LPCOMP_IRQHandler
 .text.app_error_handler_bare
                0x000390f8       0x1a examples/light_switch/proxy_server/CMakeFiles/light_switch_proxy_server_nrf52832_xxAA_s132_6.0.0.dir/C_/b/nRF5_SDK_15.0.0_a53641a/components/libraries/util/app_error.c.obj
                0x000390f8                app_error_handler_bare
 .text.app_error_handler
                0x00039112       0x1a examples/light_switch/proxy_server/CMakeFiles/light_switch_proxy_server_nrf52832_xxAA_s132_6.0.0.dir/C_/b/nRF5_SDK_15.0.0_a53641a/components/libraries/util/app_error_handler_gcc.c.obj
                0x00039112                app_error_handler
 .text._GetAvailWriteSpace
                0x0003912c       0x1c external/rtt/librtt_nrf52832_xxAA.a(SEGGER_RTT.c.obj)
 .text._WriteNoCheck
                0x00039148       0x3c external/rtt/librtt_nrf52832_xxAA.a(SEGGER_RTT.c.obj)
 .text._WriteBlocking
                0x00039184       0x52 external/rtt/librtt_nrf52832_xxAA.a(SEGGER_RTT.c.obj)
 *fill*         0x000391d6        0x2 
 .text._DoInit  0x000391d8       0x60 external/rtt/librtt_nrf52832_xxAA.a(SEGGER_RTT.c.obj)
 .text.SEGGER_RTT_ReadNoLock
                0x00039238       0x88 external/rtt/librtt_nrf52832_xxAA.a(SEGGER_RTT.c.obj)
                0x00039238                SEGGER_RTT_ReadNoLock
 .text.SEGGER_RTT_Read
                0x000392c0       0x1c external/rtt/librtt_nrf52832_xxAA.a(SEGGER_RTT.c.obj)
                0x000392c0                SEGGER_RTT_Read
 .text.SEGGER_RTT_WriteNoLock
                0x000392dc       0x68 external/rtt/librtt_nrf52832_xxAA.a(SEGGER_RTT.c.obj)
                0x000392dc                SEGGER_RTT_WriteNoLock
 .text.SEGGER_RTT_Write
                0x00039344       0x34 external/rtt/librtt_nrf52832_xxAA.a(SEGGER_RTT.c.obj)
                0x00039344                SEGGER_RTT_Write
 .text.SEGGER_RTT_GetKey
                0x00039378       0x20 external/rtt/librtt_nrf52832_xxAA.a(SEGGER_RTT.c.obj)
                0x00039378                SEGGER_RTT_GetKey
 .text._StoreChar
                0x00039398       0x3e external/rtt/librtt_nrf52832_xxAA.a(SEGGER_RTT_printf.c.obj)
 *fill*         0x000393d6        0x2 
 .text._PrintUnsigned
                0x000393d8       0xd0 external/rtt/librtt_nrf52832_xxAA.a(SEGGER_RTT_printf.c.obj)
 .text.SEGGER_RTT_vprintf
                0x000394a8      0x246 external/rtt/librtt_nrf52832_xxAA.a(SEGGER_RTT_printf.c.obj)
                0x000394a8                SEGGER_RTT_vprintf
 .text.SEGGER_RTT_printf
                0x000396ee       0x1e external/rtt/librtt_nrf52832_xxAA.a(SEGGER_RTT_printf.c.obj)
                0x000396ee                SEGGER_RTT_printf
 .text.uECC_vli_mult
                0x0003970c       0x64 external/micro-ecc/libuECC_nrf52832_xxAA.a(uECC.c.obj)
 .text.uECC_vli_clear
                0x00039770       0x16 external/micro-ecc/libuECC_nrf52832_xxAA.a(uECC.c.obj)
 .text.uECC_vli_isZero
                0x00039786       0x1e external/micro-ecc/libuECC_nrf52832_xxAA.a(uECC.c.obj)
 .text.uECC_vli_testBit
                0x000397a4       0x14 external/micro-ecc/libuECC_nrf52832_xxAA.a(uECC.c.obj)
 .text.uECC_vli_numBits
                0x000397b8       0x3a external/micro-ecc/libuECC_nrf52832_xxAA.a(uECC.c.obj)
 .text.uECC_vli_set
                0x000397f2       0x18 external/micro-ecc/libuECC_nrf52832_xxAA.a(uECC.c.obj)
 .text.uECC_vli_cmp_unsafe
                0x0003980a       0x28 external/micro-ecc/libuECC_nrf52832_xxAA.a(uECC.c.obj)
 .text.uECC_vli_rshift1
                0x00039832       0x1c external/micro-ecc/libuECC_nrf52832_xxAA.a(uECC.c.obj)
 .text.uECC_vli_modMult_fast
                0x0003984e       0x20 external/micro-ecc/libuECC_nrf52832_xxAA.a(uECC.c.obj)
 .text.uECC_vli_modSquare_fast
                0x0003986e        0x8 external/micro-ecc/libuECC_nrf52832_xxAA.a(uECC.c.obj)
 .text.apply_z  0x00039876       0x3e external/micro-ecc/libuECC_nrf52832_xxAA.a(uECC.c.obj)
 .text.uECC_vli_nativeToBytes
                0x000398b4       0x28 external/micro-ecc/libuECC_nrf52832_xxAA.a(uECC.c.obj)
 .text.uECC_vli_bytesToNative
                0x000398dc       0x40 external/micro-ecc/libuECC_nrf52832_xxAA.a(uECC.c.obj)
 .text.default_RNG
                0x0003991c        0xc external/micro-ecc/libuECC_nrf52832_xxAA.a(uECC.c.obj)
 .text.uECC_vli_add.isra.0
                0x00039928       0x4a external/micro-ecc/libuECC_nrf52832_xxAA.a(uECC.c.obj)
 .text.regularize_k
                0x00039972       0x50 external/micro-ecc/libuECC_nrf52832_xxAA.a(uECC.c.obj)
 .text.uECC_vli_sub.isra.1
                0x000399c2       0x4e external/micro-ecc/libuECC_nrf52832_xxAA.a(uECC.c.obj)
 .text.uECC_vli_cmp
                0x00039a10       0x30 external/micro-ecc/libuECC_nrf52832_xxAA.a(uECC.c.obj)
 .text.uECC_generate_random_int
                0x00039a40       0x78 external/micro-ecc/libuECC_nrf52832_xxAA.a(uECC.c.obj)
 .text.uECC_vli_modAdd
                0x00039ab8       0x2e external/micro-ecc/libuECC_nrf52832_xxAA.a(uECC.c.obj)
 *fill*         0x00039ae6        0x2 
 .text.vli_mmod_fast_secp256r1
                0x00039ae8      0x194 external/micro-ecc/libuECC_nrf52832_xxAA.a(uECC.c.obj)
 .text.uECC_vli_modSub.isra.2
                0x00039c7c       0x1c external/micro-ecc/libuECC_nrf52832_xxAA.a(uECC.c.obj)
 .text.double_jacobian_default
                0x00039c98      0x14a external/micro-ecc/libuECC_nrf52832_xxAA.a(uECC.c.obj)
 .text.x_side_default
                0x00039de2       0x5a external/micro-ecc/libuECC_nrf52832_xxAA.a(uECC.c.obj)
 .text.XYcZ_add
                0x00039e3c       0xbc external/micro-ecc/libuECC_nrf52832_xxAA.a(uECC.c.obj)
 .text.XYcZ_addC
                0x00039ef8      0x10a external/micro-ecc/libuECC_nrf52832_xxAA.a(uECC.c.obj)
 .text.vli_modInv_update
                0x0003a002       0x36 external/micro-ecc/libuECC_nrf52832_xxAA.a(uECC.c.obj)
 .text.uECC_vli_modInv
                0x0003a038      0x102 external/micro-ecc/libuECC_nrf52832_xxAA.a(uECC.c.obj)
 .text.EccPoint_mult
                0x0003a13a      0x19e external/micro-ecc/libuECC_nrf52832_xxAA.a(uECC.c.obj)
 .text.EccPoint_compute_public_key
                0x0003a2d8       0x54 external/micro-ecc/libuECC_nrf52832_xxAA.a(uECC.c.obj)
 .text.uECC_secp256r1
                0x0003a32c        0x8 external/micro-ecc/libuECC_nrf52832_xxAA.a(uECC.c.obj)
                0x0003a32c                uECC_secp256r1
 .text.uECC_make_key
                0x0003a334       0x7e external/micro-ecc/libuECC_nrf52832_xxAA.a(uECC.c.obj)
                0x0003a334                uECC_make_key
 *fill*         0x0003a3b2        0x2 
 .text.uECC_shared_secret
                0x0003a3b4       0xbc external/micro-ecc/libuECC_nrf52832_xxAA.a(uECC.c.obj)
                0x0003a3b4                uECC_shared_secret
 .text.uECC_valid_point
                0x0003a470       0x86 external/micro-ecc/libuECC_nrf52832_xxAA.a(uECC.c.obj)
                0x0003a470                uECC_valid_point
 .text.uECC_valid_public_key
                0x0003a4f6       0x32 external/micro-ecc/libuECC_nrf52832_xxAA.a(uECC.c.obj)
                0x0003a4f6                uECC_valid_public_key
 .text          0x0003a528       0x30 c:/mesh/arm_gcc/bin/../lib/gcc/arm-none-eabi/6.3.1/thumb/v7e-m/fpv4-sp/hard\libgcc.a(_aeabi_uldivmod.o)
                0x0003a528                __aeabi_uldivmod
 .text          0x0003a558      0x2dc c:/mesh/arm_gcc/bin/../lib/gcc/arm-none-eabi/6.3.1/thumb/v7e-m/fpv4-sp/hard\libgcc.a(_udivmoddi4.o)
                0x0003a558                __udivmoddi4
 .text          0x0003a834        0x4 c:/mesh/arm_gcc/bin/../lib/gcc/arm-none-eabi/6.3.1/thumb/v7e-m/fpv4-sp/hard\libgcc.a(_dvmd_tls.o)
                0x0003a834                __aeabi_idiv0
                0x0003a834                __aeabi_ldiv0
 .text.exit     0x0003a838       0x28 c:/mesh/arm_gcc/bin/../lib/gcc/arm-none-eabi/6.3.1/../../../../arm-none-eabi/lib/thumb/v7e-m/fpv4-sp/hard\libg_nano.a(lib_a-exit.o)
                0x0003a838                exit
 .text.__libc_init_array
                0x0003a860       0x48 c:/mesh/arm_gcc/bin/../lib/gcc/arm-none-eabi/6.3.1/../../../../arm-none-eabi/lib/thumb/v7e-m/fpv4-sp/hard\libg_nano.a(lib_a-init.o)
                0x0003a860                __libc_init_array
 .text.malloc   0x0003a8a8       0x10 c:/mesh/arm_gcc/bin/../lib/gcc/arm-none-eabi/6.3.1/../../../../arm-none-eabi/lib/thumb/v7e-m/fpv4-sp/hard\libg_nano.a(lib_a-malloc.o)
                0x0003a8a8                malloc
 .text.free     0x0003a8b8       0x10 c:/mesh/arm_gcc/bin/../lib/gcc/arm-none-eabi/6.3.1/../../../../arm-none-eabi/lib/thumb/v7e-m/fpv4-sp/hard\libg_nano.a(lib_a-malloc.o)
                0x0003a8b8                free
 .text.memcmp   0x0003a8c8       0x1e c:/mesh/arm_gcc/bin/../lib/gcc/arm-none-eabi/6.3.1/../../../../arm-none-eabi/lib/thumb/v7e-m/fpv4-sp/hard\libg_nano.a(lib_a-memcmp.o)
                0x0003a8c8                memcmp
 .text.memcpy   0x0003a8e6       0x16 c:/mesh/arm_gcc/bin/../lib/gcc/arm-none-eabi/6.3.1/../../../../arm-none-eabi/lib/thumb/v7e-m/fpv4-sp/hard\libg_nano.a(lib_a-memcpy-stub.o)
                0x0003a8e6                memcpy
 .text.memset   0x0003a8fc       0x10 c:/mesh/arm_gcc/bin/../lib/gcc/arm-none-eabi/6.3.1/../../../../arm-none-eabi/lib/thumb/v7e-m/fpv4-sp/hard\libg_nano.a(lib_a-memset.o)
                0x0003a8fc                memset
 .text._free_r  0x0003a90c       0x9c c:/mesh/arm_gcc/bin/../lib/gcc/arm-none-eabi/6.3.1/../../../../arm-none-eabi/lib/thumb/v7e-m/fpv4-sp/hard\libg_nano.a(lib_a-nano-freer.o)
                0x0003a90c                _free_r
 .text._malloc_r
                0x0003a9a8       0xbc c:/mesh/arm_gcc/bin/../lib/gcc/arm-none-eabi/6.3.1/../../../../arm-none-eabi/lib/thumb/v7e-m/fpv4-sp/hard\libg_nano.a(lib_a-nano-mallocr.o)
                0x0003a9a8                _malloc_r
 .text._sbrk_r  0x0003aa64       0x20 c:/mesh/arm_gcc/bin/../lib/gcc/arm-none-eabi/6.3.1/../../../../arm-none-eabi/lib/thumb/v7e-m/fpv4-sp/hard\libg_nano.a(lib_a-sbrkr.o)
                0x0003aa64                _sbrk_r
 .text.strcpy   0x0003aa84       0x10 c:/mesh/arm_gcc/bin/../lib/gcc/arm-none-eabi/6.3.1/../../../../arm-none-eabi/lib/thumb/v7e-m/fpv4-sp/hard\libg_nano.a(lib_a-strcpy.o)
                0x0003aa84                strcpy
 .text          0x0003aa94       0x10 c:/mesh/arm_gcc/bin/../lib/gcc/arm-none-eabi/6.3.1/../../../../arm-none-eabi/lib/thumb/v7e-m/fpv4-sp/hard\libg_nano.a(lib_a-strlen.o)
                0x0003aa94                strlen
 .text.strrchr  0x0003aaa4       0x26 c:/mesh/arm_gcc/bin/../lib/gcc/arm-none-eabi/6.3.1/../../../../arm-none-eabi/lib/thumb/v7e-m/fpv4-sp/hard\libg_nano.a(lib_a-strrchr.o)
                0x0003aaa4                strrchr
 .text.__malloc_lock
                0x0003aaca        0x2 c:/mesh/arm_gcc/bin/../lib/gcc/arm-none-eabi/6.3.1/../../../../arm-none-eabi/lib/thumb/v7e-m/fpv4-sp/hard\libg_nano.a(lib_a-mlock.o)
                0x0003aaca                __malloc_lock
 .text.__malloc_unlock
                0x0003aacc        0x2 c:/mesh/arm_gcc/bin/../lib/gcc/arm-none-eabi/6.3.1/../../../../arm-none-eabi/lib/thumb/v7e-m/fpv4-sp/hard\libg_nano.a(lib_a-mlock.o)
                0x0003aacc                __malloc_unlock
 .text.strchr   0x0003aace       0x1c c:/mesh/arm_gcc/bin/../lib/gcc/arm-none-eabi/6.3.1/../../../../arm-none-eabi/lib/thumb/v7e-m/fpv4-sp/hard\libg_nano.a(lib_a-strchr.o)
                0x0003aace                strchr
 *fill*         0x0003aaea        0x2 
 .text._sbrk    0x0003aaec       0x1c c:/mesh/arm_gcc/bin/../lib/gcc/arm-none-eabi/6.3.1/../../../../arm-none-eabi/lib/thumb/v7e-m/fpv4-sp/hard\libnosys.a(sbrk.o)
                0x0003aaec                _sbrk
 .text._exit    0x0003ab08        0x4 c:/mesh/arm_gcc/bin/../lib/gcc/arm-none-eabi/6.3.1/../../../../arm-none-eabi/lib/thumb/v7e-m/fpv4-sp/hard\libnosys.a(_exit.o)
                0x0003ab08                _exit
 *(.init)
 .init          0x0003ab0c        0x4 c:/mesh/arm_gcc/bin/../lib/gcc/arm-none-eabi/6.3.1/thumb/v7e-m/fpv4-sp/hard/crti.o
                0x0003ab0c                _init
 .init          0x0003ab10        0x8 c:/mesh/arm_gcc/bin/../lib/gcc/arm-none-eabi/6.3.1/thumb/v7e-m/fpv4-sp/hard/crtn.o
 *(.fini)
 .fini          0x0003ab18        0x4 c:/mesh/arm_gcc/bin/../lib/gcc/arm-none-eabi/6.3.1/thumb/v7e-m/fpv4-sp/hard/crti.o
                0x0003ab18                _fini
 .fini          0x0003ab1c        0x8 c:/mesh/arm_gcc/bin/../lib/gcc/arm-none-eabi/6.3.1/thumb/v7e-m/fpv4-sp/hard/crtn.o
 *crtbegin.o(.ctors)
 *crtbegin?.o(.ctors)
 *(EXCLUDE_FILE(*crtend.o *crtend?.o) .ctors)
 *(SORT(.ctors.*))
 *(.ctors)
 *crtbegin.o(.dtors)
 *crtbegin?.o(.dtors)
 *(EXCLUDE_FILE(*crtend.o *crtend?.o) .dtors)
 *(SORT(.dtors.*))
 *(.dtors)
 *(.rodata*)
 .rodata        0x0003ab24        0x4 examples/light_switch/proxy_server/CMakeFiles/light_switch_proxy_server_nrf52832_xxAA_s132_6.0.0.dir/src/main.c.obj
 .rodata.button_event_handler.str1.1
                0x0003ab28       0x21 examples/light_switch/proxy_server/CMakeFiles/light_switch_proxy_server_nrf52832_xxAA_s132_6.0.0.dir/src/main.c.obj
 .rodata.main.str1.1
                0x0003ab49       0x5b examples/light_switch/proxy_server/CMakeFiles/light_switch_proxy_server_nrf52832_xxAA_s132_6.0.0.dir/src/main.c.obj
 .rodata.models_init_cb.str1.1
                0x0003aba4       0x20 examples/light_switch/proxy_server/CMakeFiles/light_switch_proxy_server_nrf52832_xxAA_s132_6.0.0.dir/src/main.c.obj
 .rodata.node_reset.str1.1
                0x0003abc4       0x19 examples/light_switch/proxy_server/CMakeFiles/light_switch_proxy_server_nrf52832_xxAA_s132_6.0.0.dir/src/main.c.obj
 .rodata.on_off_server_set_cb.str1.1
                0x0003abdd       0x17 examples/light_switch/proxy_server/CMakeFiles/light_switch_proxy_server_nrf52832_xxAA_s132_6.0.0.dir/src/main.c.obj
 .rodata.provisioning_complete_cb.str1.1
                0x0003abf4       0x62 examples/light_switch/proxy_server/CMakeFiles/light_switch_proxy_server_nrf52832_xxAA_s132_6.0.0.dir/src/main.c.obj
 .rodata.static_auth_data.12154
                0x0003ac56       0x10 examples/light_switch/proxy_server/CMakeFiles/light_switch_proxy_server_nrf52832_xxAA_s132_6.0.0.dir/src/main.c.obj
 .rodata        0x0003ac66        0xb examples/light_switch/proxy_server/CMakeFiles/light_switch_proxy_server_nrf52832_xxAA_s132_6.0.0.dir/__/__/common/src/mesh_provisionee.c.obj
 *fill*         0x0003ac71        0xf 
 .rodata.delay_bytecode.8414
                0x0003ac80        0x6 examples/light_switch/proxy_server/CMakeFiles/light_switch_proxy_server_nrf52832_xxAA_s132_6.0.0.dir/__/__/common/src/simple_hal.c.obj
 .rodata.m_buttons_list
                0x0003ac86        0x4 examples/light_switch/proxy_server/CMakeFiles/light_switch_proxy_server_nrf52832_xxAA_s132_6.0.0.dir/__/__/common/src/simple_hal.c.obj
 *fill*         0x0003ac8a        0x2 
 .rodata.m_pb_gatt_fsm_descriptor
                0x0003ac8c       0x24 examples/light_switch/proxy_server/CMakeFiles/light_switch_proxy_server_nrf52832_xxAA_s132_6.0.0.dir/__/__/__/mesh/prov/src/nrf_mesh_prov_bearer_gatt.c.obj
 .rodata.m_pb_gatt_fsm_transition_table
                0x0003acb0       0x48 examples/light_switch/proxy_server/CMakeFiles/light_switch_proxy_server_nrf52832_xxAA_s132_6.0.0.dir/__/__/__/mesh/prov/src/nrf_mesh_prov_bearer_gatt.c.obj
 .rodata.pb_gatt_fsm_actions
                0x0003acf8       0x24 examples/light_switch/proxy_server/CMakeFiles/light_switch_proxy_server_nrf52832_xxAA_s132_6.0.0.dir/__/__/__/mesh/prov/src/nrf_mesh_prov_bearer_gatt.c.obj
 .rodata.prov_bearer_interface.9812
                0x0003ad1c       0x14 examples/light_switch/proxy_server/CMakeFiles/light_switch_proxy_server_nrf52832_xxAA_s132_6.0.0.dir/__/__/__/mesh/prov/src/nrf_mesh_prov_bearer_gatt.c.obj
 .rodata.str1.1
                0x0003ad30      0x15f examples/light_switch/proxy_server/CMakeFiles/light_switch_proxy_server_nrf52832_xxAA_s132_6.0.0.dir/__/__/__/mesh/prov/src/nrf_mesh_prov_bearer_gatt.c.obj
 .rodata        0x0003ae8f        0x4 examples/light_switch/proxy_server/CMakeFiles/light_switch_proxy_server_nrf52832_xxAA_s132_6.0.0.dir/C_/b/nRF5_SDK_15.0.0_a53641a/components/softdevice/common/nrf_sdh.c.obj
 *fill*         0x0003ae93        0x1 
 .rodata.sdh_req_observers
                0x0003ae94        0xc examples/light_switch/proxy_server/CMakeFiles/light_switch_proxy_server_nrf52832_xxAA_s132_6.0.0.dir/C_/b/nRF5_SDK_15.0.0_a53641a/components/softdevice/common/nrf_sdh.c.obj
 .rodata.sdh_stack_observers
                0x0003aea0        0xc examples/light_switch/proxy_server/CMakeFiles/light_switch_proxy_server_nrf52832_xxAA_s132_6.0.0.dir/C_/b/nRF5_SDK_15.0.0_a53641a/components/softdevice/common/nrf_sdh.c.obj
 .rodata.sdh_state_observers
                0x0003aeac        0xc examples/light_switch/proxy_server/CMakeFiles/light_switch_proxy_server_nrf52832_xxAA_s132_6.0.0.dir/C_/b/nRF5_SDK_15.0.0_a53641a/components/softdevice/common/nrf_sdh.c.obj
 .rodata.sdh_soc_observers
                0x0003aeb8        0xc examples/light_switch/proxy_server/CMakeFiles/light_switch_proxy_server_nrf52832_xxAA_s132_6.0.0.dir/C_/b/nRF5_SDK_15.0.0_a53641a/components/softdevice/common/nrf_sdh_soc.c.obj
 .rodata.sdh_ble_observers
                0x0003aec4        0xc examples/light_switch/proxy_server/CMakeFiles/light_switch_proxy_server_nrf52832_xxAA_s132_6.0.0.dir/C_/b/nRF5_SDK_15.0.0_a53641a/components/softdevice/common/nrf_sdh_ble.c.obj
 .rodata.app_error_fault_handler.str1.1
                0x0003aed0       0xbd examples/light_switch/proxy_server/CMakeFiles/light_switch_proxy_server_nrf52832_xxAA_s132_6.0.0.dir/__/__/common/src/app_error_weak.c.obj
 .rodata.mesh_assertion_handler.str1.1
                0x0003af8d       0xbd examples/light_switch/proxy_server/CMakeFiles/light_switch_proxy_server_nrf52832_xxAA_s132_6.0.0.dir/__/__/common/src/assertion_handler_weak.c.obj
                                  0x1 (size before relaxing)
 .rodata.sar_ctx_cancel.str1.1
                0x0003af8d       0x23 examples/light_switch/proxy_server/CMakeFiles/light_switch_proxy_server_nrf52832_xxAA_s132_6.0.0.dir/__/__/__/mesh/core/src/transport.c.obj
 .rodata.test_transport_decrypt.str1.1
                0x0003afb0       0x30 examples/light_switch/proxy_server/CMakeFiles/light_switch_proxy_server_nrf52832_xxAA_s132_6.0.0.dir/__/__/__/mesh/core/src/transport.c.obj
 .rodata.transport_packet_in.str1.1
                0x0003afe0       0x24 examples/light_switch/proxy_server/CMakeFiles/light_switch_proxy_server_nrf52832_xxAA_s132_6.0.0.dir/__/__/__/mesh/core/src/transport.c.obj
 .rodata.upper_transport_access_packet_in.str1.1
                0x0003b004       0x29 examples/light_switch/proxy_server/CMakeFiles/light_switch_proxy_server_nrf52832_xxAA_s132_6.0.0.dir/__/__/__/mesh/core/src/transport.c.obj
 .rodata.upper_transport_packet_in.str1.1
                0x0003b02d       0x2e examples/light_switch/proxy_server/CMakeFiles/light_switch_proxy_server_nrf52832_xxAA_s132_6.0.0.dir/__/__/__/mesh/core/src/transport.c.obj
 .rodata.upper_transport_tx.str1.1
                0x0003b05b        0xe examples/light_switch/proxy_server/CMakeFiles/light_switch_proxy_server_nrf52832_xxAA_s132_6.0.0.dir/__/__/__/mesh/core/src/transport.c.obj
                                 0x16 (size before relaxing)
 *fill*         0x0003b069        0x3 
 .rodata.m_procedure_steps
                0x0003b06c       0x28 examples/light_switch/proxy_server/CMakeFiles/light_switch_proxy_server_nrf52832_xxAA_s132_6.0.0.dir/__/__/__/mesh/core/src/flash_manager_defrag.c.obj
 .rodata.m_all_operations
                0x0003b094       0x10 examples/light_switch/proxy_server/CMakeFiles/light_switch_proxy_server_nrf52832_xxAA_s132_6.0.0.dir/__/__/__/mesh/core/src/mesh_flash.c.obj
 .rodata.types_lookup.9060
                0x0003b0a4        0x4 examples/light_switch/proxy_server/CMakeFiles/light_switch_proxy_server_nrf52832_xxAA_s132_6.0.0.dir/__/__/__/mesh/core/src/nrf_mesh_utils.c.obj
 .rodata.__func__.11555
                0x0003b0a8       0x15 examples/light_switch/proxy_server/CMakeFiles/light_switch_proxy_server_nrf52832_xxAA_s132_6.0.0.dir/__/__/__/mesh/core/src/nrf_mesh.c.obj
 .rodata.nrf_mesh_listen.str1.1
                0x0003b0bd       0x70 examples/light_switch/proxy_server/CMakeFiles/light_switch_proxy_server_nrf52832_xxAA_s132_6.0.0.dir/__/__/__/mesh/core/src/nrf_mesh.c.obj
 .rodata.nrf_mesh_packet_send.str1.1
                0x0003b12d       0x70 examples/light_switch/proxy_server/CMakeFiles/light_switch_proxy_server_nrf52832_xxAA_s132_6.0.0.dir/__/__/__/mesh/core/src/nrf_mesh.c.obj
                                  0x4 (size before relaxing)
 *fill*         0x0003b12d        0x1 
 .rodata.CSWTCH.8
                0x0003b12e       0x10 examples/light_switch/proxy_server/CMakeFiles/light_switch_proxy_server_nrf52832_xxAA_s132_6.0.0.dir/__/__/__/mesh/core/src/hal.c.obj
 .rodata.Rb.7352
                0x0003b13e       0x10 examples/light_switch/proxy_server/CMakeFiles/light_switch_proxy_server_nrf52832_xxAA_s132_6.0.0.dir/__/__/__/mesh/core/src/aes_cmac.c.obj
 .rodata        0x0003b14e       0x15 examples/light_switch/proxy_server/CMakeFiles/light_switch_proxy_server_nrf52832_xxAA_s132_6.0.0.dir/__/__/__/mesh/core/src/enc.c.obj
 .rodata.network_packet_in.str1.1
                0x0003b163       0x48 examples/light_switch/proxy_server/CMakeFiles/light_switch_proxy_server_nrf52832_xxAA_s132_6.0.0.dir/__/__/__/mesh/core/src/network.c.obj
 .rodata.net_packet_decrypt.str1.1
                0x0003b1ab       0x31 examples/light_switch/proxy_server/CMakeFiles/light_switch_proxy_server_nrf52832_xxAA_s132_6.0.0.dir/__/__/__/mesh/core/src/net_packet.c.obj
                                 0x39 (size before relaxing)
 .rodata        0x0003b1dc        0x7 examples/light_switch/proxy_server/CMakeFiles/light_switch_proxy_server_nrf52832_xxAA_s132_6.0.0.dir/__/__/__/mesh/core/src/nrf_mesh_keygen.c.obj
 .rodata.log_callback_rtt.str1.1
                0x0003b1e3       0x15 examples/light_switch/proxy_server/CMakeFiles/light_switch_proxy_server_nrf52832_xxAA_s132_6.0.0.dir/__/__/__/mesh/core/src/log.c.obj
 .rodata.str1.1
                0x0003b1f8       0x11 examples/light_switch/proxy_server/CMakeFiles/light_switch_proxy_server_nrf52832_xxAA_s132_6.0.0.dir/__/__/__/mesh/core/src/log.c.obj
 *fill*         0x0003b209        0x3 
 .rodata.INVALID_HEADER
                0x0003b20c        0x4 examples/light_switch/proxy_server/CMakeFiles/light_switch_proxy_server_nrf52832_xxAA_s132_6.0.0.dir/__/__/__/mesh/core/src/flash_manager.c.obj
                0x0003b20c                INVALID_HEADER
 .rodata.PADDING_HEADER
                0x0003b210        0x4 examples/light_switch/proxy_server/CMakeFiles/light_switch_proxy_server_nrf52832_xxAA_s132_6.0.0.dir/__/__/__/mesh/core/src/flash_manager.c.obj
                0x0003b210                PADDING_HEADER
 .rodata.SEAL_HEADER
                0x0003b214        0x4 examples/light_switch/proxy_server/CMakeFiles/light_switch_proxy_server_nrf52832_xxAA_s132_6.0.0.dir/__/__/__/mesh/core/src/flash_manager.c.obj
                0x0003b214                SEAL_HEADER
 .rodata.beacon_packet_in.str1.1
                0x0003b218       0x51 examples/light_switch/proxy_server/CMakeFiles/light_switch_proxy_server_nrf52832_xxAA_s132_6.0.0.dir/__/__/__/mesh/core/src/beacon.c.obj
                                 0x59 (size before relaxing)
 *fill*         0x0003b269        0x3 
 .rodata.cp_handler
                0x0003b26c        0x8 examples/light_switch/proxy_server/CMakeFiles/light_switch_proxy_server_nrf52832_xxAA_s132_6.0.0.dir/__/__/__/mesh/core/src/heartbeat.c.obj
 .rodata.beacon_tx.str1.1
                0x0003b274       0x35 examples/light_switch/proxy_server/CMakeFiles/light_switch_proxy_server_nrf52832_xxAA_s132_6.0.0.dir/__/__/__/mesh/core/src/net_beacon.c.obj
 .rodata.net_beacon_init.str1.1
                0x0003b2a9        0x5 examples/light_switch/proxy_server/CMakeFiles/light_switch_proxy_server_nrf52832_xxAA_s132_6.0.0.dir/__/__/__/mesh/core/src/net_beacon.c.obj
 .rodata.fsm_event_post.str1.1
                0x0003b2ae        0xb examples/light_switch/proxy_server/CMakeFiles/light_switch_proxy_server_nrf52832_xxAA_s132_6.0.0.dir/__/__/__/mesh/core/src/fsm.c.obj
 .rodata.fsm_event_post_try.str1.1
                0x0003b2b9       0x41 examples/light_switch/proxy_server/CMakeFiles/light_switch_proxy_server_nrf52832_xxAA_s132_6.0.0.dir/__/__/__/mesh/core/src/fsm.c.obj
 .rodata.fsm_init.str1.1
                0x0003b2fa        0xa examples/light_switch/proxy_server/CMakeFiles/light_switch_proxy_server_nrf52832_xxAA_s132_6.0.0.dir/__/__/__/mesh/core/src/fsm.c.obj
 .rodata.m_interface
                0x0003b304        0xc examples/light_switch/proxy_server/CMakeFiles/light_switch_proxy_server_nrf52832_xxAA_s132_6.0.0.dir/__/__/__/mesh/core/src/core_tx_adv.c.obj
 .rodata.radio_mode_to_us_per_byte.9453
                0x0003b310        0x6 examples/light_switch/proxy_server/CMakeFiles/light_switch_proxy_server_nrf52832_xxAA_s132_6.0.0.dir/__/__/__/mesh/bearer/src/broadcast.c.obj
 .rodata.channel_rf_offsets.8694
                0x0003b316       0x28 examples/light_switch/proxy_server/CMakeFiles/light_switch_proxy_server_nrf52832_xxAA_s132_6.0.0.dir/__/__/__/mesh/bearer/src/radio_config.c.obj
 .rodata        0x0003b33e        0x3 examples/light_switch/proxy_server/CMakeFiles/light_switch_proxy_server_nrf52832_xxAA_s132_6.0.0.dir/__/__/__/mesh/bearer/src/scanner.c.obj
 *fill*         0x0003b341        0x1 
 .rodata        0x0003b342        0x6 examples/light_switch/proxy_server/CMakeFiles/light_switch_proxy_server_nrf52832_xxAA_s132_6.0.0.dir/__/__/__/mesh/gatt/src/proxy.c.obj
 .rodata.gatt_evt_handler.str1.1
                0x0003b348       0xd9 examples/light_switch/proxy_server/CMakeFiles/light_switch_proxy_server_nrf52832_xxAA_s132_6.0.0.dir/__/__/__/mesh/gatt/src/proxy.c.obj
 *fill*         0x0003b421        0x3 
 .rodata.m_interface
                0x0003b424        0xc examples/light_switch/proxy_server/CMakeFiles/light_switch_proxy_server_nrf52832_xxAA_s132_6.0.0.dir/__/__/__/mesh/gatt/src/proxy.c.obj
 .rodata.m_opcode_handlers
                0x0003b430       0x18 examples/light_switch/proxy_server/CMakeFiles/light_switch_proxy_server_nrf52832_xxAA_s132_6.0.0.dir/__/__/__/models/simple_on_off/src/simple_on_off_server.c.obj
 .rodata        0x0003b448        0x8 examples/light_switch/proxy_server/CMakeFiles/light_switch_proxy_server_nrf52832_xxAA_s132_6.0.0.dir/__/__/__/models/config/src/config_server.c.obj
 .rodata.CSWTCH.126
                0x0003b450       0x10 examples/light_switch/proxy_server/CMakeFiles/light_switch_proxy_server_nrf52832_xxAA_s132_6.0.0.dir/__/__/__/models/config/src/config_server.c.obj
 .rodata.opcode_handlers
                0x0003b460      0x170 examples/light_switch/proxy_server/CMakeFiles/light_switch_proxy_server_nrf52832_xxAA_s132_6.0.0.dir/__/__/__/models/config/src/config_server.c.obj
 .rodata.m_opcode_handlers
                0x0003b5d0       0x58 examples/light_switch/proxy_server/CMakeFiles/light_switch_proxy_server_nrf52832_xxAA_s132_6.0.0.dir/__/__/__/models/health/src/health_server.c.obj
 .rodata.multiply_de_bruijn_bit_position.9305
                0x0003b628       0x20 examples/light_switch/proxy_server/CMakeFiles/light_switch_proxy_server_nrf52832_xxAA_s132_6.0.0.dir/__/__/__/models/health/src/health_server.c.obj
 .rodata.mesh_evt_cb.str1.1
                0x0003b648       0x2f examples/light_switch/proxy_server/CMakeFiles/light_switch_proxy_server_nrf52832_xxAA_s132_6.0.0.dir/__/__/__/mesh/access/src/access.c.obj
 .rodata.multiply_de_bruijn_bit_position.9261
                0x0003b677       0x20 examples/light_switch/proxy_server/CMakeFiles/light_switch_proxy_server_nrf52832_xxAA_s132_6.0.0.dir/__/__/__/mesh/access/src/access.c.obj
 .rodata.packet_tx.str1.1
                0x0003b697       0x1c examples/light_switch/proxy_server/CMakeFiles/light_switch_proxy_server_nrf52832_xxAA_s132_6.0.0.dir/__/__/__/mesh/access/src/access.c.obj
                                 0x24 (size before relaxing)
 *fill*         0x0003b6b3        0x1 
 .rodata.m_flash_groups
                0x0003b6b4       0xa8 examples/light_switch/proxy_server/CMakeFiles/light_switch_proxy_server_nrf52832_xxAA_s132_6.0.0.dir/__/__/__/mesh/access/src/device_state_manager.c.obj
 .rodata.multiply_de_bruijn_bit_position.9367
                0x0003b75c       0x20 examples/light_switch/proxy_server/CMakeFiles/light_switch_proxy_server_nrf52832_xxAA_s132_6.0.0.dir/__/__/__/mesh/access/src/device_state_manager.c.obj
 .rodata.m_prov_callbacks
                0x0003b77c       0x10 examples/light_switch/proxy_server/CMakeFiles/light_switch_proxy_server_nrf52832_xxAA_s132_6.0.0.dir/__/__/__/mesh/prov/src/prov_provisionee.c.obj
 .rodata.prov_provisionee_cb_ack_received.str1.1
                0x0003b78c       0x53 examples/light_switch/proxy_server/CMakeFiles/light_switch_proxy_server_nrf52832_xxAA_s132_6.0.0.dir/__/__/__/mesh/prov/src/prov_provisionee.c.obj
 .rodata.multiply_de_bruijn_bit_position.9314
                0x0003b7df       0x20 examples/light_switch/proxy_server/CMakeFiles/light_switch_proxy_server_nrf52832_xxAA_s132_6.0.0.dir/__/__/__/mesh/prov/src/nrf_mesh_prov.c.obj
 .rodata.pdu_sizes.11239
                0x0003b7ff        0xa examples/light_switch/proxy_server/CMakeFiles/light_switch_proxy_server_nrf52832_xxAA_s132_6.0.0.dir/__/__/__/mesh/prov/src/provisioning.c.obj
 .rodata.alphanumeric.11344
                0x0003b809       0x25 examples/light_switch/proxy_server/CMakeFiles/light_switch_proxy_server_nrf52832_xxAA_s132_6.0.0.dir/__/__/__/mesh/prov/src/prov_utils.c.obj
 *fill*         0x0003b82e        0x2 
 .rodata.numeric_max.11338
                0x0003b830       0x24 examples/light_switch/proxy_server/CMakeFiles/light_switch_proxy_server_nrf52832_xxAA_s132_6.0.0.dir/__/__/__/mesh/prov/src/prov_utils.c.obj
 .rodata.prov_utils_authentication_values_derive.str1.1
                0x0003b854        0x5 examples/light_switch/proxy_server/CMakeFiles/light_switch_proxy_server_nrf52832_xxAA_s132_6.0.0.dir/__/__/__/mesh/prov/src/prov_utils.c.obj
 .rodata.prov_utils_derive_keys.str1.1
                0x0003b859        0xf examples/light_switch/proxy_server/CMakeFiles/light_switch_proxy_server_nrf52832_xxAA_s132_6.0.0.dir/__/__/__/mesh/prov/src/prov_utils.c.obj
 .rodata.add_active_bearer.str1.1
                0x0003b868       0x2c examples/light_switch/proxy_server/CMakeFiles/light_switch_proxy_server_nrf52832_xxAA_s132_6.0.0.dir/__/__/__/mesh/prov/src/prov_bearer_adv.c.obj
 .rodata.crctable.10973
                0x0003b894      0x100 examples/light_switch/proxy_server/CMakeFiles/light_switch_proxy_server_nrf52832_xxAA_s132_6.0.0.dir/__/__/__/mesh/prov/src/prov_bearer_adv.c.obj
 .rodata.interface.11203
                0x0003b994       0x14 examples/light_switch/proxy_server/CMakeFiles/light_switch_proxy_server_nrf52832_xxAA_s132_6.0.0.dir/__/__/__/mesh/prov/src/prov_bearer_adv.c.obj
 .rodata.prov_bearer_adv_packet_in.str1.1
                0x0003b9a8      0x26e examples/light_switch/proxy_server/CMakeFiles/light_switch_proxy_server_nrf52832_xxAA_s132_6.0.0.dir/__/__/__/mesh/prov/src/prov_bearer_adv.c.obj
 .rodata.tx_retry_cb.str1.1
                0x0003bc16       0x37 examples/light_switch/proxy_server/CMakeFiles/light_switch_proxy_server_nrf52832_xxAA_s132_6.0.0.dir/__/__/__/mesh/prov/src/prov_bearer_adv.c.obj
 .rodata._DoInit.str1.1
                0x0003bc4d       0x14 external/rtt/librtt_nrf52832_xxAA.a(SEGGER_RTT.c.obj)
 .rodata._aV2C.5497
                0x0003bc61       0x10 external/rtt/librtt_nrf52832_xxAA.a(SEGGER_RTT_printf.c.obj)
 *fill*         0x0003bc71        0x3 
 .rodata.curve_secp256r1
                0x0003bc74       0xb0 external/micro-ecc/libuECC_nrf52832_xxAA.a(uECC.c.obj)
 .rodata._global_impure_ptr
                0x0003bd24        0x4 c:/mesh/arm_gcc/bin/../lib/gcc/arm-none-eabi/6.3.1/../../../../arm-none-eabi/lib/thumb/v7e-m/fpv4-sp/hard\libg_nano.a(lib_a-impure.o)
                0x0003bd24                _global_impure_ptr
 *(.eh_frame*)
 .eh_frame      0x0003bd28        0x0 c:/mesh/arm_gcc/bin/../lib/gcc/arm-none-eabi/6.3.1/thumb/v7e-m/fpv4-sp/hard/crtbegin.o
 .eh_frame      0x0003bd28        0x4 c:/mesh/arm_gcc/bin/../lib/gcc/arm-none-eabi/6.3.1/thumb/v7e-m/fpv4-sp/hard/crtend.o

.glue_7         0x0003bd2c        0x0
 .glue_7        0x0003bd2c        0x0 linker stubs

.glue_7t        0x0003bd2c        0x0
 .glue_7t       0x0003bd2c        0x0 linker stubs

.vfp11_veneer   0x0003bd2c        0x0
 .vfp11_veneer  0x0003bd2c        0x0 linker stubs

.v4_bx          0x0003bd2c        0x0
 .v4_bx         0x0003bd2c        0x0 linker stubs

.iplt           0x0003bd2c        0x0
 .iplt          0x0003bd2c        0x0 c:/mesh/arm_gcc/bin/../lib/gcc/arm-none-eabi/6.3.1/thumb/v7e-m/fpv4-sp/hard/crtbegin.o

.pwr_mgmt_data  0x0003bd2c        0x0
                [!provide]                PROVIDE (__start_pwr_mgmt_data, .)
 *(SORT(.pwr_mgmt_data*))
                [!provide]                PROVIDE (__stop_pwr_mgmt_data, .)

.log_const_data
                0x0003bd2c        0x0
                [!provide]                PROVIDE (__start_log_const_data, .)
 *(.log_const_data)
                [!provide]                PROVIDE (__stop_log_const_data, .)

.cli_command    0x0003bd2c        0x0
                [!provide]                PROVIDE (__start_cli_command, .)
 *(.cli_command)
                [!provide]                PROVIDE (__stop_cli_command, .)

.sdh_stack_observers
                0x0003bd2c       0x10
                0x0003bd2c                PROVIDE (__start_sdh_stack_observers, .)
 *(SORT(.sdh_stack_observers*))
 .sdh_stack_observers0
                0x0003bd2c        0x8 examples/light_switch/proxy_server/CMakeFiles/light_switch_proxy_server_nrf52832_xxAA_s132_6.0.0.dir/C_/b/nRF5_SDK_15.0.0_a53641a/components/softdevice/common/nrf_sdh_soc.c.obj
 .sdh_stack_observers0
                0x0003bd34        0x8 examples/light_switch/proxy_server/CMakeFiles/light_switch_proxy_server_nrf52832_xxAA_s132_6.0.0.dir/C_/b/nRF5_SDK_15.0.0_a53641a/components/softdevice/common/nrf_sdh_ble.c.obj
                0x0003bd3c                PROVIDE (__stop_sdh_stack_observers, .)

.sdh_req_observers
                0x0003bd3c        0x0
                0x0003bd3c                PROVIDE (__start_sdh_req_observers, .)
 *(SORT(.sdh_req_observers*))
                0x0003bd3c                PROVIDE (__stop_sdh_req_observers, .)

.sdh_state_observers
                0x0003bd3c        0x8
                0x0003bd3c                PROVIDE (__start_sdh_state_observers, .)
 *(SORT(.sdh_state_observers*))
 .sdh_state_observers1
                0x0003bd3c        0x8 examples/light_switch/proxy_server/CMakeFiles/light_switch_proxy_server_nrf52832_xxAA_s132_6.0.0.dir/__/__/common/src/mesh_provisionee.c.obj
                0x0003bd44                PROVIDE (__stop_sdh_state_observers, .)

.sdh_ant_observers
                0x0003bd44        0x0
                [!provide]                PROVIDE (__start_sdh_ant_observers, .)
 *(SORT(.sdh_ant_observers*))
                [!provide]                PROVIDE (__stop_sdh_ant_observers, .)

.sdh_ble_observers
                0x0003bd44        0x8
                0x0003bd44                PROVIDE (__start_sdh_ble_observers, .)
 *(SORT(.sdh_ble_observers*))
 .sdh_ble_observers2
                0x0003bd44        0x8 examples/light_switch/proxy_server/CMakeFiles/light_switch_proxy_server_nrf52832_xxAA_s132_6.0.0.dir/__/__/__/mesh/gatt/src/mesh_gatt.c.obj
                0x0003bd4c                PROVIDE (__stop_sdh_ble_observers, .)

.sdh_soc_observers
                0x0003bd4c        0x8
                0x0003bd4c                PROVIDE (__start_sdh_soc_observers, .)
 *(SORT(.sdh_soc_observers*))
 .sdh_soc_observers0
                0x0003bd4c        0x8 examples/light_switch/proxy_server/CMakeFiles/light_switch_proxy_server_nrf52832_xxAA_s132_6.0.0.dir/src/main.c.obj
                0x0003bd54                PROVIDE (__stop_sdh_soc_observers, .)

.ARM.extab
 *(.ARM.extab* .gnu.linkonce.armextab.*)
                0x0003bd54                __exidx_start = .

.ARM.exidx      0x0003bd54        0x8
 *(.ARM.exidx* .gnu.linkonce.armexidx.*)
 .ARM.exidx     0x0003bd54        0x8 c:/mesh/arm_gcc/bin/../lib/gcc/arm-none-eabi/6.3.1/../../../../arm-none-eabi/lib/thumb/v7e-m/fpv4-sp/hard/crt0.o
 .ARM.exidx     0x0003bd5c        0x0 c:/mesh/arm_gcc/bin/../lib/gcc/arm-none-eabi/6.3.1/thumb/v7e-m/fpv4-sp/hard\libgcc.a(_udivmoddi4.o)
                                  0x8 (size before relaxing)
                0x0003bd5c                __exidx_end = .
                0x0003bd5c                __etext = .

.rel.dyn        0x0003bd5c        0x0
 .rel.iplt      0x0003bd5c        0x0 c:/mesh/arm_gcc/bin/../lib/gcc/arm-none-eabi/6.3.1/thumb/v7e-m/fpv4-sp/hard/crtbegin.o

.data           0x200032c8      0x1c4 load address 0x0003bd5c
                0x200032c8                __data_start__ = .
 *(vtable)
 *(.data*)
 .data.s_evt_handler.11079
                0x200032c8        0x8 examples/light_switch/proxy_server/CMakeFiles/light_switch_proxy_server_nrf52832_xxAA_s132_6.0.0.dir/__/__/__/mesh/stack/src/mesh_stack.c.obj
 .data.m_adv_handle
                0x200032d0        0x1 examples/light_switch/proxy_server/CMakeFiles/light_switch_proxy_server_nrf52832_xxAA_s132_6.0.0.dir/__/__/common/src/mesh_adv.c.obj
 *fill*         0x200032d1        0x3 
 .data.m_adv_params
                0x200032d4       0x18 examples/light_switch/proxy_server/CMakeFiles/light_switch_proxy_server_nrf52832_xxAA_s132_6.0.0.dir/__/__/common/src/mesh_adv.c.obj
 .data.m_action_lookup_table
                0x200032ec       0x24 examples/light_switch/proxy_server/CMakeFiles/light_switch_proxy_server_nrf52832_xxAA_s132_6.0.0.dir/__/__/__/mesh/prov/src/nrf_mesh_prov_bearer_gatt.c.obj
 .data.m_event_lookup_table
                0x20003310       0x2c examples/light_switch/proxy_server/CMakeFiles/light_switch_proxy_server_nrf52832_xxAA_s132_6.0.0.dir/__/__/__/mesh/prov/src/nrf_mesh_prov_bearer_gatt.c.obj
 .data.m_guard_lookup_table
                0x2000333c        0x4 examples/light_switch/proxy_server/CMakeFiles/light_switch_proxy_server_nrf52832_xxAA_s132_6.0.0.dir/__/__/__/mesh/prov/src/nrf_mesh_prov_bearer_gatt.c.obj
 .data.m_state_lookup_table
                0x20003340       0x10 examples/light_switch/proxy_server/CMakeFiles/light_switch_proxy_server_nrf52832_xxAA_s132_6.0.0.dir/__/__/__/mesh/prov/src/nrf_mesh_prov_bearer_gatt.c.obj
 .data.wait.8936
                0x20003350        0x1 examples/light_switch/proxy_server/CMakeFiles/light_switch_proxy_server_nrf52832_xxAA_s132_6.0.0.dir/__/__/common/src/app_error_weak.c.obj
 *fill*         0x20003351        0x3 
 .data.mem_listener.9811
                0x20003354       0x10 examples/light_switch/proxy_server/CMakeFiles/light_switch_proxy_server_nrf52832_xxAA_s132_6.0.0.dir/__/__/__/mesh/core/src/net_state.c.obj
 .data.mem_listener.9816
                0x20003364       0x10 examples/light_switch/proxy_server/CMakeFiles/light_switch_proxy_server_nrf52832_xxAA_s132_6.0.0.dir/__/__/__/mesh/core/src/net_state.c.obj
 .data.mem_listener.9830
                0x20003374       0x10 examples/light_switch/proxy_server/CMakeFiles/light_switch_proxy_server_nrf52832_xxAA_s132_6.0.0.dir/__/__/__/mesh/core/src/net_state.c.obj
 .data.mem_listener.9847
                0x20003384       0x10 examples/light_switch/proxy_server/CMakeFiles/light_switch_proxy_server_nrf52832_xxAA_s132_6.0.0.dir/__/__/__/mesh/core/src/net_state.c.obj
 .data.m_nrf_mesh_listener
                0x20003394        0xc examples/light_switch/proxy_server/CMakeFiles/light_switch_proxy_server_nrf52832_xxAA_s132_6.0.0.dir/__/__/__/mesh/core/src/nrf_mesh.c.obj
 .data.g_log_dbg_lvl
                0x200033a0        0x4 examples/light_switch/proxy_server/CMakeFiles/light_switch_proxy_server_nrf52832_xxAA_s132_6.0.0.dir/__/__/__/mesh/core/src/log.c.obj
                0x200033a0                g_log_dbg_lvl
 .data.g_log_dbg_msk
                0x200033a4        0x4 examples/light_switch/proxy_server/CMakeFiles/light_switch_proxy_server_nrf52832_xxAA_s132_6.0.0.dir/__/__/__/mesh/core/src/log.c.obj
                0x200033a4                g_log_dbg_msk
 .data.g_log_hex_digits
                0x200033a8        0x4 examples/light_switch/proxy_server/CMakeFiles/light_switch_proxy_server_nrf52832_xxAA_s132_6.0.0.dir/__/__/__/mesh/core/src/log.c.obj
                0x200033a8                g_log_hex_digits
 .data.m_log_callback
                0x200033ac        0x4 examples/light_switch/proxy_server/CMakeFiles/light_switch_proxy_server_nrf52832_xxAA_s132_6.0.0.dir/__/__/__/mesh/core/src/log.c.obj
                0x200033ac                m_log_callback
 .data.m_config_server_handle
                0x200033b0        0x2 examples/light_switch/proxy_server/CMakeFiles/light_switch_proxy_server_nrf52832_xxAA_s132_6.0.0.dir/__/__/__/models/config/src/config_server.c.obj
 *fill*         0x200033b2        0x2 
 .data.m_mesh_evt_handler
                0x200033b4        0x8 examples/light_switch/proxy_server/CMakeFiles/light_switch_proxy_server_nrf52832_xxAA_s132_6.0.0.dir/__/__/__/models/config/src/config_server.c.obj
 .data.flash_add_mem_available_struct.10385
                0x200033bc       0x10 examples/light_switch/proxy_server/CMakeFiles/light_switch_proxy_server_nrf52832_xxAA_s132_6.0.0.dir/__/__/__/mesh/access/src/access.c.obj
 .data.flash_clear_mem_available_struct.10474
                0x200033cc       0x10 examples/light_switch/proxy_server/CMakeFiles/light_switch_proxy_server_nrf52832_xxAA_s132_6.0.0.dir/__/__/__/mesh/access/src/access.c.obj
 .data.flash_store_mem_available_struct.10498
                0x200033dc       0x10 examples/light_switch/proxy_server/CMakeFiles/light_switch_proxy_server_nrf52832_xxAA_s132_6.0.0.dir/__/__/__/mesh/access/src/access.c.obj
 .data.m_default_ttl
                0x200033ec        0x1 examples/light_switch/proxy_server/CMakeFiles/light_switch_proxy_server_nrf52832_xxAA_s132_6.0.0.dir/__/__/__/mesh/access/src/access.c.obj
 *fill*         0x200033ed        0x3 
 .data.mem_listener.10675
                0x200033f0       0x10 examples/light_switch/proxy_server/CMakeFiles/light_switch_proxy_server_nrf52832_xxAA_s132_6.0.0.dir/__/__/__/mesh/access/src/device_state_manager.c.obj
 .data.mem_listener.10701
                0x20003400       0x10 examples/light_switch/proxy_server/CMakeFiles/light_switch_proxy_server_nrf52832_xxAA_s132_6.0.0.dir/__/__/__/mesh/access/src/device_state_manager.c.obj
 .data.m_async_process_flag
                0x20003410        0x4 examples/light_switch/proxy_server/CMakeFiles/light_switch_proxy_server_nrf52832_xxAA_s132_6.0.0.dir/__/__/__/mesh/prov/src/prov_bearer_adv.c.obj
 .data.SystemCoreClock
                0x20003414        0x4 examples/light_switch/proxy_server/CMakeFiles/light_switch_proxy_server_nrf52832_xxAA_s132_6.0.0.dir/C_/b/nRF5_SDK_15.0.0_a53641a/modules/nrfx/mdk/system_nrf52.c.obj
                0x20003414                SystemCoreClock
 .data.g_rng_function
                0x20003418        0x4 external/micro-ecc/libuECC_nrf52832_xxAA.a(uECC.c.obj)
 .data._impure_ptr
                0x2000341c        0x4 c:/mesh/arm_gcc/bin/../lib/gcc/arm-none-eabi/6.3.1/../../../../arm-none-eabi/lib/thumb/v7e-m/fpv4-sp/hard\libg_nano.a(lib_a-impure.o)
                0x2000341c                _impure_ptr
 .data.impure_data
                0x20003420       0x60 c:/mesh/arm_gcc/bin/../lib/gcc/arm-none-eabi/6.3.1/../../../../arm-none-eabi/lib/thumb/v7e-m/fpv4-sp/hard\libg_nano.a(lib_a-impure.o)
                0x20003480                . = ALIGN (0x4)
                0x20003480                PROVIDE (__preinit_array_start, .)
 *(.preinit_array)
                0x20003480                PROVIDE (__preinit_array_end, .)
                0x20003480                . = ALIGN (0x4)
                0x20003480                PROVIDE (__init_array_start, .)
 *(SORT(.init_array.*))
 *(.init_array)
 .init_array    0x20003480        0x4 c:/mesh/arm_gcc/bin/../lib/gcc/arm-none-eabi/6.3.1/thumb/v7e-m/fpv4-sp/hard/crtbegin.o
                0x20003484                PROVIDE (__init_array_end, .)
                0x20003484                . = ALIGN (0x4)
                [!provide]                PROVIDE (__fini_array_start, .)
 *(SORT(.fini_array.*))
 *(.fini_array)
 .fini_array    0x20003484        0x4 c:/mesh/arm_gcc/bin/../lib/gcc/arm-none-eabi/6.3.1/thumb/v7e-m/fpv4-sp/hard/crtbegin.o
                [!provide]                PROVIDE (__fini_array_end, .)
 *(.jcr*)
 .jcr           0x20003488        0x0 c:/mesh/arm_gcc/bin/../lib/gcc/arm-none-eabi/6.3.1/thumb/v7e-m/fpv4-sp/hard/crtbegin.o
 .jcr           0x20003488        0x4 c:/mesh/arm_gcc/bin/../lib/gcc/arm-none-eabi/6.3.1/thumb/v7e-m/fpv4-sp/hard/crtend.o
                0x2000348c                . = ALIGN (0x4)
                0x2000348c                __data_end__ = .
LOAD c:/mesh/arm_gcc/bin/../lib/gcc/arm-none-eabi/6.3.1/thumb/v7e-m/fpv4-sp/hard/crti.o
LOAD c:/mesh/arm_gcc/bin/../lib/gcc/arm-none-eabi/6.3.1/thumb/v7e-m/fpv4-sp/hard/crtbegin.o
LOAD c:/mesh/arm_gcc/bin/../lib/gcc/arm-none-eabi/6.3.1/../../../../arm-none-eabi/lib/thumb/v7e-m/fpv4-sp/hard/crt0.o
LOAD examples/light_switch/proxy_server/CMakeFiles/light_switch_proxy_server_nrf52832_xxAA_s132_6.0.0.dir/src/main.c.obj
LOAD examples/light_switch/proxy_server/CMakeFiles/light_switch_proxy_server_nrf52832_xxAA_s132_6.0.0.dir/__/__/__/mesh/stack/src/mesh_stack.c.obj
LOAD examples/light_switch/proxy_server/CMakeFiles/light_switch_proxy_server_nrf52832_xxAA_s132_6.0.0.dir/__/__/common/src/mesh_provisionee.c.obj
LOAD examples/light_switch/proxy_server/CMakeFiles/light_switch_proxy_server_nrf52832_xxAA_s132_6.0.0.dir/__/__/common/src/rtt_input.c.obj
LOAD examples/light_switch/proxy_server/CMakeFiles/light_switch_proxy_server_nrf52832_xxAA_s132_6.0.0.dir/__/__/common/src/simple_hal.c.obj
LOAD examples/light_switch/proxy_server/CMakeFiles/light_switch_proxy_server_nrf52832_xxAA_s132_6.0.0.dir/__/__/common/src/mesh_app_utils.c.obj
LOAD examples/light_switch/proxy_server/CMakeFiles/light_switch_proxy_server_nrf52832_xxAA_s132_6.0.0.dir/__/__/common/src/mesh_adv.c.obj
LOAD examples/light_switch/proxy_server/CMakeFiles/light_switch_proxy_server_nrf52832_xxAA_s132_6.0.0.dir/__/__/__/mesh/prov/src/nrf_mesh_prov_bearer_gatt.c.obj
LOAD examples/light_switch/proxy_server/CMakeFiles/light_switch_proxy_server_nrf52832_xxAA_s132_6.0.0.dir/C_/b/nRF5_SDK_15.0.0_a53641a/components/libraries/util/app_util_platform.c.obj
LOAD examples/light_switch/proxy_server/CMakeFiles/light_switch_proxy_server_nrf52832_xxAA_s132_6.0.0.dir/C_/b/nRF5_SDK_15.0.0_a53641a/components/ble/common/ble_advdata.c.obj
LOAD examples/light_switch/proxy_server/CMakeFiles/light_switch_proxy_server_nrf52832_xxAA_s132_6.0.0.dir/C_/b/nRF5_SDK_15.0.0_a53641a/components/libraries/experimental_section_vars/nrf_section_iter.c.obj
LOAD examples/light_switch/proxy_server/CMakeFiles/light_switch_proxy_server_nrf52832_xxAA_s132_6.0.0.dir/C_/b/nRF5_SDK_15.0.0_a53641a/components/softdevice/common/nrf_sdh.c.obj
LOAD examples/light_switch/proxy_server/CMakeFiles/light_switch_proxy_server_nrf52832_xxAA_s132_6.0.0.dir/C_/b/nRF5_SDK_15.0.0_a53641a/components/softdevice/common/nrf_sdh_soc.c.obj
LOAD examples/light_switch/proxy_server/CMakeFiles/light_switch_proxy_server_nrf52832_xxAA_s132_6.0.0.dir/C_/b/nRF5_SDK_15.0.0_a53641a/components/softdevice/common/nrf_sdh_ble.c.obj
LOAD examples/light_switch/proxy_server/CMakeFiles/light_switch_proxy_server_nrf52832_xxAA_s132_6.0.0.dir/__/__/nrf_mesh_weak.c.obj
LOAD examples/light_switch/proxy_server/CMakeFiles/light_switch_proxy_server_nrf52832_xxAA_s132_6.0.0.dir/__/__/common/src/app_error_weak.c.obj
LOAD examples/light_switch/proxy_server/CMakeFiles/light_switch_proxy_server_nrf52832_xxAA_s132_6.0.0.dir/__/__/common/src/assertion_handler_weak.c.obj
LOAD examples/light_switch/proxy_server/CMakeFiles/light_switch_proxy_server_nrf52832_xxAA_s132_6.0.0.dir/__/__/__/mesh/core/src/internal_event.c.obj
LOAD examples/light_switch/proxy_server/CMakeFiles/light_switch_proxy_server_nrf52832_xxAA_s132_6.0.0.dir/__/__/__/mesh/core/src/nrf_mesh_configure.c.obj
LOAD examples/light_switch/proxy_server/CMakeFiles/light_switch_proxy_server_nrf52832_xxAA_s132_6.0.0.dir/__/__/__/mesh/core/src/aes.c.obj
LOAD examples/light_switch/proxy_server/CMakeFiles/light_switch_proxy_server_nrf52832_xxAA_s132_6.0.0.dir/__/__/__/mesh/core/src/msg_cache.c.obj
LOAD examples/light_switch/proxy_server/CMakeFiles/light_switch_proxy_server_nrf52832_xxAA_s132_6.0.0.dir/__/__/__/mesh/core/src/transport.c.obj
LOAD examples/light_switch/proxy_server/CMakeFiles/light_switch_proxy_server_nrf52832_xxAA_s132_6.0.0.dir/__/__/__/mesh/core/src/event.c.obj
LOAD examples/light_switch/proxy_server/CMakeFiles/light_switch_proxy_server_nrf52832_xxAA_s132_6.0.0.dir/__/__/__/mesh/core/src/packet_buffer.c.obj
LOAD examples/light_switch/proxy_server/CMakeFiles/light_switch_proxy_server_nrf52832_xxAA_s132_6.0.0.dir/__/__/__/mesh/core/src/flash_manager_defrag.c.obj
LOAD examples/light_switch/proxy_server/CMakeFiles/light_switch_proxy_server_nrf52832_xxAA_s132_6.0.0.dir/__/__/__/mesh/core/src/fifo.c.obj
LOAD examples/light_switch/proxy_server/CMakeFiles/light_switch_proxy_server_nrf52832_xxAA_s132_6.0.0.dir/__/__/__/mesh/core/src/nrf_flash.c.obj
LOAD examples/light_switch/proxy_server/CMakeFiles/light_switch_proxy_server_nrf52832_xxAA_s132_6.0.0.dir/__/__/__/mesh/core/src/packet_mgr.c.obj
LOAD examples/light_switch/proxy_server/CMakeFiles/light_switch_proxy_server_nrf52832_xxAA_s132_6.0.0.dir/__/__/__/mesh/core/src/net_state.c.obj
LOAD examples/light_switch/proxy_server/CMakeFiles/light_switch_proxy_server_nrf52832_xxAA_s132_6.0.0.dir/__/__/__/mesh/core/src/mesh_flash.c.obj
LOAD examples/light_switch/proxy_server/CMakeFiles/light_switch_proxy_server_nrf52832_xxAA_s132_6.0.0.dir/__/__/__/mesh/core/src/nrf_mesh_utils.c.obj
LOAD examples/light_switch/proxy_server/CMakeFiles/light_switch_proxy_server_nrf52832_xxAA_s132_6.0.0.dir/__/__/__/mesh/core/src/nrf_mesh.c.obj
LOAD examples/light_switch/proxy_server/CMakeFiles/light_switch_proxy_server_nrf52832_xxAA_s132_6.0.0.dir/__/__/__/mesh/core/src/queue.c.obj
LOAD examples/light_switch/proxy_server/CMakeFiles/light_switch_proxy_server_nrf52832_xxAA_s132_6.0.0.dir/__/__/__/mesh/core/src/hal.c.obj
LOAD examples/light_switch/proxy_server/CMakeFiles/light_switch_proxy_server_nrf52832_xxAA_s132_6.0.0.dir/__/__/__/mesh/core/src/aes_cmac.c.obj
LOAD examples/light_switch/proxy_server/CMakeFiles/light_switch_proxy_server_nrf52832_xxAA_s132_6.0.0.dir/__/__/__/mesh/core/src/timer_scheduler.c.obj
LOAD examples/light_switch/proxy_server/CMakeFiles/light_switch_proxy_server_nrf52832_xxAA_s132_6.0.0.dir/__/__/__/mesh/core/src/timer.c.obj
LOAD examples/light_switch/proxy_server/CMakeFiles/light_switch_proxy_server_nrf52832_xxAA_s132_6.0.0.dir/__/__/__/mesh/core/src/ticker.c.obj
LOAD examples/light_switch/proxy_server/CMakeFiles/light_switch_proxy_server_nrf52832_xxAA_s132_6.0.0.dir/__/__/__/mesh/core/src/rand.c.obj
LOAD examples/light_switch/proxy_server/CMakeFiles/light_switch_proxy_server_nrf52832_xxAA_s132_6.0.0.dir/__/__/__/mesh/core/src/nrf_mesh_opt.c.obj
LOAD examples/light_switch/proxy_server/CMakeFiles/light_switch_proxy_server_nrf52832_xxAA_s132_6.0.0.dir/__/__/__/mesh/core/src/timeslot.c.obj
LOAD examples/light_switch/proxy_server/CMakeFiles/light_switch_proxy_server_nrf52832_xxAA_s132_6.0.0.dir/__/__/__/mesh/core/src/bearer_event.c.obj
LOAD examples/light_switch/proxy_server/CMakeFiles/light_switch_proxy_server_nrf52832_xxAA_s132_6.0.0.dir/__/__/__/mesh/core/src/enc.c.obj
LOAD examples/light_switch/proxy_server/CMakeFiles/light_switch_proxy_server_nrf52832_xxAA_s132_6.0.0.dir/__/__/__/mesh/core/src/network.c.obj
LOAD examples/light_switch/proxy_server/CMakeFiles/light_switch_proxy_server_nrf52832_xxAA_s132_6.0.0.dir/__/__/__/mesh/core/src/net_packet.c.obj
LOAD examples/light_switch/proxy_server/CMakeFiles/light_switch_proxy_server_nrf52832_xxAA_s132_6.0.0.dir/__/__/__/mesh/core/src/msqueue.c.obj
LOAD examples/light_switch/proxy_server/CMakeFiles/light_switch_proxy_server_nrf52832_xxAA_s132_6.0.0.dir/__/__/__/mesh/core/src/nrf_mesh_keygen.c.obj
LOAD examples/light_switch/proxy_server/CMakeFiles/light_switch_proxy_server_nrf52832_xxAA_s132_6.0.0.dir/__/__/__/mesh/core/src/cache.c.obj
LOAD examples/light_switch/proxy_server/CMakeFiles/light_switch_proxy_server_nrf52832_xxAA_s132_6.0.0.dir/__/__/__/mesh/core/src/uri.c.obj
LOAD examples/light_switch/proxy_server/CMakeFiles/light_switch_proxy_server_nrf52832_xxAA_s132_6.0.0.dir/__/__/__/mesh/core/src/list.c.obj
LOAD examples/light_switch/proxy_server/CMakeFiles/light_switch_proxy_server_nrf52832_xxAA_s132_6.0.0.dir/__/__/__/mesh/core/src/log.c.obj
LOAD examples/light_switch/proxy_server/CMakeFiles/light_switch_proxy_server_nrf52832_xxAA_s132_6.0.0.dir/__/__/__/mesh/core/src/flash_manager.c.obj
LOAD examples/light_switch/proxy_server/CMakeFiles/light_switch_proxy_server_nrf52832_xxAA_s132_6.0.0.dir/__/__/__/mesh/core/src/ccm_soft.c.obj
LOAD examples/light_switch/proxy_server/CMakeFiles/light_switch_proxy_server_nrf52832_xxAA_s132_6.0.0.dir/__/__/__/mesh/core/src/toolchain.c.obj
LOAD examples/light_switch/proxy_server/CMakeFiles/light_switch_proxy_server_nrf52832_xxAA_s132_6.0.0.dir/__/__/__/mesh/core/src/replay_cache.c.obj
LOAD examples/light_switch/proxy_server/CMakeFiles/light_switch_proxy_server_nrf52832_xxAA_s132_6.0.0.dir/__/__/__/mesh/core/src/beacon.c.obj
LOAD examples/light_switch/proxy_server/CMakeFiles/light_switch_proxy_server_nrf52832_xxAA_s132_6.0.0.dir/__/__/__/mesh/core/src/flash_manager_internal.c.obj
LOAD examples/light_switch/proxy_server/CMakeFiles/light_switch_proxy_server_nrf52832_xxAA_s132_6.0.0.dir/__/__/__/mesh/core/src/core_tx.c.obj
LOAD examples/light_switch/proxy_server/CMakeFiles/light_switch_proxy_server_nrf52832_xxAA_s132_6.0.0.dir/__/__/__/mesh/core/src/heartbeat.c.obj
LOAD examples/light_switch/proxy_server/CMakeFiles/light_switch_proxy_server_nrf52832_xxAA_s132_6.0.0.dir/__/__/__/mesh/core/src/net_beacon.c.obj
LOAD examples/light_switch/proxy_server/CMakeFiles/light_switch_proxy_server_nrf52832_xxAA_s132_6.0.0.dir/__/__/__/mesh/core/src/fsm.c.obj
LOAD examples/light_switch/proxy_server/CMakeFiles/light_switch_proxy_server_nrf52832_xxAA_s132_6.0.0.dir/__/__/__/mesh/core/src/core_tx_adv.c.obj
LOAD examples/light_switch/proxy_server/CMakeFiles/light_switch_proxy_server_nrf52832_xxAA_s132_6.0.0.dir/__/__/__/mesh/bearer/src/ad_listener.c.obj
LOAD examples/light_switch/proxy_server/CMakeFiles/light_switch_proxy_server_nrf52832_xxAA_s132_6.0.0.dir/__/__/__/mesh/bearer/src/ad_type_filter.c.obj
LOAD examples/light_switch/proxy_server/CMakeFiles/light_switch_proxy_server_nrf52832_xxAA_s132_6.0.0.dir/__/__/__/mesh/bearer/src/adv_packet_filter.c.obj
LOAD examples/light_switch/proxy_server/CMakeFiles/light_switch_proxy_server_nrf52832_xxAA_s132_6.0.0.dir/__/__/__/mesh/bearer/src/advertiser.c.obj
LOAD examples/light_switch/proxy_server/CMakeFiles/light_switch_proxy_server_nrf52832_xxAA_s132_6.0.0.dir/__/__/__/mesh/bearer/src/bearer_handler.c.obj
LOAD examples/light_switch/proxy_server/CMakeFiles/light_switch_proxy_server_nrf52832_xxAA_s132_6.0.0.dir/__/__/__/mesh/bearer/src/broadcast.c.obj
LOAD examples/light_switch/proxy_server/CMakeFiles/light_switch_proxy_server_nrf52832_xxAA_s132_6.0.0.dir/__/__/__/mesh/bearer/src/filter_engine.c.obj
LOAD examples/light_switch/proxy_server/CMakeFiles/light_switch_proxy_server_nrf52832_xxAA_s132_6.0.0.dir/__/__/__/mesh/bearer/src/gap_address_filter.c.obj
LOAD examples/light_switch/proxy_server/CMakeFiles/light_switch_proxy_server_nrf52832_xxAA_s132_6.0.0.dir/__/__/__/mesh/bearer/src/radio_config.c.obj
LOAD examples/light_switch/proxy_server/CMakeFiles/light_switch_proxy_server_nrf52832_xxAA_s132_6.0.0.dir/__/__/__/mesh/bearer/src/rssi_filter.c.obj
LOAD examples/light_switch/proxy_server/CMakeFiles/light_switch_proxy_server_nrf52832_xxAA_s132_6.0.0.dir/__/__/__/mesh/bearer/src/scanner.c.obj
LOAD examples/light_switch/proxy_server/CMakeFiles/light_switch_proxy_server_nrf52832_xxAA_s132_6.0.0.dir/__/__/__/mesh/gatt/src/mesh_gatt.c.obj
LOAD examples/light_switch/proxy_server/CMakeFiles/light_switch_proxy_server_nrf52832_xxAA_s132_6.0.0.dir/__/__/__/mesh/gatt/src/proxy.c.obj
LOAD examples/light_switch/proxy_server/CMakeFiles/light_switch_proxy_server_nrf52832_xxAA_s132_6.0.0.dir/__/__/__/mesh/gatt/src/proxy_filter.c.obj
LOAD examples/light_switch/proxy_server/CMakeFiles/light_switch_proxy_server_nrf52832_xxAA_s132_6.0.0.dir/__/__/__/models/simple_on_off/src/simple_on_off_server.c.obj
LOAD examples/light_switch/proxy_server/CMakeFiles/light_switch_proxy_server_nrf52832_xxAA_s132_6.0.0.dir/__/__/__/models/config/src/composition_data.c.obj
LOAD examples/light_switch/proxy_server/CMakeFiles/light_switch_proxy_server_nrf52832_xxAA_s132_6.0.0.dir/__/__/__/models/config/src/config_server.c.obj
LOAD examples/light_switch/proxy_server/CMakeFiles/light_switch_proxy_server_nrf52832_xxAA_s132_6.0.0.dir/__/__/__/models/config/src/packed_index_list.c.obj
LOAD examples/light_switch/proxy_server/CMakeFiles/light_switch_proxy_server_nrf52832_xxAA_s132_6.0.0.dir/__/__/__/models/health/src/health_server.c.obj
LOAD examples/light_switch/proxy_server/CMakeFiles/light_switch_proxy_server_nrf52832_xxAA_s132_6.0.0.dir/__/__/__/mesh/access/src/access_publish.c.obj
LOAD examples/light_switch/proxy_server/CMakeFiles/light_switch_proxy_server_nrf52832_xxAA_s132_6.0.0.dir/__/__/__/mesh/access/src/access.c.obj
LOAD examples/light_switch/proxy_server/CMakeFiles/light_switch_proxy_server_nrf52832_xxAA_s132_6.0.0.dir/__/__/__/mesh/access/src/access_reliable.c.obj
LOAD examples/light_switch/proxy_server/CMakeFiles/light_switch_proxy_server_nrf52832_xxAA_s132_6.0.0.dir/__/__/__/mesh/access/src/device_state_manager.c.obj
LOAD examples/light_switch/proxy_server/CMakeFiles/light_switch_proxy_server_nrf52832_xxAA_s132_6.0.0.dir/__/__/__/mesh/prov/src/prov_provisionee.c.obj
LOAD examples/light_switch/proxy_server/CMakeFiles/light_switch_proxy_server_nrf52832_xxAA_s132_6.0.0.dir/__/__/__/mesh/prov/src/nrf_mesh_prov.c.obj
LOAD examples/light_switch/proxy_server/CMakeFiles/light_switch_proxy_server_nrf52832_xxAA_s132_6.0.0.dir/__/__/__/mesh/prov/src/provisioning.c.obj
LOAD examples/light_switch/proxy_server/CMakeFiles/light_switch_proxy_server_nrf52832_xxAA_s132_6.0.0.dir/__/__/__/mesh/prov/src/prov_beacon.c.obj
LOAD examples/light_switch/proxy_server/CMakeFiles/light_switch_proxy_server_nrf52832_xxAA_s132_6.0.0.dir/__/__/__/mesh/prov/src/prov_utils.c.obj
LOAD examples/light_switch/proxy_server/CMakeFiles/light_switch_proxy_server_nrf52832_xxAA_s132_6.0.0.dir/__/__/__/mesh/prov/src/prov_bearer_adv.c.obj
LOAD examples/light_switch/proxy_server/CMakeFiles/light_switch_proxy_server_nrf52832_xxAA_s132_6.0.0.dir/C_/b/nRF5_SDK_15.0.0_a53641a/modules/nrfx/mdk/system_nrf52.c.obj
LOAD examples/light_switch/proxy_server/CMakeFiles/light_switch_proxy_server_nrf52832_xxAA_s132_6.0.0.dir/C_/b/nRF5_SDK_15.0.0_a53641a/modules/nrfx/mdk/gcc_startup_nrf52.S.obj
LOAD examples/light_switch/proxy_server/CMakeFiles/light_switch_proxy_server_nrf52832_xxAA_s132_6.0.0.dir/C_/b/nRF5_SDK_15.0.0_a53641a/components/libraries/util/app_error.c.obj
LOAD examples/light_switch/proxy_server/CMakeFiles/light_switch_proxy_server_nrf52832_xxAA_s132_6.0.0.dir/C_/b/nRF5_SDK_15.0.0_a53641a/components/libraries/util/app_error_handler_gcc.c.obj
LOAD external/rtt/librtt_nrf52832_xxAA.a
LOAD external/micro-ecc/libuECC_nrf52832_xxAA.a
START GROUP
LOAD c:/mesh/arm_gcc/bin/../lib/gcc/arm-none-eabi/6.3.1/thumb/v7e-m/fpv4-sp/hard\libgcc.a
LOAD c:/mesh/arm_gcc/bin/../lib/gcc/arm-none-eabi/6.3.1/../../../../arm-none-eabi/lib/thumb/v7e-m/fpv4-sp/hard\libg_nano.a
LOAD c:/mesh/arm_gcc/bin/../lib/gcc/arm-none-eabi/6.3.1/../../../../arm-none-eabi/lib/thumb/v7e-m/fpv4-sp/hard\libc_nano.a
END GROUP
START GROUP
LOAD c:/mesh/arm_gcc/bin/../lib/gcc/arm-none-eabi/6.3.1/thumb/v7e-m/fpv4-sp/hard\libgcc.a
LOAD c:/mesh/arm_gcc/bin/../lib/gcc/arm-none-eabi/6.3.1/../../../../arm-none-eabi/lib/thumb/v7e-m/fpv4-sp/hard\libc_nano.a
END GROUP
LOAD c:/mesh/arm_gcc/bin/../lib/gcc/arm-none-eabi/6.3.1/thumb/v7e-m/fpv4-sp/hard/crtend.o
LOAD c:/mesh/arm_gcc/bin/../lib/gcc/arm-none-eabi/6.3.1/thumb/v7e-m/fpv4-sp/hard/crtn.o
START GROUP
LOAD c:/mesh/arm_gcc/bin/../lib/gcc/arm-none-eabi/6.3.1/thumb/v7e-m/fpv4-sp/hard\libgcc.a
LOAD c:/mesh/arm_gcc/bin/../lib/gcc/arm-none-eabi/6.3.1/../../../../arm-none-eabi/lib/thumb/v7e-m/fpv4-sp/hard\libc.a
LOAD c:/mesh/arm_gcc/bin/../lib/gcc/arm-none-eabi/6.3.1/../../../../arm-none-eabi/lib/thumb/v7e-m/fpv4-sp/hard\libnosys.a
END GROUP

.igot.plt       0x2000348c        0x0 load address 0x0003bf20
 .igot.plt      0x2000348c        0x0 c:/mesh/arm_gcc/bin/../lib/gcc/arm-none-eabi/6.3.1/thumb/v7e-m/fpv4-sp/hard/crtbegin.o
                0x2000348c                . = ALIGN (0x4)

.svc_data       0x2000348c        0x0
                [!provide]                PROVIDE (__start_svc_data, .)
 *(.svc_data)
                [!provide]                PROVIDE (__stop_svc_data, .)

.fs_data        0x2000348c        0x0
                [!provide]                PROVIDE (__start_fs_data, .)
 *(.fs_data)
                [!provide]                PROVIDE (__stop_fs_data, .)

.log_dynamic_data
                0x2000348c        0x0
                [!provide]                PROVIDE (__start_log_dynamic_data, .)
 *(.log_dynamic_data)
                [!provide]                PROVIDE (__stop_log_dynamic_data, .)

.cli_sorted_cmd_ptrs
                0x2000348c        0x0
                [!provide]                PROVIDE (__start_cli_sorted_cmd_ptrs, .)
 *(.cli_sorted_cmd_ptrs)
                [!provide]                PROVIDE (__stop_cli_sorted_cmd_ptrs, .)

.bss            0x20003490     0x3534 load address 0x0003bf28
                0x20003490                . = ALIGN (0x4)
                0x20003490                __bss_start__ = .
 *(.bss*)
 .bss           0x20003490       0x1c c:/mesh/arm_gcc/bin/../lib/gcc/arm-none-eabi/6.3.1/thumb/v7e-m/fpv4-sp/hard/crtbegin.o
 .bss.m_device_provisioned
                0x200034ac        0x1 examples/light_switch/proxy_server/CMakeFiles/light_switch_proxy_server_nrf52832_xxAA_s132_6.0.0.dir/src/main.c.obj
 *fill*         0x200034ad        0x3 
 .bss.m_server  0x200034b0        0xc examples/light_switch/proxy_server/CMakeFiles/light_switch_proxy_server_nrf52832_xxAA_s132_6.0.0.dir/src/main.c.obj
 .bss.m_health_server
                0x200034bc       0x5c examples/light_switch/proxy_server/CMakeFiles/light_switch_proxy_server_nrf52832_xxAA_s132_6.0.0.dir/__/__/__/mesh/stack/src/mesh_stack.c.obj
 .bss.m_init_params
                0x20003518       0x24 examples/light_switch/proxy_server/CMakeFiles/light_switch_proxy_server_nrf52832_xxAA_s132_6.0.0.dir/__/__/__/mesh/stack/src/mesh_stack.c.obj
 .bss.m_device_provisioned
                0x2000353c        0x1 examples/light_switch/proxy_server/CMakeFiles/light_switch_proxy_server_nrf52832_xxAA_s132_6.0.0.dir/__/__/common/src/mesh_provisionee.c.obj
 .bss.m_doing_gatt_reset
                0x2000353d        0x1 examples/light_switch/proxy_server/CMakeFiles/light_switch_proxy_server_nrf52832_xxAA_s132_6.0.0.dir/__/__/common/src/mesh_provisionee.c.obj
 *fill*         0x2000353e        0x2 
 .bss.m_params  0x20003540        0xc examples/light_switch/proxy_server/CMakeFiles/light_switch_proxy_server_nrf52832_xxAA_s132_6.0.0.dir/__/__/common/src/mesh_provisionee.c.obj
 .bss.m_private_key
                0x2000354c       0x20 examples/light_switch/proxy_server/CMakeFiles/light_switch_proxy_server_nrf52832_xxAA_s132_6.0.0.dir/__/__/common/src/mesh_provisionee.c.obj
 .bss.m_prov_bearer_adv
                0x2000356c      0x1c4 examples/light_switch/proxy_server/CMakeFiles/light_switch_proxy_server_nrf52832_xxAA_s132_6.0.0.dir/__/__/common/src/mesh_provisionee.c.obj
 .bss.m_prov_bearer_gatt
                0x20003730       0x50 examples/light_switch/proxy_server/CMakeFiles/light_switch_proxy_server_nrf52832_xxAA_s132_6.0.0.dir/__/__/common/src/mesh_provisionee.c.obj
 .bss.m_prov_ctx
                0x20003780      0x134 examples/light_switch/proxy_server/CMakeFiles/light_switch_proxy_server_nrf52832_xxAA_s132_6.0.0.dir/__/__/common/src/mesh_provisionee.c.obj
 .bss.m_public_key
                0x200038b4       0x40 examples/light_switch/proxy_server/CMakeFiles/light_switch_proxy_server_nrf52832_xxAA_s132_6.0.0.dir/__/__/common/src/mesh_provisionee.c.obj
 .bss.m_rtt_input_handler
                0x200038f4        0x4 examples/light_switch/proxy_server/CMakeFiles/light_switch_proxy_server_nrf52832_xxAA_s132_6.0.0.dir/__/__/common/src/rtt_input.c.obj
 .bss.m_button_handler_cb
                0x200038f8        0x4 examples/light_switch/proxy_server/CMakeFiles/light_switch_proxy_server_nrf52832_xxAA_s132_6.0.0.dir/__/__/common/src/simple_hal.c.obj
 .bss.m_last_button_press
                0x200038fc        0x4 examples/light_switch/proxy_server/CMakeFiles/light_switch_proxy_server_nrf52832_xxAA_s132_6.0.0.dir/__/__/common/src/simple_hal.c.obj
 .bss.m_adv_set_index
                0x20003900        0x1 examples/light_switch/proxy_server/CMakeFiles/light_switch_proxy_server_nrf52832_xxAA_s132_6.0.0.dir/__/__/common/src/mesh_adv.c.obj
 .bss.m_advdata_raw
                0x20003901       0x3e examples/light_switch/proxy_server/CMakeFiles/light_switch_proxy_server_nrf52832_xxAA_s132_6.0.0.dir/__/__/common/src/mesh_adv.c.obj
 *fill*         0x2000393f        0x1 
 .bss.m_gap_adv_data
                0x20003940       0x10 examples/light_switch/proxy_server/CMakeFiles/light_switch_proxy_server_nrf52832_xxAA_s132_6.0.0.dir/__/__/common/src/mesh_adv.c.obj
 .bss.m_srdata_raw
                0x20003950       0x3e examples/light_switch/proxy_server/CMakeFiles/light_switch_proxy_server_nrf52832_xxAA_s132_6.0.0.dir/__/__/common/src/mesh_adv.c.obj
 *fill*         0x2000398e        0x2 
 .bss.m_evt_prov_link
                0x20003990        0xc examples/light_switch/proxy_server/CMakeFiles/light_switch_proxy_server_nrf52832_xxAA_s132_6.0.0.dir/__/__/__/mesh/prov/src/nrf_mesh_prov_bearer_gatt.c.obj
 .bss.m_nrf_sdh_continue
                0x2000399c        0x1 examples/light_switch/proxy_server/CMakeFiles/light_switch_proxy_server_nrf52832_xxAA_s132_6.0.0.dir/C_/b/nRF5_SDK_15.0.0_a53641a/components/softdevice/common/nrf_sdh.c.obj
 .bss.m_nrf_sdh_enabled
                0x2000399d        0x1 examples/light_switch/proxy_server/CMakeFiles/light_switch_proxy_server_nrf52832_xxAA_s132_6.0.0.dir/C_/b/nRF5_SDK_15.0.0_a53641a/components/softdevice/common/nrf_sdh.c.obj
 .bss.m_nrf_sdh_suspended
                0x2000399e        0x1 examples/light_switch/proxy_server/CMakeFiles/light_switch_proxy_server_nrf52832_xxAA_s132_6.0.0.dir/C_/b/nRF5_SDK_15.0.0_a53641a/components/softdevice/common/nrf_sdh.c.obj
 .bss.m_stack_is_enabled
                0x2000399f        0x1 examples/light_switch/proxy_server/CMakeFiles/light_switch_proxy_server_nrf52832_xxAA_s132_6.0.0.dir/C_/b/nRF5_SDK_15.0.0_a53641a/components/softdevice/common/nrf_sdh_ble.c.obj
 .bss.m_uuid    0x200039a0       0x10 examples/light_switch/proxy_server/CMakeFiles/light_switch_proxy_server_nrf52832_xxAA_s132_6.0.0.dir/__/__/__/mesh/core/src/nrf_mesh_configure.c.obj
 .bss.m_msg_cache
                0x200039b0      0x100 examples/light_switch/proxy_server/CMakeFiles/light_switch_proxy_server_nrf52832_xxAA_s132_6.0.0.dir/__/__/__/mesh/core/src/msg_cache.c.obj
 .bss.m_msg_cache_head
                0x20003ab0        0x4 examples/light_switch/proxy_server/CMakeFiles/light_switch_proxy_server_nrf52832_xxAA_s132_6.0.0.dir/__/__/__/mesh/core/src/msg_cache.c.obj
 .bss.m_control_packet_consumer_count
                0x20003ab4        0x4 examples/light_switch/proxy_server/CMakeFiles/light_switch_proxy_server_nrf52832_xxAA_s132_6.0.0.dir/__/__/__/mesh/core/src/transport.c.obj
 .bss.m_control_packet_consumers
                0x20003ab8        0x8 examples/light_switch/proxy_server/CMakeFiles/light_switch_proxy_server_nrf52832_xxAA_s132_6.0.0.dir/__/__/__/mesh/core/src/transport.c.obj
 .bss.m_sar_alloc
                0x20003ac0        0x4 examples/light_switch/proxy_server/CMakeFiles/light_switch_proxy_server_nrf52832_xxAA_s132_6.0.0.dir/__/__/__/mesh/core/src/transport.c.obj
 .bss.m_sar_process_flag
                0x20003ac4        0x4 examples/light_switch/proxy_server/CMakeFiles/light_switch_proxy_server_nrf52832_xxAA_s132_6.0.0.dir/__/__/__/mesh/core/src/transport.c.obj
 .bss.m_sar_release
                0x20003ac8        0x4 examples/light_switch/proxy_server/CMakeFiles/light_switch_proxy_server_nrf52832_xxAA_s132_6.0.0.dir/__/__/__/mesh/core/src/transport.c.obj
 .bss.m_sar_session_cache
                0x20003acc       0x40 examples/light_switch/proxy_server/CMakeFiles/light_switch_proxy_server_nrf52832_xxAA_s132_6.0.0.dir/__/__/__/mesh/core/src/transport.c.obj
 .bss.m_sar_session_cache_head
                0x20003b0c        0x4 examples/light_switch/proxy_server/CMakeFiles/light_switch_proxy_server_nrf52832_xxAA_s132_6.0.0.dir/__/__/__/mesh/core/src/transport.c.obj
 .bss.m_trs_config
                0x20003b10       0x18 examples/light_switch/proxy_server/CMakeFiles/light_switch_proxy_server_nrf52832_xxAA_s132_6.0.0.dir/__/__/__/mesh/core/src/transport.c.obj
 .bss.m_trs_sar_sessions
                0x20003b28      0x1b0 examples/light_switch/proxy_server/CMakeFiles/light_switch_proxy_server_nrf52832_xxAA_s132_6.0.0.dir/__/__/__/mesh/core/src/transport.c.obj
 .bss.mp_evt_handlers_head
                0x20003cd8        0x4 examples/light_switch/proxy_server/CMakeFiles/light_switch_proxy_server_nrf52832_xxAA_s132_6.0.0.dir/__/__/__/mesh/core/src/event.c.obj
 .bss.m_defrag  0x20003cdc       0x1c examples/light_switch/proxy_server/CMakeFiles/light_switch_proxy_server_nrf52832_xxAA_s132_6.0.0.dir/__/__/__/mesh/core/src/flash_manager_defrag.c.obj
 .bss.m_token   0x20003cf8        0x2 examples/light_switch/proxy_server/CMakeFiles/light_switch_proxy_server_nrf52832_xxAA_s132_6.0.0.dir/__/__/__/mesh/core/src/flash_manager_defrag.c.obj
 *fill*         0x20003cfa        0x2 
 .bss.mp_recovery_area
                0x20003cfc        0x4 examples/light_switch/proxy_server/CMakeFiles/light_switch_proxy_server_nrf52832_xxAA_s132_6.0.0.dir/__/__/__/mesh/core/src/flash_manager_defrag.c.obj
 .bss.p_null_ptr.10242
                0x20003d00        0x4 examples/light_switch/proxy_server/CMakeFiles/light_switch_proxy_server_nrf52832_xxAA_s132_6.0.0.dir/__/__/__/mesh/core/src/flash_manager_defrag.c.obj
 .bss.m_pool    0x20003d04     0x1000 examples/light_switch/proxy_server/CMakeFiles/light_switch_proxy_server_nrf52832_xxAA_s132_6.0.0.dir/__/__/__/mesh/core/src/packet_mgr.c.obj
 .bss.mp_free_head
                0x20004d04        0x4 examples/light_switch/proxy_server/CMakeFiles/light_switch_proxy_server_nrf52832_xxAA_s132_6.0.0.dir/__/__/__/mesh/core/src/packet_mgr.c.obj
 .bss.iv_state_set.9897
                0x20004d08        0x1 examples/light_switch/proxy_server/CMakeFiles/light_switch_proxy_server_nrf52832_xxAA_s132_6.0.0.dir/__/__/__/mesh/core/src/net_state.c.obj
 *fill*         0x20004d09        0x3 
 .bss.lock_count.9873
                0x20004d0c        0x4 examples/light_switch/proxy_server/CMakeFiles/light_switch_proxy_server_nrf52832_xxAA_s132_6.0.0.dir/__/__/__/mesh/core/src/net_state.c.obj
 .bss.m_flash_manager
                0x20004d10       0x24 examples/light_switch/proxy_server/CMakeFiles/light_switch_proxy_server_nrf52832_xxAA_s132_6.0.0.dir/__/__/__/mesh/core/src/net_state.c.obj
 .bss.m_iv_update_timer
                0x20004d34       0x18 examples/light_switch/proxy_server/CMakeFiles/light_switch_proxy_server_nrf52832_xxAA_s132_6.0.0.dir/__/__/__/mesh/core/src/net_state.c.obj
 .bss.m_mesh_evt_handler
                0x20004d4c        0x8 examples/light_switch/proxy_server/CMakeFiles/light_switch_proxy_server_nrf52832_xxAA_s132_6.0.0.dir/__/__/__/mesh/core/src/net_state.c.obj
 .bss.m_net_state
                0x20004d54       0x14 examples/light_switch/proxy_server/CMakeFiles/light_switch_proxy_server_nrf52832_xxAA_s132_6.0.0.dir/__/__/__/mesh/core/src/net_state.c.obj
 .bss.m_seqnum_allocation_in_progress
                0x20004d68        0x1 examples/light_switch/proxy_server/CMakeFiles/light_switch_proxy_server_nrf52832_xxAA_s132_6.0.0.dir/__/__/__/mesh/core/src/net_state.c.obj
 .bss.m_test_mode
                0x20004d69        0x1 examples/light_switch/proxy_server/CMakeFiles/light_switch_proxy_server_nrf52832_xxAA_s132_6.0.0.dir/__/__/__/mesh/core/src/net_state.c.obj
 *fill*         0x20004d6a        0x2 
 .bss.m_event_flag
                0x20004d6c        0x4 examples/light_switch/proxy_server/CMakeFiles/light_switch_proxy_server_nrf52832_xxAA_s132_6.0.0.dir/__/__/__/mesh/core/src/mesh_flash.c.obj
 .bss.m_suspended
                0x20004d70        0x1 examples/light_switch/proxy_server/CMakeFiles/light_switch_proxy_server_nrf52832_xxAA_s132_6.0.0.dir/__/__/__/mesh/core/src/mesh_flash.c.obj
 *fill*         0x20004d71        0x3 
 .bss.m_users   0x20004d74      0x228 examples/light_switch/proxy_server/CMakeFiles/light_switch_proxy_server_nrf52832_xxAA_s132_6.0.0.dir/__/__/__/mesh/core/src/mesh_flash.c.obj
 .bss.m_is_enabled
                0x20004f9c        0x1 examples/light_switch/proxy_server/CMakeFiles/light_switch_proxy_server_nrf52832_xxAA_s132_6.0.0.dir/__/__/__/mesh/core/src/nrf_mesh.c.obj
 .bss.m_is_initialized
                0x20004f9d        0x1 examples/light_switch/proxy_server/CMakeFiles/light_switch_proxy_server_nrf52832_xxAA_s132_6.0.0.dir/__/__/__/mesh/core/src/nrf_mesh.c.obj
 *fill*         0x20004f9e        0x2 
 .bss.m_rx_cb   0x20004fa0        0x4 examples/light_switch/proxy_server/CMakeFiles/light_switch_proxy_server_nrf52832_xxAA_s132_6.0.0.dir/__/__/__/mesh/core/src/nrf_mesh.c.obj
 .bss.m_128buf  0x20004fa4       0x10 examples/light_switch/proxy_server/CMakeFiles/light_switch_proxy_server_nrf52832_xxAA_s132_6.0.0.dir/__/__/__/mesh/core/src/aes_cmac.c.obj
 .bss.m_subkey1
                0x20004fb4       0x10 examples/light_switch/proxy_server/CMakeFiles/light_switch_proxy_server_nrf52832_xxAA_s132_6.0.0.dir/__/__/__/mesh/core/src/aes_cmac.c.obj
 .bss.m_subkey2
                0x20004fc4       0x10 examples/light_switch/proxy_server/CMakeFiles/light_switch_proxy_server_nrf52832_xxAA_s132_6.0.0.dir/__/__/__/mesh/core/src/aes_cmac.c.obj
 .bss.m_event_flag
                0x20004fd4        0x4 examples/light_switch/proxy_server/CMakeFiles/light_switch_proxy_server_nrf52832_xxAA_s132_6.0.0.dir/__/__/__/mesh/core/src/timer_scheduler.c.obj
 .bss.m_scheduler
                0x20004fd8       0x10 examples/light_switch/proxy_server/CMakeFiles/light_switch_proxy_server_nrf52832_xxAA_s132_6.0.0.dir/__/__/__/mesh/core/src/timer_scheduler.c.obj
 .bss.m_attributes
                0x20004fe8        0x3 examples/light_switch/proxy_server/CMakeFiles/light_switch_proxy_server_nrf52832_xxAA_s132_6.0.0.dir/__/__/__/mesh/core/src/timer.c.obj
 *fill*         0x20004feb        0x1 
 .bss.m_callbacks
                0x20004fec        0xc examples/light_switch/proxy_server/CMakeFiles/light_switch_proxy_server_nrf52832_xxAA_s132_6.0.0.dir/__/__/__/mesh/core/src/timer.c.obj
 .bss.m_is_in_ts
                0x20004ff8        0x1 examples/light_switch/proxy_server/CMakeFiles/light_switch_proxy_server_nrf52832_xxAA_s132_6.0.0.dir/__/__/__/mesh/core/src/timer.c.obj
 *fill*         0x20004ff9        0x3 
 .bss.m_reference_time
                0x20004ffc        0x4 examples/light_switch/proxy_server/CMakeFiles/light_switch_proxy_server_nrf52832_xxAA_s132_6.0.0.dir/__/__/__/mesh/core/src/timer.c.obj
 .bss.m_timeouts
                0x20005000        0xc examples/light_switch/proxy_server/CMakeFiles/light_switch_proxy_server_nrf52832_xxAA_s132_6.0.0.dir/__/__/__/mesh/core/src/timer.c.obj
 .bss.m_timer_mut
                0x2000500c        0x4 examples/light_switch/proxy_server/CMakeFiles/light_switch_proxy_server_nrf52832_xxAA_s132_6.0.0.dir/__/__/__/mesh/core/src/timer.c.obj
 .bss.m_ts_end_time
                0x20005010        0x4 examples/light_switch/proxy_server/CMakeFiles/light_switch_proxy_server_nrf52832_xxAA_s132_6.0.0.dir/__/__/__/mesh/core/src/timer.c.obj
 .bss.mp_ppi_tasks
                0x20005014        0xc examples/light_switch/proxy_server/CMakeFiles/light_switch_proxy_server_nrf52832_xxAA_s132_6.0.0.dir/__/__/__/mesh/core/src/timer.c.obj
 .bss.m_current_time
                0x20005020        0x4 examples/light_switch/proxy_server/CMakeFiles/light_switch_proxy_server_nrf52832_xxAA_s132_6.0.0.dir/__/__/__/mesh/core/src/ticker.c.obj
 .bss.m_timer   0x20005024       0x18 examples/light_switch/proxy_server/CMakeFiles/light_switch_proxy_server_nrf52832_xxAA_s132_6.0.0.dir/__/__/__/mesh/core/src/ticker.c.obj
 .bss.m_current_timeslot
                0x2000503c       0x1c examples/light_switch/proxy_server/CMakeFiles/light_switch_proxy_server_nrf52832_xxAA_s132_6.0.0.dir/__/__/__/mesh/core/src/timeslot.c.obj
 .bss.m_lfclk_ppm
                0x20005058        0x4 examples/light_switch/proxy_server/CMakeFiles/light_switch_proxy_server_nrf52832_xxAA_s132_6.0.0.dir/__/__/__/mesh/core/src/timeslot.c.obj
 .bss.m_radio_request_earliest
                0x2000505c       0x10 examples/light_switch/proxy_server/CMakeFiles/light_switch_proxy_server_nrf52832_xxAA_s132_6.0.0.dir/__/__/__/mesh/core/src/timeslot.c.obj
 .bss.m_state_lock
                0x2000506c        0x1 examples/light_switch/proxy_server/CMakeFiles/light_switch_proxy_server_nrf52832_xxAA_s132_6.0.0.dir/__/__/__/mesh/core/src/timeslot.c.obj
 .bss.m_timeslot_forced_command
                0x2000506d        0x1 examples/light_switch/proxy_server/CMakeFiles/light_switch_proxy_server_nrf52832_xxAA_s132_6.0.0.dir/__/__/__/mesh/core/src/timeslot.c.obj
 *fill*         0x2000506e        0x2 
 .bss.s_last_rtc_value.9300
                0x20005070        0x8 examples/light_switch/proxy_server/CMakeFiles/light_switch_proxy_server_nrf52832_xxAA_s132_6.0.0.dir/__/__/__/mesh/core/src/timeslot.c.obj
 .bss.m_bearer_event_fifo
                0x20005078       0x14 examples/light_switch/proxy_server/CMakeFiles/light_switch_proxy_server_nrf52832_xxAA_s132_6.0.0.dir/__/__/__/mesh/core/src/bearer_event.c.obj
 .bss.m_bearer_event_fifo_buffer
                0x2000508c      0x100 examples/light_switch/proxy_server/CMakeFiles/light_switch_proxy_server_nrf52832_xxAA_s132_6.0.0.dir/__/__/__/mesh/core/src/bearer_event.c.obj
 .bss.m_critical
                0x2000518c        0x4 examples/light_switch/proxy_server/CMakeFiles/light_switch_proxy_server_nrf52832_xxAA_s132_6.0.0.dir/__/__/__/mesh/core/src/bearer_event.c.obj
 .bss.m_flag_count
                0x20005190        0x4 examples/light_switch/proxy_server/CMakeFiles/light_switch_proxy_server_nrf52832_xxAA_s132_6.0.0.dir/__/__/__/mesh/core/src/bearer_event.c.obj
 .bss.m_flag_event_callbacks
                0x20005194       0x20 examples/light_switch/proxy_server/CMakeFiles/light_switch_proxy_server_nrf52832_xxAA_s132_6.0.0.dir/__/__/__/mesh/core/src/bearer_event.c.obj
 .bss.m_flags   0x200051b4        0x4 examples/light_switch/proxy_server/CMakeFiles/light_switch_proxy_server_nrf52832_xxAA_s132_6.0.0.dir/__/__/__/mesh/core/src/bearer_event.c.obj
 .bss.m_irq_priority
                0x200051b8        0x1 examples/light_switch/proxy_server/CMakeFiles/light_switch_proxy_server_nrf52832_xxAA_s132_6.0.0.dir/__/__/__/mesh/core/src/bearer_event.c.obj
 *fill*         0x200051b9        0x3 
 .bss.m_sequential_event_queue
                0x200051bc        0x8 examples/light_switch/proxy_server/CMakeFiles/light_switch_proxy_server_nrf52832_xxAA_s132_6.0.0.dir/__/__/__/mesh/core/src/bearer_event.c.obj
 .bss.s_recursion_guard.9431
                0x200051c4        0x1 examples/light_switch/proxy_server/CMakeFiles/light_switch_proxy_server_nrf52832_xxAA_s132_6.0.0.dir/__/__/__/mesh/core/src/bearer_event.c.obj
 *fill*         0x200051c5        0x3 
 .bss.m_relay_check_cb
                0x200051c8        0x4 examples/light_switch/proxy_server/CMakeFiles/light_switch_proxy_server_nrf52832_xxAA_s132_6.0.0.dir/__/__/__/mesh/core/src/network.c.obj
 .bss.m_relay_enable
                0x200051cc        0x1 examples/light_switch/proxy_server/CMakeFiles/light_switch_proxy_server_nrf52832_xxAA_s132_6.0.0.dir/__/__/__/mesh/core/src/network.c.obj
 *fill*         0x200051cd        0x3 
 .bss.m_action_queue
                0x200051d0        0xc examples/light_switch/proxy_server/CMakeFiles/light_switch_proxy_server_nrf52832_xxAA_s132_6.0.0.dir/__/__/__/mesh/core/src/flash_manager.c.obj
 .bss.m_action_queue_buffer
                0x200051dc      0x104 examples/light_switch/proxy_server/CMakeFiles/light_switch_proxy_server_nrf52832_xxAA_s132_6.0.0.dir/__/__/__/mesh/core/src/flash_manager.c.obj
 .bss.m_action_state
                0x200052e0        0x1 examples/light_switch/proxy_server/CMakeFiles/light_switch_proxy_server_nrf52832_xxAA_s132_6.0.0.dir/__/__/__/mesh/core/src/flash_manager.c.obj
 *fill*         0x200052e1        0x3 
 .bss.m_memory_listener_queue
                0x200052e4        0x8 examples/light_switch/proxy_server/CMakeFiles/light_switch_proxy_server_nrf52832_xxAA_s132_6.0.0.dir/__/__/__/mesh/core/src/flash_manager.c.obj
 .bss.m_processing_flag
                0x200052ec        0x4 examples/light_switch/proxy_server/CMakeFiles/light_switch_proxy_server_nrf52832_xxAA_s132_6.0.0.dir/__/__/__/mesh/core/src/flash_manager.c.obj
 .bss.m_queue_empty_cb
                0x200052f0        0x4 examples/light_switch/proxy_server/CMakeFiles/light_switch_proxy_server_nrf52832_xxAA_s132_6.0.0.dir/__/__/__/mesh/core/src/flash_manager.c.obj
 .bss.m_state   0x200052f4        0x1 examples/light_switch/proxy_server/CMakeFiles/light_switch_proxy_server_nrf52832_xxAA_s132_6.0.0.dir/__/__/__/mesh/core/src/flash_manager.c.obj
 *fill*         0x200052f5        0x1 
 .bss.m_token   0x200052f6        0x2 examples/light_switch/proxy_server/CMakeFiles/light_switch_proxy_server_nrf52832_xxAA_s132_6.0.0.dir/__/__/__/mesh/core/src/flash_manager.c.obj
 .bss.p_current.11150
                0x200052f8        0x4 examples/light_switch/proxy_server/CMakeFiles/light_switch_proxy_server_nrf52832_xxAA_s132_6.0.0.dir/__/__/__/mesh/core/src/flash_manager.c.obj
 .bss.result.11151
                0x200052fc        0x1 examples/light_switch/proxy_server/CMakeFiles/light_switch_proxy_server_nrf52832_xxAA_s132_6.0.0.dir/__/__/__/mesh/core/src/flash_manager.c.obj
 .bss.m_cache_index
                0x200052fd        0x1 examples/light_switch/proxy_server/CMakeFiles/light_switch_proxy_server_nrf52832_xxAA_s132_6.0.0.dir/__/__/__/mesh/core/src/replay_cache.c.obj
 *fill*         0x200052fe        0x2 
 .bss.m_replay_cache
                0x20005300      0x200 examples/light_switch/proxy_server/CMakeFiles/light_switch_proxy_server_nrf52832_xxAA_s132_6.0.0.dir/__/__/__/mesh/core/src/replay_cache.c.obj
 .bss.m_bearer_count
                0x20005500        0x1 examples/light_switch/proxy_server/CMakeFiles/light_switch_proxy_server_nrf52832_xxAA_s132_6.0.0.dir/__/__/__/mesh/core/src/core_tx.c.obj
 *fill*         0x20005501        0x3 
 .bss.m_tx_complete_callback
                0x20005504        0x4 examples/light_switch/proxy_server/CMakeFiles/light_switch_proxy_server_nrf52832_xxAA_s132_6.0.0.dir/__/__/__/mesh/core/src/core_tx.c.obj
 .bss.mp_bearers
                0x20005508        0x4 examples/light_switch/proxy_server/CMakeFiles/light_switch_proxy_server_nrf52832_xxAA_s132_6.0.0.dir/__/__/__/mesh/core/src/core_tx.c.obj
 .bss.m_hb_core_evt_handler
                0x2000550c        0x8 examples/light_switch/proxy_server/CMakeFiles/light_switch_proxy_server_nrf52832_xxAA_s132_6.0.0.dir/__/__/__/mesh/core/src/heartbeat.c.obj
 .bss.m_hb_pending_feat_msg
                0x20005514        0x1 examples/light_switch/proxy_server/CMakeFiles/light_switch_proxy_server_nrf52832_xxAA_s132_6.0.0.dir/__/__/__/mesh/core/src/heartbeat.c.obj
 .bss.m_hb_pending_pub_msg
                0x20005515        0x1 examples/light_switch/proxy_server/CMakeFiles/light_switch_proxy_server_nrf52832_xxAA_s132_6.0.0.dir/__/__/__/mesh/core/src/heartbeat.c.obj
 .bss.m_heartbeat_init_done
                0x20005516        0x1 examples/light_switch/proxy_server/CMakeFiles/light_switch_proxy_server_nrf52832_xxAA_s132_6.0.0.dir/__/__/__/mesh/core/src/heartbeat.c.obj
 *fill*         0x20005517        0x1 
 .bss.m_heartbeat_subscription
                0x20005518       0x10 examples/light_switch/proxy_server/CMakeFiles/light_switch_proxy_server_nrf52832_xxAA_s132_6.0.0.dir/__/__/__/mesh/core/src/heartbeat.c.obj
 .bss.m_publication_count_decrement_cb
                0x20005528        0x4 examples/light_switch/proxy_server/CMakeFiles/light_switch_proxy_server_nrf52832_xxAA_s132_6.0.0.dir/__/__/__/mesh/core/src/heartbeat.c.obj
 .bss.m_publication_get_cb
                0x2000552c        0x4 examples/light_switch/proxy_server/CMakeFiles/light_switch_proxy_server_nrf52832_xxAA_s132_6.0.0.dir/__/__/__/mesh/core/src/heartbeat.c.obj
 .bss.m_publication_timer
                0x20005530       0x1c examples/light_switch/proxy_server/CMakeFiles/light_switch_proxy_server_nrf52832_xxAA_s132_6.0.0.dir/__/__/__/mesh/core/src/heartbeat.c.obj
 .bss.m_subscription_timer
                0x2000554c       0x18 examples/light_switch/proxy_server/CMakeFiles/light_switch_proxy_server_nrf52832_xxAA_s132_6.0.0.dir/__/__/__/mesh/core/src/heartbeat.c.obj
 .bss.m_adv     0x20005564       0x98 examples/light_switch/proxy_server/CMakeFiles/light_switch_proxy_server_nrf52832_xxAA_s132_6.0.0.dir/__/__/__/mesh/core/src/net_beacon.c.obj
 .bss.m_adv_buf
                0x200055fc       0x34 examples/light_switch/proxy_server/CMakeFiles/light_switch_proxy_server_nrf52832_xxAA_s132_6.0.0.dir/__/__/__/mesh/core/src/net_beacon.c.obj
 .bss.m_beacon_salt
                0x20005630       0x10 examples/light_switch/proxy_server/CMakeFiles/light_switch_proxy_server_nrf52832_xxAA_s132_6.0.0.dir/__/__/__/mesh/core/src/net_beacon.c.obj
 .bss.m_enabled
                0x20005640        0x1 examples/light_switch/proxy_server/CMakeFiles/light_switch_proxy_server_nrf52832_xxAA_s132_6.0.0.dir/__/__/__/mesh/core/src/net_beacon.c.obj
 *fill*         0x20005641        0x3 
 .bss.m_tx_timer
                0x20005644       0x18 examples/light_switch/proxy_server/CMakeFiles/light_switch_proxy_server_nrf52832_xxAA_s132_6.0.0.dir/__/__/__/mesh/core/src/net_beacon.c.obj
 .bss.mp_beacon_info
                0x2000565c        0x4 examples/light_switch/proxy_server/CMakeFiles/light_switch_proxy_server_nrf52832_xxAA_s132_6.0.0.dir/__/__/__/mesh/core/src/net_beacon.c.obj
 .bss.m_bearer  0x20005660        0xc examples/light_switch/proxy_server/CMakeFiles/light_switch_proxy_server_nrf52832_xxAA_s132_6.0.0.dir/__/__/__/mesh/core/src/core_tx_adv.c.obj
 .bss.m_bearer_roles
                0x2000566c      0x138 examples/light_switch/proxy_server/CMakeFiles/light_switch_proxy_server_nrf52832_xxAA_s132_6.0.0.dir/__/__/__/mesh/core/src/core_tx_adv.c.obj
 .bss.m_current_alloc
                0x200057a4        0x8 examples/light_switch/proxy_server/CMakeFiles/light_switch_proxy_server_nrf52832_xxAA_s132_6.0.0.dir/__/__/__/mesh/core/src/core_tx_adv.c.obj
 .bss.m_originator_adv_packet_buffer
                0x200057ac      0x100 examples/light_switch/proxy_server/CMakeFiles/light_switch_proxy_server_nrf52832_xxAA_s132_6.0.0.dir/__/__/__/mesh/core/src/core_tx_adv.c.obj
 .bss.m_relay_adv_packet_buffer
                0x200058ac       0x80 examples/light_switch/proxy_server/CMakeFiles/light_switch_proxy_server_nrf52832_xxAA_s132_6.0.0.dir/__/__/__/mesh/core/src/core_tx_adv.c.obj
 .bss.m_subscribers
                0x2000592c        0x4 examples/light_switch/proxy_server/CMakeFiles/light_switch_proxy_server_nrf52832_xxAA_s132_6.0.0.dir/__/__/__/mesh/bearer/src/ad_listener.c.obj
 .bss.m_adtype_filter
                0x20005930       0x38 examples/light_switch/proxy_server/CMakeFiles/light_switch_proxy_server_nrf52832_xxAA_s132_6.0.0.dir/__/__/__/mesh/bearer/src/ad_type_filter.c.obj
 .bss.m_adv_prng
                0x20005968       0x10 examples/light_switch/proxy_server/CMakeFiles/light_switch_proxy_server_nrf52832_xxAA_s132_6.0.0.dir/__/__/__/mesh/bearer/src/advertiser.c.obj
 .bss.m_action_queue
                0x20005978        0x8 examples/light_switch/proxy_server/CMakeFiles/light_switch_proxy_server_nrf52832_xxAA_s132_6.0.0.dir/__/__/__/mesh/bearer/src/bearer_handler.c.obj
 .bss.m_end_time
                0x20005980        0x4 examples/light_switch/proxy_server/CMakeFiles/light_switch_proxy_server_nrf52832_xxAA_s132_6.0.0.dir/__/__/__/mesh/bearer/src/bearer_handler.c.obj
 .bss.m_scanner_is_active
                0x20005984        0x1 examples/light_switch/proxy_server/CMakeFiles/light_switch_proxy_server_nrf52832_xxAA_s132_6.0.0.dir/__/__/__/mesh/bearer/src/bearer_handler.c.obj
 .bss.m_stopped
                0x20005985        0x1 examples/light_switch/proxy_server/CMakeFiles/light_switch_proxy_server_nrf52832_xxAA_s132_6.0.0.dir/__/__/__/mesh/bearer/src/bearer_handler.c.obj
 *fill*         0x20005986        0x2 
 .bss.mp_action
                0x20005988        0x4 examples/light_switch/proxy_server/CMakeFiles/light_switch_proxy_server_nrf52832_xxAA_s132_6.0.0.dir/__/__/__/mesh/bearer/src/bearer_handler.c.obj
 .bss.m_next_channel_index
                0x2000598c        0x1 examples/light_switch/proxy_server/CMakeFiles/light_switch_proxy_server_nrf52832_xxAA_s132_6.0.0.dir/__/__/__/mesh/bearer/src/broadcast.c.obj
 *fill*         0x2000598d        0x3 
 .bss.m_accepted_amount
                0x20005990        0x4 examples/light_switch/proxy_server/CMakeFiles/light_switch_proxy_server_nrf52832_xxAA_s132_6.0.0.dir/__/__/__/mesh/bearer/src/filter_engine.c.obj
 .bss.m_filter_list_head
                0x20005994        0x4 examples/light_switch/proxy_server/CMakeFiles/light_switch_proxy_server_nrf52832_xxAA_s132_6.0.0.dir/__/__/__/mesh/bearer/src/filter_engine.c.obj
 .bss.m_scanner
                0x20005998      0x290 examples/light_switch/proxy_server/CMakeFiles/light_switch_proxy_server_nrf52832_xxAA_s132_6.0.0.dir/__/__/__/mesh/bearer/src/scanner.c.obj
 .bss.m_gatt    0x20005c28      0x16c examples/light_switch/proxy_server/CMakeFiles/light_switch_proxy_server_nrf52832_xxAA_s132_6.0.0.dir/__/__/__/mesh/gatt/src/mesh_gatt.c.obj
 .bss.m_advertising
                0x20005d94       0x24 examples/light_switch/proxy_server/CMakeFiles/light_switch_proxy_server_nrf52832_xxAA_s132_6.0.0.dir/__/__/__/mesh/gatt/src/proxy.c.obj
 .bss.m_beacon_cache
                0x20005db8       0x1c examples/light_switch/proxy_server/CMakeFiles/light_switch_proxy_server_nrf52832_xxAA_s132_6.0.0.dir/__/__/__/mesh/gatt/src/proxy.c.obj
 .bss.m_beacon_cache_entries
                0x20005dd4       0x40 examples/light_switch/proxy_server/CMakeFiles/light_switch_proxy_server_nrf52832_xxAA_s132_6.0.0.dir/__/__/__/mesh/gatt/src/proxy.c.obj
 .bss.m_connections
                0x20005e14       0x5c examples/light_switch/proxy_server/CMakeFiles/light_switch_proxy_server_nrf52832_xxAA_s132_6.0.0.dir/__/__/__/mesh/gatt/src/proxy.c.obj
 .bss.m_enabled
                0x20005e70        0x1 examples/light_switch/proxy_server/CMakeFiles/light_switch_proxy_server_nrf52832_xxAA_s132_6.0.0.dir/__/__/__/mesh/gatt/src/proxy.c.obj
 *fill*         0x20005e71        0x3 
 .bss.m_mesh_evt_handler
                0x20005e74        0x8 examples/light_switch/proxy_server/CMakeFiles/light_switch_proxy_server_nrf52832_xxAA_s132_6.0.0.dir/__/__/__/mesh/gatt/src/proxy.c.obj
 .bss.m_evt_cb  0x20005e7c        0x4 examples/light_switch/proxy_server/CMakeFiles/light_switch_proxy_server_nrf52832_xxAA_s132_6.0.0.dir/__/__/__/models/config/src/config_server.c.obj
 .bss.m_heartbeat_publication
                0x20005e80       0x14 examples/light_switch/proxy_server/CMakeFiles/light_switch_proxy_server_nrf52832_xxAA_s132_6.0.0.dir/__/__/__/models/config/src/config_server.c.obj
 .bss.m_node_reset_pending
                0x20005e94        0x1 examples/light_switch/proxy_server/CMakeFiles/light_switch_proxy_server_nrf52832_xxAA_s132_6.0.0.dir/__/__/__/models/config/src/config_server.c.obj
 *fill*         0x20005e95        0x3 
 .bss.m_attention_timer
                0x20005e98       0x18 examples/light_switch/proxy_server/CMakeFiles/light_switch_proxy_server_nrf52832_xxAA_s132_6.0.0.dir/__/__/__/models/health/src/health_server.c.obj
 .bss.mp_attention_list
                0x20005eb0        0x4 examples/light_switch/proxy_server/CMakeFiles/light_switch_proxy_server_nrf52832_xxAA_s132_6.0.0.dir/__/__/__/models/health/src/health_server.c.obj
 .bss.m_publish_timer
                0x20005eb4       0x18 examples/light_switch/proxy_server/CMakeFiles/light_switch_proxy_server_nrf52832_xxAA_s132_6.0.0.dir/__/__/__/mesh/access/src/access_publish.c.obj
 .bss.m_publish_timer_counter
                0x20005ecc        0x4 examples/light_switch/proxy_server/CMakeFiles/light_switch_proxy_server_nrf52832_xxAA_s132_6.0.0.dir/__/__/__/mesh/access/src/access_publish.c.obj
 .bss.m_publish_timer_running
                0x20005ed0        0x1 examples/light_switch/proxy_server/CMakeFiles/light_switch_proxy_server_nrf52832_xxAA_s132_6.0.0.dir/__/__/__/mesh/access/src/access_publish.c.obj
 .bss.m_timer_resolution
                0x20005ed1        0x1 examples/light_switch/proxy_server/CMakeFiles/light_switch_proxy_server_nrf52832_xxAA_s132_6.0.0.dir/__/__/__/mesh/access/src/access_publish.c.obj
 *fill*         0x20005ed2        0x2 
 .bss.mp_publication_list
                0x20005ed4        0x4 examples/light_switch/proxy_server/CMakeFiles/light_switch_proxy_server_nrf52832_xxAA_s132_6.0.0.dir/__/__/__/mesh/access/src/access_publish.c.obj
 .bss.m_element_pool
                0x20005ed8        0x6 examples/light_switch/proxy_server/CMakeFiles/light_switch_proxy_server_nrf52832_xxAA_s132_6.0.0.dir/__/__/__/mesh/access/src/access.c.obj
 *fill*         0x20005ede        0x2 
 .bss.m_evt_handler
                0x20005ee0        0x8 examples/light_switch/proxy_server/CMakeFiles/light_switch_proxy_server_nrf52832_xxAA_s132_6.0.0.dir/__/__/__/mesh/access/src/access.c.obj
 .bss.m_flash_manager
                0x20005ee8       0x24 examples/light_switch/proxy_server/CMakeFiles/light_switch_proxy_server_nrf52832_xxAA_s132_6.0.0.dir/__/__/__/mesh/access/src/access.c.obj
 .bss.m_flash_not_ready
                0x20005f0c        0x1 examples/light_switch/proxy_server/CMakeFiles/light_switch_proxy_server_nrf52832_xxAA_s132_6.0.0.dir/__/__/__/mesh/access/src/access.c.obj
 .bss.m_metadata_stored
                0x20005f0d        0x1 examples/light_switch/proxy_server/CMakeFiles/light_switch_proxy_server_nrf52832_xxAA_s132_6.0.0.dir/__/__/__/mesh/access/src/access.c.obj
 *fill*         0x20005f0e        0x2 
 .bss.m_model_pool
                0x20005f10       0x9c examples/light_switch/proxy_server/CMakeFiles/light_switch_proxy_server_nrf52832_xxAA_s132_6.0.0.dir/__/__/__/mesh/access/src/access.c.obj
 .bss.m_subscription_list_pool
                0x20005fac        0x8 examples/light_switch/proxy_server/CMakeFiles/light_switch_proxy_server_nrf52832_xxAA_s132_6.0.0.dir/__/__/__/mesh/access/src/access.c.obj
 .bss.m_reliable
                0x20005fb4       0xa0 examples/light_switch/proxy_server/CMakeFiles/light_switch_proxy_server_nrf52832_xxAA_s132_6.0.0.dir/__/__/__/mesh/access/src/access_reliable.c.obj
 .bss.m_addr_nonvirtual_allocated
                0x20006054        0x4 examples/light_switch/proxy_server/CMakeFiles/light_switch_proxy_server_nrf52832_xxAA_s132_6.0.0.dir/__/__/__/mesh/access/src/device_state_manager.c.obj
 .bss.m_addr_nonvirtual_needs_flashing
                0x20006058        0x4 examples/light_switch/proxy_server/CMakeFiles/light_switch_proxy_server_nrf52832_xxAA_s132_6.0.0.dir/__/__/__/mesh/access/src/device_state_manager.c.obj
 .bss.m_addr_unicast_allocated
                0x2000605c        0x4 examples/light_switch/proxy_server/CMakeFiles/light_switch_proxy_server_nrf52832_xxAA_s132_6.0.0.dir/__/__/__/mesh/access/src/device_state_manager.c.obj
 .bss.m_addr_unicast_needs_flashing
                0x20006060        0x4 examples/light_switch/proxy_server/CMakeFiles/light_switch_proxy_server_nrf52832_xxAA_s132_6.0.0.dir/__/__/__/mesh/access/src/device_state_manager.c.obj
 .bss.m_addr_virtual_allocated
                0x20006064        0x4 examples/light_switch/proxy_server/CMakeFiles/light_switch_proxy_server_nrf52832_xxAA_s132_6.0.0.dir/__/__/__/mesh/access/src/device_state_manager.c.obj
 .bss.m_addr_virtual_needs_flashing
                0x20006068        0x4 examples/light_switch/proxy_server/CMakeFiles/light_switch_proxy_server_nrf52832_xxAA_s132_6.0.0.dir/__/__/__/mesh/access/src/device_state_manager.c.obj
 .bss.m_addresses
                0x2000606c       0x20 examples/light_switch/proxy_server/CMakeFiles/light_switch_proxy_server_nrf52832_xxAA_s132_6.0.0.dir/__/__/__/mesh/access/src/device_state_manager.c.obj
 .bss.m_appkey_allocated
                0x2000608c        0x4 examples/light_switch/proxy_server/CMakeFiles/light_switch_proxy_server_nrf52832_xxAA_s132_6.0.0.dir/__/__/__/mesh/access/src/device_state_manager.c.obj
 .bss.m_appkey_needs_flashing
                0x20006090        0x4 examples/light_switch/proxy_server/CMakeFiles/light_switch_proxy_server_nrf52832_xxAA_s132_6.0.0.dir/__/__/__/mesh/access/src/device_state_manager.c.obj
 .bss.m_appkeys
                0x20006094      0x150 examples/light_switch/proxy_server/CMakeFiles/light_switch_proxy_server_nrf52832_xxAA_s132_6.0.0.dir/__/__/__/mesh/access/src/device_state_manager.c.obj
 .bss.m_devkey_allocated
                0x200061e4        0x4 examples/light_switch/proxy_server/CMakeFiles/light_switch_proxy_server_nrf52832_xxAA_s132_6.0.0.dir/__/__/__/mesh/access/src/device_state_manager.c.obj
 .bss.m_devkey_needs_flashing
                0x200061e8        0x4 examples/light_switch/proxy_server/CMakeFiles/light_switch_proxy_server_nrf52832_xxAA_s132_6.0.0.dir/__/__/__/mesh/access/src/device_state_manager.c.obj
 .bss.m_devkeys
                0x200061ec       0x16 examples/light_switch/proxy_server/CMakeFiles/light_switch_proxy_server_nrf52832_xxAA_s132_6.0.0.dir/__/__/__/mesh/access/src/device_state_manager.c.obj
 .bss.m_flash_is_available
                0x20006202        0x1 examples/light_switch/proxy_server/CMakeFiles/light_switch_proxy_server_nrf52832_xxAA_s132_6.0.0.dir/__/__/__/mesh/access/src/device_state_manager.c.obj
 *fill*         0x20006203        0x1 
 .bss.m_flash_manager
                0x20006204       0x24 examples/light_switch/proxy_server/CMakeFiles/light_switch_proxy_server_nrf52832_xxAA_s132_6.0.0.dir/__/__/__/mesh/access/src/device_state_manager.c.obj
 .bss.m_flash_mem_listener_update_all
                0x20006228       0x10 examples/light_switch/proxy_server/CMakeFiles/light_switch_proxy_server_nrf52832_xxAA_s132_6.0.0.dir/__/__/__/mesh/access/src/device_state_manager.c.obj
 .bss.m_has_primary_subnet
                0x20006238        0x1 examples/light_switch/proxy_server/CMakeFiles/light_switch_proxy_server_nrf52832_xxAA_s132_6.0.0.dir/__/__/__/mesh/access/src/device_state_manager.c.obj
 *fill*         0x20006239        0x1 
 .bss.m_local_unicast_addr
                0x2000623a        0x4 examples/light_switch/proxy_server/CMakeFiles/light_switch_proxy_server_nrf52832_xxAA_s132_6.0.0.dir/__/__/__/mesh/access/src/device_state_manager.c.obj
 *fill*         0x2000623e        0x2 
 .bss.m_mesh_evt_handler
                0x20006240        0x8 examples/light_switch/proxy_server/CMakeFiles/light_switch_proxy_server_nrf52832_xxAA_s132_6.0.0.dir/__/__/__/mesh/access/src/device_state_manager.c.obj
 .bss.m_subnet_allocated
                0x20006248        0x4 examples/light_switch/proxy_server/CMakeFiles/light_switch_proxy_server_nrf52832_xxAA_s132_6.0.0.dir/__/__/__/mesh/access/src/device_state_manager.c.obj
 .bss.m_subnet_needs_flashing
                0x2000624c        0x4 examples/light_switch/proxy_server/CMakeFiles/light_switch_proxy_server_nrf52832_xxAA_s132_6.0.0.dir/__/__/__/mesh/access/src/device_state_manager.c.obj
 .bss.m_subnets
                0x20006250      0x190 examples/light_switch/proxy_server/CMakeFiles/light_switch_proxy_server_nrf52832_xxAA_s132_6.0.0.dir/__/__/__/mesh/access/src/device_state_manager.c.obj
 .bss.m_virtual_addresses
                0x200063e0       0xa0 examples/light_switch/proxy_server/CMakeFiles/light_switch_proxy_server_nrf52832_xxAA_s132_6.0.0.dir/__/__/__/mesh/access/src/device_state_manager.c.obj
 .bss.m_event_handler
                0x20006480        0x4 examples/light_switch/proxy_server/CMakeFiles/light_switch_proxy_server_nrf52832_xxAA_s132_6.0.0.dir/__/__/__/mesh/prov/src/prov_beacon.c.obj
 .bss.m_offload_ecdh
                0x20006484        0x1 examples/light_switch/proxy_server/CMakeFiles/light_switch_proxy_server_nrf52832_xxAA_s132_6.0.0.dir/__/__/__/mesh/prov/src/prov_utils.c.obj
 *fill*         0x20006485        0x3 
 .bss.mp_bearer_head
                0x20006488        0x4 examples/light_switch/proxy_server/CMakeFiles/light_switch_proxy_server_nrf52832_xxAA_s132_6.0.0.dir/__/__/__/mesh/prov/src/prov_bearer_adv.c.obj
 .bss._acDownBuffer
                0x2000648c       0x80 external/rtt/librtt_nrf52832_xxAA.a(SEGGER_RTT.c.obj)
 .bss._acUpBuffer
                0x2000650c      0x400 external/rtt/librtt_nrf52832_xxAA.a(SEGGER_RTT.c.obj)
 .bss.__malloc_free_list
                0x2000690c        0x4 c:/mesh/arm_gcc/bin/../lib/gcc/arm-none-eabi/6.3.1/../../../../arm-none-eabi/lib/thumb/v7e-m/fpv4-sp/hard\libg_nano.a(lib_a-nano-mallocr.o)
                0x2000690c                __malloc_free_list
 .bss.__malloc_sbrk_start
                0x20006910        0x4 c:/mesh/arm_gcc/bin/../lib/gcc/arm-none-eabi/6.3.1/../../../../arm-none-eabi/lib/thumb/v7e-m/fpv4-sp/hard\libg_nano.a(lib_a-nano-mallocr.o)
                0x20006910                __malloc_sbrk_start
 .bss.heap_end.5239
                0x20006914        0x4 c:/mesh/arm_gcc/bin/../lib/gcc/arm-none-eabi/6.3.1/../../../../arm-none-eabi/lib/thumb/v7e-m/fpv4-sp/hard\libnosys.a(sbrk.o)
 *(COMMON)
 COMMON         0x20006918        0xc examples/light_switch/proxy_server/CMakeFiles/light_switch_proxy_server_nrf52832_xxAA_s132_6.0.0.dir/C_/b/nRF5_SDK_15.0.0_a53641a/components/libraries/util/app_util_platform.c.obj
                0x20006918                nrf_nvic_state
 COMMON         0x20006924       0x24 examples/light_switch/proxy_server/CMakeFiles/light_switch_proxy_server_nrf52832_xxAA_s132_6.0.0.dir/__/__/__/mesh/core/src/core_tx.c.obj
                0x20006924                m_packet
 COMMON         0x20006948       0x78 external/rtt/librtt_nrf52832_xxAA.a(SEGGER_RTT.c.obj)
                0x20006948                _SEGGER_RTT
 COMMON         0x200069c0        0x4 c:/mesh/arm_gcc/bin/../lib/gcc/arm-none-eabi/6.3.1/../../../../arm-none-eabi/lib/thumb/v7e-m/fpv4-sp/hard\libg_nano.a(lib_a-reent.o)
                0x200069c0                errno
                0x200069c4                . = ALIGN (0x4)
                0x200069c4                __bss_end__ = .

.heap           0x200069c8     0x2000
                0x200069c8                __HeapBase = .
                0x200069c8                __end__ = .
                0x200069c8                PROVIDE (end, .)
 *(.heap*)
 .heap          0x200069c8     0x2000 examples/light_switch/proxy_server/CMakeFiles/light_switch_proxy_server_nrf52832_xxAA_s132_6.0.0.dir/C_/b/nRF5_SDK_15.0.0_a53641a/modules/nrfx/mdk/gcc_startup_nrf52.S.obj
                0x200089c8                __HeapLimit = .

.stack_dummy    0x200069c8     0x2000
 *(.stack*)
 .stack         0x200069c8     0x2000 examples/light_switch/proxy_server/CMakeFiles/light_switch_proxy_server_nrf52832_xxAA_s132_6.0.0.dir/C_/b/nRF5_SDK_15.0.0_a53641a/modules/nrfx/mdk/gcc_startup_nrf52.S.obj
                0x2000fd00                __StackTop = (ORIGIN (RAM) + LENGTH (RAM))
                0x2000dd00                __StackLimit = (__StackTop - SIZEOF (.stack_dummy))
                0x2000fd00                PROVIDE (__stack, __StackTop)
                0x00000001                ASSERT ((__StackLimit >= __HeapLimit), region RAM overflowed with stack)
                0x000001c8                DataInitFlashUsed = (__bss_start__ - __data_start__)
                0x00015d5c                CodeFlashUsed = (__etext - ORIGIN (FLASH))
                0x00015f24                TotalFlashUsed = (CodeFlashUsed + DataInitFlashUsed)
                0x00000001                ASSERT ((TotalFlashUsed <= LENGTH (FLASH)), region FLASH overflowed with .data and user data)
OUTPUT(examples\light_switch\proxy_server\light_switch_proxy_server_nrf52832_xxAA_s132_6.0.0.elf elf32-littlearm)

.ARM.attributes
                0x00000000       0x30
 .ARM.attributes
                0x00000000       0x22 c:/mesh/arm_gcc/bin/../lib/gcc/arm-none-eabi/6.3.1/thumb/v7e-m/fpv4-sp/hard/crti.o
 .ARM.attributes
                0x00000022       0x34 c:/mesh/arm_gcc/bin/../lib/gcc/arm-none-eabi/6.3.1/thumb/v7e-m/fpv4-sp/hard/crtbegin.o
 .ARM.attributes
                0x00000056       0x20 c:/mesh/arm_gcc/bin/../lib/gcc/arm-none-eabi/6.3.1/../../../../arm-none-eabi/lib/thumb/v7e-m/fpv4-sp/hard/crt0.o
 .ARM.attributes
                0x00000076       0x39 examples/light_switch/proxy_server/CMakeFiles/light_switch_proxy_server_nrf52832_xxAA_s132_6.0.0.dir/src/main.c.obj
 .ARM.attributes
                0x000000af       0x39 examples/light_switch/proxy_server/CMakeFiles/light_switch_proxy_server_nrf52832_xxAA_s132_6.0.0.dir/__/__/__/mesh/stack/src/mesh_stack.c.obj
 .ARM.attributes
                0x000000e8       0x39 examples/light_switch/proxy_server/CMakeFiles/light_switch_proxy_server_nrf52832_xxAA_s132_6.0.0.dir/__/__/common/src/mesh_provisionee.c.obj
 .ARM.attributes
                0x00000121       0x39 examples/light_switch/proxy_server/CMakeFiles/light_switch_proxy_server_nrf52832_xxAA_s132_6.0.0.dir/__/__/common/src/rtt_input.c.obj
 .ARM.attributes
                0x0000015a       0x39 examples/light_switch/proxy_server/CMakeFiles/light_switch_proxy_server_nrf52832_xxAA_s132_6.0.0.dir/__/__/common/src/simple_hal.c.obj
 .ARM.attributes
                0x00000193       0x39 examples/light_switch/proxy_server/CMakeFiles/light_switch_proxy_server_nrf52832_xxAA_s132_6.0.0.dir/__/__/common/src/mesh_app_utils.c.obj
 .ARM.attributes
                0x000001cc       0x39 examples/light_switch/proxy_server/CMakeFiles/light_switch_proxy_server_nrf52832_xxAA_s132_6.0.0.dir/__/__/common/src/mesh_adv.c.obj
 .ARM.attributes
                0x00000205       0x39 examples/light_switch/proxy_server/CMakeFiles/light_switch_proxy_server_nrf52832_xxAA_s132_6.0.0.dir/__/__/__/mesh/prov/src/nrf_mesh_prov_bearer_gatt.c.obj
 .ARM.attributes
                0x0000023e       0x39 examples/light_switch/proxy_server/CMakeFiles/light_switch_proxy_server_nrf52832_xxAA_s132_6.0.0.dir/C_/b/nRF5_SDK_15.0.0_a53641a/components/libraries/util/app_util_platform.c.obj
 .ARM.attributes
                0x00000277       0x39 examples/light_switch/proxy_server/CMakeFiles/light_switch_proxy_server_nrf52832_xxAA_s132_6.0.0.dir/C_/b/nRF5_SDK_15.0.0_a53641a/components/ble/common/ble_advdata.c.obj
 .ARM.attributes
                0x000002b0       0x39 examples/light_switch/proxy_server/CMakeFiles/light_switch_proxy_server_nrf52832_xxAA_s132_6.0.0.dir/C_/b/nRF5_SDK_15.0.0_a53641a/components/libraries/experimental_section_vars/nrf_section_iter.c.obj
 .ARM.attributes
                0x000002e9       0x39 examples/light_switch/proxy_server/CMakeFiles/light_switch_proxy_server_nrf52832_xxAA_s132_6.0.0.dir/C_/b/nRF5_SDK_15.0.0_a53641a/components/softdevice/common/nrf_sdh.c.obj
 .ARM.attributes
                0x00000322       0x39 examples/light_switch/proxy_server/CMakeFiles/light_switch_proxy_server_nrf52832_xxAA_s132_6.0.0.dir/C_/b/nRF5_SDK_15.0.0_a53641a/components/softdevice/common/nrf_sdh_soc.c.obj
 .ARM.attributes
                0x0000035b       0x39 examples/light_switch/proxy_server/CMakeFiles/light_switch_proxy_server_nrf52832_xxAA_s132_6.0.0.dir/C_/b/nRF5_SDK_15.0.0_a53641a/components/softdevice/common/nrf_sdh_ble.c.obj
 .ARM.attributes
                0x00000394       0x39 examples/light_switch/proxy_server/CMakeFiles/light_switch_proxy_server_nrf52832_xxAA_s132_6.0.0.dir/__/__/nrf_mesh_weak.c.obj
 .ARM.attributes
                0x000003cd       0x39 examples/light_switch/proxy_server/CMakeFiles/light_switch_proxy_server_nrf52832_xxAA_s132_6.0.0.dir/__/__/common/src/app_error_weak.c.obj
 .ARM.attributes
                0x00000406       0x39 examples/light_switch/proxy_server/CMakeFiles/light_switch_proxy_server_nrf52832_xxAA_s132_6.0.0.dir/__/__/common/src/assertion_handler_weak.c.obj
 .ARM.attributes
                0x0000043f       0x39 examples/light_switch/proxy_server/CMakeFiles/light_switch_proxy_server_nrf52832_xxAA_s132_6.0.0.dir/__/__/__/mesh/core/src/nrf_mesh_configure.c.obj
 .ARM.attributes
                0x00000478       0x39 examples/light_switch/proxy_server/CMakeFiles/light_switch_proxy_server_nrf52832_xxAA_s132_6.0.0.dir/__/__/__/mesh/core/src/aes.c.obj
 .ARM.attributes
                0x000004b1       0x39 examples/light_switch/proxy_server/CMakeFiles/light_switch_proxy_server_nrf52832_xxAA_s132_6.0.0.dir/__/__/__/mesh/core/src/msg_cache.c.obj
 .ARM.attributes
                0x000004ea       0x39 examples/light_switch/proxy_server/CMakeFiles/light_switch_proxy_server_nrf52832_xxAA_s132_6.0.0.dir/__/__/__/mesh/core/src/transport.c.obj
 .ARM.attributes
                0x00000523       0x39 examples/light_switch/proxy_server/CMakeFiles/light_switch_proxy_server_nrf52832_xxAA_s132_6.0.0.dir/__/__/__/mesh/core/src/event.c.obj
 .ARM.attributes
                0x0000055c       0x39 examples/light_switch/proxy_server/CMakeFiles/light_switch_proxy_server_nrf52832_xxAA_s132_6.0.0.dir/__/__/__/mesh/core/src/packet_buffer.c.obj
 .ARM.attributes
                0x00000595       0x39 examples/light_switch/proxy_server/CMakeFiles/light_switch_proxy_server_nrf52832_xxAA_s132_6.0.0.dir/__/__/__/mesh/core/src/flash_manager_defrag.c.obj
 .ARM.attributes
                0x000005ce       0x39 examples/light_switch/proxy_server/CMakeFiles/light_switch_proxy_server_nrf52832_xxAA_s132_6.0.0.dir/__/__/__/mesh/core/src/fifo.c.obj
 .ARM.attributes
                0x00000607       0x39 examples/light_switch/proxy_server/CMakeFiles/light_switch_proxy_server_nrf52832_xxAA_s132_6.0.0.dir/__/__/__/mesh/core/src/nrf_flash.c.obj
 .ARM.attributes
                0x00000640       0x39 examples/light_switch/proxy_server/CMakeFiles/light_switch_proxy_server_nrf52832_xxAA_s132_6.0.0.dir/__/__/__/mesh/core/src/packet_mgr.c.obj
 .ARM.attributes
                0x00000679       0x39 examples/light_switch/proxy_server/CMakeFiles/light_switch_proxy_server_nrf52832_xxAA_s132_6.0.0.dir/__/__/__/mesh/core/src/net_state.c.obj
 .ARM.attributes
                0x000006b2       0x39 examples/light_switch/proxy_server/CMakeFiles/light_switch_proxy_server_nrf52832_xxAA_s132_6.0.0.dir/__/__/__/mesh/core/src/mesh_flash.c.obj
 .ARM.attributes
                0x000006eb       0x39 examples/light_switch/proxy_server/CMakeFiles/light_switch_proxy_server_nrf52832_xxAA_s132_6.0.0.dir/__/__/__/mesh/core/src/nrf_mesh_utils.c.obj
 .ARM.attributes
                0x00000724       0x39 examples/light_switch/proxy_server/CMakeFiles/light_switch_proxy_server_nrf52832_xxAA_s132_6.0.0.dir/__/__/__/mesh/core/src/nrf_mesh.c.obj
 .ARM.attributes
                0x0000075d       0x39 examples/light_switch/proxy_server/CMakeFiles/light_switch_proxy_server_nrf52832_xxAA_s132_6.0.0.dir/__/__/__/mesh/core/src/queue.c.obj
 .ARM.attributes
                0x00000796       0x39 examples/light_switch/proxy_server/CMakeFiles/light_switch_proxy_server_nrf52832_xxAA_s132_6.0.0.dir/__/__/__/mesh/core/src/hal.c.obj
 .ARM.attributes
                0x000007cf       0x39 examples/light_switch/proxy_server/CMakeFiles/light_switch_proxy_server_nrf52832_xxAA_s132_6.0.0.dir/__/__/__/mesh/core/src/aes_cmac.c.obj
 .ARM.attributes
                0x00000808       0x39 examples/light_switch/proxy_server/CMakeFiles/light_switch_proxy_server_nrf52832_xxAA_s132_6.0.0.dir/__/__/__/mesh/core/src/timer_scheduler.c.obj
 .ARM.attributes
                0x00000841       0x39 examples/light_switch/proxy_server/CMakeFiles/light_switch_proxy_server_nrf52832_xxAA_s132_6.0.0.dir/__/__/__/mesh/core/src/timer.c.obj
 .ARM.attributes
                0x0000087a       0x39 examples/light_switch/proxy_server/CMakeFiles/light_switch_proxy_server_nrf52832_xxAA_s132_6.0.0.dir/__/__/__/mesh/core/src/ticker.c.obj
 .ARM.attributes
                0x000008b3       0x39 examples/light_switch/proxy_server/CMakeFiles/light_switch_proxy_server_nrf52832_xxAA_s132_6.0.0.dir/__/__/__/mesh/core/src/rand.c.obj
 .ARM.attributes
                0x000008ec       0x39 examples/light_switch/proxy_server/CMakeFiles/light_switch_proxy_server_nrf52832_xxAA_s132_6.0.0.dir/__/__/__/mesh/core/src/nrf_mesh_opt.c.obj
 .ARM.attributes
                0x00000925       0x39 examples/light_switch/proxy_server/CMakeFiles/light_switch_proxy_server_nrf52832_xxAA_s132_6.0.0.dir/__/__/__/mesh/core/src/timeslot.c.obj
 .ARM.attributes
                0x0000095e       0x39 examples/light_switch/proxy_server/CMakeFiles/light_switch_proxy_server_nrf52832_xxAA_s132_6.0.0.dir/__/__/__/mesh/core/src/bearer_event.c.obj
 .ARM.attributes
                0x00000997       0x39 examples/light_switch/proxy_server/CMakeFiles/light_switch_proxy_server_nrf52832_xxAA_s132_6.0.0.dir/__/__/__/mesh/core/src/enc.c.obj
 .ARM.attributes
                0x000009d0       0x39 examples/light_switch/proxy_server/CMakeFiles/light_switch_proxy_server_nrf52832_xxAA_s132_6.0.0.dir/__/__/__/mesh/core/src/network.c.obj
 .ARM.attributes
                0x00000a09       0x39 examples/light_switch/proxy_server/CMakeFiles/light_switch_proxy_server_nrf52832_xxAA_s132_6.0.0.dir/__/__/__/mesh/core/src/net_packet.c.obj
 .ARM.attributes
                0x00000a42       0x39 examples/light_switch/proxy_server/CMakeFiles/light_switch_proxy_server_nrf52832_xxAA_s132_6.0.0.dir/__/__/__/mesh/core/src/msqueue.c.obj
 .ARM.attributes
                0x00000a7b       0x39 examples/light_switch/proxy_server/CMakeFiles/light_switch_proxy_server_nrf52832_xxAA_s132_6.0.0.dir/__/__/__/mesh/core/src/nrf_mesh_keygen.c.obj
 .ARM.attributes
                0x00000ab4       0x39 examples/light_switch/proxy_server/CMakeFiles/light_switch_proxy_server_nrf52832_xxAA_s132_6.0.0.dir/__/__/__/mesh/core/src/cache.c.obj
 .ARM.attributes
                0x00000aed       0x39 examples/light_switch/proxy_server/CMakeFiles/light_switch_proxy_server_nrf52832_xxAA_s132_6.0.0.dir/__/__/__/mesh/core/src/list.c.obj
 .ARM.attributes
                0x00000b26       0x39 examples/light_switch/proxy_server/CMakeFiles/light_switch_proxy_server_nrf52832_xxAA_s132_6.0.0.dir/__/__/__/mesh/core/src/log.c.obj
 .ARM.attributes
                0x00000b5f       0x39 examples/light_switch/proxy_server/CMakeFiles/light_switch_proxy_server_nrf52832_xxAA_s132_6.0.0.dir/__/__/__/mesh/core/src/flash_manager.c.obj
 .ARM.attributes
                0x00000b98       0x39 examples/light_switch/proxy_server/CMakeFiles/light_switch_proxy_server_nrf52832_xxAA_s132_6.0.0.dir/__/__/__/mesh/core/src/ccm_soft.c.obj
 .ARM.attributes
                0x00000bd1       0x39 examples/light_switch/proxy_server/CMakeFiles/light_switch_proxy_server_nrf52832_xxAA_s132_6.0.0.dir/__/__/__/mesh/core/src/replay_cache.c.obj
 .ARM.attributes
                0x00000c0a       0x39 examples/light_switch/proxy_server/CMakeFiles/light_switch_proxy_server_nrf52832_xxAA_s132_6.0.0.dir/__/__/__/mesh/core/src/beacon.c.obj
 .ARM.attributes
                0x00000c43       0x39 examples/light_switch/proxy_server/CMakeFiles/light_switch_proxy_server_nrf52832_xxAA_s132_6.0.0.dir/__/__/__/mesh/core/src/flash_manager_internal.c.obj
 .ARM.attributes
                0x00000c7c       0x39 examples/light_switch/proxy_server/CMakeFiles/light_switch_proxy_server_nrf52832_xxAA_s132_6.0.0.dir/__/__/__/mesh/core/src/core_tx.c.obj
 .ARM.attributes
                0x00000cb5       0x39 examples/light_switch/proxy_server/CMakeFiles/light_switch_proxy_server_nrf52832_xxAA_s132_6.0.0.dir/__/__/__/mesh/core/src/heartbeat.c.obj
 .ARM.attributes
                0x00000cee       0x39 examples/light_switch/proxy_server/CMakeFiles/light_switch_proxy_server_nrf52832_xxAA_s132_6.0.0.dir/__/__/__/mesh/core/src/net_beacon.c.obj
 .ARM.attributes
                0x00000d27       0x39 examples/light_switch/proxy_server/CMakeFiles/light_switch_proxy_server_nrf52832_xxAA_s132_6.0.0.dir/__/__/__/mesh/core/src/fsm.c.obj
 .ARM.attributes
                0x00000d60       0x39 examples/light_switch/proxy_server/CMakeFiles/light_switch_proxy_server_nrf52832_xxAA_s132_6.0.0.dir/__/__/__/mesh/core/src/core_tx_adv.c.obj
 .ARM.attributes
                0x00000d99       0x39 examples/light_switch/proxy_server/CMakeFiles/light_switch_proxy_server_nrf52832_xxAA_s132_6.0.0.dir/__/__/__/mesh/bearer/src/ad_listener.c.obj
 .ARM.attributes
                0x00000dd2       0x39 examples/light_switch/proxy_server/CMakeFiles/light_switch_proxy_server_nrf52832_xxAA_s132_6.0.0.dir/__/__/__/mesh/bearer/src/ad_type_filter.c.obj
 .ARM.attributes
                0x00000e0b       0x39 examples/light_switch/proxy_server/CMakeFiles/light_switch_proxy_server_nrf52832_xxAA_s132_6.0.0.dir/__/__/__/mesh/bearer/src/advertiser.c.obj
 .ARM.attributes
                0x00000e44       0x39 examples/light_switch/proxy_server/CMakeFiles/light_switch_proxy_server_nrf52832_xxAA_s132_6.0.0.dir/__/__/__/mesh/bearer/src/bearer_handler.c.obj
 .ARM.attributes
                0x00000e7d       0x39 examples/light_switch/proxy_server/CMakeFiles/light_switch_proxy_server_nrf52832_xxAA_s132_6.0.0.dir/__/__/__/mesh/bearer/src/broadcast.c.obj
 .ARM.attributes
                0x00000eb6       0x39 examples/light_switch/proxy_server/CMakeFiles/light_switch_proxy_server_nrf52832_xxAA_s132_6.0.0.dir/__/__/__/mesh/bearer/src/filter_engine.c.obj
 .ARM.attributes
                0x00000eef       0x39 examples/light_switch/proxy_server/CMakeFiles/light_switch_proxy_server_nrf52832_xxAA_s132_6.0.0.dir/__/__/__/mesh/bearer/src/radio_config.c.obj
 .ARM.attributes
                0x00000f28       0x39 examples/light_switch/proxy_server/CMakeFiles/light_switch_proxy_server_nrf52832_xxAA_s132_6.0.0.dir/__/__/__/mesh/bearer/src/scanner.c.obj
 .ARM.attributes
                0x00000f61       0x39 examples/light_switch/proxy_server/CMakeFiles/light_switch_proxy_server_nrf52832_xxAA_s132_6.0.0.dir/__/__/__/mesh/gatt/src/mesh_gatt.c.obj
 .ARM.attributes
                0x00000f9a       0x39 examples/light_switch/proxy_server/CMakeFiles/light_switch_proxy_server_nrf52832_xxAA_s132_6.0.0.dir/__/__/__/mesh/gatt/src/proxy.c.obj
 .ARM.attributes
                0x00000fd3       0x39 examples/light_switch/proxy_server/CMakeFiles/light_switch_proxy_server_nrf52832_xxAA_s132_6.0.0.dir/__/__/__/mesh/gatt/src/proxy_filter.c.obj
 .ARM.attributes
                0x0000100c       0x39 examples/light_switch/proxy_server/CMakeFiles/light_switch_proxy_server_nrf52832_xxAA_s132_6.0.0.dir/__/__/__/models/simple_on_off/src/simple_on_off_server.c.obj
 .ARM.attributes
                0x00001045       0x39 examples/light_switch/proxy_server/CMakeFiles/light_switch_proxy_server_nrf52832_xxAA_s132_6.0.0.dir/__/__/__/models/config/src/composition_data.c.obj
 .ARM.attributes
                0x0000107e       0x39 examples/light_switch/proxy_server/CMakeFiles/light_switch_proxy_server_nrf52832_xxAA_s132_6.0.0.dir/__/__/__/models/config/src/config_server.c.obj
 .ARM.attributes
                0x000010b7       0x39 examples/light_switch/proxy_server/CMakeFiles/light_switch_proxy_server_nrf52832_xxAA_s132_6.0.0.dir/__/__/__/models/config/src/packed_index_list.c.obj
 .ARM.attributes
                0x000010f0       0x39 examples/light_switch/proxy_server/CMakeFiles/light_switch_proxy_server_nrf52832_xxAA_s132_6.0.0.dir/__/__/__/models/health/src/health_server.c.obj
 .ARM.attributes
                0x00001129       0x39 examples/light_switch/proxy_server/CMakeFiles/light_switch_proxy_server_nrf52832_xxAA_s132_6.0.0.dir/__/__/__/mesh/access/src/access_publish.c.obj
 .ARM.attributes
                0x00001162       0x39 examples/light_switch/proxy_server/CMakeFiles/light_switch_proxy_server_nrf52832_xxAA_s132_6.0.0.dir/__/__/__/mesh/access/src/access.c.obj
 .ARM.attributes
                0x0000119b       0x39 examples/light_switch/proxy_server/CMakeFiles/light_switch_proxy_server_nrf52832_xxAA_s132_6.0.0.dir/__/__/__/mesh/access/src/access_reliable.c.obj
 .ARM.attributes
                0x000011d4       0x39 examples/light_switch/proxy_server/CMakeFiles/light_switch_proxy_server_nrf52832_xxAA_s132_6.0.0.dir/__/__/__/mesh/access/src/device_state_manager.c.obj
 .ARM.attributes
                0x0000120d       0x39 examples/light_switch/proxy_server/CMakeFiles/light_switch_proxy_server_nrf52832_xxAA_s132_6.0.0.dir/__/__/__/mesh/prov/src/prov_provisionee.c.obj
 .ARM.attributes
                0x00001246       0x39 examples/light_switch/proxy_server/CMakeFiles/light_switch_proxy_server_nrf52832_xxAA_s132_6.0.0.dir/__/__/__/mesh/prov/src/nrf_mesh_prov.c.obj
 .ARM.attributes
                0x0000127f       0x39 examples/light_switch/proxy_server/CMakeFiles/light_switch_proxy_server_nrf52832_xxAA_s132_6.0.0.dir/__/__/__/mesh/prov/src/provisioning.c.obj
 .ARM.attributes
                0x000012b8       0x39 examples/light_switch/proxy_server/CMakeFiles/light_switch_proxy_server_nrf52832_xxAA_s132_6.0.0.dir/__/__/__/mesh/prov/src/prov_beacon.c.obj
 .ARM.attributes
                0x000012f1       0x39 examples/light_switch/proxy_server/CMakeFiles/light_switch_proxy_server_nrf52832_xxAA_s132_6.0.0.dir/__/__/__/mesh/prov/src/prov_utils.c.obj
 .ARM.attributes
                0x0000132a       0x39 examples/light_switch/proxy_server/CMakeFiles/light_switch_proxy_server_nrf52832_xxAA_s132_6.0.0.dir/__/__/__/mesh/prov/src/prov_bearer_adv.c.obj
 .ARM.attributes
                0x00001363       0x39 examples/light_switch/proxy_server/CMakeFiles/light_switch_proxy_server_nrf52832_xxAA_s132_6.0.0.dir/C_/b/nRF5_SDK_15.0.0_a53641a/modules/nrfx/mdk/system_nrf52.c.obj
 .ARM.attributes
                0x0000139c       0x20 examples/light_switch/proxy_server/CMakeFiles/light_switch_proxy_server_nrf52832_xxAA_s132_6.0.0.dir/C_/b/nRF5_SDK_15.0.0_a53641a/modules/nrfx/mdk/gcc_startup_nrf52.S.obj
 .ARM.attributes
                0x000013bc       0x39 examples/light_switch/proxy_server/CMakeFiles/light_switch_proxy_server_nrf52832_xxAA_s132_6.0.0.dir/C_/b/nRF5_SDK_15.0.0_a53641a/components/libraries/util/app_error.c.obj
 .ARM.attributes
                0x000013f5       0x39 examples/light_switch/proxy_server/CMakeFiles/light_switch_proxy_server_nrf52832_xxAA_s132_6.0.0.dir/C_/b/nRF5_SDK_15.0.0_a53641a/components/libraries/util/app_error_handler_gcc.c.obj
 .ARM.attributes
                0x0000142e       0x39 external/rtt/librtt_nrf52832_xxAA.a(SEGGER_RTT.c.obj)
 .ARM.attributes
                0x00001467       0x39 external/rtt/librtt_nrf52832_xxAA.a(SEGGER_RTT_printf.c.obj)
 .ARM.attributes
                0x000014a0       0x39 external/micro-ecc/libuECC_nrf52832_xxAA.a(uECC.c.obj)
 .ARM.attributes
                0x000014d9       0x22 c:/mesh/arm_gcc/bin/../lib/gcc/arm-none-eabi/6.3.1/thumb/v7e-m/fpv4-sp/hard\libgcc.a(_aeabi_uldivmod.o)
 .ARM.attributes
                0x000014fb       0x34 c:/mesh/arm_gcc/bin/../lib/gcc/arm-none-eabi/6.3.1/thumb/v7e-m/fpv4-sp/hard\libgcc.a(_udivmoddi4.o)
 .ARM.attributes
                0x0000152f       0x22 c:/mesh/arm_gcc/bin/../lib/gcc/arm-none-eabi/6.3.1/thumb/v7e-m/fpv4-sp/hard\libgcc.a(_dvmd_tls.o)
 .ARM.attributes
                0x00001551       0x34 c:/mesh/arm_gcc/bin/../lib/gcc/arm-none-eabi/6.3.1/../../../../arm-none-eabi/lib/thumb/v7e-m/fpv4-sp/hard\libg_nano.a(lib_a-exit.o)
 .ARM.attributes
                0x00001585       0x34 c:/mesh/arm_gcc/bin/../lib/gcc/arm-none-eabi/6.3.1/../../../../arm-none-eabi/lib/thumb/v7e-m/fpv4-sp/hard\libg_nano.a(lib_a-impure.o)
 .ARM.attributes
                0x000015b9       0x34 c:/mesh/arm_gcc/bin/../lib/gcc/arm-none-eabi/6.3.1/../../../../arm-none-eabi/lib/thumb/v7e-m/fpv4-sp/hard\libg_nano.a(lib_a-init.o)
 .ARM.attributes
                0x000015ed       0x34 c:/mesh/arm_gcc/bin/../lib/gcc/arm-none-eabi/6.3.1/../../../../arm-none-eabi/lib/thumb/v7e-m/fpv4-sp/hard\libg_nano.a(lib_a-malloc.o)
 .ARM.attributes
                0x00001621       0x34 c:/mesh/arm_gcc/bin/../lib/gcc/arm-none-eabi/6.3.1/../../../../arm-none-eabi/lib/thumb/v7e-m/fpv4-sp/hard\libg_nano.a(lib_a-memcmp.o)
 .ARM.attributes
                0x00001655       0x34 c:/mesh/arm_gcc/bin/../lib/gcc/arm-none-eabi/6.3.1/../../../../arm-none-eabi/lib/thumb/v7e-m/fpv4-sp/hard\libg_nano.a(lib_a-memcpy-stub.o)
 .ARM.attributes
                0x00001689       0x34 c:/mesh/arm_gcc/bin/../lib/gcc/arm-none-eabi/6.3.1/../../../../arm-none-eabi/lib/thumb/v7e-m/fpv4-sp/hard\libg_nano.a(lib_a-memset.o)
 .ARM.attributes
                0x000016bd       0x34 c:/mesh/arm_gcc/bin/../lib/gcc/arm-none-eabi/6.3.1/../../../../arm-none-eabi/lib/thumb/v7e-m/fpv4-sp/hard\libg_nano.a(lib_a-nano-freer.o)
 .ARM.attributes
                0x000016f1       0x34 c:/mesh/arm_gcc/bin/../lib/gcc/arm-none-eabi/6.3.1/../../../../arm-none-eabi/lib/thumb/v7e-m/fpv4-sp/hard\libg_nano.a(lib_a-nano-mallocr.o)
 .ARM.attributes
                0x00001725       0x34 c:/mesh/arm_gcc/bin/../lib/gcc/arm-none-eabi/6.3.1/../../../../arm-none-eabi/lib/thumb/v7e-m/fpv4-sp/hard\libg_nano.a(lib_a-sbrkr.o)
 .ARM.attributes
                0x00001759       0x34 c:/mesh/arm_gcc/bin/../lib/gcc/arm-none-eabi/6.3.1/../../../../arm-none-eabi/lib/thumb/v7e-m/fpv4-sp/hard\libg_nano.a(lib_a-strcpy.o)
 .ARM.attributes
                0x0000178d       0x1b c:/mesh/arm_gcc/bin/../lib/gcc/arm-none-eabi/6.3.1/../../../../arm-none-eabi/lib/thumb/v7e-m/fpv4-sp/hard\libg_nano.a(lib_a-strlen.o)
 .ARM.attributes
                0x000017a8       0x34 c:/mesh/arm_gcc/bin/../lib/gcc/arm-none-eabi/6.3.1/../../../../arm-none-eabi/lib/thumb/v7e-m/fpv4-sp/hard\libg_nano.a(lib_a-strrchr.o)
 .ARM.attributes
                0x000017dc       0x34 c:/mesh/arm_gcc/bin/../lib/gcc/arm-none-eabi/6.3.1/../../../../arm-none-eabi/lib/thumb/v7e-m/fpv4-sp/hard\libg_nano.a(lib_a-mlock.o)
 .ARM.attributes
                0x00001810       0x34 c:/mesh/arm_gcc/bin/../lib/gcc/arm-none-eabi/6.3.1/../../../../arm-none-eabi/lib/thumb/v7e-m/fpv4-sp/hard\libg_nano.a(lib_a-reent.o)
 .ARM.attributes
                0x00001844       0x34 c:/mesh/arm_gcc/bin/../lib/gcc/arm-none-eabi/6.3.1/../../../../arm-none-eabi/lib/thumb/v7e-m/fpv4-sp/hard\libg_nano.a(lib_a-strchr.o)
 .ARM.attributes
                0x00001878       0x34 c:/mesh/arm_gcc/bin/../lib/gcc/arm-none-eabi/6.3.1/thumb/v7e-m/fpv4-sp/hard/crtend.o
 .ARM.attributes
                0x000018ac       0x22 c:/mesh/arm_gcc/bin/../lib/gcc/arm-none-eabi/6.3.1/thumb/v7e-m/fpv4-sp/hard/crtn.o
 .ARM.attributes
                0x000018ce       0x34 c:/mesh/arm_gcc/bin/../lib/gcc/arm-none-eabi/6.3.1/../../../../arm-none-eabi/lib/thumb/v7e-m/fpv4-sp/hard\libnosys.a(sbrk.o)
 .ARM.attributes
                0x00001902       0x34 c:/mesh/arm_gcc/bin/../lib/gcc/arm-none-eabi/6.3.1/../../../../arm-none-eabi/lib/thumb/v7e-m/fpv4-sp/hard\libnosys.a(_exit.o)

.comment        0x00000000       0x7f
 .comment       0x00000000       0x7f examples/light_switch/proxy_server/CMakeFiles/light_switch_proxy_server_nrf52832_xxAA_s132_6.0.0.dir/src/main.c.obj
                                 0x80 (size before relaxing)
 .comment       0x0000007f       0x80 examples/light_switch/proxy_server/CMakeFiles/light_switch_proxy_server_nrf52832_xxAA_s132_6.0.0.dir/__/__/__/mesh/stack/src/mesh_stack.c.obj
 .comment       0x0000007f       0x80 examples/light_switch/proxy_server/CMakeFiles/light_switch_proxy_server_nrf52832_xxAA_s132_6.0.0.dir/__/__/common/src/mesh_provisionee.c.obj
 .comment       0x0000007f       0x80 examples/light_switch/proxy_server/CMakeFiles/light_switch_proxy_server_nrf52832_xxAA_s132_6.0.0.dir/__/__/common/src/rtt_input.c.obj
 .comment       0x0000007f       0x80 examples/light_switch/proxy_server/CMakeFiles/light_switch_proxy_server_nrf52832_xxAA_s132_6.0.0.dir/__/__/common/src/simple_hal.c.obj
 .comment       0x0000007f       0x80 examples/light_switch/proxy_server/CMakeFiles/light_switch_proxy_server_nrf52832_xxAA_s132_6.0.0.dir/__/__/common/src/mesh_app_utils.c.obj
 .comment       0x0000007f       0x80 examples/light_switch/proxy_server/CMakeFiles/light_switch_proxy_server_nrf52832_xxAA_s132_6.0.0.dir/__/__/common/src/mesh_adv.c.obj
 .comment       0x0000007f       0x80 examples/light_switch/proxy_server/CMakeFiles/light_switch_proxy_server_nrf52832_xxAA_s132_6.0.0.dir/__/__/__/mesh/prov/src/nrf_mesh_prov_bearer_gatt.c.obj
 .comment       0x0000007f       0x80 examples/light_switch/proxy_server/CMakeFiles/light_switch_proxy_server_nrf52832_xxAA_s132_6.0.0.dir/C_/b/nRF5_SDK_15.0.0_a53641a/components/libraries/util/app_util_platform.c.obj
 .comment       0x0000007f       0x80 examples/light_switch/proxy_server/CMakeFiles/light_switch_proxy_server_nrf52832_xxAA_s132_6.0.0.dir/C_/b/nRF5_SDK_15.0.0_a53641a/components/ble/common/ble_advdata.c.obj
 .comment       0x0000007f       0x80 examples/light_switch/proxy_server/CMakeFiles/light_switch_proxy_server_nrf52832_xxAA_s132_6.0.0.dir/C_/b/nRF5_SDK_15.0.0_a53641a/components/libraries/experimental_section_vars/nrf_section_iter.c.obj
 .comment       0x0000007f       0x80 examples/light_switch/proxy_server/CMakeFiles/light_switch_proxy_server_nrf52832_xxAA_s132_6.0.0.dir/C_/b/nRF5_SDK_15.0.0_a53641a/components/softdevice/common/nrf_sdh.c.obj
 .comment       0x0000007f       0x80 examples/light_switch/proxy_server/CMakeFiles/light_switch_proxy_server_nrf52832_xxAA_s132_6.0.0.dir/C_/b/nRF5_SDK_15.0.0_a53641a/components/softdevice/common/nrf_sdh_soc.c.obj
 .comment       0x0000007f       0x80 examples/light_switch/proxy_server/CMakeFiles/light_switch_proxy_server_nrf52832_xxAA_s132_6.0.0.dir/C_/b/nRF5_SDK_15.0.0_a53641a/components/softdevice/common/nrf_sdh_ble.c.obj
 .comment       0x0000007f       0x80 examples/light_switch/proxy_server/CMakeFiles/light_switch_proxy_server_nrf52832_xxAA_s132_6.0.0.dir/__/__/nrf_mesh_weak.c.obj
 .comment       0x0000007f       0x80 examples/light_switch/proxy_server/CMakeFiles/light_switch_proxy_server_nrf52832_xxAA_s132_6.0.0.dir/__/__/common/src/app_error_weak.c.obj
 .comment       0x0000007f       0x80 examples/light_switch/proxy_server/CMakeFiles/light_switch_proxy_server_nrf52832_xxAA_s132_6.0.0.dir/__/__/common/src/assertion_handler_weak.c.obj
 .comment       0x0000007f       0x80 examples/light_switch/proxy_server/CMakeFiles/light_switch_proxy_server_nrf52832_xxAA_s132_6.0.0.dir/__/__/__/mesh/core/src/nrf_mesh_configure.c.obj
 .comment       0x0000007f       0x80 examples/light_switch/proxy_server/CMakeFiles/light_switch_proxy_server_nrf52832_xxAA_s132_6.0.0.dir/__/__/__/mesh/core/src/aes.c.obj
 .comment       0x0000007f       0x80 examples/light_switch/proxy_server/CMakeFiles/light_switch_proxy_server_nrf52832_xxAA_s132_6.0.0.dir/__/__/__/mesh/core/src/msg_cache.c.obj
 .comment       0x0000007f       0x80 examples/light_switch/proxy_server/CMakeFiles/light_switch_proxy_server_nrf52832_xxAA_s132_6.0.0.dir/__/__/__/mesh/core/src/transport.c.obj
 .comment       0x0000007f       0x80 examples/light_switch/proxy_server/CMakeFiles/light_switch_proxy_server_nrf52832_xxAA_s132_6.0.0.dir/__/__/__/mesh/core/src/event.c.obj
 .comment       0x0000007f       0x80 examples/light_switch/proxy_server/CMakeFiles/light_switch_proxy_server_nrf52832_xxAA_s132_6.0.0.dir/__/__/__/mesh/core/src/packet_buffer.c.obj
 .comment       0x0000007f       0x80 examples/light_switch/proxy_server/CMakeFiles/light_switch_proxy_server_nrf52832_xxAA_s132_6.0.0.dir/__/__/__/mesh/core/src/flash_manager_defrag.c.obj
 .comment       0x0000007f       0x80 examples/light_switch/proxy_server/CMakeFiles/light_switch_proxy_server_nrf52832_xxAA_s132_6.0.0.dir/__/__/__/mesh/core/src/fifo.c.obj
 .comment       0x0000007f       0x80 examples/light_switch/proxy_server/CMakeFiles/light_switch_proxy_server_nrf52832_xxAA_s132_6.0.0.dir/__/__/__/mesh/core/src/nrf_flash.c.obj
 .comment       0x0000007f       0x80 examples/light_switch/proxy_server/CMakeFiles/light_switch_proxy_server_nrf52832_xxAA_s132_6.0.0.dir/__/__/__/mesh/core/src/packet_mgr.c.obj
 .comment       0x0000007f       0x80 examples/light_switch/proxy_server/CMakeFiles/light_switch_proxy_server_nrf52832_xxAA_s132_6.0.0.dir/__/__/__/mesh/core/src/net_state.c.obj
 .comment       0x0000007f       0x80 examples/light_switch/proxy_server/CMakeFiles/light_switch_proxy_server_nrf52832_xxAA_s132_6.0.0.dir/__/__/__/mesh/core/src/mesh_flash.c.obj
 .comment       0x0000007f       0x80 examples/light_switch/proxy_server/CMakeFiles/light_switch_proxy_server_nrf52832_xxAA_s132_6.0.0.dir/__/__/__/mesh/core/src/nrf_mesh_utils.c.obj
 .comment       0x0000007f       0x80 examples/light_switch/proxy_server/CMakeFiles/light_switch_proxy_server_nrf52832_xxAA_s132_6.0.0.dir/__/__/__/mesh/core/src/nrf_mesh.c.obj
 .comment       0x0000007f       0x80 examples/light_switch/proxy_server/CMakeFiles/light_switch_proxy_server_nrf52832_xxAA_s132_6.0.0.dir/__/__/__/mesh/core/src/queue.c.obj
 .comment       0x0000007f       0x80 examples/light_switch/proxy_server/CMakeFiles/light_switch_proxy_server_nrf52832_xxAA_s132_6.0.0.dir/__/__/__/mesh/core/src/hal.c.obj
 .comment       0x0000007f       0x80 examples/light_switch/proxy_server/CMakeFiles/light_switch_proxy_server_nrf52832_xxAA_s132_6.0.0.dir/__/__/__/mesh/core/src/aes_cmac.c.obj
 .comment       0x0000007f       0x80 examples/light_switch/proxy_server/CMakeFiles/light_switch_proxy_server_nrf52832_xxAA_s132_6.0.0.dir/__/__/__/mesh/core/src/timer_scheduler.c.obj
 .comment       0x0000007f       0x80 examples/light_switch/proxy_server/CMakeFiles/light_switch_proxy_server_nrf52832_xxAA_s132_6.0.0.dir/__/__/__/mesh/core/src/timer.c.obj
 .comment       0x0000007f       0x80 examples/light_switch/proxy_server/CMakeFiles/light_switch_proxy_server_nrf52832_xxAA_s132_6.0.0.dir/__/__/__/mesh/core/src/ticker.c.obj
 .comment       0x0000007f       0x80 examples/light_switch/proxy_server/CMakeFiles/light_switch_proxy_server_nrf52832_xxAA_s132_6.0.0.dir/__/__/__/mesh/core/src/rand.c.obj
 .comment       0x0000007f       0x80 examples/light_switch/proxy_server/CMakeFiles/light_switch_proxy_server_nrf52832_xxAA_s132_6.0.0.dir/__/__/__/mesh/core/src/nrf_mesh_opt.c.obj
 .comment       0x0000007f       0x80 examples/light_switch/proxy_server/CMakeFiles/light_switch_proxy_server_nrf52832_xxAA_s132_6.0.0.dir/__/__/__/mesh/core/src/timeslot.c.obj
 .comment       0x0000007f       0x80 examples/light_switch/proxy_server/CMakeFiles/light_switch_proxy_server_nrf52832_xxAA_s132_6.0.0.dir/__/__/__/mesh/core/src/bearer_event.c.obj
 .comment       0x0000007f       0x80 examples/light_switch/proxy_server/CMakeFiles/light_switch_proxy_server_nrf52832_xxAA_s132_6.0.0.dir/__/__/__/mesh/core/src/enc.c.obj
 .comment       0x0000007f       0x80 examples/light_switch/proxy_server/CMakeFiles/light_switch_proxy_server_nrf52832_xxAA_s132_6.0.0.dir/__/__/__/mesh/core/src/network.c.obj
 .comment       0x0000007f       0x80 examples/light_switch/proxy_server/CMakeFiles/light_switch_proxy_server_nrf52832_xxAA_s132_6.0.0.dir/__/__/__/mesh/core/src/net_packet.c.obj
 .comment       0x0000007f       0x80 examples/light_switch/proxy_server/CMakeFiles/light_switch_proxy_server_nrf52832_xxAA_s132_6.0.0.dir/__/__/__/mesh/core/src/msqueue.c.obj
 .comment       0x0000007f       0x80 examples/light_switch/proxy_server/CMakeFiles/light_switch_proxy_server_nrf52832_xxAA_s132_6.0.0.dir/__/__/__/mesh/core/src/nrf_mesh_keygen.c.obj
 .comment       0x0000007f       0x80 examples/light_switch/proxy_server/CMakeFiles/light_switch_proxy_server_nrf52832_xxAA_s132_6.0.0.dir/__/__/__/mesh/core/src/cache.c.obj
 .comment       0x0000007f       0x80 examples/light_switch/proxy_server/CMakeFiles/light_switch_proxy_server_nrf52832_xxAA_s132_6.0.0.dir/__/__/__/mesh/core/src/list.c.obj
 .comment       0x0000007f       0x80 examples/light_switch/proxy_server/CMakeFiles/light_switch_proxy_server_nrf52832_xxAA_s132_6.0.0.dir/__/__/__/mesh/core/src/log.c.obj
 .comment       0x0000007f       0x80 examples/light_switch/proxy_server/CMakeFiles/light_switch_proxy_server_nrf52832_xxAA_s132_6.0.0.dir/__/__/__/mesh/core/src/flash_manager.c.obj
 .comment       0x0000007f       0x80 examples/light_switch/proxy_server/CMakeFiles/light_switch_proxy_server_nrf52832_xxAA_s132_6.0.0.dir/__/__/__/mesh/core/src/ccm_soft.c.obj
 .comment       0x0000007f       0x80 examples/light_switch/proxy_server/CMakeFiles/light_switch_proxy_server_nrf52832_xxAA_s132_6.0.0.dir/__/__/__/mesh/core/src/replay_cache.c.obj
 .comment       0x0000007f       0x80 examples/light_switch/proxy_server/CMakeFiles/light_switch_proxy_server_nrf52832_xxAA_s132_6.0.0.dir/__/__/__/mesh/core/src/beacon.c.obj
 .comment       0x0000007f       0x80 examples/light_switch/proxy_server/CMakeFiles/light_switch_proxy_server_nrf52832_xxAA_s132_6.0.0.dir/__/__/__/mesh/core/src/flash_manager_internal.c.obj
 .comment       0x0000007f       0x80 examples/light_switch/proxy_server/CMakeFiles/light_switch_proxy_server_nrf52832_xxAA_s132_6.0.0.dir/__/__/__/mesh/core/src/core_tx.c.obj
 .comment       0x0000007f       0x80 examples/light_switch/proxy_server/CMakeFiles/light_switch_proxy_server_nrf52832_xxAA_s132_6.0.0.dir/__/__/__/mesh/core/src/heartbeat.c.obj
 .comment       0x0000007f       0x80 examples/light_switch/proxy_server/CMakeFiles/light_switch_proxy_server_nrf52832_xxAA_s132_6.0.0.dir/__/__/__/mesh/core/src/net_beacon.c.obj
 .comment       0x0000007f       0x80 examples/light_switch/proxy_server/CMakeFiles/light_switch_proxy_server_nrf52832_xxAA_s132_6.0.0.dir/__/__/__/mesh/core/src/fsm.c.obj
 .comment       0x0000007f       0x80 examples/light_switch/proxy_server/CMakeFiles/light_switch_proxy_server_nrf52832_xxAA_s132_6.0.0.dir/__/__/__/mesh/core/src/core_tx_adv.c.obj
 .comment       0x0000007f       0x80 examples/light_switch/proxy_server/CMakeFiles/light_switch_proxy_server_nrf52832_xxAA_s132_6.0.0.dir/__/__/__/mesh/bearer/src/ad_listener.c.obj
 .comment       0x0000007f       0x80 examples/light_switch/proxy_server/CMakeFiles/light_switch_proxy_server_nrf52832_xxAA_s132_6.0.0.dir/__/__/__/mesh/bearer/src/ad_type_filter.c.obj
 .comment       0x0000007f       0x80 examples/light_switch/proxy_server/CMakeFiles/light_switch_proxy_server_nrf52832_xxAA_s132_6.0.0.dir/__/__/__/mesh/bearer/src/advertiser.c.obj
 .comment       0x0000007f       0x80 examples/light_switch/proxy_server/CMakeFiles/light_switch_proxy_server_nrf52832_xxAA_s132_6.0.0.dir/__/__/__/mesh/bearer/src/bearer_handler.c.obj
 .comment       0x0000007f       0x80 examples/light_switch/proxy_server/CMakeFiles/light_switch_proxy_server_nrf52832_xxAA_s132_6.0.0.dir/__/__/__/mesh/bearer/src/broadcast.c.obj
 .comment       0x0000007f       0x80 examples/light_switch/proxy_server/CMakeFiles/light_switch_proxy_server_nrf52832_xxAA_s132_6.0.0.dir/__/__/__/mesh/bearer/src/filter_engine.c.obj
 .comment       0x0000007f       0x80 examples/light_switch/proxy_server/CMakeFiles/light_switch_proxy_server_nrf52832_xxAA_s132_6.0.0.dir/__/__/__/mesh/bearer/src/radio_config.c.obj
 .comment       0x0000007f       0x80 examples/light_switch/proxy_server/CMakeFiles/light_switch_proxy_server_nrf52832_xxAA_s132_6.0.0.dir/__/__/__/mesh/bearer/src/scanner.c.obj
 .comment       0x0000007f       0x80 examples/light_switch/proxy_server/CMakeFiles/light_switch_proxy_server_nrf52832_xxAA_s132_6.0.0.dir/__/__/__/mesh/gatt/src/mesh_gatt.c.obj
 .comment       0x0000007f       0x80 examples/light_switch/proxy_server/CMakeFiles/light_switch_proxy_server_nrf52832_xxAA_s132_6.0.0.dir/__/__/__/mesh/gatt/src/proxy.c.obj
 .comment       0x0000007f       0x80 examples/light_switch/proxy_server/CMakeFiles/light_switch_proxy_server_nrf52832_xxAA_s132_6.0.0.dir/__/__/__/mesh/gatt/src/proxy_filter.c.obj
 .comment       0x0000007f       0x80 examples/light_switch/proxy_server/CMakeFiles/light_switch_proxy_server_nrf52832_xxAA_s132_6.0.0.dir/__/__/__/models/simple_on_off/src/simple_on_off_server.c.obj
 .comment       0x0000007f       0x80 examples/light_switch/proxy_server/CMakeFiles/light_switch_proxy_server_nrf52832_xxAA_s132_6.0.0.dir/__/__/__/models/config/src/composition_data.c.obj
 .comment       0x0000007f       0x80 examples/light_switch/proxy_server/CMakeFiles/light_switch_proxy_server_nrf52832_xxAA_s132_6.0.0.dir/__/__/__/models/config/src/config_server.c.obj
 .comment       0x0000007f       0x80 examples/light_switch/proxy_server/CMakeFiles/light_switch_proxy_server_nrf52832_xxAA_s132_6.0.0.dir/__/__/__/models/config/src/packed_index_list.c.obj
 .comment       0x0000007f       0x80 examples/light_switch/proxy_server/CMakeFiles/light_switch_proxy_server_nrf52832_xxAA_s132_6.0.0.dir/__/__/__/models/health/src/health_server.c.obj
 .comment       0x0000007f       0x80 examples/light_switch/proxy_server/CMakeFiles/light_switch_proxy_server_nrf52832_xxAA_s132_6.0.0.dir/__/__/__/mesh/access/src/access_publish.c.obj
 .comment       0x0000007f       0x80 examples/light_switch/proxy_server/CMakeFiles/light_switch_proxy_server_nrf52832_xxAA_s132_6.0.0.dir/__/__/__/mesh/access/src/access.c.obj
 .comment       0x0000007f       0x80 examples/light_switch/proxy_server/CMakeFiles/light_switch_proxy_server_nrf52832_xxAA_s132_6.0.0.dir/__/__/__/mesh/access/src/access_reliable.c.obj
 .comment       0x0000007f       0x80 examples/light_switch/proxy_server/CMakeFiles/light_switch_proxy_server_nrf52832_xxAA_s132_6.0.0.dir/__/__/__/mesh/access/src/device_state_manager.c.obj
 .comment       0x0000007f       0x80 examples/light_switch/proxy_server/CMakeFiles/light_switch_proxy_server_nrf52832_xxAA_s132_6.0.0.dir/__/__/__/mesh/prov/src/prov_provisionee.c.obj
 .comment       0x0000007f       0x80 examples/light_switch/proxy_server/CMakeFiles/light_switch_proxy_server_nrf52832_xxAA_s132_6.0.0.dir/__/__/__/mesh/prov/src/nrf_mesh_prov.c.obj
 .comment       0x0000007f       0x80 examples/light_switch/proxy_server/CMakeFiles/light_switch_proxy_server_nrf52832_xxAA_s132_6.0.0.dir/__/__/__/mesh/prov/src/provisioning.c.obj
 .comment       0x0000007f       0x80 examples/light_switch/proxy_server/CMakeFiles/light_switch_proxy_server_nrf52832_xxAA_s132_6.0.0.dir/__/__/__/mesh/prov/src/prov_beacon.c.obj
 .comment       0x0000007f       0x80 examples/light_switch/proxy_server/CMakeFiles/light_switch_proxy_server_nrf52832_xxAA_s132_6.0.0.dir/__/__/__/mesh/prov/src/prov_utils.c.obj
 .comment       0x0000007f       0x80 examples/light_switch/proxy_server/CMakeFiles/light_switch_proxy_server_nrf52832_xxAA_s132_6.0.0.dir/__/__/__/mesh/prov/src/prov_bearer_adv.c.obj
 .comment       0x0000007f       0x80 examples/light_switch/proxy_server/CMakeFiles/light_switch_proxy_server_nrf52832_xxAA_s132_6.0.0.dir/C_/b/nRF5_SDK_15.0.0_a53641a/modules/nrfx/mdk/system_nrf52.c.obj
 .comment       0x0000007f       0x80 examples/light_switch/proxy_server/CMakeFiles/light_switch_proxy_server_nrf52832_xxAA_s132_6.0.0.dir/C_/b/nRF5_SDK_15.0.0_a53641a/components/libraries/util/app_error.c.obj
 .comment       0x0000007f       0x80 examples/light_switch/proxy_server/CMakeFiles/light_switch_proxy_server_nrf52832_xxAA_s132_6.0.0.dir/C_/b/nRF5_SDK_15.0.0_a53641a/components/libraries/util/app_error_handler_gcc.c.obj
 .comment       0x0000007f       0x80 external/rtt/librtt_nrf52832_xxAA.a(SEGGER_RTT.c.obj)
 .comment       0x0000007f       0x80 external/rtt/librtt_nrf52832_xxAA.a(SEGGER_RTT_printf.c.obj)
 .comment       0x0000007f       0x80 external/micro-ecc/libuECC_nrf52832_xxAA.a(uECC.c.obj)

.debug_info     0x00000000    0x93cb2
 .debug_info    0x00000000     0x2dc5 examples/light_switch/proxy_server/CMakeFiles/light_switch_proxy_server_nrf52832_xxAA_s132_6.0.0.dir/src/main.c.obj
 .debug_info    0x00002dc5     0x2349 examples/light_switch/proxy_server/CMakeFiles/light_switch_proxy_server_nrf52832_xxAA_s132_6.0.0.dir/__/__/__/mesh/stack/src/mesh_stack.c.obj
 .debug_info    0x0000510e     0x28cb examples/light_switch/proxy_server/CMakeFiles/light_switch_proxy_server_nrf52832_xxAA_s132_6.0.0.dir/__/__/common/src/mesh_provisionee.c.obj
 .debug_info    0x000079d9     0x116f examples/light_switch/proxy_server/CMakeFiles/light_switch_proxy_server_nrf52832_xxAA_s132_6.0.0.dir/__/__/common/src/rtt_input.c.obj
 .debug_info    0x00008b48     0x156c examples/light_switch/proxy_server/CMakeFiles/light_switch_proxy_server_nrf52832_xxAA_s132_6.0.0.dir/__/__/common/src/simple_hal.c.obj
 .debug_info    0x0000a0b4      0xcec examples/light_switch/proxy_server/CMakeFiles/light_switch_proxy_server_nrf52832_xxAA_s132_6.0.0.dir/__/__/common/src/mesh_app_utils.c.obj
 .debug_info    0x0000ada0     0x12ff examples/light_switch/proxy_server/CMakeFiles/light_switch_proxy_server_nrf52832_xxAA_s132_6.0.0.dir/__/__/common/src/mesh_adv.c.obj
 .debug_info    0x0000c09f     0x1e26 examples/light_switch/proxy_server/CMakeFiles/light_switch_proxy_server_nrf52832_xxAA_s132_6.0.0.dir/__/__/__/mesh/prov/src/nrf_mesh_prov_bearer_gatt.c.obj
 .debug_info    0x0000dec5     0x1199 examples/light_switch/proxy_server/CMakeFiles/light_switch_proxy_server_nrf52832_xxAA_s132_6.0.0.dir/C_/b/nRF5_SDK_15.0.0_a53641a/components/libraries/util/app_util_platform.c.obj
 .debug_info    0x0000f05e     0x1fb1 examples/light_switch/proxy_server/CMakeFiles/light_switch_proxy_server_nrf52832_xxAA_s132_6.0.0.dir/C_/b/nRF5_SDK_15.0.0_a53641a/components/ble/common/ble_advdata.c.obj
 .debug_info    0x0001100f      0xa20 examples/light_switch/proxy_server/CMakeFiles/light_switch_proxy_server_nrf52832_xxAA_s132_6.0.0.dir/C_/b/nRF5_SDK_15.0.0_a53641a/components/libraries/experimental_section_vars/nrf_section_iter.c.obj
 .debug_info    0x00011a2f     0x1a3b examples/light_switch/proxy_server/CMakeFiles/light_switch_proxy_server_nrf52832_xxAA_s132_6.0.0.dir/C_/b/nRF5_SDK_15.0.0_a53641a/components/softdevice/common/nrf_sdh.c.obj
 .debug_info    0x0001346a      0xd86 examples/light_switch/proxy_server/CMakeFiles/light_switch_proxy_server_nrf52832_xxAA_s132_6.0.0.dir/C_/b/nRF5_SDK_15.0.0_a53641a/components/softdevice/common/nrf_sdh_soc.c.obj
 .debug_info    0x000141f0     0x2b98 examples/light_switch/proxy_server/CMakeFiles/light_switch_proxy_server_nrf52832_xxAA_s132_6.0.0.dir/C_/b/nRF5_SDK_15.0.0_a53641a/components/softdevice/common/nrf_sdh_ble.c.obj
 .debug_info    0x00016d88      0x924 examples/light_switch/proxy_server/CMakeFiles/light_switch_proxy_server_nrf52832_xxAA_s132_6.0.0.dir/__/__/nrf_mesh_weak.c.obj
 .debug_info    0x000176ac     0x106b examples/light_switch/proxy_server/CMakeFiles/light_switch_proxy_server_nrf52832_xxAA_s132_6.0.0.dir/__/__/common/src/app_error_weak.c.obj
 .debug_info    0x00018717      0x99b examples/light_switch/proxy_server/CMakeFiles/light_switch_proxy_server_nrf52832_xxAA_s132_6.0.0.dir/__/__/common/src/assertion_handler_weak.c.obj
 .debug_info    0x000190b2      0xd04 examples/light_switch/proxy_server/CMakeFiles/light_switch_proxy_server_nrf52832_xxAA_s132_6.0.0.dir/__/__/__/mesh/core/src/nrf_mesh_configure.c.obj
 .debug_info    0x00019db6      0xbd2 examples/light_switch/proxy_server/CMakeFiles/light_switch_proxy_server_nrf52832_xxAA_s132_6.0.0.dir/__/__/__/mesh/core/src/aes.c.obj
 .debug_info    0x0001a988      0xa5a examples/light_switch/proxy_server/CMakeFiles/light_switch_proxy_server_nrf52832_xxAA_s132_6.0.0.dir/__/__/__/mesh/core/src/msg_cache.c.obj
 .debug_info    0x0001b3e2     0x5093 examples/light_switch/proxy_server/CMakeFiles/light_switch_proxy_server_nrf52832_xxAA_s132_6.0.0.dir/__/__/__/mesh/core/src/transport.c.obj
 .debug_info    0x00020475     0x172c examples/light_switch/proxy_server/CMakeFiles/light_switch_proxy_server_nrf52832_xxAA_s132_6.0.0.dir/__/__/__/mesh/core/src/event.c.obj
 .debug_info    0x00021ba1     0x1927 examples/light_switch/proxy_server/CMakeFiles/light_switch_proxy_server_nrf52832_xxAA_s132_6.0.0.dir/__/__/__/mesh/core/src/packet_buffer.c.obj
 .debug_info    0x000234c8     0x1fec examples/light_switch/proxy_server/CMakeFiles/light_switch_proxy_server_nrf52832_xxAA_s132_6.0.0.dir/__/__/__/mesh/core/src/flash_manager_defrag.c.obj
 .debug_info    0x000254b4      0xd19 examples/light_switch/proxy_server/CMakeFiles/light_switch_proxy_server_nrf52832_xxAA_s132_6.0.0.dir/__/__/__/mesh/core/src/fifo.c.obj
 .debug_info    0x000261cd      0xb20 examples/light_switch/proxy_server/CMakeFiles/light_switch_proxy_server_nrf52832_xxAA_s132_6.0.0.dir/__/__/__/mesh/core/src/nrf_flash.c.obj
 .debug_info    0x00026ced     0x118d examples/light_switch/proxy_server/CMakeFiles/light_switch_proxy_server_nrf52832_xxAA_s132_6.0.0.dir/__/__/__/mesh/core/src/packet_mgr.c.obj
 .debug_info    0x00027e7a     0x27fa examples/light_switch/proxy_server/CMakeFiles/light_switch_proxy_server_nrf52832_xxAA_s132_6.0.0.dir/__/__/__/mesh/core/src/net_state.c.obj
 .debug_info    0x0002a674     0x1931 examples/light_switch/proxy_server/CMakeFiles/light_switch_proxy_server_nrf52832_xxAA_s132_6.0.0.dir/__/__/__/mesh/core/src/mesh_flash.c.obj
 .debug_info    0x0002bfa5      0xa78 examples/light_switch/proxy_server/CMakeFiles/light_switch_proxy_server_nrf52832_xxAA_s132_6.0.0.dir/__/__/__/mesh/core/src/nrf_mesh_utils.c.obj
 .debug_info    0x0002ca1d     0x25d3 examples/light_switch/proxy_server/CMakeFiles/light_switch_proxy_server_nrf52832_xxAA_s132_6.0.0.dir/__/__/__/mesh/core/src/nrf_mesh.c.obj
 .debug_info    0x0002eff0      0xb11 examples/light_switch/proxy_server/CMakeFiles/light_switch_proxy_server_nrf52832_xxAA_s132_6.0.0.dir/__/__/__/mesh/core/src/queue.c.obj
 .debug_info    0x0002fb01      0x54f examples/light_switch/proxy_server/CMakeFiles/light_switch_proxy_server_nrf52832_xxAA_s132_6.0.0.dir/__/__/__/mesh/core/src/hal.c.obj
 .debug_info    0x00030050      0xe48 examples/light_switch/proxy_server/CMakeFiles/light_switch_proxy_server_nrf52832_xxAA_s132_6.0.0.dir/__/__/__/mesh/core/src/aes_cmac.c.obj
 .debug_info    0x00030e98     0x10e0 examples/light_switch/proxy_server/CMakeFiles/light_switch_proxy_server_nrf52832_xxAA_s132_6.0.0.dir/__/__/__/mesh/core/src/timer_scheduler.c.obj
 .debug_info    0x00031f78      0xd90 examples/light_switch/proxy_server/CMakeFiles/light_switch_proxy_server_nrf52832_xxAA_s132_6.0.0.dir/__/__/__/mesh/core/src/timer.c.obj
 .debug_info    0x00032d08      0x20b examples/light_switch/proxy_server/CMakeFiles/light_switch_proxy_server_nrf52832_xxAA_s132_6.0.0.dir/__/__/__/mesh/core/src/ticker.c.obj
 .debug_info    0x00032f13      0x408 examples/light_switch/proxy_server/CMakeFiles/light_switch_proxy_server_nrf52832_xxAA_s132_6.0.0.dir/__/__/__/mesh/core/src/rand.c.obj
 .debug_info    0x0003331b      0xaf5 examples/light_switch/proxy_server/CMakeFiles/light_switch_proxy_server_nrf52832_xxAA_s132_6.0.0.dir/__/__/__/mesh/core/src/nrf_mesh_opt.c.obj
 .debug_info    0x00033e10     0x1a1c examples/light_switch/proxy_server/CMakeFiles/light_switch_proxy_server_nrf52832_xxAA_s132_6.0.0.dir/__/__/__/mesh/core/src/timeslot.c.obj
 .debug_info    0x0003582c     0x1a78 examples/light_switch/proxy_server/CMakeFiles/light_switch_proxy_server_nrf52832_xxAA_s132_6.0.0.dir/__/__/__/mesh/core/src/bearer_event.c.obj
 .debug_info    0x000372a4     0x1703 examples/light_switch/proxy_server/CMakeFiles/light_switch_proxy_server_nrf52832_xxAA_s132_6.0.0.dir/__/__/__/mesh/core/src/enc.c.obj
 .debug_info    0x000389a7     0x1af0 examples/light_switch/proxy_server/CMakeFiles/light_switch_proxy_server_nrf52832_xxAA_s132_6.0.0.dir/__/__/__/mesh/core/src/network.c.obj
 .debug_info    0x0003a497     0x1cad examples/light_switch/proxy_server/CMakeFiles/light_switch_proxy_server_nrf52832_xxAA_s132_6.0.0.dir/__/__/__/mesh/core/src/net_packet.c.obj
 .debug_info    0x0003c144      0xd86 examples/light_switch/proxy_server/CMakeFiles/light_switch_proxy_server_nrf52832_xxAA_s132_6.0.0.dir/__/__/__/mesh/core/src/msqueue.c.obj
 .debug_info    0x0003ceca      0x4d4 examples/light_switch/proxy_server/CMakeFiles/light_switch_proxy_server_nrf52832_xxAA_s132_6.0.0.dir/__/__/__/mesh/core/src/nrf_mesh_keygen.c.obj
 .debug_info    0x0003d39e      0xbe1 examples/light_switch/proxy_server/CMakeFiles/light_switch_proxy_server_nrf52832_xxAA_s132_6.0.0.dir/__/__/__/mesh/core/src/cache.c.obj
 .debug_info    0x0003df7f      0x506 examples/light_switch/proxy_server/CMakeFiles/light_switch_proxy_server_nrf52832_xxAA_s132_6.0.0.dir/__/__/__/mesh/core/src/list.c.obj
 .debug_info    0x0003e485      0xe28 examples/light_switch/proxy_server/CMakeFiles/light_switch_proxy_server_nrf52832_xxAA_s132_6.0.0.dir/__/__/__/mesh/core/src/log.c.obj
 .debug_info    0x0003f2ad     0x3024 examples/light_switch/proxy_server/CMakeFiles/light_switch_proxy_server_nrf52832_xxAA_s132_6.0.0.dir/__/__/__/mesh/core/src/flash_manager.c.obj
 .debug_info    0x000422d1     0x10a3 examples/light_switch/proxy_server/CMakeFiles/light_switch_proxy_server_nrf52832_xxAA_s132_6.0.0.dir/__/__/__/mesh/core/src/ccm_soft.c.obj
 .debug_info    0x00043374      0xa93 examples/light_switch/proxy_server/CMakeFiles/light_switch_proxy_server_nrf52832_xxAA_s132_6.0.0.dir/__/__/__/mesh/core/src/replay_cache.c.obj
 .debug_info    0x00043e07     0x177f examples/light_switch/proxy_server/CMakeFiles/light_switch_proxy_server_nrf52832_xxAA_s132_6.0.0.dir/__/__/__/mesh/core/src/beacon.c.obj
 .debug_info    0x00045586      0xb9b examples/light_switch/proxy_server/CMakeFiles/light_switch_proxy_server_nrf52832_xxAA_s132_6.0.0.dir/__/__/__/mesh/core/src/flash_manager_internal.c.obj
 .debug_info    0x00046121     0x126f examples/light_switch/proxy_server/CMakeFiles/light_switch_proxy_server_nrf52832_xxAA_s132_6.0.0.dir/__/__/__/mesh/core/src/core_tx.c.obj
 .debug_info    0x00047390     0x24e5 examples/light_switch/proxy_server/CMakeFiles/light_switch_proxy_server_nrf52832_xxAA_s132_6.0.0.dir/__/__/__/mesh/core/src/heartbeat.c.obj
 .debug_info    0x00049875     0x28b9 examples/light_switch/proxy_server/CMakeFiles/light_switch_proxy_server_nrf52832_xxAA_s132_6.0.0.dir/__/__/__/mesh/core/src/net_beacon.c.obj
 .debug_info    0x0004c12e     0x132d examples/light_switch/proxy_server/CMakeFiles/light_switch_proxy_server_nrf52832_xxAA_s132_6.0.0.dir/__/__/__/mesh/core/src/fsm.c.obj
 .debug_info    0x0004d45b     0x197b examples/light_switch/proxy_server/CMakeFiles/light_switch_proxy_server_nrf52832_xxAA_s132_6.0.0.dir/__/__/__/mesh/core/src/core_tx_adv.c.obj
 .debug_info    0x0004edd6     0x1164 examples/light_switch/proxy_server/CMakeFiles/light_switch_proxy_server_nrf52832_xxAA_s132_6.0.0.dir/__/__/__/mesh/bearer/src/ad_listener.c.obj
 .debug_info    0x0004ff3a      0xfbe examples/light_switch/proxy_server/CMakeFiles/light_switch_proxy_server_nrf52832_xxAA_s132_6.0.0.dir/__/__/__/mesh/bearer/src/ad_type_filter.c.obj
 .debug_info    0x00050ef8     0x2584 examples/light_switch/proxy_server/CMakeFiles/light_switch_proxy_server_nrf52832_xxAA_s132_6.0.0.dir/__/__/__/mesh/bearer/src/advertiser.c.obj
 .debug_info    0x0005347c     0x19de examples/light_switch/proxy_server/CMakeFiles/light_switch_proxy_server_nrf52832_xxAA_s132_6.0.0.dir/__/__/__/mesh/bearer/src/bearer_handler.c.obj
 .debug_info    0x00054e5a     0x19a6 examples/light_switch/proxy_server/CMakeFiles/light_switch_proxy_server_nrf52832_xxAA_s132_6.0.0.dir/__/__/__/mesh/bearer/src/broadcast.c.obj
 .debug_info    0x00056800      0xcff examples/light_switch/proxy_server/CMakeFiles/light_switch_proxy_server_nrf52832_xxAA_s132_6.0.0.dir/__/__/__/mesh/bearer/src/filter_engine.c.obj
 .debug_info    0x000574ff      0x8e4 examples/light_switch/proxy_server/CMakeFiles/light_switch_proxy_server_nrf52832_xxAA_s132_6.0.0.dir/__/__/__/mesh/bearer/src/radio_config.c.obj
 .debug_info    0x00057de3     0x262e examples/light_switch/proxy_server/CMakeFiles/light_switch_proxy_server_nrf52832_xxAA_s132_6.0.0.dir/__/__/__/mesh/bearer/src/scanner.c.obj
 .debug_info    0x0005a411     0x4612 examples/light_switch/proxy_server/CMakeFiles/light_switch_proxy_server_nrf52832_xxAA_s132_6.0.0.dir/__/__/__/mesh/gatt/src/mesh_gatt.c.obj
 .debug_info    0x0005ea23     0x40fd examples/light_switch/proxy_server/CMakeFiles/light_switch_proxy_server_nrf52832_xxAA_s132_6.0.0.dir/__/__/__/mesh/gatt/src/proxy.c.obj
 .debug_info    0x00062b20      0x46f examples/light_switch/proxy_server/CMakeFiles/light_switch_proxy_server_nrf52832_xxAA_s132_6.0.0.dir/__/__/__/mesh/gatt/src/proxy_filter.c.obj
 .debug_info    0x00062f8f      0xb6c examples/light_switch/proxy_server/CMakeFiles/light_switch_proxy_server_nrf52832_xxAA_s132_6.0.0.dir/__/__/__/models/simple_on_off/src/simple_on_off_server.c.obj
 .debug_info    0x00063afb      0xed3 examples/light_switch/proxy_server/CMakeFiles/light_switch_proxy_server_nrf52832_xxAA_s132_6.0.0.dir/__/__/__/models/config/src/composition_data.c.obj
 .debug_info    0x000649ce     0x8c13 examples/light_switch/proxy_server/CMakeFiles/light_switch_proxy_server_nrf52832_xxAA_s132_6.0.0.dir/__/__/__/models/config/src/config_server.c.obj
 .debug_info    0x0006d5e1      0x126 examples/light_switch/proxy_server/CMakeFiles/light_switch_proxy_server_nrf52832_xxAA_s132_6.0.0.dir/__/__/__/models/config/src/packed_index_list.c.obj
 .debug_info    0x0006d707     0x270a examples/light_switch/proxy_server/CMakeFiles/light_switch_proxy_server_nrf52832_xxAA_s132_6.0.0.dir/__/__/__/models/health/src/health_server.c.obj
 .debug_info    0x0006fe11     0x1155 examples/light_switch/proxy_server/CMakeFiles/light_switch_proxy_server_nrf52832_xxAA_s132_6.0.0.dir/__/__/__/mesh/access/src/access_publish.c.obj
 .debug_info    0x00070f66     0x49f1 examples/light_switch/proxy_server/CMakeFiles/light_switch_proxy_server_nrf52832_xxAA_s132_6.0.0.dir/__/__/__/mesh/access/src/access.c.obj
 .debug_info    0x00075957     0x19db examples/light_switch/proxy_server/CMakeFiles/light_switch_proxy_server_nrf52832_xxAA_s132_6.0.0.dir/__/__/__/mesh/access/src/access_reliable.c.obj
 .debug_info    0x00077332     0x6679 examples/light_switch/proxy_server/CMakeFiles/light_switch_proxy_server_nrf52832_xxAA_s132_6.0.0.dir/__/__/__/mesh/access/src/device_state_manager.c.obj
 .debug_info    0x0007d9ab     0x2823 examples/light_switch/proxy_server/CMakeFiles/light_switch_proxy_server_nrf52832_xxAA_s132_6.0.0.dir/__/__/__/mesh/prov/src/prov_provisionee.c.obj
 .debug_info    0x000801ce     0x1ed2 examples/light_switch/proxy_server/CMakeFiles/light_switch_proxy_server_nrf52832_xxAA_s132_6.0.0.dir/__/__/__/mesh/prov/src/nrf_mesh_prov.c.obj
 .debug_info    0x000820a0     0x1586 examples/light_switch/proxy_server/CMakeFiles/light_switch_proxy_server_nrf52832_xxAA_s132_6.0.0.dir/__/__/__/mesh/prov/src/provisioning.c.obj
 .debug_info    0x00083626     0x1a48 examples/light_switch/proxy_server/CMakeFiles/light_switch_proxy_server_nrf52832_xxAA_s132_6.0.0.dir/__/__/__/mesh/prov/src/prov_beacon.c.obj
 .debug_info    0x0008506e     0x2054 examples/light_switch/proxy_server/CMakeFiles/light_switch_proxy_server_nrf52832_xxAA_s132_6.0.0.dir/__/__/__/mesh/prov/src/prov_utils.c.obj
 .debug_info    0x000870c2     0x3ab2 examples/light_switch/proxy_server/CMakeFiles/light_switch_proxy_server_nrf52832_xxAA_s132_6.0.0.dir/__/__/__/mesh/prov/src/prov_bearer_adv.c.obj
 .debug_info    0x0008ab74     0x10f2 examples/light_switch/proxy_server/CMakeFiles/light_switch_proxy_server_nrf52832_xxAA_s132_6.0.0.dir/C_/b/nRF5_SDK_15.0.0_a53641a/modules/nrfx/mdk/system_nrf52.c.obj
 .debug_info    0x0008bc66      0xaee examples/light_switch/proxy_server/CMakeFiles/light_switch_proxy_server_nrf52832_xxAA_s132_6.0.0.dir/C_/b/nRF5_SDK_15.0.0_a53641a/components/libraries/util/app_error.c.obj
 .debug_info    0x0008c754      0x974 examples/light_switch/proxy_server/CMakeFiles/light_switch_proxy_server_nrf52832_xxAA_s132_6.0.0.dir/C_/b/nRF5_SDK_15.0.0_a53641a/components/libraries/util/app_error_handler_gcc.c.obj
 .debug_info    0x0008d0c8     0x1818 external/rtt/librtt_nrf52832_xxAA.a(SEGGER_RTT.c.obj)
 .debug_info    0x0008e8e0      0xec1 external/rtt/librtt_nrf52832_xxAA.a(SEGGER_RTT_printf.c.obj)
 .debug_info    0x0008f7a1     0x4511 external/micro-ecc/libuECC_nrf52832_xxAA.a(uECC.c.obj)

.debug_abbrev   0x00000000    0x1364d
 .debug_abbrev  0x00000000      0x54b examples/light_switch/proxy_server/CMakeFiles/light_switch_proxy_server_nrf52832_xxAA_s132_6.0.0.dir/src/main.c.obj
 .debug_abbrev  0x0000054b      0x36b examples/light_switch/proxy_server/CMakeFiles/light_switch_proxy_server_nrf52832_xxAA_s132_6.0.0.dir/__/__/__/mesh/stack/src/mesh_stack.c.obj
 .debug_abbrev  0x000008b6      0x359 examples/light_switch/proxy_server/CMakeFiles/light_switch_proxy_server_nrf52832_xxAA_s132_6.0.0.dir/__/__/common/src/mesh_provisionee.c.obj
 .debug_abbrev  0x00000c0f      0x2b8 examples/light_switch/proxy_server/CMakeFiles/light_switch_proxy_server_nrf52832_xxAA_s132_6.0.0.dir/__/__/common/src/rtt_input.c.obj
 .debug_abbrev  0x00000ec7      0x36b examples/light_switch/proxy_server/CMakeFiles/light_switch_proxy_server_nrf52832_xxAA_s132_6.0.0.dir/__/__/common/src/simple_hal.c.obj
 .debug_abbrev  0x00001232      0x221 examples/light_switch/proxy_server/CMakeFiles/light_switch_proxy_server_nrf52832_xxAA_s132_6.0.0.dir/__/__/common/src/mesh_app_utils.c.obj
 .debug_abbrev  0x00001453      0x2da examples/light_switch/proxy_server/CMakeFiles/light_switch_proxy_server_nrf52832_xxAA_s132_6.0.0.dir/__/__/common/src/mesh_adv.c.obj
 .debug_abbrev  0x0000172d      0x44c examples/light_switch/proxy_server/CMakeFiles/light_switch_proxy_server_nrf52832_xxAA_s132_6.0.0.dir/__/__/__/mesh/prov/src/nrf_mesh_prov_bearer_gatt.c.obj
 .debug_abbrev  0x00001b79      0x35b examples/light_switch/proxy_server/CMakeFiles/light_switch_proxy_server_nrf52832_xxAA_s132_6.0.0.dir/C_/b/nRF5_SDK_15.0.0_a53641a/components/libraries/util/app_util_platform.c.obj
 .debug_abbrev  0x00001ed4      0x432 examples/light_switch/proxy_server/CMakeFiles/light_switch_proxy_server_nrf52832_xxAA_s132_6.0.0.dir/C_/b/nRF5_SDK_15.0.0_a53641a/components/ble/common/ble_advdata.c.obj
 .debug_abbrev  0x00002306      0x1d5 examples/light_switch/proxy_server/CMakeFiles/light_switch_proxy_server_nrf52832_xxAA_s132_6.0.0.dir/C_/b/nRF5_SDK_15.0.0_a53641a/components/libraries/experimental_section_vars/nrf_section_iter.c.obj
 .debug_abbrev  0x000024db      0x4fa examples/light_switch/proxy_server/CMakeFiles/light_switch_proxy_server_nrf52832_xxAA_s132_6.0.0.dir/C_/b/nRF5_SDK_15.0.0_a53641a/components/softdevice/common/nrf_sdh.c.obj
 .debug_abbrev  0x000029d5      0x2a5 examples/light_switch/proxy_server/CMakeFiles/light_switch_proxy_server_nrf52832_xxAA_s132_6.0.0.dir/C_/b/nRF5_SDK_15.0.0_a53641a/components/softdevice/common/nrf_sdh_soc.c.obj
 .debug_abbrev  0x00002c7a      0x3d6 examples/light_switch/proxy_server/CMakeFiles/light_switch_proxy_server_nrf52832_xxAA_s132_6.0.0.dir/C_/b/nRF5_SDK_15.0.0_a53641a/components/softdevice/common/nrf_sdh_ble.c.obj
 .debug_abbrev  0x00003050      0x1ae examples/light_switch/proxy_server/CMakeFiles/light_switch_proxy_server_nrf52832_xxAA_s132_6.0.0.dir/__/__/nrf_mesh_weak.c.obj
 .debug_abbrev  0x000031fe      0x2de examples/light_switch/proxy_server/CMakeFiles/light_switch_proxy_server_nrf52832_xxAA_s132_6.0.0.dir/__/__/common/src/app_error_weak.c.obj
 .debug_abbrev  0x000034dc      0x1f6 examples/light_switch/proxy_server/CMakeFiles/light_switch_proxy_server_nrf52832_xxAA_s132_6.0.0.dir/__/__/common/src/assertion_handler_weak.c.obj
 .debug_abbrev  0x000036d2      0x24b examples/light_switch/proxy_server/CMakeFiles/light_switch_proxy_server_nrf52832_xxAA_s132_6.0.0.dir/__/__/__/mesh/core/src/nrf_mesh_configure.c.obj
 .debug_abbrev  0x0000391d      0x264 examples/light_switch/proxy_server/CMakeFiles/light_switch_proxy_server_nrf52832_xxAA_s132_6.0.0.dir/__/__/__/mesh/core/src/aes.c.obj
 .debug_abbrev  0x00003b81      0x25d examples/light_switch/proxy_server/CMakeFiles/light_switch_proxy_server_nrf52832_xxAA_s132_6.0.0.dir/__/__/__/mesh/core/src/msg_cache.c.obj
 .debug_abbrev  0x00003dde      0x5e8 examples/light_switch/proxy_server/CMakeFiles/light_switch_proxy_server_nrf52832_xxAA_s132_6.0.0.dir/__/__/__/mesh/core/src/transport.c.obj
 .debug_abbrev  0x000043c6      0x2be examples/light_switch/proxy_server/CMakeFiles/light_switch_proxy_server_nrf52832_xxAA_s132_6.0.0.dir/__/__/__/mesh/core/src/event.c.obj
 .debug_abbrev  0x00004684      0x45f examples/light_switch/proxy_server/CMakeFiles/light_switch_proxy_server_nrf52832_xxAA_s132_6.0.0.dir/__/__/__/mesh/core/src/packet_buffer.c.obj
 .debug_abbrev  0x00004ae3      0x50e examples/light_switch/proxy_server/CMakeFiles/light_switch_proxy_server_nrf52832_xxAA_s132_6.0.0.dir/__/__/__/mesh/core/src/flash_manager_defrag.c.obj
 .debug_abbrev  0x00004ff1      0x2f2 examples/light_switch/proxy_server/CMakeFiles/light_switch_proxy_server_nrf52832_xxAA_s132_6.0.0.dir/__/__/__/mesh/core/src/fifo.c.obj
 .debug_abbrev  0x000052e3      0x21f examples/light_switch/proxy_server/CMakeFiles/light_switch_proxy_server_nrf52832_xxAA_s132_6.0.0.dir/__/__/__/mesh/core/src/nrf_flash.c.obj
 .debug_abbrev  0x00005502      0x3b1 examples/light_switch/proxy_server/CMakeFiles/light_switch_proxy_server_nrf52832_xxAA_s132_6.0.0.dir/__/__/__/mesh/core/src/packet_mgr.c.obj
 .debug_abbrev  0x000058b3      0x552 examples/light_switch/proxy_server/CMakeFiles/light_switch_proxy_server_nrf52832_xxAA_s132_6.0.0.dir/__/__/__/mesh/core/src/net_state.c.obj
 .debug_abbrev  0x00005e05      0x453 examples/light_switch/proxy_server/CMakeFiles/light_switch_proxy_server_nrf52832_xxAA_s132_6.0.0.dir/__/__/__/mesh/core/src/mesh_flash.c.obj
 .debug_abbrev  0x00006258      0x242 examples/light_switch/proxy_server/CMakeFiles/light_switch_proxy_server_nrf52832_xxAA_s132_6.0.0.dir/__/__/__/mesh/core/src/nrf_mesh_utils.c.obj
 .debug_abbrev  0x0000649a      0x476 examples/light_switch/proxy_server/CMakeFiles/light_switch_proxy_server_nrf52832_xxAA_s132_6.0.0.dir/__/__/__/mesh/core/src/nrf_mesh.c.obj
 .debug_abbrev  0x00006910      0x247 examples/light_switch/proxy_server/CMakeFiles/light_switch_proxy_server_nrf52832_xxAA_s132_6.0.0.dir/__/__/__/mesh/core/src/queue.c.obj
 .debug_abbrev  0x00006b57      0x1eb examples/light_switch/proxy_server/CMakeFiles/light_switch_proxy_server_nrf52832_xxAA_s132_6.0.0.dir/__/__/__/mesh/core/src/hal.c.obj
 .debug_abbrev  0x00006d42      0x332 examples/light_switch/proxy_server/CMakeFiles/light_switch_proxy_server_nrf52832_xxAA_s132_6.0.0.dir/__/__/__/mesh/core/src/aes_cmac.c.obj
 .debug_abbrev  0x00007074      0x3bc examples/light_switch/proxy_server/CMakeFiles/light_switch_proxy_server_nrf52832_xxAA_s132_6.0.0.dir/__/__/__/mesh/core/src/timer_scheduler.c.obj
 .debug_abbrev  0x00007430      0x337 examples/light_switch/proxy_server/CMakeFiles/light_switch_proxy_server_nrf52832_xxAA_s132_6.0.0.dir/__/__/__/mesh/core/src/timer.c.obj
 .debug_abbrev  0x00007767      0x152 examples/light_switch/proxy_server/CMakeFiles/light_switch_proxy_server_nrf52832_xxAA_s132_6.0.0.dir/__/__/__/mesh/core/src/ticker.c.obj
 .debug_abbrev  0x000078b9      0x194 examples/light_switch/proxy_server/CMakeFiles/light_switch_proxy_server_nrf52832_xxAA_s132_6.0.0.dir/__/__/__/mesh/core/src/rand.c.obj
 .debug_abbrev  0x00007a4d      0x24a examples/light_switch/proxy_server/CMakeFiles/light_switch_proxy_server_nrf52832_xxAA_s132_6.0.0.dir/__/__/__/mesh/core/src/nrf_mesh_opt.c.obj
 .debug_abbrev  0x00007c97      0x4a4 examples/light_switch/proxy_server/CMakeFiles/light_switch_proxy_server_nrf52832_xxAA_s132_6.0.0.dir/__/__/__/mesh/core/src/timeslot.c.obj
 .debug_abbrev  0x0000813b      0x4b5 examples/light_switch/proxy_server/CMakeFiles/light_switch_proxy_server_nrf52832_xxAA_s132_6.0.0.dir/__/__/__/mesh/core/src/bearer_event.c.obj
 .debug_abbrev  0x000085f0      0x375 examples/light_switch/proxy_server/CMakeFiles/light_switch_proxy_server_nrf52832_xxAA_s132_6.0.0.dir/__/__/__/mesh/core/src/enc.c.obj
 .debug_abbrev  0x00008965      0x496 examples/light_switch/proxy_server/CMakeFiles/light_switch_proxy_server_nrf52832_xxAA_s132_6.0.0.dir/__/__/__/mesh/core/src/network.c.obj
 .debug_abbrev  0x00008dfb      0x4a1 examples/light_switch/proxy_server/CMakeFiles/light_switch_proxy_server_nrf52832_xxAA_s132_6.0.0.dir/__/__/__/mesh/core/src/net_packet.c.obj
 .debug_abbrev  0x0000929c      0x2c0 examples/light_switch/proxy_server/CMakeFiles/light_switch_proxy_server_nrf52832_xxAA_s132_6.0.0.dir/__/__/__/mesh/core/src/msqueue.c.obj
 .debug_abbrev  0x0000955c      0x156 examples/light_switch/proxy_server/CMakeFiles/light_switch_proxy_server_nrf52832_xxAA_s132_6.0.0.dir/__/__/__/mesh/core/src/nrf_mesh_keygen.c.obj
 .debug_abbrev  0x000096b2      0x2a3 examples/light_switch/proxy_server/CMakeFiles/light_switch_proxy_server_nrf52832_xxAA_s132_6.0.0.dir/__/__/__/mesh/core/src/cache.c.obj
 .debug_abbrev  0x00009955      0x1a4 examples/light_switch/proxy_server/CMakeFiles/light_switch_proxy_server_nrf52832_xxAA_s132_6.0.0.dir/__/__/__/mesh/core/src/list.c.obj
 .debug_abbrev  0x00009af9      0x24e examples/light_switch/proxy_server/CMakeFiles/light_switch_proxy_server_nrf52832_xxAA_s132_6.0.0.dir/__/__/__/mesh/core/src/log.c.obj
 .debug_abbrev  0x00009d47      0x524 examples/light_switch/proxy_server/CMakeFiles/light_switch_proxy_server_nrf52832_xxAA_s132_6.0.0.dir/__/__/__/mesh/core/src/flash_manager.c.obj
 .debug_abbrev  0x0000a26b      0x2b3 examples/light_switch/proxy_server/CMakeFiles/light_switch_proxy_server_nrf52832_xxAA_s132_6.0.0.dir/__/__/__/mesh/core/src/ccm_soft.c.obj
 .debug_abbrev  0x0000a51e      0x270 examples/light_switch/proxy_server/CMakeFiles/light_switch_proxy_server_nrf52832_xxAA_s132_6.0.0.dir/__/__/__/mesh/core/src/replay_cache.c.obj
 .debug_abbrev  0x0000a78e      0x2c4 examples/light_switch/proxy_server/CMakeFiles/light_switch_proxy_server_nrf52832_xxAA_s132_6.0.0.dir/__/__/__/mesh/core/src/beacon.c.obj
 .debug_abbrev  0x0000aa52      0x288 examples/light_switch/proxy_server/CMakeFiles/light_switch_proxy_server_nrf52832_xxAA_s132_6.0.0.dir/__/__/__/mesh/core/src/flash_manager_internal.c.obj
 .debug_abbrev  0x0000acda      0x2ed examples/light_switch/proxy_server/CMakeFiles/light_switch_proxy_server_nrf52832_xxAA_s132_6.0.0.dir/__/__/__/mesh/core/src/core_tx.c.obj
 .debug_abbrev  0x0000afc7      0x4be examples/light_switch/proxy_server/CMakeFiles/light_switch_proxy_server_nrf52832_xxAA_s132_6.0.0.dir/__/__/__/mesh/core/src/heartbeat.c.obj
 .debug_abbrev  0x0000b485      0x4ac examples/light_switch/proxy_server/CMakeFiles/light_switch_proxy_server_nrf52832_xxAA_s132_6.0.0.dir/__/__/__/mesh/core/src/net_beacon.c.obj
 .debug_abbrev  0x0000b931      0x345 examples/light_switch/proxy_server/CMakeFiles/light_switch_proxy_server_nrf52832_xxAA_s132_6.0.0.dir/__/__/__/mesh/core/src/fsm.c.obj
 .debug_abbrev  0x0000bc76      0x2fa examples/light_switch/proxy_server/CMakeFiles/light_switch_proxy_server_nrf52832_xxAA_s132_6.0.0.dir/__/__/__/mesh/core/src/core_tx_adv.c.obj
 .debug_abbrev  0x0000bf70      0x341 examples/light_switch/proxy_server/CMakeFiles/light_switch_proxy_server_nrf52832_xxAA_s132_6.0.0.dir/__/__/__/mesh/bearer/src/ad_listener.c.obj
 .debug_abbrev  0x0000c2b1      0x368 examples/light_switch/proxy_server/CMakeFiles/light_switch_proxy_server_nrf52832_xxAA_s132_6.0.0.dir/__/__/__/mesh/bearer/src/ad_type_filter.c.obj
 .debug_abbrev  0x0000c619      0x4e4 examples/light_switch/proxy_server/CMakeFiles/light_switch_proxy_server_nrf52832_xxAA_s132_6.0.0.dir/__/__/__/mesh/bearer/src/advertiser.c.obj
 .debug_abbrev  0x0000cafd      0x3e2 examples/light_switch/proxy_server/CMakeFiles/light_switch_proxy_server_nrf52832_xxAA_s132_6.0.0.dir/__/__/__/mesh/bearer/src/bearer_handler.c.obj
 .debug_abbrev  0x0000cedf      0x3c8 examples/light_switch/proxy_server/CMakeFiles/light_switch_proxy_server_nrf52832_xxAA_s132_6.0.0.dir/__/__/__/mesh/bearer/src/broadcast.c.obj
 .debug_abbrev  0x0000d2a7      0x2a6 examples/light_switch/proxy_server/CMakeFiles/light_switch_proxy_server_nrf52832_xxAA_s132_6.0.0.dir/__/__/__/mesh/bearer/src/filter_engine.c.obj
 .debug_abbrev  0x0000d54d      0x1d5 examples/light_switch/proxy_server/CMakeFiles/light_switch_proxy_server_nrf52832_xxAA_s132_6.0.0.dir/__/__/__/mesh/bearer/src/radio_config.c.obj
 .debug_abbrev  0x0000d722      0x52a examples/light_switch/proxy_server/CMakeFiles/light_switch_proxy_server_nrf52832_xxAA_s132_6.0.0.dir/__/__/__/mesh/bearer/src/scanner.c.obj
 .debug_abbrev  0x0000dc4c      0x524 examples/light_switch/proxy_server/CMakeFiles/light_switch_proxy_server_nrf52832_xxAA_s132_6.0.0.dir/__/__/__/mesh/gatt/src/mesh_gatt.c.obj
 .debug_abbrev  0x0000e170      0x591 examples/light_switch/proxy_server/CMakeFiles/light_switch_proxy_server_nrf52832_xxAA_s132_6.0.0.dir/__/__/__/mesh/gatt/src/proxy.c.obj
 .debug_abbrev  0x0000e701      0x1ce examples/light_switch/proxy_server/CMakeFiles/light_switch_proxy_server_nrf52832_xxAA_s132_6.0.0.dir/__/__/__/mesh/gatt/src/proxy_filter.c.obj
 .debug_abbrev  0x0000e8cf      0x2c5 examples/light_switch/proxy_server/CMakeFiles/light_switch_proxy_server_nrf52832_xxAA_s132_6.0.0.dir/__/__/__/models/simple_on_off/src/simple_on_off_server.c.obj
 .debug_abbrev  0x0000eb94      0x2db examples/light_switch/proxy_server/CMakeFiles/light_switch_proxy_server_nrf52832_xxAA_s132_6.0.0.dir/__/__/__/models/config/src/composition_data.c.obj
 .debug_abbrev  0x0000ee6f      0x56a examples/light_switch/proxy_server/CMakeFiles/light_switch_proxy_server_nrf52832_xxAA_s132_6.0.0.dir/__/__/__/models/config/src/config_server.c.obj
 .debug_abbrev  0x0000f3d9       0x95 examples/light_switch/proxy_server/CMakeFiles/light_switch_proxy_server_nrf52832_xxAA_s132_6.0.0.dir/__/__/__/models/config/src/packed_index_list.c.obj
 .debug_abbrev  0x0000f46e      0x4d0 examples/light_switch/proxy_server/CMakeFiles/light_switch_proxy_server_nrf52832_xxAA_s132_6.0.0.dir/__/__/__/models/health/src/health_server.c.obj
 .debug_abbrev  0x0000f93e      0x434 examples/light_switch/proxy_server/CMakeFiles/light_switch_proxy_server_nrf52832_xxAA_s132_6.0.0.dir/__/__/__/mesh/access/src/access_publish.c.obj
 .debug_abbrev  0x0000fd72      0x637 examples/light_switch/proxy_server/CMakeFiles/light_switch_proxy_server_nrf52832_xxAA_s132_6.0.0.dir/__/__/__/mesh/access/src/access.c.obj
 .debug_abbrev  0x000103a9      0x43b examples/light_switch/proxy_server/CMakeFiles/light_switch_proxy_server_nrf52832_xxAA_s132_6.0.0.dir/__/__/__/mesh/access/src/access_reliable.c.obj
 .debug_abbrev  0x000107e4      0x604 examples/light_switch/proxy_server/CMakeFiles/light_switch_proxy_server_nrf52832_xxAA_s132_6.0.0.dir/__/__/__/mesh/access/src/device_state_manager.c.obj
 .debug_abbrev  0x00010de8      0x491 examples/light_switch/proxy_server/CMakeFiles/light_switch_proxy_server_nrf52832_xxAA_s132_6.0.0.dir/__/__/__/mesh/prov/src/prov_provisionee.c.obj
 .debug_abbrev  0x00011279      0x434 examples/light_switch/proxy_server/CMakeFiles/light_switch_proxy_server_nrf52832_xxAA_s132_6.0.0.dir/__/__/__/mesh/prov/src/nrf_mesh_prov.c.obj
 .debug_abbrev  0x000116ad      0x2a9 examples/light_switch/proxy_server/CMakeFiles/light_switch_proxy_server_nrf52832_xxAA_s132_6.0.0.dir/__/__/__/mesh/prov/src/provisioning.c.obj
 .debug_abbrev  0x00011956      0x2c8 examples/light_switch/proxy_server/CMakeFiles/light_switch_proxy_server_nrf52832_xxAA_s132_6.0.0.dir/__/__/__/mesh/prov/src/prov_beacon.c.obj
 .debug_abbrev  0x00011c1e      0x3ca examples/light_switch/proxy_server/CMakeFiles/light_switch_proxy_server_nrf52832_xxAA_s132_6.0.0.dir/__/__/__/mesh/prov/src/prov_utils.c.obj
 .debug_abbrev  0x00011fe8      0x4eb examples/light_switch/proxy_server/CMakeFiles/light_switch_proxy_server_nrf52832_xxAA_s132_6.0.0.dir/__/__/__/mesh/prov/src/prov_bearer_adv.c.obj
 .debug_abbrev  0x000124d3      0x200 examples/light_switch/proxy_server/CMakeFiles/light_switch_proxy_server_nrf52832_xxAA_s132_6.0.0.dir/C_/b/nRF5_SDK_15.0.0_a53641a/modules/nrfx/mdk/system_nrf52.c.obj
 .debug_abbrev  0x000126d3      0x232 examples/light_switch/proxy_server/CMakeFiles/light_switch_proxy_server_nrf52832_xxAA_s132_6.0.0.dir/C_/b/nRF5_SDK_15.0.0_a53641a/components/libraries/util/app_error.c.obj
 .debug_abbrev  0x00012905      0x1bd examples/light_switch/proxy_server/CMakeFiles/light_switch_proxy_server_nrf52832_xxAA_s132_6.0.0.dir/C_/b/nRF5_SDK_15.0.0_a53641a/components/libraries/util/app_error_handler_gcc.c.obj
 .debug_abbrev  0x00012ac2      0x3a9 external/rtt/librtt_nrf52832_xxAA.a(SEGGER_RTT.c.obj)
 .debug_abbrev  0x00012e6b      0x32e external/rtt/librtt_nrf52832_xxAA.a(SEGGER_RTT_printf.c.obj)
 .debug_abbrev  0x00013199      0x4b4 external/micro-ecc/libuECC_nrf52832_xxAA.a(uECC.c.obj)

.debug_loc      0x00000000    0x28305
 .debug_loc     0x00000000      0x3f8 examples/light_switch/proxy_server/CMakeFiles/light_switch_proxy_server_nrf52832_xxAA_s132_6.0.0.dir/src/main.c.obj
 .debug_loc     0x000003f8      0x192 examples/light_switch/proxy_server/CMakeFiles/light_switch_proxy_server_nrf52832_xxAA_s132_6.0.0.dir/__/__/__/mesh/stack/src/mesh_stack.c.obj
 .debug_loc     0x0000058a      0x27c examples/light_switch/proxy_server/CMakeFiles/light_switch_proxy_server_nrf52832_xxAA_s132_6.0.0.dir/__/__/common/src/mesh_provisionee.c.obj
 .debug_loc     0x00000806       0xa5 examples/light_switch/proxy_server/CMakeFiles/light_switch_proxy_server_nrf52832_xxAA_s132_6.0.0.dir/__/__/common/src/rtt_input.c.obj
 .debug_loc     0x000008ab      0x277 examples/light_switch/proxy_server/CMakeFiles/light_switch_proxy_server_nrf52832_xxAA_s132_6.0.0.dir/__/__/common/src/simple_hal.c.obj
 .debug_loc     0x00000b22       0x9a examples/light_switch/proxy_server/CMakeFiles/light_switch_proxy_server_nrf52832_xxAA_s132_6.0.0.dir/__/__/common/src/mesh_app_utils.c.obj
 .debug_loc     0x00000bbc      0x185 examples/light_switch/proxy_server/CMakeFiles/light_switch_proxy_server_nrf52832_xxAA_s132_6.0.0.dir/__/__/common/src/mesh_adv.c.obj
 .debug_loc     0x00000d41      0x72a examples/light_switch/proxy_server/CMakeFiles/light_switch_proxy_server_nrf52832_xxAA_s132_6.0.0.dir/__/__/__/mesh/prov/src/nrf_mesh_prov_bearer_gatt.c.obj
 .debug_loc     0x0000146b       0xc1 examples/light_switch/proxy_server/CMakeFiles/light_switch_proxy_server_nrf52832_xxAA_s132_6.0.0.dir/C_/b/nRF5_SDK_15.0.0_a53641a/components/libraries/util/app_util_platform.c.obj
 .debug_loc     0x0000152c      0xd8d examples/light_switch/proxy_server/CMakeFiles/light_switch_proxy_server_nrf52832_xxAA_s132_6.0.0.dir/C_/b/nRF5_SDK_15.0.0_a53641a/components/ble/common/ble_advdata.c.obj
 .debug_loc     0x000022b9      0x21e examples/light_switch/proxy_server/CMakeFiles/light_switch_proxy_server_nrf52832_xxAA_s132_6.0.0.dir/C_/b/nRF5_SDK_15.0.0_a53641a/components/softdevice/common/nrf_sdh.c.obj
 .debug_loc     0x000024d7       0x74 examples/light_switch/proxy_server/CMakeFiles/light_switch_proxy_server_nrf52832_xxAA_s132_6.0.0.dir/C_/b/nRF5_SDK_15.0.0_a53641a/components/softdevice/common/nrf_sdh_soc.c.obj
 .debug_loc     0x0000254b      0x1d5 examples/light_switch/proxy_server/CMakeFiles/light_switch_proxy_server_nrf52832_xxAA_s132_6.0.0.dir/C_/b/nRF5_SDK_15.0.0_a53641a/components/softdevice/common/nrf_sdh_ble.c.obj
 .debug_loc     0x00002720      0x18c examples/light_switch/proxy_server/CMakeFiles/light_switch_proxy_server_nrf52832_xxAA_s132_6.0.0.dir/__/__/common/src/app_error_weak.c.obj
 .debug_loc     0x000028ac       0x2c examples/light_switch/proxy_server/CMakeFiles/light_switch_proxy_server_nrf52832_xxAA_s132_6.0.0.dir/__/__/common/src/assertion_handler_weak.c.obj
 .debug_loc     0x000028d8       0x2c examples/light_switch/proxy_server/CMakeFiles/light_switch_proxy_server_nrf52832_xxAA_s132_6.0.0.dir/__/__/__/mesh/core/src/nrf_mesh_configure.c.obj
 .debug_loc     0x00002904       0x89 examples/light_switch/proxy_server/CMakeFiles/light_switch_proxy_server_nrf52832_xxAA_s132_6.0.0.dir/__/__/__/mesh/core/src/aes.c.obj
 .debug_loc     0x0000298d      0x10d examples/light_switch/proxy_server/CMakeFiles/light_switch_proxy_server_nrf52832_xxAA_s132_6.0.0.dir/__/__/__/mesh/core/src/msg_cache.c.obj
 .debug_loc     0x00002a9a     0x259a examples/light_switch/proxy_server/CMakeFiles/light_switch_proxy_server_nrf52832_xxAA_s132_6.0.0.dir/__/__/__/mesh/core/src/transport.c.obj
 .debug_loc     0x00005034       0xff examples/light_switch/proxy_server/CMakeFiles/light_switch_proxy_server_nrf52832_xxAA_s132_6.0.0.dir/__/__/__/mesh/core/src/event.c.obj
 .debug_loc     0x00005133      0x816 examples/light_switch/proxy_server/CMakeFiles/light_switch_proxy_server_nrf52832_xxAA_s132_6.0.0.dir/__/__/__/mesh/core/src/packet_buffer.c.obj
 .debug_loc     0x00005949      0x7fe examples/light_switch/proxy_server/CMakeFiles/light_switch_proxy_server_nrf52832_xxAA_s132_6.0.0.dir/__/__/__/mesh/core/src/flash_manager_defrag.c.obj
 .debug_loc     0x00006147      0x4f6 examples/light_switch/proxy_server/CMakeFiles/light_switch_proxy_server_nrf52832_xxAA_s132_6.0.0.dir/__/__/__/mesh/core/src/fifo.c.obj
 .debug_loc     0x0000663d      0x17a examples/light_switch/proxy_server/CMakeFiles/light_switch_proxy_server_nrf52832_xxAA_s132_6.0.0.dir/__/__/__/mesh/core/src/nrf_flash.c.obj
 .debug_loc     0x000067b7      0x6c1 examples/light_switch/proxy_server/CMakeFiles/light_switch_proxy_server_nrf52832_xxAA_s132_6.0.0.dir/__/__/__/mesh/core/src/packet_mgr.c.obj
 .debug_loc     0x00006e78      0x936 examples/light_switch/proxy_server/CMakeFiles/light_switch_proxy_server_nrf52832_xxAA_s132_6.0.0.dir/__/__/__/mesh/core/src/net_state.c.obj
 .debug_loc     0x000077ae      0x8be examples/light_switch/proxy_server/CMakeFiles/light_switch_proxy_server_nrf52832_xxAA_s132_6.0.0.dir/__/__/__/mesh/core/src/mesh_flash.c.obj
 .debug_loc     0x0000806c       0xf8 examples/light_switch/proxy_server/CMakeFiles/light_switch_proxy_server_nrf52832_xxAA_s132_6.0.0.dir/__/__/__/mesh/core/src/nrf_mesh_utils.c.obj
 .debug_loc     0x00008164      0x53a examples/light_switch/proxy_server/CMakeFiles/light_switch_proxy_server_nrf52832_xxAA_s132_6.0.0.dir/__/__/__/mesh/core/src/nrf_mesh.c.obj
 .debug_loc     0x0000869e       0xf5 examples/light_switch/proxy_server/CMakeFiles/light_switch_proxy_server_nrf52832_xxAA_s132_6.0.0.dir/__/__/__/mesh/core/src/queue.c.obj
 .debug_loc     0x00008793       0x84 examples/light_switch/proxy_server/CMakeFiles/light_switch_proxy_server_nrf52832_xxAA_s132_6.0.0.dir/__/__/__/mesh/core/src/hal.c.obj
 .debug_loc     0x00008817      0x3f8 examples/light_switch/proxy_server/CMakeFiles/light_switch_proxy_server_nrf52832_xxAA_s132_6.0.0.dir/__/__/__/mesh/core/src/aes_cmac.c.obj
 .debug_loc     0x00008c0f      0x2d1 examples/light_switch/proxy_server/CMakeFiles/light_switch_proxy_server_nrf52832_xxAA_s132_6.0.0.dir/__/__/__/mesh/core/src/timer_scheduler.c.obj
 .debug_loc     0x00008ee0      0x5f9 examples/light_switch/proxy_server/CMakeFiles/light_switch_proxy_server_nrf52832_xxAA_s132_6.0.0.dir/__/__/__/mesh/core/src/timer.c.obj
 .debug_loc     0x000094d9      0x14e examples/light_switch/proxy_server/CMakeFiles/light_switch_proxy_server_nrf52832_xxAA_s132_6.0.0.dir/__/__/__/mesh/core/src/rand.c.obj
 .debug_loc     0x00009627      0x194 examples/light_switch/proxy_server/CMakeFiles/light_switch_proxy_server_nrf52832_xxAA_s132_6.0.0.dir/__/__/__/mesh/core/src/nrf_mesh_opt.c.obj
 .debug_loc     0x000097bb      0x344 examples/light_switch/proxy_server/CMakeFiles/light_switch_proxy_server_nrf52832_xxAA_s132_6.0.0.dir/__/__/__/mesh/core/src/timeslot.c.obj
 .debug_loc     0x00009aff      0x526 examples/light_switch/proxy_server/CMakeFiles/light_switch_proxy_server_nrf52832_xxAA_s132_6.0.0.dir/__/__/__/mesh/core/src/bearer_event.c.obj
 .debug_loc     0x0000a025      0x8c1 examples/light_switch/proxy_server/CMakeFiles/light_switch_proxy_server_nrf52832_xxAA_s132_6.0.0.dir/__/__/__/mesh/core/src/enc.c.obj
 .debug_loc     0x0000a8e6      0x5da examples/light_switch/proxy_server/CMakeFiles/light_switch_proxy_server_nrf52832_xxAA_s132_6.0.0.dir/__/__/__/mesh/core/src/network.c.obj
 .debug_loc     0x0000aec0      0x817 examples/light_switch/proxy_server/CMakeFiles/light_switch_proxy_server_nrf52832_xxAA_s132_6.0.0.dir/__/__/__/mesh/core/src/net_packet.c.obj
 .debug_loc     0x0000b6d7      0x2ed examples/light_switch/proxy_server/CMakeFiles/light_switch_proxy_server_nrf52832_xxAA_s132_6.0.0.dir/__/__/__/mesh/core/src/msqueue.c.obj
 .debug_loc     0x0000b9c4      0x1ee examples/light_switch/proxy_server/CMakeFiles/light_switch_proxy_server_nrf52832_xxAA_s132_6.0.0.dir/__/__/__/mesh/core/src/nrf_mesh_keygen.c.obj
 .debug_loc     0x0000bbb2      0x29b examples/light_switch/proxy_server/CMakeFiles/light_switch_proxy_server_nrf52832_xxAA_s132_6.0.0.dir/__/__/__/mesh/core/src/cache.c.obj
 .debug_loc     0x0000be4d      0x3bf examples/light_switch/proxy_server/CMakeFiles/light_switch_proxy_server_nrf52832_xxAA_s132_6.0.0.dir/__/__/__/mesh/core/src/list.c.obj
 .debug_loc     0x0000c20c      0x348 examples/light_switch/proxy_server/CMakeFiles/light_switch_proxy_server_nrf52832_xxAA_s132_6.0.0.dir/__/__/__/mesh/core/src/log.c.obj
 .debug_loc     0x0000c554     0x1439 examples/light_switch/proxy_server/CMakeFiles/light_switch_proxy_server_nrf52832_xxAA_s132_6.0.0.dir/__/__/__/mesh/core/src/flash_manager.c.obj
 .debug_loc     0x0000d98d      0x371 examples/light_switch/proxy_server/CMakeFiles/light_switch_proxy_server_nrf52832_xxAA_s132_6.0.0.dir/__/__/__/mesh/core/src/ccm_soft.c.obj
 .debug_loc     0x0000dcfe      0x141 examples/light_switch/proxy_server/CMakeFiles/light_switch_proxy_server_nrf52832_xxAA_s132_6.0.0.dir/__/__/__/mesh/core/src/replay_cache.c.obj
 .debug_loc     0x0000de3f      0x30d examples/light_switch/proxy_server/CMakeFiles/light_switch_proxy_server_nrf52832_xxAA_s132_6.0.0.dir/__/__/__/mesh/core/src/beacon.c.obj
 .debug_loc     0x0000e14c       0xe3 examples/light_switch/proxy_server/CMakeFiles/light_switch_proxy_server_nrf52832_xxAA_s132_6.0.0.dir/__/__/__/mesh/core/src/flash_manager_internal.c.obj
 .debug_loc     0x0000e22f      0x3c5 examples/light_switch/proxy_server/CMakeFiles/light_switch_proxy_server_nrf52832_xxAA_s132_6.0.0.dir/__/__/__/mesh/core/src/core_tx.c.obj
 .debug_loc     0x0000e5f4      0x570 examples/light_switch/proxy_server/CMakeFiles/light_switch_proxy_server_nrf52832_xxAA_s132_6.0.0.dir/__/__/__/mesh/core/src/heartbeat.c.obj
 .debug_loc     0x0000eb64      0x5f5 examples/light_switch/proxy_server/CMakeFiles/light_switch_proxy_server_nrf52832_xxAA_s132_6.0.0.dir/__/__/__/mesh/core/src/net_beacon.c.obj
 .debug_loc     0x0000f159      0x3fd examples/light_switch/proxy_server/CMakeFiles/light_switch_proxy_server_nrf52832_xxAA_s132_6.0.0.dir/__/__/__/mesh/core/src/fsm.c.obj
 .debug_loc     0x0000f556      0x3ca examples/light_switch/proxy_server/CMakeFiles/light_switch_proxy_server_nrf52832_xxAA_s132_6.0.0.dir/__/__/__/mesh/core/src/core_tx_adv.c.obj
 .debug_loc     0x0000f920      0x42e examples/light_switch/proxy_server/CMakeFiles/light_switch_proxy_server_nrf52832_xxAA_s132_6.0.0.dir/__/__/__/mesh/bearer/src/ad_listener.c.obj
 .debug_loc     0x0000fd4e      0x3ae examples/light_switch/proxy_server/CMakeFiles/light_switch_proxy_server_nrf52832_xxAA_s132_6.0.0.dir/__/__/__/mesh/bearer/src/ad_type_filter.c.obj
 .debug_loc     0x000100fc      0xca9 examples/light_switch/proxy_server/CMakeFiles/light_switch_proxy_server_nrf52832_xxAA_s132_6.0.0.dir/__/__/__/mesh/bearer/src/advertiser.c.obj
 .debug_loc     0x00010da5      0x333 examples/light_switch/proxy_server/CMakeFiles/light_switch_proxy_server_nrf52832_xxAA_s132_6.0.0.dir/__/__/__/mesh/bearer/src/bearer_handler.c.obj
 .debug_loc     0x000110d8      0x306 examples/light_switch/proxy_server/CMakeFiles/light_switch_proxy_server_nrf52832_xxAA_s132_6.0.0.dir/__/__/__/mesh/bearer/src/broadcast.c.obj
 .debug_loc     0x000113de       0xde examples/light_switch/proxy_server/CMakeFiles/light_switch_proxy_server_nrf52832_xxAA_s132_6.0.0.dir/__/__/__/mesh/bearer/src/filter_engine.c.obj
 .debug_loc     0x000114bc      0x232 examples/light_switch/proxy_server/CMakeFiles/light_switch_proxy_server_nrf52832_xxAA_s132_6.0.0.dir/__/__/__/mesh/bearer/src/radio_config.c.obj
 .debug_loc     0x000116ee      0x442 examples/light_switch/proxy_server/CMakeFiles/light_switch_proxy_server_nrf52832_xxAA_s132_6.0.0.dir/__/__/__/mesh/bearer/src/scanner.c.obj
 .debug_loc     0x00011b30     0x11e7 examples/light_switch/proxy_server/CMakeFiles/light_switch_proxy_server_nrf52832_xxAA_s132_6.0.0.dir/__/__/__/mesh/gatt/src/mesh_gatt.c.obj
 .debug_loc     0x00012d17     0x1188 examples/light_switch/proxy_server/CMakeFiles/light_switch_proxy_server_nrf52832_xxAA_s132_6.0.0.dir/__/__/__/mesh/gatt/src/proxy.c.obj
 .debug_loc     0x00013e9f      0x27a examples/light_switch/proxy_server/CMakeFiles/light_switch_proxy_server_nrf52832_xxAA_s132_6.0.0.dir/__/__/__/mesh/gatt/src/proxy_filter.c.obj
 .debug_loc     0x00014119      0x35f examples/light_switch/proxy_server/CMakeFiles/light_switch_proxy_server_nrf52832_xxAA_s132_6.0.0.dir/__/__/__/models/simple_on_off/src/simple_on_off_server.c.obj
 .debug_loc     0x00014478      0x26f examples/light_switch/proxy_server/CMakeFiles/light_switch_proxy_server_nrf52832_xxAA_s132_6.0.0.dir/__/__/__/models/config/src/composition_data.c.obj
 .debug_loc     0x000146e7     0x4e0f examples/light_switch/proxy_server/CMakeFiles/light_switch_proxy_server_nrf52832_xxAA_s132_6.0.0.dir/__/__/__/models/config/src/config_server.c.obj
 .debug_loc     0x000194f6       0x89 examples/light_switch/proxy_server/CMakeFiles/light_switch_proxy_server_nrf52832_xxAA_s132_6.0.0.dir/__/__/__/models/config/src/packed_index_list.c.obj
 .debug_loc     0x0001957f     0x13e7 examples/light_switch/proxy_server/CMakeFiles/light_switch_proxy_server_nrf52832_xxAA_s132_6.0.0.dir/__/__/__/models/health/src/health_server.c.obj
 .debug_loc     0x0001a966      0x4d4 examples/light_switch/proxy_server/CMakeFiles/light_switch_proxy_server_nrf52832_xxAA_s132_6.0.0.dir/__/__/__/mesh/access/src/access_publish.c.obj
 .debug_loc     0x0001ae3a     0x2493 examples/light_switch/proxy_server/CMakeFiles/light_switch_proxy_server_nrf52832_xxAA_s132_6.0.0.dir/__/__/__/mesh/access/src/access.c.obj
 .debug_loc     0x0001d2cd      0x784 examples/light_switch/proxy_server/CMakeFiles/light_switch_proxy_server_nrf52832_xxAA_s132_6.0.0.dir/__/__/__/mesh/access/src/access_reliable.c.obj
 .debug_loc     0x0001da51     0x39f3 examples/light_switch/proxy_server/CMakeFiles/light_switch_proxy_server_nrf52832_xxAA_s132_6.0.0.dir/__/__/__/mesh/access/src/device_state_manager.c.obj
 .debug_loc     0x00021444      0x766 examples/light_switch/proxy_server/CMakeFiles/light_switch_proxy_server_nrf52832_xxAA_s132_6.0.0.dir/__/__/__/mesh/prov/src/prov_provisionee.c.obj
 .debug_loc     0x00021baa      0xa4b examples/light_switch/proxy_server/CMakeFiles/light_switch_proxy_server_nrf52832_xxAA_s132_6.0.0.dir/__/__/__/mesh/prov/src/nrf_mesh_prov.c.obj
 .debug_loc     0x000225f5      0x490 examples/light_switch/proxy_server/CMakeFiles/light_switch_proxy_server_nrf52832_xxAA_s132_6.0.0.dir/__/__/__/mesh/prov/src/provisioning.c.obj
 .debug_loc     0x00022a85      0x18c examples/light_switch/proxy_server/CMakeFiles/light_switch_proxy_server_nrf52832_xxAA_s132_6.0.0.dir/__/__/__/mesh/prov/src/prov_beacon.c.obj
 .debug_loc     0x00022c11      0x40b examples/light_switch/proxy_server/CMakeFiles/light_switch_proxy_server_nrf52832_xxAA_s132_6.0.0.dir/__/__/__/mesh/prov/src/prov_utils.c.obj
 .debug_loc     0x0002301c     0x1457 examples/light_switch/proxy_server/CMakeFiles/light_switch_proxy_server_nrf52832_xxAA_s132_6.0.0.dir/__/__/__/mesh/prov/src/prov_bearer_adv.c.obj
 .debug_loc     0x00024473       0xb5 examples/light_switch/proxy_server/CMakeFiles/light_switch_proxy_server_nrf52832_xxAA_s132_6.0.0.dir/C_/b/nRF5_SDK_15.0.0_a53641a/components/libraries/util/app_error.c.obj
 .debug_loc     0x00024528       0x63 examples/light_switch/proxy_server/CMakeFiles/light_switch_proxy_server_nrf52832_xxAA_s132_6.0.0.dir/C_/b/nRF5_SDK_15.0.0_a53641a/components/libraries/util/app_error_handler_gcc.c.obj
 .debug_loc     0x0002458b     0x1222 external/rtt/librtt_nrf52832_xxAA.a(SEGGER_RTT.c.obj)
 .debug_loc     0x000257ad      0x70f external/rtt/librtt_nrf52832_xxAA.a(SEGGER_RTT_printf.c.obj)
 .debug_loc     0x00025ebc     0x2449 external/micro-ecc/libuECC_nrf52832_xxAA.a(uECC.c.obj)

.debug_aranges  0x00000000     0x2868
 .debug_aranges
                0x00000000       0x80 examples/light_switch/proxy_server/CMakeFiles/light_switch_proxy_server_nrf52832_xxAA_s132_6.0.0.dir/src/main.c.obj
 .debug_aranges
                0x00000080       0x50 examples/light_switch/proxy_server/CMakeFiles/light_switch_proxy_server_nrf52832_xxAA_s132_6.0.0.dir/__/__/__/mesh/stack/src/mesh_stack.c.obj
 .debug_aranges
                0x000000d0       0x38 examples/light_switch/proxy_server/CMakeFiles/light_switch_proxy_server_nrf52832_xxAA_s132_6.0.0.dir/__/__/common/src/mesh_provisionee.c.obj
 .debug_aranges
                0x00000108       0x30 examples/light_switch/proxy_server/CMakeFiles/light_switch_proxy_server_nrf52832_xxAA_s132_6.0.0.dir/__/__/common/src/rtt_input.c.obj
 .debug_aranges
                0x00000138       0x50 examples/light_switch/proxy_server/CMakeFiles/light_switch_proxy_server_nrf52832_xxAA_s132_6.0.0.dir/__/__/common/src/simple_hal.c.obj
 .debug_aranges
                0x00000188       0x20 examples/light_switch/proxy_server/CMakeFiles/light_switch_proxy_server_nrf52832_xxAA_s132_6.0.0.dir/__/__/common/src/mesh_app_utils.c.obj
 .debug_aranges
                0x000001a8       0x50 examples/light_switch/proxy_server/CMakeFiles/light_switch_proxy_server_nrf52832_xxAA_s132_6.0.0.dir/__/__/common/src/mesh_adv.c.obj
 .debug_aranges
                0x000001f8       0xc8 examples/light_switch/proxy_server/CMakeFiles/light_switch_proxy_server_nrf52832_xxAA_s132_6.0.0.dir/__/__/__/mesh/prov/src/nrf_mesh_prov_bearer_gatt.c.obj
 .debug_aranges
                0x000002c0       0x48 examples/light_switch/proxy_server/CMakeFiles/light_switch_proxy_server_nrf52832_xxAA_s132_6.0.0.dir/C_/b/nRF5_SDK_15.0.0_a53641a/components/libraries/util/app_util_platform.c.obj
 .debug_aranges
                0x00000308       0x80 examples/light_switch/proxy_server/CMakeFiles/light_switch_proxy_server_nrf52832_xxAA_s132_6.0.0.dir/C_/b/nRF5_SDK_15.0.0_a53641a/components/ble/common/ble_advdata.c.obj
 .debug_aranges
                0x00000388       0x28 examples/light_switch/proxy_server/CMakeFiles/light_switch_proxy_server_nrf52832_xxAA_s132_6.0.0.dir/C_/b/nRF5_SDK_15.0.0_a53641a/components/libraries/experimental_section_vars/nrf_section_iter.c.obj
 .debug_aranges
                0x000003b0       0x90 examples/light_switch/proxy_server/CMakeFiles/light_switch_proxy_server_nrf52832_xxAA_s132_6.0.0.dir/C_/b/nRF5_SDK_15.0.0_a53641a/components/softdevice/common/nrf_sdh.c.obj
 .debug_aranges
                0x00000440       0x28 examples/light_switch/proxy_server/CMakeFiles/light_switch_proxy_server_nrf52832_xxAA_s132_6.0.0.dir/C_/b/nRF5_SDK_15.0.0_a53641a/components/softdevice/common/nrf_sdh_soc.c.obj
 .debug_aranges
                0x00000468       0x50 examples/light_switch/proxy_server/CMakeFiles/light_switch_proxy_server_nrf52832_xxAA_s132_6.0.0.dir/C_/b/nRF5_SDK_15.0.0_a53641a/components/softdevice/common/nrf_sdh_ble.c.obj
 .debug_aranges
                0x000004b8       0x28 examples/light_switch/proxy_server/CMakeFiles/light_switch_proxy_server_nrf52832_xxAA_s132_6.0.0.dir/__/__/nrf_mesh_weak.c.obj
 .debug_aranges
                0x000004e0       0x20 examples/light_switch/proxy_server/CMakeFiles/light_switch_proxy_server_nrf52832_xxAA_s132_6.0.0.dir/__/__/common/src/app_error_weak.c.obj
 .debug_aranges
                0x00000500       0x20 examples/light_switch/proxy_server/CMakeFiles/light_switch_proxy_server_nrf52832_xxAA_s132_6.0.0.dir/__/__/common/src/assertion_handler_weak.c.obj
 .debug_aranges
                0x00000520       0x30 examples/light_switch/proxy_server/CMakeFiles/light_switch_proxy_server_nrf52832_xxAA_s132_6.0.0.dir/__/__/__/mesh/core/src/nrf_mesh_configure.c.obj
 .debug_aranges
                0x00000550       0x28 examples/light_switch/proxy_server/CMakeFiles/light_switch_proxy_server_nrf52832_xxAA_s132_6.0.0.dir/__/__/__/mesh/core/src/aes.c.obj
 .debug_aranges
                0x00000578       0x38 examples/light_switch/proxy_server/CMakeFiles/light_switch_proxy_server_nrf52832_xxAA_s132_6.0.0.dir/__/__/__/mesh/core/src/msg_cache.c.obj
 .debug_aranges
                0x000005b0      0x110 examples/light_switch/proxy_server/CMakeFiles/light_switch_proxy_server_nrf52832_xxAA_s132_6.0.0.dir/__/__/__/mesh/core/src/transport.c.obj
 .debug_aranges
                0x000006c0       0x30 examples/light_switch/proxy_server/CMakeFiles/light_switch_proxy_server_nrf52832_xxAA_s132_6.0.0.dir/__/__/__/mesh/core/src/event.c.obj
 .debug_aranges
                0x000006f0       0x68 examples/light_switch/proxy_server/CMakeFiles/light_switch_proxy_server_nrf52832_xxAA_s132_6.0.0.dir/__/__/__/mesh/core/src/packet_buffer.c.obj
 .debug_aranges
                0x00000758       0xc8 examples/light_switch/proxy_server/CMakeFiles/light_switch_proxy_server_nrf52832_xxAA_s132_6.0.0.dir/__/__/__/mesh/core/src/flash_manager_defrag.c.obj
 .debug_aranges
                0x00000820       0x60 examples/light_switch/proxy_server/CMakeFiles/light_switch_proxy_server_nrf52832_xxAA_s132_6.0.0.dir/__/__/__/mesh/core/src/fifo.c.obj
 .debug_aranges
                0x00000880       0x30 examples/light_switch/proxy_server/CMakeFiles/light_switch_proxy_server_nrf52832_xxAA_s132_6.0.0.dir/__/__/__/mesh/core/src/nrf_flash.c.obj
 .debug_aranges
                0x000008b0       0x48 examples/light_switch/proxy_server/CMakeFiles/light_switch_proxy_server_nrf52832_xxAA_s132_6.0.0.dir/__/__/__/mesh/core/src/packet_mgr.c.obj
 .debug_aranges
                0x000008f8       0xd0 examples/light_switch/proxy_server/CMakeFiles/light_switch_proxy_server_nrf52832_xxAA_s132_6.0.0.dir/__/__/__/mesh/core/src/net_state.c.obj
 .debug_aranges
                0x000009c8       0x60 examples/light_switch/proxy_server/CMakeFiles/light_switch_proxy_server_nrf52832_xxAA_s132_6.0.0.dir/__/__/__/mesh/core/src/mesh_flash.c.obj
 .debug_aranges
                0x00000a28       0x30 examples/light_switch/proxy_server/CMakeFiles/light_switch_proxy_server_nrf52832_xxAA_s132_6.0.0.dir/__/__/__/mesh/core/src/nrf_mesh_utils.c.obj
 .debug_aranges
                0x00000a58       0x90 examples/light_switch/proxy_server/CMakeFiles/light_switch_proxy_server_nrf52832_xxAA_s132_6.0.0.dir/__/__/__/mesh/core/src/nrf_mesh.c.obj
 .debug_aranges
                0x00000ae8       0x38 examples/light_switch/proxy_server/CMakeFiles/light_switch_proxy_server_nrf52832_xxAA_s132_6.0.0.dir/__/__/__/mesh/core/src/queue.c.obj
 .debug_aranges
                0x00000b20       0x38 examples/light_switch/proxy_server/CMakeFiles/light_switch_proxy_server_nrf52832_xxAA_s132_6.0.0.dir/__/__/__/mesh/core/src/hal.c.obj
 .debug_aranges
                0x00000b58       0x38 examples/light_switch/proxy_server/CMakeFiles/light_switch_proxy_server_nrf52832_xxAA_s132_6.0.0.dir/__/__/__/mesh/core/src/aes_cmac.c.obj
 .debug_aranges
                0x00000b90       0x68 examples/light_switch/proxy_server/CMakeFiles/light_switch_proxy_server_nrf52832_xxAA_s132_6.0.0.dir/__/__/__/mesh/core/src/timer_scheduler.c.obj
 .debug_aranges
                0x00000bf8       0x60 examples/light_switch/proxy_server/CMakeFiles/light_switch_proxy_server_nrf52832_xxAA_s132_6.0.0.dir/__/__/__/mesh/core/src/timer.c.obj
 .debug_aranges
                0x00000c58       0x30 examples/light_switch/proxy_server/CMakeFiles/light_switch_proxy_server_nrf52832_xxAA_s132_6.0.0.dir/__/__/__/mesh/core/src/ticker.c.obj
 .debug_aranges
                0x00000c88       0x40 examples/light_switch/proxy_server/CMakeFiles/light_switch_proxy_server_nrf52832_xxAA_s132_6.0.0.dir/__/__/__/mesh/core/src/rand.c.obj
 .debug_aranges
                0x00000cc8       0x28 examples/light_switch/proxy_server/CMakeFiles/light_switch_proxy_server_nrf52832_xxAA_s132_6.0.0.dir/__/__/__/mesh/core/src/nrf_mesh_opt.c.obj
 .debug_aranges
                0x00000cf0       0xb8 examples/light_switch/proxy_server/CMakeFiles/light_switch_proxy_server_nrf52832_xxAA_s132_6.0.0.dir/__/__/__/mesh/core/src/timeslot.c.obj
 .debug_aranges
                0x00000da8       0x98 examples/light_switch/proxy_server/CMakeFiles/light_switch_proxy_server_nrf52832_xxAA_s132_6.0.0.dir/__/__/__/mesh/core/src/bearer_event.c.obj
 .debug_aranges
                0x00000e40       0x70 examples/light_switch/proxy_server/CMakeFiles/light_switch_proxy_server_nrf52832_xxAA_s132_6.0.0.dir/__/__/__/mesh/core/src/enc.c.obj
 .debug_aranges
                0x00000eb0       0x58 examples/light_switch/proxy_server/CMakeFiles/light_switch_proxy_server_nrf52832_xxAA_s132_6.0.0.dir/__/__/__/mesh/core/src/network.c.obj
 .debug_aranges
                0x00000f08       0x68 examples/light_switch/proxy_server/CMakeFiles/light_switch_proxy_server_nrf52832_xxAA_s132_6.0.0.dir/__/__/__/mesh/core/src/net_packet.c.obj
 .debug_aranges
                0x00000f70       0x48 examples/light_switch/proxy_server/CMakeFiles/light_switch_proxy_server_nrf52832_xxAA_s132_6.0.0.dir/__/__/__/mesh/core/src/msqueue.c.obj
 .debug_aranges
                0x00000fb8       0x40 examples/light_switch/proxy_server/CMakeFiles/light_switch_proxy_server_nrf52832_xxAA_s132_6.0.0.dir/__/__/__/mesh/core/src/nrf_mesh_keygen.c.obj
 .debug_aranges
                0x00000ff8       0x40 examples/light_switch/proxy_server/CMakeFiles/light_switch_proxy_server_nrf52832_xxAA_s132_6.0.0.dir/__/__/__/mesh/core/src/cache.c.obj
 .debug_aranges
                0x00001038       0x48 examples/light_switch/proxy_server/CMakeFiles/light_switch_proxy_server_nrf52832_xxAA_s132_6.0.0.dir/__/__/__/mesh/core/src/list.c.obj
 .debug_aranges
                0x00001080       0x48 examples/light_switch/proxy_server/CMakeFiles/light_switch_proxy_server_nrf52832_xxAA_s132_6.0.0.dir/__/__/__/mesh/core/src/log.c.obj
 .debug_aranges
                0x000010c8       0xf8 examples/light_switch/proxy_server/CMakeFiles/light_switch_proxy_server_nrf52832_xxAA_s132_6.0.0.dir/__/__/__/mesh/core/src/flash_manager.c.obj
 .debug_aranges
                0x000011c0       0x50 examples/light_switch/proxy_server/CMakeFiles/light_switch_proxy_server_nrf52832_xxAA_s132_6.0.0.dir/__/__/__/mesh/core/src/ccm_soft.c.obj
 .debug_aranges
                0x00001210       0x40 examples/light_switch/proxy_server/CMakeFiles/light_switch_proxy_server_nrf52832_xxAA_s132_6.0.0.dir/__/__/__/mesh/core/src/replay_cache.c.obj
 .debug_aranges
                0x00001250       0x28 examples/light_switch/proxy_server/CMakeFiles/light_switch_proxy_server_nrf52832_xxAA_s132_6.0.0.dir/__/__/__/mesh/core/src/beacon.c.obj
 .debug_aranges
                0x00001278       0x20 examples/light_switch/proxy_server/CMakeFiles/light_switch_proxy_server_nrf52832_xxAA_s132_6.0.0.dir/__/__/__/mesh/core/src/flash_manager_internal.c.obj
 .debug_aranges
                0x00001298       0x58 examples/light_switch/proxy_server/CMakeFiles/light_switch_proxy_server_nrf52832_xxAA_s132_6.0.0.dir/__/__/__/mesh/core/src/core_tx.c.obj
 .debug_aranges
                0x000012f0       0x70 examples/light_switch/proxy_server/CMakeFiles/light_switch_proxy_server_nrf52832_xxAA_s132_6.0.0.dir/__/__/__/mesh/core/src/heartbeat.c.obj
 .debug_aranges
                0x00001360       0x68 examples/light_switch/proxy_server/CMakeFiles/light_switch_proxy_server_nrf52832_xxAA_s132_6.0.0.dir/__/__/__/mesh/core/src/net_beacon.c.obj
 .debug_aranges
                0x000013c8       0x38 examples/light_switch/proxy_server/CMakeFiles/light_switch_proxy_server_nrf52832_xxAA_s132_6.0.0.dir/__/__/__/mesh/core/src/fsm.c.obj
 .debug_aranges
                0x00001400       0x68 examples/light_switch/proxy_server/CMakeFiles/light_switch_proxy_server_nrf52832_xxAA_s132_6.0.0.dir/__/__/__/mesh/core/src/core_tx_adv.c.obj
 .debug_aranges
                0x00001468       0x30 examples/light_switch/proxy_server/CMakeFiles/light_switch_proxy_server_nrf52832_xxAA_s132_6.0.0.dir/__/__/__/mesh/bearer/src/ad_listener.c.obj
 .debug_aranges
                0x00001498       0x58 examples/light_switch/proxy_server/CMakeFiles/light_switch_proxy_server_nrf52832_xxAA_s132_6.0.0.dir/__/__/__/mesh/bearer/src/ad_type_filter.c.obj
 .debug_aranges
                0x000014f0       0xb0 examples/light_switch/proxy_server/CMakeFiles/light_switch_proxy_server_nrf52832_xxAA_s132_6.0.0.dir/__/__/__/mesh/bearer/src/advertiser.c.obj
 .debug_aranges
                0x000015a0       0x70 examples/light_switch/proxy_server/CMakeFiles/light_switch_proxy_server_nrf52832_xxAA_s132_6.0.0.dir/__/__/__/mesh/bearer/src/bearer_handler.c.obj
 .debug_aranges
                0x00001610       0x30 examples/light_switch/proxy_server/CMakeFiles/light_switch_proxy_server_nrf52832_xxAA_s132_6.0.0.dir/__/__/__/mesh/bearer/src/broadcast.c.obj
 .debug_aranges
                0x00001640       0x38 examples/light_switch/proxy_server/CMakeFiles/light_switch_proxy_server_nrf52832_xxAA_s132_6.0.0.dir/__/__/__/mesh/bearer/src/filter_engine.c.obj
 .debug_aranges
                0x00001678       0x40 examples/light_switch/proxy_server/CMakeFiles/light_switch_proxy_server_nrf52832_xxAA_s132_6.0.0.dir/__/__/__/mesh/bearer/src/radio_config.c.obj
 .debug_aranges
                0x000016b8       0xe0 examples/light_switch/proxy_server/CMakeFiles/light_switch_proxy_server_nrf52832_xxAA_s132_6.0.0.dir/__/__/__/mesh/bearer/src/scanner.c.obj
 .debug_aranges
                0x00001798       0xb0 examples/light_switch/proxy_server/CMakeFiles/light_switch_proxy_server_nrf52832_xxAA_s132_6.0.0.dir/__/__/__/mesh/gatt/src/mesh_gatt.c.obj
 .debug_aranges
                0x00001848       0xd8 examples/light_switch/proxy_server/CMakeFiles/light_switch_proxy_server_nrf52832_xxAA_s132_6.0.0.dir/__/__/__/mesh/gatt/src/proxy.c.obj
 .debug_aranges
                0x00001920       0x40 examples/light_switch/proxy_server/CMakeFiles/light_switch_proxy_server_nrf52832_xxAA_s132_6.0.0.dir/__/__/__/mesh/gatt/src/proxy_filter.c.obj
 .debug_aranges
                0x00001960       0x40 examples/light_switch/proxy_server/CMakeFiles/light_switch_proxy_server_nrf52832_xxAA_s132_6.0.0.dir/__/__/__/models/simple_on_off/src/simple_on_off_server.c.obj
 .debug_aranges
                0x000019a0       0x20 examples/light_switch/proxy_server/CMakeFiles/light_switch_proxy_server_nrf52832_xxAA_s132_6.0.0.dir/__/__/__/models/config/src/composition_data.c.obj
 .debug_aranges
                0x000019c0      0x218 examples/light_switch/proxy_server/CMakeFiles/light_switch_proxy_server_nrf52832_xxAA_s132_6.0.0.dir/__/__/__/models/config/src/config_server.c.obj
 .debug_aranges
                0x00001bd8       0x20 examples/light_switch/proxy_server/CMakeFiles/light_switch_proxy_server_nrf52832_xxAA_s132_6.0.0.dir/__/__/__/models/config/src/packed_index_list.c.obj
 .debug_aranges
                0x00001bf8       0xc8 examples/light_switch/proxy_server/CMakeFiles/light_switch_proxy_server_nrf52832_xxAA_s132_6.0.0.dir/__/__/__/models/health/src/health_server.c.obj
 .debug_aranges
                0x00001cc0       0x50 examples/light_switch/proxy_server/CMakeFiles/light_switch_proxy_server_nrf52832_xxAA_s132_6.0.0.dir/__/__/__/mesh/access/src/access_publish.c.obj
 .debug_aranges
                0x00001d10      0x1d0 examples/light_switch/proxy_server/CMakeFiles/light_switch_proxy_server_nrf52832_xxAA_s132_6.0.0.dir/__/__/__/mesh/access/src/access.c.obj
 .debug_aranges
                0x00001ee0       0x50 examples/light_switch/proxy_server/CMakeFiles/light_switch_proxy_server_nrf52832_xxAA_s132_6.0.0.dir/__/__/__/mesh/access/src/access_reliable.c.obj
 .debug_aranges
                0x00001f30      0x318 examples/light_switch/proxy_server/CMakeFiles/light_switch_proxy_server_nrf52832_xxAA_s132_6.0.0.dir/__/__/__/mesh/access/src/device_state_manager.c.obj
 .debug_aranges
                0x00002248       0x70 examples/light_switch/proxy_server/CMakeFiles/light_switch_proxy_server_nrf52832_xxAA_s132_6.0.0.dir/__/__/__/mesh/prov/src/prov_provisionee.c.obj
 .debug_aranges
                0x000022b8       0x88 examples/light_switch/proxy_server/CMakeFiles/light_switch_proxy_server_nrf52832_xxAA_s132_6.0.0.dir/__/__/__/mesh/prov/src/nrf_mesh_prov.c.obj
 .debug_aranges
                0x00002340       0x80 examples/light_switch/proxy_server/CMakeFiles/light_switch_proxy_server_nrf52832_xxAA_s132_6.0.0.dir/__/__/__/mesh/prov/src/provisioning.c.obj
 .debug_aranges
                0x000023c0       0x38 examples/light_switch/proxy_server/CMakeFiles/light_switch_proxy_server_nrf52832_xxAA_s132_6.0.0.dir/__/__/__/mesh/prov/src/prov_beacon.c.obj
 .debug_aranges
                0x000023f8       0x70 examples/light_switch/proxy_server/CMakeFiles/light_switch_proxy_server_nrf52832_xxAA_s132_6.0.0.dir/__/__/__/mesh/prov/src/prov_utils.c.obj
 .debug_aranges
                0x00002468       0xc8 examples/light_switch/proxy_server/CMakeFiles/light_switch_proxy_server_nrf52832_xxAA_s132_6.0.0.dir/__/__/__/mesh/prov/src/prov_bearer_adv.c.obj
 .debug_aranges
                0x00002530       0x38 examples/light_switch/proxy_server/CMakeFiles/light_switch_proxy_server_nrf52832_xxAA_s132_6.0.0.dir/C_/b/nRF5_SDK_15.0.0_a53641a/modules/nrfx/mdk/system_nrf52.c.obj
 .debug_aranges
                0x00002568       0x28 examples/light_switch/proxy_server/CMakeFiles/light_switch_proxy_server_nrf52832_xxAA_s132_6.0.0.dir/C_/b/nRF5_SDK_15.0.0_a53641a/components/libraries/util/app_error.c.obj
 .debug_aranges
                0x00002590       0x20 examples/light_switch/proxy_server/CMakeFiles/light_switch_proxy_server_nrf52832_xxAA_s132_6.0.0.dir/C_/b/nRF5_SDK_15.0.0_a53641a/components/libraries/util/app_error_handler_gcc.c.obj
 .debug_aranges
                0x000025b0       0xd8 external/rtt/librtt_nrf52832_xxAA.a(SEGGER_RTT.c.obj)
 .debug_aranges
                0x00002688       0x38 external/rtt/librtt_nrf52832_xxAA.a(SEGGER_RTT_printf.c.obj)
 .debug_aranges
                0x000026c0      0x1a8 external/micro-ecc/libuECC_nrf52832_xxAA.a(uECC.c.obj)

.debug_ranges   0x00000000     0x6560
 .debug_ranges  0x00000000      0x268 examples/light_switch/proxy_server/CMakeFiles/light_switch_proxy_server_nrf52832_xxAA_s132_6.0.0.dir/src/main.c.obj
 .debug_ranges  0x00000268       0x70 examples/light_switch/proxy_server/CMakeFiles/light_switch_proxy_server_nrf52832_xxAA_s132_6.0.0.dir/__/__/__/mesh/stack/src/mesh_stack.c.obj
 .debug_ranges  0x000002d8       0x40 examples/light_switch/proxy_server/CMakeFiles/light_switch_proxy_server_nrf52832_xxAA_s132_6.0.0.dir/__/__/common/src/mesh_provisionee.c.obj
 .debug_ranges  0x00000318       0x20 examples/light_switch/proxy_server/CMakeFiles/light_switch_proxy_server_nrf52832_xxAA_s132_6.0.0.dir/__/__/common/src/rtt_input.c.obj
 .debug_ranges  0x00000338       0xe0 examples/light_switch/proxy_server/CMakeFiles/light_switch_proxy_server_nrf52832_xxAA_s132_6.0.0.dir/__/__/common/src/simple_hal.c.obj
 .debug_ranges  0x00000418       0x10 examples/light_switch/proxy_server/CMakeFiles/light_switch_proxy_server_nrf52832_xxAA_s132_6.0.0.dir/__/__/common/src/mesh_app_utils.c.obj
 .debug_ranges  0x00000428       0x88 examples/light_switch/proxy_server/CMakeFiles/light_switch_proxy_server_nrf52832_xxAA_s132_6.0.0.dir/__/__/common/src/mesh_adv.c.obj
 .debug_ranges  0x000004b0       0xd0 examples/light_switch/proxy_server/CMakeFiles/light_switch_proxy_server_nrf52832_xxAA_s132_6.0.0.dir/__/__/__/mesh/prov/src/nrf_mesh_prov_bearer_gatt.c.obj
 .debug_ranges  0x00000580       0x38 examples/light_switch/proxy_server/CMakeFiles/light_switch_proxy_server_nrf52832_xxAA_s132_6.0.0.dir/C_/b/nRF5_SDK_15.0.0_a53641a/components/libraries/util/app_util_platform.c.obj
 .debug_ranges  0x000005b8      0x1b8 examples/light_switch/proxy_server/CMakeFiles/light_switch_proxy_server_nrf52832_xxAA_s132_6.0.0.dir/C_/b/nRF5_SDK_15.0.0_a53641a/components/ble/common/ble_advdata.c.obj
 .debug_ranges  0x00000770       0x18 examples/light_switch/proxy_server/CMakeFiles/light_switch_proxy_server_nrf52832_xxAA_s132_6.0.0.dir/C_/b/nRF5_SDK_15.0.0_a53641a/components/libraries/experimental_section_vars/nrf_section_iter.c.obj
 .debug_ranges  0x00000788       0xb0 examples/light_switch/proxy_server/CMakeFiles/light_switch_proxy_server_nrf52832_xxAA_s132_6.0.0.dir/C_/b/nRF5_SDK_15.0.0_a53641a/components/softdevice/common/nrf_sdh.c.obj
 .debug_ranges  0x00000838       0x18 examples/light_switch/proxy_server/CMakeFiles/light_switch_proxy_server_nrf52832_xxAA_s132_6.0.0.dir/C_/b/nRF5_SDK_15.0.0_a53641a/components/softdevice/common/nrf_sdh_soc.c.obj
 .debug_ranges  0x00000850       0x58 examples/light_switch/proxy_server/CMakeFiles/light_switch_proxy_server_nrf52832_xxAA_s132_6.0.0.dir/C_/b/nRF5_SDK_15.0.0_a53641a/components/softdevice/common/nrf_sdh_ble.c.obj
 .debug_ranges  0x000008a8       0x18 examples/light_switch/proxy_server/CMakeFiles/light_switch_proxy_server_nrf52832_xxAA_s132_6.0.0.dir/__/__/nrf_mesh_weak.c.obj
 .debug_ranges  0x000008c0       0xb8 examples/light_switch/proxy_server/CMakeFiles/light_switch_proxy_server_nrf52832_xxAA_s132_6.0.0.dir/__/__/common/src/app_error_weak.c.obj
 .debug_ranges  0x00000978       0x10 examples/light_switch/proxy_server/CMakeFiles/light_switch_proxy_server_nrf52832_xxAA_s132_6.0.0.dir/__/__/common/src/assertion_handler_weak.c.obj
 .debug_ranges  0x00000988       0x20 examples/light_switch/proxy_server/CMakeFiles/light_switch_proxy_server_nrf52832_xxAA_s132_6.0.0.dir/__/__/__/mesh/core/src/nrf_mesh_configure.c.obj
 .debug_ranges  0x000009a8       0x18 examples/light_switch/proxy_server/CMakeFiles/light_switch_proxy_server_nrf52832_xxAA_s132_6.0.0.dir/__/__/__/mesh/core/src/aes.c.obj
 .debug_ranges  0x000009c0       0x48 examples/light_switch/proxy_server/CMakeFiles/light_switch_proxy_server_nrf52832_xxAA_s132_6.0.0.dir/__/__/__/mesh/core/src/msg_cache.c.obj
 .debug_ranges  0x00000a08      0x5d0 examples/light_switch/proxy_server/CMakeFiles/light_switch_proxy_server_nrf52832_xxAA_s132_6.0.0.dir/__/__/__/mesh/core/src/transport.c.obj
 .debug_ranges  0x00000fd8       0x20 examples/light_switch/proxy_server/CMakeFiles/light_switch_proxy_server_nrf52832_xxAA_s132_6.0.0.dir/__/__/__/mesh/core/src/event.c.obj
 .debug_ranges  0x00000ff8      0x128 examples/light_switch/proxy_server/CMakeFiles/light_switch_proxy_server_nrf52832_xxAA_s132_6.0.0.dir/__/__/__/mesh/core/src/packet_buffer.c.obj
 .debug_ranges  0x00001120      0x230 examples/light_switch/proxy_server/CMakeFiles/light_switch_proxy_server_nrf52832_xxAA_s132_6.0.0.dir/__/__/__/mesh/core/src/flash_manager_defrag.c.obj
 .debug_ranges  0x00001350       0x68 examples/light_switch/proxy_server/CMakeFiles/light_switch_proxy_server_nrf52832_xxAA_s132_6.0.0.dir/__/__/__/mesh/core/src/fifo.c.obj
 .debug_ranges  0x000013b8       0x38 examples/light_switch/proxy_server/CMakeFiles/light_switch_proxy_server_nrf52832_xxAA_s132_6.0.0.dir/__/__/__/mesh/core/src/nrf_flash.c.obj
 .debug_ranges  0x000013f0       0xe0 examples/light_switch/proxy_server/CMakeFiles/light_switch_proxy_server_nrf52832_xxAA_s132_6.0.0.dir/__/__/__/mesh/core/src/packet_mgr.c.obj
 .debug_ranges  0x000014d0      0x1f8 examples/light_switch/proxy_server/CMakeFiles/light_switch_proxy_server_nrf52832_xxAA_s132_6.0.0.dir/__/__/__/mesh/core/src/net_state.c.obj
 .debug_ranges  0x000016c8      0x1c8 examples/light_switch/proxy_server/CMakeFiles/light_switch_proxy_server_nrf52832_xxAA_s132_6.0.0.dir/__/__/__/mesh/core/src/mesh_flash.c.obj
 .debug_ranges  0x00001890       0x20 examples/light_switch/proxy_server/CMakeFiles/light_switch_proxy_server_nrf52832_xxAA_s132_6.0.0.dir/__/__/__/mesh/core/src/nrf_mesh_utils.c.obj
 .debug_ranges  0x000018b0       0xe0 examples/light_switch/proxy_server/CMakeFiles/light_switch_proxy_server_nrf52832_xxAA_s132_6.0.0.dir/__/__/__/mesh/core/src/nrf_mesh.c.obj
 .debug_ranges  0x00001990       0x28 examples/light_switch/proxy_server/CMakeFiles/light_switch_proxy_server_nrf52832_xxAA_s132_6.0.0.dir/__/__/__/mesh/core/src/queue.c.obj
 .debug_ranges  0x000019b8       0x28 examples/light_switch/proxy_server/CMakeFiles/light_switch_proxy_server_nrf52832_xxAA_s132_6.0.0.dir/__/__/__/mesh/core/src/hal.c.obj
 .debug_ranges  0x000019e0       0x98 examples/light_switch/proxy_server/CMakeFiles/light_switch_proxy_server_nrf52832_xxAA_s132_6.0.0.dir/__/__/__/mesh/core/src/aes_cmac.c.obj
 .debug_ranges  0x00001a78       0xf0 examples/light_switch/proxy_server/CMakeFiles/light_switch_proxy_server_nrf52832_xxAA_s132_6.0.0.dir/__/__/__/mesh/core/src/timer_scheduler.c.obj
 .debug_ranges  0x00001b68       0xd8 examples/light_switch/proxy_server/CMakeFiles/light_switch_proxy_server_nrf52832_xxAA_s132_6.0.0.dir/__/__/__/mesh/core/src/timer.c.obj
 .debug_ranges  0x00001c40       0x20 examples/light_switch/proxy_server/CMakeFiles/light_switch_proxy_server_nrf52832_xxAA_s132_6.0.0.dir/__/__/__/mesh/core/src/ticker.c.obj
 .debug_ranges  0x00001c60       0x30 examples/light_switch/proxy_server/CMakeFiles/light_switch_proxy_server_nrf52832_xxAA_s132_6.0.0.dir/__/__/__/mesh/core/src/rand.c.obj
 .debug_ranges  0x00001c90       0x18 examples/light_switch/proxy_server/CMakeFiles/light_switch_proxy_server_nrf52832_xxAA_s132_6.0.0.dir/__/__/__/mesh/core/src/nrf_mesh_opt.c.obj
 .debug_ranges  0x00001ca8      0x168 examples/light_switch/proxy_server/CMakeFiles/light_switch_proxy_server_nrf52832_xxAA_s132_6.0.0.dir/__/__/__/mesh/core/src/timeslot.c.obj
 .debug_ranges  0x00001e10       0xf8 examples/light_switch/proxy_server/CMakeFiles/light_switch_proxy_server_nrf52832_xxAA_s132_6.0.0.dir/__/__/__/mesh/core/src/bearer_event.c.obj
 .debug_ranges  0x00001f08       0xb0 examples/light_switch/proxy_server/CMakeFiles/light_switch_proxy_server_nrf52832_xxAA_s132_6.0.0.dir/__/__/__/mesh/core/src/enc.c.obj
 .debug_ranges  0x00001fb8       0xd0 examples/light_switch/proxy_server/CMakeFiles/light_switch_proxy_server_nrf52832_xxAA_s132_6.0.0.dir/__/__/__/mesh/core/src/network.c.obj
 .debug_ranges  0x00002088      0x160 examples/light_switch/proxy_server/CMakeFiles/light_switch_proxy_server_nrf52832_xxAA_s132_6.0.0.dir/__/__/__/mesh/core/src/net_packet.c.obj
 .debug_ranges  0x000021e8       0x50 examples/light_switch/proxy_server/CMakeFiles/light_switch_proxy_server_nrf52832_xxAA_s132_6.0.0.dir/__/__/__/mesh/core/src/msqueue.c.obj
 .debug_ranges  0x00002238       0x30 examples/light_switch/proxy_server/CMakeFiles/light_switch_proxy_server_nrf52832_xxAA_s132_6.0.0.dir/__/__/__/mesh/core/src/nrf_mesh_keygen.c.obj
 .debug_ranges  0x00002268       0x80 examples/light_switch/proxy_server/CMakeFiles/light_switch_proxy_server_nrf52832_xxAA_s132_6.0.0.dir/__/__/__/mesh/core/src/cache.c.obj
 .debug_ranges  0x000022e8       0x78 examples/light_switch/proxy_server/CMakeFiles/light_switch_proxy_server_nrf52832_xxAA_s132_6.0.0.dir/__/__/__/mesh/core/src/list.c.obj
 .debug_ranges  0x00002360       0x38 examples/light_switch/proxy_server/CMakeFiles/light_switch_proxy_server_nrf52832_xxAA_s132_6.0.0.dir/__/__/__/mesh/core/src/log.c.obj
 .debug_ranges  0x00002398      0x388 examples/light_switch/proxy_server/CMakeFiles/light_switch_proxy_server_nrf52832_xxAA_s132_6.0.0.dir/__/__/__/mesh/core/src/flash_manager.c.obj
 .debug_ranges  0x00002720       0x40 examples/light_switch/proxy_server/CMakeFiles/light_switch_proxy_server_nrf52832_xxAA_s132_6.0.0.dir/__/__/__/mesh/core/src/ccm_soft.c.obj
 .debug_ranges  0x00002760       0x30 examples/light_switch/proxy_server/CMakeFiles/light_switch_proxy_server_nrf52832_xxAA_s132_6.0.0.dir/__/__/__/mesh/core/src/replay_cache.c.obj
 .debug_ranges  0x00002790       0x90 examples/light_switch/proxy_server/CMakeFiles/light_switch_proxy_server_nrf52832_xxAA_s132_6.0.0.dir/__/__/__/mesh/core/src/beacon.c.obj
 .debug_ranges  0x00002820       0x10 examples/light_switch/proxy_server/CMakeFiles/light_switch_proxy_server_nrf52832_xxAA_s132_6.0.0.dir/__/__/__/mesh/core/src/flash_manager_internal.c.obj
 .debug_ranges  0x00002830       0xf8 examples/light_switch/proxy_server/CMakeFiles/light_switch_proxy_server_nrf52832_xxAA_s132_6.0.0.dir/__/__/__/mesh/core/src/core_tx.c.obj
 .debug_ranges  0x00002928       0xa8 examples/light_switch/proxy_server/CMakeFiles/light_switch_proxy_server_nrf52832_xxAA_s132_6.0.0.dir/__/__/__/mesh/core/src/heartbeat.c.obj
 .debug_ranges  0x000029d0      0x170 examples/light_switch/proxy_server/CMakeFiles/light_switch_proxy_server_nrf52832_xxAA_s132_6.0.0.dir/__/__/__/mesh/core/src/net_beacon.c.obj
 .debug_ranges  0x00002b40       0xe0 examples/light_switch/proxy_server/CMakeFiles/light_switch_proxy_server_nrf52832_xxAA_s132_6.0.0.dir/__/__/__/mesh/core/src/fsm.c.obj
 .debug_ranges  0x00002c20       0x58 examples/light_switch/proxy_server/CMakeFiles/light_switch_proxy_server_nrf52832_xxAA_s132_6.0.0.dir/__/__/__/mesh/core/src/core_tx_adv.c.obj
 .debug_ranges  0x00002c78       0xf8 examples/light_switch/proxy_server/CMakeFiles/light_switch_proxy_server_nrf52832_xxAA_s132_6.0.0.dir/__/__/__/mesh/bearer/src/ad_listener.c.obj
 .debug_ranges  0x00002d70       0xd0 examples/light_switch/proxy_server/CMakeFiles/light_switch_proxy_server_nrf52832_xxAA_s132_6.0.0.dir/__/__/__/mesh/bearer/src/ad_type_filter.c.obj
 .debug_ranges  0x00002e40      0x240 examples/light_switch/proxy_server/CMakeFiles/light_switch_proxy_server_nrf52832_xxAA_s132_6.0.0.dir/__/__/__/mesh/bearer/src/advertiser.c.obj
 .debug_ranges  0x00003080       0xb0 examples/light_switch/proxy_server/CMakeFiles/light_switch_proxy_server_nrf52832_xxAA_s132_6.0.0.dir/__/__/__/mesh/bearer/src/bearer_handler.c.obj
 .debug_ranges  0x00003130       0xa8 examples/light_switch/proxy_server/CMakeFiles/light_switch_proxy_server_nrf52832_xxAA_s132_6.0.0.dir/__/__/__/mesh/bearer/src/broadcast.c.obj
 .debug_ranges  0x000031d8       0x48 examples/light_switch/proxy_server/CMakeFiles/light_switch_proxy_server_nrf52832_xxAA_s132_6.0.0.dir/__/__/__/mesh/bearer/src/filter_engine.c.obj
 .debug_ranges  0x00003220       0x48 examples/light_switch/proxy_server/CMakeFiles/light_switch_proxy_server_nrf52832_xxAA_s132_6.0.0.dir/__/__/__/mesh/bearer/src/radio_config.c.obj
 .debug_ranges  0x00003268      0x198 examples/light_switch/proxy_server/CMakeFiles/light_switch_proxy_server_nrf52832_xxAA_s132_6.0.0.dir/__/__/__/mesh/bearer/src/scanner.c.obj
 .debug_ranges  0x00003400      0x188 examples/light_switch/proxy_server/CMakeFiles/light_switch_proxy_server_nrf52832_xxAA_s132_6.0.0.dir/__/__/__/mesh/gatt/src/mesh_gatt.c.obj
 .debug_ranges  0x00003588      0x4a8 examples/light_switch/proxy_server/CMakeFiles/light_switch_proxy_server_nrf52832_xxAA_s132_6.0.0.dir/__/__/__/mesh/gatt/src/proxy.c.obj
 .debug_ranges  0x00003a30       0x90 examples/light_switch/proxy_server/CMakeFiles/light_switch_proxy_server_nrf52832_xxAA_s132_6.0.0.dir/__/__/__/mesh/gatt/src/proxy_filter.c.obj
 .debug_ranges  0x00003ac0       0x48 examples/light_switch/proxy_server/CMakeFiles/light_switch_proxy_server_nrf52832_xxAA_s132_6.0.0.dir/__/__/__/models/simple_on_off/src/simple_on_off_server.c.obj
 .debug_ranges  0x00003b08       0xa8 examples/light_switch/proxy_server/CMakeFiles/light_switch_proxy_server_nrf52832_xxAA_s132_6.0.0.dir/__/__/__/models/config/src/composition_data.c.obj
 .debug_ranges  0x00003bb0      0x7c0 examples/light_switch/proxy_server/CMakeFiles/light_switch_proxy_server_nrf52832_xxAA_s132_6.0.0.dir/__/__/__/models/config/src/config_server.c.obj
 .debug_ranges  0x00004370       0x10 examples/light_switch/proxy_server/CMakeFiles/light_switch_proxy_server_nrf52832_xxAA_s132_6.0.0.dir/__/__/__/models/config/src/packed_index_list.c.obj
 .debug_ranges  0x00004380      0x260 examples/light_switch/proxy_server/CMakeFiles/light_switch_proxy_server_nrf52832_xxAA_s132_6.0.0.dir/__/__/__/models/health/src/health_server.c.obj
 .debug_ranges  0x000045e0      0x118 examples/light_switch/proxy_server/CMakeFiles/light_switch_proxy_server_nrf52832_xxAA_s132_6.0.0.dir/__/__/__/mesh/access/src/access_publish.c.obj
 .debug_ranges  0x000046f8      0x7f0 examples/light_switch/proxy_server/CMakeFiles/light_switch_proxy_server_nrf52832_xxAA_s132_6.0.0.dir/__/__/__/mesh/access/src/access.c.obj
 .debug_ranges  0x00004ee8      0x160 examples/light_switch/proxy_server/CMakeFiles/light_switch_proxy_server_nrf52832_xxAA_s132_6.0.0.dir/__/__/__/mesh/access/src/access_reliable.c.obj
 .debug_ranges  0x00005048      0x808 examples/light_switch/proxy_server/CMakeFiles/light_switch_proxy_server_nrf52832_xxAA_s132_6.0.0.dir/__/__/__/mesh/access/src/device_state_manager.c.obj
 .debug_ranges  0x00005850      0x148 examples/light_switch/proxy_server/CMakeFiles/light_switch_proxy_server_nrf52832_xxAA_s132_6.0.0.dir/__/__/__/mesh/prov/src/prov_provisionee.c.obj
 .debug_ranges  0x00005998      0x130 examples/light_switch/proxy_server/CMakeFiles/light_switch_proxy_server_nrf52832_xxAA_s132_6.0.0.dir/__/__/__/mesh/prov/src/nrf_mesh_prov.c.obj
 .debug_ranges  0x00005ac8       0x70 examples/light_switch/proxy_server/CMakeFiles/light_switch_proxy_server_nrf52832_xxAA_s132_6.0.0.dir/__/__/__/mesh/prov/src/provisioning.c.obj
 .debug_ranges  0x00005b38       0x40 examples/light_switch/proxy_server/CMakeFiles/light_switch_proxy_server_nrf52832_xxAA_s132_6.0.0.dir/__/__/__/mesh/prov/src/prov_beacon.c.obj
 .debug_ranges  0x00005b78       0xa0 examples/light_switch/proxy_server/CMakeFiles/light_switch_proxy_server_nrf52832_xxAA_s132_6.0.0.dir/__/__/__/mesh/prov/src/prov_utils.c.obj
 .debug_ranges  0x00005c18      0x498 examples/light_switch/proxy_server/CMakeFiles/light_switch_proxy_server_nrf52832_xxAA_s132_6.0.0.dir/__/__/__/mesh/prov/src/prov_bearer_adv.c.obj
 .debug_ranges  0x000060b0       0x28 examples/light_switch/proxy_server/CMakeFiles/light_switch_proxy_server_nrf52832_xxAA_s132_6.0.0.dir/C_/b/nRF5_SDK_15.0.0_a53641a/modules/nrfx/mdk/system_nrf52.c.obj
 .debug_ranges  0x000060d8       0x18 examples/light_switch/proxy_server/CMakeFiles/light_switch_proxy_server_nrf52832_xxAA_s132_6.0.0.dir/C_/b/nRF5_SDK_15.0.0_a53641a/components/libraries/util/app_error.c.obj
 .debug_ranges  0x000060f0       0x10 examples/light_switch/proxy_server/CMakeFiles/light_switch_proxy_server_nrf52832_xxAA_s132_6.0.0.dir/C_/b/nRF5_SDK_15.0.0_a53641a/components/libraries/util/app_error_handler_gcc.c.obj
 .debug_ranges  0x00006100      0x130 external/rtt/librtt_nrf52832_xxAA.a(SEGGER_RTT.c.obj)
 .debug_ranges  0x00006230       0x48 external/rtt/librtt_nrf52832_xxAA.a(SEGGER_RTT_printf.c.obj)
 .debug_ranges  0x00006278      0x2e8 external/micro-ecc/libuECC_nrf52832_xxAA.a(uECC.c.obj)

.debug_line     0x00000000    0x1aec0
 .debug_line    0x00000000      0x922 examples/light_switch/proxy_server/CMakeFiles/light_switch_proxy_server_nrf52832_xxAA_s132_6.0.0.dir/src/main.c.obj
 .debug_line    0x00000922      0x4bb examples/light_switch/proxy_server/CMakeFiles/light_switch_proxy_server_nrf52832_xxAA_s132_6.0.0.dir/__/__/__/mesh/stack/src/mesh_stack.c.obj
 .debug_line    0x00000ddd      0x5eb examples/light_switch/proxy_server/CMakeFiles/light_switch_proxy_server_nrf52832_xxAA_s132_6.0.0.dir/__/__/common/src/mesh_provisionee.c.obj
 .debug_line    0x000013c8      0x29a examples/light_switch/proxy_server/CMakeFiles/light_switch_proxy_server_nrf52832_xxAA_s132_6.0.0.dir/__/__/common/src/rtt_input.c.obj
 .debug_line    0x00001662      0x46c examples/light_switch/proxy_server/CMakeFiles/light_switch_proxy_server_nrf52832_xxAA_s132_6.0.0.dir/__/__/common/src/simple_hal.c.obj
 .debug_line    0x00001ace      0x20a examples/light_switch/proxy_server/CMakeFiles/light_switch_proxy_server_nrf52832_xxAA_s132_6.0.0.dir/__/__/common/src/mesh_app_utils.c.obj
 .debug_line    0x00001cd8      0x3b4 examples/light_switch/proxy_server/CMakeFiles/light_switch_proxy_server_nrf52832_xxAA_s132_6.0.0.dir/__/__/common/src/mesh_adv.c.obj
 .debug_line    0x0000208c      0x534 examples/light_switch/proxy_server/CMakeFiles/light_switch_proxy_server_nrf52832_xxAA_s132_6.0.0.dir/__/__/__/mesh/prov/src/nrf_mesh_prov_bearer_gatt.c.obj
 .debug_line    0x000025c0      0x334 examples/light_switch/proxy_server/CMakeFiles/light_switch_proxy_server_nrf52832_xxAA_s132_6.0.0.dir/C_/b/nRF5_SDK_15.0.0_a53641a/components/libraries/util/app_util_platform.c.obj
 .debug_line    0x000028f4      0x5f7 examples/light_switch/proxy_server/CMakeFiles/light_switch_proxy_server_nrf52832_xxAA_s132_6.0.0.dir/C_/b/nRF5_SDK_15.0.0_a53641a/components/ble/common/ble_advdata.c.obj
 .debug_line    0x00002eeb      0x26a examples/light_switch/proxy_server/CMakeFiles/light_switch_proxy_server_nrf52832_xxAA_s132_6.0.0.dir/C_/b/nRF5_SDK_15.0.0_a53641a/components/libraries/experimental_section_vars/nrf_section_iter.c.obj
 .debug_line    0x00003155      0x59c examples/light_switch/proxy_server/CMakeFiles/light_switch_proxy_server_nrf52832_xxAA_s132_6.0.0.dir/C_/b/nRF5_SDK_15.0.0_a53641a/components/softdevice/common/nrf_sdh.c.obj
 .debug_line    0x000036f1      0x3f3 examples/light_switch/proxy_server/CMakeFiles/light_switch_proxy_server_nrf52832_xxAA_s132_6.0.0.dir/C_/b/nRF5_SDK_15.0.0_a53641a/components/softdevice/common/nrf_sdh_soc.c.obj
 .debug_line    0x00003ae4      0x514 examples/light_switch/proxy_server/CMakeFiles/light_switch_proxy_server_nrf52832_xxAA_s132_6.0.0.dir/C_/b/nRF5_SDK_15.0.0_a53641a/components/softdevice/common/nrf_sdh_ble.c.obj
 .debug_line    0x00003ff8      0x1e2 examples/light_switch/proxy_server/CMakeFiles/light_switch_proxy_server_nrf52832_xxAA_s132_6.0.0.dir/__/__/nrf_mesh_weak.c.obj
 .debug_line    0x000041da      0x46d examples/light_switch/proxy_server/CMakeFiles/light_switch_proxy_server_nrf52832_xxAA_s132_6.0.0.dir/__/__/common/src/app_error_weak.c.obj
 .debug_line    0x00004647      0x228 examples/light_switch/proxy_server/CMakeFiles/light_switch_proxy_server_nrf52832_xxAA_s132_6.0.0.dir/__/__/common/src/assertion_handler_weak.c.obj
 .debug_line    0x0000486f      0x21f examples/light_switch/proxy_server/CMakeFiles/light_switch_proxy_server_nrf52832_xxAA_s132_6.0.0.dir/__/__/__/mesh/core/src/nrf_mesh_configure.c.obj
 .debug_line    0x00004a8e      0x247 examples/light_switch/proxy_server/CMakeFiles/light_switch_proxy_server_nrf52832_xxAA_s132_6.0.0.dir/__/__/__/mesh/core/src/aes.c.obj
 .debug_line    0x00004cd5      0x255 examples/light_switch/proxy_server/CMakeFiles/light_switch_proxy_server_nrf52832_xxAA_s132_6.0.0.dir/__/__/__/mesh/core/src/msg_cache.c.obj
 .debug_line    0x00004f2a      0xcb1 examples/light_switch/proxy_server/CMakeFiles/light_switch_proxy_server_nrf52832_xxAA_s132_6.0.0.dir/__/__/__/mesh/core/src/transport.c.obj
 .debug_line    0x00005bdb      0x2d7 examples/light_switch/proxy_server/CMakeFiles/light_switch_proxy_server_nrf52832_xxAA_s132_6.0.0.dir/__/__/__/mesh/core/src/event.c.obj
 .debug_line    0x00005eb2      0x4a9 examples/light_switch/proxy_server/CMakeFiles/light_switch_proxy_server_nrf52832_xxAA_s132_6.0.0.dir/__/__/__/mesh/core/src/packet_buffer.c.obj
 .debug_line    0x0000635b      0x6cb examples/light_switch/proxy_server/CMakeFiles/light_switch_proxy_server_nrf52832_xxAA_s132_6.0.0.dir/__/__/__/mesh/core/src/flash_manager_defrag.c.obj
 .debug_line    0x00006a26      0x36c examples/light_switch/proxy_server/CMakeFiles/light_switch_proxy_server_nrf52832_xxAA_s132_6.0.0.dir/__/__/__/mesh/core/src/fifo.c.obj
 .debug_line    0x00006d92      0x230 examples/light_switch/proxy_server/CMakeFiles/light_switch_proxy_server_nrf52832_xxAA_s132_6.0.0.dir/__/__/__/mesh/core/src/nrf_flash.c.obj
 .debug_line    0x00006fc2      0x40b examples/light_switch/proxy_server/CMakeFiles/light_switch_proxy_server_nrf52832_xxAA_s132_6.0.0.dir/__/__/__/mesh/core/src/packet_mgr.c.obj
 .debug_line    0x000073cd      0x6aa examples/light_switch/proxy_server/CMakeFiles/light_switch_proxy_server_nrf52832_xxAA_s132_6.0.0.dir/__/__/__/mesh/core/src/net_state.c.obj
 .debug_line    0x00007a77      0x508 examples/light_switch/proxy_server/CMakeFiles/light_switch_proxy_server_nrf52832_xxAA_s132_6.0.0.dir/__/__/__/mesh/core/src/mesh_flash.c.obj
 .debug_line    0x00007f7f      0x249 examples/light_switch/proxy_server/CMakeFiles/light_switch_proxy_server_nrf52832_xxAA_s132_6.0.0.dir/__/__/__/mesh/core/src/nrf_mesh_utils.c.obj
 .debug_line    0x000081c8      0x768 examples/light_switch/proxy_server/CMakeFiles/light_switch_proxy_server_nrf52832_xxAA_s132_6.0.0.dir/__/__/__/mesh/core/src/nrf_mesh.c.obj
 .debug_line    0x00008930      0x281 examples/light_switch/proxy_server/CMakeFiles/light_switch_proxy_server_nrf52832_xxAA_s132_6.0.0.dir/__/__/__/mesh/core/src/queue.c.obj
 .debug_line    0x00008bb1      0x20d examples/light_switch/proxy_server/CMakeFiles/light_switch_proxy_server_nrf52832_xxAA_s132_6.0.0.dir/__/__/__/mesh/core/src/hal.c.obj
 .debug_line    0x00008dbe      0x2c6 examples/light_switch/proxy_server/CMakeFiles/light_switch_proxy_server_nrf52832_xxAA_s132_6.0.0.dir/__/__/__/mesh/core/src/aes_cmac.c.obj
 .debug_line    0x00009084      0x41f examples/light_switch/proxy_server/CMakeFiles/light_switch_proxy_server_nrf52832_xxAA_s132_6.0.0.dir/__/__/__/mesh/core/src/timer_scheduler.c.obj
 .debug_line    0x000094a3      0x39f examples/light_switch/proxy_server/CMakeFiles/light_switch_proxy_server_nrf52832_xxAA_s132_6.0.0.dir/__/__/__/mesh/core/src/timer.c.obj
 .debug_line    0x00009842      0x124 examples/light_switch/proxy_server/CMakeFiles/light_switch_proxy_server_nrf52832_xxAA_s132_6.0.0.dir/__/__/__/mesh/core/src/ticker.c.obj
 .debug_line    0x00009966      0x266 examples/light_switch/proxy_server/CMakeFiles/light_switch_proxy_server_nrf52832_xxAA_s132_6.0.0.dir/__/__/__/mesh/core/src/rand.c.obj
 .debug_line    0x00009bcc      0x257 examples/light_switch/proxy_server/CMakeFiles/light_switch_proxy_server_nrf52832_xxAA_s132_6.0.0.dir/__/__/__/mesh/core/src/nrf_mesh_opt.c.obj
 .debug_line    0x00009e23      0x548 examples/light_switch/proxy_server/CMakeFiles/light_switch_proxy_server_nrf52832_xxAA_s132_6.0.0.dir/__/__/__/mesh/core/src/timeslot.c.obj
 .debug_line    0x0000a36b      0x507 examples/light_switch/proxy_server/CMakeFiles/light_switch_proxy_server_nrf52832_xxAA_s132_6.0.0.dir/__/__/__/mesh/core/src/bearer_event.c.obj
 .debug_line    0x0000a872      0x413 examples/light_switch/proxy_server/CMakeFiles/light_switch_proxy_server_nrf52832_xxAA_s132_6.0.0.dir/__/__/__/mesh/core/src/enc.c.obj
 .debug_line    0x0000ac85      0x53d examples/light_switch/proxy_server/CMakeFiles/light_switch_proxy_server_nrf52832_xxAA_s132_6.0.0.dir/__/__/__/mesh/core/src/network.c.obj
 .debug_line    0x0000b1c2      0x54e examples/light_switch/proxy_server/CMakeFiles/light_switch_proxy_server_nrf52832_xxAA_s132_6.0.0.dir/__/__/__/mesh/core/src/net_packet.c.obj
 .debug_line    0x0000b710      0x2f0 examples/light_switch/proxy_server/CMakeFiles/light_switch_proxy_server_nrf52832_xxAA_s132_6.0.0.dir/__/__/__/mesh/core/src/msqueue.c.obj
 .debug_line    0x0000ba00      0x226 examples/light_switch/proxy_server/CMakeFiles/light_switch_proxy_server_nrf52832_xxAA_s132_6.0.0.dir/__/__/__/mesh/core/src/nrf_mesh_keygen.c.obj
 .debug_line    0x0000bc26      0x21e examples/light_switch/proxy_server/CMakeFiles/light_switch_proxy_server_nrf52832_xxAA_s132_6.0.0.dir/__/__/__/mesh/core/src/cache.c.obj
 .debug_line    0x0000be44      0x2d0 examples/light_switch/proxy_server/CMakeFiles/light_switch_proxy_server_nrf52832_xxAA_s132_6.0.0.dir/__/__/__/mesh/core/src/list.c.obj
 .debug_line    0x0000c114      0x275 examples/light_switch/proxy_server/CMakeFiles/light_switch_proxy_server_nrf52832_xxAA_s132_6.0.0.dir/__/__/__/mesh/core/src/log.c.obj
 .debug_line    0x0000c389      0x8f6 examples/light_switch/proxy_server/CMakeFiles/light_switch_proxy_server_nrf52832_xxAA_s132_6.0.0.dir/__/__/__/mesh/core/src/flash_manager.c.obj
 .debug_line    0x0000cc7f      0x33d examples/light_switch/proxy_server/CMakeFiles/light_switch_proxy_server_nrf52832_xxAA_s132_6.0.0.dir/__/__/__/mesh/core/src/ccm_soft.c.obj
 .debug_line    0x0000cfbc      0x1cd examples/light_switch/proxy_server/CMakeFiles/light_switch_proxy_server_nrf52832_xxAA_s132_6.0.0.dir/__/__/__/mesh/core/src/replay_cache.c.obj
 .debug_line    0x0000d189      0x47e examples/light_switch/proxy_server/CMakeFiles/light_switch_proxy_server_nrf52832_xxAA_s132_6.0.0.dir/__/__/__/mesh/core/src/beacon.c.obj
 .debug_line    0x0000d607      0x269 examples/light_switch/proxy_server/CMakeFiles/light_switch_proxy_server_nrf52832_xxAA_s132_6.0.0.dir/__/__/__/mesh/core/src/flash_manager_internal.c.obj
 .debug_line    0x0000d870      0x396 examples/light_switch/proxy_server/CMakeFiles/light_switch_proxy_server_nrf52832_xxAA_s132_6.0.0.dir/__/__/__/mesh/core/src/core_tx.c.obj
 .debug_line    0x0000dc06      0x597 examples/light_switch/proxy_server/CMakeFiles/light_switch_proxy_server_nrf52832_xxAA_s132_6.0.0.dir/__/__/__/mesh/core/src/heartbeat.c.obj
 .debug_line    0x0000e19d      0x5e8 examples/light_switch/proxy_server/CMakeFiles/light_switch_proxy_server_nrf52832_xxAA_s132_6.0.0.dir/__/__/__/mesh/core/src/net_beacon.c.obj
 .debug_line    0x0000e785      0x3d6 examples/light_switch/proxy_server/CMakeFiles/light_switch_proxy_server_nrf52832_xxAA_s132_6.0.0.dir/__/__/__/mesh/core/src/fsm.c.obj
 .debug_line    0x0000eb5b      0x4b0 examples/light_switch/proxy_server/CMakeFiles/light_switch_proxy_server_nrf52832_xxAA_s132_6.0.0.dir/__/__/__/mesh/core/src/core_tx_adv.c.obj
 .debug_line    0x0000f00b      0x327 examples/light_switch/proxy_server/CMakeFiles/light_switch_proxy_server_nrf52832_xxAA_s132_6.0.0.dir/__/__/__/mesh/bearer/src/ad_listener.c.obj
 .debug_line    0x0000f332      0x3dc examples/light_switch/proxy_server/CMakeFiles/light_switch_proxy_server_nrf52832_xxAA_s132_6.0.0.dir/__/__/__/mesh/bearer/src/ad_type_filter.c.obj
 .debug_line    0x0000f70e      0x6c7 examples/light_switch/proxy_server/CMakeFiles/light_switch_proxy_server_nrf52832_xxAA_s132_6.0.0.dir/__/__/__/mesh/bearer/src/advertiser.c.obj
 .debug_line    0x0000fdd5      0x495 examples/light_switch/proxy_server/CMakeFiles/light_switch_proxy_server_nrf52832_xxAA_s132_6.0.0.dir/__/__/__/mesh/bearer/src/bearer_handler.c.obj
 .debug_line    0x0001026a      0x351 examples/light_switch/proxy_server/CMakeFiles/light_switch_proxy_server_nrf52832_xxAA_s132_6.0.0.dir/__/__/__/mesh/bearer/src/broadcast.c.obj
 .debug_line    0x000105bb      0x31a examples/light_switch/proxy_server/CMakeFiles/light_switch_proxy_server_nrf52832_xxAA_s132_6.0.0.dir/__/__/__/mesh/bearer/src/filter_engine.c.obj
 .debug_line    0x000108d5      0x286 examples/light_switch/proxy_server/CMakeFiles/light_switch_proxy_server_nrf52832_xxAA_s132_6.0.0.dir/__/__/__/mesh/bearer/src/radio_config.c.obj
 .debug_line    0x00010b5b      0x676 examples/light_switch/proxy_server/CMakeFiles/light_switch_proxy_server_nrf52832_xxAA_s132_6.0.0.dir/__/__/__/mesh/bearer/src/scanner.c.obj
 .debug_line    0x000111d1      0x7ce examples/light_switch/proxy_server/CMakeFiles/light_switch_proxy_server_nrf52832_xxAA_s132_6.0.0.dir/__/__/__/mesh/gatt/src/mesh_gatt.c.obj
 .debug_line    0x0001199f      0xa98 examples/light_switch/proxy_server/CMakeFiles/light_switch_proxy_server_nrf52832_xxAA_s132_6.0.0.dir/__/__/__/mesh/gatt/src/proxy.c.obj
 .debug_line    0x00012437      0x26d examples/light_switch/proxy_server/CMakeFiles/light_switch_proxy_server_nrf52832_xxAA_s132_6.0.0.dir/__/__/__/mesh/gatt/src/proxy_filter.c.obj
 .debug_line    0x000126a4      0x337 examples/light_switch/proxy_server/CMakeFiles/light_switch_proxy_server_nrf52832_xxAA_s132_6.0.0.dir/__/__/__/models/simple_on_off/src/simple_on_off_server.c.obj
 .debug_line    0x000129db      0x2ea examples/light_switch/proxy_server/CMakeFiles/light_switch_proxy_server_nrf52832_xxAA_s132_6.0.0.dir/__/__/__/models/config/src/composition_data.c.obj
 .debug_line    0x00012cc5     0x13b3 examples/light_switch/proxy_server/CMakeFiles/light_switch_proxy_server_nrf52832_xxAA_s132_6.0.0.dir/__/__/__/models/config/src/config_server.c.obj
 .debug_line    0x00014078       0xef examples/light_switch/proxy_server/CMakeFiles/light_switch_proxy_server_nrf52832_xxAA_s132_6.0.0.dir/__/__/__/models/config/src/packed_index_list.c.obj
 .debug_line    0x00014167      0x68e examples/light_switch/proxy_server/CMakeFiles/light_switch_proxy_server_nrf52832_xxAA_s132_6.0.0.dir/__/__/__/models/health/src/health_server.c.obj
 .debug_line    0x000147f5      0x40e examples/light_switch/proxy_server/CMakeFiles/light_switch_proxy_server_nrf52832_xxAA_s132_6.0.0.dir/__/__/__/mesh/access/src/access_publish.c.obj
 .debug_line    0x00014c03      0xeda examples/light_switch/proxy_server/CMakeFiles/light_switch_proxy_server_nrf52832_xxAA_s132_6.0.0.dir/__/__/__/mesh/access/src/access.c.obj
 .debug_line    0x00015add      0x513 examples/light_switch/proxy_server/CMakeFiles/light_switch_proxy_server_nrf52832_xxAA_s132_6.0.0.dir/__/__/__/mesh/access/src/access_reliable.c.obj
 .debug_line    0x00015ff0     0x13e1 examples/light_switch/proxy_server/CMakeFiles/light_switch_proxy_server_nrf52832_xxAA_s132_6.0.0.dir/__/__/__/mesh/access/src/device_state_manager.c.obj
 .debug_line    0x000173d1      0x618 examples/light_switch/proxy_server/CMakeFiles/light_switch_proxy_server_nrf52832_xxAA_s132_6.0.0.dir/__/__/__/mesh/prov/src/prov_provisionee.c.obj
 .debug_line    0x000179e9      0x54e examples/light_switch/proxy_server/CMakeFiles/light_switch_proxy_server_nrf52832_xxAA_s132_6.0.0.dir/__/__/__/mesh/prov/src/nrf_mesh_prov.c.obj
 .debug_line    0x00017f37      0x3ae examples/light_switch/proxy_server/CMakeFiles/light_switch_proxy_server_nrf52832_xxAA_s132_6.0.0.dir/__/__/__/mesh/prov/src/provisioning.c.obj
 .debug_line    0x000182e5      0x44e examples/light_switch/proxy_server/CMakeFiles/light_switch_proxy_server_nrf52832_xxAA_s132_6.0.0.dir/__/__/__/mesh/prov/src/prov_beacon.c.obj
 .debug_line    0x00018733      0x48b examples/light_switch/proxy_server/CMakeFiles/light_switch_proxy_server_nrf52832_xxAA_s132_6.0.0.dir/__/__/__/mesh/prov/src/prov_utils.c.obj
 .debug_line    0x00018bbe      0xb15 examples/light_switch/proxy_server/CMakeFiles/light_switch_proxy_server_nrf52832_xxAA_s132_6.0.0.dir/__/__/__/mesh/prov/src/prov_bearer_adv.c.obj
 .debug_line    0x000196d3      0x243 examples/light_switch/proxy_server/CMakeFiles/light_switch_proxy_server_nrf52832_xxAA_s132_6.0.0.dir/C_/b/nRF5_SDK_15.0.0_a53641a/modules/nrfx/mdk/system_nrf52.c.obj
 .debug_line    0x00019916      0x260 examples/light_switch/proxy_server/CMakeFiles/light_switch_proxy_server_nrf52832_xxAA_s132_6.0.0.dir/C_/b/nRF5_SDK_15.0.0_a53641a/components/libraries/util/app_error.c.obj
 .debug_line    0x00019b76      0x205 examples/light_switch/proxy_server/CMakeFiles/light_switch_proxy_server_nrf52832_xxAA_s132_6.0.0.dir/C_/b/nRF5_SDK_15.0.0_a53641a/components/libraries/util/app_error_handler_gcc.c.obj
 .debug_line    0x00019d7b      0x4c3 external/rtt/librtt_nrf52832_xxAA.a(SEGGER_RTT.c.obj)
 .debug_line    0x0001a23e      0x285 external/rtt/librtt_nrf52832_xxAA.a(SEGGER_RTT_printf.c.obj)
 .debug_line    0x0001a4c3      0x9fd external/micro-ecc/libuECC_nrf52832_xxAA.a(uECC.c.obj)

.debug_str      0x00000000    0x17734
 .debug_str     0x00000000     0x245c examples/light_switch/proxy_server/CMakeFiles/light_switch_proxy_server_nrf52832_xxAA_s132_6.0.0.dir/src/main.c.obj
                               0x281f (size before relaxing)
 .debug_str     0x0000245c     0x10fc examples/light_switch/proxy_server/CMakeFiles/light_switch_proxy_server_nrf52832_xxAA_s132_6.0.0.dir/__/__/__/mesh/stack/src/mesh_stack.c.obj
                               0x2753 (size before relaxing)
 .debug_str     0x00003558     0x1b5a examples/light_switch/proxy_server/CMakeFiles/light_switch_proxy_server_nrf52832_xxAA_s132_6.0.0.dir/__/__/common/src/mesh_provisionee.c.obj
                               0x294f (size before relaxing)
 .debug_str     0x000050b2      0x20b examples/light_switch/proxy_server/CMakeFiles/light_switch_proxy_server_nrf52832_xxAA_s132_6.0.0.dir/__/__/common/src/rtt_input.c.obj
                                0xb69 (size before relaxing)
 .debug_str     0x000052bd      0x1d5 examples/light_switch/proxy_server/CMakeFiles/light_switch_proxy_server_nrf52832_xxAA_s132_6.0.0.dir/__/__/common/src/simple_hal.c.obj
                                0xceb (size before relaxing)
 .debug_str     0x00005492      0x113 examples/light_switch/proxy_server/CMakeFiles/light_switch_proxy_server_nrf52832_xxAA_s132_6.0.0.dir/__/__/common/src/mesh_app_utils.c.obj
                                0x74a (size before relaxing)
 .debug_str     0x000055a5      0x56a examples/light_switch/proxy_server/CMakeFiles/light_switch_proxy_server_nrf52832_xxAA_s132_6.0.0.dir/__/__/common/src/mesh_adv.c.obj
                               0x1067 (size before relaxing)
 .debug_str     0x00005b0f      0x6e6 examples/light_switch/proxy_server/CMakeFiles/light_switch_proxy_server_nrf52832_xxAA_s132_6.0.0.dir/__/__/__/mesh/prov/src/nrf_mesh_prov_bearer_gatt.c.obj
                               0x14c2 (size before relaxing)
 .debug_str     0x000061f5      0x1fb examples/light_switch/proxy_server/CMakeFiles/light_switch_proxy_server_nrf52832_xxAA_s132_6.0.0.dir/C_/b/nRF5_SDK_15.0.0_a53641a/components/libraries/util/app_util_platform.c.obj
                                0xc48 (size before relaxing)
 .debug_str     0x000063f0      0x4cd examples/light_switch/proxy_server/CMakeFiles/light_switch_proxy_server_nrf52832_xxAA_s132_6.0.0.dir/C_/b/nRF5_SDK_15.0.0_a53641a/components/ble/common/ble_advdata.c.obj
                               0x12d8 (size before relaxing)
 .debug_str     0x000068bd       0xde examples/light_switch/proxy_server/CMakeFiles/light_switch_proxy_server_nrf52832_xxAA_s132_6.0.0.dir/C_/b/nRF5_SDK_15.0.0_a53641a/components/libraries/experimental_section_vars/nrf_section_iter.c.obj
                                0x6f3 (size before relaxing)
 .debug_str     0x0000699b      0x56b examples/light_switch/proxy_server/CMakeFiles/light_switch_proxy_server_nrf52832_xxAA_s132_6.0.0.dir/C_/b/nRF5_SDK_15.0.0_a53641a/components/softdevice/common/nrf_sdh.c.obj
                               0x1284 (size before relaxing)
 .debug_str     0x00006f06       0xcf examples/light_switch/proxy_server/CMakeFiles/light_switch_proxy_server_nrf52832_xxAA_s132_6.0.0.dir/C_/b/nRF5_SDK_15.0.0_a53641a/components/softdevice/common/nrf_sdh_soc.c.obj
                                0xd1f (size before relaxing)
 .debug_str     0x00006fd5     0x146f examples/light_switch/proxy_server/CMakeFiles/light_switch_proxy_server_nrf52832_xxAA_s132_6.0.0.dir/C_/b/nRF5_SDK_15.0.0_a53641a/components/softdevice/common/nrf_sdh_ble.c.obj
                               0x2041 (size before relaxing)
 .debug_str     0x00008444       0x3c examples/light_switch/proxy_server/CMakeFiles/light_switch_proxy_server_nrf52832_xxAA_s132_6.0.0.dir/__/__/nrf_mesh_weak.c.obj
                                0x61c (size before relaxing)
 .debug_str     0x00008480       0x97 examples/light_switch/proxy_server/CMakeFiles/light_switch_proxy_server_nrf52832_xxAA_s132_6.0.0.dir/__/__/common/src/app_error_weak.c.obj
                                0x85d (size before relaxing)
 .debug_str     0x00008517       0x30 examples/light_switch/proxy_server/CMakeFiles/light_switch_proxy_server_nrf52832_xxAA_s132_6.0.0.dir/__/__/common/src/assertion_handler_weak.c.obj
                                0x672 (size before relaxing)
 .debug_str     0x00008547       0x75 examples/light_switch/proxy_server/CMakeFiles/light_switch_proxy_server_nrf52832_xxAA_s132_6.0.0.dir/__/__/__/mesh/core/src/nrf_mesh_configure.c.obj
                                0x77e (size before relaxing)
 .debug_str     0x000085bc       0xc1 examples/light_switch/proxy_server/CMakeFiles/light_switch_proxy_server_nrf52832_xxAA_s132_6.0.0.dir/__/__/__/mesh/core/src/aes.c.obj
                                0xa89 (size before relaxing)
 .debug_str     0x0000867d       0xbb examples/light_switch/proxy_server/CMakeFiles/light_switch_proxy_server_nrf52832_xxAA_s132_6.0.0.dir/__/__/__/mesh/core/src/msg_cache.c.obj
                                0x6b9 (size before relaxing)
 .debug_str     0x00008738     0x1642 examples/light_switch/proxy_server/CMakeFiles/light_switch_proxy_server_nrf52832_xxAA_s132_6.0.0.dir/__/__/__/mesh/core/src/transport.c.obj
                               0x3113 (size before relaxing)
 .debug_str     0x00009d7a       0x82 examples/light_switch/proxy_server/CMakeFiles/light_switch_proxy_server_nrf52832_xxAA_s132_6.0.0.dir/__/__/__/mesh/core/src/event.c.obj
                               0x16c0 (size before relaxing)
 .debug_str     0x00009dfc      0x30d examples/light_switch/proxy_server/CMakeFiles/light_switch_proxy_server_nrf52832_xxAA_s132_6.0.0.dir/__/__/__/mesh/core/src/packet_buffer.c.obj
                                0xaac (size before relaxing)
 .debug_str     0x0000a109      0x8fa examples/light_switch/proxy_server/CMakeFiles/light_switch_proxy_server_nrf52832_xxAA_s132_6.0.0.dir/__/__/__/mesh/core/src/flash_manager_defrag.c.obj
                               0x1104 (size before relaxing)
 .debug_str     0x0000aa03       0x9e examples/light_switch/proxy_server/CMakeFiles/light_switch_proxy_server_nrf52832_xxAA_s132_6.0.0.dir/__/__/__/mesh/core/src/fifo.c.obj
                                0x6db (size before relaxing)
 .debug_str     0x0000aaa1       0xaa examples/light_switch/proxy_server/CMakeFiles/light_switch_proxy_server_nrf52832_xxAA_s132_6.0.0.dir/__/__/__/mesh/core/src/nrf_flash.c.obj
                                0x6bb (size before relaxing)
 .debug_str     0x0000ab4b      0x287 examples/light_switch/proxy_server/CMakeFiles/light_switch_proxy_server_nrf52832_xxAA_s132_6.0.0.dir/__/__/__/mesh/core/src/packet_mgr.c.obj
                                0x9a5 (size before relaxing)
 .debug_str     0x0000add2      0x585 examples/light_switch/proxy_server/CMakeFiles/light_switch_proxy_server_nrf52832_xxAA_s132_6.0.0.dir/__/__/__/mesh/core/src/net_state.c.obj
                               0x2155 (size before relaxing)
 .debug_str     0x0000b357      0x37f examples/light_switch/proxy_server/CMakeFiles/light_switch_proxy_server_nrf52832_xxAA_s132_6.0.0.dir/__/__/__/mesh/core/src/mesh_flash.c.obj
                                0xcdc (size before relaxing)
 .debug_str     0x0000b6d6       0x94 examples/light_switch/proxy_server/CMakeFiles/light_switch_proxy_server_nrf52832_xxAA_s132_6.0.0.dir/__/__/__/mesh/core/src/nrf_mesh_utils.c.obj
                                0x751 (size before relaxing)
 .debug_str     0x0000b76a      0x5e7 examples/light_switch/proxy_server/CMakeFiles/light_switch_proxy_server_nrf52832_xxAA_s132_6.0.0.dir/__/__/__/mesh/core/src/nrf_mesh.c.obj
                               0x2157 (size before relaxing)
 .debug_str     0x0000bd51       0x5b examples/light_switch/proxy_server/CMakeFiles/light_switch_proxy_server_nrf52832_xxAA_s132_6.0.0.dir/__/__/__/mesh/core/src/queue.c.obj
                                0x683 (size before relaxing)
 .debug_str     0x0000bdac       0xb5 examples/light_switch/proxy_server/CMakeFiles/light_switch_proxy_server_nrf52832_xxAA_s132_6.0.0.dir/__/__/__/mesh/core/src/hal.c.obj
                                0x749 (size before relaxing)
 .debug_str     0x0000be61       0xd0 examples/light_switch/proxy_server/CMakeFiles/light_switch_proxy_server_nrf52832_xxAA_s132_6.0.0.dir/__/__/__/mesh/core/src/aes_cmac.c.obj
                                0x715 (size before relaxing)
 .debug_str     0x0000bf31      0x13d examples/light_switch/proxy_server/CMakeFiles/light_switch_proxy_server_nrf52832_xxAA_s132_6.0.0.dir/__/__/__/mesh/core/src/timer_scheduler.c.obj
                                0x934 (size before relaxing)
 .debug_str     0x0000c06e      0x1db examples/light_switch/proxy_server/CMakeFiles/light_switch_proxy_server_nrf52832_xxAA_s132_6.0.0.dir/__/__/__/mesh/core/src/timer.c.obj
                                0x869 (size before relaxing)
 .debug_str     0x0000c249       0x42 examples/light_switch/proxy_server/CMakeFiles/light_switch_proxy_server_nrf52832_xxAA_s132_6.0.0.dir/__/__/__/mesh/core/src/ticker.c.obj
                                0x34c (size before relaxing)
 .debug_str     0x0000c28b       0xac examples/light_switch/proxy_server/CMakeFiles/light_switch_proxy_server_nrf52832_xxAA_s132_6.0.0.dir/__/__/__/mesh/core/src/rand.c.obj
                                0x6dd (size before relaxing)
 .debug_str     0x0000c337       0x88 examples/light_switch/proxy_server/CMakeFiles/light_switch_proxy_server_nrf52832_xxAA_s132_6.0.0.dir/__/__/__/mesh/core/src/nrf_mesh_opt.c.obj
                                0x8f0 (size before relaxing)
 .debug_str     0x0000c3bf      0x89a examples/light_switch/proxy_server/CMakeFiles/light_switch_proxy_server_nrf52832_xxAA_s132_6.0.0.dir/__/__/__/mesh/core/src/timeslot.c.obj
                               0x17f6 (size before relaxing)
 .debug_str     0x0000cc59      0x28d examples/light_switch/proxy_server/CMakeFiles/light_switch_proxy_server_nrf52832_xxAA_s132_6.0.0.dir/__/__/__/mesh/core/src/bearer_event.c.obj
                                0xeb9 (size before relaxing)
 .debug_str     0x0000cee6      0x163 examples/light_switch/proxy_server/CMakeFiles/light_switch_proxy_server_nrf52832_xxAA_s132_6.0.0.dir/__/__/__/mesh/core/src/enc.c.obj
                                0x9ef (size before relaxing)
 .debug_str     0x0000d049      0x314 examples/light_switch/proxy_server/CMakeFiles/light_switch_proxy_server_nrf52832_xxAA_s132_6.0.0.dir/__/__/__/mesh/core/src/network.c.obj
                               0x1303 (size before relaxing)
 .debug_str     0x0000d35d      0x30f examples/light_switch/proxy_server/CMakeFiles/light_switch_proxy_server_nrf52832_xxAA_s132_6.0.0.dir/__/__/__/mesh/core/src/net_packet.c.obj
                                0xe86 (size before relaxing)
 .debug_str     0x0000d66c       0x53 examples/light_switch/proxy_server/CMakeFiles/light_switch_proxy_server_nrf52832_xxAA_s132_6.0.0.dir/__/__/__/mesh/core/src/msqueue.c.obj
                                0x6bf (size before relaxing)
 .debug_str     0x0000d6bf       0xc8 examples/light_switch/proxy_server/CMakeFiles/light_switch_proxy_server_nrf52832_xxAA_s132_6.0.0.dir/__/__/__/mesh/core/src/nrf_mesh_keygen.c.obj
                                0x3a4 (size before relaxing)
 .debug_str     0x0000d787       0xa8 examples/light_switch/proxy_server/CMakeFiles/light_switch_proxy_server_nrf52832_xxAA_s132_6.0.0.dir/__/__/__/mesh/core/src/cache.c.obj
                                0x6af (size before relaxing)
 .debug_str     0x0000d82f       0x76 examples/light_switch/proxy_server/CMakeFiles/light_switch_proxy_server_nrf52832_xxAA_s132_6.0.0.dir/__/__/__/mesh/core/src/list.c.obj
                                0x2be (size before relaxing)
 .debug_str     0x0000d8a5       0xf0 examples/light_switch/proxy_server/CMakeFiles/light_switch_proxy_server_nrf52832_xxAA_s132_6.0.0.dir/__/__/__/mesh/core/src/log.c.obj
                                0x7d0 (size before relaxing)
 .debug_str     0x0000d995      0x524 examples/light_switch/proxy_server/CMakeFiles/light_switch_proxy_server_nrf52832_xxAA_s132_6.0.0.dir/__/__/__/mesh/core/src/flash_manager.c.obj
                               0x1578 (size before relaxing)
 .debug_str     0x0000deb9       0x85 examples/light_switch/proxy_server/CMakeFiles/light_switch_proxy_server_nrf52832_xxAA_s132_6.0.0.dir/__/__/__/mesh/core/src/ccm_soft.c.obj
                                0x75d (size before relaxing)
 .debug_str     0x0000df3e       0x92 examples/light_switch/proxy_server/CMakeFiles/light_switch_proxy_server_nrf52832_xxAA_s132_6.0.0.dir/__/__/__/mesh/core/src/replay_cache.c.obj
                                0x68d (size before relaxing)
 .debug_str     0x0000dfd0       0xd4 examples/light_switch/proxy_server/CMakeFiles/light_switch_proxy_server_nrf52832_xxAA_s132_6.0.0.dir/__/__/__/mesh/core/src/beacon.c.obj
                               0x1103 (size before relaxing)
 .debug_str     0x0000e0a4       0x38 examples/light_switch/proxy_server/CMakeFiles/light_switch_proxy_server_nrf52832_xxAA_s132_6.0.0.dir/__/__/__/mesh/core/src/flash_manager_internal.c.obj
                                0x7a4 (size before relaxing)
 .debug_str     0x0000e0dc      0x2be examples/light_switch/proxy_server/CMakeFiles/light_switch_proxy_server_nrf52832_xxAA_s132_6.0.0.dir/__/__/__/mesh/core/src/core_tx.c.obj
                                0xbef (size before relaxing)
 .debug_str     0x0000e39a      0x418 examples/light_switch/proxy_server/CMakeFiles/light_switch_proxy_server_nrf52832_xxAA_s132_6.0.0.dir/__/__/__/mesh/core/src/heartbeat.c.obj
                               0x224d (size before relaxing)
 .debug_str     0x0000e7b2      0x25c examples/light_switch/proxy_server/CMakeFiles/light_switch_proxy_server_nrf52832_xxAA_s132_6.0.0.dir/__/__/__/mesh/core/src/net_beacon.c.obj
                               0x20ad (size before relaxing)
 .debug_str     0x0000ea0e       0xc3 examples/light_switch/proxy_server/CMakeFiles/light_switch_proxy_server_nrf52832_xxAA_s132_6.0.0.dir/__/__/__/mesh/core/src/fsm.c.obj
                                0x984 (size before relaxing)
 .debug_str     0x0000ead1      0x107 examples/light_switch/proxy_server/CMakeFiles/light_switch_proxy_server_nrf52832_xxAA_s132_6.0.0.dir/__/__/__/mesh/core/src/core_tx_adv.c.obj
                               0x12d9 (size before relaxing)
 .debug_str     0x0000ebd8      0x18d examples/light_switch/proxy_server/CMakeFiles/light_switch_proxy_server_nrf52832_xxAA_s132_6.0.0.dir/__/__/__/mesh/bearer/src/ad_listener.c.obj
                                0xbe2 (size before relaxing)
 .debug_str     0x0000ed65      0x162 examples/light_switch/proxy_server/CMakeFiles/light_switch_proxy_server_nrf52832_xxAA_s132_6.0.0.dir/__/__/__/mesh/bearer/src/ad_type_filter.c.obj
                                0x99f (size before relaxing)
 .debug_str     0x0000eec7      0x321 examples/light_switch/proxy_server/CMakeFiles/light_switch_proxy_server_nrf52832_xxAA_s132_6.0.0.dir/__/__/__/mesh/bearer/src/advertiser.c.obj
                               0x14f2 (size before relaxing)
 .debug_str     0x0000f1e8      0x328 examples/light_switch/proxy_server/CMakeFiles/light_switch_proxy_server_nrf52832_xxAA_s132_6.0.0.dir/__/__/__/mesh/bearer/src/bearer_handler.c.obj
                                0xf75 (size before relaxing)
 .debug_str     0x0000f510      0x1ac examples/light_switch/proxy_server/CMakeFiles/light_switch_proxy_server_nrf52832_xxAA_s132_6.0.0.dir/__/__/__/mesh/bearer/src/broadcast.c.obj
                                0xf2c (size before relaxing)
 .debug_str     0x0000f6bc       0x72 examples/light_switch/proxy_server/CMakeFiles/light_switch_proxy_server_nrf52832_xxAA_s132_6.0.0.dir/__/__/__/mesh/bearer/src/filter_engine.c.obj
                                0x80c (size before relaxing)
 .debug_str     0x0000f72e       0x79 examples/light_switch/proxy_server/CMakeFiles/light_switch_proxy_server_nrf52832_xxAA_s132_6.0.0.dir/__/__/__/mesh/bearer/src/radio_config.c.obj
                                0x77a (size before relaxing)
 .debug_str     0x0000f7a7      0x45d examples/light_switch/proxy_server/CMakeFiles/light_switch_proxy_server_nrf52832_xxAA_s132_6.0.0.dir/__/__/__/mesh/bearer/src/scanner.c.obj
                               0x18be (size before relaxing)
 .debug_str     0x0000fc04      0xc78 examples/light_switch/proxy_server/CMakeFiles/light_switch_proxy_server_nrf52832_xxAA_s132_6.0.0.dir/__/__/__/mesh/gatt/src/mesh_gatt.c.obj
                               0x2ec4 (size before relaxing)
 .debug_str     0x0001087c      0x6ac examples/light_switch/proxy_server/CMakeFiles/light_switch_proxy_server_nrf52832_xxAA_s132_6.0.0.dir/__/__/__/mesh/gatt/src/proxy.c.obj
                               0x29c1 (size before relaxing)
 .debug_str     0x00010f28       0x3e examples/light_switch/proxy_server/CMakeFiles/light_switch_proxy_server_nrf52832_xxAA_s132_6.0.0.dir/__/__/__/mesh/gatt/src/proxy_filter.c.obj
                                0x358 (size before relaxing)
 .debug_str     0x00010f66      0x2c6 examples/light_switch/proxy_server/CMakeFiles/light_switch_proxy_server_nrf52832_xxAA_s132_6.0.0.dir/__/__/__/models/simple_on_off/src/simple_on_off_server.c.obj
                                0xa2f (size before relaxing)
 .debug_str     0x0001122c      0x221 examples/light_switch/proxy_server/CMakeFiles/light_switch_proxy_server_nrf52832_xxAA_s132_6.0.0.dir/__/__/__/models/config/src/composition_data.c.obj
                                0x8dd (size before relaxing)
 .debug_str     0x0001144d     0x2608 examples/light_switch/proxy_server/CMakeFiles/light_switch_proxy_server_nrf52832_xxAA_s132_6.0.0.dir/__/__/__/models/config/src/config_server.c.obj
                               0x509d (size before relaxing)
 .debug_str     0x00013a55       0x69 examples/light_switch/proxy_server/CMakeFiles/light_switch_proxy_server_nrf52832_xxAA_s132_6.0.0.dir/__/__/__/models/config/src/packed_index_list.c.obj
                                0x24d (size before relaxing)
 .debug_str     0x00013abe      0x601 examples/light_switch/proxy_server/CMakeFiles/light_switch_proxy_server_nrf52832_xxAA_s132_6.0.0.dir/__/__/__/models/health/src/health_server.c.obj
                               0x169f (size before relaxing)
 .debug_str     0x000140bf      0x264 examples/light_switch/proxy_server/CMakeFiles/light_switch_proxy_server_nrf52832_xxAA_s132_6.0.0.dir/__/__/__/mesh/access/src/access_publish.c.obj
                                0xbcc (size before relaxing)
 .debug_str     0x00014323      0x82f examples/light_switch/proxy_server/CMakeFiles/light_switch_proxy_server_nrf52832_xxAA_s132_6.0.0.dir/__/__/__/mesh/access/src/access.c.obj
                               0x2f72 (size before relaxing)
 .debug_str     0x00014b52      0x209 examples/light_switch/proxy_server/CMakeFiles/light_switch_proxy_server_nrf52832_xxAA_s132_6.0.0.dir/__/__/__/mesh/access/src/access_reliable.c.obj
                               0x1006 (size before relaxing)
 .debug_str     0x00014d5b      0xcc7 examples/light_switch/proxy_server/CMakeFiles/light_switch_proxy_server_nrf52832_xxAA_s132_6.0.0.dir/__/__/__/mesh/access/src/device_state_manager.c.obj
                               0x3091 (size before relaxing)
 .debug_str     0x00015a22      0x5cf examples/light_switch/proxy_server/CMakeFiles/light_switch_proxy_server_nrf52832_xxAA_s132_6.0.0.dir/__/__/__/mesh/prov/src/prov_provisionee.c.obj
                               0x21e8 (size before relaxing)
 .debug_str     0x00015ff1      0x239 examples/light_switch/proxy_server/CMakeFiles/light_switch_proxy_server_nrf52832_xxAA_s132_6.0.0.dir/__/__/__/mesh/prov/src/nrf_mesh_prov.c.obj
                               0x1dda (size before relaxing)
 .debug_str     0x0001622a       0xed examples/light_switch/proxy_server/CMakeFiles/light_switch_proxy_server_nrf52832_xxAA_s132_6.0.0.dir/__/__/__/mesh/prov/src/provisioning.c.obj
                                0xf2b (size before relaxing)
 .debug_str     0x00016317       0x9b examples/light_switch/proxy_server/CMakeFiles/light_switch_proxy_server_nrf52832_xxAA_s132_6.0.0.dir/__/__/__/mesh/prov/src/prov_beacon.c.obj
                               0x195c (size before relaxing)
 .debug_str     0x000163b2      0x19e examples/light_switch/proxy_server/CMakeFiles/light_switch_proxy_server_nrf52832_xxAA_s132_6.0.0.dir/__/__/__/mesh/prov/src/prov_utils.c.obj
                               0x1f04 (size before relaxing)
 .debug_str     0x00016550      0x3ef examples/light_switch/proxy_server/CMakeFiles/light_switch_proxy_server_nrf52832_xxAA_s132_6.0.0.dir/__/__/__/mesh/prov/src/prov_bearer_adv.c.obj
                               0x1bc0 (size before relaxing)
 .debug_str     0x0001693f      0x2e6 examples/light_switch/proxy_server/CMakeFiles/light_switch_proxy_server_nrf52832_xxAA_s132_6.0.0.dir/C_/b/nRF5_SDK_15.0.0_a53641a/modules/nrfx/mdk/system_nrf52.c.obj
                                0x762 (size before relaxing)
 .debug_str     0x00016c25       0x91 examples/light_switch/proxy_server/CMakeFiles/light_switch_proxy_server_nrf52832_xxAA_s132_6.0.0.dir/C_/b/nRF5_SDK_15.0.0_a53641a/components/libraries/util/app_error.c.obj
                                0x724 (size before relaxing)
 .debug_str     0x00016cb6       0x4f examples/light_switch/proxy_server/CMakeFiles/light_switch_proxy_server_nrf52832_xxAA_s132_6.0.0.dir/C_/b/nRF5_SDK_15.0.0_a53641a/components/libraries/util/app_error_handler_gcc.c.obj
                                0x689 (size before relaxing)
 .debug_str     0x00016d05      0x2bf external/rtt/librtt_nrf52832_xxAA.a(SEGGER_RTT.c.obj)
                                0x922 (size before relaxing)
 .debug_str     0x00016fc4       0xdf external/rtt/librtt_nrf52832_xxAA.a(SEGGER_RTT_printf.c.obj)
                                0x792 (size before relaxing)
 .debug_str     0x000170a3      0x691 external/micro-ecc/libuECC_nrf52832_xxAA.a(uECC.c.obj)
                                0x880 (size before relaxing)

.debug_frame    0x00000000     0x7b14
 .debug_frame   0x00000000      0x158 examples/light_switch/proxy_server/CMakeFiles/light_switch_proxy_server_nrf52832_xxAA_s132_6.0.0.dir/src/main.c.obj
 .debug_frame   0x00000158       0xd8 examples/light_switch/proxy_server/CMakeFiles/light_switch_proxy_server_nrf52832_xxAA_s132_6.0.0.dir/__/__/__/mesh/stack/src/mesh_stack.c.obj
 .debug_frame   0x00000230       0x8c examples/light_switch/proxy_server/CMakeFiles/light_switch_proxy_server_nrf52832_xxAA_s132_6.0.0.dir/__/__/common/src/mesh_provisionee.c.obj
 .debug_frame   0x000002bc       0x54 examples/light_switch/proxy_server/CMakeFiles/light_switch_proxy_server_nrf52832_xxAA_s132_6.0.0.dir/__/__/common/src/rtt_input.c.obj
 .debug_frame   0x00000310       0xa0 examples/light_switch/proxy_server/CMakeFiles/light_switch_proxy_server_nrf52832_xxAA_s132_6.0.0.dir/__/__/common/src/simple_hal.c.obj
 .debug_frame   0x000003b0       0x2c examples/light_switch/proxy_server/CMakeFiles/light_switch_proxy_server_nrf52832_xxAA_s132_6.0.0.dir/__/__/common/src/mesh_app_utils.c.obj
 .debug_frame   0x000003dc       0xb8 examples/light_switch/proxy_server/CMakeFiles/light_switch_proxy_server_nrf52832_xxAA_s132_6.0.0.dir/__/__/common/src/mesh_adv.c.obj
 .debug_frame   0x00000494      0x250 examples/light_switch/proxy_server/CMakeFiles/light_switch_proxy_server_nrf52832_xxAA_s132_6.0.0.dir/__/__/__/mesh/prov/src/nrf_mesh_prov_bearer_gatt.c.obj
 .debug_frame   0x000006e4       0x84 examples/light_switch/proxy_server/CMakeFiles/light_switch_proxy_server_nrf52832_xxAA_s132_6.0.0.dir/C_/b/nRF5_SDK_15.0.0_a53641a/components/libraries/util/app_util_platform.c.obj
 .debug_frame   0x00000768      0x1ac examples/light_switch/proxy_server/CMakeFiles/light_switch_proxy_server_nrf52832_xxAA_s132_6.0.0.dir/C_/b/nRF5_SDK_15.0.0_a53641a/components/ble/common/ble_advdata.c.obj
 .debug_frame   0x00000914       0x30 examples/light_switch/proxy_server/CMakeFiles/light_switch_proxy_server_nrf52832_xxAA_s132_6.0.0.dir/C_/b/nRF5_SDK_15.0.0_a53641a/components/libraries/experimental_section_vars/nrf_section_iter.c.obj
 .debug_frame   0x00000944      0x164 examples/light_switch/proxy_server/CMakeFiles/light_switch_proxy_server_nrf52832_xxAA_s132_6.0.0.dir/C_/b/nRF5_SDK_15.0.0_a53641a/components/softdevice/common/nrf_sdh.c.obj
 .debug_frame   0x00000aa8       0x3c examples/light_switch/proxy_server/CMakeFiles/light_switch_proxy_server_nrf52832_xxAA_s132_6.0.0.dir/C_/b/nRF5_SDK_15.0.0_a53641a/components/softdevice/common/nrf_sdh_soc.c.obj
 .debug_frame   0x00000ae4       0xb0 examples/light_switch/proxy_server/CMakeFiles/light_switch_proxy_server_nrf52832_xxAA_s132_6.0.0.dir/C_/b/nRF5_SDK_15.0.0_a53641a/components/softdevice/common/nrf_sdh_ble.c.obj
 .debug_frame   0x00000b94       0x30 examples/light_switch/proxy_server/CMakeFiles/light_switch_proxy_server_nrf52832_xxAA_s132_6.0.0.dir/__/__/nrf_mesh_weak.c.obj
 .debug_frame   0x00000bc4       0x34 examples/light_switch/proxy_server/CMakeFiles/light_switch_proxy_server_nrf52832_xxAA_s132_6.0.0.dir/__/__/common/src/app_error_weak.c.obj
 .debug_frame   0x00000bf8       0x28 examples/light_switch/proxy_server/CMakeFiles/light_switch_proxy_server_nrf52832_xxAA_s132_6.0.0.dir/__/__/common/src/assertion_handler_weak.c.obj
 .debug_frame   0x00000c20       0x4c examples/light_switch/proxy_server/CMakeFiles/light_switch_proxy_server_nrf52832_xxAA_s132_6.0.0.dir/__/__/__/mesh/core/src/nrf_mesh_configure.c.obj
 .debug_frame   0x00000c6c       0x40 examples/light_switch/proxy_server/CMakeFiles/light_switch_proxy_server_nrf52832_xxAA_s132_6.0.0.dir/__/__/__/mesh/core/src/aes.c.obj
 .debug_frame   0x00000cac       0x6c examples/light_switch/proxy_server/CMakeFiles/light_switch_proxy_server_nrf52832_xxAA_s132_6.0.0.dir/__/__/__/mesh/core/src/msg_cache.c.obj
 .debug_frame   0x00000d18      0x404 examples/light_switch/proxy_server/CMakeFiles/light_switch_proxy_server_nrf52832_xxAA_s132_6.0.0.dir/__/__/__/mesh/core/src/transport.c.obj
 .debug_frame   0x0000111c       0x64 examples/light_switch/proxy_server/CMakeFiles/light_switch_proxy_server_nrf52832_xxAA_s132_6.0.0.dir/__/__/__/mesh/core/src/event.c.obj
 .debug_frame   0x00001180      0x128 examples/light_switch/proxy_server/CMakeFiles/light_switch_proxy_server_nrf52832_xxAA_s132_6.0.0.dir/__/__/__/mesh/core/src/packet_buffer.c.obj
 .debug_frame   0x000012a8      0x24c examples/light_switch/proxy_server/CMakeFiles/light_switch_proxy_server_nrf52832_xxAA_s132_6.0.0.dir/__/__/__/mesh/core/src/flash_manager_defrag.c.obj
 .debug_frame   0x000014f4       0xd0 examples/light_switch/proxy_server/CMakeFiles/light_switch_proxy_server_nrf52832_xxAA_s132_6.0.0.dir/__/__/__/mesh/core/src/fifo.c.obj
 .debug_frame   0x000015c4       0x54 examples/light_switch/proxy_server/CMakeFiles/light_switch_proxy_server_nrf52832_xxAA_s132_6.0.0.dir/__/__/__/mesh/core/src/nrf_flash.c.obj
 .debug_frame   0x00001618       0xa0 examples/light_switch/proxy_server/CMakeFiles/light_switch_proxy_server_nrf52832_xxAA_s132_6.0.0.dir/__/__/__/mesh/core/src/packet_mgr.c.obj
 .debug_frame   0x000016b8      0x298 examples/light_switch/proxy_server/CMakeFiles/light_switch_proxy_server_nrf52832_xxAA_s132_6.0.0.dir/__/__/__/mesh/core/src/net_state.c.obj
 .debug_frame   0x00001950      0x150 examples/light_switch/proxy_server/CMakeFiles/light_switch_proxy_server_nrf52832_xxAA_s132_6.0.0.dir/__/__/__/mesh/core/src/mesh_flash.c.obj
 .debug_frame   0x00001aa0       0x50 examples/light_switch/proxy_server/CMakeFiles/light_switch_proxy_server_nrf52832_xxAA_s132_6.0.0.dir/__/__/__/mesh/core/src/nrf_mesh_utils.c.obj
 .debug_frame   0x00001af0      0x190 examples/light_switch/proxy_server/CMakeFiles/light_switch_proxy_server_nrf52832_xxAA_s132_6.0.0.dir/__/__/__/mesh/core/src/nrf_mesh.c.obj
 .debug_frame   0x00001c80       0x74 examples/light_switch/proxy_server/CMakeFiles/light_switch_proxy_server_nrf52832_xxAA_s132_6.0.0.dir/__/__/__/mesh/core/src/queue.c.obj
 .debug_frame   0x00001cf4       0x58 examples/light_switch/proxy_server/CMakeFiles/light_switch_proxy_server_nrf52832_xxAA_s132_6.0.0.dir/__/__/__/mesh/core/src/hal.c.obj
 .debug_frame   0x00001d4c       0xa4 examples/light_switch/proxy_server/CMakeFiles/light_switch_proxy_server_nrf52832_xxAA_s132_6.0.0.dir/__/__/__/mesh/core/src/aes_cmac.c.obj
 .debug_frame   0x00001df0      0x134 examples/light_switch/proxy_server/CMakeFiles/light_switch_proxy_server_nrf52832_xxAA_s132_6.0.0.dir/__/__/__/mesh/core/src/timer_scheduler.c.obj
 .debug_frame   0x00001f24      0x10c examples/light_switch/proxy_server/CMakeFiles/light_switch_proxy_server_nrf52832_xxAA_s132_6.0.0.dir/__/__/__/mesh/core/src/timer.c.obj
 .debug_frame   0x00002030       0x4c examples/light_switch/proxy_server/CMakeFiles/light_switch_proxy_server_nrf52832_xxAA_s132_6.0.0.dir/__/__/__/mesh/core/src/ticker.c.obj
 .debug_frame   0x0000207c       0x84 examples/light_switch/proxy_server/CMakeFiles/light_switch_proxy_server_nrf52832_xxAA_s132_6.0.0.dir/__/__/__/mesh/core/src/rand.c.obj
 .debug_frame   0x00002100       0x30 examples/light_switch/proxy_server/CMakeFiles/light_switch_proxy_server_nrf52832_xxAA_s132_6.0.0.dir/__/__/__/mesh/core/src/nrf_mesh_opt.c.obj
 .debug_frame   0x00002130      0x1a0 examples/light_switch/proxy_server/CMakeFiles/light_switch_proxy_server_nrf52832_xxAA_s132_6.0.0.dir/__/__/__/mesh/core/src/timeslot.c.obj
 .debug_frame   0x000022d0      0x1bc examples/light_switch/proxy_server/CMakeFiles/light_switch_proxy_server_nrf52832_xxAA_s132_6.0.0.dir/__/__/__/mesh/core/src/bearer_event.c.obj
 .debug_frame   0x0000248c      0x13c examples/light_switch/proxy_server/CMakeFiles/light_switch_proxy_server_nrf52832_xxAA_s132_6.0.0.dir/__/__/__/mesh/core/src/enc.c.obj
 .debug_frame   0x000025c8      0x100 examples/light_switch/proxy_server/CMakeFiles/light_switch_proxy_server_nrf52832_xxAA_s132_6.0.0.dir/__/__/__/mesh/core/src/network.c.obj
 .debug_frame   0x000026c8      0x114 examples/light_switch/proxy_server/CMakeFiles/light_switch_proxy_server_nrf52832_xxAA_s132_6.0.0.dir/__/__/__/mesh/core/src/net_packet.c.obj
 .debug_frame   0x000027dc       0xb4 examples/light_switch/proxy_server/CMakeFiles/light_switch_proxy_server_nrf52832_xxAA_s132_6.0.0.dir/__/__/__/mesh/core/src/msqueue.c.obj
 .debug_frame   0x00002890       0xb4 examples/light_switch/proxy_server/CMakeFiles/light_switch_proxy_server_nrf52832_xxAA_s132_6.0.0.dir/__/__/__/mesh/core/src/nrf_mesh_keygen.c.obj
 .debug_frame   0x00002944       0xb0 examples/light_switch/proxy_server/CMakeFiles/light_switch_proxy_server_nrf52832_xxAA_s132_6.0.0.dir/__/__/__/mesh/core/src/cache.c.obj
 .debug_frame   0x000029f4       0xc8 examples/light_switch/proxy_server/CMakeFiles/light_switch_proxy_server_nrf52832_xxAA_s132_6.0.0.dir/__/__/__/mesh/core/src/list.c.obj
 .debug_frame   0x00002abc       0xb0 examples/light_switch/proxy_server/CMakeFiles/light_switch_proxy_server_nrf52832_xxAA_s132_6.0.0.dir/__/__/__/mesh/core/src/log.c.obj
 .debug_frame   0x00002b6c      0x320 examples/light_switch/proxy_server/CMakeFiles/light_switch_proxy_server_nrf52832_xxAA_s132_6.0.0.dir/__/__/__/mesh/core/src/flash_manager.c.obj
 .debug_frame   0x00002e8c      0x10c examples/light_switch/proxy_server/CMakeFiles/light_switch_proxy_server_nrf52832_xxAA_s132_6.0.0.dir/__/__/__/mesh/core/src/ccm_soft.c.obj
 .debug_frame   0x00002f98       0x80 examples/light_switch/proxy_server/CMakeFiles/light_switch_proxy_server_nrf52832_xxAA_s132_6.0.0.dir/__/__/__/mesh/core/src/replay_cache.c.obj
 .debug_frame   0x00003018       0x60 examples/light_switch/proxy_server/CMakeFiles/light_switch_proxy_server_nrf52832_xxAA_s132_6.0.0.dir/__/__/__/mesh/core/src/beacon.c.obj
 .debug_frame   0x00003078       0x34 examples/light_switch/proxy_server/CMakeFiles/light_switch_proxy_server_nrf52832_xxAA_s132_6.0.0.dir/__/__/__/mesh/core/src/flash_manager_internal.c.obj
 .debug_frame   0x000030ac       0xf0 examples/light_switch/proxy_server/CMakeFiles/light_switch_proxy_server_nrf52832_xxAA_s132_6.0.0.dir/__/__/__/mesh/core/src/core_tx.c.obj
 .debug_frame   0x0000319c      0x160 examples/light_switch/proxy_server/CMakeFiles/light_switch_proxy_server_nrf52832_xxAA_s132_6.0.0.dir/__/__/__/mesh/core/src/heartbeat.c.obj
 .debug_frame   0x000032fc      0x138 examples/light_switch/proxy_server/CMakeFiles/light_switch_proxy_server_nrf52832_xxAA_s132_6.0.0.dir/__/__/__/mesh/core/src/net_beacon.c.obj
 .debug_frame   0x00003434       0x9c examples/light_switch/proxy_server/CMakeFiles/light_switch_proxy_server_nrf52832_xxAA_s132_6.0.0.dir/__/__/__/mesh/core/src/fsm.c.obj
 .debug_frame   0x000034d0      0x12c examples/light_switch/proxy_server/CMakeFiles/light_switch_proxy_server_nrf52832_xxAA_s132_6.0.0.dir/__/__/__/mesh/core/src/core_tx_adv.c.obj
 .debug_frame   0x000035fc       0x6c examples/light_switch/proxy_server/CMakeFiles/light_switch_proxy_server_nrf52832_xxAA_s132_6.0.0.dir/__/__/__/mesh/bearer/src/ad_listener.c.obj
 .debug_frame   0x00003668       0xa8 examples/light_switch/proxy_server/CMakeFiles/light_switch_proxy_server_nrf52832_xxAA_s132_6.0.0.dir/__/__/__/mesh/bearer/src/ad_type_filter.c.obj
 .debug_frame   0x00003710      0x268 examples/light_switch/proxy_server/CMakeFiles/light_switch_proxy_server_nrf52832_xxAA_s132_6.0.0.dir/__/__/__/mesh/bearer/src/advertiser.c.obj
 .debug_frame   0x00003978      0x158 examples/light_switch/proxy_server/CMakeFiles/light_switch_proxy_server_nrf52832_xxAA_s132_6.0.0.dir/__/__/__/mesh/bearer/src/bearer_handler.c.obj
 .debug_frame   0x00003ad0       0x70 examples/light_switch/proxy_server/CMakeFiles/light_switch_proxy_server_nrf52832_xxAA_s132_6.0.0.dir/__/__/__/mesh/bearer/src/broadcast.c.obj
 .debug_frame   0x00003b40       0x74 examples/light_switch/proxy_server/CMakeFiles/light_switch_proxy_server_nrf52832_xxAA_s132_6.0.0.dir/__/__/__/mesh/bearer/src/filter_engine.c.obj
 .debug_frame   0x00003bb4       0x94 examples/light_switch/proxy_server/CMakeFiles/light_switch_proxy_server_nrf52832_xxAA_s132_6.0.0.dir/__/__/__/mesh/bearer/src/radio_config.c.obj
 .debug_frame   0x00003c48      0x2a4 examples/light_switch/proxy_server/CMakeFiles/light_switch_proxy_server_nrf52832_xxAA_s132_6.0.0.dir/__/__/__/mesh/bearer/src/scanner.c.obj
 .debug_frame   0x00003eec      0x1ec examples/light_switch/proxy_server/CMakeFiles/light_switch_proxy_server_nrf52832_xxAA_s132_6.0.0.dir/__/__/__/mesh/gatt/src/mesh_gatt.c.obj
 .debug_frame   0x000040d8      0x2c8 examples/light_switch/proxy_server/CMakeFiles/light_switch_proxy_server_nrf52832_xxAA_s132_6.0.0.dir/__/__/__/mesh/gatt/src/proxy.c.obj
 .debug_frame   0x000043a0       0xa0 examples/light_switch/proxy_server/CMakeFiles/light_switch_proxy_server_nrf52832_xxAA_s132_6.0.0.dir/__/__/__/mesh/gatt/src/proxy_filter.c.obj
 .debug_frame   0x00004440       0xac examples/light_switch/proxy_server/CMakeFiles/light_switch_proxy_server_nrf52832_xxAA_s132_6.0.0.dir/__/__/__/models/simple_on_off/src/simple_on_off_server.c.obj
 .debug_frame   0x000044ec       0x40 examples/light_switch/proxy_server/CMakeFiles/light_switch_proxy_server_nrf52832_xxAA_s132_6.0.0.dir/__/__/__/models/config/src/composition_data.c.obj
 .debug_frame   0x0000452c      0x8f8 examples/light_switch/proxy_server/CMakeFiles/light_switch_proxy_server_nrf52832_xxAA_s132_6.0.0.dir/__/__/__/models/config/src/config_server.c.obj
 .debug_frame   0x00004e24       0x2c examples/light_switch/proxy_server/CMakeFiles/light_switch_proxy_server_nrf52832_xxAA_s132_6.0.0.dir/__/__/__/models/config/src/packed_index_list.c.obj
 .debug_frame   0x00004e50      0x2a0 examples/light_switch/proxy_server/CMakeFiles/light_switch_proxy_server_nrf52832_xxAA_s132_6.0.0.dir/__/__/__/models/health/src/health_server.c.obj
 .debug_frame   0x000050f0      0x114 examples/light_switch/proxy_server/CMakeFiles/light_switch_proxy_server_nrf52832_xxAA_s132_6.0.0.dir/__/__/__/mesh/access/src/access_publish.c.obj
 .debug_frame   0x00005204      0x5b0 examples/light_switch/proxy_server/CMakeFiles/light_switch_proxy_server_nrf52832_xxAA_s132_6.0.0.dir/__/__/__/mesh/access/src/access.c.obj
 .debug_frame   0x000057b4      0x124 examples/light_switch/proxy_server/CMakeFiles/light_switch_proxy_server_nrf52832_xxAA_s132_6.0.0.dir/__/__/__/mesh/access/src/access_reliable.c.obj
 .debug_frame   0x000058d8      0xaf4 examples/light_switch/proxy_server/CMakeFiles/light_switch_proxy_server_nrf52832_xxAA_s132_6.0.0.dir/__/__/__/mesh/access/src/device_state_manager.c.obj
 .debug_frame   0x000063cc      0x198 examples/light_switch/proxy_server/CMakeFiles/light_switch_proxy_server_nrf52832_xxAA_s132_6.0.0.dir/__/__/__/mesh/prov/src/prov_provisionee.c.obj
 .debug_frame   0x00006564      0x160 examples/light_switch/proxy_server/CMakeFiles/light_switch_proxy_server_nrf52832_xxAA_s132_6.0.0.dir/__/__/__/mesh/prov/src/nrf_mesh_prov.c.obj
 .debug_frame   0x000066c4      0x170 examples/light_switch/proxy_server/CMakeFiles/light_switch_proxy_server_nrf52832_xxAA_s132_6.0.0.dir/__/__/__/mesh/prov/src/provisioning.c.obj
 .debug_frame   0x00006834       0x84 examples/light_switch/proxy_server/CMakeFiles/light_switch_proxy_server_nrf52832_xxAA_s132_6.0.0.dir/__/__/__/mesh/prov/src/prov_beacon.c.obj
 .debug_frame   0x000068b8      0x150 examples/light_switch/proxy_server/CMakeFiles/light_switch_proxy_server_nrf52832_xxAA_s132_6.0.0.dir/__/__/__/mesh/prov/src/prov_utils.c.obj
 .debug_frame   0x00006a08      0x324 examples/light_switch/proxy_server/CMakeFiles/light_switch_proxy_server_nrf52832_xxAA_s132_6.0.0.dir/__/__/__/mesh/prov/src/prov_bearer_adv.c.obj
 .debug_frame   0x00006d2c       0x58 examples/light_switch/proxy_server/CMakeFiles/light_switch_proxy_server_nrf52832_xxAA_s132_6.0.0.dir/C_/b/nRF5_SDK_15.0.0_a53641a/modules/nrfx/mdk/system_nrf52.c.obj
 .debug_frame   0x00006d84       0x44 examples/light_switch/proxy_server/CMakeFiles/light_switch_proxy_server_nrf52832_xxAA_s132_6.0.0.dir/C_/b/nRF5_SDK_15.0.0_a53641a/components/libraries/util/app_error.c.obj
 .debug_frame   0x00006dc8       0x20 examples/light_switch/proxy_server/CMakeFiles/light_switch_proxy_server_nrf52832_xxAA_s132_6.0.0.dir/C_/b/nRF5_SDK_15.0.0_a53641a/components/libraries/util/app_error_handler_gcc.c.obj
 .debug_frame   0x00006de8      0x2d8 external/rtt/librtt_nrf52832_xxAA.a(SEGGER_RTT.c.obj)
 .debug_frame   0x000070c0       0xac external/rtt/librtt_nrf52832_xxAA.a(SEGGER_RTT_printf.c.obj)
 .debug_frame   0x0000716c      0x684 external/micro-ecc/libuECC_nrf52832_xxAA.a(uECC.c.obj)
 .debug_frame   0x000077f0       0x2c c:/mesh/arm_gcc/bin/../lib/gcc/arm-none-eabi/6.3.1/thumb/v7e-m/fpv4-sp/hard\libgcc.a(_aeabi_uldivmod.o)
 .debug_frame   0x0000781c       0x34 c:/mesh/arm_gcc/bin/../lib/gcc/arm-none-eabi/6.3.1/thumb/v7e-m/fpv4-sp/hard\libgcc.a(_udivmoddi4.o)
 .debug_frame   0x00007850       0x28 c:/mesh/arm_gcc/bin/../lib/gcc/arm-none-eabi/6.3.1/../../../../arm-none-eabi/lib/thumb/v7e-m/fpv4-sp/hard\libg_nano.a(lib_a-exit.o)
 .debug_frame   0x00007878       0x2c c:/mesh/arm_gcc/bin/../lib/gcc/arm-none-eabi/6.3.1/../../../../arm-none-eabi/lib/thumb/v7e-m/fpv4-sp/hard\libg_nano.a(lib_a-init.o)
 .debug_frame   0x000078a4       0x30 c:/mesh/arm_gcc/bin/../lib/gcc/arm-none-eabi/6.3.1/../../../../arm-none-eabi/lib/thumb/v7e-m/fpv4-sp/hard\libg_nano.a(lib_a-malloc.o)
 .debug_frame   0x000078d4       0x28 c:/mesh/arm_gcc/bin/../lib/gcc/arm-none-eabi/6.3.1/../../../../arm-none-eabi/lib/thumb/v7e-m/fpv4-sp/hard\libg_nano.a(lib_a-memcmp.o)
 .debug_frame   0x000078fc       0x28 c:/mesh/arm_gcc/bin/../lib/gcc/arm-none-eabi/6.3.1/../../../../arm-none-eabi/lib/thumb/v7e-m/fpv4-sp/hard\libg_nano.a(lib_a-memcpy-stub.o)
 .debug_frame   0x00007924       0x20 c:/mesh/arm_gcc/bin/../lib/gcc/arm-none-eabi/6.3.1/../../../../arm-none-eabi/lib/thumb/v7e-m/fpv4-sp/hard\libg_nano.a(lib_a-memset.o)
 .debug_frame   0x00007944       0x38 c:/mesh/arm_gcc/bin/../lib/gcc/arm-none-eabi/6.3.1/../../../../arm-none-eabi/lib/thumb/v7e-m/fpv4-sp/hard\libg_nano.a(lib_a-nano-freer.o)
 .debug_frame   0x0000797c       0x2c c:/mesh/arm_gcc/bin/../lib/gcc/arm-none-eabi/6.3.1/../../../../arm-none-eabi/lib/thumb/v7e-m/fpv4-sp/hard\libg_nano.a(lib_a-nano-mallocr.o)
 .debug_frame   0x000079a8       0x2c c:/mesh/arm_gcc/bin/../lib/gcc/arm-none-eabi/6.3.1/../../../../arm-none-eabi/lib/thumb/v7e-m/fpv4-sp/hard\libg_nano.a(lib_a-sbrkr.o)
 .debug_frame   0x000079d4       0x20 c:/mesh/arm_gcc/bin/../lib/gcc/arm-none-eabi/6.3.1/../../../../arm-none-eabi/lib/thumb/v7e-m/fpv4-sp/hard\libg_nano.a(lib_a-strcpy.o)
 .debug_frame   0x000079f4       0x34 c:/mesh/arm_gcc/bin/../lib/gcc/arm-none-eabi/6.3.1/../../../../arm-none-eabi/lib/thumb/v7e-m/fpv4-sp/hard\libg_nano.a(lib_a-strrchr.o)
 .debug_frame   0x00007a28       0x30 c:/mesh/arm_gcc/bin/../lib/gcc/arm-none-eabi/6.3.1/../../../../arm-none-eabi/lib/thumb/v7e-m/fpv4-sp/hard\libg_nano.a(lib_a-mlock.o)
 .debug_frame   0x00007a58       0x5c c:/mesh/arm_gcc/bin/../lib/gcc/arm-none-eabi/6.3.1/../../../../arm-none-eabi/lib/thumb/v7e-m/fpv4-sp/hard\libg_nano.a(lib_a-reent.o)
 .debug_frame   0x00007ab4       0x20 c:/mesh/arm_gcc/bin/../lib/gcc/arm-none-eabi/6.3.1/../../../../arm-none-eabi/lib/thumb/v7e-m/fpv4-sp/hard\libg_nano.a(lib_a-strchr.o)
 .debug_frame   0x00007ad4       0x20 c:/mesh/arm_gcc/bin/../lib/gcc/arm-none-eabi/6.3.1/../../../../arm-none-eabi/lib/thumb/v7e-m/fpv4-sp/hard\libnosys.a(sbrk.o)
 .debug_frame   0x00007af4       0x20 c:/mesh/arm_gcc/bin/../lib/gcc/arm-none-eabi/6.3.1/../../../../arm-none-eabi/lib/thumb/v7e-m/fpv4-sp/hard\libnosys.a(_exit.o)
