Archive member included to satisfy reference by file (symbol)

mesh/core/libmesh_core_nrf52840_xxAA.a(nrf_mesh_configure.c.obj)
                              examples/light_switch/client/CMakeFiles/light_switch_client_nrf52840_xxAA_s140_5.0.0-3.alpha.dir/__/__/__/mesh/prov/src/prov_beacon.c.obj (nrf_mesh_configure_device_uuid_get)
mesh/core/libmesh_core_nrf52840_xxAA.a(event.c.obj)
                              examples/light_switch/client/CMakeFiles/light_switch_client_nrf52840_xxAA_s140_5.0.0-3.alpha.dir/__/__/__/mesh/access/src/access.c.obj (event_handle)
mesh/core/libmesh_core_nrf52840_xxAA.a(packet_mgr.c.obj)
                              examples/light_switch/client/CMakeFiles/light_switch_client_nrf52840_xxAA_s140_5.0.0-3.alpha.dir/__/__/__/models/config/src/config_client.c.obj (packet_mgr_alloc)
mesh/core/libmesh_core_nrf52840_xxAA.a(net_state.c.obj)
                              examples/light_switch/client/CMakeFiles/light_switch_client_nrf52840_xxAA_s140_5.0.0-3.alpha.dir/__/__/__/mesh/access/src/device_state_manager.c.obj (net_state_flash_area_get)
mesh/core/libmesh_core_nrf52840_xxAA.a(nrf_mesh_utils.c.obj)
                              examples/light_switch/client/CMakeFiles/light_switch_client_nrf52840_xxAA_s140_5.0.0-3.alpha.dir/__/__/__/mesh/access/src/device_state_manager.c.obj (nrf_mesh_address_type_get)
mesh/core/libmesh_core_nrf52840_xxAA.a(nrf_mesh.c.obj)
                              examples/light_switch/client/CMakeFiles/light_switch_client_nrf52840_xxAA_s140_5.0.0-3.alpha.dir/__/__/nrf_mesh_sdk.c.obj (nrf_mesh_init)
mesh/core/libmesh_core_nrf52840_xxAA.a(hal.c.obj)
                              mesh/core/libmesh_core_nrf52840_xxAA.a(nrf_mesh.c.obj) (hal_lfclk_ppm_get)
mesh/core/libmesh_core_nrf52840_xxAA.a(timer_scheduler.c.obj)
                              mesh/core/libmesh_core_nrf52840_xxAA.a(nrf_mesh.c.obj) (timer_sch_init)
mesh/core/libmesh_core_nrf52840_xxAA.a(timer.c.obj)
                              mesh/core/libmesh_core_nrf52840_xxAA.a(timer_scheduler.c.obj) (timer_order_cb)
mesh/core/libmesh_core_nrf52840_xxAA.a(ticker.c.obj)
                              mesh/core/libmesh_core_nrf52840_xxAA.a(nrf_mesh.c.obj) (ticker_init)
mesh/core/libmesh_core_nrf52840_xxAA.a(rand.c.obj)
                              examples/light_switch/client/CMakeFiles/light_switch_client_nrf52840_xxAA_s140_5.0.0-3.alpha.dir/__/__/__/mesh/prov/src/prov_utils.c.obj (rand_hw_rng_get)
mesh/core/libmesh_core_nrf52840_xxAA.a(timeslot.c.obj)
                              mesh/core/libmesh_core_nrf52840_xxAA.a(nrf_mesh.c.obj) (timeslot_sd_event_handler)
mesh/core/libmesh_core_nrf52840_xxAA.a(bearer_event.c.obj)
                              mesh/core/libmesh_core_nrf52840_xxAA.a(nrf_mesh.c.obj) (bearer_event_init)
mesh/core/libmesh_core_nrf52840_xxAA.a(enc.c.obj)
                              examples/light_switch/client/CMakeFiles/light_switch_client_nrf52840_xxAA_s140_5.0.0-3.alpha.dir/__/__/__/mesh/prov/src/prov_utils.c.obj (enc_aes_cmac)
mesh/core/libmesh_core_nrf52840_xxAA.a(network.c.obj)
                              mesh/core/libmesh_core_nrf52840_xxAA.a(nrf_mesh.c.obj) (network_init)
mesh/core/libmesh_core_nrf52840_xxAA.a(nrf_mesh_keygen.c.obj)
                              examples/light_switch/client/CMakeFiles/light_switch_client_nrf52840_xxAA_s140_5.0.0-3.alpha.dir/__/__/__/mesh/access/src/device_state_manager.c.obj (nrf_mesh_keygen_aid)
mesh/core/libmesh_core_nrf52840_xxAA.a(list.c.obj)
                              mesh/core/libmesh_core_nrf52840_xxAA.a(event.c.obj) (list_add)
mesh/core/libmesh_core_nrf52840_xxAA.a(log.c.obj)
                              examples/light_switch/client/CMakeFiles/light_switch_client_nrf52840_xxAA_s140_5.0.0-3.alpha.dir/src/main.c.obj (log_callback_rtt)
mesh/core/libmesh_core_nrf52840_xxAA.a(flash_manager.c.obj)
                              mesh/core/libmesh_core_nrf52840_xxAA.a(nrf_mesh.c.obj) (flash_manager_init)
mesh/core/libmesh_core_nrf52840_xxAA.a(ccm_soft.c.obj)
                              mesh/core/libmesh_core_nrf52840_xxAA.a(enc.c.obj) (ccm_soft_encrypt)
mesh/core/libmesh_core_nrf52840_xxAA.a(beacon.c.obj)
                              mesh/core/libmesh_core_nrf52840_xxAA.a(nrf_mesh.c.obj) (beacon_init)
mesh/core/libmesh_core_nrf52840_xxAA.a(flash_manager_internal.c.obj)
                              mesh/core/libmesh_core_nrf52840_xxAA.a(flash_manager.c.obj) (entry_get)
mesh/core/libmesh_core_nrf52840_xxAA.a(core_tx.c.obj)
                              mesh/core/libmesh_core_nrf52840_xxAA.a(network.c.obj) (core_tx_packet_alloc)
mesh/core/libmesh_core_nrf52840_xxAA.a(heartbeat.c.obj)
                              mesh/core/libmesh_core_nrf52840_xxAA.a(network.c.obj) (heartbeat_on_feature_change_trigger)
mesh/core/libmesh_core_nrf52840_xxAA.a(net_beacon.c.obj)
                              mesh/core/libmesh_core_nrf52840_xxAA.a(network.c.obj) (net_beacon_init)
mesh/core/libmesh_core_nrf52840_xxAA.a(core_tx_adv.c.obj)
                              mesh/core/libmesh_core_nrf52840_xxAA.a(nrf_mesh.c.obj) (core_tx_adv_init)
mesh/core/libmesh_core_nrf52840_xxAA.a(ad_listener.c.obj)
                              mesh/core/libmesh_core_nrf52840_xxAA.a(nrf_mesh.c.obj) (ad_listener_subscribe)
mesh/core/libmesh_core_nrf52840_xxAA.a(ad_type_filter.c.obj)
                              mesh/core/libmesh_core_nrf52840_xxAA.a(ad_listener.c.obj) (bearer_adtype_filtering_set)
mesh/core/libmesh_core_nrf52840_xxAA.a(advertiser.c.obj)
                              mesh/core/libmesh_core_nrf52840_xxAA.a(nrf_mesh.c.obj) (advertiser_init)
mesh/core/libmesh_core_nrf52840_xxAA.a(bearer_handler.c.obj)
                              mesh/core/libmesh_core_nrf52840_xxAA.a(nrf_mesh.c.obj) (bearer_handler_init)
mesh/core/libmesh_core_nrf52840_xxAA.a(broadcast.c.obj)
                              mesh/core/libmesh_core_nrf52840_xxAA.a(advertiser.c.obj) (broadcast_send)
mesh/core/libmesh_core_nrf52840_xxAA.a(filter_engine.c.obj)
                              mesh/core/libmesh_core_nrf52840_xxAA.a(ad_type_filter.c.obj) (fen_filter_start)
mesh/core/libmesh_core_nrf52840_xxAA.a(radio_config.c.obj)
                              mesh/core/libmesh_core_nrf52840_xxAA.a(broadcast.c.obj) (radio_config_reset)
mesh/core/libmesh_core_nrf52840_xxAA.a(scanner.c.obj)
                              mesh/core/libmesh_core_nrf52840_xxAA.a(bearer_handler.c.obj) (scanner_radio_start)
mesh/core/libmesh_core_nrf52840_xxAA.a(internal_event.c.obj)
                              mesh/core/libmesh_core_nrf52840_xxAA.a(network.c.obj) (internal_event_push)
mesh/core/libmesh_core_nrf52840_xxAA.a(aes.c.obj)
                              mesh/core/libmesh_core_nrf52840_xxAA.a(enc.c.obj) (aes_encrypt)
mesh/core/libmesh_core_nrf52840_xxAA.a(msg_cache.c.obj)
                              mesh/core/libmesh_core_nrf52840_xxAA.a(nrf_mesh.c.obj) (msg_cache_init)
mesh/core/libmesh_core_nrf52840_xxAA.a(transport.c.obj)
                              mesh/core/libmesh_core_nrf52840_xxAA.a(nrf_mesh.c.obj) (transport_init)
mesh/core/libmesh_core_nrf52840_xxAA.a(packet_buffer.c.obj)
                              mesh/core/libmesh_core_nrf52840_xxAA.a(flash_manager.c.obj) (packet_buffer_init)
mesh/core/libmesh_core_nrf52840_xxAA.a(flash_manager_defrag.c.obj)
                              mesh/core/libmesh_core_nrf52840_xxAA.a(flash_manager.c.obj) (flash_manager_defrag_init)
mesh/core/libmesh_core_nrf52840_xxAA.a(fifo.c.obj)
                              mesh/core/libmesh_core_nrf52840_xxAA.a(bearer_event.c.obj) (fifo_init)
mesh/core/libmesh_core_nrf52840_xxAA.a(mesh_flash.c.obj)
                              mesh/core/libmesh_core_nrf52840_xxAA.a(flash_manager.c.obj) (mesh_flash_user_callback_set)
mesh/core/libmesh_core_nrf52840_xxAA.a(queue.c.obj)
                              mesh/core/libmesh_core_nrf52840_xxAA.a(bearer_event.c.obj) (queue_init)
mesh/core/libmesh_core_nrf52840_xxAA.a(aes_cmac.c.obj)
                              mesh/core/libmesh_core_nrf52840_xxAA.a(enc.c.obj) (aes_cmac)
mesh/core/libmesh_core_nrf52840_xxAA.a(nrf_mesh_opt.c.obj)
                              mesh/core/libmesh_core_nrf52840_xxAA.a(heartbeat.c.obj) (nrf_mesh_opt_get)
mesh/core/libmesh_core_nrf52840_xxAA.a(msqueue.c.obj)
                              mesh/core/libmesh_core_nrf52840_xxAA.a(mesh_flash.c.obj) (msq_get)
mesh/core/libmesh_core_nrf52840_xxAA.a(replay_cache.c.obj)
                              mesh/core/libmesh_core_nrf52840_xxAA.a(transport.c.obj) (replay_cache_add)
mesh/core/libmesh_core_nrf52840_xxAA.a(nrf_flash.c.obj)
                              mesh/core/libmesh_core_nrf52840_xxAA.a(mesh_flash.c.obj) (nrf_flash_erase)
external/rtt/librtt_nrf52840_xxAA.a(SEGGER_RTT.c.obj)
                              mesh/core/libmesh_core_nrf52840_xxAA.a(log.c.obj) (SEGGER_RTT_Write)
external/rtt/librtt_nrf52840_xxAA.a(SEGGER_RTT_printf.c.obj)
                              mesh/core/libmesh_core_nrf52840_xxAA.a(log.c.obj) (SEGGER_RTT_vprintf)
external/micro-ecc/libuECC_nrf52840_xxAA.a(uECC.c.obj)
                              examples/light_switch/client/CMakeFiles/light_switch_client_nrf52840_xxAA_s140_5.0.0-3.alpha.dir/__/__/__/mesh/prov/src/prov_utils.c.obj (uECC_secp256r1)
c:/a/gcc_arm/6/bin/../lib/gcc/arm-none-eabi/6.3.1/thumb/v7e-m/fpv4-sp/hard\libgcc.a(_aeabi_uldivmod.o)
                              examples/light_switch/client/CMakeFiles/light_switch_client_nrf52840_xxAA_s140_5.0.0-3.alpha.dir/__/__/common/src/rtt_input.c.obj (__aeabi_uldivmod)
c:/a/gcc_arm/6/bin/../lib/gcc/arm-none-eabi/6.3.1/thumb/v7e-m/fpv4-sp/hard\libgcc.a(_udivmoddi4.o)
                              c:/a/gcc_arm/6/bin/../lib/gcc/arm-none-eabi/6.3.1/thumb/v7e-m/fpv4-sp/hard\libgcc.a(_aeabi_uldivmod.o) (__udivmoddi4)
c:/a/gcc_arm/6/bin/../lib/gcc/arm-none-eabi/6.3.1/thumb/v7e-m/fpv4-sp/hard\libgcc.a(_dvmd_tls.o)
                              c:/a/gcc_arm/6/bin/../lib/gcc/arm-none-eabi/6.3.1/thumb/v7e-m/fpv4-sp/hard\libgcc.a(_aeabi_uldivmod.o) (__aeabi_ldiv0)
c:/a/gcc_arm/6/bin/../lib/gcc/arm-none-eabi/6.3.1/../../../../arm-none-eabi/lib/thumb/v7e-m/fpv4-sp/hard\libg_nano.a(lib_a-exit.o)
                              c:/a/gcc_arm/6/bin/../lib/gcc/arm-none-eabi/6.3.1/../../../../arm-none-eabi/lib/thumb/v7e-m/fpv4-sp/hard/crt0.o (exit)
c:/a/gcc_arm/6/bin/../lib/gcc/arm-none-eabi/6.3.1/../../../../arm-none-eabi/lib/thumb/v7e-m/fpv4-sp/hard\libg_nano.a(lib_a-impure.o)
                              c:/a/gcc_arm/6/bin/../lib/gcc/arm-none-eabi/6.3.1/../../../../arm-none-eabi/lib/thumb/v7e-m/fpv4-sp/hard\libg_nano.a(lib_a-exit.o) (_global_impure_ptr)
c:/a/gcc_arm/6/bin/../lib/gcc/arm-none-eabi/6.3.1/../../../../arm-none-eabi/lib/thumb/v7e-m/fpv4-sp/hard\libg_nano.a(lib_a-init.o)
                              c:/a/gcc_arm/6/bin/../lib/gcc/arm-none-eabi/6.3.1/../../../../arm-none-eabi/lib/thumb/v7e-m/fpv4-sp/hard/crt0.o (__libc_init_array)
c:/a/gcc_arm/6/bin/../lib/gcc/arm-none-eabi/6.3.1/../../../../arm-none-eabi/lib/thumb/v7e-m/fpv4-sp/hard\libg_nano.a(lib_a-malloc.o)
                              mesh/core/libmesh_core_nrf52840_xxAA.a(transport.c.obj) (malloc)
c:/a/gcc_arm/6/bin/../lib/gcc/arm-none-eabi/6.3.1/../../../../arm-none-eabi/lib/thumb/v7e-m/fpv4-sp/hard\libg_nano.a(lib_a-memcmp.o)
                              examples/light_switch/client/CMakeFiles/light_switch_client_nrf52840_xxAA_s140_5.0.0-3.alpha.dir/__/__/__/mesh/access/src/device_state_manager.c.obj (memcmp)
c:/a/gcc_arm/6/bin/../lib/gcc/arm-none-eabi/6.3.1/../../../../arm-none-eabi/lib/thumb/v7e-m/fpv4-sp/hard\libg_nano.a(lib_a-memcpy-stub.o)
                              examples/light_switch/client/CMakeFiles/light_switch_client_nrf52840_xxAA_s140_5.0.0-3.alpha.dir/__/__/__/models/config/src/config_client.c.obj (memcpy)
c:/a/gcc_arm/6/bin/../lib/gcc/arm-none-eabi/6.3.1/../../../../arm-none-eabi/lib/thumb/v7e-m/fpv4-sp/hard\libg_nano.a(lib_a-memset.o)
                              c:/a/gcc_arm/6/bin/../lib/gcc/arm-none-eabi/6.3.1/../../../../arm-none-eabi/lib/thumb/v7e-m/fpv4-sp/hard/crt0.o (memset)
c:/a/gcc_arm/6/bin/../lib/gcc/arm-none-eabi/6.3.1/../../../../arm-none-eabi/lib/thumb/v7e-m/fpv4-sp/hard\libg_nano.a(lib_a-nano-freer.o)
                              c:/a/gcc_arm/6/bin/../lib/gcc/arm-none-eabi/6.3.1/../../../../arm-none-eabi/lib/thumb/v7e-m/fpv4-sp/hard\libg_nano.a(lib_a-malloc.o) (_free_r)
c:/a/gcc_arm/6/bin/../lib/gcc/arm-none-eabi/6.3.1/../../../../arm-none-eabi/lib/thumb/v7e-m/fpv4-sp/hard\libg_nano.a(lib_a-nano-mallocr.o)
                              c:/a/gcc_arm/6/bin/../lib/gcc/arm-none-eabi/6.3.1/../../../../arm-none-eabi/lib/thumb/v7e-m/fpv4-sp/hard\libg_nano.a(lib_a-malloc.o) (_malloc_r)
c:/a/gcc_arm/6/bin/../lib/gcc/arm-none-eabi/6.3.1/../../../../arm-none-eabi/lib/thumb/v7e-m/fpv4-sp/hard\libg_nano.a(lib_a-sbrkr.o)
                              c:/a/gcc_arm/6/bin/../lib/gcc/arm-none-eabi/6.3.1/../../../../arm-none-eabi/lib/thumb/v7e-m/fpv4-sp/hard\libg_nano.a(lib_a-nano-mallocr.o) (_sbrk_r)
c:/a/gcc_arm/6/bin/../lib/gcc/arm-none-eabi/6.3.1/../../../../arm-none-eabi/lib/thumb/v7e-m/fpv4-sp/hard\libg_nano.a(lib_a-strcpy.o)
                              external/rtt/librtt_nrf52840_xxAA.a(SEGGER_RTT.c.obj) (strcpy)
c:/a/gcc_arm/6/bin/../lib/gcc/arm-none-eabi/6.3.1/../../../../arm-none-eabi/lib/thumb/v7e-m/fpv4-sp/hard\libg_nano.a(lib_a-strlen.o)
                              examples/light_switch/client/CMakeFiles/light_switch_client_nrf52840_xxAA_s140_5.0.0-3.alpha.dir/__/__/__/mesh/prov/src/prov_beacon.c.obj (strlen)
c:/a/gcc_arm/6/bin/../lib/gcc/arm-none-eabi/6.3.1/../../../../arm-none-eabi/lib/thumb/v7e-m/fpv4-sp/hard\libg_nano.a(lib_a-strrchr.o)
                              examples/light_switch/client/CMakeFiles/light_switch_client_nrf52840_xxAA_s140_5.0.0-3.alpha.dir/src/main.c.obj (strrchr)
c:/a/gcc_arm/6/bin/../lib/gcc/arm-none-eabi/6.3.1/../../../../arm-none-eabi/lib/thumb/v7e-m/fpv4-sp/hard\libg_nano.a(lib_a-mlock.o)
                              c:/a/gcc_arm/6/bin/../lib/gcc/arm-none-eabi/6.3.1/../../../../arm-none-eabi/lib/thumb/v7e-m/fpv4-sp/hard\libg_nano.a(lib_a-nano-freer.o) (__malloc_lock)
c:/a/gcc_arm/6/bin/../lib/gcc/arm-none-eabi/6.3.1/../../../../arm-none-eabi/lib/thumb/v7e-m/fpv4-sp/hard\libg_nano.a(lib_a-reent.o)
                              c:/a/gcc_arm/6/bin/../lib/gcc/arm-none-eabi/6.3.1/../../../../arm-none-eabi/lib/thumb/v7e-m/fpv4-sp/hard\libg_nano.a(lib_a-sbrkr.o) (errno)
c:/a/gcc_arm/6/bin/../lib/gcc/arm-none-eabi/6.3.1/../../../../arm-none-eabi/lib/thumb/v7e-m/fpv4-sp/hard\libg_nano.a(lib_a-strchr.o)
                              c:/a/gcc_arm/6/bin/../lib/gcc/arm-none-eabi/6.3.1/../../../../arm-none-eabi/lib/thumb/v7e-m/fpv4-sp/hard\libg_nano.a(lib_a-strrchr.o) (strchr)
c:/a/gcc_arm/6/bin/../lib/gcc/arm-none-eabi/6.3.1/../../../../arm-none-eabi/lib/thumb/v7e-m/fpv4-sp/hard\libnosys.a(sbrk.o)
                              c:/a/gcc_arm/6/bin/../lib/gcc/arm-none-eabi/6.3.1/../../../../arm-none-eabi/lib/thumb/v7e-m/fpv4-sp/hard\libg_nano.a(lib_a-sbrkr.o) (_sbrk)
c:/a/gcc_arm/6/bin/../lib/gcc/arm-none-eabi/6.3.1/../../../../arm-none-eabi/lib/thumb/v7e-m/fpv4-sp/hard\libnosys.a(_exit.o)
                              c:/a/gcc_arm/6/bin/../lib/gcc/arm-none-eabi/6.3.1/../../../../arm-none-eabi/lib/thumb/v7e-m/fpv4-sp/hard\libg_nano.a(lib_a-exit.o) (_exit)

Allocating common symbols
Common symbol       size              file

nrf_nvic_state      0xc               examples/light_switch/client/CMakeFiles/light_switch_client_nrf52840_xxAA_s140_5.0.0-3.alpha.dir/__/__/nrf_mesh_sdk.c.obj
errno               0x4               c:/a/gcc_arm/6/bin/../lib/gcc/arm-none-eabi/6.3.1/../../../../arm-none-eabi/lib/thumb/v7e-m/fpv4-sp/hard\libg_nano.a(lib_a-reent.o)
m_assertion_handler
                    0x4               mesh/core/libmesh_core_nrf52840_xxAA.a(nrf_mesh.c.obj)
_SEGGER_RTT         0x78              external/rtt/librtt_nrf52840_xxAA.a(SEGGER_RTT.c.obj)

Discarded input sections

 .text          0x00000000        0x0 c:/a/gcc_arm/6/bin/../lib/gcc/arm-none-eabi/6.3.1/thumb/v7e-m/fpv4-sp/hard/crti.o
 .data          0x00000000        0x0 c:/a/gcc_arm/6/bin/../lib/gcc/arm-none-eabi/6.3.1/thumb/v7e-m/fpv4-sp/hard/crti.o
 .bss           0x00000000        0x0 c:/a/gcc_arm/6/bin/../lib/gcc/arm-none-eabi/6.3.1/thumb/v7e-m/fpv4-sp/hard/crti.o
 .data          0x00000000        0x4 c:/a/gcc_arm/6/bin/../lib/gcc/arm-none-eabi/6.3.1/thumb/v7e-m/fpv4-sp/hard/crtbegin.o
 .data          0x00000000        0x0 c:/a/gcc_arm/6/bin/../lib/gcc/arm-none-eabi/6.3.1/../../../../arm-none-eabi/lib/thumb/v7e-m/fpv4-sp/hard/crt0.o
 .bss           0x00000000        0x0 c:/a/gcc_arm/6/bin/../lib/gcc/arm-none-eabi/6.3.1/../../../../arm-none-eabi/lib/thumb/v7e-m/fpv4-sp/hard/crt0.o
 .ARM.extab     0x00000000        0x0 c:/a/gcc_arm/6/bin/../lib/gcc/arm-none-eabi/6.3.1/../../../../arm-none-eabi/lib/thumb/v7e-m/fpv4-sp/hard/crt0.o
 .text          0x00000000        0x0 examples/light_switch/client/CMakeFiles/light_switch_client_nrf52840_xxAA_s140_5.0.0-3.alpha.dir/src/main.c.obj
 .data          0x00000000        0x0 examples/light_switch/client/CMakeFiles/light_switch_client_nrf52840_xxAA_s140_5.0.0-3.alpha.dir/src/main.c.obj
 .bss           0x00000000        0x0 examples/light_switch/client/CMakeFiles/light_switch_client_nrf52840_xxAA_s140_5.0.0-3.alpha.dir/src/main.c.obj
 .text          0x00000000        0x0 examples/light_switch/client/CMakeFiles/light_switch_client_nrf52840_xxAA_s140_5.0.0-3.alpha.dir/src/provisioner.c.obj
 .data          0x00000000        0x0 examples/light_switch/client/CMakeFiles/light_switch_client_nrf52840_xxAA_s140_5.0.0-3.alpha.dir/src/provisioner.c.obj
 .bss           0x00000000        0x0 examples/light_switch/client/CMakeFiles/light_switch_client_nrf52840_xxAA_s140_5.0.0-3.alpha.dir/src/provisioner.c.obj
 .text          0x00000000        0x0 examples/light_switch/client/CMakeFiles/light_switch_client_nrf52840_xxAA_s140_5.0.0-3.alpha.dir/__/__/nrf_mesh_sdk.c.obj
 .data          0x00000000        0x0 examples/light_switch/client/CMakeFiles/light_switch_client_nrf52840_xxAA_s140_5.0.0-3.alpha.dir/__/__/nrf_mesh_sdk.c.obj
 .bss           0x00000000        0x0 examples/light_switch/client/CMakeFiles/light_switch_client_nrf52840_xxAA_s140_5.0.0-3.alpha.dir/__/__/nrf_mesh_sdk.c.obj
 .text          0x00000000        0x0 examples/light_switch/client/CMakeFiles/light_switch_client_nrf52840_xxAA_s140_5.0.0-3.alpha.dir/__/__/common/src/rtt_input.c.obj
 .data          0x00000000        0x0 examples/light_switch/client/CMakeFiles/light_switch_client_nrf52840_xxAA_s140_5.0.0-3.alpha.dir/__/__/common/src/rtt_input.c.obj
 .bss           0x00000000        0x0 examples/light_switch/client/CMakeFiles/light_switch_client_nrf52840_xxAA_s140_5.0.0-3.alpha.dir/__/__/common/src/rtt_input.c.obj
 .text.rtt_input_disable
                0x00000000       0x24 examples/light_switch/client/CMakeFiles/light_switch_client_nrf52840_xxAA_s140_5.0.0-3.alpha.dir/__/__/common/src/rtt_input.c.obj
 .text          0x00000000        0x0 examples/light_switch/client/CMakeFiles/light_switch_client_nrf52840_xxAA_s140_5.0.0-3.alpha.dir/__/__/common/src/simple_hal.c.obj
 .data          0x00000000        0x0 examples/light_switch/client/CMakeFiles/light_switch_client_nrf52840_xxAA_s140_5.0.0-3.alpha.dir/__/__/common/src/simple_hal.c.obj
 .bss           0x00000000        0x0 examples/light_switch/client/CMakeFiles/light_switch_client_nrf52840_xxAA_s140_5.0.0-3.alpha.dir/__/__/common/src/simple_hal.c.obj
 .text.hal_led_mask_set
                0x00000000       0x12 examples/light_switch/client/CMakeFiles/light_switch_client_nrf52840_xxAA_s140_5.0.0-3.alpha.dir/__/__/common/src/simple_hal.c.obj
 .text          0x00000000        0x0 examples/light_switch/client/CMakeFiles/light_switch_client_nrf52840_xxAA_s140_5.0.0-3.alpha.dir/__/__/nrf_mesh_weak.c.obj
 .data          0x00000000        0x0 examples/light_switch/client/CMakeFiles/light_switch_client_nrf52840_xxAA_s140_5.0.0-3.alpha.dir/__/__/nrf_mesh_weak.c.obj
 .bss           0x00000000        0x0 examples/light_switch/client/CMakeFiles/light_switch_client_nrf52840_xxAA_s140_5.0.0-3.alpha.dir/__/__/nrf_mesh_weak.c.obj
 .text._weak_handler_ptr
                0x00000000        0x4 examples/light_switch/client/CMakeFiles/light_switch_client_nrf52840_xxAA_s140_5.0.0-3.alpha.dir/__/__/nrf_mesh_weak.c.obj
 .text          0x00000000        0x0 examples/light_switch/client/CMakeFiles/light_switch_client_nrf52840_xxAA_s140_5.0.0-3.alpha.dir/__/__/__/models/simple_on_off/src/simple_on_off_client.c.obj
 .data          0x00000000        0x0 examples/light_switch/client/CMakeFiles/light_switch_client_nrf52840_xxAA_s140_5.0.0-3.alpha.dir/__/__/__/models/simple_on_off/src/simple_on_off_client.c.obj
 .bss           0x00000000        0x0 examples/light_switch/client/CMakeFiles/light_switch_client_nrf52840_xxAA_s140_5.0.0-3.alpha.dir/__/__/__/models/simple_on_off/src/simple_on_off_client.c.obj
 .text.simple_on_off_client_get
                0x00000000       0x5c examples/light_switch/client/CMakeFiles/light_switch_client_nrf52840_xxAA_s140_5.0.0-3.alpha.dir/__/__/__/models/simple_on_off/src/simple_on_off_client.c.obj
 .text          0x00000000        0x0 examples/light_switch/client/CMakeFiles/light_switch_client_nrf52840_xxAA_s140_5.0.0-3.alpha.dir/__/__/__/models/config/src/config_client.c.obj
 .data          0x00000000        0x0 examples/light_switch/client/CMakeFiles/light_switch_client_nrf52840_xxAA_s140_5.0.0-3.alpha.dir/__/__/__/models/config/src/config_client.c.obj
 .bss           0x00000000        0x0 examples/light_switch/client/CMakeFiles/light_switch_client_nrf52840_xxAA_s140_5.0.0-3.alpha.dir/__/__/__/models/config/src/config_client.c.obj
 .text.config_client_appkey_delete
                0x00000000       0x6c examples/light_switch/client/CMakeFiles/light_switch_client_nrf52840_xxAA_s140_5.0.0-3.alpha.dir/__/__/__/models/config/src/config_client.c.obj
 .text.config_client_appkey_get
                0x00000000       0x5c examples/light_switch/client/CMakeFiles/light_switch_client_nrf52840_xxAA_s140_5.0.0-3.alpha.dir/__/__/__/models/config/src/config_client.c.obj
 .text.config_client_appkey_update
                0x00000000       0x74 examples/light_switch/client/CMakeFiles/light_switch_client_nrf52840_xxAA_s140_5.0.0-3.alpha.dir/__/__/__/models/config/src/config_client.c.obj
 .text.config_client_model_publication_get
                0x00000000       0x70 examples/light_switch/client/CMakeFiles/light_switch_client_nrf52840_xxAA_s140_5.0.0-3.alpha.dir/__/__/__/models/config/src/config_client.c.obj
 .text.config_client_net_beacon_get
                0x00000000       0x28 examples/light_switch/client/CMakeFiles/light_switch_client_nrf52840_xxAA_s140_5.0.0-3.alpha.dir/__/__/__/models/config/src/config_client.c.obj
 .text.config_client_net_beacon_set
                0x00000000       0x58 examples/light_switch/client/CMakeFiles/light_switch_client_nrf52840_xxAA_s140_5.0.0-3.alpha.dir/__/__/__/models/config/src/config_client.c.obj
 .text.config_client_default_ttl_get
                0x00000000        0xe examples/light_switch/client/CMakeFiles/light_switch_client_nrf52840_xxAA_s140_5.0.0-3.alpha.dir/__/__/__/models/config/src/config_client.c.obj
 .text.config_client_default_ttl_set
                0x00000000       0x60 examples/light_switch/client/CMakeFiles/light_switch_client_nrf52840_xxAA_s140_5.0.0-3.alpha.dir/__/__/__/models/config/src/config_client.c.obj
 .text.config_client_model_subscription_delete
                0x00000000       0x4c examples/light_switch/client/CMakeFiles/light_switch_client_nrf52840_xxAA_s140_5.0.0-3.alpha.dir/__/__/__/models/config/src/config_client.c.obj
 .text.config_client_model_subscription_delete_all
                0x00000000       0x70 examples/light_switch/client/CMakeFiles/light_switch_client_nrf52840_xxAA_s140_5.0.0-3.alpha.dir/__/__/__/models/config/src/config_client.c.obj
 .text.config_client_model_subscription_get
                0x00000000       0x7c examples/light_switch/client/CMakeFiles/light_switch_client_nrf52840_xxAA_s140_5.0.0-3.alpha.dir/__/__/__/models/config/src/config_client.c.obj
 .text.config_client_model_subscription_overwrite
                0x00000000       0x4c examples/light_switch/client/CMakeFiles/light_switch_client_nrf52840_xxAA_s140_5.0.0-3.alpha.dir/__/__/__/models/config/src/config_client.c.obj
 .text.config_client_relay_get
                0x00000000        0xe examples/light_switch/client/CMakeFiles/light_switch_client_nrf52840_xxAA_s140_5.0.0-3.alpha.dir/__/__/__/models/config/src/config_client.c.obj
 .text.config_client_relay_set
                0x00000000       0x74 examples/light_switch/client/CMakeFiles/light_switch_client_nrf52840_xxAA_s140_5.0.0-3.alpha.dir/__/__/__/models/config/src/config_client.c.obj
 .text.config_client_model_app_get
                0x00000000       0x7c examples/light_switch/client/CMakeFiles/light_switch_client_nrf52840_xxAA_s140_5.0.0-3.alpha.dir/__/__/__/models/config/src/config_client.c.obj
 .text.config_client_model_app_unbind
                0x00000000        0xe examples/light_switch/client/CMakeFiles/light_switch_client_nrf52840_xxAA_s140_5.0.0-3.alpha.dir/__/__/__/models/config/src/config_client.c.obj
 .text.config_client_netkey_add
                0x00000000       0x68 examples/light_switch/client/CMakeFiles/light_switch_client_nrf52840_xxAA_s140_5.0.0-3.alpha.dir/__/__/__/models/config/src/config_client.c.obj
 .text.config_client_netkey_delete
                0x00000000       0x5c examples/light_switch/client/CMakeFiles/light_switch_client_nrf52840_xxAA_s140_5.0.0-3.alpha.dir/__/__/__/models/config/src/config_client.c.obj
 .text.config_client_netkey_get
                0x00000000       0x28 examples/light_switch/client/CMakeFiles/light_switch_client_nrf52840_xxAA_s140_5.0.0-3.alpha.dir/__/__/__/models/config/src/config_client.c.obj
 .text.config_client_netkey_update
                0x00000000       0x68 examples/light_switch/client/CMakeFiles/light_switch_client_nrf52840_xxAA_s140_5.0.0-3.alpha.dir/__/__/__/models/config/src/config_client.c.obj
 .text.config_client_node_reset
                0x00000000       0x28 examples/light_switch/client/CMakeFiles/light_switch_client_nrf52840_xxAA_s140_5.0.0-3.alpha.dir/__/__/__/models/config/src/config_client.c.obj
 .text.config_client_key_refresh_phase_get
                0x00000000       0x5c examples/light_switch/client/CMakeFiles/light_switch_client_nrf52840_xxAA_s140_5.0.0-3.alpha.dir/__/__/__/models/config/src/config_client.c.obj
 .text.config_client_key_refresh_phase_set
                0x00000000       0x60 examples/light_switch/client/CMakeFiles/light_switch_client_nrf52840_xxAA_s140_5.0.0-3.alpha.dir/__/__/__/models/config/src/config_client.c.obj
 .text.config_client_friend_get
                0x00000000        0x4 examples/light_switch/client/CMakeFiles/light_switch_client_nrf52840_xxAA_s140_5.0.0-3.alpha.dir/__/__/__/models/config/src/config_client.c.obj
 .text.config_client_friend_set
                0x00000000        0x4 examples/light_switch/client/CMakeFiles/light_switch_client_nrf52840_xxAA_s140_5.0.0-3.alpha.dir/__/__/__/models/config/src/config_client.c.obj
 .text.config_client_gatt_proxy_get
                0x00000000        0x4 examples/light_switch/client/CMakeFiles/light_switch_client_nrf52840_xxAA_s140_5.0.0-3.alpha.dir/__/__/__/models/config/src/config_client.c.obj
 .text.config_client_gatt_proxy_set
                0x00000000        0x4 examples/light_switch/client/CMakeFiles/light_switch_client_nrf52840_xxAA_s140_5.0.0-3.alpha.dir/__/__/__/models/config/src/config_client.c.obj
 .text.config_client_node_identity_get
                0x00000000        0x4 examples/light_switch/client/CMakeFiles/light_switch_client_nrf52840_xxAA_s140_5.0.0-3.alpha.dir/__/__/__/models/config/src/config_client.c.obj
 .text.config_client_node_identity_set
                0x00000000        0x4 examples/light_switch/client/CMakeFiles/light_switch_client_nrf52840_xxAA_s140_5.0.0-3.alpha.dir/__/__/__/models/config/src/config_client.c.obj
 .text.config_client_heartbeat_publication_get
                0x00000000       0x26 examples/light_switch/client/CMakeFiles/light_switch_client_nrf52840_xxAA_s140_5.0.0-3.alpha.dir/__/__/__/models/config/src/config_client.c.obj
 .text.config_client_heartbeat_publication_set
                0x00000000       0x60 examples/light_switch/client/CMakeFiles/light_switch_client_nrf52840_xxAA_s140_5.0.0-3.alpha.dir/__/__/__/models/config/src/config_client.c.obj
 .text.config_client_heartbeat_subscription_get
                0x00000000       0x28 examples/light_switch/client/CMakeFiles/light_switch_client_nrf52840_xxAA_s140_5.0.0-3.alpha.dir/__/__/__/models/config/src/config_client.c.obj
 .text.config_client_heartbeat_subscription_set
                0x00000000       0x5c examples/light_switch/client/CMakeFiles/light_switch_client_nrf52840_xxAA_s140_5.0.0-3.alpha.dir/__/__/__/models/config/src/config_client.c.obj
 .text          0x00000000        0x0 examples/light_switch/client/CMakeFiles/light_switch_client_nrf52840_xxAA_s140_5.0.0-3.alpha.dir/__/__/__/models/health/src/health_client.c.obj
 .data          0x00000000        0x0 examples/light_switch/client/CMakeFiles/light_switch_client_nrf52840_xxAA_s140_5.0.0-3.alpha.dir/__/__/__/models/health/src/health_client.c.obj
 .bss           0x00000000        0x0 examples/light_switch/client/CMakeFiles/light_switch_client_nrf52840_xxAA_s140_5.0.0-3.alpha.dir/__/__/__/models/health/src/health_client.c.obj
 .text.reliable_status_cb
                0x00000000       0x2e examples/light_switch/client/CMakeFiles/light_switch_client_nrf52840_xxAA_s140_5.0.0-3.alpha.dir/__/__/__/models/health/src/health_client.c.obj
 .text.reliable_send
                0x00000000       0xc4 examples/light_switch/client/CMakeFiles/light_switch_client_nrf52840_xxAA_s140_5.0.0-3.alpha.dir/__/__/__/models/health/src/health_client.c.obj
 .text.health_client_fault_get
                0x00000000       0x1c examples/light_switch/client/CMakeFiles/light_switch_client_nrf52840_xxAA_s140_5.0.0-3.alpha.dir/__/__/__/models/health/src/health_client.c.obj
 .text.health_client_fault_clear
                0x00000000       0x50 examples/light_switch/client/CMakeFiles/light_switch_client_nrf52840_xxAA_s140_5.0.0-3.alpha.dir/__/__/__/models/health/src/health_client.c.obj
 .text.health_client_fault_test
                0x00000000       0x54 examples/light_switch/client/CMakeFiles/light_switch_client_nrf52840_xxAA_s140_5.0.0-3.alpha.dir/__/__/__/models/health/src/health_client.c.obj
 .text.health_client_period_get
                0x00000000       0x18 examples/light_switch/client/CMakeFiles/light_switch_client_nrf52840_xxAA_s140_5.0.0-3.alpha.dir/__/__/__/models/health/src/health_client.c.obj
 .text.health_client_period_set
                0x00000000       0x52 examples/light_switch/client/CMakeFiles/light_switch_client_nrf52840_xxAA_s140_5.0.0-3.alpha.dir/__/__/__/models/health/src/health_client.c.obj
 .text.health_client_attention_get
                0x00000000       0x18 examples/light_switch/client/CMakeFiles/light_switch_client_nrf52840_xxAA_s140_5.0.0-3.alpha.dir/__/__/__/models/health/src/health_client.c.obj
 .text.health_client_attention_set
                0x00000000       0x52 examples/light_switch/client/CMakeFiles/light_switch_client_nrf52840_xxAA_s140_5.0.0-3.alpha.dir/__/__/__/models/health/src/health_client.c.obj
 .text          0x00000000        0x0 examples/light_switch/client/CMakeFiles/light_switch_client_nrf52840_xxAA_s140_5.0.0-3.alpha.dir/__/__/__/mesh/access/src/access_publish.c.obj
 .data          0x00000000        0x0 examples/light_switch/client/CMakeFiles/light_switch_client_nrf52840_xxAA_s140_5.0.0-3.alpha.dir/__/__/__/mesh/access/src/access_publish.c.obj
 .bss           0x00000000        0x0 examples/light_switch/client/CMakeFiles/light_switch_client_nrf52840_xxAA_s140_5.0.0-3.alpha.dir/__/__/__/mesh/access/src/access_publish.c.obj
 .text.access_publish_period_set
                0x00000000       0x6c examples/light_switch/client/CMakeFiles/light_switch_client_nrf52840_xxAA_s140_5.0.0-3.alpha.dir/__/__/__/mesh/access/src/access_publish.c.obj
 .text.access_publish_period_get
                0x00000000       0x30 examples/light_switch/client/CMakeFiles/light_switch_client_nrf52840_xxAA_s140_5.0.0-3.alpha.dir/__/__/__/mesh/access/src/access_publish.c.obj
 .text          0x00000000        0x0 examples/light_switch/client/CMakeFiles/light_switch_client_nrf52840_xxAA_s140_5.0.0-3.alpha.dir/__/__/__/mesh/access/src/access.c.obj
 .data          0x00000000        0x0 examples/light_switch/client/CMakeFiles/light_switch_client_nrf52840_xxAA_s140_5.0.0-3.alpha.dir/__/__/__/mesh/access/src/access.c.obj
 .bss           0x00000000        0x0 examples/light_switch/client/CMakeFiles/light_switch_client_nrf52840_xxAA_s140_5.0.0-3.alpha.dir/__/__/__/mesh/access/src/access.c.obj
 .text.access_clear
                0x00000000       0x12 examples/light_switch/client/CMakeFiles/light_switch_client_nrf52840_xxAA_s140_5.0.0-3.alpha.dir/__/__/__/mesh/access/src/access.c.obj
 .text.access_model_reply
                0x00000000       0x12 examples/light_switch/client/CMakeFiles/light_switch_client_nrf52840_xxAA_s140_5.0.0-3.alpha.dir/__/__/__/mesh/access/src/access.c.obj
 .text.access_model_publish_period_set
                0x00000000       0x6c examples/light_switch/client/CMakeFiles/light_switch_client_nrf52840_xxAA_s140_5.0.0-3.alpha.dir/__/__/__/mesh/access/src/access.c.obj
 .text.access_model_publish_period_get
                0x00000000       0x3c examples/light_switch/client/CMakeFiles/light_switch_client_nrf52840_xxAA_s140_5.0.0-3.alpha.dir/__/__/__/mesh/access/src/access.c.obj
 .text.access_model_subscription_lists_share
                0x00000000       0x4c examples/light_switch/client/CMakeFiles/light_switch_client_nrf52840_xxAA_s140_5.0.0-3.alpha.dir/__/__/__/mesh/access/src/access.c.obj
 .text.access_model_subscription_add
                0x00000000       0x60 examples/light_switch/client/CMakeFiles/light_switch_client_nrf52840_xxAA_s140_5.0.0-3.alpha.dir/__/__/__/mesh/access/src/access.c.obj
 .text.access_model_subscription_remove
                0x00000000       0x60 examples/light_switch/client/CMakeFiles/light_switch_client_nrf52840_xxAA_s140_5.0.0-3.alpha.dir/__/__/__/mesh/access/src/access.c.obj
 .text.access_model_subscriptions_get
                0x00000000       0x7c examples/light_switch/client/CMakeFiles/light_switch_client_nrf52840_xxAA_s140_5.0.0-3.alpha.dir/__/__/__/mesh/access/src/access.c.obj
 .text.access_model_application_unbind
                0x00000000       0x50 examples/light_switch/client/CMakeFiles/light_switch_client_nrf52840_xxAA_s140_5.0.0-3.alpha.dir/__/__/__/mesh/access/src/access.c.obj
 .text.access_model_applications_get
                0x00000000       0x58 examples/light_switch/client/CMakeFiles/light_switch_client_nrf52840_xxAA_s140_5.0.0-3.alpha.dir/__/__/__/mesh/access/src/access.c.obj
 .text.access_model_publish_application_get
                0x00000000       0x28 examples/light_switch/client/CMakeFiles/light_switch_client_nrf52840_xxAA_s140_5.0.0-3.alpha.dir/__/__/__/mesh/access/src/access.c.obj
 .text.access_default_ttl_set
                0x00000000       0x10 examples/light_switch/client/CMakeFiles/light_switch_client_nrf52840_xxAA_s140_5.0.0-3.alpha.dir/__/__/__/mesh/access/src/access.c.obj
 .text.access_default_ttl_get
                0x00000000        0xc examples/light_switch/client/CMakeFiles/light_switch_client_nrf52840_xxAA_s140_5.0.0-3.alpha.dir/__/__/__/mesh/access/src/access.c.obj
 .text.access_model_publish_ttl_set
                0x00000000       0x40 examples/light_switch/client/CMakeFiles/light_switch_client_nrf52840_xxAA_s140_5.0.0-3.alpha.dir/__/__/__/mesh/access/src/access.c.obj
 .text.access_element_location_set
                0x00000000       0x2c examples/light_switch/client/CMakeFiles/light_switch_client_nrf52840_xxAA_s140_5.0.0-3.alpha.dir/__/__/__/mesh/access/src/access.c.obj
 .text.access_element_location_get
                0x00000000       0x20 examples/light_switch/client/CMakeFiles/light_switch_client_nrf52840_xxAA_s140_5.0.0-3.alpha.dir/__/__/__/mesh/access/src/access.c.obj
 .text.access_element_sig_model_count_get
                0x00000000       0x24 examples/light_switch/client/CMakeFiles/light_switch_client_nrf52840_xxAA_s140_5.0.0-3.alpha.dir/__/__/__/mesh/access/src/access.c.obj
 .text.access_element_vendor_model_count_get
                0x00000000       0x24 examples/light_switch/client/CMakeFiles/light_switch_client_nrf52840_xxAA_s140_5.0.0-3.alpha.dir/__/__/__/mesh/access/src/access.c.obj
 .text.access_model_id_get
                0x00000000       0x2c examples/light_switch/client/CMakeFiles/light_switch_client_nrf52840_xxAA_s140_5.0.0-3.alpha.dir/__/__/__/mesh/access/src/access.c.obj
 .text.access_handle_get
                0x00000000       0x50 examples/light_switch/client/CMakeFiles/light_switch_client_nrf52840_xxAA_s140_5.0.0-3.alpha.dir/__/__/__/mesh/access/src/access.c.obj
 .text.access_element_models_get
                0x00000000       0x50 examples/light_switch/client/CMakeFiles/light_switch_client_nrf52840_xxAA_s140_5.0.0-3.alpha.dir/__/__/__/mesh/access/src/access.c.obj
 .text          0x00000000        0x0 examples/light_switch/client/CMakeFiles/light_switch_client_nrf52840_xxAA_s140_5.0.0-3.alpha.dir/__/__/__/mesh/access/src/access_reliable.c.obj
 .data          0x00000000        0x0 examples/light_switch/client/CMakeFiles/light_switch_client_nrf52840_xxAA_s140_5.0.0-3.alpha.dir/__/__/__/mesh/access/src/access_reliable.c.obj
 .bss           0x00000000        0x0 examples/light_switch/client/CMakeFiles/light_switch_client_nrf52840_xxAA_s140_5.0.0-3.alpha.dir/__/__/__/mesh/access/src/access_reliable.c.obj
 .text.access_reliable_cancel_all
                0x00000000       0x34 examples/light_switch/client/CMakeFiles/light_switch_client_nrf52840_xxAA_s140_5.0.0-3.alpha.dir/__/__/__/mesh/access/src/access_reliable.c.obj
 .text.access_model_reliable_cancel
                0x00000000       0x44 examples/light_switch/client/CMakeFiles/light_switch_client_nrf52840_xxAA_s140_5.0.0-3.alpha.dir/__/__/__/mesh/access/src/access_reliable.c.obj
 .text          0x00000000        0x0 examples/light_switch/client/CMakeFiles/light_switch_client_nrf52840_xxAA_s140_5.0.0-3.alpha.dir/__/__/__/mesh/access/src/device_state_manager.c.obj
 .data          0x00000000        0x0 examples/light_switch/client/CMakeFiles/light_switch_client_nrf52840_xxAA_s140_5.0.0-3.alpha.dir/__/__/__/mesh/access/src/device_state_manager.c.obj
 .bss           0x00000000        0x0 examples/light_switch/client/CMakeFiles/light_switch_client_nrf52840_xxAA_s140_5.0.0-3.alpha.dir/__/__/__/mesh/access/src/device_state_manager.c.obj
 .text.add_address_virtual
                0x00000000       0x70 examples/light_switch/client/CMakeFiles/light_switch_client_nrf52840_xxAA_s140_5.0.0-3.alpha.dir/__/__/__/mesh/access/src/device_state_manager.c.obj
 .text.dsm_has_unflashed_data
                0x00000000       0x24 examples/light_switch/client/CMakeFiles/light_switch_client_nrf52840_xxAA_s140_5.0.0-3.alpha.dir/__/__/__/mesh/access/src/device_state_manager.c.obj
 .text.dsm_clear
                0x00000000       0x6c examples/light_switch/client/CMakeFiles/light_switch_client_nrf52840_xxAA_s140_5.0.0-3.alpha.dir/__/__/__/mesh/access/src/device_state_manager.c.obj
 .text.dsm_address_publish_virtual_add
                0x00000000        0x6 examples/light_switch/client/CMakeFiles/light_switch_client_nrf52840_xxAA_s140_5.0.0-3.alpha.dir/__/__/__/mesh/access/src/device_state_manager.c.obj
 .text.dsm_address_subscription_add
                0x00000000        0xc examples/light_switch/client/CMakeFiles/light_switch_client_nrf52840_xxAA_s140_5.0.0-3.alpha.dir/__/__/__/mesh/access/src/device_state_manager.c.obj
 .text.dsm_address_subscription_virtual_add
                0x00000000        0x6 examples/light_switch/client/CMakeFiles/light_switch_client_nrf52840_xxAA_s140_5.0.0-3.alpha.dir/__/__/__/mesh/access/src/device_state_manager.c.obj
 .text.dsm_address_subscription_count_get
                0x00000000       0x58 examples/light_switch/client/CMakeFiles/light_switch_client_nrf52840_xxAA_s140_5.0.0-3.alpha.dir/__/__/__/mesh/access/src/device_state_manager.c.obj
 .text.dsm_address_subscription_remove
                0x00000000       0x58 examples/light_switch/client/CMakeFiles/light_switch_client_nrf52840_xxAA_s140_5.0.0-3.alpha.dir/__/__/__/mesh/access/src/device_state_manager.c.obj
 .text.dsm_net_key_index_to_subnet_handle
                0x00000000       0x1c examples/light_switch/client/CMakeFiles/light_switch_client_nrf52840_xxAA_s140_5.0.0-3.alpha.dir/__/__/__/mesh/access/src/device_state_manager.c.obj
 .text.dsm_subnet_handle_get
                0x00000000        0xc examples/light_switch/client/CMakeFiles/light_switch_client_nrf52840_xxAA_s140_5.0.0-3.alpha.dir/__/__/__/mesh/access/src/device_state_manager.c.obj
 .text.dsm_subnet_handle_to_netkey_index
                0x00000000       0x30 examples/light_switch/client/CMakeFiles/light_switch_client_nrf52840_xxAA_s140_5.0.0-3.alpha.dir/__/__/__/mesh/access/src/device_state_manager.c.obj
 .text.dsm_appkey_index_to_appkey_handle
                0x00000000       0x1c examples/light_switch/client/CMakeFiles/light_switch_client_nrf52840_xxAA_s140_5.0.0-3.alpha.dir/__/__/__/mesh/access/src/device_state_manager.c.obj
 .text.dsm_appkey_handle_to_appkey_index
                0x00000000       0x30 examples/light_switch/client/CMakeFiles/light_switch_client_nrf52840_xxAA_s140_5.0.0-3.alpha.dir/__/__/__/mesh/access/src/device_state_manager.c.obj
 .text.dsm_subnet_kr_phase_get
                0x00000000       0x2c examples/light_switch/client/CMakeFiles/light_switch_client_nrf52840_xxAA_s140_5.0.0-3.alpha.dir/__/__/__/mesh/access/src/device_state_manager.c.obj
 .text.dsm_subnet_update
                0x00000000       0xa4 examples/light_switch/client/CMakeFiles/light_switch_client_nrf52840_xxAA_s140_5.0.0-3.alpha.dir/__/__/__/mesh/access/src/device_state_manager.c.obj
 .text.dsm_appkey_update
                0x00000000       0x8c examples/light_switch/client/CMakeFiles/light_switch_client_nrf52840_xxAA_s140_5.0.0-3.alpha.dir/__/__/__/mesh/access/src/device_state_manager.c.obj
 .text.dsm_appkey_delete
                0x00000000       0x2c examples/light_switch/client/CMakeFiles/light_switch_client_nrf52840_xxAA_s140_5.0.0-3.alpha.dir/__/__/__/mesh/access/src/device_state_manager.c.obj
 .text.dsm_subnet_delete
                0x00000000       0x94 examples/light_switch/client/CMakeFiles/light_switch_client_nrf52840_xxAA_s140_5.0.0-3.alpha.dir/__/__/__/mesh/access/src/device_state_manager.c.obj
 .text.dsm_beacon_secmat_get
                0x00000000       0x2c examples/light_switch/client/CMakeFiles/light_switch_client_nrf52840_xxAA_s140_5.0.0-3.alpha.dir/__/__/__/mesh/access/src/device_state_manager.c.obj
 .text.dsm_net_secmat_from_keyindex_get
                0x00000000       0x30 examples/light_switch/client/CMakeFiles/light_switch_client_nrf52840_xxAA_s140_5.0.0-3.alpha.dir/__/__/__/mesh/access/src/device_state_manager.c.obj
 .text.dsm_proxy_identity_get
                0x00000000        0x4 examples/light_switch/client/CMakeFiles/light_switch_client_nrf52840_xxAA_s140_5.0.0-3.alpha.dir/__/__/__/mesh/access/src/device_state_manager.c.obj
 .text          0x00000000        0x0 examples/light_switch/client/CMakeFiles/light_switch_client_nrf52840_xxAA_s140_5.0.0-3.alpha.dir/__/__/__/mesh/prov/src/prov_provisioner.c.obj
 .data          0x00000000        0x0 examples/light_switch/client/CMakeFiles/light_switch_client_nrf52840_xxAA_s140_5.0.0-3.alpha.dir/__/__/__/mesh/prov/src/prov_provisioner.c.obj
 .bss           0x00000000        0x0 examples/light_switch/client/CMakeFiles/light_switch_client_nrf52840_xxAA_s140_5.0.0-3.alpha.dir/__/__/__/mesh/prov/src/prov_provisioner.c.obj
 .text.prov_provisioner_shared_secret
                0x00000000       0x28 examples/light_switch/client/CMakeFiles/light_switch_client_nrf52840_xxAA_s140_5.0.0-3.alpha.dir/__/__/__/mesh/prov/src/prov_provisioner.c.obj
 .text.prov_provisioner_oob_pubkey
                0x00000000       0x30 examples/light_switch/client/CMakeFiles/light_switch_client_nrf52840_xxAA_s140_5.0.0-3.alpha.dir/__/__/__/mesh/prov/src/prov_provisioner.c.obj
 .text          0x00000000        0x0 examples/light_switch/client/CMakeFiles/light_switch_client_nrf52840_xxAA_s140_5.0.0-3.alpha.dir/__/__/__/mesh/prov/src/nrf_mesh_prov.c.obj
 .data          0x00000000        0x0 examples/light_switch/client/CMakeFiles/light_switch_client_nrf52840_xxAA_s140_5.0.0-3.alpha.dir/__/__/__/mesh/prov/src/nrf_mesh_prov.c.obj
 .bss           0x00000000        0x0 examples/light_switch/client/CMakeFiles/light_switch_client_nrf52840_xxAA_s140_5.0.0-3.alpha.dir/__/__/__/mesh/prov/src/nrf_mesh_prov.c.obj
 .text.nrf_mesh_prov_listen
                0x00000000       0x30 examples/light_switch/client/CMakeFiles/light_switch_client_nrf52840_xxAA_s140_5.0.0-3.alpha.dir/__/__/__/mesh/prov/src/nrf_mesh_prov.c.obj
 .text.nrf_mesh_prov_shared_secret_provide
                0x00000000        0xe examples/light_switch/client/CMakeFiles/light_switch_client_nrf52840_xxAA_s140_5.0.0-3.alpha.dir/__/__/__/mesh/prov/src/nrf_mesh_prov.c.obj
 .text.nrf_mesh_prov_pubkey_provide
                0x00000000       0x10 examples/light_switch/client/CMakeFiles/light_switch_client_nrf52840_xxAA_s140_5.0.0-3.alpha.dir/__/__/__/mesh/prov/src/nrf_mesh_prov.c.obj
 .text.nrf_mesh_prov_scan_stop
                0x00000000        0x4 examples/light_switch/client/CMakeFiles/light_switch_client_nrf52840_xxAA_s140_5.0.0-3.alpha.dir/__/__/__/mesh/prov/src/nrf_mesh_prov.c.obj
 .text          0x00000000        0x0 examples/light_switch/client/CMakeFiles/light_switch_client_nrf52840_xxAA_s140_5.0.0-3.alpha.dir/__/__/__/mesh/prov/src/provisioning.c.obj
 .data          0x00000000        0x0 examples/light_switch/client/CMakeFiles/light_switch_client_nrf52840_xxAA_s140_5.0.0-3.alpha.dir/__/__/__/mesh/prov/src/provisioning.c.obj
 .bss           0x00000000        0x0 examples/light_switch/client/CMakeFiles/light_switch_client_nrf52840_xxAA_s140_5.0.0-3.alpha.dir/__/__/__/mesh/prov/src/provisioning.c.obj
 .text.prov_tx_capabilities
                0x00000000       0x1e examples/light_switch/client/CMakeFiles/light_switch_client_nrf52840_xxAA_s140_5.0.0-3.alpha.dir/__/__/__/mesh/prov/src/provisioning.c.obj
 .text.prov_tx_input_complete
                0x00000000       0x16 examples/light_switch/client/CMakeFiles/light_switch_client_nrf52840_xxAA_s140_5.0.0-3.alpha.dir/__/__/__/mesh/prov/src/provisioning.c.obj
 .text.prov_tx_complete
                0x00000000       0x16 examples/light_switch/client/CMakeFiles/light_switch_client_nrf52840_xxAA_s140_5.0.0-3.alpha.dir/__/__/__/mesh/prov/src/provisioning.c.obj
 .text.prov_tx_failed
                0x00000000       0x1a examples/light_switch/client/CMakeFiles/light_switch_client_nrf52840_xxAA_s140_5.0.0-3.alpha.dir/__/__/__/mesh/prov/src/provisioning.c.obj
 .text.prov_tx  0x00000000        0x4 examples/light_switch/client/CMakeFiles/light_switch_client_nrf52840_xxAA_s140_5.0.0-3.alpha.dir/__/__/__/mesh/prov/src/provisioning.c.obj
 .text          0x00000000        0x0 examples/light_switch/client/CMakeFiles/light_switch_client_nrf52840_xxAA_s140_5.0.0-3.alpha.dir/__/__/__/mesh/prov/src/prov_beacon.c.obj
 .data          0x00000000        0x0 examples/light_switch/client/CMakeFiles/light_switch_client_nrf52840_xxAA_s140_5.0.0-3.alpha.dir/__/__/__/mesh/prov/src/prov_beacon.c.obj
 .bss           0x00000000        0x0 examples/light_switch/client/CMakeFiles/light_switch_client_nrf52840_xxAA_s140_5.0.0-3.alpha.dir/__/__/__/mesh/prov/src/prov_beacon.c.obj
 .text.prov_beacon_scan_stop
                0x00000000        0xc examples/light_switch/client/CMakeFiles/light_switch_client_nrf52840_xxAA_s140_5.0.0-3.alpha.dir/__/__/__/mesh/prov/src/prov_beacon.c.obj
 .text          0x00000000        0x0 examples/light_switch/client/CMakeFiles/light_switch_client_nrf52840_xxAA_s140_5.0.0-3.alpha.dir/__/__/__/mesh/prov/src/prov_utils.c.obj
 .data          0x00000000        0x0 examples/light_switch/client/CMakeFiles/light_switch_client_nrf52840_xxAA_s140_5.0.0-3.alpha.dir/__/__/__/mesh/prov/src/prov_utils.c.obj
 .bss           0x00000000        0x0 examples/light_switch/client/CMakeFiles/light_switch_client_nrf52840_xxAA_s140_5.0.0-3.alpha.dir/__/__/__/mesh/prov/src/prov_utils.c.obj
 .text.prov_utils_opt_set
                0x00000000       0x20 examples/light_switch/client/CMakeFiles/light_switch_client_nrf52840_xxAA_s140_5.0.0-3.alpha.dir/__/__/__/mesh/prov/src/prov_utils.c.obj
 .text          0x00000000        0x0 examples/light_switch/client/CMakeFiles/light_switch_client_nrf52840_xxAA_s140_5.0.0-3.alpha.dir/__/__/__/mesh/prov/src/prov_bearer_adv.c.obj
 .data          0x00000000        0x0 examples/light_switch/client/CMakeFiles/light_switch_client_nrf52840_xxAA_s140_5.0.0-3.alpha.dir/__/__/__/mesh/prov/src/prov_bearer_adv.c.obj
 .bss           0x00000000        0x0 examples/light_switch/client/CMakeFiles/light_switch_client_nrf52840_xxAA_s140_5.0.0-3.alpha.dir/__/__/__/mesh/prov/src/prov_bearer_adv.c.obj
 .text          0x00000000        0x0 examples/light_switch/client/CMakeFiles/light_switch_client_nrf52840_xxAA_s140_5.0.0-3.alpha.dir/__/__/__/external/nRF5_SDK_14.2.0_17b948a/components/toolchain/system_nrf52840.c.obj
 .data          0x00000000        0x0 examples/light_switch/client/CMakeFiles/light_switch_client_nrf52840_xxAA_s140_5.0.0-3.alpha.dir/__/__/__/external/nRF5_SDK_14.2.0_17b948a/components/toolchain/system_nrf52840.c.obj
 .bss           0x00000000        0x0 examples/light_switch/client/CMakeFiles/light_switch_client_nrf52840_xxAA_s140_5.0.0-3.alpha.dir/__/__/__/external/nRF5_SDK_14.2.0_17b948a/components/toolchain/system_nrf52840.c.obj
 .text.SystemCoreClockUpdate
                0x00000000       0x10 examples/light_switch/client/CMakeFiles/light_switch_client_nrf52840_xxAA_s140_5.0.0-3.alpha.dir/__/__/__/external/nRF5_SDK_14.2.0_17b948a/components/toolchain/system_nrf52840.c.obj
 .data          0x00000000        0x0 examples/light_switch/client/CMakeFiles/light_switch_client_nrf52840_xxAA_s140_5.0.0-3.alpha.dir/__/__/__/external/nRF5_SDK_14.2.0_17b948a/components/toolchain/gcc/gcc_startup_nrf52840.S.obj
 .bss           0x00000000        0x0 examples/light_switch/client/CMakeFiles/light_switch_client_nrf52840_xxAA_s140_5.0.0-3.alpha.dir/__/__/__/external/nRF5_SDK_14.2.0_17b948a/components/toolchain/gcc/gcc_startup_nrf52840.S.obj
 .text          0x00000000        0x0 mesh/core/libmesh_core_nrf52840_xxAA.a(nrf_mesh_configure.c.obj)
 .data          0x00000000        0x0 mesh/core/libmesh_core_nrf52840_xxAA.a(nrf_mesh_configure.c.obj)
 .bss           0x00000000        0x0 mesh/core/libmesh_core_nrf52840_xxAA.a(nrf_mesh_configure.c.obj)
 .text.nrf_mesh_configure_device_uuid_set
                0x00000000       0x10 mesh/core/libmesh_core_nrf52840_xxAA.a(nrf_mesh_configure.c.obj)
 .text          0x00000000        0x0 mesh/core/libmesh_core_nrf52840_xxAA.a(event.c.obj)
 .data          0x00000000        0x0 mesh/core/libmesh_core_nrf52840_xxAA.a(event.c.obj)
 .bss           0x00000000        0x0 mesh/core/libmesh_core_nrf52840_xxAA.a(event.c.obj)
 .text          0x00000000        0x0 mesh/core/libmesh_core_nrf52840_xxAA.a(packet_mgr.c.obj)
 .data          0x00000000        0x0 mesh/core/libmesh_core_nrf52840_xxAA.a(packet_mgr.c.obj)
 .bss           0x00000000        0x0 mesh/core/libmesh_core_nrf52840_xxAA.a(packet_mgr.c.obj)
 .text.packet_mgr_get_free_space
                0x00000000       0x1c mesh/core/libmesh_core_nrf52840_xxAA.a(packet_mgr.c.obj)
 .text.packet_mgr_refcount_get
                0x00000000        0x6 mesh/core/libmesh_core_nrf52840_xxAA.a(packet_mgr.c.obj)
 .text.packet_mgr_size_get
                0x00000000        0x6 mesh/core/libmesh_core_nrf52840_xxAA.a(packet_mgr.c.obj)
 .text          0x00000000        0x0 mesh/core/libmesh_core_nrf52840_xxAA.a(net_state.c.obj)
 .data          0x00000000        0x0 mesh/core/libmesh_core_nrf52840_xxAA.a(net_state.c.obj)
 .bss           0x00000000        0x0 mesh/core/libmesh_core_nrf52840_xxAA.a(net_state.c.obj)
 .text.net_state_reset
                0x00000000       0x3c mesh/core/libmesh_core_nrf52840_xxAA.a(net_state.c.obj)
 .text.net_state_iv_update_test_mode_set
                0x00000000        0xc mesh/core/libmesh_core_nrf52840_xxAA.a(net_state.c.obj)
 .data.mem_listener.9912
                0x00000000       0x10 mesh/core/libmesh_core_nrf52840_xxAA.a(net_state.c.obj)
 .text          0x00000000        0x0 mesh/core/libmesh_core_nrf52840_xxAA.a(nrf_mesh_utils.c.obj)
 .data          0x00000000        0x0 mesh/core/libmesh_core_nrf52840_xxAA.a(nrf_mesh_utils.c.obj)
 .bss           0x00000000        0x0 mesh/core/libmesh_core_nrf52840_xxAA.a(nrf_mesh_utils.c.obj)
 .text.nrf_mesh_rand_get
                0x00000000       0x10 mesh/core/libmesh_core_nrf52840_xxAA.a(nrf_mesh_utils.c.obj)
 .text.nrf_mesh_gap_address_type_get
                0x00000000       0x3c mesh/core/libmesh_core_nrf52840_xxAA.a(nrf_mesh_utils.c.obj)
 .text          0x00000000        0x0 mesh/core/libmesh_core_nrf52840_xxAA.a(nrf_mesh.c.obj)
 .data          0x00000000        0x0 mesh/core/libmesh_core_nrf52840_xxAA.a(nrf_mesh.c.obj)
 .bss           0x00000000        0x0 mesh/core/libmesh_core_nrf52840_xxAA.a(nrf_mesh.c.obj)
 .text.nrf_mesh_disable
                0x00000000       0x28 mesh/core/libmesh_core_nrf52840_xxAA.a(nrf_mesh.c.obj)
 .text.nrf_mesh_process
                0x00000000        0x4 mesh/core/libmesh_core_nrf52840_xxAA.a(nrf_mesh.c.obj)
 .text.nrf_mesh_evt_handler_remove
                0x00000000        0x4 mesh/core/libmesh_core_nrf52840_xxAA.a(nrf_mesh.c.obj)
 .text.nrf_mesh_rx_cb_set
                0x00000000        0xc mesh/core/libmesh_core_nrf52840_xxAA.a(nrf_mesh.c.obj)
 .text.nrf_mesh_rx_cb_clear
                0x00000000        0xc mesh/core/libmesh_core_nrf52840_xxAA.a(nrf_mesh.c.obj)
 .text          0x00000000        0x0 mesh/core/libmesh_core_nrf52840_xxAA.a(hal.c.obj)
 .data          0x00000000        0x0 mesh/core/libmesh_core_nrf52840_xxAA.a(hal.c.obj)
 .bss           0x00000000        0x0 mesh/core/libmesh_core_nrf52840_xxAA.a(hal.c.obj)
 .text.sd_power_reset_reason_clr
                0x00000000        0x4 mesh/core/libmesh_core_nrf52840_xxAA.a(hal.c.obj)
 .text.hal_device_reset
                0x00000000       0x2c mesh/core/libmesh_core_nrf52840_xxAA.a(hal.c.obj)
 .text          0x00000000        0x0 mesh/core/libmesh_core_nrf52840_xxAA.a(timer_scheduler.c.obj)
 .data          0x00000000        0x0 mesh/core/libmesh_core_nrf52840_xxAA.a(timer_scheduler.c.obj)
 .bss           0x00000000        0x0 mesh/core/libmesh_core_nrf52840_xxAA.a(timer_scheduler.c.obj)
 .text          0x00000000        0x0 mesh/core/libmesh_core_nrf52840_xxAA.a(timer.c.obj)
 .data          0x00000000        0x0 mesh/core/libmesh_core_nrf52840_xxAA.a(timer.c.obj)
 .bss           0x00000000        0x0 mesh/core/libmesh_core_nrf52840_xxAA.a(timer.c.obj)
 .text.timer_order_cb_ppi
                0x00000000       0xc4 mesh/core/libmesh_core_nrf52840_xxAA.a(timer.c.obj)
 .text.timer_order_ppi
                0x00000000       0xc0 mesh/core/libmesh_core_nrf52840_xxAA.a(timer.c.obj)
 .text.timer_abort
                0x00000000       0x78 mesh/core/libmesh_core_nrf52840_xxAA.a(timer.c.obj)
 .text          0x00000000        0x0 mesh/core/libmesh_core_nrf52840_xxAA.a(ticker.c.obj)
 .data          0x00000000        0x0 mesh/core/libmesh_core_nrf52840_xxAA.a(ticker.c.obj)
 .bss           0x00000000        0x0 mesh/core/libmesh_core_nrf52840_xxAA.a(ticker.c.obj)
 .text.ticker_get
                0x00000000        0xc mesh/core/libmesh_core_nrf52840_xxAA.a(ticker.c.obj)
 .text          0x00000000        0x0 mesh/core/libmesh_core_nrf52840_xxAA.a(rand.c.obj)
 .data          0x00000000        0x0 mesh/core/libmesh_core_nrf52840_xxAA.a(rand.c.obj)
 .bss           0x00000000        0x0 mesh/core/libmesh_core_nrf52840_xxAA.a(rand.c.obj)
 .text          0x00000000        0x0 mesh/core/libmesh_core_nrf52840_xxAA.a(timeslot.c.obj)
 .data          0x00000000        0x0 mesh/core/libmesh_core_nrf52840_xxAA.a(timeslot.c.obj)
 .bss           0x00000000        0x0 mesh/core/libmesh_core_nrf52840_xxAA.a(timeslot.c.obj)
 .text.timeslot_end_time_get
                0x00000000       0x10 mesh/core/libmesh_core_nrf52840_xxAA.a(timeslot.c.obj)
 .text.timeslot_is_in_ts
                0x00000000        0xc mesh/core/libmesh_core_nrf52840_xxAA.a(timeslot.c.obj)
 .text.timeslot_restart
                0x00000000       0x10 mesh/core/libmesh_core_nrf52840_xxAA.a(timeslot.c.obj)
 .text          0x00000000        0x0 mesh/core/libmesh_core_nrf52840_xxAA.a(bearer_event.c.obj)
 .data          0x00000000        0x0 mesh/core/libmesh_core_nrf52840_xxAA.a(bearer_event.c.obj)
 .bss           0x00000000        0x0 mesh/core/libmesh_core_nrf52840_xxAA.a(bearer_event.c.obj)
 .text.bearer_event_generic_post
                0x00000000       0x30 mesh/core/libmesh_core_nrf52840_xxAA.a(bearer_event.c.obj)
 .text.bearer_event_timer_sch_post
                0x00000000       0x34 mesh/core/libmesh_core_nrf52840_xxAA.a(bearer_event.c.obj)
 .text.bearer_event_in_correct_irq_priority
                0x00000000       0x48 mesh/core/libmesh_core_nrf52840_xxAA.a(bearer_event.c.obj)
 .text          0x00000000        0x0 mesh/core/libmesh_core_nrf52840_xxAA.a(enc.c.obj)
 .data          0x00000000        0x0 mesh/core/libmesh_core_nrf52840_xxAA.a(enc.c.obj)
 .bss           0x00000000        0x0 mesh/core/libmesh_core_nrf52840_xxAA.a(enc.c.obj)
 .text.enc_key_generate
                0x00000000        0x6 mesh/core/libmesh_core_nrf52840_xxAA.a(enc.c.obj)
 .text          0x00000000        0x0 mesh/core/libmesh_core_nrf52840_xxAA.a(network.c.obj)
 .data          0x00000000        0x0 mesh/core/libmesh_core_nrf52840_xxAA.a(network.c.obj)
 .bss           0x00000000        0x0 mesh/core/libmesh_core_nrf52840_xxAA.a(network.c.obj)
 .text.network_opt_set
                0x00000000       0x68 mesh/core/libmesh_core_nrf52840_xxAA.a(network.c.obj)
 .text.network_packet_discard
                0x00000000       0x3c mesh/core/libmesh_core_nrf52840_xxAA.a(network.c.obj)
 .text          0x00000000        0x0 mesh/core/libmesh_core_nrf52840_xxAA.a(nrf_mesh_keygen.c.obj)
 .data          0x00000000        0x0 mesh/core/libmesh_core_nrf52840_xxAA.a(nrf_mesh_keygen.c.obj)
 .bss           0x00000000        0x0 mesh/core/libmesh_core_nrf52840_xxAA.a(nrf_mesh_keygen.c.obj)
 .text.nrf_mesh_keygen_identitykey
                0x00000000       0x4c mesh/core/libmesh_core_nrf52840_xxAA.a(nrf_mesh_keygen.c.obj)
 .text          0x00000000        0x0 mesh/core/libmesh_core_nrf52840_xxAA.a(list.c.obj)
 .data          0x00000000        0x0 mesh/core/libmesh_core_nrf52840_xxAA.a(list.c.obj)
 .bss           0x00000000        0x0 mesh/core/libmesh_core_nrf52840_xxAA.a(list.c.obj)
 .text.list_size_get
                0x00000000       0x12 mesh/core/libmesh_core_nrf52840_xxAA.a(list.c.obj)
 .text.list_sorted_add
                0x00000000       0x90 mesh/core/libmesh_core_nrf52840_xxAA.a(list.c.obj)
 .text          0x00000000        0x0 mesh/core/libmesh_core_nrf52840_xxAA.a(log.c.obj)
 .data          0x00000000        0x0 mesh/core/libmesh_core_nrf52840_xxAA.a(log.c.obj)
 .bss           0x00000000        0x0 mesh/core/libmesh_core_nrf52840_xxAA.a(log.c.obj)
 .text.log_callback_logview
                0x00000000       0x38 mesh/core/libmesh_core_nrf52840_xxAA.a(log.c.obj)
 .text.log_set_callback
                0x00000000        0xc mesh/core/libmesh_core_nrf52840_xxAA.a(log.c.obj)
 .rodata.log_callback_logview.str1.1
                0x00000000        0xf mesh/core/libmesh_core_nrf52840_xxAA.a(log.c.obj)
 .text          0x00000000        0x0 mesh/core/libmesh_core_nrf52840_xxAA.a(flash_manager.c.obj)
 .data          0x00000000        0x0 mesh/core/libmesh_core_nrf52840_xxAA.a(flash_manager.c.obj)
 .bss           0x00000000        0x0 mesh/core/libmesh_core_nrf52840_xxAA.a(flash_manager.c.obj)
 .text.flash_manager_entry_count_get
                0x00000000       0x5c mesh/core/libmesh_core_nrf52840_xxAA.a(flash_manager.c.obj)
 .text.flash_manager_entry_release
                0x00000000       0x12 mesh/core/libmesh_core_nrf52840_xxAA.a(flash_manager.c.obj)
 .text.flash_manager_action_queue_empty_cb_set
                0x00000000       0x28 mesh/core/libmesh_core_nrf52840_xxAA.a(flash_manager.c.obj)
 .text          0x00000000        0x0 mesh/core/libmesh_core_nrf52840_xxAA.a(ccm_soft.c.obj)
 .data          0x00000000        0x0 mesh/core/libmesh_core_nrf52840_xxAA.a(ccm_soft.c.obj)
 .bss           0x00000000        0x0 mesh/core/libmesh_core_nrf52840_xxAA.a(ccm_soft.c.obj)
 .text          0x00000000        0x0 mesh/core/libmesh_core_nrf52840_xxAA.a(beacon.c.obj)
 .data          0x00000000        0x0 mesh/core/libmesh_core_nrf52840_xxAA.a(beacon.c.obj)
 .bss           0x00000000        0x0 mesh/core/libmesh_core_nrf52840_xxAA.a(beacon.c.obj)
 .text          0x00000000        0x0 mesh/core/libmesh_core_nrf52840_xxAA.a(flash_manager_internal.c.obj)
 .data          0x00000000        0x0 mesh/core/libmesh_core_nrf52840_xxAA.a(flash_manager_internal.c.obj)
 .bss           0x00000000        0x0 mesh/core/libmesh_core_nrf52840_xxAA.a(flash_manager_internal.c.obj)
 .text          0x00000000        0x0 mesh/core/libmesh_core_nrf52840_xxAA.a(core_tx.c.obj)
 .data          0x00000000        0x0 mesh/core/libmesh_core_nrf52840_xxAA.a(core_tx.c.obj)
 .bss           0x00000000        0x0 mesh/core/libmesh_core_nrf52840_xxAA.a(core_tx.c.obj)
 .text          0x00000000        0x0 mesh/core/libmesh_core_nrf52840_xxAA.a(heartbeat.c.obj)
 .data          0x00000000        0x0 mesh/core/libmesh_core_nrf52840_xxAA.a(heartbeat.c.obj)
 .bss           0x00000000        0x0 mesh/core/libmesh_core_nrf52840_xxAA.a(heartbeat.c.obj)
 .text.heartbeat_on_feature_change_trigger
                0x00000000       0x50 mesh/core/libmesh_core_nrf52840_xxAA.a(heartbeat.c.obj)
 .text.heartbeat_subscription_set
                0x00000000       0x90 mesh/core/libmesh_core_nrf52840_xxAA.a(heartbeat.c.obj)
 .text.heartbeat_subscription_get
                0x00000000        0x8 mesh/core/libmesh_core_nrf52840_xxAA.a(heartbeat.c.obj)
 .text.heartbeat_config_server_cb_set
                0x00000000       0x3c mesh/core/libmesh_core_nrf52840_xxAA.a(heartbeat.c.obj)
 .text.heartbeat_publication_state_updated
                0x00000000       0x80 mesh/core/libmesh_core_nrf52840_xxAA.a(heartbeat.c.obj)
 .text          0x00000000        0x0 mesh/core/libmesh_core_nrf52840_xxAA.a(net_beacon.c.obj)
 .data          0x00000000        0x0 mesh/core/libmesh_core_nrf52840_xxAA.a(net_beacon.c.obj)
 .bss           0x00000000        0x0 mesh/core/libmesh_core_nrf52840_xxAA.a(net_beacon.c.obj)
 .text.net_beacon_state_set
                0x00000000       0x34 mesh/core/libmesh_core_nrf52840_xxAA.a(net_beacon.c.obj)
 .text.net_beacon_state_get
                0x00000000        0xc mesh/core/libmesh_core_nrf52840_xxAA.a(net_beacon.c.obj)
 .text          0x00000000        0x0 mesh/core/libmesh_core_nrf52840_xxAA.a(core_tx_adv.c.obj)
 .data          0x00000000        0x0 mesh/core/libmesh_core_nrf52840_xxAA.a(core_tx_adv.c.obj)
 .bss           0x00000000        0x0 mesh/core/libmesh_core_nrf52840_xxAA.a(core_tx_adv.c.obj)
 .text.core_tx_adv_count_set
                0x00000000       0x38 mesh/core/libmesh_core_nrf52840_xxAA.a(core_tx_adv.c.obj)
 .text.core_tx_adv_interval_set
                0x00000000       0x34 mesh/core/libmesh_core_nrf52840_xxAA.a(core_tx_adv.c.obj)
 .text.core_tx_adv_address_set
                0x00000000       0x34 mesh/core/libmesh_core_nrf52840_xxAA.a(core_tx_adv.c.obj)
 .text          0x00000000        0x0 mesh/core/libmesh_core_nrf52840_xxAA.a(ad_listener.c.obj)
 .data          0x00000000        0x0 mesh/core/libmesh_core_nrf52840_xxAA.a(ad_listener.c.obj)
 .bss           0x00000000        0x0 mesh/core/libmesh_core_nrf52840_xxAA.a(ad_listener.c.obj)
 .text.ad_listener_unsubscribe
                0x00000000       0x6c mesh/core/libmesh_core_nrf52840_xxAA.a(ad_listener.c.obj)
 .text          0x00000000        0x0 mesh/core/libmesh_core_nrf52840_xxAA.a(ad_type_filter.c.obj)
 .data          0x00000000        0x0 mesh/core/libmesh_core_nrf52840_xxAA.a(ad_type_filter.c.obj)
 .bss           0x00000000        0x0 mesh/core/libmesh_core_nrf52840_xxAA.a(ad_type_filter.c.obj)
 .text.bearer_adtype_remove
                0x00000000       0x20 mesh/core/libmesh_core_nrf52840_xxAA.a(ad_type_filter.c.obj)
 .text.bearer_adtype_clear
                0x00000000       0x10 mesh/core/libmesh_core_nrf52840_xxAA.a(ad_type_filter.c.obj)
 .text.bearer_invalid_length_amount_get
                0x00000000        0xc mesh/core/libmesh_core_nrf52840_xxAA.a(ad_type_filter.c.obj)
 .text.bearer_adtype_filtered_amount_get
                0x00000000        0xc mesh/core/libmesh_core_nrf52840_xxAA.a(ad_type_filter.c.obj)
 .text          0x00000000        0x0 mesh/core/libmesh_core_nrf52840_xxAA.a(advertiser.c.obj)
 .data          0x00000000        0x0 mesh/core/libmesh_core_nrf52840_xxAA.a(advertiser.c.obj)
 .bss           0x00000000        0x0 mesh/core/libmesh_core_nrf52840_xxAA.a(advertiser.c.obj)
 .text.advertiser_disable
                0x00000000        0xa mesh/core/libmesh_core_nrf52840_xxAA.a(advertiser.c.obj)
 .text.advertiser_channels_set
                0x00000000       0x84 mesh/core/libmesh_core_nrf52840_xxAA.a(advertiser.c.obj)
 .text.advertiser_address_set
                0x00000000       0x50 mesh/core/libmesh_core_nrf52840_xxAA.a(advertiser.c.obj)
 .text.advertiser_config_set
                0x00000000       0x44 mesh/core/libmesh_core_nrf52840_xxAA.a(advertiser.c.obj)
 .text.advertiser_config_get
                0x00000000       0x2c mesh/core/libmesh_core_nrf52840_xxAA.a(advertiser.c.obj)
 .text          0x00000000        0x0 mesh/core/libmesh_core_nrf52840_xxAA.a(bearer_handler.c.obj)
 .data          0x00000000        0x0 mesh/core/libmesh_core_nrf52840_xxAA.a(bearer_handler.c.obj)
 .bss           0x00000000        0x0 mesh/core/libmesh_core_nrf52840_xxAA.a(bearer_handler.c.obj)
 .text.bearer_handler_stop
                0x00000000       0x20 mesh/core/libmesh_core_nrf52840_xxAA.a(bearer_handler.c.obj)
 .text.bearer_handler_action_fire
                0x00000000       0xbc mesh/core/libmesh_core_nrf52840_xxAA.a(bearer_handler.c.obj)
 .text          0x00000000        0x0 mesh/core/libmesh_core_nrf52840_xxAA.a(broadcast.c.obj)
 .data          0x00000000        0x0 mesh/core/libmesh_core_nrf52840_xxAA.a(broadcast.c.obj)
 .bss           0x00000000        0x0 mesh/core/libmesh_core_nrf52840_xxAA.a(broadcast.c.obj)
 .text          0x00000000        0x0 mesh/core/libmesh_core_nrf52840_xxAA.a(filter_engine.c.obj)
 .data          0x00000000        0x0 mesh/core/libmesh_core_nrf52840_xxAA.a(filter_engine.c.obj)
 .bss           0x00000000        0x0 mesh/core/libmesh_core_nrf52840_xxAA.a(filter_engine.c.obj)
 .text.fen_accepted_amount_get
                0x00000000        0xc mesh/core/libmesh_core_nrf52840_xxAA.a(filter_engine.c.obj)
 .text          0x00000000        0x0 mesh/core/libmesh_core_nrf52840_xxAA.a(radio_config.c.obj)
 .data          0x00000000        0x0 mesh/core/libmesh_core_nrf52840_xxAA.a(radio_config.c.obj)
 .bss           0x00000000        0x0 mesh/core/libmesh_core_nrf52840_xxAA.a(radio_config.c.obj)
 .text.radio_config_access_addr_get
                0x00000000       0x64 mesh/core/libmesh_core_nrf52840_xxAA.a(radio_config.c.obj)
 .text          0x00000000        0x0 mesh/core/libmesh_core_nrf52840_xxAA.a(scanner.c.obj)
 .data          0x00000000        0x0 mesh/core/libmesh_core_nrf52840_xxAA.a(scanner.c.obj)
 .bss           0x00000000        0x0 mesh/core/libmesh_core_nrf52840_xxAA.a(scanner.c.obj)
 .text.scanner_rx_callback_set
                0x00000000       0x2c mesh/core/libmesh_core_nrf52840_xxAA.a(scanner.c.obj)
 .text.scanner_disable
                0x00000000       0x48 mesh/core/libmesh_core_nrf52840_xxAA.a(scanner.c.obj)
 .text.scanner_is_enabled
                0x00000000       0x10 mesh/core/libmesh_core_nrf52840_xxAA.a(scanner.c.obj)
 .text.scanner_stats_get
                0x00000000        0x8 mesh/core/libmesh_core_nrf52840_xxAA.a(scanner.c.obj)
 .text.scanner_config_radio_mode_set
                0x00000000       0x10 mesh/core/libmesh_core_nrf52840_xxAA.a(scanner.c.obj)
 .text          0x00000000        0x0 mesh/core/libmesh_core_nrf52840_xxAA.a(internal_event.c.obj)
 .data          0x00000000        0x0 mesh/core/libmesh_core_nrf52840_xxAA.a(internal_event.c.obj)
 .bss           0x00000000        0x0 mesh/core/libmesh_core_nrf52840_xxAA.a(internal_event.c.obj)
 .text.internal_event_init
                0x00000000       0x40 mesh/core/libmesh_core_nrf52840_xxAA.a(internal_event.c.obj)
 .text.internal_event_pop
                0x00000000       0x1c mesh/core/libmesh_core_nrf52840_xxAA.a(internal_event.c.obj)
 .bss.m_internal_event_fifo_buffer
                0x00000000      0x100 mesh/core/libmesh_core_nrf52840_xxAA.a(internal_event.c.obj)
 .text          0x00000000        0x0 mesh/core/libmesh_core_nrf52840_xxAA.a(aes.c.obj)
 .data          0x00000000        0x0 mesh/core/libmesh_core_nrf52840_xxAA.a(aes.c.obj)
 .bss           0x00000000        0x0 mesh/core/libmesh_core_nrf52840_xxAA.a(aes.c.obj)
 .text          0x00000000        0x0 mesh/core/libmesh_core_nrf52840_xxAA.a(msg_cache.c.obj)
 .data          0x00000000        0x0 mesh/core/libmesh_core_nrf52840_xxAA.a(msg_cache.c.obj)
 .bss           0x00000000        0x0 mesh/core/libmesh_core_nrf52840_xxAA.a(msg_cache.c.obj)
 .text.msg_cache_clear
                0x00000000       0x18 mesh/core/libmesh_core_nrf52840_xxAA.a(msg_cache.c.obj)
 .text          0x00000000        0x0 mesh/core/libmesh_core_nrf52840_xxAA.a(transport.c.obj)
 .data          0x00000000        0x0 mesh/core/libmesh_core_nrf52840_xxAA.a(transport.c.obj)
 .bss           0x00000000        0x0 mesh/core/libmesh_core_nrf52840_xxAA.a(transport.c.obj)
 .text.transport_sar_mem_funcs_set
                0x00000000       0x44 mesh/core/libmesh_core_nrf52840_xxAA.a(transport.c.obj)
 .text.transport_opt_set
                0x00000000       0xd0 mesh/core/libmesh_core_nrf52840_xxAA.a(transport.c.obj)
 .text          0x00000000        0x0 mesh/core/libmesh_core_nrf52840_xxAA.a(packet_buffer.c.obj)
 .data          0x00000000        0x0 mesh/core/libmesh_core_nrf52840_xxAA.a(packet_buffer.c.obj)
 .bss           0x00000000        0x0 mesh/core/libmesh_core_nrf52840_xxAA.a(packet_buffer.c.obj)
 .text.packet_buffer_max_packet_len_get
                0x00000000       0x34 mesh/core/libmesh_core_nrf52840_xxAA.a(packet_buffer.c.obj)
 .text          0x00000000        0x0 mesh/core/libmesh_core_nrf52840_xxAA.a(flash_manager_defrag.c.obj)
 .data          0x00000000        0x0 mesh/core/libmesh_core_nrf52840_xxAA.a(flash_manager_defrag.c.obj)
 .bss           0x00000000        0x0 mesh/core/libmesh_core_nrf52840_xxAA.a(flash_manager_defrag.c.obj)
 .text.flash_manager_defragging
                0x00000000       0x44 mesh/core/libmesh_core_nrf52840_xxAA.a(flash_manager_defrag.c.obj)
 .text          0x00000000        0x0 mesh/core/libmesh_core_nrf52840_xxAA.a(fifo.c.obj)
 .data          0x00000000        0x0 mesh/core/libmesh_core_nrf52840_xxAA.a(fifo.c.obj)
 .bss           0x00000000        0x0 mesh/core/libmesh_core_nrf52840_xxAA.a(fifo.c.obj)
 .text.fifo_peek_at
                0x00000000       0x50 mesh/core/libmesh_core_nrf52840_xxAA.a(fifo.c.obj)
 .text.fifo_peek
                0x00000000        0x6 mesh/core/libmesh_core_nrf52840_xxAA.a(fifo.c.obj)
 .text.fifo_flush
                0x00000000        0x6 mesh/core/libmesh_core_nrf52840_xxAA.a(fifo.c.obj)
 .text.fifo_get_len
                0x00000000        0x8 mesh/core/libmesh_core_nrf52840_xxAA.a(fifo.c.obj)
 .text.fifo_is_full
                0x00000000       0x10 mesh/core/libmesh_core_nrf52840_xxAA.a(fifo.c.obj)
 .text.fifo_is_empty
                0x00000000        0xc mesh/core/libmesh_core_nrf52840_xxAA.a(fifo.c.obj)
 .text          0x00000000        0x0 mesh/core/libmesh_core_nrf52840_xxAA.a(mesh_flash.c.obj)
 .data          0x00000000        0x0 mesh/core/libmesh_core_nrf52840_xxAA.a(mesh_flash.c.obj)
 .bss           0x00000000        0x0 mesh/core/libmesh_core_nrf52840_xxAA.a(mesh_flash.c.obj)
 .text.mesh_flash_op_available_slots
                0x00000000       0x2c mesh/core/libmesh_core_nrf52840_xxAA.a(mesh_flash.c.obj)
 .text.mesh_flash_in_progress
                0x00000000       0x34 mesh/core/libmesh_core_nrf52840_xxAA.a(mesh_flash.c.obj)
 .text.mesh_flash_set_suspended
                0x00000000       0x80 mesh/core/libmesh_core_nrf52840_xxAA.a(mesh_flash.c.obj)
 .bss.suspend_count.10223
                0x00000000        0x4 mesh/core/libmesh_core_nrf52840_xxAA.a(mesh_flash.c.obj)
 .text          0x00000000        0x0 mesh/core/libmesh_core_nrf52840_xxAA.a(queue.c.obj)
 .data          0x00000000        0x0 mesh/core/libmesh_core_nrf52840_xxAA.a(queue.c.obj)
 .bss           0x00000000        0x0 mesh/core/libmesh_core_nrf52840_xxAA.a(queue.c.obj)
 .text          0x00000000        0x0 mesh/core/libmesh_core_nrf52840_xxAA.a(aes_cmac.c.obj)
 .data          0x00000000        0x0 mesh/core/libmesh_core_nrf52840_xxAA.a(aes_cmac.c.obj)
 .bss           0x00000000        0x0 mesh/core/libmesh_core_nrf52840_xxAA.a(aes_cmac.c.obj)
 .text          0x00000000        0x0 mesh/core/libmesh_core_nrf52840_xxAA.a(nrf_mesh_opt.c.obj)
 .data          0x00000000        0x0 mesh/core/libmesh_core_nrf52840_xxAA.a(nrf_mesh_opt.c.obj)
 .bss           0x00000000        0x0 mesh/core/libmesh_core_nrf52840_xxAA.a(nrf_mesh_opt.c.obj)
 .text.nrf_mesh_opt_set
                0x00000000       0x26 mesh/core/libmesh_core_nrf52840_xxAA.a(nrf_mesh_opt.c.obj)
 .text          0x00000000        0x0 mesh/core/libmesh_core_nrf52840_xxAA.a(msqueue.c.obj)
 .data          0x00000000        0x0 mesh/core/libmesh_core_nrf52840_xxAA.a(msqueue.c.obj)
 .bss           0x00000000        0x0 mesh/core/libmesh_core_nrf52840_xxAA.a(msqueue.c.obj)
 .text          0x00000000        0x0 mesh/core/libmesh_core_nrf52840_xxAA.a(replay_cache.c.obj)
 .data          0x00000000        0x0 mesh/core/libmesh_core_nrf52840_xxAA.a(replay_cache.c.obj)
 .bss           0x00000000        0x0 mesh/core/libmesh_core_nrf52840_xxAA.a(replay_cache.c.obj)
 .text.replay_cache_on_iv_update
                0x00000000       0x24 mesh/core/libmesh_core_nrf52840_xxAA.a(replay_cache.c.obj)
 .text          0x00000000        0x0 mesh/core/libmesh_core_nrf52840_xxAA.a(nrf_flash.c.obj)
 .data          0x00000000        0x0 mesh/core/libmesh_core_nrf52840_xxAA.a(nrf_flash.c.obj)
 .bss           0x00000000        0x0 mesh/core/libmesh_core_nrf52840_xxAA.a(nrf_flash.c.obj)
 .text          0x00000000        0x0 external/rtt/librtt_nrf52840_xxAA.a(SEGGER_RTT.c.obj)
 .data          0x00000000        0x0 external/rtt/librtt_nrf52840_xxAA.a(SEGGER_RTT.c.obj)
 .bss           0x00000000        0x0 external/rtt/librtt_nrf52840_xxAA.a(SEGGER_RTT.c.obj)
 .text._PostTerminalSwitch.constprop.0
                0x00000000       0x28 external/rtt/librtt_nrf52840_xxAA.a(SEGGER_RTT.c.obj)
 .text.SEGGER_RTT_WriteSkipNoLock
                0x00000000       0xb4 external/rtt/librtt_nrf52840_xxAA.a(SEGGER_RTT.c.obj)
 .text.SEGGER_RTT_WriteString
                0x00000000       0x1a external/rtt/librtt_nrf52840_xxAA.a(SEGGER_RTT.c.obj)
 .text.SEGGER_RTT_WaitKey
                0x00000000        0xc external/rtt/librtt_nrf52840_xxAA.a(SEGGER_RTT.c.obj)
 .text.SEGGER_RTT_HasKey
                0x00000000       0x1c external/rtt/librtt_nrf52840_xxAA.a(SEGGER_RTT.c.obj)
 .text.SEGGER_RTT_HasData
                0x00000000       0x14 external/rtt/librtt_nrf52840_xxAA.a(SEGGER_RTT.c.obj)
 .text.SEGGER_RTT_AllocDownBuffer
                0x00000000       0x68 external/rtt/librtt_nrf52840_xxAA.a(SEGGER_RTT.c.obj)
 .text.SEGGER_RTT_AllocUpBuffer
                0x00000000       0x70 external/rtt/librtt_nrf52840_xxAA.a(SEGGER_RTT.c.obj)
 .text.SEGGER_RTT_ConfigUpBuffer
                0x00000000       0x68 external/rtt/librtt_nrf52840_xxAA.a(SEGGER_RTT.c.obj)
 .text.SEGGER_RTT_ConfigDownBuffer
                0x00000000       0x60 external/rtt/librtt_nrf52840_xxAA.a(SEGGER_RTT.c.obj)
 .text.SEGGER_RTT_SetNameUpBuffer
                0x00000000       0x3c external/rtt/librtt_nrf52840_xxAA.a(SEGGER_RTT.c.obj)
 .text.SEGGER_RTT_SetNameDownBuffer
                0x00000000       0x3c external/rtt/librtt_nrf52840_xxAA.a(SEGGER_RTT.c.obj)
 .text.SEGGER_RTT_Init
                0x00000000       0x10 external/rtt/librtt_nrf52840_xxAA.a(SEGGER_RTT.c.obj)
 .text.SEGGER_RTT_SetTerminal
                0x00000000       0x84 external/rtt/librtt_nrf52840_xxAA.a(SEGGER_RTT.c.obj)
 .text.SEGGER_RTT_TerminalOut
                0x00000000       0xa0 external/rtt/librtt_nrf52840_xxAA.a(SEGGER_RTT.c.obj)
 .bss._ActiveTerminal
                0x00000000        0x1 external/rtt/librtt_nrf52840_xxAA.a(SEGGER_RTT.c.obj)
 .rodata._aTerminalId
                0x00000000       0x10 external/rtt/librtt_nrf52840_xxAA.a(SEGGER_RTT.c.obj)
 .text          0x00000000        0x0 external/rtt/librtt_nrf52840_xxAA.a(SEGGER_RTT_printf.c.obj)
 .data          0x00000000        0x0 external/rtt/librtt_nrf52840_xxAA.a(SEGGER_RTT_printf.c.obj)
 .bss           0x00000000        0x0 external/rtt/librtt_nrf52840_xxAA.a(SEGGER_RTT_printf.c.obj)
 .text          0x00000000        0x0 external/micro-ecc/libuECC_nrf52840_xxAA.a(uECC.c.obj)
 .data          0x00000000        0x0 external/micro-ecc/libuECC_nrf52840_xxAA.a(uECC.c.obj)
 .bss           0x00000000        0x0 external/micro-ecc/libuECC_nrf52840_xxAA.a(uECC.c.obj)
 .text.uECC_vli_modMult
                0x00000000      0x148 external/micro-ecc/libuECC_nrf52840_xxAA.a(uECC.c.obj)
 .text.HMAC_init
                0x00000000       0x46 external/micro-ecc/libuECC_nrf52840_xxAA.a(uECC.c.obj)
 .text.HMAC_update
                0x00000000        0x4 external/micro-ecc/libuECC_nrf52840_xxAA.a(uECC.c.obj)
 .text.HMAC_finish
                0x00000000       0x62 external/micro-ecc/libuECC_nrf52840_xxAA.a(uECC.c.obj)
 .text.update_V
                0x00000000       0x24 external/micro-ecc/libuECC_nrf52840_xxAA.a(uECC.c.obj)
 .text.bits2int
                0x00000000       0x88 external/micro-ecc/libuECC_nrf52840_xxAA.a(uECC.c.obj)
 .text.uECC_sign_with_k
                0x00000000      0x17c external/micro-ecc/libuECC_nrf52840_xxAA.a(uECC.c.obj)
 .text.uECC_set_rng
                0x00000000        0xc external/micro-ecc/libuECC_nrf52840_xxAA.a(uECC.c.obj)
 .text.uECC_get_rng
                0x00000000        0xc external/micro-ecc/libuECC_nrf52840_xxAA.a(uECC.c.obj)
 .text.uECC_curve_private_key_size
                0x00000000        0xe external/micro-ecc/libuECC_nrf52840_xxAA.a(uECC.c.obj)
 .text.uECC_curve_public_key_size
                0x00000000        0x8 external/micro-ecc/libuECC_nrf52840_xxAA.a(uECC.c.obj)
 .text.uECC_compute_public_key
                0x00000000       0x7e external/micro-ecc/libuECC_nrf52840_xxAA.a(uECC.c.obj)
 .text.uECC_sign
                0x00000000       0x56 external/micro-ecc/libuECC_nrf52840_xxAA.a(uECC.c.obj)
 .text.uECC_sign_deterministic
                0x00000000      0x192 external/micro-ecc/libuECC_nrf52840_xxAA.a(uECC.c.obj)
 .text.uECC_verify
                0x00000000      0x2f0 external/micro-ecc/libuECC_nrf52840_xxAA.a(uECC.c.obj)
 .data          0x00000000        0x0 c:/a/gcc_arm/6/bin/../lib/gcc/arm-none-eabi/6.3.1/thumb/v7e-m/fpv4-sp/hard\libgcc.a(_aeabi_uldivmod.o)
 .bss           0x00000000        0x0 c:/a/gcc_arm/6/bin/../lib/gcc/arm-none-eabi/6.3.1/thumb/v7e-m/fpv4-sp/hard\libgcc.a(_aeabi_uldivmod.o)
 .data          0x00000000        0x0 c:/a/gcc_arm/6/bin/../lib/gcc/arm-none-eabi/6.3.1/thumb/v7e-m/fpv4-sp/hard\libgcc.a(_udivmoddi4.o)
 .bss           0x00000000        0x0 c:/a/gcc_arm/6/bin/../lib/gcc/arm-none-eabi/6.3.1/thumb/v7e-m/fpv4-sp/hard\libgcc.a(_udivmoddi4.o)
 .ARM.extab     0x00000000        0x0 c:/a/gcc_arm/6/bin/../lib/gcc/arm-none-eabi/6.3.1/thumb/v7e-m/fpv4-sp/hard\libgcc.a(_udivmoddi4.o)
 .data          0x00000000        0x0 c:/a/gcc_arm/6/bin/../lib/gcc/arm-none-eabi/6.3.1/thumb/v7e-m/fpv4-sp/hard\libgcc.a(_dvmd_tls.o)
 .bss           0x00000000        0x0 c:/a/gcc_arm/6/bin/../lib/gcc/arm-none-eabi/6.3.1/thumb/v7e-m/fpv4-sp/hard\libgcc.a(_dvmd_tls.o)
 .text          0x00000000        0x0 c:/a/gcc_arm/6/bin/../lib/gcc/arm-none-eabi/6.3.1/../../../../arm-none-eabi/lib/thumb/v7e-m/fpv4-sp/hard\libg_nano.a(lib_a-exit.o)
 .data          0x00000000        0x0 c:/a/gcc_arm/6/bin/../lib/gcc/arm-none-eabi/6.3.1/../../../../arm-none-eabi/lib/thumb/v7e-m/fpv4-sp/hard\libg_nano.a(lib_a-exit.o)
 .bss           0x00000000        0x0 c:/a/gcc_arm/6/bin/../lib/gcc/arm-none-eabi/6.3.1/../../../../arm-none-eabi/lib/thumb/v7e-m/fpv4-sp/hard\libg_nano.a(lib_a-exit.o)
 .text          0x00000000        0x0 c:/a/gcc_arm/6/bin/../lib/gcc/arm-none-eabi/6.3.1/../../../../arm-none-eabi/lib/thumb/v7e-m/fpv4-sp/hard\libg_nano.a(lib_a-impure.o)
 .data          0x00000000        0x0 c:/a/gcc_arm/6/bin/../lib/gcc/arm-none-eabi/6.3.1/../../../../arm-none-eabi/lib/thumb/v7e-m/fpv4-sp/hard\libg_nano.a(lib_a-impure.o)
 .bss           0x00000000        0x0 c:/a/gcc_arm/6/bin/../lib/gcc/arm-none-eabi/6.3.1/../../../../arm-none-eabi/lib/thumb/v7e-m/fpv4-sp/hard\libg_nano.a(lib_a-impure.o)
 .text          0x00000000        0x0 c:/a/gcc_arm/6/bin/../lib/gcc/arm-none-eabi/6.3.1/../../../../arm-none-eabi/lib/thumb/v7e-m/fpv4-sp/hard\libg_nano.a(lib_a-init.o)
 .data          0x00000000        0x0 c:/a/gcc_arm/6/bin/../lib/gcc/arm-none-eabi/6.3.1/../../../../arm-none-eabi/lib/thumb/v7e-m/fpv4-sp/hard\libg_nano.a(lib_a-init.o)
 .bss           0x00000000        0x0 c:/a/gcc_arm/6/bin/../lib/gcc/arm-none-eabi/6.3.1/../../../../arm-none-eabi/lib/thumb/v7e-m/fpv4-sp/hard\libg_nano.a(lib_a-init.o)
 .text          0x00000000        0x0 c:/a/gcc_arm/6/bin/../lib/gcc/arm-none-eabi/6.3.1/../../../../arm-none-eabi/lib/thumb/v7e-m/fpv4-sp/hard\libg_nano.a(lib_a-malloc.o)
 .data          0x00000000        0x0 c:/a/gcc_arm/6/bin/../lib/gcc/arm-none-eabi/6.3.1/../../../../arm-none-eabi/lib/thumb/v7e-m/fpv4-sp/hard\libg_nano.a(lib_a-malloc.o)
 .bss           0x00000000        0x0 c:/a/gcc_arm/6/bin/../lib/gcc/arm-none-eabi/6.3.1/../../../../arm-none-eabi/lib/thumb/v7e-m/fpv4-sp/hard\libg_nano.a(lib_a-malloc.o)
 .text          0x00000000        0x0 c:/a/gcc_arm/6/bin/../lib/gcc/arm-none-eabi/6.3.1/../../../../arm-none-eabi/lib/thumb/v7e-m/fpv4-sp/hard\libg_nano.a(lib_a-memcmp.o)
 .data          0x00000000        0x0 c:/a/gcc_arm/6/bin/../lib/gcc/arm-none-eabi/6.3.1/../../../../arm-none-eabi/lib/thumb/v7e-m/fpv4-sp/hard\libg_nano.a(lib_a-memcmp.o)
 .bss           0x00000000        0x0 c:/a/gcc_arm/6/bin/../lib/gcc/arm-none-eabi/6.3.1/../../../../arm-none-eabi/lib/thumb/v7e-m/fpv4-sp/hard\libg_nano.a(lib_a-memcmp.o)
 .text          0x00000000        0x0 c:/a/gcc_arm/6/bin/../lib/gcc/arm-none-eabi/6.3.1/../../../../arm-none-eabi/lib/thumb/v7e-m/fpv4-sp/hard\libg_nano.a(lib_a-memcpy-stub.o)
 .data          0x00000000        0x0 c:/a/gcc_arm/6/bin/../lib/gcc/arm-none-eabi/6.3.1/../../../../arm-none-eabi/lib/thumb/v7e-m/fpv4-sp/hard\libg_nano.a(lib_a-memcpy-stub.o)
 .bss           0x00000000        0x0 c:/a/gcc_arm/6/bin/../lib/gcc/arm-none-eabi/6.3.1/../../../../arm-none-eabi/lib/thumb/v7e-m/fpv4-sp/hard\libg_nano.a(lib_a-memcpy-stub.o)
 .text          0x00000000        0x0 c:/a/gcc_arm/6/bin/../lib/gcc/arm-none-eabi/6.3.1/../../../../arm-none-eabi/lib/thumb/v7e-m/fpv4-sp/hard\libg_nano.a(lib_a-memset.o)
 .data          0x00000000        0x0 c:/a/gcc_arm/6/bin/../lib/gcc/arm-none-eabi/6.3.1/../../../../arm-none-eabi/lib/thumb/v7e-m/fpv4-sp/hard\libg_nano.a(lib_a-memset.o)
 .bss           0x00000000        0x0 c:/a/gcc_arm/6/bin/../lib/gcc/arm-none-eabi/6.3.1/../../../../arm-none-eabi/lib/thumb/v7e-m/fpv4-sp/hard\libg_nano.a(lib_a-memset.o)
 .text          0x00000000        0x0 c:/a/gcc_arm/6/bin/../lib/gcc/arm-none-eabi/6.3.1/../../../../arm-none-eabi/lib/thumb/v7e-m/fpv4-sp/hard\libg_nano.a(lib_a-nano-freer.o)
 .data          0x00000000        0x0 c:/a/gcc_arm/6/bin/../lib/gcc/arm-none-eabi/6.3.1/../../../../arm-none-eabi/lib/thumb/v7e-m/fpv4-sp/hard\libg_nano.a(lib_a-nano-freer.o)
 .bss           0x00000000        0x0 c:/a/gcc_arm/6/bin/../lib/gcc/arm-none-eabi/6.3.1/../../../../arm-none-eabi/lib/thumb/v7e-m/fpv4-sp/hard\libg_nano.a(lib_a-nano-freer.o)
 .text          0x00000000        0x0 c:/a/gcc_arm/6/bin/../lib/gcc/arm-none-eabi/6.3.1/../../../../arm-none-eabi/lib/thumb/v7e-m/fpv4-sp/hard\libg_nano.a(lib_a-nano-mallocr.o)
 .data          0x00000000        0x0 c:/a/gcc_arm/6/bin/../lib/gcc/arm-none-eabi/6.3.1/../../../../arm-none-eabi/lib/thumb/v7e-m/fpv4-sp/hard\libg_nano.a(lib_a-nano-mallocr.o)
 .bss           0x00000000        0x0 c:/a/gcc_arm/6/bin/../lib/gcc/arm-none-eabi/6.3.1/../../../../arm-none-eabi/lib/thumb/v7e-m/fpv4-sp/hard\libg_nano.a(lib_a-nano-mallocr.o)
 .text          0x00000000        0x0 c:/a/gcc_arm/6/bin/../lib/gcc/arm-none-eabi/6.3.1/../../../../arm-none-eabi/lib/thumb/v7e-m/fpv4-sp/hard\libg_nano.a(lib_a-sbrkr.o)
 .data          0x00000000        0x0 c:/a/gcc_arm/6/bin/../lib/gcc/arm-none-eabi/6.3.1/../../../../arm-none-eabi/lib/thumb/v7e-m/fpv4-sp/hard\libg_nano.a(lib_a-sbrkr.o)
 .bss           0x00000000        0x0 c:/a/gcc_arm/6/bin/../lib/gcc/arm-none-eabi/6.3.1/../../../../arm-none-eabi/lib/thumb/v7e-m/fpv4-sp/hard\libg_nano.a(lib_a-sbrkr.o)
 .text          0x00000000        0x0 c:/a/gcc_arm/6/bin/../lib/gcc/arm-none-eabi/6.3.1/../../../../arm-none-eabi/lib/thumb/v7e-m/fpv4-sp/hard\libg_nano.a(lib_a-strcpy.o)
 .data          0x00000000        0x0 c:/a/gcc_arm/6/bin/../lib/gcc/arm-none-eabi/6.3.1/../../../../arm-none-eabi/lib/thumb/v7e-m/fpv4-sp/hard\libg_nano.a(lib_a-strcpy.o)
 .bss           0x00000000        0x0 c:/a/gcc_arm/6/bin/../lib/gcc/arm-none-eabi/6.3.1/../../../../arm-none-eabi/lib/thumb/v7e-m/fpv4-sp/hard\libg_nano.a(lib_a-strcpy.o)
 .data          0x00000000        0x0 c:/a/gcc_arm/6/bin/../lib/gcc/arm-none-eabi/6.3.1/../../../../arm-none-eabi/lib/thumb/v7e-m/fpv4-sp/hard\libg_nano.a(lib_a-strlen.o)
 .bss           0x00000000        0x0 c:/a/gcc_arm/6/bin/../lib/gcc/arm-none-eabi/6.3.1/../../../../arm-none-eabi/lib/thumb/v7e-m/fpv4-sp/hard\libg_nano.a(lib_a-strlen.o)
 .text          0x00000000        0x0 c:/a/gcc_arm/6/bin/../lib/gcc/arm-none-eabi/6.3.1/../../../../arm-none-eabi/lib/thumb/v7e-m/fpv4-sp/hard\libg_nano.a(lib_a-strrchr.o)
 .data          0x00000000        0x0 c:/a/gcc_arm/6/bin/../lib/gcc/arm-none-eabi/6.3.1/../../../../arm-none-eabi/lib/thumb/v7e-m/fpv4-sp/hard\libg_nano.a(lib_a-strrchr.o)
 .bss           0x00000000        0x0 c:/a/gcc_arm/6/bin/../lib/gcc/arm-none-eabi/6.3.1/../../../../arm-none-eabi/lib/thumb/v7e-m/fpv4-sp/hard\libg_nano.a(lib_a-strrchr.o)
 .text          0x00000000        0x0 c:/a/gcc_arm/6/bin/../lib/gcc/arm-none-eabi/6.3.1/../../../../arm-none-eabi/lib/thumb/v7e-m/fpv4-sp/hard\libg_nano.a(lib_a-mlock.o)
 .data          0x00000000        0x0 c:/a/gcc_arm/6/bin/../lib/gcc/arm-none-eabi/6.3.1/../../../../arm-none-eabi/lib/thumb/v7e-m/fpv4-sp/hard\libg_nano.a(lib_a-mlock.o)
 .bss           0x00000000        0x0 c:/a/gcc_arm/6/bin/../lib/gcc/arm-none-eabi/6.3.1/../../../../arm-none-eabi/lib/thumb/v7e-m/fpv4-sp/hard\libg_nano.a(lib_a-mlock.o)
 .text          0x00000000        0x0 c:/a/gcc_arm/6/bin/../lib/gcc/arm-none-eabi/6.3.1/../../../../arm-none-eabi/lib/thumb/v7e-m/fpv4-sp/hard\libg_nano.a(lib_a-reent.o)
 .data          0x00000000        0x0 c:/a/gcc_arm/6/bin/../lib/gcc/arm-none-eabi/6.3.1/../../../../arm-none-eabi/lib/thumb/v7e-m/fpv4-sp/hard\libg_nano.a(lib_a-reent.o)
 .bss           0x00000000        0x0 c:/a/gcc_arm/6/bin/../lib/gcc/arm-none-eabi/6.3.1/../../../../arm-none-eabi/lib/thumb/v7e-m/fpv4-sp/hard\libg_nano.a(lib_a-reent.o)
 .text.cleanup_glue
                0x00000000       0x1a c:/a/gcc_arm/6/bin/../lib/gcc/arm-none-eabi/6.3.1/../../../../arm-none-eabi/lib/thumb/v7e-m/fpv4-sp/hard\libg_nano.a(lib_a-reent.o)
 .text._reclaim_reent
                0x00000000       0xb8 c:/a/gcc_arm/6/bin/../lib/gcc/arm-none-eabi/6.3.1/../../../../arm-none-eabi/lib/thumb/v7e-m/fpv4-sp/hard\libg_nano.a(lib_a-reent.o)
 .text          0x00000000        0x0 c:/a/gcc_arm/6/bin/../lib/gcc/arm-none-eabi/6.3.1/../../../../arm-none-eabi/lib/thumb/v7e-m/fpv4-sp/hard\libg_nano.a(lib_a-strchr.o)
 .data          0x00000000        0x0 c:/a/gcc_arm/6/bin/../lib/gcc/arm-none-eabi/6.3.1/../../../../arm-none-eabi/lib/thumb/v7e-m/fpv4-sp/hard\libg_nano.a(lib_a-strchr.o)
 .bss           0x00000000        0x0 c:/a/gcc_arm/6/bin/../lib/gcc/arm-none-eabi/6.3.1/../../../../arm-none-eabi/lib/thumb/v7e-m/fpv4-sp/hard\libg_nano.a(lib_a-strchr.o)
 .text          0x00000000        0x0 c:/a/gcc_arm/6/bin/../lib/gcc/arm-none-eabi/6.3.1/thumb/v7e-m/fpv4-sp/hard/crtend.o
 .data          0x00000000        0x0 c:/a/gcc_arm/6/bin/../lib/gcc/arm-none-eabi/6.3.1/thumb/v7e-m/fpv4-sp/hard/crtend.o
 .bss           0x00000000        0x0 c:/a/gcc_arm/6/bin/../lib/gcc/arm-none-eabi/6.3.1/thumb/v7e-m/fpv4-sp/hard/crtend.o
 .text          0x00000000        0x0 c:/a/gcc_arm/6/bin/../lib/gcc/arm-none-eabi/6.3.1/thumb/v7e-m/fpv4-sp/hard/crtn.o
 .data          0x00000000        0x0 c:/a/gcc_arm/6/bin/../lib/gcc/arm-none-eabi/6.3.1/thumb/v7e-m/fpv4-sp/hard/crtn.o
 .bss           0x00000000        0x0 c:/a/gcc_arm/6/bin/../lib/gcc/arm-none-eabi/6.3.1/thumb/v7e-m/fpv4-sp/hard/crtn.o
 .text          0x00000000        0x0 c:/a/gcc_arm/6/bin/../lib/gcc/arm-none-eabi/6.3.1/../../../../arm-none-eabi/lib/thumb/v7e-m/fpv4-sp/hard\libnosys.a(sbrk.o)
 .data          0x00000000        0x0 c:/a/gcc_arm/6/bin/../lib/gcc/arm-none-eabi/6.3.1/../../../../arm-none-eabi/lib/thumb/v7e-m/fpv4-sp/hard\libnosys.a(sbrk.o)
 .bss           0x00000000        0x0 c:/a/gcc_arm/6/bin/../lib/gcc/arm-none-eabi/6.3.1/../../../../arm-none-eabi/lib/thumb/v7e-m/fpv4-sp/hard\libnosys.a(sbrk.o)
 .text          0x00000000        0x0 c:/a/gcc_arm/6/bin/../lib/gcc/arm-none-eabi/6.3.1/../../../../arm-none-eabi/lib/thumb/v7e-m/fpv4-sp/hard\libnosys.a(_exit.o)
 .data          0x00000000        0x0 c:/a/gcc_arm/6/bin/../lib/gcc/arm-none-eabi/6.3.1/../../../../arm-none-eabi/lib/thumb/v7e-m/fpv4-sp/hard\libnosys.a(_exit.o)
 .bss           0x00000000        0x0 c:/a/gcc_arm/6/bin/../lib/gcc/arm-none-eabi/6.3.1/../../../../arm-none-eabi/lib/thumb/v7e-m/fpv4-sp/hard\libnosys.a(_exit.o)

Memory Configuration

Name             Origin             Length             Attributes
FLASH            0x00024000         0x000d4000         xr
RAM              0x200031b8         0x0003cb48         xrw
*default*        0x00000000         0xffffffff

Linker script and memory map


.text           0x00024000    0x12458
 *(.isr_vector)
 .isr_vector    0x00024000      0x200 examples/light_switch/client/CMakeFiles/light_switch_client_nrf52840_xxAA_s140_5.0.0-3.alpha.dir/__/__/__/external/nRF5_SDK_14.2.0_17b948a/components/toolchain/gcc/gcc_startup_nrf52840.S.obj
                0x00024000                __isr_vector
 *(.text*)
 .text          0x00024200       0x6c c:/a/gcc_arm/6/bin/../lib/gcc/arm-none-eabi/6.3.1/thumb/v7e-m/fpv4-sp/hard/crtbegin.o
 .text          0x0002426c       0x74 c:/a/gcc_arm/6/bin/../lib/gcc/arm-none-eabi/6.3.1/../../../../arm-none-eabi/lib/thumb/v7e-m/fpv4-sp/hard/crt0.o
                0x0002426c                _start
                0x0002426c                _mainCRTStartup
 .text.sd_app_evt_wait
                0x000242e0        0x4 examples/light_switch/client/CMakeFiles/light_switch_client_nrf52840_xxAA_s140_5.0.0-3.alpha.dir/src/main.c.obj
 .text.client_status_cb
                0x000242e4       0x8c examples/light_switch/client/CMakeFiles/light_switch_client_nrf52840_xxAA_s140_5.0.0-3.alpha.dir/src/main.c.obj
 .text.button_event_handler
                0x00024370      0x1dc examples/light_switch/client/CMakeFiles/light_switch_client_nrf52840_xxAA_s140_5.0.0-3.alpha.dir/src/main.c.obj
 .text.rtt_input_handler
                0x0002454c        0xc examples/light_switch/client/CMakeFiles/light_switch_client_nrf52840_xxAA_s140_5.0.0-3.alpha.dir/src/main.c.obj
 .text.health_event_cb
                0x00024558       0x7c examples/light_switch/client/CMakeFiles/light_switch_client_nrf52840_xxAA_s140_5.0.0-3.alpha.dir/src/main.c.obj
 .text.provisioner_config_successful_cb
                0x000245d4      0x130 examples/light_switch/client/CMakeFiles/light_switch_client_nrf52840_xxAA_s140_5.0.0-3.alpha.dir/src/main.c.obj
                0x000245d4                provisioner_config_successful_cb
 .text.provisioner_config_failed_cb
                0x00024704       0xc0 examples/light_switch/client/CMakeFiles/light_switch_client_nrf52840_xxAA_s140_5.0.0-3.alpha.dir/src/main.c.obj
                0x00024704                provisioner_config_failed_cb
 .text.provisioner_prov_complete_cb
                0x000247c4      0x128 examples/light_switch/client/CMakeFiles/light_switch_client_nrf52840_xxAA_s140_5.0.0-3.alpha.dir/src/main.c.obj
                0x000247c4                provisioner_prov_complete_cb
 .text.startup.main
                0x000248ec      0x41c examples/light_switch/client/CMakeFiles/light_switch_client_nrf52840_xxAA_s140_5.0.0-3.alpha.dir/src/main.c.obj
                0x000248ec                main
 .text.do_config_step
                0x00024d08      0x3e8 examples/light_switch/client/CMakeFiles/light_switch_client_nrf52840_xxAA_s140_5.0.0-3.alpha.dir/src/provisioner.c.obj
 .text.prov_evt_handler
                0x000250f0      0x320 examples/light_switch/client/CMakeFiles/light_switch_client_nrf52840_xxAA_s140_5.0.0-3.alpha.dir/src/provisioner.c.obj
 .text.provisioner_configure
                0x00025410       0x20 examples/light_switch/client/CMakeFiles/light_switch_client_nrf52840_xxAA_s140_5.0.0-3.alpha.dir/src/provisioner.c.obj
                0x00025410                provisioner_configure
 .text.provisioner_wait_for_unprov
                0x00025430       0x14 examples/light_switch/client/CMakeFiles/light_switch_client_nrf52840_xxAA_s140_5.0.0-3.alpha.dir/src/provisioner.c.obj
                0x00025430                provisioner_wait_for_unprov
 .text.config_client_event_cb
                0x00025444      0x1f0 examples/light_switch/client/CMakeFiles/light_switch_client_nrf52840_xxAA_s140_5.0.0-3.alpha.dir/src/provisioner.c.obj
                0x00025444                config_client_event_cb
 .text.provisioner_init
                0x00025634       0x9c examples/light_switch/client/CMakeFiles/light_switch_client_nrf52840_xxAA_s140_5.0.0-3.alpha.dir/src/provisioner.c.obj
                0x00025634                provisioner_init
 .text.sd_evt_get
                0x000256d0        0x4 examples/light_switch/client/CMakeFiles/light_switch_client_nrf52840_xxAA_s140_5.0.0-3.alpha.dir/__/__/nrf_mesh_sdk.c.obj
 .text.sd_softdevice_enable
                0x000256d4        0x4 examples/light_switch/client/CMakeFiles/light_switch_client_nrf52840_xxAA_s140_5.0.0-3.alpha.dir/__/__/nrf_mesh_sdk.c.obj
 .text.sd_ble_enable
                0x000256d8        0x4 examples/light_switch/client/CMakeFiles/light_switch_client_nrf52840_xxAA_s140_5.0.0-3.alpha.dir/__/__/nrf_mesh_sdk.c.obj
 .text.sd_ble_evt_get
                0x000256dc        0x4 examples/light_switch/client/CMakeFiles/light_switch_client_nrf52840_xxAA_s140_5.0.0-3.alpha.dir/__/__/nrf_mesh_sdk.c.obj
 .text.sleep_forever
                0x000256e0       0x1c examples/light_switch/client/CMakeFiles/light_switch_client_nrf52840_xxAA_s140_5.0.0-3.alpha.dir/__/__/nrf_mesh_sdk.c.obj
 .text.mesh_assert_handler
                0x000256fc       0x70 examples/light_switch/client/CMakeFiles/light_switch_client_nrf52840_xxAA_s140_5.0.0-3.alpha.dir/__/__/nrf_mesh_sdk.c.obj
                0x000256fc                mesh_assert_handler
 .text.softdevice_assert_handler
                0x0002576c       0x78 examples/light_switch/client/CMakeFiles/light_switch_client_nrf52840_xxAA_s140_5.0.0-3.alpha.dir/__/__/nrf_mesh_sdk.c.obj
                0x0002576c                softdevice_assert_handler
 .text.app_error_handler
                0x000257e4       0x78 examples/light_switch/client/CMakeFiles/light_switch_client_nrf52840_xxAA_s140_5.0.0-3.alpha.dir/__/__/nrf_mesh_sdk.c.obj
                0x000257e4                app_error_handler
 .text.HardFault_Handler
                0x0002585c       0x6c examples/light_switch/client/CMakeFiles/light_switch_client_nrf52840_xxAA_s140_5.0.0-3.alpha.dir/__/__/nrf_mesh_sdk.c.obj
                0x0002585c                HardFault_Handler
 .text.SWI2_EGU2_IRQHandler
                0x000258c8       0x3c examples/light_switch/client/CMakeFiles/light_switch_client_nrf52840_xxAA_s140_5.0.0-3.alpha.dir/__/__/nrf_mesh_sdk.c.obj
                0x000258c8                SWI2_EGU2_IRQHandler
 .text.mesh_softdevice_enable
                0x00025904      0x124 examples/light_switch/client/CMakeFiles/light_switch_client_nrf52840_xxAA_s140_5.0.0-3.alpha.dir/__/__/nrf_mesh_sdk.c.obj
                0x00025904                mesh_softdevice_enable
 .text.mesh_softdevice_setup
                0x00025a28       0x78 examples/light_switch/client/CMakeFiles/light_switch_client_nrf52840_xxAA_s140_5.0.0-3.alpha.dir/__/__/nrf_mesh_sdk.c.obj
                0x00025a28                mesh_softdevice_setup
 .text.mesh_core_setup
                0x00025aa0      0x15c examples/light_switch/client/CMakeFiles/light_switch_client_nrf52840_xxAA_s140_5.0.0-3.alpha.dir/__/__/nrf_mesh_sdk.c.obj
                0x00025aa0                mesh_core_setup
 .text.TIMER2_IRQHandler
                0x00025bfc       0x30 examples/light_switch/client/CMakeFiles/light_switch_client_nrf52840_xxAA_s140_5.0.0-3.alpha.dir/__/__/common/src/rtt_input.c.obj
                0x00025bfc                TIMER2_IRQHandler
 .text.rtt_input_enable
                0x00025c2c       0x5c examples/light_switch/client/CMakeFiles/light_switch_client_nrf52840_xxAA_s140_5.0.0-3.alpha.dir/__/__/common/src/rtt_input.c.obj
                0x00025c2c                rtt_input_enable
 .text.hal_led_pin_get
                0x00025c88       0x18 examples/light_switch/client/CMakeFiles/light_switch_client_nrf52840_xxAA_s140_5.0.0-3.alpha.dir/__/__/common/src/simple_hal.c.obj
                0x00025c88                hal_led_pin_get
 .text.hal_led_pin_set
                0x00025ca0       0x16 examples/light_switch/client/CMakeFiles/light_switch_client_nrf52840_xxAA_s140_5.0.0-3.alpha.dir/__/__/common/src/simple_hal.c.obj
                0x00025ca0                hal_led_pin_set
 *fill*         0x00025cb6        0x2 
 .text.hal_led_blink_ms
                0x00025cb8       0xb4 examples/light_switch/client/CMakeFiles/light_switch_client_nrf52840_xxAA_s140_5.0.0-3.alpha.dir/__/__/common/src/simple_hal.c.obj
                0x00025cb8                hal_led_blink_ms
 .text.hal_leds_init
                0x00025d6c       0x38 examples/light_switch/client/CMakeFiles/light_switch_client_nrf52840_xxAA_s140_5.0.0-3.alpha.dir/__/__/common/src/simple_hal.c.obj
                0x00025d6c                hal_leds_init
 .text.hal_buttons_init
                0x00025da4       0x50 examples/light_switch/client/CMakeFiles/light_switch_client_nrf52840_xxAA_s140_5.0.0-3.alpha.dir/__/__/common/src/simple_hal.c.obj
                0x00025da4                hal_buttons_init
 .text.GPIOTE_IRQHandler
                0x00025df4       0x60 examples/light_switch/client/CMakeFiles/light_switch_client_nrf52840_xxAA_s140_5.0.0-3.alpha.dir/__/__/common/src/simple_hal.c.obj
                0x00025df4                GPIOTE_IRQHandler
 .text._weak_handler
                0x00025e54        0x4 examples/light_switch/client/CMakeFiles/light_switch_client_nrf52840_xxAA_s140_5.0.0-3.alpha.dir/__/__/nrf_mesh_weak.c.obj
                0x00025e54                nrf_mesh_dfu_init
                0x00025e54                nrf_mesh_dfu_jump_to_bootloader
                0x00025e54                nrf_mesh_dfu_rx
                0x00025e54                nrf_mesh_dfu_bank_info_get
                0x00025e54                nrf_mesh_dfu_request
                0x00025e54                nrf_mesh_dfu_bank_flash
                0x00025e54                _weak_handler
                0x00025e54                prov_provisionee_auth_data
                0x00025e54                nrf_mesh_dfu_relay
                0x00025e54                prov_provisionee_shared_secret
                0x00025e54                nrf_mesh_dfu_abort
                0x00025e54                mesh_flash_op_execute
                0x00025e54                prov_provisionee_init
                0x00025e54                nrf_mesh_dfu_state_get
 .text.reliable_status_cb
                0x00025e58       0x48 examples/light_switch/client/CMakeFiles/light_switch_client_nrf52840_xxAA_s140_5.0.0-3.alpha.dir/__/__/__/models/simple_on_off/src/simple_on_off_client.c.obj
 .text.handle_status_cb
                0x00025ea0       0x5c examples/light_switch/client/CMakeFiles/light_switch_client_nrf52840_xxAA_s140_5.0.0-3.alpha.dir/__/__/__/models/simple_on_off/src/simple_on_off_client.c.obj
 .text.simple_on_off_client_init
                0x00025efc       0x3c examples/light_switch/client/CMakeFiles/light_switch_client_nrf52840_xxAA_s140_5.0.0-3.alpha.dir/__/__/__/models/simple_on_off/src/simple_on_off_client.c.obj
                0x00025efc                simple_on_off_client_init
 .text.simple_on_off_client_set
                0x00025f38       0x70 examples/light_switch/client/CMakeFiles/light_switch_client_nrf52840_xxAA_s140_5.0.0-3.alpha.dir/__/__/__/models/simple_on_off/src/simple_on_off_client.c.obj
                0x00025f38                simple_on_off_client_set
 .text.simple_on_off_client_set_unreliable
                0x00025fa8       0x50 examples/light_switch/client/CMakeFiles/light_switch_client_nrf52840_xxAA_s140_5.0.0-3.alpha.dir/__/__/__/models/simple_on_off/src/simple_on_off_client.c.obj
                0x00025fa8                simple_on_off_client_set_unreliable
 .text.reliable_status_cb
                0x00025ff8       0x30 examples/light_switch/client/CMakeFiles/light_switch_client_nrf52840_xxAA_s140_5.0.0-3.alpha.dir/__/__/__/models/config/src/config_client.c.obj
 .text.send_reliable
                0x00026028       0x64 examples/light_switch/client/CMakeFiles/light_switch_client_nrf52840_xxAA_s140_5.0.0-3.alpha.dir/__/__/__/models/config/src/config_client.c.obj
 .text.subscription_add_del_owr_send.isra.1
                0x0002608c       0x6c examples/light_switch/client/CMakeFiles/light_switch_client_nrf52840_xxAA_s140_5.0.0-3.alpha.dir/__/__/__/models/config/src/config_client.c.obj
 .text.subscription_virtual_add_del_owr_send.isra.2
                0x000260f8       0x70 examples/light_switch/client/CMakeFiles/light_switch_client_nrf52840_xxAA_s140_5.0.0-3.alpha.dir/__/__/__/models/config/src/config_client.c.obj
 .text.client_in_wrong_state.constprop.3
                0x00026168       0x20 examples/light_switch/client/CMakeFiles/light_switch_client_nrf52840_xxAA_s140_5.0.0-3.alpha.dir/__/__/__/models/config/src/config_client.c.obj
 .text.app_bind_unbind_send
                0x00026188       0x80 examples/light_switch/client/CMakeFiles/light_switch_client_nrf52840_xxAA_s140_5.0.0-3.alpha.dir/__/__/__/models/config/src/config_client.c.obj
 .text.config_opcode_handler
                0x00026208       0x68 examples/light_switch/client/CMakeFiles/light_switch_client_nrf52840_xxAA_s140_5.0.0-3.alpha.dir/__/__/__/models/config/src/config_client.c.obj
 .text.config_client_init
                0x00026270       0x60 examples/light_switch/client/CMakeFiles/light_switch_client_nrf52840_xxAA_s140_5.0.0-3.alpha.dir/__/__/__/models/config/src/config_client.c.obj
                0x00026270                config_client_init
 .text.config_client_server_set
                0x000262d0       0x94 examples/light_switch/client/CMakeFiles/light_switch_client_nrf52840_xxAA_s140_5.0.0-3.alpha.dir/__/__/__/models/config/src/config_client.c.obj
                0x000262d0                config_client_server_set
 .text.config_client_server_bind
                0x00026364       0x30 examples/light_switch/client/CMakeFiles/light_switch_client_nrf52840_xxAA_s140_5.0.0-3.alpha.dir/__/__/__/models/config/src/config_client.c.obj
                0x00026364                config_client_server_bind
 .text.config_client_composition_data_get
                0x00026394       0x54 examples/light_switch/client/CMakeFiles/light_switch_client_nrf52840_xxAA_s140_5.0.0-3.alpha.dir/__/__/__/models/config/src/config_client.c.obj
                0x00026394                config_client_composition_data_get
 .text.config_client_appkey_add
                0x000263e8       0x94 examples/light_switch/client/CMakeFiles/light_switch_client_nrf52840_xxAA_s140_5.0.0-3.alpha.dir/__/__/__/models/config/src/config_client.c.obj
                0x000263e8                config_client_appkey_add
 .text.config_client_model_publication_set
                0x0002647c      0x180 examples/light_switch/client/CMakeFiles/light_switch_client_nrf52840_xxAA_s140_5.0.0-3.alpha.dir/__/__/__/models/config/src/config_client.c.obj
                0x0002647c                config_client_model_publication_set
 .text.config_client_model_subscription_add
                0x000265fc       0x4c examples/light_switch/client/CMakeFiles/light_switch_client_nrf52840_xxAA_s140_5.0.0-3.alpha.dir/__/__/__/models/config/src/config_client.c.obj
                0x000265fc                config_client_model_subscription_add
 .text.config_client_model_app_bind
                0x00026648        0xe examples/light_switch/client/CMakeFiles/light_switch_client_nrf52840_xxAA_s140_5.0.0-3.alpha.dir/__/__/__/models/config/src/config_client.c.obj
                0x00026648                config_client_model_app_bind
 .text.handle_fault_status
                0x00026656       0x48 examples/light_switch/client/CMakeFiles/light_switch_client_nrf52840_xxAA_s140_5.0.0-3.alpha.dir/__/__/__/models/health/src/health_client.c.obj
 .text.handle_period_status
                0x0002669e       0x28 examples/light_switch/client/CMakeFiles/light_switch_client_nrf52840_xxAA_s140_5.0.0-3.alpha.dir/__/__/__/models/health/src/health_client.c.obj
 .text.handle_attention_status
                0x000266c6       0x28 examples/light_switch/client/CMakeFiles/light_switch_client_nrf52840_xxAA_s140_5.0.0-3.alpha.dir/__/__/__/models/health/src/health_client.c.obj
 *fill*         0x000266ee        0x2 
 .text.health_client_init
                0x000266f0       0x54 examples/light_switch/client/CMakeFiles/light_switch_client_nrf52840_xxAA_s140_5.0.0-3.alpha.dir/__/__/__/models/health/src/health_client.c.obj
                0x000266f0                health_client_init
 .text.add_to_publication_list
                0x00026744       0x84 examples/light_switch/client/CMakeFiles/light_switch_client_nrf52840_xxAA_s140_5.0.0-3.alpha.dir/__/__/__/mesh/access/src/access_publish.c.obj
 .text.step_resolution_to_us
                0x000267c8       0x44 examples/light_switch/client/CMakeFiles/light_switch_client_nrf52840_xxAA_s140_5.0.0-3.alpha.dir/__/__/__/mesh/access/src/access_publish.c.obj
 .text.schedule_publication_timer
                0x0002680c      0x184 examples/light_switch/client/CMakeFiles/light_switch_client_nrf52840_xxAA_s140_5.0.0-3.alpha.dir/__/__/__/mesh/access/src/access_publish.c.obj
 .text.publish_timer_tick
                0x00026990       0xbc examples/light_switch/client/CMakeFiles/light_switch_client_nrf52840_xxAA_s140_5.0.0-3.alpha.dir/__/__/__/mesh/access/src/access_publish.c.obj
 .text.access_publish_init
                0x00026a4c       0x38 examples/light_switch/client/CMakeFiles/light_switch_client_nrf52840_xxAA_s140_5.0.0-3.alpha.dir/__/__/__/mesh/access/src/access_publish.c.obj
                0x00026a4c                access_publish_init
 .text.bitfield_get
                0x00026a84       0x1a examples/light_switch/client/CMakeFiles/light_switch_client_nrf52840_xxAA_s140_5.0.0-3.alpha.dir/__/__/__/mesh/access/src/access.c.obj
 .text.is_valid_opcode
                0x00026a9e       0x42 examples/light_switch/client/CMakeFiles/light_switch_client_nrf52840_xxAA_s140_5.0.0-3.alpha.dir/__/__/__/mesh/access/src/access.c.obj
 .text.model_handle_valid_and_allocated
                0x00026ae0       0x20 examples/light_switch/client/CMakeFiles/light_switch_client_nrf52840_xxAA_s140_5.0.0-3.alpha.dir/__/__/__/mesh/access/src/access.c.obj
 .text.flash_invalidate_complete
                0x00026b00       0x14 examples/light_switch/client/CMakeFiles/light_switch_client_nrf52840_xxAA_s140_5.0.0-3.alpha.dir/__/__/__/mesh/access/src/access.c.obj
 .text.flash_manager_mem_available
                0x00026b14        0x2 examples/light_switch/client/CMakeFiles/light_switch_client_nrf52840_xxAA_s140_5.0.0-3.alpha.dir/__/__/__/mesh/access/src/access.c.obj
 *fill*         0x00026b16        0x2 
 .text.restore_acquired_subscription
                0x00026b18       0x30 examples/light_switch/client/CMakeFiles/light_switch_client_nrf52840_xxAA_s140_5.0.0-3.alpha.dir/__/__/__/mesh/access/src/access.c.obj
 .text.restore_acquired_element
                0x00026b48       0x20 examples/light_switch/client/CMakeFiles/light_switch_client_nrf52840_xxAA_s140_5.0.0-3.alpha.dir/__/__/__/mesh/access/src/access.c.obj
 .text.restore_flash_data
                0x00026b68       0x5c examples/light_switch/client/CMakeFiles/light_switch_client_nrf52840_xxAA_s140_5.0.0-3.alpha.dir/__/__/__/mesh/access/src/access.c.obj
 .text.access_flash_config_clear
                0x00026bc4       0x28 examples/light_switch/client/CMakeFiles/light_switch_client_nrf52840_xxAA_s140_5.0.0-3.alpha.dir/__/__/__/mesh/access/src/access.c.obj
 .text.access_flash_config_store
                0x00026bec      0x150 examples/light_switch/client/CMakeFiles/light_switch_client_nrf52840_xxAA_s140_5.0.0-3.alpha.dir/__/__/__/mesh/access/src/access.c.obj
                0x00026bec                access_flash_config_store
 .text.access_state_clear
                0x00026d3c       0x4c examples/light_switch/client/CMakeFiles/light_switch_client_nrf52840_xxAA_s140_5.0.0-3.alpha.dir/__/__/__/mesh/access/src/access.c.obj
 .text.add_flash_manager
                0x00026d88       0x58 examples/light_switch/client/CMakeFiles/light_switch_client_nrf52840_xxAA_s140_5.0.0-3.alpha.dir/__/__/__/mesh/access/src/access.c.obj
 .text.flash_remove_complete
                0x00026de0       0x64 examples/light_switch/client/CMakeFiles/light_switch_client_nrf52840_xxAA_s140_5.0.0-3.alpha.dir/__/__/__/mesh/access/src/access.c.obj
 .text.flash_write_complete
                0x00026e44       0x54 examples/light_switch/client/CMakeFiles/light_switch_client_nrf52840_xxAA_s140_5.0.0-3.alpha.dir/__/__/__/mesh/access/src/access.c.obj
 .text.unlikely.bitfield_next_get.part.0.constprop.3
                0x00026e98       0x34 examples/light_switch/client/CMakeFiles/light_switch_client_nrf52840_xxAA_s140_5.0.0-3.alpha.dir/__/__/__/mesh/access/src/access.c.obj
 .text.restore_acquired_model
                0x00026ecc       0x94 examples/light_switch/client/CMakeFiles/light_switch_client_nrf52840_xxAA_s140_5.0.0-3.alpha.dir/__/__/__/mesh/access/src/access.c.obj
 .text.handle_incoming
                0x00026f60      0x158 examples/light_switch/client/CMakeFiles/light_switch_client_nrf52840_xxAA_s140_5.0.0-3.alpha.dir/__/__/__/mesh/access/src/access.c.obj
 .text.mesh_evt_cb
                0x000270b8      0x134 examples/light_switch/client/CMakeFiles/light_switch_client_nrf52840_xxAA_s140_5.0.0-3.alpha.dir/__/__/__/mesh/access/src/access.c.obj
 .text.packet_tx
                0x000271ec      0x2c4 examples/light_switch/client/CMakeFiles/light_switch_client_nrf52840_xxAA_s140_5.0.0-3.alpha.dir/__/__/__/mesh/access/src/access.c.obj
 .text.access_flash_config_load
                0x000274b0      0x134 examples/light_switch/client/CMakeFiles/light_switch_client_nrf52840_xxAA_s140_5.0.0-3.alpha.dir/__/__/__/mesh/access/src/access.c.obj
                0x000274b0                access_flash_config_load
 .text.access_init
                0x000275e4       0x28 examples/light_switch/client/CMakeFiles/light_switch_client_nrf52840_xxAA_s140_5.0.0-3.alpha.dir/__/__/__/mesh/access/src/access.c.obj
                0x000275e4                access_init
 .text.access_model_add
                0x0002760c      0x1bc examples/light_switch/client/CMakeFiles/light_switch_client_nrf52840_xxAA_s140_5.0.0-3.alpha.dir/__/__/__/mesh/access/src/access.c.obj
                0x0002760c                access_model_add
 .text.access_model_publish
                0x000277c8        0xc examples/light_switch/client/CMakeFiles/light_switch_client_nrf52840_xxAA_s140_5.0.0-3.alpha.dir/__/__/__/mesh/access/src/access.c.obj
                0x000277c8                access_model_publish
 .text.access_model_publish_address_set
                0x000277d4       0x3c examples/light_switch/client/CMakeFiles/light_switch_client_nrf52840_xxAA_s140_5.0.0-3.alpha.dir/__/__/__/mesh/access/src/access.c.obj
                0x000277d4                access_model_publish_address_set
 .text.access_model_publish_address_get
                0x00027810       0x28 examples/light_switch/client/CMakeFiles/light_switch_client_nrf52840_xxAA_s140_5.0.0-3.alpha.dir/__/__/__/mesh/access/src/access.c.obj
                0x00027810                access_model_publish_address_get
 .text.access_model_subscription_list_alloc
                0x00027838       0x54 examples/light_switch/client/CMakeFiles/light_switch_client_nrf52840_xxAA_s140_5.0.0-3.alpha.dir/__/__/__/mesh/access/src/access.c.obj
                0x00027838                access_model_subscription_list_alloc
 .text.access_model_application_bind
                0x0002788c       0x50 examples/light_switch/client/CMakeFiles/light_switch_client_nrf52840_xxAA_s140_5.0.0-3.alpha.dir/__/__/__/mesh/access/src/access.c.obj
                0x0002788c                access_model_application_bind
 .text.access_model_publish_application_set
                0x000278dc       0x3c examples/light_switch/client/CMakeFiles/light_switch_client_nrf52840_xxAA_s140_5.0.0-3.alpha.dir/__/__/__/mesh/access/src/access.c.obj
                0x000278dc                access_model_publish_application_set
 .text.access_model_publish_ttl_get
                0x00027918       0x28 examples/light_switch/client/CMakeFiles/light_switch_client_nrf52840_xxAA_s140_5.0.0-3.alpha.dir/__/__/__/mesh/access/src/access.c.obj
                0x00027918                access_model_publish_ttl_get
 .text.access_model_p_args_get
                0x00027940       0x28 examples/light_switch/client/CMakeFiles/light_switch_client_nrf52840_xxAA_s140_5.0.0-3.alpha.dir/__/__/__/mesh/access/src/access.c.obj
                0x00027940                access_model_p_args_get
 .text.remove_and_reschedule
                0x00027968       0xd0 examples/light_switch/client/CMakeFiles/light_switch_client_nrf52840_xxAA_s140_5.0.0-3.alpha.dir/__/__/__/mesh/access/src/access_reliable.c.obj
 .text.reliable_timer_cb
                0x00027a38      0x148 examples/light_switch/client/CMakeFiles/light_switch_client_nrf52840_xxAA_s140_5.0.0-3.alpha.dir/__/__/__/mesh/access/src/access_reliable.c.obj
 .text.access_reliable_message_rx_cb
                0x00027b80       0x74 examples/light_switch/client/CMakeFiles/light_switch_client_nrf52840_xxAA_s140_5.0.0-3.alpha.dir/__/__/__/mesh/access/src/access_reliable.c.obj
                0x00027b80                access_reliable_message_rx_cb
 .text.access_reliable_init
                0x00027bf4       0x20 examples/light_switch/client/CMakeFiles/light_switch_client_nrf52840_xxAA_s140_5.0.0-3.alpha.dir/__/__/__/mesh/access/src/access_reliable.c.obj
                0x00027bf4                access_reliable_init
 .text.access_model_reliable_publish
                0x00027c14      0x1a8 examples/light_switch/client/CMakeFiles/light_switch_client_nrf52840_xxAA_s140_5.0.0-3.alpha.dir/__/__/__/mesh/access/src/access_reliable.c.obj
                0x00027c14                access_model_reliable_publish
 .text.bitfield_get
                0x00027dbc       0x1a examples/light_switch/client/CMakeFiles/light_switch_client_nrf52840_xxAA_s140_5.0.0-3.alpha.dir/__/__/__/mesh/access/src/device_state_manager.c.obj
 .text.bitfield_set
                0x00027dd6       0x18 examples/light_switch/client/CMakeFiles/light_switch_client_nrf52840_xxAA_s140_5.0.0-3.alpha.dir/__/__/__/mesh/access/src/device_state_manager.c.obj
 .text.bitfield_clear
                0x00027dee       0x1a examples/light_switch/client/CMakeFiles/light_switch_client_nrf52840_xxAA_s140_5.0.0-3.alpha.dir/__/__/__/mesh/access/src/device_state_manager.c.obj
 .text.bitfield_is_all_clear
                0x00027e08       0x3c examples/light_switch/client/CMakeFiles/light_switch_client_nrf52840_xxAA_s140_5.0.0-3.alpha.dir/__/__/__/mesh/access/src/device_state_manager.c.obj
 .text.address_handle_virtual_valid
                0x00027e44       0x14 examples/light_switch/client/CMakeFiles/light_switch_client_nrf52840_xxAA_s140_5.0.0-3.alpha.dir/__/__/__/mesh/access/src/device_state_manager.c.obj
 .text.net_key_handle_get
                0x00027e58       0x38 examples/light_switch/client/CMakeFiles/light_switch_client_nrf52840_xxAA_s140_5.0.0-3.alpha.dir/__/__/__/mesh/access/src/device_state_manager.c.obj
 .text.dev_key_handle_get
                0x00027e90       0x58 examples/light_switch/client/CMakeFiles/light_switch_client_nrf52840_xxAA_s140_5.0.0-3.alpha.dir/__/__/__/mesh/access/src/device_state_manager.c.obj
 .text.app_key_handle_get
                0x00027ee8       0x38 examples/light_switch/client/CMakeFiles/light_switch_client_nrf52840_xxAA_s140_5.0.0-3.alpha.dir/__/__/__/mesh/access/src/device_state_manager.c.obj
 .text.get_subnet_handle
                0x00027f20       0x40 examples/light_switch/client/CMakeFiles/light_switch_client_nrf52840_xxAA_s140_5.0.0-3.alpha.dir/__/__/__/mesh/access/src/device_state_manager.c.obj
 .text.addr_nonvirtual_to_flash_entry
                0x00027f60       0x10 examples/light_switch/client/CMakeFiles/light_switch_client_nrf52840_xxAA_s140_5.0.0-3.alpha.dir/__/__/__/mesh/access/src/device_state_manager.c.obj
 .text.flash_mem_listener_callback
                0x00027f70       0x20 examples/light_switch/client/CMakeFiles/light_switch_client_nrf52840_xxAA_s140_5.0.0-3.alpha.dir/__/__/__/mesh/access/src/device_state_manager.c.obj
 .text.devkey_set
                0x00027f90       0x4c examples/light_switch/client/CMakeFiles/light_switch_client_nrf52840_xxAA_s140_5.0.0-3.alpha.dir/__/__/__/mesh/access/src/device_state_manager.c.obj
 .text.devkey_to_dsm_entry
                0x00027fdc       0x16 examples/light_switch/client/CMakeFiles/light_switch_client_nrf52840_xxAA_s140_5.0.0-3.alpha.dir/__/__/__/mesh/access/src/device_state_manager.c.obj
 *fill*         0x00027ff2        0x2 
 .text.devkey_to_flash_entry
                0x00027ff4       0x28 examples/light_switch/client/CMakeFiles/light_switch_client_nrf52840_xxAA_s140_5.0.0-3.alpha.dir/__/__/__/mesh/access/src/device_state_manager.c.obj
 .text.addr_virtual_to_flash_entry
                0x0002801c       0x18 examples/light_switch/client/CMakeFiles/light_switch_client_nrf52840_xxAA_s140_5.0.0-3.alpha.dir/__/__/__/mesh/access/src/device_state_manager.c.obj
 .text.addr_unicast_to_dsm_entry
                0x00028034        0xc examples/light_switch/client/CMakeFiles/light_switch_client_nrf52840_xxAA_s140_5.0.0-3.alpha.dir/__/__/__/mesh/access/src/device_state_manager.c.obj
 .text.addr_unicast_to_flash_entry
                0x00028040       0x10 examples/light_switch/client/CMakeFiles/light_switch_client_nrf52840_xxAA_s140_5.0.0-3.alpha.dir/__/__/__/mesh/access/src/device_state_manager.c.obj
 .text.appkey_set
                0x00028050       0x7c examples/light_switch/client/CMakeFiles/light_switch_client_nrf52840_xxAA_s140_5.0.0-3.alpha.dir/__/__/__/mesh/access/src/device_state_manager.c.obj
 .text.appkey_to_flash_entry
                0x000280cc       0x54 examples/light_switch/client/CMakeFiles/light_switch_client_nrf52840_xxAA_s140_5.0.0-3.alpha.dir/__/__/__/mesh/access/src/device_state_manager.c.obj
 .text.subnet_to_flash_entry
                0x00028120       0x60 examples/light_switch/client/CMakeFiles/light_switch_client_nrf52840_xxAA_s140_5.0.0-3.alpha.dir/__/__/__/mesh/access/src/device_state_manager.c.obj
 .text.subnet_set
                0x00028180       0xb4 examples/light_switch/client/CMakeFiles/light_switch_client_nrf52840_xxAA_s140_5.0.0-3.alpha.dir/__/__/__/mesh/access/src/device_state_manager.c.obj
 .text.virtual_address_set
                0x00028234       0x54 examples/light_switch/client/CMakeFiles/light_switch_client_nrf52840_xxAA_s140_5.0.0-3.alpha.dir/__/__/__/mesh/access/src/device_state_manager.c.obj
 .text.addr_virtual_to_dsm_entry
                0x00028288        0xc examples/light_switch/client/CMakeFiles/light_switch_client_nrf52840_xxAA_s140_5.0.0-3.alpha.dir/__/__/__/mesh/access/src/device_state_manager.c.obj
 .text.reset_flash_area
                0x00028294       0x28 examples/light_switch/client/CMakeFiles/light_switch_client_nrf52840_xxAA_s140_5.0.0-3.alpha.dir/__/__/__/mesh/access/src/device_state_manager.c.obj
 .text.flash_save
                0x000282bc       0x88 examples/light_switch/client/CMakeFiles/light_switch_client_nrf52840_xxAA_s140_5.0.0-3.alpha.dir/__/__/__/mesh/access/src/device_state_manager.c.obj
 .text.flash_invalidate
                0x00028344       0x70 examples/light_switch/client/CMakeFiles/light_switch_client_nrf52840_xxAA_s140_5.0.0-3.alpha.dir/__/__/__/mesh/access/src/device_state_manager.c.obj
 .text.flash_update_all
                0x000283b4       0x6c examples/light_switch/client/CMakeFiles/light_switch_client_nrf52840_xxAA_s140_5.0.0-3.alpha.dir/__/__/__/mesh/access/src/device_state_manager.c.obj
 .text.virtual_address_uuid_index_get
                0x00028420       0x3c examples/light_switch/client/CMakeFiles/light_switch_client_nrf52840_xxAA_s140_5.0.0-3.alpha.dir/__/__/__/mesh/access/src/device_state_manager.c.obj
 .text.get_subnet_handle_by_beacon_info
                0x0002845c       0x30 examples/light_switch/client/CMakeFiles/light_switch_client_nrf52840_xxAA_s140_5.0.0-3.alpha.dir/__/__/__/mesh/access/src/device_state_manager.c.obj
 .text.get_app_handle
                0x0002848c       0x4c examples/light_switch/client/CMakeFiles/light_switch_client_nrf52840_xxAA_s140_5.0.0-3.alpha.dir/__/__/__/mesh/access/src/device_state_manager.c.obj
 .text.appkey_to_dsm_entry
                0x000284d8       0x80 examples/light_switch/client/CMakeFiles/light_switch_client_nrf52840_xxAA_s140_5.0.0-3.alpha.dir/__/__/__/mesh/access/src/device_state_manager.c.obj
 .text.subnet_to_dsm_entry
                0x00028558       0x7c examples/light_switch/client/CMakeFiles/light_switch_client_nrf52840_xxAA_s140_5.0.0-3.alpha.dir/__/__/__/mesh/access/src/device_state_manager.c.obj
 .text.flash_operation_complete
                0x000285d4       0x58 examples/light_switch/client/CMakeFiles/light_switch_client_nrf52840_xxAA_s140_5.0.0-3.alpha.dir/__/__/__/mesh/access/src/device_state_manager.c.obj
 .text.flash_invalidate_complete
                0x0002862c        0x8 examples/light_switch/client/CMakeFiles/light_switch_client_nrf52840_xxAA_s140_5.0.0-3.alpha.dir/__/__/__/mesh/access/src/device_state_manager.c.obj
 .text.flash_write_complete
                0x00028634        0x8 examples/light_switch/client/CMakeFiles/light_switch_client_nrf52840_xxAA_s140_5.0.0-3.alpha.dir/__/__/__/mesh/access/src/device_state_manager.c.obj
 .text.add_address.part.7
                0x0002863c      0x144 examples/light_switch/client/CMakeFiles/light_switch_client_nrf52840_xxAA_s140_5.0.0-3.alpha.dir/__/__/__/mesh/access/src/device_state_manager.c.obj
 .text.address_handle_valid
                0x00028780       0x28 examples/light_switch/client/CMakeFiles/light_switch_client_nrf52840_xxAA_s140_5.0.0-3.alpha.dir/__/__/__/mesh/access/src/device_state_manager.c.obj
 .text.address_handle_nonvirtual_valid
                0x000287a8       0x14 examples/light_switch/client/CMakeFiles/light_switch_client_nrf52840_xxAA_s140_5.0.0-3.alpha.dir/__/__/__/mesh/access/src/device_state_manager.c.obj
 .text.address_delete_if_unused
                0x000287bc       0x78 examples/light_switch/client/CMakeFiles/light_switch_client_nrf52840_xxAA_s140_5.0.0-3.alpha.dir/__/__/__/mesh/access/src/device_state_manager.c.obj
 .text.addr_nonvirtual_to_dsm_entry
                0x00028834       0x38 examples/light_switch/client/CMakeFiles/light_switch_client_nrf52840_xxAA_s140_5.0.0-3.alpha.dir/__/__/__/mesh/access/src/device_state_manager.c.obj
 .text.dsm_flash_config_load
                0x0002886c      0x134 examples/light_switch/client/CMakeFiles/light_switch_client_nrf52840_xxAA_s140_5.0.0-3.alpha.dir/__/__/__/mesh/access/src/device_state_manager.c.obj
                0x0002886c                dsm_flash_config_load
 .text.dsm_flash_area_get
                0x000289a0        0xc examples/light_switch/client/CMakeFiles/light_switch_client_nrf52840_xxAA_s140_5.0.0-3.alpha.dir/__/__/__/mesh/access/src/device_state_manager.c.obj
                0x000289a0                dsm_flash_area_get
 .text.build_flash_area
                0x000289ac       0x8c examples/light_switch/client/CMakeFiles/light_switch_client_nrf52840_xxAA_s140_5.0.0-3.alpha.dir/__/__/__/mesh/access/src/device_state_manager.c.obj
 .text.flash_remove_complete
                0x00028a38        0x4 examples/light_switch/client/CMakeFiles/light_switch_client_nrf52840_xxAA_s140_5.0.0-3.alpha.dir/__/__/__/mesh/access/src/device_state_manager.c.obj
 .text.dsm_init
                0x00028a3c       0x24 examples/light_switch/client/CMakeFiles/light_switch_client_nrf52840_xxAA_s140_5.0.0-3.alpha.dir/__/__/__/mesh/access/src/device_state_manager.c.obj
                0x00028a3c                dsm_init
 .text.dsm_local_unicast_addresses_set
                0x00028a60       0x84 examples/light_switch/client/CMakeFiles/light_switch_client_nrf52840_xxAA_s140_5.0.0-3.alpha.dir/__/__/__/mesh/access/src/device_state_manager.c.obj
                0x00028a60                dsm_local_unicast_addresses_set
 .text.dsm_local_unicast_addresses_get
                0x00028ae4       0x2c examples/light_switch/client/CMakeFiles/light_switch_client_nrf52840_xxAA_s140_5.0.0-3.alpha.dir/__/__/__/mesh/access/src/device_state_manager.c.obj
                0x00028ae4                dsm_local_unicast_addresses_get
 .text.dsm_address_publish_add
                0x00028b10        0xc examples/light_switch/client/CMakeFiles/light_switch_client_nrf52840_xxAA_s140_5.0.0-3.alpha.dir/__/__/__/mesh/access/src/device_state_manager.c.obj
                0x00028b10                dsm_address_publish_add
 .text.dsm_address_publish_add_handle
                0x00028b1c       0x38 examples/light_switch/client/CMakeFiles/light_switch_client_nrf52840_xxAA_s140_5.0.0-3.alpha.dir/__/__/__/mesh/access/src/device_state_manager.c.obj
                0x00028b1c                dsm_address_publish_add_handle
 .text.dsm_address_publish_remove
                0x00028b54       0x40 examples/light_switch/client/CMakeFiles/light_switch_client_nrf52840_xxAA_s140_5.0.0-3.alpha.dir/__/__/__/mesh/access/src/device_state_manager.c.obj
                0x00028b54                dsm_address_publish_remove
 .text.dsm_address_subscription_add_handle
                0x00028b94       0x38 examples/light_switch/client/CMakeFiles/light_switch_client_nrf52840_xxAA_s140_5.0.0-3.alpha.dir/__/__/__/mesh/access/src/device_state_manager.c.obj
                0x00028b94                dsm_address_subscription_add_handle
 .text.dsm_address_subscription_get
                0x00028bcc       0x34 examples/light_switch/client/CMakeFiles/light_switch_client_nrf52840_xxAA_s140_5.0.0-3.alpha.dir/__/__/__/mesh/access/src/device_state_manager.c.obj
                0x00028bcc                dsm_address_subscription_get
 .text.dsm_address_get
                0x00028c00       0x5c examples/light_switch/client/CMakeFiles/light_switch_client_nrf52840_xxAA_s140_5.0.0-3.alpha.dir/__/__/__/mesh/access/src/device_state_manager.c.obj
                0x00028c00                dsm_address_get
 .text.dsm_address_get_all
                0x00028c5c       0x64 examples/light_switch/client/CMakeFiles/light_switch_client_nrf52840_xxAA_s140_5.0.0-3.alpha.dir/__/__/__/mesh/access/src/device_state_manager.c.obj
                0x00028c5c                dsm_address_get_all
 .text.dsm_address_handle_get
                0x00028cc0       0x98 examples/light_switch/client/CMakeFiles/light_switch_client_nrf52840_xxAA_s140_5.0.0-3.alpha.dir/__/__/__/mesh/access/src/device_state_manager.c.obj
                0x00028cc0                dsm_address_handle_get
 .text.dsm_appkey_handle_get
                0x00028d58        0xc examples/light_switch/client/CMakeFiles/light_switch_client_nrf52840_xxAA_s140_5.0.0-3.alpha.dir/__/__/__/mesh/access/src/device_state_manager.c.obj
                0x00028d58                dsm_appkey_handle_get
 .text.dsm_subnet_add
                0x00028d64       0x58 examples/light_switch/client/CMakeFiles/light_switch_client_nrf52840_xxAA_s140_5.0.0-3.alpha.dir/__/__/__/mesh/access/src/device_state_manager.c.obj
                0x00028d64                dsm_subnet_add
 .text.dsm_subnet_update_swap_keys
                0x00028dbc       0x50 examples/light_switch/client/CMakeFiles/light_switch_client_nrf52840_xxAA_s140_5.0.0-3.alpha.dir/__/__/__/mesh/access/src/device_state_manager.c.obj
                0x00028dbc                dsm_subnet_update_swap_keys
 .text.dsm_subnet_update_commit
                0x00028e0c       0xb8 examples/light_switch/client/CMakeFiles/light_switch_client_nrf52840_xxAA_s140_5.0.0-3.alpha.dir/__/__/__/mesh/access/src/device_state_manager.c.obj
                0x00028e0c                dsm_subnet_update_commit
 .text.net_beacon_callback
                0x00028ec4       0x74 examples/light_switch/client/CMakeFiles/light_switch_client_nrf52840_xxAA_s140_5.0.0-3.alpha.dir/__/__/__/mesh/access/src/device_state_manager.c.obj
 .text.dsm_subnet_get_all
                0x00028f38       0x3c examples/light_switch/client/CMakeFiles/light_switch_client_nrf52840_xxAA_s140_5.0.0-3.alpha.dir/__/__/__/mesh/access/src/device_state_manager.c.obj
                0x00028f38                dsm_subnet_get_all
 .text.dsm_devkey_add
                0x00028f74       0x78 examples/light_switch/client/CMakeFiles/light_switch_client_nrf52840_xxAA_s140_5.0.0-3.alpha.dir/__/__/__/mesh/access/src/device_state_manager.c.obj
                0x00028f74                dsm_devkey_add
 .text.dsm_devkey_delete
                0x00028fec       0x40 examples/light_switch/client/CMakeFiles/light_switch_client_nrf52840_xxAA_s140_5.0.0-3.alpha.dir/__/__/__/mesh/access/src/device_state_manager.c.obj
                0x00028fec                dsm_devkey_delete
 .text.dsm_devkey_handle_get
                0x0002902c       0x34 examples/light_switch/client/CMakeFiles/light_switch_client_nrf52840_xxAA_s140_5.0.0-3.alpha.dir/__/__/__/mesh/access/src/device_state_manager.c.obj
                0x0002902c                dsm_devkey_handle_get
 .text.dsm_appkey_add
                0x00029060       0x70 examples/light_switch/client/CMakeFiles/light_switch_client_nrf52840_xxAA_s140_5.0.0-3.alpha.dir/__/__/__/mesh/access/src/device_state_manager.c.obj
                0x00029060                dsm_appkey_add
 .text.dsm_appkey_get_all
                0x000290d0       0x58 examples/light_switch/client/CMakeFiles/light_switch_client_nrf52840_xxAA_s140_5.0.0-3.alpha.dir/__/__/__/mesh/access/src/device_state_manager.c.obj
                0x000290d0                dsm_appkey_get_all
 .text.dsm_tx_secmat_get
                0x00029128      0x104 examples/light_switch/client/CMakeFiles/light_switch_client_nrf52840_xxAA_s140_5.0.0-3.alpha.dir/__/__/__/mesh/access/src/device_state_manager.c.obj
                0x00029128                dsm_tx_secmat_get
 .text.nrf_mesh_net_secmat_next_get
                0x0002922c       0xa4 examples/light_switch/client/CMakeFiles/light_switch_client_nrf52840_xxAA_s140_5.0.0-3.alpha.dir/__/__/__/mesh/access/src/device_state_manager.c.obj
                0x0002922c                nrf_mesh_net_secmat_next_get
 .text.nrf_mesh_app_secmat_next_get
                0x000292d0       0x84 examples/light_switch/client/CMakeFiles/light_switch_client_nrf52840_xxAA_s140_5.0.0-3.alpha.dir/__/__/__/mesh/access/src/device_state_manager.c.obj
                0x000292d0                nrf_mesh_app_secmat_next_get
 .text.nrf_mesh_devkey_secmat_get
                0x00029354       0x50 examples/light_switch/client/CMakeFiles/light_switch_client_nrf52840_xxAA_s140_5.0.0-3.alpha.dir/__/__/__/mesh/access/src/device_state_manager.c.obj
                0x00029354                nrf_mesh_devkey_secmat_get
 .text.nrf_mesh_beacon_info_next_get
                0x000293a4       0xc8 examples/light_switch/client/CMakeFiles/light_switch_client_nrf52840_xxAA_s140_5.0.0-3.alpha.dir/__/__/__/mesh/access/src/device_state_manager.c.obj
                0x000293a4                nrf_mesh_beacon_info_next_get
 .text.nrf_mesh_rx_address_get
                0x0002946c       0xfc examples/light_switch/client/CMakeFiles/light_switch_client_nrf52840_xxAA_s140_5.0.0-3.alpha.dir/__/__/__/mesh/access/src/device_state_manager.c.obj
                0x0002946c                nrf_mesh_rx_address_get
 .text.prov_provisioner_cb_link_closed
                0x00029568       0x2a examples/light_switch/client/CMakeFiles/light_switch_client_nrf52840_xxAA_s140_5.0.0-3.alpha.dir/__/__/__/mesh/prov/src/prov_provisioner.c.obj
 .text.prov_provisioner_cb_link_established
                0x00029592       0x3e examples/light_switch/client/CMakeFiles/light_switch_client_nrf52840_xxAA_s140_5.0.0-3.alpha.dir/__/__/__/mesh/prov/src/prov_provisioner.c.obj
 .text.prov_provisioner_cb_ack_received
                0x000295d0       0x48 examples/light_switch/client/CMakeFiles/light_switch_client_nrf52840_xxAA_s140_5.0.0-3.alpha.dir/__/__/__/mesh/prov/src/prov_provisioner.c.obj
 .text.send_confirmation
                0x00029618       0x26 examples/light_switch/client/CMakeFiles/light_switch_client_nrf52840_xxAA_s140_5.0.0-3.alpha.dir/__/__/__/mesh/prov/src/prov_provisioner.c.obj
 .text.request_authentication
                0x0002963e       0x8a examples/light_switch/client/CMakeFiles/light_switch_client_nrf52840_xxAA_s140_5.0.0-3.alpha.dir/__/__/__/mesh/prov/src/prov_provisioner.c.obj
 .text.prov_provisioner_pkt_in
                0x000296c8      0x2a4 examples/light_switch/client/CMakeFiles/light_switch_client_nrf52840_xxAA_s140_5.0.0-3.alpha.dir/__/__/__/mesh/prov/src/prov_provisioner.c.obj
 .text.prov_provisioner_provision
                0x0002996c       0x44 examples/light_switch/client/CMakeFiles/light_switch_client_nrf52840_xxAA_s140_5.0.0-3.alpha.dir/__/__/__/mesh/prov/src/prov_provisioner.c.obj
                0x0002996c                prov_provisioner_provision
 .text.prov_provisioner_oob_use
                0x000299b0       0x7a examples/light_switch/client/CMakeFiles/light_switch_client_nrf52840_xxAA_s140_5.0.0-3.alpha.dir/__/__/__/mesh/prov/src/prov_provisioner.c.obj
                0x000299b0                prov_provisioner_oob_use
 .text.prov_provisioner_auth_data
                0x00029a2a       0x44 examples/light_switch/client/CMakeFiles/light_switch_client_nrf52840_xxAA_s140_5.0.0-3.alpha.dir/__/__/__/mesh/prov/src/prov_provisioner.c.obj
                0x00029a2a                prov_provisioner_auth_data
 .text.bearer_compare_callback
                0x00029a6e        0xc examples/light_switch/client/CMakeFiles/light_switch_client_nrf52840_xxAA_s140_5.0.0-3.alpha.dir/__/__/__/mesh/prov/src/nrf_mesh_prov.c.obj
 .text.nrf_mesh_prov_init
                0x00029a7a       0x32 examples/light_switch/client/CMakeFiles/light_switch_client_nrf52840_xxAA_s140_5.0.0-3.alpha.dir/__/__/__/mesh/prov/src/nrf_mesh_prov.c.obj
                0x00029a7a                nrf_mesh_prov_init
 .text.nrf_mesh_prov_bearer_add
                0x00029aac       0x20 examples/light_switch/client/CMakeFiles/light_switch_client_nrf52840_xxAA_s140_5.0.0-3.alpha.dir/__/__/__/mesh/prov/src/nrf_mesh_prov.c.obj
                0x00029aac                nrf_mesh_prov_bearer_add
 .text.nrf_mesh_prov_generate_keys
                0x00029acc        0x4 examples/light_switch/client/CMakeFiles/light_switch_client_nrf52840_xxAA_s140_5.0.0-3.alpha.dir/__/__/__/mesh/prov/src/nrf_mesh_prov.c.obj
                0x00029acc                nrf_mesh_prov_generate_keys
 .text.nrf_mesh_prov_provision
                0x00029ad0       0x4e examples/light_switch/client/CMakeFiles/light_switch_client_nrf52840_xxAA_s140_5.0.0-3.alpha.dir/__/__/__/mesh/prov/src/nrf_mesh_prov.c.obj
                0x00029ad0                nrf_mesh_prov_provision
 .text.nrf_mesh_prov_oob_use
                0x00029b1e        0xe examples/light_switch/client/CMakeFiles/light_switch_client_nrf52840_xxAA_s140_5.0.0-3.alpha.dir/__/__/__/mesh/prov/src/nrf_mesh_prov.c.obj
                0x00029b1e                nrf_mesh_prov_oob_use
 .text.nrf_mesh_prov_auth_data_provide
                0x00029b2c        0xe examples/light_switch/client/CMakeFiles/light_switch_client_nrf52840_xxAA_s140_5.0.0-3.alpha.dir/__/__/__/mesh/prov/src/nrf_mesh_prov.c.obj
                0x00029b2c                nrf_mesh_prov_auth_data_provide
 .text.nrf_mesh_prov_scan_start
                0x00029b3a       0x10 examples/light_switch/client/CMakeFiles/light_switch_client_nrf52840_xxAA_s140_5.0.0-3.alpha.dir/__/__/__/mesh/prov/src/nrf_mesh_prov.c.obj
                0x00029b3a                nrf_mesh_prov_scan_start
 *fill*         0x00029b4a        0x2 
 .text.send_data
                0x00029b4c       0x3c examples/light_switch/client/CMakeFiles/light_switch_client_nrf52840_xxAA_s140_5.0.0-3.alpha.dir/__/__/__/mesh/prov/src/provisioning.c.obj
 .text.prov_packet_length_valid
                0x00029b88       0x1c examples/light_switch/client/CMakeFiles/light_switch_client_nrf52840_xxAA_s140_5.0.0-3.alpha.dir/__/__/__/mesh/prov/src/provisioning.c.obj
                0x00029b88                prov_packet_length_valid
 .text.prov_tx_invite
                0x00029ba4       0x28 examples/light_switch/client/CMakeFiles/light_switch_client_nrf52840_xxAA_s140_5.0.0-3.alpha.dir/__/__/__/mesh/prov/src/provisioning.c.obj
                0x00029ba4                prov_tx_invite
 .text.prov_tx_start
                0x00029bcc       0x20 examples/light_switch/client/CMakeFiles/light_switch_client_nrf52840_xxAA_s140_5.0.0-3.alpha.dir/__/__/__/mesh/prov/src/provisioning.c.obj
                0x00029bcc                prov_tx_start
 .text.prov_tx_public_key
                0x00029bec       0x26 examples/light_switch/client/CMakeFiles/light_switch_client_nrf52840_xxAA_s140_5.0.0-3.alpha.dir/__/__/__/mesh/prov/src/provisioning.c.obj
                0x00029bec                prov_tx_public_key
 .text.prov_tx_confirmation
                0x00029c12       0x26 examples/light_switch/client/CMakeFiles/light_switch_client_nrf52840_xxAA_s140_5.0.0-3.alpha.dir/__/__/__/mesh/prov/src/provisioning.c.obj
                0x00029c12                prov_tx_confirmation
 .text.prov_tx_random
                0x00029c38       0x26 examples/light_switch/client/CMakeFiles/light_switch_client_nrf52840_xxAA_s140_5.0.0-3.alpha.dir/__/__/__/mesh/prov/src/provisioning.c.obj
                0x00029c38                prov_tx_random
 .text.prov_tx_data
                0x00029c5e        0x6 examples/light_switch/client/CMakeFiles/light_switch_client_nrf52840_xxAA_s140_5.0.0-3.alpha.dir/__/__/__/mesh/prov/src/provisioning.c.obj
                0x00029c5e                prov_tx_data
 .text.prov_beacon_unprov_build
                0x00029c64       0x54 examples/light_switch/client/CMakeFiles/light_switch_client_nrf52840_xxAA_s140_5.0.0-3.alpha.dir/__/__/__/mesh/prov/src/prov_beacon.c.obj
                0x00029c64                prov_beacon_unprov_build
 .text.prov_beacon_unprov_packet_in
                0x00029cb8       0x9c examples/light_switch/client/CMakeFiles/light_switch_client_nrf52840_xxAA_s140_5.0.0-3.alpha.dir/__/__/__/mesh/prov/src/prov_beacon.c.obj
                0x00029cb8                prov_beacon_unprov_packet_in
 .text.prov_beacon_scan_start
                0x00029d54       0x24 examples/light_switch/client/CMakeFiles/light_switch_client_nrf52840_xxAA_s140_5.0.0-3.alpha.dir/__/__/__/mesh/prov/src/prov_beacon.c.obj
                0x00029d54                prov_beacon_scan_start
 .text.oob_gen_alphanumeric
                0x00029d78       0x34 examples/light_switch/client/CMakeFiles/light_switch_client_nrf52840_xxAA_s140_5.0.0-3.alpha.dir/__/__/__/mesh/prov/src/prov_utils.c.obj
 .text.oob_gen_numeric
                0x00029dac       0x3c examples/light_switch/client/CMakeFiles/light_switch_client_nrf52840_xxAA_s140_5.0.0-3.alpha.dir/__/__/__/mesh/prov/src/prov_utils.c.obj
 .text.prov_utils_opt_get
                0x00029de8       0x1c examples/light_switch/client/CMakeFiles/light_switch_client_nrf52840_xxAA_s140_5.0.0-3.alpha.dir/__/__/__/mesh/prov/src/prov_utils.c.obj
                0x00029de8                prov_utils_opt_get
 .text.prov_utils_use_ecdh_offloading
                0x00029e04        0xc examples/light_switch/client/CMakeFiles/light_switch_client_nrf52840_xxAA_s140_5.0.0-3.alpha.dir/__/__/__/mesh/prov/src/prov_utils.c.obj
                0x00029e04                prov_utils_use_ecdh_offloading
 .text.prov_utils_authentication_values_derive
                0x00029e10       0xa0 examples/light_switch/client/CMakeFiles/light_switch_client_nrf52840_xxAA_s140_5.0.0-3.alpha.dir/__/__/__/mesh/prov/src/prov_utils.c.obj
                0x00029e10                prov_utils_authentication_values_derive
 .text.prov_utils_keys_generate
                0x00029eb0       0x1e examples/light_switch/client/CMakeFiles/light_switch_client_nrf52840_xxAA_s140_5.0.0-3.alpha.dir/__/__/__/mesh/prov/src/prov_utils.c.obj
                0x00029eb0                prov_utils_keys_generate
 *fill*         0x00029ece        0x2 
 .text.prov_utils_derive_keys
                0x00029ed0       0xac examples/light_switch/client/CMakeFiles/light_switch_client_nrf52840_xxAA_s140_5.0.0-3.alpha.dir/__/__/__/mesh/prov/src/prov_utils.c.obj
                0x00029ed0                prov_utils_derive_keys
 .text.prov_utils_calculate_shared_secret
                0x00029f7c       0x36 examples/light_switch/client/CMakeFiles/light_switch_client_nrf52840_xxAA_s140_5.0.0-3.alpha.dir/__/__/__/mesh/prov/src/prov_utils.c.obj
                0x00029f7c                prov_utils_calculate_shared_secret
 *fill*         0x00029fb2        0x2 
 .text.prov_utils_generate_oob_data
                0x00029fb4       0x9c examples/light_switch/client/CMakeFiles/light_switch_client_nrf52840_xxAA_s140_5.0.0-3.alpha.dir/__/__/__/mesh/prov/src/prov_utils.c.obj
                0x00029fb4                prov_utils_generate_oob_data
 .text.prov_utils_confirmation_check
                0x0002a050       0x5c examples/light_switch/client/CMakeFiles/light_switch_client_nrf52840_xxAA_s140_5.0.0-3.alpha.dir/__/__/__/mesh/prov/src/prov_utils.c.obj
                0x0002a050                prov_utils_confirmation_check
 .text.link_timeout_cb
                0x0002a0ac       0x10 examples/light_switch/client/CMakeFiles/light_switch_client_nrf52840_xxAA_s140_5.0.0-3.alpha.dir/__/__/__/mesh/prov/src/prov_bearer_adv.c.obj
 .text.remove_active_bearer
                0x0002a0bc       0x60 examples/light_switch/client/CMakeFiles/light_switch_client_nrf52840_xxAA_s140_5.0.0-3.alpha.dir/__/__/__/mesh/prov/src/prov_bearer_adv.c.obj
 .text.close_link
                0x0002a11c       0x6c examples/light_switch/client/CMakeFiles/light_switch_client_nrf52840_xxAA_s140_5.0.0-3.alpha.dir/__/__/__/mesh/prov/src/prov_bearer_adv.c.obj
 .text.prov_bearer_adv_listen_stop
                0x0002a188       0x3c examples/light_switch/client/CMakeFiles/light_switch_client_nrf52840_xxAA_s140_5.0.0-3.alpha.dir/__/__/__/mesh/prov/src/prov_bearer_adv.c.obj
 .text.send_packet
                0x0002a1c4       0x6c examples/light_switch/client/CMakeFiles/light_switch_client_nrf52840_xxAA_s140_5.0.0-3.alpha.dir/__/__/__/mesh/prov/src/prov_bearer_adv.c.obj
 .text.prov_buffer_tx
                0x0002a230      0x158 examples/light_switch/client/CMakeFiles/light_switch_client_nrf52840_xxAA_s140_5.0.0-3.alpha.dir/__/__/__/mesh/prov/src/prov_bearer_adv.c.obj
 .text.send_link_close
                0x0002a388       0x38 examples/light_switch/client/CMakeFiles/light_switch_client_nrf52840_xxAA_s140_5.0.0-3.alpha.dir/__/__/__/mesh/prov/src/prov_bearer_adv.c.obj
 .text.prov_bearer_adv_link_close
                0x0002a3c0       0x74 examples/light_switch/client/CMakeFiles/light_switch_client_nrf52840_xxAA_s140_5.0.0-3.alpha.dir/__/__/__/mesh/prov/src/prov_bearer_adv.c.obj
 .text.send_transaction_ack
                0x0002a434       0x24 examples/light_switch/client/CMakeFiles/light_switch_client_nrf52840_xxAA_s140_5.0.0-3.alpha.dir/__/__/__/mesh/prov/src/prov_bearer_adv.c.obj
 .text.send_link_ack
                0x0002a458       0x32 examples/light_switch/client/CMakeFiles/light_switch_client_nrf52840_xxAA_s140_5.0.0-3.alpha.dir/__/__/__/mesh/prov/src/prov_bearer_adv.c.obj
 .text.reset_timeout_timer
                0x0002a48a       0x1a examples/light_switch/client/CMakeFiles/light_switch_client_nrf52840_xxAA_s140_5.0.0-3.alpha.dir/__/__/__/mesh/prov/src/prov_bearer_adv.c.obj
 .text.tx_complete_cb
                0x0002a4a4       0x1c examples/light_switch/client/CMakeFiles/light_switch_client_nrf52840_xxAA_s140_5.0.0-3.alpha.dir/__/__/__/mesh/prov/src/prov_bearer_adv.c.obj
 .text.tx_retry_cb
                0x0002a4c0       0xcc examples/light_switch/client/CMakeFiles/light_switch_client_nrf52840_xxAA_s140_5.0.0-3.alpha.dir/__/__/__/mesh/prov/src/prov_bearer_adv.c.obj
 .text.add_active_bearer
                0x0002a58c       0x80 examples/light_switch/client/CMakeFiles/light_switch_client_nrf52840_xxAA_s140_5.0.0-3.alpha.dir/__/__/__/mesh/prov/src/prov_bearer_adv.c.obj
 .text.prov_bearer_adv_link_open
                0x0002a60c       0xf8 examples/light_switch/client/CMakeFiles/light_switch_client_nrf52840_xxAA_s140_5.0.0-3.alpha.dir/__/__/__/mesh/prov/src/prov_bearer_adv.c.obj
 .text.async_process
                0x0002a704       0x50 examples/light_switch/client/CMakeFiles/light_switch_client_nrf52840_xxAA_s140_5.0.0-3.alpha.dir/__/__/__/mesh/prov/src/prov_bearer_adv.c.obj
 .text.prov_bearer_adv_listen
                0x0002a754       0xec examples/light_switch/client/CMakeFiles/light_switch_client_nrf52840_xxAA_s140_5.0.0-3.alpha.dir/__/__/__/mesh/prov/src/prov_bearer_adv.c.obj
 .text.calculate_3GPP_CRC
                0x0002a840       0x24 examples/light_switch/client/CMakeFiles/light_switch_client_nrf52840_xxAA_s140_5.0.0-3.alpha.dir/__/__/__/mesh/prov/src/prov_bearer_adv.c.obj
                0x0002a840                calculate_3GPP_CRC
 .text.prov_bearer_adv_tx
                0x0002a864       0xb4 examples/light_switch/client/CMakeFiles/light_switch_client_nrf52840_xxAA_s140_5.0.0-3.alpha.dir/__/__/__/mesh/prov/src/prov_bearer_adv.c.obj
 .text.prov_buffer_rx
                0x0002a918       0x7c examples/light_switch/client/CMakeFiles/light_switch_client_nrf52840_xxAA_s140_5.0.0-3.alpha.dir/__/__/__/mesh/prov/src/prov_bearer_adv.c.obj
 .text.nrf_mesh_prov_bearer_adv_interface_get
                0x0002a994       0x48 examples/light_switch/client/CMakeFiles/light_switch_client_nrf52840_xxAA_s140_5.0.0-3.alpha.dir/__/__/__/mesh/prov/src/prov_bearer_adv.c.obj
                0x0002a994                nrf_mesh_prov_bearer_adv_interface_get
 .text.prov_bearer_adv_packet_in
                0x0002a9dc      0x80c examples/light_switch/client/CMakeFiles/light_switch_client_nrf52840_xxAA_s140_5.0.0-3.alpha.dir/__/__/__/mesh/prov/src/prov_bearer_adv.c.obj
                0x0002a9dc                prov_bearer_adv_packet_in
 .text.errata_136
                0x0002b1e8       0x20 examples/light_switch/client/CMakeFiles/light_switch_client_nrf52840_xxAA_s140_5.0.0-3.alpha.dir/__/__/__/external/nRF5_SDK_14.2.0_17b948a/components/toolchain/system_nrf52840.c.obj
 .text.SystemInit
                0x0002b208      0x1d0 examples/light_switch/client/CMakeFiles/light_switch_client_nrf52840_xxAA_s140_5.0.0-3.alpha.dir/__/__/__/external/nRF5_SDK_14.2.0_17b948a/components/toolchain/system_nrf52840.c.obj
                0x0002b208                SystemInit
 .text          0x0002b3d8       0x3c examples/light_switch/client/CMakeFiles/light_switch_client_nrf52840_xxAA_s140_5.0.0-3.alpha.dir/__/__/__/external/nRF5_SDK_14.2.0_17b948a/components/toolchain/gcc/gcc_startup_nrf52840.S.obj
                0x0002b3d8                Reset_Handler
                0x0002b400                NMI_Handler
                0x0002b404                MemoryManagement_Handler
                0x0002b406                BusFault_Handler
                0x0002b408                UsageFault_Handler
                0x0002b40a                SVC_Handler
                0x0002b40c                DebugMon_Handler
                0x0002b40e                PendSV_Handler
                0x0002b410                SysTick_Handler
                0x0002b412                PDM_IRQHandler
                0x0002b412                TEMP_IRQHandler
                0x0002b412                TIMER3_IRQHandler
                0x0002b412                PWM3_IRQHandler
                0x0002b412                FPU_IRQHandler
                0x0002b412                USBD_IRQHandler
                0x0002b412                SPIM0_SPIS0_TWIM0_TWIS0_SPI0_TWI0_IRQHandler
                0x0002b412                RADIO_IRQHandler
                0x0002b412                UARTE0_UART0_IRQHandler
                0x0002b412                TIMER4_IRQHandler
                0x0002b412                CRYPTOCELL_IRQHandler
                0x0002b412                I2S_IRQHandler
                0x0002b412                SWI4_EGU4_IRQHandler
                0x0002b412                TIMER0_IRQHandler
                0x0002b412                RTC0_IRQHandler
                0x0002b412                UARTE1_IRQHandler
                0x0002b412                POWER_CLOCK_IRQHandler
                0x0002b412                SPIM3_IRQHandler
                0x0002b412                PWM2_IRQHandler
                0x0002b412                ECB_IRQHandler
                0x0002b412                SPIM1_SPIS1_TWIM1_TWIS1_SPI1_TWI1_IRQHandler
                0x0002b412                Default_Handler
                0x0002b412                SAADC_IRQHandler
                0x0002b412                CCM_AAR_IRQHandler
                0x0002b412                WDT_IRQHandler
                0x0002b412                SWI0_EGU0_IRQHandler
                0x0002b412                SWI5_EGU5_IRQHandler
                0x0002b412                RNG_IRQHandler
                0x0002b412                RTC2_IRQHandler
                0x0002b412                PWM0_IRQHandler
                0x0002b412                SWI3_EGU3_IRQHandler
                0x0002b412                RTC1_IRQHandler
                0x0002b412                SWI1_EGU1_IRQHandler
                0x0002b412                SPIM2_SPIS2_SPI2_IRQHandler
                0x0002b412                NFCT_IRQHandler
                0x0002b412                PWM1_IRQHandler
                0x0002b412                MWU_IRQHandler
                0x0002b412                TIMER1_IRQHandler
                0x0002b412                QSPI_IRQHandler
                0x0002b412                COMP_LPCOMP_IRQHandler
 .text.nrf_mesh_configure_device_uuid_reset
                0x0002b414       0x28 mesh/core/libmesh_core_nrf52840_xxAA.a(nrf_mesh_configure.c.obj)
                0x0002b414                nrf_mesh_configure_device_uuid_reset
 .text.nrf_mesh_configure_device_uuid_get
                0x0002b43c        0x8 mesh/core/libmesh_core_nrf52840_xxAA.a(nrf_mesh_configure.c.obj)
                0x0002b43c                nrf_mesh_configure_device_uuid_get
 .text.event_handle
                0x0002b444       0x30 mesh/core/libmesh_core_nrf52840_xxAA.a(event.c.obj)
                0x0002b444                event_handle
 .text.event_handler_add
                0x0002b474       0x28 mesh/core/libmesh_core_nrf52840_xxAA.a(event.c.obj)
                0x0002b474                event_handler_add
 .text.event_handler_remove
                0x0002b49c       0x28 mesh/core/libmesh_core_nrf52840_xxAA.a(event.c.obj)
                0x0002b49c                event_handler_remove
 .text.packet_mgr_init
                0x0002b4c4       0x4c mesh/core/libmesh_core_nrf52840_xxAA.a(packet_mgr.c.obj)
                0x0002b4c4                packet_mgr_init
 .text.packet_mgr_alloc
                0x0002b510      0x19c mesh/core/libmesh_core_nrf52840_xxAA.a(packet_mgr.c.obj)
                0x0002b510                packet_mgr_alloc
 .text.packet_mgr_free
                0x0002b6ac       0x6c mesh/core/libmesh_core_nrf52840_xxAA.a(packet_mgr.c.obj)
                0x0002b6ac                packet_mgr_free
 .text.flash_mem_available
                0x0002b718       0x20 mesh/core/libmesh_core_nrf52840_xxAA.a(net_state.c.obj)
 .text.flash_store_iv_index
                0x0002b738       0x38 mesh/core/libmesh_core_nrf52840_xxAA.a(net_state.c.obj)
 .text.seqnum_block_allocate
                0x0002b770       0x48 mesh/core/libmesh_core_nrf52840_xxAA.a(net_state.c.obj)
 .text.flash_write_complete
                0x0002b7b8       0x78 mesh/core/libmesh_core_nrf52840_xxAA.a(net_state.c.obj)
 .text.net_state_recover_from_flash
                0x0002b830       0x8c mesh/core/libmesh_core_nrf52840_xxAA.a(net_state.c.obj)
                0x0002b830                net_state_recover_from_flash
 .text.net_state_flash_area_get
                0x0002b8bc        0xc mesh/core/libmesh_core_nrf52840_xxAA.a(net_state.c.obj)
                0x0002b8bc                net_state_flash_area_get
 .text.init_flash_storage
                0x0002b8c8       0x40 mesh/core/libmesh_core_nrf52840_xxAA.a(net_state.c.obj)
 .text.net_state_init
                0x0002b908       0x48 mesh/core/libmesh_core_nrf52840_xxAA.a(net_state.c.obj)
                0x0002b908                net_state_init
 .text.net_state_iv_update_start
                0x0002b950       0x64 mesh/core/libmesh_core_nrf52840_xxAA.a(net_state.c.obj)
                0x0002b950                net_state_iv_update_start
 .text.iv_update_trigger_if_pending
                0x0002b9b4       0x8c mesh/core/libmesh_core_nrf52840_xxAA.a(net_state.c.obj)
 .text.iv_update_timer_handler
                0x0002ba40       0x74 mesh/core/libmesh_core_nrf52840_xxAA.a(net_state.c.obj)
 .text.net_state_seqnum_alloc
                0x0002bab4       0x68 mesh/core/libmesh_core_nrf52840_xxAA.a(net_state.c.obj)
                0x0002bab4                net_state_seqnum_alloc
 .text.net_state_iv_index_lock
                0x0002bb1c       0x48 mesh/core/libmesh_core_nrf52840_xxAA.a(net_state.c.obj)
                0x0002bb1c                net_state_iv_index_lock
 .text.net_state_key_refresh_phase_changed
                0x0002bb64       0x1e mesh/core/libmesh_core_nrf52840_xxAA.a(net_state.c.obj)
                0x0002bb64                net_state_key_refresh_phase_changed
 *fill*         0x0002bb82        0x2 
 .text.net_state_beacon_received
                0x0002bb84       0x94 mesh/core/libmesh_core_nrf52840_xxAA.a(net_state.c.obj)
                0x0002bb84                net_state_beacon_received
 .text.net_state_beacon_iv_index_get
                0x0002bc18        0xc mesh/core/libmesh_core_nrf52840_xxAA.a(net_state.c.obj)
                0x0002bc18                net_state_beacon_iv_index_get
 .text.net_state_tx_iv_index_get
                0x0002bc24       0x14 mesh/core/libmesh_core_nrf52840_xxAA.a(net_state.c.obj)
                0x0002bc24                net_state_tx_iv_index_get
 .text.net_state_rx_iv_index_get
                0x0002bc38       0x18 mesh/core/libmesh_core_nrf52840_xxAA.a(net_state.c.obj)
                0x0002bc38                net_state_rx_iv_index_get
 .text.net_state_iv_update_get
                0x0002bc50        0xc mesh/core/libmesh_core_nrf52840_xxAA.a(net_state.c.obj)
                0x0002bc50                net_state_iv_update_get
 .text.nrf_mesh_address_type_get
                0x0002bc5c       0x10 mesh/core/libmesh_core_nrf52840_xxAA.a(nrf_mesh_utils.c.obj)
                0x0002bc5c                nrf_mesh_address_type_get
 .text.sd_softdevice_is_enabled
                0x0002bc6c        0x4 mesh/core/libmesh_core_nrf52840_xxAA.a(nrf_mesh.c.obj)
 .text.nrf_mesh_listen
                0x0002bc70      0x138 mesh/core/libmesh_core_nrf52840_xxAA.a(nrf_mesh.c.obj)
 .text.scanner_packet_process_cb
                0x0002bda8       0x8c mesh/core/libmesh_core_nrf52840_xxAA.a(nrf_mesh.c.obj)
 .text.nrf_mesh_init
                0x0002be34       0xd8 mesh/core/libmesh_core_nrf52840_xxAA.a(nrf_mesh.c.obj)
                0x0002be34                nrf_mesh_init
 .text.nrf_mesh_enable
                0x0002bf0c       0x48 mesh/core/libmesh_core_nrf52840_xxAA.a(nrf_mesh.c.obj)
                0x0002bf0c                nrf_mesh_enable
 .text.nrf_mesh_packet_send
                0x0002bf54        0x4 mesh/core/libmesh_core_nrf52840_xxAA.a(nrf_mesh.c.obj)
                0x0002bf54                nrf_mesh_packet_send
 .text.nrf_mesh_on_ble_evt
                0x0002bf58        0x4 mesh/core/libmesh_core_nrf52840_xxAA.a(nrf_mesh.c.obj)
                0x0002bf58                nrf_mesh_on_ble_evt
 .text.nrf_mesh_on_sd_evt
                0x0002bf5c        0xa mesh/core/libmesh_core_nrf52840_xxAA.a(nrf_mesh.c.obj)
                0x0002bf5c                nrf_mesh_on_sd_evt
 .text.nrf_mesh_evt_handler_add
                0x0002bf66        0x4 mesh/core/libmesh_core_nrf52840_xxAA.a(nrf_mesh.c.obj)
                0x0002bf66                nrf_mesh_evt_handler_add
 *fill*         0x0002bf6a        0x2 
 .text.hal_lfclk_ppm_get
                0x0002bf6c       0x14 mesh/core/libmesh_core_nrf52840_xxAA.a(hal.c.obj)
                0x0002bf6c                hal_lfclk_ppm_get
 .text.add_to_add_list
                0x0002bf80       0x44 mesh/core/libmesh_core_nrf52840_xxAA.a(timer_scheduler.c.obj)
 .text.process_dirty_events
                0x0002bfc4       0x6c mesh/core/libmesh_core_nrf52840_xxAA.a(timer_scheduler.c.obj)
 .text.timer_cb
                0x0002c030        0xc mesh/core/libmesh_core_nrf52840_xxAA.a(timer_scheduler.c.obj)
 .text.add_evt.constprop.0
                0x0002c03c       0x68 mesh/core/libmesh_core_nrf52840_xxAA.a(timer_scheduler.c.obj)
 .text.process_add_list
                0x0002c0a4       0x48 mesh/core/libmesh_core_nrf52840_xxAA.a(timer_scheduler.c.obj)
 .text.flag_event_cb
                0x0002c0ec      0x100 mesh/core/libmesh_core_nrf52840_xxAA.a(timer_scheduler.c.obj)
 .text.timer_sch_init
                0x0002c1ec       0x24 mesh/core/libmesh_core_nrf52840_xxAA.a(timer_scheduler.c.obj)
                0x0002c1ec                timer_sch_init
 .text.timer_sch_schedule
                0x0002c210       0x50 mesh/core/libmesh_core_nrf52840_xxAA.a(timer_scheduler.c.obj)
                0x0002c210                timer_sch_schedule
 .text.timer_sch_abort
                0x0002c260       0x64 mesh/core/libmesh_core_nrf52840_xxAA.a(timer_scheduler.c.obj)
                0x0002c260                timer_sch_abort
 .text.timer_sch_reschedule
                0x0002c2c4       0x70 mesh/core/libmesh_core_nrf52840_xxAA.a(timer_scheduler.c.obj)
                0x0002c2c4                timer_sch_reschedule
 .text.timer_mut_unlock
                0x0002c334       0x10 mesh/core/libmesh_core_nrf52840_xxAA.a(timer.c.obj)
 .text.timer_order_cb
                0x0002c344       0x94 mesh/core/libmesh_core_nrf52840_xxAA.a(timer.c.obj)
                0x0002c344                timer_order_cb
 .text.timer_now
                0x0002c3d8       0x48 mesh/core/libmesh_core_nrf52840_xxAA.a(timer.c.obj)
                0x0002c3d8                timer_now
 .text.timer_event_handler
                0x0002c420       0x98 mesh/core/libmesh_core_nrf52840_xxAA.a(timer.c.obj)
                0x0002c420                timer_event_handler
 .text.timer_on_ts_begin
                0x0002c4b8       0xfc mesh/core/libmesh_core_nrf52840_xxAA.a(timer.c.obj)
                0x0002c4b8                timer_on_ts_begin
 .text.timer_on_ts_end
                0x0002c5b4       0x60 mesh/core/libmesh_core_nrf52840_xxAA.a(timer.c.obj)
                0x0002c5b4                timer_on_ts_end
 .text.timer_cb
                0x0002c614       0x10 mesh/core/libmesh_core_nrf52840_xxAA.a(ticker.c.obj)
 .text.ticker_init
                0x0002c624       0x3c mesh/core/libmesh_core_nrf52840_xxAA.a(ticker.c.obj)
                0x0002c624                ticker_init
 .text.sd_rand_application_bytes_available_get
                0x0002c660        0x4 mesh/core/libmesh_core_nrf52840_xxAA.a(rand.c.obj)
 .text.sd_rand_application_vector_get
                0x0002c664        0x4 mesh/core/libmesh_core_nrf52840_xxAA.a(rand.c.obj)
 .text.rand_prng_get
                0x0002c668       0x22 mesh/core/libmesh_core_nrf52840_xxAA.a(rand.c.obj)
                0x0002c668                rand_prng_get
 *fill*         0x0002c68a        0x2 
 .text.rand_hw_rng_get
                0x0002c68c       0x50 mesh/core/libmesh_core_nrf52840_xxAA.a(rand.c.obj)
                0x0002c68c                rand_hw_rng_get
 .text.rand_prng_seed
                0x0002c6dc       0x34 mesh/core/libmesh_core_nrf52840_xxAA.a(rand.c.obj)
                0x0002c6dc                rand_prng_seed
 .text.sd_radio_session_open
                0x0002c710        0x4 mesh/core/libmesh_core_nrf52840_xxAA.a(timeslot.c.obj)
 .text.sd_radio_session_close
                0x0002c714        0x4 mesh/core/libmesh_core_nrf52840_xxAA.a(timeslot.c.obj)
 .text.sd_radio_request
                0x0002c718        0x4 mesh/core/libmesh_core_nrf52840_xxAA.a(timeslot.c.obj)
 .text.end_timer_handler
                0x0002c71c       0x24 mesh/core/libmesh_core_nrf52840_xxAA.a(timeslot.c.obj)
 .text.get_end_time.constprop.10
                0x0002c740       0x28 mesh/core/libmesh_core_nrf52840_xxAA.a(timeslot.c.obj)
 .text.handle_extend_end.constprop.3
                0x0002c768       0xc0 mesh/core/libmesh_core_nrf52840_xxAA.a(timeslot.c.obj)
 .text.radio_signal_callback
                0x0002c828      0x14c mesh/core/libmesh_core_nrf52840_xxAA.a(timeslot.c.obj)
 .text.timeslot_sd_event_handler
                0x0002c974       0x44 mesh/core/libmesh_core_nrf52840_xxAA.a(timeslot.c.obj)
                0x0002c974                timeslot_sd_event_handler
 .text.timeslot_init
                0x0002c9b8       0x48 mesh/core/libmesh_core_nrf52840_xxAA.a(timeslot.c.obj)
                0x0002c9b8                timeslot_init
 .text.timeslot_start
                0x0002ca00       0x20 mesh/core/libmesh_core_nrf52840_xxAA.a(timeslot.c.obj)
                0x0002ca00                timeslot_start
 .text.timeslot_end_is_pending
                0x0002ca20       0x24 mesh/core/libmesh_core_nrf52840_xxAA.a(timeslot.c.obj)
                0x0002ca20                timeslot_end_is_pending
 .text.timeslot_start_time_get
                0x0002ca44        0xc mesh/core/libmesh_core_nrf52840_xxAA.a(timeslot.c.obj)
                0x0002ca44                timeslot_start_time_get
 .text.timeslot_remaining_time_get
                0x0002ca50       0x20 mesh/core/libmesh_core_nrf52840_xxAA.a(timeslot.c.obj)
                0x0002ca50                timeslot_remaining_time_get
 .text.timeslot_is_in_cb
                0x0002ca70        0xc mesh/core/libmesh_core_nrf52840_xxAA.a(timeslot.c.obj)
                0x0002ca70                timeslot_is_in_cb
 .text.timeslot_trigger
                0x0002ca7c       0x24 mesh/core/libmesh_core_nrf52840_xxAA.a(timeslot.c.obj)
                0x0002ca7c                timeslot_trigger
 .text.timeslot_stop
                0x0002caa0       0x10 mesh/core/libmesh_core_nrf52840_xxAA.a(timeslot.c.obj)
                0x0002caa0                timeslot_stop
 .text.timeslot_state_lock
                0x0002cab0       0x28 mesh/core/libmesh_core_nrf52840_xxAA.a(timeslot.c.obj)
                0x0002cab0                timeslot_state_lock
 .text.trigger_event_handler
                0x0002cad8       0x1c mesh/core/libmesh_core_nrf52840_xxAA.a(bearer_event.c.obj)
 .text.evt_push
                0x0002caf4       0x1c mesh/core/libmesh_core_nrf52840_xxAA.a(bearer_event.c.obj)
 .text.bearer_event_init
                0x0002cb10       0x48 mesh/core/libmesh_core_nrf52840_xxAA.a(bearer_event.c.obj)
                0x0002cb10                bearer_event_init
 .text.bearer_event_timer_post
                0x0002cb58       0x30 mesh/core/libmesh_core_nrf52840_xxAA.a(bearer_event.c.obj)
                0x0002cb58                bearer_event_timer_post
 .text.bearer_event_critical_section_begin
                0x0002cb88       0x50 mesh/core/libmesh_core_nrf52840_xxAA.a(bearer_event.c.obj)
                0x0002cb88                bearer_event_critical_section_begin
 .text.bearer_event_critical_section_end
                0x0002cbd8       0x4c mesh/core/libmesh_core_nrf52840_xxAA.a(bearer_event.c.obj)
                0x0002cbd8                bearer_event_critical_section_end
 .text.bearer_event_flag_add
                0x0002cc24       0x50 mesh/core/libmesh_core_nrf52840_xxAA.a(bearer_event.c.obj)
                0x0002cc24                bearer_event_flag_add
 .text.bearer_event_flag_set
                0x0002cc74       0x50 mesh/core/libmesh_core_nrf52840_xxAA.a(bearer_event.c.obj)
                0x0002cc74                bearer_event_flag_set
 .text.bearer_event_sequential_add
                0x0002ccc4       0x44 mesh/core/libmesh_core_nrf52840_xxAA.a(bearer_event.c.obj)
                0x0002ccc4                bearer_event_sequential_add
 .text.bearer_event_sequential_post
                0x0002cd08       0x58 mesh/core/libmesh_core_nrf52840_xxAA.a(bearer_event.c.obj)
                0x0002cd08                bearer_event_sequential_post
 .text.bearer_event_sequential_pending
                0x0002cd60       0x1c mesh/core/libmesh_core_nrf52840_xxAA.a(bearer_event.c.obj)
                0x0002cd60                bearer_event_sequential_pending
 .text.bearer_event_handler
                0x0002cd7c      0x104 mesh/core/libmesh_core_nrf52840_xxAA.a(bearer_event.c.obj)
                0x0002cd7c                bearer_event_handler
 .text.QDEC_IRQHandler
                0x0002ce80        0x4 mesh/core/libmesh_core_nrf52840_xxAA.a(bearer_event.c.obj)
                0x0002ce80                QDEC_IRQHandler
 .text.enc_aes_encrypt
                0x0002ce84        0x4 mesh/core/libmesh_core_nrf52840_xxAA.a(enc.c.obj)
                0x0002ce84                enc_aes_encrypt
 .text.enc_aes_cmac
                0x0002ce88        0x4 mesh/core/libmesh_core_nrf52840_xxAA.a(enc.c.obj)
                0x0002ce88                enc_aes_cmac
 .text.enc_aes_ccm_encrypt
                0x0002ce8c        0x4 mesh/core/libmesh_core_nrf52840_xxAA.a(enc.c.obj)
                0x0002ce8c                enc_aes_ccm_encrypt
 .text.enc_aes_ccm_decrypt
                0x0002ce90        0x4 mesh/core/libmesh_core_nrf52840_xxAA.a(enc.c.obj)
                0x0002ce90                enc_aes_ccm_decrypt
 .text.enc_nonce_generate
                0x0002ce94       0xb8 mesh/core/libmesh_core_nrf52840_xxAA.a(enc.c.obj)
                0x0002ce94                enc_nonce_generate
 .text.enc_s1   0x0002cf4c       0x38 mesh/core/libmesh_core_nrf52840_xxAA.a(enc.c.obj)
                0x0002cf4c                enc_s1
 .text.enc_k1   0x0002cf84       0x48 mesh/core/libmesh_core_nrf52840_xxAA.a(enc.c.obj)
                0x0002cf84                enc_k1
 .text.enc_k2   0x0002cfcc       0xd8 mesh/core/libmesh_core_nrf52840_xxAA.a(enc.c.obj)
                0x0002cfcc                enc_k2
 .text.enc_k3   0x0002d0a4       0x68 mesh/core/libmesh_core_nrf52840_xxAA.a(enc.c.obj)
                0x0002d0a4                enc_k3
 .text.enc_k4   0x0002d10c       0x60 mesh/core/libmesh_core_nrf52840_xxAA.a(enc.c.obj)
                0x0002d10c                enc_k4
 .text.header_transfuscate
                0x0002d16c       0x54 mesh/core/libmesh_core_nrf52840_xxAA.a(network.c.obj)
 .text.allocate_packet
                0x0002d1c0      0x14c mesh/core/libmesh_core_nrf52840_xxAA.a(network.c.obj)
 .text.network_init
                0x0002d30c       0x2c mesh/core/libmesh_core_nrf52840_xxAA.a(network.c.obj)
                0x0002d30c                network_init
 .text.network_opt_get
                0x0002d338       0x4c mesh/core/libmesh_core_nrf52840_xxAA.a(network.c.obj)
                0x0002d338                network_opt_get
 .text.network_packet_alloc
                0x0002d384       0x50 mesh/core/libmesh_core_nrf52840_xxAA.a(network.c.obj)
                0x0002d384                network_packet_alloc
 .text.network_packet_send
                0x0002d3d4      0x140 mesh/core/libmesh_core_nrf52840_xxAA.a(network.c.obj)
                0x0002d3d4                network_packet_send
 .text.network_packet_in
                0x0002d514      0x460 mesh/core/libmesh_core_nrf52840_xxAA.a(network.c.obj)
                0x0002d514                network_packet_in
 .text.nrf_mesh_keygen_aid
                0x0002d974       0x12 mesh/core/libmesh_core_nrf52840_xxAA.a(nrf_mesh_keygen.c.obj)
                0x0002d974                nrf_mesh_keygen_aid
 .text.nrf_mesh_keygen_network_secmat
                0x0002d986       0x20 mesh/core/libmesh_core_nrf52840_xxAA.a(nrf_mesh_keygen.c.obj)
                0x0002d986                nrf_mesh_keygen_network_secmat
 *fill*         0x0002d9a6        0x2 
 .text.nrf_mesh_keygen_beacon_secmat
                0x0002d9a8       0x50 mesh/core/libmesh_core_nrf52840_xxAA.a(nrf_mesh_keygen.c.obj)
                0x0002d9a8                nrf_mesh_keygen_beacon_secmat
 .text.nrf_mesh_keygen_virtual_address
                0x0002d9f8       0x50 mesh/core/libmesh_core_nrf52840_xxAA.a(nrf_mesh_keygen.c.obj)
                0x0002d9f8                nrf_mesh_keygen_virtual_address
 .text.list_insert
                0x0002da48       0x28 mesh/core/libmesh_core_nrf52840_xxAA.a(list.c.obj)
 .text.list_add
                0x0002da70       0x60 mesh/core/libmesh_core_nrf52840_xxAA.a(list.c.obj)
                0x0002da70                list_add
 .text.list_remove
                0x0002dad0       0x48 mesh/core/libmesh_core_nrf52840_xxAA.a(list.c.obj)
                0x0002dad0                list_remove
 .text.list_compare_add
                0x0002db18       0x80 mesh/core/libmesh_core_nrf52840_xxAA.a(list.c.obj)
                0x0002db18                list_compare_add
 .text.log_callback_rtt
                0x0002db98       0x2c mesh/core/libmesh_core_nrf52840_xxAA.a(log.c.obj)
                0x0002db98                log_callback_rtt
 .text.log_init
                0x0002dbc4       0x1c mesh/core/libmesh_core_nrf52840_xxAA.a(log.c.obj)
                0x0002dbc4                log_init
 .text.log_vprintf
                0x0002dbe0       0x18 mesh/core/libmesh_core_nrf52840_xxAA.a(log.c.obj)
                0x0002dbe0                log_vprintf
 .text.log_printf
                0x0002dbf8       0x18 mesh/core/libmesh_core_nrf52840_xxAA.a(log.c.obj)
                0x0002dbf8                log_printf
 .text.get_area_end
                0x0002dc10        0xc mesh/core/libmesh_core_nrf52840_xxAA.a(flash_manager.c.obj)
 .text.handle_matches_filter
                0x0002dc1c       0x26 mesh/core/libmesh_core_nrf52840_xxAA.a(flash_manager.c.obj)
 *fill*         0x0002dc42        0x2 
 .text.get_packet_buffer
                0x0002dc44       0x2c mesh/core/libmesh_core_nrf52840_xxAA.a(flash_manager.c.obj)
 .text.get_entry_action
                0x0002dc70       0x30 mesh/core/libmesh_core_nrf52840_xxAA.a(flash_manager.c.obj)
 .text.flash_area_is_blank
                0x0002dca0       0x48 mesh/core/libmesh_core_nrf52840_xxAA.a(flash_manager.c.obj)
 .text.flash    0x0002dce8       0x1c mesh/core/libmesh_core_nrf52840_xxAA.a(flash_manager.c.obj)
 .text.free_packet_buffer
                0x0002dd04       0x54 mesh/core/libmesh_core_nrf52840_xxAA.a(flash_manager.c.obj)
 .text.reserve_action_buffer
                0x0002dd58       0x24 mesh/core/libmesh_core_nrf52840_xxAA.a(flash_manager.c.obj)
 .text.commit_action_buffer
                0x0002dd7c       0x18 mesh/core/libmesh_core_nrf52840_xxAA.a(flash_manager.c.obj)
 .text.schedule_processing
                0x0002dd94        0xc mesh/core/libmesh_core_nrf52840_xxAA.a(flash_manager.c.obj)
 .text.get_next_entry
                0x0002dda0       0x40 mesh/core/libmesh_core_nrf52840_xxAA.a(flash_manager.c.obj)
 .text.get_last_entry.isra.1
                0x0002dde0       0x30 mesh/core/libmesh_core_nrf52840_xxAA.a(flash_manager.c.obj)
 .text.process_action_queue
                0x0002de10      0x4e4 mesh/core/libmesh_core_nrf52840_xxAA.a(flash_manager.c.obj)
 .text.flash_op_ended_callback
                0x0002e2f4       0x24 mesh/core/libmesh_core_nrf52840_xxAA.a(flash_manager.c.obj)
 .text.flash_manager_init
                0x0002e318       0x68 mesh/core/libmesh_core_nrf52840_xxAA.a(flash_manager.c.obj)
                0x0002e318                flash_manager_init
 .text.flash_manager_remove
                0x0002e380       0x24 mesh/core/libmesh_core_nrf52840_xxAA.a(flash_manager.c.obj)
                0x0002e380                flash_manager_remove
 .text.flash_manager_entry_get
                0x0002e3a4       0x48 mesh/core/libmesh_core_nrf52840_xxAA.a(flash_manager.c.obj)
                0x0002e3a4                flash_manager_entry_get
 .text.flash_manager_entry_next_get
                0x0002e3ec       0x6c mesh/core/libmesh_core_nrf52840_xxAA.a(flash_manager.c.obj)
                0x0002e3ec                flash_manager_entry_next_get
 .text.flash_manager_entry_alloc
                0x0002e458       0x78 mesh/core/libmesh_core_nrf52840_xxAA.a(flash_manager.c.obj)
                0x0002e458                flash_manager_entry_alloc
 .text.flash_manager_entry_commit
                0x0002e4d0       0x12 mesh/core/libmesh_core_nrf52840_xxAA.a(flash_manager.c.obj)
                0x0002e4d0                flash_manager_entry_commit
 *fill*         0x0002e4e2        0x2 
 .text.flash_manager_entry_invalidate
                0x0002e4e4       0x64 mesh/core/libmesh_core_nrf52840_xxAA.a(flash_manager.c.obj)
                0x0002e4e4                flash_manager_entry_invalidate
 .text.flash_manager_add
                0x0002e548      0x248 mesh/core/libmesh_core_nrf52840_xxAA.a(flash_manager.c.obj)
                0x0002e548                flash_manager_add
 .text.flash_manager_mem_listener_register
                0x0002e790       0x44 mesh/core/libmesh_core_nrf52840_xxAA.a(flash_manager.c.obj)
                0x0002e790                flash_manager_mem_listener_register
 .text.flash_manager_is_stable
                0x0002e7d4       0x24 mesh/core/libmesh_core_nrf52840_xxAA.a(flash_manager.c.obj)
                0x0002e7d4                flash_manager_is_stable
 .text.flash_manager_on_defrag_end
                0x0002e7f8       0x58 mesh/core/libmesh_core_nrf52840_xxAA.a(flash_manager.c.obj)
                0x0002e7f8                flash_manager_on_defrag_end
 .text.flash_manager_recovery_page_get
                0x0002e850        0x4 mesh/core/libmesh_core_nrf52840_xxAA.a(flash_manager.c.obj)
                0x0002e850                flash_manager_recovery_page_get
 .text.utils_xor
                0x0002e854       0x14 mesh/core/libmesh_core_nrf52840_xxAA.a(ccm_soft.c.obj)
 .text.ccm_soft_authenticate_blocks
                0x0002e868       0x68 mesh/core/libmesh_core_nrf52840_xxAA.a(ccm_soft.c.obj)
 .text.utils_reverse_memcpy.constprop.0
                0x0002e8d0        0xa mesh/core/libmesh_core_nrf52840_xxAA.a(ccm_soft.c.obj)
 .text.ccm_soft_authenticate
                0x0002e8da       0xa0 mesh/core/libmesh_core_nrf52840_xxAA.a(ccm_soft.c.obj)
 .text.ccm_soft_crypt
                0x0002e97a       0x6c mesh/core/libmesh_core_nrf52840_xxAA.a(ccm_soft.c.obj)
 .text.ccm_soft_encrypt
                0x0002e9e6       0x70 mesh/core/libmesh_core_nrf52840_xxAA.a(ccm_soft.c.obj)
                0x0002e9e6                ccm_soft_encrypt
 .text.ccm_soft_decrypt
                0x0002ea56       0xfe mesh/core/libmesh_core_nrf52840_xxAA.a(ccm_soft.c.obj)
                0x0002ea56                ccm_soft_decrypt
 .text.beacon_init
                0x0002eb54       0x48 mesh/core/libmesh_core_nrf52840_xxAA.a(beacon.c.obj)
                0x0002eb54                beacon_init
 .text.beacon_create
                0x0002eb9c       0x46 mesh/core/libmesh_core_nrf52840_xxAA.a(beacon.c.obj)
                0x0002eb9c                beacon_create
 *fill*         0x0002ebe2        0x2 
 .text.beacon_tx
                0x0002ebe4       0x3c mesh/core/libmesh_core_nrf52840_xxAA.a(beacon.c.obj)
                0x0002ebe4                beacon_tx
 .text.beacon_packet_in
                0x0002ec20      0x160 mesh/core/libmesh_core_nrf52840_xxAA.a(beacon.c.obj)
                0x0002ec20                beacon_packet_in
 .text.entry_get
                0x0002ed80       0x88 mesh/core/libmesh_core_nrf52840_xxAA.a(flash_manager_internal.c.obj)
                0x0002ed80                entry_get
 .text.is_power_of_two
                0x0002ee08        0xe mesh/core/libmesh_core_nrf52840_xxAA.a(core_tx.c.obj)
 *fill*         0x0002ee16        0x2 
 .text.bearer_if_get
                0x0002ee18       0x44 mesh/core/libmesh_core_nrf52840_xxAA.a(core_tx.c.obj)
 .text.core_tx_complete_cb_set
                0x0002ee5c        0xc mesh/core/libmesh_core_nrf52840_xxAA.a(core_tx.c.obj)
                0x0002ee5c                core_tx_complete_cb_set
 .text.core_tx_packet_alloc
                0x0002ee68       0x88 mesh/core/libmesh_core_nrf52840_xxAA.a(core_tx.c.obj)
                0x0002ee68                core_tx_packet_alloc
 .text.core_tx_packet_send
                0x0002eef0       0x80 mesh/core/libmesh_core_nrf52840_xxAA.a(core_tx.c.obj)
                0x0002eef0                core_tx_packet_send
 .text.core_tx_packet_discard
                0x0002ef70       0x80 mesh/core/libmesh_core_nrf52840_xxAA.a(core_tx.c.obj)
                0x0002ef70                core_tx_packet_discard
 .text.core_tx_complete
                0x0002eff0       0x10 mesh/core/libmesh_core_nrf52840_xxAA.a(core_tx.c.obj)
                0x0002eff0                core_tx_complete
 .text.core_tx_bearer_register
                0x0002f000       0x84 mesh/core/libmesh_core_nrf52840_xxAA.a(core_tx.c.obj)
                0x0002f000                core_tx_bearer_register
 .text.heartbeat_subscription_timer_cb
                0x0002f084       0x1c mesh/core/libmesh_core_nrf52840_xxAA.a(heartbeat.c.obj)
 .text.heartbeat_opcode_handle
                0x0002f0a0       0x78 mesh/core/libmesh_core_nrf52840_xxAA.a(heartbeat.c.obj)
 .text.heartbeat_send
                0x0002f118       0xd0 mesh/core/libmesh_core_nrf52840_xxAA.a(heartbeat.c.obj)
 .text.heartbeat_core_evt_cb
                0x0002f1e8       0x90 mesh/core/libmesh_core_nrf52840_xxAA.a(heartbeat.c.obj)
 .text.heartbeat_publication_timer_cb
                0x0002f278       0xc8 mesh/core/libmesh_core_nrf52840_xxAA.a(heartbeat.c.obj)
 .text.heartbeat_init
                0x0002f340       0x8c mesh/core/libmesh_core_nrf52840_xxAA.a(heartbeat.c.obj)
                0x0002f340                heartbeat_init
 .text.make_network_beacon_cmac
                0x0002f3cc       0x22 mesh/core/libmesh_core_nrf52840_xxAA.a(net_beacon.c.obj)
 *fill*         0x0002f3ee        0x2 
 .text.network_beacon_tx_cb
                0x0002f3f0       0xe8 mesh/core/libmesh_core_nrf52840_xxAA.a(net_beacon.c.obj)
 .text.net_beacon_init
                0x0002f4d8       0x60 mesh/core/libmesh_core_nrf52840_xxAA.a(net_beacon.c.obj)
                0x0002f4d8                net_beacon_init
 .text.net_beacon_packet_in
                0x0002f538      0x104 mesh/core/libmesh_core_nrf52840_xxAA.a(net_beacon.c.obj)
                0x0002f538                net_beacon_packet_in
 .text.packet_discard
                0x0002f63c       0x14 mesh/core/libmesh_core_nrf52840_xxAA.a(core_tx_adv.c.obj)
 .text.packet_send
                0x0002f650       0x14 mesh/core/libmesh_core_nrf52840_xxAA.a(core_tx_adv.c.obj)
 .text.packet_alloc
                0x0002f664       0x3c mesh/core/libmesh_core_nrf52840_xxAA.a(core_tx_adv.c.obj)
 .text.adv_tx_complete_callback
                0x0002f6a0       0x30 mesh/core/libmesh_core_nrf52840_xxAA.a(core_tx_adv.c.obj)
 .text.core_tx_adv_init
                0x0002f6d0       0x58 mesh/core/libmesh_core_nrf52840_xxAA.a(core_tx_adv.c.obj)
                0x0002f6d0                core_tx_adv_init
 .text.core_tx_adv_count_get
                0x0002f728       0x28 mesh/core/libmesh_core_nrf52840_xxAA.a(core_tx_adv.c.obj)
                0x0002f728                core_tx_adv_count_get
 .text.core_tx_adv_interval_get
                0x0002f750       0x34 mesh/core/libmesh_core_nrf52840_xxAA.a(core_tx_adv.c.obj)
                0x0002f750                core_tx_adv_interval_get
 .text.ad_listener_subscribe
                0x0002f784       0x5c mesh/core/libmesh_core_nrf52840_xxAA.a(ad_listener.c.obj)
                0x0002f784                ad_listener_subscribe
 .text.ad_listener_process
                0x0002f7e0       0x64 mesh/core/libmesh_core_nrf52840_xxAA.a(ad_listener.c.obj)
                0x0002f7e0                ad_listener_process
 .text.adtype_filter_handle
                0x0002f844       0x64 mesh/core/libmesh_core_nrf52840_xxAA.a(ad_type_filter.c.obj)
 .text.bearer_adtype_filtering_set
                0x0002f8a8       0x1c mesh/core/libmesh_core_nrf52840_xxAA.a(ad_type_filter.c.obj)
                0x0002f8a8                bearer_adtype_filtering_set
 .text.bearer_adtype_add
                0x0002f8c4       0x20 mesh/core/libmesh_core_nrf52840_xxAA.a(ad_type_filter.c.obj)
                0x0002f8c4                bearer_adtype_add
 .text.bearer_adtype_mode_set
                0x0002f8e4       0x24 mesh/core/libmesh_core_nrf52840_xxAA.a(ad_type_filter.c.obj)
                0x0002f8e4                bearer_adtype_mode_set
 .text.set_gap_addr_type
                0x0002f908       0x34 mesh/core/libmesh_core_nrf52840_xxAA.a(advertiser.c.obj)
 .text.tx_complete_event_callback
                0x0002f93c       0x3c mesh/core/libmesh_core_nrf52840_xxAA.a(advertiser.c.obj)
 .text.broadcast_complete_cb
                0x0002f978       0x64 mesh/core/libmesh_core_nrf52840_xxAA.a(advertiser.c.obj)
 .text.schedule_first_time
                0x0002f9dc       0x28 mesh/core/libmesh_core_nrf52840_xxAA.a(advertiser.c.obj)
 .text.timeout_event
                0x0002fa04      0x130 mesh/core/libmesh_core_nrf52840_xxAA.a(advertiser.c.obj)
 .text.advertiser_init
                0x0002fb34        0xc mesh/core/libmesh_core_nrf52840_xxAA.a(advertiser.c.obj)
                0x0002fb34                advertiser_init
 .text.advertiser_enable
                0x0002fb40       0x2a mesh/core/libmesh_core_nrf52840_xxAA.a(advertiser.c.obj)
                0x0002fb40                advertiser_enable
 *fill*         0x0002fb6a        0x2 
 .text.advertiser_packet_alloc
                0x0002fb6c       0x94 mesh/core/libmesh_core_nrf52840_xxAA.a(advertiser.c.obj)
                0x0002fb6c                advertiser_packet_alloc
 .text.advertiser_packet_send
                0x0002fc00       0x78 mesh/core/libmesh_core_nrf52840_xxAA.a(advertiser.c.obj)
                0x0002fc00                advertiser_packet_send
 .text.advertiser_packet_discard
                0x0002fc78       0x2c mesh/core/libmesh_core_nrf52840_xxAA.a(advertiser.c.obj)
                0x0002fc78                advertiser_packet_discard
 .text.advertiser_interval_set
                0x0002fca4       0x68 mesh/core/libmesh_core_nrf52840_xxAA.a(advertiser.c.obj)
                0x0002fca4                advertiser_interval_set
 .text.advertiser_flush
                0x0002fd0c       0x1e mesh/core/libmesh_core_nrf52840_xxAA.a(advertiser.c.obj)
                0x0002fd0c                advertiser_flush
 *fill*         0x0002fd2a        0x2 
 .text.advertiser_address_default_get
                0x0002fd2c       0x38 mesh/core/libmesh_core_nrf52840_xxAA.a(advertiser.c.obj)
                0x0002fd2c                advertiser_address_default_get
 .text.advertiser_instance_init
                0x0002fd64       0xbc mesh/core/libmesh_core_nrf52840_xxAA.a(advertiser.c.obj)
                0x0002fd64                advertiser_instance_init
 .text.action_switch
                0x0002fe20       0xc0 mesh/core/libmesh_core_nrf52840_xxAA.a(bearer_handler.c.obj)
 .text.bearer_handler_init
                0x0002fee0       0x2c mesh/core/libmesh_core_nrf52840_xxAA.a(bearer_handler.c.obj)
                0x0002fee0                bearer_handler_init
 .text.bearer_handler_start
                0x0002ff0c       0x1c mesh/core/libmesh_core_nrf52840_xxAA.a(bearer_handler.c.obj)
                0x0002ff0c                bearer_handler_start
 .text.bearer_handler_action_enqueue
                0x0002ff28       0x94 mesh/core/libmesh_core_nrf52840_xxAA.a(bearer_handler.c.obj)
                0x0002ff28                bearer_handler_action_enqueue
 .text.bearer_handler_action_end
                0x0002ffbc       0x78 mesh/core/libmesh_core_nrf52840_xxAA.a(bearer_handler.c.obj)
                0x0002ffbc                bearer_handler_action_end
 .text.bearer_handler_radio_irq_handler
                0x00030034       0x64 mesh/core/libmesh_core_nrf52840_xxAA.a(bearer_handler.c.obj)
                0x00030034                bearer_handler_radio_irq_handler
 .text.bearer_handler_timer_irq_handler
                0x00030098       0x30 mesh/core/libmesh_core_nrf52840_xxAA.a(bearer_handler.c.obj)
                0x00030098                bearer_handler_timer_irq_handler
 .text.bearer_handler_on_ts_begin
                0x000300c8       0x44 mesh/core/libmesh_core_nrf52840_xxAA.a(bearer_handler.c.obj)
                0x000300c8                bearer_handler_on_ts_begin
 .text.bearer_handler_on_ts_end
                0x0003010c       0x48 mesh/core/libmesh_core_nrf52840_xxAA.a(bearer_handler.c.obj)
                0x0003010c                bearer_handler_on_ts_end
 .text.radio_irq_handler
                0x00030154       0xb0 mesh/core/libmesh_core_nrf52840_xxAA.a(broadcast.c.obj)
 .text.broadcast_start
                0x00030204       0x8c mesh/core/libmesh_core_nrf52840_xxAA.a(broadcast.c.obj)
 .text.broadcast_send
                0x00030290       0x80 mesh/core/libmesh_core_nrf52840_xxAA.a(broadcast.c.obj)
                0x00030290                broadcast_send
 .text.fen_filter_start
                0x00030310       0x3c mesh/core/libmesh_core_nrf52840_xxAA.a(filter_engine.c.obj)
                0x00030310                fen_filter_start
 .text.fen_filter_stop
                0x0003034c       0x2c mesh/core/libmesh_core_nrf52840_xxAA.a(filter_engine.c.obj)
                0x0003034c                fen_filter_stop
 .text.fen_filters_apply
                0x00030378       0x34 mesh/core/libmesh_core_nrf52840_xxAA.a(filter_engine.c.obj)
                0x00030378                fen_filters_apply
 .text.radio_config_reset
                0x000303ac       0x34 mesh/core/libmesh_core_nrf52840_xxAA.a(radio_config.c.obj)
                0x000303ac                radio_config_reset
 .text.radio_config_channel_set
                0x000303e0       0x34 mesh/core/libmesh_core_nrf52840_xxAA.a(radio_config.c.obj)
                0x000303e0                radio_config_channel_set
 .text.radio_config_config
                0x00030414       0xa4 mesh/core/libmesh_core_nrf52840_xxAA.a(radio_config.c.obj)
                0x00030414                radio_config_config
 .text.radio_config_access_addr_set
                0x000304b8       0x68 mesh/core/libmesh_core_nrf52840_xxAA.a(radio_config.c.obj)
                0x000304b8                radio_config_access_addr_set
 .text.radio_trigger
                0x00030520       0x24 mesh/core/libmesh_core_nrf52840_xxAA.a(scanner.c.obj)
 .text.scan_window_end
                0x00030544       0x10 mesh/core/libmesh_core_nrf52840_xxAA.a(scanner.c.obj)
 .text.scan_window_start
                0x00030554       0x24 mesh/core/libmesh_core_nrf52840_xxAA.a(scanner.c.obj)
 .text.radio_configure
                0x00030578       0x78 mesh/core/libmesh_core_nrf52840_xxAA.a(scanner.c.obj)
 .text.radio_set_packet
                0x000305f0       0x50 mesh/core/libmesh_core_nrf52840_xxAA.a(scanner.c.obj)
 .text.radio_start
                0x00030640       0x4c mesh/core/libmesh_core_nrf52840_xxAA.a(scanner.c.obj)
 .text.radio_stop
                0x0003068c       0x30 mesh/core/libmesh_core_nrf52840_xxAA.a(scanner.c.obj)
 .text.schedule_timers
                0x000306bc       0x38 mesh/core/libmesh_core_nrf52840_xxAA.a(scanner.c.obj)
 .text.scanner_radio_start
                0x000306f4       0x28 mesh/core/libmesh_core_nrf52840_xxAA.a(scanner.c.obj)
                0x000306f4                scanner_radio_start
 .text.scanner_radio_stop
                0x0003071c       0x10 mesh/core/libmesh_core_nrf52840_xxAA.a(scanner.c.obj)
                0x0003071c                scanner_radio_stop
 .text.scanner_radio_irq_handler
                0x0003072c      0x13c mesh/core/libmesh_core_nrf52840_xxAA.a(scanner.c.obj)
                0x0003072c                scanner_radio_irq_handler
 .text.scanner_enable
                0x00030868       0x30 mesh/core/libmesh_core_nrf52840_xxAA.a(scanner.c.obj)
                0x00030868                scanner_enable
 .text.scanner_packet_release
                0x00030898       0x38 mesh/core/libmesh_core_nrf52840_xxAA.a(scanner.c.obj)
                0x00030898                scanner_packet_release
 .text.scanner_rx
                0x000308d0       0x30 mesh/core/libmesh_core_nrf52840_xxAA.a(scanner.c.obj)
                0x000308d0                scanner_rx
 .text.scanner_rx_pending
                0x00030900        0xc mesh/core/libmesh_core_nrf52840_xxAA.a(scanner.c.obj)
                0x00030900                scanner_rx_pending
 .text.scanner_config_scan_time_set
                0x0003090c       0x68 mesh/core/libmesh_core_nrf52840_xxAA.a(scanner.c.obj)
                0x0003090c                scanner_config_scan_time_set
 .text.scanner_config_channels_set
                0x00030974       0x64 mesh/core/libmesh_core_nrf52840_xxAA.a(scanner.c.obj)
                0x00030974                scanner_config_channels_set
 .text.scanner_config_access_addresses_set
                0x000309d8       0x44 mesh/core/libmesh_core_nrf52840_xxAA.a(scanner.c.obj)
                0x000309d8                scanner_config_access_addresses_set
 .text.scanner_config_reset
                0x00030a1c       0x50 mesh/core/libmesh_core_nrf52840_xxAA.a(scanner.c.obj)
                0x00030a1c                scanner_config_reset
 .text.scanner_init
                0x00030a6c       0x54 mesh/core/libmesh_core_nrf52840_xxAA.a(scanner.c.obj)
                0x00030a6c                scanner_init
 .text.internal_event_push
                0x00030ac0       0x28 mesh/core/libmesh_core_nrf52840_xxAA.a(internal_event.c.obj)
                0x00030ac0                internal_event_push
 .text.sd_ecb_block_encrypt
                0x00030ae8        0x4 mesh/core/libmesh_core_nrf52840_xxAA.a(aes.c.obj)
 .text.aes_encrypt
                0x00030aec       0x32 mesh/core/libmesh_core_nrf52840_xxAA.a(aes.c.obj)
                0x00030aec                aes_encrypt
 *fill*         0x00030b1e        0x2 
 .text.msg_cache_init
                0x00030b20       0x24 mesh/core/libmesh_core_nrf52840_xxAA.a(msg_cache.c.obj)
                0x00030b20                msg_cache_init
 .text.msg_cache_entry_exists
                0x00030b44       0x3c mesh/core/libmesh_core_nrf52840_xxAA.a(msg_cache.c.obj)
                0x00030b44                msg_cache_entry_exists
 .text.msg_cache_entry_add
                0x00030b80       0x2c mesh/core/libmesh_core_nrf52840_xxAA.a(msg_cache.c.obj)
                0x00030b80                msg_cache_entry_add
 .text.block_ack_full
                0x00030bac       0x28 mesh/core/libmesh_core_nrf52840_xxAA.a(transport.c.obj)
 .text.seqauth_sequence_number_get
                0x00030bd4       0x12 mesh/core/libmesh_core_nrf52840_xxAA.a(transport.c.obj)
 *fill*         0x00030be6        0x2 
 .text.sar_rx_session_mark_as_handled
                0x00030be8       0x54 mesh/core/libmesh_core_nrf52840_xxAA.a(transport.c.obj)
 .text.sar_ctx_find
                0x00030c3c       0x3c mesh/core/libmesh_core_nrf52840_xxAA.a(transport.c.obj)
 .text.control_packet_callback_get
                0x00030c78       0x44 mesh/core/libmesh_core_nrf52840_xxAA.a(transport.c.obj)
 .text.m_send_sar_cancel_event
                0x00030cbc       0x28 mesh/core/libmesh_core_nrf52840_xxAA.a(transport.c.obj)
 .text.tx_complete
                0x00030ce4       0x34 mesh/core/libmesh_core_nrf52840_xxAA.a(transport.c.obj)
 .text.upper_trs_packet_encrypt
                0x00030d18       0xbc mesh/core/libmesh_core_nrf52840_xxAA.a(transport.c.obj)
 .text.sar_ctx_free
                0x00030dd4       0x3c mesh/core/libmesh_core_nrf52840_xxAA.a(transport.c.obj)
 .text.sar_ctx_tx_complete
                0x00030e10       0xb8 mesh/core/libmesh_core_nrf52840_xxAA.a(transport.c.obj)
 .text.sar_ctx_cancel
                0x00030ec8      0x108 mesh/core/libmesh_core_nrf52840_xxAA.a(transport.c.obj)
 .text.abort_timeout
                0x00030fd0        0x8 mesh/core/libmesh_core_nrf52840_xxAA.a(transport.c.obj)
 .text.sar_ctx_alloc
                0x00030fd8       0xbc mesh/core/libmesh_core_nrf52840_xxAA.a(transport.c.obj)
 .text.test_transport_decrypt
                0x00031094       0x88 mesh/core/libmesh_core_nrf52840_xxAA.a(transport.c.obj)
 .text.upper_transport_access_packet_in
                0x0003111c      0x28c mesh/core/libmesh_core_nrf52840_xxAA.a(transport.c.obj)
 .text.trs_packet_header_build
                0x000313a8       0xa6 mesh/core/libmesh_core_nrf52840_xxAA.a(transport.c.obj)
 *fill*         0x0003144e        0x2 
 .text.tx_retry_timer_reset
                0x00031450       0x50 mesh/core/libmesh_core_nrf52840_xxAA.a(transport.c.obj)
 .text.trs_sar_packet_out
                0x000314a0       0xec mesh/core/libmesh_core_nrf52840_xxAA.a(transport.c.obj)
 .text.retry_timeout
                0x0003158c       0x54 mesh/core/libmesh_core_nrf52840_xxAA.a(transport.c.obj)
 .text.upper_transport_packet_in
                0x000315e0      0x1b0 mesh/core/libmesh_core_nrf52840_xxAA.a(transport.c.obj)
 .text.upper_transport_tx
                0x00031790      0x230 mesh/core/libmesh_core_nrf52840_xxAA.a(transport.c.obj)
 .text.transport_sar_mem_funcs_reset
                0x000319c0       0x28 mesh/core/libmesh_core_nrf52840_xxAA.a(transport.c.obj)
                0x000319c0                transport_sar_mem_funcs_reset
 .text.transport_init
                0x000319e8       0x7c mesh/core/libmesh_core_nrf52840_xxAA.a(transport.c.obj)
                0x000319e8                transport_init
 .text.transport_tx
                0x00031a64       0xa4 mesh/core/libmesh_core_nrf52840_xxAA.a(transport.c.obj)
                0x00031a64                transport_tx
 .text.transport_control_tx
                0x00031b08       0x8e mesh/core/libmesh_core_nrf52840_xxAA.a(transport.c.obj)
                0x00031b08                transport_control_tx
 *fill*         0x00031b96        0x2 
 .text.sar_ack_send
                0x00031b98      0x124 mesh/core/libmesh_core_nrf52840_xxAA.a(transport.c.obj)
 .text.transport_sar_process
                0x00031cbc       0x74 mesh/core/libmesh_core_nrf52840_xxAA.a(transport.c.obj)
 .text.transport_packet_in
                0x00031d30      0x524 mesh/core/libmesh_core_nrf52840_xxAA.a(transport.c.obj)
                0x00031d30                transport_packet_in
 .text.ack_timeout
                0x00032254       0x34 mesh/core/libmesh_core_nrf52840_xxAA.a(transport.c.obj)
 .text.transport_opt_get
                0x00032288       0x68 mesh/core/libmesh_core_nrf52840_xxAA.a(transport.c.obj)
                0x00032288                transport_opt_get
 .text.transport_control_packet_consumer_add
                0x000322f0       0x5c mesh/core/libmesh_core_nrf52840_xxAA.a(transport.c.obj)
                0x000322f0                transport_control_packet_consumer_add
 .text.m_adjust_desired_packet_length
                0x0003234c       0x34 mesh/core/libmesh_core_nrf52840_xxAA.a(packet_buffer.c.obj)
 .text.m_index_increment.part.0
                0x00032380       0x14 mesh/core/libmesh_core_nrf52840_xxAA.a(packet_buffer.c.obj)
 .text.m_free_popped_packet
                0x00032394       0x60 mesh/core/libmesh_core_nrf52840_xxAA.a(packet_buffer.c.obj)
 .text.free_skipped_packets
                0x000323f4       0x1c mesh/core/libmesh_core_nrf52840_xxAA.a(packet_buffer.c.obj)
 .text.packet_buffer_init
                0x00032410       0xe0 mesh/core/libmesh_core_nrf52840_xxAA.a(packet_buffer.c.obj)
                0x00032410                packet_buffer_init
 .text.packet_buffer_flush
                0x000324f0       0x5e mesh/core/libmesh_core_nrf52840_xxAA.a(packet_buffer.c.obj)
                0x000324f0                packet_buffer_flush
 *fill*         0x0003254e        0x2 
 .text.packet_buffer_reserve
                0x00032550      0x11c mesh/core/libmesh_core_nrf52840_xxAA.a(packet_buffer.c.obj)
                0x00032550                packet_buffer_reserve
 .text.packet_buffer_commit
                0x0003266c      0x104 mesh/core/libmesh_core_nrf52840_xxAA.a(packet_buffer.c.obj)
                0x0003266c                packet_buffer_commit
 .text.packet_buffer_pop
                0x00032770       0x58 mesh/core/libmesh_core_nrf52840_xxAA.a(packet_buffer.c.obj)
                0x00032770                packet_buffer_pop
 .text.packet_buffer_can_pop
                0x000327c8       0x28 mesh/core/libmesh_core_nrf52840_xxAA.a(packet_buffer.c.obj)
                0x000327c8                packet_buffer_can_pop
 .text.packet_buffer_packets_ready_to_pop
                0x000327f0       0x58 mesh/core/libmesh_core_nrf52840_xxAA.a(packet_buffer.c.obj)
                0x000327f0                packet_buffer_packets_ready_to_pop
 .text.packet_buffer_free
                0x00032848       0x8c mesh/core/libmesh_core_nrf52840_xxAA.a(packet_buffer.c.obj)
                0x00032848                packet_buffer_free
 .text.get_last_page
                0x000328d4       0x14 mesh/core/libmesh_core_nrf52840_xxAA.a(flash_manager_defrag.c.obj)
 .text.defrag_on_end
                0x000328e8       0x1c mesh/core/libmesh_core_nrf52840_xxAA.a(flash_manager_defrag.c.obj)
 .text.execute_procedure_step
                0x00032904       0xa0 mesh/core/libmesh_core_nrf52840_xxAA.a(flash_manager_defrag.c.obj)
 .text.get_next_entry
                0x000329a4       0x40 mesh/core/libmesh_core_nrf52840_xxAA.a(flash_manager_defrag.c.obj)
 .text.get_next_data_entry
                0x000329e4       0x20 mesh/core/libmesh_core_nrf52840_xxAA.a(flash_manager_defrag.c.obj)
 .text.on_flash_op_end
                0x00032a04       0x30 mesh/core/libmesh_core_nrf52840_xxAA.a(flash_manager_defrag.c.obj)
 .text.check_for_invalid_entries
                0x00032a34       0x38 mesh/core/libmesh_core_nrf52840_xxAA.a(flash_manager_defrag.c.obj)
 .text.erase_recovery_area
                0x00032a6c       0x34 mesh/core/libmesh_core_nrf52840_xxAA.a(flash_manager_defrag.c.obj)
 .text.flash.constprop.6
                0x00032aa0       0x24 mesh/core/libmesh_core_nrf52840_xxAA.a(flash_manager_defrag.c.obj)
 .text.seal_storage_page
                0x00032ac4       0x50 mesh/core/libmesh_core_nrf52840_xxAA.a(flash_manager_defrag.c.obj)
 .text.invalidate_duplicate_entries
                0x00032b14       0x9c mesh/core/libmesh_core_nrf52840_xxAA.a(flash_manager_defrag.c.obj)
 .text.copy_metadata
                0x00032bb0       0x3c mesh/core/libmesh_core_nrf52840_xxAA.a(flash_manager_defrag.c.obj)
 .text.write_defrag_start_pointer
                0x00032bec       0x20 mesh/core/libmesh_core_nrf52840_xxAA.a(flash_manager_defrag.c.obj)
 .text.write_back
                0x00032c0c       0x28 mesh/core/libmesh_core_nrf52840_xxAA.a(flash_manager_defrag.c.obj)
 .text.post_process
                0x00032c34       0x40 mesh/core/libmesh_core_nrf52840_xxAA.a(flash_manager_defrag.c.obj)
 .text.backup_entries
                0x00032c74      0x118 mesh/core/libmesh_core_nrf52840_xxAA.a(flash_manager_defrag.c.obj)
 .text.erase_source
                0x00032d8c       0x34 mesh/core/libmesh_core_nrf52840_xxAA.a(flash_manager_defrag.c.obj)
 .text.flash_manager_defrag_init
                0x00032dc0       0x98 mesh/core/libmesh_core_nrf52840_xxAA.a(flash_manager_defrag.c.obj)
                0x00032dc0                flash_manager_defrag_init
 .text.flash_manager_defrag_is_running
                0x00032e58       0x10 mesh/core/libmesh_core_nrf52840_xxAA.a(flash_manager_defrag.c.obj)
                0x00032e58                flash_manager_defrag_is_running
 .text.flash_manager_defrag
                0x00032e68       0xd8 mesh/core/libmesh_core_nrf52840_xxAA.a(flash_manager_defrag.c.obj)
                0x00032e68                flash_manager_defrag
 .text.flash_manager_defrag_recovery_page_get
                0x00032f40        0xc mesh/core/libmesh_core_nrf52840_xxAA.a(flash_manager_defrag.c.obj)
                0x00032f40                flash_manager_defrag_recovery_page_get
 .text.fifo_init
                0x00032f4c       0x50 mesh/core/libmesh_core_nrf52840_xxAA.a(fifo.c.obj)
                0x00032f4c                fifo_init
 .text.fifo_push
                0x00032f9c       0x50 mesh/core/libmesh_core_nrf52840_xxAA.a(fifo.c.obj)
                0x00032f9c                fifo_push
 .text.fifo_pop
                0x00032fec       0x52 mesh/core/libmesh_core_nrf52840_xxAA.a(fifo.c.obj)
                0x00032fec                fifo_pop
 *fill*         0x0003303e        0x2 
 .text.send_end_events
                0x00033040       0x84 mesh/core/libmesh_core_nrf52840_xxAA.a(mesh_flash.c.obj)
 .text.flash_op_schedule
                0x000330c4       0x9c mesh/core/libmesh_core_nrf52840_xxAA.a(mesh_flash.c.obj)
 .text.flash_op_start
                0x00033160      0x170 mesh/core/libmesh_core_nrf52840_xxAA.a(mesh_flash.c.obj)
 .text.mesh_flash_init
                0x000332d0       0x88 mesh/core/libmesh_core_nrf52840_xxAA.a(mesh_flash.c.obj)
                0x000332d0                mesh_flash_init
 .text.mesh_flash_user_callback_set
                0x00033358       0x2c mesh/core/libmesh_core_nrf52840_xxAA.a(mesh_flash.c.obj)
                0x00033358                mesh_flash_user_callback_set
 .text.mesh_flash_op_push
                0x00033384      0x128 mesh/core/libmesh_core_nrf52840_xxAA.a(mesh_flash.c.obj)
                0x00033384                mesh_flash_op_push
 .text.queue_init
                0x000334ac       0x20 mesh/core/libmesh_core_nrf52840_xxAA.a(queue.c.obj)
                0x000334ac                queue_init
 .text.queue_push
                0x000334cc       0x48 mesh/core/libmesh_core_nrf52840_xxAA.a(queue.c.obj)
                0x000334cc                queue_push
 .text.queue_pop
                0x00033514       0x34 mesh/core/libmesh_core_nrf52840_xxAA.a(queue.c.obj)
                0x00033514                queue_pop
 .text.queue_peek
                0x00033548       0x1c mesh/core/libmesh_core_nrf52840_xxAA.a(queue.c.obj)
                0x00033548                queue_peek
 .text.my_xor.constprop.1
                0x00033564       0x20 mesh/core/libmesh_core_nrf52840_xxAA.a(aes_cmac.c.obj)
 .text.utils_lshift.constprop.2
                0x00033584       0x24 mesh/core/libmesh_core_nrf52840_xxAA.a(aes_cmac.c.obj)
 .text.aes_cmac_subkey_generate
                0x000335a8       0x6c mesh/core/libmesh_core_nrf52840_xxAA.a(aes_cmac.c.obj)
                0x000335a8                aes_cmac_subkey_generate
 .text.aes_cmac
                0x00033614       0xbc mesh/core/libmesh_core_nrf52840_xxAA.a(aes_cmac.c.obj)
                0x00033614                aes_cmac
 .text.nrf_mesh_opt_get
                0x000336d0       0x26 mesh/core/libmesh_core_nrf52840_xxAA.a(nrf_mesh_opt.c.obj)
                0x000336d0                nrf_mesh_opt_get
 .text.stage_get_available
                0x000336f6       0x24 mesh/core/libmesh_core_nrf52840_xxAA.a(msqueue.c.obj)
 *fill*         0x0003371a        0x2 
 .text.msq_get  0x0003371c       0x4c mesh/core/libmesh_core_nrf52840_xxAA.a(msqueue.c.obj)
                0x0003371c                msq_get
 .text.msq_move
                0x00033768       0x44 mesh/core/libmesh_core_nrf52840_xxAA.a(msqueue.c.obj)
                0x00033768                msq_move
 .text.msq_reset
                0x000337ac       0x2c mesh/core/libmesh_core_nrf52840_xxAA.a(msqueue.c.obj)
                0x000337ac                msq_reset
 .text.msq_init
                0x000337d8       0x78 mesh/core/libmesh_core_nrf52840_xxAA.a(msqueue.c.obj)
                0x000337d8                msq_init
 .text.msq_available
                0x00033850       0x3c mesh/core/libmesh_core_nrf52840_xxAA.a(msqueue.c.obj)
                0x00033850                msq_available
 .text.replay_cache_add
                0x0003388c       0x60 mesh/core/libmesh_core_nrf52840_xxAA.a(replay_cache.c.obj)
                0x0003388c                replay_cache_add
 .text.replay_cache_has_room
                0x000338ec       0x38 mesh/core/libmesh_core_nrf52840_xxAA.a(replay_cache.c.obj)
                0x000338ec                replay_cache_has_room
 .text.replay_cache_has_elem
                0x00033924       0x38 mesh/core/libmesh_core_nrf52840_xxAA.a(replay_cache.c.obj)
                0x00033924                replay_cache_has_elem
 .text.replay_cache_clear
                0x0003395c       0x28 mesh/core/libmesh_core_nrf52840_xxAA.a(replay_cache.c.obj)
                0x0003395c                replay_cache_clear
 .text.replay_cache_init
                0x00033984        0x4 mesh/core/libmesh_core_nrf52840_xxAA.a(replay_cache.c.obj)
                0x00033984                replay_cache_init
 .text.wait_for_ready
                0x00033988       0x10 mesh/core/libmesh_core_nrf52840_xxAA.a(nrf_flash.c.obj)
 .text.nrf_flash_erase
                0x00033998       0x50 mesh/core/libmesh_core_nrf52840_xxAA.a(nrf_flash.c.obj)
                0x00033998                nrf_flash_erase
 .text.nrf_flash_write
                0x000339e8       0x50 mesh/core/libmesh_core_nrf52840_xxAA.a(nrf_flash.c.obj)
                0x000339e8                nrf_flash_write
 .text._GetAvailWriteSpace
                0x00033a38       0x1c external/rtt/librtt_nrf52840_xxAA.a(SEGGER_RTT.c.obj)
 .text._WriteNoCheck
                0x00033a54       0x3c external/rtt/librtt_nrf52840_xxAA.a(SEGGER_RTT.c.obj)
 .text._WriteBlocking
                0x00033a90       0x52 external/rtt/librtt_nrf52840_xxAA.a(SEGGER_RTT.c.obj)
 *fill*         0x00033ae2        0x2 
 .text._DoInit  0x00033ae4       0x60 external/rtt/librtt_nrf52840_xxAA.a(SEGGER_RTT.c.obj)
 .text.SEGGER_RTT_ReadNoLock
                0x00033b44       0x88 external/rtt/librtt_nrf52840_xxAA.a(SEGGER_RTT.c.obj)
                0x00033b44                SEGGER_RTT_ReadNoLock
 .text.SEGGER_RTT_Read
                0x00033bcc       0x1c external/rtt/librtt_nrf52840_xxAA.a(SEGGER_RTT.c.obj)
                0x00033bcc                SEGGER_RTT_Read
 .text.SEGGER_RTT_WriteNoLock
                0x00033be8       0x68 external/rtt/librtt_nrf52840_xxAA.a(SEGGER_RTT.c.obj)
                0x00033be8                SEGGER_RTT_WriteNoLock
 .text.SEGGER_RTT_Write
                0x00033c50       0x34 external/rtt/librtt_nrf52840_xxAA.a(SEGGER_RTT.c.obj)
                0x00033c50                SEGGER_RTT_Write
 .text.SEGGER_RTT_GetKey
                0x00033c84       0x20 external/rtt/librtt_nrf52840_xxAA.a(SEGGER_RTT.c.obj)
                0x00033c84                SEGGER_RTT_GetKey
 .text._StoreChar
                0x00033ca4       0x3e external/rtt/librtt_nrf52840_xxAA.a(SEGGER_RTT_printf.c.obj)
 *fill*         0x00033ce2        0x2 
 .text._PrintUnsigned
                0x00033ce4       0xd0 external/rtt/librtt_nrf52840_xxAA.a(SEGGER_RTT_printf.c.obj)
 .text.SEGGER_RTT_vprintf
                0x00033db4      0x246 external/rtt/librtt_nrf52840_xxAA.a(SEGGER_RTT_printf.c.obj)
                0x00033db4                SEGGER_RTT_vprintf
 .text.SEGGER_RTT_printf
                0x00033ffa       0x1e external/rtt/librtt_nrf52840_xxAA.a(SEGGER_RTT_printf.c.obj)
                0x00033ffa                SEGGER_RTT_printf
 .text.uECC_vli_mult
                0x00034018       0x64 external/micro-ecc/libuECC_nrf52840_xxAA.a(uECC.c.obj)
 .text.uECC_vli_clear
                0x0003407c       0x16 external/micro-ecc/libuECC_nrf52840_xxAA.a(uECC.c.obj)
 .text.uECC_vli_isZero
                0x00034092       0x1e external/micro-ecc/libuECC_nrf52840_xxAA.a(uECC.c.obj)
 .text.uECC_vli_testBit
                0x000340b0       0x14 external/micro-ecc/libuECC_nrf52840_xxAA.a(uECC.c.obj)
 .text.uECC_vli_numBits
                0x000340c4       0x3a external/micro-ecc/libuECC_nrf52840_xxAA.a(uECC.c.obj)
 .text.uECC_vli_set
                0x000340fe       0x18 external/micro-ecc/libuECC_nrf52840_xxAA.a(uECC.c.obj)
 .text.uECC_vli_cmp_unsafe
                0x00034116       0x28 external/micro-ecc/libuECC_nrf52840_xxAA.a(uECC.c.obj)
 .text.uECC_vli_rshift1
                0x0003413e       0x1c external/micro-ecc/libuECC_nrf52840_xxAA.a(uECC.c.obj)
 .text.uECC_vli_modMult_fast
                0x0003415a       0x20 external/micro-ecc/libuECC_nrf52840_xxAA.a(uECC.c.obj)
 .text.uECC_vli_modSquare_fast
                0x0003417a        0x8 external/micro-ecc/libuECC_nrf52840_xxAA.a(uECC.c.obj)
 .text.apply_z  0x00034182       0x3e external/micro-ecc/libuECC_nrf52840_xxAA.a(uECC.c.obj)
 .text.uECC_vli_nativeToBytes
                0x000341c0       0x28 external/micro-ecc/libuECC_nrf52840_xxAA.a(uECC.c.obj)
 .text.uECC_vli_bytesToNative
                0x000341e8       0x40 external/micro-ecc/libuECC_nrf52840_xxAA.a(uECC.c.obj)
 .text.default_RNG
                0x00034228        0xc external/micro-ecc/libuECC_nrf52840_xxAA.a(uECC.c.obj)
 .text.uECC_vli_add.isra.0
                0x00034234       0x4a external/micro-ecc/libuECC_nrf52840_xxAA.a(uECC.c.obj)
 .text.regularize_k
                0x0003427e       0x50 external/micro-ecc/libuECC_nrf52840_xxAA.a(uECC.c.obj)
 .text.uECC_vli_sub.isra.1
                0x000342ce       0x4e external/micro-ecc/libuECC_nrf52840_xxAA.a(uECC.c.obj)
 .text.uECC_vli_cmp
                0x0003431c       0x30 external/micro-ecc/libuECC_nrf52840_xxAA.a(uECC.c.obj)
 .text.uECC_generate_random_int
                0x0003434c       0x78 external/micro-ecc/libuECC_nrf52840_xxAA.a(uECC.c.obj)
 .text.uECC_vli_modAdd
                0x000343c4       0x2e external/micro-ecc/libuECC_nrf52840_xxAA.a(uECC.c.obj)
 *fill*         0x000343f2        0x2 
 .text.vli_mmod_fast_secp256r1
                0x000343f4      0x194 external/micro-ecc/libuECC_nrf52840_xxAA.a(uECC.c.obj)
 .text.uECC_vli_modSub.isra.2
                0x00034588       0x1c external/micro-ecc/libuECC_nrf52840_xxAA.a(uECC.c.obj)
 .text.double_jacobian_default
                0x000345a4      0x14a external/micro-ecc/libuECC_nrf52840_xxAA.a(uECC.c.obj)
 .text.x_side_default
                0x000346ee       0x5a external/micro-ecc/libuECC_nrf52840_xxAA.a(uECC.c.obj)
 .text.XYcZ_add
                0x00034748       0xbc external/micro-ecc/libuECC_nrf52840_xxAA.a(uECC.c.obj)
 .text.XYcZ_addC
                0x00034804      0x10a external/micro-ecc/libuECC_nrf52840_xxAA.a(uECC.c.obj)
 .text.vli_modInv_update
                0x0003490e       0x36 external/micro-ecc/libuECC_nrf52840_xxAA.a(uECC.c.obj)
 .text.uECC_vli_modInv
                0x00034944      0x102 external/micro-ecc/libuECC_nrf52840_xxAA.a(uECC.c.obj)
 .text.EccPoint_mult
                0x00034a46      0x19e external/micro-ecc/libuECC_nrf52840_xxAA.a(uECC.c.obj)
 .text.EccPoint_compute_public_key
                0x00034be4       0x54 external/micro-ecc/libuECC_nrf52840_xxAA.a(uECC.c.obj)
 .text.uECC_secp256r1
                0x00034c38        0x8 external/micro-ecc/libuECC_nrf52840_xxAA.a(uECC.c.obj)
                0x00034c38                uECC_secp256r1
 .text.uECC_make_key
                0x00034c40       0x7e external/micro-ecc/libuECC_nrf52840_xxAA.a(uECC.c.obj)
                0x00034c40                uECC_make_key
 *fill*         0x00034cbe        0x2 
 .text.uECC_shared_secret
                0x00034cc0       0xbc external/micro-ecc/libuECC_nrf52840_xxAA.a(uECC.c.obj)
                0x00034cc0                uECC_shared_secret
 .text.uECC_valid_point
                0x00034d7c       0x86 external/micro-ecc/libuECC_nrf52840_xxAA.a(uECC.c.obj)
                0x00034d7c                uECC_valid_point
 .text.uECC_valid_public_key
                0x00034e02       0x32 external/micro-ecc/libuECC_nrf52840_xxAA.a(uECC.c.obj)
                0x00034e02                uECC_valid_public_key
 .text          0x00034e34       0x30 c:/a/gcc_arm/6/bin/../lib/gcc/arm-none-eabi/6.3.1/thumb/v7e-m/fpv4-sp/hard\libgcc.a(_aeabi_uldivmod.o)
                0x00034e34                __aeabi_uldivmod
 .text          0x00034e64      0x2dc c:/a/gcc_arm/6/bin/../lib/gcc/arm-none-eabi/6.3.1/thumb/v7e-m/fpv4-sp/hard\libgcc.a(_udivmoddi4.o)
                0x00034e64                __udivmoddi4
 .text          0x00035140        0x4 c:/a/gcc_arm/6/bin/../lib/gcc/arm-none-eabi/6.3.1/thumb/v7e-m/fpv4-sp/hard\libgcc.a(_dvmd_tls.o)
                0x00035140                __aeabi_idiv0
                0x00035140                __aeabi_ldiv0
 .text.exit     0x00035144       0x28 c:/a/gcc_arm/6/bin/../lib/gcc/arm-none-eabi/6.3.1/../../../../arm-none-eabi/lib/thumb/v7e-m/fpv4-sp/hard\libg_nano.a(lib_a-exit.o)
                0x00035144                exit
 .text.__libc_init_array
                0x0003516c       0x48 c:/a/gcc_arm/6/bin/../lib/gcc/arm-none-eabi/6.3.1/../../../../arm-none-eabi/lib/thumb/v7e-m/fpv4-sp/hard\libg_nano.a(lib_a-init.o)
                0x0003516c                __libc_init_array
 .text.malloc   0x000351b4       0x10 c:/a/gcc_arm/6/bin/../lib/gcc/arm-none-eabi/6.3.1/../../../../arm-none-eabi/lib/thumb/v7e-m/fpv4-sp/hard\libg_nano.a(lib_a-malloc.o)
                0x000351b4                malloc
 .text.free     0x000351c4       0x10 c:/a/gcc_arm/6/bin/../lib/gcc/arm-none-eabi/6.3.1/../../../../arm-none-eabi/lib/thumb/v7e-m/fpv4-sp/hard\libg_nano.a(lib_a-malloc.o)
                0x000351c4                free
 .text.memcmp   0x000351d4       0x1e c:/a/gcc_arm/6/bin/../lib/gcc/arm-none-eabi/6.3.1/../../../../arm-none-eabi/lib/thumb/v7e-m/fpv4-sp/hard\libg_nano.a(lib_a-memcmp.o)
                0x000351d4                memcmp
 .text.memcpy   0x000351f2       0x16 c:/a/gcc_arm/6/bin/../lib/gcc/arm-none-eabi/6.3.1/../../../../arm-none-eabi/lib/thumb/v7e-m/fpv4-sp/hard\libg_nano.a(lib_a-memcpy-stub.o)
                0x000351f2                memcpy
 .text.memset   0x00035208       0x10 c:/a/gcc_arm/6/bin/../lib/gcc/arm-none-eabi/6.3.1/../../../../arm-none-eabi/lib/thumb/v7e-m/fpv4-sp/hard\libg_nano.a(lib_a-memset.o)
                0x00035208                memset
 .text._free_r  0x00035218       0x9c c:/a/gcc_arm/6/bin/../lib/gcc/arm-none-eabi/6.3.1/../../../../arm-none-eabi/lib/thumb/v7e-m/fpv4-sp/hard\libg_nano.a(lib_a-nano-freer.o)
                0x00035218                _free_r
 .text._malloc_r
                0x000352b4       0xbc c:/a/gcc_arm/6/bin/../lib/gcc/arm-none-eabi/6.3.1/../../../../arm-none-eabi/lib/thumb/v7e-m/fpv4-sp/hard\libg_nano.a(lib_a-nano-mallocr.o)
                0x000352b4                _malloc_r
 .text._sbrk_r  0x00035370       0x20 c:/a/gcc_arm/6/bin/../lib/gcc/arm-none-eabi/6.3.1/../../../../arm-none-eabi/lib/thumb/v7e-m/fpv4-sp/hard\libg_nano.a(lib_a-sbrkr.o)
                0x00035370                _sbrk_r
 .text.strcpy   0x00035390       0x10 c:/a/gcc_arm/6/bin/../lib/gcc/arm-none-eabi/6.3.1/../../../../arm-none-eabi/lib/thumb/v7e-m/fpv4-sp/hard\libg_nano.a(lib_a-strcpy.o)
                0x00035390                strcpy
 .text          0x000353a0       0x10 c:/a/gcc_arm/6/bin/../lib/gcc/arm-none-eabi/6.3.1/../../../../arm-none-eabi/lib/thumb/v7e-m/fpv4-sp/hard\libg_nano.a(lib_a-strlen.o)
                0x000353a0                strlen
 .text.strrchr  0x000353b0       0x26 c:/a/gcc_arm/6/bin/../lib/gcc/arm-none-eabi/6.3.1/../../../../arm-none-eabi/lib/thumb/v7e-m/fpv4-sp/hard\libg_nano.a(lib_a-strrchr.o)
                0x000353b0                strrchr
 .text.__malloc_lock
                0x000353d6        0x2 c:/a/gcc_arm/6/bin/../lib/gcc/arm-none-eabi/6.3.1/../../../../arm-none-eabi/lib/thumb/v7e-m/fpv4-sp/hard\libg_nano.a(lib_a-mlock.o)
                0x000353d6                __malloc_lock
 .text.__malloc_unlock
                0x000353d8        0x2 c:/a/gcc_arm/6/bin/../lib/gcc/arm-none-eabi/6.3.1/../../../../arm-none-eabi/lib/thumb/v7e-m/fpv4-sp/hard\libg_nano.a(lib_a-mlock.o)
                0x000353d8                __malloc_unlock
 .text.strchr   0x000353da       0x1c c:/a/gcc_arm/6/bin/../lib/gcc/arm-none-eabi/6.3.1/../../../../arm-none-eabi/lib/thumb/v7e-m/fpv4-sp/hard\libg_nano.a(lib_a-strchr.o)
                0x000353da                strchr
 *fill*         0x000353f6        0x2 
 .text._sbrk    0x000353f8       0x1c c:/a/gcc_arm/6/bin/../lib/gcc/arm-none-eabi/6.3.1/../../../../arm-none-eabi/lib/thumb/v7e-m/fpv4-sp/hard\libnosys.a(sbrk.o)
                0x000353f8                _sbrk
 .text._exit    0x00035414        0x4 c:/a/gcc_arm/6/bin/../lib/gcc/arm-none-eabi/6.3.1/../../../../arm-none-eabi/lib/thumb/v7e-m/fpv4-sp/hard\libnosys.a(_exit.o)
                0x00035414                _exit
 *(.init)
 .init          0x00035418        0x4 c:/a/gcc_arm/6/bin/../lib/gcc/arm-none-eabi/6.3.1/thumb/v7e-m/fpv4-sp/hard/crti.o
                0x00035418                _init
 .init          0x0003541c        0x8 c:/a/gcc_arm/6/bin/../lib/gcc/arm-none-eabi/6.3.1/thumb/v7e-m/fpv4-sp/hard/crtn.o
 *(.fini)
 .fini          0x00035424        0x4 c:/a/gcc_arm/6/bin/../lib/gcc/arm-none-eabi/6.3.1/thumb/v7e-m/fpv4-sp/hard/crti.o
                0x00035424                _fini
 .fini          0x00035428        0x8 c:/a/gcc_arm/6/bin/../lib/gcc/arm-none-eabi/6.3.1/thumb/v7e-m/fpv4-sp/hard/crtn.o
 *crtbegin.o(.ctors)
 *crtbegin?.o(.ctors)
 *(EXCLUDE_FILE(*crtend.o *crtend?.o) .ctors)
 *(SORT(.ctors.*))
 *(.ctors)
 *crtbegin.o(.dtors)
 *crtbegin?.o(.dtors)
 *(EXCLUDE_FILE(*crtend.o *crtend?.o) .dtors)
 *(SORT(.dtors.*))
 *(.dtors)
 *(.rodata*)
 .rodata        0x00035430        0x4 examples/light_switch/client/CMakeFiles/light_switch_client_nrf52840_xxAA_s140_5.0.0-3.alpha.dir/src/main.c.obj
 .rodata.button_event_handler.str1.1
                0x00035434       0x94 examples/light_switch/client/CMakeFiles/light_switch_client_nrf52840_xxAA_s140_5.0.0-3.alpha.dir/src/main.c.obj
 .rodata.health_event_cb.str1.1
                0x000354c8       0x35 examples/light_switch/client/CMakeFiles/light_switch_client_nrf52840_xxAA_s140_5.0.0-3.alpha.dir/src/main.c.obj
 .rodata.m_appkey
                0x000354fd       0x10 examples/light_switch/client/CMakeFiles/light_switch_client_nrf52840_xxAA_s140_5.0.0-3.alpha.dir/src/main.c.obj
 .rodata.m_netkey
                0x0003550d       0x10 examples/light_switch/client/CMakeFiles/light_switch_client_nrf52840_xxAA_s140_5.0.0-3.alpha.dir/src/main.c.obj
 .rodata.main.str1.1
                0x0003551d       0x53 examples/light_switch/client/CMakeFiles/light_switch_client_nrf52840_xxAA_s140_5.0.0-3.alpha.dir/src/main.c.obj
 .rodata.provisioner_config_failed_cb.str1.1
                0x00035570       0x23 examples/light_switch/client/CMakeFiles/light_switch_client_nrf52840_xxAA_s140_5.0.0-3.alpha.dir/src/main.c.obj
 .rodata.provisioner_config_successful_cb.str1.1
                0x00035593       0x40 examples/light_switch/client/CMakeFiles/light_switch_client_nrf52840_xxAA_s140_5.0.0-3.alpha.dir/src/main.c.obj
 .rodata.provisioner_prov_complete_cb.str1.1
                0x000355d3       0x2f examples/light_switch/client/CMakeFiles/light_switch_client_nrf52840_xxAA_s140_5.0.0-3.alpha.dir/src/main.c.obj
 .rodata        0x00035602       0x2b examples/light_switch/client/CMakeFiles/light_switch_client_nrf52840_xxAA_s140_5.0.0-3.alpha.dir/src/provisioner.c.obj
 .rodata.config_client_event_cb.str1.1
                0x0003562d       0x19 examples/light_switch/client/CMakeFiles/light_switch_client_nrf52840_xxAA_s140_5.0.0-3.alpha.dir/src/provisioner.c.obj
 .rodata.do_config_step.str1.1
                0x00035646      0x139 examples/light_switch/client/CMakeFiles/light_switch_client_nrf52840_xxAA_s140_5.0.0-3.alpha.dir/src/provisioner.c.obj
 .rodata.prov_evt_handler.str1.1
                0x0003577f       0xea examples/light_switch/client/CMakeFiles/light_switch_client_nrf52840_xxAA_s140_5.0.0-3.alpha.dir/src/provisioner.c.obj
 .rodata.HardFault_Handler.str1.1
                0x00035869        0xe examples/light_switch/client/CMakeFiles/light_switch_client_nrf52840_xxAA_s140_5.0.0-3.alpha.dir/__/__/nrf_mesh_sdk.c.obj
 .rodata.app_error_handler.str1.1
                0x00035877       0x1d examples/light_switch/client/CMakeFiles/light_switch_client_nrf52840_xxAA_s140_5.0.0-3.alpha.dir/__/__/nrf_mesh_sdk.c.obj
 .rodata.mesh_assert_handler.str1.1
                0x00035894       0x34 examples/light_switch/client/CMakeFiles/light_switch_client_nrf52840_xxAA_s140_5.0.0-3.alpha.dir/__/__/nrf_mesh_sdk.c.obj
 .rodata.mesh_core_setup.str1.1
                0x000358c8       0x47 examples/light_switch/client/CMakeFiles/light_switch_client_nrf52840_xxAA_s140_5.0.0-3.alpha.dir/__/__/nrf_mesh_sdk.c.obj
 .rodata.mesh_softdevice_enable.str1.1
                0x0003590f       0x65 examples/light_switch/client/CMakeFiles/light_switch_client_nrf52840_xxAA_s140_5.0.0-3.alpha.dir/__/__/nrf_mesh_sdk.c.obj
 .rodata.softdevice_assert_handler.str1.1
                0x00035974       0x1d examples/light_switch/client/CMakeFiles/light_switch_client_nrf52840_xxAA_s140_5.0.0-3.alpha.dir/__/__/nrf_mesh_sdk.c.obj
 .rodata.m_buttons_list
                0x00035991        0x4 examples/light_switch/client/CMakeFiles/light_switch_client_nrf52840_xxAA_s140_5.0.0-3.alpha.dir/__/__/common/src/simple_hal.c.obj
 *fill*         0x00035995        0x3 
 .rodata.m_opcode_handlers
                0x00035998        0x8 examples/light_switch/client/CMakeFiles/light_switch_client_nrf52840_xxAA_s140_5.0.0-3.alpha.dir/__/__/__/models/simple_on_off/src/simple_on_off_client.c.obj
 .rodata.m_config_message_lut
                0x000359a0       0x5a examples/light_switch/client/CMakeFiles/light_switch_client_nrf52840_xxAA_s140_5.0.0-3.alpha.dir/__/__/__/models/config/src/config_client.c.obj
 *fill*         0x000359fa        0x2 
 .rodata.m_opcode_handlers
                0x000359fc       0x78 examples/light_switch/client/CMakeFiles/light_switch_client_nrf52840_xxAA_s140_5.0.0-3.alpha.dir/__/__/__/models/config/src/config_client.c.obj
 .rodata.m_opcode_handlers
                0x00035a74       0x20 examples/light_switch/client/CMakeFiles/light_switch_client_nrf52840_xxAA_s140_5.0.0-3.alpha.dir/__/__/__/models/health/src/health_client.c.obj
 .rodata.mesh_evt_cb.str1.1
                0x00035a94       0x2f examples/light_switch/client/CMakeFiles/light_switch_client_nrf52840_xxAA_s140_5.0.0-3.alpha.dir/__/__/__/mesh/access/src/access.c.obj
 .rodata.multiply_de_bruijn_bit_position.9350
                0x00035ac3       0x20 examples/light_switch/client/CMakeFiles/light_switch_client_nrf52840_xxAA_s140_5.0.0-3.alpha.dir/__/__/__/mesh/access/src/access.c.obj
 .rodata.packet_tx.str1.1
                0x00035ae3       0x13 examples/light_switch/client/CMakeFiles/light_switch_client_nrf52840_xxAA_s140_5.0.0-3.alpha.dir/__/__/__/mesh/access/src/access.c.obj
 *fill*         0x00035af6        0x2 
 .rodata.m_flash_groups
                0x00035af8       0xa8 examples/light_switch/client/CMakeFiles/light_switch_client_nrf52840_xxAA_s140_5.0.0-3.alpha.dir/__/__/__/mesh/access/src/device_state_manager.c.obj
 .rodata.m_prov_callbacks
                0x00035ba0       0x10 examples/light_switch/client/CMakeFiles/light_switch_client_nrf52840_xxAA_s140_5.0.0-3.alpha.dir/__/__/__/mesh/prov/src/prov_provisioner.c.obj
 .rodata.pdu_sizes.11136
                0x00035bb0        0xa examples/light_switch/client/CMakeFiles/light_switch_client_nrf52840_xxAA_s140_5.0.0-3.alpha.dir/__/__/__/mesh/prov/src/provisioning.c.obj
 .rodata.alphanumeric.11241
                0x00035bba       0x25 examples/light_switch/client/CMakeFiles/light_switch_client_nrf52840_xxAA_s140_5.0.0-3.alpha.dir/__/__/__/mesh/prov/src/prov_utils.c.obj
 *fill*         0x00035bdf        0x1 
 .rodata.numeric_max.11235
                0x00035be0       0x24 examples/light_switch/client/CMakeFiles/light_switch_client_nrf52840_xxAA_s140_5.0.0-3.alpha.dir/__/__/__/mesh/prov/src/prov_utils.c.obj
 .rodata.prov_utils_authentication_values_derive.str1.1
                0x00035c04        0x5 examples/light_switch/client/CMakeFiles/light_switch_client_nrf52840_xxAA_s140_5.0.0-3.alpha.dir/__/__/__/mesh/prov/src/prov_utils.c.obj
 .rodata.prov_utils_derive_keys.str1.1
                0x00035c09        0xf examples/light_switch/client/CMakeFiles/light_switch_client_nrf52840_xxAA_s140_5.0.0-3.alpha.dir/__/__/__/mesh/prov/src/prov_utils.c.obj
 .rodata.add_active_bearer.str1.1
                0x00035c18       0x2c examples/light_switch/client/CMakeFiles/light_switch_client_nrf52840_xxAA_s140_5.0.0-3.alpha.dir/__/__/__/mesh/prov/src/prov_bearer_adv.c.obj
 .rodata.crctable.10994
                0x00035c44      0x100 examples/light_switch/client/CMakeFiles/light_switch_client_nrf52840_xxAA_s140_5.0.0-3.alpha.dir/__/__/__/mesh/prov/src/prov_bearer_adv.c.obj
 .rodata.interface.11224
                0x00035d44       0x14 examples/light_switch/client/CMakeFiles/light_switch_client_nrf52840_xxAA_s140_5.0.0-3.alpha.dir/__/__/__/mesh/prov/src/prov_bearer_adv.c.obj
 .rodata.prov_bearer_adv_packet_in.str1.1
                0x00035d58      0x26e examples/light_switch/client/CMakeFiles/light_switch_client_nrf52840_xxAA_s140_5.0.0-3.alpha.dir/__/__/__/mesh/prov/src/prov_bearer_adv.c.obj
 .rodata.tx_retry_cb.str1.1
                0x00035fc6       0x37 examples/light_switch/client/CMakeFiles/light_switch_client_nrf52840_xxAA_s140_5.0.0-3.alpha.dir/__/__/__/mesh/prov/src/prov_bearer_adv.c.obj
 .rodata.types_lookup.9155
                0x00035ffd        0x4 mesh/core/libmesh_core_nrf52840_xxAA.a(nrf_mesh_utils.c.obj)
 .rodata.nrf_mesh_listen.str1.1
                0x00036001       0x70 mesh/core/libmesh_core_nrf52840_xxAA.a(nrf_mesh.c.obj)
 *fill*         0x00036071        0x1 
 .rodata.CSWTCH.8
                0x00036072       0x10 mesh/core/libmesh_core_nrf52840_xxAA.a(hal.c.obj)
 .rodata        0x00036082       0x15 mesh/core/libmesh_core_nrf52840_xxAA.a(enc.c.obj)
 .rodata.network_packet_in.str1.1
                0x00036097       0x40 mesh/core/libmesh_core_nrf52840_xxAA.a(network.c.obj)
                                 0x48 (size before relaxing)
 .rodata.network_packet_send.str1.1
                0x000360d7       0x49 mesh/core/libmesh_core_nrf52840_xxAA.a(network.c.obj)
 .rodata        0x00036120        0x7 mesh/core/libmesh_core_nrf52840_xxAA.a(nrf_mesh_keygen.c.obj)
 .rodata.log_callback_rtt.str1.1
                0x00036127       0x15 mesh/core/libmesh_core_nrf52840_xxAA.a(log.c.obj)
 .rodata.str1.1
                0x0003613c       0x11 mesh/core/libmesh_core_nrf52840_xxAA.a(log.c.obj)
 *fill*         0x0003614d        0x3 
 .rodata.INVALID_HEADER
                0x00036150        0x4 mesh/core/libmesh_core_nrf52840_xxAA.a(flash_manager.c.obj)
                0x00036150                INVALID_HEADER
 .rodata.PADDING_HEADER
                0x00036154        0x4 mesh/core/libmesh_core_nrf52840_xxAA.a(flash_manager.c.obj)
                0x00036154                PADDING_HEADER
 .rodata.SEAL_HEADER
                0x00036158        0x4 mesh/core/libmesh_core_nrf52840_xxAA.a(flash_manager.c.obj)
                0x00036158                SEAL_HEADER
 .rodata.process_action_queue.str1.1
                0x0003615c       0x21 mesh/core/libmesh_core_nrf52840_xxAA.a(flash_manager.c.obj)
                                 0x4f (size before relaxing)
 .rodata.beacon_packet_in.str1.1
                0x0003617d       0x51 mesh/core/libmesh_core_nrf52840_xxAA.a(beacon.c.obj)
                                 0x59 (size before relaxing)
 *fill*         0x000361ce        0x2 
 .rodata.cp_handler
                0x000361d0        0x8 mesh/core/libmesh_core_nrf52840_xxAA.a(heartbeat.c.obj)
 .rodata.net_beacon_init.str1.1
                0x000361d8        0x5 mesh/core/libmesh_core_nrf52840_xxAA.a(net_beacon.c.obj)
 *fill*         0x000361dd        0x3 
 .rodata.m_interface
                0x000361e0        0xc mesh/core/libmesh_core_nrf52840_xxAA.a(core_tx_adv.c.obj)
 .rodata.radio_mode_to_us_per_byte.9552
                0x000361ec        0x6 mesh/core/libmesh_core_nrf52840_xxAA.a(broadcast.c.obj)
 .rodata.channel_rf_offsets.8793
                0x000361f2       0x28 mesh/core/libmesh_core_nrf52840_xxAA.a(radio_config.c.obj)
 .rodata        0x0003621a        0x3 mesh/core/libmesh_core_nrf52840_xxAA.a(scanner.c.obj)
 .rodata.sar_ctx_cancel.str1.1
                0x0003621d       0x18 mesh/core/libmesh_core_nrf52840_xxAA.a(transport.c.obj)
 .rodata.sar_ctx_tx_complete.str1.1
                0x00036235       0x1d mesh/core/libmesh_core_nrf52840_xxAA.a(transport.c.obj)
                                 0x4b (size before relaxing)
 .rodata.test_transport_decrypt.str1.1
                0x00036252       0x13 mesh/core/libmesh_core_nrf52840_xxAA.a(transport.c.obj)
 .rodata.transport_packet_in.str1.1
                0x00036265       0x24 mesh/core/libmesh_core_nrf52840_xxAA.a(transport.c.obj)
 .rodata.upper_transport_access_packet_in.str1.1
                0x00036289       0x29 mesh/core/libmesh_core_nrf52840_xxAA.a(transport.c.obj)
 .rodata.upper_transport_packet_in.str1.1
                0x000362b2       0x2e mesh/core/libmesh_core_nrf52840_xxAA.a(transport.c.obj)
 .rodata.upper_transport_tx.str1.1
                0x000362e0       0x2c mesh/core/libmesh_core_nrf52840_xxAA.a(transport.c.obj)
                                 0x34 (size before relaxing)
 .rodata.flash_manager_defrag.str1.1
                0x0003630c       0x28 mesh/core/libmesh_core_nrf52840_xxAA.a(flash_manager_defrag.c.obj)
                                 0x56 (size before relaxing)
 .rodata.m_procedure_steps
                0x00036334       0x28 mesh/core/libmesh_core_nrf52840_xxAA.a(flash_manager_defrag.c.obj)
 .rodata.m_all_operations
                0x0003635c       0x10 mesh/core/libmesh_core_nrf52840_xxAA.a(mesh_flash.c.obj)
 .rodata.Rb.7578
                0x0003636c       0x10 mesh/core/libmesh_core_nrf52840_xxAA.a(aes_cmac.c.obj)
 .rodata._DoInit.str1.1
                0x0003637c       0x14 external/rtt/librtt_nrf52840_xxAA.a(SEGGER_RTT.c.obj)
 .rodata._aV2C.5497
                0x00036390       0x10 external/rtt/librtt_nrf52840_xxAA.a(SEGGER_RTT_printf.c.obj)
 .rodata.curve_secp256r1
                0x000363a0       0xb0 external/micro-ecc/libuECC_nrf52840_xxAA.a(uECC.c.obj)
 .rodata._global_impure_ptr
                0x00036450        0x4 c:/a/gcc_arm/6/bin/../lib/gcc/arm-none-eabi/6.3.1/../../../../arm-none-eabi/lib/thumb/v7e-m/fpv4-sp/hard\libg_nano.a(lib_a-impure.o)
                0x00036450                _global_impure_ptr
 *(.eh_frame*)
 .eh_frame      0x00036454        0x0 c:/a/gcc_arm/6/bin/../lib/gcc/arm-none-eabi/6.3.1/thumb/v7e-m/fpv4-sp/hard/crtbegin.o
 .eh_frame      0x00036454        0x4 c:/a/gcc_arm/6/bin/../lib/gcc/arm-none-eabi/6.3.1/thumb/v7e-m/fpv4-sp/hard/crtend.o

.glue_7         0x00036458        0x0
 .glue_7        0x00036458        0x0 linker stubs

.glue_7t        0x00036458        0x0
 .glue_7t       0x00036458        0x0 linker stubs

.vfp11_veneer   0x00036458        0x0
 .vfp11_veneer  0x00036458        0x0 linker stubs

.v4_bx          0x00036458        0x0
 .v4_bx         0x00036458        0x0 linker stubs

.iplt           0x00036458        0x0
 .iplt          0x00036458        0x0 c:/a/gcc_arm/6/bin/../lib/gcc/arm-none-eabi/6.3.1/thumb/v7e-m/fpv4-sp/hard/crtbegin.o

.pwr_mgmt_data  0x00036458        0x0
                [!provide]                PROVIDE (__start_pwr_mgmt_data, .)
 *(SORT(.pwr_mgmt_data*))
                [!provide]                PROVIDE (__stop_pwr_mgmt_data, .)

.log_const_data
                0x00036458        0x0
                [!provide]                PROVIDE (__start_log_const_data, .)
 *(.log_const_data)
                [!provide]                PROVIDE (__stop_log_const_data, .)

.cli_command    0x00036458        0x0
                [!provide]                PROVIDE (__start_cli_command, .)
 *(.cli_command)
                [!provide]                PROVIDE (__stop_cli_command, .)

.sdh_stack_observers
                0x00036458        0x0
                [!provide]                PROVIDE (__start_sdh_stack_observers, .)
 *(SORT(.sdh_stack_observers*))
                [!provide]                PROVIDE (__stop_sdh_stack_observers, .)

.sdh_req_observers
                0x00036458        0x0
                [!provide]                PROVIDE (__start_sdh_req_observers, .)
 *(SORT(.sdh_req_observers*))
                [!provide]                PROVIDE (__stop_sdh_req_observers, .)

.sdh_state_observers
                0x00036458        0x0
                [!provide]                PROVIDE (__start_sdh_state_observers, .)
 *(SORT(.sdh_state_observers*))
                [!provide]                PROVIDE (__stop_sdh_state_observers, .)

.sdh_ant_observers
                0x00036458        0x0
                [!provide]                PROVIDE (__start_sdh_ant_observers, .)
 *(SORT(.sdh_ant_observers*))
                [!provide]                PROVIDE (__stop_sdh_ant_observers, .)

.sdh_ble_observers
                0x00036458        0x0
                [!provide]                PROVIDE (__start_sdh_ble_observers, .)
 *(SORT(.sdh_ble_observers*))
                [!provide]                PROVIDE (__stop_sdh_ble_observers, .)

.sdh_soc_observers
                0x00036458        0x0
                [!provide]                PROVIDE (__start_sdh_soc_observers, .)
 *(SORT(.sdh_soc_observers*))
                [!provide]                PROVIDE (__stop_sdh_soc_observers, .)

.ARM.extab
 *(.ARM.extab* .gnu.linkonce.armextab.*)
                0x00036458                __exidx_start = .

.ARM.exidx      0x00036458        0x8
 *(.ARM.exidx* .gnu.linkonce.armexidx.*)
 .ARM.exidx     0x00036458        0x8 c:/a/gcc_arm/6/bin/../lib/gcc/arm-none-eabi/6.3.1/../../../../arm-none-eabi/lib/thumb/v7e-m/fpv4-sp/hard/crt0.o
 .ARM.exidx     0x00036460        0x0 c:/a/gcc_arm/6/bin/../lib/gcc/arm-none-eabi/6.3.1/thumb/v7e-m/fpv4-sp/hard\libgcc.a(_udivmoddi4.o)
                                  0x8 (size before relaxing)
                0x00036460                __exidx_end = .
                0x00036460                __etext = .

.rel.dyn        0x00036460        0x0
 .rel.iplt      0x00036460        0x0 c:/a/gcc_arm/6/bin/../lib/gcc/arm-none-eabi/6.3.1/thumb/v7e-m/fpv4-sp/hard/crtbegin.o

.data           0x200031b8      0x11c load address 0x00036460
                0x200031b8                __data_start__ = .
 *(vtable)
 *(.data*)
 .data.flash_add_mem_available_struct.10422
                0x200031b8       0x10 examples/light_switch/client/CMakeFiles/light_switch_client_nrf52840_xxAA_s140_5.0.0-3.alpha.dir/__/__/__/mesh/access/src/access.c.obj
 .data.flash_clear_mem_available_struct.10511
                0x200031c8       0x10 examples/light_switch/client/CMakeFiles/light_switch_client_nrf52840_xxAA_s140_5.0.0-3.alpha.dir/__/__/__/mesh/access/src/access.c.obj
 .data.flash_store_mem_available_struct.10535
                0x200031d8       0x10 examples/light_switch/client/CMakeFiles/light_switch_client_nrf52840_xxAA_s140_5.0.0-3.alpha.dir/__/__/__/mesh/access/src/access.c.obj
 .data.m_default_ttl
                0x200031e8        0x1 examples/light_switch/client/CMakeFiles/light_switch_client_nrf52840_xxAA_s140_5.0.0-3.alpha.dir/__/__/__/mesh/access/src/access.c.obj
 *fill*         0x200031e9        0x3 
 .data.mem_listener.10730
                0x200031ec       0x10 examples/light_switch/client/CMakeFiles/light_switch_client_nrf52840_xxAA_s140_5.0.0-3.alpha.dir/__/__/__/mesh/access/src/device_state_manager.c.obj
 .data.mem_listener.10756
                0x200031fc       0x10 examples/light_switch/client/CMakeFiles/light_switch_client_nrf52840_xxAA_s140_5.0.0-3.alpha.dir/__/__/__/mesh/access/src/device_state_manager.c.obj
 .data.m_async_process_flag
                0x2000320c        0x4 examples/light_switch/client/CMakeFiles/light_switch_client_nrf52840_xxAA_s140_5.0.0-3.alpha.dir/__/__/__/mesh/prov/src/prov_bearer_adv.c.obj
 .data.SystemCoreClock
                0x20003210        0x4 examples/light_switch/client/CMakeFiles/light_switch_client_nrf52840_xxAA_s140_5.0.0-3.alpha.dir/__/__/__/external/nRF5_SDK_14.2.0_17b948a/components/toolchain/system_nrf52840.c.obj
                0x20003210                SystemCoreClock
 .data.mem_listener.9876
                0x20003214       0x10 mesh/core/libmesh_core_nrf52840_xxAA.a(net_state.c.obj)
 .data.mem_listener.9881
                0x20003224       0x10 mesh/core/libmesh_core_nrf52840_xxAA.a(net_state.c.obj)
 .data.mem_listener.9895
                0x20003234       0x10 mesh/core/libmesh_core_nrf52840_xxAA.a(net_state.c.obj)
 .data.m_nrf_mesh_listener
                0x20003244        0xc mesh/core/libmesh_core_nrf52840_xxAA.a(nrf_mesh.c.obj)
 .data.g_log_dbg_lvl
                0x20003250        0x4 mesh/core/libmesh_core_nrf52840_xxAA.a(log.c.obj)
                0x20003250                g_log_dbg_lvl
 .data.g_log_dbg_msk
                0x20003254        0x4 mesh/core/libmesh_core_nrf52840_xxAA.a(log.c.obj)
                0x20003254                g_log_dbg_msk
 .data.g_log_hex_digits
                0x20003258        0x4 mesh/core/libmesh_core_nrf52840_xxAA.a(log.c.obj)
                0x20003258                g_log_hex_digits
 .data.m_log_callback
                0x2000325c        0x4 mesh/core/libmesh_core_nrf52840_xxAA.a(log.c.obj)
                0x2000325c                m_log_callback
 .data.g_rng_function
                0x20003260        0x4 external/micro-ecc/libuECC_nrf52840_xxAA.a(uECC.c.obj)
 .data._impure_ptr
                0x20003264        0x4 c:/a/gcc_arm/6/bin/../lib/gcc/arm-none-eabi/6.3.1/../../../../arm-none-eabi/lib/thumb/v7e-m/fpv4-sp/hard\libg_nano.a(lib_a-impure.o)
                0x20003264                _impure_ptr
 .data.impure_data
                0x20003268       0x60 c:/a/gcc_arm/6/bin/../lib/gcc/arm-none-eabi/6.3.1/../../../../arm-none-eabi/lib/thumb/v7e-m/fpv4-sp/hard\libg_nano.a(lib_a-impure.o)
                0x200032c8                . = ALIGN (0x4)
                0x200032c8                PROVIDE (__preinit_array_start, .)
 *(.preinit_array)
                0x200032c8                PROVIDE (__preinit_array_end, .)
                0x200032c8                . = ALIGN (0x4)
                0x200032c8                PROVIDE (__init_array_start, .)
 *(SORT(.init_array.*))
 *(.init_array)
 .init_array    0x200032c8        0x4 c:/a/gcc_arm/6/bin/../lib/gcc/arm-none-eabi/6.3.1/thumb/v7e-m/fpv4-sp/hard/crtbegin.o
                0x200032cc                PROVIDE (__init_array_end, .)
                0x200032cc                . = ALIGN (0x4)
                [!provide]                PROVIDE (__fini_array_start, .)
 *(SORT(.fini_array.*))
 *(.fini_array)
 .fini_array    0x200032cc        0x4 c:/a/gcc_arm/6/bin/../lib/gcc/arm-none-eabi/6.3.1/thumb/v7e-m/fpv4-sp/hard/crtbegin.o
                [!provide]                PROVIDE (__fini_array_end, .)
 *(.jcr*)
 .jcr           0x200032d0        0x0 c:/a/gcc_arm/6/bin/../lib/gcc/arm-none-eabi/6.3.1/thumb/v7e-m/fpv4-sp/hard/crtbegin.o
 .jcr           0x200032d0        0x4 c:/a/gcc_arm/6/bin/../lib/gcc/arm-none-eabi/6.3.1/thumb/v7e-m/fpv4-sp/hard/crtend.o
                0x200032d4                . = ALIGN (0x4)
                0x200032d4                __data_end__ = .
LOAD c:/a/gcc_arm/6/bin/../lib/gcc/arm-none-eabi/6.3.1/thumb/v7e-m/fpv4-sp/hard/crti.o
LOAD c:/a/gcc_arm/6/bin/../lib/gcc/arm-none-eabi/6.3.1/thumb/v7e-m/fpv4-sp/hard/crtbegin.o
LOAD c:/a/gcc_arm/6/bin/../lib/gcc/arm-none-eabi/6.3.1/../../../../arm-none-eabi/lib/thumb/v7e-m/fpv4-sp/hard/crt0.o
LOAD examples/light_switch/client/CMakeFiles/light_switch_client_nrf52840_xxAA_s140_5.0.0-3.alpha.dir/src/main.c.obj
LOAD examples/light_switch/client/CMakeFiles/light_switch_client_nrf52840_xxAA_s140_5.0.0-3.alpha.dir/src/provisioner.c.obj
LOAD examples/light_switch/client/CMakeFiles/light_switch_client_nrf52840_xxAA_s140_5.0.0-3.alpha.dir/__/__/nrf_mesh_sdk.c.obj
LOAD examples/light_switch/client/CMakeFiles/light_switch_client_nrf52840_xxAA_s140_5.0.0-3.alpha.dir/__/__/common/src/rtt_input.c.obj
LOAD examples/light_switch/client/CMakeFiles/light_switch_client_nrf52840_xxAA_s140_5.0.0-3.alpha.dir/__/__/common/src/simple_hal.c.obj
LOAD examples/light_switch/client/CMakeFiles/light_switch_client_nrf52840_xxAA_s140_5.0.0-3.alpha.dir/__/__/nrf_mesh_weak.c.obj
LOAD examples/light_switch/client/CMakeFiles/light_switch_client_nrf52840_xxAA_s140_5.0.0-3.alpha.dir/__/__/__/models/simple_on_off/src/simple_on_off_client.c.obj
LOAD examples/light_switch/client/CMakeFiles/light_switch_client_nrf52840_xxAA_s140_5.0.0-3.alpha.dir/__/__/__/models/config/src/config_client.c.obj
LOAD examples/light_switch/client/CMakeFiles/light_switch_client_nrf52840_xxAA_s140_5.0.0-3.alpha.dir/__/__/__/models/health/src/health_client.c.obj
LOAD examples/light_switch/client/CMakeFiles/light_switch_client_nrf52840_xxAA_s140_5.0.0-3.alpha.dir/__/__/__/mesh/access/src/access_publish.c.obj
LOAD examples/light_switch/client/CMakeFiles/light_switch_client_nrf52840_xxAA_s140_5.0.0-3.alpha.dir/__/__/__/mesh/access/src/access.c.obj
LOAD examples/light_switch/client/CMakeFiles/light_switch_client_nrf52840_xxAA_s140_5.0.0-3.alpha.dir/__/__/__/mesh/access/src/access_reliable.c.obj
LOAD examples/light_switch/client/CMakeFiles/light_switch_client_nrf52840_xxAA_s140_5.0.0-3.alpha.dir/__/__/__/mesh/access/src/device_state_manager.c.obj
LOAD examples/light_switch/client/CMakeFiles/light_switch_client_nrf52840_xxAA_s140_5.0.0-3.alpha.dir/__/__/__/mesh/prov/src/prov_provisioner.c.obj
LOAD examples/light_switch/client/CMakeFiles/light_switch_client_nrf52840_xxAA_s140_5.0.0-3.alpha.dir/__/__/__/mesh/prov/src/nrf_mesh_prov.c.obj
LOAD examples/light_switch/client/CMakeFiles/light_switch_client_nrf52840_xxAA_s140_5.0.0-3.alpha.dir/__/__/__/mesh/prov/src/provisioning.c.obj
LOAD examples/light_switch/client/CMakeFiles/light_switch_client_nrf52840_xxAA_s140_5.0.0-3.alpha.dir/__/__/__/mesh/prov/src/prov_beacon.c.obj
LOAD examples/light_switch/client/CMakeFiles/light_switch_client_nrf52840_xxAA_s140_5.0.0-3.alpha.dir/__/__/__/mesh/prov/src/prov_utils.c.obj
LOAD examples/light_switch/client/CMakeFiles/light_switch_client_nrf52840_xxAA_s140_5.0.0-3.alpha.dir/__/__/__/mesh/prov/src/prov_bearer_adv.c.obj
LOAD examples/light_switch/client/CMakeFiles/light_switch_client_nrf52840_xxAA_s140_5.0.0-3.alpha.dir/__/__/__/external/nRF5_SDK_14.2.0_17b948a/components/toolchain/system_nrf52840.c.obj
LOAD examples/light_switch/client/CMakeFiles/light_switch_client_nrf52840_xxAA_s140_5.0.0-3.alpha.dir/__/__/__/external/nRF5_SDK_14.2.0_17b948a/components/toolchain/gcc/gcc_startup_nrf52840.S.obj
LOAD mesh/core/libmesh_core_nrf52840_xxAA.a
LOAD external/rtt/librtt_nrf52840_xxAA.a
LOAD external/micro-ecc/libuECC_nrf52840_xxAA.a
START GROUP
LOAD c:/a/gcc_arm/6/bin/../lib/gcc/arm-none-eabi/6.3.1/thumb/v7e-m/fpv4-sp/hard\libgcc.a
LOAD c:/a/gcc_arm/6/bin/../lib/gcc/arm-none-eabi/6.3.1/../../../../arm-none-eabi/lib/thumb/v7e-m/fpv4-sp/hard\libg_nano.a
LOAD c:/a/gcc_arm/6/bin/../lib/gcc/arm-none-eabi/6.3.1/../../../../arm-none-eabi/lib/thumb/v7e-m/fpv4-sp/hard\libc_nano.a
END GROUP
START GROUP
LOAD c:/a/gcc_arm/6/bin/../lib/gcc/arm-none-eabi/6.3.1/thumb/v7e-m/fpv4-sp/hard\libgcc.a
LOAD c:/a/gcc_arm/6/bin/../lib/gcc/arm-none-eabi/6.3.1/../../../../arm-none-eabi/lib/thumb/v7e-m/fpv4-sp/hard\libc_nano.a
END GROUP
LOAD c:/a/gcc_arm/6/bin/../lib/gcc/arm-none-eabi/6.3.1/thumb/v7e-m/fpv4-sp/hard/crtend.o
LOAD c:/a/gcc_arm/6/bin/../lib/gcc/arm-none-eabi/6.3.1/thumb/v7e-m/fpv4-sp/hard/crtn.o
START GROUP
LOAD c:/a/gcc_arm/6/bin/../lib/gcc/arm-none-eabi/6.3.1/thumb/v7e-m/fpv4-sp/hard\libgcc.a
LOAD c:/a/gcc_arm/6/bin/../lib/gcc/arm-none-eabi/6.3.1/../../../../arm-none-eabi/lib/thumb/v7e-m/fpv4-sp/hard\libc.a
LOAD c:/a/gcc_arm/6/bin/../lib/gcc/arm-none-eabi/6.3.1/../../../../arm-none-eabi/lib/thumb/v7e-m/fpv4-sp/hard\libnosys.a
END GROUP

.igot.plt       0x200032d4        0x0 load address 0x0003657c
 .igot.plt      0x200032d4        0x0 c:/a/gcc_arm/6/bin/../lib/gcc/arm-none-eabi/6.3.1/thumb/v7e-m/fpv4-sp/hard/crtbegin.o
                0x200032d4                . = ALIGN (0x4)

.svc_data       0x200032d4        0x0
                [!provide]                PROVIDE (__start_svc_data, .)
 *(.svc_data)
                [!provide]                PROVIDE (__stop_svc_data, .)

.fs_data        0x200032d4        0x0
                [!provide]                PROVIDE (__start_fs_data, .)
 *(.fs_data)
                [!provide]                PROVIDE (__stop_fs_data, .)

.log_dynamic_data
                0x200032d4        0x0
                [!provide]                PROVIDE (__start_log_dynamic_data, .)
 *(.log_dynamic_data)
                [!provide]                PROVIDE (__stop_log_dynamic_data, .)

.cli_sorted_cmd_ptrs
                0x200032d4        0x0
                [!provide]                PROVIDE (__start_cli_sorted_cmd_ptrs, .)
 *(.cli_sorted_cmd_ptrs)
                [!provide]                PROVIDE (__stop_cli_sorted_cmd_ptrs, .)

.bss            0x200032d8     0x30a8 load address 0x00036580
                0x200032d8                . = ALIGN (0x4)
                0x200032d8                __bss_start__ = .
 *(.bss*)
 .bss           0x200032d8       0x1c c:/a/gcc_arm/6/bin/../lib/gcc/arm-none-eabi/6.3.1/thumb/v7e-m/fpv4-sp/hard/crtbegin.o
 .bss.m_appkey_handle
                0x200032f4        0x2 examples/light_switch/client/CMakeFiles/light_switch_client_nrf52840_xxAA_s140_5.0.0-3.alpha.dir/src/main.c.obj
 *fill*         0x200032f6        0x2 
 .bss.m_clients
                0x200032f8       0x30 examples/light_switch/client/CMakeFiles/light_switch_client_nrf52840_xxAA_s140_5.0.0-3.alpha.dir/src/main.c.obj
 .bss.m_configured_devices
                0x20003328        0x2 examples/light_switch/client/CMakeFiles/light_switch_client_nrf52840_xxAA_s140_5.0.0-3.alpha.dir/src/main.c.obj
 .bss.m_devkey_handles
                0x2000332a        0x6 examples/light_switch/client/CMakeFiles/light_switch_client_nrf52840_xxAA_s140_5.0.0-3.alpha.dir/src/main.c.obj
 .bss.m_group_handle
                0x20003330        0x2 examples/light_switch/client/CMakeFiles/light_switch_client_nrf52840_xxAA_s140_5.0.0-3.alpha.dir/src/main.c.obj
 *fill*         0x20003332        0x2 
 .bss.m_health_client
                0x20003334       0x10 examples/light_switch/client/CMakeFiles/light_switch_client_nrf52840_xxAA_s140_5.0.0-3.alpha.dir/src/main.c.obj
 .bss.m_netkey_handle
                0x20003344        0x2 examples/light_switch/client/CMakeFiles/light_switch_client_nrf52840_xxAA_s140_5.0.0-3.alpha.dir/src/main.c.obj
 .bss.m_provisioned_devices
                0x20003346        0x2 examples/light_switch/client/CMakeFiles/light_switch_client_nrf52840_xxAA_s140_5.0.0-3.alpha.dir/src/main.c.obj
 .bss.m_server_handles
                0x20003348        0x6 examples/light_switch/client/CMakeFiles/light_switch_client_nrf52840_xxAA_s140_5.0.0-3.alpha.dir/src/main.c.obj
 .bss.m_private_key
                0x2000334e       0x20 examples/light_switch/client/CMakeFiles/light_switch_client_nrf52840_xxAA_s140_5.0.0-3.alpha.dir/src/provisioner.c.obj
 *fill*         0x2000336e        0x2 
 .bss.m_prov_bearer_adv
                0x20003370      0x1c0 examples/light_switch/client/CMakeFiles/light_switch_client_nrf52840_xxAA_s140_5.0.0-3.alpha.dir/src/provisioner.c.obj
 .bss.m_prov_ctx
                0x20003530      0x130 examples/light_switch/client/CMakeFiles/light_switch_client_nrf52840_xxAA_s140_5.0.0-3.alpha.dir/src/provisioner.c.obj
 .bss.m_prov_state
                0x20003660        0x1 examples/light_switch/client/CMakeFiles/light_switch_client_nrf52840_xxAA_s140_5.0.0-3.alpha.dir/src/provisioner.c.obj
 .bss.m_public_key
                0x20003661       0x40 examples/light_switch/client/CMakeFiles/light_switch_client_nrf52840_xxAA_s140_5.0.0-3.alpha.dir/src/provisioner.c.obj
 *fill*         0x200036a1        0x1 
 .bss.m_target_address
                0x200036a2        0x2 examples/light_switch/client/CMakeFiles/light_switch_client_nrf52840_xxAA_s140_5.0.0-3.alpha.dir/src/provisioner.c.obj
 .bss.m_ble_evt_buffer
                0x200036a4       0x57 examples/light_switch/client/CMakeFiles/light_switch_client_nrf52840_xxAA_s140_5.0.0-3.alpha.dir/__/__/nrf_mesh_sdk.c.obj
 *fill*         0x200036fb        0x1 
 .bss.m_rtt_input_handler
                0x200036fc        0x4 examples/light_switch/client/CMakeFiles/light_switch_client_nrf52840_xxAA_s140_5.0.0-3.alpha.dir/__/__/common/src/rtt_input.c.obj
 .bss.m_button_handler_cb
                0x20003700        0x4 examples/light_switch/client/CMakeFiles/light_switch_client_nrf52840_xxAA_s140_5.0.0-3.alpha.dir/__/__/common/src/simple_hal.c.obj
 .bss.m_last_button_press
                0x20003704        0x4 examples/light_switch/client/CMakeFiles/light_switch_client_nrf52840_xxAA_s140_5.0.0-3.alpha.dir/__/__/common/src/simple_hal.c.obj
 .bss.m_tid     0x20003708        0x1 examples/light_switch/client/CMakeFiles/light_switch_client_nrf52840_xxAA_s140_5.0.0-3.alpha.dir/__/__/__/models/simple_on_off/src/simple_on_off_client.c.obj
 *fill*         0x20003709        0x3 
 .bss.m_client  0x2000370c        0x8 examples/light_switch/client/CMakeFiles/light_switch_client_nrf52840_xxAA_s140_5.0.0-3.alpha.dir/__/__/__/models/config/src/config_client.c.obj
 .bss.mp_packet_buffer
                0x20003714        0x4 examples/light_switch/client/CMakeFiles/light_switch_client_nrf52840_xxAA_s140_5.0.0-3.alpha.dir/__/__/__/models/config/src/config_client.c.obj
 .bss.m_publish_timer
                0x20003718       0x18 examples/light_switch/client/CMakeFiles/light_switch_client_nrf52840_xxAA_s140_5.0.0-3.alpha.dir/__/__/__/mesh/access/src/access_publish.c.obj
 .bss.m_publish_timer_counter
                0x20003730        0x4 examples/light_switch/client/CMakeFiles/light_switch_client_nrf52840_xxAA_s140_5.0.0-3.alpha.dir/__/__/__/mesh/access/src/access_publish.c.obj
 .bss.m_publish_timer_running
                0x20003734        0x1 examples/light_switch/client/CMakeFiles/light_switch_client_nrf52840_xxAA_s140_5.0.0-3.alpha.dir/__/__/__/mesh/access/src/access_publish.c.obj
 .bss.m_timer_resolution
                0x20003735        0x1 examples/light_switch/client/CMakeFiles/light_switch_client_nrf52840_xxAA_s140_5.0.0-3.alpha.dir/__/__/__/mesh/access/src/access_publish.c.obj
 *fill*         0x20003736        0x2 
 .bss.mp_publication_list
                0x20003738        0x4 examples/light_switch/client/CMakeFiles/light_switch_client_nrf52840_xxAA_s140_5.0.0-3.alpha.dir/__/__/__/mesh/access/src/access_publish.c.obj
 .bss.m_element_pool
                0x2000373c       0x18 examples/light_switch/client/CMakeFiles/light_switch_client_nrf52840_xxAA_s140_5.0.0-3.alpha.dir/__/__/__/mesh/access/src/access.c.obj
 .bss.m_evt_handler
                0x20003754        0x8 examples/light_switch/client/CMakeFiles/light_switch_client_nrf52840_xxAA_s140_5.0.0-3.alpha.dir/__/__/__/mesh/access/src/access.c.obj
 .bss.m_flash_manager
                0x2000375c       0x24 examples/light_switch/client/CMakeFiles/light_switch_client_nrf52840_xxAA_s140_5.0.0-3.alpha.dir/__/__/__/mesh/access/src/access.c.obj
 .bss.m_flash_not_ready
                0x20003780        0x1 examples/light_switch/client/CMakeFiles/light_switch_client_nrf52840_xxAA_s140_5.0.0-3.alpha.dir/__/__/__/mesh/access/src/access.c.obj
 .bss.m_metadata_stored
                0x20003781        0x1 examples/light_switch/client/CMakeFiles/light_switch_client_nrf52840_xxAA_s140_5.0.0-3.alpha.dir/__/__/__/mesh/access/src/access.c.obj
 *fill*         0x20003782        0x2 
 .bss.m_model_pool
                0x20003784      0x138 examples/light_switch/client/CMakeFiles/light_switch_client_nrf52840_xxAA_s140_5.0.0-3.alpha.dir/__/__/__/mesh/access/src/access.c.obj
 .bss.m_subscription_list_pool
                0x200038bc       0x30 examples/light_switch/client/CMakeFiles/light_switch_client_nrf52840_xxAA_s140_5.0.0-3.alpha.dir/__/__/__/mesh/access/src/access.c.obj
 .bss.m_reliable
                0x200038ec      0x124 examples/light_switch/client/CMakeFiles/light_switch_client_nrf52840_xxAA_s140_5.0.0-3.alpha.dir/__/__/__/mesh/access/src/access_reliable.c.obj
 .bss.m_addr_nonvirtual_allocated
                0x20003a10        0x4 examples/light_switch/client/CMakeFiles/light_switch_client_nrf52840_xxAA_s140_5.0.0-3.alpha.dir/__/__/__/mesh/access/src/device_state_manager.c.obj
 .bss.m_addr_nonvirtual_needs_flashing
                0x20003a14        0x4 examples/light_switch/client/CMakeFiles/light_switch_client_nrf52840_xxAA_s140_5.0.0-3.alpha.dir/__/__/__/mesh/access/src/device_state_manager.c.obj
 .bss.m_addr_unicast_allocated
                0x20003a18        0x4 examples/light_switch/client/CMakeFiles/light_switch_client_nrf52840_xxAA_s140_5.0.0-3.alpha.dir/__/__/__/mesh/access/src/device_state_manager.c.obj
 .bss.m_addr_unicast_needs_flashing
                0x20003a1c        0x4 examples/light_switch/client/CMakeFiles/light_switch_client_nrf52840_xxAA_s140_5.0.0-3.alpha.dir/__/__/__/mesh/access/src/device_state_manager.c.obj
 .bss.m_addr_virtual_allocated
                0x20003a20        0x4 examples/light_switch/client/CMakeFiles/light_switch_client_nrf52840_xxAA_s140_5.0.0-3.alpha.dir/__/__/__/mesh/access/src/device_state_manager.c.obj
 .bss.m_addr_virtual_needs_flashing
                0x20003a24        0x4 examples/light_switch/client/CMakeFiles/light_switch_client_nrf52840_xxAA_s140_5.0.0-3.alpha.dir/__/__/__/mesh/access/src/device_state_manager.c.obj
 .bss.m_addresses
                0x20003a28       0x10 examples/light_switch/client/CMakeFiles/light_switch_client_nrf52840_xxAA_s140_5.0.0-3.alpha.dir/__/__/__/mesh/access/src/device_state_manager.c.obj
 .bss.m_appkey_allocated
                0x20003a38        0x4 examples/light_switch/client/CMakeFiles/light_switch_client_nrf52840_xxAA_s140_5.0.0-3.alpha.dir/__/__/__/mesh/access/src/device_state_manager.c.obj
 .bss.m_appkey_needs_flashing
                0x20003a3c        0x4 examples/light_switch/client/CMakeFiles/light_switch_client_nrf52840_xxAA_s140_5.0.0-3.alpha.dir/__/__/__/mesh/access/src/device_state_manager.c.obj
 .bss.m_appkeys
                0x20003a40       0x2a examples/light_switch/client/CMakeFiles/light_switch_client_nrf52840_xxAA_s140_5.0.0-3.alpha.dir/__/__/__/mesh/access/src/device_state_manager.c.obj
 *fill*         0x20003a6a        0x2 
 .bss.m_devkey_allocated
                0x20003a6c        0x4 examples/light_switch/client/CMakeFiles/light_switch_client_nrf52840_xxAA_s140_5.0.0-3.alpha.dir/__/__/__/mesh/access/src/device_state_manager.c.obj
 .bss.m_devkey_needs_flashing
                0x20003a70        0x4 examples/light_switch/client/CMakeFiles/light_switch_client_nrf52840_xxAA_s140_5.0.0-3.alpha.dir/__/__/__/mesh/access/src/device_state_manager.c.obj
 .bss.m_devkeys
                0x20003a74       0x42 examples/light_switch/client/CMakeFiles/light_switch_client_nrf52840_xxAA_s140_5.0.0-3.alpha.dir/__/__/__/mesh/access/src/device_state_manager.c.obj
 .bss.m_flash_is_available
                0x20003ab6        0x1 examples/light_switch/client/CMakeFiles/light_switch_client_nrf52840_xxAA_s140_5.0.0-3.alpha.dir/__/__/__/mesh/access/src/device_state_manager.c.obj
 *fill*         0x20003ab7        0x1 
 .bss.m_flash_manager
                0x20003ab8       0x24 examples/light_switch/client/CMakeFiles/light_switch_client_nrf52840_xxAA_s140_5.0.0-3.alpha.dir/__/__/__/mesh/access/src/device_state_manager.c.obj
 .bss.m_flash_mem_listener_update_all
                0x20003adc       0x10 examples/light_switch/client/CMakeFiles/light_switch_client_nrf52840_xxAA_s140_5.0.0-3.alpha.dir/__/__/__/mesh/access/src/device_state_manager.c.obj
 .bss.m_has_primary_subnet
                0x20003aec        0x1 examples/light_switch/client/CMakeFiles/light_switch_client_nrf52840_xxAA_s140_5.0.0-3.alpha.dir/__/__/__/mesh/access/src/device_state_manager.c.obj
 *fill*         0x20003aed        0x1 
 .bss.m_local_unicast_addr
                0x20003aee        0x4 examples/light_switch/client/CMakeFiles/light_switch_client_nrf52840_xxAA_s140_5.0.0-3.alpha.dir/__/__/__/mesh/access/src/device_state_manager.c.obj
 *fill*         0x20003af2        0x2 
 .bss.m_subnet_allocated
                0x20003af4        0x4 examples/light_switch/client/CMakeFiles/light_switch_client_nrf52840_xxAA_s140_5.0.0-3.alpha.dir/__/__/__/mesh/access/src/device_state_manager.c.obj
 .bss.m_subnet_needs_flashing
                0x20003af8        0x4 examples/light_switch/client/CMakeFiles/light_switch_client_nrf52840_xxAA_s140_5.0.0-3.alpha.dir/__/__/__/mesh/access/src/device_state_manager.c.obj
 .bss.m_subnets
                0x20003afc       0xac examples/light_switch/client/CMakeFiles/light_switch_client_nrf52840_xxAA_s140_5.0.0-3.alpha.dir/__/__/__/mesh/access/src/device_state_manager.c.obj
 .bss.m_virtual_addresses
                0x20003ba8       0x14 examples/light_switch/client/CMakeFiles/light_switch_client_nrf52840_xxAA_s140_5.0.0-3.alpha.dir/__/__/__/mesh/access/src/device_state_manager.c.obj
 .bss.m_event_handler
                0x20003bbc        0x4 examples/light_switch/client/CMakeFiles/light_switch_client_nrf52840_xxAA_s140_5.0.0-3.alpha.dir/__/__/__/mesh/prov/src/prov_beacon.c.obj
 .bss.m_offload_ecdh
                0x20003bc0        0x1 examples/light_switch/client/CMakeFiles/light_switch_client_nrf52840_xxAA_s140_5.0.0-3.alpha.dir/__/__/__/mesh/prov/src/prov_utils.c.obj
 *fill*         0x20003bc1        0x3 
 .bss.mp_bearer_head
                0x20003bc4        0x4 examples/light_switch/client/CMakeFiles/light_switch_client_nrf52840_xxAA_s140_5.0.0-3.alpha.dir/__/__/__/mesh/prov/src/prov_bearer_adv.c.obj
 .bss.m_uuid    0x20003bc8       0x10 mesh/core/libmesh_core_nrf52840_xxAA.a(nrf_mesh_configure.c.obj)
 .bss.mp_evt_handlers_head
                0x20003bd8        0x4 mesh/core/libmesh_core_nrf52840_xxAA.a(event.c.obj)
 .bss.m_pool    0x20003bdc     0x1000 mesh/core/libmesh_core_nrf52840_xxAA.a(packet_mgr.c.obj)
 .bss.mp_free_head
                0x20004bdc        0x4 mesh/core/libmesh_core_nrf52840_xxAA.a(packet_mgr.c.obj)
 .bss.lock_count.9935
                0x20004be0        0x4 mesh/core/libmesh_core_nrf52840_xxAA.a(net_state.c.obj)
 .bss.m_flash_manager
                0x20004be4       0x24 mesh/core/libmesh_core_nrf52840_xxAA.a(net_state.c.obj)
 .bss.m_iv_update_timer
                0x20004c08       0x18 mesh/core/libmesh_core_nrf52840_xxAA.a(net_state.c.obj)
 .bss.m_net_state
                0x20004c20       0x14 mesh/core/libmesh_core_nrf52840_xxAA.a(net_state.c.obj)
 .bss.m_seqnum_allocation_in_progress
                0x20004c34        0x1 mesh/core/libmesh_core_nrf52840_xxAA.a(net_state.c.obj)
 .bss.m_test_mode
                0x20004c35        0x1 mesh/core/libmesh_core_nrf52840_xxAA.a(net_state.c.obj)
 .bss.m_is_enabled
                0x20004c36        0x1 mesh/core/libmesh_core_nrf52840_xxAA.a(nrf_mesh.c.obj)
 .bss.m_is_initialized
                0x20004c37        0x1 mesh/core/libmesh_core_nrf52840_xxAA.a(nrf_mesh.c.obj)
 .bss.m_rx_cb   0x20004c38        0x4 mesh/core/libmesh_core_nrf52840_xxAA.a(nrf_mesh.c.obj)
 .bss.m_event_flag
                0x20004c3c        0x4 mesh/core/libmesh_core_nrf52840_xxAA.a(timer_scheduler.c.obj)
 .bss.m_scheduler
                0x20004c40       0x10 mesh/core/libmesh_core_nrf52840_xxAA.a(timer_scheduler.c.obj)
 .bss.m_attributes
                0x20004c50        0x3 mesh/core/libmesh_core_nrf52840_xxAA.a(timer.c.obj)
 *fill*         0x20004c53        0x1 
 .bss.m_callbacks
                0x20004c54        0xc mesh/core/libmesh_core_nrf52840_xxAA.a(timer.c.obj)
 .bss.m_is_in_ts
                0x20004c60        0x1 mesh/core/libmesh_core_nrf52840_xxAA.a(timer.c.obj)
 *fill*         0x20004c61        0x3 
 .bss.m_reference_time
                0x20004c64        0x4 mesh/core/libmesh_core_nrf52840_xxAA.a(timer.c.obj)
 .bss.m_timeouts
                0x20004c68        0xc mesh/core/libmesh_core_nrf52840_xxAA.a(timer.c.obj)
 .bss.m_timer_mut
                0x20004c74        0x4 mesh/core/libmesh_core_nrf52840_xxAA.a(timer.c.obj)
 .bss.m_ts_end_time
                0x20004c78        0x4 mesh/core/libmesh_core_nrf52840_xxAA.a(timer.c.obj)
 .bss.mp_ppi_tasks
                0x20004c7c        0xc mesh/core/libmesh_core_nrf52840_xxAA.a(timer.c.obj)
 .bss.m_current_time
                0x20004c88        0x4 mesh/core/libmesh_core_nrf52840_xxAA.a(ticker.c.obj)
 .bss.m_timer   0x20004c8c       0x18 mesh/core/libmesh_core_nrf52840_xxAA.a(ticker.c.obj)
 .bss.m_current_timeslot
                0x20004ca4       0x1c mesh/core/libmesh_core_nrf52840_xxAA.a(timeslot.c.obj)
 .bss.m_lfclk_ppm
                0x20004cc0        0x4 mesh/core/libmesh_core_nrf52840_xxAA.a(timeslot.c.obj)
 .bss.m_radio_request_earliest
                0x20004cc4       0x10 mesh/core/libmesh_core_nrf52840_xxAA.a(timeslot.c.obj)
 .bss.m_state_lock
                0x20004cd4        0x1 mesh/core/libmesh_core_nrf52840_xxAA.a(timeslot.c.obj)
 .bss.m_timeslot_forced_command
                0x20004cd5        0x1 mesh/core/libmesh_core_nrf52840_xxAA.a(timeslot.c.obj)
 *fill*         0x20004cd6        0x2 
 .bss.s_last_rtc_value.9399
                0x20004cd8        0x8 mesh/core/libmesh_core_nrf52840_xxAA.a(timeslot.c.obj)
 .bss.m_bearer_event_fifo
                0x20004ce0       0x14 mesh/core/libmesh_core_nrf52840_xxAA.a(bearer_event.c.obj)
 .bss.m_bearer_event_fifo_buffer
                0x20004cf4      0x100 mesh/core/libmesh_core_nrf52840_xxAA.a(bearer_event.c.obj)
 .bss.m_critical
                0x20004df4        0x4 mesh/core/libmesh_core_nrf52840_xxAA.a(bearer_event.c.obj)
 .bss.m_flag_count
                0x20004df8        0x4 mesh/core/libmesh_core_nrf52840_xxAA.a(bearer_event.c.obj)
 .bss.m_flag_event_callbacks
                0x20004dfc       0x20 mesh/core/libmesh_core_nrf52840_xxAA.a(bearer_event.c.obj)
 .bss.m_flags   0x20004e1c        0x4 mesh/core/libmesh_core_nrf52840_xxAA.a(bearer_event.c.obj)
 .bss.m_irq_priority
                0x20004e20        0x1 mesh/core/libmesh_core_nrf52840_xxAA.a(bearer_event.c.obj)
 *fill*         0x20004e21        0x3 
 .bss.m_sequential_event_queue
                0x20004e24        0x8 mesh/core/libmesh_core_nrf52840_xxAA.a(bearer_event.c.obj)
 .bss.s_recursion_guard.9521
                0x20004e2c        0x1 mesh/core/libmesh_core_nrf52840_xxAA.a(bearer_event.c.obj)
 *fill*         0x20004e2d        0x3 
 .bss.m_relay_check_cb
                0x20004e30        0x4 mesh/core/libmesh_core_nrf52840_xxAA.a(network.c.obj)
 .bss.m_relay_enable
                0x20004e34        0x1 mesh/core/libmesh_core_nrf52840_xxAA.a(network.c.obj)
 *fill*         0x20004e35        0x3 
 .bss.m_action_queue
                0x20004e38        0xc mesh/core/libmesh_core_nrf52840_xxAA.a(flash_manager.c.obj)
 .bss.m_action_queue_buffer
                0x20004e44      0x104 mesh/core/libmesh_core_nrf52840_xxAA.a(flash_manager.c.obj)
 .bss.m_action_state
                0x20004f48        0x1 mesh/core/libmesh_core_nrf52840_xxAA.a(flash_manager.c.obj)
 *fill*         0x20004f49        0x3 
 .bss.m_memory_listener_queue
                0x20004f4c        0x8 mesh/core/libmesh_core_nrf52840_xxAA.a(flash_manager.c.obj)
 .bss.m_processing_flag
                0x20004f54        0x4 mesh/core/libmesh_core_nrf52840_xxAA.a(flash_manager.c.obj)
 .bss.m_queue_empty_cb
                0x20004f58        0x4 mesh/core/libmesh_core_nrf52840_xxAA.a(flash_manager.c.obj)
 .bss.m_state   0x20004f5c        0x1 mesh/core/libmesh_core_nrf52840_xxAA.a(flash_manager.c.obj)
 *fill*         0x20004f5d        0x1 
 .bss.m_token   0x20004f5e        0x2 mesh/core/libmesh_core_nrf52840_xxAA.a(flash_manager.c.obj)
 .bss.p_current.11249
                0x20004f60        0x4 mesh/core/libmesh_core_nrf52840_xxAA.a(flash_manager.c.obj)
 .bss.result.11250
                0x20004f64        0x1 mesh/core/libmesh_core_nrf52840_xxAA.a(flash_manager.c.obj)
 *fill*         0x20004f65        0x3 
 .bss.m_adv_buffer
                0x20004f68       0x68 mesh/core/libmesh_core_nrf52840_xxAA.a(beacon.c.obj)
 .bss.m_advertiser
                0x20004fd0       0x94 mesh/core/libmesh_core_nrf52840_xxAA.a(beacon.c.obj)
 .bss.m_bearers
                0x20005064        0x4 mesh/core/libmesh_core_nrf52840_xxAA.a(core_tx.c.obj)
 .bss.m_tx_complete_callback
                0x20005068        0x4 mesh/core/libmesh_core_nrf52840_xxAA.a(core_tx.c.obj)
 .bss.m_hb_core_evt_handler
                0x2000506c        0x8 mesh/core/libmesh_core_nrf52840_xxAA.a(heartbeat.c.obj)
 .bss.m_hb_pending_feat_msg
                0x20005074        0x1 mesh/core/libmesh_core_nrf52840_xxAA.a(heartbeat.c.obj)
 .bss.m_hb_pending_pub_msg
                0x20005075        0x1 mesh/core/libmesh_core_nrf52840_xxAA.a(heartbeat.c.obj)
 .bss.m_heartbeat_init_done
                0x20005076        0x1 mesh/core/libmesh_core_nrf52840_xxAA.a(heartbeat.c.obj)
 *fill*         0x20005077        0x1 
 .bss.m_heartbeat_subscription
                0x20005078       0x10 mesh/core/libmesh_core_nrf52840_xxAA.a(heartbeat.c.obj)
 .bss.m_publication_count_decrement_cb
                0x20005088        0x4 mesh/core/libmesh_core_nrf52840_xxAA.a(heartbeat.c.obj)
 .bss.m_publication_get_cb
                0x2000508c        0x4 mesh/core/libmesh_core_nrf52840_xxAA.a(heartbeat.c.obj)
 .bss.m_publication_timer
                0x20005090       0x1c mesh/core/libmesh_core_nrf52840_xxAA.a(heartbeat.c.obj)
 .bss.m_subscription_timer
                0x200050ac       0x18 mesh/core/libmesh_core_nrf52840_xxAA.a(heartbeat.c.obj)
 .bss.m_beacon_salt
                0x200050c4       0x10 mesh/core/libmesh_core_nrf52840_xxAA.a(net_beacon.c.obj)
 .bss.m_enabled
                0x200050d4        0x1 mesh/core/libmesh_core_nrf52840_xxAA.a(net_beacon.c.obj)
 *fill*         0x200050d5        0x3 
 .bss.m_tx_event
                0x200050d8       0x18 mesh/core/libmesh_core_nrf52840_xxAA.a(net_beacon.c.obj)
 .bss.m_adv_tx_count
                0x200050f0        0x8 mesh/core/libmesh_core_nrf52840_xxAA.a(core_tx_adv.c.obj)
 .bss.m_advertisers
                0x200050f8      0x128 mesh/core/libmesh_core_nrf52840_xxAA.a(core_tx_adv.c.obj)
 .bss.m_originator_adv_packet_buffer
                0x20005220      0x100 mesh/core/libmesh_core_nrf52840_xxAA.a(core_tx_adv.c.obj)
 .bss.m_relay_adv_packet_buffer
                0x20005320       0x80 mesh/core/libmesh_core_nrf52840_xxAA.a(core_tx_adv.c.obj)
 .bss.m_subscribers
                0x200053a0        0x4 mesh/core/libmesh_core_nrf52840_xxAA.a(ad_listener.c.obj)
 .bss.m_adtype_filter
                0x200053a4       0x38 mesh/core/libmesh_core_nrf52840_xxAA.a(ad_type_filter.c.obj)
 .bss.m_adv_prng
                0x200053dc       0x10 mesh/core/libmesh_core_nrf52840_xxAA.a(advertiser.c.obj)
 .bss.m_action_queue
                0x200053ec        0x8 mesh/core/libmesh_core_nrf52840_xxAA.a(bearer_handler.c.obj)
 .bss.m_end_time
                0x200053f4        0x4 mesh/core/libmesh_core_nrf52840_xxAA.a(bearer_handler.c.obj)
 .bss.m_scanner_is_active
                0x200053f8        0x1 mesh/core/libmesh_core_nrf52840_xxAA.a(bearer_handler.c.obj)
 .bss.m_stopped
                0x200053f9        0x1 mesh/core/libmesh_core_nrf52840_xxAA.a(bearer_handler.c.obj)
 *fill*         0x200053fa        0x2 
 .bss.mp_action
                0x200053fc        0x4 mesh/core/libmesh_core_nrf52840_xxAA.a(bearer_handler.c.obj)
 .bss.m_next_channel_index
                0x20005400        0x1 mesh/core/libmesh_core_nrf52840_xxAA.a(broadcast.c.obj)
 *fill*         0x20005401        0x3 
 .bss.m_accepted_amount
                0x20005404        0x4 mesh/core/libmesh_core_nrf52840_xxAA.a(filter_engine.c.obj)
 .bss.m_filter_list_head
                0x20005408        0x4 mesh/core/libmesh_core_nrf52840_xxAA.a(filter_engine.c.obj)
 .bss.m_scanner
                0x2000540c      0x28c mesh/core/libmesh_core_nrf52840_xxAA.a(scanner.c.obj)
 .bss.m_internal_event_fifo
                0x20005698       0x14 mesh/core/libmesh_core_nrf52840_xxAA.a(internal_event.c.obj)
 .bss.m_internal_event_initialized
                0x200056ac        0x1 mesh/core/libmesh_core_nrf52840_xxAA.a(internal_event.c.obj)
 *fill*         0x200056ad        0x3 
 .bss.m_report_cb
                0x200056b0        0x4 mesh/core/libmesh_core_nrf52840_xxAA.a(internal_event.c.obj)
 .bss.m_msg_cache
                0x200056b4      0x100 mesh/core/libmesh_core_nrf52840_xxAA.a(msg_cache.c.obj)
 .bss.m_msg_cache_head
                0x200057b4        0x4 mesh/core/libmesh_core_nrf52840_xxAA.a(msg_cache.c.obj)
 .bss.m_control_packet_consumer_count
                0x200057b8        0x4 mesh/core/libmesh_core_nrf52840_xxAA.a(transport.c.obj)
 .bss.m_control_packet_consumers
                0x200057bc        0x8 mesh/core/libmesh_core_nrf52840_xxAA.a(transport.c.obj)
 .bss.m_sar_alloc
                0x200057c4        0x4 mesh/core/libmesh_core_nrf52840_xxAA.a(transport.c.obj)
 .bss.m_sar_process_flag
                0x200057c8        0x4 mesh/core/libmesh_core_nrf52840_xxAA.a(transport.c.obj)
 .bss.m_sar_release
                0x200057cc        0x4 mesh/core/libmesh_core_nrf52840_xxAA.a(transport.c.obj)
 .bss.m_sar_session_cache
                0x200057d0       0x40 mesh/core/libmesh_core_nrf52840_xxAA.a(transport.c.obj)
 .bss.m_sar_session_cache_head
                0x20005810        0x4 mesh/core/libmesh_core_nrf52840_xxAA.a(transport.c.obj)
 .bss.m_trs_config
                0x20005814       0x18 mesh/core/libmesh_core_nrf52840_xxAA.a(transport.c.obj)
 .bss.m_trs_sar_sessions
                0x2000582c      0x1b0 mesh/core/libmesh_core_nrf52840_xxAA.a(transport.c.obj)
 .bss.m_defrag  0x200059dc       0x1c mesh/core/libmesh_core_nrf52840_xxAA.a(flash_manager_defrag.c.obj)
 .bss.m_token   0x200059f8        0x2 mesh/core/libmesh_core_nrf52840_xxAA.a(flash_manager_defrag.c.obj)
 *fill*         0x200059fa        0x2 
 .bss.mp_recovery_area
                0x200059fc        0x4 mesh/core/libmesh_core_nrf52840_xxAA.a(flash_manager_defrag.c.obj)
 .bss.p_null_ptr.10340
                0x20005a00        0x4 mesh/core/libmesh_core_nrf52840_xxAA.a(flash_manager_defrag.c.obj)
 .bss.m_event_flag
                0x20005a04        0x4 mesh/core/libmesh_core_nrf52840_xxAA.a(mesh_flash.c.obj)
 .bss.m_suspended
                0x20005a08        0x1 mesh/core/libmesh_core_nrf52840_xxAA.a(mesh_flash.c.obj)
 *fill*         0x20005a09        0x3 
 .bss.m_users   0x20005a0c      0x228 mesh/core/libmesh_core_nrf52840_xxAA.a(mesh_flash.c.obj)
 .bss.m_128buf  0x20005c34       0x10 mesh/core/libmesh_core_nrf52840_xxAA.a(aes_cmac.c.obj)
 .bss.m_subkey1
                0x20005c44       0x10 mesh/core/libmesh_core_nrf52840_xxAA.a(aes_cmac.c.obj)
 .bss.m_subkey2
                0x20005c54       0x10 mesh/core/libmesh_core_nrf52840_xxAA.a(aes_cmac.c.obj)
 .bss.m_cache_full
                0x20005c64        0x1 mesh/core/libmesh_core_nrf52840_xxAA.a(replay_cache.c.obj)
 .bss.m_cache_index
                0x20005c65        0x1 mesh/core/libmesh_core_nrf52840_xxAA.a(replay_cache.c.obj)
 *fill*         0x20005c66        0x2 
 .bss.m_replay_cache
                0x20005c68      0x200 mesh/core/libmesh_core_nrf52840_xxAA.a(replay_cache.c.obj)
 .bss._acDownBuffer
                0x20005e68       0x80 external/rtt/librtt_nrf52840_xxAA.a(SEGGER_RTT.c.obj)
 .bss._acUpBuffer
                0x20005ee8      0x400 external/rtt/librtt_nrf52840_xxAA.a(SEGGER_RTT.c.obj)
 .bss.__malloc_free_list
                0x200062e8        0x4 c:/a/gcc_arm/6/bin/../lib/gcc/arm-none-eabi/6.3.1/../../../../arm-none-eabi/lib/thumb/v7e-m/fpv4-sp/hard\libg_nano.a(lib_a-nano-mallocr.o)
                0x200062e8                __malloc_free_list
 .bss.__malloc_sbrk_start
                0x200062ec        0x4 c:/a/gcc_arm/6/bin/../lib/gcc/arm-none-eabi/6.3.1/../../../../arm-none-eabi/lib/thumb/v7e-m/fpv4-sp/hard\libg_nano.a(lib_a-nano-mallocr.o)
                0x200062ec                __malloc_sbrk_start
 .bss.heap_end.5239
                0x200062f0        0x4 c:/a/gcc_arm/6/bin/../lib/gcc/arm-none-eabi/6.3.1/../../../../arm-none-eabi/lib/thumb/v7e-m/fpv4-sp/hard\libnosys.a(sbrk.o)
 *(COMMON)
 COMMON         0x200062f4        0xc examples/light_switch/client/CMakeFiles/light_switch_client_nrf52840_xxAA_s140_5.0.0-3.alpha.dir/__/__/nrf_mesh_sdk.c.obj
                0x200062f4                nrf_nvic_state
 COMMON         0x20006300        0x4 mesh/core/libmesh_core_nrf52840_xxAA.a(nrf_mesh.c.obj)
                0x20006300                m_assertion_handler
 COMMON         0x20006304       0x78 external/rtt/librtt_nrf52840_xxAA.a(SEGGER_RTT.c.obj)
                0x20006304                _SEGGER_RTT
 COMMON         0x2000637c        0x4 c:/a/gcc_arm/6/bin/../lib/gcc/arm-none-eabi/6.3.1/../../../../arm-none-eabi/lib/thumb/v7e-m/fpv4-sp/hard\libg_nano.a(lib_a-reent.o)
                0x2000637c                errno
                0x20006380                . = ALIGN (0x4)
                0x20006380                __bss_end__ = .

.heap           0x20006380     0x2000
                0x20006380                __HeapBase = .
                0x20006380                __end__ = .
                0x20006380                PROVIDE (end, .)
 *(.heap*)
 .heap          0x20006380     0x2000 examples/light_switch/client/CMakeFiles/light_switch_client_nrf52840_xxAA_s140_5.0.0-3.alpha.dir/__/__/__/external/nRF5_SDK_14.2.0_17b948a/components/toolchain/gcc/gcc_startup_nrf52840.S.obj
                0x20008380                __HeapLimit = .

.stack_dummy    0x20006380     0x2000
 *(.stack*)
 .stack         0x20006380     0x2000 examples/light_switch/client/CMakeFiles/light_switch_client_nrf52840_xxAA_s140_5.0.0-3.alpha.dir/__/__/__/external/nRF5_SDK_14.2.0_17b948a/components/toolchain/gcc/gcc_startup_nrf52840.S.obj
                0x2003fd00                __StackTop = (ORIGIN (RAM) + LENGTH (RAM))
                0x2003dd00                __StackLimit = (__StackTop - SIZEOF (.stack_dummy))
                0x2003fd00                PROVIDE (__stack, __StackTop)
                0x00000001                ASSERT ((__StackLimit >= __HeapLimit), region RAM overflowed with stack)
                0x00000120                DataInitFlashUsed = (__bss_start__ - __data_start__)
                0x00012460                CodeFlashUsed = (__etext - ORIGIN (FLASH))
                0x00012580                TotalFlashUsed = (CodeFlashUsed + DataInitFlashUsed)
                0x00000001                ASSERT ((TotalFlashUsed <= LENGTH (FLASH)), region FLASH overflowed with .data and user data)
OUTPUT(examples\light_switch\client\light_switch_client_nrf52840_xxAA_s140_5.0.0-3.alpha.elf elf32-littlearm)

.ARM.attributes
                0x00000000       0x30
 .ARM.attributes
                0x00000000       0x22 c:/a/gcc_arm/6/bin/../lib/gcc/arm-none-eabi/6.3.1/thumb/v7e-m/fpv4-sp/hard/crti.o
 .ARM.attributes
                0x00000022       0x34 c:/a/gcc_arm/6/bin/../lib/gcc/arm-none-eabi/6.3.1/thumb/v7e-m/fpv4-sp/hard/crtbegin.o
 .ARM.attributes
                0x00000056       0x20 c:/a/gcc_arm/6/bin/../lib/gcc/arm-none-eabi/6.3.1/../../../../arm-none-eabi/lib/thumb/v7e-m/fpv4-sp/hard/crt0.o
 .ARM.attributes
                0x00000076       0x39 examples/light_switch/client/CMakeFiles/light_switch_client_nrf52840_xxAA_s140_5.0.0-3.alpha.dir/src/main.c.obj
 .ARM.attributes
                0x000000af       0x39 examples/light_switch/client/CMakeFiles/light_switch_client_nrf52840_xxAA_s140_5.0.0-3.alpha.dir/src/provisioner.c.obj
 .ARM.attributes
                0x000000e8       0x39 examples/light_switch/client/CMakeFiles/light_switch_client_nrf52840_xxAA_s140_5.0.0-3.alpha.dir/__/__/nrf_mesh_sdk.c.obj
 .ARM.attributes
                0x00000121       0x39 examples/light_switch/client/CMakeFiles/light_switch_client_nrf52840_xxAA_s140_5.0.0-3.alpha.dir/__/__/common/src/rtt_input.c.obj
 .ARM.attributes
                0x0000015a       0x39 examples/light_switch/client/CMakeFiles/light_switch_client_nrf52840_xxAA_s140_5.0.0-3.alpha.dir/__/__/common/src/simple_hal.c.obj
 .ARM.attributes
                0x00000193       0x39 examples/light_switch/client/CMakeFiles/light_switch_client_nrf52840_xxAA_s140_5.0.0-3.alpha.dir/__/__/nrf_mesh_weak.c.obj
 .ARM.attributes
                0x000001cc       0x39 examples/light_switch/client/CMakeFiles/light_switch_client_nrf52840_xxAA_s140_5.0.0-3.alpha.dir/__/__/__/models/simple_on_off/src/simple_on_off_client.c.obj
 .ARM.attributes
                0x00000205       0x39 examples/light_switch/client/CMakeFiles/light_switch_client_nrf52840_xxAA_s140_5.0.0-3.alpha.dir/__/__/__/models/config/src/config_client.c.obj
 .ARM.attributes
                0x0000023e       0x39 examples/light_switch/client/CMakeFiles/light_switch_client_nrf52840_xxAA_s140_5.0.0-3.alpha.dir/__/__/__/models/health/src/health_client.c.obj
 .ARM.attributes
                0x00000277       0x39 examples/light_switch/client/CMakeFiles/light_switch_client_nrf52840_xxAA_s140_5.0.0-3.alpha.dir/__/__/__/mesh/access/src/access_publish.c.obj
 .ARM.attributes
                0x000002b0       0x39 examples/light_switch/client/CMakeFiles/light_switch_client_nrf52840_xxAA_s140_5.0.0-3.alpha.dir/__/__/__/mesh/access/src/access.c.obj
 .ARM.attributes
                0x000002e9       0x39 examples/light_switch/client/CMakeFiles/light_switch_client_nrf52840_xxAA_s140_5.0.0-3.alpha.dir/__/__/__/mesh/access/src/access_reliable.c.obj
 .ARM.attributes
                0x00000322       0x39 examples/light_switch/client/CMakeFiles/light_switch_client_nrf52840_xxAA_s140_5.0.0-3.alpha.dir/__/__/__/mesh/access/src/device_state_manager.c.obj
 .ARM.attributes
                0x0000035b       0x39 examples/light_switch/client/CMakeFiles/light_switch_client_nrf52840_xxAA_s140_5.0.0-3.alpha.dir/__/__/__/mesh/prov/src/prov_provisioner.c.obj
 .ARM.attributes
                0x00000394       0x39 examples/light_switch/client/CMakeFiles/light_switch_client_nrf52840_xxAA_s140_5.0.0-3.alpha.dir/__/__/__/mesh/prov/src/nrf_mesh_prov.c.obj
 .ARM.attributes
                0x000003cd       0x39 examples/light_switch/client/CMakeFiles/light_switch_client_nrf52840_xxAA_s140_5.0.0-3.alpha.dir/__/__/__/mesh/prov/src/provisioning.c.obj
 .ARM.attributes
                0x00000406       0x39 examples/light_switch/client/CMakeFiles/light_switch_client_nrf52840_xxAA_s140_5.0.0-3.alpha.dir/__/__/__/mesh/prov/src/prov_beacon.c.obj
 .ARM.attributes
                0x0000043f       0x39 examples/light_switch/client/CMakeFiles/light_switch_client_nrf52840_xxAA_s140_5.0.0-3.alpha.dir/__/__/__/mesh/prov/src/prov_utils.c.obj
 .ARM.attributes
                0x00000478       0x39 examples/light_switch/client/CMakeFiles/light_switch_client_nrf52840_xxAA_s140_5.0.0-3.alpha.dir/__/__/__/mesh/prov/src/prov_bearer_adv.c.obj
 .ARM.attributes
                0x000004b1       0x39 examples/light_switch/client/CMakeFiles/light_switch_client_nrf52840_xxAA_s140_5.0.0-3.alpha.dir/__/__/__/external/nRF5_SDK_14.2.0_17b948a/components/toolchain/system_nrf52840.c.obj
 .ARM.attributes
                0x000004ea       0x20 examples/light_switch/client/CMakeFiles/light_switch_client_nrf52840_xxAA_s140_5.0.0-3.alpha.dir/__/__/__/external/nRF5_SDK_14.2.0_17b948a/components/toolchain/gcc/gcc_startup_nrf52840.S.obj
 .ARM.attributes
                0x0000050a       0x39 mesh/core/libmesh_core_nrf52840_xxAA.a(nrf_mesh_configure.c.obj)
 .ARM.attributes
                0x00000543       0x39 mesh/core/libmesh_core_nrf52840_xxAA.a(event.c.obj)
 .ARM.attributes
                0x0000057c       0x39 mesh/core/libmesh_core_nrf52840_xxAA.a(packet_mgr.c.obj)
 .ARM.attributes
                0x000005b5       0x39 mesh/core/libmesh_core_nrf52840_xxAA.a(net_state.c.obj)
 .ARM.attributes
                0x000005ee       0x39 mesh/core/libmesh_core_nrf52840_xxAA.a(nrf_mesh_utils.c.obj)
 .ARM.attributes
                0x00000627       0x39 mesh/core/libmesh_core_nrf52840_xxAA.a(nrf_mesh.c.obj)
 .ARM.attributes
                0x00000660       0x39 mesh/core/libmesh_core_nrf52840_xxAA.a(hal.c.obj)
 .ARM.attributes
                0x00000699       0x39 mesh/core/libmesh_core_nrf52840_xxAA.a(timer_scheduler.c.obj)
 .ARM.attributes
                0x000006d2       0x39 mesh/core/libmesh_core_nrf52840_xxAA.a(timer.c.obj)
 .ARM.attributes
                0x0000070b       0x39 mesh/core/libmesh_core_nrf52840_xxAA.a(ticker.c.obj)
 .ARM.attributes
                0x00000744       0x39 mesh/core/libmesh_core_nrf52840_xxAA.a(rand.c.obj)
 .ARM.attributes
                0x0000077d       0x39 mesh/core/libmesh_core_nrf52840_xxAA.a(timeslot.c.obj)
 .ARM.attributes
                0x000007b6       0x39 mesh/core/libmesh_core_nrf52840_xxAA.a(bearer_event.c.obj)
 .ARM.attributes
                0x000007ef       0x39 mesh/core/libmesh_core_nrf52840_xxAA.a(enc.c.obj)
 .ARM.attributes
                0x00000828       0x39 mesh/core/libmesh_core_nrf52840_xxAA.a(network.c.obj)
 .ARM.attributes
                0x00000861       0x39 mesh/core/libmesh_core_nrf52840_xxAA.a(nrf_mesh_keygen.c.obj)
 .ARM.attributes
                0x0000089a       0x39 mesh/core/libmesh_core_nrf52840_xxAA.a(list.c.obj)
 .ARM.attributes
                0x000008d3       0x39 mesh/core/libmesh_core_nrf52840_xxAA.a(log.c.obj)
 .ARM.attributes
                0x0000090c       0x39 mesh/core/libmesh_core_nrf52840_xxAA.a(flash_manager.c.obj)
 .ARM.attributes
                0x00000945       0x39 mesh/core/libmesh_core_nrf52840_xxAA.a(ccm_soft.c.obj)
 .ARM.attributes
                0x0000097e       0x39 mesh/core/libmesh_core_nrf52840_xxAA.a(beacon.c.obj)
 .ARM.attributes
                0x000009b7       0x39 mesh/core/libmesh_core_nrf52840_xxAA.a(flash_manager_internal.c.obj)
 .ARM.attributes
                0x000009f0       0x39 mesh/core/libmesh_core_nrf52840_xxAA.a(core_tx.c.obj)
 .ARM.attributes
                0x00000a29       0x39 mesh/core/libmesh_core_nrf52840_xxAA.a(heartbeat.c.obj)
 .ARM.attributes
                0x00000a62       0x39 mesh/core/libmesh_core_nrf52840_xxAA.a(net_beacon.c.obj)
 .ARM.attributes
                0x00000a9b       0x39 mesh/core/libmesh_core_nrf52840_xxAA.a(core_tx_adv.c.obj)
 .ARM.attributes
                0x00000ad4       0x39 mesh/core/libmesh_core_nrf52840_xxAA.a(ad_listener.c.obj)
 .ARM.attributes
                0x00000b0d       0x39 mesh/core/libmesh_core_nrf52840_xxAA.a(ad_type_filter.c.obj)
 .ARM.attributes
                0x00000b46       0x39 mesh/core/libmesh_core_nrf52840_xxAA.a(advertiser.c.obj)
 .ARM.attributes
                0x00000b7f       0x39 mesh/core/libmesh_core_nrf52840_xxAA.a(bearer_handler.c.obj)
 .ARM.attributes
                0x00000bb8       0x39 mesh/core/libmesh_core_nrf52840_xxAA.a(broadcast.c.obj)
 .ARM.attributes
                0x00000bf1       0x39 mesh/core/libmesh_core_nrf52840_xxAA.a(filter_engine.c.obj)
 .ARM.attributes
                0x00000c2a       0x39 mesh/core/libmesh_core_nrf52840_xxAA.a(radio_config.c.obj)
 .ARM.attributes
                0x00000c63       0x39 mesh/core/libmesh_core_nrf52840_xxAA.a(scanner.c.obj)
 .ARM.attributes
                0x00000c9c       0x39 mesh/core/libmesh_core_nrf52840_xxAA.a(internal_event.c.obj)
 .ARM.attributes
                0x00000cd5       0x39 mesh/core/libmesh_core_nrf52840_xxAA.a(aes.c.obj)
 .ARM.attributes
                0x00000d0e       0x39 mesh/core/libmesh_core_nrf52840_xxAA.a(msg_cache.c.obj)
 .ARM.attributes
                0x00000d47       0x39 mesh/core/libmesh_core_nrf52840_xxAA.a(transport.c.obj)
 .ARM.attributes
                0x00000d80       0x39 mesh/core/libmesh_core_nrf52840_xxAA.a(packet_buffer.c.obj)
 .ARM.attributes
                0x00000db9       0x39 mesh/core/libmesh_core_nrf52840_xxAA.a(flash_manager_defrag.c.obj)
 .ARM.attributes
                0x00000df2       0x39 mesh/core/libmesh_core_nrf52840_xxAA.a(fifo.c.obj)
 .ARM.attributes
                0x00000e2b       0x39 mesh/core/libmesh_core_nrf52840_xxAA.a(mesh_flash.c.obj)
 .ARM.attributes
                0x00000e64       0x39 mesh/core/libmesh_core_nrf52840_xxAA.a(queue.c.obj)
 .ARM.attributes
                0x00000e9d       0x39 mesh/core/libmesh_core_nrf52840_xxAA.a(aes_cmac.c.obj)
 .ARM.attributes
                0x00000ed6       0x39 mesh/core/libmesh_core_nrf52840_xxAA.a(nrf_mesh_opt.c.obj)
 .ARM.attributes
                0x00000f0f       0x39 mesh/core/libmesh_core_nrf52840_xxAA.a(msqueue.c.obj)
 .ARM.attributes
                0x00000f48       0x39 mesh/core/libmesh_core_nrf52840_xxAA.a(replay_cache.c.obj)
 .ARM.attributes
                0x00000f81       0x39 mesh/core/libmesh_core_nrf52840_xxAA.a(nrf_flash.c.obj)
 .ARM.attributes
                0x00000fba       0x39 external/rtt/librtt_nrf52840_xxAA.a(SEGGER_RTT.c.obj)
 .ARM.attributes
                0x00000ff3       0x39 external/rtt/librtt_nrf52840_xxAA.a(SEGGER_RTT_printf.c.obj)
 .ARM.attributes
                0x0000102c       0x39 external/micro-ecc/libuECC_nrf52840_xxAA.a(uECC.c.obj)
 .ARM.attributes
                0x00001065       0x22 c:/a/gcc_arm/6/bin/../lib/gcc/arm-none-eabi/6.3.1/thumb/v7e-m/fpv4-sp/hard\libgcc.a(_aeabi_uldivmod.o)
 .ARM.attributes
                0x00001087       0x34 c:/a/gcc_arm/6/bin/../lib/gcc/arm-none-eabi/6.3.1/thumb/v7e-m/fpv4-sp/hard\libgcc.a(_udivmoddi4.o)
 .ARM.attributes
                0x000010bb       0x22 c:/a/gcc_arm/6/bin/../lib/gcc/arm-none-eabi/6.3.1/thumb/v7e-m/fpv4-sp/hard\libgcc.a(_dvmd_tls.o)
 .ARM.attributes
                0x000010dd       0x34 c:/a/gcc_arm/6/bin/../lib/gcc/arm-none-eabi/6.3.1/../../../../arm-none-eabi/lib/thumb/v7e-m/fpv4-sp/hard\libg_nano.a(lib_a-exit.o)
 .ARM.attributes
                0x00001111       0x34 c:/a/gcc_arm/6/bin/../lib/gcc/arm-none-eabi/6.3.1/../../../../arm-none-eabi/lib/thumb/v7e-m/fpv4-sp/hard\libg_nano.a(lib_a-impure.o)
 .ARM.attributes
                0x00001145       0x34 c:/a/gcc_arm/6/bin/../lib/gcc/arm-none-eabi/6.3.1/../../../../arm-none-eabi/lib/thumb/v7e-m/fpv4-sp/hard\libg_nano.a(lib_a-init.o)
 .ARM.attributes
                0x00001179       0x34 c:/a/gcc_arm/6/bin/../lib/gcc/arm-none-eabi/6.3.1/../../../../arm-none-eabi/lib/thumb/v7e-m/fpv4-sp/hard\libg_nano.a(lib_a-malloc.o)
 .ARM.attributes
                0x000011ad       0x34 c:/a/gcc_arm/6/bin/../lib/gcc/arm-none-eabi/6.3.1/../../../../arm-none-eabi/lib/thumb/v7e-m/fpv4-sp/hard\libg_nano.a(lib_a-memcmp.o)
 .ARM.attributes
                0x000011e1       0x34 c:/a/gcc_arm/6/bin/../lib/gcc/arm-none-eabi/6.3.1/../../../../arm-none-eabi/lib/thumb/v7e-m/fpv4-sp/hard\libg_nano.a(lib_a-memcpy-stub.o)
 .ARM.attributes
                0x00001215       0x34 c:/a/gcc_arm/6/bin/../lib/gcc/arm-none-eabi/6.3.1/../../../../arm-none-eabi/lib/thumb/v7e-m/fpv4-sp/hard\libg_nano.a(lib_a-memset.o)
 .ARM.attributes
                0x00001249       0x34 c:/a/gcc_arm/6/bin/../lib/gcc/arm-none-eabi/6.3.1/../../../../arm-none-eabi/lib/thumb/v7e-m/fpv4-sp/hard\libg_nano.a(lib_a-nano-freer.o)
 .ARM.attributes
                0x0000127d       0x34 c:/a/gcc_arm/6/bin/../lib/gcc/arm-none-eabi/6.3.1/../../../../arm-none-eabi/lib/thumb/v7e-m/fpv4-sp/hard\libg_nano.a(lib_a-nano-mallocr.o)
 .ARM.attributes
                0x000012b1       0x34 c:/a/gcc_arm/6/bin/../lib/gcc/arm-none-eabi/6.3.1/../../../../arm-none-eabi/lib/thumb/v7e-m/fpv4-sp/hard\libg_nano.a(lib_a-sbrkr.o)
 .ARM.attributes
                0x000012e5       0x34 c:/a/gcc_arm/6/bin/../lib/gcc/arm-none-eabi/6.3.1/../../../../arm-none-eabi/lib/thumb/v7e-m/fpv4-sp/hard\libg_nano.a(lib_a-strcpy.o)
 .ARM.attributes
                0x00001319       0x1b c:/a/gcc_arm/6/bin/../lib/gcc/arm-none-eabi/6.3.1/../../../../arm-none-eabi/lib/thumb/v7e-m/fpv4-sp/hard\libg_nano.a(lib_a-strlen.o)
 .ARM.attributes
                0x00001334       0x34 c:/a/gcc_arm/6/bin/../lib/gcc/arm-none-eabi/6.3.1/../../../../arm-none-eabi/lib/thumb/v7e-m/fpv4-sp/hard\libg_nano.a(lib_a-strrchr.o)
 .ARM.attributes
                0x00001368       0x34 c:/a/gcc_arm/6/bin/../lib/gcc/arm-none-eabi/6.3.1/../../../../arm-none-eabi/lib/thumb/v7e-m/fpv4-sp/hard\libg_nano.a(lib_a-mlock.o)
 .ARM.attributes
                0x0000139c       0x34 c:/a/gcc_arm/6/bin/../lib/gcc/arm-none-eabi/6.3.1/../../../../arm-none-eabi/lib/thumb/v7e-m/fpv4-sp/hard\libg_nano.a(lib_a-reent.o)
 .ARM.attributes
                0x000013d0       0x34 c:/a/gcc_arm/6/bin/../lib/gcc/arm-none-eabi/6.3.1/../../../../arm-none-eabi/lib/thumb/v7e-m/fpv4-sp/hard\libg_nano.a(lib_a-strchr.o)
 .ARM.attributes
                0x00001404       0x34 c:/a/gcc_arm/6/bin/../lib/gcc/arm-none-eabi/6.3.1/thumb/v7e-m/fpv4-sp/hard/crtend.o
 .ARM.attributes
                0x00001438       0x22 c:/a/gcc_arm/6/bin/../lib/gcc/arm-none-eabi/6.3.1/thumb/v7e-m/fpv4-sp/hard/crtn.o
 .ARM.attributes
                0x0000145a       0x34 c:/a/gcc_arm/6/bin/../lib/gcc/arm-none-eabi/6.3.1/../../../../arm-none-eabi/lib/thumb/v7e-m/fpv4-sp/hard\libnosys.a(sbrk.o)
 .ARM.attributes
                0x0000148e       0x34 c:/a/gcc_arm/6/bin/../lib/gcc/arm-none-eabi/6.3.1/../../../../arm-none-eabi/lib/thumb/v7e-m/fpv4-sp/hard\libnosys.a(_exit.o)

.comment        0x00000000       0x7f
 .comment       0x00000000       0x7f examples/light_switch/client/CMakeFiles/light_switch_client_nrf52840_xxAA_s140_5.0.0-3.alpha.dir/src/main.c.obj
                                 0x80 (size before relaxing)
 .comment       0x0000007f       0x80 examples/light_switch/client/CMakeFiles/light_switch_client_nrf52840_xxAA_s140_5.0.0-3.alpha.dir/src/provisioner.c.obj
 .comment       0x0000007f       0x80 examples/light_switch/client/CMakeFiles/light_switch_client_nrf52840_xxAA_s140_5.0.0-3.alpha.dir/__/__/nrf_mesh_sdk.c.obj
 .comment       0x0000007f       0x80 examples/light_switch/client/CMakeFiles/light_switch_client_nrf52840_xxAA_s140_5.0.0-3.alpha.dir/__/__/common/src/rtt_input.c.obj
 .comment       0x0000007f       0x80 examples/light_switch/client/CMakeFiles/light_switch_client_nrf52840_xxAA_s140_5.0.0-3.alpha.dir/__/__/common/src/simple_hal.c.obj
 .comment       0x0000007f       0x80 examples/light_switch/client/CMakeFiles/light_switch_client_nrf52840_xxAA_s140_5.0.0-3.alpha.dir/__/__/nrf_mesh_weak.c.obj
 .comment       0x0000007f       0x80 examples/light_switch/client/CMakeFiles/light_switch_client_nrf52840_xxAA_s140_5.0.0-3.alpha.dir/__/__/__/models/simple_on_off/src/simple_on_off_client.c.obj
 .comment       0x0000007f       0x80 examples/light_switch/client/CMakeFiles/light_switch_client_nrf52840_xxAA_s140_5.0.0-3.alpha.dir/__/__/__/models/config/src/config_client.c.obj
 .comment       0x0000007f       0x80 examples/light_switch/client/CMakeFiles/light_switch_client_nrf52840_xxAA_s140_5.0.0-3.alpha.dir/__/__/__/models/health/src/health_client.c.obj
 .comment       0x0000007f       0x80 examples/light_switch/client/CMakeFiles/light_switch_client_nrf52840_xxAA_s140_5.0.0-3.alpha.dir/__/__/__/mesh/access/src/access_publish.c.obj
 .comment       0x0000007f       0x80 examples/light_switch/client/CMakeFiles/light_switch_client_nrf52840_xxAA_s140_5.0.0-3.alpha.dir/__/__/__/mesh/access/src/access.c.obj
 .comment       0x0000007f       0x80 examples/light_switch/client/CMakeFiles/light_switch_client_nrf52840_xxAA_s140_5.0.0-3.alpha.dir/__/__/__/mesh/access/src/access_reliable.c.obj
 .comment       0x0000007f       0x80 examples/light_switch/client/CMakeFiles/light_switch_client_nrf52840_xxAA_s140_5.0.0-3.alpha.dir/__/__/__/mesh/access/src/device_state_manager.c.obj
 .comment       0x0000007f       0x80 examples/light_switch/client/CMakeFiles/light_switch_client_nrf52840_xxAA_s140_5.0.0-3.alpha.dir/__/__/__/mesh/prov/src/prov_provisioner.c.obj
 .comment       0x0000007f       0x80 examples/light_switch/client/CMakeFiles/light_switch_client_nrf52840_xxAA_s140_5.0.0-3.alpha.dir/__/__/__/mesh/prov/src/nrf_mesh_prov.c.obj
 .comment       0x0000007f       0x80 examples/light_switch/client/CMakeFiles/light_switch_client_nrf52840_xxAA_s140_5.0.0-3.alpha.dir/__/__/__/mesh/prov/src/provisioning.c.obj
 .comment       0x0000007f       0x80 examples/light_switch/client/CMakeFiles/light_switch_client_nrf52840_xxAA_s140_5.0.0-3.alpha.dir/__/__/__/mesh/prov/src/prov_beacon.c.obj
 .comment       0x0000007f       0x80 examples/light_switch/client/CMakeFiles/light_switch_client_nrf52840_xxAA_s140_5.0.0-3.alpha.dir/__/__/__/mesh/prov/src/prov_utils.c.obj
 .comment       0x0000007f       0x80 examples/light_switch/client/CMakeFiles/light_switch_client_nrf52840_xxAA_s140_5.0.0-3.alpha.dir/__/__/__/mesh/prov/src/prov_bearer_adv.c.obj
 .comment       0x0000007f       0x80 examples/light_switch/client/CMakeFiles/light_switch_client_nrf52840_xxAA_s140_5.0.0-3.alpha.dir/__/__/__/external/nRF5_SDK_14.2.0_17b948a/components/toolchain/system_nrf52840.c.obj
 .comment       0x0000007f       0x80 mesh/core/libmesh_core_nrf52840_xxAA.a(nrf_mesh_configure.c.obj)
 .comment       0x0000007f       0x80 mesh/core/libmesh_core_nrf52840_xxAA.a(event.c.obj)
 .comment       0x0000007f       0x80 mesh/core/libmesh_core_nrf52840_xxAA.a(packet_mgr.c.obj)
 .comment       0x0000007f       0x80 mesh/core/libmesh_core_nrf52840_xxAA.a(net_state.c.obj)
 .comment       0x0000007f       0x80 mesh/core/libmesh_core_nrf52840_xxAA.a(nrf_mesh_utils.c.obj)
 .comment       0x0000007f       0x80 mesh/core/libmesh_core_nrf52840_xxAA.a(nrf_mesh.c.obj)
 .comment       0x0000007f       0x80 mesh/core/libmesh_core_nrf52840_xxAA.a(hal.c.obj)
 .comment       0x0000007f       0x80 mesh/core/libmesh_core_nrf52840_xxAA.a(timer_scheduler.c.obj)
 .comment       0x0000007f       0x80 mesh/core/libmesh_core_nrf52840_xxAA.a(timer.c.obj)
 .comment       0x0000007f       0x80 mesh/core/libmesh_core_nrf52840_xxAA.a(ticker.c.obj)
 .comment       0x0000007f       0x80 mesh/core/libmesh_core_nrf52840_xxAA.a(rand.c.obj)
 .comment       0x0000007f       0x80 mesh/core/libmesh_core_nrf52840_xxAA.a(timeslot.c.obj)
 .comment       0x0000007f       0x80 mesh/core/libmesh_core_nrf52840_xxAA.a(bearer_event.c.obj)
 .comment       0x0000007f       0x80 mesh/core/libmesh_core_nrf52840_xxAA.a(enc.c.obj)
 .comment       0x0000007f       0x80 mesh/core/libmesh_core_nrf52840_xxAA.a(network.c.obj)
 .comment       0x0000007f       0x80 mesh/core/libmesh_core_nrf52840_xxAA.a(nrf_mesh_keygen.c.obj)
 .comment       0x0000007f       0x80 mesh/core/libmesh_core_nrf52840_xxAA.a(list.c.obj)
 .comment       0x0000007f       0x80 mesh/core/libmesh_core_nrf52840_xxAA.a(log.c.obj)
 .comment       0x0000007f       0x80 mesh/core/libmesh_core_nrf52840_xxAA.a(flash_manager.c.obj)
 .comment       0x0000007f       0x80 mesh/core/libmesh_core_nrf52840_xxAA.a(ccm_soft.c.obj)
 .comment       0x0000007f       0x80 mesh/core/libmesh_core_nrf52840_xxAA.a(beacon.c.obj)
 .comment       0x0000007f       0x80 mesh/core/libmesh_core_nrf52840_xxAA.a(flash_manager_internal.c.obj)
 .comment       0x0000007f       0x80 mesh/core/libmesh_core_nrf52840_xxAA.a(core_tx.c.obj)
 .comment       0x0000007f       0x80 mesh/core/libmesh_core_nrf52840_xxAA.a(heartbeat.c.obj)
 .comment       0x0000007f       0x80 mesh/core/libmesh_core_nrf52840_xxAA.a(net_beacon.c.obj)
 .comment       0x0000007f       0x80 mesh/core/libmesh_core_nrf52840_xxAA.a(core_tx_adv.c.obj)
 .comment       0x0000007f       0x80 mesh/core/libmesh_core_nrf52840_xxAA.a(ad_listener.c.obj)
 .comment       0x0000007f       0x80 mesh/core/libmesh_core_nrf52840_xxAA.a(ad_type_filter.c.obj)
 .comment       0x0000007f       0x80 mesh/core/libmesh_core_nrf52840_xxAA.a(advertiser.c.obj)
 .comment       0x0000007f       0x80 mesh/core/libmesh_core_nrf52840_xxAA.a(bearer_handler.c.obj)
 .comment       0x0000007f       0x80 mesh/core/libmesh_core_nrf52840_xxAA.a(broadcast.c.obj)
 .comment       0x0000007f       0x80 mesh/core/libmesh_core_nrf52840_xxAA.a(filter_engine.c.obj)
 .comment       0x0000007f       0x80 mesh/core/libmesh_core_nrf52840_xxAA.a(radio_config.c.obj)
 .comment       0x0000007f       0x80 mesh/core/libmesh_core_nrf52840_xxAA.a(scanner.c.obj)
 .comment       0x0000007f       0x80 mesh/core/libmesh_core_nrf52840_xxAA.a(internal_event.c.obj)
 .comment       0x0000007f       0x80 mesh/core/libmesh_core_nrf52840_xxAA.a(aes.c.obj)
 .comment       0x0000007f       0x80 mesh/core/libmesh_core_nrf52840_xxAA.a(msg_cache.c.obj)
 .comment       0x0000007f       0x80 mesh/core/libmesh_core_nrf52840_xxAA.a(transport.c.obj)
 .comment       0x0000007f       0x80 mesh/core/libmesh_core_nrf52840_xxAA.a(packet_buffer.c.obj)
 .comment       0x0000007f       0x80 mesh/core/libmesh_core_nrf52840_xxAA.a(flash_manager_defrag.c.obj)
 .comment       0x0000007f       0x80 mesh/core/libmesh_core_nrf52840_xxAA.a(fifo.c.obj)
 .comment       0x0000007f       0x80 mesh/core/libmesh_core_nrf52840_xxAA.a(mesh_flash.c.obj)
 .comment       0x0000007f       0x80 mesh/core/libmesh_core_nrf52840_xxAA.a(queue.c.obj)
 .comment       0x0000007f       0x80 mesh/core/libmesh_core_nrf52840_xxAA.a(aes_cmac.c.obj)
 .comment       0x0000007f       0x80 mesh/core/libmesh_core_nrf52840_xxAA.a(nrf_mesh_opt.c.obj)
 .comment       0x0000007f       0x80 mesh/core/libmesh_core_nrf52840_xxAA.a(msqueue.c.obj)
 .comment       0x0000007f       0x80 mesh/core/libmesh_core_nrf52840_xxAA.a(replay_cache.c.obj)
 .comment       0x0000007f       0x80 mesh/core/libmesh_core_nrf52840_xxAA.a(nrf_flash.c.obj)
 .comment       0x0000007f       0x80 external/rtt/librtt_nrf52840_xxAA.a(SEGGER_RTT.c.obj)
 .comment       0x0000007f       0x80 external/rtt/librtt_nrf52840_xxAA.a(SEGGER_RTT_printf.c.obj)
 .comment       0x0000007f       0x80 external/micro-ecc/libuECC_nrf52840_xxAA.a(uECC.c.obj)

.debug_info     0x00000000    0x73c4f
 .debug_info    0x00000000     0x347d examples/light_switch/client/CMakeFiles/light_switch_client_nrf52840_xxAA_s140_5.0.0-3.alpha.dir/src/main.c.obj
 .debug_info    0x0000347d     0x3b69 examples/light_switch/client/CMakeFiles/light_switch_client_nrf52840_xxAA_s140_5.0.0-3.alpha.dir/src/provisioner.c.obj
 .debug_info    0x00006fe6     0x327b examples/light_switch/client/CMakeFiles/light_switch_client_nrf52840_xxAA_s140_5.0.0-3.alpha.dir/__/__/nrf_mesh_sdk.c.obj
 .debug_info    0x0000a261     0x1193 examples/light_switch/client/CMakeFiles/light_switch_client_nrf52840_xxAA_s140_5.0.0-3.alpha.dir/__/__/common/src/rtt_input.c.obj
 .debug_info    0x0000b3f4     0x149b examples/light_switch/client/CMakeFiles/light_switch_client_nrf52840_xxAA_s140_5.0.0-3.alpha.dir/__/__/common/src/simple_hal.c.obj
 .debug_info    0x0000c88f      0x94b examples/light_switch/client/CMakeFiles/light_switch_client_nrf52840_xxAA_s140_5.0.0-3.alpha.dir/__/__/nrf_mesh_weak.c.obj
 .debug_info    0x0000d1da     0x137a examples/light_switch/client/CMakeFiles/light_switch_client_nrf52840_xxAA_s140_5.0.0-3.alpha.dir/__/__/__/models/simple_on_off/src/simple_on_off_client.c.obj
 .debug_info    0x0000e554     0x3e06 examples/light_switch/client/CMakeFiles/light_switch_client_nrf52840_xxAA_s140_5.0.0-3.alpha.dir/__/__/__/models/config/src/config_client.c.obj
 .debug_info    0x0001235a     0x1a26 examples/light_switch/client/CMakeFiles/light_switch_client_nrf52840_xxAA_s140_5.0.0-3.alpha.dir/__/__/__/models/health/src/health_client.c.obj
 .debug_info    0x00013d80     0x112b examples/light_switch/client/CMakeFiles/light_switch_client_nrf52840_xxAA_s140_5.0.0-3.alpha.dir/__/__/__/mesh/access/src/access_publish.c.obj
 .debug_info    0x00014eab     0x4413 examples/light_switch/client/CMakeFiles/light_switch_client_nrf52840_xxAA_s140_5.0.0-3.alpha.dir/__/__/__/mesh/access/src/access.c.obj
 .debug_info    0x000192be     0x1540 examples/light_switch/client/CMakeFiles/light_switch_client_nrf52840_xxAA_s140_5.0.0-3.alpha.dir/__/__/__/mesh/access/src/access_reliable.c.obj
 .debug_info    0x0001a7fe     0x5f01 examples/light_switch/client/CMakeFiles/light_switch_client_nrf52840_xxAA_s140_5.0.0-3.alpha.dir/__/__/__/mesh/access/src/device_state_manager.c.obj
 .debug_info    0x000206ff     0x2348 examples/light_switch/client/CMakeFiles/light_switch_client_nrf52840_xxAA_s140_5.0.0-3.alpha.dir/__/__/__/mesh/prov/src/prov_provisioner.c.obj
 .debug_info    0x00022a47     0x1be9 examples/light_switch/client/CMakeFiles/light_switch_client_nrf52840_xxAA_s140_5.0.0-3.alpha.dir/__/__/__/mesh/prov/src/nrf_mesh_prov.c.obj
 .debug_info    0x00024630     0x1588 examples/light_switch/client/CMakeFiles/light_switch_client_nrf52840_xxAA_s140_5.0.0-3.alpha.dir/__/__/__/mesh/prov/src/provisioning.c.obj
 .debug_info    0x00025bb8     0x19a2 examples/light_switch/client/CMakeFiles/light_switch_client_nrf52840_xxAA_s140_5.0.0-3.alpha.dir/__/__/__/mesh/prov/src/prov_beacon.c.obj
 .debug_info    0x0002755a     0x2029 examples/light_switch/client/CMakeFiles/light_switch_client_nrf52840_xxAA_s140_5.0.0-3.alpha.dir/__/__/__/mesh/prov/src/prov_utils.c.obj
 .debug_info    0x00029583     0x3963 examples/light_switch/client/CMakeFiles/light_switch_client_nrf52840_xxAA_s140_5.0.0-3.alpha.dir/__/__/__/mesh/prov/src/prov_bearer_adv.c.obj
 .debug_info    0x0002cee6     0x12ef examples/light_switch/client/CMakeFiles/light_switch_client_nrf52840_xxAA_s140_5.0.0-3.alpha.dir/__/__/__/external/nRF5_SDK_14.2.0_17b948a/components/toolchain/system_nrf52840.c.obj
 .debug_info    0x0002e1d5      0xd04 mesh/core/libmesh_core_nrf52840_xxAA.a(nrf_mesh_configure.c.obj)
 .debug_info    0x0002eed9     0x1509 mesh/core/libmesh_core_nrf52840_xxAA.a(event.c.obj)
 .debug_info    0x000303e2     0x115b mesh/core/libmesh_core_nrf52840_xxAA.a(packet_mgr.c.obj)
 .debug_info    0x0003153d     0x23d7 mesh/core/libmesh_core_nrf52840_xxAA.a(net_state.c.obj)
 .debug_info    0x00033914      0xa87 mesh/core/libmesh_core_nrf52840_xxAA.a(nrf_mesh_utils.c.obj)
 .debug_info    0x0003439b     0x34e6 mesh/core/libmesh_core_nrf52840_xxAA.a(nrf_mesh.c.obj)
 .debug_info    0x00037881      0x51d mesh/core/libmesh_core_nrf52840_xxAA.a(hal.c.obj)
 .debug_info    0x00037d9e     0x102a mesh/core/libmesh_core_nrf52840_xxAA.a(timer_scheduler.c.obj)
 .debug_info    0x00038dc8      0xd9d mesh/core/libmesh_core_nrf52840_xxAA.a(timer.c.obj)
 .debug_info    0x00039b65      0x20b mesh/core/libmesh_core_nrf52840_xxAA.a(ticker.c.obj)
 .debug_info    0x00039d70      0x40f mesh/core/libmesh_core_nrf52840_xxAA.a(rand.c.obj)
 .debug_info    0x0003a17f     0x1a2c mesh/core/libmesh_core_nrf52840_xxAA.a(timeslot.c.obj)
 .debug_info    0x0003bbab     0x19fb mesh/core/libmesh_core_nrf52840_xxAA.a(bearer_event.c.obj)
 .debug_info    0x0003d5a6     0x164f mesh/core/libmesh_core_nrf52840_xxAA.a(enc.c.obj)
 .debug_info    0x0003ebf5     0x2aee mesh/core/libmesh_core_nrf52840_xxAA.a(network.c.obj)
 .debug_info    0x000416e3      0x4c8 mesh/core/libmesh_core_nrf52840_xxAA.a(nrf_mesh_keygen.c.obj)
 .debug_info    0x00041bab      0x48b mesh/core/libmesh_core_nrf52840_xxAA.a(list.c.obj)
 .debug_info    0x00042036      0xe28 mesh/core/libmesh_core_nrf52840_xxAA.a(log.c.obj)
 .debug_info    0x00042e5e     0x320c mesh/core/libmesh_core_nrf52840_xxAA.a(flash_manager.c.obj)
 .debug_info    0x0004606a     0x10a3 mesh/core/libmesh_core_nrf52840_xxAA.a(ccm_soft.c.obj)
 .debug_info    0x0004710d     0x193b mesh/core/libmesh_core_nrf52840_xxAA.a(beacon.c.obj)
 .debug_info    0x00048a48      0xb99 mesh/core/libmesh_core_nrf52840_xxAA.a(flash_manager_internal.c.obj)
 .debug_info    0x000495e1      0xfb3 mesh/core/libmesh_core_nrf52840_xxAA.a(core_tx.c.obj)
 .debug_info    0x0004a594     0x219a mesh/core/libmesh_core_nrf52840_xxAA.a(heartbeat.c.obj)
 .debug_info    0x0004c72e     0x1511 mesh/core/libmesh_core_nrf52840_xxAA.a(net_beacon.c.obj)
 .debug_info    0x0004dc3f     0x160b mesh/core/libmesh_core_nrf52840_xxAA.a(core_tx_adv.c.obj)
 .debug_info    0x0004f24a     0x1118 mesh/core/libmesh_core_nrf52840_xxAA.a(ad_listener.c.obj)
 .debug_info    0x00050362      0xfcd mesh/core/libmesh_core_nrf52840_xxAA.a(ad_type_filter.c.obj)
 .debug_info    0x0005132f     0x2448 mesh/core/libmesh_core_nrf52840_xxAA.a(advertiser.c.obj)
 .debug_info    0x00053777     0x1a6d mesh/core/libmesh_core_nrf52840_xxAA.a(bearer_handler.c.obj)
 .debug_info    0x000551e4     0x1ab4 mesh/core/libmesh_core_nrf52840_xxAA.a(broadcast.c.obj)
 .debug_info    0x00056c98      0xcf4 mesh/core/libmesh_core_nrf52840_xxAA.a(filter_engine.c.obj)
 .debug_info    0x0005798c      0x9c2 mesh/core/libmesh_core_nrf52840_xxAA.a(radio_config.c.obj)
 .debug_info    0x0005834e     0x271f mesh/core/libmesh_core_nrf52840_xxAA.a(scanner.c.obj)
 .debug_info    0x0005aa6d      0xc4e mesh/core/libmesh_core_nrf52840_xxAA.a(internal_event.c.obj)
 .debug_info    0x0005b6bb      0xbcc mesh/core/libmesh_core_nrf52840_xxAA.a(aes.c.obj)
 .debug_info    0x0005c287      0xa81 mesh/core/libmesh_core_nrf52840_xxAA.a(msg_cache.c.obj)
 .debug_info    0x0005cd08     0x54fa mesh/core/libmesh_core_nrf52840_xxAA.a(transport.c.obj)
 .debug_info    0x00062202     0x1d81 mesh/core/libmesh_core_nrf52840_xxAA.a(packet_buffer.c.obj)
 .debug_info    0x00063f83     0x23a1 mesh/core/libmesh_core_nrf52840_xxAA.a(flash_manager_defrag.c.obj)
 .debug_info    0x00066324      0xd0e mesh/core/libmesh_core_nrf52840_xxAA.a(fifo.c.obj)
 .debug_info    0x00067032     0x1887 mesh/core/libmesh_core_nrf52840_xxAA.a(mesh_flash.c.obj)
 .debug_info    0x000688b9      0xaf2 mesh/core/libmesh_core_nrf52840_xxAA.a(queue.c.obj)
 .debug_info    0x000693ab      0xe48 mesh/core/libmesh_core_nrf52840_xxAA.a(aes_cmac.c.obj)
 .debug_info    0x0006a1f3      0xb1c mesh/core/libmesh_core_nrf52840_xxAA.a(nrf_mesh_opt.c.obj)
 .debug_info    0x0006ad0f      0xd08 mesh/core/libmesh_core_nrf52840_xxAA.a(msqueue.c.obj)
 .debug_info    0x0006ba17      0xaeb mesh/core/libmesh_core_nrf52840_xxAA.a(replay_cache.c.obj)
 .debug_info    0x0006c502      0xb63 mesh/core/libmesh_core_nrf52840_xxAA.a(nrf_flash.c.obj)
 .debug_info    0x0006d065     0x1818 external/rtt/librtt_nrf52840_xxAA.a(SEGGER_RTT.c.obj)
 .debug_info    0x0006e87d      0xec1 external/rtt/librtt_nrf52840_xxAA.a(SEGGER_RTT_printf.c.obj)
 .debug_info    0x0006f73e     0x4511 external/micro-ecc/libuECC_nrf52840_xxAA.a(uECC.c.obj)

.debug_abbrev   0x00000000     0xfa9e
 .debug_abbrev  0x00000000      0x4bd examples/light_switch/client/CMakeFiles/light_switch_client_nrf52840_xxAA_s140_5.0.0-3.alpha.dir/src/main.c.obj
 .debug_abbrev  0x000004bd      0x43d examples/light_switch/client/CMakeFiles/light_switch_client_nrf52840_xxAA_s140_5.0.0-3.alpha.dir/src/provisioner.c.obj
 .debug_abbrev  0x000008fa      0x486 examples/light_switch/client/CMakeFiles/light_switch_client_nrf52840_xxAA_s140_5.0.0-3.alpha.dir/__/__/nrf_mesh_sdk.c.obj
 .debug_abbrev  0x00000d80      0x2b8 examples/light_switch/client/CMakeFiles/light_switch_client_nrf52840_xxAA_s140_5.0.0-3.alpha.dir/__/__/common/src/rtt_input.c.obj
 .debug_abbrev  0x00001038      0x364 examples/light_switch/client/CMakeFiles/light_switch_client_nrf52840_xxAA_s140_5.0.0-3.alpha.dir/__/__/common/src/simple_hal.c.obj
 .debug_abbrev  0x0000139c      0x1ae examples/light_switch/client/CMakeFiles/light_switch_client_nrf52840_xxAA_s140_5.0.0-3.alpha.dir/__/__/nrf_mesh_weak.c.obj
 .debug_abbrev  0x0000154a      0x352 examples/light_switch/client/CMakeFiles/light_switch_client_nrf52840_xxAA_s140_5.0.0-3.alpha.dir/__/__/__/models/simple_on_off/src/simple_on_off_client.c.obj
 .debug_abbrev  0x0000189c      0x54c examples/light_switch/client/CMakeFiles/light_switch_client_nrf52840_xxAA_s140_5.0.0-3.alpha.dir/__/__/__/models/config/src/config_client.c.obj
 .debug_abbrev  0x00001de8      0x3af examples/light_switch/client/CMakeFiles/light_switch_client_nrf52840_xxAA_s140_5.0.0-3.alpha.dir/__/__/__/models/health/src/health_client.c.obj
 .debug_abbrev  0x00002197      0x460 examples/light_switch/client/CMakeFiles/light_switch_client_nrf52840_xxAA_s140_5.0.0-3.alpha.dir/__/__/__/mesh/access/src/access_publish.c.obj
 .debug_abbrev  0x000025f7      0x67f examples/light_switch/client/CMakeFiles/light_switch_client_nrf52840_xxAA_s140_5.0.0-3.alpha.dir/__/__/__/mesh/access/src/access.c.obj
 .debug_abbrev  0x00002c76      0x440 examples/light_switch/client/CMakeFiles/light_switch_client_nrf52840_xxAA_s140_5.0.0-3.alpha.dir/__/__/__/mesh/access/src/access_reliable.c.obj
 .debug_abbrev  0x000030b6      0x647 examples/light_switch/client/CMakeFiles/light_switch_client_nrf52840_xxAA_s140_5.0.0-3.alpha.dir/__/__/__/mesh/access/src/device_state_manager.c.obj
 .debug_abbrev  0x000036fd      0x3dd examples/light_switch/client/CMakeFiles/light_switch_client_nrf52840_xxAA_s140_5.0.0-3.alpha.dir/__/__/__/mesh/prov/src/prov_provisioner.c.obj
 .debug_abbrev  0x00003ada      0x335 examples/light_switch/client/CMakeFiles/light_switch_client_nrf52840_xxAA_s140_5.0.0-3.alpha.dir/__/__/__/mesh/prov/src/nrf_mesh_prov.c.obj
 .debug_abbrev  0x00003e0f      0x29c examples/light_switch/client/CMakeFiles/light_switch_client_nrf52840_xxAA_s140_5.0.0-3.alpha.dir/__/__/__/mesh/prov/src/provisioning.c.obj
 .debug_abbrev  0x000040ab      0x2c8 examples/light_switch/client/CMakeFiles/light_switch_client_nrf52840_xxAA_s140_5.0.0-3.alpha.dir/__/__/__/mesh/prov/src/prov_beacon.c.obj
 .debug_abbrev  0x00004373      0x3d4 examples/light_switch/client/CMakeFiles/light_switch_client_nrf52840_xxAA_s140_5.0.0-3.alpha.dir/__/__/__/mesh/prov/src/prov_utils.c.obj
 .debug_abbrev  0x00004747      0x50e examples/light_switch/client/CMakeFiles/light_switch_client_nrf52840_xxAA_s140_5.0.0-3.alpha.dir/__/__/__/mesh/prov/src/prov_bearer_adv.c.obj
 .debug_abbrev  0x00004c55      0x1e2 examples/light_switch/client/CMakeFiles/light_switch_client_nrf52840_xxAA_s140_5.0.0-3.alpha.dir/__/__/__/external/nRF5_SDK_14.2.0_17b948a/components/toolchain/system_nrf52840.c.obj
 .debug_abbrev  0x00004e37      0x24b mesh/core/libmesh_core_nrf52840_xxAA.a(nrf_mesh_configure.c.obj)
 .debug_abbrev  0x00005082      0x2a2 mesh/core/libmesh_core_nrf52840_xxAA.a(event.c.obj)
 .debug_abbrev  0x00005324      0x3d1 mesh/core/libmesh_core_nrf52840_xxAA.a(packet_mgr.c.obj)
 .debug_abbrev  0x000056f5      0x55b mesh/core/libmesh_core_nrf52840_xxAA.a(net_state.c.obj)
 .debug_abbrev  0x00005c50      0x25a mesh/core/libmesh_core_nrf52840_xxAA.a(nrf_mesh_utils.c.obj)
 .debug_abbrev  0x00005eaa      0x467 mesh/core/libmesh_core_nrf52840_xxAA.a(nrf_mesh.c.obj)
 .debug_abbrev  0x00006311      0x1e8 mesh/core/libmesh_core_nrf52840_xxAA.a(hal.c.obj)
 .debug_abbrev  0x000064f9      0x3bf mesh/core/libmesh_core_nrf52840_xxAA.a(timer_scheduler.c.obj)
 .debug_abbrev  0x000068b8      0x346 mesh/core/libmesh_core_nrf52840_xxAA.a(timer.c.obj)
 .debug_abbrev  0x00006bfe      0x152 mesh/core/libmesh_core_nrf52840_xxAA.a(ticker.c.obj)
 .debug_abbrev  0x00006d50      0x1d2 mesh/core/libmesh_core_nrf52840_xxAA.a(rand.c.obj)
 .debug_abbrev  0x00006f22      0x4db mesh/core/libmesh_core_nrf52840_xxAA.a(timeslot.c.obj)
 .debug_abbrev  0x000073fd      0x4b3 mesh/core/libmesh_core_nrf52840_xxAA.a(bearer_event.c.obj)
 .debug_abbrev  0x000078b0      0x37e mesh/core/libmesh_core_nrf52840_xxAA.a(enc.c.obj)
 .debug_abbrev  0x00007c2e      0x52c mesh/core/libmesh_core_nrf52840_xxAA.a(network.c.obj)
 .debug_abbrev  0x0000815a      0x163 mesh/core/libmesh_core_nrf52840_xxAA.a(nrf_mesh_keygen.c.obj)
 .debug_abbrev  0x000082bd      0x18e mesh/core/libmesh_core_nrf52840_xxAA.a(list.c.obj)
 .debug_abbrev  0x0000844b      0x24e mesh/core/libmesh_core_nrf52840_xxAA.a(log.c.obj)
 .debug_abbrev  0x00008699      0x5c2 mesh/core/libmesh_core_nrf52840_xxAA.a(flash_manager.c.obj)
 .debug_abbrev  0x00008c5b      0x2b3 mesh/core/libmesh_core_nrf52840_xxAA.a(ccm_soft.c.obj)
 .debug_abbrev  0x00008f0e      0x38c mesh/core/libmesh_core_nrf52840_xxAA.a(beacon.c.obj)
 .debug_abbrev  0x0000929a      0x28a mesh/core/libmesh_core_nrf52840_xxAA.a(flash_manager_internal.c.obj)
 .debug_abbrev  0x00009524      0x32c mesh/core/libmesh_core_nrf52840_xxAA.a(core_tx.c.obj)
 .debug_abbrev  0x00009850      0x4c9 mesh/core/libmesh_core_nrf52840_xxAA.a(heartbeat.c.obj)
 .debug_abbrev  0x00009d19      0x3cc mesh/core/libmesh_core_nrf52840_xxAA.a(net_beacon.c.obj)
 .debug_abbrev  0x0000a0e5      0x32c mesh/core/libmesh_core_nrf52840_xxAA.a(core_tx_adv.c.obj)
 .debug_abbrev  0x0000a411      0x341 mesh/core/libmesh_core_nrf52840_xxAA.a(ad_listener.c.obj)
 .debug_abbrev  0x0000a752      0x377 mesh/core/libmesh_core_nrf52840_xxAA.a(ad_type_filter.c.obj)
 .debug_abbrev  0x0000aac9      0x4fe mesh/core/libmesh_core_nrf52840_xxAA.a(advertiser.c.obj)
 .debug_abbrev  0x0000afc7      0x40d mesh/core/libmesh_core_nrf52840_xxAA.a(bearer_handler.c.obj)
 .debug_abbrev  0x0000b3d4      0x3b4 mesh/core/libmesh_core_nrf52840_xxAA.a(broadcast.c.obj)
 .debug_abbrev  0x0000b788      0x299 mesh/core/libmesh_core_nrf52840_xxAA.a(filter_engine.c.obj)
 .debug_abbrev  0x0000ba21      0x1d9 mesh/core/libmesh_core_nrf52840_xxAA.a(radio_config.c.obj)
 .debug_abbrev  0x0000bbfa      0x582 mesh/core/libmesh_core_nrf52840_xxAA.a(scanner.c.obj)
 .debug_abbrev  0x0000c17c      0x26d mesh/core/libmesh_core_nrf52840_xxAA.a(internal_event.c.obj)
 .debug_abbrev  0x0000c3e9      0x264 mesh/core/libmesh_core_nrf52840_xxAA.a(aes.c.obj)
 .debug_abbrev  0x0000c64d      0x25d mesh/core/libmesh_core_nrf52840_xxAA.a(msg_cache.c.obj)
 .debug_abbrev  0x0000c8aa      0x629 mesh/core/libmesh_core_nrf52840_xxAA.a(transport.c.obj)
 .debug_abbrev  0x0000ced3      0x49a mesh/core/libmesh_core_nrf52840_xxAA.a(packet_buffer.c.obj)
 .debug_abbrev  0x0000d36d      0x558 mesh/core/libmesh_core_nrf52840_xxAA.a(flash_manager_defrag.c.obj)
 .debug_abbrev  0x0000d8c5      0x301 mesh/core/libmesh_core_nrf52840_xxAA.a(fifo.c.obj)
 .debug_abbrev  0x0000dbc6      0x478 mesh/core/libmesh_core_nrf52840_xxAA.a(mesh_flash.c.obj)
 .debug_abbrev  0x0000e03e      0x227 mesh/core/libmesh_core_nrf52840_xxAA.a(queue.c.obj)
 .debug_abbrev  0x0000e265      0x332 mesh/core/libmesh_core_nrf52840_xxAA.a(aes_cmac.c.obj)
 .debug_abbrev  0x0000e597      0x24a mesh/core/libmesh_core_nrf52840_xxAA.a(nrf_mesh_opt.c.obj)
 .debug_abbrev  0x0000e7e1      0x29c mesh/core/libmesh_core_nrf52840_xxAA.a(msqueue.c.obj)
 .debug_abbrev  0x0000ea7d      0x277 mesh/core/libmesh_core_nrf52840_xxAA.a(replay_cache.c.obj)
 .debug_abbrev  0x0000ecf4      0x21f mesh/core/libmesh_core_nrf52840_xxAA.a(nrf_flash.c.obj)
 .debug_abbrev  0x0000ef13      0x3a9 external/rtt/librtt_nrf52840_xxAA.a(SEGGER_RTT.c.obj)
 .debug_abbrev  0x0000f2bc      0x32e external/rtt/librtt_nrf52840_xxAA.a(SEGGER_RTT_printf.c.obj)
 .debug_abbrev  0x0000f5ea      0x4b4 external/micro-ecc/libuECC_nrf52840_xxAA.a(uECC.c.obj)

.debug_loc      0x00000000    0x21e5d
 .debug_loc     0x00000000      0x652 examples/light_switch/client/CMakeFiles/light_switch_client_nrf52840_xxAA_s140_5.0.0-3.alpha.dir/src/main.c.obj
 .debug_loc     0x00000652      0x4c2 examples/light_switch/client/CMakeFiles/light_switch_client_nrf52840_xxAA_s140_5.0.0-3.alpha.dir/src/provisioner.c.obj
 .debug_loc     0x00000b14      0x30c examples/light_switch/client/CMakeFiles/light_switch_client_nrf52840_xxAA_s140_5.0.0-3.alpha.dir/__/__/nrf_mesh_sdk.c.obj
 .debug_loc     0x00000e20       0xa5 examples/light_switch/client/CMakeFiles/light_switch_client_nrf52840_xxAA_s140_5.0.0-3.alpha.dir/__/__/common/src/rtt_input.c.obj
 .debug_loc     0x00000ec5      0x1ee examples/light_switch/client/CMakeFiles/light_switch_client_nrf52840_xxAA_s140_5.0.0-3.alpha.dir/__/__/common/src/simple_hal.c.obj
 .debug_loc     0x000010b3      0x5fa examples/light_switch/client/CMakeFiles/light_switch_client_nrf52840_xxAA_s140_5.0.0-3.alpha.dir/__/__/__/models/simple_on_off/src/simple_on_off_client.c.obj
 .debug_loc     0x000016ad     0x154b examples/light_switch/client/CMakeFiles/light_switch_client_nrf52840_xxAA_s140_5.0.0-3.alpha.dir/__/__/__/models/config/src/config_client.c.obj
 .debug_loc     0x00002bf8      0xa21 examples/light_switch/client/CMakeFiles/light_switch_client_nrf52840_xxAA_s140_5.0.0-3.alpha.dir/__/__/__/models/health/src/health_client.c.obj
 .debug_loc     0x00003619      0x577 examples/light_switch/client/CMakeFiles/light_switch_client_nrf52840_xxAA_s140_5.0.0-3.alpha.dir/__/__/__/mesh/access/src/access_publish.c.obj
 .debug_loc     0x00003b90     0x22cc examples/light_switch/client/CMakeFiles/light_switch_client_nrf52840_xxAA_s140_5.0.0-3.alpha.dir/__/__/__/mesh/access/src/access.c.obj
 .debug_loc     0x00005e5c      0x7f6 examples/light_switch/client/CMakeFiles/light_switch_client_nrf52840_xxAA_s140_5.0.0-3.alpha.dir/__/__/__/mesh/access/src/access_reliable.c.obj
 .debug_loc     0x00006652     0x3c34 examples/light_switch/client/CMakeFiles/light_switch_client_nrf52840_xxAA_s140_5.0.0-3.alpha.dir/__/__/__/mesh/access/src/device_state_manager.c.obj
 .debug_loc     0x0000a286      0x6a4 examples/light_switch/client/CMakeFiles/light_switch_client_nrf52840_xxAA_s140_5.0.0-3.alpha.dir/__/__/__/mesh/prov/src/prov_provisioner.c.obj
 .debug_loc     0x0000a92a      0x7c0 examples/light_switch/client/CMakeFiles/light_switch_client_nrf52840_xxAA_s140_5.0.0-3.alpha.dir/__/__/__/mesh/prov/src/nrf_mesh_prov.c.obj
 .debug_loc     0x0000b0ea      0x4e0 examples/light_switch/client/CMakeFiles/light_switch_client_nrf52840_xxAA_s140_5.0.0-3.alpha.dir/__/__/__/mesh/prov/src/provisioning.c.obj
 .debug_loc     0x0000b5ca      0x1cd examples/light_switch/client/CMakeFiles/light_switch_client_nrf52840_xxAA_s140_5.0.0-3.alpha.dir/__/__/__/mesh/prov/src/prov_beacon.c.obj
 .debug_loc     0x0000b797      0x42c examples/light_switch/client/CMakeFiles/light_switch_client_nrf52840_xxAA_s140_5.0.0-3.alpha.dir/__/__/__/mesh/prov/src/prov_utils.c.obj
 .debug_loc     0x0000bbc3     0x175a examples/light_switch/client/CMakeFiles/light_switch_client_nrf52840_xxAA_s140_5.0.0-3.alpha.dir/__/__/__/mesh/prov/src/prov_bearer_adv.c.obj
 .debug_loc     0x0000d31d       0x2c mesh/core/libmesh_core_nrf52840_xxAA.a(nrf_mesh_configure.c.obj)
 .debug_loc     0x0000d349      0x136 mesh/core/libmesh_core_nrf52840_xxAA.a(event.c.obj)
 .debug_loc     0x0000d47f      0x6d7 mesh/core/libmesh_core_nrf52840_xxAA.a(packet_mgr.c.obj)
 .debug_loc     0x0000db56      0x758 mesh/core/libmesh_core_nrf52840_xxAA.a(net_state.c.obj)
 .debug_loc     0x0000e2ae      0x11c mesh/core/libmesh_core_nrf52840_xxAA.a(nrf_mesh_utils.c.obj)
 .debug_loc     0x0000e3ca      0x4d7 mesh/core/libmesh_core_nrf52840_xxAA.a(nrf_mesh.c.obj)
 .debug_loc     0x0000e8a1       0x63 mesh/core/libmesh_core_nrf52840_xxAA.a(hal.c.obj)
 .debug_loc     0x0000e904      0x3b9 mesh/core/libmesh_core_nrf52840_xxAA.a(timer_scheduler.c.obj)
 .debug_loc     0x0000ecbd      0x60f mesh/core/libmesh_core_nrf52840_xxAA.a(timer.c.obj)
 .debug_loc     0x0000f2cc      0x190 mesh/core/libmesh_core_nrf52840_xxAA.a(rand.c.obj)
 .debug_loc     0x0000f45c      0x370 mesh/core/libmesh_core_nrf52840_xxAA.a(timeslot.c.obj)
 .debug_loc     0x0000f7cc      0x647 mesh/core/libmesh_core_nrf52840_xxAA.a(bearer_event.c.obj)
 .debug_loc     0x0000fe13      0x960 mesh/core/libmesh_core_nrf52840_xxAA.a(enc.c.obj)
 .debug_loc     0x00010773     0x10e7 mesh/core/libmesh_core_nrf52840_xxAA.a(network.c.obj)
 .debug_loc     0x0001185a      0x1ee mesh/core/libmesh_core_nrf52840_xxAA.a(nrf_mesh_keygen.c.obj)
 .debug_loc     0x00011a48      0x541 mesh/core/libmesh_core_nrf52840_xxAA.a(list.c.obj)
 .debug_loc     0x00011f89      0x348 mesh/core/libmesh_core_nrf52840_xxAA.a(log.c.obj)
 .debug_loc     0x000122d1     0x1784 mesh/core/libmesh_core_nrf52840_xxAA.a(flash_manager.c.obj)
 .debug_loc     0x00013a55      0x371 mesh/core/libmesh_core_nrf52840_xxAA.a(ccm_soft.c.obj)
 .debug_loc     0x00013dc6      0x527 mesh/core/libmesh_core_nrf52840_xxAA.a(beacon.c.obj)
 .debug_loc     0x000142ed      0x130 mesh/core/libmesh_core_nrf52840_xxAA.a(flash_manager_internal.c.obj)
 .debug_loc     0x0001441d      0x639 mesh/core/libmesh_core_nrf52840_xxAA.a(core_tx.c.obj)
 .debug_loc     0x00014a56      0x644 mesh/core/libmesh_core_nrf52840_xxAA.a(heartbeat.c.obj)
 .debug_loc     0x0001509a      0x3fe mesh/core/libmesh_core_nrf52840_xxAA.a(net_beacon.c.obj)
 .debug_loc     0x00015498      0x3fa mesh/core/libmesh_core_nrf52840_xxAA.a(core_tx_adv.c.obj)
 .debug_loc     0x00015892      0x42e mesh/core/libmesh_core_nrf52840_xxAA.a(ad_listener.c.obj)
 .debug_loc     0x00015cc0      0x3b9 mesh/core/libmesh_core_nrf52840_xxAA.a(ad_type_filter.c.obj)
 .debug_loc     0x00016079      0xedd mesh/core/libmesh_core_nrf52840_xxAA.a(advertiser.c.obj)
 .debug_loc     0x00016f56      0x42d mesh/core/libmesh_core_nrf52840_xxAA.a(bearer_handler.c.obj)
 .debug_loc     0x00017383      0x377 mesh/core/libmesh_core_nrf52840_xxAA.a(broadcast.c.obj)
 .debug_loc     0x000176fa      0x115 mesh/core/libmesh_core_nrf52840_xxAA.a(filter_engine.c.obj)
 .debug_loc     0x0001780f      0x28c mesh/core/libmesh_core_nrf52840_xxAA.a(radio_config.c.obj)
 .debug_loc     0x00017a9b      0x4f6 mesh/core/libmesh_core_nrf52840_xxAA.a(scanner.c.obj)
 .debug_loc     0x00017f91       0xc9 mesh/core/libmesh_core_nrf52840_xxAA.a(internal_event.c.obj)
 .debug_loc     0x0001805a       0x89 mesh/core/libmesh_core_nrf52840_xxAA.a(aes.c.obj)
 .debug_loc     0x000180e3      0x10d mesh/core/libmesh_core_nrf52840_xxAA.a(msg_cache.c.obj)
 .debug_loc     0x000181f0     0x28ef mesh/core/libmesh_core_nrf52840_xxAA.a(transport.c.obj)
 .debug_loc     0x0001aadf      0xf93 mesh/core/libmesh_core_nrf52840_xxAA.a(packet_buffer.c.obj)
 .debug_loc     0x0001ba72      0x8ee mesh/core/libmesh_core_nrf52840_xxAA.a(flash_manager_defrag.c.obj)
 .debug_loc     0x0001c360      0x517 mesh/core/libmesh_core_nrf52840_xxAA.a(fifo.c.obj)
 .debug_loc     0x0001c877      0xa35 mesh/core/libmesh_core_nrf52840_xxAA.a(mesh_flash.c.obj)
 .debug_loc     0x0001d2ac      0x186 mesh/core/libmesh_core_nrf52840_xxAA.a(queue.c.obj)
 .debug_loc     0x0001d432      0x3f8 mesh/core/libmesh_core_nrf52840_xxAA.a(aes_cmac.c.obj)
 .debug_loc     0x0001d82a      0x194 mesh/core/libmesh_core_nrf52840_xxAA.a(nrf_mesh_opt.c.obj)
 .debug_loc     0x0001d9be      0x3e5 mesh/core/libmesh_core_nrf52840_xxAA.a(msqueue.c.obj)
 .debug_loc     0x0001dda3      0x1c6 mesh/core/libmesh_core_nrf52840_xxAA.a(replay_cache.c.obj)
 .debug_loc     0x0001df69      0x17a mesh/core/libmesh_core_nrf52840_xxAA.a(nrf_flash.c.obj)
 .debug_loc     0x0001e0e3     0x1222 external/rtt/librtt_nrf52840_xxAA.a(SEGGER_RTT.c.obj)
 .debug_loc     0x0001f305      0x70f external/rtt/librtt_nrf52840_xxAA.a(SEGGER_RTT_printf.c.obj)
 .debug_loc     0x0001fa14     0x2449 external/micro-ecc/libuECC_nrf52840_xxAA.a(uECC.c.obj)

.debug_aranges  0x00000000     0x2108
 .debug_aranges
                0x00000000       0x60 examples/light_switch/client/CMakeFiles/light_switch_client_nrf52840_xxAA_s140_5.0.0-3.alpha.dir/src/main.c.obj
 .debug_aranges
                0x00000060       0x48 examples/light_switch/client/CMakeFiles/light_switch_client_nrf52840_xxAA_s140_5.0.0-3.alpha.dir/src/provisioner.c.obj
 .debug_aranges
                0x000000a8       0x80 examples/light_switch/client/CMakeFiles/light_switch_client_nrf52840_xxAA_s140_5.0.0-3.alpha.dir/__/__/nrf_mesh_sdk.c.obj
 .debug_aranges
                0x00000128       0x30 examples/light_switch/client/CMakeFiles/light_switch_client_nrf52840_xxAA_s140_5.0.0-3.alpha.dir/__/__/common/src/rtt_input.c.obj
 .debug_aranges
                0x00000158       0x50 examples/light_switch/client/CMakeFiles/light_switch_client_nrf52840_xxAA_s140_5.0.0-3.alpha.dir/__/__/common/src/simple_hal.c.obj
 .debug_aranges
                0x000001a8       0x28 examples/light_switch/client/CMakeFiles/light_switch_client_nrf52840_xxAA_s140_5.0.0-3.alpha.dir/__/__/nrf_mesh_weak.c.obj
 .debug_aranges
                0x000001d0       0x48 examples/light_switch/client/CMakeFiles/light_switch_client_nrf52840_xxAA_s140_5.0.0-3.alpha.dir/__/__/__/models/simple_on_off/src/simple_on_off_client.c.obj
 .debug_aranges
                0x00000218      0x188 examples/light_switch/client/CMakeFiles/light_switch_client_nrf52840_xxAA_s140_5.0.0-3.alpha.dir/__/__/__/models/config/src/config_client.c.obj
 .debug_aranges
                0x000003a0       0x80 examples/light_switch/client/CMakeFiles/light_switch_client_nrf52840_xxAA_s140_5.0.0-3.alpha.dir/__/__/__/models/health/src/health_client.c.obj
 .debug_aranges
                0x00000420       0x50 examples/light_switch/client/CMakeFiles/light_switch_client_nrf52840_xxAA_s140_5.0.0-3.alpha.dir/__/__/__/mesh/access/src/access_publish.c.obj
 .debug_aranges
                0x00000470      0x1b0 examples/light_switch/client/CMakeFiles/light_switch_client_nrf52840_xxAA_s140_5.0.0-3.alpha.dir/__/__/__/mesh/access/src/access.c.obj
 .debug_aranges
                0x00000620       0x50 examples/light_switch/client/CMakeFiles/light_switch_client_nrf52840_xxAA_s140_5.0.0-3.alpha.dir/__/__/__/mesh/access/src/access_reliable.c.obj
 .debug_aranges
                0x00000670      0x300 examples/light_switch/client/CMakeFiles/light_switch_client_nrf52840_xxAA_s140_5.0.0-3.alpha.dir/__/__/__/mesh/access/src/device_state_manager.c.obj
 .debug_aranges
                0x00000970       0x70 examples/light_switch/client/CMakeFiles/light_switch_client_nrf52840_xxAA_s140_5.0.0-3.alpha.dir/__/__/__/mesh/prov/src/prov_provisioner.c.obj
 .debug_aranges
                0x000009e0       0x78 examples/light_switch/client/CMakeFiles/light_switch_client_nrf52840_xxAA_s140_5.0.0-3.alpha.dir/__/__/__/mesh/prov/src/nrf_mesh_prov.c.obj
 .debug_aranges
                0x00000a58       0x80 examples/light_switch/client/CMakeFiles/light_switch_client_nrf52840_xxAA_s140_5.0.0-3.alpha.dir/__/__/__/mesh/prov/src/provisioning.c.obj
 .debug_aranges
                0x00000ad8       0x38 examples/light_switch/client/CMakeFiles/light_switch_client_nrf52840_xxAA_s140_5.0.0-3.alpha.dir/__/__/__/mesh/prov/src/prov_beacon.c.obj
 .debug_aranges
                0x00000b10       0x70 examples/light_switch/client/CMakeFiles/light_switch_client_nrf52840_xxAA_s140_5.0.0-3.alpha.dir/__/__/__/mesh/prov/src/prov_utils.c.obj
 .debug_aranges
                0x00000b80       0xc8 examples/light_switch/client/CMakeFiles/light_switch_client_nrf52840_xxAA_s140_5.0.0-3.alpha.dir/__/__/__/mesh/prov/src/prov_bearer_adv.c.obj
 .debug_aranges
                0x00000c48       0x30 examples/light_switch/client/CMakeFiles/light_switch_client_nrf52840_xxAA_s140_5.0.0-3.alpha.dir/__/__/__/external/nRF5_SDK_14.2.0_17b948a/components/toolchain/system_nrf52840.c.obj
 .debug_aranges
                0x00000c78       0x30 mesh/core/libmesh_core_nrf52840_xxAA.a(nrf_mesh_configure.c.obj)
 .debug_aranges
                0x00000ca8       0x30 mesh/core/libmesh_core_nrf52840_xxAA.a(event.c.obj)
 .debug_aranges
                0x00000cd8       0x48 mesh/core/libmesh_core_nrf52840_xxAA.a(packet_mgr.c.obj)
 .debug_aranges
                0x00000d20       0xc0 mesh/core/libmesh_core_nrf52840_xxAA.a(net_state.c.obj)
 .debug_aranges
                0x00000de0       0x30 mesh/core/libmesh_core_nrf52840_xxAA.a(nrf_mesh_utils.c.obj)
 .debug_aranges
                0x00000e10       0x88 mesh/core/libmesh_core_nrf52840_xxAA.a(nrf_mesh.c.obj)
 .debug_aranges
                0x00000e98       0x30 mesh/core/libmesh_core_nrf52840_xxAA.a(hal.c.obj)
 .debug_aranges
                0x00000ec8       0x68 mesh/core/libmesh_core_nrf52840_xxAA.a(timer_scheduler.c.obj)
 .debug_aranges
                0x00000f30       0x60 mesh/core/libmesh_core_nrf52840_xxAA.a(timer.c.obj)
 .debug_aranges
                0x00000f90       0x30 mesh/core/libmesh_core_nrf52840_xxAA.a(ticker.c.obj)
 .debug_aranges
                0x00000fc0       0x40 mesh/core/libmesh_core_nrf52840_xxAA.a(rand.c.obj)
 .debug_aranges
                0x00001000       0xb8 mesh/core/libmesh_core_nrf52840_xxAA.a(timeslot.c.obj)
 .debug_aranges
                0x000010b8       0x98 mesh/core/libmesh_core_nrf52840_xxAA.a(bearer_event.c.obj)
 .debug_aranges
                0x00001150       0x70 mesh/core/libmesh_core_nrf52840_xxAA.a(enc.c.obj)
 .debug_aranges
                0x000011c0       0x60 mesh/core/libmesh_core_nrf52840_xxAA.a(network.c.obj)
 .debug_aranges
                0x00001220       0x40 mesh/core/libmesh_core_nrf52840_xxAA.a(nrf_mesh_keygen.c.obj)
 .debug_aranges
                0x00001260       0x48 mesh/core/libmesh_core_nrf52840_xxAA.a(list.c.obj)
 .debug_aranges
                0x000012a8       0x48 mesh/core/libmesh_core_nrf52840_xxAA.a(log.c.obj)
 .debug_aranges
                0x000012f0      0x100 mesh/core/libmesh_core_nrf52840_xxAA.a(flash_manager.c.obj)
 .debug_aranges
                0x000013f0       0x50 mesh/core/libmesh_core_nrf52840_xxAA.a(ccm_soft.c.obj)
 .debug_aranges
                0x00001440       0x38 mesh/core/libmesh_core_nrf52840_xxAA.a(beacon.c.obj)
 .debug_aranges
                0x00001478       0x20 mesh/core/libmesh_core_nrf52840_xxAA.a(flash_manager_internal.c.obj)
 .debug_aranges
                0x00001498       0x58 mesh/core/libmesh_core_nrf52840_xxAA.a(core_tx.c.obj)
 .debug_aranges
                0x000014f0       0x70 mesh/core/libmesh_core_nrf52840_xxAA.a(heartbeat.c.obj)
 .debug_aranges
                0x00001560       0x48 mesh/core/libmesh_core_nrf52840_xxAA.a(net_beacon.c.obj)
 .debug_aranges
                0x000015a8       0x68 mesh/core/libmesh_core_nrf52840_xxAA.a(core_tx_adv.c.obj)
 .debug_aranges
                0x00001610       0x30 mesh/core/libmesh_core_nrf52840_xxAA.a(ad_listener.c.obj)
 .debug_aranges
                0x00001640       0x58 mesh/core/libmesh_core_nrf52840_xxAA.a(ad_type_filter.c.obj)
 .debug_aranges
                0x00001698       0xb0 mesh/core/libmesh_core_nrf52840_xxAA.a(advertiser.c.obj)
 .debug_aranges
                0x00001748       0x70 mesh/core/libmesh_core_nrf52840_xxAA.a(bearer_handler.c.obj)
 .debug_aranges
                0x000017b8       0x30 mesh/core/libmesh_core_nrf52840_xxAA.a(broadcast.c.obj)
 .debug_aranges
                0x000017e8       0x38 mesh/core/libmesh_core_nrf52840_xxAA.a(filter_engine.c.obj)
 .debug_aranges
                0x00001820       0x40 mesh/core/libmesh_core_nrf52840_xxAA.a(radio_config.c.obj)
 .debug_aranges
                0x00001860       0xe0 mesh/core/libmesh_core_nrf52840_xxAA.a(scanner.c.obj)
 .debug_aranges
                0x00001940       0x30 mesh/core/libmesh_core_nrf52840_xxAA.a(internal_event.c.obj)
 .debug_aranges
                0x00001970       0x28 mesh/core/libmesh_core_nrf52840_xxAA.a(aes.c.obj)
 .debug_aranges
                0x00001998       0x38 mesh/core/libmesh_core_nrf52840_xxAA.a(msg_cache.c.obj)
 .debug_aranges
                0x000019d0      0x120 mesh/core/libmesh_core_nrf52840_xxAA.a(transport.c.obj)
 .debug_aranges
                0x00001af0       0x80 mesh/core/libmesh_core_nrf52840_xxAA.a(packet_buffer.c.obj)
 .debug_aranges
                0x00001b70       0xc8 mesh/core/libmesh_core_nrf52840_xxAA.a(flash_manager_defrag.c.obj)
 .debug_aranges
                0x00001c38       0x60 mesh/core/libmesh_core_nrf52840_xxAA.a(fifo.c.obj)
 .debug_aranges
                0x00001c98       0x60 mesh/core/libmesh_core_nrf52840_xxAA.a(mesh_flash.c.obj)
 .debug_aranges
                0x00001cf8       0x38 mesh/core/libmesh_core_nrf52840_xxAA.a(queue.c.obj)
 .debug_aranges
                0x00001d30       0x38 mesh/core/libmesh_core_nrf52840_xxAA.a(aes_cmac.c.obj)
 .debug_aranges
                0x00001d68       0x28 mesh/core/libmesh_core_nrf52840_xxAA.a(nrf_mesh_opt.c.obj)
 .debug_aranges
                0x00001d90       0x48 mesh/core/libmesh_core_nrf52840_xxAA.a(msqueue.c.obj)
 .debug_aranges
                0x00001dd8       0x48 mesh/core/libmesh_core_nrf52840_xxAA.a(replay_cache.c.obj)
 .debug_aranges
                0x00001e20       0x30 mesh/core/libmesh_core_nrf52840_xxAA.a(nrf_flash.c.obj)
 .debug_aranges
                0x00001e50       0xd8 external/rtt/librtt_nrf52840_xxAA.a(SEGGER_RTT.c.obj)
 .debug_aranges
                0x00001f28       0x38 external/rtt/librtt_nrf52840_xxAA.a(SEGGER_RTT_printf.c.obj)
 .debug_aranges
                0x00001f60      0x1a8 external/micro-ecc/libuECC_nrf52840_xxAA.a(uECC.c.obj)

.debug_ranges   0x00000000     0x8008
 .debug_ranges  0x00000000      0x348 examples/light_switch/client/CMakeFiles/light_switch_client_nrf52840_xxAA_s140_5.0.0-3.alpha.dir/src/main.c.obj
 .debug_ranges  0x00000348      0x318 examples/light_switch/client/CMakeFiles/light_switch_client_nrf52840_xxAA_s140_5.0.0-3.alpha.dir/src/provisioner.c.obj
 .debug_ranges  0x00000660      0x1a8 examples/light_switch/client/CMakeFiles/light_switch_client_nrf52840_xxAA_s140_5.0.0-3.alpha.dir/__/__/nrf_mesh_sdk.c.obj
 .debug_ranges  0x00000808       0x20 examples/light_switch/client/CMakeFiles/light_switch_client_nrf52840_xxAA_s140_5.0.0-3.alpha.dir/__/__/common/src/rtt_input.c.obj
 .debug_ranges  0x00000828       0xc8 examples/light_switch/client/CMakeFiles/light_switch_client_nrf52840_xxAA_s140_5.0.0-3.alpha.dir/__/__/common/src/simple_hal.c.obj
 .debug_ranges  0x000008f0       0x18 examples/light_switch/client/CMakeFiles/light_switch_client_nrf52840_xxAA_s140_5.0.0-3.alpha.dir/__/__/nrf_mesh_weak.c.obj
 .debug_ranges  0x00000908       0xb0 examples/light_switch/client/CMakeFiles/light_switch_client_nrf52840_xxAA_s140_5.0.0-3.alpha.dir/__/__/__/models/simple_on_off/src/simple_on_off_client.c.obj
 .debug_ranges  0x000009b8      0x450 examples/light_switch/client/CMakeFiles/light_switch_client_nrf52840_xxAA_s140_5.0.0-3.alpha.dir/__/__/__/models/config/src/config_client.c.obj
 .debug_ranges  0x00000e08       0xa0 examples/light_switch/client/CMakeFiles/light_switch_client_nrf52840_xxAA_s140_5.0.0-3.alpha.dir/__/__/__/models/health/src/health_client.c.obj
 .debug_ranges  0x00000ea8      0x178 examples/light_switch/client/CMakeFiles/light_switch_client_nrf52840_xxAA_s140_5.0.0-3.alpha.dir/__/__/__/mesh/access/src/access_publish.c.obj
 .debug_ranges  0x00001020      0x858 examples/light_switch/client/CMakeFiles/light_switch_client_nrf52840_xxAA_s140_5.0.0-3.alpha.dir/__/__/__/mesh/access/src/access.c.obj
 .debug_ranges  0x00001878      0x260 examples/light_switch/client/CMakeFiles/light_switch_client_nrf52840_xxAA_s140_5.0.0-3.alpha.dir/__/__/__/mesh/access/src/access_reliable.c.obj
 .debug_ranges  0x00001ad8      0xac8 examples/light_switch/client/CMakeFiles/light_switch_client_nrf52840_xxAA_s140_5.0.0-3.alpha.dir/__/__/__/mesh/access/src/device_state_manager.c.obj
 .debug_ranges  0x000025a0      0x128 examples/light_switch/client/CMakeFiles/light_switch_client_nrf52840_xxAA_s140_5.0.0-3.alpha.dir/__/__/__/mesh/prov/src/prov_provisioner.c.obj
 .debug_ranges  0x000026c8       0xb0 examples/light_switch/client/CMakeFiles/light_switch_client_nrf52840_xxAA_s140_5.0.0-3.alpha.dir/__/__/__/mesh/prov/src/nrf_mesh_prov.c.obj
 .debug_ranges  0x00002778       0xa0 examples/light_switch/client/CMakeFiles/light_switch_client_nrf52840_xxAA_s140_5.0.0-3.alpha.dir/__/__/__/mesh/prov/src/provisioning.c.obj
 .debug_ranges  0x00002818       0x88 examples/light_switch/client/CMakeFiles/light_switch_client_nrf52840_xxAA_s140_5.0.0-3.alpha.dir/__/__/__/mesh/prov/src/prov_beacon.c.obj
 .debug_ranges  0x000028a0       0xb8 examples/light_switch/client/CMakeFiles/light_switch_client_nrf52840_xxAA_s140_5.0.0-3.alpha.dir/__/__/__/mesh/prov/src/prov_utils.c.obj
 .debug_ranges  0x00002958      0x6c8 examples/light_switch/client/CMakeFiles/light_switch_client_nrf52840_xxAA_s140_5.0.0-3.alpha.dir/__/__/__/mesh/prov/src/prov_bearer_adv.c.obj
 .debug_ranges  0x00003020       0x20 examples/light_switch/client/CMakeFiles/light_switch_client_nrf52840_xxAA_s140_5.0.0-3.alpha.dir/__/__/__/external/nRF5_SDK_14.2.0_17b948a/components/toolchain/system_nrf52840.c.obj
 .debug_ranges  0x00003040       0x20 mesh/core/libmesh_core_nrf52840_xxAA.a(nrf_mesh_configure.c.obj)
 .debug_ranges  0x00003060       0x68 mesh/core/libmesh_core_nrf52840_xxAA.a(event.c.obj)
 .debug_ranges  0x000030c8      0x160 mesh/core/libmesh_core_nrf52840_xxAA.a(packet_mgr.c.obj)
 .debug_ranges  0x00003228      0x248 mesh/core/libmesh_core_nrf52840_xxAA.a(net_state.c.obj)
 .debug_ranges  0x00003470       0x38 mesh/core/libmesh_core_nrf52840_xxAA.a(nrf_mesh_utils.c.obj)
 .debug_ranges  0x000034a8       0xf0 mesh/core/libmesh_core_nrf52840_xxAA.a(nrf_mesh.c.obj)
 .debug_ranges  0x00003598       0x20 mesh/core/libmesh_core_nrf52840_xxAA.a(hal.c.obj)
 .debug_ranges  0x000035b8      0x260 mesh/core/libmesh_core_nrf52840_xxAA.a(timer_scheduler.c.obj)
 .debug_ranges  0x00003818      0x108 mesh/core/libmesh_core_nrf52840_xxAA.a(timer.c.obj)
 .debug_ranges  0x00003920       0x20 mesh/core/libmesh_core_nrf52840_xxAA.a(ticker.c.obj)
 .debug_ranges  0x00003940       0x48 mesh/core/libmesh_core_nrf52840_xxAA.a(rand.c.obj)
 .debug_ranges  0x00003988      0x188 mesh/core/libmesh_core_nrf52840_xxAA.a(timeslot.c.obj)
 .debug_ranges  0x00003b10      0x250 mesh/core/libmesh_core_nrf52840_xxAA.a(bearer_event.c.obj)
 .debug_ranges  0x00003d60      0x120 mesh/core/libmesh_core_nrf52840_xxAA.a(enc.c.obj)
 .debug_ranges  0x00003e80      0x518 mesh/core/libmesh_core_nrf52840_xxAA.a(network.c.obj)
 .debug_ranges  0x00004398       0x30 mesh/core/libmesh_core_nrf52840_xxAA.a(nrf_mesh_keygen.c.obj)
 .debug_ranges  0x000043c8      0x1b0 mesh/core/libmesh_core_nrf52840_xxAA.a(list.c.obj)
 .debug_ranges  0x00004578       0x38 mesh/core/libmesh_core_nrf52840_xxAA.a(log.c.obj)
 .debug_ranges  0x000045b0      0x748 mesh/core/libmesh_core_nrf52840_xxAA.a(flash_manager.c.obj)
 .debug_ranges  0x00004cf8       0x40 mesh/core/libmesh_core_nrf52840_xxAA.a(ccm_soft.c.obj)
 .debug_ranges  0x00004d38       0xd0 mesh/core/libmesh_core_nrf52840_xxAA.a(beacon.c.obj)
 .debug_ranges  0x00004e08       0x68 mesh/core/libmesh_core_nrf52840_xxAA.a(flash_manager_internal.c.obj)
 .debug_ranges  0x00004e70      0x270 mesh/core/libmesh_core_nrf52840_xxAA.a(core_tx.c.obj)
 .debug_ranges  0x000050e0      0x240 mesh/core/libmesh_core_nrf52840_xxAA.a(heartbeat.c.obj)
 .debug_ranges  0x00005320       0xf0 mesh/core/libmesh_core_nrf52840_xxAA.a(net_beacon.c.obj)
 .debug_ranges  0x00005410       0xe8 mesh/core/libmesh_core_nrf52840_xxAA.a(core_tx_adv.c.obj)
 .debug_ranges  0x000054f8       0xf8 mesh/core/libmesh_core_nrf52840_xxAA.a(ad_listener.c.obj)
 .debug_ranges  0x000055f0       0xe8 mesh/core/libmesh_core_nrf52840_xxAA.a(ad_type_filter.c.obj)
 .debug_ranges  0x000056d8      0x4a8 mesh/core/libmesh_core_nrf52840_xxAA.a(advertiser.c.obj)
 .debug_ranges  0x00005b80      0x290 mesh/core/libmesh_core_nrf52840_xxAA.a(bearer_handler.c.obj)
 .debug_ranges  0x00005e10      0x130 mesh/core/libmesh_core_nrf52840_xxAA.a(broadcast.c.obj)
 .debug_ranges  0x00005f40       0x90 mesh/core/libmesh_core_nrf52840_xxAA.a(filter_engine.c.obj)
 .debug_ranges  0x00005fd0      0x100 mesh/core/libmesh_core_nrf52840_xxAA.a(radio_config.c.obj)
 .debug_ranges  0x000060d0      0x2c0 mesh/core/libmesh_core_nrf52840_xxAA.a(scanner.c.obj)
 .debug_ranges  0x00006390       0x20 mesh/core/libmesh_core_nrf52840_xxAA.a(internal_event.c.obj)
 .debug_ranges  0x000063b0       0x18 mesh/core/libmesh_core_nrf52840_xxAA.a(aes.c.obj)
 .debug_ranges  0x000063c8       0x48 mesh/core/libmesh_core_nrf52840_xxAA.a(msg_cache.c.obj)
 .debug_ranges  0x00006410      0x918 mesh/core/libmesh_core_nrf52840_xxAA.a(transport.c.obj)
 .debug_ranges  0x00006d28      0x3b8 mesh/core/libmesh_core_nrf52840_xxAA.a(packet_buffer.c.obj)
 .debug_ranges  0x000070e0      0x368 mesh/core/libmesh_core_nrf52840_xxAA.a(flash_manager_defrag.c.obj)
 .debug_ranges  0x00007448       0xb0 mesh/core/libmesh_core_nrf52840_xxAA.a(fifo.c.obj)
 .debug_ranges  0x000074f8      0x368 mesh/core/libmesh_core_nrf52840_xxAA.a(mesh_flash.c.obj)
 .debug_ranges  0x00007860       0xa0 mesh/core/libmesh_core_nrf52840_xxAA.a(queue.c.obj)
 .debug_ranges  0x00007900       0x98 mesh/core/libmesh_core_nrf52840_xxAA.a(aes_cmac.c.obj)
 .debug_ranges  0x00007998       0x18 mesh/core/libmesh_core_nrf52840_xxAA.a(nrf_mesh_opt.c.obj)
 .debug_ranges  0x000079b0      0x158 mesh/core/libmesh_core_nrf52840_xxAA.a(msqueue.c.obj)
 .debug_ranges  0x00007b08       0x68 mesh/core/libmesh_core_nrf52840_xxAA.a(replay_cache.c.obj)
 .debug_ranges  0x00007b70       0x38 mesh/core/libmesh_core_nrf52840_xxAA.a(nrf_flash.c.obj)
 .debug_ranges  0x00007ba8      0x130 external/rtt/librtt_nrf52840_xxAA.a(SEGGER_RTT.c.obj)
 .debug_ranges  0x00007cd8       0x48 external/rtt/librtt_nrf52840_xxAA.a(SEGGER_RTT_printf.c.obj)
 .debug_ranges  0x00007d20      0x2e8 external/micro-ecc/libuECC_nrf52840_xxAA.a(uECC.c.obj)

.debug_line     0x00000000    0x17945
 .debug_line    0x00000000      0xa37 examples/light_switch/client/CMakeFiles/light_switch_client_nrf52840_xxAA_s140_5.0.0-3.alpha.dir/src/main.c.obj
 .debug_line    0x00000a37      0xbd3 examples/light_switch/client/CMakeFiles/light_switch_client_nrf52840_xxAA_s140_5.0.0-3.alpha.dir/src/provisioner.c.obj
 .debug_line    0x0000160a      0x788 examples/light_switch/client/CMakeFiles/light_switch_client_nrf52840_xxAA_s140_5.0.0-3.alpha.dir/__/__/nrf_mesh_sdk.c.obj
 .debug_line    0x00001d92      0x2e4 examples/light_switch/client/CMakeFiles/light_switch_client_nrf52840_xxAA_s140_5.0.0-3.alpha.dir/__/__/common/src/rtt_input.c.obj
 .debug_line    0x00002076      0x421 examples/light_switch/client/CMakeFiles/light_switch_client_nrf52840_xxAA_s140_5.0.0-3.alpha.dir/__/__/common/src/simple_hal.c.obj
 .debug_line    0x00002497      0x228 examples/light_switch/client/CMakeFiles/light_switch_client_nrf52840_xxAA_s140_5.0.0-3.alpha.dir/__/__/nrf_mesh_weak.c.obj
 .debug_line    0x000026bf      0x3ef examples/light_switch/client/CMakeFiles/light_switch_client_nrf52840_xxAA_s140_5.0.0-3.alpha.dir/__/__/__/models/simple_on_off/src/simple_on_off_client.c.obj
 .debug_line    0x00002aae      0xa99 examples/light_switch/client/CMakeFiles/light_switch_client_nrf52840_xxAA_s140_5.0.0-3.alpha.dir/__/__/__/models/config/src/config_client.c.obj
 .debug_line    0x00003547      0x4a6 examples/light_switch/client/CMakeFiles/light_switch_client_nrf52840_xxAA_s140_5.0.0-3.alpha.dir/__/__/__/models/health/src/health_client.c.obj
 .debug_line    0x000039ed      0x44c examples/light_switch/client/CMakeFiles/light_switch_client_nrf52840_xxAA_s140_5.0.0-3.alpha.dir/__/__/__/mesh/access/src/access_publish.c.obj
 .debug_line    0x00003e39      0xec3 examples/light_switch/client/CMakeFiles/light_switch_client_nrf52840_xxAA_s140_5.0.0-3.alpha.dir/__/__/__/mesh/access/src/access.c.obj
 .debug_line    0x00004cfc      0x510 examples/light_switch/client/CMakeFiles/light_switch_client_nrf52840_xxAA_s140_5.0.0-3.alpha.dir/__/__/__/mesh/access/src/access_reliable.c.obj
 .debug_line    0x0000520c     0x1440 examples/light_switch/client/CMakeFiles/light_switch_client_nrf52840_xxAA_s140_5.0.0-3.alpha.dir/__/__/__/mesh/access/src/device_state_manager.c.obj
 .debug_line    0x0000664c      0x589 examples/light_switch/client/CMakeFiles/light_switch_client_nrf52840_xxAA_s140_5.0.0-3.alpha.dir/__/__/__/mesh/prov/src/prov_provisioner.c.obj
 .debug_line    0x00006bd5      0x4f9 examples/light_switch/client/CMakeFiles/light_switch_client_nrf52840_xxAA_s140_5.0.0-3.alpha.dir/__/__/__/mesh/prov/src/nrf_mesh_prov.c.obj
 .debug_line    0x000070ce      0x3e1 examples/light_switch/client/CMakeFiles/light_switch_client_nrf52840_xxAA_s140_5.0.0-3.alpha.dir/__/__/__/mesh/prov/src/provisioning.c.obj
 .debug_line    0x000074af      0x4a3 examples/light_switch/client/CMakeFiles/light_switch_client_nrf52840_xxAA_s140_5.0.0-3.alpha.dir/__/__/__/mesh/prov/src/prov_beacon.c.obj
 .debug_line    0x00007952      0x4b8 examples/light_switch/client/CMakeFiles/light_switch_client_nrf52840_xxAA_s140_5.0.0-3.alpha.dir/__/__/__/mesh/prov/src/prov_utils.c.obj
 .debug_line    0x00007e0a      0xc3d examples/light_switch/client/CMakeFiles/light_switch_client_nrf52840_xxAA_s140_5.0.0-3.alpha.dir/__/__/__/mesh/prov/src/prov_bearer_adv.c.obj
 .debug_line    0x00008a47      0x247 examples/light_switch/client/CMakeFiles/light_switch_client_nrf52840_xxAA_s140_5.0.0-3.alpha.dir/__/__/__/external/nRF5_SDK_14.2.0_17b948a/components/toolchain/system_nrf52840.c.obj
 .debug_line    0x00008c8e      0x269 mesh/core/libmesh_core_nrf52840_xxAA.a(nrf_mesh_configure.c.obj)
 .debug_line    0x00008ef7      0x321 mesh/core/libmesh_core_nrf52840_xxAA.a(event.c.obj)
 .debug_line    0x00009218      0x45b mesh/core/libmesh_core_nrf52840_xxAA.a(packet_mgr.c.obj)
 .debug_line    0x00009673      0x6be mesh/core/libmesh_core_nrf52840_xxAA.a(net_state.c.obj)
 .debug_line    0x00009d31      0x265 mesh/core/libmesh_core_nrf52840_xxAA.a(nrf_mesh_utils.c.obj)
 .debug_line    0x00009f96      0x7b1 mesh/core/libmesh_core_nrf52840_xxAA.a(nrf_mesh.c.obj)
 .debug_line    0x0000a747      0x253 mesh/core/libmesh_core_nrf52840_xxAA.a(hal.c.obj)
 .debug_line    0x0000a99a      0x4a6 mesh/core/libmesh_core_nrf52840_xxAA.a(timer_scheduler.c.obj)
 .debug_line    0x0000ae40      0x41b mesh/core/libmesh_core_nrf52840_xxAA.a(timer.c.obj)
 .debug_line    0x0000b25b      0x122 mesh/core/libmesh_core_nrf52840_xxAA.a(ticker.c.obj)
 .debug_line    0x0000b37d      0x2a3 mesh/core/libmesh_core_nrf52840_xxAA.a(rand.c.obj)
 .debug_line    0x0000b620      0x5cf mesh/core/libmesh_core_nrf52840_xxAA.a(timeslot.c.obj)
 .debug_line    0x0000bbef      0x60e mesh/core/libmesh_core_nrf52840_xxAA.a(bearer_event.c.obj)
 .debug_line    0x0000c1fd      0x45d mesh/core/libmesh_core_nrf52840_xxAA.a(enc.c.obj)
 .debug_line    0x0000c65a      0x84f mesh/core/libmesh_core_nrf52840_xxAA.a(network.c.obj)
 .debug_line    0x0000cea9      0x239 mesh/core/libmesh_core_nrf52840_xxAA.a(nrf_mesh_keygen.c.obj)
 .debug_line    0x0000d0e2      0x376 mesh/core/libmesh_core_nrf52840_xxAA.a(list.c.obj)
 .debug_line    0x0000d458      0x287 mesh/core/libmesh_core_nrf52840_xxAA.a(log.c.obj)
 .debug_line    0x0000d6df      0xaa0 mesh/core/libmesh_core_nrf52840_xxAA.a(flash_manager.c.obj)
 .debug_line    0x0000e17f      0x34e mesh/core/libmesh_core_nrf52840_xxAA.a(ccm_soft.c.obj)
 .debug_line    0x0000e4cd      0x546 mesh/core/libmesh_core_nrf52840_xxAA.a(beacon.c.obj)
 .debug_line    0x0000ea13      0x29c mesh/core/libmesh_core_nrf52840_xxAA.a(flash_manager_internal.c.obj)
 .debug_line    0x0000ecaf      0x474 mesh/core/libmesh_core_nrf52840_xxAA.a(core_tx.c.obj)
 .debug_line    0x0000f123      0x632 mesh/core/libmesh_core_nrf52840_xxAA.a(heartbeat.c.obj)
 .debug_line    0x0000f755      0x441 mesh/core/libmesh_core_nrf52840_xxAA.a(net_beacon.c.obj)
 .debug_line    0x0000fb96      0x49f mesh/core/libmesh_core_nrf52840_xxAA.a(core_tx_adv.c.obj)
 .debug_line    0x00010035      0x368 mesh/core/libmesh_core_nrf52840_xxAA.a(ad_listener.c.obj)
 .debug_line    0x0001039d      0x419 mesh/core/libmesh_core_nrf52840_xxAA.a(ad_type_filter.c.obj)
 .debug_line    0x000107b6      0x835 mesh/core/libmesh_core_nrf52840_xxAA.a(advertiser.c.obj)
 .debug_line    0x00010feb      0x5c7 mesh/core/libmesh_core_nrf52840_xxAA.a(bearer_handler.c.obj)
 .debug_line    0x000115b2      0x3ce mesh/core/libmesh_core_nrf52840_xxAA.a(broadcast.c.obj)
 .debug_line    0x00011980      0x36c mesh/core/libmesh_core_nrf52840_xxAA.a(filter_engine.c.obj)
 .debug_line    0x00011cec      0x326 mesh/core/libmesh_core_nrf52840_xxAA.a(radio_config.c.obj)
 .debug_line    0x00012012      0x76a mesh/core/libmesh_core_nrf52840_xxAA.a(scanner.c.obj)
 .debug_line    0x0001277c      0x2a5 mesh/core/libmesh_core_nrf52840_xxAA.a(internal_event.c.obj)
 .debug_line    0x00012a21      0x26a mesh/core/libmesh_core_nrf52840_xxAA.a(aes.c.obj)
 .debug_line    0x00012c8b      0x29b mesh/core/libmesh_core_nrf52840_xxAA.a(msg_cache.c.obj)
 .debug_line    0x00012f26     0x1042 mesh/core/libmesh_core_nrf52840_xxAA.a(transport.c.obj)
 .debug_line    0x00013f68      0x6f3 mesh/core/libmesh_core_nrf52840_xxAA.a(packet_buffer.c.obj)
 .debug_line    0x0001465b      0x7ed mesh/core/libmesh_core_nrf52840_xxAA.a(flash_manager_defrag.c.obj)
 .debug_line    0x00014e48      0x3a9 mesh/core/libmesh_core_nrf52840_xxAA.a(fifo.c.obj)
 .debug_line    0x000151f1      0x5ac mesh/core/libmesh_core_nrf52840_xxAA.a(mesh_flash.c.obj)
 .debug_line    0x0001579d      0x2d5 mesh/core/libmesh_core_nrf52840_xxAA.a(queue.c.obj)
 .debug_line    0x00015a72      0x2d7 mesh/core/libmesh_core_nrf52840_xxAA.a(aes_cmac.c.obj)
 .debug_line    0x00015d49      0x294 mesh/core/libmesh_core_nrf52840_xxAA.a(nrf_mesh_opt.c.obj)
 .debug_line    0x00015fdd      0x38b mesh/core/libmesh_core_nrf52840_xxAA.a(msqueue.c.obj)
 .debug_line    0x00016368      0x1f1 mesh/core/libmesh_core_nrf52840_xxAA.a(replay_cache.c.obj)
 .debug_line    0x00016559      0x2af mesh/core/libmesh_core_nrf52840_xxAA.a(nrf_flash.c.obj)
 .debug_line    0x00016808      0x4c0 external/rtt/librtt_nrf52840_xxAA.a(SEGGER_RTT.c.obj)
 .debug_line    0x00016cc8      0x282 external/rtt/librtt_nrf52840_xxAA.a(SEGGER_RTT_printf.c.obj)
 .debug_line    0x00016f4a      0x9fb external/micro-ecc/libuECC_nrf52840_xxAA.a(uECC.c.obj)

.debug_str      0x00000000    0x12c42
 .debug_str     0x00000000     0x251d examples/light_switch/client/CMakeFiles/light_switch_client_nrf52840_xxAA_s140_5.0.0-3.alpha.dir/src/main.c.obj
                               0x285a (size before relaxing)
 .debug_str     0x0000251d     0x1e59 examples/light_switch/client/CMakeFiles/light_switch_client_nrf52840_xxAA_s140_5.0.0-3.alpha.dir/src/provisioner.c.obj
                               0x3bd4 (size before relaxing)
 .debug_str     0x00004376     0x14ac examples/light_switch/client/CMakeFiles/light_switch_client_nrf52840_xxAA_s140_5.0.0-3.alpha.dir/__/__/nrf_mesh_sdk.c.obj
                               0x2183 (size before relaxing)
 .debug_str     0x00005822      0x183 examples/light_switch/client/CMakeFiles/light_switch_client_nrf52840_xxAA_s140_5.0.0-3.alpha.dir/__/__/common/src/rtt_input.c.obj
                                0xbae (size before relaxing)
 .debug_str     0x000059a5      0x17e examples/light_switch/client/CMakeFiles/light_switch_client_nrf52840_xxAA_s140_5.0.0-3.alpha.dir/__/__/common/src/simple_hal.c.obj
                                0xc86 (size before relaxing)
 .debug_str     0x00005b23       0x3c examples/light_switch/client/CMakeFiles/light_switch_client_nrf52840_xxAA_s140_5.0.0-3.alpha.dir/__/__/nrf_mesh_weak.c.obj
                                0x64d (size before relaxing)
 .debug_str     0x00005b5f      0x36c examples/light_switch/client/CMakeFiles/light_switch_client_nrf52840_xxAA_s140_5.0.0-3.alpha.dir/__/__/__/models/simple_on_off/src/simple_on_off_client.c.obj
                                0xd1e (size before relaxing)
 .debug_str     0x00005ecb      0xbb6 examples/light_switch/client/CMakeFiles/light_switch_client_nrf52840_xxAA_s140_5.0.0-3.alpha.dir/__/__/__/models/config/src/config_client.c.obj
                               0x2856 (size before relaxing)
 .debug_str     0x00006a81      0x411 examples/light_switch/client/CMakeFiles/light_switch_client_nrf52840_xxAA_s140_5.0.0-3.alpha.dir/__/__/__/models/health/src/health_client.c.obj
                               0x10d8 (size before relaxing)
 .debug_str     0x00006e92      0x328 examples/light_switch/client/CMakeFiles/light_switch_client_nrf52840_xxAA_s140_5.0.0-3.alpha.dir/__/__/__/mesh/access/src/access_publish.c.obj
                                0xbe6 (size before relaxing)
 .debug_str     0x000071ba     0x1960 examples/light_switch/client/CMakeFiles/light_switch_client_nrf52840_xxAA_s140_5.0.0-3.alpha.dir/__/__/__/mesh/access/src/access.c.obj
                               0x2b46 (size before relaxing)
 .debug_str     0x00008b1a      0x13c examples/light_switch/client/CMakeFiles/light_switch_client_nrf52840_xxAA_s140_5.0.0-3.alpha.dir/__/__/__/mesh/access/src/access_reliable.c.obj
                                0xcb4 (size before relaxing)
 .debug_str     0x00008c56     0x1121 examples/light_switch/client/CMakeFiles/light_switch_client_nrf52840_xxAA_s140_5.0.0-3.alpha.dir/__/__/__/mesh/access/src/device_state_manager.c.obj
                               0x2e6b (size before relaxing)
 .debug_str     0x00009d77      0x552 examples/light_switch/client/CMakeFiles/light_switch_client_nrf52840_xxAA_s140_5.0.0-3.alpha.dir/__/__/__/mesh/prov/src/prov_provisioner.c.obj
                               0x1eb9 (size before relaxing)
 .debug_str     0x0000a2c9      0x1d0 examples/light_switch/client/CMakeFiles/light_switch_client_nrf52840_xxAA_s140_5.0.0-3.alpha.dir/__/__/__/mesh/prov/src/nrf_mesh_prov.c.obj
                               0x1c8f (size before relaxing)
 .debug_str     0x0000a499      0x10f examples/light_switch/client/CMakeFiles/light_switch_client_nrf52840_xxAA_s140_5.0.0-3.alpha.dir/__/__/__/mesh/prov/src/provisioning.c.obj
                                0xf45 (size before relaxing)
 .debug_str     0x0000a5a8      0x113 examples/light_switch/client/CMakeFiles/light_switch_client_nrf52840_xxAA_s140_5.0.0-3.alpha.dir/__/__/__/mesh/prov/src/prov_beacon.c.obj
                               0x18cc (size before relaxing)
 .debug_str     0x0000a6bb      0x429 examples/light_switch/client/CMakeFiles/light_switch_client_nrf52840_xxAA_s140_5.0.0-3.alpha.dir/__/__/__/mesh/prov/src/prov_utils.c.obj
                               0x1e53 (size before relaxing)
 .debug_str     0x0000aae4      0x556 examples/light_switch/client/CMakeFiles/light_switch_client_nrf52840_xxAA_s140_5.0.0-3.alpha.dir/__/__/__/mesh/prov/src/prov_bearer_adv.c.obj
                               0x1b5a (size before relaxing)
 .debug_str     0x0000b03a      0x5c0 examples/light_switch/client/CMakeFiles/light_switch_client_nrf52840_xxAA_s140_5.0.0-3.alpha.dir/__/__/__/external/nRF5_SDK_14.2.0_17b948a/components/toolchain/system_nrf52840.c.obj
                                0x8b6 (size before relaxing)
 .debug_str     0x0000b5fa       0x75 mesh/core/libmesh_core_nrf52840_xxAA.a(nrf_mesh_configure.c.obj)
                                0x77e (size before relaxing)
 .debug_str     0x0000b66f       0x82 mesh/core/libmesh_core_nrf52840_xxAA.a(event.c.obj)
                               0x14d3 (size before relaxing)
 .debug_str     0x0000b6f1      0x25b mesh/core/libmesh_core_nrf52840_xxAA.a(packet_mgr.c.obj)
                                0x9ca (size before relaxing)
 .debug_str     0x0000b94c      0x367 mesh/core/libmesh_core_nrf52840_xxAA.a(net_state.c.obj)
                               0x1e46 (size before relaxing)
 .debug_str     0x0000bcb3       0x8b mesh/core/libmesh_core_nrf52840_xxAA.a(nrf_mesh_utils.c.obj)
                                0x76b (size before relaxing)
 .debug_str     0x0000bd3e      0x5a4 mesh/core/libmesh_core_nrf52840_xxAA.a(nrf_mesh.c.obj)
                               0x2bc5 (size before relaxing)
 .debug_str     0x0000c2e2       0x7a mesh/core/libmesh_core_nrf52840_xxAA.a(hal.c.obj)
                                0x72f (size before relaxing)
 .debug_str     0x0000c35c      0x14a mesh/core/libmesh_core_nrf52840_xxAA.a(timer_scheduler.c.obj)
                                0x94e (size before relaxing)
 .debug_str     0x0000c4a6      0x1e5 mesh/core/libmesh_core_nrf52840_xxAA.a(timer.c.obj)
                                0x8c8 (size before relaxing)
 .debug_str     0x0000c68b       0x3c mesh/core/libmesh_core_nrf52840_xxAA.a(ticker.c.obj)
                                0x34c (size before relaxing)
 .debug_str     0x0000c6c7       0xac mesh/core/libmesh_core_nrf52840_xxAA.a(rand.c.obj)
                                0x6db (size before relaxing)
 .debug_str     0x0000c773      0x8ba mesh/core/libmesh_core_nrf52840_xxAA.a(timeslot.c.obj)
                               0x1839 (size before relaxing)
 .debug_str     0x0000d02d      0x2f7 mesh/core/libmesh_core_nrf52840_xxAA.a(bearer_event.c.obj)
                                0xf18 (size before relaxing)
 .debug_str     0x0000d324      0x1c1 mesh/core/libmesh_core_nrf52840_xxAA.a(enc.c.obj)
                                0x9d4 (size before relaxing)
 .debug_str     0x0000d4e5      0x9bc mesh/core/libmesh_core_nrf52840_xxAA.a(network.c.obj)
                               0x19c2 (size before relaxing)
 .debug_str     0x0000dea1       0x4e mesh/core/libmesh_core_nrf52840_xxAA.a(nrf_mesh_keygen.c.obj)
                                0x397 (size before relaxing)
 .debug_str     0x0000deef       0x65 mesh/core/libmesh_core_nrf52840_xxAA.a(list.c.obj)
                                0x2d8 (size before relaxing)
 .debug_str     0x0000df54       0xf0 mesh/core/libmesh_core_nrf52840_xxAA.a(log.c.obj)
                                0x7d0 (size before relaxing)
 .debug_str     0x0000e044      0x8c1 mesh/core/libmesh_core_nrf52840_xxAA.a(flash_manager.c.obj)
                               0x19d1 (size before relaxing)
 .debug_str     0x0000e905       0x85 mesh/core/libmesh_core_nrf52840_xxAA.a(ccm_soft.c.obj)
                                0x75d (size before relaxing)
 .debug_str     0x0000e98a       0xb2 mesh/core/libmesh_core_nrf52840_xxAA.a(beacon.c.obj)
                               0x1133 (size before relaxing)
 .debug_str     0x0000ea3c       0x38 mesh/core/libmesh_core_nrf52840_xxAA.a(flash_manager_internal.c.obj)
                                0x7be (size before relaxing)
 .debug_str     0x0000ea74      0x142 mesh/core/libmesh_core_nrf52840_xxAA.a(core_tx.c.obj)
                                0x8bd (size before relaxing)
 .debug_str     0x0000ebb6      0x6f5 mesh/core/libmesh_core_nrf52840_xxAA.a(heartbeat.c.obj)
                               0x203b (size before relaxing)
 .debug_str     0x0000f2ab      0x1d1 mesh/core/libmesh_core_nrf52840_xxAA.a(net_beacon.c.obj)
                                0xe84 (size before relaxing)
 .debug_str     0x0000f47c      0x102 mesh/core/libmesh_core_nrf52840_xxAA.a(core_tx_adv.c.obj)
                               0x104b (size before relaxing)
 .debug_str     0x0000f57e      0x182 mesh/core/libmesh_core_nrf52840_xxAA.a(ad_listener.c.obj)
                                0xb7f (size before relaxing)
 .debug_str     0x0000f700      0x14f mesh/core/libmesh_core_nrf52840_xxAA.a(ad_type_filter.c.obj)
                                0x9b9 (size before relaxing)
 .debug_str     0x0000f84f      0x339 mesh/core/libmesh_core_nrf52840_xxAA.a(advertiser.c.obj)
                               0x150c (size before relaxing)
 .debug_str     0x0000fb88      0x475 mesh/core/libmesh_core_nrf52840_xxAA.a(bearer_handler.c.obj)
                               0x110a (size before relaxing)
 .debug_str     0x0000fffd      0x1ac mesh/core/libmesh_core_nrf52840_xxAA.a(broadcast.c.obj)
                               0x1068 (size before relaxing)
 .debug_str     0x000101a9       0x72 mesh/core/libmesh_core_nrf52840_xxAA.a(filter_engine.c.obj)
                                0x826 (size before relaxing)
 .debug_str     0x0001021b       0x79 mesh/core/libmesh_core_nrf52840_xxAA.a(radio_config.c.obj)
                                0x8b6 (size before relaxing)
 .debug_str     0x00010294      0x45d mesh/core/libmesh_core_nrf52840_xxAA.a(scanner.c.obj)
                               0x1a53 (size before relaxing)
 .debug_str     0x000106f1       0xc0 mesh/core/libmesh_core_nrf52840_xxAA.a(internal_event.c.obj)
                                0xa93 (size before relaxing)
 .debug_str     0x000107b1       0xc1 mesh/core/libmesh_core_nrf52840_xxAA.a(aes.c.obj)
                                0xa6d (size before relaxing)
 .debug_str     0x00010872       0x71 mesh/core/libmesh_core_nrf52840_xxAA.a(msg_cache.c.obj)
                                0x6ea (size before relaxing)
 .debug_str     0x000108e3      0xd41 mesh/core/libmesh_core_nrf52840_xxAA.a(transport.c.obj)
                               0x31e5 (size before relaxing)
 .debug_str     0x00011624      0x2cd mesh/core/libmesh_core_nrf52840_xxAA.a(packet_buffer.c.obj)
                                0xc2f (size before relaxing)
 .debug_str     0x000118f1      0x362 mesh/core/libmesh_core_nrf52840_xxAA.a(flash_manager_defrag.c.obj)
                               0x1545 (size before relaxing)
 .debug_str     0x00011c53       0x69 mesh/core/libmesh_core_nrf52840_xxAA.a(fifo.c.obj)
                                0x6f5 (size before relaxing)
 .debug_str     0x00011cbc      0x343 mesh/core/libmesh_core_nrf52840_xxAA.a(mesh_flash.c.obj)
                                0xcf6 (size before relaxing)
 .debug_str     0x00011fff       0x19 mesh/core/libmesh_core_nrf52840_xxAA.a(queue.c.obj)
                                0x69d (size before relaxing)
 .debug_str     0x00012018       0xb2 mesh/core/libmesh_core_nrf52840_xxAA.a(aes_cmac.c.obj)
                                0x715 (size before relaxing)
 .debug_str     0x000120ca       0x31 mesh/core/libmesh_core_nrf52840_xxAA.a(nrf_mesh_opt.c.obj)
                                0x921 (size before relaxing)
 .debug_str     0x000120fb       0x43 mesh/core/libmesh_core_nrf52840_xxAA.a(msqueue.c.obj)
                                0x6d9 (size before relaxing)
 .debug_str     0x0001213e       0x9f mesh/core/libmesh_core_nrf52840_xxAA.a(replay_cache.c.obj)
                                0x6b0 (size before relaxing)
 .debug_str     0x000121dd       0x36 mesh/core/libmesh_core_nrf52840_xxAA.a(nrf_flash.c.obj)
                                0x700 (size before relaxing)
 .debug_str     0x00012213      0x2bf external/rtt/librtt_nrf52840_xxAA.a(SEGGER_RTT.c.obj)
                                0x922 (size before relaxing)
 .debug_str     0x000124d2       0xdf external/rtt/librtt_nrf52840_xxAA.a(SEGGER_RTT_printf.c.obj)
                                0x792 (size before relaxing)
 .debug_str     0x000125b1      0x691 external/micro-ecc/libuECC_nrf52840_xxAA.a(uECC.c.obj)
                                0x880 (size before relaxing)

.debug_frame    0x00000000     0x673c
 .debug_frame   0x00000000      0x160 examples/light_switch/client/CMakeFiles/light_switch_client_nrf52840_xxAA_s140_5.0.0-3.alpha.dir/src/main.c.obj
 .debug_frame   0x00000160       0xc8 examples/light_switch/client/CMakeFiles/light_switch_client_nrf52840_xxAA_s140_5.0.0-3.alpha.dir/src/provisioner.c.obj
 .debug_frame   0x00000228      0x17c examples/light_switch/client/CMakeFiles/light_switch_client_nrf52840_xxAA_s140_5.0.0-3.alpha.dir/__/__/nrf_mesh_sdk.c.obj
 .debug_frame   0x000003a4       0x54 examples/light_switch/client/CMakeFiles/light_switch_client_nrf52840_xxAA_s140_5.0.0-3.alpha.dir/__/__/common/src/rtt_input.c.obj
 .debug_frame   0x000003f8       0x9c examples/light_switch/client/CMakeFiles/light_switch_client_nrf52840_xxAA_s140_5.0.0-3.alpha.dir/__/__/common/src/simple_hal.c.obj
 .debug_frame   0x00000494       0x30 examples/light_switch/client/CMakeFiles/light_switch_client_nrf52840_xxAA_s140_5.0.0-3.alpha.dir/__/__/nrf_mesh_weak.c.obj
 .debug_frame   0x000004c4       0xe4 examples/light_switch/client/CMakeFiles/light_switch_client_nrf52840_xxAA_s140_5.0.0-3.alpha.dir/__/__/__/models/simple_on_off/src/simple_on_off_client.c.obj
 .debug_frame   0x000005a8      0x5d8 examples/light_switch/client/CMakeFiles/light_switch_client_nrf52840_xxAA_s140_5.0.0-3.alpha.dir/__/__/__/models/config/src/config_client.c.obj
 .debug_frame   0x00000b80      0x1a8 examples/light_switch/client/CMakeFiles/light_switch_client_nrf52840_xxAA_s140_5.0.0-3.alpha.dir/__/__/__/models/health/src/health_client.c.obj
 .debug_frame   0x00000d28      0x114 examples/light_switch/client/CMakeFiles/light_switch_client_nrf52840_xxAA_s140_5.0.0-3.alpha.dir/__/__/__/mesh/access/src/access_publish.c.obj
 .debug_frame   0x00000e3c      0x554 examples/light_switch/client/CMakeFiles/light_switch_client_nrf52840_xxAA_s140_5.0.0-3.alpha.dir/__/__/__/mesh/access/src/access.c.obj
 .debug_frame   0x00001390      0x110 examples/light_switch/client/CMakeFiles/light_switch_client_nrf52840_xxAA_s140_5.0.0-3.alpha.dir/__/__/__/mesh/access/src/access_reliable.c.obj
 .debug_frame   0x000014a0      0xa88 examples/light_switch/client/CMakeFiles/light_switch_client_nrf52840_xxAA_s140_5.0.0-3.alpha.dir/__/__/__/mesh/access/src/device_state_manager.c.obj
 .debug_frame   0x00001f28      0x170 examples/light_switch/client/CMakeFiles/light_switch_client_nrf52840_xxAA_s140_5.0.0-3.alpha.dir/__/__/__/mesh/prov/src/prov_provisioner.c.obj
 .debug_frame   0x00002098      0x124 examples/light_switch/client/CMakeFiles/light_switch_client_nrf52840_xxAA_s140_5.0.0-3.alpha.dir/__/__/__/mesh/prov/src/nrf_mesh_prov.c.obj
 .debug_frame   0x000021bc      0x174 examples/light_switch/client/CMakeFiles/light_switch_client_nrf52840_xxAA_s140_5.0.0-3.alpha.dir/__/__/__/mesh/prov/src/provisioning.c.obj
 .debug_frame   0x00002330       0x84 examples/light_switch/client/CMakeFiles/light_switch_client_nrf52840_xxAA_s140_5.0.0-3.alpha.dir/__/__/__/mesh/prov/src/prov_beacon.c.obj
 .debug_frame   0x000023b4      0x150 examples/light_switch/client/CMakeFiles/light_switch_client_nrf52840_xxAA_s140_5.0.0-3.alpha.dir/__/__/__/mesh/prov/src/prov_utils.c.obj
 .debug_frame   0x00002504      0x328 examples/light_switch/client/CMakeFiles/light_switch_client_nrf52840_xxAA_s140_5.0.0-3.alpha.dir/__/__/__/mesh/prov/src/prov_bearer_adv.c.obj
 .debug_frame   0x0000282c       0x48 examples/light_switch/client/CMakeFiles/light_switch_client_nrf52840_xxAA_s140_5.0.0-3.alpha.dir/__/__/__/external/nRF5_SDK_14.2.0_17b948a/components/toolchain/system_nrf52840.c.obj
 .debug_frame   0x00002874       0x4c mesh/core/libmesh_core_nrf52840_xxAA.a(nrf_mesh_configure.c.obj)
 .debug_frame   0x000028c0       0x6c mesh/core/libmesh_core_nrf52840_xxAA.a(event.c.obj)
 .debug_frame   0x0000292c       0xa0 mesh/core/libmesh_core_nrf52840_xxAA.a(packet_mgr.c.obj)
 .debug_frame   0x000029cc      0x264 mesh/core/libmesh_core_nrf52840_xxAA.a(net_state.c.obj)
 .debug_frame   0x00002c30       0x50 mesh/core/libmesh_core_nrf52840_xxAA.a(nrf_mesh_utils.c.obj)
 .debug_frame   0x00002c80      0x15c mesh/core/libmesh_core_nrf52840_xxAA.a(nrf_mesh.c.obj)
 .debug_frame   0x00002ddc       0x48 mesh/core/libmesh_core_nrf52840_xxAA.a(hal.c.obj)
 .debug_frame   0x00002e24      0x13c mesh/core/libmesh_core_nrf52840_xxAA.a(timer_scheduler.c.obj)
 .debug_frame   0x00002f60      0x10c mesh/core/libmesh_core_nrf52840_xxAA.a(timer.c.obj)
 .debug_frame   0x0000306c       0x4c mesh/core/libmesh_core_nrf52840_xxAA.a(ticker.c.obj)
 .debug_frame   0x000030b8       0x84 mesh/core/libmesh_core_nrf52840_xxAA.a(rand.c.obj)
 .debug_frame   0x0000313c      0x1a0 mesh/core/libmesh_core_nrf52840_xxAA.a(timeslot.c.obj)
 .debug_frame   0x000032dc      0x1c8 mesh/core/libmesh_core_nrf52840_xxAA.a(bearer_event.c.obj)
 .debug_frame   0x000034a4      0x150 mesh/core/libmesh_core_nrf52840_xxAA.a(enc.c.obj)
 .debug_frame   0x000035f4      0x14c mesh/core/libmesh_core_nrf52840_xxAA.a(network.c.obj)
 .debug_frame   0x00003740       0xb4 mesh/core/libmesh_core_nrf52840_xxAA.a(nrf_mesh_keygen.c.obj)
 .debug_frame   0x000037f4       0xd4 mesh/core/libmesh_core_nrf52840_xxAA.a(list.c.obj)
 .debug_frame   0x000038c8       0xb0 mesh/core/libmesh_core_nrf52840_xxAA.a(log.c.obj)
 .debug_frame   0x00003978      0x33c mesh/core/libmesh_core_nrf52840_xxAA.a(flash_manager.c.obj)
 .debug_frame   0x00003cb4      0x10c mesh/core/libmesh_core_nrf52840_xxAA.a(ccm_soft.c.obj)
 .debug_frame   0x00003dc0       0x98 mesh/core/libmesh_core_nrf52840_xxAA.a(beacon.c.obj)
 .debug_frame   0x00003e58       0x34 mesh/core/libmesh_core_nrf52840_xxAA.a(flash_manager_internal.c.obj)
 .debug_frame   0x00003e8c       0xe8 mesh/core/libmesh_core_nrf52840_xxAA.a(core_tx.c.obj)
 .debug_frame   0x00003f74      0x164 mesh/core/libmesh_core_nrf52840_xxAA.a(heartbeat.c.obj)
 .debug_frame   0x000040d8       0xd0 mesh/core/libmesh_core_nrf52840_xxAA.a(net_beacon.c.obj)
 .debug_frame   0x000041a8      0x128 mesh/core/libmesh_core_nrf52840_xxAA.a(core_tx_adv.c.obj)
 .debug_frame   0x000042d0       0x6c mesh/core/libmesh_core_nrf52840_xxAA.a(ad_listener.c.obj)
 .debug_frame   0x0000433c       0xa8 mesh/core/libmesh_core_nrf52840_xxAA.a(ad_type_filter.c.obj)
 .debug_frame   0x000043e4      0x284 mesh/core/libmesh_core_nrf52840_xxAA.a(advertiser.c.obj)
 .debug_frame   0x00004668      0x160 mesh/core/libmesh_core_nrf52840_xxAA.a(bearer_handler.c.obj)
 .debug_frame   0x000047c8       0x70 mesh/core/libmesh_core_nrf52840_xxAA.a(broadcast.c.obj)
 .debug_frame   0x00004838       0x7c mesh/core/libmesh_core_nrf52840_xxAA.a(filter_engine.c.obj)
 .debug_frame   0x000048b4       0x90 mesh/core/libmesh_core_nrf52840_xxAA.a(radio_config.c.obj)
 .debug_frame   0x00004944      0x2a4 mesh/core/libmesh_core_nrf52840_xxAA.a(scanner.c.obj)
 .debug_frame   0x00004be8       0x48 mesh/core/libmesh_core_nrf52840_xxAA.a(internal_event.c.obj)
 .debug_frame   0x00004c30       0x40 mesh/core/libmesh_core_nrf52840_xxAA.a(aes.c.obj)
 .debug_frame   0x00004c70       0x6c mesh/core/libmesh_core_nrf52840_xxAA.a(msg_cache.c.obj)
 .debug_frame   0x00004cdc      0x44c mesh/core/libmesh_core_nrf52840_xxAA.a(transport.c.obj)
 .debug_frame   0x00005128      0x184 mesh/core/libmesh_core_nrf52840_xxAA.a(packet_buffer.c.obj)
 .debug_frame   0x000052ac      0x250 mesh/core/libmesh_core_nrf52840_xxAA.a(flash_manager_defrag.c.obj)
 .debug_frame   0x000054fc       0xd0 mesh/core/libmesh_core_nrf52840_xxAA.a(fifo.c.obj)
 .debug_frame   0x000055cc      0x150 mesh/core/libmesh_core_nrf52840_xxAA.a(mesh_flash.c.obj)
 .debug_frame   0x0000571c       0x74 mesh/core/libmesh_core_nrf52840_xxAA.a(queue.c.obj)
 .debug_frame   0x00005790       0xa4 mesh/core/libmesh_core_nrf52840_xxAA.a(aes_cmac.c.obj)
 .debug_frame   0x00005834       0x30 mesh/core/libmesh_core_nrf52840_xxAA.a(nrf_mesh_opt.c.obj)
 .debug_frame   0x00005864       0xb8 mesh/core/libmesh_core_nrf52840_xxAA.a(msqueue.c.obj)
 .debug_frame   0x0000591c       0xa0 mesh/core/libmesh_core_nrf52840_xxAA.a(replay_cache.c.obj)
 .debug_frame   0x000059bc       0x54 mesh/core/libmesh_core_nrf52840_xxAA.a(nrf_flash.c.obj)
 .debug_frame   0x00005a10      0x2d8 external/rtt/librtt_nrf52840_xxAA.a(SEGGER_RTT.c.obj)
 .debug_frame   0x00005ce8       0xac external/rtt/librtt_nrf52840_xxAA.a(SEGGER_RTT_printf.c.obj)
 .debug_frame   0x00005d94      0x684 external/micro-ecc/libuECC_nrf52840_xxAA.a(uECC.c.obj)
 .debug_frame   0x00006418       0x2c c:/a/gcc_arm/6/bin/../lib/gcc/arm-none-eabi/6.3.1/thumb/v7e-m/fpv4-sp/hard\libgcc.a(_aeabi_uldivmod.o)
 .debug_frame   0x00006444       0x34 c:/a/gcc_arm/6/bin/../lib/gcc/arm-none-eabi/6.3.1/thumb/v7e-m/fpv4-sp/hard\libgcc.a(_udivmoddi4.o)
 .debug_frame   0x00006478       0x28 c:/a/gcc_arm/6/bin/../lib/gcc/arm-none-eabi/6.3.1/../../../../arm-none-eabi/lib/thumb/v7e-m/fpv4-sp/hard\libg_nano.a(lib_a-exit.o)
 .debug_frame   0x000064a0       0x2c c:/a/gcc_arm/6/bin/../lib/gcc/arm-none-eabi/6.3.1/../../../../arm-none-eabi/lib/thumb/v7e-m/fpv4-sp/hard\libg_nano.a(lib_a-init.o)
 .debug_frame   0x000064cc       0x30 c:/a/gcc_arm/6/bin/../lib/gcc/arm-none-eabi/6.3.1/../../../../arm-none-eabi/lib/thumb/v7e-m/fpv4-sp/hard\libg_nano.a(lib_a-malloc.o)
 .debug_frame   0x000064fc       0x28 c:/a/gcc_arm/6/bin/../lib/gcc/arm-none-eabi/6.3.1/../../../../arm-none-eabi/lib/thumb/v7e-m/fpv4-sp/hard\libg_nano.a(lib_a-memcmp.o)
 .debug_frame   0x00006524       0x28 c:/a/gcc_arm/6/bin/../lib/gcc/arm-none-eabi/6.3.1/../../../../arm-none-eabi/lib/thumb/v7e-m/fpv4-sp/hard\libg_nano.a(lib_a-memcpy-stub.o)
 .debug_frame   0x0000654c       0x20 c:/a/gcc_arm/6/bin/../lib/gcc/arm-none-eabi/6.3.1/../../../../arm-none-eabi/lib/thumb/v7e-m/fpv4-sp/hard\libg_nano.a(lib_a-memset.o)
 .debug_frame   0x0000656c       0x38 c:/a/gcc_arm/6/bin/../lib/gcc/arm-none-eabi/6.3.1/../../../../arm-none-eabi/lib/thumb/v7e-m/fpv4-sp/hard\libg_nano.a(lib_a-nano-freer.o)
 .debug_frame   0x000065a4       0x2c c:/a/gcc_arm/6/bin/../lib/gcc/arm-none-eabi/6.3.1/../../../../arm-none-eabi/lib/thumb/v7e-m/fpv4-sp/hard\libg_nano.a(lib_a-nano-mallocr.o)
 .debug_frame   0x000065d0       0x2c c:/a/gcc_arm/6/bin/../lib/gcc/arm-none-eabi/6.3.1/../../../../arm-none-eabi/lib/thumb/v7e-m/fpv4-sp/hard\libg_nano.a(lib_a-sbrkr.o)
 .debug_frame   0x000065fc       0x20 c:/a/gcc_arm/6/bin/../lib/gcc/arm-none-eabi/6.3.1/../../../../arm-none-eabi/lib/thumb/v7e-m/fpv4-sp/hard\libg_nano.a(lib_a-strcpy.o)
 .debug_frame   0x0000661c       0x34 c:/a/gcc_arm/6/bin/../lib/gcc/arm-none-eabi/6.3.1/../../../../arm-none-eabi/lib/thumb/v7e-m/fpv4-sp/hard\libg_nano.a(lib_a-strrchr.o)
 .debug_frame   0x00006650       0x30 c:/a/gcc_arm/6/bin/../lib/gcc/arm-none-eabi/6.3.1/../../../../arm-none-eabi/lib/thumb/v7e-m/fpv4-sp/hard\libg_nano.a(lib_a-mlock.o)
 .debug_frame   0x00006680       0x5c c:/a/gcc_arm/6/bin/../lib/gcc/arm-none-eabi/6.3.1/../../../../arm-none-eabi/lib/thumb/v7e-m/fpv4-sp/hard\libg_nano.a(lib_a-reent.o)
 .debug_frame   0x000066dc       0x20 c:/a/gcc_arm/6/bin/../lib/gcc/arm-none-eabi/6.3.1/../../../../arm-none-eabi/lib/thumb/v7e-m/fpv4-sp/hard\libg_nano.a(lib_a-strchr.o)
 .debug_frame   0x000066fc       0x20 c:/a/gcc_arm/6/bin/../lib/gcc/arm-none-eabi/6.3.1/../../../../arm-none-eabi/lib/thumb/v7e-m/fpv4-sp/hard\libnosys.a(sbrk.o)
 .debug_frame   0x0000671c       0x20 c:/a/gcc_arm/6/bin/../lib/gcc/arm-none-eabi/6.3.1/../../../../arm-none-eabi/lib/thumb/v7e-m/fpv4-sp/hard\libnosys.a(_exit.o)
