Archive member included to satisfy reference by file (symbol)

external/rtt/librtt_nrf52832_xxAA.a(SEGGER_RTT.c.obj)
                              examples/light_switch/provisioner/CMakeFiles/light_switch_provisioner_nrf52832_xxAA_s132_6.0.0.dir/__/__/__/mesh/core/src/log.c.obj (SEGGER_RTT_Write)
external/rtt/librtt_nrf52832_xxAA.a(SEGGER_RTT_printf.c.obj)
                              examples/light_switch/provisioner/CMakeFiles/light_switch_provisioner_nrf52832_xxAA_s132_6.0.0.dir/__/__/__/mesh/core/src/log.c.obj (SEGGER_RTT_vprintf)
external/micro-ecc/libuECC_nrf52832_xxAA.a(uECC.c.obj)
                              examples/light_switch/provisioner/CMakeFiles/light_switch_provisioner_nrf52832_xxAA_s132_6.0.0.dir/__/__/__/mesh/prov/src/prov_utils.c.obj (uECC_secp256r1)
c:/mesh/arm_gcc/bin/../lib/gcc/arm-none-eabi/6.3.1/thumb/v7e-m/fpv4-sp/hard\libgcc.a(_aeabi_uldivmod.o)
                              examples/light_switch/provisioner/CMakeFiles/light_switch_provisioner_nrf52832_xxAA_s132_6.0.0.dir/__/__/common/src/rtt_input.c.obj (__aeabi_uldivmod)
c:/mesh/arm_gcc/bin/../lib/gcc/arm-none-eabi/6.3.1/thumb/v7e-m/fpv4-sp/hard\libgcc.a(_udivmoddi4.o)
                              c:/mesh/arm_gcc/bin/../lib/gcc/arm-none-eabi/6.3.1/thumb/v7e-m/fpv4-sp/hard\libgcc.a(_aeabi_uldivmod.o) (__udivmoddi4)
c:/mesh/arm_gcc/bin/../lib/gcc/arm-none-eabi/6.3.1/thumb/v7e-m/fpv4-sp/hard\libgcc.a(_dvmd_tls.o)
                              c:/mesh/arm_gcc/bin/../lib/gcc/arm-none-eabi/6.3.1/thumb/v7e-m/fpv4-sp/hard\libgcc.a(_aeabi_uldivmod.o) (__aeabi_ldiv0)
c:/mesh/arm_gcc/bin/../lib/gcc/arm-none-eabi/6.3.1/../../../../arm-none-eabi/lib/thumb/v7e-m/fpv4-sp/hard\libg_nano.a(lib_a-exit.o)
                              c:/mesh/arm_gcc/bin/../lib/gcc/arm-none-eabi/6.3.1/../../../../arm-none-eabi/lib/thumb/v7e-m/fpv4-sp/hard/crt0.o (exit)
c:/mesh/arm_gcc/bin/../lib/gcc/arm-none-eabi/6.3.1/../../../../arm-none-eabi/lib/thumb/v7e-m/fpv4-sp/hard\libg_nano.a(lib_a-impure.o)
                              c:/mesh/arm_gcc/bin/../lib/gcc/arm-none-eabi/6.3.1/../../../../arm-none-eabi/lib/thumb/v7e-m/fpv4-sp/hard\libg_nano.a(lib_a-exit.o) (_global_impure_ptr)
c:/mesh/arm_gcc/bin/../lib/gcc/arm-none-eabi/6.3.1/../../../../arm-none-eabi/lib/thumb/v7e-m/fpv4-sp/hard\libg_nano.a(lib_a-init.o)
                              c:/mesh/arm_gcc/bin/../lib/gcc/arm-none-eabi/6.3.1/../../../../arm-none-eabi/lib/thumb/v7e-m/fpv4-sp/hard/crt0.o (__libc_init_array)
c:/mesh/arm_gcc/bin/../lib/gcc/arm-none-eabi/6.3.1/../../../../arm-none-eabi/lib/thumb/v7e-m/fpv4-sp/hard\libg_nano.a(lib_a-malloc.o)
                              examples/light_switch/provisioner/CMakeFiles/light_switch_provisioner_nrf52832_xxAA_s132_6.0.0.dir/__/__/__/mesh/core/src/transport.c.obj (malloc)
c:/mesh/arm_gcc/bin/../lib/gcc/arm-none-eabi/6.3.1/../../../../arm-none-eabi/lib/thumb/v7e-m/fpv4-sp/hard\libg_nano.a(lib_a-memcmp.o)
                              examples/light_switch/provisioner/CMakeFiles/light_switch_provisioner_nrf52832_xxAA_s132_6.0.0.dir/src/provisioner_helper.c.obj (memcmp)
c:/mesh/arm_gcc/bin/../lib/gcc/arm-none-eabi/6.3.1/../../../../arm-none-eabi/lib/thumb/v7e-m/fpv4-sp/hard\libg_nano.a(lib_a-memcpy-stub.o)
                              examples/light_switch/provisioner/CMakeFiles/light_switch_provisioner_nrf52832_xxAA_s132_6.0.0.dir/src/main.c.obj (memcpy)
c:/mesh/arm_gcc/bin/../lib/gcc/arm-none-eabi/6.3.1/../../../../arm-none-eabi/lib/thumb/v7e-m/fpv4-sp/hard\libg_nano.a(lib_a-memset.o)
                              c:/mesh/arm_gcc/bin/../lib/gcc/arm-none-eabi/6.3.1/../../../../arm-none-eabi/lib/thumb/v7e-m/fpv4-sp/hard/crt0.o (memset)
c:/mesh/arm_gcc/bin/../lib/gcc/arm-none-eabi/6.3.1/../../../../arm-none-eabi/lib/thumb/v7e-m/fpv4-sp/hard\libg_nano.a(lib_a-nano-freer.o)
                              c:/mesh/arm_gcc/bin/../lib/gcc/arm-none-eabi/6.3.1/../../../../arm-none-eabi/lib/thumb/v7e-m/fpv4-sp/hard\libg_nano.a(lib_a-malloc.o) (_free_r)
c:/mesh/arm_gcc/bin/../lib/gcc/arm-none-eabi/6.3.1/../../../../arm-none-eabi/lib/thumb/v7e-m/fpv4-sp/hard\libg_nano.a(lib_a-nano-mallocr.o)
                              c:/mesh/arm_gcc/bin/../lib/gcc/arm-none-eabi/6.3.1/../../../../arm-none-eabi/lib/thumb/v7e-m/fpv4-sp/hard\libg_nano.a(lib_a-malloc.o) (_malloc_r)
c:/mesh/arm_gcc/bin/../lib/gcc/arm-none-eabi/6.3.1/../../../../arm-none-eabi/lib/thumb/v7e-m/fpv4-sp/hard\libg_nano.a(lib_a-sbrkr.o)
                              c:/mesh/arm_gcc/bin/../lib/gcc/arm-none-eabi/6.3.1/../../../../arm-none-eabi/lib/thumb/v7e-m/fpv4-sp/hard\libg_nano.a(lib_a-nano-mallocr.o) (_sbrk_r)
c:/mesh/arm_gcc/bin/../lib/gcc/arm-none-eabi/6.3.1/../../../../arm-none-eabi/lib/thumb/v7e-m/fpv4-sp/hard\libg_nano.a(lib_a-strcpy.o)
                              external/rtt/librtt_nrf52832_xxAA.a(SEGGER_RTT.c.obj) (strcpy)
c:/mesh/arm_gcc/bin/../lib/gcc/arm-none-eabi/6.3.1/../../../../arm-none-eabi/lib/thumb/v7e-m/fpv4-sp/hard\libg_nano.a(lib_a-strlen.o)
                              examples/light_switch/provisioner/CMakeFiles/light_switch_provisioner_nrf52832_xxAA_s132_6.0.0.dir/__/__/__/mesh/core/src/uri.c.obj (strlen)
c:/mesh/arm_gcc/bin/../lib/gcc/arm-none-eabi/6.3.1/../../../../arm-none-eabi/lib/thumb/v7e-m/fpv4-sp/hard\libg_nano.a(lib_a-strrchr.o)
                              examples/light_switch/provisioner/CMakeFiles/light_switch_provisioner_nrf52832_xxAA_s132_6.0.0.dir/src/main.c.obj (strrchr)
c:/mesh/arm_gcc/bin/../lib/gcc/arm-none-eabi/6.3.1/../../../../arm-none-eabi/lib/thumb/v7e-m/fpv4-sp/hard\libg_nano.a(lib_a-mlock.o)
                              c:/mesh/arm_gcc/bin/../lib/gcc/arm-none-eabi/6.3.1/../../../../arm-none-eabi/lib/thumb/v7e-m/fpv4-sp/hard\libg_nano.a(lib_a-nano-freer.o) (__malloc_lock)
c:/mesh/arm_gcc/bin/../lib/gcc/arm-none-eabi/6.3.1/../../../../arm-none-eabi/lib/thumb/v7e-m/fpv4-sp/hard\libg_nano.a(lib_a-reent.o)
                              c:/mesh/arm_gcc/bin/../lib/gcc/arm-none-eabi/6.3.1/../../../../arm-none-eabi/lib/thumb/v7e-m/fpv4-sp/hard\libg_nano.a(lib_a-sbrkr.o) (errno)
c:/mesh/arm_gcc/bin/../lib/gcc/arm-none-eabi/6.3.1/../../../../arm-none-eabi/lib/thumb/v7e-m/fpv4-sp/hard\libg_nano.a(lib_a-strchr.o)
                              c:/mesh/arm_gcc/bin/../lib/gcc/arm-none-eabi/6.3.1/../../../../arm-none-eabi/lib/thumb/v7e-m/fpv4-sp/hard\libg_nano.a(lib_a-strrchr.o) (strchr)
c:/mesh/arm_gcc/bin/../lib/gcc/arm-none-eabi/6.3.1/../../../../arm-none-eabi/lib/thumb/v7e-m/fpv4-sp/hard\libnosys.a(sbrk.o)
                              c:/mesh/arm_gcc/bin/../lib/gcc/arm-none-eabi/6.3.1/../../../../arm-none-eabi/lib/thumb/v7e-m/fpv4-sp/hard\libg_nano.a(lib_a-sbrkr.o) (_sbrk)
c:/mesh/arm_gcc/bin/../lib/gcc/arm-none-eabi/6.3.1/../../../../arm-none-eabi/lib/thumb/v7e-m/fpv4-sp/hard\libnosys.a(_exit.o)
                              c:/mesh/arm_gcc/bin/../lib/gcc/arm-none-eabi/6.3.1/../../../../arm-none-eabi/lib/thumb/v7e-m/fpv4-sp/hard\libg_nano.a(lib_a-exit.o) (_exit)

Allocating common symbols
Common symbol       size              file

nrf_nvic_state      0xc               examples/light_switch/provisioner/CMakeFiles/light_switch_provisioner_nrf52832_xxAA_s132_6.0.0.dir/__/__/common/src/mesh_softdevice_init.c.obj
m_packet            0x24              examples/light_switch/provisioner/CMakeFiles/light_switch_provisioner_nrf52832_xxAA_s132_6.0.0.dir/__/__/__/mesh/core/src/core_tx.c.obj
errno               0x4               c:/mesh/arm_gcc/bin/../lib/gcc/arm-none-eabi/6.3.1/../../../../arm-none-eabi/lib/thumb/v7e-m/fpv4-sp/hard\libg_nano.a(lib_a-reent.o)
_SEGGER_RTT         0x78              external/rtt/librtt_nrf52832_xxAA.a(SEGGER_RTT.c.obj)

Discarded input sections

 .text          0x00000000        0x0 c:/mesh/arm_gcc/bin/../lib/gcc/arm-none-eabi/6.3.1/thumb/v7e-m/fpv4-sp/hard/crti.o
 .data          0x00000000        0x0 c:/mesh/arm_gcc/bin/../lib/gcc/arm-none-eabi/6.3.1/thumb/v7e-m/fpv4-sp/hard/crti.o
 .bss           0x00000000        0x0 c:/mesh/arm_gcc/bin/../lib/gcc/arm-none-eabi/6.3.1/thumb/v7e-m/fpv4-sp/hard/crti.o
 .data          0x00000000        0x4 c:/mesh/arm_gcc/bin/../lib/gcc/arm-none-eabi/6.3.1/thumb/v7e-m/fpv4-sp/hard/crtbegin.o
 .data          0x00000000        0x0 c:/mesh/arm_gcc/bin/../lib/gcc/arm-none-eabi/6.3.1/../../../../arm-none-eabi/lib/thumb/v7e-m/fpv4-sp/hard/crt0.o
 .bss           0x00000000        0x0 c:/mesh/arm_gcc/bin/../lib/gcc/arm-none-eabi/6.3.1/../../../../arm-none-eabi/lib/thumb/v7e-m/fpv4-sp/hard/crt0.o
 .ARM.extab     0x00000000        0x0 c:/mesh/arm_gcc/bin/../lib/gcc/arm-none-eabi/6.3.1/../../../../arm-none-eabi/lib/thumb/v7e-m/fpv4-sp/hard/crt0.o
 .text          0x00000000        0x0 examples/light_switch/provisioner/CMakeFiles/light_switch_provisioner_nrf52832_xxAA_s132_6.0.0.dir/src/main.c.obj
 .data          0x00000000        0x0 examples/light_switch/provisioner/CMakeFiles/light_switch_provisioner_nrf52832_xxAA_s132_6.0.0.dir/src/main.c.obj
 .bss           0x00000000        0x0 examples/light_switch/provisioner/CMakeFiles/light_switch_provisioner_nrf52832_xxAA_s132_6.0.0.dir/src/main.c.obj
 .text          0x00000000        0x0 examples/light_switch/provisioner/CMakeFiles/light_switch_provisioner_nrf52832_xxAA_s132_6.0.0.dir/__/__/__/mesh/stack/src/mesh_stack.c.obj
 .data          0x00000000        0x0 examples/light_switch/provisioner/CMakeFiles/light_switch_provisioner_nrf52832_xxAA_s132_6.0.0.dir/__/__/__/mesh/stack/src/mesh_stack.c.obj
 .bss           0x00000000        0x0 examples/light_switch/provisioner/CMakeFiles/light_switch_provisioner_nrf52832_xxAA_s132_6.0.0.dir/__/__/__/mesh/stack/src/mesh_stack.c.obj
 .text.mesh_evt_handler
                0x00000000        0xe examples/light_switch/provisioner/CMakeFiles/light_switch_provisioner_nrf52832_xxAA_s132_6.0.0.dir/__/__/__/mesh/stack/src/mesh_stack.c.obj
 .text.mesh_stack_start
                0x00000000        0x4 examples/light_switch/provisioner/CMakeFiles/light_switch_provisioner_nrf52832_xxAA_s132_6.0.0.dir/__/__/__/mesh/stack/src/mesh_stack.c.obj
 .text.mesh_stack_provisioning_data_store
                0x00000000       0x6c examples/light_switch/provisioner/CMakeFiles/light_switch_provisioner_nrf52832_xxAA_s132_6.0.0.dir/__/__/__/mesh/stack/src/mesh_stack.c.obj
 .text.mesh_stack_device_reset
                0x00000000       0x20 examples/light_switch/provisioner/CMakeFiles/light_switch_provisioner_nrf52832_xxAA_s132_6.0.0.dir/__/__/__/mesh/stack/src/mesh_stack.c.obj
 .data.s_evt_handler.11055
                0x00000000        0x8 examples/light_switch/provisioner/CMakeFiles/light_switch_provisioner_nrf52832_xxAA_s132_6.0.0.dir/__/__/__/mesh/stack/src/mesh_stack.c.obj
 .text          0x00000000        0x0 examples/light_switch/provisioner/CMakeFiles/light_switch_provisioner_nrf52832_xxAA_s132_6.0.0.dir/src/provisioner_helper.c.obj
 .data          0x00000000        0x0 examples/light_switch/provisioner/CMakeFiles/light_switch_provisioner_nrf52832_xxAA_s132_6.0.0.dir/src/provisioner_helper.c.obj
 .bss           0x00000000        0x0 examples/light_switch/provisioner/CMakeFiles/light_switch_provisioner_nrf52832_xxAA_s132_6.0.0.dir/src/provisioner_helper.c.obj
 .text.prov_helper_element_count_get
                0x00000000        0xc examples/light_switch/provisioner/CMakeFiles/light_switch_provisioner_nrf52832_xxAA_s132_6.0.0.dir/src/provisioner_helper.c.obj
 .text          0x00000000        0x0 examples/light_switch/provisioner/CMakeFiles/light_switch_provisioner_nrf52832_xxAA_s132_6.0.0.dir/src/node_setup.c.obj
 .data          0x00000000        0x0 examples/light_switch/provisioner/CMakeFiles/light_switch_provisioner_nrf52832_xxAA_s132_6.0.0.dir/src/node_setup.c.obj
 .bss           0x00000000        0x0 examples/light_switch/provisioner/CMakeFiles/light_switch_provisioner_nrf52832_xxAA_s132_6.0.0.dir/src/node_setup.c.obj
 .text          0x00000000        0x0 examples/light_switch/provisioner/CMakeFiles/light_switch_provisioner_nrf52832_xxAA_s132_6.0.0.dir/__/__/common/src/mesh_softdevice_init.c.obj
 .data          0x00000000        0x0 examples/light_switch/provisioner/CMakeFiles/light_switch_provisioner_nrf52832_xxAA_s132_6.0.0.dir/__/__/common/src/mesh_softdevice_init.c.obj
 .bss           0x00000000        0x0 examples/light_switch/provisioner/CMakeFiles/light_switch_provisioner_nrf52832_xxAA_s132_6.0.0.dir/__/__/common/src/mesh_softdevice_init.c.obj
 .text          0x00000000        0x0 examples/light_switch/provisioner/CMakeFiles/light_switch_provisioner_nrf52832_xxAA_s132_6.0.0.dir/__/__/common/src/rtt_input.c.obj
 .data          0x00000000        0x0 examples/light_switch/provisioner/CMakeFiles/light_switch_provisioner_nrf52832_xxAA_s132_6.0.0.dir/__/__/common/src/rtt_input.c.obj
 .bss           0x00000000        0x0 examples/light_switch/provisioner/CMakeFiles/light_switch_provisioner_nrf52832_xxAA_s132_6.0.0.dir/__/__/common/src/rtt_input.c.obj
 .text.rtt_input_disable
                0x00000000       0x24 examples/light_switch/provisioner/CMakeFiles/light_switch_provisioner_nrf52832_xxAA_s132_6.0.0.dir/__/__/common/src/rtt_input.c.obj
 .text          0x00000000        0x0 examples/light_switch/provisioner/CMakeFiles/light_switch_provisioner_nrf52832_xxAA_s132_6.0.0.dir/__/__/common/src/simple_hal.c.obj
 .data          0x00000000        0x0 examples/light_switch/provisioner/CMakeFiles/light_switch_provisioner_nrf52832_xxAA_s132_6.0.0.dir/__/__/common/src/simple_hal.c.obj
 .bss           0x00000000        0x0 examples/light_switch/provisioner/CMakeFiles/light_switch_provisioner_nrf52832_xxAA_s132_6.0.0.dir/__/__/common/src/simple_hal.c.obj
 .text.hal_led_pin_get
                0x00000000       0x18 examples/light_switch/provisioner/CMakeFiles/light_switch_provisioner_nrf52832_xxAA_s132_6.0.0.dir/__/__/common/src/simple_hal.c.obj
 .text          0x00000000        0x0 examples/light_switch/provisioner/CMakeFiles/light_switch_provisioner_nrf52832_xxAA_s132_6.0.0.dir/__/__/nrf_mesh_weak.c.obj
 .data          0x00000000        0x0 examples/light_switch/provisioner/CMakeFiles/light_switch_provisioner_nrf52832_xxAA_s132_6.0.0.dir/__/__/nrf_mesh_weak.c.obj
 .bss           0x00000000        0x0 examples/light_switch/provisioner/CMakeFiles/light_switch_provisioner_nrf52832_xxAA_s132_6.0.0.dir/__/__/nrf_mesh_weak.c.obj
 .text._weak_handler_ptr
                0x00000000        0x4 examples/light_switch/provisioner/CMakeFiles/light_switch_provisioner_nrf52832_xxAA_s132_6.0.0.dir/__/__/nrf_mesh_weak.c.obj
 .text          0x00000000        0x0 examples/light_switch/provisioner/CMakeFiles/light_switch_provisioner_nrf52832_xxAA_s132_6.0.0.dir/__/__/common/src/app_error_weak.c.obj
 .data          0x00000000        0x0 examples/light_switch/provisioner/CMakeFiles/light_switch_provisioner_nrf52832_xxAA_s132_6.0.0.dir/__/__/common/src/app_error_weak.c.obj
 .bss           0x00000000        0x0 examples/light_switch/provisioner/CMakeFiles/light_switch_provisioner_nrf52832_xxAA_s132_6.0.0.dir/__/__/common/src/app_error_weak.c.obj
 .text          0x00000000        0x0 examples/light_switch/provisioner/CMakeFiles/light_switch_provisioner_nrf52832_xxAA_s132_6.0.0.dir/__/__/common/src/assertion_handler_weak.c.obj
 .data          0x00000000        0x0 examples/light_switch/provisioner/CMakeFiles/light_switch_provisioner_nrf52832_xxAA_s132_6.0.0.dir/__/__/common/src/assertion_handler_weak.c.obj
 .bss           0x00000000        0x0 examples/light_switch/provisioner/CMakeFiles/light_switch_provisioner_nrf52832_xxAA_s132_6.0.0.dir/__/__/common/src/assertion_handler_weak.c.obj
 .text          0x00000000        0x0 examples/light_switch/provisioner/CMakeFiles/light_switch_provisioner_nrf52832_xxAA_s132_6.0.0.dir/__/__/__/mesh/core/src/internal_event.c.obj
 .data          0x00000000        0x0 examples/light_switch/provisioner/CMakeFiles/light_switch_provisioner_nrf52832_xxAA_s132_6.0.0.dir/__/__/__/mesh/core/src/internal_event.c.obj
 .bss           0x00000000        0x0 examples/light_switch/provisioner/CMakeFiles/light_switch_provisioner_nrf52832_xxAA_s132_6.0.0.dir/__/__/__/mesh/core/src/internal_event.c.obj
 .debug_info    0x00000000      0x8f2 examples/light_switch/provisioner/CMakeFiles/light_switch_provisioner_nrf52832_xxAA_s132_6.0.0.dir/__/__/__/mesh/core/src/internal_event.c.obj
 .debug_abbrev  0x00000000      0x192 examples/light_switch/provisioner/CMakeFiles/light_switch_provisioner_nrf52832_xxAA_s132_6.0.0.dir/__/__/__/mesh/core/src/internal_event.c.obj
 .debug_aranges
                0x00000000       0x18 examples/light_switch/provisioner/CMakeFiles/light_switch_provisioner_nrf52832_xxAA_s132_6.0.0.dir/__/__/__/mesh/core/src/internal_event.c.obj
 .debug_line    0x00000000      0x1a3 examples/light_switch/provisioner/CMakeFiles/light_switch_provisioner_nrf52832_xxAA_s132_6.0.0.dir/__/__/__/mesh/core/src/internal_event.c.obj
 .debug_str     0x00000000      0x602 examples/light_switch/provisioner/CMakeFiles/light_switch_provisioner_nrf52832_xxAA_s132_6.0.0.dir/__/__/__/mesh/core/src/internal_event.c.obj
 .comment       0x00000000       0x80 examples/light_switch/provisioner/CMakeFiles/light_switch_provisioner_nrf52832_xxAA_s132_6.0.0.dir/__/__/__/mesh/core/src/internal_event.c.obj
 .ARM.attributes
                0x00000000       0x39 examples/light_switch/provisioner/CMakeFiles/light_switch_provisioner_nrf52832_xxAA_s132_6.0.0.dir/__/__/__/mesh/core/src/internal_event.c.obj
 .text          0x00000000        0x0 examples/light_switch/provisioner/CMakeFiles/light_switch_provisioner_nrf52832_xxAA_s132_6.0.0.dir/__/__/__/mesh/core/src/nrf_mesh_configure.c.obj
 .data          0x00000000        0x0 examples/light_switch/provisioner/CMakeFiles/light_switch_provisioner_nrf52832_xxAA_s132_6.0.0.dir/__/__/__/mesh/core/src/nrf_mesh_configure.c.obj
 .bss           0x00000000        0x0 examples/light_switch/provisioner/CMakeFiles/light_switch_provisioner_nrf52832_xxAA_s132_6.0.0.dir/__/__/__/mesh/core/src/nrf_mesh_configure.c.obj
 .text          0x00000000        0x0 examples/light_switch/provisioner/CMakeFiles/light_switch_provisioner_nrf52832_xxAA_s132_6.0.0.dir/__/__/__/mesh/core/src/aes.c.obj
 .data          0x00000000        0x0 examples/light_switch/provisioner/CMakeFiles/light_switch_provisioner_nrf52832_xxAA_s132_6.0.0.dir/__/__/__/mesh/core/src/aes.c.obj
 .bss           0x00000000        0x0 examples/light_switch/provisioner/CMakeFiles/light_switch_provisioner_nrf52832_xxAA_s132_6.0.0.dir/__/__/__/mesh/core/src/aes.c.obj
 .text          0x00000000        0x0 examples/light_switch/provisioner/CMakeFiles/light_switch_provisioner_nrf52832_xxAA_s132_6.0.0.dir/__/__/__/mesh/core/src/msg_cache.c.obj
 .data          0x00000000        0x0 examples/light_switch/provisioner/CMakeFiles/light_switch_provisioner_nrf52832_xxAA_s132_6.0.0.dir/__/__/__/mesh/core/src/msg_cache.c.obj
 .bss           0x00000000        0x0 examples/light_switch/provisioner/CMakeFiles/light_switch_provisioner_nrf52832_xxAA_s132_6.0.0.dir/__/__/__/mesh/core/src/msg_cache.c.obj
 .text.msg_cache_clear
                0x00000000       0x18 examples/light_switch/provisioner/CMakeFiles/light_switch_provisioner_nrf52832_xxAA_s132_6.0.0.dir/__/__/__/mesh/core/src/msg_cache.c.obj
 .text          0x00000000        0x0 examples/light_switch/provisioner/CMakeFiles/light_switch_provisioner_nrf52832_xxAA_s132_6.0.0.dir/__/__/__/mesh/core/src/transport.c.obj
 .data          0x00000000        0x0 examples/light_switch/provisioner/CMakeFiles/light_switch_provisioner_nrf52832_xxAA_s132_6.0.0.dir/__/__/__/mesh/core/src/transport.c.obj
 .bss           0x00000000        0x0 examples/light_switch/provisioner/CMakeFiles/light_switch_provisioner_nrf52832_xxAA_s132_6.0.0.dir/__/__/__/mesh/core/src/transport.c.obj
 .text.transport_sar_mem_funcs_set
                0x00000000       0x44 examples/light_switch/provisioner/CMakeFiles/light_switch_provisioner_nrf52832_xxAA_s132_6.0.0.dir/__/__/__/mesh/core/src/transport.c.obj
 .text          0x00000000        0x0 examples/light_switch/provisioner/CMakeFiles/light_switch_provisioner_nrf52832_xxAA_s132_6.0.0.dir/__/__/__/mesh/core/src/event.c.obj
 .data          0x00000000        0x0 examples/light_switch/provisioner/CMakeFiles/light_switch_provisioner_nrf52832_xxAA_s132_6.0.0.dir/__/__/__/mesh/core/src/event.c.obj
 .bss           0x00000000        0x0 examples/light_switch/provisioner/CMakeFiles/light_switch_provisioner_nrf52832_xxAA_s132_6.0.0.dir/__/__/__/mesh/core/src/event.c.obj
 .text          0x00000000        0x0 examples/light_switch/provisioner/CMakeFiles/light_switch_provisioner_nrf52832_xxAA_s132_6.0.0.dir/__/__/__/mesh/core/src/packet_buffer.c.obj
 .data          0x00000000        0x0 examples/light_switch/provisioner/CMakeFiles/light_switch_provisioner_nrf52832_xxAA_s132_6.0.0.dir/__/__/__/mesh/core/src/packet_buffer.c.obj
 .bss           0x00000000        0x0 examples/light_switch/provisioner/CMakeFiles/light_switch_provisioner_nrf52832_xxAA_s132_6.0.0.dir/__/__/__/mesh/core/src/packet_buffer.c.obj
 .text.packet_buffer_max_packet_len_get
                0x00000000       0x20 examples/light_switch/provisioner/CMakeFiles/light_switch_provisioner_nrf52832_xxAA_s132_6.0.0.dir/__/__/__/mesh/core/src/packet_buffer.c.obj
 .text          0x00000000        0x0 examples/light_switch/provisioner/CMakeFiles/light_switch_provisioner_nrf52832_xxAA_s132_6.0.0.dir/__/__/__/mesh/core/src/flash_manager_defrag.c.obj
 .data          0x00000000        0x0 examples/light_switch/provisioner/CMakeFiles/light_switch_provisioner_nrf52832_xxAA_s132_6.0.0.dir/__/__/__/mesh/core/src/flash_manager_defrag.c.obj
 .bss           0x00000000        0x0 examples/light_switch/provisioner/CMakeFiles/light_switch_provisioner_nrf52832_xxAA_s132_6.0.0.dir/__/__/__/mesh/core/src/flash_manager_defrag.c.obj
 .text.flash_manager_defragging
                0x00000000       0x38 examples/light_switch/provisioner/CMakeFiles/light_switch_provisioner_nrf52832_xxAA_s132_6.0.0.dir/__/__/__/mesh/core/src/flash_manager_defrag.c.obj
 .text          0x00000000        0x0 examples/light_switch/provisioner/CMakeFiles/light_switch_provisioner_nrf52832_xxAA_s132_6.0.0.dir/__/__/__/mesh/core/src/fifo.c.obj
 .data          0x00000000        0x0 examples/light_switch/provisioner/CMakeFiles/light_switch_provisioner_nrf52832_xxAA_s132_6.0.0.dir/__/__/__/mesh/core/src/fifo.c.obj
 .bss           0x00000000        0x0 examples/light_switch/provisioner/CMakeFiles/light_switch_provisioner_nrf52832_xxAA_s132_6.0.0.dir/__/__/__/mesh/core/src/fifo.c.obj
 .text.fifo_peek_at
                0x00000000       0x50 examples/light_switch/provisioner/CMakeFiles/light_switch_provisioner_nrf52832_xxAA_s132_6.0.0.dir/__/__/__/mesh/core/src/fifo.c.obj
 .text.fifo_peek
                0x00000000        0x6 examples/light_switch/provisioner/CMakeFiles/light_switch_provisioner_nrf52832_xxAA_s132_6.0.0.dir/__/__/__/mesh/core/src/fifo.c.obj
 .text.fifo_flush
                0x00000000        0x6 examples/light_switch/provisioner/CMakeFiles/light_switch_provisioner_nrf52832_xxAA_s132_6.0.0.dir/__/__/__/mesh/core/src/fifo.c.obj
 .text.fifo_get_len
                0x00000000        0x8 examples/light_switch/provisioner/CMakeFiles/light_switch_provisioner_nrf52832_xxAA_s132_6.0.0.dir/__/__/__/mesh/core/src/fifo.c.obj
 .text.fifo_is_full
                0x00000000       0x10 examples/light_switch/provisioner/CMakeFiles/light_switch_provisioner_nrf52832_xxAA_s132_6.0.0.dir/__/__/__/mesh/core/src/fifo.c.obj
 .text.fifo_is_empty
                0x00000000        0xc examples/light_switch/provisioner/CMakeFiles/light_switch_provisioner_nrf52832_xxAA_s132_6.0.0.dir/__/__/__/mesh/core/src/fifo.c.obj
 .text          0x00000000        0x0 examples/light_switch/provisioner/CMakeFiles/light_switch_provisioner_nrf52832_xxAA_s132_6.0.0.dir/__/__/__/mesh/core/src/nrf_flash.c.obj
 .data          0x00000000        0x0 examples/light_switch/provisioner/CMakeFiles/light_switch_provisioner_nrf52832_xxAA_s132_6.0.0.dir/__/__/__/mesh/core/src/nrf_flash.c.obj
 .bss           0x00000000        0x0 examples/light_switch/provisioner/CMakeFiles/light_switch_provisioner_nrf52832_xxAA_s132_6.0.0.dir/__/__/__/mesh/core/src/nrf_flash.c.obj
 .text          0x00000000        0x0 examples/light_switch/provisioner/CMakeFiles/light_switch_provisioner_nrf52832_xxAA_s132_6.0.0.dir/__/__/__/mesh/core/src/packet_mgr.c.obj
 .data          0x00000000        0x0 examples/light_switch/provisioner/CMakeFiles/light_switch_provisioner_nrf52832_xxAA_s132_6.0.0.dir/__/__/__/mesh/core/src/packet_mgr.c.obj
 .bss           0x00000000        0x0 examples/light_switch/provisioner/CMakeFiles/light_switch_provisioner_nrf52832_xxAA_s132_6.0.0.dir/__/__/__/mesh/core/src/packet_mgr.c.obj
 .text.packet_mgr_get_free_space
                0x00000000       0x1c examples/light_switch/provisioner/CMakeFiles/light_switch_provisioner_nrf52832_xxAA_s132_6.0.0.dir/__/__/__/mesh/core/src/packet_mgr.c.obj
 .text.packet_mgr_refcount_get
                0x00000000        0x6 examples/light_switch/provisioner/CMakeFiles/light_switch_provisioner_nrf52832_xxAA_s132_6.0.0.dir/__/__/__/mesh/core/src/packet_mgr.c.obj
 .text.packet_mgr_size_get
                0x00000000        0x6 examples/light_switch/provisioner/CMakeFiles/light_switch_provisioner_nrf52832_xxAA_s132_6.0.0.dir/__/__/__/mesh/core/src/packet_mgr.c.obj
 .text          0x00000000        0x0 examples/light_switch/provisioner/CMakeFiles/light_switch_provisioner_nrf52832_xxAA_s132_6.0.0.dir/__/__/__/mesh/core/src/net_state.c.obj
 .data          0x00000000        0x0 examples/light_switch/provisioner/CMakeFiles/light_switch_provisioner_nrf52832_xxAA_s132_6.0.0.dir/__/__/__/mesh/core/src/net_state.c.obj
 .bss           0x00000000        0x0 examples/light_switch/provisioner/CMakeFiles/light_switch_provisioner_nrf52832_xxAA_s132_6.0.0.dir/__/__/__/mesh/core/src/net_state.c.obj
 .text.net_state_iv_update_test_mode_set
                0x00000000        0xc examples/light_switch/provisioner/CMakeFiles/light_switch_provisioner_nrf52832_xxAA_s132_6.0.0.dir/__/__/__/mesh/core/src/net_state.c.obj
 .text.net_state_test_mode_transition_run
                0x00000000       0x2c examples/light_switch/provisioner/CMakeFiles/light_switch_provisioner_nrf52832_xxAA_s132_6.0.0.dir/__/__/__/mesh/core/src/net_state.c.obj
 .text.net_state_iv_index_set
                0x00000000       0x30 examples/light_switch/provisioner/CMakeFiles/light_switch_provisioner_nrf52832_xxAA_s132_6.0.0.dir/__/__/__/mesh/core/src/net_state.c.obj
 .bss.iv_state_set.9896
                0x00000000        0x1 examples/light_switch/provisioner/CMakeFiles/light_switch_provisioner_nrf52832_xxAA_s132_6.0.0.dir/__/__/__/mesh/core/src/net_state.c.obj
 .text          0x00000000        0x0 examples/light_switch/provisioner/CMakeFiles/light_switch_provisioner_nrf52832_xxAA_s132_6.0.0.dir/__/__/__/mesh/core/src/mesh_flash.c.obj
 .data          0x00000000        0x0 examples/light_switch/provisioner/CMakeFiles/light_switch_provisioner_nrf52832_xxAA_s132_6.0.0.dir/__/__/__/mesh/core/src/mesh_flash.c.obj
 .bss           0x00000000        0x0 examples/light_switch/provisioner/CMakeFiles/light_switch_provisioner_nrf52832_xxAA_s132_6.0.0.dir/__/__/__/mesh/core/src/mesh_flash.c.obj
 .text.mesh_flash_op_available_slots
                0x00000000       0x2c examples/light_switch/provisioner/CMakeFiles/light_switch_provisioner_nrf52832_xxAA_s132_6.0.0.dir/__/__/__/mesh/core/src/mesh_flash.c.obj
 .text.mesh_flash_in_progress
                0x00000000       0x34 examples/light_switch/provisioner/CMakeFiles/light_switch_provisioner_nrf52832_xxAA_s132_6.0.0.dir/__/__/__/mesh/core/src/mesh_flash.c.obj
 .text.mesh_flash_set_suspended
                0x00000000       0x74 examples/light_switch/provisioner/CMakeFiles/light_switch_provisioner_nrf52832_xxAA_s132_6.0.0.dir/__/__/__/mesh/core/src/mesh_flash.c.obj
 .bss.suspend_count.10123
                0x00000000        0x4 examples/light_switch/provisioner/CMakeFiles/light_switch_provisioner_nrf52832_xxAA_s132_6.0.0.dir/__/__/__/mesh/core/src/mesh_flash.c.obj
 .text          0x00000000        0x0 examples/light_switch/provisioner/CMakeFiles/light_switch_provisioner_nrf52832_xxAA_s132_6.0.0.dir/__/__/__/mesh/core/src/nrf_mesh_utils.c.obj
 .data          0x00000000        0x0 examples/light_switch/provisioner/CMakeFiles/light_switch_provisioner_nrf52832_xxAA_s132_6.0.0.dir/__/__/__/mesh/core/src/nrf_mesh_utils.c.obj
 .bss           0x00000000        0x0 examples/light_switch/provisioner/CMakeFiles/light_switch_provisioner_nrf52832_xxAA_s132_6.0.0.dir/__/__/__/mesh/core/src/nrf_mesh_utils.c.obj
 .text.nrf_mesh_rand_get
                0x00000000       0x10 examples/light_switch/provisioner/CMakeFiles/light_switch_provisioner_nrf52832_xxAA_s132_6.0.0.dir/__/__/__/mesh/core/src/nrf_mesh_utils.c.obj
 .text.nrf_mesh_gap_address_type_get
                0x00000000       0x30 examples/light_switch/provisioner/CMakeFiles/light_switch_provisioner_nrf52832_xxAA_s132_6.0.0.dir/__/__/__/mesh/core/src/nrf_mesh_utils.c.obj
 .text          0x00000000        0x0 examples/light_switch/provisioner/CMakeFiles/light_switch_provisioner_nrf52832_xxAA_s132_6.0.0.dir/__/__/__/mesh/core/src/nrf_mesh.c.obj
 .data          0x00000000        0x0 examples/light_switch/provisioner/CMakeFiles/light_switch_provisioner_nrf52832_xxAA_s132_6.0.0.dir/__/__/__/mesh/core/src/nrf_mesh.c.obj
 .bss           0x00000000        0x0 examples/light_switch/provisioner/CMakeFiles/light_switch_provisioner_nrf52832_xxAA_s132_6.0.0.dir/__/__/__/mesh/core/src/nrf_mesh.c.obj
 .text.nrf_mesh_disable
                0x00000000       0x28 examples/light_switch/provisioner/CMakeFiles/light_switch_provisioner_nrf52832_xxAA_s132_6.0.0.dir/__/__/__/mesh/core/src/nrf_mesh.c.obj
 .text.nrf_mesh_process
                0x00000000        0x4 examples/light_switch/provisioner/CMakeFiles/light_switch_provisioner_nrf52832_xxAA_s132_6.0.0.dir/__/__/__/mesh/core/src/nrf_mesh.c.obj
 .text.nrf_mesh_evt_handler_remove
                0x00000000        0x4 examples/light_switch/provisioner/CMakeFiles/light_switch_provisioner_nrf52832_xxAA_s132_6.0.0.dir/__/__/__/mesh/core/src/nrf_mesh.c.obj
 .text.nrf_mesh_rx_cb_set
                0x00000000        0xc examples/light_switch/provisioner/CMakeFiles/light_switch_provisioner_nrf52832_xxAA_s132_6.0.0.dir/__/__/__/mesh/core/src/nrf_mesh.c.obj
 .text.nrf_mesh_rx_cb_clear
                0x00000000        0xc examples/light_switch/provisioner/CMakeFiles/light_switch_provisioner_nrf52832_xxAA_s132_6.0.0.dir/__/__/__/mesh/core/src/nrf_mesh.c.obj
 .text          0x00000000        0x0 examples/light_switch/provisioner/CMakeFiles/light_switch_provisioner_nrf52832_xxAA_s132_6.0.0.dir/__/__/__/mesh/core/src/queue.c.obj
 .data          0x00000000        0x0 examples/light_switch/provisioner/CMakeFiles/light_switch_provisioner_nrf52832_xxAA_s132_6.0.0.dir/__/__/__/mesh/core/src/queue.c.obj
 .bss           0x00000000        0x0 examples/light_switch/provisioner/CMakeFiles/light_switch_provisioner_nrf52832_xxAA_s132_6.0.0.dir/__/__/__/mesh/core/src/queue.c.obj
 .text          0x00000000        0x0 examples/light_switch/provisioner/CMakeFiles/light_switch_provisioner_nrf52832_xxAA_s132_6.0.0.dir/__/__/__/mesh/core/src/hal.c.obj
 .data          0x00000000        0x0 examples/light_switch/provisioner/CMakeFiles/light_switch_provisioner_nrf52832_xxAA_s132_6.0.0.dir/__/__/__/mesh/core/src/hal.c.obj
 .bss           0x00000000        0x0 examples/light_switch/provisioner/CMakeFiles/light_switch_provisioner_nrf52832_xxAA_s132_6.0.0.dir/__/__/__/mesh/core/src/hal.c.obj
 .text          0x00000000        0x0 examples/light_switch/provisioner/CMakeFiles/light_switch_provisioner_nrf52832_xxAA_s132_6.0.0.dir/__/__/__/mesh/core/src/aes_cmac.c.obj
 .data          0x00000000        0x0 examples/light_switch/provisioner/CMakeFiles/light_switch_provisioner_nrf52832_xxAA_s132_6.0.0.dir/__/__/__/mesh/core/src/aes_cmac.c.obj
 .bss           0x00000000        0x0 examples/light_switch/provisioner/CMakeFiles/light_switch_provisioner_nrf52832_xxAA_s132_6.0.0.dir/__/__/__/mesh/core/src/aes_cmac.c.obj
 .text          0x00000000        0x0 examples/light_switch/provisioner/CMakeFiles/light_switch_provisioner_nrf52832_xxAA_s132_6.0.0.dir/__/__/__/mesh/core/src/timer_scheduler.c.obj
 .data          0x00000000        0x0 examples/light_switch/provisioner/CMakeFiles/light_switch_provisioner_nrf52832_xxAA_s132_6.0.0.dir/__/__/__/mesh/core/src/timer_scheduler.c.obj
 .bss           0x00000000        0x0 examples/light_switch/provisioner/CMakeFiles/light_switch_provisioner_nrf52832_xxAA_s132_6.0.0.dir/__/__/__/mesh/core/src/timer_scheduler.c.obj
 .text          0x00000000        0x0 examples/light_switch/provisioner/CMakeFiles/light_switch_provisioner_nrf52832_xxAA_s132_6.0.0.dir/__/__/__/mesh/core/src/timer.c.obj
 .data          0x00000000        0x0 examples/light_switch/provisioner/CMakeFiles/light_switch_provisioner_nrf52832_xxAA_s132_6.0.0.dir/__/__/__/mesh/core/src/timer.c.obj
 .bss           0x00000000        0x0 examples/light_switch/provisioner/CMakeFiles/light_switch_provisioner_nrf52832_xxAA_s132_6.0.0.dir/__/__/__/mesh/core/src/timer.c.obj
 .text.timer_order_cb_ppi
                0x00000000       0xc4 examples/light_switch/provisioner/CMakeFiles/light_switch_provisioner_nrf52832_xxAA_s132_6.0.0.dir/__/__/__/mesh/core/src/timer.c.obj
 .text.timer_order_ppi
                0x00000000       0xc0 examples/light_switch/provisioner/CMakeFiles/light_switch_provisioner_nrf52832_xxAA_s132_6.0.0.dir/__/__/__/mesh/core/src/timer.c.obj
 .text.timer_abort
                0x00000000       0x78 examples/light_switch/provisioner/CMakeFiles/light_switch_provisioner_nrf52832_xxAA_s132_6.0.0.dir/__/__/__/mesh/core/src/timer.c.obj
 .text          0x00000000        0x0 examples/light_switch/provisioner/CMakeFiles/light_switch_provisioner_nrf52832_xxAA_s132_6.0.0.dir/__/__/__/mesh/core/src/ticker.c.obj
 .data          0x00000000        0x0 examples/light_switch/provisioner/CMakeFiles/light_switch_provisioner_nrf52832_xxAA_s132_6.0.0.dir/__/__/__/mesh/core/src/ticker.c.obj
 .bss           0x00000000        0x0 examples/light_switch/provisioner/CMakeFiles/light_switch_provisioner_nrf52832_xxAA_s132_6.0.0.dir/__/__/__/mesh/core/src/ticker.c.obj
 .text.ticker_get
                0x00000000        0xc examples/light_switch/provisioner/CMakeFiles/light_switch_provisioner_nrf52832_xxAA_s132_6.0.0.dir/__/__/__/mesh/core/src/ticker.c.obj
 .text          0x00000000        0x0 examples/light_switch/provisioner/CMakeFiles/light_switch_provisioner_nrf52832_xxAA_s132_6.0.0.dir/__/__/__/mesh/core/src/rand.c.obj
 .data          0x00000000        0x0 examples/light_switch/provisioner/CMakeFiles/light_switch_provisioner_nrf52832_xxAA_s132_6.0.0.dir/__/__/__/mesh/core/src/rand.c.obj
 .bss           0x00000000        0x0 examples/light_switch/provisioner/CMakeFiles/light_switch_provisioner_nrf52832_xxAA_s132_6.0.0.dir/__/__/__/mesh/core/src/rand.c.obj
 .text          0x00000000        0x0 examples/light_switch/provisioner/CMakeFiles/light_switch_provisioner_nrf52832_xxAA_s132_6.0.0.dir/__/__/__/mesh/core/src/nrf_mesh_opt.c.obj
 .data          0x00000000        0x0 examples/light_switch/provisioner/CMakeFiles/light_switch_provisioner_nrf52832_xxAA_s132_6.0.0.dir/__/__/__/mesh/core/src/nrf_mesh_opt.c.obj
 .bss           0x00000000        0x0 examples/light_switch/provisioner/CMakeFiles/light_switch_provisioner_nrf52832_xxAA_s132_6.0.0.dir/__/__/__/mesh/core/src/nrf_mesh_opt.c.obj
 .text          0x00000000        0x0 examples/light_switch/provisioner/CMakeFiles/light_switch_provisioner_nrf52832_xxAA_s132_6.0.0.dir/__/__/__/mesh/core/src/timeslot.c.obj
 .data          0x00000000        0x0 examples/light_switch/provisioner/CMakeFiles/light_switch_provisioner_nrf52832_xxAA_s132_6.0.0.dir/__/__/__/mesh/core/src/timeslot.c.obj
 .bss           0x00000000        0x0 examples/light_switch/provisioner/CMakeFiles/light_switch_provisioner_nrf52832_xxAA_s132_6.0.0.dir/__/__/__/mesh/core/src/timeslot.c.obj
 .text.timeslot_end_time_get
                0x00000000       0x10 examples/light_switch/provisioner/CMakeFiles/light_switch_provisioner_nrf52832_xxAA_s132_6.0.0.dir/__/__/__/mesh/core/src/timeslot.c.obj
 .text.timeslot_is_in_ts
                0x00000000        0xc examples/light_switch/provisioner/CMakeFiles/light_switch_provisioner_nrf52832_xxAA_s132_6.0.0.dir/__/__/__/mesh/core/src/timeslot.c.obj
 .text.timeslot_restart
                0x00000000       0x10 examples/light_switch/provisioner/CMakeFiles/light_switch_provisioner_nrf52832_xxAA_s132_6.0.0.dir/__/__/__/mesh/core/src/timeslot.c.obj
 .text          0x00000000        0x0 examples/light_switch/provisioner/CMakeFiles/light_switch_provisioner_nrf52832_xxAA_s132_6.0.0.dir/__/__/__/mesh/core/src/bearer_event.c.obj
 .data          0x00000000        0x0 examples/light_switch/provisioner/CMakeFiles/light_switch_provisioner_nrf52832_xxAA_s132_6.0.0.dir/__/__/__/mesh/core/src/bearer_event.c.obj
 .bss           0x00000000        0x0 examples/light_switch/provisioner/CMakeFiles/light_switch_provisioner_nrf52832_xxAA_s132_6.0.0.dir/__/__/__/mesh/core/src/bearer_event.c.obj
 .text.bearer_event_generic_post
                0x00000000       0x24 examples/light_switch/provisioner/CMakeFiles/light_switch_provisioner_nrf52832_xxAA_s132_6.0.0.dir/__/__/__/mesh/core/src/bearer_event.c.obj
 .text.bearer_event_timer_sch_post
                0x00000000       0x26 examples/light_switch/provisioner/CMakeFiles/light_switch_provisioner_nrf52832_xxAA_s132_6.0.0.dir/__/__/__/mesh/core/src/bearer_event.c.obj
 .text.bearer_event_in_correct_irq_priority
                0x00000000       0x48 examples/light_switch/provisioner/CMakeFiles/light_switch_provisioner_nrf52832_xxAA_s132_6.0.0.dir/__/__/__/mesh/core/src/bearer_event.c.obj
 .text          0x00000000        0x0 examples/light_switch/provisioner/CMakeFiles/light_switch_provisioner_nrf52832_xxAA_s132_6.0.0.dir/__/__/__/mesh/core/src/enc.c.obj
 .data          0x00000000        0x0 examples/light_switch/provisioner/CMakeFiles/light_switch_provisioner_nrf52832_xxAA_s132_6.0.0.dir/__/__/__/mesh/core/src/enc.c.obj
 .bss           0x00000000        0x0 examples/light_switch/provisioner/CMakeFiles/light_switch_provisioner_nrf52832_xxAA_s132_6.0.0.dir/__/__/__/mesh/core/src/enc.c.obj
 .text.enc_key_generate
                0x00000000        0x6 examples/light_switch/provisioner/CMakeFiles/light_switch_provisioner_nrf52832_xxAA_s132_6.0.0.dir/__/__/__/mesh/core/src/enc.c.obj
 .text          0x00000000        0x0 examples/light_switch/provisioner/CMakeFiles/light_switch_provisioner_nrf52832_xxAA_s132_6.0.0.dir/__/__/__/mesh/core/src/network.c.obj
 .data          0x00000000        0x0 examples/light_switch/provisioner/CMakeFiles/light_switch_provisioner_nrf52832_xxAA_s132_6.0.0.dir/__/__/__/mesh/core/src/network.c.obj
 .bss           0x00000000        0x0 examples/light_switch/provisioner/CMakeFiles/light_switch_provisioner_nrf52832_xxAA_s132_6.0.0.dir/__/__/__/mesh/core/src/network.c.obj
 .text.network_packet_discard
                0x00000000       0x1e examples/light_switch/provisioner/CMakeFiles/light_switch_provisioner_nrf52832_xxAA_s132_6.0.0.dir/__/__/__/mesh/core/src/network.c.obj
 .text          0x00000000        0x0 examples/light_switch/provisioner/CMakeFiles/light_switch_provisioner_nrf52832_xxAA_s132_6.0.0.dir/__/__/__/mesh/core/src/net_packet.c.obj
 .data          0x00000000        0x0 examples/light_switch/provisioner/CMakeFiles/light_switch_provisioner_nrf52832_xxAA_s132_6.0.0.dir/__/__/__/mesh/core/src/net_packet.c.obj
 .bss           0x00000000        0x0 examples/light_switch/provisioner/CMakeFiles/light_switch_provisioner_nrf52832_xxAA_s132_6.0.0.dir/__/__/__/mesh/core/src/net_packet.c.obj
 .text.net_packet_enc_start_get
                0x00000000        0x4 examples/light_switch/provisioner/CMakeFiles/light_switch_provisioner_nrf52832_xxAA_s132_6.0.0.dir/__/__/__/mesh/core/src/net_packet.c.obj
 .text.net_packet_payload_get
                0x00000000        0x4 examples/light_switch/provisioner/CMakeFiles/light_switch_provisioner_nrf52832_xxAA_s132_6.0.0.dir/__/__/__/mesh/core/src/net_packet.c.obj
 .text          0x00000000        0x0 examples/light_switch/provisioner/CMakeFiles/light_switch_provisioner_nrf52832_xxAA_s132_6.0.0.dir/__/__/__/mesh/core/src/msqueue.c.obj
 .data          0x00000000        0x0 examples/light_switch/provisioner/CMakeFiles/light_switch_provisioner_nrf52832_xxAA_s132_6.0.0.dir/__/__/__/mesh/core/src/msqueue.c.obj
 .bss           0x00000000        0x0 examples/light_switch/provisioner/CMakeFiles/light_switch_provisioner_nrf52832_xxAA_s132_6.0.0.dir/__/__/__/mesh/core/src/msqueue.c.obj
 .text          0x00000000        0x0 examples/light_switch/provisioner/CMakeFiles/light_switch_provisioner_nrf52832_xxAA_s132_6.0.0.dir/__/__/__/mesh/core/src/nrf_mesh_keygen.c.obj
 .data          0x00000000        0x0 examples/light_switch/provisioner/CMakeFiles/light_switch_provisioner_nrf52832_xxAA_s132_6.0.0.dir/__/__/__/mesh/core/src/nrf_mesh_keygen.c.obj
 .bss           0x00000000        0x0 examples/light_switch/provisioner/CMakeFiles/light_switch_provisioner_nrf52832_xxAA_s132_6.0.0.dir/__/__/__/mesh/core/src/nrf_mesh_keygen.c.obj
 .text.nrf_mesh_keygen_identitykey
                0x00000000       0x4c examples/light_switch/provisioner/CMakeFiles/light_switch_provisioner_nrf52832_xxAA_s132_6.0.0.dir/__/__/__/mesh/core/src/nrf_mesh_keygen.c.obj
 .text          0x00000000        0x0 examples/light_switch/provisioner/CMakeFiles/light_switch_provisioner_nrf52832_xxAA_s132_6.0.0.dir/__/__/__/mesh/core/src/cache.c.obj
 .data          0x00000000        0x0 examples/light_switch/provisioner/CMakeFiles/light_switch_provisioner_nrf52832_xxAA_s132_6.0.0.dir/__/__/__/mesh/core/src/cache.c.obj
 .bss           0x00000000        0x0 examples/light_switch/provisioner/CMakeFiles/light_switch_provisioner_nrf52832_xxAA_s132_6.0.0.dir/__/__/__/mesh/core/src/cache.c.obj
 .text.erase_at
                0x00000000       0x1c examples/light_switch/provisioner/CMakeFiles/light_switch_provisioner_nrf52832_xxAA_s132_6.0.0.dir/__/__/__/mesh/core/src/cache.c.obj
 .text.cache_init
                0x00000000       0x1e examples/light_switch/provisioner/CMakeFiles/light_switch_provisioner_nrf52832_xxAA_s132_6.0.0.dir/__/__/__/mesh/core/src/cache.c.obj
 .text.cache_has_elem
                0x00000000       0x3e examples/light_switch/provisioner/CMakeFiles/light_switch_provisioner_nrf52832_xxAA_s132_6.0.0.dir/__/__/__/mesh/core/src/cache.c.obj
 .text.cache_put
                0x00000000       0x2a examples/light_switch/provisioner/CMakeFiles/light_switch_provisioner_nrf52832_xxAA_s132_6.0.0.dir/__/__/__/mesh/core/src/cache.c.obj
 .text.cache_erase_elem
                0x00000000       0x4c examples/light_switch/provisioner/CMakeFiles/light_switch_provisioner_nrf52832_xxAA_s132_6.0.0.dir/__/__/__/mesh/core/src/cache.c.obj
 .debug_info    0x00000000      0xbe1 examples/light_switch/provisioner/CMakeFiles/light_switch_provisioner_nrf52832_xxAA_s132_6.0.0.dir/__/__/__/mesh/core/src/cache.c.obj
 .debug_abbrev  0x00000000      0x2a3 examples/light_switch/provisioner/CMakeFiles/light_switch_provisioner_nrf52832_xxAA_s132_6.0.0.dir/__/__/__/mesh/core/src/cache.c.obj
 .debug_loc     0x00000000      0x29b examples/light_switch/provisioner/CMakeFiles/light_switch_provisioner_nrf52832_xxAA_s132_6.0.0.dir/__/__/__/mesh/core/src/cache.c.obj
 .debug_aranges
                0x00000000       0x40 examples/light_switch/provisioner/CMakeFiles/light_switch_provisioner_nrf52832_xxAA_s132_6.0.0.dir/__/__/__/mesh/core/src/cache.c.obj
 .debug_ranges  0x00000000       0x80 examples/light_switch/provisioner/CMakeFiles/light_switch_provisioner_nrf52832_xxAA_s132_6.0.0.dir/__/__/__/mesh/core/src/cache.c.obj
 .debug_line    0x00000000      0x21e examples/light_switch/provisioner/CMakeFiles/light_switch_provisioner_nrf52832_xxAA_s132_6.0.0.dir/__/__/__/mesh/core/src/cache.c.obj
 .debug_str     0x00000000      0x6af examples/light_switch/provisioner/CMakeFiles/light_switch_provisioner_nrf52832_xxAA_s132_6.0.0.dir/__/__/__/mesh/core/src/cache.c.obj
 .comment       0x00000000       0x80 examples/light_switch/provisioner/CMakeFiles/light_switch_provisioner_nrf52832_xxAA_s132_6.0.0.dir/__/__/__/mesh/core/src/cache.c.obj
 .debug_frame   0x00000000       0xb0 examples/light_switch/provisioner/CMakeFiles/light_switch_provisioner_nrf52832_xxAA_s132_6.0.0.dir/__/__/__/mesh/core/src/cache.c.obj
 .ARM.attributes
                0x00000000       0x39 examples/light_switch/provisioner/CMakeFiles/light_switch_provisioner_nrf52832_xxAA_s132_6.0.0.dir/__/__/__/mesh/core/src/cache.c.obj
 .text          0x00000000        0x0 examples/light_switch/provisioner/CMakeFiles/light_switch_provisioner_nrf52832_xxAA_s132_6.0.0.dir/__/__/__/mesh/core/src/uri.c.obj
 .data          0x00000000        0x0 examples/light_switch/provisioner/CMakeFiles/light_switch_provisioner_nrf52832_xxAA_s132_6.0.0.dir/__/__/__/mesh/core/src/uri.c.obj
 .bss           0x00000000        0x0 examples/light_switch/provisioner/CMakeFiles/light_switch_provisioner_nrf52832_xxAA_s132_6.0.0.dir/__/__/__/mesh/core/src/uri.c.obj
 .text.uri_data_parse
                0x00000000       0x78 examples/light_switch/provisioner/CMakeFiles/light_switch_provisioner_nrf52832_xxAA_s132_6.0.0.dir/__/__/__/mesh/core/src/uri.c.obj
 .text.uri_scheme_name_code_point
                0x00000000       0x5c examples/light_switch/provisioner/CMakeFiles/light_switch_provisioner_nrf52832_xxAA_s132_6.0.0.dir/__/__/__/mesh/core/src/uri.c.obj
 .text.uri_data_generate
                0x00000000       0x52 examples/light_switch/provisioner/CMakeFiles/light_switch_provisioner_nrf52832_xxAA_s132_6.0.0.dir/__/__/__/mesh/core/src/uri.c.obj
 .text.uri_scheme_name_string
                0x00000000       0x14 examples/light_switch/provisioner/CMakeFiles/light_switch_provisioner_nrf52832_xxAA_s132_6.0.0.dir/__/__/__/mesh/core/src/uri.c.obj
 .rodata.m_code_point_strings
                0x00000000      0x2ec examples/light_switch/provisioner/CMakeFiles/light_switch_provisioner_nrf52832_xxAA_s132_6.0.0.dir/__/__/__/mesh/core/src/uri.c.obj
 .rodata.str1.1
                0x00000000      0x566 examples/light_switch/provisioner/CMakeFiles/light_switch_provisioner_nrf52832_xxAA_s132_6.0.0.dir/__/__/__/mesh/core/src/uri.c.obj
 .debug_info    0x00000000      0xcac examples/light_switch/provisioner/CMakeFiles/light_switch_provisioner_nrf52832_xxAA_s132_6.0.0.dir/__/__/__/mesh/core/src/uri.c.obj
 .debug_abbrev  0x00000000      0x2e4 examples/light_switch/provisioner/CMakeFiles/light_switch_provisioner_nrf52832_xxAA_s132_6.0.0.dir/__/__/__/mesh/core/src/uri.c.obj
 .debug_loc     0x00000000      0x253 examples/light_switch/provisioner/CMakeFiles/light_switch_provisioner_nrf52832_xxAA_s132_6.0.0.dir/__/__/__/mesh/core/src/uri.c.obj
 .debug_aranges
                0x00000000       0x38 examples/light_switch/provisioner/CMakeFiles/light_switch_provisioner_nrf52832_xxAA_s132_6.0.0.dir/__/__/__/mesh/core/src/uri.c.obj
 .debug_ranges  0x00000000       0x48 examples/light_switch/provisioner/CMakeFiles/light_switch_provisioner_nrf52832_xxAA_s132_6.0.0.dir/__/__/__/mesh/core/src/uri.c.obj
 .debug_line    0x00000000      0x2ae examples/light_switch/provisioner/CMakeFiles/light_switch_provisioner_nrf52832_xxAA_s132_6.0.0.dir/__/__/__/mesh/core/src/uri.c.obj
 .debug_str     0x00000000      0x6dd examples/light_switch/provisioner/CMakeFiles/light_switch_provisioner_nrf52832_xxAA_s132_6.0.0.dir/__/__/__/mesh/core/src/uri.c.obj
 .comment       0x00000000       0x80 examples/light_switch/provisioner/CMakeFiles/light_switch_provisioner_nrf52832_xxAA_s132_6.0.0.dir/__/__/__/mesh/core/src/uri.c.obj
 .debug_frame   0x00000000       0x84 examples/light_switch/provisioner/CMakeFiles/light_switch_provisioner_nrf52832_xxAA_s132_6.0.0.dir/__/__/__/mesh/core/src/uri.c.obj
 .ARM.attributes
                0x00000000       0x39 examples/light_switch/provisioner/CMakeFiles/light_switch_provisioner_nrf52832_xxAA_s132_6.0.0.dir/__/__/__/mesh/core/src/uri.c.obj
 .text          0x00000000        0x0 examples/light_switch/provisioner/CMakeFiles/light_switch_provisioner_nrf52832_xxAA_s132_6.0.0.dir/__/__/__/mesh/core/src/list.c.obj
 .data          0x00000000        0x0 examples/light_switch/provisioner/CMakeFiles/light_switch_provisioner_nrf52832_xxAA_s132_6.0.0.dir/__/__/__/mesh/core/src/list.c.obj
 .bss           0x00000000        0x0 examples/light_switch/provisioner/CMakeFiles/light_switch_provisioner_nrf52832_xxAA_s132_6.0.0.dir/__/__/__/mesh/core/src/list.c.obj
 .text.list_size_get
                0x00000000       0x12 examples/light_switch/provisioner/CMakeFiles/light_switch_provisioner_nrf52832_xxAA_s132_6.0.0.dir/__/__/__/mesh/core/src/list.c.obj
 .text.list_sorted_add
                0x00000000       0x6c examples/light_switch/provisioner/CMakeFiles/light_switch_provisioner_nrf52832_xxAA_s132_6.0.0.dir/__/__/__/mesh/core/src/list.c.obj
 .text          0x00000000        0x0 examples/light_switch/provisioner/CMakeFiles/light_switch_provisioner_nrf52832_xxAA_s132_6.0.0.dir/__/__/__/mesh/core/src/log.c.obj
 .data          0x00000000        0x0 examples/light_switch/provisioner/CMakeFiles/light_switch_provisioner_nrf52832_xxAA_s132_6.0.0.dir/__/__/__/mesh/core/src/log.c.obj
 .bss           0x00000000        0x0 examples/light_switch/provisioner/CMakeFiles/light_switch_provisioner_nrf52832_xxAA_s132_6.0.0.dir/__/__/__/mesh/core/src/log.c.obj
 .text.log_callback_logview
                0x00000000       0x38 examples/light_switch/provisioner/CMakeFiles/light_switch_provisioner_nrf52832_xxAA_s132_6.0.0.dir/__/__/__/mesh/core/src/log.c.obj
 .text.log_set_callback
                0x00000000        0xc examples/light_switch/provisioner/CMakeFiles/light_switch_provisioner_nrf52832_xxAA_s132_6.0.0.dir/__/__/__/mesh/core/src/log.c.obj
 .rodata.log_callback_logview.str1.1
                0x00000000        0xf examples/light_switch/provisioner/CMakeFiles/light_switch_provisioner_nrf52832_xxAA_s132_6.0.0.dir/__/__/__/mesh/core/src/log.c.obj
 .text          0x00000000        0x0 examples/light_switch/provisioner/CMakeFiles/light_switch_provisioner_nrf52832_xxAA_s132_6.0.0.dir/__/__/__/mesh/core/src/flash_manager.c.obj
 .data          0x00000000        0x0 examples/light_switch/provisioner/CMakeFiles/light_switch_provisioner_nrf52832_xxAA_s132_6.0.0.dir/__/__/__/mesh/core/src/flash_manager.c.obj
 .bss           0x00000000        0x0 examples/light_switch/provisioner/CMakeFiles/light_switch_provisioner_nrf52832_xxAA_s132_6.0.0.dir/__/__/__/mesh/core/src/flash_manager.c.obj
 .text.flash_manager_entry_count_get
                0x00000000       0x50 examples/light_switch/provisioner/CMakeFiles/light_switch_provisioner_nrf52832_xxAA_s132_6.0.0.dir/__/__/__/mesh/core/src/flash_manager.c.obj
 .text.flash_manager_entry_release
                0x00000000       0x2c examples/light_switch/provisioner/CMakeFiles/light_switch_provisioner_nrf52832_xxAA_s132_6.0.0.dir/__/__/__/mesh/core/src/flash_manager.c.obj
 .text          0x00000000        0x0 examples/light_switch/provisioner/CMakeFiles/light_switch_provisioner_nrf52832_xxAA_s132_6.0.0.dir/__/__/__/mesh/core/src/ccm_soft.c.obj
 .data          0x00000000        0x0 examples/light_switch/provisioner/CMakeFiles/light_switch_provisioner_nrf52832_xxAA_s132_6.0.0.dir/__/__/__/mesh/core/src/ccm_soft.c.obj
 .bss           0x00000000        0x0 examples/light_switch/provisioner/CMakeFiles/light_switch_provisioner_nrf52832_xxAA_s132_6.0.0.dir/__/__/__/mesh/core/src/ccm_soft.c.obj
 .text          0x00000000        0x0 examples/light_switch/provisioner/CMakeFiles/light_switch_provisioner_nrf52832_xxAA_s132_6.0.0.dir/__/__/__/mesh/core/src/toolchain.c.obj
 .data          0x00000000        0x0 examples/light_switch/provisioner/CMakeFiles/light_switch_provisioner_nrf52832_xxAA_s132_6.0.0.dir/__/__/__/mesh/core/src/toolchain.c.obj
 .bss           0x00000000        0x0 examples/light_switch/provisioner/CMakeFiles/light_switch_provisioner_nrf52832_xxAA_s132_6.0.0.dir/__/__/__/mesh/core/src/toolchain.c.obj
 .debug_info    0x00000000       0xb3 examples/light_switch/provisioner/CMakeFiles/light_switch_provisioner_nrf52832_xxAA_s132_6.0.0.dir/__/__/__/mesh/core/src/toolchain.c.obj
 .debug_abbrev  0x00000000       0x5c examples/light_switch/provisioner/CMakeFiles/light_switch_provisioner_nrf52832_xxAA_s132_6.0.0.dir/__/__/__/mesh/core/src/toolchain.c.obj
 .debug_aranges
                0x00000000       0x18 examples/light_switch/provisioner/CMakeFiles/light_switch_provisioner_nrf52832_xxAA_s132_6.0.0.dir/__/__/__/mesh/core/src/toolchain.c.obj
 .debug_line    0x00000000      0x124 examples/light_switch/provisioner/CMakeFiles/light_switch_provisioner_nrf52832_xxAA_s132_6.0.0.dir/__/__/__/mesh/core/src/toolchain.c.obj
 .debug_str     0x00000000      0x1fa examples/light_switch/provisioner/CMakeFiles/light_switch_provisioner_nrf52832_xxAA_s132_6.0.0.dir/__/__/__/mesh/core/src/toolchain.c.obj
 .comment       0x00000000       0x80 examples/light_switch/provisioner/CMakeFiles/light_switch_provisioner_nrf52832_xxAA_s132_6.0.0.dir/__/__/__/mesh/core/src/toolchain.c.obj
 .ARM.attributes
                0x00000000       0x39 examples/light_switch/provisioner/CMakeFiles/light_switch_provisioner_nrf52832_xxAA_s132_6.0.0.dir/__/__/__/mesh/core/src/toolchain.c.obj
 .text          0x00000000        0x0 examples/light_switch/provisioner/CMakeFiles/light_switch_provisioner_nrf52832_xxAA_s132_6.0.0.dir/__/__/__/mesh/core/src/replay_cache.c.obj
 .data          0x00000000        0x0 examples/light_switch/provisioner/CMakeFiles/light_switch_provisioner_nrf52832_xxAA_s132_6.0.0.dir/__/__/__/mesh/core/src/replay_cache.c.obj
 .bss           0x00000000        0x0 examples/light_switch/provisioner/CMakeFiles/light_switch_provisioner_nrf52832_xxAA_s132_6.0.0.dir/__/__/__/mesh/core/src/replay_cache.c.obj
 .text.replay_cache_on_iv_update
                0x00000000       0x24 examples/light_switch/provisioner/CMakeFiles/light_switch_provisioner_nrf52832_xxAA_s132_6.0.0.dir/__/__/__/mesh/core/src/replay_cache.c.obj
 .text          0x00000000        0x0 examples/light_switch/provisioner/CMakeFiles/light_switch_provisioner_nrf52832_xxAA_s132_6.0.0.dir/__/__/__/mesh/core/src/beacon.c.obj
 .data          0x00000000        0x0 examples/light_switch/provisioner/CMakeFiles/light_switch_provisioner_nrf52832_xxAA_s132_6.0.0.dir/__/__/__/mesh/core/src/beacon.c.obj
 .bss           0x00000000        0x0 examples/light_switch/provisioner/CMakeFiles/light_switch_provisioner_nrf52832_xxAA_s132_6.0.0.dir/__/__/__/mesh/core/src/beacon.c.obj
 .text          0x00000000        0x0 examples/light_switch/provisioner/CMakeFiles/light_switch_provisioner_nrf52832_xxAA_s132_6.0.0.dir/__/__/__/mesh/core/src/flash_manager_internal.c.obj
 .data          0x00000000        0x0 examples/light_switch/provisioner/CMakeFiles/light_switch_provisioner_nrf52832_xxAA_s132_6.0.0.dir/__/__/__/mesh/core/src/flash_manager_internal.c.obj
 .bss           0x00000000        0x0 examples/light_switch/provisioner/CMakeFiles/light_switch_provisioner_nrf52832_xxAA_s132_6.0.0.dir/__/__/__/mesh/core/src/flash_manager_internal.c.obj
 .text          0x00000000        0x0 examples/light_switch/provisioner/CMakeFiles/light_switch_provisioner_nrf52832_xxAA_s132_6.0.0.dir/__/__/__/mesh/core/src/core_tx.c.obj
 .data          0x00000000        0x0 examples/light_switch/provisioner/CMakeFiles/light_switch_provisioner_nrf52832_xxAA_s132_6.0.0.dir/__/__/__/mesh/core/src/core_tx.c.obj
 .bss           0x00000000        0x0 examples/light_switch/provisioner/CMakeFiles/light_switch_provisioner_nrf52832_xxAA_s132_6.0.0.dir/__/__/__/mesh/core/src/core_tx.c.obj
 .text.core_tx_bearer_type_get
                0x00000000       0x1c examples/light_switch/provisioner/CMakeFiles/light_switch_provisioner_nrf52832_xxAA_s132_6.0.0.dir/__/__/__/mesh/core/src/core_tx.c.obj
 .text.core_tx_bearer_count_get
                0x00000000        0xc examples/light_switch/provisioner/CMakeFiles/light_switch_provisioner_nrf52832_xxAA_s132_6.0.0.dir/__/__/__/mesh/core/src/core_tx.c.obj
 .text          0x00000000        0x0 examples/light_switch/provisioner/CMakeFiles/light_switch_provisioner_nrf52832_xxAA_s132_6.0.0.dir/__/__/__/mesh/core/src/heartbeat.c.obj
 .data          0x00000000        0x0 examples/light_switch/provisioner/CMakeFiles/light_switch_provisioner_nrf52832_xxAA_s132_6.0.0.dir/__/__/__/mesh/core/src/heartbeat.c.obj
 .bss           0x00000000        0x0 examples/light_switch/provisioner/CMakeFiles/light_switch_provisioner_nrf52832_xxAA_s132_6.0.0.dir/__/__/__/mesh/core/src/heartbeat.c.obj
 .text          0x00000000        0x0 examples/light_switch/provisioner/CMakeFiles/light_switch_provisioner_nrf52832_xxAA_s132_6.0.0.dir/__/__/__/mesh/core/src/net_beacon.c.obj
 .data          0x00000000        0x0 examples/light_switch/provisioner/CMakeFiles/light_switch_provisioner_nrf52832_xxAA_s132_6.0.0.dir/__/__/__/mesh/core/src/net_beacon.c.obj
 .bss           0x00000000        0x0 examples/light_switch/provisioner/CMakeFiles/light_switch_provisioner_nrf52832_xxAA_s132_6.0.0.dir/__/__/__/mesh/core/src/net_beacon.c.obj
 .text.net_beacon_build
                0x00000000       0x24 examples/light_switch/provisioner/CMakeFiles/light_switch_provisioner_nrf52832_xxAA_s132_6.0.0.dir/__/__/__/mesh/core/src/net_beacon.c.obj
 .text          0x00000000        0x0 examples/light_switch/provisioner/CMakeFiles/light_switch_provisioner_nrf52832_xxAA_s132_6.0.0.dir/__/__/__/mesh/core/src/fsm.c.obj
 .data          0x00000000        0x0 examples/light_switch/provisioner/CMakeFiles/light_switch_provisioner_nrf52832_xxAA_s132_6.0.0.dir/__/__/__/mesh/core/src/fsm.c.obj
 .bss           0x00000000        0x0 examples/light_switch/provisioner/CMakeFiles/light_switch_provisioner_nrf52832_xxAA_s132_6.0.0.dir/__/__/__/mesh/core/src/fsm.c.obj
 .text.fsm_event_post_try
                0x00000000      0x1ec examples/light_switch/provisioner/CMakeFiles/light_switch_provisioner_nrf52832_xxAA_s132_6.0.0.dir/__/__/__/mesh/core/src/fsm.c.obj
 .text.fsm_init
                0x00000000       0xcc examples/light_switch/provisioner/CMakeFiles/light_switch_provisioner_nrf52832_xxAA_s132_6.0.0.dir/__/__/__/mesh/core/src/fsm.c.obj
 .text.fsm_event_post
                0x00000000       0xac examples/light_switch/provisioner/CMakeFiles/light_switch_provisioner_nrf52832_xxAA_s132_6.0.0.dir/__/__/__/mesh/core/src/fsm.c.obj
 .text.fsm_is_processing
                0x00000000        0xa examples/light_switch/provisioner/CMakeFiles/light_switch_provisioner_nrf52832_xxAA_s132_6.0.0.dir/__/__/__/mesh/core/src/fsm.c.obj
 .rodata.fsm_event_post.str1.1
                0x00000000        0xb examples/light_switch/provisioner/CMakeFiles/light_switch_provisioner_nrf52832_xxAA_s132_6.0.0.dir/__/__/__/mesh/core/src/fsm.c.obj
 .rodata.fsm_event_post_try.str1.1
                0x00000000       0x41 examples/light_switch/provisioner/CMakeFiles/light_switch_provisioner_nrf52832_xxAA_s132_6.0.0.dir/__/__/__/mesh/core/src/fsm.c.obj
 .rodata.fsm_init.str1.1
                0x00000000        0xa examples/light_switch/provisioner/CMakeFiles/light_switch_provisioner_nrf52832_xxAA_s132_6.0.0.dir/__/__/__/mesh/core/src/fsm.c.obj
 .debug_info    0x00000000     0x132d examples/light_switch/provisioner/CMakeFiles/light_switch_provisioner_nrf52832_xxAA_s132_6.0.0.dir/__/__/__/mesh/core/src/fsm.c.obj
 .debug_abbrev  0x00000000      0x345 examples/light_switch/provisioner/CMakeFiles/light_switch_provisioner_nrf52832_xxAA_s132_6.0.0.dir/__/__/__/mesh/core/src/fsm.c.obj
 .debug_loc     0x00000000      0x3fd examples/light_switch/provisioner/CMakeFiles/light_switch_provisioner_nrf52832_xxAA_s132_6.0.0.dir/__/__/__/mesh/core/src/fsm.c.obj
 .debug_aranges
                0x00000000       0x38 examples/light_switch/provisioner/CMakeFiles/light_switch_provisioner_nrf52832_xxAA_s132_6.0.0.dir/__/__/__/mesh/core/src/fsm.c.obj
 .debug_ranges  0x00000000       0xe0 examples/light_switch/provisioner/CMakeFiles/light_switch_provisioner_nrf52832_xxAA_s132_6.0.0.dir/__/__/__/mesh/core/src/fsm.c.obj
 .debug_line    0x00000000      0x3d6 examples/light_switch/provisioner/CMakeFiles/light_switch_provisioner_nrf52832_xxAA_s132_6.0.0.dir/__/__/__/mesh/core/src/fsm.c.obj
 .debug_str     0x00000000      0x984 examples/light_switch/provisioner/CMakeFiles/light_switch_provisioner_nrf52832_xxAA_s132_6.0.0.dir/__/__/__/mesh/core/src/fsm.c.obj
 .comment       0x00000000       0x80 examples/light_switch/provisioner/CMakeFiles/light_switch_provisioner_nrf52832_xxAA_s132_6.0.0.dir/__/__/__/mesh/core/src/fsm.c.obj
 .debug_frame   0x00000000       0x9c examples/light_switch/provisioner/CMakeFiles/light_switch_provisioner_nrf52832_xxAA_s132_6.0.0.dir/__/__/__/mesh/core/src/fsm.c.obj
 .ARM.attributes
                0x00000000       0x39 examples/light_switch/provisioner/CMakeFiles/light_switch_provisioner_nrf52832_xxAA_s132_6.0.0.dir/__/__/__/mesh/core/src/fsm.c.obj
 .text          0x00000000        0x0 examples/light_switch/provisioner/CMakeFiles/light_switch_provisioner_nrf52832_xxAA_s132_6.0.0.dir/__/__/__/mesh/core/src/core_tx_adv.c.obj
 .data          0x00000000        0x0 examples/light_switch/provisioner/CMakeFiles/light_switch_provisioner_nrf52832_xxAA_s132_6.0.0.dir/__/__/__/mesh/core/src/core_tx_adv.c.obj
 .bss           0x00000000        0x0 examples/light_switch/provisioner/CMakeFiles/light_switch_provisioner_nrf52832_xxAA_s132_6.0.0.dir/__/__/__/mesh/core/src/core_tx_adv.c.obj
 .text.core_tx_adv_address_set
                0x00000000       0x28 examples/light_switch/provisioner/CMakeFiles/light_switch_provisioner_nrf52832_xxAA_s132_6.0.0.dir/__/__/__/mesh/core/src/core_tx_adv.c.obj
 .text          0x00000000        0x0 examples/light_switch/provisioner/CMakeFiles/light_switch_provisioner_nrf52832_xxAA_s132_6.0.0.dir/__/__/__/mesh/bearer/src/ad_listener.c.obj
 .data          0x00000000        0x0 examples/light_switch/provisioner/CMakeFiles/light_switch_provisioner_nrf52832_xxAA_s132_6.0.0.dir/__/__/__/mesh/bearer/src/ad_listener.c.obj
 .bss           0x00000000        0x0 examples/light_switch/provisioner/CMakeFiles/light_switch_provisioner_nrf52832_xxAA_s132_6.0.0.dir/__/__/__/mesh/bearer/src/ad_listener.c.obj
 .text.ad_listener_unsubscribe
                0x00000000       0x6c examples/light_switch/provisioner/CMakeFiles/light_switch_provisioner_nrf52832_xxAA_s132_6.0.0.dir/__/__/__/mesh/bearer/src/ad_listener.c.obj
 .text          0x00000000        0x0 examples/light_switch/provisioner/CMakeFiles/light_switch_provisioner_nrf52832_xxAA_s132_6.0.0.dir/__/__/__/mesh/bearer/src/ad_type_filter.c.obj
 .data          0x00000000        0x0 examples/light_switch/provisioner/CMakeFiles/light_switch_provisioner_nrf52832_xxAA_s132_6.0.0.dir/__/__/__/mesh/bearer/src/ad_type_filter.c.obj
 .bss           0x00000000        0x0 examples/light_switch/provisioner/CMakeFiles/light_switch_provisioner_nrf52832_xxAA_s132_6.0.0.dir/__/__/__/mesh/bearer/src/ad_type_filter.c.obj
 .text.bearer_adtype_remove
                0x00000000       0x20 examples/light_switch/provisioner/CMakeFiles/light_switch_provisioner_nrf52832_xxAA_s132_6.0.0.dir/__/__/__/mesh/bearer/src/ad_type_filter.c.obj
 .text.bearer_adtype_clear
                0x00000000       0x10 examples/light_switch/provisioner/CMakeFiles/light_switch_provisioner_nrf52832_xxAA_s132_6.0.0.dir/__/__/__/mesh/bearer/src/ad_type_filter.c.obj
 .text.bearer_invalid_length_amount_get
                0x00000000        0xc examples/light_switch/provisioner/CMakeFiles/light_switch_provisioner_nrf52832_xxAA_s132_6.0.0.dir/__/__/__/mesh/bearer/src/ad_type_filter.c.obj
 .text.bearer_adtype_filtered_amount_get
                0x00000000        0xc examples/light_switch/provisioner/CMakeFiles/light_switch_provisioner_nrf52832_xxAA_s132_6.0.0.dir/__/__/__/mesh/bearer/src/ad_type_filter.c.obj
 .text          0x00000000        0x0 examples/light_switch/provisioner/CMakeFiles/light_switch_provisioner_nrf52832_xxAA_s132_6.0.0.dir/__/__/__/mesh/bearer/src/adv_packet_filter.c.obj
 .data          0x00000000        0x0 examples/light_switch/provisioner/CMakeFiles/light_switch_provisioner_nrf52832_xxAA_s132_6.0.0.dir/__/__/__/mesh/bearer/src/adv_packet_filter.c.obj
 .bss           0x00000000        0x0 examples/light_switch/provisioner/CMakeFiles/light_switch_provisioner_nrf52832_xxAA_s132_6.0.0.dir/__/__/__/mesh/bearer/src/adv_packet_filter.c.obj
 .text.adv_filter_handle
                0x00000000       0x3c examples/light_switch/provisioner/CMakeFiles/light_switch_provisioner_nrf52832_xxAA_s132_6.0.0.dir/__/__/__/mesh/bearer/src/adv_packet_filter.c.obj
 .text.bearer_adv_packet_filtering_set
                0x00000000       0x1c examples/light_switch/provisioner/CMakeFiles/light_switch_provisioner_nrf52832_xxAA_s132_6.0.0.dir/__/__/__/mesh/bearer/src/adv_packet_filter.c.obj
 .text.bearer_adv_packet_remove
                0x00000000       0x18 examples/light_switch/provisioner/CMakeFiles/light_switch_provisioner_nrf52832_xxAA_s132_6.0.0.dir/__/__/__/mesh/bearer/src/adv_packet_filter.c.obj
 .text.bearer_adv_packet_add
                0x00000000       0x14 examples/light_switch/provisioner/CMakeFiles/light_switch_provisioner_nrf52832_xxAA_s132_6.0.0.dir/__/__/__/mesh/bearer/src/adv_packet_filter.c.obj
 .text.bearer_adv_packet_clear
                0x00000000        0xc examples/light_switch/provisioner/CMakeFiles/light_switch_provisioner_nrf52832_xxAA_s132_6.0.0.dir/__/__/__/mesh/bearer/src/adv_packet_filter.c.obj
 .text.bearer_adv_packet_filter_mode_set
                0x00000000       0x18 examples/light_switch/provisioner/CMakeFiles/light_switch_provisioner_nrf52832_xxAA_s132_6.0.0.dir/__/__/__/mesh/bearer/src/adv_packet_filter.c.obj
 .text.bearer_adv_packet_filtered_amount_get
                0x00000000        0xc examples/light_switch/provisioner/CMakeFiles/light_switch_provisioner_nrf52832_xxAA_s132_6.0.0.dir/__/__/__/mesh/bearer/src/adv_packet_filter.c.obj
 .bss.m_adv_packet_filter
                0x00000000       0x14 examples/light_switch/provisioner/CMakeFiles/light_switch_provisioner_nrf52832_xxAA_s132_6.0.0.dir/__/__/__/mesh/bearer/src/adv_packet_filter.c.obj
 .debug_info    0x00000000      0xd97 examples/light_switch/provisioner/CMakeFiles/light_switch_provisioner_nrf52832_xxAA_s132_6.0.0.dir/__/__/__/mesh/bearer/src/adv_packet_filter.c.obj
 .debug_abbrev  0x00000000      0x2c9 examples/light_switch/provisioner/CMakeFiles/light_switch_provisioner_nrf52832_xxAA_s132_6.0.0.dir/__/__/__/mesh/bearer/src/adv_packet_filter.c.obj
 .debug_loc     0x00000000      0x1c0 examples/light_switch/provisioner/CMakeFiles/light_switch_provisioner_nrf52832_xxAA_s132_6.0.0.dir/__/__/__/mesh/bearer/src/adv_packet_filter.c.obj
 .debug_aranges
                0x00000000       0x50 examples/light_switch/provisioner/CMakeFiles/light_switch_provisioner_nrf52832_xxAA_s132_6.0.0.dir/__/__/__/mesh/bearer/src/adv_packet_filter.c.obj
 .debug_ranges  0x00000000       0x40 examples/light_switch/provisioner/CMakeFiles/light_switch_provisioner_nrf52832_xxAA_s132_6.0.0.dir/__/__/__/mesh/bearer/src/adv_packet_filter.c.obj
 .debug_line    0x00000000      0x35b examples/light_switch/provisioner/CMakeFiles/light_switch_provisioner_nrf52832_xxAA_s132_6.0.0.dir/__/__/__/mesh/bearer/src/adv_packet_filter.c.obj
 .debug_str     0x00000000      0xa28 examples/light_switch/provisioner/CMakeFiles/light_switch_provisioner_nrf52832_xxAA_s132_6.0.0.dir/__/__/__/mesh/bearer/src/adv_packet_filter.c.obj
 .comment       0x00000000       0x80 examples/light_switch/provisioner/CMakeFiles/light_switch_provisioner_nrf52832_xxAA_s132_6.0.0.dir/__/__/__/mesh/bearer/src/adv_packet_filter.c.obj
 .debug_frame   0x00000000       0x88 examples/light_switch/provisioner/CMakeFiles/light_switch_provisioner_nrf52832_xxAA_s132_6.0.0.dir/__/__/__/mesh/bearer/src/adv_packet_filter.c.obj
 .ARM.attributes
                0x00000000       0x39 examples/light_switch/provisioner/CMakeFiles/light_switch_provisioner_nrf52832_xxAA_s132_6.0.0.dir/__/__/__/mesh/bearer/src/adv_packet_filter.c.obj
 .text          0x00000000        0x0 examples/light_switch/provisioner/CMakeFiles/light_switch_provisioner_nrf52832_xxAA_s132_6.0.0.dir/__/__/__/mesh/bearer/src/advertiser.c.obj
 .data          0x00000000        0x0 examples/light_switch/provisioner/CMakeFiles/light_switch_provisioner_nrf52832_xxAA_s132_6.0.0.dir/__/__/__/mesh/bearer/src/advertiser.c.obj
 .bss           0x00000000        0x0 examples/light_switch/provisioner/CMakeFiles/light_switch_provisioner_nrf52832_xxAA_s132_6.0.0.dir/__/__/__/mesh/bearer/src/advertiser.c.obj
 .text.advertiser_disable
                0x00000000        0xa examples/light_switch/provisioner/CMakeFiles/light_switch_provisioner_nrf52832_xxAA_s132_6.0.0.dir/__/__/__/mesh/bearer/src/advertiser.c.obj
 .text.advertiser_channels_set
                0x00000000       0x60 examples/light_switch/provisioner/CMakeFiles/light_switch_provisioner_nrf52832_xxAA_s132_6.0.0.dir/__/__/__/mesh/bearer/src/advertiser.c.obj
 .text.advertiser_address_set
                0x00000000       0x3c examples/light_switch/provisioner/CMakeFiles/light_switch_provisioner_nrf52832_xxAA_s132_6.0.0.dir/__/__/__/mesh/bearer/src/advertiser.c.obj
 .text.advertiser_config_set
                0x00000000       0x36 examples/light_switch/provisioner/CMakeFiles/light_switch_provisioner_nrf52832_xxAA_s132_6.0.0.dir/__/__/__/mesh/bearer/src/advertiser.c.obj
 .text.advertiser_config_get
                0x00000000       0x20 examples/light_switch/provisioner/CMakeFiles/light_switch_provisioner_nrf52832_xxAA_s132_6.0.0.dir/__/__/__/mesh/bearer/src/advertiser.c.obj
 .text          0x00000000        0x0 examples/light_switch/provisioner/CMakeFiles/light_switch_provisioner_nrf52832_xxAA_s132_6.0.0.dir/__/__/__/mesh/bearer/src/bearer_handler.c.obj
 .data          0x00000000        0x0 examples/light_switch/provisioner/CMakeFiles/light_switch_provisioner_nrf52832_xxAA_s132_6.0.0.dir/__/__/__/mesh/bearer/src/bearer_handler.c.obj
 .bss           0x00000000        0x0 examples/light_switch/provisioner/CMakeFiles/light_switch_provisioner_nrf52832_xxAA_s132_6.0.0.dir/__/__/__/mesh/bearer/src/bearer_handler.c.obj
 .text.bearer_handler_stop
                0x00000000       0x20 examples/light_switch/provisioner/CMakeFiles/light_switch_provisioner_nrf52832_xxAA_s132_6.0.0.dir/__/__/__/mesh/bearer/src/bearer_handler.c.obj
 .text.bearer_handler_action_fire
                0x00000000       0x94 examples/light_switch/provisioner/CMakeFiles/light_switch_provisioner_nrf52832_xxAA_s132_6.0.0.dir/__/__/__/mesh/bearer/src/bearer_handler.c.obj
 .text          0x00000000        0x0 examples/light_switch/provisioner/CMakeFiles/light_switch_provisioner_nrf52832_xxAA_s132_6.0.0.dir/__/__/__/mesh/bearer/src/broadcast.c.obj
 .data          0x00000000        0x0 examples/light_switch/provisioner/CMakeFiles/light_switch_provisioner_nrf52832_xxAA_s132_6.0.0.dir/__/__/__/mesh/bearer/src/broadcast.c.obj
 .bss           0x00000000        0x0 examples/light_switch/provisioner/CMakeFiles/light_switch_provisioner_nrf52832_xxAA_s132_6.0.0.dir/__/__/__/mesh/bearer/src/broadcast.c.obj
 .text          0x00000000        0x0 examples/light_switch/provisioner/CMakeFiles/light_switch_provisioner_nrf52832_xxAA_s132_6.0.0.dir/__/__/__/mesh/bearer/src/filter_engine.c.obj
 .data          0x00000000        0x0 examples/light_switch/provisioner/CMakeFiles/light_switch_provisioner_nrf52832_xxAA_s132_6.0.0.dir/__/__/__/mesh/bearer/src/filter_engine.c.obj
 .bss           0x00000000        0x0 examples/light_switch/provisioner/CMakeFiles/light_switch_provisioner_nrf52832_xxAA_s132_6.0.0.dir/__/__/__/mesh/bearer/src/filter_engine.c.obj
 .text.fen_accepted_amount_get
                0x00000000        0xc examples/light_switch/provisioner/CMakeFiles/light_switch_provisioner_nrf52832_xxAA_s132_6.0.0.dir/__/__/__/mesh/bearer/src/filter_engine.c.obj
 .text          0x00000000        0x0 examples/light_switch/provisioner/CMakeFiles/light_switch_provisioner_nrf52832_xxAA_s132_6.0.0.dir/__/__/__/mesh/bearer/src/gap_address_filter.c.obj
 .data          0x00000000        0x0 examples/light_switch/provisioner/CMakeFiles/light_switch_provisioner_nrf52832_xxAA_s132_6.0.0.dir/__/__/__/mesh/bearer/src/gap_address_filter.c.obj
 .bss           0x00000000        0x0 examples/light_switch/provisioner/CMakeFiles/light_switch_provisioner_nrf52832_xxAA_s132_6.0.0.dir/__/__/__/mesh/bearer/src/gap_address_filter.c.obj
 .text.gap_address_filter_handle
                0x00000000       0xa6 examples/light_switch/provisioner/CMakeFiles/light_switch_provisioner_nrf52832_xxAA_s132_6.0.0.dir/__/__/__/mesh/bearer/src/gap_address_filter.c.obj
 .text.gap_addr_filter_set
                0x00000000       0x40 examples/light_switch/provisioner/CMakeFiles/light_switch_provisioner_nrf52832_xxAA_s132_6.0.0.dir/__/__/__/mesh/bearer/src/gap_address_filter.c.obj
 .text.bearer_filter_gap_addr_whitelist_set
                0x00000000        0x6 examples/light_switch/provisioner/CMakeFiles/light_switch_provisioner_nrf52832_xxAA_s132_6.0.0.dir/__/__/__/mesh/bearer/src/gap_address_filter.c.obj
 .text.bearer_filter_gap_addr_blacklist_set
                0x00000000        0x6 examples/light_switch/provisioner/CMakeFiles/light_switch_provisioner_nrf52832_xxAA_s132_6.0.0.dir/__/__/__/mesh/bearer/src/gap_address_filter.c.obj
 .text.bearer_filter_gap_addr_range_set
                0x00000000       0x38 examples/light_switch/provisioner/CMakeFiles/light_switch_provisioner_nrf52832_xxAA_s132_6.0.0.dir/__/__/__/mesh/bearer/src/gap_address_filter.c.obj
 .text.bearer_filter_gap_addr_clear
                0x00000000       0x20 examples/light_switch/provisioner/CMakeFiles/light_switch_provisioner_nrf52832_xxAA_s132_6.0.0.dir/__/__/__/mesh/bearer/src/gap_address_filter.c.obj
 .text.bearer_gap_addr_filtered_amount_get
                0x00000000        0xc examples/light_switch/provisioner/CMakeFiles/light_switch_provisioner_nrf52832_xxAA_s132_6.0.0.dir/__/__/__/mesh/bearer/src/gap_address_filter.c.obj
 .bss.m_addr_filter
                0x00000000       0x18 examples/light_switch/provisioner/CMakeFiles/light_switch_provisioner_nrf52832_xxAA_s132_6.0.0.dir/__/__/__/mesh/bearer/src/gap_address_filter.c.obj
 .debug_info    0x00000000      0xebb examples/light_switch/provisioner/CMakeFiles/light_switch_provisioner_nrf52832_xxAA_s132_6.0.0.dir/__/__/__/mesh/bearer/src/gap_address_filter.c.obj
 .debug_abbrev  0x00000000      0x2f4 examples/light_switch/provisioner/CMakeFiles/light_switch_provisioner_nrf52832_xxAA_s132_6.0.0.dir/__/__/__/mesh/bearer/src/gap_address_filter.c.obj
 .debug_loc     0x00000000      0x3e8 examples/light_switch/provisioner/CMakeFiles/light_switch_provisioner_nrf52832_xxAA_s132_6.0.0.dir/__/__/__/mesh/bearer/src/gap_address_filter.c.obj
 .debug_aranges
                0x00000000       0x50 examples/light_switch/provisioner/CMakeFiles/light_switch_provisioner_nrf52832_xxAA_s132_6.0.0.dir/__/__/__/mesh/bearer/src/gap_address_filter.c.obj
 .debug_ranges  0x00000000       0x58 examples/light_switch/provisioner/CMakeFiles/light_switch_provisioner_nrf52832_xxAA_s132_6.0.0.dir/__/__/__/mesh/bearer/src/gap_address_filter.c.obj
 .debug_line    0x00000000      0x3b3 examples/light_switch/provisioner/CMakeFiles/light_switch_provisioner_nrf52832_xxAA_s132_6.0.0.dir/__/__/__/mesh/bearer/src/gap_address_filter.c.obj
 .debug_str     0x00000000      0x982 examples/light_switch/provisioner/CMakeFiles/light_switch_provisioner_nrf52832_xxAA_s132_6.0.0.dir/__/__/__/mesh/bearer/src/gap_address_filter.c.obj
 .comment       0x00000000       0x80 examples/light_switch/provisioner/CMakeFiles/light_switch_provisioner_nrf52832_xxAA_s132_6.0.0.dir/__/__/__/mesh/bearer/src/gap_address_filter.c.obj
 .debug_frame   0x00000000       0xb4 examples/light_switch/provisioner/CMakeFiles/light_switch_provisioner_nrf52832_xxAA_s132_6.0.0.dir/__/__/__/mesh/bearer/src/gap_address_filter.c.obj
 .ARM.attributes
                0x00000000       0x39 examples/light_switch/provisioner/CMakeFiles/light_switch_provisioner_nrf52832_xxAA_s132_6.0.0.dir/__/__/__/mesh/bearer/src/gap_address_filter.c.obj
 .text          0x00000000        0x0 examples/light_switch/provisioner/CMakeFiles/light_switch_provisioner_nrf52832_xxAA_s132_6.0.0.dir/__/__/__/mesh/bearer/src/radio_config.c.obj
 .data          0x00000000        0x0 examples/light_switch/provisioner/CMakeFiles/light_switch_provisioner_nrf52832_xxAA_s132_6.0.0.dir/__/__/__/mesh/bearer/src/radio_config.c.obj
 .bss           0x00000000        0x0 examples/light_switch/provisioner/CMakeFiles/light_switch_provisioner_nrf52832_xxAA_s132_6.0.0.dir/__/__/__/mesh/bearer/src/radio_config.c.obj
 .text.radio_config_access_addr_get
                0x00000000       0x4c examples/light_switch/provisioner/CMakeFiles/light_switch_provisioner_nrf52832_xxAA_s132_6.0.0.dir/__/__/__/mesh/bearer/src/radio_config.c.obj
 .text          0x00000000        0x0 examples/light_switch/provisioner/CMakeFiles/light_switch_provisioner_nrf52832_xxAA_s132_6.0.0.dir/__/__/__/mesh/bearer/src/rssi_filter.c.obj
 .data          0x00000000        0x0 examples/light_switch/provisioner/CMakeFiles/light_switch_provisioner_nrf52832_xxAA_s132_6.0.0.dir/__/__/__/mesh/bearer/src/rssi_filter.c.obj
 .bss           0x00000000        0x0 examples/light_switch/provisioner/CMakeFiles/light_switch_provisioner_nrf52832_xxAA_s132_6.0.0.dir/__/__/__/mesh/bearer/src/rssi_filter.c.obj
 .text.rssi_filter_handle
                0x00000000       0x20 examples/light_switch/provisioner/CMakeFiles/light_switch_provisioner_nrf52832_xxAA_s132_6.0.0.dir/__/__/__/mesh/bearer/src/rssi_filter.c.obj
 .text.bearer_rssi_filtering_set
                0x00000000       0x34 examples/light_switch/provisioner/CMakeFiles/light_switch_provisioner_nrf52832_xxAA_s132_6.0.0.dir/__/__/__/mesh/bearer/src/rssi_filter.c.obj
 .text.bearer_rssi_filtered_amount_get
                0x00000000        0xc examples/light_switch/provisioner/CMakeFiles/light_switch_provisioner_nrf52832_xxAA_s132_6.0.0.dir/__/__/__/mesh/bearer/src/rssi_filter.c.obj
 .bss.m_rssi_filter
                0x00000000       0x18 examples/light_switch/provisioner/CMakeFiles/light_switch_provisioner_nrf52832_xxAA_s132_6.0.0.dir/__/__/__/mesh/bearer/src/rssi_filter.c.obj
 .debug_info    0x00000000      0xc73 examples/light_switch/provisioner/CMakeFiles/light_switch_provisioner_nrf52832_xxAA_s132_6.0.0.dir/__/__/__/mesh/bearer/src/rssi_filter.c.obj
 .debug_abbrev  0x00000000      0x28e examples/light_switch/provisioner/CMakeFiles/light_switch_provisioner_nrf52832_xxAA_s132_6.0.0.dir/__/__/__/mesh/bearer/src/rssi_filter.c.obj
 .debug_loc     0x00000000       0xb3 examples/light_switch/provisioner/CMakeFiles/light_switch_provisioner_nrf52832_xxAA_s132_6.0.0.dir/__/__/__/mesh/bearer/src/rssi_filter.c.obj
 .debug_aranges
                0x00000000       0x30 examples/light_switch/provisioner/CMakeFiles/light_switch_provisioner_nrf52832_xxAA_s132_6.0.0.dir/__/__/__/mesh/bearer/src/rssi_filter.c.obj
 .debug_ranges  0x00000000       0x20 examples/light_switch/provisioner/CMakeFiles/light_switch_provisioner_nrf52832_xxAA_s132_6.0.0.dir/__/__/__/mesh/bearer/src/rssi_filter.c.obj
 .debug_line    0x00000000      0x2d0 examples/light_switch/provisioner/CMakeFiles/light_switch_provisioner_nrf52832_xxAA_s132_6.0.0.dir/__/__/__/mesh/bearer/src/rssi_filter.c.obj
 .debug_str     0x00000000      0x83d examples/light_switch/provisioner/CMakeFiles/light_switch_provisioner_nrf52832_xxAA_s132_6.0.0.dir/__/__/__/mesh/bearer/src/rssi_filter.c.obj
 .comment       0x00000000       0x80 examples/light_switch/provisioner/CMakeFiles/light_switch_provisioner_nrf52832_xxAA_s132_6.0.0.dir/__/__/__/mesh/bearer/src/rssi_filter.c.obj
 .debug_frame   0x00000000       0x54 examples/light_switch/provisioner/CMakeFiles/light_switch_provisioner_nrf52832_xxAA_s132_6.0.0.dir/__/__/__/mesh/bearer/src/rssi_filter.c.obj
 .ARM.attributes
                0x00000000       0x39 examples/light_switch/provisioner/CMakeFiles/light_switch_provisioner_nrf52832_xxAA_s132_6.0.0.dir/__/__/__/mesh/bearer/src/rssi_filter.c.obj
 .text          0x00000000        0x0 examples/light_switch/provisioner/CMakeFiles/light_switch_provisioner_nrf52832_xxAA_s132_6.0.0.dir/__/__/__/mesh/bearer/src/scanner.c.obj
 .data          0x00000000        0x0 examples/light_switch/provisioner/CMakeFiles/light_switch_provisioner_nrf52832_xxAA_s132_6.0.0.dir/__/__/__/mesh/bearer/src/scanner.c.obj
 .bss           0x00000000        0x0 examples/light_switch/provisioner/CMakeFiles/light_switch_provisioner_nrf52832_xxAA_s132_6.0.0.dir/__/__/__/mesh/bearer/src/scanner.c.obj
 .text.scanner_rx_callback_set
                0x00000000       0x20 examples/light_switch/provisioner/CMakeFiles/light_switch_provisioner_nrf52832_xxAA_s132_6.0.0.dir/__/__/__/mesh/bearer/src/scanner.c.obj
 .text.scanner_disable
                0x00000000       0x3c examples/light_switch/provisioner/CMakeFiles/light_switch_provisioner_nrf52832_xxAA_s132_6.0.0.dir/__/__/__/mesh/bearer/src/scanner.c.obj
 .text.scanner_is_enabled
                0x00000000       0x10 examples/light_switch/provisioner/CMakeFiles/light_switch_provisioner_nrf52832_xxAA_s132_6.0.0.dir/__/__/__/mesh/bearer/src/scanner.c.obj
 .text.scanner_stats_get
                0x00000000        0x8 examples/light_switch/provisioner/CMakeFiles/light_switch_provisioner_nrf52832_xxAA_s132_6.0.0.dir/__/__/__/mesh/bearer/src/scanner.c.obj
 .text.scanner_config_radio_mode_set
                0x00000000       0x10 examples/light_switch/provisioner/CMakeFiles/light_switch_provisioner_nrf52832_xxAA_s132_6.0.0.dir/__/__/__/mesh/bearer/src/scanner.c.obj
 .text          0x00000000        0x0 examples/light_switch/provisioner/CMakeFiles/light_switch_provisioner_nrf52832_xxAA_s132_6.0.0.dir/__/__/__/models/simple_on_off/src/simple_on_off_client.c.obj
 .data          0x00000000        0x0 examples/light_switch/provisioner/CMakeFiles/light_switch_provisioner_nrf52832_xxAA_s132_6.0.0.dir/__/__/__/models/simple_on_off/src/simple_on_off_client.c.obj
 .bss           0x00000000        0x0 examples/light_switch/provisioner/CMakeFiles/light_switch_provisioner_nrf52832_xxAA_s132_6.0.0.dir/__/__/__/models/simple_on_off/src/simple_on_off_client.c.obj
 .text.handle_publish_timeout
                0x00000000        0x8 examples/light_switch/provisioner/CMakeFiles/light_switch_provisioner_nrf52832_xxAA_s132_6.0.0.dir/__/__/__/models/simple_on_off/src/simple_on_off_client.c.obj
 .text.reliable_status_cb
                0x00000000       0x3c examples/light_switch/provisioner/CMakeFiles/light_switch_provisioner_nrf52832_xxAA_s132_6.0.0.dir/__/__/__/models/simple_on_off/src/simple_on_off_client.c.obj
 .text.handle_status_cb
                0x00000000       0x50 examples/light_switch/provisioner/CMakeFiles/light_switch_provisioner_nrf52832_xxAA_s132_6.0.0.dir/__/__/__/models/simple_on_off/src/simple_on_off_client.c.obj
 .text.simple_on_off_client_init
                0x00000000       0x40 examples/light_switch/provisioner/CMakeFiles/light_switch_provisioner_nrf52832_xxAA_s132_6.0.0.dir/__/__/__/models/simple_on_off/src/simple_on_off_client.c.obj
 .text.simple_on_off_client_set
                0x00000000       0x78 examples/light_switch/provisioner/CMakeFiles/light_switch_provisioner_nrf52832_xxAA_s132_6.0.0.dir/__/__/__/models/simple_on_off/src/simple_on_off_client.c.obj
 .text.simple_on_off_client_set_unreliable
                0x00000000       0x58 examples/light_switch/provisioner/CMakeFiles/light_switch_provisioner_nrf52832_xxAA_s132_6.0.0.dir/__/__/__/models/simple_on_off/src/simple_on_off_client.c.obj
 .text.simple_on_off_client_get
                0x00000000       0x64 examples/light_switch/provisioner/CMakeFiles/light_switch_provisioner_nrf52832_xxAA_s132_6.0.0.dir/__/__/__/models/simple_on_off/src/simple_on_off_client.c.obj
 .text.simple_on_off_client_pending_msg_cancel
                0x00000000        0x6 examples/light_switch/provisioner/CMakeFiles/light_switch_provisioner_nrf52832_xxAA_s132_6.0.0.dir/__/__/__/models/simple_on_off/src/simple_on_off_client.c.obj
 .bss.m_tid     0x00000000        0x1 examples/light_switch/provisioner/CMakeFiles/light_switch_provisioner_nrf52832_xxAA_s132_6.0.0.dir/__/__/__/models/simple_on_off/src/simple_on_off_client.c.obj
 .rodata.m_opcode_handlers
                0x00000000        0x8 examples/light_switch/provisioner/CMakeFiles/light_switch_provisioner_nrf52832_xxAA_s132_6.0.0.dir/__/__/__/models/simple_on_off/src/simple_on_off_client.c.obj
 .debug_info    0x00000000     0x16d0 examples/light_switch/provisioner/CMakeFiles/light_switch_provisioner_nrf52832_xxAA_s132_6.0.0.dir/__/__/__/models/simple_on_off/src/simple_on_off_client.c.obj
 .debug_abbrev  0x00000000      0x3c6 examples/light_switch/provisioner/CMakeFiles/light_switch_provisioner_nrf52832_xxAA_s132_6.0.0.dir/__/__/__/models/simple_on_off/src/simple_on_off_client.c.obj
 .debug_loc     0x00000000      0x5a7 examples/light_switch/provisioner/CMakeFiles/light_switch_provisioner_nrf52832_xxAA_s132_6.0.0.dir/__/__/__/models/simple_on_off/src/simple_on_off_client.c.obj
 .debug_aranges
                0x00000000       0x58 examples/light_switch/provisioner/CMakeFiles/light_switch_provisioner_nrf52832_xxAA_s132_6.0.0.dir/__/__/__/models/simple_on_off/src/simple_on_off_client.c.obj
 .debug_ranges  0x00000000       0x90 examples/light_switch/provisioner/CMakeFiles/light_switch_provisioner_nrf52832_xxAA_s132_6.0.0.dir/__/__/__/models/simple_on_off/src/simple_on_off_client.c.obj
 .debug_line    0x00000000      0x472 examples/light_switch/provisioner/CMakeFiles/light_switch_provisioner_nrf52832_xxAA_s132_6.0.0.dir/__/__/__/models/simple_on_off/src/simple_on_off_client.c.obj
 .debug_str     0x00000000     0x10ea examples/light_switch/provisioner/CMakeFiles/light_switch_provisioner_nrf52832_xxAA_s132_6.0.0.dir/__/__/__/models/simple_on_off/src/simple_on_off_client.c.obj
 .comment       0x00000000       0x80 examples/light_switch/provisioner/CMakeFiles/light_switch_provisioner_nrf52832_xxAA_s132_6.0.0.dir/__/__/__/models/simple_on_off/src/simple_on_off_client.c.obj
 .debug_frame   0x00000000      0x100 examples/light_switch/provisioner/CMakeFiles/light_switch_provisioner_nrf52832_xxAA_s132_6.0.0.dir/__/__/__/models/simple_on_off/src/simple_on_off_client.c.obj
 .ARM.attributes
                0x00000000       0x39 examples/light_switch/provisioner/CMakeFiles/light_switch_provisioner_nrf52832_xxAA_s132_6.0.0.dir/__/__/__/models/simple_on_off/src/simple_on_off_client.c.obj
 .text          0x00000000        0x0 examples/light_switch/provisioner/CMakeFiles/light_switch_provisioner_nrf52832_xxAA_s132_6.0.0.dir/__/__/__/models/config/src/config_client.c.obj
 .data          0x00000000        0x0 examples/light_switch/provisioner/CMakeFiles/light_switch_provisioner_nrf52832_xxAA_s132_6.0.0.dir/__/__/__/models/config/src/config_client.c.obj
 .bss           0x00000000        0x0 examples/light_switch/provisioner/CMakeFiles/light_switch_provisioner_nrf52832_xxAA_s132_6.0.0.dir/__/__/__/models/config/src/config_client.c.obj
 .text.config_client_appkey_delete
                0x00000000       0x60 examples/light_switch/provisioner/CMakeFiles/light_switch_provisioner_nrf52832_xxAA_s132_6.0.0.dir/__/__/__/models/config/src/config_client.c.obj
 .text.config_client_appkey_get
                0x00000000       0x50 examples/light_switch/provisioner/CMakeFiles/light_switch_provisioner_nrf52832_xxAA_s132_6.0.0.dir/__/__/__/models/config/src/config_client.c.obj
 .text.config_client_appkey_update
                0x00000000       0x68 examples/light_switch/provisioner/CMakeFiles/light_switch_provisioner_nrf52832_xxAA_s132_6.0.0.dir/__/__/__/models/config/src/config_client.c.obj
 .text.config_client_model_publication_get
                0x00000000       0x74 examples/light_switch/provisioner/CMakeFiles/light_switch_provisioner_nrf52832_xxAA_s132_6.0.0.dir/__/__/__/models/config/src/config_client.c.obj
 .text.config_client_net_beacon_get
                0x00000000       0x28 examples/light_switch/provisioner/CMakeFiles/light_switch_provisioner_nrf52832_xxAA_s132_6.0.0.dir/__/__/__/models/config/src/config_client.c.obj
 .text.config_client_net_beacon_set
                0x00000000       0x4c examples/light_switch/provisioner/CMakeFiles/light_switch_provisioner_nrf52832_xxAA_s132_6.0.0.dir/__/__/__/models/config/src/config_client.c.obj
 .text.config_client_default_ttl_get
                0x00000000        0xe examples/light_switch/provisioner/CMakeFiles/light_switch_provisioner_nrf52832_xxAA_s132_6.0.0.dir/__/__/__/models/config/src/config_client.c.obj
 .text.config_client_default_ttl_set
                0x00000000       0x54 examples/light_switch/provisioner/CMakeFiles/light_switch_provisioner_nrf52832_xxAA_s132_6.0.0.dir/__/__/__/models/config/src/config_client.c.obj
 .text.config_client_model_subscription_delete
                0x00000000       0x4c examples/light_switch/provisioner/CMakeFiles/light_switch_provisioner_nrf52832_xxAA_s132_6.0.0.dir/__/__/__/models/config/src/config_client.c.obj
 .text.config_client_model_subscription_delete_all
                0x00000000       0x74 examples/light_switch/provisioner/CMakeFiles/light_switch_provisioner_nrf52832_xxAA_s132_6.0.0.dir/__/__/__/models/config/src/config_client.c.obj
 .text.config_client_model_subscription_get
                0x00000000       0x7c examples/light_switch/provisioner/CMakeFiles/light_switch_provisioner_nrf52832_xxAA_s132_6.0.0.dir/__/__/__/models/config/src/config_client.c.obj
 .text.config_client_model_subscription_overwrite
                0x00000000       0x4c examples/light_switch/provisioner/CMakeFiles/light_switch_provisioner_nrf52832_xxAA_s132_6.0.0.dir/__/__/__/models/config/src/config_client.c.obj
 .text.config_client_relay_get
                0x00000000        0xe examples/light_switch/provisioner/CMakeFiles/light_switch_provisioner_nrf52832_xxAA_s132_6.0.0.dir/__/__/__/models/config/src/config_client.c.obj
 .text.config_client_relay_set
                0x00000000       0x68 examples/light_switch/provisioner/CMakeFiles/light_switch_provisioner_nrf52832_xxAA_s132_6.0.0.dir/__/__/__/models/config/src/config_client.c.obj
 .text.config_client_model_app_get
                0x00000000       0x7c examples/light_switch/provisioner/CMakeFiles/light_switch_provisioner_nrf52832_xxAA_s132_6.0.0.dir/__/__/__/models/config/src/config_client.c.obj
 .text.config_client_model_app_unbind
                0x00000000        0xe examples/light_switch/provisioner/CMakeFiles/light_switch_provisioner_nrf52832_xxAA_s132_6.0.0.dir/__/__/__/models/config/src/config_client.c.obj
 .text.config_client_netkey_add
                0x00000000       0x5c examples/light_switch/provisioner/CMakeFiles/light_switch_provisioner_nrf52832_xxAA_s132_6.0.0.dir/__/__/__/models/config/src/config_client.c.obj
 .text.config_client_netkey_delete
                0x00000000       0x50 examples/light_switch/provisioner/CMakeFiles/light_switch_provisioner_nrf52832_xxAA_s132_6.0.0.dir/__/__/__/models/config/src/config_client.c.obj
 .text.config_client_netkey_get
                0x00000000       0x28 examples/light_switch/provisioner/CMakeFiles/light_switch_provisioner_nrf52832_xxAA_s132_6.0.0.dir/__/__/__/models/config/src/config_client.c.obj
 .text.config_client_netkey_update
                0x00000000       0x5c examples/light_switch/provisioner/CMakeFiles/light_switch_provisioner_nrf52832_xxAA_s132_6.0.0.dir/__/__/__/models/config/src/config_client.c.obj
 .text.config_client_node_reset
                0x00000000       0x28 examples/light_switch/provisioner/CMakeFiles/light_switch_provisioner_nrf52832_xxAA_s132_6.0.0.dir/__/__/__/models/config/src/config_client.c.obj
 .text.config_client_key_refresh_phase_get
                0x00000000       0x50 examples/light_switch/provisioner/CMakeFiles/light_switch_provisioner_nrf52832_xxAA_s132_6.0.0.dir/__/__/__/models/config/src/config_client.c.obj
 .text.config_client_key_refresh_phase_set
                0x00000000       0x54 examples/light_switch/provisioner/CMakeFiles/light_switch_provisioner_nrf52832_xxAA_s132_6.0.0.dir/__/__/__/models/config/src/config_client.c.obj
 .text.config_client_friend_get
                0x00000000        0x4 examples/light_switch/provisioner/CMakeFiles/light_switch_provisioner_nrf52832_xxAA_s132_6.0.0.dir/__/__/__/models/config/src/config_client.c.obj
 .text.config_client_friend_set
                0x00000000        0x4 examples/light_switch/provisioner/CMakeFiles/light_switch_provisioner_nrf52832_xxAA_s132_6.0.0.dir/__/__/__/models/config/src/config_client.c.obj
 .text.config_client_gatt_proxy_get
                0x00000000        0x4 examples/light_switch/provisioner/CMakeFiles/light_switch_provisioner_nrf52832_xxAA_s132_6.0.0.dir/__/__/__/models/config/src/config_client.c.obj
 .text.config_client_gatt_proxy_set
                0x00000000        0x4 examples/light_switch/provisioner/CMakeFiles/light_switch_provisioner_nrf52832_xxAA_s132_6.0.0.dir/__/__/__/models/config/src/config_client.c.obj
 .text.config_client_node_identity_get
                0x00000000        0x4 examples/light_switch/provisioner/CMakeFiles/light_switch_provisioner_nrf52832_xxAA_s132_6.0.0.dir/__/__/__/models/config/src/config_client.c.obj
 .text.config_client_node_identity_set
                0x00000000        0x4 examples/light_switch/provisioner/CMakeFiles/light_switch_provisioner_nrf52832_xxAA_s132_6.0.0.dir/__/__/__/models/config/src/config_client.c.obj
 .text.config_client_heartbeat_publication_get
                0x00000000       0x26 examples/light_switch/provisioner/CMakeFiles/light_switch_provisioner_nrf52832_xxAA_s132_6.0.0.dir/__/__/__/models/config/src/config_client.c.obj
 .text.config_client_heartbeat_publication_set
                0x00000000       0x54 examples/light_switch/provisioner/CMakeFiles/light_switch_provisioner_nrf52832_xxAA_s132_6.0.0.dir/__/__/__/models/config/src/config_client.c.obj
 .text.config_client_heartbeat_subscription_get
                0x00000000       0x28 examples/light_switch/provisioner/CMakeFiles/light_switch_provisioner_nrf52832_xxAA_s132_6.0.0.dir/__/__/__/models/config/src/config_client.c.obj
 .text.config_client_heartbeat_subscription_set
                0x00000000       0x50 examples/light_switch/provisioner/CMakeFiles/light_switch_provisioner_nrf52832_xxAA_s132_6.0.0.dir/__/__/__/models/config/src/config_client.c.obj
 .text          0x00000000        0x0 examples/light_switch/provisioner/CMakeFiles/light_switch_provisioner_nrf52832_xxAA_s132_6.0.0.dir/__/__/__/models/config/src/composition_data.c.obj
 .data          0x00000000        0x0 examples/light_switch/provisioner/CMakeFiles/light_switch_provisioner_nrf52832_xxAA_s132_6.0.0.dir/__/__/__/models/config/src/composition_data.c.obj
 .bss           0x00000000        0x0 examples/light_switch/provisioner/CMakeFiles/light_switch_provisioner_nrf52832_xxAA_s132_6.0.0.dir/__/__/__/models/config/src/composition_data.c.obj
 .text          0x00000000        0x0 examples/light_switch/provisioner/CMakeFiles/light_switch_provisioner_nrf52832_xxAA_s132_6.0.0.dir/__/__/__/models/config/src/config_server.c.obj
 .data          0x00000000        0x0 examples/light_switch/provisioner/CMakeFiles/light_switch_provisioner_nrf52832_xxAA_s132_6.0.0.dir/__/__/__/models/config/src/config_server.c.obj
 .bss           0x00000000        0x0 examples/light_switch/provisioner/CMakeFiles/light_switch_provisioner_nrf52832_xxAA_s132_6.0.0.dir/__/__/__/models/config/src/config_server.c.obj
 .text          0x00000000        0x0 examples/light_switch/provisioner/CMakeFiles/light_switch_provisioner_nrf52832_xxAA_s132_6.0.0.dir/__/__/__/models/config/src/packed_index_list.c.obj
 .data          0x00000000        0x0 examples/light_switch/provisioner/CMakeFiles/light_switch_provisioner_nrf52832_xxAA_s132_6.0.0.dir/__/__/__/models/config/src/packed_index_list.c.obj
 .bss           0x00000000        0x0 examples/light_switch/provisioner/CMakeFiles/light_switch_provisioner_nrf52832_xxAA_s132_6.0.0.dir/__/__/__/models/config/src/packed_index_list.c.obj
 .text          0x00000000        0x0 examples/light_switch/provisioner/CMakeFiles/light_switch_provisioner_nrf52832_xxAA_s132_6.0.0.dir/__/__/__/models/health/src/health_server.c.obj
 .data          0x00000000        0x0 examples/light_switch/provisioner/CMakeFiles/light_switch_provisioner_nrf52832_xxAA_s132_6.0.0.dir/__/__/__/models/health/src/health_server.c.obj
 .bss           0x00000000        0x0 examples/light_switch/provisioner/CMakeFiles/light_switch_provisioner_nrf52832_xxAA_s132_6.0.0.dir/__/__/__/models/health/src/health_server.c.obj
 .text.health_server_fault_is_set
                0x00000000       0x1c examples/light_switch/provisioner/CMakeFiles/light_switch_provisioner_nrf52832_xxAA_s132_6.0.0.dir/__/__/__/models/health/src/health_server.c.obj
 .text.health_server_fault_count_get
                0x00000000        0xc examples/light_switch/provisioner/CMakeFiles/light_switch_provisioner_nrf52832_xxAA_s132_6.0.0.dir/__/__/__/models/health/src/health_server.c.obj
 .text.health_server_fault_register
                0x00000000       0xca examples/light_switch/provisioner/CMakeFiles/light_switch_provisioner_nrf52832_xxAA_s132_6.0.0.dir/__/__/__/models/health/src/health_server.c.obj
 .text.health_server_fault_clear
                0x00000000       0x48 examples/light_switch/provisioner/CMakeFiles/light_switch_provisioner_nrf52832_xxAA_s132_6.0.0.dir/__/__/__/models/health/src/health_server.c.obj
 .text.health_server_attention_get
                0x00000000        0x6 examples/light_switch/provisioner/CMakeFiles/light_switch_provisioner_nrf52832_xxAA_s132_6.0.0.dir/__/__/__/models/health/src/health_server.c.obj
 .text.health_server_attention_set
                0x00000000        0x4 examples/light_switch/provisioner/CMakeFiles/light_switch_provisioner_nrf52832_xxAA_s132_6.0.0.dir/__/__/__/models/health/src/health_server.c.obj
 .text          0x00000000        0x0 examples/light_switch/provisioner/CMakeFiles/light_switch_provisioner_nrf52832_xxAA_s132_6.0.0.dir/__/__/__/models/health/src/health_client.c.obj
 .data          0x00000000        0x0 examples/light_switch/provisioner/CMakeFiles/light_switch_provisioner_nrf52832_xxAA_s132_6.0.0.dir/__/__/__/models/health/src/health_client.c.obj
 .bss           0x00000000        0x0 examples/light_switch/provisioner/CMakeFiles/light_switch_provisioner_nrf52832_xxAA_s132_6.0.0.dir/__/__/__/models/health/src/health_client.c.obj
 .text.reliable_send
                0x00000000       0xb4 examples/light_switch/provisioner/CMakeFiles/light_switch_provisioner_nrf52832_xxAA_s132_6.0.0.dir/__/__/__/models/health/src/health_client.c.obj
 .text.reliable_status_cb
                0x00000000       0x42 examples/light_switch/provisioner/CMakeFiles/light_switch_provisioner_nrf52832_xxAA_s132_6.0.0.dir/__/__/__/models/health/src/health_client.c.obj
 .text.health_client_fault_get
                0x00000000       0x1c examples/light_switch/provisioner/CMakeFiles/light_switch_provisioner_nrf52832_xxAA_s132_6.0.0.dir/__/__/__/models/health/src/health_client.c.obj
 .text.health_client_fault_clear
                0x00000000       0x54 examples/light_switch/provisioner/CMakeFiles/light_switch_provisioner_nrf52832_xxAA_s132_6.0.0.dir/__/__/__/models/health/src/health_client.c.obj
 .text.health_client_fault_test
                0x00000000       0x5a examples/light_switch/provisioner/CMakeFiles/light_switch_provisioner_nrf52832_xxAA_s132_6.0.0.dir/__/__/__/models/health/src/health_client.c.obj
 .text.health_client_period_get
                0x00000000       0x18 examples/light_switch/provisioner/CMakeFiles/light_switch_provisioner_nrf52832_xxAA_s132_6.0.0.dir/__/__/__/models/health/src/health_client.c.obj
 .text.health_client_period_set
                0x00000000       0x58 examples/light_switch/provisioner/CMakeFiles/light_switch_provisioner_nrf52832_xxAA_s132_6.0.0.dir/__/__/__/models/health/src/health_client.c.obj
 .text.health_client_attention_get
                0x00000000       0x18 examples/light_switch/provisioner/CMakeFiles/light_switch_provisioner_nrf52832_xxAA_s132_6.0.0.dir/__/__/__/models/health/src/health_client.c.obj
 .text.health_client_attention_set
                0x00000000       0x58 examples/light_switch/provisioner/CMakeFiles/light_switch_provisioner_nrf52832_xxAA_s132_6.0.0.dir/__/__/__/models/health/src/health_client.c.obj
 .text.health_client_pending_msg_cancel
                0x00000000        0x6 examples/light_switch/provisioner/CMakeFiles/light_switch_provisioner_nrf52832_xxAA_s132_6.0.0.dir/__/__/__/models/health/src/health_client.c.obj
 .text          0x00000000        0x0 examples/light_switch/provisioner/CMakeFiles/light_switch_provisioner_nrf52832_xxAA_s132_6.0.0.dir/__/__/__/mesh/access/src/access_publish.c.obj
 .data          0x00000000        0x0 examples/light_switch/provisioner/CMakeFiles/light_switch_provisioner_nrf52832_xxAA_s132_6.0.0.dir/__/__/__/mesh/access/src/access_publish.c.obj
 .bss           0x00000000        0x0 examples/light_switch/provisioner/CMakeFiles/light_switch_provisioner_nrf52832_xxAA_s132_6.0.0.dir/__/__/__/mesh/access/src/access_publish.c.obj
 .text          0x00000000        0x0 examples/light_switch/provisioner/CMakeFiles/light_switch_provisioner_nrf52832_xxAA_s132_6.0.0.dir/__/__/__/mesh/access/src/access.c.obj
 .data          0x00000000        0x0 examples/light_switch/provisioner/CMakeFiles/light_switch_provisioner_nrf52832_xxAA_s132_6.0.0.dir/__/__/__/mesh/access/src/access.c.obj
 .bss           0x00000000        0x0 examples/light_switch/provisioner/CMakeFiles/light_switch_provisioner_nrf52832_xxAA_s132_6.0.0.dir/__/__/__/mesh/access/src/access.c.obj
 .text.access_model_subscription_lists_share
                0x00000000       0x4c examples/light_switch/provisioner/CMakeFiles/light_switch_provisioner_nrf52832_xxAA_s132_6.0.0.dir/__/__/__/mesh/access/src/access.c.obj
 .text.access_element_location_set
                0x00000000       0x20 examples/light_switch/provisioner/CMakeFiles/light_switch_provisioner_nrf52832_xxAA_s132_6.0.0.dir/__/__/__/mesh/access/src/access.c.obj
 .text          0x00000000        0x0 examples/light_switch/provisioner/CMakeFiles/light_switch_provisioner_nrf52832_xxAA_s132_6.0.0.dir/__/__/__/mesh/access/src/access_reliable.c.obj
 .data          0x00000000        0x0 examples/light_switch/provisioner/CMakeFiles/light_switch_provisioner_nrf52832_xxAA_s132_6.0.0.dir/__/__/__/mesh/access/src/access_reliable.c.obj
 .bss           0x00000000        0x0 examples/light_switch/provisioner/CMakeFiles/light_switch_provisioner_nrf52832_xxAA_s132_6.0.0.dir/__/__/__/mesh/access/src/access_reliable.c.obj
 .text          0x00000000        0x0 examples/light_switch/provisioner/CMakeFiles/light_switch_provisioner_nrf52832_xxAA_s132_6.0.0.dir/__/__/__/mesh/access/src/device_state_manager.c.obj
 .data          0x00000000        0x0 examples/light_switch/provisioner/CMakeFiles/light_switch_provisioner_nrf52832_xxAA_s132_6.0.0.dir/__/__/__/mesh/access/src/device_state_manager.c.obj
 .bss           0x00000000        0x0 examples/light_switch/provisioner/CMakeFiles/light_switch_provisioner_nrf52832_xxAA_s132_6.0.0.dir/__/__/__/mesh/access/src/device_state_manager.c.obj
 .text.dsm_has_unflashed_data
                0x00000000       0x24 examples/light_switch/provisioner/CMakeFiles/light_switch_provisioner_nrf52832_xxAA_s132_6.0.0.dir/__/__/__/mesh/access/src/device_state_manager.c.obj
 .text.dsm_address_subscription_count_get
                0x00000000       0x58 examples/light_switch/provisioner/CMakeFiles/light_switch_provisioner_nrf52832_xxAA_s132_6.0.0.dir/__/__/__/mesh/access/src/device_state_manager.c.obj
 .text.dsm_address_get_all
                0x00000000       0x64 examples/light_switch/provisioner/CMakeFiles/light_switch_provisioner_nrf52832_xxAA_s132_6.0.0.dir/__/__/__/mesh/access/src/device_state_manager.c.obj
 .text.dsm_subnet_handle_to_netkey_index
                0x00000000       0x30 examples/light_switch/provisioner/CMakeFiles/light_switch_provisioner_nrf52832_xxAA_s132_6.0.0.dir/__/__/__/mesh/access/src/device_state_manager.c.obj
 .text.dsm_devkey_delete
                0x00000000       0x40 examples/light_switch/provisioner/CMakeFiles/light_switch_provisioner_nrf52832_xxAA_s132_6.0.0.dir/__/__/__/mesh/access/src/device_state_manager.c.obj
 .text.dsm_beacon_info_get
                0x00000000       0x2c examples/light_switch/provisioner/CMakeFiles/light_switch_provisioner_nrf52832_xxAA_s132_6.0.0.dir/__/__/__/mesh/access/src/device_state_manager.c.obj
 .text          0x00000000        0x0 examples/light_switch/provisioner/CMakeFiles/light_switch_provisioner_nrf52832_xxAA_s132_6.0.0.dir/__/__/__/mesh/prov/src/prov_provisioner.c.obj
 .data          0x00000000        0x0 examples/light_switch/provisioner/CMakeFiles/light_switch_provisioner_nrf52832_xxAA_s132_6.0.0.dir/__/__/__/mesh/prov/src/prov_provisioner.c.obj
 .bss           0x00000000        0x0 examples/light_switch/provisioner/CMakeFiles/light_switch_provisioner_nrf52832_xxAA_s132_6.0.0.dir/__/__/__/mesh/prov/src/prov_provisioner.c.obj
 .text.prov_provisioner_shared_secret
                0x00000000       0x28 examples/light_switch/provisioner/CMakeFiles/light_switch_provisioner_nrf52832_xxAA_s132_6.0.0.dir/__/__/__/mesh/prov/src/prov_provisioner.c.obj
 .text.prov_provisioner_oob_pubkey
                0x00000000       0x30 examples/light_switch/provisioner/CMakeFiles/light_switch_provisioner_nrf52832_xxAA_s132_6.0.0.dir/__/__/__/mesh/prov/src/prov_provisioner.c.obj
 .text          0x00000000        0x0 examples/light_switch/provisioner/CMakeFiles/light_switch_provisioner_nrf52832_xxAA_s132_6.0.0.dir/__/__/__/mesh/prov/src/nrf_mesh_prov.c.obj
 .data          0x00000000        0x0 examples/light_switch/provisioner/CMakeFiles/light_switch_provisioner_nrf52832_xxAA_s132_6.0.0.dir/__/__/__/mesh/prov/src/nrf_mesh_prov.c.obj
 .bss           0x00000000        0x0 examples/light_switch/provisioner/CMakeFiles/light_switch_provisioner_nrf52832_xxAA_s132_6.0.0.dir/__/__/__/mesh/prov/src/nrf_mesh_prov.c.obj
 .text.bitfield_next_get.part.0.constprop.4
                0x00000000       0x34 examples/light_switch/provisioner/CMakeFiles/light_switch_provisioner_nrf52832_xxAA_s132_6.0.0.dir/__/__/__/mesh/prov/src/nrf_mesh_prov.c.obj
 .text.nrf_mesh_prov_listen_stop
                0x00000000       0x2e examples/light_switch/provisioner/CMakeFiles/light_switch_provisioner_nrf52832_xxAA_s132_6.0.0.dir/__/__/__/mesh/prov/src/nrf_mesh_prov.c.obj
 .text.nrf_mesh_prov_listen
                0x00000000       0x88 examples/light_switch/provisioner/CMakeFiles/light_switch_provisioner_nrf52832_xxAA_s132_6.0.0.dir/__/__/__/mesh/prov/src/nrf_mesh_prov.c.obj
 .text.nrf_mesh_prov_shared_secret_provide
                0x00000000        0xe examples/light_switch/provisioner/CMakeFiles/light_switch_provisioner_nrf52832_xxAA_s132_6.0.0.dir/__/__/__/mesh/prov/src/nrf_mesh_prov.c.obj
 .text.nrf_mesh_prov_pubkey_provide
                0x00000000       0x10 examples/light_switch/provisioner/CMakeFiles/light_switch_provisioner_nrf52832_xxAA_s132_6.0.0.dir/__/__/__/mesh/prov/src/nrf_mesh_prov.c.obj
 .text.nrf_mesh_prov_scan_stop
                0x00000000        0x4 examples/light_switch/provisioner/CMakeFiles/light_switch_provisioner_nrf52832_xxAA_s132_6.0.0.dir/__/__/__/mesh/prov/src/nrf_mesh_prov.c.obj
 .rodata.multiply_de_bruijn_bit_position.9313
                0x00000000       0x20 examples/light_switch/provisioner/CMakeFiles/light_switch_provisioner_nrf52832_xxAA_s132_6.0.0.dir/__/__/__/mesh/prov/src/nrf_mesh_prov.c.obj
 .text          0x00000000        0x0 examples/light_switch/provisioner/CMakeFiles/light_switch_provisioner_nrf52832_xxAA_s132_6.0.0.dir/__/__/__/mesh/prov/src/provisioning.c.obj
 .data          0x00000000        0x0 examples/light_switch/provisioner/CMakeFiles/light_switch_provisioner_nrf52832_xxAA_s132_6.0.0.dir/__/__/__/mesh/prov/src/provisioning.c.obj
 .bss           0x00000000        0x0 examples/light_switch/provisioner/CMakeFiles/light_switch_provisioner_nrf52832_xxAA_s132_6.0.0.dir/__/__/__/mesh/prov/src/provisioning.c.obj
 .text.prov_tx_capabilities
                0x00000000       0x1e examples/light_switch/provisioner/CMakeFiles/light_switch_provisioner_nrf52832_xxAA_s132_6.0.0.dir/__/__/__/mesh/prov/src/provisioning.c.obj
 .text.prov_tx_input_complete
                0x00000000       0x16 examples/light_switch/provisioner/CMakeFiles/light_switch_provisioner_nrf52832_xxAA_s132_6.0.0.dir/__/__/__/mesh/prov/src/provisioning.c.obj
 .text.prov_tx_complete
                0x00000000       0x16 examples/light_switch/provisioner/CMakeFiles/light_switch_provisioner_nrf52832_xxAA_s132_6.0.0.dir/__/__/__/mesh/prov/src/provisioning.c.obj
 .text.prov_tx_failed
                0x00000000       0x1a examples/light_switch/provisioner/CMakeFiles/light_switch_provisioner_nrf52832_xxAA_s132_6.0.0.dir/__/__/__/mesh/prov/src/provisioning.c.obj
 .text.prov_tx  0x00000000        0x4 examples/light_switch/provisioner/CMakeFiles/light_switch_provisioner_nrf52832_xxAA_s132_6.0.0.dir/__/__/__/mesh/prov/src/provisioning.c.obj
 .text          0x00000000        0x0 examples/light_switch/provisioner/CMakeFiles/light_switch_provisioner_nrf52832_xxAA_s132_6.0.0.dir/__/__/__/mesh/prov/src/prov_beacon.c.obj
 .data          0x00000000        0x0 examples/light_switch/provisioner/CMakeFiles/light_switch_provisioner_nrf52832_xxAA_s132_6.0.0.dir/__/__/__/mesh/prov/src/prov_beacon.c.obj
 .bss           0x00000000        0x0 examples/light_switch/provisioner/CMakeFiles/light_switch_provisioner_nrf52832_xxAA_s132_6.0.0.dir/__/__/__/mesh/prov/src/prov_beacon.c.obj
 .text.prov_beacon_scan_stop
                0x00000000        0xc examples/light_switch/provisioner/CMakeFiles/light_switch_provisioner_nrf52832_xxAA_s132_6.0.0.dir/__/__/__/mesh/prov/src/prov_beacon.c.obj
 .text          0x00000000        0x0 examples/light_switch/provisioner/CMakeFiles/light_switch_provisioner_nrf52832_xxAA_s132_6.0.0.dir/__/__/__/mesh/prov/src/prov_utils.c.obj
 .data          0x00000000        0x0 examples/light_switch/provisioner/CMakeFiles/light_switch_provisioner_nrf52832_xxAA_s132_6.0.0.dir/__/__/__/mesh/prov/src/prov_utils.c.obj
 .bss           0x00000000        0x0 examples/light_switch/provisioner/CMakeFiles/light_switch_provisioner_nrf52832_xxAA_s132_6.0.0.dir/__/__/__/mesh/prov/src/prov_utils.c.obj
 .text          0x00000000        0x0 examples/light_switch/provisioner/CMakeFiles/light_switch_provisioner_nrf52832_xxAA_s132_6.0.0.dir/__/__/__/mesh/prov/src/prov_bearer_adv.c.obj
 .data          0x00000000        0x0 examples/light_switch/provisioner/CMakeFiles/light_switch_provisioner_nrf52832_xxAA_s132_6.0.0.dir/__/__/__/mesh/prov/src/prov_bearer_adv.c.obj
 .bss           0x00000000        0x0 examples/light_switch/provisioner/CMakeFiles/light_switch_provisioner_nrf52832_xxAA_s132_6.0.0.dir/__/__/__/mesh/prov/src/prov_bearer_adv.c.obj
 .text          0x00000000        0x0 examples/light_switch/provisioner/CMakeFiles/light_switch_provisioner_nrf52832_xxAA_s132_6.0.0.dir/C_/b/nRF5_SDK_15.0.0_a53641a/modules/nrfx/mdk/system_nrf52.c.obj
 .data          0x00000000        0x0 examples/light_switch/provisioner/CMakeFiles/light_switch_provisioner_nrf52832_xxAA_s132_6.0.0.dir/C_/b/nRF5_SDK_15.0.0_a53641a/modules/nrfx/mdk/system_nrf52.c.obj
 .bss           0x00000000        0x0 examples/light_switch/provisioner/CMakeFiles/light_switch_provisioner_nrf52832_xxAA_s132_6.0.0.dir/C_/b/nRF5_SDK_15.0.0_a53641a/modules/nrfx/mdk/system_nrf52.c.obj
 .text.SystemCoreClockUpdate
                0x00000000       0x10 examples/light_switch/provisioner/CMakeFiles/light_switch_provisioner_nrf52832_xxAA_s132_6.0.0.dir/C_/b/nRF5_SDK_15.0.0_a53641a/modules/nrfx/mdk/system_nrf52.c.obj
 .data          0x00000000        0x0 examples/light_switch/provisioner/CMakeFiles/light_switch_provisioner_nrf52832_xxAA_s132_6.0.0.dir/C_/b/nRF5_SDK_15.0.0_a53641a/modules/nrfx/mdk/gcc_startup_nrf52.S.obj
 .bss           0x00000000        0x0 examples/light_switch/provisioner/CMakeFiles/light_switch_provisioner_nrf52832_xxAA_s132_6.0.0.dir/C_/b/nRF5_SDK_15.0.0_a53641a/modules/nrfx/mdk/gcc_startup_nrf52.S.obj
 .text          0x00000000        0x0 examples/light_switch/provisioner/CMakeFiles/light_switch_provisioner_nrf52832_xxAA_s132_6.0.0.dir/C_/b/nRF5_SDK_15.0.0_a53641a/components/libraries/util/app_error.c.obj
 .data          0x00000000        0x0 examples/light_switch/provisioner/CMakeFiles/light_switch_provisioner_nrf52832_xxAA_s132_6.0.0.dir/C_/b/nRF5_SDK_15.0.0_a53641a/components/libraries/util/app_error.c.obj
 .bss           0x00000000        0x0 examples/light_switch/provisioner/CMakeFiles/light_switch_provisioner_nrf52832_xxAA_s132_6.0.0.dir/C_/b/nRF5_SDK_15.0.0_a53641a/components/libraries/util/app_error.c.obj
 .text.app_error_handler_bare
                0x00000000       0x1a examples/light_switch/provisioner/CMakeFiles/light_switch_provisioner_nrf52832_xxAA_s132_6.0.0.dir/C_/b/nRF5_SDK_15.0.0_a53641a/components/libraries/util/app_error.c.obj
 .text.app_error_save_and_stop
                0x00000000       0x58 examples/light_switch/provisioner/CMakeFiles/light_switch_provisioner_nrf52832_xxAA_s132_6.0.0.dir/C_/b/nRF5_SDK_15.0.0_a53641a/components/libraries/util/app_error.c.obj
 .bss.m_error_data.7863
                0x00000000       0x20 examples/light_switch/provisioner/CMakeFiles/light_switch_provisioner_nrf52832_xxAA_s132_6.0.0.dir/C_/b/nRF5_SDK_15.0.0_a53641a/components/libraries/util/app_error.c.obj
 .debug_info    0x00000000      0xaee examples/light_switch/provisioner/CMakeFiles/light_switch_provisioner_nrf52832_xxAA_s132_6.0.0.dir/C_/b/nRF5_SDK_15.0.0_a53641a/components/libraries/util/app_error.c.obj
 .debug_abbrev  0x00000000      0x232 examples/light_switch/provisioner/CMakeFiles/light_switch_provisioner_nrf52832_xxAA_s132_6.0.0.dir/C_/b/nRF5_SDK_15.0.0_a53641a/components/libraries/util/app_error.c.obj
 .debug_loc     0x00000000       0xb5 examples/light_switch/provisioner/CMakeFiles/light_switch_provisioner_nrf52832_xxAA_s132_6.0.0.dir/C_/b/nRF5_SDK_15.0.0_a53641a/components/libraries/util/app_error.c.obj
 .debug_aranges
                0x00000000       0x28 examples/light_switch/provisioner/CMakeFiles/light_switch_provisioner_nrf52832_xxAA_s132_6.0.0.dir/C_/b/nRF5_SDK_15.0.0_a53641a/components/libraries/util/app_error.c.obj
 .debug_ranges  0x00000000       0x18 examples/light_switch/provisioner/CMakeFiles/light_switch_provisioner_nrf52832_xxAA_s132_6.0.0.dir/C_/b/nRF5_SDK_15.0.0_a53641a/components/libraries/util/app_error.c.obj
 .debug_line    0x00000000      0x260 examples/light_switch/provisioner/CMakeFiles/light_switch_provisioner_nrf52832_xxAA_s132_6.0.0.dir/C_/b/nRF5_SDK_15.0.0_a53641a/components/libraries/util/app_error.c.obj
 .debug_str     0x00000000      0x724 examples/light_switch/provisioner/CMakeFiles/light_switch_provisioner_nrf52832_xxAA_s132_6.0.0.dir/C_/b/nRF5_SDK_15.0.0_a53641a/components/libraries/util/app_error.c.obj
 .comment       0x00000000       0x80 examples/light_switch/provisioner/CMakeFiles/light_switch_provisioner_nrf52832_xxAA_s132_6.0.0.dir/C_/b/nRF5_SDK_15.0.0_a53641a/components/libraries/util/app_error.c.obj
 .debug_frame   0x00000000       0x44 examples/light_switch/provisioner/CMakeFiles/light_switch_provisioner_nrf52832_xxAA_s132_6.0.0.dir/C_/b/nRF5_SDK_15.0.0_a53641a/components/libraries/util/app_error.c.obj
 .ARM.attributes
                0x00000000       0x39 examples/light_switch/provisioner/CMakeFiles/light_switch_provisioner_nrf52832_xxAA_s132_6.0.0.dir/C_/b/nRF5_SDK_15.0.0_a53641a/components/libraries/util/app_error.c.obj
 .text          0x00000000        0x0 examples/light_switch/provisioner/CMakeFiles/light_switch_provisioner_nrf52832_xxAA_s132_6.0.0.dir/C_/b/nRF5_SDK_15.0.0_a53641a/components/libraries/util/app_error_handler_gcc.c.obj
 .data          0x00000000        0x0 examples/light_switch/provisioner/CMakeFiles/light_switch_provisioner_nrf52832_xxAA_s132_6.0.0.dir/C_/b/nRF5_SDK_15.0.0_a53641a/components/libraries/util/app_error_handler_gcc.c.obj
 .bss           0x00000000        0x0 examples/light_switch/provisioner/CMakeFiles/light_switch_provisioner_nrf52832_xxAA_s132_6.0.0.dir/C_/b/nRF5_SDK_15.0.0_a53641a/components/libraries/util/app_error_handler_gcc.c.obj
 .text          0x00000000        0x0 external/rtt/librtt_nrf52832_xxAA.a(SEGGER_RTT.c.obj)
 .data          0x00000000        0x0 external/rtt/librtt_nrf52832_xxAA.a(SEGGER_RTT.c.obj)
 .bss           0x00000000        0x0 external/rtt/librtt_nrf52832_xxAA.a(SEGGER_RTT.c.obj)
 .text._PostTerminalSwitch.constprop.0
                0x00000000       0x28 external/rtt/librtt_nrf52832_xxAA.a(SEGGER_RTT.c.obj)
 .text.SEGGER_RTT_WriteSkipNoLock
                0x00000000       0xb4 external/rtt/librtt_nrf52832_xxAA.a(SEGGER_RTT.c.obj)
 .text.SEGGER_RTT_WriteString
                0x00000000       0x1a external/rtt/librtt_nrf52832_xxAA.a(SEGGER_RTT.c.obj)
 .text.SEGGER_RTT_WaitKey
                0x00000000        0xc external/rtt/librtt_nrf52832_xxAA.a(SEGGER_RTT.c.obj)
 .text.SEGGER_RTT_HasKey
                0x00000000       0x1c external/rtt/librtt_nrf52832_xxAA.a(SEGGER_RTT.c.obj)
 .text.SEGGER_RTT_HasData
                0x00000000       0x14 external/rtt/librtt_nrf52832_xxAA.a(SEGGER_RTT.c.obj)
 .text.SEGGER_RTT_AllocDownBuffer
                0x00000000       0x68 external/rtt/librtt_nrf52832_xxAA.a(SEGGER_RTT.c.obj)
 .text.SEGGER_RTT_AllocUpBuffer
                0x00000000       0x70 external/rtt/librtt_nrf52832_xxAA.a(SEGGER_RTT.c.obj)
 .text.SEGGER_RTT_ConfigUpBuffer
                0x00000000       0x68 external/rtt/librtt_nrf52832_xxAA.a(SEGGER_RTT.c.obj)
 .text.SEGGER_RTT_ConfigDownBuffer
                0x00000000       0x60 external/rtt/librtt_nrf52832_xxAA.a(SEGGER_RTT.c.obj)
 .text.SEGGER_RTT_SetNameUpBuffer
                0x00000000       0x3c external/rtt/librtt_nrf52832_xxAA.a(SEGGER_RTT.c.obj)
 .text.SEGGER_RTT_SetNameDownBuffer
                0x00000000       0x3c external/rtt/librtt_nrf52832_xxAA.a(SEGGER_RTT.c.obj)
 .text.SEGGER_RTT_Init
                0x00000000       0x10 external/rtt/librtt_nrf52832_xxAA.a(SEGGER_RTT.c.obj)
 .text.SEGGER_RTT_SetTerminal
                0x00000000       0x84 external/rtt/librtt_nrf52832_xxAA.a(SEGGER_RTT.c.obj)
 .text.SEGGER_RTT_TerminalOut
                0x00000000       0xa0 external/rtt/librtt_nrf52832_xxAA.a(SEGGER_RTT.c.obj)
 .bss._ActiveTerminal
                0x00000000        0x1 external/rtt/librtt_nrf52832_xxAA.a(SEGGER_RTT.c.obj)
 .rodata._aTerminalId
                0x00000000       0x10 external/rtt/librtt_nrf52832_xxAA.a(SEGGER_RTT.c.obj)
 .text          0x00000000        0x0 external/rtt/librtt_nrf52832_xxAA.a(SEGGER_RTT_printf.c.obj)
 .data          0x00000000        0x0 external/rtt/librtt_nrf52832_xxAA.a(SEGGER_RTT_printf.c.obj)
 .bss           0x00000000        0x0 external/rtt/librtt_nrf52832_xxAA.a(SEGGER_RTT_printf.c.obj)
 .text          0x00000000        0x0 external/micro-ecc/libuECC_nrf52832_xxAA.a(uECC.c.obj)
 .data          0x00000000        0x0 external/micro-ecc/libuECC_nrf52832_xxAA.a(uECC.c.obj)
 .bss           0x00000000        0x0 external/micro-ecc/libuECC_nrf52832_xxAA.a(uECC.c.obj)
 .text.uECC_vli_modMult
                0x00000000      0x148 external/micro-ecc/libuECC_nrf52832_xxAA.a(uECC.c.obj)
 .text.HMAC_init
                0x00000000       0x46 external/micro-ecc/libuECC_nrf52832_xxAA.a(uECC.c.obj)
 .text.HMAC_update
                0x00000000        0x4 external/micro-ecc/libuECC_nrf52832_xxAA.a(uECC.c.obj)
 .text.HMAC_finish
                0x00000000       0x62 external/micro-ecc/libuECC_nrf52832_xxAA.a(uECC.c.obj)
 .text.update_V
                0x00000000       0x24 external/micro-ecc/libuECC_nrf52832_xxAA.a(uECC.c.obj)
 .text.bits2int
                0x00000000       0x88 external/micro-ecc/libuECC_nrf52832_xxAA.a(uECC.c.obj)
 .text.uECC_sign_with_k
                0x00000000      0x17c external/micro-ecc/libuECC_nrf52832_xxAA.a(uECC.c.obj)
 .text.uECC_set_rng
                0x00000000        0xc external/micro-ecc/libuECC_nrf52832_xxAA.a(uECC.c.obj)
 .text.uECC_get_rng
                0x00000000        0xc external/micro-ecc/libuECC_nrf52832_xxAA.a(uECC.c.obj)
 .text.uECC_curve_private_key_size
                0x00000000        0xe external/micro-ecc/libuECC_nrf52832_xxAA.a(uECC.c.obj)
 .text.uECC_curve_public_key_size
                0x00000000        0x8 external/micro-ecc/libuECC_nrf52832_xxAA.a(uECC.c.obj)
 .text.uECC_compute_public_key
                0x00000000       0x7e external/micro-ecc/libuECC_nrf52832_xxAA.a(uECC.c.obj)
 .text.uECC_sign
                0x00000000       0x56 external/micro-ecc/libuECC_nrf52832_xxAA.a(uECC.c.obj)
 .text.uECC_sign_deterministic
                0x00000000      0x192 external/micro-ecc/libuECC_nrf52832_xxAA.a(uECC.c.obj)
 .text.uECC_verify
                0x00000000      0x2f0 external/micro-ecc/libuECC_nrf52832_xxAA.a(uECC.c.obj)
 .data          0x00000000        0x0 c:/mesh/arm_gcc/bin/../lib/gcc/arm-none-eabi/6.3.1/thumb/v7e-m/fpv4-sp/hard\libgcc.a(_aeabi_uldivmod.o)
 .bss           0x00000000        0x0 c:/mesh/arm_gcc/bin/../lib/gcc/arm-none-eabi/6.3.1/thumb/v7e-m/fpv4-sp/hard\libgcc.a(_aeabi_uldivmod.o)
 .data          0x00000000        0x0 c:/mesh/arm_gcc/bin/../lib/gcc/arm-none-eabi/6.3.1/thumb/v7e-m/fpv4-sp/hard\libgcc.a(_udivmoddi4.o)
 .bss           0x00000000        0x0 c:/mesh/arm_gcc/bin/../lib/gcc/arm-none-eabi/6.3.1/thumb/v7e-m/fpv4-sp/hard\libgcc.a(_udivmoddi4.o)
 .ARM.extab     0x00000000        0x0 c:/mesh/arm_gcc/bin/../lib/gcc/arm-none-eabi/6.3.1/thumb/v7e-m/fpv4-sp/hard\libgcc.a(_udivmoddi4.o)
 .data          0x00000000        0x0 c:/mesh/arm_gcc/bin/../lib/gcc/arm-none-eabi/6.3.1/thumb/v7e-m/fpv4-sp/hard\libgcc.a(_dvmd_tls.o)
 .bss           0x00000000        0x0 c:/mesh/arm_gcc/bin/../lib/gcc/arm-none-eabi/6.3.1/thumb/v7e-m/fpv4-sp/hard\libgcc.a(_dvmd_tls.o)
 .text          0x00000000        0x0 c:/mesh/arm_gcc/bin/../lib/gcc/arm-none-eabi/6.3.1/../../../../arm-none-eabi/lib/thumb/v7e-m/fpv4-sp/hard\libg_nano.a(lib_a-exit.o)
 .data          0x00000000        0x0 c:/mesh/arm_gcc/bin/../lib/gcc/arm-none-eabi/6.3.1/../../../../arm-none-eabi/lib/thumb/v7e-m/fpv4-sp/hard\libg_nano.a(lib_a-exit.o)
 .bss           0x00000000        0x0 c:/mesh/arm_gcc/bin/../lib/gcc/arm-none-eabi/6.3.1/../../../../arm-none-eabi/lib/thumb/v7e-m/fpv4-sp/hard\libg_nano.a(lib_a-exit.o)
 .text          0x00000000        0x0 c:/mesh/arm_gcc/bin/../lib/gcc/arm-none-eabi/6.3.1/../../../../arm-none-eabi/lib/thumb/v7e-m/fpv4-sp/hard\libg_nano.a(lib_a-impure.o)
 .data          0x00000000        0x0 c:/mesh/arm_gcc/bin/../lib/gcc/arm-none-eabi/6.3.1/../../../../arm-none-eabi/lib/thumb/v7e-m/fpv4-sp/hard\libg_nano.a(lib_a-impure.o)
 .bss           0x00000000        0x0 c:/mesh/arm_gcc/bin/../lib/gcc/arm-none-eabi/6.3.1/../../../../arm-none-eabi/lib/thumb/v7e-m/fpv4-sp/hard\libg_nano.a(lib_a-impure.o)
 .text          0x00000000        0x0 c:/mesh/arm_gcc/bin/../lib/gcc/arm-none-eabi/6.3.1/../../../../arm-none-eabi/lib/thumb/v7e-m/fpv4-sp/hard\libg_nano.a(lib_a-init.o)
 .data          0x00000000        0x0 c:/mesh/arm_gcc/bin/../lib/gcc/arm-none-eabi/6.3.1/../../../../arm-none-eabi/lib/thumb/v7e-m/fpv4-sp/hard\libg_nano.a(lib_a-init.o)
 .bss           0x00000000        0x0 c:/mesh/arm_gcc/bin/../lib/gcc/arm-none-eabi/6.3.1/../../../../arm-none-eabi/lib/thumb/v7e-m/fpv4-sp/hard\libg_nano.a(lib_a-init.o)
 .text          0x00000000        0x0 c:/mesh/arm_gcc/bin/../lib/gcc/arm-none-eabi/6.3.1/../../../../arm-none-eabi/lib/thumb/v7e-m/fpv4-sp/hard\libg_nano.a(lib_a-malloc.o)
 .data          0x00000000        0x0 c:/mesh/arm_gcc/bin/../lib/gcc/arm-none-eabi/6.3.1/../../../../arm-none-eabi/lib/thumb/v7e-m/fpv4-sp/hard\libg_nano.a(lib_a-malloc.o)
 .bss           0x00000000        0x0 c:/mesh/arm_gcc/bin/../lib/gcc/arm-none-eabi/6.3.1/../../../../arm-none-eabi/lib/thumb/v7e-m/fpv4-sp/hard\libg_nano.a(lib_a-malloc.o)
 .text          0x00000000        0x0 c:/mesh/arm_gcc/bin/../lib/gcc/arm-none-eabi/6.3.1/../../../../arm-none-eabi/lib/thumb/v7e-m/fpv4-sp/hard\libg_nano.a(lib_a-memcmp.o)
 .data          0x00000000        0x0 c:/mesh/arm_gcc/bin/../lib/gcc/arm-none-eabi/6.3.1/../../../../arm-none-eabi/lib/thumb/v7e-m/fpv4-sp/hard\libg_nano.a(lib_a-memcmp.o)
 .bss           0x00000000        0x0 c:/mesh/arm_gcc/bin/../lib/gcc/arm-none-eabi/6.3.1/../../../../arm-none-eabi/lib/thumb/v7e-m/fpv4-sp/hard\libg_nano.a(lib_a-memcmp.o)
 .text          0x00000000        0x0 c:/mesh/arm_gcc/bin/../lib/gcc/arm-none-eabi/6.3.1/../../../../arm-none-eabi/lib/thumb/v7e-m/fpv4-sp/hard\libg_nano.a(lib_a-memcpy-stub.o)
 .data          0x00000000        0x0 c:/mesh/arm_gcc/bin/../lib/gcc/arm-none-eabi/6.3.1/../../../../arm-none-eabi/lib/thumb/v7e-m/fpv4-sp/hard\libg_nano.a(lib_a-memcpy-stub.o)
 .bss           0x00000000        0x0 c:/mesh/arm_gcc/bin/../lib/gcc/arm-none-eabi/6.3.1/../../../../arm-none-eabi/lib/thumb/v7e-m/fpv4-sp/hard\libg_nano.a(lib_a-memcpy-stub.o)
 .text          0x00000000        0x0 c:/mesh/arm_gcc/bin/../lib/gcc/arm-none-eabi/6.3.1/../../../../arm-none-eabi/lib/thumb/v7e-m/fpv4-sp/hard\libg_nano.a(lib_a-memset.o)
 .data          0x00000000        0x0 c:/mesh/arm_gcc/bin/../lib/gcc/arm-none-eabi/6.3.1/../../../../arm-none-eabi/lib/thumb/v7e-m/fpv4-sp/hard\libg_nano.a(lib_a-memset.o)
 .bss           0x00000000        0x0 c:/mesh/arm_gcc/bin/../lib/gcc/arm-none-eabi/6.3.1/../../../../arm-none-eabi/lib/thumb/v7e-m/fpv4-sp/hard\libg_nano.a(lib_a-memset.o)
 .text          0x00000000        0x0 c:/mesh/arm_gcc/bin/../lib/gcc/arm-none-eabi/6.3.1/../../../../arm-none-eabi/lib/thumb/v7e-m/fpv4-sp/hard\libg_nano.a(lib_a-nano-freer.o)
 .data          0x00000000        0x0 c:/mesh/arm_gcc/bin/../lib/gcc/arm-none-eabi/6.3.1/../../../../arm-none-eabi/lib/thumb/v7e-m/fpv4-sp/hard\libg_nano.a(lib_a-nano-freer.o)
 .bss           0x00000000        0x0 c:/mesh/arm_gcc/bin/../lib/gcc/arm-none-eabi/6.3.1/../../../../arm-none-eabi/lib/thumb/v7e-m/fpv4-sp/hard\libg_nano.a(lib_a-nano-freer.o)
 .text          0x00000000        0x0 c:/mesh/arm_gcc/bin/../lib/gcc/arm-none-eabi/6.3.1/../../../../arm-none-eabi/lib/thumb/v7e-m/fpv4-sp/hard\libg_nano.a(lib_a-nano-mallocr.o)
 .data          0x00000000        0x0 c:/mesh/arm_gcc/bin/../lib/gcc/arm-none-eabi/6.3.1/../../../../arm-none-eabi/lib/thumb/v7e-m/fpv4-sp/hard\libg_nano.a(lib_a-nano-mallocr.o)
 .bss           0x00000000        0x0 c:/mesh/arm_gcc/bin/../lib/gcc/arm-none-eabi/6.3.1/../../../../arm-none-eabi/lib/thumb/v7e-m/fpv4-sp/hard\libg_nano.a(lib_a-nano-mallocr.o)
 .text          0x00000000        0x0 c:/mesh/arm_gcc/bin/../lib/gcc/arm-none-eabi/6.3.1/../../../../arm-none-eabi/lib/thumb/v7e-m/fpv4-sp/hard\libg_nano.a(lib_a-sbrkr.o)
 .data          0x00000000        0x0 c:/mesh/arm_gcc/bin/../lib/gcc/arm-none-eabi/6.3.1/../../../../arm-none-eabi/lib/thumb/v7e-m/fpv4-sp/hard\libg_nano.a(lib_a-sbrkr.o)
 .bss           0x00000000        0x0 c:/mesh/arm_gcc/bin/../lib/gcc/arm-none-eabi/6.3.1/../../../../arm-none-eabi/lib/thumb/v7e-m/fpv4-sp/hard\libg_nano.a(lib_a-sbrkr.o)
 .text          0x00000000        0x0 c:/mesh/arm_gcc/bin/../lib/gcc/arm-none-eabi/6.3.1/../../../../arm-none-eabi/lib/thumb/v7e-m/fpv4-sp/hard\libg_nano.a(lib_a-strcpy.o)
 .data          0x00000000        0x0 c:/mesh/arm_gcc/bin/../lib/gcc/arm-none-eabi/6.3.1/../../../../arm-none-eabi/lib/thumb/v7e-m/fpv4-sp/hard\libg_nano.a(lib_a-strcpy.o)
 .bss           0x00000000        0x0 c:/mesh/arm_gcc/bin/../lib/gcc/arm-none-eabi/6.3.1/../../../../arm-none-eabi/lib/thumb/v7e-m/fpv4-sp/hard\libg_nano.a(lib_a-strcpy.o)
 .data          0x00000000        0x0 c:/mesh/arm_gcc/bin/../lib/gcc/arm-none-eabi/6.3.1/../../../../arm-none-eabi/lib/thumb/v7e-m/fpv4-sp/hard\libg_nano.a(lib_a-strlen.o)
 .bss           0x00000000        0x0 c:/mesh/arm_gcc/bin/../lib/gcc/arm-none-eabi/6.3.1/../../../../arm-none-eabi/lib/thumb/v7e-m/fpv4-sp/hard\libg_nano.a(lib_a-strlen.o)
 .text          0x00000000        0x0 c:/mesh/arm_gcc/bin/../lib/gcc/arm-none-eabi/6.3.1/../../../../arm-none-eabi/lib/thumb/v7e-m/fpv4-sp/hard\libg_nano.a(lib_a-strrchr.o)
 .data          0x00000000        0x0 c:/mesh/arm_gcc/bin/../lib/gcc/arm-none-eabi/6.3.1/../../../../arm-none-eabi/lib/thumb/v7e-m/fpv4-sp/hard\libg_nano.a(lib_a-strrchr.o)
 .bss           0x00000000        0x0 c:/mesh/arm_gcc/bin/../lib/gcc/arm-none-eabi/6.3.1/../../../../arm-none-eabi/lib/thumb/v7e-m/fpv4-sp/hard\libg_nano.a(lib_a-strrchr.o)
 .text          0x00000000        0x0 c:/mesh/arm_gcc/bin/../lib/gcc/arm-none-eabi/6.3.1/../../../../arm-none-eabi/lib/thumb/v7e-m/fpv4-sp/hard\libg_nano.a(lib_a-mlock.o)
 .data          0x00000000        0x0 c:/mesh/arm_gcc/bin/../lib/gcc/arm-none-eabi/6.3.1/../../../../arm-none-eabi/lib/thumb/v7e-m/fpv4-sp/hard\libg_nano.a(lib_a-mlock.o)
 .bss           0x00000000        0x0 c:/mesh/arm_gcc/bin/../lib/gcc/arm-none-eabi/6.3.1/../../../../arm-none-eabi/lib/thumb/v7e-m/fpv4-sp/hard\libg_nano.a(lib_a-mlock.o)
 .text          0x00000000        0x0 c:/mesh/arm_gcc/bin/../lib/gcc/arm-none-eabi/6.3.1/../../../../arm-none-eabi/lib/thumb/v7e-m/fpv4-sp/hard\libg_nano.a(lib_a-reent.o)
 .data          0x00000000        0x0 c:/mesh/arm_gcc/bin/../lib/gcc/arm-none-eabi/6.3.1/../../../../arm-none-eabi/lib/thumb/v7e-m/fpv4-sp/hard\libg_nano.a(lib_a-reent.o)
 .bss           0x00000000        0x0 c:/mesh/arm_gcc/bin/../lib/gcc/arm-none-eabi/6.3.1/../../../../arm-none-eabi/lib/thumb/v7e-m/fpv4-sp/hard\libg_nano.a(lib_a-reent.o)
 .text.cleanup_glue
                0x00000000       0x1a c:/mesh/arm_gcc/bin/../lib/gcc/arm-none-eabi/6.3.1/../../../../arm-none-eabi/lib/thumb/v7e-m/fpv4-sp/hard\libg_nano.a(lib_a-reent.o)
 .text._reclaim_reent
                0x00000000       0xb8 c:/mesh/arm_gcc/bin/../lib/gcc/arm-none-eabi/6.3.1/../../../../arm-none-eabi/lib/thumb/v7e-m/fpv4-sp/hard\libg_nano.a(lib_a-reent.o)
 .text          0x00000000        0x0 c:/mesh/arm_gcc/bin/../lib/gcc/arm-none-eabi/6.3.1/../../../../arm-none-eabi/lib/thumb/v7e-m/fpv4-sp/hard\libg_nano.a(lib_a-strchr.o)
 .data          0x00000000        0x0 c:/mesh/arm_gcc/bin/../lib/gcc/arm-none-eabi/6.3.1/../../../../arm-none-eabi/lib/thumb/v7e-m/fpv4-sp/hard\libg_nano.a(lib_a-strchr.o)
 .bss           0x00000000        0x0 c:/mesh/arm_gcc/bin/../lib/gcc/arm-none-eabi/6.3.1/../../../../arm-none-eabi/lib/thumb/v7e-m/fpv4-sp/hard\libg_nano.a(lib_a-strchr.o)
 .text          0x00000000        0x0 c:/mesh/arm_gcc/bin/../lib/gcc/arm-none-eabi/6.3.1/thumb/v7e-m/fpv4-sp/hard/crtend.o
 .data          0x00000000        0x0 c:/mesh/arm_gcc/bin/../lib/gcc/arm-none-eabi/6.3.1/thumb/v7e-m/fpv4-sp/hard/crtend.o
 .bss           0x00000000        0x0 c:/mesh/arm_gcc/bin/../lib/gcc/arm-none-eabi/6.3.1/thumb/v7e-m/fpv4-sp/hard/crtend.o
 .text          0x00000000        0x0 c:/mesh/arm_gcc/bin/../lib/gcc/arm-none-eabi/6.3.1/thumb/v7e-m/fpv4-sp/hard/crtn.o
 .data          0x00000000        0x0 c:/mesh/arm_gcc/bin/../lib/gcc/arm-none-eabi/6.3.1/thumb/v7e-m/fpv4-sp/hard/crtn.o
 .bss           0x00000000        0x0 c:/mesh/arm_gcc/bin/../lib/gcc/arm-none-eabi/6.3.1/thumb/v7e-m/fpv4-sp/hard/crtn.o
 .text          0x00000000        0x0 c:/mesh/arm_gcc/bin/../lib/gcc/arm-none-eabi/6.3.1/../../../../arm-none-eabi/lib/thumb/v7e-m/fpv4-sp/hard\libnosys.a(sbrk.o)
 .data          0x00000000        0x0 c:/mesh/arm_gcc/bin/../lib/gcc/arm-none-eabi/6.3.1/../../../../arm-none-eabi/lib/thumb/v7e-m/fpv4-sp/hard\libnosys.a(sbrk.o)
 .bss           0x00000000        0x0 c:/mesh/arm_gcc/bin/../lib/gcc/arm-none-eabi/6.3.1/../../../../arm-none-eabi/lib/thumb/v7e-m/fpv4-sp/hard\libnosys.a(sbrk.o)
 .text          0x00000000        0x0 c:/mesh/arm_gcc/bin/../lib/gcc/arm-none-eabi/6.3.1/../../../../arm-none-eabi/lib/thumb/v7e-m/fpv4-sp/hard\libnosys.a(_exit.o)
 .data          0x00000000        0x0 c:/mesh/arm_gcc/bin/../lib/gcc/arm-none-eabi/6.3.1/../../../../arm-none-eabi/lib/thumb/v7e-m/fpv4-sp/hard\libnosys.a(_exit.o)
 .bss           0x00000000        0x0 c:/mesh/arm_gcc/bin/../lib/gcc/arm-none-eabi/6.3.1/../../../../arm-none-eabi/lib/thumb/v7e-m/fpv4-sp/hard\libnosys.a(_exit.o)

Memory Configuration

Name             Origin             Length             Attributes
FLASH            0x00026000         0x00051000         xr
RAM              0x200032c8         0x0000ca38         xrw
*default*        0x00000000         0xffffffff

Linker script and memory map


.text           0x00026000    0x163d8
 *(.isr_vector)
 .isr_vector    0x00026000      0x200 examples/light_switch/provisioner/CMakeFiles/light_switch_provisioner_nrf52832_xxAA_s132_6.0.0.dir/C_/b/nRF5_SDK_15.0.0_a53641a/modules/nrfx/mdk/gcc_startup_nrf52.S.obj
                0x00026000                __isr_vector
 *(.text*)
 .text          0x00026200       0x6c c:/mesh/arm_gcc/bin/../lib/gcc/arm-none-eabi/6.3.1/thumb/v7e-m/fpv4-sp/hard/crtbegin.o
 .text          0x0002626c       0x74 c:/mesh/arm_gcc/bin/../lib/gcc/arm-none-eabi/6.3.1/../../../../arm-none-eabi/lib/thumb/v7e-m/fpv4-sp/hard/crt0.o
                0x0002626c                _start
                0x0002626c                _mainCRTStartup
 .text.sd_app_evt_wait
                0x000262e0        0x4 examples/light_switch/provisioner/CMakeFiles/light_switch_provisioner_nrf52832_xxAA_s132_6.0.0.dir/src/main.c.obj
 .text.flash_manager_mem_available
                0x000262e4        0x2 examples/light_switch/provisioner/CMakeFiles/light_switch_provisioner_nrf52832_xxAA_s132_6.0.0.dir/src/main.c.obj
 *fill*         0x000262e6        0x2 
 .text.flash_invalidate_complete
                0x000262e8       0x10 examples/light_switch/provisioner/CMakeFiles/light_switch_provisioner_nrf52832_xxAA_s132_6.0.0.dir/src/main.c.obj
 .text.models_init_cb
                0x000262f8       0xb0 examples/light_switch/provisioner/CMakeFiles/light_switch_provisioner_nrf52832_xxAA_s132_6.0.0.dir/src/main.c.obj
                0x000262f8                models_init_cb
 .text.app_config_client_event_cb
                0x000263a8       0x78 examples/light_switch/provisioner/CMakeFiles/light_switch_provisioner_nrf52832_xxAA_s132_6.0.0.dir/src/main.c.obj
 .text.app_config_failed_cb
                0x00026420       0x80 examples/light_switch/provisioner/CMakeFiles/light_switch_provisioner_nrf52832_xxAA_s132_6.0.0.dir/src/main.c.obj
 .text.app_prov_failed_cb
                0x000264a0       0x78 examples/light_switch/provisioner/CMakeFiles/light_switch_provisioner_nrf52832_xxAA_s132_6.0.0.dir/src/main.c.obj
 .text.app_prov_success_cb
                0x00026518       0x78 examples/light_switch/provisioner/CMakeFiles/light_switch_provisioner_nrf52832_xxAA_s132_6.0.0.dir/src/main.c.obj
 .text.clear_app_data
                0x00026590       0x2c examples/light_switch/provisioner/CMakeFiles/light_switch_provisioner_nrf52832_xxAA_s132_6.0.0.dir/src/main.c.obj
 .text.button_event_handler
                0x000265bc      0x2e8 examples/light_switch/provisioner/CMakeFiles/light_switch_provisioner_nrf52832_xxAA_s132_6.0.0.dir/src/main.c.obj
 .text.app_rtt_input_handler
                0x000268a4        0xc examples/light_switch/provisioner/CMakeFiles/light_switch_provisioner_nrf52832_xxAA_s132_6.0.0.dir/src/main.c.obj
 .text.store_app_data
                0x000268b0       0x38 examples/light_switch/provisioner/CMakeFiles/light_switch_provisioner_nrf52832_xxAA_s132_6.0.0.dir/src/main.c.obj
 .text.app_config_successful_cb
                0x000268e8      0x11c examples/light_switch/provisioner/CMakeFiles/light_switch_provisioner_nrf52832_xxAA_s132_6.0.0.dir/src/main.c.obj
 .text.app_data_store_cb
                0x00026a04       0x1c examples/light_switch/provisioner/CMakeFiles/light_switch_provisioner_nrf52832_xxAA_s132_6.0.0.dir/src/main.c.obj
 .text.app_mesh_core_event_cb
                0x00026a20      0x39c examples/light_switch/provisioner/CMakeFiles/light_switch_provisioner_nrf52832_xxAA_s132_6.0.0.dir/src/main.c.obj
 .text.app_config_server_event_cb
                0x00026dbc       0x7c examples/light_switch/provisioner/CMakeFiles/light_switch_provisioner_nrf52832_xxAA_s132_6.0.0.dir/src/main.c.obj
 .text.flash_write_complete
                0x00026e38       0x8c examples/light_switch/provisioner/CMakeFiles/light_switch_provisioner_nrf52832_xxAA_s132_6.0.0.dir/src/main.c.obj
 .text.app_health_event_cb
                0x00026ec4       0x88 examples/light_switch/provisioner/CMakeFiles/light_switch_provisioner_nrf52832_xxAA_s132_6.0.0.dir/src/main.c.obj
 .text.flash_remove_complete
                0x00026f4c       0x64 examples/light_switch/provisioner/CMakeFiles/light_switch_provisioner_nrf52832_xxAA_s132_6.0.0.dir/src/main.c.obj
 .text.app_flash_manager_add
                0x00026fb0       0xa8 examples/light_switch/provisioner/CMakeFiles/light_switch_provisioner_nrf52832_xxAA_s132_6.0.0.dir/src/main.c.obj
 .text.app_default_models_bind_setup
                0x00027058       0x4c examples/light_switch/provisioner/CMakeFiles/light_switch_provisioner_nrf52832_xxAA_s132_6.0.0.dir/src/main.c.obj
                0x00027058                app_default_models_bind_setup
 .text.startup.main
                0x000270a4      0x3a4 examples/light_switch/provisioner/CMakeFiles/light_switch_provisioner_nrf52832_xxAA_s132_6.0.0.dir/src/main.c.obj
                0x000270a4                main
 .text.mesh_stack_config_clear
                0x00027448       0x12 examples/light_switch/provisioner/CMakeFiles/light_switch_provisioner_nrf52832_xxAA_s132_6.0.0.dir/__/__/__/mesh/stack/src/mesh_stack.c.obj
                0x00027448                mesh_stack_config_clear
 .text.mesh_stack_is_device_provisioned
                0x0002745a       0x18 examples/light_switch/provisioner/CMakeFiles/light_switch_provisioner_nrf52832_xxAA_s132_6.0.0.dir/__/__/__/mesh/stack/src/mesh_stack.c.obj
                0x0002745a                mesh_stack_is_device_provisioned
 *fill*         0x00027472        0x2 
 .text.mesh_stack_init
                0x00027474       0x78 examples/light_switch/provisioner/CMakeFiles/light_switch_provisioner_nrf52832_xxAA_s132_6.0.0.dir/__/__/__/mesh/stack/src/mesh_stack.c.obj
                0x00027474                mesh_stack_init
 .text.prov_evt_handler
                0x000274ec      0x764 examples/light_switch/provisioner/CMakeFiles/light_switch_provisioner_nrf52832_xxAA_s132_6.0.0.dir/src/provisioner_helper.c.obj
 .text.prov_helper_provision_next_device
                0x00027c50       0xb8 examples/light_switch/provisioner/CMakeFiles/light_switch_provisioner_nrf52832_xxAA_s132_6.0.0.dir/src/provisioner_helper.c.obj
                0x00027c50                prov_helper_provision_next_device
 .text.prov_helper_scan_start
                0x00027d08       0x84 examples/light_switch/provisioner/CMakeFiles/light_switch_provisioner_nrf52832_xxAA_s132_6.0.0.dir/src/provisioner_helper.c.obj
                0x00027d08                prov_helper_scan_start
 .text.prov_helper_device_handles_load
                0x00027d8c       0xd8 examples/light_switch/provisioner/CMakeFiles/light_switch_provisioner_nrf52832_xxAA_s132_6.0.0.dir/src/provisioner_helper.c.obj
                0x00027d8c                prov_helper_device_handles_load
 .text.prov_helper_init
                0x00027e64       0x48 examples/light_switch/provisioner/CMakeFiles/light_switch_provisioner_nrf52832_xxAA_s132_6.0.0.dir/src/provisioner_helper.c.obj
                0x00027e64                prov_helper_init
 .text.prov_helper_provision_self
                0x00027eac       0xfc examples/light_switch/provisioner/CMakeFiles/light_switch_provisioner_nrf52832_xxAA_s132_6.0.0.dir/src/provisioner_helper.c.obj
                0x00027eac                prov_helper_provision_self
 .text.client_pub_state_set
                0x00027fa8       0xac examples/light_switch/provisioner/CMakeFiles/light_switch_provisioner_nrf52832_xxAA_s132_6.0.0.dir/src/node_setup.c.obj
 .text.retry_on_fail
                0x00028054       0xa8 examples/light_switch/provisioner/CMakeFiles/light_switch_provisioner_nrf52832_xxAA_s132_6.0.0.dir/src/node_setup.c.obj
 .text.config_step_execute
                0x000280fc      0x618 examples/light_switch/provisioner/CMakeFiles/light_switch_provisioner_nrf52832_xxAA_s132_6.0.0.dir/src/node_setup.c.obj
 .text.client_send_timer_cb
                0x00028714       0x14 examples/light_switch/provisioner/CMakeFiles/light_switch_provisioner_nrf52832_xxAA_s132_6.0.0.dir/src/node_setup.c.obj
 .text.node_setup_config_client_event_process
                0x00028728      0x2c0 examples/light_switch/provisioner/CMakeFiles/light_switch_provisioner_nrf52832_xxAA_s132_6.0.0.dir/src/node_setup.c.obj
                0x00028728                node_setup_config_client_event_process
 .text.node_setup_start
                0x000289e8      0x1e8 examples/light_switch/provisioner/CMakeFiles/light_switch_provisioner_nrf52832_xxAA_s132_6.0.0.dir/src/node_setup.c.obj
                0x000289e8                node_setup_start
 .text.node_setup_cb_set
                0x00028bd0       0x28 examples/light_switch/provisioner/CMakeFiles/light_switch_provisioner_nrf52832_xxAA_s132_6.0.0.dir/src/node_setup.c.obj
                0x00028bd0                node_setup_cb_set
 .text.sd_evt_get
                0x00028bf8        0x4 examples/light_switch/provisioner/CMakeFiles/light_switch_provisioner_nrf52832_xxAA_s132_6.0.0.dir/__/__/common/src/mesh_softdevice_init.c.obj
 .text.sd_softdevice_enable
                0x00028bfc        0x4 examples/light_switch/provisioner/CMakeFiles/light_switch_provisioner_nrf52832_xxAA_s132_6.0.0.dir/__/__/common/src/mesh_softdevice_init.c.obj
 .text.sd_ble_enable
                0x00028c00        0x4 examples/light_switch/provisioner/CMakeFiles/light_switch_provisioner_nrf52832_xxAA_s132_6.0.0.dir/__/__/common/src/mesh_softdevice_init.c.obj
 .text.SWI2_EGU2_IRQHandler
                0x00028c04       0x18 examples/light_switch/provisioner/CMakeFiles/light_switch_provisioner_nrf52832_xxAA_s132_6.0.0.dir/__/__/common/src/mesh_softdevice_init.c.obj
                0x00028c04                SWI2_EGU2_IRQHandler
 .text.mesh_softdevice_init
                0x00028c1c      0x1c0 examples/light_switch/provisioner/CMakeFiles/light_switch_provisioner_nrf52832_xxAA_s132_6.0.0.dir/__/__/common/src/mesh_softdevice_init.c.obj
                0x00028c1c                mesh_softdevice_init
 .text.TIMER2_IRQHandler
                0x00028ddc       0x30 examples/light_switch/provisioner/CMakeFiles/light_switch_provisioner_nrf52832_xxAA_s132_6.0.0.dir/__/__/common/src/rtt_input.c.obj
                0x00028ddc                TIMER2_IRQHandler
 .text.rtt_input_enable
                0x00028e0c       0x5c examples/light_switch/provisioner/CMakeFiles/light_switch_provisioner_nrf52832_xxAA_s132_6.0.0.dir/__/__/common/src/rtt_input.c.obj
                0x00028e0c                rtt_input_enable
 .text.hal_led_pin_set
                0x00028e68       0x16 examples/light_switch/provisioner/CMakeFiles/light_switch_provisioner_nrf52832_xxAA_s132_6.0.0.dir/__/__/common/src/simple_hal.c.obj
                0x00028e68                hal_led_pin_set
 .text.hal_led_mask_set
                0x00028e7e       0x12 examples/light_switch/provisioner/CMakeFiles/light_switch_provisioner_nrf52832_xxAA_s132_6.0.0.dir/__/__/common/src/simple_hal.c.obj
                0x00028e7e                hal_led_mask_set
 .text.hal_led_blink_ms
                0x00028e90       0x44 examples/light_switch/provisioner/CMakeFiles/light_switch_provisioner_nrf52832_xxAA_s132_6.0.0.dir/__/__/common/src/simple_hal.c.obj
                0x00028e90                hal_led_blink_ms
 .text.hal_leds_init
                0x00028ed4       0x38 examples/light_switch/provisioner/CMakeFiles/light_switch_provisioner_nrf52832_xxAA_s132_6.0.0.dir/__/__/common/src/simple_hal.c.obj
                0x00028ed4                hal_leds_init
 .text.hal_buttons_init
                0x00028f0c       0x50 examples/light_switch/provisioner/CMakeFiles/light_switch_provisioner_nrf52832_xxAA_s132_6.0.0.dir/__/__/common/src/simple_hal.c.obj
                0x00028f0c                hal_buttons_init
 .text.GPIOTE_IRQHandler
                0x00028f5c       0x60 examples/light_switch/provisioner/CMakeFiles/light_switch_provisioner_nrf52832_xxAA_s132_6.0.0.dir/__/__/common/src/simple_hal.c.obj
                0x00028f5c                GPIOTE_IRQHandler
 .text._weak_handler
                0x00028fbc        0x4 examples/light_switch/provisioner/CMakeFiles/light_switch_provisioner_nrf52832_xxAA_s132_6.0.0.dir/__/__/nrf_mesh_weak.c.obj
                0x00028fbc                nrf_mesh_dfu_init
                0x00028fbc                nrf_mesh_dfu_jump_to_bootloader
                0x00028fbc                nrf_mesh_dfu_rx
                0x00028fbc                nrf_mesh_dfu_bank_info_get
                0x00028fbc                nrf_mesh_dfu_request
                0x00028fbc                nrf_mesh_dfu_bank_flash
                0x00028fbc                _weak_handler
                0x00028fbc                prov_provisionee_auth_data
                0x00028fbc                nrf_mesh_dfu_relay
                0x00028fbc                prov_provisionee_shared_secret
                0x00028fbc                nrf_mesh_dfu_abort
                0x00028fbc                mesh_flash_op_execute
                0x00028fbc                prov_provisionee_init
                0x00028fbc                nrf_mesh_dfu_state_get
                0x00028fbc                prov_provisionee_listen
 .text.app_error_fault_handler
                0x00028fc0      0x204 examples/light_switch/provisioner/CMakeFiles/light_switch_provisioner_nrf52832_xxAA_s132_6.0.0.dir/__/__/common/src/app_error_weak.c.obj
                0x00028fc0                app_error_fault_handler
 .text.mesh_assertion_handler
                0x000291c4       0x24 examples/light_switch/provisioner/CMakeFiles/light_switch_provisioner_nrf52832_xxAA_s132_6.0.0.dir/__/__/common/src/assertion_handler_weak.c.obj
                0x000291c4                mesh_assertion_handler
 .text.nrf_mesh_configure_device_uuid_set
                0x000291e8       0x10 examples/light_switch/provisioner/CMakeFiles/light_switch_provisioner_nrf52832_xxAA_s132_6.0.0.dir/__/__/__/mesh/core/src/nrf_mesh_configure.c.obj
                0x000291e8                nrf_mesh_configure_device_uuid_set
 .text.nrf_mesh_configure_device_uuid_reset
                0x000291f8       0x28 examples/light_switch/provisioner/CMakeFiles/light_switch_provisioner_nrf52832_xxAA_s132_6.0.0.dir/__/__/__/mesh/core/src/nrf_mesh_configure.c.obj
                0x000291f8                nrf_mesh_configure_device_uuid_reset
 .text.nrf_mesh_configure_device_uuid_get
                0x00029220        0x8 examples/light_switch/provisioner/CMakeFiles/light_switch_provisioner_nrf52832_xxAA_s132_6.0.0.dir/__/__/__/mesh/core/src/nrf_mesh_configure.c.obj
                0x00029220                nrf_mesh_configure_device_uuid_get
 .text.sd_ecb_block_encrypt
                0x00029228        0x4 examples/light_switch/provisioner/CMakeFiles/light_switch_provisioner_nrf52832_xxAA_s132_6.0.0.dir/__/__/__/mesh/core/src/aes.c.obj
 .text.aes_encrypt
                0x0002922c       0x32 examples/light_switch/provisioner/CMakeFiles/light_switch_provisioner_nrf52832_xxAA_s132_6.0.0.dir/__/__/__/mesh/core/src/aes.c.obj
                0x0002922c                aes_encrypt
 *fill*         0x0002925e        0x2 
 .text.msg_cache_init
                0x00029260       0x24 examples/light_switch/provisioner/CMakeFiles/light_switch_provisioner_nrf52832_xxAA_s132_6.0.0.dir/__/__/__/mesh/core/src/msg_cache.c.obj
                0x00029260                msg_cache_init
 .text.msg_cache_entry_exists
                0x00029284       0x3c examples/light_switch/provisioner/CMakeFiles/light_switch_provisioner_nrf52832_xxAA_s132_6.0.0.dir/__/__/__/mesh/core/src/msg_cache.c.obj
                0x00029284                msg_cache_entry_exists
 .text.msg_cache_entry_add
                0x000292c0       0x2c examples/light_switch/provisioner/CMakeFiles/light_switch_provisioner_nrf52832_xxAA_s132_6.0.0.dir/__/__/__/mesh/core/src/msg_cache.c.obj
                0x000292c0                msg_cache_entry_add
 .text.seqauth_sequence_number_get
                0x000292ec       0x12 examples/light_switch/provisioner/CMakeFiles/light_switch_provisioner_nrf52832_xxAA_s132_6.0.0.dir/__/__/__/mesh/core/src/transport.c.obj
 *fill*         0x000292fe        0x2 
 .text.control_packet_callback_get
                0x00029300       0x44 examples/light_switch/provisioner/CMakeFiles/light_switch_provisioner_nrf52832_xxAA_s132_6.0.0.dir/__/__/__/mesh/core/src/transport.c.obj
 .text.tx_complete
                0x00029344       0x30 examples/light_switch/provisioner/CMakeFiles/light_switch_provisioner_nrf52832_xxAA_s132_6.0.0.dir/__/__/__/mesh/core/src/transport.c.obj
 .text.block_ack_full
                0x00029374       0x1a examples/light_switch/provisioner/CMakeFiles/light_switch_provisioner_nrf52832_xxAA_s132_6.0.0.dir/__/__/__/mesh/core/src/transport.c.obj
 *fill*         0x0002938e        0x2 
 .text.sar_rx_session_mark_as_handled
                0x00029390       0x48 examples/light_switch/provisioner/CMakeFiles/light_switch_provisioner_nrf52832_xxAA_s132_6.0.0.dir/__/__/__/mesh/core/src/transport.c.obj
 .text.upper_trs_packet_encrypt
                0x000293d8       0x90 examples/light_switch/provisioner/CMakeFiles/light_switch_provisioner_nrf52832_xxAA_s132_6.0.0.dir/__/__/__/mesh/core/src/transport.c.obj
 .text.sar_ctx_free
                0x00029468       0x3c examples/light_switch/provisioner/CMakeFiles/light_switch_provisioner_nrf52832_xxAA_s132_6.0.0.dir/__/__/__/mesh/core/src/transport.c.obj
 .text.sar_ctx_tx_complete
                0x000294a4       0x2e examples/light_switch/provisioner/CMakeFiles/light_switch_provisioner_nrf52832_xxAA_s132_6.0.0.dir/__/__/__/mesh/core/src/transport.c.obj
 *fill*         0x000294d2        0x2 
 .text.sar_ctx_alloc
                0x000294d4       0xa4 examples/light_switch/provisioner/CMakeFiles/light_switch_provisioner_nrf52832_xxAA_s132_6.0.0.dir/__/__/__/mesh/core/src/transport.c.obj
 .text.test_transport_decrypt
                0x00029578       0x88 examples/light_switch/provisioner/CMakeFiles/light_switch_provisioner_nrf52832_xxAA_s132_6.0.0.dir/__/__/__/mesh/core/src/transport.c.obj
 .text.upper_transport_access_packet_in
                0x00029600      0x19c examples/light_switch/provisioner/CMakeFiles/light_switch_provisioner_nrf52832_xxAA_s132_6.0.0.dir/__/__/__/mesh/core/src/transport.c.obj
 .text.trs_packet_header_build
                0x0002979c       0xa6 examples/light_switch/provisioner/CMakeFiles/light_switch_provisioner_nrf52832_xxAA_s132_6.0.0.dir/__/__/__/mesh/core/src/transport.c.obj
 *fill*         0x00029842        0x2 
 .text.tx_retry_timer_reset
                0x00029844       0x44 examples/light_switch/provisioner/CMakeFiles/light_switch_provisioner_nrf52832_xxAA_s132_6.0.0.dir/__/__/__/mesh/core/src/transport.c.obj
 .text.sar_ctx_cancel
                0x00029888       0xa8 examples/light_switch/provisioner/CMakeFiles/light_switch_provisioner_nrf52832_xxAA_s132_6.0.0.dir/__/__/__/mesh/core/src/transport.c.obj
 .text.abort_timeout
                0x00029930        0x8 examples/light_switch/provisioner/CMakeFiles/light_switch_provisioner_nrf52832_xxAA_s132_6.0.0.dir/__/__/__/mesh/core/src/transport.c.obj
 .text.trs_sar_packet_out
                0x00029938       0xda examples/light_switch/provisioner/CMakeFiles/light_switch_provisioner_nrf52832_xxAA_s132_6.0.0.dir/__/__/__/mesh/core/src/transport.c.obj
 .text.retry_timeout
                0x00029a12       0x46 examples/light_switch/provisioner/CMakeFiles/light_switch_provisioner_nrf52832_xxAA_s132_6.0.0.dir/__/__/__/mesh/core/src/transport.c.obj
 .text.upper_transport_packet_in
                0x00029a58      0x150 examples/light_switch/provisioner/CMakeFiles/light_switch_provisioner_nrf52832_xxAA_s132_6.0.0.dir/__/__/__/mesh/core/src/transport.c.obj
 .text.upper_transport_tx
                0x00029ba8      0x1e4 examples/light_switch/provisioner/CMakeFiles/light_switch_provisioner_nrf52832_xxAA_s132_6.0.0.dir/__/__/__/mesh/core/src/transport.c.obj
 .text.transport_sar_mem_funcs_reset
                0x00029d8c       0x28 examples/light_switch/provisioner/CMakeFiles/light_switch_provisioner_nrf52832_xxAA_s132_6.0.0.dir/__/__/__/mesh/core/src/transport.c.obj
                0x00029d8c                transport_sar_mem_funcs_reset
 .text.transport_init
                0x00029db4       0x8c examples/light_switch/provisioner/CMakeFiles/light_switch_provisioner_nrf52832_xxAA_s132_6.0.0.dir/__/__/__/mesh/core/src/transport.c.obj
                0x00029db4                transport_init
 .text.transport_tx
                0x00029e40       0xb4 examples/light_switch/provisioner/CMakeFiles/light_switch_provisioner_nrf52832_xxAA_s132_6.0.0.dir/__/__/__/mesh/core/src/transport.c.obj
                0x00029e40                transport_tx
 .text.transport_control_tx
                0x00029ef4       0x8e examples/light_switch/provisioner/CMakeFiles/light_switch_provisioner_nrf52832_xxAA_s132_6.0.0.dir/__/__/__/mesh/core/src/transport.c.obj
                0x00029ef4                transport_control_tx
 *fill*         0x00029f82        0x2 
 .text.sar_ack_send
                0x00029f84       0xa0 examples/light_switch/provisioner/CMakeFiles/light_switch_provisioner_nrf52832_xxAA_s132_6.0.0.dir/__/__/__/mesh/core/src/transport.c.obj
 .text.transport_sar_process
                0x0002a024       0x74 examples/light_switch/provisioner/CMakeFiles/light_switch_provisioner_nrf52832_xxAA_s132_6.0.0.dir/__/__/__/mesh/core/src/transport.c.obj
 .text.transport_packet_in
                0x0002a098      0x434 examples/light_switch/provisioner/CMakeFiles/light_switch_provisioner_nrf52832_xxAA_s132_6.0.0.dir/__/__/__/mesh/core/src/transport.c.obj
                0x0002a098                transport_packet_in
 .text.ack_timeout
                0x0002a4cc       0x28 examples/light_switch/provisioner/CMakeFiles/light_switch_provisioner_nrf52832_xxAA_s132_6.0.0.dir/__/__/__/mesh/core/src/transport.c.obj
 .text.transport_opt_set
                0x0002a4f4       0xd0 examples/light_switch/provisioner/CMakeFiles/light_switch_provisioner_nrf52832_xxAA_s132_6.0.0.dir/__/__/__/mesh/core/src/transport.c.obj
                0x0002a4f4                transport_opt_set
 .text.transport_opt_get
                0x0002a5c4       0x68 examples/light_switch/provisioner/CMakeFiles/light_switch_provisioner_nrf52832_xxAA_s132_6.0.0.dir/__/__/__/mesh/core/src/transport.c.obj
                0x0002a5c4                transport_opt_get
 .text.transport_control_packet_consumer_add
                0x0002a62c       0x5c examples/light_switch/provisioner/CMakeFiles/light_switch_provisioner_nrf52832_xxAA_s132_6.0.0.dir/__/__/__/mesh/core/src/transport.c.obj
                0x0002a62c                transport_control_packet_consumer_add
 .text.event_handle
                0x0002a688       0x24 examples/light_switch/provisioner/CMakeFiles/light_switch_provisioner_nrf52832_xxAA_s132_6.0.0.dir/__/__/__/mesh/core/src/event.c.obj
                0x0002a688                event_handle
 .text.event_handler_add
                0x0002a6ac       0x1c examples/light_switch/provisioner/CMakeFiles/light_switch_provisioner_nrf52832_xxAA_s132_6.0.0.dir/__/__/__/mesh/core/src/event.c.obj
                0x0002a6ac                event_handler_add
 .text.event_handler_remove
                0x0002a6c8       0x1c examples/light_switch/provisioner/CMakeFiles/light_switch_provisioner_nrf52832_xxAA_s132_6.0.0.dir/__/__/__/mesh/core/src/event.c.obj
                0x0002a6c8                event_handler_remove
 .text.m_index_increment
                0x0002a6e4       0x1e examples/light_switch/provisioner/CMakeFiles/light_switch_provisioner_nrf52832_xxAA_s132_6.0.0.dir/__/__/__/mesh/core/src/packet_buffer.c.obj
 .text.packet_buffer_init
                0x0002a702       0xac examples/light_switch/provisioner/CMakeFiles/light_switch_provisioner_nrf52832_xxAA_s132_6.0.0.dir/__/__/__/mesh/core/src/packet_buffer.c.obj
                0x0002a702                packet_buffer_init
 .text.packet_buffer_flush
                0x0002a7ae       0x60 examples/light_switch/provisioner/CMakeFiles/light_switch_provisioner_nrf52832_xxAA_s132_6.0.0.dir/__/__/__/mesh/core/src/packet_buffer.c.obj
                0x0002a7ae                packet_buffer_flush
 .text.packet_buffer_reserve
                0x0002a80e       0x96 examples/light_switch/provisioner/CMakeFiles/light_switch_provisioner_nrf52832_xxAA_s132_6.0.0.dir/__/__/__/mesh/core/src/packet_buffer.c.obj
                0x0002a80e                packet_buffer_reserve
 .text.packet_buffer_commit
                0x0002a8a4       0x58 examples/light_switch/provisioner/CMakeFiles/light_switch_provisioner_nrf52832_xxAA_s132_6.0.0.dir/__/__/__/mesh/core/src/packet_buffer.c.obj
                0x0002a8a4                packet_buffer_commit
 .text.packet_buffer_pop
                0x0002a8fc       0x3c examples/light_switch/provisioner/CMakeFiles/light_switch_provisioner_nrf52832_xxAA_s132_6.0.0.dir/__/__/__/mesh/core/src/packet_buffer.c.obj
                0x0002a8fc                packet_buffer_pop
 .text.packet_buffer_can_pop
                0x0002a938       0x1c examples/light_switch/provisioner/CMakeFiles/light_switch_provisioner_nrf52832_xxAA_s132_6.0.0.dir/__/__/__/mesh/core/src/packet_buffer.c.obj
                0x0002a938                packet_buffer_can_pop
 .text.packet_buffer_packets_ready_to_pop
                0x0002a954       0x3a examples/light_switch/provisioner/CMakeFiles/light_switch_provisioner_nrf52832_xxAA_s132_6.0.0.dir/__/__/__/mesh/core/src/packet_buffer.c.obj
                0x0002a954                packet_buffer_packets_ready_to_pop
 .text.packet_buffer_free
                0x0002a98e       0x6e examples/light_switch/provisioner/CMakeFiles/light_switch_provisioner_nrf52832_xxAA_s132_6.0.0.dir/__/__/__/mesh/core/src/packet_buffer.c.obj
                0x0002a98e                packet_buffer_free
 .text.get_last_page
                0x0002a9fc       0x14 examples/light_switch/provisioner/CMakeFiles/light_switch_provisioner_nrf52832_xxAA_s132_6.0.0.dir/__/__/__/mesh/core/src/flash_manager_defrag.c.obj
 .text.defrag_on_end
                0x0002aa10       0x1c examples/light_switch/provisioner/CMakeFiles/light_switch_provisioner_nrf52832_xxAA_s132_6.0.0.dir/__/__/__/mesh/core/src/flash_manager_defrag.c.obj
 .text.execute_procedure_step
                0x0002aa2c       0x7c examples/light_switch/provisioner/CMakeFiles/light_switch_provisioner_nrf52832_xxAA_s132_6.0.0.dir/__/__/__/mesh/core/src/flash_manager_defrag.c.obj
 .text.get_next_entry
                0x0002aaa8       0x34 examples/light_switch/provisioner/CMakeFiles/light_switch_provisioner_nrf52832_xxAA_s132_6.0.0.dir/__/__/__/mesh/core/src/flash_manager_defrag.c.obj
 .text.get_next_data_entry
                0x0002aadc       0x26 examples/light_switch/provisioner/CMakeFiles/light_switch_provisioner_nrf52832_xxAA_s132_6.0.0.dir/__/__/__/mesh/core/src/flash_manager_defrag.c.obj
 *fill*         0x0002ab02        0x2 
 .text.on_flash_op_end
                0x0002ab04       0x30 examples/light_switch/provisioner/CMakeFiles/light_switch_provisioner_nrf52832_xxAA_s132_6.0.0.dir/__/__/__/mesh/core/src/flash_manager_defrag.c.obj
 .text.check_for_invalid_entries
                0x0002ab34       0x38 examples/light_switch/provisioner/CMakeFiles/light_switch_provisioner_nrf52832_xxAA_s132_6.0.0.dir/__/__/__/mesh/core/src/flash_manager_defrag.c.obj
 .text.erase_recovery_area
                0x0002ab6c       0x34 examples/light_switch/provisioner/CMakeFiles/light_switch_provisioner_nrf52832_xxAA_s132_6.0.0.dir/__/__/__/mesh/core/src/flash_manager_defrag.c.obj
 .text.flash.constprop.6
                0x0002aba0       0x24 examples/light_switch/provisioner/CMakeFiles/light_switch_provisioner_nrf52832_xxAA_s132_6.0.0.dir/__/__/__/mesh/core/src/flash_manager_defrag.c.obj
 .text.seal_storage_page
                0x0002abc4       0x50 examples/light_switch/provisioner/CMakeFiles/light_switch_provisioner_nrf52832_xxAA_s132_6.0.0.dir/__/__/__/mesh/core/src/flash_manager_defrag.c.obj
 .text.invalidate_duplicate_entries
                0x0002ac14       0x9c examples/light_switch/provisioner/CMakeFiles/light_switch_provisioner_nrf52832_xxAA_s132_6.0.0.dir/__/__/__/mesh/core/src/flash_manager_defrag.c.obj
 .text.copy_metadata
                0x0002acb0       0x3c examples/light_switch/provisioner/CMakeFiles/light_switch_provisioner_nrf52832_xxAA_s132_6.0.0.dir/__/__/__/mesh/core/src/flash_manager_defrag.c.obj
 .text.write_defrag_start_pointer
                0x0002acec       0x20 examples/light_switch/provisioner/CMakeFiles/light_switch_provisioner_nrf52832_xxAA_s132_6.0.0.dir/__/__/__/mesh/core/src/flash_manager_defrag.c.obj
 .text.write_back
                0x0002ad0c       0x28 examples/light_switch/provisioner/CMakeFiles/light_switch_provisioner_nrf52832_xxAA_s132_6.0.0.dir/__/__/__/mesh/core/src/flash_manager_defrag.c.obj
 .text.post_process
                0x0002ad34       0x40 examples/light_switch/provisioner/CMakeFiles/light_switch_provisioner_nrf52832_xxAA_s132_6.0.0.dir/__/__/__/mesh/core/src/flash_manager_defrag.c.obj
 .text.backup_entries
                0x0002ad74       0xf8 examples/light_switch/provisioner/CMakeFiles/light_switch_provisioner_nrf52832_xxAA_s132_6.0.0.dir/__/__/__/mesh/core/src/flash_manager_defrag.c.obj
 .text.erase_source
                0x0002ae6c       0x34 examples/light_switch/provisioner/CMakeFiles/light_switch_provisioner_nrf52832_xxAA_s132_6.0.0.dir/__/__/__/mesh/core/src/flash_manager_defrag.c.obj
 .text.flash_manager_defrag_init
                0x0002aea0       0x8c examples/light_switch/provisioner/CMakeFiles/light_switch_provisioner_nrf52832_xxAA_s132_6.0.0.dir/__/__/__/mesh/core/src/flash_manager_defrag.c.obj
                0x0002aea0                flash_manager_defrag_init
 .text.flash_manager_defrag_is_running
                0x0002af2c       0x10 examples/light_switch/provisioner/CMakeFiles/light_switch_provisioner_nrf52832_xxAA_s132_6.0.0.dir/__/__/__/mesh/core/src/flash_manager_defrag.c.obj
                0x0002af2c                flash_manager_defrag_is_running
 .text.flash_manager_defrag
                0x0002af3c       0x44 examples/light_switch/provisioner/CMakeFiles/light_switch_provisioner_nrf52832_xxAA_s132_6.0.0.dir/__/__/__/mesh/core/src/flash_manager_defrag.c.obj
                0x0002af3c                flash_manager_defrag
 .text.flash_manager_defrag_recovery_page_get
                0x0002af80        0xc examples/light_switch/provisioner/CMakeFiles/light_switch_provisioner_nrf52832_xxAA_s132_6.0.0.dir/__/__/__/mesh/core/src/flash_manager_defrag.c.obj
                0x0002af80                flash_manager_defrag_recovery_page_get
 .text.fifo_init
                0x0002af8c       0x34 examples/light_switch/provisioner/CMakeFiles/light_switch_provisioner_nrf52832_xxAA_s132_6.0.0.dir/__/__/__/mesh/core/src/fifo.c.obj
                0x0002af8c                fifo_init
 .text.fifo_push
                0x0002afc0       0x50 examples/light_switch/provisioner/CMakeFiles/light_switch_provisioner_nrf52832_xxAA_s132_6.0.0.dir/__/__/__/mesh/core/src/fifo.c.obj
                0x0002afc0                fifo_push
 .text.fifo_pop
                0x0002b010       0x52 examples/light_switch/provisioner/CMakeFiles/light_switch_provisioner_nrf52832_xxAA_s132_6.0.0.dir/__/__/__/mesh/core/src/fifo.c.obj
                0x0002b010                fifo_pop
 *fill*         0x0002b062        0x2 
 .text.wait_for_ready
                0x0002b064       0x10 examples/light_switch/provisioner/CMakeFiles/light_switch_provisioner_nrf52832_xxAA_s132_6.0.0.dir/__/__/__/mesh/core/src/nrf_flash.c.obj
 .text.nrf_flash_erase
                0x0002b074       0x50 examples/light_switch/provisioner/CMakeFiles/light_switch_provisioner_nrf52832_xxAA_s132_6.0.0.dir/__/__/__/mesh/core/src/nrf_flash.c.obj
                0x0002b074                nrf_flash_erase
 .text.nrf_flash_write
                0x0002b0c4       0x50 examples/light_switch/provisioner/CMakeFiles/light_switch_provisioner_nrf52832_xxAA_s132_6.0.0.dir/__/__/__/mesh/core/src/nrf_flash.c.obj
                0x0002b0c4                nrf_flash_write
 .text.packet_mgr_init
                0x0002b114       0x4c examples/light_switch/provisioner/CMakeFiles/light_switch_provisioner_nrf52832_xxAA_s132_6.0.0.dir/__/__/__/mesh/core/src/packet_mgr.c.obj
                0x0002b114                packet_mgr_init
 .text.packet_mgr_alloc
                0x0002b160      0x17c examples/light_switch/provisioner/CMakeFiles/light_switch_provisioner_nrf52832_xxAA_s132_6.0.0.dir/__/__/__/mesh/core/src/packet_mgr.c.obj
                0x0002b160                packet_mgr_alloc
 .text.packet_mgr_free
                0x0002b2dc       0x58 examples/light_switch/provisioner/CMakeFiles/light_switch_provisioner_nrf52832_xxAA_s132_6.0.0.dir/__/__/__/mesh/core/src/packet_mgr.c.obj
                0x0002b2dc                packet_mgr_free
 .text.flash_store_iv_index
                0x0002b334       0x38 examples/light_switch/provisioner/CMakeFiles/light_switch_provisioner_nrf52832_xxAA_s132_6.0.0.dir/__/__/__/mesh/core/src/net_state.c.obj
 .text.flash_mem_available
                0x0002b36c       0x14 examples/light_switch/provisioner/CMakeFiles/light_switch_provisioner_nrf52832_xxAA_s132_6.0.0.dir/__/__/__/mesh/core/src/net_state.c.obj
 .text.seqnum_block_allocate
                0x0002b380       0x4c examples/light_switch/provisioner/CMakeFiles/light_switch_provisioner_nrf52832_xxAA_s132_6.0.0.dir/__/__/__/mesh/core/src/net_state.c.obj
 .text.net_state_reset
                0x0002b3cc       0x3c examples/light_switch/provisioner/CMakeFiles/light_switch_provisioner_nrf52832_xxAA_s132_6.0.0.dir/__/__/__/mesh/core/src/net_state.c.obj
                0x0002b3cc                net_state_reset
 .text.flash_write_complete
                0x0002b408       0x64 examples/light_switch/provisioner/CMakeFiles/light_switch_provisioner_nrf52832_xxAA_s132_6.0.0.dir/__/__/__/mesh/core/src/net_state.c.obj
 .text.net_state_recover_from_flash
                0x0002b46c       0x8c examples/light_switch/provisioner/CMakeFiles/light_switch_provisioner_nrf52832_xxAA_s132_6.0.0.dir/__/__/__/mesh/core/src/net_state.c.obj
                0x0002b46c                net_state_recover_from_flash
 .text.net_state_flash_area_get
                0x0002b4f8        0xc examples/light_switch/provisioner/CMakeFiles/light_switch_provisioner_nrf52832_xxAA_s132_6.0.0.dir/__/__/__/mesh/core/src/net_state.c.obj
                0x0002b4f8                net_state_flash_area_get
 .text.init_flash_storage
                0x0002b504       0x40 examples/light_switch/provisioner/CMakeFiles/light_switch_provisioner_nrf52832_xxAA_s132_6.0.0.dir/__/__/__/mesh/core/src/net_state.c.obj
 .text.net_state_init
                0x0002b544       0x5c examples/light_switch/provisioner/CMakeFiles/light_switch_provisioner_nrf52832_xxAA_s132_6.0.0.dir/__/__/__/mesh/core/src/net_state.c.obj
                0x0002b544                net_state_init
 .text.net_state_iv_update_start
                0x0002b5a0       0x68 examples/light_switch/provisioner/CMakeFiles/light_switch_provisioner_nrf52832_xxAA_s132_6.0.0.dir/__/__/__/mesh/core/src/net_state.c.obj
                0x0002b5a0                net_state_iv_update_start
 .text.iv_update_trigger_if_pending
                0x0002b608       0x80 examples/light_switch/provisioner/CMakeFiles/light_switch_provisioner_nrf52832_xxAA_s132_6.0.0.dir/__/__/__/mesh/core/src/net_state.c.obj
 .text.mesh_evt_handler
                0x0002b688       0xa0 examples/light_switch/provisioner/CMakeFiles/light_switch_provisioner_nrf52832_xxAA_s132_6.0.0.dir/__/__/__/mesh/core/src/net_state.c.obj
 .text.iv_update_timer_handler
                0x0002b728       0x68 examples/light_switch/provisioner/CMakeFiles/light_switch_provisioner_nrf52832_xxAA_s132_6.0.0.dir/__/__/__/mesh/core/src/net_state.c.obj
 .text.net_state_seqnum_alloc
                0x0002b790       0x68 examples/light_switch/provisioner/CMakeFiles/light_switch_provisioner_nrf52832_xxAA_s132_6.0.0.dir/__/__/__/mesh/core/src/net_state.c.obj
                0x0002b790                net_state_seqnum_alloc
 .text.net_state_iv_index_lock
                0x0002b7f8       0x3c examples/light_switch/provisioner/CMakeFiles/light_switch_provisioner_nrf52832_xxAA_s132_6.0.0.dir/__/__/__/mesh/core/src/net_state.c.obj
                0x0002b7f8                net_state_iv_index_lock
 .text.net_state_key_refresh_phase_changed
                0x0002b834       0x20 examples/light_switch/provisioner/CMakeFiles/light_switch_provisioner_nrf52832_xxAA_s132_6.0.0.dir/__/__/__/mesh/core/src/net_state.c.obj
                0x0002b834                net_state_key_refresh_phase_changed
 .text.net_state_beacon_iv_index_get
                0x0002b854        0xc examples/light_switch/provisioner/CMakeFiles/light_switch_provisioner_nrf52832_xxAA_s132_6.0.0.dir/__/__/__/mesh/core/src/net_state.c.obj
                0x0002b854                net_state_beacon_iv_index_get
 .text.net_state_tx_iv_index_get
                0x0002b860       0x14 examples/light_switch/provisioner/CMakeFiles/light_switch_provisioner_nrf52832_xxAA_s132_6.0.0.dir/__/__/__/mesh/core/src/net_state.c.obj
                0x0002b860                net_state_tx_iv_index_get
 .text.net_state_rx_iv_index_get
                0x0002b874       0x18 examples/light_switch/provisioner/CMakeFiles/light_switch_provisioner_nrf52832_xxAA_s132_6.0.0.dir/__/__/__/mesh/core/src/net_state.c.obj
                0x0002b874                net_state_rx_iv_index_get
 .text.net_state_iv_update_get
                0x0002b88c        0xc examples/light_switch/provisioner/CMakeFiles/light_switch_provisioner_nrf52832_xxAA_s132_6.0.0.dir/__/__/__/mesh/core/src/net_state.c.obj
                0x0002b88c                net_state_iv_update_get
 .text.send_end_events
                0x0002b898       0x84 examples/light_switch/provisioner/CMakeFiles/light_switch_provisioner_nrf52832_xxAA_s132_6.0.0.dir/__/__/__/mesh/core/src/mesh_flash.c.obj
 .text.flash_op_schedule
                0x0002b91c       0x88 examples/light_switch/provisioner/CMakeFiles/light_switch_provisioner_nrf52832_xxAA_s132_6.0.0.dir/__/__/__/mesh/core/src/mesh_flash.c.obj
 .text.flash_op_start
                0x0002b9a4      0x13c examples/light_switch/provisioner/CMakeFiles/light_switch_provisioner_nrf52832_xxAA_s132_6.0.0.dir/__/__/__/mesh/core/src/mesh_flash.c.obj
 .text.mesh_flash_init
                0x0002bae0       0x88 examples/light_switch/provisioner/CMakeFiles/light_switch_provisioner_nrf52832_xxAA_s132_6.0.0.dir/__/__/__/mesh/core/src/mesh_flash.c.obj
                0x0002bae0                mesh_flash_init
 .text.mesh_flash_user_callback_set
                0x0002bb68       0x20 examples/light_switch/provisioner/CMakeFiles/light_switch_provisioner_nrf52832_xxAA_s132_6.0.0.dir/__/__/__/mesh/core/src/mesh_flash.c.obj
                0x0002bb68                mesh_flash_user_callback_set
 .text.mesh_flash_op_push
                0x0002bb88       0xe4 examples/light_switch/provisioner/CMakeFiles/light_switch_provisioner_nrf52832_xxAA_s132_6.0.0.dir/__/__/__/mesh/core/src/mesh_flash.c.obj
                0x0002bb88                mesh_flash_op_push
 .text.nrf_mesh_address_type_get
                0x0002bc6c       0x10 examples/light_switch/provisioner/CMakeFiles/light_switch_provisioner_nrf52832_xxAA_s132_6.0.0.dir/__/__/__/mesh/core/src/nrf_mesh_utils.c.obj
                0x0002bc6c                nrf_mesh_address_type_get
 .text.sd_softdevice_is_enabled
                0x0002bc7c        0x4 examples/light_switch/provisioner/CMakeFiles/light_switch_provisioner_nrf52832_xxAA_s132_6.0.0.dir/__/__/__/mesh/core/src/nrf_mesh.c.obj
 .text.nrf_mesh_listen
                0x0002bc80      0x138 examples/light_switch/provisioner/CMakeFiles/light_switch_provisioner_nrf52832_xxAA_s132_6.0.0.dir/__/__/__/mesh/core/src/nrf_mesh.c.obj
 .text.flash_stable_cb
                0x0002bdb8       0x20 examples/light_switch/provisioner/CMakeFiles/light_switch_provisioner_nrf52832_xxAA_s132_6.0.0.dir/__/__/__/mesh/core/src/nrf_mesh.c.obj
 .text.scanner_packet_process_cb
                0x0002bdd8       0x8c examples/light_switch/provisioner/CMakeFiles/light_switch_provisioner_nrf52832_xxAA_s132_6.0.0.dir/__/__/__/mesh/core/src/nrf_mesh.c.obj
 .text.nrf_mesh_init
                0x0002be64       0xd8 examples/light_switch/provisioner/CMakeFiles/light_switch_provisioner_nrf52832_xxAA_s132_6.0.0.dir/__/__/__/mesh/core/src/nrf_mesh.c.obj
                0x0002be64                nrf_mesh_init
 .text.nrf_mesh_enable
                0x0002bf3c       0x3c examples/light_switch/provisioner/CMakeFiles/light_switch_provisioner_nrf52832_xxAA_s132_6.0.0.dir/__/__/__/mesh/core/src/nrf_mesh.c.obj
                0x0002bf3c                nrf_mesh_enable
 .text.nrf_mesh_packet_send
                0x0002bf78       0x7c examples/light_switch/provisioner/CMakeFiles/light_switch_provisioner_nrf52832_xxAA_s132_6.0.0.dir/__/__/__/mesh/core/src/nrf_mesh.c.obj
                0x0002bf78                nrf_mesh_packet_send
 .text.nrf_mesh_evt_handler_add
                0x0002bff4        0x4 examples/light_switch/provisioner/CMakeFiles/light_switch_provisioner_nrf52832_xxAA_s132_6.0.0.dir/__/__/__/mesh/core/src/nrf_mesh.c.obj
                0x0002bff4                nrf_mesh_evt_handler_add
 .text.nrf_mesh_on_sd_evt
                0x0002bff8        0xa examples/light_switch/provisioner/CMakeFiles/light_switch_provisioner_nrf52832_xxAA_s132_6.0.0.dir/__/__/__/mesh/core/src/nrf_mesh.c.obj
                0x0002bff8                nrf_mesh_on_sd_evt
 .text.nrf_mesh_subnet_added
                0x0002c002        0x2 examples/light_switch/provisioner/CMakeFiles/light_switch_provisioner_nrf52832_xxAA_s132_6.0.0.dir/__/__/__/mesh/core/src/nrf_mesh.c.obj
                0x0002c002                nrf_mesh_subnet_added
 .text.queue_init
                0x0002c004       0x14 examples/light_switch/provisioner/CMakeFiles/light_switch_provisioner_nrf52832_xxAA_s132_6.0.0.dir/__/__/__/mesh/core/src/queue.c.obj
                0x0002c004                queue_init
 .text.queue_push
                0x0002c018       0x34 examples/light_switch/provisioner/CMakeFiles/light_switch_provisioner_nrf52832_xxAA_s132_6.0.0.dir/__/__/__/mesh/core/src/queue.c.obj
                0x0002c018                queue_push
 .text.queue_pop
                0x0002c04c       0x26 examples/light_switch/provisioner/CMakeFiles/light_switch_provisioner_nrf52832_xxAA_s132_6.0.0.dir/__/__/__/mesh/core/src/queue.c.obj
                0x0002c04c                queue_pop
 .text.queue_peek
                0x0002c072       0x10 examples/light_switch/provisioner/CMakeFiles/light_switch_provisioner_nrf52832_xxAA_s132_6.0.0.dir/__/__/__/mesh/core/src/queue.c.obj
                0x0002c072                queue_peek
 .text.sd_power_reset_reason_clr
                0x0002c082        0x4 examples/light_switch/provisioner/CMakeFiles/light_switch_provisioner_nrf52832_xxAA_s132_6.0.0.dir/__/__/__/mesh/core/src/hal.c.obj
 .text.sd_power_gpregret_set
                0x0002c086        0x4 examples/light_switch/provisioner/CMakeFiles/light_switch_provisioner_nrf52832_xxAA_s132_6.0.0.dir/__/__/__/mesh/core/src/hal.c.obj
 *fill*         0x0002c08a        0x2 
 .text.hal_device_reset
                0x0002c08c       0x38 examples/light_switch/provisioner/CMakeFiles/light_switch_provisioner_nrf52832_xxAA_s132_6.0.0.dir/__/__/__/mesh/core/src/hal.c.obj
                0x0002c08c                hal_device_reset
 .text.hal_lfclk_ppm_get
                0x0002c0c4       0x14 examples/light_switch/provisioner/CMakeFiles/light_switch_provisioner_nrf52832_xxAA_s132_6.0.0.dir/__/__/__/mesh/core/src/hal.c.obj
                0x0002c0c4                hal_lfclk_ppm_get
 .text.my_xor.constprop.1
                0x0002c0d8       0x20 examples/light_switch/provisioner/CMakeFiles/light_switch_provisioner_nrf52832_xxAA_s132_6.0.0.dir/__/__/__/mesh/core/src/aes_cmac.c.obj
 .text.utils_lshift.constprop.2
                0x0002c0f8       0x24 examples/light_switch/provisioner/CMakeFiles/light_switch_provisioner_nrf52832_xxAA_s132_6.0.0.dir/__/__/__/mesh/core/src/aes_cmac.c.obj
 .text.aes_cmac_subkey_generate
                0x0002c11c       0x6c examples/light_switch/provisioner/CMakeFiles/light_switch_provisioner_nrf52832_xxAA_s132_6.0.0.dir/__/__/__/mesh/core/src/aes_cmac.c.obj
                0x0002c11c                aes_cmac_subkey_generate
 .text.aes_cmac
                0x0002c188       0xbc examples/light_switch/provisioner/CMakeFiles/light_switch_provisioner_nrf52832_xxAA_s132_6.0.0.dir/__/__/__/mesh/core/src/aes_cmac.c.obj
                0x0002c188                aes_cmac
 .text.add_to_add_list
                0x0002c244       0x30 examples/light_switch/provisioner/CMakeFiles/light_switch_provisioner_nrf52832_xxAA_s132_6.0.0.dir/__/__/__/mesh/core/src/timer_scheduler.c.obj
 .text.process_dirty_events
                0x0002c274       0x5c examples/light_switch/provisioner/CMakeFiles/light_switch_provisioner_nrf52832_xxAA_s132_6.0.0.dir/__/__/__/mesh/core/src/timer_scheduler.c.obj
 .text.timer_cb
                0x0002c2d0        0xc examples/light_switch/provisioner/CMakeFiles/light_switch_provisioner_nrf52832_xxAA_s132_6.0.0.dir/__/__/__/mesh/core/src/timer_scheduler.c.obj
 .text.add_evt.constprop.1
                0x0002c2dc       0x58 examples/light_switch/provisioner/CMakeFiles/light_switch_provisioner_nrf52832_xxAA_s132_6.0.0.dir/__/__/__/mesh/core/src/timer_scheduler.c.obj
 .text.process_add_list
                0x0002c334       0x3c examples/light_switch/provisioner/CMakeFiles/light_switch_provisioner_nrf52832_xxAA_s132_6.0.0.dir/__/__/__/mesh/core/src/timer_scheduler.c.obj
 .text.flag_event_cb
                0x0002c370       0xd8 examples/light_switch/provisioner/CMakeFiles/light_switch_provisioner_nrf52832_xxAA_s132_6.0.0.dir/__/__/__/mesh/core/src/timer_scheduler.c.obj
 .text.timer_sch_init
                0x0002c448       0x24 examples/light_switch/provisioner/CMakeFiles/light_switch_provisioner_nrf52832_xxAA_s132_6.0.0.dir/__/__/__/mesh/core/src/timer_scheduler.c.obj
                0x0002c448                timer_sch_init
 .text.timer_sch_schedule
                0x0002c46c       0x3c examples/light_switch/provisioner/CMakeFiles/light_switch_provisioner_nrf52832_xxAA_s132_6.0.0.dir/__/__/__/mesh/core/src/timer_scheduler.c.obj
                0x0002c46c                timer_sch_schedule
 .text.timer_sch_abort
                0x0002c4a8       0x58 examples/light_switch/provisioner/CMakeFiles/light_switch_provisioner_nrf52832_xxAA_s132_6.0.0.dir/__/__/__/mesh/core/src/timer_scheduler.c.obj
                0x0002c4a8                timer_sch_abort
 .text.timer_sch_reschedule
                0x0002c500       0x64 examples/light_switch/provisioner/CMakeFiles/light_switch_provisioner_nrf52832_xxAA_s132_6.0.0.dir/__/__/__/mesh/core/src/timer_scheduler.c.obj
                0x0002c500                timer_sch_reschedule
 .text.timer_mut_unlock
                0x0002c564       0x10 examples/light_switch/provisioner/CMakeFiles/light_switch_provisioner_nrf52832_xxAA_s132_6.0.0.dir/__/__/__/mesh/core/src/timer.c.obj
 .text.timer_order_cb
                0x0002c574       0x94 examples/light_switch/provisioner/CMakeFiles/light_switch_provisioner_nrf52832_xxAA_s132_6.0.0.dir/__/__/__/mesh/core/src/timer.c.obj
                0x0002c574                timer_order_cb
 .text.timer_now
                0x0002c608       0x48 examples/light_switch/provisioner/CMakeFiles/light_switch_provisioner_nrf52832_xxAA_s132_6.0.0.dir/__/__/__/mesh/core/src/timer.c.obj
                0x0002c608                timer_now
 .text.timer_event_handler
                0x0002c650       0x84 examples/light_switch/provisioner/CMakeFiles/light_switch_provisioner_nrf52832_xxAA_s132_6.0.0.dir/__/__/__/mesh/core/src/timer.c.obj
                0x0002c650                timer_event_handler
 .text.timer_on_ts_begin
                0x0002c6d4       0xf4 examples/light_switch/provisioner/CMakeFiles/light_switch_provisioner_nrf52832_xxAA_s132_6.0.0.dir/__/__/__/mesh/core/src/timer.c.obj
                0x0002c6d4                timer_on_ts_begin
 .text.timer_on_ts_end
                0x0002c7c8       0x60 examples/light_switch/provisioner/CMakeFiles/light_switch_provisioner_nrf52832_xxAA_s132_6.0.0.dir/__/__/__/mesh/core/src/timer.c.obj
                0x0002c7c8                timer_on_ts_end
 .text.timer_cb
                0x0002c828       0x10 examples/light_switch/provisioner/CMakeFiles/light_switch_provisioner_nrf52832_xxAA_s132_6.0.0.dir/__/__/__/mesh/core/src/ticker.c.obj
 .text.ticker_init
                0x0002c838       0x3c examples/light_switch/provisioner/CMakeFiles/light_switch_provisioner_nrf52832_xxAA_s132_6.0.0.dir/__/__/__/mesh/core/src/ticker.c.obj
                0x0002c838                ticker_init
 .text.sd_rand_application_bytes_available_get
                0x0002c874        0x4 examples/light_switch/provisioner/CMakeFiles/light_switch_provisioner_nrf52832_xxAA_s132_6.0.0.dir/__/__/__/mesh/core/src/rand.c.obj
 .text.sd_rand_application_vector_get
                0x0002c878        0x4 examples/light_switch/provisioner/CMakeFiles/light_switch_provisioner_nrf52832_xxAA_s132_6.0.0.dir/__/__/__/mesh/core/src/rand.c.obj
 .text.rand_prng_get
                0x0002c87c       0x22 examples/light_switch/provisioner/CMakeFiles/light_switch_provisioner_nrf52832_xxAA_s132_6.0.0.dir/__/__/__/mesh/core/src/rand.c.obj
                0x0002c87c                rand_prng_get
 .text.rand_hw_rng_get
                0x0002c89e       0x44 examples/light_switch/provisioner/CMakeFiles/light_switch_provisioner_nrf52832_xxAA_s132_6.0.0.dir/__/__/__/mesh/core/src/rand.c.obj
                0x0002c89e                rand_hw_rng_get
 *fill*         0x0002c8e2        0x2 
 .text.rand_prng_seed
                0x0002c8e4       0x34 examples/light_switch/provisioner/CMakeFiles/light_switch_provisioner_nrf52832_xxAA_s132_6.0.0.dir/__/__/__/mesh/core/src/rand.c.obj
                0x0002c8e4                rand_prng_seed
 .text.nrf_mesh_opt_set
                0x0002c918       0x26 examples/light_switch/provisioner/CMakeFiles/light_switch_provisioner_nrf52832_xxAA_s132_6.0.0.dir/__/__/__/mesh/core/src/nrf_mesh_opt.c.obj
                0x0002c918                nrf_mesh_opt_set
 .text.nrf_mesh_opt_get
                0x0002c93e       0x26 examples/light_switch/provisioner/CMakeFiles/light_switch_provisioner_nrf52832_xxAA_s132_6.0.0.dir/__/__/__/mesh/core/src/nrf_mesh_opt.c.obj
                0x0002c93e                nrf_mesh_opt_get
 .text.sd_radio_session_open
                0x0002c964        0x4 examples/light_switch/provisioner/CMakeFiles/light_switch_provisioner_nrf52832_xxAA_s132_6.0.0.dir/__/__/__/mesh/core/src/timeslot.c.obj
 .text.sd_radio_session_close
                0x0002c968        0x4 examples/light_switch/provisioner/CMakeFiles/light_switch_provisioner_nrf52832_xxAA_s132_6.0.0.dir/__/__/__/mesh/core/src/timeslot.c.obj
 .text.sd_radio_request
                0x0002c96c        0x4 examples/light_switch/provisioner/CMakeFiles/light_switch_provisioner_nrf52832_xxAA_s132_6.0.0.dir/__/__/__/mesh/core/src/timeslot.c.obj
 .text.end_timer_handler
                0x0002c970       0x24 examples/light_switch/provisioner/CMakeFiles/light_switch_provisioner_nrf52832_xxAA_s132_6.0.0.dir/__/__/__/mesh/core/src/timeslot.c.obj
 .text.get_end_time.constprop.10
                0x0002c994       0x28 examples/light_switch/provisioner/CMakeFiles/light_switch_provisioner_nrf52832_xxAA_s132_6.0.0.dir/__/__/__/mesh/core/src/timeslot.c.obj
 .text.handle_extend_end.constprop.3
                0x0002c9bc       0xb4 examples/light_switch/provisioner/CMakeFiles/light_switch_provisioner_nrf52832_xxAA_s132_6.0.0.dir/__/__/__/mesh/core/src/timeslot.c.obj
 .text.radio_signal_callback
                0x0002ca70      0x138 examples/light_switch/provisioner/CMakeFiles/light_switch_provisioner_nrf52832_xxAA_s132_6.0.0.dir/__/__/__/mesh/core/src/timeslot.c.obj
 .text.timeslot_sd_event_handler
                0x0002cba8       0x38 examples/light_switch/provisioner/CMakeFiles/light_switch_provisioner_nrf52832_xxAA_s132_6.0.0.dir/__/__/__/mesh/core/src/timeslot.c.obj
                0x0002cba8                timeslot_sd_event_handler
 .text.timeslot_init
                0x0002cbe0       0x48 examples/light_switch/provisioner/CMakeFiles/light_switch_provisioner_nrf52832_xxAA_s132_6.0.0.dir/__/__/__/mesh/core/src/timeslot.c.obj
                0x0002cbe0                timeslot_init
 .text.timeslot_start
                0x0002cc28       0x20 examples/light_switch/provisioner/CMakeFiles/light_switch_provisioner_nrf52832_xxAA_s132_6.0.0.dir/__/__/__/mesh/core/src/timeslot.c.obj
                0x0002cc28                timeslot_start
 .text.timeslot_end_is_pending
                0x0002cc48       0x24 examples/light_switch/provisioner/CMakeFiles/light_switch_provisioner_nrf52832_xxAA_s132_6.0.0.dir/__/__/__/mesh/core/src/timeslot.c.obj
                0x0002cc48                timeslot_end_is_pending
 .text.timeslot_start_time_get
                0x0002cc6c        0xc examples/light_switch/provisioner/CMakeFiles/light_switch_provisioner_nrf52832_xxAA_s132_6.0.0.dir/__/__/__/mesh/core/src/timeslot.c.obj
                0x0002cc6c                timeslot_start_time_get
 .text.timeslot_remaining_time_get
                0x0002cc78       0x20 examples/light_switch/provisioner/CMakeFiles/light_switch_provisioner_nrf52832_xxAA_s132_6.0.0.dir/__/__/__/mesh/core/src/timeslot.c.obj
                0x0002cc78                timeslot_remaining_time_get
 .text.timeslot_is_in_cb
                0x0002cc98        0xc examples/light_switch/provisioner/CMakeFiles/light_switch_provisioner_nrf52832_xxAA_s132_6.0.0.dir/__/__/__/mesh/core/src/timeslot.c.obj
                0x0002cc98                timeslot_is_in_cb
 .text.timeslot_trigger
                0x0002cca4       0x24 examples/light_switch/provisioner/CMakeFiles/light_switch_provisioner_nrf52832_xxAA_s132_6.0.0.dir/__/__/__/mesh/core/src/timeslot.c.obj
                0x0002cca4                timeslot_trigger
 .text.timeslot_stop
                0x0002ccc8       0x10 examples/light_switch/provisioner/CMakeFiles/light_switch_provisioner_nrf52832_xxAA_s132_6.0.0.dir/__/__/__/mesh/core/src/timeslot.c.obj
                0x0002ccc8                timeslot_stop
 .text.timeslot_state_lock
                0x0002ccd8       0x28 examples/light_switch/provisioner/CMakeFiles/light_switch_provisioner_nrf52832_xxAA_s132_6.0.0.dir/__/__/__/mesh/core/src/timeslot.c.obj
                0x0002ccd8                timeslot_state_lock
 .text.trigger_event_handler
                0x0002cd00       0x1c examples/light_switch/provisioner/CMakeFiles/light_switch_provisioner_nrf52832_xxAA_s132_6.0.0.dir/__/__/__/mesh/core/src/bearer_event.c.obj
 .text.evt_push
                0x0002cd1c       0x1c examples/light_switch/provisioner/CMakeFiles/light_switch_provisioner_nrf52832_xxAA_s132_6.0.0.dir/__/__/__/mesh/core/src/bearer_event.c.obj
 .text.bearer_event_init
                0x0002cd38       0x48 examples/light_switch/provisioner/CMakeFiles/light_switch_provisioner_nrf52832_xxAA_s132_6.0.0.dir/__/__/__/mesh/core/src/bearer_event.c.obj
                0x0002cd38                bearer_event_init
 .text.bearer_event_timer_post
                0x0002cd80       0x24 examples/light_switch/provisioner/CMakeFiles/light_switch_provisioner_nrf52832_xxAA_s132_6.0.0.dir/__/__/__/mesh/core/src/bearer_event.c.obj
                0x0002cd80                bearer_event_timer_post
 .text.bearer_event_critical_section_begin
                0x0002cda4       0x44 examples/light_switch/provisioner/CMakeFiles/light_switch_provisioner_nrf52832_xxAA_s132_6.0.0.dir/__/__/__/mesh/core/src/bearer_event.c.obj
                0x0002cda4                bearer_event_critical_section_begin
 .text.bearer_event_critical_section_end
                0x0002cde8       0x40 examples/light_switch/provisioner/CMakeFiles/light_switch_provisioner_nrf52832_xxAA_s132_6.0.0.dir/__/__/__/mesh/core/src/bearer_event.c.obj
                0x0002cde8                bearer_event_critical_section_end
 .text.bearer_event_flag_add
                0x0002ce28       0x3c examples/light_switch/provisioner/CMakeFiles/light_switch_provisioner_nrf52832_xxAA_s132_6.0.0.dir/__/__/__/mesh/core/src/bearer_event.c.obj
                0x0002ce28                bearer_event_flag_add
 .text.bearer_event_flag_set
                0x0002ce64       0x44 examples/light_switch/provisioner/CMakeFiles/light_switch_provisioner_nrf52832_xxAA_s132_6.0.0.dir/__/__/__/mesh/core/src/bearer_event.c.obj
                0x0002ce64                bearer_event_flag_set
 .text.bearer_event_sequential_add
                0x0002cea8       0x2e examples/light_switch/provisioner/CMakeFiles/light_switch_provisioner_nrf52832_xxAA_s132_6.0.0.dir/__/__/__/mesh/core/src/bearer_event.c.obj
                0x0002cea8                bearer_event_sequential_add
 *fill*         0x0002ced6        0x2 
 .text.bearer_event_sequential_post
                0x0002ced8       0x44 examples/light_switch/provisioner/CMakeFiles/light_switch_provisioner_nrf52832_xxAA_s132_6.0.0.dir/__/__/__/mesh/core/src/bearer_event.c.obj
                0x0002ced8                bearer_event_sequential_post
 .text.bearer_event_sequential_pending
                0x0002cf1c       0x10 examples/light_switch/provisioner/CMakeFiles/light_switch_provisioner_nrf52832_xxAA_s132_6.0.0.dir/__/__/__/mesh/core/src/bearer_event.c.obj
                0x0002cf1c                bearer_event_sequential_pending
 .text.bearer_event_handler
                0x0002cf2c       0xe8 examples/light_switch/provisioner/CMakeFiles/light_switch_provisioner_nrf52832_xxAA_s132_6.0.0.dir/__/__/__/mesh/core/src/bearer_event.c.obj
                0x0002cf2c                bearer_event_handler
 .text.QDEC_IRQHandler
                0x0002d014        0x4 examples/light_switch/provisioner/CMakeFiles/light_switch_provisioner_nrf52832_xxAA_s132_6.0.0.dir/__/__/__/mesh/core/src/bearer_event.c.obj
                0x0002d014                QDEC_IRQHandler
 .text.enc_aes_encrypt
                0x0002d018        0x4 examples/light_switch/provisioner/CMakeFiles/light_switch_provisioner_nrf52832_xxAA_s132_6.0.0.dir/__/__/__/mesh/core/src/enc.c.obj
                0x0002d018                enc_aes_encrypt
 .text.enc_aes_cmac
                0x0002d01c        0x4 examples/light_switch/provisioner/CMakeFiles/light_switch_provisioner_nrf52832_xxAA_s132_6.0.0.dir/__/__/__/mesh/core/src/enc.c.obj
                0x0002d01c                enc_aes_cmac
 .text.enc_aes_ccm_encrypt
                0x0002d020        0x4 examples/light_switch/provisioner/CMakeFiles/light_switch_provisioner_nrf52832_xxAA_s132_6.0.0.dir/__/__/__/mesh/core/src/enc.c.obj
                0x0002d020                enc_aes_ccm_encrypt
 .text.enc_aes_ccm_decrypt
                0x0002d024        0x4 examples/light_switch/provisioner/CMakeFiles/light_switch_provisioner_nrf52832_xxAA_s132_6.0.0.dir/__/__/__/mesh/core/src/enc.c.obj
                0x0002d024                enc_aes_ccm_decrypt
 .text.enc_nonce_generate
                0x0002d028       0xbc examples/light_switch/provisioner/CMakeFiles/light_switch_provisioner_nrf52832_xxAA_s132_6.0.0.dir/__/__/__/mesh/core/src/enc.c.obj
                0x0002d028                enc_nonce_generate
 .text.enc_s1   0x0002d0e4       0x2c examples/light_switch/provisioner/CMakeFiles/light_switch_provisioner_nrf52832_xxAA_s132_6.0.0.dir/__/__/__/mesh/core/src/enc.c.obj
                0x0002d0e4                enc_s1
 .text.enc_k1   0x0002d110       0x3c examples/light_switch/provisioner/CMakeFiles/light_switch_provisioner_nrf52832_xxAA_s132_6.0.0.dir/__/__/__/mesh/core/src/enc.c.obj
                0x0002d110                enc_k1
 .text.enc_k2   0x0002d14c       0xc8 examples/light_switch/provisioner/CMakeFiles/light_switch_provisioner_nrf52832_xxAA_s132_6.0.0.dir/__/__/__/mesh/core/src/enc.c.obj
                0x0002d14c                enc_k2
 .text.enc_k3   0x0002d214       0x5c examples/light_switch/provisioner/CMakeFiles/light_switch_provisioner_nrf52832_xxAA_s132_6.0.0.dir/__/__/__/mesh/core/src/enc.c.obj
                0x0002d214                enc_k3
 .text.enc_k4   0x0002d270       0x54 examples/light_switch/provisioner/CMakeFiles/light_switch_provisioner_nrf52832_xxAA_s132_6.0.0.dir/__/__/__/mesh/core/src/enc.c.obj
                0x0002d270                enc_k4
 .text.allocate_packet
                0x0002d2c4       0x6a examples/light_switch/provisioner/CMakeFiles/light_switch_provisioner_nrf52832_xxAA_s132_6.0.0.dir/__/__/__/mesh/core/src/network.c.obj
 *fill*         0x0002d32e        0x2 
 .text.network_init
                0x0002d330       0x2c examples/light_switch/provisioner/CMakeFiles/light_switch_provisioner_nrf52832_xxAA_s132_6.0.0.dir/__/__/__/mesh/core/src/network.c.obj
                0x0002d330                network_init
 .text.network_opt_set
                0x0002d35c       0x70 examples/light_switch/provisioner/CMakeFiles/light_switch_provisioner_nrf52832_xxAA_s132_6.0.0.dir/__/__/__/mesh/core/src/network.c.obj
                0x0002d35c                network_opt_set
 .text.network_opt_get
                0x0002d3cc       0x4c examples/light_switch/provisioner/CMakeFiles/light_switch_provisioner_nrf52832_xxAA_s132_6.0.0.dir/__/__/__/mesh/core/src/network.c.obj
                0x0002d3cc                network_opt_get
 .text.network_packet_alloc
                0x0002d418       0x30 examples/light_switch/provisioner/CMakeFiles/light_switch_provisioner_nrf52832_xxAA_s132_6.0.0.dir/__/__/__/mesh/core/src/network.c.obj
                0x0002d418                network_packet_alloc
 .text.network_packet_send
                0x0002d448       0x46 examples/light_switch/provisioner/CMakeFiles/light_switch_provisioner_nrf52832_xxAA_s132_6.0.0.dir/__/__/__/mesh/core/src/network.c.obj
                0x0002d448                network_packet_send
 *fill*         0x0002d48e        0x2 
 .text.network_packet_in
                0x0002d490      0x168 examples/light_switch/provisioner/CMakeFiles/light_switch_provisioner_nrf52832_xxAA_s132_6.0.0.dir/__/__/__/mesh/core/src/network.c.obj
                0x0002d490                network_packet_in
 .text.nonce_type_get
                0x0002d5f8       0x16 examples/light_switch/provisioner/CMakeFiles/light_switch_provisioner_nrf52832_xxAA_s132_6.0.0.dir/__/__/__/mesh/core/src/net_packet.c.obj
 .text.header_transfuscate
                0x0002d60e       0x54 examples/light_switch/provisioner/CMakeFiles/light_switch_provisioner_nrf52832_xxAA_s132_6.0.0.dir/__/__/__/mesh/core/src/net_packet.c.obj
 *fill*         0x0002d662        0x2 
 .text.net_packet_decrypt
                0x0002d664      0x224 examples/light_switch/provisioner/CMakeFiles/light_switch_provisioner_nrf52832_xxAA_s132_6.0.0.dir/__/__/__/mesh/core/src/net_packet.c.obj
                0x0002d664                net_packet_decrypt
 .text.net_packet_encrypt
                0x0002d888       0x7e examples/light_switch/provisioner/CMakeFiles/light_switch_provisioner_nrf52832_xxAA_s132_6.0.0.dir/__/__/__/mesh/core/src/net_packet.c.obj
                0x0002d888                net_packet_encrypt
 .text.net_packet_header_set
                0x0002d906       0xaa examples/light_switch/provisioner/CMakeFiles/light_switch_provisioner_nrf52832_xxAA_s132_6.0.0.dir/__/__/__/mesh/core/src/net_packet.c.obj
                0x0002d906                net_packet_header_set
 .text.net_packet_payload_len_get
                0x0002d9b0       0x10 examples/light_switch/provisioner/CMakeFiles/light_switch_provisioner_nrf52832_xxAA_s132_6.0.0.dir/__/__/__/mesh/core/src/net_packet.c.obj
                0x0002d9b0                net_packet_payload_len_get
 .text.net_packet_from_payload
                0x0002d9c0        0x4 examples/light_switch/provisioner/CMakeFiles/light_switch_provisioner_nrf52832_xxAA_s132_6.0.0.dir/__/__/__/mesh/core/src/net_packet.c.obj
                0x0002d9c0                net_packet_from_payload
 .text.net_packet_obfuscation_start_get
                0x0002d9c4        0x4 examples/light_switch/provisioner/CMakeFiles/light_switch_provisioner_nrf52832_xxAA_s132_6.0.0.dir/__/__/__/mesh/core/src/net_packet.c.obj
                0x0002d9c4                net_packet_obfuscation_start_get
 .text.stage_get_available
                0x0002d9c8       0x24 examples/light_switch/provisioner/CMakeFiles/light_switch_provisioner_nrf52832_xxAA_s132_6.0.0.dir/__/__/__/mesh/core/src/msqueue.c.obj
 .text.msq_get  0x0002d9ec       0x38 examples/light_switch/provisioner/CMakeFiles/light_switch_provisioner_nrf52832_xxAA_s132_6.0.0.dir/__/__/__/mesh/core/src/msqueue.c.obj
                0x0002d9ec                msq_get
 .text.msq_move
                0x0002da24       0x2e examples/light_switch/provisioner/CMakeFiles/light_switch_provisioner_nrf52832_xxAA_s132_6.0.0.dir/__/__/__/mesh/core/src/msqueue.c.obj
                0x0002da24                msq_move
 .text.msq_reset
                0x0002da52       0x20 examples/light_switch/provisioner/CMakeFiles/light_switch_provisioner_nrf52832_xxAA_s132_6.0.0.dir/__/__/__/mesh/core/src/msqueue.c.obj
                0x0002da52                msq_reset
 .text.msq_init
                0x0002da72       0x4a examples/light_switch/provisioner/CMakeFiles/light_switch_provisioner_nrf52832_xxAA_s132_6.0.0.dir/__/__/__/mesh/core/src/msqueue.c.obj
                0x0002da72                msq_init
 .text.msq_available
                0x0002dabc       0x26 examples/light_switch/provisioner/CMakeFiles/light_switch_provisioner_nrf52832_xxAA_s132_6.0.0.dir/__/__/__/mesh/core/src/msqueue.c.obj
                0x0002dabc                msq_available
 .text.nrf_mesh_keygen_aid
                0x0002dae2       0x12 examples/light_switch/provisioner/CMakeFiles/light_switch_provisioner_nrf52832_xxAA_s132_6.0.0.dir/__/__/__/mesh/core/src/nrf_mesh_keygen.c.obj
                0x0002dae2                nrf_mesh_keygen_aid
 .text.nrf_mesh_keygen_network_secmat
                0x0002daf4       0x20 examples/light_switch/provisioner/CMakeFiles/light_switch_provisioner_nrf52832_xxAA_s132_6.0.0.dir/__/__/__/mesh/core/src/nrf_mesh_keygen.c.obj
                0x0002daf4                nrf_mesh_keygen_network_secmat
 .text.nrf_mesh_keygen_beacon_secmat
                0x0002db14       0x50 examples/light_switch/provisioner/CMakeFiles/light_switch_provisioner_nrf52832_xxAA_s132_6.0.0.dir/__/__/__/mesh/core/src/nrf_mesh_keygen.c.obj
                0x0002db14                nrf_mesh_keygen_beacon_secmat
 .text.nrf_mesh_keygen_virtual_address
                0x0002db64       0x50 examples/light_switch/provisioner/CMakeFiles/light_switch_provisioner_nrf52832_xxAA_s132_6.0.0.dir/__/__/__/mesh/core/src/nrf_mesh_keygen.c.obj
                0x0002db64                nrf_mesh_keygen_virtual_address
 .text.list_insert
                0x0002dbb4       0x1c examples/light_switch/provisioner/CMakeFiles/light_switch_provisioner_nrf52832_xxAA_s132_6.0.0.dir/__/__/__/mesh/core/src/list.c.obj
 .text.list_add
                0x0002dbd0       0x42 examples/light_switch/provisioner/CMakeFiles/light_switch_provisioner_nrf52832_xxAA_s132_6.0.0.dir/__/__/__/mesh/core/src/list.c.obj
                0x0002dbd0                list_add
 .text.list_remove
                0x0002dc12       0x3a examples/light_switch/provisioner/CMakeFiles/light_switch_provisioner_nrf52832_xxAA_s132_6.0.0.dir/__/__/__/mesh/core/src/list.c.obj
                0x0002dc12                list_remove
 .text.list_compare_add
                0x0002dc4c       0x56 examples/light_switch/provisioner/CMakeFiles/light_switch_provisioner_nrf52832_xxAA_s132_6.0.0.dir/__/__/__/mesh/core/src/list.c.obj
                0x0002dc4c                list_compare_add
 *fill*         0x0002dca2        0x2 
 .text.log_callback_rtt
                0x0002dca4       0x2c examples/light_switch/provisioner/CMakeFiles/light_switch_provisioner_nrf52832_xxAA_s132_6.0.0.dir/__/__/__/mesh/core/src/log.c.obj
                0x0002dca4                log_callback_rtt
 .text.log_init
                0x0002dcd0       0x1c examples/light_switch/provisioner/CMakeFiles/light_switch_provisioner_nrf52832_xxAA_s132_6.0.0.dir/__/__/__/mesh/core/src/log.c.obj
                0x0002dcd0                log_init
 .text.log_vprintf
                0x0002dcec       0x18 examples/light_switch/provisioner/CMakeFiles/light_switch_provisioner_nrf52832_xxAA_s132_6.0.0.dir/__/__/__/mesh/core/src/log.c.obj
                0x0002dcec                log_vprintf
 .text.log_printf
                0x0002dd04       0x18 examples/light_switch/provisioner/CMakeFiles/light_switch_provisioner_nrf52832_xxAA_s132_6.0.0.dir/__/__/__/mesh/core/src/log.c.obj
                0x0002dd04                log_printf
 .text.get_area_end
                0x0002dd1c        0xc examples/light_switch/provisioner/CMakeFiles/light_switch_provisioner_nrf52832_xxAA_s132_6.0.0.dir/__/__/__/mesh/core/src/flash_manager.c.obj
 .text.handle_matches_filter
                0x0002dd28       0x26 examples/light_switch/provisioner/CMakeFiles/light_switch_provisioner_nrf52832_xxAA_s132_6.0.0.dir/__/__/__/mesh/core/src/flash_manager.c.obj
 .text.flash_area_is_blank
                0x0002dd4e       0x34 examples/light_switch/provisioner/CMakeFiles/light_switch_provisioner_nrf52832_xxAA_s132_6.0.0.dir/__/__/__/mesh/core/src/flash_manager.c.obj
 *fill*         0x0002dd82        0x2 
 .text.get_packet_buffer
                0x0002dd84       0x20 examples/light_switch/provisioner/CMakeFiles/light_switch_provisioner_nrf52832_xxAA_s132_6.0.0.dir/__/__/__/mesh/core/src/flash_manager.c.obj
 .text.flash    0x0002dda4       0x1c examples/light_switch/provisioner/CMakeFiles/light_switch_provisioner_nrf52832_xxAA_s132_6.0.0.dir/__/__/__/mesh/core/src/flash_manager.c.obj
 .text.free_packet_buffer
                0x0002ddc0       0x3c examples/light_switch/provisioner/CMakeFiles/light_switch_provisioner_nrf52832_xxAA_s132_6.0.0.dir/__/__/__/mesh/core/src/flash_manager.c.obj
 .text.reserve_action_buffer
                0x0002ddfc       0x24 examples/light_switch/provisioner/CMakeFiles/light_switch_provisioner_nrf52832_xxAA_s132_6.0.0.dir/__/__/__/mesh/core/src/flash_manager.c.obj
 .text.commit_action_buffer
                0x0002de20       0x18 examples/light_switch/provisioner/CMakeFiles/light_switch_provisioner_nrf52832_xxAA_s132_6.0.0.dir/__/__/__/mesh/core/src/flash_manager.c.obj
 .text.schedule_processing
                0x0002de38        0xc examples/light_switch/provisioner/CMakeFiles/light_switch_provisioner_nrf52832_xxAA_s132_6.0.0.dir/__/__/__/mesh/core/src/flash_manager.c.obj
 .text.get_next_entry
                0x0002de44       0x34 examples/light_switch/provisioner/CMakeFiles/light_switch_provisioner_nrf52832_xxAA_s132_6.0.0.dir/__/__/__/mesh/core/src/flash_manager.c.obj
 .text.get_last_entry.isra.1
                0x0002de78       0x30 examples/light_switch/provisioner/CMakeFiles/light_switch_provisioner_nrf52832_xxAA_s132_6.0.0.dir/__/__/__/mesh/core/src/flash_manager.c.obj
 .text.process_action_queue
                0x0002dea8      0x3b0 examples/light_switch/provisioner/CMakeFiles/light_switch_provisioner_nrf52832_xxAA_s132_6.0.0.dir/__/__/__/mesh/core/src/flash_manager.c.obj
 .text.flash_op_ended_callback
                0x0002e258       0x24 examples/light_switch/provisioner/CMakeFiles/light_switch_provisioner_nrf52832_xxAA_s132_6.0.0.dir/__/__/__/mesh/core/src/flash_manager.c.obj
 .text.flash_manager_init
                0x0002e27c       0x68 examples/light_switch/provisioner/CMakeFiles/light_switch_provisioner_nrf52832_xxAA_s132_6.0.0.dir/__/__/__/mesh/core/src/flash_manager.c.obj
                0x0002e27c                flash_manager_init
 .text.flash_manager_remove
                0x0002e2e4       0x24 examples/light_switch/provisioner/CMakeFiles/light_switch_provisioner_nrf52832_xxAA_s132_6.0.0.dir/__/__/__/mesh/core/src/flash_manager.c.obj
                0x0002e2e4                flash_manager_remove
 .text.flash_manager_entry_get
                0x0002e308       0x3c examples/light_switch/provisioner/CMakeFiles/light_switch_provisioner_nrf52832_xxAA_s132_6.0.0.dir/__/__/__/mesh/core/src/flash_manager.c.obj
                0x0002e308                flash_manager_entry_get
 .text.flash_manager_entry_next_get
                0x0002e344       0x60 examples/light_switch/provisioner/CMakeFiles/light_switch_provisioner_nrf52832_xxAA_s132_6.0.0.dir/__/__/__/mesh/core/src/flash_manager.c.obj
                0x0002e344                flash_manager_entry_next_get
 .text.flash_manager_entry_alloc
                0x0002e3a4       0x5c examples/light_switch/provisioner/CMakeFiles/light_switch_provisioner_nrf52832_xxAA_s132_6.0.0.dir/__/__/__/mesh/core/src/flash_manager.c.obj
                0x0002e3a4                flash_manager_entry_alloc
 .text.flash_manager_entry_commit
                0x0002e400       0x2c examples/light_switch/provisioner/CMakeFiles/light_switch_provisioner_nrf52832_xxAA_s132_6.0.0.dir/__/__/__/mesh/core/src/flash_manager.c.obj
                0x0002e400                flash_manager_entry_commit
 .text.flash_manager_entry_invalidate
                0x0002e42c       0x4e examples/light_switch/provisioner/CMakeFiles/light_switch_provisioner_nrf52832_xxAA_s132_6.0.0.dir/__/__/__/mesh/core/src/flash_manager.c.obj
                0x0002e42c                flash_manager_entry_invalidate
 .text.flash_manager_add
                0x0002e47a      0x1f6 examples/light_switch/provisioner/CMakeFiles/light_switch_provisioner_nrf52832_xxAA_s132_6.0.0.dir/__/__/__/mesh/core/src/flash_manager.c.obj
                0x0002e47a                flash_manager_add
 .text.flash_manager_mem_listener_register
                0x0002e670       0x30 examples/light_switch/provisioner/CMakeFiles/light_switch_provisioner_nrf52832_xxAA_s132_6.0.0.dir/__/__/__/mesh/core/src/flash_manager.c.obj
                0x0002e670                flash_manager_mem_listener_register
 .text.flash_manager_is_stable
                0x0002e6a0       0x24 examples/light_switch/provisioner/CMakeFiles/light_switch_provisioner_nrf52832_xxAA_s132_6.0.0.dir/__/__/__/mesh/core/src/flash_manager.c.obj
                0x0002e6a0                flash_manager_is_stable
 .text.flash_manager_on_defrag_end
                0x0002e6c4       0x4c examples/light_switch/provisioner/CMakeFiles/light_switch_provisioner_nrf52832_xxAA_s132_6.0.0.dir/__/__/__/mesh/core/src/flash_manager.c.obj
                0x0002e6c4                flash_manager_on_defrag_end
 .text.flash_manager_recovery_page_get
                0x0002e710        0x4 examples/light_switch/provisioner/CMakeFiles/light_switch_provisioner_nrf52832_xxAA_s132_6.0.0.dir/__/__/__/mesh/core/src/flash_manager.c.obj
                0x0002e710                flash_manager_recovery_page_get
 .text.flash_manager_action_queue_empty_cb_set
                0x0002e714       0x1c examples/light_switch/provisioner/CMakeFiles/light_switch_provisioner_nrf52832_xxAA_s132_6.0.0.dir/__/__/__/mesh/core/src/flash_manager.c.obj
                0x0002e714                flash_manager_action_queue_empty_cb_set
 .text.utils_xor
                0x0002e730       0x14 examples/light_switch/provisioner/CMakeFiles/light_switch_provisioner_nrf52832_xxAA_s132_6.0.0.dir/__/__/__/mesh/core/src/ccm_soft.c.obj
 .text.ccm_soft_authenticate_blocks
                0x0002e744       0x68 examples/light_switch/provisioner/CMakeFiles/light_switch_provisioner_nrf52832_xxAA_s132_6.0.0.dir/__/__/__/mesh/core/src/ccm_soft.c.obj
 .text.utils_reverse_memcpy.constprop.0
                0x0002e7ac        0xa examples/light_switch/provisioner/CMakeFiles/light_switch_provisioner_nrf52832_xxAA_s132_6.0.0.dir/__/__/__/mesh/core/src/ccm_soft.c.obj
 .text.ccm_soft_authenticate
                0x0002e7b6       0xa0 examples/light_switch/provisioner/CMakeFiles/light_switch_provisioner_nrf52832_xxAA_s132_6.0.0.dir/__/__/__/mesh/core/src/ccm_soft.c.obj
 .text.ccm_soft_crypt
                0x0002e856       0x6c examples/light_switch/provisioner/CMakeFiles/light_switch_provisioner_nrf52832_xxAA_s132_6.0.0.dir/__/__/__/mesh/core/src/ccm_soft.c.obj
 .text.ccm_soft_encrypt
                0x0002e8c2       0x70 examples/light_switch/provisioner/CMakeFiles/light_switch_provisioner_nrf52832_xxAA_s132_6.0.0.dir/__/__/__/mesh/core/src/ccm_soft.c.obj
                0x0002e8c2                ccm_soft_encrypt
 .text.ccm_soft_decrypt
                0x0002e932       0xfe examples/light_switch/provisioner/CMakeFiles/light_switch_provisioner_nrf52832_xxAA_s132_6.0.0.dir/__/__/__/mesh/core/src/ccm_soft.c.obj
                0x0002e932                ccm_soft_decrypt
 .text.replay_cache_add
                0x0002ea30       0x58 examples/light_switch/provisioner/CMakeFiles/light_switch_provisioner_nrf52832_xxAA_s132_6.0.0.dir/__/__/__/mesh/core/src/replay_cache.c.obj
                0x0002ea30                replay_cache_add
 .text.replay_cache_has_elem
                0x0002ea88       0x40 examples/light_switch/provisioner/CMakeFiles/light_switch_provisioner_nrf52832_xxAA_s132_6.0.0.dir/__/__/__/mesh/core/src/replay_cache.c.obj
                0x0002ea88                replay_cache_has_elem
 .text.replay_cache_clear
                0x0002eac8       0x20 examples/light_switch/provisioner/CMakeFiles/light_switch_provisioner_nrf52832_xxAA_s132_6.0.0.dir/__/__/__/mesh/core/src/replay_cache.c.obj
                0x0002eac8                replay_cache_clear
 .text.replay_cache_init
                0x0002eae8        0x4 examples/light_switch/provisioner/CMakeFiles/light_switch_provisioner_nrf52832_xxAA_s132_6.0.0.dir/__/__/__/mesh/core/src/replay_cache.c.obj
                0x0002eae8                replay_cache_init
 .text.beacon_create
                0x0002eaec       0x46 examples/light_switch/provisioner/CMakeFiles/light_switch_provisioner_nrf52832_xxAA_s132_6.0.0.dir/__/__/__/mesh/core/src/beacon.c.obj
                0x0002eaec                beacon_create
 *fill*         0x0002eb32        0x2 
 .text.beacon_packet_in
                0x0002eb34      0x154 examples/light_switch/provisioner/CMakeFiles/light_switch_provisioner_nrf52832_xxAA_s132_6.0.0.dir/__/__/__/mesh/core/src/beacon.c.obj
                0x0002eb34                beacon_packet_in
 .text.entry_get
                0x0002ec88       0x78 examples/light_switch/provisioner/CMakeFiles/light_switch_provisioner_nrf52832_xxAA_s132_6.0.0.dir/__/__/__/mesh/core/src/flash_manager_internal.c.obj
                0x0002ec88                entry_get
 .text.core_tx_complete_cb_set
                0x0002ed00        0xc examples/light_switch/provisioner/CMakeFiles/light_switch_provisioner_nrf52832_xxAA_s132_6.0.0.dir/__/__/__/mesh/core/src/core_tx.c.obj
                0x0002ed00                core_tx_complete_cb_set
 .text.core_tx_packet_alloc
                0x0002ed0c       0x98 examples/light_switch/provisioner/CMakeFiles/light_switch_provisioner_nrf52832_xxAA_s132_6.0.0.dir/__/__/__/mesh/core/src/core_tx.c.obj
                0x0002ed0c                core_tx_packet_alloc
 .text.core_tx_packet_send
                0x0002eda4       0x4c examples/light_switch/provisioner/CMakeFiles/light_switch_provisioner_nrf52832_xxAA_s132_6.0.0.dir/__/__/__/mesh/core/src/core_tx.c.obj
                0x0002eda4                core_tx_packet_send
 .text.core_tx_packet_discard
                0x0002edf0       0x40 examples/light_switch/provisioner/CMakeFiles/light_switch_provisioner_nrf52832_xxAA_s132_6.0.0.dir/__/__/__/mesh/core/src/core_tx.c.obj
                0x0002edf0                core_tx_packet_discard
 .text.core_tx_complete
                0x0002ee30       0x34 examples/light_switch/provisioner/CMakeFiles/light_switch_provisioner_nrf52832_xxAA_s132_6.0.0.dir/__/__/__/mesh/core/src/core_tx.c.obj
                0x0002ee30                core_tx_complete
 .text.core_tx_bearer_add
                0x0002ee64       0x70 examples/light_switch/provisioner/CMakeFiles/light_switch_provisioner_nrf52832_xxAA_s132_6.0.0.dir/__/__/__/mesh/core/src/core_tx.c.obj
                0x0002ee64                core_tx_bearer_add
 .text.heartbeat_subscription_timer_cb
                0x0002eed4       0x1c examples/light_switch/provisioner/CMakeFiles/light_switch_provisioner_nrf52832_xxAA_s132_6.0.0.dir/__/__/__/mesh/core/src/heartbeat.c.obj
 .text.heartbeat_opcode_handle
                0x0002eef0       0x88 examples/light_switch/provisioner/CMakeFiles/light_switch_provisioner_nrf52832_xxAA_s132_6.0.0.dir/__/__/__/mesh/core/src/heartbeat.c.obj
 .text.heartbeat_send
                0x0002ef78       0xb0 examples/light_switch/provisioner/CMakeFiles/light_switch_provisioner_nrf52832_xxAA_s132_6.0.0.dir/__/__/__/mesh/core/src/heartbeat.c.obj
 .text.heartbeat_publication_timer_cb
                0x0002f028       0xa8 examples/light_switch/provisioner/CMakeFiles/light_switch_provisioner_nrf52832_xxAA_s132_6.0.0.dir/__/__/__/mesh/core/src/heartbeat.c.obj
 .text.heartbeat_core_evt_cb
                0x0002f0d0       0x7c examples/light_switch/provisioner/CMakeFiles/light_switch_provisioner_nrf52832_xxAA_s132_6.0.0.dir/__/__/__/mesh/core/src/heartbeat.c.obj
 .text.heartbeat_on_feature_change_trigger
                0x0002f14c       0x44 examples/light_switch/provisioner/CMakeFiles/light_switch_provisioner_nrf52832_xxAA_s132_6.0.0.dir/__/__/__/mesh/core/src/heartbeat.c.obj
                0x0002f14c                heartbeat_on_feature_change_trigger
 .text.heartbeat_init
                0x0002f190       0x78 examples/light_switch/provisioner/CMakeFiles/light_switch_provisioner_nrf52832_xxAA_s132_6.0.0.dir/__/__/__/mesh/core/src/heartbeat.c.obj
                0x0002f190                heartbeat_init
 .text.heartbeat_subscription_set
                0x0002f208       0xa4 examples/light_switch/provisioner/CMakeFiles/light_switch_provisioner_nrf52832_xxAA_s132_6.0.0.dir/__/__/__/mesh/core/src/heartbeat.c.obj
                0x0002f208                heartbeat_subscription_set
 .text.heartbeat_subscription_get
                0x0002f2ac        0x8 examples/light_switch/provisioner/CMakeFiles/light_switch_provisioner_nrf52832_xxAA_s132_6.0.0.dir/__/__/__/mesh/core/src/heartbeat.c.obj
                0x0002f2ac                heartbeat_subscription_get
 .text.heartbeat_config_server_cb_set
                0x0002f2b4       0x28 examples/light_switch/provisioner/CMakeFiles/light_switch_provisioner_nrf52832_xxAA_s132_6.0.0.dir/__/__/__/mesh/core/src/heartbeat.c.obj
                0x0002f2b4                heartbeat_config_server_cb_set
 .text.heartbeat_publication_state_updated
                0x0002f2dc       0x74 examples/light_switch/provisioner/CMakeFiles/light_switch_provisioner_nrf52832_xxAA_s132_6.0.0.dir/__/__/__/mesh/core/src/heartbeat.c.obj
                0x0002f2dc                heartbeat_publication_state_updated
 .text.make_network_beacon_packet
                0x0002f350       0x50 examples/light_switch/provisioner/CMakeFiles/light_switch_provisioner_nrf52832_xxAA_s132_6.0.0.dir/__/__/__/mesh/core/src/net_beacon.c.obj
 .text.beacon_tx
                0x0002f3a0      0x12c examples/light_switch/provisioner/CMakeFiles/light_switch_provisioner_nrf52832_xxAA_s132_6.0.0.dir/__/__/__/mesh/core/src/net_beacon.c.obj
 .text.tx_complete_cb
                0x0002f4cc        0xe examples/light_switch/provisioner/CMakeFiles/light_switch_provisioner_nrf52832_xxAA_s132_6.0.0.dir/__/__/__/mesh/core/src/net_beacon.c.obj
 .text.beacon_tx_timeout
                0x0002f4da        0x4 examples/light_switch/provisioner/CMakeFiles/light_switch_provisioner_nrf52832_xxAA_s132_6.0.0.dir/__/__/__/mesh/core/src/net_beacon.c.obj
 .text.is_valid_beacon_pkt.part.0
                0x0002f4de       0x30 examples/light_switch/provisioner/CMakeFiles/light_switch_provisioner_nrf52832_xxAA_s132_6.0.0.dir/__/__/__/mesh/core/src/net_beacon.c.obj
 *fill*         0x0002f50e        0x2 
 .text.net_beacon_init
                0x0002f510       0x94 examples/light_switch/provisioner/CMakeFiles/light_switch_provisioner_nrf52832_xxAA_s132_6.0.0.dir/__/__/__/mesh/core/src/net_beacon.c.obj
                0x0002f510                net_beacon_init
 .text.net_beacon_state_set
                0x0002f5a4       0x34 examples/light_switch/provisioner/CMakeFiles/light_switch_provisioner_nrf52832_xxAA_s132_6.0.0.dir/__/__/__/mesh/core/src/net_beacon.c.obj
                0x0002f5a4                net_beacon_state_set
 .text.net_beacon_state_get
                0x0002f5d8        0xc examples/light_switch/provisioner/CMakeFiles/light_switch_provisioner_nrf52832_xxAA_s132_6.0.0.dir/__/__/__/mesh/core/src/net_beacon.c.obj
                0x0002f5d8                net_beacon_state_get
 .text.net_beacon_packet_in
                0x0002f5e4       0xf2 examples/light_switch/provisioner/CMakeFiles/light_switch_provisioner_nrf52832_xxAA_s132_6.0.0.dir/__/__/__/mesh/core/src/net_beacon.c.obj
                0x0002f5e4                net_beacon_packet_in
 *fill*         0x0002f6d6        0x2 
 .text.packet_discard
                0x0002f6d8       0x40 examples/light_switch/provisioner/CMakeFiles/light_switch_provisioner_nrf52832_xxAA_s132_6.0.0.dir/__/__/__/mesh/core/src/core_tx_adv.c.obj
 .text.packet_send
                0x0002f718       0x58 examples/light_switch/provisioner/CMakeFiles/light_switch_provisioner_nrf52832_xxAA_s132_6.0.0.dir/__/__/__/mesh/core/src/core_tx_adv.c.obj
 .text.packet_alloc
                0x0002f770       0x58 examples/light_switch/provisioner/CMakeFiles/light_switch_provisioner_nrf52832_xxAA_s132_6.0.0.dir/__/__/__/mesh/core/src/core_tx_adv.c.obj
 .text.adv_tx_complete_callback
                0x0002f7c8       0x20 examples/light_switch/provisioner/CMakeFiles/light_switch_provisioner_nrf52832_xxAA_s132_6.0.0.dir/__/__/__/mesh/core/src/core_tx_adv.c.obj
 .text.core_tx_adv_init
                0x0002f7e8       0x60 examples/light_switch/provisioner/CMakeFiles/light_switch_provisioner_nrf52832_xxAA_s132_6.0.0.dir/__/__/__/mesh/core/src/core_tx_adv.c.obj
                0x0002f7e8                core_tx_adv_init
 .text.core_tx_adv_count_set
                0x0002f848       0x28 examples/light_switch/provisioner/CMakeFiles/light_switch_provisioner_nrf52832_xxAA_s132_6.0.0.dir/__/__/__/mesh/core/src/core_tx_adv.c.obj
                0x0002f848                core_tx_adv_count_set
 .text.core_tx_adv_count_get
                0x0002f870       0x1c examples/light_switch/provisioner/CMakeFiles/light_switch_provisioner_nrf52832_xxAA_s132_6.0.0.dir/__/__/__/mesh/core/src/core_tx_adv.c.obj
                0x0002f870                core_tx_adv_count_get
 .text.core_tx_adv_interval_set
                0x0002f88c       0x28 examples/light_switch/provisioner/CMakeFiles/light_switch_provisioner_nrf52832_xxAA_s132_6.0.0.dir/__/__/__/mesh/core/src/core_tx_adv.c.obj
                0x0002f88c                core_tx_adv_interval_set
 .text.core_tx_adv_interval_get
                0x0002f8b4       0x28 examples/light_switch/provisioner/CMakeFiles/light_switch_provisioner_nrf52832_xxAA_s132_6.0.0.dir/__/__/__/mesh/core/src/core_tx_adv.c.obj
                0x0002f8b4                core_tx_adv_interval_get
 .text.ad_listener_subscribe
                0x0002f8dc       0x5c examples/light_switch/provisioner/CMakeFiles/light_switch_provisioner_nrf52832_xxAA_s132_6.0.0.dir/__/__/__/mesh/bearer/src/ad_listener.c.obj
                0x0002f8dc                ad_listener_subscribe
 .text.ad_listener_process
                0x0002f938       0x64 examples/light_switch/provisioner/CMakeFiles/light_switch_provisioner_nrf52832_xxAA_s132_6.0.0.dir/__/__/__/mesh/bearer/src/ad_listener.c.obj
                0x0002f938                ad_listener_process
 .text.adtype_filter_handle
                0x0002f99c       0x64 examples/light_switch/provisioner/CMakeFiles/light_switch_provisioner_nrf52832_xxAA_s132_6.0.0.dir/__/__/__/mesh/bearer/src/ad_type_filter.c.obj
 .text.bearer_adtype_filtering_set
                0x0002fa00       0x1c examples/light_switch/provisioner/CMakeFiles/light_switch_provisioner_nrf52832_xxAA_s132_6.0.0.dir/__/__/__/mesh/bearer/src/ad_type_filter.c.obj
                0x0002fa00                bearer_adtype_filtering_set
 .text.bearer_adtype_add
                0x0002fa1c       0x20 examples/light_switch/provisioner/CMakeFiles/light_switch_provisioner_nrf52832_xxAA_s132_6.0.0.dir/__/__/__/mesh/bearer/src/ad_type_filter.c.obj
                0x0002fa1c                bearer_adtype_add
 .text.bearer_adtype_mode_set
                0x0002fa3c       0x18 examples/light_switch/provisioner/CMakeFiles/light_switch_provisioner_nrf52832_xxAA_s132_6.0.0.dir/__/__/__/mesh/bearer/src/ad_type_filter.c.obj
                0x0002fa3c                bearer_adtype_mode_set
 .text.tx_complete_event_callback
                0x0002fa54       0x28 examples/light_switch/provisioner/CMakeFiles/light_switch_provisioner_nrf52832_xxAA_s132_6.0.0.dir/__/__/__/mesh/bearer/src/advertiser.c.obj
 .text.set_gap_addr_type
                0x0002fa7c       0x26 examples/light_switch/provisioner/CMakeFiles/light_switch_provisioner_nrf52832_xxAA_s132_6.0.0.dir/__/__/__/mesh/bearer/src/advertiser.c.obj
 .text.broadcast_complete_cb
                0x0002faa2       0x46 examples/light_switch/provisioner/CMakeFiles/light_switch_provisioner_nrf52832_xxAA_s132_6.0.0.dir/__/__/__/mesh/bearer/src/advertiser.c.obj
 .text.schedule_first_time
                0x0002fae8       0x28 examples/light_switch/provisioner/CMakeFiles/light_switch_provisioner_nrf52832_xxAA_s132_6.0.0.dir/__/__/__/mesh/bearer/src/advertiser.c.obj
 .text.timeout_event
                0x0002fb10      0x10c examples/light_switch/provisioner/CMakeFiles/light_switch_provisioner_nrf52832_xxAA_s132_6.0.0.dir/__/__/__/mesh/bearer/src/advertiser.c.obj
 .text.advertiser_init
                0x0002fc1c        0xc examples/light_switch/provisioner/CMakeFiles/light_switch_provisioner_nrf52832_xxAA_s132_6.0.0.dir/__/__/__/mesh/bearer/src/advertiser.c.obj
                0x0002fc1c                advertiser_init
 .text.advertiser_enable
                0x0002fc28       0x2a examples/light_switch/provisioner/CMakeFiles/light_switch_provisioner_nrf52832_xxAA_s132_6.0.0.dir/__/__/__/mesh/bearer/src/advertiser.c.obj
                0x0002fc28                advertiser_enable
 .text.advertiser_packet_alloc
                0x0002fc52       0x76 examples/light_switch/provisioner/CMakeFiles/light_switch_provisioner_nrf52832_xxAA_s132_6.0.0.dir/__/__/__/mesh/bearer/src/advertiser.c.obj
                0x0002fc52                advertiser_packet_alloc
 .text.advertiser_packet_send
                0x0002fcc8       0x62 examples/light_switch/provisioner/CMakeFiles/light_switch_provisioner_nrf52832_xxAA_s132_6.0.0.dir/__/__/__/mesh/bearer/src/advertiser.c.obj
                0x0002fcc8                advertiser_packet_send
 .text.advertiser_packet_discard
                0x0002fd2a       0x1e examples/light_switch/provisioner/CMakeFiles/light_switch_provisioner_nrf52832_xxAA_s132_6.0.0.dir/__/__/__/mesh/bearer/src/advertiser.c.obj
                0x0002fd2a                advertiser_packet_discard
 .text.advertiser_interval_set
                0x0002fd48       0x54 examples/light_switch/provisioner/CMakeFiles/light_switch_provisioner_nrf52832_xxAA_s132_6.0.0.dir/__/__/__/mesh/bearer/src/advertiser.c.obj
                0x0002fd48                advertiser_interval_set
 .text.advertiser_flush
                0x0002fd9c       0x1e examples/light_switch/provisioner/CMakeFiles/light_switch_provisioner_nrf52832_xxAA_s132_6.0.0.dir/__/__/__/mesh/bearer/src/advertiser.c.obj
                0x0002fd9c                advertiser_flush
 *fill*         0x0002fdba        0x2 
 .text.advertiser_address_default_get
                0x0002fdbc       0x38 examples/light_switch/provisioner/CMakeFiles/light_switch_provisioner_nrf52832_xxAA_s132_6.0.0.dir/__/__/__/mesh/bearer/src/advertiser.c.obj
                0x0002fdbc                advertiser_address_default_get
 .text.advertiser_instance_init
                0x0002fdf4       0xa4 examples/light_switch/provisioner/CMakeFiles/light_switch_provisioner_nrf52832_xxAA_s132_6.0.0.dir/__/__/__/mesh/bearer/src/advertiser.c.obj
                0x0002fdf4                advertiser_instance_init
 .text.action_switch
                0x0002fe98       0xb4 examples/light_switch/provisioner/CMakeFiles/light_switch_provisioner_nrf52832_xxAA_s132_6.0.0.dir/__/__/__/mesh/bearer/src/bearer_handler.c.obj
 .text.bearer_handler_init
                0x0002ff4c       0x2c examples/light_switch/provisioner/CMakeFiles/light_switch_provisioner_nrf52832_xxAA_s132_6.0.0.dir/__/__/__/mesh/bearer/src/bearer_handler.c.obj
                0x0002ff4c                bearer_handler_init
 .text.bearer_handler_start
                0x0002ff78       0x1c examples/light_switch/provisioner/CMakeFiles/light_switch_provisioner_nrf52832_xxAA_s132_6.0.0.dir/__/__/__/mesh/bearer/src/bearer_handler.c.obj
                0x0002ff78                bearer_handler_start
 .text.bearer_handler_action_enqueue
                0x0002ff94       0x6c examples/light_switch/provisioner/CMakeFiles/light_switch_provisioner_nrf52832_xxAA_s132_6.0.0.dir/__/__/__/mesh/bearer/src/bearer_handler.c.obj
                0x0002ff94                bearer_handler_action_enqueue
 .text.bearer_handler_action_end
                0x00030000       0x5c examples/light_switch/provisioner/CMakeFiles/light_switch_provisioner_nrf52832_xxAA_s132_6.0.0.dir/__/__/__/mesh/bearer/src/bearer_handler.c.obj
                0x00030000                bearer_handler_action_end
 .text.bearer_handler_radio_irq_handler
                0x0003005c       0x48 examples/light_switch/provisioner/CMakeFiles/light_switch_provisioner_nrf52832_xxAA_s132_6.0.0.dir/__/__/__/mesh/bearer/src/bearer_handler.c.obj
                0x0003005c                bearer_handler_radio_irq_handler
 .text.bearer_handler_timer_irq_handler
                0x000300a4       0x24 examples/light_switch/provisioner/CMakeFiles/light_switch_provisioner_nrf52832_xxAA_s132_6.0.0.dir/__/__/__/mesh/bearer/src/bearer_handler.c.obj
                0x000300a4                bearer_handler_timer_irq_handler
 .text.bearer_handler_on_ts_begin
                0x000300c8       0x30 examples/light_switch/provisioner/CMakeFiles/light_switch_provisioner_nrf52832_xxAA_s132_6.0.0.dir/__/__/__/mesh/bearer/src/bearer_handler.c.obj
                0x000300c8                bearer_handler_on_ts_begin
 .text.bearer_handler_on_ts_end
                0x000300f8       0x34 examples/light_switch/provisioner/CMakeFiles/light_switch_provisioner_nrf52832_xxAA_s132_6.0.0.dir/__/__/__/mesh/bearer/src/bearer_handler.c.obj
                0x000300f8                bearer_handler_on_ts_end
 .text.radio_irq_handler
                0x0003012c       0x94 examples/light_switch/provisioner/CMakeFiles/light_switch_provisioner_nrf52832_xxAA_s132_6.0.0.dir/__/__/__/mesh/bearer/src/broadcast.c.obj
 .text.broadcast_start
                0x000301c0       0x8c examples/light_switch/provisioner/CMakeFiles/light_switch_provisioner_nrf52832_xxAA_s132_6.0.0.dir/__/__/__/mesh/bearer/src/broadcast.c.obj
 .text.broadcast_send
                0x0003024c       0x6c examples/light_switch/provisioner/CMakeFiles/light_switch_provisioner_nrf52832_xxAA_s132_6.0.0.dir/__/__/__/mesh/bearer/src/broadcast.c.obj
                0x0003024c                broadcast_send
 .text.fen_filter_start
                0x000302b8       0x28 examples/light_switch/provisioner/CMakeFiles/light_switch_provisioner_nrf52832_xxAA_s132_6.0.0.dir/__/__/__/mesh/bearer/src/filter_engine.c.obj
                0x000302b8                fen_filter_start
 .text.fen_filter_stop
                0x000302e0       0x20 examples/light_switch/provisioner/CMakeFiles/light_switch_provisioner_nrf52832_xxAA_s132_6.0.0.dir/__/__/__/mesh/bearer/src/filter_engine.c.obj
                0x000302e0                fen_filter_stop
 .text.fen_filters_apply
                0x00030300       0x34 examples/light_switch/provisioner/CMakeFiles/light_switch_provisioner_nrf52832_xxAA_s132_6.0.0.dir/__/__/__/mesh/bearer/src/filter_engine.c.obj
                0x00030300                fen_filters_apply
 .text.radio_config_reset
                0x00030334       0x34 examples/light_switch/provisioner/CMakeFiles/light_switch_provisioner_nrf52832_xxAA_s132_6.0.0.dir/__/__/__/mesh/bearer/src/radio_config.c.obj
                0x00030334                radio_config_reset
 .text.radio_config_channel_set
                0x00030368       0x28 examples/light_switch/provisioner/CMakeFiles/light_switch_provisioner_nrf52832_xxAA_s132_6.0.0.dir/__/__/__/mesh/bearer/src/radio_config.c.obj
                0x00030368                radio_config_channel_set
 .text.radio_config_config
                0x00030390       0x90 examples/light_switch/provisioner/CMakeFiles/light_switch_provisioner_nrf52832_xxAA_s132_6.0.0.dir/__/__/__/mesh/bearer/src/radio_config.c.obj
                0x00030390                radio_config_config
 .text.radio_config_access_addr_set
                0x00030420       0x50 examples/light_switch/provisioner/CMakeFiles/light_switch_provisioner_nrf52832_xxAA_s132_6.0.0.dir/__/__/__/mesh/bearer/src/radio_config.c.obj
                0x00030420                radio_config_access_addr_set
 .text.radio_trigger
                0x00030470       0x24 examples/light_switch/provisioner/CMakeFiles/light_switch_provisioner_nrf52832_xxAA_s132_6.0.0.dir/__/__/__/mesh/bearer/src/scanner.c.obj
 .text.scan_window_end
                0x00030494       0x10 examples/light_switch/provisioner/CMakeFiles/light_switch_provisioner_nrf52832_xxAA_s132_6.0.0.dir/__/__/__/mesh/bearer/src/scanner.c.obj
 .text.scan_window_start
                0x000304a4       0x24 examples/light_switch/provisioner/CMakeFiles/light_switch_provisioner_nrf52832_xxAA_s132_6.0.0.dir/__/__/__/mesh/bearer/src/scanner.c.obj
 .text.radio_configure
                0x000304c8       0x78 examples/light_switch/provisioner/CMakeFiles/light_switch_provisioner_nrf52832_xxAA_s132_6.0.0.dir/__/__/__/mesh/bearer/src/scanner.c.obj
 .text.radio_set_packet
                0x00030540       0x44 examples/light_switch/provisioner/CMakeFiles/light_switch_provisioner_nrf52832_xxAA_s132_6.0.0.dir/__/__/__/mesh/bearer/src/scanner.c.obj
 .text.radio_start
                0x00030584       0x40 examples/light_switch/provisioner/CMakeFiles/light_switch_provisioner_nrf52832_xxAA_s132_6.0.0.dir/__/__/__/mesh/bearer/src/scanner.c.obj
 .text.radio_stop
                0x000305c4       0x30 examples/light_switch/provisioner/CMakeFiles/light_switch_provisioner_nrf52832_xxAA_s132_6.0.0.dir/__/__/__/mesh/bearer/src/scanner.c.obj
 .text.schedule_timers
                0x000305f4       0x38 examples/light_switch/provisioner/CMakeFiles/light_switch_provisioner_nrf52832_xxAA_s132_6.0.0.dir/__/__/__/mesh/bearer/src/scanner.c.obj
 .text.scanner_radio_start
                0x0003062c       0x28 examples/light_switch/provisioner/CMakeFiles/light_switch_provisioner_nrf52832_xxAA_s132_6.0.0.dir/__/__/__/mesh/bearer/src/scanner.c.obj
                0x0003062c                scanner_radio_start
 .text.scanner_radio_stop
                0x00030654       0x10 examples/light_switch/provisioner/CMakeFiles/light_switch_provisioner_nrf52832_xxAA_s132_6.0.0.dir/__/__/__/mesh/bearer/src/scanner.c.obj
                0x00030654                scanner_radio_stop
 .text.scanner_radio_irq_handler
                0x00030664      0x130 examples/light_switch/provisioner/CMakeFiles/light_switch_provisioner_nrf52832_xxAA_s132_6.0.0.dir/__/__/__/mesh/bearer/src/scanner.c.obj
                0x00030664                scanner_radio_irq_handler
 .text.scanner_enable
                0x00030794       0x24 examples/light_switch/provisioner/CMakeFiles/light_switch_provisioner_nrf52832_xxAA_s132_6.0.0.dir/__/__/__/mesh/bearer/src/scanner.c.obj
                0x00030794                scanner_enable
 .text.scanner_packet_release
                0x000307b8       0x2c examples/light_switch/provisioner/CMakeFiles/light_switch_provisioner_nrf52832_xxAA_s132_6.0.0.dir/__/__/__/mesh/bearer/src/scanner.c.obj
                0x000307b8                scanner_packet_release
 .text.scanner_rx
                0x000307e4       0x30 examples/light_switch/provisioner/CMakeFiles/light_switch_provisioner_nrf52832_xxAA_s132_6.0.0.dir/__/__/__/mesh/bearer/src/scanner.c.obj
                0x000307e4                scanner_rx
 .text.scanner_rx_pending
                0x00030814        0xc examples/light_switch/provisioner/CMakeFiles/light_switch_provisioner_nrf52832_xxAA_s132_6.0.0.dir/__/__/__/mesh/bearer/src/scanner.c.obj
                0x00030814                scanner_rx_pending
 .text.scanner_config_scan_time_set
                0x00030820       0x4c examples/light_switch/provisioner/CMakeFiles/light_switch_provisioner_nrf52832_xxAA_s132_6.0.0.dir/__/__/__/mesh/bearer/src/scanner.c.obj
                0x00030820                scanner_config_scan_time_set
 .text.scanner_config_channels_set
                0x0003086c       0x50 examples/light_switch/provisioner/CMakeFiles/light_switch_provisioner_nrf52832_xxAA_s132_6.0.0.dir/__/__/__/mesh/bearer/src/scanner.c.obj
                0x0003086c                scanner_config_channels_set
 .text.scanner_config_access_addresses_set
                0x000308bc       0x38 examples/light_switch/provisioner/CMakeFiles/light_switch_provisioner_nrf52832_xxAA_s132_6.0.0.dir/__/__/__/mesh/bearer/src/scanner.c.obj
                0x000308bc                scanner_config_access_addresses_set
 .text.scanner_config_reset
                0x000308f4       0x50 examples/light_switch/provisioner/CMakeFiles/light_switch_provisioner_nrf52832_xxAA_s132_6.0.0.dir/__/__/__/mesh/bearer/src/scanner.c.obj
                0x000308f4                scanner_config_reset
 .text.scanner_init
                0x00030944       0x54 examples/light_switch/provisioner/CMakeFiles/light_switch_provisioner_nrf52832_xxAA_s132_6.0.0.dir/__/__/__/mesh/bearer/src/scanner.c.obj
                0x00030944                scanner_init
 .text.send_reliable
                0x00030998       0x74 examples/light_switch/provisioner/CMakeFiles/light_switch_provisioner_nrf52832_xxAA_s132_6.0.0.dir/__/__/__/models/config/src/config_client.c.obj
 .text.reliable_status_cb
                0x00030a0c       0x4c examples/light_switch/provisioner/CMakeFiles/light_switch_provisioner_nrf52832_xxAA_s132_6.0.0.dir/__/__/__/models/config/src/config_client.c.obj
 .text.client_in_wrong_state.constprop.4
                0x00030a58       0x20 examples/light_switch/provisioner/CMakeFiles/light_switch_provisioner_nrf52832_xxAA_s132_6.0.0.dir/__/__/__/models/config/src/config_client.c.obj
 .text.config_opcode_handler
                0x00030a78       0x5c examples/light_switch/provisioner/CMakeFiles/light_switch_provisioner_nrf52832_xxAA_s132_6.0.0.dir/__/__/__/models/config/src/config_client.c.obj
 .text.subscription_add_del_owr_send.isra.1
                0x00030ad4       0x68 examples/light_switch/provisioner/CMakeFiles/light_switch_provisioner_nrf52832_xxAA_s132_6.0.0.dir/__/__/__/models/config/src/config_client.c.obj
 .text.subscription_virtual_add_del_owr_send.isra.3
                0x00030b3c       0x6c examples/light_switch/provisioner/CMakeFiles/light_switch_provisioner_nrf52832_xxAA_s132_6.0.0.dir/__/__/__/models/config/src/config_client.c.obj
 .text.app_bind_unbind_send
                0x00030ba8       0x7c examples/light_switch/provisioner/CMakeFiles/light_switch_provisioner_nrf52832_xxAA_s132_6.0.0.dir/__/__/__/models/config/src/config_client.c.obj
 .text.config_client_init
                0x00030c24       0x54 examples/light_switch/provisioner/CMakeFiles/light_switch_provisioner_nrf52832_xxAA_s132_6.0.0.dir/__/__/__/models/config/src/config_client.c.obj
                0x00030c24                config_client_init
 .text.config_client_server_set
                0x00030c78       0x88 examples/light_switch/provisioner/CMakeFiles/light_switch_provisioner_nrf52832_xxAA_s132_6.0.0.dir/__/__/__/models/config/src/config_client.c.obj
                0x00030c78                config_client_server_set
 .text.config_client_server_bind
                0x00030d00       0x30 examples/light_switch/provisioner/CMakeFiles/light_switch_provisioner_nrf52832_xxAA_s132_6.0.0.dir/__/__/__/models/config/src/config_client.c.obj
                0x00030d00                config_client_server_bind
 .text.config_client_composition_data_get
                0x00030d30       0x48 examples/light_switch/provisioner/CMakeFiles/light_switch_provisioner_nrf52832_xxAA_s132_6.0.0.dir/__/__/__/models/config/src/config_client.c.obj
                0x00030d30                config_client_composition_data_get
 .text.config_client_appkey_add
                0x00030d78       0x80 examples/light_switch/provisioner/CMakeFiles/light_switch_provisioner_nrf52832_xxAA_s132_6.0.0.dir/__/__/__/models/config/src/config_client.c.obj
                0x00030d78                config_client_appkey_add
 .text.config_client_model_publication_set
                0x00030df8      0x170 examples/light_switch/provisioner/CMakeFiles/light_switch_provisioner_nrf52832_xxAA_s132_6.0.0.dir/__/__/__/models/config/src/config_client.c.obj
                0x00030df8                config_client_model_publication_set
 .text.config_client_model_subscription_add
                0x00030f68       0x4c examples/light_switch/provisioner/CMakeFiles/light_switch_provisioner_nrf52832_xxAA_s132_6.0.0.dir/__/__/__/models/config/src/config_client.c.obj
                0x00030f68                config_client_model_subscription_add
 .text.config_client_model_app_bind
                0x00030fb4        0xe examples/light_switch/provisioner/CMakeFiles/light_switch_provisioner_nrf52832_xxAA_s132_6.0.0.dir/__/__/__/models/config/src/config_client.c.obj
                0x00030fb4                config_client_model_app_bind
 *fill*         0x00030fc2        0x2 
 .text.config_client_pending_msg_cancel
                0x00030fc4        0xc examples/light_switch/provisioner/CMakeFiles/light_switch_provisioner_nrf52832_xxAA_s132_6.0.0.dir/__/__/__/models/config/src/config_client.c.obj
                0x00030fc4                config_client_pending_msg_cancel
 .text.config_composition_data_get
                0x00030fd0      0x186 examples/light_switch/provisioner/CMakeFiles/light_switch_provisioner_nrf52832_xxAA_s132_6.0.0.dir/__/__/__/models/config/src/composition_data.c.obj
                0x00030fd0                config_composition_data_get
 *fill*         0x00031156        0x2 
 .text.app_evt_send
                0x00031158       0x10 examples/light_switch/provisioner/CMakeFiles/light_switch_provisioner_nrf52832_xxAA_s132_6.0.0.dir/__/__/__/models/config/src/config_server.c.obj
 .text.config_server_heartbeat_publication_count_decrement
                0x00031168       0x1c examples/light_switch/provisioner/CMakeFiles/light_switch_provisioner_nrf52832_xxAA_s132_6.0.0.dir/__/__/__/models/config/src/config_server.c.obj
 .text.get_element_index
                0x00031184       0x26 examples/light_switch/provisioner/CMakeFiles/light_switch_provisioner_nrf52832_xxAA_s132_6.0.0.dir/__/__/__/models/config/src/config_server.c.obj
 *fill*         0x000311aa        0x2 
 .text.config_server_heartbeat_publication_params_get
                0x000311ac       0x34 examples/light_switch/provisioner/CMakeFiles/light_switch_provisioner_nrf52832_xxAA_s132_6.0.0.dir/__/__/__/models/config/src/config_server.c.obj
 .text.send_reply
                0x000311e0       0x34 examples/light_switch/provisioner/CMakeFiles/light_switch_provisioner_nrf52832_xxAA_s132_6.0.0.dir/__/__/__/models/config/src/config_server.c.obj
 .text.send_network_transmit_status
                0x00031214       0x72 examples/light_switch/provisioner/CMakeFiles/light_switch_provisioner_nrf52832_xxAA_s132_6.0.0.dir/__/__/__/models/config/src/config_server.c.obj
 .text.handle_config_network_transmit_set
                0x00031286       0x82 examples/light_switch/provisioner/CMakeFiles/light_switch_provisioner_nrf52832_xxAA_s132_6.0.0.dir/__/__/__/models/config/src/config_server.c.obj
 .text.handle_config_network_transmit_get
                0x00031308        0xa examples/light_switch/provisioner/CMakeFiles/light_switch_provisioner_nrf52832_xxAA_s132_6.0.0.dir/__/__/__/models/config/src/config_server.c.obj
 *fill*         0x00031312        0x2 
 .text.handle_node_reset
                0x00031314       0x1c examples/light_switch/provisioner/CMakeFiles/light_switch_provisioner_nrf52832_xxAA_s132_6.0.0.dir/__/__/__/models/config/src/config_server.c.obj
 .text.send_netkey_status
                0x00031330       0x22 examples/light_switch/provisioner/CMakeFiles/light_switch_provisioner_nrf52832_xxAA_s132_6.0.0.dir/__/__/__/models/config/src/config_server.c.obj
 .text.send_relay_status
                0x00031352       0xa6 examples/light_switch/provisioner/CMakeFiles/light_switch_provisioner_nrf52832_xxAA_s132_6.0.0.dir/__/__/__/models/config/src/config_server.c.obj
 .text.handle_config_relay_set
                0x000313f8       0xb6 examples/light_switch/provisioner/CMakeFiles/light_switch_provisioner_nrf52832_xxAA_s132_6.0.0.dir/__/__/__/models/config/src/config_server.c.obj
 .text.handle_config_relay_get
                0x000314ae        0xa examples/light_switch/provisioner/CMakeFiles/light_switch_provisioner_nrf52832_xxAA_s132_6.0.0.dir/__/__/__/models/config/src/config_server.c.obj
 .text.send_subscription_status
                0x000314b8       0x3a examples/light_switch/provisioner/CMakeFiles/light_switch_provisioner_nrf52832_xxAA_s132_6.0.0.dir/__/__/__/models/config/src/config_server.c.obj
 .text.send_appkey_status
                0x000314f2       0x30 examples/light_switch/provisioner/CMakeFiles/light_switch_provisioner_nrf52832_xxAA_s132_6.0.0.dir/__/__/__/models/config/src/config_server.c.obj
 .text.handle_netkey_get
                0x00031522       0x4c examples/light_switch/provisioner/CMakeFiles/light_switch_provisioner_nrf52832_xxAA_s132_6.0.0.dir/__/__/__/models/config/src/config_server.c.obj
 .text.handle_netkey_delete
                0x0003156e       0xbc examples/light_switch/provisioner/CMakeFiles/light_switch_provisioner_nrf52832_xxAA_s132_6.0.0.dir/__/__/__/models/config/src/config_server.c.obj
 *fill*         0x0003162a        0x2 
 .text.handle_netkey_add_update
                0x0003162c       0x78 examples/light_switch/provisioner/CMakeFiles/light_switch_provisioner_nrf52832_xxAA_s132_6.0.0.dir/__/__/__/models/config/src/config_server.c.obj
 .text.status_error_sub_send
                0x000316a4      0x11e examples/light_switch/provisioner/CMakeFiles/light_switch_provisioner_nrf52832_xxAA_s132_6.0.0.dir/__/__/__/models/config/src/config_server.c.obj
 .text.delete_all_subscriptions
                0x000317c2       0x66 examples/light_switch/provisioner/CMakeFiles/light_switch_provisioner_nrf52832_xxAA_s132_6.0.0.dir/__/__/__/models/config/src/config_server.c.obj
 .text.send_publication_status
                0x00031828      0x16e examples/light_switch/provisioner/CMakeFiles/light_switch_provisioner_nrf52832_xxAA_s132_6.0.0.dir/__/__/__/models/config/src/config_server.c.obj
 .text.handle_config_key_refresh_phase_set
                0x00031996       0xc6 examples/light_switch/provisioner/CMakeFiles/light_switch_provisioner_nrf52832_xxAA_s132_6.0.0.dir/__/__/__/models/config/src/config_server.c.obj
 .text.handle_config_default_ttl_set
                0x00031a5c       0x4e examples/light_switch/provisioner/CMakeFiles/light_switch_provisioner_nrf52832_xxAA_s132_6.0.0.dir/__/__/__/models/config/src/config_server.c.obj
 .text.send_net_beacon_state
                0x00031aaa       0x2a examples/light_switch/provisioner/CMakeFiles/light_switch_provisioner_nrf52832_xxAA_s132_6.0.0.dir/__/__/__/models/config/src/config_server.c.obj
 .text.handle_config_beacon_get
                0x00031ad4        0xa examples/light_switch/provisioner/CMakeFiles/light_switch_provisioner_nrf52832_xxAA_s132_6.0.0.dir/__/__/__/models/config/src/config_server.c.obj
 *fill*         0x00031ade        0x2 
 .text.handle_heartbeat_publication_set
                0x00031ae0      0x128 examples/light_switch/provisioner/CMakeFiles/light_switch_provisioner_nrf52832_xxAA_s132_6.0.0.dir/__/__/__/models/config/src/config_server.c.obj
 .text.mesh_event_cb
                0x00031c08       0x64 examples/light_switch/provisioner/CMakeFiles/light_switch_provisioner_nrf52832_xxAA_s132_6.0.0.dir/__/__/__/models/config/src/config_server.c.obj
 .text.handle_node_identity_set
                0x00031c6c       0x32 examples/light_switch/provisioner/CMakeFiles/light_switch_provisioner_nrf52832_xxAA_s132_6.0.0.dir/__/__/__/models/config/src/config_server.c.obj
 .text.handle_node_identity_get
                0x00031c9e       0x2e examples/light_switch/provisioner/CMakeFiles/light_switch_provisioner_nrf52832_xxAA_s132_6.0.0.dir/__/__/__/models/config/src/config_server.c.obj
 .text.handle_config_gatt_proxy_set
                0x00031ccc       0x2a examples/light_switch/provisioner/CMakeFiles/light_switch_provisioner_nrf52832_xxAA_s132_6.0.0.dir/__/__/__/models/config/src/config_server.c.obj
 .text.handle_config_friend_set
                0x00031cf6       0x2a examples/light_switch/provisioner/CMakeFiles/light_switch_provisioner_nrf52832_xxAA_s132_6.0.0.dir/__/__/__/models/config/src/config_server.c.obj
 .text.status_error_pub_send
                0x00031d20       0x9a examples/light_switch/provisioner/CMakeFiles/light_switch_provisioner_nrf52832_xxAA_s132_6.0.0.dir/__/__/__/models/config/src/config_server.c.obj
 .text.handle_config_key_refresh_phase_get
                0x00031dba       0x54 examples/light_switch/provisioner/CMakeFiles/light_switch_provisioner_nrf52832_xxAA_s132_6.0.0.dir/__/__/__/models/config/src/config_server.c.obj
 .text.handle_config_default_ttl_get
                0x00031e0e       0x2a examples/light_switch/provisioner/CMakeFiles/light_switch_provisioner_nrf52832_xxAA_s132_6.0.0.dir/__/__/__/models/config/src/config_server.c.obj
 .text.handle_config_beacon_set
                0x00031e38       0x42 examples/light_switch/provisioner/CMakeFiles/light_switch_provisioner_nrf52832_xxAA_s132_6.0.0.dir/__/__/__/models/config/src/config_server.c.obj
 .text.handle_composition_data_get
                0x00031e7a       0x4c examples/light_switch/provisioner/CMakeFiles/light_switch_provisioner_nrf52832_xxAA_s132_6.0.0.dir/__/__/__/models/config/src/config_server.c.obj
 .text.handle_appkey_delete
                0x00031ec6       0xc2 examples/light_switch/provisioner/CMakeFiles/light_switch_provisioner_nrf52832_xxAA_s132_6.0.0.dir/__/__/__/models/config/src/config_server.c.obj
 .text.get_subscription_list.constprop.25
                0x00031f88       0x50 examples/light_switch/provisioner/CMakeFiles/light_switch_provisioner_nrf52832_xxAA_s132_6.0.0.dir/__/__/__/models/config/src/config_server.c.obj
 .text.handle_appkey_get
                0x00031fd8       0xb8 examples/light_switch/provisioner/CMakeFiles/light_switch_provisioner_nrf52832_xxAA_s132_6.0.0.dir/__/__/__/models/config/src/config_server.c.obj
 .text.heartbeat_subscription_count_encode
                0x00032090       0x26 examples/light_switch/provisioner/CMakeFiles/light_switch_provisioner_nrf52832_xxAA_s132_6.0.0.dir/__/__/__/models/config/src/config_server.c.obj
 .text.handle_appkey_add
                0x000320b6       0xba examples/light_switch/provisioner/CMakeFiles/light_switch_provisioner_nrf52832_xxAA_s132_6.0.0.dir/__/__/__/models/config/src/config_server.c.obj
 .text.handle_appkey_update
                0x00032170       0xbc examples/light_switch/provisioner/CMakeFiles/light_switch_provisioner_nrf52832_xxAA_s132_6.0.0.dir/__/__/__/models/config/src/config_server.c.obj
 .text.heartbeat_pubsub_period_encode
                0x0003222c       0x26 examples/light_switch/provisioner/CMakeFiles/light_switch_provisioner_nrf52832_xxAA_s132_6.0.0.dir/__/__/__/models/config/src/config_server.c.obj
 *fill*         0x00032252        0x2 
 .text.handle_heartbeat_publication_get
                0x00032254       0x7c examples/light_switch/provisioner/CMakeFiles/light_switch_provisioner_nrf52832_xxAA_s132_6.0.0.dir/__/__/__/models/config/src/config_server.c.obj
 .text.handle_heartbeat_subscription_get
                0x000322d0       0x82 examples/light_switch/provisioner/CMakeFiles/light_switch_provisioner_nrf52832_xxAA_s132_6.0.0.dir/__/__/__/models/config/src/config_server.c.obj
 .text.handle_heartbeat_subscription_set
                0x00032352       0xa4 examples/light_switch/provisioner/CMakeFiles/light_switch_provisioner_nrf52832_xxAA_s132_6.0.0.dir/__/__/__/models/config/src/config_server.c.obj
 .text.handle_config_model_publication_get
                0x000323f6       0x94 examples/light_switch/provisioner/CMakeFiles/light_switch_provisioner_nrf52832_xxAA_s132_6.0.0.dir/__/__/__/models/config/src/config_server.c.obj
 .text.handle_config_model_subscription_delete_all
                0x0003248a       0xca examples/light_switch/provisioner/CMakeFiles/light_switch_provisioner_nrf52832_xxAA_s132_6.0.0.dir/__/__/__/models/config/src/config_server.c.obj
 .text.handle_config_sig_model_subscription_get
                0x00032554       0xc4 examples/light_switch/provisioner/CMakeFiles/light_switch_provisioner_nrf52832_xxAA_s132_6.0.0.dir/__/__/__/models/config/src/config_server.c.obj
 .text.handle_config_vendor_model_subscription_get
                0x00032618      0x100 examples/light_switch/provisioner/CMakeFiles/light_switch_provisioner_nrf52832_xxAA_s132_6.0.0.dir/__/__/__/models/config/src/config_server.c.obj
 .text.handle_config_model_subscription_virtual_address_delete
                0x00032718      0x110 examples/light_switch/provisioner/CMakeFiles/light_switch_provisioner_nrf52832_xxAA_s132_6.0.0.dir/__/__/__/models/config/src/config_server.c.obj
 .text.handle_config_model_subscription_virtual_address_add
                0x00032828      0x10e examples/light_switch/provisioner/CMakeFiles/light_switch_provisioner_nrf52832_xxAA_s132_6.0.0.dir/__/__/__/models/config/src/config_server.c.obj
 .text.handle_config_model_subscription_delete
                0x00032936      0x116 examples/light_switch/provisioner/CMakeFiles/light_switch_provisioner_nrf52832_xxAA_s132_6.0.0.dir/__/__/__/models/config/src/config_server.c.obj
 .text.handle_config_model_subscription_add
                0x00032a4c      0x114 examples/light_switch/provisioner/CMakeFiles/light_switch_provisioner_nrf52832_xxAA_s132_6.0.0.dir/__/__/__/models/config/src/config_server.c.obj
 .text.handle_model_app_get
                0x00032b60      0x19e examples/light_switch/provisioner/CMakeFiles/light_switch_provisioner_nrf52832_xxAA_s132_6.0.0.dir/__/__/__/models/config/src/config_server.c.obj
 .text.handle_config_model_subscription_virtual_address_overwrite
                0x00032cfe      0x128 examples/light_switch/provisioner/CMakeFiles/light_switch_provisioner_nrf52832_xxAA_s132_6.0.0.dir/__/__/__/models/config/src/config_server.c.obj
 .text.handle_config_model_subscription_overwrite
                0x00032e26      0x122 examples/light_switch/provisioner/CMakeFiles/light_switch_provisioner_nrf52832_xxAA_s132_6.0.0.dir/__/__/__/models/config/src/config_server.c.obj
 .text.handle_model_app_bind_unbind
                0x00032f48      0x174 examples/light_switch/provisioner/CMakeFiles/light_switch_provisioner_nrf52832_xxAA_s132_6.0.0.dir/__/__/__/models/config/src/config_server.c.obj
 .text.handle_config_gatt_proxy_get
                0x000330bc       0x20 examples/light_switch/provisioner/CMakeFiles/light_switch_provisioner_nrf52832_xxAA_s132_6.0.0.dir/__/__/__/models/config/src/config_server.c.obj
 .text.handle_config_friend_get
                0x000330dc       0x20 examples/light_switch/provisioner/CMakeFiles/light_switch_provisioner_nrf52832_xxAA_s132_6.0.0.dir/__/__/__/models/config/src/config_server.c.obj
 .text.handle_config_model_publication_set
                0x000330fc      0x2ce examples/light_switch/provisioner/CMakeFiles/light_switch_provisioner_nrf52832_xxAA_s132_6.0.0.dir/__/__/__/models/config/src/config_server.c.obj
 *fill*         0x000333ca        0x2 
 .text.config_server_init
                0x000333cc       0x64 examples/light_switch/provisioner/CMakeFiles/light_switch_provisioner_nrf52832_xxAA_s132_6.0.0.dir/__/__/__/models/config/src/config_server.c.obj
                0x000333cc                config_server_init
 .text.config_server_bind
                0x00033430       0x10 examples/light_switch/provisioner/CMakeFiles/light_switch_provisioner_nrf52832_xxAA_s132_6.0.0.dir/__/__/__/models/config/src/config_server.c.obj
                0x00033430                config_server_bind
 .text.packed_index_list_create
                0x00033440       0x32 examples/light_switch/provisioner/CMakeFiles/light_switch_provisioner_nrf52832_xxAA_s132_6.0.0.dir/__/__/__/models/config/src/packed_index_list.c.obj
                0x00033440                packed_index_list_create
 *fill*         0x00033472        0x2 
 .text.attention_timer_set
                0x00033474       0x8c examples/light_switch/provisioner/CMakeFiles/light_switch_provisioner_nrf52832_xxAA_s132_6.0.0.dir/__/__/__/models/health/src/health_server.c.obj
 .text.attention_timer_handler
                0x00033500       0x5c examples/light_switch/provisioner/CMakeFiles/light_switch_provisioner_nrf52832_xxAA_s132_6.0.0.dir/__/__/__/models/health/src/health_server.c.obj
 .text.send_attention_status.isra.1
                0x0003355c       0x44 examples/light_switch/provisioner/CMakeFiles/light_switch_provisioner_nrf52832_xxAA_s132_6.0.0.dir/__/__/__/models/health/src/health_server.c.obj
 .text.handle_attention_set
                0x000335a0       0x32 examples/light_switch/provisioner/CMakeFiles/light_switch_provisioner_nrf52832_xxAA_s132_6.0.0.dir/__/__/__/models/health/src/health_server.c.obj
 .text.send_period_status.isra.4
                0x000335d2       0x44 examples/light_switch/provisioner/CMakeFiles/light_switch_provisioner_nrf52832_xxAA_s132_6.0.0.dir/__/__/__/models/health/src/health_server.c.obj
 .text.handle_period_set
                0x00033616       0x28 examples/light_switch/provisioner/CMakeFiles/light_switch_provisioner_nrf52832_xxAA_s132_6.0.0.dir/__/__/__/models/health/src/health_server.c.obj
 *fill*         0x0003363e        0x2 
 .text.bitfield_next_get.part.0.constprop.13
                0x00033640       0x44 examples/light_switch/provisioner/CMakeFiles/light_switch_provisioner_nrf52832_xxAA_s132_6.0.0.dir/__/__/__/models/health/src/health_server.c.obj
 .text.bitfield_popcount.constprop.11
                0x00033684       0x28 examples/light_switch/provisioner/CMakeFiles/light_switch_provisioner_nrf52832_xxAA_s132_6.0.0.dir/__/__/__/models/health/src/health_server.c.obj
 .text.send_fault_status
                0x000336ac       0xa8 examples/light_switch/provisioner/CMakeFiles/light_switch_provisioner_nrf52832_xxAA_s132_6.0.0.dir/__/__/__/models/health/src/health_server.c.obj
 .text.health_publish_timeout_handler
                0x00033754        0xa examples/light_switch/provisioner/CMakeFiles/light_switch_provisioner_nrf52832_xxAA_s132_6.0.0.dir/__/__/__/models/health/src/health_server.c.obj
 .text.handle_fault_test
                0x0003375e       0x68 examples/light_switch/provisioner/CMakeFiles/light_switch_provisioner_nrf52832_xxAA_s132_6.0.0.dir/__/__/__/models/health/src/health_server.c.obj
 .text.handle_fault_get
                0x000337c6       0x32 examples/light_switch/provisioner/CMakeFiles/light_switch_provisioner_nrf52832_xxAA_s132_6.0.0.dir/__/__/__/models/health/src/health_server.c.obj
 .text.handle_fault_clear
                0x000337f8       0x48 examples/light_switch/provisioner/CMakeFiles/light_switch_provisioner_nrf52832_xxAA_s132_6.0.0.dir/__/__/__/models/health/src/health_server.c.obj
 .text.handle_attention_get
                0x00033840       0x14 examples/light_switch/provisioner/CMakeFiles/light_switch_provisioner_nrf52832_xxAA_s132_6.0.0.dir/__/__/__/models/health/src/health_server.c.obj
 .text.handle_period_get
                0x00033854       0x12 examples/light_switch/provisioner/CMakeFiles/light_switch_provisioner_nrf52832_xxAA_s132_6.0.0.dir/__/__/__/models/health/src/health_server.c.obj
 *fill*         0x00033866        0x2 
 .text.health_server_init
                0x00033868       0x6c examples/light_switch/provisioner/CMakeFiles/light_switch_provisioner_nrf52832_xxAA_s132_6.0.0.dir/__/__/__/models/health/src/health_server.c.obj
                0x00033868                health_server_init
 .text.handle_fault_status
                0x000338d4       0x48 examples/light_switch/provisioner/CMakeFiles/light_switch_provisioner_nrf52832_xxAA_s132_6.0.0.dir/__/__/__/models/health/src/health_client.c.obj
 .text.handle_period_status
                0x0003391c       0x28 examples/light_switch/provisioner/CMakeFiles/light_switch_provisioner_nrf52832_xxAA_s132_6.0.0.dir/__/__/__/models/health/src/health_client.c.obj
 .text.handle_attention_status
                0x00033944       0x28 examples/light_switch/provisioner/CMakeFiles/light_switch_provisioner_nrf52832_xxAA_s132_6.0.0.dir/__/__/__/models/health/src/health_client.c.obj
 .text.health_client_init
                0x0003396c       0x54 examples/light_switch/provisioner/CMakeFiles/light_switch_provisioner_nrf52832_xxAA_s132_6.0.0.dir/__/__/__/models/health/src/health_client.c.obj
                0x0003396c                health_client_init
 .text.add_to_publication_list
                0x000339c0       0x78 examples/light_switch/provisioner/CMakeFiles/light_switch_provisioner_nrf52832_xxAA_s132_6.0.0.dir/__/__/__/mesh/access/src/access_publish.c.obj
 .text.step_resolution_to_us
                0x00033a38       0x38 examples/light_switch/provisioner/CMakeFiles/light_switch_provisioner_nrf52832_xxAA_s132_6.0.0.dir/__/__/__/mesh/access/src/access_publish.c.obj
 .text.schedule_publication_timer
                0x00033a70      0x184 examples/light_switch/provisioner/CMakeFiles/light_switch_provisioner_nrf52832_xxAA_s132_6.0.0.dir/__/__/__/mesh/access/src/access_publish.c.obj
 .text.publish_timer_tick
                0x00033bf4       0xa8 examples/light_switch/provisioner/CMakeFiles/light_switch_provisioner_nrf52832_xxAA_s132_6.0.0.dir/__/__/__/mesh/access/src/access_publish.c.obj
 .text.access_publish_init
                0x00033c9c       0x38 examples/light_switch/provisioner/CMakeFiles/light_switch_provisioner_nrf52832_xxAA_s132_6.0.0.dir/__/__/__/mesh/access/src/access_publish.c.obj
                0x00033c9c                access_publish_init
 .text.access_publish_period_set
                0x00033cd4       0x60 examples/light_switch/provisioner/CMakeFiles/light_switch_provisioner_nrf52832_xxAA_s132_6.0.0.dir/__/__/__/mesh/access/src/access_publish.c.obj
                0x00033cd4                access_publish_period_set
 .text.access_publish_period_get
                0x00033d34       0x22 examples/light_switch/provisioner/CMakeFiles/light_switch_provisioner_nrf52832_xxAA_s132_6.0.0.dir/__/__/__/mesh/access/src/access_publish.c.obj
                0x00033d34                access_publish_period_get
 .text.bitfield_get
                0x00033d56       0x1a examples/light_switch/provisioner/CMakeFiles/light_switch_provisioner_nrf52832_xxAA_s132_6.0.0.dir/__/__/__/mesh/access/src/access.c.obj
 .text.is_valid_opcode
                0x00033d70       0x42 examples/light_switch/provisioner/CMakeFiles/light_switch_provisioner_nrf52832_xxAA_s132_6.0.0.dir/__/__/__/mesh/access/src/access.c.obj
 *fill*         0x00033db2        0x2 
 .text.model_handle_valid_and_allocated
                0x00033db4       0x20 examples/light_switch/provisioner/CMakeFiles/light_switch_provisioner_nrf52832_xxAA_s132_6.0.0.dir/__/__/__/mesh/access/src/access.c.obj
 .text.flash_manager_mem_available
                0x00033dd4        0x2 examples/light_switch/provisioner/CMakeFiles/light_switch_provisioner_nrf52832_xxAA_s132_6.0.0.dir/__/__/__/mesh/access/src/access.c.obj
 *fill*         0x00033dd6        0x2 
 .text.restore_acquired_subscription
                0x00033dd8       0x34 examples/light_switch/provisioner/CMakeFiles/light_switch_provisioner_nrf52832_xxAA_s132_6.0.0.dir/__/__/__/mesh/access/src/access.c.obj
 .text.restore_acquired_element
                0x00033e0c       0x1c examples/light_switch/provisioner/CMakeFiles/light_switch_provisioner_nrf52832_xxAA_s132_6.0.0.dir/__/__/__/mesh/access/src/access.c.obj
 .text.restore_flash_data
                0x00033e28       0x50 examples/light_switch/provisioner/CMakeFiles/light_switch_provisioner_nrf52832_xxAA_s132_6.0.0.dir/__/__/__/mesh/access/src/access.c.obj
 .text.flash_invalidate_complete
                0x00033e78        0x6 examples/light_switch/provisioner/CMakeFiles/light_switch_provisioner_nrf52832_xxAA_s132_6.0.0.dir/__/__/__/mesh/access/src/access.c.obj
 *fill*         0x00033e7e        0x2 
 .text.access_flash_config_clear
                0x00033e80       0x28 examples/light_switch/provisioner/CMakeFiles/light_switch_provisioner_nrf52832_xxAA_s132_6.0.0.dir/__/__/__/mesh/access/src/access.c.obj
 .text.access_flash_config_store
                0x00033ea8      0x138 examples/light_switch/provisioner/CMakeFiles/light_switch_provisioner_nrf52832_xxAA_s132_6.0.0.dir/__/__/__/mesh/access/src/access.c.obj
                0x00033ea8                access_flash_config_store
 .text.access_state_clear
                0x00033fe0       0x48 examples/light_switch/provisioner/CMakeFiles/light_switch_provisioner_nrf52832_xxAA_s132_6.0.0.dir/__/__/__/mesh/access/src/access.c.obj
 .text.add_flash_manager
                0x00034028       0x58 examples/light_switch/provisioner/CMakeFiles/light_switch_provisioner_nrf52832_xxAA_s132_6.0.0.dir/__/__/__/mesh/access/src/access.c.obj
 .text.flash_remove_complete
                0x00034080       0x54 examples/light_switch/provisioner/CMakeFiles/light_switch_provisioner_nrf52832_xxAA_s132_6.0.0.dir/__/__/__/mesh/access/src/access.c.obj
 .text.flash_write_complete
                0x000340d4       0x46 examples/light_switch/provisioner/CMakeFiles/light_switch_provisioner_nrf52832_xxAA_s132_6.0.0.dir/__/__/__/mesh/access/src/access.c.obj
 *fill*         0x0003411a        0x2 
 .text.unlikely.bitfield_next_get.part.0.constprop.4
                0x0003411c       0x3c examples/light_switch/provisioner/CMakeFiles/light_switch_provisioner_nrf52832_xxAA_s132_6.0.0.dir/__/__/__/mesh/access/src/access.c.obj
 .text.restore_acquired_model
                0x00034158       0x90 examples/light_switch/provisioner/CMakeFiles/light_switch_provisioner_nrf52832_xxAA_s132_6.0.0.dir/__/__/__/mesh/access/src/access.c.obj
 .text.handle_incoming
                0x000341e8      0x148 examples/light_switch/provisioner/CMakeFiles/light_switch_provisioner_nrf52832_xxAA_s132_6.0.0.dir/__/__/__/mesh/access/src/access.c.obj
 .text.mesh_evt_cb
                0x00034330      0x134 examples/light_switch/provisioner/CMakeFiles/light_switch_provisioner_nrf52832_xxAA_s132_6.0.0.dir/__/__/__/mesh/access/src/access.c.obj
 .text.packet_tx
                0x00034464      0x380 examples/light_switch/provisioner/CMakeFiles/light_switch_provisioner_nrf52832_xxAA_s132_6.0.0.dir/__/__/__/mesh/access/src/access.c.obj
 .text.access_flash_config_load
                0x000347e4      0x11c examples/light_switch/provisioner/CMakeFiles/light_switch_provisioner_nrf52832_xxAA_s132_6.0.0.dir/__/__/__/mesh/access/src/access.c.obj
                0x000347e4                access_flash_config_load
 .text.access_clear
                0x00034900       0x12 examples/light_switch/provisioner/CMakeFiles/light_switch_provisioner_nrf52832_xxAA_s132_6.0.0.dir/__/__/__/mesh/access/src/access.c.obj
                0x00034900                access_clear
 *fill*         0x00034912        0x2 
 .text.access_init
                0x00034914       0x28 examples/light_switch/provisioner/CMakeFiles/light_switch_provisioner_nrf52832_xxAA_s132_6.0.0.dir/__/__/__/mesh/access/src/access.c.obj
                0x00034914                access_init
 .text.access_model_add
                0x0003493c      0x1b8 examples/light_switch/provisioner/CMakeFiles/light_switch_provisioner_nrf52832_xxAA_s132_6.0.0.dir/__/__/__/mesh/access/src/access.c.obj
                0x0003493c                access_model_add
 .text.access_model_publish
                0x00034af4        0xc examples/light_switch/provisioner/CMakeFiles/light_switch_provisioner_nrf52832_xxAA_s132_6.0.0.dir/__/__/__/mesh/access/src/access.c.obj
                0x00034af4                access_model_publish
 .text.access_model_reply
                0x00034b00       0x12 examples/light_switch/provisioner/CMakeFiles/light_switch_provisioner_nrf52832_xxAA_s132_6.0.0.dir/__/__/__/mesh/access/src/access.c.obj
                0x00034b00                access_model_reply
 *fill*         0x00034b12        0x2 
 .text.access_model_publish_address_set
                0x00034b14       0x3c examples/light_switch/provisioner/CMakeFiles/light_switch_provisioner_nrf52832_xxAA_s132_6.0.0.dir/__/__/__/mesh/access/src/access.c.obj
                0x00034b14                access_model_publish_address_set
 .text.access_model_publish_address_get
                0x00034b50       0x28 examples/light_switch/provisioner/CMakeFiles/light_switch_provisioner_nrf52832_xxAA_s132_6.0.0.dir/__/__/__/mesh/access/src/access.c.obj
                0x00034b50                access_model_publish_address_get
 .text.access_model_publish_retransmit_set
                0x00034b78       0x4c examples/light_switch/provisioner/CMakeFiles/light_switch_provisioner_nrf52832_xxAA_s132_6.0.0.dir/__/__/__/mesh/access/src/access.c.obj
                0x00034b78                access_model_publish_retransmit_set
 .text.access_model_publish_retransmit_get
                0x00034bc4       0x2c examples/light_switch/provisioner/CMakeFiles/light_switch_provisioner_nrf52832_xxAA_s132_6.0.0.dir/__/__/__/mesh/access/src/access.c.obj
                0x00034bc4                access_model_publish_retransmit_get
 .text.access_model_publish_period_set
                0x00034bf0       0x6c examples/light_switch/provisioner/CMakeFiles/light_switch_provisioner_nrf52832_xxAA_s132_6.0.0.dir/__/__/__/mesh/access/src/access.c.obj
                0x00034bf0                access_model_publish_period_set
 .text.access_model_publish_period_get
                0x00034c5c       0x3c examples/light_switch/provisioner/CMakeFiles/light_switch_provisioner_nrf52832_xxAA_s132_6.0.0.dir/__/__/__/mesh/access/src/access.c.obj
                0x00034c5c                access_model_publish_period_get
 .text.access_model_subscription_list_alloc
                0x00034c98       0x54 examples/light_switch/provisioner/CMakeFiles/light_switch_provisioner_nrf52832_xxAA_s132_6.0.0.dir/__/__/__/mesh/access/src/access.c.obj
                0x00034c98                access_model_subscription_list_alloc
 .text.access_model_subscription_add
                0x00034cec       0x68 examples/light_switch/provisioner/CMakeFiles/light_switch_provisioner_nrf52832_xxAA_s132_6.0.0.dir/__/__/__/mesh/access/src/access.c.obj
                0x00034cec                access_model_subscription_add
 .text.access_model_subscription_remove
                0x00034d54       0x68 examples/light_switch/provisioner/CMakeFiles/light_switch_provisioner_nrf52832_xxAA_s132_6.0.0.dir/__/__/__/mesh/access/src/access.c.obj
                0x00034d54                access_model_subscription_remove
 .text.access_model_subscriptions_get
                0x00034dbc       0x84 examples/light_switch/provisioner/CMakeFiles/light_switch_provisioner_nrf52832_xxAA_s132_6.0.0.dir/__/__/__/mesh/access/src/access.c.obj
                0x00034dbc                access_model_subscriptions_get
 .text.access_model_application_bind
                0x00034e40       0x5c examples/light_switch/provisioner/CMakeFiles/light_switch_provisioner_nrf52832_xxAA_s132_6.0.0.dir/__/__/__/mesh/access/src/access.c.obj
                0x00034e40                access_model_application_bind
 .text.access_model_application_unbind
                0x00034e9c       0x5c examples/light_switch/provisioner/CMakeFiles/light_switch_provisioner_nrf52832_xxAA_s132_6.0.0.dir/__/__/__/mesh/access/src/access.c.obj
                0x00034e9c                access_model_application_unbind
 .text.access_model_applications_get
                0x00034ef8       0x58 examples/light_switch/provisioner/CMakeFiles/light_switch_provisioner_nrf52832_xxAA_s132_6.0.0.dir/__/__/__/mesh/access/src/access.c.obj
                0x00034ef8                access_model_applications_get
 .text.access_model_publish_application_set
                0x00034f50       0x3c examples/light_switch/provisioner/CMakeFiles/light_switch_provisioner_nrf52832_xxAA_s132_6.0.0.dir/__/__/__/mesh/access/src/access.c.obj
                0x00034f50                access_model_publish_application_set
 .text.access_model_publish_application_get
                0x00034f8c       0x28 examples/light_switch/provisioner/CMakeFiles/light_switch_provisioner_nrf52832_xxAA_s132_6.0.0.dir/__/__/__/mesh/access/src/access.c.obj
                0x00034f8c                access_model_publish_application_get
 .text.access_default_ttl_set
                0x00034fb4       0x18 examples/light_switch/provisioner/CMakeFiles/light_switch_provisioner_nrf52832_xxAA_s132_6.0.0.dir/__/__/__/mesh/access/src/access.c.obj
                0x00034fb4                access_default_ttl_set
 .text.access_default_ttl_get
                0x00034fcc        0xc examples/light_switch/provisioner/CMakeFiles/light_switch_provisioner_nrf52832_xxAA_s132_6.0.0.dir/__/__/__/mesh/access/src/access.c.obj
                0x00034fcc                access_default_ttl_get
 .text.access_model_publish_ttl_set
                0x00034fd8       0x40 examples/light_switch/provisioner/CMakeFiles/light_switch_provisioner_nrf52832_xxAA_s132_6.0.0.dir/__/__/__/mesh/access/src/access.c.obj
                0x00034fd8                access_model_publish_ttl_set
 .text.access_model_publish_ttl_get
                0x00035018       0x28 examples/light_switch/provisioner/CMakeFiles/light_switch_provisioner_nrf52832_xxAA_s132_6.0.0.dir/__/__/__/mesh/access/src/access.c.obj
                0x00035018                access_model_publish_ttl_get
 .text.access_element_location_get
                0x00035040       0x18 examples/light_switch/provisioner/CMakeFiles/light_switch_provisioner_nrf52832_xxAA_s132_6.0.0.dir/__/__/__/mesh/access/src/access.c.obj
                0x00035040                access_element_location_get
 .text.access_element_sig_model_count_get
                0x00035058       0x18 examples/light_switch/provisioner/CMakeFiles/light_switch_provisioner_nrf52832_xxAA_s132_6.0.0.dir/__/__/__/mesh/access/src/access.c.obj
                0x00035058                access_element_sig_model_count_get
 .text.access_element_vendor_model_count_get
                0x00035070       0x18 examples/light_switch/provisioner/CMakeFiles/light_switch_provisioner_nrf52832_xxAA_s132_6.0.0.dir/__/__/__/mesh/access/src/access.c.obj
                0x00035070                access_element_vendor_model_count_get
 .text.access_model_id_get
                0x00035088       0x2c examples/light_switch/provisioner/CMakeFiles/light_switch_provisioner_nrf52832_xxAA_s132_6.0.0.dir/__/__/__/mesh/access/src/access.c.obj
                0x00035088                access_model_id_get
 .text.access_handle_get
                0x000350b4       0x4c examples/light_switch/provisioner/CMakeFiles/light_switch_provisioner_nrf52832_xxAA_s132_6.0.0.dir/__/__/__/mesh/access/src/access.c.obj
                0x000350b4                access_handle_get
 .text.access_element_models_get
                0x00035100       0x48 examples/light_switch/provisioner/CMakeFiles/light_switch_provisioner_nrf52832_xxAA_s132_6.0.0.dir/__/__/__/mesh/access/src/access.c.obj
                0x00035100                access_element_models_get
 .text.access_model_p_args_get
                0x00035148       0x28 examples/light_switch/provisioner/CMakeFiles/light_switch_provisioner_nrf52832_xxAA_s132_6.0.0.dir/__/__/__/mesh/access/src/access.c.obj
                0x00035148                access_model_p_args_get
 .text.access_model_publication_stop
                0x00035170       0x70 examples/light_switch/provisioner/CMakeFiles/light_switch_provisioner_nrf52832_xxAA_s132_6.0.0.dir/__/__/__/mesh/access/src/access.c.obj
                0x00035170                access_model_publication_stop
 .text.access_model_publication_by_appkey_stop
                0x000351e0       0x36 examples/light_switch/provisioner/CMakeFiles/light_switch_provisioner_nrf52832_xxAA_s132_6.0.0.dir/__/__/__/mesh/access/src/access.c.obj
                0x000351e0                access_model_publication_by_appkey_stop
 *fill*         0x00035216        0x2 
 .text.reliable_timer_cb
                0x00035218      0x11c examples/light_switch/provisioner/CMakeFiles/light_switch_provisioner_nrf52832_xxAA_s132_6.0.0.dir/__/__/__/mesh/access/src/access_reliable.c.obj
 .text.remove_and_reschedule
                0x00035334       0xac examples/light_switch/provisioner/CMakeFiles/light_switch_provisioner_nrf52832_xxAA_s132_6.0.0.dir/__/__/__/mesh/access/src/access_reliable.c.obj
 .text.access_reliable_message_rx_cb
                0x000353e0       0x68 examples/light_switch/provisioner/CMakeFiles/light_switch_provisioner_nrf52832_xxAA_s132_6.0.0.dir/__/__/__/mesh/access/src/access_reliable.c.obj
                0x000353e0                access_reliable_message_rx_cb
 .text.access_reliable_init
                0x00035448       0x1c examples/light_switch/provisioner/CMakeFiles/light_switch_provisioner_nrf52832_xxAA_s132_6.0.0.dir/__/__/__/mesh/access/src/access_reliable.c.obj
                0x00035448                access_reliable_init
 .text.access_reliable_cancel_all
                0x00035464       0x60 examples/light_switch/provisioner/CMakeFiles/light_switch_provisioner_nrf52832_xxAA_s132_6.0.0.dir/__/__/__/mesh/access/src/access_reliable.c.obj
                0x00035464                access_reliable_cancel_all
 .text.access_model_reliable_cancel
                0x000354c4       0x68 examples/light_switch/provisioner/CMakeFiles/light_switch_provisioner_nrf52832_xxAA_s132_6.0.0.dir/__/__/__/mesh/access/src/access_reliable.c.obj
                0x000354c4                access_model_reliable_cancel
 .text.access_model_reliable_publish
                0x0003552c      0x1b8 examples/light_switch/provisioner/CMakeFiles/light_switch_provisioner_nrf52832_xxAA_s132_6.0.0.dir/__/__/__/mesh/access/src/access_reliable.c.obj
                0x0003552c                access_model_reliable_publish
 .text.bitfield_get
                0x000356e4       0x1a examples/light_switch/provisioner/CMakeFiles/light_switch_provisioner_nrf52832_xxAA_s132_6.0.0.dir/__/__/__/mesh/access/src/device_state_manager.c.obj
 .text.bitfield_set
                0x000356fe       0x18 examples/light_switch/provisioner/CMakeFiles/light_switch_provisioner_nrf52832_xxAA_s132_6.0.0.dir/__/__/__/mesh/access/src/device_state_manager.c.obj
 .text.bitfield_clear
                0x00035716       0x1a examples/light_switch/provisioner/CMakeFiles/light_switch_provisioner_nrf52832_xxAA_s132_6.0.0.dir/__/__/__/mesh/access/src/device_state_manager.c.obj
 .text.bitfield_is_all_clear
                0x00035730       0x3c examples/light_switch/provisioner/CMakeFiles/light_switch_provisioner_nrf52832_xxAA_s132_6.0.0.dir/__/__/__/mesh/access/src/device_state_manager.c.obj
 .text.address_handle_virtual_valid
                0x0003576c       0x14 examples/light_switch/provisioner/CMakeFiles/light_switch_provisioner_nrf52832_xxAA_s132_6.0.0.dir/__/__/__/mesh/access/src/device_state_manager.c.obj
 .text.net_key_handle_get
                0x00035780       0x38 examples/light_switch/provisioner/CMakeFiles/light_switch_provisioner_nrf52832_xxAA_s132_6.0.0.dir/__/__/__/mesh/access/src/device_state_manager.c.obj
 .text.dev_key_handle_get
                0x000357b8       0x58 examples/light_switch/provisioner/CMakeFiles/light_switch_provisioner_nrf52832_xxAA_s132_6.0.0.dir/__/__/__/mesh/access/src/device_state_manager.c.obj
 .text.app_key_handle_get
                0x00035810       0x38 examples/light_switch/provisioner/CMakeFiles/light_switch_provisioner_nrf52832_xxAA_s132_6.0.0.dir/__/__/__/mesh/access/src/device_state_manager.c.obj
 .text.addr_nonvirtual_to_flash_entry
                0x00035848       0x10 examples/light_switch/provisioner/CMakeFiles/light_switch_provisioner_nrf52832_xxAA_s132_6.0.0.dir/__/__/__/mesh/access/src/device_state_manager.c.obj
 .text.devkey_set
                0x00035858       0x4c examples/light_switch/provisioner/CMakeFiles/light_switch_provisioner_nrf52832_xxAA_s132_6.0.0.dir/__/__/__/mesh/access/src/device_state_manager.c.obj
 .text.devkey_to_dsm_entry
                0x000358a4       0x16 examples/light_switch/provisioner/CMakeFiles/light_switch_provisioner_nrf52832_xxAA_s132_6.0.0.dir/__/__/__/mesh/access/src/device_state_manager.c.obj
 *fill*         0x000358ba        0x2 
 .text.devkey_to_flash_entry
                0x000358bc       0x28 examples/light_switch/provisioner/CMakeFiles/light_switch_provisioner_nrf52832_xxAA_s132_6.0.0.dir/__/__/__/mesh/access/src/device_state_manager.c.obj
 .text.addr_virtual_to_flash_entry
                0x000358e4       0x18 examples/light_switch/provisioner/CMakeFiles/light_switch_provisioner_nrf52832_xxAA_s132_6.0.0.dir/__/__/__/mesh/access/src/device_state_manager.c.obj
 .text.addr_unicast_to_dsm_entry
                0x000358fc        0xc examples/light_switch/provisioner/CMakeFiles/light_switch_provisioner_nrf52832_xxAA_s132_6.0.0.dir/__/__/__/mesh/access/src/device_state_manager.c.obj
 .text.addr_unicast_to_flash_entry
                0x00035908       0x10 examples/light_switch/provisioner/CMakeFiles/light_switch_provisioner_nrf52832_xxAA_s132_6.0.0.dir/__/__/__/mesh/access/src/device_state_manager.c.obj
 .text.flash_mem_listener_callback
                0x00035918       0x14 examples/light_switch/provisioner/CMakeFiles/light_switch_provisioner_nrf52832_xxAA_s132_6.0.0.dir/__/__/__/mesh/access/src/device_state_manager.c.obj
 .text.get_subnet_handle
                0x0003592c       0x34 examples/light_switch/provisioner/CMakeFiles/light_switch_provisioner_nrf52832_xxAA_s132_6.0.0.dir/__/__/__/mesh/access/src/device_state_manager.c.obj
 .text.appkey_set
                0x00035960       0x70 examples/light_switch/provisioner/CMakeFiles/light_switch_provisioner_nrf52832_xxAA_s132_6.0.0.dir/__/__/__/mesh/access/src/device_state_manager.c.obj
 .text.appkey_to_flash_entry
                0x000359d0       0x54 examples/light_switch/provisioner/CMakeFiles/light_switch_provisioner_nrf52832_xxAA_s132_6.0.0.dir/__/__/__/mesh/access/src/device_state_manager.c.obj
 .text.subnet_to_flash_entry
                0x00035a24       0x60 examples/light_switch/provisioner/CMakeFiles/light_switch_provisioner_nrf52832_xxAA_s132_6.0.0.dir/__/__/__/mesh/access/src/device_state_manager.c.obj
 .text.bitfield_clear_all
                0x00035a84        0xe examples/light_switch/provisioner/CMakeFiles/light_switch_provisioner_nrf52832_xxAA_s132_6.0.0.dir/__/__/__/mesh/access/src/device_state_manager.c.obj
 *fill*         0x00035a92        0x2 
 .text.subnet_set
                0x00035a94       0x98 examples/light_switch/provisioner/CMakeFiles/light_switch_provisioner_nrf52832_xxAA_s132_6.0.0.dir/__/__/__/mesh/access/src/device_state_manager.c.obj
 .text.virtual_address_set
                0x00035b2c       0x4c examples/light_switch/provisioner/CMakeFiles/light_switch_provisioner_nrf52832_xxAA_s132_6.0.0.dir/__/__/__/mesh/access/src/device_state_manager.c.obj
 .text.addr_virtual_to_dsm_entry
                0x00035b78        0xe examples/light_switch/provisioner/CMakeFiles/light_switch_provisioner_nrf52832_xxAA_s132_6.0.0.dir/__/__/__/mesh/access/src/device_state_manager.c.obj
 *fill*         0x00035b86        0x2 
 .text.reset_flash_area
                0x00035b88       0x28 examples/light_switch/provisioner/CMakeFiles/light_switch_provisioner_nrf52832_xxAA_s132_6.0.0.dir/__/__/__/mesh/access/src/device_state_manager.c.obj
 .text.flash_save
                0x00035bb0       0x7c examples/light_switch/provisioner/CMakeFiles/light_switch_provisioner_nrf52832_xxAA_s132_6.0.0.dir/__/__/__/mesh/access/src/device_state_manager.c.obj
 .text.flash_invalidate
                0x00035c2c       0x64 examples/light_switch/provisioner/CMakeFiles/light_switch_provisioner_nrf52832_xxAA_s132_6.0.0.dir/__/__/__/mesh/access/src/device_state_manager.c.obj
 .text.flash_update_all
                0x00035c90       0x6c examples/light_switch/provisioner/CMakeFiles/light_switch_provisioner_nrf52832_xxAA_s132_6.0.0.dir/__/__/__/mesh/access/src/device_state_manager.c.obj
 .text.virtual_address_uuid_index_get
                0x00035cfc       0x3c examples/light_switch/provisioner/CMakeFiles/light_switch_provisioner_nrf52832_xxAA_s132_6.0.0.dir/__/__/__/mesh/access/src/device_state_manager.c.obj
 .text.add_address_virtual
                0x00035d38       0x74 examples/light_switch/provisioner/CMakeFiles/light_switch_provisioner_nrf52832_xxAA_s132_6.0.0.dir/__/__/__/mesh/access/src/device_state_manager.c.obj
 .text.get_subnet_handle_by_beacon_info
                0x00035dac       0x24 examples/light_switch/provisioner/CMakeFiles/light_switch_provisioner_nrf52832_xxAA_s132_6.0.0.dir/__/__/__/mesh/access/src/device_state_manager.c.obj
 .text.get_app_handle
                0x00035dd0       0x40 examples/light_switch/provisioner/CMakeFiles/light_switch_provisioner_nrf52832_xxAA_s132_6.0.0.dir/__/__/__/mesh/access/src/device_state_manager.c.obj
 .text.appkey_to_dsm_entry
                0x00035e10       0x68 examples/light_switch/provisioner/CMakeFiles/light_switch_provisioner_nrf52832_xxAA_s132_6.0.0.dir/__/__/__/mesh/access/src/device_state_manager.c.obj
 .text.subnet_to_dsm_entry
                0x00035e78       0x68 examples/light_switch/provisioner/CMakeFiles/light_switch_provisioner_nrf52832_xxAA_s132_6.0.0.dir/__/__/__/mesh/access/src/device_state_manager.c.obj
 .text.flash_operation_complete
                0x00035ee0       0x4c examples/light_switch/provisioner/CMakeFiles/light_switch_provisioner_nrf52832_xxAA_s132_6.0.0.dir/__/__/__/mesh/access/src/device_state_manager.c.obj
 .text.flash_invalidate_complete
                0x00035f2c        0x8 examples/light_switch/provisioner/CMakeFiles/light_switch_provisioner_nrf52832_xxAA_s132_6.0.0.dir/__/__/__/mesh/access/src/device_state_manager.c.obj
 .text.flash_write_complete
                0x00035f34        0x8 examples/light_switch/provisioner/CMakeFiles/light_switch_provisioner_nrf52832_xxAA_s132_6.0.0.dir/__/__/__/mesh/access/src/device_state_manager.c.obj
 .text.add_address.part.8
                0x00035f3c      0x144 examples/light_switch/provisioner/CMakeFiles/light_switch_provisioner_nrf52832_xxAA_s132_6.0.0.dir/__/__/__/mesh/access/src/device_state_manager.c.obj
 .text.bitfield_next_get.part.0.constprop.17
                0x00036080       0x38 examples/light_switch/provisioner/CMakeFiles/light_switch_provisioner_nrf52832_xxAA_s132_6.0.0.dir/__/__/__/mesh/access/src/device_state_manager.c.obj
 .text.address_handle_valid
                0x000360b8       0x28 examples/light_switch/provisioner/CMakeFiles/light_switch_provisioner_nrf52832_xxAA_s132_6.0.0.dir/__/__/__/mesh/access/src/device_state_manager.c.obj
 .text.address_handle_nonvirtual_valid
                0x000360e0       0x14 examples/light_switch/provisioner/CMakeFiles/light_switch_provisioner_nrf52832_xxAA_s132_6.0.0.dir/__/__/__/mesh/access/src/device_state_manager.c.obj
 .text.address_delete_if_unused
                0x000360f4       0x78 examples/light_switch/provisioner/CMakeFiles/light_switch_provisioner_nrf52832_xxAA_s132_6.0.0.dir/__/__/__/mesh/access/src/device_state_manager.c.obj
 .text.addr_nonvirtual_to_dsm_entry
                0x0003616c       0x38 examples/light_switch/provisioner/CMakeFiles/light_switch_provisioner_nrf52832_xxAA_s132_6.0.0.dir/__/__/__/mesh/access/src/device_state_manager.c.obj
 .text.dsm_flash_config_load
                0x000361a4      0x120 examples/light_switch/provisioner/CMakeFiles/light_switch_provisioner_nrf52832_xxAA_s132_6.0.0.dir/__/__/__/mesh/access/src/device_state_manager.c.obj
                0x000361a4                dsm_flash_config_load
 .text.dsm_flash_area_get
                0x000362c4        0xc examples/light_switch/provisioner/CMakeFiles/light_switch_provisioner_nrf52832_xxAA_s132_6.0.0.dir/__/__/__/mesh/access/src/device_state_manager.c.obj
                0x000362c4                dsm_flash_area_get
 .text.build_flash_area
                0x000362d0       0x8c examples/light_switch/provisioner/CMakeFiles/light_switch_provisioner_nrf52832_xxAA_s132_6.0.0.dir/__/__/__/mesh/access/src/device_state_manager.c.obj
 .text.flash_remove_complete
                0x0003635c        0x4 examples/light_switch/provisioner/CMakeFiles/light_switch_provisioner_nrf52832_xxAA_s132_6.0.0.dir/__/__/__/mesh/access/src/device_state_manager.c.obj
 .text.dsm_clear
                0x00036360       0xa8 examples/light_switch/provisioner/CMakeFiles/light_switch_provisioner_nrf52832_xxAA_s132_6.0.0.dir/__/__/__/mesh/access/src/device_state_manager.c.obj
                0x00036360                dsm_clear
 .text.dsm_init
                0x00036408       0x3c examples/light_switch/provisioner/CMakeFiles/light_switch_provisioner_nrf52832_xxAA_s132_6.0.0.dir/__/__/__/mesh/access/src/device_state_manager.c.obj
                0x00036408                dsm_init
 .text.dsm_local_unicast_addresses_set
                0x00036444       0x78 examples/light_switch/provisioner/CMakeFiles/light_switch_provisioner_nrf52832_xxAA_s132_6.0.0.dir/__/__/__/mesh/access/src/device_state_manager.c.obj
                0x00036444                dsm_local_unicast_addresses_set
 .text.dsm_local_unicast_addresses_get
                0x000364bc       0x20 examples/light_switch/provisioner/CMakeFiles/light_switch_provisioner_nrf52832_xxAA_s132_6.0.0.dir/__/__/__/mesh/access/src/device_state_manager.c.obj
                0x000364bc                dsm_local_unicast_addresses_get
 .text.dsm_address_publish_add
                0x000364dc        0xc examples/light_switch/provisioner/CMakeFiles/light_switch_provisioner_nrf52832_xxAA_s132_6.0.0.dir/__/__/__/mesh/access/src/device_state_manager.c.obj
                0x000364dc                dsm_address_publish_add
 .text.dsm_address_publish_add_handle
                0x000364e8       0x38 examples/light_switch/provisioner/CMakeFiles/light_switch_provisioner_nrf52832_xxAA_s132_6.0.0.dir/__/__/__/mesh/access/src/device_state_manager.c.obj
                0x000364e8                dsm_address_publish_add_handle
 .text.dsm_address_publish_virtual_add
                0x00036520        0x6 examples/light_switch/provisioner/CMakeFiles/light_switch_provisioner_nrf52832_xxAA_s132_6.0.0.dir/__/__/__/mesh/access/src/device_state_manager.c.obj
                0x00036520                dsm_address_publish_virtual_add
 *fill*         0x00036526        0x2 
 .text.dsm_address_publish_remove
                0x00036528       0x44 examples/light_switch/provisioner/CMakeFiles/light_switch_provisioner_nrf52832_xxAA_s132_6.0.0.dir/__/__/__/mesh/access/src/device_state_manager.c.obj
                0x00036528                dsm_address_publish_remove
 .text.dsm_address_subscription_add
                0x0003656c        0xc examples/light_switch/provisioner/CMakeFiles/light_switch_provisioner_nrf52832_xxAA_s132_6.0.0.dir/__/__/__/mesh/access/src/device_state_manager.c.obj
                0x0003656c                dsm_address_subscription_add
 .text.dsm_address_subscription_virtual_add
                0x00036578        0x6 examples/light_switch/provisioner/CMakeFiles/light_switch_provisioner_nrf52832_xxAA_s132_6.0.0.dir/__/__/__/mesh/access/src/device_state_manager.c.obj
                0x00036578                dsm_address_subscription_virtual_add
 *fill*         0x0003657e        0x2 
 .text.dsm_address_subscription_add_handle
                0x00036580       0x38 examples/light_switch/provisioner/CMakeFiles/light_switch_provisioner_nrf52832_xxAA_s132_6.0.0.dir/__/__/__/mesh/access/src/device_state_manager.c.obj
                0x00036580                dsm_address_subscription_add_handle
 .text.dsm_address_subscription_get
                0x000365b8       0x34 examples/light_switch/provisioner/CMakeFiles/light_switch_provisioner_nrf52832_xxAA_s132_6.0.0.dir/__/__/__/mesh/access/src/device_state_manager.c.obj
                0x000365b8                dsm_address_subscription_get
 .text.dsm_address_get
                0x000365ec       0x5c examples/light_switch/provisioner/CMakeFiles/light_switch_provisioner_nrf52832_xxAA_s132_6.0.0.dir/__/__/__/mesh/access/src/device_state_manager.c.obj
                0x000365ec                dsm_address_get
 .text.dsm_address_subscription_remove
                0x00036648       0x5c examples/light_switch/provisioner/CMakeFiles/light_switch_provisioner_nrf52832_xxAA_s132_6.0.0.dir/__/__/__/mesh/access/src/device_state_manager.c.obj
                0x00036648                dsm_address_subscription_remove
 .text.dsm_address_handle_get
                0x000366a4       0x98 examples/light_switch/provisioner/CMakeFiles/light_switch_provisioner_nrf52832_xxAA_s132_6.0.0.dir/__/__/__/mesh/access/src/device_state_manager.c.obj
                0x000366a4                dsm_address_handle_get
 .text.dsm_net_key_index_to_subnet_handle
                0x0003673c       0x1c examples/light_switch/provisioner/CMakeFiles/light_switch_provisioner_nrf52832_xxAA_s132_6.0.0.dir/__/__/__/mesh/access/src/device_state_manager.c.obj
                0x0003673c                dsm_net_key_index_to_subnet_handle
 .text.dsm_subnet_handle_get
                0x00036758        0xc examples/light_switch/provisioner/CMakeFiles/light_switch_provisioner_nrf52832_xxAA_s132_6.0.0.dir/__/__/__/mesh/access/src/device_state_manager.c.obj
                0x00036758                dsm_subnet_handle_get
 .text.dsm_appkey_index_to_appkey_handle
                0x00036764       0x1c examples/light_switch/provisioner/CMakeFiles/light_switch_provisioner_nrf52832_xxAA_s132_6.0.0.dir/__/__/__/mesh/access/src/device_state_manager.c.obj
                0x00036764                dsm_appkey_index_to_appkey_handle
 .text.dsm_appkey_handle_get
                0x00036780        0xc examples/light_switch/provisioner/CMakeFiles/light_switch_provisioner_nrf52832_xxAA_s132_6.0.0.dir/__/__/__/mesh/access/src/device_state_manager.c.obj
                0x00036780                dsm_appkey_handle_get
 .text.dsm_appkey_handle_to_appkey_index
                0x0003678c       0x30 examples/light_switch/provisioner/CMakeFiles/light_switch_provisioner_nrf52832_xxAA_s132_6.0.0.dir/__/__/__/mesh/access/src/device_state_manager.c.obj
                0x0003678c                dsm_appkey_handle_to_appkey_index
 .text.dsm_appkey_handle_to_subnet_handle
                0x000367bc       0x98 examples/light_switch/provisioner/CMakeFiles/light_switch_provisioner_nrf52832_xxAA_s132_6.0.0.dir/__/__/__/mesh/access/src/device_state_manager.c.obj
                0x000367bc                dsm_appkey_handle_to_subnet_handle
 .text.dsm_subnet_add
                0x00036854       0x78 examples/light_switch/provisioner/CMakeFiles/light_switch_provisioner_nrf52832_xxAA_s132_6.0.0.dir/__/__/__/mesh/access/src/device_state_manager.c.obj
                0x00036854                dsm_subnet_add
 .text.dsm_subnet_kr_phase_get
                0x000368cc       0x2c examples/light_switch/provisioner/CMakeFiles/light_switch_provisioner_nrf52832_xxAA_s132_6.0.0.dir/__/__/__/mesh/access/src/device_state_manager.c.obj
                0x000368cc                dsm_subnet_kr_phase_get
 .text.dsm_subnet_update
                0x000368f8       0xa4 examples/light_switch/provisioner/CMakeFiles/light_switch_provisioner_nrf52832_xxAA_s132_6.0.0.dir/__/__/__/mesh/access/src/device_state_manager.c.obj
                0x000368f8                dsm_subnet_update
 .text.dsm_subnet_update_swap_keys
                0x0003699c       0x50 examples/light_switch/provisioner/CMakeFiles/light_switch_provisioner_nrf52832_xxAA_s132_6.0.0.dir/__/__/__/mesh/access/src/device_state_manager.c.obj
                0x0003699c                dsm_subnet_update_swap_keys
 .text.dsm_subnet_update_commit
                0x000369ec       0xbc examples/light_switch/provisioner/CMakeFiles/light_switch_provisioner_nrf52832_xxAA_s132_6.0.0.dir/__/__/__/mesh/access/src/device_state_manager.c.obj
                0x000369ec                dsm_subnet_update_commit
 .text.mesh_evt_handler
                0x00036aa8       0x4c examples/light_switch/provisioner/CMakeFiles/light_switch_provisioner_nrf52832_xxAA_s132_6.0.0.dir/__/__/__/mesh/access/src/device_state_manager.c.obj
 .text.dsm_subnet_get_all
                0x00036af4       0x3c examples/light_switch/provisioner/CMakeFiles/light_switch_provisioner_nrf52832_xxAA_s132_6.0.0.dir/__/__/__/mesh/access/src/device_state_manager.c.obj
                0x00036af4                dsm_subnet_get_all
 .text.dsm_devkey_add
                0x00036b30       0x78 examples/light_switch/provisioner/CMakeFiles/light_switch_provisioner_nrf52832_xxAA_s132_6.0.0.dir/__/__/__/mesh/access/src/device_state_manager.c.obj
                0x00036b30                dsm_devkey_add
 .text.dsm_devkey_handle_get
                0x00036ba8       0x34 examples/light_switch/provisioner/CMakeFiles/light_switch_provisioner_nrf52832_xxAA_s132_6.0.0.dir/__/__/__/mesh/access/src/device_state_manager.c.obj
                0x00036ba8                dsm_devkey_handle_get
 .text.dsm_appkey_add
                0x00036bdc       0x7c examples/light_switch/provisioner/CMakeFiles/light_switch_provisioner_nrf52832_xxAA_s132_6.0.0.dir/__/__/__/mesh/access/src/device_state_manager.c.obj
                0x00036bdc                dsm_appkey_add
 .text.dsm_appkey_update
                0x00036c58       0x90 examples/light_switch/provisioner/CMakeFiles/light_switch_provisioner_nrf52832_xxAA_s132_6.0.0.dir/__/__/__/mesh/access/src/device_state_manager.c.obj
                0x00036c58                dsm_appkey_update
 .text.dsm_appkey_delete
                0x00036ce8       0x2c examples/light_switch/provisioner/CMakeFiles/light_switch_provisioner_nrf52832_xxAA_s132_6.0.0.dir/__/__/__/mesh/access/src/device_state_manager.c.obj
                0x00036ce8                dsm_appkey_delete
 .text.dsm_subnet_delete
                0x00036d14       0x84 examples/light_switch/provisioner/CMakeFiles/light_switch_provisioner_nrf52832_xxAA_s132_6.0.0.dir/__/__/__/mesh/access/src/device_state_manager.c.obj
                0x00036d14                dsm_subnet_delete
 .text.dsm_appkey_get_all
                0x00036d98       0x58 examples/light_switch/provisioner/CMakeFiles/light_switch_provisioner_nrf52832_xxAA_s132_6.0.0.dir/__/__/__/mesh/access/src/device_state_manager.c.obj
                0x00036d98                dsm_appkey_get_all
 .text.dsm_tx_secmat_get
                0x00036df0       0xb8 examples/light_switch/provisioner/CMakeFiles/light_switch_provisioner_nrf52832_xxAA_s132_6.0.0.dir/__/__/__/mesh/access/src/device_state_manager.c.obj
                0x00036df0                dsm_tx_secmat_get
 .text.dsm_net_secmat_from_keyindex_get
                0x00036ea8       0x30 examples/light_switch/provisioner/CMakeFiles/light_switch_provisioner_nrf52832_xxAA_s132_6.0.0.dir/__/__/__/mesh/access/src/device_state_manager.c.obj
                0x00036ea8                dsm_net_secmat_from_keyindex_get
 .text.nrf_mesh_net_secmat_next_get
                0x00036ed8       0x90 examples/light_switch/provisioner/CMakeFiles/light_switch_provisioner_nrf52832_xxAA_s132_6.0.0.dir/__/__/__/mesh/access/src/device_state_manager.c.obj
                0x00036ed8                nrf_mesh_net_secmat_next_get
 .text.nrf_mesh_app_secmat_next_get
                0x00036f68       0x70 examples/light_switch/provisioner/CMakeFiles/light_switch_provisioner_nrf52832_xxAA_s132_6.0.0.dir/__/__/__/mesh/access/src/device_state_manager.c.obj
                0x00036f68                nrf_mesh_app_secmat_next_get
 .text.nrf_mesh_devkey_secmat_get
                0x00036fd8       0x38 examples/light_switch/provisioner/CMakeFiles/light_switch_provisioner_nrf52832_xxAA_s132_6.0.0.dir/__/__/__/mesh/access/src/device_state_manager.c.obj
                0x00036fd8                nrf_mesh_devkey_secmat_get
 .text.nrf_mesh_beacon_info_next_get
                0x00037010       0xb4 examples/light_switch/provisioner/CMakeFiles/light_switch_provisioner_nrf52832_xxAA_s132_6.0.0.dir/__/__/__/mesh/access/src/device_state_manager.c.obj
                0x00037010                nrf_mesh_beacon_info_next_get
 .text.nrf_mesh_rx_address_get
                0x000370c4       0xfc examples/light_switch/provisioner/CMakeFiles/light_switch_provisioner_nrf52832_xxAA_s132_6.0.0.dir/__/__/__/mesh/access/src/device_state_manager.c.obj
                0x000370c4                nrf_mesh_rx_address_get
 .text.nrf_mesh_unicast_address_get
                0x000371c0       0x20 examples/light_switch/provisioner/CMakeFiles/light_switch_provisioner_nrf52832_xxAA_s132_6.0.0.dir/__/__/__/mesh/access/src/device_state_manager.c.obj
                0x000371c0                nrf_mesh_unicast_address_get
 .text.prov_provisioner_cb_link_closed
                0x000371e0       0x2a examples/light_switch/provisioner/CMakeFiles/light_switch_provisioner_nrf52832_xxAA_s132_6.0.0.dir/__/__/__/mesh/prov/src/prov_provisioner.c.obj
 .text.prov_provisioner_cb_link_established
                0x0003720a       0x3e examples/light_switch/provisioner/CMakeFiles/light_switch_provisioner_nrf52832_xxAA_s132_6.0.0.dir/__/__/__/mesh/prov/src/prov_provisioner.c.obj
 .text.send_confirmation
                0x00037248       0x26 examples/light_switch/provisioner/CMakeFiles/light_switch_provisioner_nrf52832_xxAA_s132_6.0.0.dir/__/__/__/mesh/prov/src/prov_provisioner.c.obj
 .text.request_authentication
                0x0003726e       0x8a examples/light_switch/provisioner/CMakeFiles/light_switch_provisioner_nrf52832_xxAA_s132_6.0.0.dir/__/__/__/mesh/prov/src/prov_provisioner.c.obj
 .text.start_authentication
                0x000372f8       0x46 examples/light_switch/provisioner/CMakeFiles/light_switch_provisioner_nrf52832_xxAA_s132_6.0.0.dir/__/__/__/mesh/prov/src/prov_provisioner.c.obj
 .text.prov_provisioner_cb_ack_received
                0x0003733e       0x54 examples/light_switch/provisioner/CMakeFiles/light_switch_provisioner_nrf52832_xxAA_s132_6.0.0.dir/__/__/__/mesh/prov/src/prov_provisioner.c.obj
 *fill*         0x00037392        0x2 
 .text.prov_provisioner_pkt_in
                0x00037394      0x23c examples/light_switch/provisioner/CMakeFiles/light_switch_provisioner_nrf52832_xxAA_s132_6.0.0.dir/__/__/__/mesh/prov/src/prov_provisioner.c.obj
 .text.prov_provisioner_provision
                0x000375d0       0x44 examples/light_switch/provisioner/CMakeFiles/light_switch_provisioner_nrf52832_xxAA_s132_6.0.0.dir/__/__/__/mesh/prov/src/prov_provisioner.c.obj
                0x000375d0                prov_provisioner_provision
 .text.prov_provisioner_oob_use
                0x00037614       0x7e examples/light_switch/provisioner/CMakeFiles/light_switch_provisioner_nrf52832_xxAA_s132_6.0.0.dir/__/__/__/mesh/prov/src/prov_provisioner.c.obj
                0x00037614                prov_provisioner_oob_use
 .text.prov_provisioner_auth_data
                0x00037692       0x6c examples/light_switch/provisioner/CMakeFiles/light_switch_provisioner_nrf52832_xxAA_s132_6.0.0.dir/__/__/__/mesh/prov/src/prov_provisioner.c.obj
                0x00037692                prov_provisioner_auth_data
 .text.bearer_compare_callback
                0x000376fe        0xc examples/light_switch/provisioner/CMakeFiles/light_switch_provisioner_nrf52832_xxAA_s132_6.0.0.dir/__/__/__/mesh/prov/src/nrf_mesh_prov.c.obj
 .text.nrf_mesh_prov_init
                0x0003770a       0x32 examples/light_switch/provisioner/CMakeFiles/light_switch_provisioner_nrf52832_xxAA_s132_6.0.0.dir/__/__/__/mesh/prov/src/nrf_mesh_prov.c.obj
                0x0003770a                nrf_mesh_prov_init
 .text.nrf_mesh_prov_bearer_add
                0x0003773c       0x28 examples/light_switch/provisioner/CMakeFiles/light_switch_provisioner_nrf52832_xxAA_s132_6.0.0.dir/__/__/__/mesh/prov/src/nrf_mesh_prov.c.obj
                0x0003773c                nrf_mesh_prov_bearer_add
 .text.nrf_mesh_prov_generate_keys
                0x00037764        0x4 examples/light_switch/provisioner/CMakeFiles/light_switch_provisioner_nrf52832_xxAA_s132_6.0.0.dir/__/__/__/mesh/prov/src/nrf_mesh_prov.c.obj
                0x00037764                nrf_mesh_prov_generate_keys
 .text.nrf_mesh_prov_provision
                0x00037768       0x4e examples/light_switch/provisioner/CMakeFiles/light_switch_provisioner_nrf52832_xxAA_s132_6.0.0.dir/__/__/__/mesh/prov/src/nrf_mesh_prov.c.obj
                0x00037768                nrf_mesh_prov_provision
 .text.nrf_mesh_prov_oob_use
                0x000377b6       0x18 examples/light_switch/provisioner/CMakeFiles/light_switch_provisioner_nrf52832_xxAA_s132_6.0.0.dir/__/__/__/mesh/prov/src/nrf_mesh_prov.c.obj
                0x000377b6                nrf_mesh_prov_oob_use
 .text.nrf_mesh_prov_auth_data_provide
                0x000377ce        0xe examples/light_switch/provisioner/CMakeFiles/light_switch_provisioner_nrf52832_xxAA_s132_6.0.0.dir/__/__/__/mesh/prov/src/nrf_mesh_prov.c.obj
                0x000377ce                nrf_mesh_prov_auth_data_provide
 .text.nrf_mesh_prov_scan_start
                0x000377dc       0x10 examples/light_switch/provisioner/CMakeFiles/light_switch_provisioner_nrf52832_xxAA_s132_6.0.0.dir/__/__/__/mesh/prov/src/nrf_mesh_prov.c.obj
                0x000377dc                nrf_mesh_prov_scan_start
 .text.send_data
                0x000377ec       0x28 examples/light_switch/provisioner/CMakeFiles/light_switch_provisioner_nrf52832_xxAA_s132_6.0.0.dir/__/__/__/mesh/prov/src/provisioning.c.obj
 .text.prov_packet_length_valid
                0x00037814       0x1c examples/light_switch/provisioner/CMakeFiles/light_switch_provisioner_nrf52832_xxAA_s132_6.0.0.dir/__/__/__/mesh/prov/src/provisioning.c.obj
                0x00037814                prov_packet_length_valid
 .text.prov_tx_invite
                0x00037830       0x28 examples/light_switch/provisioner/CMakeFiles/light_switch_provisioner_nrf52832_xxAA_s132_6.0.0.dir/__/__/__/mesh/prov/src/provisioning.c.obj
                0x00037830                prov_tx_invite
 .text.prov_tx_start
                0x00037858       0x20 examples/light_switch/provisioner/CMakeFiles/light_switch_provisioner_nrf52832_xxAA_s132_6.0.0.dir/__/__/__/mesh/prov/src/provisioning.c.obj
                0x00037858                prov_tx_start
 .text.prov_tx_public_key
                0x00037878       0x26 examples/light_switch/provisioner/CMakeFiles/light_switch_provisioner_nrf52832_xxAA_s132_6.0.0.dir/__/__/__/mesh/prov/src/provisioning.c.obj
                0x00037878                prov_tx_public_key
 .text.prov_tx_confirmation
                0x0003789e       0x26 examples/light_switch/provisioner/CMakeFiles/light_switch_provisioner_nrf52832_xxAA_s132_6.0.0.dir/__/__/__/mesh/prov/src/provisioning.c.obj
                0x0003789e                prov_tx_confirmation
 .text.prov_tx_random
                0x000378c4       0x26 examples/light_switch/provisioner/CMakeFiles/light_switch_provisioner_nrf52832_xxAA_s132_6.0.0.dir/__/__/__/mesh/prov/src/provisioning.c.obj
                0x000378c4                prov_tx_random
 .text.prov_tx_data
                0x000378ea        0x6 examples/light_switch/provisioner/CMakeFiles/light_switch_provisioner_nrf52832_xxAA_s132_6.0.0.dir/__/__/__/mesh/prov/src/provisioning.c.obj
                0x000378ea                prov_tx_data
 .text.prov_beacon_unprov_build
                0x000378f0       0x54 examples/light_switch/provisioner/CMakeFiles/light_switch_provisioner_nrf52832_xxAA_s132_6.0.0.dir/__/__/__/mesh/prov/src/prov_beacon.c.obj
                0x000378f0                prov_beacon_unprov_build
 .text.prov_beacon_unprov_packet_in
                0x00037944       0x88 examples/light_switch/provisioner/CMakeFiles/light_switch_provisioner_nrf52832_xxAA_s132_6.0.0.dir/__/__/__/mesh/prov/src/prov_beacon.c.obj
                0x00037944                prov_beacon_unprov_packet_in
 .text.prov_beacon_scan_start
                0x000379cc       0x18 examples/light_switch/provisioner/CMakeFiles/light_switch_provisioner_nrf52832_xxAA_s132_6.0.0.dir/__/__/__/mesh/prov/src/prov_beacon.c.obj
                0x000379cc                prov_beacon_scan_start
 .text.oob_gen_alphanumeric
                0x000379e4       0x34 examples/light_switch/provisioner/CMakeFiles/light_switch_provisioner_nrf52832_xxAA_s132_6.0.0.dir/__/__/__/mesh/prov/src/prov_utils.c.obj
 .text.oob_gen_numeric
                0x00037a18       0x3c examples/light_switch/provisioner/CMakeFiles/light_switch_provisioner_nrf52832_xxAA_s132_6.0.0.dir/__/__/__/mesh/prov/src/prov_utils.c.obj
 .text.prov_utils_opt_set
                0x00037a54       0x20 examples/light_switch/provisioner/CMakeFiles/light_switch_provisioner_nrf52832_xxAA_s132_6.0.0.dir/__/__/__/mesh/prov/src/prov_utils.c.obj
                0x00037a54                prov_utils_opt_set
 .text.prov_utils_opt_get
                0x00037a74       0x1c examples/light_switch/provisioner/CMakeFiles/light_switch_provisioner_nrf52832_xxAA_s132_6.0.0.dir/__/__/__/mesh/prov/src/prov_utils.c.obj
                0x00037a74                prov_utils_opt_get
 .text.prov_utils_use_ecdh_offloading
                0x00037a90        0xc examples/light_switch/provisioner/CMakeFiles/light_switch_provisioner_nrf52832_xxAA_s132_6.0.0.dir/__/__/__/mesh/prov/src/prov_utils.c.obj
                0x00037a90                prov_utils_use_ecdh_offloading
 .text.prov_utils_authentication_values_derive
                0x00037a9c       0xa0 examples/light_switch/provisioner/CMakeFiles/light_switch_provisioner_nrf52832_xxAA_s132_6.0.0.dir/__/__/__/mesh/prov/src/prov_utils.c.obj
                0x00037a9c                prov_utils_authentication_values_derive
 .text.prov_utils_keys_generate
                0x00037b3c       0x1e examples/light_switch/provisioner/CMakeFiles/light_switch_provisioner_nrf52832_xxAA_s132_6.0.0.dir/__/__/__/mesh/prov/src/prov_utils.c.obj
                0x00037b3c                prov_utils_keys_generate
 *fill*         0x00037b5a        0x2 
 .text.prov_utils_derive_keys
                0x00037b5c       0xac examples/light_switch/provisioner/CMakeFiles/light_switch_provisioner_nrf52832_xxAA_s132_6.0.0.dir/__/__/__/mesh/prov/src/prov_utils.c.obj
                0x00037b5c                prov_utils_derive_keys
 .text.prov_utils_calculate_shared_secret
                0x00037c08       0x36 examples/light_switch/provisioner/CMakeFiles/light_switch_provisioner_nrf52832_xxAA_s132_6.0.0.dir/__/__/__/mesh/prov/src/prov_utils.c.obj
                0x00037c08                prov_utils_calculate_shared_secret
 .text.prov_utils_generate_oob_data
                0x00037c3e       0x8a examples/light_switch/provisioner/CMakeFiles/light_switch_provisioner_nrf52832_xxAA_s132_6.0.0.dir/__/__/__/mesh/prov/src/prov_utils.c.obj
                0x00037c3e                prov_utils_generate_oob_data
 .text.prov_utils_confirmation_check
                0x00037cc8       0x5c examples/light_switch/provisioner/CMakeFiles/light_switch_provisioner_nrf52832_xxAA_s132_6.0.0.dir/__/__/__/mesh/prov/src/prov_utils.c.obj
                0x00037cc8                prov_utils_confirmation_check
 .text.link_timeout_cb
                0x00037d24       0x10 examples/light_switch/provisioner/CMakeFiles/light_switch_provisioner_nrf52832_xxAA_s132_6.0.0.dir/__/__/__/mesh/prov/src/prov_bearer_adv.c.obj
 .text.remove_active_bearer
                0x00037d34       0x4c examples/light_switch/provisioner/CMakeFiles/light_switch_provisioner_nrf52832_xxAA_s132_6.0.0.dir/__/__/__/mesh/prov/src/prov_bearer_adv.c.obj
 .text.close_link
                0x00037d80       0x58 examples/light_switch/provisioner/CMakeFiles/light_switch_provisioner_nrf52832_xxAA_s132_6.0.0.dir/__/__/__/mesh/prov/src/prov_bearer_adv.c.obj
 .text.prov_bearer_adv_listen_stop
                0x00037dd8       0x30 examples/light_switch/provisioner/CMakeFiles/light_switch_provisioner_nrf52832_xxAA_s132_6.0.0.dir/__/__/__/mesh/prov/src/prov_bearer_adv.c.obj
 .text.send_packet
                0x00037e08       0x5e examples/light_switch/provisioner/CMakeFiles/light_switch_provisioner_nrf52832_xxAA_s132_6.0.0.dir/__/__/__/mesh/prov/src/prov_bearer_adv.c.obj
 .text.prov_buffer_tx
                0x00037e66      0x134 examples/light_switch/provisioner/CMakeFiles/light_switch_provisioner_nrf52832_xxAA_s132_6.0.0.dir/__/__/__/mesh/prov/src/prov_bearer_adv.c.obj
 .text.send_link_close
                0x00037f9a       0x38 examples/light_switch/provisioner/CMakeFiles/light_switch_provisioner_nrf52832_xxAA_s132_6.0.0.dir/__/__/__/mesh/prov/src/prov_bearer_adv.c.obj
 .text.prov_bearer_adv_link_close
                0x00037fd2       0x56 examples/light_switch/provisioner/CMakeFiles/light_switch_provisioner_nrf52832_xxAA_s132_6.0.0.dir/__/__/__/mesh/prov/src/prov_bearer_adv.c.obj
 .text.send_transaction_ack
                0x00038028       0x24 examples/light_switch/provisioner/CMakeFiles/light_switch_provisioner_nrf52832_xxAA_s132_6.0.0.dir/__/__/__/mesh/prov/src/prov_bearer_adv.c.obj
 .text.send_link_ack
                0x0003804c       0x32 examples/light_switch/provisioner/CMakeFiles/light_switch_provisioner_nrf52832_xxAA_s132_6.0.0.dir/__/__/__/mesh/prov/src/prov_bearer_adv.c.obj
 .text.reset_timeout_timer
                0x0003807e       0x1a examples/light_switch/provisioner/CMakeFiles/light_switch_provisioner_nrf52832_xxAA_s132_6.0.0.dir/__/__/__/mesh/prov/src/prov_bearer_adv.c.obj
 .text.tx_complete_cb
                0x00038098       0x1c examples/light_switch/provisioner/CMakeFiles/light_switch_provisioner_nrf52832_xxAA_s132_6.0.0.dir/__/__/__/mesh/prov/src/prov_bearer_adv.c.obj
 .text.tx_retry_cb
                0x000380b4       0xcc examples/light_switch/provisioner/CMakeFiles/light_switch_provisioner_nrf52832_xxAA_s132_6.0.0.dir/__/__/__/mesh/prov/src/prov_bearer_adv.c.obj
 .text.add_active_bearer
                0x00038180       0x80 examples/light_switch/provisioner/CMakeFiles/light_switch_provisioner_nrf52832_xxAA_s132_6.0.0.dir/__/__/__/mesh/prov/src/prov_bearer_adv.c.obj
 .text.prov_bearer_adv_link_open
                0x00038200       0xec examples/light_switch/provisioner/CMakeFiles/light_switch_provisioner_nrf52832_xxAA_s132_6.0.0.dir/__/__/__/mesh/prov/src/prov_bearer_adv.c.obj
 .text.async_process
                0x000382ec       0x50 examples/light_switch/provisioner/CMakeFiles/light_switch_provisioner_nrf52832_xxAA_s132_6.0.0.dir/__/__/__/mesh/prov/src/prov_bearer_adv.c.obj
 .text.prov_bearer_adv_listen
                0x0003833c       0xd8 examples/light_switch/provisioner/CMakeFiles/light_switch_provisioner_nrf52832_xxAA_s132_6.0.0.dir/__/__/__/mesh/prov/src/prov_bearer_adv.c.obj
 .text.calculate_3GPP_CRC
                0x00038414       0x24 examples/light_switch/provisioner/CMakeFiles/light_switch_provisioner_nrf52832_xxAA_s132_6.0.0.dir/__/__/__/mesh/prov/src/prov_bearer_adv.c.obj
                0x00038414                calculate_3GPP_CRC
 .text.prov_bearer_adv_tx
                0x00038438       0xb4 examples/light_switch/provisioner/CMakeFiles/light_switch_provisioner_nrf52832_xxAA_s132_6.0.0.dir/__/__/__/mesh/prov/src/prov_bearer_adv.c.obj
 .text.prov_buffer_rx
                0x000384ec       0x6e examples/light_switch/provisioner/CMakeFiles/light_switch_provisioner_nrf52832_xxAA_s132_6.0.0.dir/__/__/__/mesh/prov/src/prov_bearer_adv.c.obj
 *fill*         0x0003855a        0x2 
 .text.nrf_mesh_prov_bearer_adv_interface_get
                0x0003855c       0x3c examples/light_switch/provisioner/CMakeFiles/light_switch_provisioner_nrf52832_xxAA_s132_6.0.0.dir/__/__/__/mesh/prov/src/prov_bearer_adv.c.obj
                0x0003855c                nrf_mesh_prov_bearer_adv_interface_get
 .text.prov_bearer_adv_packet_in
                0x00038598      0x7f8 examples/light_switch/provisioner/CMakeFiles/light_switch_provisioner_nrf52832_xxAA_s132_6.0.0.dir/__/__/__/mesh/prov/src/prov_bearer_adv.c.obj
                0x00038598                prov_bearer_adv_packet_in
 .text.errata_57
                0x00038d90       0x34 examples/light_switch/provisioner/CMakeFiles/light_switch_provisioner_nrf52832_xxAA_s132_6.0.0.dir/C_/b/nRF5_SDK_15.0.0_a53641a/modules/nrfx/mdk/system_nrf52.c.obj
 .text.errata_136
                0x00038dc4       0x40 examples/light_switch/provisioner/CMakeFiles/light_switch_provisioner_nrf52832_xxAA_s132_6.0.0.dir/C_/b/nRF5_SDK_15.0.0_a53641a/modules/nrfx/mdk/system_nrf52.c.obj
 .text.SystemInit
                0x00038e04      0x264 examples/light_switch/provisioner/CMakeFiles/light_switch_provisioner_nrf52832_xxAA_s132_6.0.0.dir/C_/b/nRF5_SDK_15.0.0_a53641a/modules/nrfx/mdk/system_nrf52.c.obj
                0x00038e04                SystemInit
 .text          0x00039068       0x3c examples/light_switch/provisioner/CMakeFiles/light_switch_provisioner_nrf52832_xxAA_s132_6.0.0.dir/C_/b/nRF5_SDK_15.0.0_a53641a/modules/nrfx/mdk/gcc_startup_nrf52.S.obj
                0x00039068                Reset_Handler
                0x00039090                NMI_Handler
                0x00039092                HardFault_Handler
                0x00039094                MemoryManagement_Handler
                0x00039096                BusFault_Handler
                0x00039098                UsageFault_Handler
                0x0003909a                SVC_Handler
                0x0003909c                DebugMon_Handler
                0x0003909e                PendSV_Handler
                0x000390a0                SysTick_Handler
                0x000390a2                PDM_IRQHandler
                0x000390a2                TEMP_IRQHandler
                0x000390a2                TIMER3_IRQHandler
                0x000390a2                FPU_IRQHandler
                0x000390a2                SPIM0_SPIS0_TWIM0_TWIS0_SPI0_TWI0_IRQHandler
                0x000390a2                RADIO_IRQHandler
                0x000390a2                UARTE0_UART0_IRQHandler
                0x000390a2                TIMER4_IRQHandler
                0x000390a2                I2S_IRQHandler
                0x000390a2                SWI4_EGU4_IRQHandler
                0x000390a2                TIMER0_IRQHandler
                0x000390a2                RTC0_IRQHandler
                0x000390a2                TIMER1_IRQHandler
                0x000390a2                POWER_CLOCK_IRQHandler
                0x000390a2                ECB_IRQHandler
                0x000390a2                SPIM1_SPIS1_TWIM1_TWIS1_SPI1_TWI1_IRQHandler
                0x000390a2                Default_Handler
                0x000390a2                SAADC_IRQHandler
                0x000390a2                CCM_AAR_IRQHandler
                0x000390a2                WDT_IRQHandler
                0x000390a2                SWI0_EGU0_IRQHandler
                0x000390a2                SWI5_EGU5_IRQHandler
                0x000390a2                RNG_IRQHandler
                0x000390a2                RTC2_IRQHandler
                0x000390a2                PWM0_IRQHandler
                0x000390a2                SWI3_EGU3_IRQHandler
                0x000390a2                RTC1_IRQHandler
                0x000390a2                SWI1_EGU1_IRQHandler
                0x000390a2                SPIM2_SPIS2_SPI2_IRQHandler
                0x000390a2                NFCT_IRQHandler
                0x000390a2                PWM1_IRQHandler
                0x000390a2                MWU_IRQHandler
                0x000390a2                PWM2_IRQHandler
                0x000390a2                COMP_LPCOMP_IRQHandler
 .text.app_error_handler
                0x000390a4       0x1a examples/light_switch/provisioner/CMakeFiles/light_switch_provisioner_nrf52832_xxAA_s132_6.0.0.dir/C_/b/nRF5_SDK_15.0.0_a53641a/components/libraries/util/app_error_handler_gcc.c.obj
                0x000390a4                app_error_handler
 .text._GetAvailWriteSpace
                0x000390be       0x1c external/rtt/librtt_nrf52832_xxAA.a(SEGGER_RTT.c.obj)
 .text._WriteNoCheck
                0x000390da       0x3c external/rtt/librtt_nrf52832_xxAA.a(SEGGER_RTT.c.obj)
 .text._WriteBlocking
                0x00039116       0x52 external/rtt/librtt_nrf52832_xxAA.a(SEGGER_RTT.c.obj)
 .text._DoInit  0x00039168       0x60 external/rtt/librtt_nrf52832_xxAA.a(SEGGER_RTT.c.obj)
 .text.SEGGER_RTT_ReadNoLock
                0x000391c8       0x88 external/rtt/librtt_nrf52832_xxAA.a(SEGGER_RTT.c.obj)
                0x000391c8                SEGGER_RTT_ReadNoLock
 .text.SEGGER_RTT_Read
                0x00039250       0x1c external/rtt/librtt_nrf52832_xxAA.a(SEGGER_RTT.c.obj)
                0x00039250                SEGGER_RTT_Read
 .text.SEGGER_RTT_WriteNoLock
                0x0003926c       0x68 external/rtt/librtt_nrf52832_xxAA.a(SEGGER_RTT.c.obj)
                0x0003926c                SEGGER_RTT_WriteNoLock
 .text.SEGGER_RTT_Write
                0x000392d4       0x34 external/rtt/librtt_nrf52832_xxAA.a(SEGGER_RTT.c.obj)
                0x000392d4                SEGGER_RTT_Write
 .text.SEGGER_RTT_GetKey
                0x00039308       0x20 external/rtt/librtt_nrf52832_xxAA.a(SEGGER_RTT.c.obj)
                0x00039308                SEGGER_RTT_GetKey
 .text._StoreChar
                0x00039328       0x3e external/rtt/librtt_nrf52832_xxAA.a(SEGGER_RTT_printf.c.obj)
 *fill*         0x00039366        0x2 
 .text._PrintUnsigned
                0x00039368       0xd0 external/rtt/librtt_nrf52832_xxAA.a(SEGGER_RTT_printf.c.obj)
 .text.SEGGER_RTT_vprintf
                0x00039438      0x246 external/rtt/librtt_nrf52832_xxAA.a(SEGGER_RTT_printf.c.obj)
                0x00039438                SEGGER_RTT_vprintf
 .text.SEGGER_RTT_printf
                0x0003967e       0x1e external/rtt/librtt_nrf52832_xxAA.a(SEGGER_RTT_printf.c.obj)
                0x0003967e                SEGGER_RTT_printf
 .text.uECC_vli_mult
                0x0003969c       0x64 external/micro-ecc/libuECC_nrf52832_xxAA.a(uECC.c.obj)
 .text.uECC_vli_clear
                0x00039700       0x16 external/micro-ecc/libuECC_nrf52832_xxAA.a(uECC.c.obj)
 .text.uECC_vli_isZero
                0x00039716       0x1e external/micro-ecc/libuECC_nrf52832_xxAA.a(uECC.c.obj)
 .text.uECC_vli_testBit
                0x00039734       0x14 external/micro-ecc/libuECC_nrf52832_xxAA.a(uECC.c.obj)
 .text.uECC_vli_numBits
                0x00039748       0x3a external/micro-ecc/libuECC_nrf52832_xxAA.a(uECC.c.obj)
 .text.uECC_vli_set
                0x00039782       0x18 external/micro-ecc/libuECC_nrf52832_xxAA.a(uECC.c.obj)
 .text.uECC_vli_cmp_unsafe
                0x0003979a       0x28 external/micro-ecc/libuECC_nrf52832_xxAA.a(uECC.c.obj)
 .text.uECC_vli_rshift1
                0x000397c2       0x1c external/micro-ecc/libuECC_nrf52832_xxAA.a(uECC.c.obj)
 .text.uECC_vli_modMult_fast
                0x000397de       0x20 external/micro-ecc/libuECC_nrf52832_xxAA.a(uECC.c.obj)
 .text.uECC_vli_modSquare_fast
                0x000397fe        0x8 external/micro-ecc/libuECC_nrf52832_xxAA.a(uECC.c.obj)
 .text.apply_z  0x00039806       0x3e external/micro-ecc/libuECC_nrf52832_xxAA.a(uECC.c.obj)
 .text.uECC_vli_nativeToBytes
                0x00039844       0x28 external/micro-ecc/libuECC_nrf52832_xxAA.a(uECC.c.obj)
 .text.uECC_vli_bytesToNative
                0x0003986c       0x40 external/micro-ecc/libuECC_nrf52832_xxAA.a(uECC.c.obj)
 .text.default_RNG
                0x000398ac        0xc external/micro-ecc/libuECC_nrf52832_xxAA.a(uECC.c.obj)
 .text.uECC_vli_add.isra.0
                0x000398b8       0x4a external/micro-ecc/libuECC_nrf52832_xxAA.a(uECC.c.obj)
 .text.regularize_k
                0x00039902       0x50 external/micro-ecc/libuECC_nrf52832_xxAA.a(uECC.c.obj)
 .text.uECC_vli_sub.isra.1
                0x00039952       0x4e external/micro-ecc/libuECC_nrf52832_xxAA.a(uECC.c.obj)
 .text.uECC_vli_cmp
                0x000399a0       0x30 external/micro-ecc/libuECC_nrf52832_xxAA.a(uECC.c.obj)
 .text.uECC_generate_random_int
                0x000399d0       0x78 external/micro-ecc/libuECC_nrf52832_xxAA.a(uECC.c.obj)
 .text.uECC_vli_modAdd
                0x00039a48       0x2e external/micro-ecc/libuECC_nrf52832_xxAA.a(uECC.c.obj)
 *fill*         0x00039a76        0x2 
 .text.vli_mmod_fast_secp256r1
                0x00039a78      0x194 external/micro-ecc/libuECC_nrf52832_xxAA.a(uECC.c.obj)
 .text.uECC_vli_modSub.isra.2
                0x00039c0c       0x1c external/micro-ecc/libuECC_nrf52832_xxAA.a(uECC.c.obj)
 .text.double_jacobian_default
                0x00039c28      0x14a external/micro-ecc/libuECC_nrf52832_xxAA.a(uECC.c.obj)
 .text.x_side_default
                0x00039d72       0x5a external/micro-ecc/libuECC_nrf52832_xxAA.a(uECC.c.obj)
 .text.XYcZ_add
                0x00039dcc       0xbc external/micro-ecc/libuECC_nrf52832_xxAA.a(uECC.c.obj)
 .text.XYcZ_addC
                0x00039e88      0x10a external/micro-ecc/libuECC_nrf52832_xxAA.a(uECC.c.obj)
 .text.vli_modInv_update
                0x00039f92       0x36 external/micro-ecc/libuECC_nrf52832_xxAA.a(uECC.c.obj)
 .text.uECC_vli_modInv
                0x00039fc8      0x102 external/micro-ecc/libuECC_nrf52832_xxAA.a(uECC.c.obj)
 .text.EccPoint_mult
                0x0003a0ca      0x19e external/micro-ecc/libuECC_nrf52832_xxAA.a(uECC.c.obj)
 .text.EccPoint_compute_public_key
                0x0003a268       0x54 external/micro-ecc/libuECC_nrf52832_xxAA.a(uECC.c.obj)
 .text.uECC_secp256r1
                0x0003a2bc        0x8 external/micro-ecc/libuECC_nrf52832_xxAA.a(uECC.c.obj)
                0x0003a2bc                uECC_secp256r1
 .text.uECC_make_key
                0x0003a2c4       0x7e external/micro-ecc/libuECC_nrf52832_xxAA.a(uECC.c.obj)
                0x0003a2c4                uECC_make_key
 *fill*         0x0003a342        0x2 
 .text.uECC_shared_secret
                0x0003a344       0xbc external/micro-ecc/libuECC_nrf52832_xxAA.a(uECC.c.obj)
                0x0003a344                uECC_shared_secret
 .text.uECC_valid_point
                0x0003a400       0x86 external/micro-ecc/libuECC_nrf52832_xxAA.a(uECC.c.obj)
                0x0003a400                uECC_valid_point
 .text.uECC_valid_public_key
                0x0003a486       0x32 external/micro-ecc/libuECC_nrf52832_xxAA.a(uECC.c.obj)
                0x0003a486                uECC_valid_public_key
 .text          0x0003a4b8       0x30 c:/mesh/arm_gcc/bin/../lib/gcc/arm-none-eabi/6.3.1/thumb/v7e-m/fpv4-sp/hard\libgcc.a(_aeabi_uldivmod.o)
                0x0003a4b8                __aeabi_uldivmod
 .text          0x0003a4e8      0x2dc c:/mesh/arm_gcc/bin/../lib/gcc/arm-none-eabi/6.3.1/thumb/v7e-m/fpv4-sp/hard\libgcc.a(_udivmoddi4.o)
                0x0003a4e8                __udivmoddi4
 .text          0x0003a7c4        0x4 c:/mesh/arm_gcc/bin/../lib/gcc/arm-none-eabi/6.3.1/thumb/v7e-m/fpv4-sp/hard\libgcc.a(_dvmd_tls.o)
                0x0003a7c4                __aeabi_idiv0
                0x0003a7c4                __aeabi_ldiv0
 .text.exit     0x0003a7c8       0x28 c:/mesh/arm_gcc/bin/../lib/gcc/arm-none-eabi/6.3.1/../../../../arm-none-eabi/lib/thumb/v7e-m/fpv4-sp/hard\libg_nano.a(lib_a-exit.o)
                0x0003a7c8                exit
 .text.__libc_init_array
                0x0003a7f0       0x48 c:/mesh/arm_gcc/bin/../lib/gcc/arm-none-eabi/6.3.1/../../../../arm-none-eabi/lib/thumb/v7e-m/fpv4-sp/hard\libg_nano.a(lib_a-init.o)
                0x0003a7f0                __libc_init_array
 .text.malloc   0x0003a838       0x10 c:/mesh/arm_gcc/bin/../lib/gcc/arm-none-eabi/6.3.1/../../../../arm-none-eabi/lib/thumb/v7e-m/fpv4-sp/hard\libg_nano.a(lib_a-malloc.o)
                0x0003a838                malloc
 .text.free     0x0003a848       0x10 c:/mesh/arm_gcc/bin/../lib/gcc/arm-none-eabi/6.3.1/../../../../arm-none-eabi/lib/thumb/v7e-m/fpv4-sp/hard\libg_nano.a(lib_a-malloc.o)
                0x0003a848                free
 .text.memcmp   0x0003a858       0x1e c:/mesh/arm_gcc/bin/../lib/gcc/arm-none-eabi/6.3.1/../../../../arm-none-eabi/lib/thumb/v7e-m/fpv4-sp/hard\libg_nano.a(lib_a-memcmp.o)
                0x0003a858                memcmp
 .text.memcpy   0x0003a876       0x16 c:/mesh/arm_gcc/bin/../lib/gcc/arm-none-eabi/6.3.1/../../../../arm-none-eabi/lib/thumb/v7e-m/fpv4-sp/hard\libg_nano.a(lib_a-memcpy-stub.o)
                0x0003a876                memcpy
 .text.memset   0x0003a88c       0x10 c:/mesh/arm_gcc/bin/../lib/gcc/arm-none-eabi/6.3.1/../../../../arm-none-eabi/lib/thumb/v7e-m/fpv4-sp/hard\libg_nano.a(lib_a-memset.o)
                0x0003a88c                memset
 .text._free_r  0x0003a89c       0x9c c:/mesh/arm_gcc/bin/../lib/gcc/arm-none-eabi/6.3.1/../../../../arm-none-eabi/lib/thumb/v7e-m/fpv4-sp/hard\libg_nano.a(lib_a-nano-freer.o)
                0x0003a89c                _free_r
 .text._malloc_r
                0x0003a938       0xbc c:/mesh/arm_gcc/bin/../lib/gcc/arm-none-eabi/6.3.1/../../../../arm-none-eabi/lib/thumb/v7e-m/fpv4-sp/hard\libg_nano.a(lib_a-nano-mallocr.o)
                0x0003a938                _malloc_r
 .text._sbrk_r  0x0003a9f4       0x20 c:/mesh/arm_gcc/bin/../lib/gcc/arm-none-eabi/6.3.1/../../../../arm-none-eabi/lib/thumb/v7e-m/fpv4-sp/hard\libg_nano.a(lib_a-sbrkr.o)
                0x0003a9f4                _sbrk_r
 .text.strcpy   0x0003aa14       0x10 c:/mesh/arm_gcc/bin/../lib/gcc/arm-none-eabi/6.3.1/../../../../arm-none-eabi/lib/thumb/v7e-m/fpv4-sp/hard\libg_nano.a(lib_a-strcpy.o)
                0x0003aa14                strcpy
 .text          0x0003aa24       0x10 c:/mesh/arm_gcc/bin/../lib/gcc/arm-none-eabi/6.3.1/../../../../arm-none-eabi/lib/thumb/v7e-m/fpv4-sp/hard\libg_nano.a(lib_a-strlen.o)
                0x0003aa24                strlen
 .text.strrchr  0x0003aa34       0x26 c:/mesh/arm_gcc/bin/../lib/gcc/arm-none-eabi/6.3.1/../../../../arm-none-eabi/lib/thumb/v7e-m/fpv4-sp/hard\libg_nano.a(lib_a-strrchr.o)
                0x0003aa34                strrchr
 .text.__malloc_lock
                0x0003aa5a        0x2 c:/mesh/arm_gcc/bin/../lib/gcc/arm-none-eabi/6.3.1/../../../../arm-none-eabi/lib/thumb/v7e-m/fpv4-sp/hard\libg_nano.a(lib_a-mlock.o)
                0x0003aa5a                __malloc_lock
 .text.__malloc_unlock
                0x0003aa5c        0x2 c:/mesh/arm_gcc/bin/../lib/gcc/arm-none-eabi/6.3.1/../../../../arm-none-eabi/lib/thumb/v7e-m/fpv4-sp/hard\libg_nano.a(lib_a-mlock.o)
                0x0003aa5c                __malloc_unlock
 .text.strchr   0x0003aa5e       0x1c c:/mesh/arm_gcc/bin/../lib/gcc/arm-none-eabi/6.3.1/../../../../arm-none-eabi/lib/thumb/v7e-m/fpv4-sp/hard\libg_nano.a(lib_a-strchr.o)
                0x0003aa5e                strchr
 *fill*         0x0003aa7a        0x2 
 .text._sbrk    0x0003aa7c       0x1c c:/mesh/arm_gcc/bin/../lib/gcc/arm-none-eabi/6.3.1/../../../../arm-none-eabi/lib/thumb/v7e-m/fpv4-sp/hard\libnosys.a(sbrk.o)
                0x0003aa7c                _sbrk
 .text._exit    0x0003aa98        0x4 c:/mesh/arm_gcc/bin/../lib/gcc/arm-none-eabi/6.3.1/../../../../arm-none-eabi/lib/thumb/v7e-m/fpv4-sp/hard\libnosys.a(_exit.o)
                0x0003aa98                _exit
 *(.init)
 .init          0x0003aa9c        0x4 c:/mesh/arm_gcc/bin/../lib/gcc/arm-none-eabi/6.3.1/thumb/v7e-m/fpv4-sp/hard/crti.o
                0x0003aa9c                _init
 .init          0x0003aaa0        0x8 c:/mesh/arm_gcc/bin/../lib/gcc/arm-none-eabi/6.3.1/thumb/v7e-m/fpv4-sp/hard/crtn.o
 *(.fini)
 .fini          0x0003aaa8        0x4 c:/mesh/arm_gcc/bin/../lib/gcc/arm-none-eabi/6.3.1/thumb/v7e-m/fpv4-sp/hard/crti.o
                0x0003aaa8                _fini
 .fini          0x0003aaac        0x8 c:/mesh/arm_gcc/bin/../lib/gcc/arm-none-eabi/6.3.1/thumb/v7e-m/fpv4-sp/hard/crtn.o
 *crtbegin.o(.ctors)
 *crtbegin?.o(.ctors)
 *(EXCLUDE_FILE(*crtend.o *crtend?.o) .ctors)
 *(SORT(.ctors.*))
 *(.ctors)
 *crtbegin.o(.dtors)
 *crtbegin?.o(.dtors)
 *(EXCLUDE_FILE(*crtend.o *crtend?.o) .dtors)
 *(SORT(.dtors.*))
 *(.dtors)
 *(.rodata*)
 .rodata        0x0003aab4       0x18 examples/light_switch/provisioner/CMakeFiles/light_switch_provisioner_nrf52832_xxAA_s132_6.0.0.dir/src/main.c.obj
 .rodata.app_config_client_event_cb.str1.1
                0x0003aacc       0x15 examples/light_switch/provisioner/CMakeFiles/light_switch_provisioner_nrf52832_xxAA_s132_6.0.0.dir/src/main.c.obj
 .rodata.app_config_failed_cb.str1.1
                0x0003aae1       0x3d examples/light_switch/provisioner/CMakeFiles/light_switch_provisioner_nrf52832_xxAA_s132_6.0.0.dir/src/main.c.obj
 .rodata.app_config_server_event_cb.str1.1
                0x0003ab1e       0x19 examples/light_switch/provisioner/CMakeFiles/light_switch_provisioner_nrf52832_xxAA_s132_6.0.0.dir/src/main.c.obj
 .rodata.app_config_successful_cb.str1.1
                0x0003ab37       0x40 examples/light_switch/provisioner/CMakeFiles/light_switch_provisioner_nrf52832_xxAA_s132_6.0.0.dir/src/main.c.obj
 .rodata.app_flash_manager_add.str1.1
                0x0003ab77       0x2a examples/light_switch/provisioner/CMakeFiles/light_switch_provisioner_nrf52832_xxAA_s132_6.0.0.dir/src/main.c.obj
 .rodata.app_health_event_cb.str1.1
                0x0003aba1       0x35 examples/light_switch/provisioner/CMakeFiles/light_switch_provisioner_nrf52832_xxAA_s132_6.0.0.dir/src/main.c.obj
 .rodata.app_mesh_core_event_cb.str1.1
                0x0003abd6       0xf4 examples/light_switch/provisioner/CMakeFiles/light_switch_provisioner_nrf52832_xxAA_s132_6.0.0.dir/src/main.c.obj
 .rodata.app_prov_failed_cb.str1.1
                0x0003acca       0x2f examples/light_switch/provisioner/CMakeFiles/light_switch_provisioner_nrf52832_xxAA_s132_6.0.0.dir/src/main.c.obj
 .rodata.app_prov_success_cb.str1.1
                0x0003acf9       0x19 examples/light_switch/provisioner/CMakeFiles/light_switch_provisioner_nrf52832_xxAA_s132_6.0.0.dir/src/main.c.obj
 .rodata.button_event_handler.str1.1
                0x0003ad12      0x125 examples/light_switch/provisioner/CMakeFiles/light_switch_provisioner_nrf52832_xxAA_s132_6.0.0.dir/src/main.c.obj
 .rodata.flash_invalidate_complete.str1.1
                0x0003ae37       0x30 examples/light_switch/provisioner/CMakeFiles/light_switch_provisioner_nrf52832_xxAA_s132_6.0.0.dir/src/main.c.obj
 .rodata.flash_remove_complete.str1.1
                0x0003ae67       0x17 examples/light_switch/provisioner/CMakeFiles/light_switch_provisioner_nrf52832_xxAA_s132_6.0.0.dir/src/main.c.obj
 .rodata.flash_write_complete.str1.1
                0x0003ae7e       0x16 examples/light_switch/provisioner/CMakeFiles/light_switch_provisioner_nrf52832_xxAA_s132_6.0.0.dir/src/main.c.obj
 .rodata.m_client_node_uuid
                0x0003ae94       0x10 examples/light_switch/provisioner/CMakeFiles/light_switch_provisioner_nrf52832_xxAA_s132_6.0.0.dir/src/main.c.obj
 .rodata.m_server_uuid_filter
                0x0003aea4        0x4 examples/light_switch/provisioner/CMakeFiles/light_switch_provisioner_nrf52832_xxAA_s132_6.0.0.dir/src/main.c.obj
 .rodata.main.str1.1
                0x0003aea8       0x9d examples/light_switch/provisioner/CMakeFiles/light_switch_provisioner_nrf52832_xxAA_s132_6.0.0.dir/src/main.c.obj
 .rodata.models_init_cb.str1.1
                0x0003af45       0x20 examples/light_switch/provisioner/CMakeFiles/light_switch_provisioner_nrf52832_xxAA_s132_6.0.0.dir/src/main.c.obj
 *fill*         0x0003af65        0x1 
 .rodata        0x0003af66       0x20 examples/light_switch/provisioner/CMakeFiles/light_switch_provisioner_nrf52832_xxAA_s132_6.0.0.dir/src/provisioner_helper.c.obj
 .rodata.prov_evt_handler.str1.1
                0x0003af86      0x2c7 examples/light_switch/provisioner/CMakeFiles/light_switch_provisioner_nrf52832_xxAA_s132_6.0.0.dir/src/provisioner_helper.c.obj
                                0x2cf (size before relaxing)
 .rodata.prov_helper_device_handles_load.str1.1
                0x0003b24d       0x3f examples/light_switch/provisioner/CMakeFiles/light_switch_provisioner_nrf52832_xxAA_s132_6.0.0.dir/src/provisioner_helper.c.obj
 .rodata.prov_helper_provision_self.str1.1
                0x0003b28c       0x13 examples/light_switch/provisioner/CMakeFiles/light_switch_provisioner_nrf52832_xxAA_s132_6.0.0.dir/src/provisioner_helper.c.obj
 .rodata.prov_helper_scan_start.str1.1
                0x0003b29f       0x24 examples/light_switch/provisioner/CMakeFiles/light_switch_provisioner_nrf52832_xxAA_s132_6.0.0.dir/src/provisioner_helper.c.obj
 .rodata.client_config_steps
                0x0003b2c3        0xd examples/light_switch/provisioner/CMakeFiles/light_switch_provisioner_nrf52832_xxAA_s132_6.0.0.dir/src/node_setup.c.obj
 .rodata.client_pub_state_set.str1.1
                0x0003b2d0       0x64 examples/light_switch/provisioner/CMakeFiles/light_switch_provisioner_nrf52832_xxAA_s132_6.0.0.dir/src/node_setup.c.obj
 .rodata.config_step_execute.str1.1
                0x0003b334      0x117 examples/light_switch/provisioner/CMakeFiles/light_switch_provisioner_nrf52832_xxAA_s132_6.0.0.dir/src/node_setup.c.obj
 .rodata.exp_status.11295
                0x0003b44b        0x2 examples/light_switch/provisioner/CMakeFiles/light_switch_provisioner_nrf52832_xxAA_s132_6.0.0.dir/src/node_setup.c.obj
 .rodata.exp_status.11299
                0x0003b44d        0x1 examples/light_switch/provisioner/CMakeFiles/light_switch_provisioner_nrf52832_xxAA_s132_6.0.0.dir/src/node_setup.c.obj
 .rodata.exp_status.11303
                0x0003b44e        0x1 examples/light_switch/provisioner/CMakeFiles/light_switch_provisioner_nrf52832_xxAA_s132_6.0.0.dir/src/node_setup.c.obj
 .rodata.exp_status.11307
                0x0003b44f        0x1 examples/light_switch/provisioner/CMakeFiles/light_switch_provisioner_nrf52832_xxAA_s132_6.0.0.dir/src/node_setup.c.obj
 .rodata.exp_status.11310
                0x0003b450        0x1 examples/light_switch/provisioner/CMakeFiles/light_switch_provisioner_nrf52832_xxAA_s132_6.0.0.dir/src/node_setup.c.obj
 .rodata.exp_status.11313
                0x0003b451        0x1 examples/light_switch/provisioner/CMakeFiles/light_switch_provisioner_nrf52832_xxAA_s132_6.0.0.dir/src/node_setup.c.obj
 .rodata.exp_status.11318
                0x0003b452        0x1 examples/light_switch/provisioner/CMakeFiles/light_switch_provisioner_nrf52832_xxAA_s132_6.0.0.dir/src/node_setup.c.obj
 .rodata.exp_status.11321
                0x0003b453        0x1 examples/light_switch/provisioner/CMakeFiles/light_switch_provisioner_nrf52832_xxAA_s132_6.0.0.dir/src/node_setup.c.obj
 .rodata.exp_status.11324
                0x0003b454        0x1 examples/light_switch/provisioner/CMakeFiles/light_switch_provisioner_nrf52832_xxAA_s132_6.0.0.dir/src/node_setup.c.obj
 .rodata.exp_status.11327
                0x0003b455        0x1 examples/light_switch/provisioner/CMakeFiles/light_switch_provisioner_nrf52832_xxAA_s132_6.0.0.dir/src/node_setup.c.obj
 .rodata.exp_status.11330
                0x0003b456        0x1 examples/light_switch/provisioner/CMakeFiles/light_switch_provisioner_nrf52832_xxAA_s132_6.0.0.dir/src/node_setup.c.obj
 .rodata.m_idle_step
                0x0003b457        0x1 examples/light_switch/provisioner/CMakeFiles/light_switch_provisioner_nrf52832_xxAA_s132_6.0.0.dir/src/node_setup.c.obj
 .rodata.node_setup_config_client_event_process.str1.1
                0x0003b458       0x9a examples/light_switch/provisioner/CMakeFiles/light_switch_provisioner_nrf52832_xxAA_s132_6.0.0.dir/src/node_setup.c.obj
 .rodata.node_setup_start.str1.1
                0x0003b4f2       0x84 examples/light_switch/provisioner/CMakeFiles/light_switch_provisioner_nrf52832_xxAA_s132_6.0.0.dir/src/node_setup.c.obj
 .rodata.retry_on_fail.str1.1
                0x0003b576       0x1b examples/light_switch/provisioner/CMakeFiles/light_switch_provisioner_nrf52832_xxAA_s132_6.0.0.dir/src/node_setup.c.obj
 .rodata.server1_server2_config_steps
                0x0003b591        0x8 examples/light_switch/provisioner/CMakeFiles/light_switch_provisioner_nrf52832_xxAA_s132_6.0.0.dir/src/node_setup.c.obj
 .rodata.server_config_steps
                0x0003b599        0x7 examples/light_switch/provisioner/CMakeFiles/light_switch_provisioner_nrf52832_xxAA_s132_6.0.0.dir/src/node_setup.c.obj
 .rodata.mesh_softdevice_init.str1.1
                0x0003b5a0       0xa4 examples/light_switch/provisioner/CMakeFiles/light_switch_provisioner_nrf52832_xxAA_s132_6.0.0.dir/__/__/common/src/mesh_softdevice_init.c.obj
 *fill*         0x0003b644        0xc 
 .rodata.delay_bytecode.8414
                0x0003b650        0x6 examples/light_switch/provisioner/CMakeFiles/light_switch_provisioner_nrf52832_xxAA_s132_6.0.0.dir/__/__/common/src/simple_hal.c.obj
 .rodata.m_buttons_list
                0x0003b656        0x4 examples/light_switch/provisioner/CMakeFiles/light_switch_provisioner_nrf52832_xxAA_s132_6.0.0.dir/__/__/common/src/simple_hal.c.obj
 .rodata.app_error_fault_handler.str1.1
                0x0003b65a       0xbd examples/light_switch/provisioner/CMakeFiles/light_switch_provisioner_nrf52832_xxAA_s132_6.0.0.dir/__/__/common/src/app_error_weak.c.obj
 .rodata.mesh_assertion_handler.str1.1
                0x0003b717       0xbd examples/light_switch/provisioner/CMakeFiles/light_switch_provisioner_nrf52832_xxAA_s132_6.0.0.dir/__/__/common/src/assertion_handler_weak.c.obj
                                  0x1 (size before relaxing)
 .rodata.sar_ctx_cancel.str1.1
                0x0003b717       0x23 examples/light_switch/provisioner/CMakeFiles/light_switch_provisioner_nrf52832_xxAA_s132_6.0.0.dir/__/__/__/mesh/core/src/transport.c.obj
 .rodata.test_transport_decrypt.str1.1
                0x0003b73a       0x30 examples/light_switch/provisioner/CMakeFiles/light_switch_provisioner_nrf52832_xxAA_s132_6.0.0.dir/__/__/__/mesh/core/src/transport.c.obj
 .rodata.transport_packet_in.str1.1
                0x0003b76a       0x24 examples/light_switch/provisioner/CMakeFiles/light_switch_provisioner_nrf52832_xxAA_s132_6.0.0.dir/__/__/__/mesh/core/src/transport.c.obj
 .rodata.upper_transport_access_packet_in.str1.1
                0x0003b78e       0x29 examples/light_switch/provisioner/CMakeFiles/light_switch_provisioner_nrf52832_xxAA_s132_6.0.0.dir/__/__/__/mesh/core/src/transport.c.obj
 .rodata.upper_transport_packet_in.str1.1
                0x0003b7b7       0x2e examples/light_switch/provisioner/CMakeFiles/light_switch_provisioner_nrf52832_xxAA_s132_6.0.0.dir/__/__/__/mesh/core/src/transport.c.obj
 .rodata.upper_transport_tx.str1.1
                0x0003b7e5        0xe examples/light_switch/provisioner/CMakeFiles/light_switch_provisioner_nrf52832_xxAA_s132_6.0.0.dir/__/__/__/mesh/core/src/transport.c.obj
                                 0x16 (size before relaxing)
 *fill*         0x0003b7f3        0x1 
 .rodata.m_procedure_steps
                0x0003b7f4       0x28 examples/light_switch/provisioner/CMakeFiles/light_switch_provisioner_nrf52832_xxAA_s132_6.0.0.dir/__/__/__/mesh/core/src/flash_manager_defrag.c.obj
 .rodata.m_all_operations
                0x0003b81c       0x10 examples/light_switch/provisioner/CMakeFiles/light_switch_provisioner_nrf52832_xxAA_s132_6.0.0.dir/__/__/__/mesh/core/src/mesh_flash.c.obj
 .rodata.types_lookup.9059
                0x0003b82c        0x4 examples/light_switch/provisioner/CMakeFiles/light_switch_provisioner_nrf52832_xxAA_s132_6.0.0.dir/__/__/__/mesh/core/src/nrf_mesh_utils.c.obj
 .rodata.__func__.11531
                0x0003b830       0x15 examples/light_switch/provisioner/CMakeFiles/light_switch_provisioner_nrf52832_xxAA_s132_6.0.0.dir/__/__/__/mesh/core/src/nrf_mesh.c.obj
 .rodata.nrf_mesh_listen.str1.1
                0x0003b845       0x70 examples/light_switch/provisioner/CMakeFiles/light_switch_provisioner_nrf52832_xxAA_s132_6.0.0.dir/__/__/__/mesh/core/src/nrf_mesh.c.obj
 .rodata.nrf_mesh_packet_send.str1.1
                0x0003b8b5       0x70 examples/light_switch/provisioner/CMakeFiles/light_switch_provisioner_nrf52832_xxAA_s132_6.0.0.dir/__/__/__/mesh/core/src/nrf_mesh.c.obj
                                  0x4 (size before relaxing)
 *fill*         0x0003b8b5        0x1 
 .rodata.CSWTCH.8
                0x0003b8b6       0x10 examples/light_switch/provisioner/CMakeFiles/light_switch_provisioner_nrf52832_xxAA_s132_6.0.0.dir/__/__/__/mesh/core/src/hal.c.obj
 .rodata.Rb.7352
                0x0003b8c6       0x10 examples/light_switch/provisioner/CMakeFiles/light_switch_provisioner_nrf52832_xxAA_s132_6.0.0.dir/__/__/__/mesh/core/src/aes_cmac.c.obj
 .rodata        0x0003b8d6       0x15 examples/light_switch/provisioner/CMakeFiles/light_switch_provisioner_nrf52832_xxAA_s132_6.0.0.dir/__/__/__/mesh/core/src/enc.c.obj
 .rodata.network_packet_in.str1.1
                0x0003b8eb       0x48 examples/light_switch/provisioner/CMakeFiles/light_switch_provisioner_nrf52832_xxAA_s132_6.0.0.dir/__/__/__/mesh/core/src/network.c.obj
 .rodata.net_packet_decrypt.str1.1
                0x0003b933       0x31 examples/light_switch/provisioner/CMakeFiles/light_switch_provisioner_nrf52832_xxAA_s132_6.0.0.dir/__/__/__/mesh/core/src/net_packet.c.obj
                                 0x39 (size before relaxing)
 .rodata        0x0003b964        0x7 examples/light_switch/provisioner/CMakeFiles/light_switch_provisioner_nrf52832_xxAA_s132_6.0.0.dir/__/__/__/mesh/core/src/nrf_mesh_keygen.c.obj
 .rodata.log_callback_rtt.str1.1
                0x0003b96b       0x15 examples/light_switch/provisioner/CMakeFiles/light_switch_provisioner_nrf52832_xxAA_s132_6.0.0.dir/__/__/__/mesh/core/src/log.c.obj
 .rodata.str1.1
                0x0003b980       0x11 examples/light_switch/provisioner/CMakeFiles/light_switch_provisioner_nrf52832_xxAA_s132_6.0.0.dir/__/__/__/mesh/core/src/log.c.obj
 *fill*         0x0003b991        0x3 
 .rodata.INVALID_HEADER
                0x0003b994        0x4 examples/light_switch/provisioner/CMakeFiles/light_switch_provisioner_nrf52832_xxAA_s132_6.0.0.dir/__/__/__/mesh/core/src/flash_manager.c.obj
                0x0003b994                INVALID_HEADER
 .rodata.PADDING_HEADER
                0x0003b998        0x4 examples/light_switch/provisioner/CMakeFiles/light_switch_provisioner_nrf52832_xxAA_s132_6.0.0.dir/__/__/__/mesh/core/src/flash_manager.c.obj
                0x0003b998                PADDING_HEADER
 .rodata.SEAL_HEADER
                0x0003b99c        0x4 examples/light_switch/provisioner/CMakeFiles/light_switch_provisioner_nrf52832_xxAA_s132_6.0.0.dir/__/__/__/mesh/core/src/flash_manager.c.obj
                0x0003b99c                SEAL_HEADER
 .rodata.beacon_packet_in.str1.1
                0x0003b9a0       0x51 examples/light_switch/provisioner/CMakeFiles/light_switch_provisioner_nrf52832_xxAA_s132_6.0.0.dir/__/__/__/mesh/core/src/beacon.c.obj
                                 0x59 (size before relaxing)
 *fill*         0x0003b9f1        0x3 
 .rodata.cp_handler
                0x0003b9f4        0x8 examples/light_switch/provisioner/CMakeFiles/light_switch_provisioner_nrf52832_xxAA_s132_6.0.0.dir/__/__/__/mesh/core/src/heartbeat.c.obj
 .rodata.beacon_tx.str1.1
                0x0003b9fc       0x35 examples/light_switch/provisioner/CMakeFiles/light_switch_provisioner_nrf52832_xxAA_s132_6.0.0.dir/__/__/__/mesh/core/src/net_beacon.c.obj
 .rodata.net_beacon_init.str1.1
                0x0003ba31        0x5 examples/light_switch/provisioner/CMakeFiles/light_switch_provisioner_nrf52832_xxAA_s132_6.0.0.dir/__/__/__/mesh/core/src/net_beacon.c.obj
 *fill*         0x0003ba36        0x2 
 .rodata.m_interface
                0x0003ba38        0xc examples/light_switch/provisioner/CMakeFiles/light_switch_provisioner_nrf52832_xxAA_s132_6.0.0.dir/__/__/__/mesh/core/src/core_tx_adv.c.obj
 .rodata.radio_mode_to_us_per_byte.9452
                0x0003ba44        0x6 examples/light_switch/provisioner/CMakeFiles/light_switch_provisioner_nrf52832_xxAA_s132_6.0.0.dir/__/__/__/mesh/bearer/src/broadcast.c.obj
 .rodata.channel_rf_offsets.8693
                0x0003ba4a       0x28 examples/light_switch/provisioner/CMakeFiles/light_switch_provisioner_nrf52832_xxAA_s132_6.0.0.dir/__/__/__/mesh/bearer/src/radio_config.c.obj
 .rodata        0x0003ba72        0x3 examples/light_switch/provisioner/CMakeFiles/light_switch_provisioner_nrf52832_xxAA_s132_6.0.0.dir/__/__/__/mesh/bearer/src/scanner.c.obj
 *fill*         0x0003ba75        0x1 
 .rodata.m_config_message_lut
                0x0003ba76       0x5a examples/light_switch/provisioner/CMakeFiles/light_switch_provisioner_nrf52832_xxAA_s132_6.0.0.dir/__/__/__/models/config/src/config_client.c.obj
 .rodata.m_opcode_handlers
                0x0003bad0       0x78 examples/light_switch/provisioner/CMakeFiles/light_switch_provisioner_nrf52832_xxAA_s132_6.0.0.dir/__/__/__/models/config/src/config_client.c.obj
 .rodata        0x0003bb48        0x8 examples/light_switch/provisioner/CMakeFiles/light_switch_provisioner_nrf52832_xxAA_s132_6.0.0.dir/__/__/__/models/config/src/config_server.c.obj
 .rodata.CSWTCH.121
                0x0003bb50       0x10 examples/light_switch/provisioner/CMakeFiles/light_switch_provisioner_nrf52832_xxAA_s132_6.0.0.dir/__/__/__/models/config/src/config_server.c.obj
 .rodata.opcode_handlers
                0x0003bb60      0x170 examples/light_switch/provisioner/CMakeFiles/light_switch_provisioner_nrf52832_xxAA_s132_6.0.0.dir/__/__/__/models/config/src/config_server.c.obj
 .rodata.m_opcode_handlers
                0x0003bcd0       0x58 examples/light_switch/provisioner/CMakeFiles/light_switch_provisioner_nrf52832_xxAA_s132_6.0.0.dir/__/__/__/models/health/src/health_server.c.obj
 .rodata.multiply_de_bruijn_bit_position.9304
                0x0003bd28       0x20 examples/light_switch/provisioner/CMakeFiles/light_switch_provisioner_nrf52832_xxAA_s132_6.0.0.dir/__/__/__/models/health/src/health_server.c.obj
 .rodata.m_opcode_handlers
                0x0003bd48       0x20 examples/light_switch/provisioner/CMakeFiles/light_switch_provisioner_nrf52832_xxAA_s132_6.0.0.dir/__/__/__/models/health/src/health_client.c.obj
 .rodata.mesh_evt_cb.str1.1
                0x0003bd68       0x2f examples/light_switch/provisioner/CMakeFiles/light_switch_provisioner_nrf52832_xxAA_s132_6.0.0.dir/__/__/__/mesh/access/src/access.c.obj
 .rodata.multiply_de_bruijn_bit_position.9260
                0x0003bd97       0x20 examples/light_switch/provisioner/CMakeFiles/light_switch_provisioner_nrf52832_xxAA_s132_6.0.0.dir/__/__/__/mesh/access/src/access.c.obj
 .rodata.packet_tx.str1.1
                0x0003bdb7       0x1c examples/light_switch/provisioner/CMakeFiles/light_switch_provisioner_nrf52832_xxAA_s132_6.0.0.dir/__/__/__/mesh/access/src/access.c.obj
                                 0x24 (size before relaxing)
 *fill*         0x0003bdd3        0x1 
 .rodata.m_flash_groups
                0x0003bdd4       0xa8 examples/light_switch/provisioner/CMakeFiles/light_switch_provisioner_nrf52832_xxAA_s132_6.0.0.dir/__/__/__/mesh/access/src/device_state_manager.c.obj
 .rodata.multiply_de_bruijn_bit_position.9366
                0x0003be7c       0x20 examples/light_switch/provisioner/CMakeFiles/light_switch_provisioner_nrf52832_xxAA_s132_6.0.0.dir/__/__/__/mesh/access/src/device_state_manager.c.obj
 .rodata.m_prov_callbacks
                0x0003be9c       0x10 examples/light_switch/provisioner/CMakeFiles/light_switch_provisioner_nrf52832_xxAA_s132_6.0.0.dir/__/__/__/mesh/prov/src/prov_provisioner.c.obj
 .rodata.pdu_sizes.11238
                0x0003beac        0xa examples/light_switch/provisioner/CMakeFiles/light_switch_provisioner_nrf52832_xxAA_s132_6.0.0.dir/__/__/__/mesh/prov/src/provisioning.c.obj
 .rodata.alphanumeric.11343
                0x0003beb6       0x25 examples/light_switch/provisioner/CMakeFiles/light_switch_provisioner_nrf52832_xxAA_s132_6.0.0.dir/__/__/__/mesh/prov/src/prov_utils.c.obj
 *fill*         0x0003bedb        0x1 
 .rodata.numeric_max.11337
                0x0003bedc       0x24 examples/light_switch/provisioner/CMakeFiles/light_switch_provisioner_nrf52832_xxAA_s132_6.0.0.dir/__/__/__/mesh/prov/src/prov_utils.c.obj
 .rodata.prov_utils_authentication_values_derive.str1.1
                0x0003bf00        0x5 examples/light_switch/provisioner/CMakeFiles/light_switch_provisioner_nrf52832_xxAA_s132_6.0.0.dir/__/__/__/mesh/prov/src/prov_utils.c.obj
 .rodata.prov_utils_derive_keys.str1.1
                0x0003bf05        0xf examples/light_switch/provisioner/CMakeFiles/light_switch_provisioner_nrf52832_xxAA_s132_6.0.0.dir/__/__/__/mesh/prov/src/prov_utils.c.obj
 .rodata.add_active_bearer.str1.1
                0x0003bf14       0x2c examples/light_switch/provisioner/CMakeFiles/light_switch_provisioner_nrf52832_xxAA_s132_6.0.0.dir/__/__/__/mesh/prov/src/prov_bearer_adv.c.obj
 .rodata.crctable.10972
                0x0003bf40      0x100 examples/light_switch/provisioner/CMakeFiles/light_switch_provisioner_nrf52832_xxAA_s132_6.0.0.dir/__/__/__/mesh/prov/src/prov_bearer_adv.c.obj
 .rodata.interface.11202
                0x0003c040       0x14 examples/light_switch/provisioner/CMakeFiles/light_switch_provisioner_nrf52832_xxAA_s132_6.0.0.dir/__/__/__/mesh/prov/src/prov_bearer_adv.c.obj
 .rodata.prov_bearer_adv_packet_in.str1.1
                0x0003c054      0x26e examples/light_switch/provisioner/CMakeFiles/light_switch_provisioner_nrf52832_xxAA_s132_6.0.0.dir/__/__/__/mesh/prov/src/prov_bearer_adv.c.obj
 .rodata.tx_retry_cb.str1.1
                0x0003c2c2       0x37 examples/light_switch/provisioner/CMakeFiles/light_switch_provisioner_nrf52832_xxAA_s132_6.0.0.dir/__/__/__/mesh/prov/src/prov_bearer_adv.c.obj
 .rodata._DoInit.str1.1
                0x0003c2f9       0x14 external/rtt/librtt_nrf52832_xxAA.a(SEGGER_RTT.c.obj)
 .rodata._aV2C.5497
                0x0003c30d       0x10 external/rtt/librtt_nrf52832_xxAA.a(SEGGER_RTT_printf.c.obj)
 *fill*         0x0003c31d        0x3 
 .rodata.curve_secp256r1
                0x0003c320       0xb0 external/micro-ecc/libuECC_nrf52832_xxAA.a(uECC.c.obj)
 .rodata._global_impure_ptr
                0x0003c3d0        0x4 c:/mesh/arm_gcc/bin/../lib/gcc/arm-none-eabi/6.3.1/../../../../arm-none-eabi/lib/thumb/v7e-m/fpv4-sp/hard\libg_nano.a(lib_a-impure.o)
                0x0003c3d0                _global_impure_ptr
 *(.eh_frame*)
 .eh_frame      0x0003c3d4        0x0 c:/mesh/arm_gcc/bin/../lib/gcc/arm-none-eabi/6.3.1/thumb/v7e-m/fpv4-sp/hard/crtbegin.o
 .eh_frame      0x0003c3d4        0x4 c:/mesh/arm_gcc/bin/../lib/gcc/arm-none-eabi/6.3.1/thumb/v7e-m/fpv4-sp/hard/crtend.o

.glue_7         0x0003c3d8        0x0
 .glue_7        0x0003c3d8        0x0 linker stubs

.glue_7t        0x0003c3d8        0x0
 .glue_7t       0x0003c3d8        0x0 linker stubs

.vfp11_veneer   0x0003c3d8        0x0
 .vfp11_veneer  0x0003c3d8        0x0 linker stubs

.v4_bx          0x0003c3d8        0x0
 .v4_bx         0x0003c3d8        0x0 linker stubs

.iplt           0x0003c3d8        0x0
 .iplt          0x0003c3d8        0x0 c:/mesh/arm_gcc/bin/../lib/gcc/arm-none-eabi/6.3.1/thumb/v7e-m/fpv4-sp/hard/crtbegin.o

.pwr_mgmt_data  0x0003c3d8        0x0
                [!provide]                PROVIDE (__start_pwr_mgmt_data, .)
 *(SORT(.pwr_mgmt_data*))
                [!provide]                PROVIDE (__stop_pwr_mgmt_data, .)

.log_const_data
                0x0003c3d8        0x0
                [!provide]                PROVIDE (__start_log_const_data, .)
 *(.log_const_data)
                [!provide]                PROVIDE (__stop_log_const_data, .)

.cli_command    0x0003c3d8        0x0
                [!provide]                PROVIDE (__start_cli_command, .)
 *(.cli_command)
                [!provide]                PROVIDE (__stop_cli_command, .)

.sdh_stack_observers
                0x0003c3d8        0x0
                [!provide]                PROVIDE (__start_sdh_stack_observers, .)
 *(SORT(.sdh_stack_observers*))
                [!provide]                PROVIDE (__stop_sdh_stack_observers, .)

.sdh_req_observers
                0x0003c3d8        0x0
                [!provide]                PROVIDE (__start_sdh_req_observers, .)
 *(SORT(.sdh_req_observers*))
                [!provide]                PROVIDE (__stop_sdh_req_observers, .)

.sdh_state_observers
                0x0003c3d8        0x0
                [!provide]                PROVIDE (__start_sdh_state_observers, .)
 *(SORT(.sdh_state_observers*))
                [!provide]                PROVIDE (__stop_sdh_state_observers, .)

.sdh_ant_observers
                0x0003c3d8        0x0
                [!provide]                PROVIDE (__start_sdh_ant_observers, .)
 *(SORT(.sdh_ant_observers*))
                [!provide]                PROVIDE (__stop_sdh_ant_observers, .)

.sdh_ble_observers
                0x0003c3d8        0x0
                [!provide]                PROVIDE (__start_sdh_ble_observers, .)
 *(SORT(.sdh_ble_observers*))
                [!provide]                PROVIDE (__stop_sdh_ble_observers, .)

.sdh_soc_observers
                0x0003c3d8        0x0
                [!provide]                PROVIDE (__start_sdh_soc_observers, .)
 *(SORT(.sdh_soc_observers*))
                [!provide]                PROVIDE (__stop_sdh_soc_observers, .)

.ARM.extab
 *(.ARM.extab* .gnu.linkonce.armextab.*)
                0x0003c3d8                __exidx_start = .

.ARM.exidx      0x0003c3d8        0x8
 *(.ARM.exidx* .gnu.linkonce.armexidx.*)
 .ARM.exidx     0x0003c3d8        0x8 c:/mesh/arm_gcc/bin/../lib/gcc/arm-none-eabi/6.3.1/../../../../arm-none-eabi/lib/thumb/v7e-m/fpv4-sp/hard/crt0.o
 .ARM.exidx     0x0003c3e0        0x0 c:/mesh/arm_gcc/bin/../lib/gcc/arm-none-eabi/6.3.1/thumb/v7e-m/fpv4-sp/hard\libgcc.a(_udivmoddi4.o)
                                  0x8 (size before relaxing)
                0x0003c3e0                __exidx_end = .
                0x0003c3e0                __etext = .

.rel.dyn        0x0003c3e0        0x0
 .rel.iplt      0x0003c3e0        0x0 c:/mesh/arm_gcc/bin/../lib/gcc/arm-none-eabi/6.3.1/thumb/v7e-m/fpv4-sp/hard/crtbegin.o

.data           0x200032c8      0x178 load address 0x0003c3e0
                0x200032c8                __data_start__ = .
 *(vtable)
 *(.data*)
 .data.flash_add_mem_available_struct.13156
                0x200032c8       0x10 examples/light_switch/provisioner/CMakeFiles/light_switch_provisioner_nrf52832_xxAA_s132_6.0.0.dir/src/main.c.obj
 .data.flash_add_mem_available_struct.13167
                0x200032d8       0x10 examples/light_switch/provisioner/CMakeFiles/light_switch_provisioner_nrf52832_xxAA_s132_6.0.0.dir/src/main.c.obj
 .data.m_mesh_core_event_handler
                0x200032e8        0x8 examples/light_switch/provisioner/CMakeFiles/light_switch_provisioner_nrf52832_xxAA_s132_6.0.0.dir/src/main.c.obj
 .data.mem_listener.13172
                0x200032f0       0x10 examples/light_switch/provisioner/CMakeFiles/light_switch_provisioner_nrf52832_xxAA_s132_6.0.0.dir/src/main.c.obj
 .data.mp_config_step
                0x20003300        0x4 examples/light_switch/provisioner/CMakeFiles/light_switch_provisioner_nrf52832_xxAA_s132_6.0.0.dir/src/node_setup.c.obj
 .data.wait.8936
                0x20003304        0x1 examples/light_switch/provisioner/CMakeFiles/light_switch_provisioner_nrf52832_xxAA_s132_6.0.0.dir/__/__/common/src/app_error_weak.c.obj
 *fill*         0x20003305        0x3 
 .data.mem_listener.9810
                0x20003308       0x10 examples/light_switch/provisioner/CMakeFiles/light_switch_provisioner_nrf52832_xxAA_s132_6.0.0.dir/__/__/__/mesh/core/src/net_state.c.obj
 .data.mem_listener.9815
                0x20003318       0x10 examples/light_switch/provisioner/CMakeFiles/light_switch_provisioner_nrf52832_xxAA_s132_6.0.0.dir/__/__/__/mesh/core/src/net_state.c.obj
 .data.mem_listener.9829
                0x20003328       0x10 examples/light_switch/provisioner/CMakeFiles/light_switch_provisioner_nrf52832_xxAA_s132_6.0.0.dir/__/__/__/mesh/core/src/net_state.c.obj
 .data.mem_listener.9846
                0x20003338       0x10 examples/light_switch/provisioner/CMakeFiles/light_switch_provisioner_nrf52832_xxAA_s132_6.0.0.dir/__/__/__/mesh/core/src/net_state.c.obj
 .data.m_nrf_mesh_listener
                0x20003348        0xc examples/light_switch/provisioner/CMakeFiles/light_switch_provisioner_nrf52832_xxAA_s132_6.0.0.dir/__/__/__/mesh/core/src/nrf_mesh.c.obj
 .data.g_log_dbg_lvl
                0x20003354        0x4 examples/light_switch/provisioner/CMakeFiles/light_switch_provisioner_nrf52832_xxAA_s132_6.0.0.dir/__/__/__/mesh/core/src/log.c.obj
                0x20003354                g_log_dbg_lvl
 .data.g_log_dbg_msk
                0x20003358        0x4 examples/light_switch/provisioner/CMakeFiles/light_switch_provisioner_nrf52832_xxAA_s132_6.0.0.dir/__/__/__/mesh/core/src/log.c.obj
                0x20003358                g_log_dbg_msk
 .data.g_log_hex_digits
                0x2000335c        0x4 examples/light_switch/provisioner/CMakeFiles/light_switch_provisioner_nrf52832_xxAA_s132_6.0.0.dir/__/__/__/mesh/core/src/log.c.obj
                0x2000335c                g_log_hex_digits
 .data.m_log_callback
                0x20003360        0x4 examples/light_switch/provisioner/CMakeFiles/light_switch_provisioner_nrf52832_xxAA_s132_6.0.0.dir/__/__/__/mesh/core/src/log.c.obj
                0x20003360                m_log_callback
 .data.m_config_server_handle
                0x20003364        0x2 examples/light_switch/provisioner/CMakeFiles/light_switch_provisioner_nrf52832_xxAA_s132_6.0.0.dir/__/__/__/models/config/src/config_server.c.obj
 *fill*         0x20003366        0x2 
 .data.m_mesh_evt_handler
                0x20003368        0x8 examples/light_switch/provisioner/CMakeFiles/light_switch_provisioner_nrf52832_xxAA_s132_6.0.0.dir/__/__/__/models/config/src/config_server.c.obj
 .data.flash_add_mem_available_struct.10384
                0x20003370       0x10 examples/light_switch/provisioner/CMakeFiles/light_switch_provisioner_nrf52832_xxAA_s132_6.0.0.dir/__/__/__/mesh/access/src/access.c.obj
 .data.flash_clear_mem_available_struct.10473
                0x20003380       0x10 examples/light_switch/provisioner/CMakeFiles/light_switch_provisioner_nrf52832_xxAA_s132_6.0.0.dir/__/__/__/mesh/access/src/access.c.obj
 .data.flash_store_mem_available_struct.10497
                0x20003390       0x10 examples/light_switch/provisioner/CMakeFiles/light_switch_provisioner_nrf52832_xxAA_s132_6.0.0.dir/__/__/__/mesh/access/src/access.c.obj
 .data.m_default_ttl
                0x200033a0        0x1 examples/light_switch/provisioner/CMakeFiles/light_switch_provisioner_nrf52832_xxAA_s132_6.0.0.dir/__/__/__/mesh/access/src/access.c.obj
 *fill*         0x200033a1        0x3 
 .data.mem_listener.10673
                0x200033a4       0x10 examples/light_switch/provisioner/CMakeFiles/light_switch_provisioner_nrf52832_xxAA_s132_6.0.0.dir/__/__/__/mesh/access/src/device_state_manager.c.obj
 .data.mem_listener.10699
                0x200033b4       0x10 examples/light_switch/provisioner/CMakeFiles/light_switch_provisioner_nrf52832_xxAA_s132_6.0.0.dir/__/__/__/mesh/access/src/device_state_manager.c.obj
 .data.m_async_process_flag
                0x200033c4        0x4 examples/light_switch/provisioner/CMakeFiles/light_switch_provisioner_nrf52832_xxAA_s132_6.0.0.dir/__/__/__/mesh/prov/src/prov_bearer_adv.c.obj
 .data.SystemCoreClock
                0x200033c8        0x4 examples/light_switch/provisioner/CMakeFiles/light_switch_provisioner_nrf52832_xxAA_s132_6.0.0.dir/C_/b/nRF5_SDK_15.0.0_a53641a/modules/nrfx/mdk/system_nrf52.c.obj
                0x200033c8                SystemCoreClock
 .data.g_rng_function
                0x200033cc        0x4 external/micro-ecc/libuECC_nrf52832_xxAA.a(uECC.c.obj)
 .data._impure_ptr
                0x200033d0        0x4 c:/mesh/arm_gcc/bin/../lib/gcc/arm-none-eabi/6.3.1/../../../../arm-none-eabi/lib/thumb/v7e-m/fpv4-sp/hard\libg_nano.a(lib_a-impure.o)
                0x200033d0                _impure_ptr
 .data.impure_data
                0x200033d4       0x60 c:/mesh/arm_gcc/bin/../lib/gcc/arm-none-eabi/6.3.1/../../../../arm-none-eabi/lib/thumb/v7e-m/fpv4-sp/hard\libg_nano.a(lib_a-impure.o)
                0x20003434                . = ALIGN (0x4)
                0x20003434                PROVIDE (__preinit_array_start, .)
 *(.preinit_array)
                0x20003434                PROVIDE (__preinit_array_end, .)
                0x20003434                . = ALIGN (0x4)
                0x20003434                PROVIDE (__init_array_start, .)
 *(SORT(.init_array.*))
 *(.init_array)
 .init_array    0x20003434        0x4 c:/mesh/arm_gcc/bin/../lib/gcc/arm-none-eabi/6.3.1/thumb/v7e-m/fpv4-sp/hard/crtbegin.o
                0x20003438                PROVIDE (__init_array_end, .)
                0x20003438                . = ALIGN (0x4)
                [!provide]                PROVIDE (__fini_array_start, .)
 *(SORT(.fini_array.*))
 *(.fini_array)
 .fini_array    0x20003438        0x4 c:/mesh/arm_gcc/bin/../lib/gcc/arm-none-eabi/6.3.1/thumb/v7e-m/fpv4-sp/hard/crtbegin.o
                [!provide]                PROVIDE (__fini_array_end, .)
 *(.jcr*)
 .jcr           0x2000343c        0x0 c:/mesh/arm_gcc/bin/../lib/gcc/arm-none-eabi/6.3.1/thumb/v7e-m/fpv4-sp/hard/crtbegin.o
 .jcr           0x2000343c        0x4 c:/mesh/arm_gcc/bin/../lib/gcc/arm-none-eabi/6.3.1/thumb/v7e-m/fpv4-sp/hard/crtend.o
                0x20003440                . = ALIGN (0x4)
                0x20003440                __data_end__ = .
LOAD c:/mesh/arm_gcc/bin/../lib/gcc/arm-none-eabi/6.3.1/thumb/v7e-m/fpv4-sp/hard/crti.o
LOAD c:/mesh/arm_gcc/bin/../lib/gcc/arm-none-eabi/6.3.1/thumb/v7e-m/fpv4-sp/hard/crtbegin.o
LOAD c:/mesh/arm_gcc/bin/../lib/gcc/arm-none-eabi/6.3.1/../../../../arm-none-eabi/lib/thumb/v7e-m/fpv4-sp/hard/crt0.o
LOAD examples/light_switch/provisioner/CMakeFiles/light_switch_provisioner_nrf52832_xxAA_s132_6.0.0.dir/src/main.c.obj
LOAD examples/light_switch/provisioner/CMakeFiles/light_switch_provisioner_nrf52832_xxAA_s132_6.0.0.dir/__/__/__/mesh/stack/src/mesh_stack.c.obj
LOAD examples/light_switch/provisioner/CMakeFiles/light_switch_provisioner_nrf52832_xxAA_s132_6.0.0.dir/src/provisioner_helper.c.obj
LOAD examples/light_switch/provisioner/CMakeFiles/light_switch_provisioner_nrf52832_xxAA_s132_6.0.0.dir/src/node_setup.c.obj
LOAD examples/light_switch/provisioner/CMakeFiles/light_switch_provisioner_nrf52832_xxAA_s132_6.0.0.dir/__/__/common/src/mesh_softdevice_init.c.obj
LOAD examples/light_switch/provisioner/CMakeFiles/light_switch_provisioner_nrf52832_xxAA_s132_6.0.0.dir/__/__/common/src/rtt_input.c.obj
LOAD examples/light_switch/provisioner/CMakeFiles/light_switch_provisioner_nrf52832_xxAA_s132_6.0.0.dir/__/__/common/src/simple_hal.c.obj
LOAD examples/light_switch/provisioner/CMakeFiles/light_switch_provisioner_nrf52832_xxAA_s132_6.0.0.dir/__/__/nrf_mesh_weak.c.obj
LOAD examples/light_switch/provisioner/CMakeFiles/light_switch_provisioner_nrf52832_xxAA_s132_6.0.0.dir/__/__/common/src/app_error_weak.c.obj
LOAD examples/light_switch/provisioner/CMakeFiles/light_switch_provisioner_nrf52832_xxAA_s132_6.0.0.dir/__/__/common/src/assertion_handler_weak.c.obj
LOAD examples/light_switch/provisioner/CMakeFiles/light_switch_provisioner_nrf52832_xxAA_s132_6.0.0.dir/__/__/__/mesh/core/src/internal_event.c.obj
LOAD examples/light_switch/provisioner/CMakeFiles/light_switch_provisioner_nrf52832_xxAA_s132_6.0.0.dir/__/__/__/mesh/core/src/nrf_mesh_configure.c.obj
LOAD examples/light_switch/provisioner/CMakeFiles/light_switch_provisioner_nrf52832_xxAA_s132_6.0.0.dir/__/__/__/mesh/core/src/aes.c.obj
LOAD examples/light_switch/provisioner/CMakeFiles/light_switch_provisioner_nrf52832_xxAA_s132_6.0.0.dir/__/__/__/mesh/core/src/msg_cache.c.obj
LOAD examples/light_switch/provisioner/CMakeFiles/light_switch_provisioner_nrf52832_xxAA_s132_6.0.0.dir/__/__/__/mesh/core/src/transport.c.obj
LOAD examples/light_switch/provisioner/CMakeFiles/light_switch_provisioner_nrf52832_xxAA_s132_6.0.0.dir/__/__/__/mesh/core/src/event.c.obj
LOAD examples/light_switch/provisioner/CMakeFiles/light_switch_provisioner_nrf52832_xxAA_s132_6.0.0.dir/__/__/__/mesh/core/src/packet_buffer.c.obj
LOAD examples/light_switch/provisioner/CMakeFiles/light_switch_provisioner_nrf52832_xxAA_s132_6.0.0.dir/__/__/__/mesh/core/src/flash_manager_defrag.c.obj
LOAD examples/light_switch/provisioner/CMakeFiles/light_switch_provisioner_nrf52832_xxAA_s132_6.0.0.dir/__/__/__/mesh/core/src/fifo.c.obj
LOAD examples/light_switch/provisioner/CMakeFiles/light_switch_provisioner_nrf52832_xxAA_s132_6.0.0.dir/__/__/__/mesh/core/src/nrf_flash.c.obj
LOAD examples/light_switch/provisioner/CMakeFiles/light_switch_provisioner_nrf52832_xxAA_s132_6.0.0.dir/__/__/__/mesh/core/src/packet_mgr.c.obj
LOAD examples/light_switch/provisioner/CMakeFiles/light_switch_provisioner_nrf52832_xxAA_s132_6.0.0.dir/__/__/__/mesh/core/src/net_state.c.obj
LOAD examples/light_switch/provisioner/CMakeFiles/light_switch_provisioner_nrf52832_xxAA_s132_6.0.0.dir/__/__/__/mesh/core/src/mesh_flash.c.obj
LOAD examples/light_switch/provisioner/CMakeFiles/light_switch_provisioner_nrf52832_xxAA_s132_6.0.0.dir/__/__/__/mesh/core/src/nrf_mesh_utils.c.obj
LOAD examples/light_switch/provisioner/CMakeFiles/light_switch_provisioner_nrf52832_xxAA_s132_6.0.0.dir/__/__/__/mesh/core/src/nrf_mesh.c.obj
LOAD examples/light_switch/provisioner/CMakeFiles/light_switch_provisioner_nrf52832_xxAA_s132_6.0.0.dir/__/__/__/mesh/core/src/queue.c.obj
LOAD examples/light_switch/provisioner/CMakeFiles/light_switch_provisioner_nrf52832_xxAA_s132_6.0.0.dir/__/__/__/mesh/core/src/hal.c.obj
LOAD examples/light_switch/provisioner/CMakeFiles/light_switch_provisioner_nrf52832_xxAA_s132_6.0.0.dir/__/__/__/mesh/core/src/aes_cmac.c.obj
LOAD examples/light_switch/provisioner/CMakeFiles/light_switch_provisioner_nrf52832_xxAA_s132_6.0.0.dir/__/__/__/mesh/core/src/timer_scheduler.c.obj
LOAD examples/light_switch/provisioner/CMakeFiles/light_switch_provisioner_nrf52832_xxAA_s132_6.0.0.dir/__/__/__/mesh/core/src/timer.c.obj
LOAD examples/light_switch/provisioner/CMakeFiles/light_switch_provisioner_nrf52832_xxAA_s132_6.0.0.dir/__/__/__/mesh/core/src/ticker.c.obj
LOAD examples/light_switch/provisioner/CMakeFiles/light_switch_provisioner_nrf52832_xxAA_s132_6.0.0.dir/__/__/__/mesh/core/src/rand.c.obj
LOAD examples/light_switch/provisioner/CMakeFiles/light_switch_provisioner_nrf52832_xxAA_s132_6.0.0.dir/__/__/__/mesh/core/src/nrf_mesh_opt.c.obj
LOAD examples/light_switch/provisioner/CMakeFiles/light_switch_provisioner_nrf52832_xxAA_s132_6.0.0.dir/__/__/__/mesh/core/src/timeslot.c.obj
LOAD examples/light_switch/provisioner/CMakeFiles/light_switch_provisioner_nrf52832_xxAA_s132_6.0.0.dir/__/__/__/mesh/core/src/bearer_event.c.obj
LOAD examples/light_switch/provisioner/CMakeFiles/light_switch_provisioner_nrf52832_xxAA_s132_6.0.0.dir/__/__/__/mesh/core/src/enc.c.obj
LOAD examples/light_switch/provisioner/CMakeFiles/light_switch_provisioner_nrf52832_xxAA_s132_6.0.0.dir/__/__/__/mesh/core/src/network.c.obj
LOAD examples/light_switch/provisioner/CMakeFiles/light_switch_provisioner_nrf52832_xxAA_s132_6.0.0.dir/__/__/__/mesh/core/src/net_packet.c.obj
LOAD examples/light_switch/provisioner/CMakeFiles/light_switch_provisioner_nrf52832_xxAA_s132_6.0.0.dir/__/__/__/mesh/core/src/msqueue.c.obj
LOAD examples/light_switch/provisioner/CMakeFiles/light_switch_provisioner_nrf52832_xxAA_s132_6.0.0.dir/__/__/__/mesh/core/src/nrf_mesh_keygen.c.obj
LOAD examples/light_switch/provisioner/CMakeFiles/light_switch_provisioner_nrf52832_xxAA_s132_6.0.0.dir/__/__/__/mesh/core/src/cache.c.obj
LOAD examples/light_switch/provisioner/CMakeFiles/light_switch_provisioner_nrf52832_xxAA_s132_6.0.0.dir/__/__/__/mesh/core/src/uri.c.obj
LOAD examples/light_switch/provisioner/CMakeFiles/light_switch_provisioner_nrf52832_xxAA_s132_6.0.0.dir/__/__/__/mesh/core/src/list.c.obj
LOAD examples/light_switch/provisioner/CMakeFiles/light_switch_provisioner_nrf52832_xxAA_s132_6.0.0.dir/__/__/__/mesh/core/src/log.c.obj
LOAD examples/light_switch/provisioner/CMakeFiles/light_switch_provisioner_nrf52832_xxAA_s132_6.0.0.dir/__/__/__/mesh/core/src/flash_manager.c.obj
LOAD examples/light_switch/provisioner/CMakeFiles/light_switch_provisioner_nrf52832_xxAA_s132_6.0.0.dir/__/__/__/mesh/core/src/ccm_soft.c.obj
LOAD examples/light_switch/provisioner/CMakeFiles/light_switch_provisioner_nrf52832_xxAA_s132_6.0.0.dir/__/__/__/mesh/core/src/toolchain.c.obj
LOAD examples/light_switch/provisioner/CMakeFiles/light_switch_provisioner_nrf52832_xxAA_s132_6.0.0.dir/__/__/__/mesh/core/src/replay_cache.c.obj
LOAD examples/light_switch/provisioner/CMakeFiles/light_switch_provisioner_nrf52832_xxAA_s132_6.0.0.dir/__/__/__/mesh/core/src/beacon.c.obj
LOAD examples/light_switch/provisioner/CMakeFiles/light_switch_provisioner_nrf52832_xxAA_s132_6.0.0.dir/__/__/__/mesh/core/src/flash_manager_internal.c.obj
LOAD examples/light_switch/provisioner/CMakeFiles/light_switch_provisioner_nrf52832_xxAA_s132_6.0.0.dir/__/__/__/mesh/core/src/core_tx.c.obj
LOAD examples/light_switch/provisioner/CMakeFiles/light_switch_provisioner_nrf52832_xxAA_s132_6.0.0.dir/__/__/__/mesh/core/src/heartbeat.c.obj
LOAD examples/light_switch/provisioner/CMakeFiles/light_switch_provisioner_nrf52832_xxAA_s132_6.0.0.dir/__/__/__/mesh/core/src/net_beacon.c.obj
LOAD examples/light_switch/provisioner/CMakeFiles/light_switch_provisioner_nrf52832_xxAA_s132_6.0.0.dir/__/__/__/mesh/core/src/fsm.c.obj
LOAD examples/light_switch/provisioner/CMakeFiles/light_switch_provisioner_nrf52832_xxAA_s132_6.0.0.dir/__/__/__/mesh/core/src/core_tx_adv.c.obj
LOAD examples/light_switch/provisioner/CMakeFiles/light_switch_provisioner_nrf52832_xxAA_s132_6.0.0.dir/__/__/__/mesh/bearer/src/ad_listener.c.obj
LOAD examples/light_switch/provisioner/CMakeFiles/light_switch_provisioner_nrf52832_xxAA_s132_6.0.0.dir/__/__/__/mesh/bearer/src/ad_type_filter.c.obj
LOAD examples/light_switch/provisioner/CMakeFiles/light_switch_provisioner_nrf52832_xxAA_s132_6.0.0.dir/__/__/__/mesh/bearer/src/adv_packet_filter.c.obj
LOAD examples/light_switch/provisioner/CMakeFiles/light_switch_provisioner_nrf52832_xxAA_s132_6.0.0.dir/__/__/__/mesh/bearer/src/advertiser.c.obj
LOAD examples/light_switch/provisioner/CMakeFiles/light_switch_provisioner_nrf52832_xxAA_s132_6.0.0.dir/__/__/__/mesh/bearer/src/bearer_handler.c.obj
LOAD examples/light_switch/provisioner/CMakeFiles/light_switch_provisioner_nrf52832_xxAA_s132_6.0.0.dir/__/__/__/mesh/bearer/src/broadcast.c.obj
LOAD examples/light_switch/provisioner/CMakeFiles/light_switch_provisioner_nrf52832_xxAA_s132_6.0.0.dir/__/__/__/mesh/bearer/src/filter_engine.c.obj
LOAD examples/light_switch/provisioner/CMakeFiles/light_switch_provisioner_nrf52832_xxAA_s132_6.0.0.dir/__/__/__/mesh/bearer/src/gap_address_filter.c.obj
LOAD examples/light_switch/provisioner/CMakeFiles/light_switch_provisioner_nrf52832_xxAA_s132_6.0.0.dir/__/__/__/mesh/bearer/src/radio_config.c.obj
LOAD examples/light_switch/provisioner/CMakeFiles/light_switch_provisioner_nrf52832_xxAA_s132_6.0.0.dir/__/__/__/mesh/bearer/src/rssi_filter.c.obj
LOAD examples/light_switch/provisioner/CMakeFiles/light_switch_provisioner_nrf52832_xxAA_s132_6.0.0.dir/__/__/__/mesh/bearer/src/scanner.c.obj
LOAD examples/light_switch/provisioner/CMakeFiles/light_switch_provisioner_nrf52832_xxAA_s132_6.0.0.dir/__/__/__/models/simple_on_off/src/simple_on_off_client.c.obj
LOAD examples/light_switch/provisioner/CMakeFiles/light_switch_provisioner_nrf52832_xxAA_s132_6.0.0.dir/__/__/__/models/config/src/config_client.c.obj
LOAD examples/light_switch/provisioner/CMakeFiles/light_switch_provisioner_nrf52832_xxAA_s132_6.0.0.dir/__/__/__/models/config/src/composition_data.c.obj
LOAD examples/light_switch/provisioner/CMakeFiles/light_switch_provisioner_nrf52832_xxAA_s132_6.0.0.dir/__/__/__/models/config/src/config_server.c.obj
LOAD examples/light_switch/provisioner/CMakeFiles/light_switch_provisioner_nrf52832_xxAA_s132_6.0.0.dir/__/__/__/models/config/src/packed_index_list.c.obj
LOAD examples/light_switch/provisioner/CMakeFiles/light_switch_provisioner_nrf52832_xxAA_s132_6.0.0.dir/__/__/__/models/health/src/health_server.c.obj
LOAD examples/light_switch/provisioner/CMakeFiles/light_switch_provisioner_nrf52832_xxAA_s132_6.0.0.dir/__/__/__/models/health/src/health_client.c.obj
LOAD examples/light_switch/provisioner/CMakeFiles/light_switch_provisioner_nrf52832_xxAA_s132_6.0.0.dir/__/__/__/mesh/access/src/access_publish.c.obj
LOAD examples/light_switch/provisioner/CMakeFiles/light_switch_provisioner_nrf52832_xxAA_s132_6.0.0.dir/__/__/__/mesh/access/src/access.c.obj
LOAD examples/light_switch/provisioner/CMakeFiles/light_switch_provisioner_nrf52832_xxAA_s132_6.0.0.dir/__/__/__/mesh/access/src/access_reliable.c.obj
LOAD examples/light_switch/provisioner/CMakeFiles/light_switch_provisioner_nrf52832_xxAA_s132_6.0.0.dir/__/__/__/mesh/access/src/device_state_manager.c.obj
LOAD examples/light_switch/provisioner/CMakeFiles/light_switch_provisioner_nrf52832_xxAA_s132_6.0.0.dir/__/__/__/mesh/prov/src/prov_provisioner.c.obj
LOAD examples/light_switch/provisioner/CMakeFiles/light_switch_provisioner_nrf52832_xxAA_s132_6.0.0.dir/__/__/__/mesh/prov/src/nrf_mesh_prov.c.obj
LOAD examples/light_switch/provisioner/CMakeFiles/light_switch_provisioner_nrf52832_xxAA_s132_6.0.0.dir/__/__/__/mesh/prov/src/provisioning.c.obj
LOAD examples/light_switch/provisioner/CMakeFiles/light_switch_provisioner_nrf52832_xxAA_s132_6.0.0.dir/__/__/__/mesh/prov/src/prov_beacon.c.obj
LOAD examples/light_switch/provisioner/CMakeFiles/light_switch_provisioner_nrf52832_xxAA_s132_6.0.0.dir/__/__/__/mesh/prov/src/prov_utils.c.obj
LOAD examples/light_switch/provisioner/CMakeFiles/light_switch_provisioner_nrf52832_xxAA_s132_6.0.0.dir/__/__/__/mesh/prov/src/prov_bearer_adv.c.obj
LOAD examples/light_switch/provisioner/CMakeFiles/light_switch_provisioner_nrf52832_xxAA_s132_6.0.0.dir/C_/b/nRF5_SDK_15.0.0_a53641a/modules/nrfx/mdk/system_nrf52.c.obj
LOAD examples/light_switch/provisioner/CMakeFiles/light_switch_provisioner_nrf52832_xxAA_s132_6.0.0.dir/C_/b/nRF5_SDK_15.0.0_a53641a/modules/nrfx/mdk/gcc_startup_nrf52.S.obj
LOAD examples/light_switch/provisioner/CMakeFiles/light_switch_provisioner_nrf52832_xxAA_s132_6.0.0.dir/C_/b/nRF5_SDK_15.0.0_a53641a/components/libraries/util/app_error.c.obj
LOAD examples/light_switch/provisioner/CMakeFiles/light_switch_provisioner_nrf52832_xxAA_s132_6.0.0.dir/C_/b/nRF5_SDK_15.0.0_a53641a/components/libraries/util/app_error_handler_gcc.c.obj
LOAD external/rtt/librtt_nrf52832_xxAA.a
LOAD external/micro-ecc/libuECC_nrf52832_xxAA.a
START GROUP
LOAD c:/mesh/arm_gcc/bin/../lib/gcc/arm-none-eabi/6.3.1/thumb/v7e-m/fpv4-sp/hard\libgcc.a
LOAD c:/mesh/arm_gcc/bin/../lib/gcc/arm-none-eabi/6.3.1/../../../../arm-none-eabi/lib/thumb/v7e-m/fpv4-sp/hard\libg_nano.a
LOAD c:/mesh/arm_gcc/bin/../lib/gcc/arm-none-eabi/6.3.1/../../../../arm-none-eabi/lib/thumb/v7e-m/fpv4-sp/hard\libc_nano.a
END GROUP
START GROUP
LOAD c:/mesh/arm_gcc/bin/../lib/gcc/arm-none-eabi/6.3.1/thumb/v7e-m/fpv4-sp/hard\libgcc.a
LOAD c:/mesh/arm_gcc/bin/../lib/gcc/arm-none-eabi/6.3.1/../../../../arm-none-eabi/lib/thumb/v7e-m/fpv4-sp/hard\libc_nano.a
END GROUP
LOAD c:/mesh/arm_gcc/bin/../lib/gcc/arm-none-eabi/6.3.1/thumb/v7e-m/fpv4-sp/hard/crtend.o
LOAD c:/mesh/arm_gcc/bin/../lib/gcc/arm-none-eabi/6.3.1/thumb/v7e-m/fpv4-sp/hard/crtn.o
START GROUP
LOAD c:/mesh/arm_gcc/bin/../lib/gcc/arm-none-eabi/6.3.1/thumb/v7e-m/fpv4-sp/hard\libgcc.a
LOAD c:/mesh/arm_gcc/bin/../lib/gcc/arm-none-eabi/6.3.1/../../../../arm-none-eabi/lib/thumb/v7e-m/fpv4-sp/hard\libc.a
LOAD c:/mesh/arm_gcc/bin/../lib/gcc/arm-none-eabi/6.3.1/../../../../arm-none-eabi/lib/thumb/v7e-m/fpv4-sp/hard\libnosys.a
END GROUP

.igot.plt       0x20003440        0x0 load address 0x0003c558
 .igot.plt      0x20003440        0x0 c:/mesh/arm_gcc/bin/../lib/gcc/arm-none-eabi/6.3.1/thumb/v7e-m/fpv4-sp/hard/crtbegin.o
                0x20003440                . = ALIGN (0x4)

.svc_data       0x20003440        0x0
                [!provide]                PROVIDE (__start_svc_data, .)
 *(.svc_data)
                [!provide]                PROVIDE (__stop_svc_data, .)

.fs_data        0x20003440        0x0
                [!provide]                PROVIDE (__start_fs_data, .)
 *(.fs_data)
                [!provide]                PROVIDE (__stop_fs_data, .)

.log_dynamic_data
                0x20003440        0x0
                [!provide]                PROVIDE (__start_log_dynamic_data, .)
 *(.log_dynamic_data)
                [!provide]                PROVIDE (__stop_log_dynamic_data, .)

.cli_sorted_cmd_ptrs
                0x20003440        0x0
                [!provide]                PROVIDE (__start_cli_sorted_cmd_ptrs, .)
 *(.cli_sorted_cmd_ptrs)
                [!provide]                PROVIDE (__stop_cli_sorted_cmd_ptrs, .)

.bss            0x20003440     0x3580 load address 0x0003c558
                0x20003440                . = ALIGN (0x4)
                0x20003440                __bss_start__ = .
 *(.bss*)
 .bss           0x20003440       0x1c c:/mesh/arm_gcc/bin/../lib/gcc/arm-none-eabi/6.3.1/thumb/v7e-m/fpv4-sp/hard/crtbegin.o
 .bss.m_dev_handles
                0x2000345c       0x1c examples/light_switch/provisioner/CMakeFiles/light_switch_provisioner_nrf52832_xxAA_s132_6.0.0.dir/src/main.c.obj
 .bss.m_exp_uuid
                0x20003478        0x8 examples/light_switch/provisioner/CMakeFiles/light_switch_provisioner_nrf52832_xxAA_s132_6.0.0.dir/src/main.c.obj
 .bss.m_flash_manager
                0x20003480       0x24 examples/light_switch/provisioner/CMakeFiles/light_switch_provisioner_nrf52832_xxAA_s132_6.0.0.dir/src/main.c.obj
 .bss.m_node_prov_setup_started
                0x200034a4        0x1 examples/light_switch/provisioner/CMakeFiles/light_switch_provisioner_nrf52832_xxAA_s132_6.0.0.dir/src/main.c.obj
 *fill*         0x200034a5        0x1 
 .bss.m_nw_state
                0x200034a6       0x38 examples/light_switch/provisioner/CMakeFiles/light_switch_provisioner_nrf52832_xxAA_s132_6.0.0.dir/src/main.c.obj
 .bss.s_app_started.13212
                0x200034de        0x1 examples/light_switch/provisioner/CMakeFiles/light_switch_provisioner_nrf52832_xxAA_s132_6.0.0.dir/src/main.c.obj
 *fill*         0x200034df        0x1 
 .bss.m_health_server
                0x200034e0       0x5c examples/light_switch/provisioner/CMakeFiles/light_switch_provisioner_nrf52832_xxAA_s132_6.0.0.dir/__/__/__/mesh/stack/src/mesh_stack.c.obj
 .bss.m_init_params
                0x2000353c       0x24 examples/light_switch/provisioner/CMakeFiles/light_switch_provisioner_nrf52832_xxAA_s132_6.0.0.dir/__/__/__/mesh/stack/src/mesh_stack.c.obj
 .bss.addr_handle.12046
                0x20003560        0x2 examples/light_switch/provisioner/CMakeFiles/light_switch_provisioner_nrf52832_xxAA_s132_6.0.0.dir/src/provisioner_helper.c.obj
 .bss.devkey_handle.12047
                0x20003562        0x2 examples/light_switch/provisioner/CMakeFiles/light_switch_provisioner_nrf52832_xxAA_s132_6.0.0.dir/src/provisioner_helper.c.obj
 .bss.m_private_key
                0x20003564       0x20 examples/light_switch/provisioner/CMakeFiles/light_switch_provisioner_nrf52832_xxAA_s132_6.0.0.dir/src/provisioner_helper.c.obj
 .bss.m_prov_bearer_adv
                0x20003584      0x1c4 examples/light_switch/provisioner/CMakeFiles/light_switch_provisioner_nrf52832_xxAA_s132_6.0.0.dir/src/provisioner_helper.c.obj
 .bss.m_prov_ctx
                0x20003748      0x134 examples/light_switch/provisioner/CMakeFiles/light_switch_provisioner_nrf52832_xxAA_s132_6.0.0.dir/src/provisioner_helper.c.obj
 .bss.m_prov_state
                0x2000387c        0x1 examples/light_switch/provisioner/CMakeFiles/light_switch_provisioner_nrf52832_xxAA_s132_6.0.0.dir/src/provisioner_helper.c.obj
 *fill*         0x2000387d        0x3 
 .bss.m_provisioner
                0x20003880       0x18 examples/light_switch/provisioner/CMakeFiles/light_switch_provisioner_nrf52832_xxAA_s132_6.0.0.dir/src/provisioner_helper.c.obj
 .bss.m_provisioner_init_done
                0x20003898        0x1 examples/light_switch/provisioner/CMakeFiles/light_switch_provisioner_nrf52832_xxAA_s132_6.0.0.dir/src/provisioner_helper.c.obj
 .bss.m_public_key
                0x20003899       0x40 examples/light_switch/provisioner/CMakeFiles/light_switch_provisioner_nrf52832_xxAA_s132_6.0.0.dir/src/provisioner_helper.c.obj
 .bss.m_retry_cnt
                0x200038d9        0x1 examples/light_switch/provisioner/CMakeFiles/light_switch_provisioner_nrf52832_xxAA_s132_6.0.0.dir/src/provisioner_helper.c.obj
 .bss.m_target_address
                0x200038da        0x2 examples/light_switch/provisioner/CMakeFiles/light_switch_provisioner_nrf52832_xxAA_s132_6.0.0.dir/src/provisioner_helper.c.obj
 .bss.m_target_elements
                0x200038dc        0x2 examples/light_switch/provisioner/CMakeFiles/light_switch_provisioner_nrf52832_xxAA_s132_6.0.0.dir/src/provisioner_helper.c.obj
 *fill*         0x200038de        0x2 
 .bss.mp_expected_uuid
                0x200038e0        0x4 examples/light_switch/provisioner/CMakeFiles/light_switch_provisioner_nrf52832_xxAA_s132_6.0.0.dir/src/provisioner_helper.c.obj
 .bss.m_appkey_idx
                0x200038e4        0x2 examples/light_switch/provisioner/CMakeFiles/light_switch_provisioner_nrf52832_xxAA_s132_6.0.0.dir/src/node_setup.c.obj
 .bss.m_current_node_addr
                0x200038e6        0x2 examples/light_switch/provisioner/CMakeFiles/light_switch_provisioner_nrf52832_xxAA_s132_6.0.0.dir/src/node_setup.c.obj
 .bss.m_expected_status_list
                0x200038e8        0x8 examples/light_switch/provisioner/CMakeFiles/light_switch_provisioner_nrf52832_xxAA_s132_6.0.0.dir/src/node_setup.c.obj
 .bss.m_node_composition
                0x200038f0      0x180 examples/light_switch/provisioner/CMakeFiles/light_switch_provisioner_nrf52832_xxAA_s132_6.0.0.dir/src/node_setup.c.obj
 .bss.m_node_setup_failed_cb
                0x20003a70        0x4 examples/light_switch/provisioner/CMakeFiles/light_switch_provisioner_nrf52832_xxAA_s132_6.0.0.dir/src/node_setup.c.obj
 .bss.m_node_setup_success_cb
                0x20003a74        0x4 examples/light_switch/provisioner/CMakeFiles/light_switch_provisioner_nrf52832_xxAA_s132_6.0.0.dir/src/node_setup.c.obj
 .bss.m_retry_count
                0x20003a78        0x2 examples/light_switch/provisioner/CMakeFiles/light_switch_provisioner_nrf52832_xxAA_s132_6.0.0.dir/src/node_setup.c.obj
 *fill*         0x20003a7a        0x2 
 .bss.m_send_timer
                0x20003a7c       0x1c examples/light_switch/provisioner/CMakeFiles/light_switch_provisioner_nrf52832_xxAA_s132_6.0.0.dir/src/node_setup.c.obj
 .bss.m_status_checked
                0x20003a98        0x1 examples/light_switch/provisioner/CMakeFiles/light_switch_provisioner_nrf52832_xxAA_s132_6.0.0.dir/src/node_setup.c.obj
 *fill*         0x20003a99        0x1 
 .bss.model_element_addr.11291
                0x20003a9a        0x2 examples/light_switch/provisioner/CMakeFiles/light_switch_provisioner_nrf52832_xxAA_s132_6.0.0.dir/src/node_setup.c.obj
 .bss.mp_appkey
                0x20003a9c        0x4 examples/light_switch/provisioner/CMakeFiles/light_switch_provisioner_nrf52832_xxAA_s132_6.0.0.dir/src/node_setup.c.obj
 .bss.m_rtt_input_handler
                0x20003aa0        0x4 examples/light_switch/provisioner/CMakeFiles/light_switch_provisioner_nrf52832_xxAA_s132_6.0.0.dir/__/__/common/src/rtt_input.c.obj
 .bss.m_button_handler_cb
                0x20003aa4        0x4 examples/light_switch/provisioner/CMakeFiles/light_switch_provisioner_nrf52832_xxAA_s132_6.0.0.dir/__/__/common/src/simple_hal.c.obj
 .bss.m_last_button_press
                0x20003aa8        0x4 examples/light_switch/provisioner/CMakeFiles/light_switch_provisioner_nrf52832_xxAA_s132_6.0.0.dir/__/__/common/src/simple_hal.c.obj
 .bss.m_uuid    0x20003aac       0x10 examples/light_switch/provisioner/CMakeFiles/light_switch_provisioner_nrf52832_xxAA_s132_6.0.0.dir/__/__/__/mesh/core/src/nrf_mesh_configure.c.obj
 .bss.m_msg_cache
                0x20003abc      0x100 examples/light_switch/provisioner/CMakeFiles/light_switch_provisioner_nrf52832_xxAA_s132_6.0.0.dir/__/__/__/mesh/core/src/msg_cache.c.obj
 .bss.m_msg_cache_head
                0x20003bbc        0x4 examples/light_switch/provisioner/CMakeFiles/light_switch_provisioner_nrf52832_xxAA_s132_6.0.0.dir/__/__/__/mesh/core/src/msg_cache.c.obj
 .bss.m_control_packet_consumer_count
                0x20003bc0        0x4 examples/light_switch/provisioner/CMakeFiles/light_switch_provisioner_nrf52832_xxAA_s132_6.0.0.dir/__/__/__/mesh/core/src/transport.c.obj
 .bss.m_control_packet_consumers
                0x20003bc4        0x8 examples/light_switch/provisioner/CMakeFiles/light_switch_provisioner_nrf52832_xxAA_s132_6.0.0.dir/__/__/__/mesh/core/src/transport.c.obj
 .bss.m_sar_alloc
                0x20003bcc        0x4 examples/light_switch/provisioner/CMakeFiles/light_switch_provisioner_nrf52832_xxAA_s132_6.0.0.dir/__/__/__/mesh/core/src/transport.c.obj
 .bss.m_sar_process_flag
                0x20003bd0        0x4 examples/light_switch/provisioner/CMakeFiles/light_switch_provisioner_nrf52832_xxAA_s132_6.0.0.dir/__/__/__/mesh/core/src/transport.c.obj
 .bss.m_sar_release
                0x20003bd4        0x4 examples/light_switch/provisioner/CMakeFiles/light_switch_provisioner_nrf52832_xxAA_s132_6.0.0.dir/__/__/__/mesh/core/src/transport.c.obj
 .bss.m_sar_session_cache
                0x20003bd8       0x40 examples/light_switch/provisioner/CMakeFiles/light_switch_provisioner_nrf52832_xxAA_s132_6.0.0.dir/__/__/__/mesh/core/src/transport.c.obj
 .bss.m_sar_session_cache_head
                0x20003c18        0x4 examples/light_switch/provisioner/CMakeFiles/light_switch_provisioner_nrf52832_xxAA_s132_6.0.0.dir/__/__/__/mesh/core/src/transport.c.obj
 .bss.m_trs_config
                0x20003c1c       0x18 examples/light_switch/provisioner/CMakeFiles/light_switch_provisioner_nrf52832_xxAA_s132_6.0.0.dir/__/__/__/mesh/core/src/transport.c.obj
 .bss.m_trs_sar_sessions
                0x20003c34      0x1b0 examples/light_switch/provisioner/CMakeFiles/light_switch_provisioner_nrf52832_xxAA_s132_6.0.0.dir/__/__/__/mesh/core/src/transport.c.obj
 .bss.mp_evt_handlers_head
                0x20003de4        0x4 examples/light_switch/provisioner/CMakeFiles/light_switch_provisioner_nrf52832_xxAA_s132_6.0.0.dir/__/__/__/mesh/core/src/event.c.obj
 .bss.m_defrag  0x20003de8       0x1c examples/light_switch/provisioner/CMakeFiles/light_switch_provisioner_nrf52832_xxAA_s132_6.0.0.dir/__/__/__/mesh/core/src/flash_manager_defrag.c.obj
 .bss.m_token   0x20003e04        0x2 examples/light_switch/provisioner/CMakeFiles/light_switch_provisioner_nrf52832_xxAA_s132_6.0.0.dir/__/__/__/mesh/core/src/flash_manager_defrag.c.obj
 *fill*         0x20003e06        0x2 
 .bss.mp_recovery_area
                0x20003e08        0x4 examples/light_switch/provisioner/CMakeFiles/light_switch_provisioner_nrf52832_xxAA_s132_6.0.0.dir/__/__/__/mesh/core/src/flash_manager_defrag.c.obj
 .bss.p_null_ptr.10241
                0x20003e0c        0x4 examples/light_switch/provisioner/CMakeFiles/light_switch_provisioner_nrf52832_xxAA_s132_6.0.0.dir/__/__/__/mesh/core/src/flash_manager_defrag.c.obj
 .bss.m_pool    0x20003e10     0x1000 examples/light_switch/provisioner/CMakeFiles/light_switch_provisioner_nrf52832_xxAA_s132_6.0.0.dir/__/__/__/mesh/core/src/packet_mgr.c.obj
 .bss.mp_free_head
                0x20004e10        0x4 examples/light_switch/provisioner/CMakeFiles/light_switch_provisioner_nrf52832_xxAA_s132_6.0.0.dir/__/__/__/mesh/core/src/packet_mgr.c.obj
 .bss.lock_count.9872
                0x20004e14        0x4 examples/light_switch/provisioner/CMakeFiles/light_switch_provisioner_nrf52832_xxAA_s132_6.0.0.dir/__/__/__/mesh/core/src/net_state.c.obj
 .bss.m_flash_manager
                0x20004e18       0x24 examples/light_switch/provisioner/CMakeFiles/light_switch_provisioner_nrf52832_xxAA_s132_6.0.0.dir/__/__/__/mesh/core/src/net_state.c.obj
 .bss.m_iv_update_timer
                0x20004e3c       0x18 examples/light_switch/provisioner/CMakeFiles/light_switch_provisioner_nrf52832_xxAA_s132_6.0.0.dir/__/__/__/mesh/core/src/net_state.c.obj
 .bss.m_mesh_evt_handler
                0x20004e54        0x8 examples/light_switch/provisioner/CMakeFiles/light_switch_provisioner_nrf52832_xxAA_s132_6.0.0.dir/__/__/__/mesh/core/src/net_state.c.obj
 .bss.m_net_state
                0x20004e5c       0x14 examples/light_switch/provisioner/CMakeFiles/light_switch_provisioner_nrf52832_xxAA_s132_6.0.0.dir/__/__/__/mesh/core/src/net_state.c.obj
 .bss.m_seqnum_allocation_in_progress
                0x20004e70        0x1 examples/light_switch/provisioner/CMakeFiles/light_switch_provisioner_nrf52832_xxAA_s132_6.0.0.dir/__/__/__/mesh/core/src/net_state.c.obj
 .bss.m_test_mode
                0x20004e71        0x1 examples/light_switch/provisioner/CMakeFiles/light_switch_provisioner_nrf52832_xxAA_s132_6.0.0.dir/__/__/__/mesh/core/src/net_state.c.obj
 *fill*         0x20004e72        0x2 
 .bss.m_event_flag
                0x20004e74        0x4 examples/light_switch/provisioner/CMakeFiles/light_switch_provisioner_nrf52832_xxAA_s132_6.0.0.dir/__/__/__/mesh/core/src/mesh_flash.c.obj
 .bss.m_suspended
                0x20004e78        0x1 examples/light_switch/provisioner/CMakeFiles/light_switch_provisioner_nrf52832_xxAA_s132_6.0.0.dir/__/__/__/mesh/core/src/mesh_flash.c.obj
 *fill*         0x20004e79        0x3 
 .bss.m_users   0x20004e7c      0x228 examples/light_switch/provisioner/CMakeFiles/light_switch_provisioner_nrf52832_xxAA_s132_6.0.0.dir/__/__/__/mesh/core/src/mesh_flash.c.obj
 .bss.m_is_enabled
                0x200050a4        0x1 examples/light_switch/provisioner/CMakeFiles/light_switch_provisioner_nrf52832_xxAA_s132_6.0.0.dir/__/__/__/mesh/core/src/nrf_mesh.c.obj
 .bss.m_is_initialized
                0x200050a5        0x1 examples/light_switch/provisioner/CMakeFiles/light_switch_provisioner_nrf52832_xxAA_s132_6.0.0.dir/__/__/__/mesh/core/src/nrf_mesh.c.obj
 *fill*         0x200050a6        0x2 
 .bss.m_rx_cb   0x200050a8        0x4 examples/light_switch/provisioner/CMakeFiles/light_switch_provisioner_nrf52832_xxAA_s132_6.0.0.dir/__/__/__/mesh/core/src/nrf_mesh.c.obj
 .bss.m_128buf  0x200050ac       0x10 examples/light_switch/provisioner/CMakeFiles/light_switch_provisioner_nrf52832_xxAA_s132_6.0.0.dir/__/__/__/mesh/core/src/aes_cmac.c.obj
 .bss.m_subkey1
                0x200050bc       0x10 examples/light_switch/provisioner/CMakeFiles/light_switch_provisioner_nrf52832_xxAA_s132_6.0.0.dir/__/__/__/mesh/core/src/aes_cmac.c.obj
 .bss.m_subkey2
                0x200050cc       0x10 examples/light_switch/provisioner/CMakeFiles/light_switch_provisioner_nrf52832_xxAA_s132_6.0.0.dir/__/__/__/mesh/core/src/aes_cmac.c.obj
 .bss.m_event_flag
                0x200050dc        0x4 examples/light_switch/provisioner/CMakeFiles/light_switch_provisioner_nrf52832_xxAA_s132_6.0.0.dir/__/__/__/mesh/core/src/timer_scheduler.c.obj
 .bss.m_scheduler
                0x200050e0       0x10 examples/light_switch/provisioner/CMakeFiles/light_switch_provisioner_nrf52832_xxAA_s132_6.0.0.dir/__/__/__/mesh/core/src/timer_scheduler.c.obj
 .bss.m_attributes
                0x200050f0        0x3 examples/light_switch/provisioner/CMakeFiles/light_switch_provisioner_nrf52832_xxAA_s132_6.0.0.dir/__/__/__/mesh/core/src/timer.c.obj
 *fill*         0x200050f3        0x1 
 .bss.m_callbacks
                0x200050f4        0xc examples/light_switch/provisioner/CMakeFiles/light_switch_provisioner_nrf52832_xxAA_s132_6.0.0.dir/__/__/__/mesh/core/src/timer.c.obj
 .bss.m_is_in_ts
                0x20005100        0x1 examples/light_switch/provisioner/CMakeFiles/light_switch_provisioner_nrf52832_xxAA_s132_6.0.0.dir/__/__/__/mesh/core/src/timer.c.obj
 *fill*         0x20005101        0x3 
 .bss.m_reference_time
                0x20005104        0x4 examples/light_switch/provisioner/CMakeFiles/light_switch_provisioner_nrf52832_xxAA_s132_6.0.0.dir/__/__/__/mesh/core/src/timer.c.obj
 .bss.m_timeouts
                0x20005108        0xc examples/light_switch/provisioner/CMakeFiles/light_switch_provisioner_nrf52832_xxAA_s132_6.0.0.dir/__/__/__/mesh/core/src/timer.c.obj
 .bss.m_timer_mut
                0x20005114        0x4 examples/light_switch/provisioner/CMakeFiles/light_switch_provisioner_nrf52832_xxAA_s132_6.0.0.dir/__/__/__/mesh/core/src/timer.c.obj
 .bss.m_ts_end_time
                0x20005118        0x4 examples/light_switch/provisioner/CMakeFiles/light_switch_provisioner_nrf52832_xxAA_s132_6.0.0.dir/__/__/__/mesh/core/src/timer.c.obj
 .bss.mp_ppi_tasks
                0x2000511c        0xc examples/light_switch/provisioner/CMakeFiles/light_switch_provisioner_nrf52832_xxAA_s132_6.0.0.dir/__/__/__/mesh/core/src/timer.c.obj
 .bss.m_current_time
                0x20005128        0x4 examples/light_switch/provisioner/CMakeFiles/light_switch_provisioner_nrf52832_xxAA_s132_6.0.0.dir/__/__/__/mesh/core/src/ticker.c.obj
 .bss.m_timer   0x2000512c       0x18 examples/light_switch/provisioner/CMakeFiles/light_switch_provisioner_nrf52832_xxAA_s132_6.0.0.dir/__/__/__/mesh/core/src/ticker.c.obj
 .bss.m_current_timeslot
                0x20005144       0x1c examples/light_switch/provisioner/CMakeFiles/light_switch_provisioner_nrf52832_xxAA_s132_6.0.0.dir/__/__/__/mesh/core/src/timeslot.c.obj
 .bss.m_lfclk_ppm
                0x20005160        0x4 examples/light_switch/provisioner/CMakeFiles/light_switch_provisioner_nrf52832_xxAA_s132_6.0.0.dir/__/__/__/mesh/core/src/timeslot.c.obj
 .bss.m_radio_request_earliest
                0x20005164       0x10 examples/light_switch/provisioner/CMakeFiles/light_switch_provisioner_nrf52832_xxAA_s132_6.0.0.dir/__/__/__/mesh/core/src/timeslot.c.obj
 .bss.m_state_lock
                0x20005174        0x1 examples/light_switch/provisioner/CMakeFiles/light_switch_provisioner_nrf52832_xxAA_s132_6.0.0.dir/__/__/__/mesh/core/src/timeslot.c.obj
 .bss.m_timeslot_forced_command
                0x20005175        0x1 examples/light_switch/provisioner/CMakeFiles/light_switch_provisioner_nrf52832_xxAA_s132_6.0.0.dir/__/__/__/mesh/core/src/timeslot.c.obj
 *fill*         0x20005176        0x2 
 .bss.s_last_rtc_value.9299
                0x20005178        0x8 examples/light_switch/provisioner/CMakeFiles/light_switch_provisioner_nrf52832_xxAA_s132_6.0.0.dir/__/__/__/mesh/core/src/timeslot.c.obj
 .bss.m_bearer_event_fifo
                0x20005180       0x14 examples/light_switch/provisioner/CMakeFiles/light_switch_provisioner_nrf52832_xxAA_s132_6.0.0.dir/__/__/__/mesh/core/src/bearer_event.c.obj
 .bss.m_bearer_event_fifo_buffer
                0x20005194      0x100 examples/light_switch/provisioner/CMakeFiles/light_switch_provisioner_nrf52832_xxAA_s132_6.0.0.dir/__/__/__/mesh/core/src/bearer_event.c.obj
 .bss.m_critical
                0x20005294        0x4 examples/light_switch/provisioner/CMakeFiles/light_switch_provisioner_nrf52832_xxAA_s132_6.0.0.dir/__/__/__/mesh/core/src/bearer_event.c.obj
 .bss.m_flag_count
                0x20005298        0x4 examples/light_switch/provisioner/CMakeFiles/light_switch_provisioner_nrf52832_xxAA_s132_6.0.0.dir/__/__/__/mesh/core/src/bearer_event.c.obj
 .bss.m_flag_event_callbacks
                0x2000529c       0x20 examples/light_switch/provisioner/CMakeFiles/light_switch_provisioner_nrf52832_xxAA_s132_6.0.0.dir/__/__/__/mesh/core/src/bearer_event.c.obj
 .bss.m_flags   0x200052bc        0x4 examples/light_switch/provisioner/CMakeFiles/light_switch_provisioner_nrf52832_xxAA_s132_6.0.0.dir/__/__/__/mesh/core/src/bearer_event.c.obj
 .bss.m_irq_priority
                0x200052c0        0x1 examples/light_switch/provisioner/CMakeFiles/light_switch_provisioner_nrf52832_xxAA_s132_6.0.0.dir/__/__/__/mesh/core/src/bearer_event.c.obj
 *fill*         0x200052c1        0x3 
 .bss.m_sequential_event_queue
                0x200052c4        0x8 examples/light_switch/provisioner/CMakeFiles/light_switch_provisioner_nrf52832_xxAA_s132_6.0.0.dir/__/__/__/mesh/core/src/bearer_event.c.obj
 .bss.s_recursion_guard.9430
                0x200052cc        0x1 examples/light_switch/provisioner/CMakeFiles/light_switch_provisioner_nrf52832_xxAA_s132_6.0.0.dir/__/__/__/mesh/core/src/bearer_event.c.obj
 *fill*         0x200052cd        0x3 
 .bss.m_relay_check_cb
                0x200052d0        0x4 examples/light_switch/provisioner/CMakeFiles/light_switch_provisioner_nrf52832_xxAA_s132_6.0.0.dir/__/__/__/mesh/core/src/network.c.obj
 .bss.m_relay_enable
                0x200052d4        0x1 examples/light_switch/provisioner/CMakeFiles/light_switch_provisioner_nrf52832_xxAA_s132_6.0.0.dir/__/__/__/mesh/core/src/network.c.obj
 *fill*         0x200052d5        0x3 
 .bss.m_action_queue
                0x200052d8        0xc examples/light_switch/provisioner/CMakeFiles/light_switch_provisioner_nrf52832_xxAA_s132_6.0.0.dir/__/__/__/mesh/core/src/flash_manager.c.obj
 .bss.m_action_queue_buffer
                0x200052e4      0x104 examples/light_switch/provisioner/CMakeFiles/light_switch_provisioner_nrf52832_xxAA_s132_6.0.0.dir/__/__/__/mesh/core/src/flash_manager.c.obj
 .bss.m_action_state
                0x200053e8        0x1 examples/light_switch/provisioner/CMakeFiles/light_switch_provisioner_nrf52832_xxAA_s132_6.0.0.dir/__/__/__/mesh/core/src/flash_manager.c.obj
 *fill*         0x200053e9        0x3 
 .bss.m_memory_listener_queue
                0x200053ec        0x8 examples/light_switch/provisioner/CMakeFiles/light_switch_provisioner_nrf52832_xxAA_s132_6.0.0.dir/__/__/__/mesh/core/src/flash_manager.c.obj
 .bss.m_processing_flag
                0x200053f4        0x4 examples/light_switch/provisioner/CMakeFiles/light_switch_provisioner_nrf52832_xxAA_s132_6.0.0.dir/__/__/__/mesh/core/src/flash_manager.c.obj
 .bss.m_queue_empty_cb
                0x200053f8        0x4 examples/light_switch/provisioner/CMakeFiles/light_switch_provisioner_nrf52832_xxAA_s132_6.0.0.dir/__/__/__/mesh/core/src/flash_manager.c.obj
 .bss.m_state   0x200053fc        0x1 examples/light_switch/provisioner/CMakeFiles/light_switch_provisioner_nrf52832_xxAA_s132_6.0.0.dir/__/__/__/mesh/core/src/flash_manager.c.obj
 *fill*         0x200053fd        0x1 
 .bss.m_token   0x200053fe        0x2 examples/light_switch/provisioner/CMakeFiles/light_switch_provisioner_nrf52832_xxAA_s132_6.0.0.dir/__/__/__/mesh/core/src/flash_manager.c.obj
 .bss.p_current.11149
                0x20005400        0x4 examples/light_switch/provisioner/CMakeFiles/light_switch_provisioner_nrf52832_xxAA_s132_6.0.0.dir/__/__/__/mesh/core/src/flash_manager.c.obj
 .bss.result.11150
                0x20005404        0x1 examples/light_switch/provisioner/CMakeFiles/light_switch_provisioner_nrf52832_xxAA_s132_6.0.0.dir/__/__/__/mesh/core/src/flash_manager.c.obj
 .bss.m_cache_index
                0x20005405        0x1 examples/light_switch/provisioner/CMakeFiles/light_switch_provisioner_nrf52832_xxAA_s132_6.0.0.dir/__/__/__/mesh/core/src/replay_cache.c.obj
 *fill*         0x20005406        0x2 
 .bss.m_replay_cache
                0x20005408      0x220 examples/light_switch/provisioner/CMakeFiles/light_switch_provisioner_nrf52832_xxAA_s132_6.0.0.dir/__/__/__/mesh/core/src/replay_cache.c.obj
 .bss.m_bearer_count
                0x20005628        0x1 examples/light_switch/provisioner/CMakeFiles/light_switch_provisioner_nrf52832_xxAA_s132_6.0.0.dir/__/__/__/mesh/core/src/core_tx.c.obj
 *fill*         0x20005629        0x3 
 .bss.m_tx_complete_callback
                0x2000562c        0x4 examples/light_switch/provisioner/CMakeFiles/light_switch_provisioner_nrf52832_xxAA_s132_6.0.0.dir/__/__/__/mesh/core/src/core_tx.c.obj
 .bss.mp_bearers
                0x20005630        0x4 examples/light_switch/provisioner/CMakeFiles/light_switch_provisioner_nrf52832_xxAA_s132_6.0.0.dir/__/__/__/mesh/core/src/core_tx.c.obj
 .bss.m_hb_core_evt_handler
                0x20005634        0x8 examples/light_switch/provisioner/CMakeFiles/light_switch_provisioner_nrf52832_xxAA_s132_6.0.0.dir/__/__/__/mesh/core/src/heartbeat.c.obj
 .bss.m_hb_pending_feat_msg
                0x2000563c        0x1 examples/light_switch/provisioner/CMakeFiles/light_switch_provisioner_nrf52832_xxAA_s132_6.0.0.dir/__/__/__/mesh/core/src/heartbeat.c.obj
 .bss.m_hb_pending_pub_msg
                0x2000563d        0x1 examples/light_switch/provisioner/CMakeFiles/light_switch_provisioner_nrf52832_xxAA_s132_6.0.0.dir/__/__/__/mesh/core/src/heartbeat.c.obj
 .bss.m_heartbeat_init_done
                0x2000563e        0x1 examples/light_switch/provisioner/CMakeFiles/light_switch_provisioner_nrf52832_xxAA_s132_6.0.0.dir/__/__/__/mesh/core/src/heartbeat.c.obj
 *fill*         0x2000563f        0x1 
 .bss.m_heartbeat_subscription
                0x20005640       0x10 examples/light_switch/provisioner/CMakeFiles/light_switch_provisioner_nrf52832_xxAA_s132_6.0.0.dir/__/__/__/mesh/core/src/heartbeat.c.obj
 .bss.m_publication_count_decrement_cb
                0x20005650        0x4 examples/light_switch/provisioner/CMakeFiles/light_switch_provisioner_nrf52832_xxAA_s132_6.0.0.dir/__/__/__/mesh/core/src/heartbeat.c.obj
 .bss.m_publication_get_cb
                0x20005654        0x4 examples/light_switch/provisioner/CMakeFiles/light_switch_provisioner_nrf52832_xxAA_s132_6.0.0.dir/__/__/__/mesh/core/src/heartbeat.c.obj
 .bss.m_publication_timer
                0x20005658       0x1c examples/light_switch/provisioner/CMakeFiles/light_switch_provisioner_nrf52832_xxAA_s132_6.0.0.dir/__/__/__/mesh/core/src/heartbeat.c.obj
 .bss.m_subscription_timer
                0x20005674       0x18 examples/light_switch/provisioner/CMakeFiles/light_switch_provisioner_nrf52832_xxAA_s132_6.0.0.dir/__/__/__/mesh/core/src/heartbeat.c.obj
 .bss.m_adv     0x2000568c       0x98 examples/light_switch/provisioner/CMakeFiles/light_switch_provisioner_nrf52832_xxAA_s132_6.0.0.dir/__/__/__/mesh/core/src/net_beacon.c.obj
 .bss.m_adv_buf
                0x20005724       0x34 examples/light_switch/provisioner/CMakeFiles/light_switch_provisioner_nrf52832_xxAA_s132_6.0.0.dir/__/__/__/mesh/core/src/net_beacon.c.obj
 .bss.m_beacon_salt
                0x20005758       0x10 examples/light_switch/provisioner/CMakeFiles/light_switch_provisioner_nrf52832_xxAA_s132_6.0.0.dir/__/__/__/mesh/core/src/net_beacon.c.obj
 .bss.m_enabled
                0x20005768        0x1 examples/light_switch/provisioner/CMakeFiles/light_switch_provisioner_nrf52832_xxAA_s132_6.0.0.dir/__/__/__/mesh/core/src/net_beacon.c.obj
 *fill*         0x20005769        0x3 
 .bss.m_tx_timer
                0x2000576c       0x18 examples/light_switch/provisioner/CMakeFiles/light_switch_provisioner_nrf52832_xxAA_s132_6.0.0.dir/__/__/__/mesh/core/src/net_beacon.c.obj
 .bss.mp_beacon_info
                0x20005784        0x4 examples/light_switch/provisioner/CMakeFiles/light_switch_provisioner_nrf52832_xxAA_s132_6.0.0.dir/__/__/__/mesh/core/src/net_beacon.c.obj
 .bss.m_bearer  0x20005788        0xc examples/light_switch/provisioner/CMakeFiles/light_switch_provisioner_nrf52832_xxAA_s132_6.0.0.dir/__/__/__/mesh/core/src/core_tx_adv.c.obj
 .bss.m_bearer_roles
                0x20005794      0x138 examples/light_switch/provisioner/CMakeFiles/light_switch_provisioner_nrf52832_xxAA_s132_6.0.0.dir/__/__/__/mesh/core/src/core_tx_adv.c.obj
 .bss.m_current_alloc
                0x200058cc        0x8 examples/light_switch/provisioner/CMakeFiles/light_switch_provisioner_nrf52832_xxAA_s132_6.0.0.dir/__/__/__/mesh/core/src/core_tx_adv.c.obj
 .bss.m_originator_adv_packet_buffer
                0x200058d4      0x100 examples/light_switch/provisioner/CMakeFiles/light_switch_provisioner_nrf52832_xxAA_s132_6.0.0.dir/__/__/__/mesh/core/src/core_tx_adv.c.obj
 .bss.m_relay_adv_packet_buffer
                0x200059d4       0x80 examples/light_switch/provisioner/CMakeFiles/light_switch_provisioner_nrf52832_xxAA_s132_6.0.0.dir/__/__/__/mesh/core/src/core_tx_adv.c.obj
 .bss.m_subscribers
                0x20005a54        0x4 examples/light_switch/provisioner/CMakeFiles/light_switch_provisioner_nrf52832_xxAA_s132_6.0.0.dir/__/__/__/mesh/bearer/src/ad_listener.c.obj
 .bss.m_adtype_filter
                0x20005a58       0x38 examples/light_switch/provisioner/CMakeFiles/light_switch_provisioner_nrf52832_xxAA_s132_6.0.0.dir/__/__/__/mesh/bearer/src/ad_type_filter.c.obj
 .bss.m_adv_prng
                0x20005a90       0x10 examples/light_switch/provisioner/CMakeFiles/light_switch_provisioner_nrf52832_xxAA_s132_6.0.0.dir/__/__/__/mesh/bearer/src/advertiser.c.obj
 .bss.m_action_queue
                0x20005aa0        0x8 examples/light_switch/provisioner/CMakeFiles/light_switch_provisioner_nrf52832_xxAA_s132_6.0.0.dir/__/__/__/mesh/bearer/src/bearer_handler.c.obj
 .bss.m_end_time
                0x20005aa8        0x4 examples/light_switch/provisioner/CMakeFiles/light_switch_provisioner_nrf52832_xxAA_s132_6.0.0.dir/__/__/__/mesh/bearer/src/bearer_handler.c.obj
 .bss.m_scanner_is_active
                0x20005aac        0x1 examples/light_switch/provisioner/CMakeFiles/light_switch_provisioner_nrf52832_xxAA_s132_6.0.0.dir/__/__/__/mesh/bearer/src/bearer_handler.c.obj
 .bss.m_stopped
                0x20005aad        0x1 examples/light_switch/provisioner/CMakeFiles/light_switch_provisioner_nrf52832_xxAA_s132_6.0.0.dir/__/__/__/mesh/bearer/src/bearer_handler.c.obj
 *fill*         0x20005aae        0x2 
 .bss.mp_action
                0x20005ab0        0x4 examples/light_switch/provisioner/CMakeFiles/light_switch_provisioner_nrf52832_xxAA_s132_6.0.0.dir/__/__/__/mesh/bearer/src/bearer_handler.c.obj
 .bss.m_next_channel_index
                0x20005ab4        0x1 examples/light_switch/provisioner/CMakeFiles/light_switch_provisioner_nrf52832_xxAA_s132_6.0.0.dir/__/__/__/mesh/bearer/src/broadcast.c.obj
 *fill*         0x20005ab5        0x3 
 .bss.m_accepted_amount
                0x20005ab8        0x4 examples/light_switch/provisioner/CMakeFiles/light_switch_provisioner_nrf52832_xxAA_s132_6.0.0.dir/__/__/__/mesh/bearer/src/filter_engine.c.obj
 .bss.m_filter_list_head
                0x20005abc        0x4 examples/light_switch/provisioner/CMakeFiles/light_switch_provisioner_nrf52832_xxAA_s132_6.0.0.dir/__/__/__/mesh/bearer/src/filter_engine.c.obj
 .bss.m_scanner
                0x20005ac0      0x290 examples/light_switch/provisioner/CMakeFiles/light_switch_provisioner_nrf52832_xxAA_s132_6.0.0.dir/__/__/__/mesh/bearer/src/scanner.c.obj
 .bss.m_client  0x20005d50        0x8 examples/light_switch/provisioner/CMakeFiles/light_switch_provisioner_nrf52832_xxAA_s132_6.0.0.dir/__/__/__/models/config/src/config_client.c.obj
 .bss.mp_packet_buffer
                0x20005d58        0x4 examples/light_switch/provisioner/CMakeFiles/light_switch_provisioner_nrf52832_xxAA_s132_6.0.0.dir/__/__/__/models/config/src/config_client.c.obj
 .bss.m_evt_cb  0x20005d5c        0x4 examples/light_switch/provisioner/CMakeFiles/light_switch_provisioner_nrf52832_xxAA_s132_6.0.0.dir/__/__/__/models/config/src/config_server.c.obj
 .bss.m_heartbeat_publication
                0x20005d60       0x14 examples/light_switch/provisioner/CMakeFiles/light_switch_provisioner_nrf52832_xxAA_s132_6.0.0.dir/__/__/__/models/config/src/config_server.c.obj
 .bss.m_node_reset_pending
                0x20005d74        0x1 examples/light_switch/provisioner/CMakeFiles/light_switch_provisioner_nrf52832_xxAA_s132_6.0.0.dir/__/__/__/models/config/src/config_server.c.obj
 *fill*         0x20005d75        0x3 
 .bss.m_attention_timer
                0x20005d78       0x18 examples/light_switch/provisioner/CMakeFiles/light_switch_provisioner_nrf52832_xxAA_s132_6.0.0.dir/__/__/__/models/health/src/health_server.c.obj
 .bss.mp_attention_list
                0x20005d90        0x4 examples/light_switch/provisioner/CMakeFiles/light_switch_provisioner_nrf52832_xxAA_s132_6.0.0.dir/__/__/__/models/health/src/health_server.c.obj
 .bss.m_publish_timer
                0x20005d94       0x18 examples/light_switch/provisioner/CMakeFiles/light_switch_provisioner_nrf52832_xxAA_s132_6.0.0.dir/__/__/__/mesh/access/src/access_publish.c.obj
 .bss.m_publish_timer_counter
                0x20005dac        0x4 examples/light_switch/provisioner/CMakeFiles/light_switch_provisioner_nrf52832_xxAA_s132_6.0.0.dir/__/__/__/mesh/access/src/access_publish.c.obj
 .bss.m_publish_timer_running
                0x20005db0        0x1 examples/light_switch/provisioner/CMakeFiles/light_switch_provisioner_nrf52832_xxAA_s132_6.0.0.dir/__/__/__/mesh/access/src/access_publish.c.obj
 .bss.m_timer_resolution
                0x20005db1        0x1 examples/light_switch/provisioner/CMakeFiles/light_switch_provisioner_nrf52832_xxAA_s132_6.0.0.dir/__/__/__/mesh/access/src/access_publish.c.obj
 *fill*         0x20005db2        0x2 
 .bss.mp_publication_list
                0x20005db4        0x4 examples/light_switch/provisioner/CMakeFiles/light_switch_provisioner_nrf52832_xxAA_s132_6.0.0.dir/__/__/__/mesh/access/src/access_publish.c.obj
 .bss.m_element_pool
                0x20005db8        0x6 examples/light_switch/provisioner/CMakeFiles/light_switch_provisioner_nrf52832_xxAA_s132_6.0.0.dir/__/__/__/mesh/access/src/access.c.obj
 *fill*         0x20005dbe        0x2 
 .bss.m_evt_handler
                0x20005dc0        0x8 examples/light_switch/provisioner/CMakeFiles/light_switch_provisioner_nrf52832_xxAA_s132_6.0.0.dir/__/__/__/mesh/access/src/access.c.obj
 .bss.m_flash_manager
                0x20005dc8       0x24 examples/light_switch/provisioner/CMakeFiles/light_switch_provisioner_nrf52832_xxAA_s132_6.0.0.dir/__/__/__/mesh/access/src/access.c.obj
 .bss.m_flash_not_ready
                0x20005dec        0x1 examples/light_switch/provisioner/CMakeFiles/light_switch_provisioner_nrf52832_xxAA_s132_6.0.0.dir/__/__/__/mesh/access/src/access.c.obj
 .bss.m_metadata_stored
                0x20005ded        0x1 examples/light_switch/provisioner/CMakeFiles/light_switch_provisioner_nrf52832_xxAA_s132_6.0.0.dir/__/__/__/mesh/access/src/access.c.obj
 *fill*         0x20005dee        0x2 
 .bss.m_model_pool
                0x20005df0       0xe0 examples/light_switch/provisioner/CMakeFiles/light_switch_provisioner_nrf52832_xxAA_s132_6.0.0.dir/__/__/__/mesh/access/src/access.c.obj
 .bss.m_subscription_list_pool
                0x20005ed0       0x30 examples/light_switch/provisioner/CMakeFiles/light_switch_provisioner_nrf52832_xxAA_s132_6.0.0.dir/__/__/__/mesh/access/src/access.c.obj
 .bss.m_reliable
                0x20005f00       0xcc examples/light_switch/provisioner/CMakeFiles/light_switch_provisioner_nrf52832_xxAA_s132_6.0.0.dir/__/__/__/mesh/access/src/access_reliable.c.obj
 .bss.m_addr_nonvirtual_allocated
                0x20005fcc        0x8 examples/light_switch/provisioner/CMakeFiles/light_switch_provisioner_nrf52832_xxAA_s132_6.0.0.dir/__/__/__/mesh/access/src/device_state_manager.c.obj
 .bss.m_addr_nonvirtual_needs_flashing
                0x20005fd4        0x8 examples/light_switch/provisioner/CMakeFiles/light_switch_provisioner_nrf52832_xxAA_s132_6.0.0.dir/__/__/__/mesh/access/src/device_state_manager.c.obj
 .bss.m_addr_unicast_allocated
                0x20005fdc        0x4 examples/light_switch/provisioner/CMakeFiles/light_switch_provisioner_nrf52832_xxAA_s132_6.0.0.dir/__/__/__/mesh/access/src/device_state_manager.c.obj
 .bss.m_addr_unicast_needs_flashing
                0x20005fe0        0x4 examples/light_switch/provisioner/CMakeFiles/light_switch_provisioner_nrf52832_xxAA_s132_6.0.0.dir/__/__/__/mesh/access/src/device_state_manager.c.obj
 .bss.m_addr_virtual_allocated
                0x20005fe4        0x4 examples/light_switch/provisioner/CMakeFiles/light_switch_provisioner_nrf52832_xxAA_s132_6.0.0.dir/__/__/__/mesh/access/src/device_state_manager.c.obj
 .bss.m_addr_virtual_needs_flashing
                0x20005fe8        0x4 examples/light_switch/provisioner/CMakeFiles/light_switch_provisioner_nrf52832_xxAA_s132_6.0.0.dir/__/__/__/mesh/access/src/device_state_manager.c.obj
 .bss.m_addresses
                0x20005fec       0x88 examples/light_switch/provisioner/CMakeFiles/light_switch_provisioner_nrf52832_xxAA_s132_6.0.0.dir/__/__/__/mesh/access/src/device_state_manager.c.obj
 .bss.m_appkey_allocated
                0x20006074        0x4 examples/light_switch/provisioner/CMakeFiles/light_switch_provisioner_nrf52832_xxAA_s132_6.0.0.dir/__/__/__/mesh/access/src/device_state_manager.c.obj
 .bss.m_appkey_needs_flashing
                0x20006078        0x4 examples/light_switch/provisioner/CMakeFiles/light_switch_provisioner_nrf52832_xxAA_s132_6.0.0.dir/__/__/__/mesh/access/src/device_state_manager.c.obj
 .bss.m_appkeys
                0x2000607c       0x2a examples/light_switch/provisioner/CMakeFiles/light_switch_provisioner_nrf52832_xxAA_s132_6.0.0.dir/__/__/__/mesh/access/src/device_state_manager.c.obj
 *fill*         0x200060a6        0x2 
 .bss.m_devkey_allocated
                0x200060a8        0x4 examples/light_switch/provisioner/CMakeFiles/light_switch_provisioner_nrf52832_xxAA_s132_6.0.0.dir/__/__/__/mesh/access/src/device_state_manager.c.obj
 .bss.m_devkey_needs_flashing
                0x200060ac        0x4 examples/light_switch/provisioner/CMakeFiles/light_switch_provisioner_nrf52832_xxAA_s132_6.0.0.dir/__/__/__/mesh/access/src/device_state_manager.c.obj
 .bss.m_devkeys
                0x200060b0      0x2c0 examples/light_switch/provisioner/CMakeFiles/light_switch_provisioner_nrf52832_xxAA_s132_6.0.0.dir/__/__/__/mesh/access/src/device_state_manager.c.obj
 .bss.m_flash_is_available
                0x20006370        0x1 examples/light_switch/provisioner/CMakeFiles/light_switch_provisioner_nrf52832_xxAA_s132_6.0.0.dir/__/__/__/mesh/access/src/device_state_manager.c.obj
 *fill*         0x20006371        0x3 
 .bss.m_flash_manager
                0x20006374       0x24 examples/light_switch/provisioner/CMakeFiles/light_switch_provisioner_nrf52832_xxAA_s132_6.0.0.dir/__/__/__/mesh/access/src/device_state_manager.c.obj
 .bss.m_flash_mem_listener_update_all
                0x20006398       0x10 examples/light_switch/provisioner/CMakeFiles/light_switch_provisioner_nrf52832_xxAA_s132_6.0.0.dir/__/__/__/mesh/access/src/device_state_manager.c.obj
 .bss.m_has_primary_subnet
                0x200063a8        0x1 examples/light_switch/provisioner/CMakeFiles/light_switch_provisioner_nrf52832_xxAA_s132_6.0.0.dir/__/__/__/mesh/access/src/device_state_manager.c.obj
 *fill*         0x200063a9        0x1 
 .bss.m_local_unicast_addr
                0x200063aa        0x4 examples/light_switch/provisioner/CMakeFiles/light_switch_provisioner_nrf52832_xxAA_s132_6.0.0.dir/__/__/__/mesh/access/src/device_state_manager.c.obj
 *fill*         0x200063ae        0x2 
 .bss.m_mesh_evt_handler
                0x200063b0        0x8 examples/light_switch/provisioner/CMakeFiles/light_switch_provisioner_nrf52832_xxAA_s132_6.0.0.dir/__/__/__/mesh/access/src/device_state_manager.c.obj
 .bss.m_subnet_allocated
                0x200063b8        0x4 examples/light_switch/provisioner/CMakeFiles/light_switch_provisioner_nrf52832_xxAA_s132_6.0.0.dir/__/__/__/mesh/access/src/device_state_manager.c.obj
 .bss.m_subnet_needs_flashing
                0x200063bc        0x4 examples/light_switch/provisioner/CMakeFiles/light_switch_provisioner_nrf52832_xxAA_s132_6.0.0.dir/__/__/__/mesh/access/src/device_state_manager.c.obj
 .bss.m_subnets
                0x200063c0       0xa8 examples/light_switch/provisioner/CMakeFiles/light_switch_provisioner_nrf52832_xxAA_s132_6.0.0.dir/__/__/__/mesh/access/src/device_state_manager.c.obj
 .bss.m_virtual_addresses
                0x20006468       0x14 examples/light_switch/provisioner/CMakeFiles/light_switch_provisioner_nrf52832_xxAA_s132_6.0.0.dir/__/__/__/mesh/access/src/device_state_manager.c.obj
 .bss.m_event_handler
                0x2000647c        0x4 examples/light_switch/provisioner/CMakeFiles/light_switch_provisioner_nrf52832_xxAA_s132_6.0.0.dir/__/__/__/mesh/prov/src/prov_beacon.c.obj
 .bss.m_offload_ecdh
                0x20006480        0x1 examples/light_switch/provisioner/CMakeFiles/light_switch_provisioner_nrf52832_xxAA_s132_6.0.0.dir/__/__/__/mesh/prov/src/prov_utils.c.obj
 *fill*         0x20006481        0x3 
 .bss.mp_bearer_head
                0x20006484        0x4 examples/light_switch/provisioner/CMakeFiles/light_switch_provisioner_nrf52832_xxAA_s132_6.0.0.dir/__/__/__/mesh/prov/src/prov_bearer_adv.c.obj
 .bss._acDownBuffer
                0x20006488       0x80 external/rtt/librtt_nrf52832_xxAA.a(SEGGER_RTT.c.obj)
 .bss._acUpBuffer
                0x20006508      0x400 external/rtt/librtt_nrf52832_xxAA.a(SEGGER_RTT.c.obj)
 .bss.__malloc_free_list
                0x20006908        0x4 c:/mesh/arm_gcc/bin/../lib/gcc/arm-none-eabi/6.3.1/../../../../arm-none-eabi/lib/thumb/v7e-m/fpv4-sp/hard\libg_nano.a(lib_a-nano-mallocr.o)
                0x20006908                __malloc_free_list
 .bss.__malloc_sbrk_start
                0x2000690c        0x4 c:/mesh/arm_gcc/bin/../lib/gcc/arm-none-eabi/6.3.1/../../../../arm-none-eabi/lib/thumb/v7e-m/fpv4-sp/hard\libg_nano.a(lib_a-nano-mallocr.o)
                0x2000690c                __malloc_sbrk_start
 .bss.heap_end.5239
                0x20006910        0x4 c:/mesh/arm_gcc/bin/../lib/gcc/arm-none-eabi/6.3.1/../../../../arm-none-eabi/lib/thumb/v7e-m/fpv4-sp/hard\libnosys.a(sbrk.o)
 *(COMMON)
 COMMON         0x20006914        0xc examples/light_switch/provisioner/CMakeFiles/light_switch_provisioner_nrf52832_xxAA_s132_6.0.0.dir/__/__/common/src/mesh_softdevice_init.c.obj
                0x20006914                nrf_nvic_state
 COMMON         0x20006920       0x24 examples/light_switch/provisioner/CMakeFiles/light_switch_provisioner_nrf52832_xxAA_s132_6.0.0.dir/__/__/__/mesh/core/src/core_tx.c.obj
                0x20006920                m_packet
 COMMON         0x20006944       0x78 external/rtt/librtt_nrf52832_xxAA.a(SEGGER_RTT.c.obj)
                0x20006944                _SEGGER_RTT
 COMMON         0x200069bc        0x4 c:/mesh/arm_gcc/bin/../lib/gcc/arm-none-eabi/6.3.1/../../../../arm-none-eabi/lib/thumb/v7e-m/fpv4-sp/hard\libg_nano.a(lib_a-reent.o)
                0x200069bc                errno
                0x200069c0                . = ALIGN (0x4)
                0x200069c0                __bss_end__ = .

.heap           0x200069c0     0x2000
                0x200069c0                __HeapBase = .
                0x200069c0                __end__ = .
                0x200069c0                PROVIDE (end, .)
 *(.heap*)
 .heap          0x200069c0     0x2000 examples/light_switch/provisioner/CMakeFiles/light_switch_provisioner_nrf52832_xxAA_s132_6.0.0.dir/C_/b/nRF5_SDK_15.0.0_a53641a/modules/nrfx/mdk/gcc_startup_nrf52.S.obj
                0x200089c0                __HeapLimit = .

.stack_dummy    0x200069c0     0x2000
 *(.stack*)
 .stack         0x200069c0     0x2000 examples/light_switch/provisioner/CMakeFiles/light_switch_provisioner_nrf52832_xxAA_s132_6.0.0.dir/C_/b/nRF5_SDK_15.0.0_a53641a/modules/nrfx/mdk/gcc_startup_nrf52.S.obj
                0x2000fd00                __StackTop = (ORIGIN (RAM) + LENGTH (RAM))
                0x2000dd00                __StackLimit = (__StackTop - SIZEOF (.stack_dummy))
                0x2000fd00                PROVIDE (__stack, __StackTop)
                0x00000001                ASSERT ((__StackLimit >= __HeapLimit), region RAM overflowed with stack)
                0x00000178                DataInitFlashUsed = (__bss_start__ - __data_start__)
                0x000163e0                CodeFlashUsed = (__etext - ORIGIN (FLASH))
                0x00016558                TotalFlashUsed = (CodeFlashUsed + DataInitFlashUsed)
                0x00000001                ASSERT ((TotalFlashUsed <= LENGTH (FLASH)), region FLASH overflowed with .data and user data)
OUTPUT(examples\light_switch\provisioner\light_switch_provisioner_nrf52832_xxAA_s132_6.0.0.elf elf32-littlearm)

.ARM.attributes
                0x00000000       0x30
 .ARM.attributes
                0x00000000       0x22 c:/mesh/arm_gcc/bin/../lib/gcc/arm-none-eabi/6.3.1/thumb/v7e-m/fpv4-sp/hard/crti.o
 .ARM.attributes
                0x00000022       0x34 c:/mesh/arm_gcc/bin/../lib/gcc/arm-none-eabi/6.3.1/thumb/v7e-m/fpv4-sp/hard/crtbegin.o
 .ARM.attributes
                0x00000056       0x20 c:/mesh/arm_gcc/bin/../lib/gcc/arm-none-eabi/6.3.1/../../../../arm-none-eabi/lib/thumb/v7e-m/fpv4-sp/hard/crt0.o
 .ARM.attributes
                0x00000076       0x39 examples/light_switch/provisioner/CMakeFiles/light_switch_provisioner_nrf52832_xxAA_s132_6.0.0.dir/src/main.c.obj
 .ARM.attributes
                0x000000af       0x39 examples/light_switch/provisioner/CMakeFiles/light_switch_provisioner_nrf52832_xxAA_s132_6.0.0.dir/__/__/__/mesh/stack/src/mesh_stack.c.obj
 .ARM.attributes
                0x000000e8       0x39 examples/light_switch/provisioner/CMakeFiles/light_switch_provisioner_nrf52832_xxAA_s132_6.0.0.dir/src/provisioner_helper.c.obj
 .ARM.attributes
                0x00000121       0x39 examples/light_switch/provisioner/CMakeFiles/light_switch_provisioner_nrf52832_xxAA_s132_6.0.0.dir/src/node_setup.c.obj
 .ARM.attributes
                0x0000015a       0x39 examples/light_switch/provisioner/CMakeFiles/light_switch_provisioner_nrf52832_xxAA_s132_6.0.0.dir/__/__/common/src/mesh_softdevice_init.c.obj
 .ARM.attributes
                0x00000193       0x39 examples/light_switch/provisioner/CMakeFiles/light_switch_provisioner_nrf52832_xxAA_s132_6.0.0.dir/__/__/common/src/rtt_input.c.obj
 .ARM.attributes
                0x000001cc       0x39 examples/light_switch/provisioner/CMakeFiles/light_switch_provisioner_nrf52832_xxAA_s132_6.0.0.dir/__/__/common/src/simple_hal.c.obj
 .ARM.attributes
                0x00000205       0x39 examples/light_switch/provisioner/CMakeFiles/light_switch_provisioner_nrf52832_xxAA_s132_6.0.0.dir/__/__/nrf_mesh_weak.c.obj
 .ARM.attributes
                0x0000023e       0x39 examples/light_switch/provisioner/CMakeFiles/light_switch_provisioner_nrf52832_xxAA_s132_6.0.0.dir/__/__/common/src/app_error_weak.c.obj
 .ARM.attributes
                0x00000277       0x39 examples/light_switch/provisioner/CMakeFiles/light_switch_provisioner_nrf52832_xxAA_s132_6.0.0.dir/__/__/common/src/assertion_handler_weak.c.obj
 .ARM.attributes
                0x000002b0       0x39 examples/light_switch/provisioner/CMakeFiles/light_switch_provisioner_nrf52832_xxAA_s132_6.0.0.dir/__/__/__/mesh/core/src/nrf_mesh_configure.c.obj
 .ARM.attributes
                0x000002e9       0x39 examples/light_switch/provisioner/CMakeFiles/light_switch_provisioner_nrf52832_xxAA_s132_6.0.0.dir/__/__/__/mesh/core/src/aes.c.obj
 .ARM.attributes
                0x00000322       0x39 examples/light_switch/provisioner/CMakeFiles/light_switch_provisioner_nrf52832_xxAA_s132_6.0.0.dir/__/__/__/mesh/core/src/msg_cache.c.obj
 .ARM.attributes
                0x0000035b       0x39 examples/light_switch/provisioner/CMakeFiles/light_switch_provisioner_nrf52832_xxAA_s132_6.0.0.dir/__/__/__/mesh/core/src/transport.c.obj
 .ARM.attributes
                0x00000394       0x39 examples/light_switch/provisioner/CMakeFiles/light_switch_provisioner_nrf52832_xxAA_s132_6.0.0.dir/__/__/__/mesh/core/src/event.c.obj
 .ARM.attributes
                0x000003cd       0x39 examples/light_switch/provisioner/CMakeFiles/light_switch_provisioner_nrf52832_xxAA_s132_6.0.0.dir/__/__/__/mesh/core/src/packet_buffer.c.obj
 .ARM.attributes
                0x00000406       0x39 examples/light_switch/provisioner/CMakeFiles/light_switch_provisioner_nrf52832_xxAA_s132_6.0.0.dir/__/__/__/mesh/core/src/flash_manager_defrag.c.obj
 .ARM.attributes
                0x0000043f       0x39 examples/light_switch/provisioner/CMakeFiles/light_switch_provisioner_nrf52832_xxAA_s132_6.0.0.dir/__/__/__/mesh/core/src/fifo.c.obj
 .ARM.attributes
                0x00000478       0x39 examples/light_switch/provisioner/CMakeFiles/light_switch_provisioner_nrf52832_xxAA_s132_6.0.0.dir/__/__/__/mesh/core/src/nrf_flash.c.obj
 .ARM.attributes
                0x000004b1       0x39 examples/light_switch/provisioner/CMakeFiles/light_switch_provisioner_nrf52832_xxAA_s132_6.0.0.dir/__/__/__/mesh/core/src/packet_mgr.c.obj
 .ARM.attributes
                0x000004ea       0x39 examples/light_switch/provisioner/CMakeFiles/light_switch_provisioner_nrf52832_xxAA_s132_6.0.0.dir/__/__/__/mesh/core/src/net_state.c.obj
 .ARM.attributes
                0x00000523       0x39 examples/light_switch/provisioner/CMakeFiles/light_switch_provisioner_nrf52832_xxAA_s132_6.0.0.dir/__/__/__/mesh/core/src/mesh_flash.c.obj
 .ARM.attributes
                0x0000055c       0x39 examples/light_switch/provisioner/CMakeFiles/light_switch_provisioner_nrf52832_xxAA_s132_6.0.0.dir/__/__/__/mesh/core/src/nrf_mesh_utils.c.obj
 .ARM.attributes
                0x00000595       0x39 examples/light_switch/provisioner/CMakeFiles/light_switch_provisioner_nrf52832_xxAA_s132_6.0.0.dir/__/__/__/mesh/core/src/nrf_mesh.c.obj
 .ARM.attributes
                0x000005ce       0x39 examples/light_switch/provisioner/CMakeFiles/light_switch_provisioner_nrf52832_xxAA_s132_6.0.0.dir/__/__/__/mesh/core/src/queue.c.obj
 .ARM.attributes
                0x00000607       0x39 examples/light_switch/provisioner/CMakeFiles/light_switch_provisioner_nrf52832_xxAA_s132_6.0.0.dir/__/__/__/mesh/core/src/hal.c.obj
 .ARM.attributes
                0x00000640       0x39 examples/light_switch/provisioner/CMakeFiles/light_switch_provisioner_nrf52832_xxAA_s132_6.0.0.dir/__/__/__/mesh/core/src/aes_cmac.c.obj
 .ARM.attributes
                0x00000679       0x39 examples/light_switch/provisioner/CMakeFiles/light_switch_provisioner_nrf52832_xxAA_s132_6.0.0.dir/__/__/__/mesh/core/src/timer_scheduler.c.obj
 .ARM.attributes
                0x000006b2       0x39 examples/light_switch/provisioner/CMakeFiles/light_switch_provisioner_nrf52832_xxAA_s132_6.0.0.dir/__/__/__/mesh/core/src/timer.c.obj
 .ARM.attributes
                0x000006eb       0x39 examples/light_switch/provisioner/CMakeFiles/light_switch_provisioner_nrf52832_xxAA_s132_6.0.0.dir/__/__/__/mesh/core/src/ticker.c.obj
 .ARM.attributes
                0x00000724       0x39 examples/light_switch/provisioner/CMakeFiles/light_switch_provisioner_nrf52832_xxAA_s132_6.0.0.dir/__/__/__/mesh/core/src/rand.c.obj
 .ARM.attributes
                0x0000075d       0x39 examples/light_switch/provisioner/CMakeFiles/light_switch_provisioner_nrf52832_xxAA_s132_6.0.0.dir/__/__/__/mesh/core/src/nrf_mesh_opt.c.obj
 .ARM.attributes
                0x00000796       0x39 examples/light_switch/provisioner/CMakeFiles/light_switch_provisioner_nrf52832_xxAA_s132_6.0.0.dir/__/__/__/mesh/core/src/timeslot.c.obj
 .ARM.attributes
                0x000007cf       0x39 examples/light_switch/provisioner/CMakeFiles/light_switch_provisioner_nrf52832_xxAA_s132_6.0.0.dir/__/__/__/mesh/core/src/bearer_event.c.obj
 .ARM.attributes
                0x00000808       0x39 examples/light_switch/provisioner/CMakeFiles/light_switch_provisioner_nrf52832_xxAA_s132_6.0.0.dir/__/__/__/mesh/core/src/enc.c.obj
 .ARM.attributes
                0x00000841       0x39 examples/light_switch/provisioner/CMakeFiles/light_switch_provisioner_nrf52832_xxAA_s132_6.0.0.dir/__/__/__/mesh/core/src/network.c.obj
 .ARM.attributes
                0x0000087a       0x39 examples/light_switch/provisioner/CMakeFiles/light_switch_provisioner_nrf52832_xxAA_s132_6.0.0.dir/__/__/__/mesh/core/src/net_packet.c.obj
 .ARM.attributes
                0x000008b3       0x39 examples/light_switch/provisioner/CMakeFiles/light_switch_provisioner_nrf52832_xxAA_s132_6.0.0.dir/__/__/__/mesh/core/src/msqueue.c.obj
 .ARM.attributes
                0x000008ec       0x39 examples/light_switch/provisioner/CMakeFiles/light_switch_provisioner_nrf52832_xxAA_s132_6.0.0.dir/__/__/__/mesh/core/src/nrf_mesh_keygen.c.obj
 .ARM.attributes
                0x00000925       0x39 examples/light_switch/provisioner/CMakeFiles/light_switch_provisioner_nrf52832_xxAA_s132_6.0.0.dir/__/__/__/mesh/core/src/list.c.obj
 .ARM.attributes
                0x0000095e       0x39 examples/light_switch/provisioner/CMakeFiles/light_switch_provisioner_nrf52832_xxAA_s132_6.0.0.dir/__/__/__/mesh/core/src/log.c.obj
 .ARM.attributes
                0x00000997       0x39 examples/light_switch/provisioner/CMakeFiles/light_switch_provisioner_nrf52832_xxAA_s132_6.0.0.dir/__/__/__/mesh/core/src/flash_manager.c.obj
 .ARM.attributes
                0x000009d0       0x39 examples/light_switch/provisioner/CMakeFiles/light_switch_provisioner_nrf52832_xxAA_s132_6.0.0.dir/__/__/__/mesh/core/src/ccm_soft.c.obj
 .ARM.attributes
                0x00000a09       0x39 examples/light_switch/provisioner/CMakeFiles/light_switch_provisioner_nrf52832_xxAA_s132_6.0.0.dir/__/__/__/mesh/core/src/replay_cache.c.obj
 .ARM.attributes
                0x00000a42       0x39 examples/light_switch/provisioner/CMakeFiles/light_switch_provisioner_nrf52832_xxAA_s132_6.0.0.dir/__/__/__/mesh/core/src/beacon.c.obj
 .ARM.attributes
                0x00000a7b       0x39 examples/light_switch/provisioner/CMakeFiles/light_switch_provisioner_nrf52832_xxAA_s132_6.0.0.dir/__/__/__/mesh/core/src/flash_manager_internal.c.obj
 .ARM.attributes
                0x00000ab4       0x39 examples/light_switch/provisioner/CMakeFiles/light_switch_provisioner_nrf52832_xxAA_s132_6.0.0.dir/__/__/__/mesh/core/src/core_tx.c.obj
 .ARM.attributes
                0x00000aed       0x39 examples/light_switch/provisioner/CMakeFiles/light_switch_provisioner_nrf52832_xxAA_s132_6.0.0.dir/__/__/__/mesh/core/src/heartbeat.c.obj
 .ARM.attributes
                0x00000b26       0x39 examples/light_switch/provisioner/CMakeFiles/light_switch_provisioner_nrf52832_xxAA_s132_6.0.0.dir/__/__/__/mesh/core/src/net_beacon.c.obj
 .ARM.attributes
                0x00000b5f       0x39 examples/light_switch/provisioner/CMakeFiles/light_switch_provisioner_nrf52832_xxAA_s132_6.0.0.dir/__/__/__/mesh/core/src/core_tx_adv.c.obj
 .ARM.attributes
                0x00000b98       0x39 examples/light_switch/provisioner/CMakeFiles/light_switch_provisioner_nrf52832_xxAA_s132_6.0.0.dir/__/__/__/mesh/bearer/src/ad_listener.c.obj
 .ARM.attributes
                0x00000bd1       0x39 examples/light_switch/provisioner/CMakeFiles/light_switch_provisioner_nrf52832_xxAA_s132_6.0.0.dir/__/__/__/mesh/bearer/src/ad_type_filter.c.obj
 .ARM.attributes
                0x00000c0a       0x39 examples/light_switch/provisioner/CMakeFiles/light_switch_provisioner_nrf52832_xxAA_s132_6.0.0.dir/__/__/__/mesh/bearer/src/advertiser.c.obj
 .ARM.attributes
                0x00000c43       0x39 examples/light_switch/provisioner/CMakeFiles/light_switch_provisioner_nrf52832_xxAA_s132_6.0.0.dir/__/__/__/mesh/bearer/src/bearer_handler.c.obj
 .ARM.attributes
                0x00000c7c       0x39 examples/light_switch/provisioner/CMakeFiles/light_switch_provisioner_nrf52832_xxAA_s132_6.0.0.dir/__/__/__/mesh/bearer/src/broadcast.c.obj
 .ARM.attributes
                0x00000cb5       0x39 examples/light_switch/provisioner/CMakeFiles/light_switch_provisioner_nrf52832_xxAA_s132_6.0.0.dir/__/__/__/mesh/bearer/src/filter_engine.c.obj
 .ARM.attributes
                0x00000cee       0x39 examples/light_switch/provisioner/CMakeFiles/light_switch_provisioner_nrf52832_xxAA_s132_6.0.0.dir/__/__/__/mesh/bearer/src/radio_config.c.obj
 .ARM.attributes
                0x00000d27       0x39 examples/light_switch/provisioner/CMakeFiles/light_switch_provisioner_nrf52832_xxAA_s132_6.0.0.dir/__/__/__/mesh/bearer/src/scanner.c.obj
 .ARM.attributes
                0x00000d60       0x39 examples/light_switch/provisioner/CMakeFiles/light_switch_provisioner_nrf52832_xxAA_s132_6.0.0.dir/__/__/__/models/config/src/config_client.c.obj
 .ARM.attributes
                0x00000d99       0x39 examples/light_switch/provisioner/CMakeFiles/light_switch_provisioner_nrf52832_xxAA_s132_6.0.0.dir/__/__/__/models/config/src/composition_data.c.obj
 .ARM.attributes
                0x00000dd2       0x39 examples/light_switch/provisioner/CMakeFiles/light_switch_provisioner_nrf52832_xxAA_s132_6.0.0.dir/__/__/__/models/config/src/config_server.c.obj
 .ARM.attributes
                0x00000e0b       0x39 examples/light_switch/provisioner/CMakeFiles/light_switch_provisioner_nrf52832_xxAA_s132_6.0.0.dir/__/__/__/models/config/src/packed_index_list.c.obj
 .ARM.attributes
                0x00000e44       0x39 examples/light_switch/provisioner/CMakeFiles/light_switch_provisioner_nrf52832_xxAA_s132_6.0.0.dir/__/__/__/models/health/src/health_server.c.obj
 .ARM.attributes
                0x00000e7d       0x39 examples/light_switch/provisioner/CMakeFiles/light_switch_provisioner_nrf52832_xxAA_s132_6.0.0.dir/__/__/__/models/health/src/health_client.c.obj
 .ARM.attributes
                0x00000eb6       0x39 examples/light_switch/provisioner/CMakeFiles/light_switch_provisioner_nrf52832_xxAA_s132_6.0.0.dir/__/__/__/mesh/access/src/access_publish.c.obj
 .ARM.attributes
                0x00000eef       0x39 examples/light_switch/provisioner/CMakeFiles/light_switch_provisioner_nrf52832_xxAA_s132_6.0.0.dir/__/__/__/mesh/access/src/access.c.obj
 .ARM.attributes
                0x00000f28       0x39 examples/light_switch/provisioner/CMakeFiles/light_switch_provisioner_nrf52832_xxAA_s132_6.0.0.dir/__/__/__/mesh/access/src/access_reliable.c.obj
 .ARM.attributes
                0x00000f61       0x39 examples/light_switch/provisioner/CMakeFiles/light_switch_provisioner_nrf52832_xxAA_s132_6.0.0.dir/__/__/__/mesh/access/src/device_state_manager.c.obj
 .ARM.attributes
                0x00000f9a       0x39 examples/light_switch/provisioner/CMakeFiles/light_switch_provisioner_nrf52832_xxAA_s132_6.0.0.dir/__/__/__/mesh/prov/src/prov_provisioner.c.obj
 .ARM.attributes
                0x00000fd3       0x39 examples/light_switch/provisioner/CMakeFiles/light_switch_provisioner_nrf52832_xxAA_s132_6.0.0.dir/__/__/__/mesh/prov/src/nrf_mesh_prov.c.obj
 .ARM.attributes
                0x0000100c       0x39 examples/light_switch/provisioner/CMakeFiles/light_switch_provisioner_nrf52832_xxAA_s132_6.0.0.dir/__/__/__/mesh/prov/src/provisioning.c.obj
 .ARM.attributes
                0x00001045       0x39 examples/light_switch/provisioner/CMakeFiles/light_switch_provisioner_nrf52832_xxAA_s132_6.0.0.dir/__/__/__/mesh/prov/src/prov_beacon.c.obj
 .ARM.attributes
                0x0000107e       0x39 examples/light_switch/provisioner/CMakeFiles/light_switch_provisioner_nrf52832_xxAA_s132_6.0.0.dir/__/__/__/mesh/prov/src/prov_utils.c.obj
 .ARM.attributes
                0x000010b7       0x39 examples/light_switch/provisioner/CMakeFiles/light_switch_provisioner_nrf52832_xxAA_s132_6.0.0.dir/__/__/__/mesh/prov/src/prov_bearer_adv.c.obj
 .ARM.attributes
                0x000010f0       0x39 examples/light_switch/provisioner/CMakeFiles/light_switch_provisioner_nrf52832_xxAA_s132_6.0.0.dir/C_/b/nRF5_SDK_15.0.0_a53641a/modules/nrfx/mdk/system_nrf52.c.obj
 .ARM.attributes
                0x00001129       0x20 examples/light_switch/provisioner/CMakeFiles/light_switch_provisioner_nrf52832_xxAA_s132_6.0.0.dir/C_/b/nRF5_SDK_15.0.0_a53641a/modules/nrfx/mdk/gcc_startup_nrf52.S.obj
 .ARM.attributes
                0x00001149       0x39 examples/light_switch/provisioner/CMakeFiles/light_switch_provisioner_nrf52832_xxAA_s132_6.0.0.dir/C_/b/nRF5_SDK_15.0.0_a53641a/components/libraries/util/app_error_handler_gcc.c.obj
 .ARM.attributes
                0x00001182       0x39 external/rtt/librtt_nrf52832_xxAA.a(SEGGER_RTT.c.obj)
 .ARM.attributes
                0x000011bb       0x39 external/rtt/librtt_nrf52832_xxAA.a(SEGGER_RTT_printf.c.obj)
 .ARM.attributes
                0x000011f4       0x39 external/micro-ecc/libuECC_nrf52832_xxAA.a(uECC.c.obj)
 .ARM.attributes
                0x0000122d       0x22 c:/mesh/arm_gcc/bin/../lib/gcc/arm-none-eabi/6.3.1/thumb/v7e-m/fpv4-sp/hard\libgcc.a(_aeabi_uldivmod.o)
 .ARM.attributes
                0x0000124f       0x34 c:/mesh/arm_gcc/bin/../lib/gcc/arm-none-eabi/6.3.1/thumb/v7e-m/fpv4-sp/hard\libgcc.a(_udivmoddi4.o)
 .ARM.attributes
                0x00001283       0x22 c:/mesh/arm_gcc/bin/../lib/gcc/arm-none-eabi/6.3.1/thumb/v7e-m/fpv4-sp/hard\libgcc.a(_dvmd_tls.o)
 .ARM.attributes
                0x000012a5       0x34 c:/mesh/arm_gcc/bin/../lib/gcc/arm-none-eabi/6.3.1/../../../../arm-none-eabi/lib/thumb/v7e-m/fpv4-sp/hard\libg_nano.a(lib_a-exit.o)
 .ARM.attributes
                0x000012d9       0x34 c:/mesh/arm_gcc/bin/../lib/gcc/arm-none-eabi/6.3.1/../../../../arm-none-eabi/lib/thumb/v7e-m/fpv4-sp/hard\libg_nano.a(lib_a-impure.o)
 .ARM.attributes
                0x0000130d       0x34 c:/mesh/arm_gcc/bin/../lib/gcc/arm-none-eabi/6.3.1/../../../../arm-none-eabi/lib/thumb/v7e-m/fpv4-sp/hard\libg_nano.a(lib_a-init.o)
 .ARM.attributes
                0x00001341       0x34 c:/mesh/arm_gcc/bin/../lib/gcc/arm-none-eabi/6.3.1/../../../../arm-none-eabi/lib/thumb/v7e-m/fpv4-sp/hard\libg_nano.a(lib_a-malloc.o)
 .ARM.attributes
                0x00001375       0x34 c:/mesh/arm_gcc/bin/../lib/gcc/arm-none-eabi/6.3.1/../../../../arm-none-eabi/lib/thumb/v7e-m/fpv4-sp/hard\libg_nano.a(lib_a-memcmp.o)
 .ARM.attributes
                0x000013a9       0x34 c:/mesh/arm_gcc/bin/../lib/gcc/arm-none-eabi/6.3.1/../../../../arm-none-eabi/lib/thumb/v7e-m/fpv4-sp/hard\libg_nano.a(lib_a-memcpy-stub.o)
 .ARM.attributes
                0x000013dd       0x34 c:/mesh/arm_gcc/bin/../lib/gcc/arm-none-eabi/6.3.1/../../../../arm-none-eabi/lib/thumb/v7e-m/fpv4-sp/hard\libg_nano.a(lib_a-memset.o)
 .ARM.attributes
                0x00001411       0x34 c:/mesh/arm_gcc/bin/../lib/gcc/arm-none-eabi/6.3.1/../../../../arm-none-eabi/lib/thumb/v7e-m/fpv4-sp/hard\libg_nano.a(lib_a-nano-freer.o)
 .ARM.attributes
                0x00001445       0x34 c:/mesh/arm_gcc/bin/../lib/gcc/arm-none-eabi/6.3.1/../../../../arm-none-eabi/lib/thumb/v7e-m/fpv4-sp/hard\libg_nano.a(lib_a-nano-mallocr.o)
 .ARM.attributes
                0x00001479       0x34 c:/mesh/arm_gcc/bin/../lib/gcc/arm-none-eabi/6.3.1/../../../../arm-none-eabi/lib/thumb/v7e-m/fpv4-sp/hard\libg_nano.a(lib_a-sbrkr.o)
 .ARM.attributes
                0x000014ad       0x34 c:/mesh/arm_gcc/bin/../lib/gcc/arm-none-eabi/6.3.1/../../../../arm-none-eabi/lib/thumb/v7e-m/fpv4-sp/hard\libg_nano.a(lib_a-strcpy.o)
 .ARM.attributes
                0x000014e1       0x1b c:/mesh/arm_gcc/bin/../lib/gcc/arm-none-eabi/6.3.1/../../../../arm-none-eabi/lib/thumb/v7e-m/fpv4-sp/hard\libg_nano.a(lib_a-strlen.o)
 .ARM.attributes
                0x000014fc       0x34 c:/mesh/arm_gcc/bin/../lib/gcc/arm-none-eabi/6.3.1/../../../../arm-none-eabi/lib/thumb/v7e-m/fpv4-sp/hard\libg_nano.a(lib_a-strrchr.o)
 .ARM.attributes
                0x00001530       0x34 c:/mesh/arm_gcc/bin/../lib/gcc/arm-none-eabi/6.3.1/../../../../arm-none-eabi/lib/thumb/v7e-m/fpv4-sp/hard\libg_nano.a(lib_a-mlock.o)
 .ARM.attributes
                0x00001564       0x34 c:/mesh/arm_gcc/bin/../lib/gcc/arm-none-eabi/6.3.1/../../../../arm-none-eabi/lib/thumb/v7e-m/fpv4-sp/hard\libg_nano.a(lib_a-reent.o)
 .ARM.attributes
                0x00001598       0x34 c:/mesh/arm_gcc/bin/../lib/gcc/arm-none-eabi/6.3.1/../../../../arm-none-eabi/lib/thumb/v7e-m/fpv4-sp/hard\libg_nano.a(lib_a-strchr.o)
 .ARM.attributes
                0x000015cc       0x34 c:/mesh/arm_gcc/bin/../lib/gcc/arm-none-eabi/6.3.1/thumb/v7e-m/fpv4-sp/hard/crtend.o
 .ARM.attributes
                0x00001600       0x22 c:/mesh/arm_gcc/bin/../lib/gcc/arm-none-eabi/6.3.1/thumb/v7e-m/fpv4-sp/hard/crtn.o
 .ARM.attributes
                0x00001622       0x34 c:/mesh/arm_gcc/bin/../lib/gcc/arm-none-eabi/6.3.1/../../../../arm-none-eabi/lib/thumb/v7e-m/fpv4-sp/hard\libnosys.a(sbrk.o)
 .ARM.attributes
                0x00001656       0x34 c:/mesh/arm_gcc/bin/../lib/gcc/arm-none-eabi/6.3.1/../../../../arm-none-eabi/lib/thumb/v7e-m/fpv4-sp/hard\libnosys.a(_exit.o)

.comment        0x00000000       0x7f
 .comment       0x00000000       0x7f examples/light_switch/provisioner/CMakeFiles/light_switch_provisioner_nrf52832_xxAA_s132_6.0.0.dir/src/main.c.obj
                                 0x80 (size before relaxing)
 .comment       0x0000007f       0x80 examples/light_switch/provisioner/CMakeFiles/light_switch_provisioner_nrf52832_xxAA_s132_6.0.0.dir/__/__/__/mesh/stack/src/mesh_stack.c.obj
 .comment       0x0000007f       0x80 examples/light_switch/provisioner/CMakeFiles/light_switch_provisioner_nrf52832_xxAA_s132_6.0.0.dir/src/provisioner_helper.c.obj
 .comment       0x0000007f       0x80 examples/light_switch/provisioner/CMakeFiles/light_switch_provisioner_nrf52832_xxAA_s132_6.0.0.dir/src/node_setup.c.obj
 .comment       0x0000007f       0x80 examples/light_switch/provisioner/CMakeFiles/light_switch_provisioner_nrf52832_xxAA_s132_6.0.0.dir/__/__/common/src/mesh_softdevice_init.c.obj
 .comment       0x0000007f       0x80 examples/light_switch/provisioner/CMakeFiles/light_switch_provisioner_nrf52832_xxAA_s132_6.0.0.dir/__/__/common/src/rtt_input.c.obj
 .comment       0x0000007f       0x80 examples/light_switch/provisioner/CMakeFiles/light_switch_provisioner_nrf52832_xxAA_s132_6.0.0.dir/__/__/common/src/simple_hal.c.obj
 .comment       0x0000007f       0x80 examples/light_switch/provisioner/CMakeFiles/light_switch_provisioner_nrf52832_xxAA_s132_6.0.0.dir/__/__/nrf_mesh_weak.c.obj
 .comment       0x0000007f       0x80 examples/light_switch/provisioner/CMakeFiles/light_switch_provisioner_nrf52832_xxAA_s132_6.0.0.dir/__/__/common/src/app_error_weak.c.obj
 .comment       0x0000007f       0x80 examples/light_switch/provisioner/CMakeFiles/light_switch_provisioner_nrf52832_xxAA_s132_6.0.0.dir/__/__/common/src/assertion_handler_weak.c.obj
 .comment       0x0000007f       0x80 examples/light_switch/provisioner/CMakeFiles/light_switch_provisioner_nrf52832_xxAA_s132_6.0.0.dir/__/__/__/mesh/core/src/nrf_mesh_configure.c.obj
 .comment       0x0000007f       0x80 examples/light_switch/provisioner/CMakeFiles/light_switch_provisioner_nrf52832_xxAA_s132_6.0.0.dir/__/__/__/mesh/core/src/aes.c.obj
 .comment       0x0000007f       0x80 examples/light_switch/provisioner/CMakeFiles/light_switch_provisioner_nrf52832_xxAA_s132_6.0.0.dir/__/__/__/mesh/core/src/msg_cache.c.obj
 .comment       0x0000007f       0x80 examples/light_switch/provisioner/CMakeFiles/light_switch_provisioner_nrf52832_xxAA_s132_6.0.0.dir/__/__/__/mesh/core/src/transport.c.obj
 .comment       0x0000007f       0x80 examples/light_switch/provisioner/CMakeFiles/light_switch_provisioner_nrf52832_xxAA_s132_6.0.0.dir/__/__/__/mesh/core/src/event.c.obj
 .comment       0x0000007f       0x80 examples/light_switch/provisioner/CMakeFiles/light_switch_provisioner_nrf52832_xxAA_s132_6.0.0.dir/__/__/__/mesh/core/src/packet_buffer.c.obj
 .comment       0x0000007f       0x80 examples/light_switch/provisioner/CMakeFiles/light_switch_provisioner_nrf52832_xxAA_s132_6.0.0.dir/__/__/__/mesh/core/src/flash_manager_defrag.c.obj
 .comment       0x0000007f       0x80 examples/light_switch/provisioner/CMakeFiles/light_switch_provisioner_nrf52832_xxAA_s132_6.0.0.dir/__/__/__/mesh/core/src/fifo.c.obj
 .comment       0x0000007f       0x80 examples/light_switch/provisioner/CMakeFiles/light_switch_provisioner_nrf52832_xxAA_s132_6.0.0.dir/__/__/__/mesh/core/src/nrf_flash.c.obj
 .comment       0x0000007f       0x80 examples/light_switch/provisioner/CMakeFiles/light_switch_provisioner_nrf52832_xxAA_s132_6.0.0.dir/__/__/__/mesh/core/src/packet_mgr.c.obj
 .comment       0x0000007f       0x80 examples/light_switch/provisioner/CMakeFiles/light_switch_provisioner_nrf52832_xxAA_s132_6.0.0.dir/__/__/__/mesh/core/src/net_state.c.obj
 .comment       0x0000007f       0x80 examples/light_switch/provisioner/CMakeFiles/light_switch_provisioner_nrf52832_xxAA_s132_6.0.0.dir/__/__/__/mesh/core/src/mesh_flash.c.obj
 .comment       0x0000007f       0x80 examples/light_switch/provisioner/CMakeFiles/light_switch_provisioner_nrf52832_xxAA_s132_6.0.0.dir/__/__/__/mesh/core/src/nrf_mesh_utils.c.obj
 .comment       0x0000007f       0x80 examples/light_switch/provisioner/CMakeFiles/light_switch_provisioner_nrf52832_xxAA_s132_6.0.0.dir/__/__/__/mesh/core/src/nrf_mesh.c.obj
 .comment       0x0000007f       0x80 examples/light_switch/provisioner/CMakeFiles/light_switch_provisioner_nrf52832_xxAA_s132_6.0.0.dir/__/__/__/mesh/core/src/queue.c.obj
 .comment       0x0000007f       0x80 examples/light_switch/provisioner/CMakeFiles/light_switch_provisioner_nrf52832_xxAA_s132_6.0.0.dir/__/__/__/mesh/core/src/hal.c.obj
 .comment       0x0000007f       0x80 examples/light_switch/provisioner/CMakeFiles/light_switch_provisioner_nrf52832_xxAA_s132_6.0.0.dir/__/__/__/mesh/core/src/aes_cmac.c.obj
 .comment       0x0000007f       0x80 examples/light_switch/provisioner/CMakeFiles/light_switch_provisioner_nrf52832_xxAA_s132_6.0.0.dir/__/__/__/mesh/core/src/timer_scheduler.c.obj
 .comment       0x0000007f       0x80 examples/light_switch/provisioner/CMakeFiles/light_switch_provisioner_nrf52832_xxAA_s132_6.0.0.dir/__/__/__/mesh/core/src/timer.c.obj
 .comment       0x0000007f       0x80 examples/light_switch/provisioner/CMakeFiles/light_switch_provisioner_nrf52832_xxAA_s132_6.0.0.dir/__/__/__/mesh/core/src/ticker.c.obj
 .comment       0x0000007f       0x80 examples/light_switch/provisioner/CMakeFiles/light_switch_provisioner_nrf52832_xxAA_s132_6.0.0.dir/__/__/__/mesh/core/src/rand.c.obj
 .comment       0x0000007f       0x80 examples/light_switch/provisioner/CMakeFiles/light_switch_provisioner_nrf52832_xxAA_s132_6.0.0.dir/__/__/__/mesh/core/src/nrf_mesh_opt.c.obj
 .comment       0x0000007f       0x80 examples/light_switch/provisioner/CMakeFiles/light_switch_provisioner_nrf52832_xxAA_s132_6.0.0.dir/__/__/__/mesh/core/src/timeslot.c.obj
 .comment       0x0000007f       0x80 examples/light_switch/provisioner/CMakeFiles/light_switch_provisioner_nrf52832_xxAA_s132_6.0.0.dir/__/__/__/mesh/core/src/bearer_event.c.obj
 .comment       0x0000007f       0x80 examples/light_switch/provisioner/CMakeFiles/light_switch_provisioner_nrf52832_xxAA_s132_6.0.0.dir/__/__/__/mesh/core/src/enc.c.obj
 .comment       0x0000007f       0x80 examples/light_switch/provisioner/CMakeFiles/light_switch_provisioner_nrf52832_xxAA_s132_6.0.0.dir/__/__/__/mesh/core/src/network.c.obj
 .comment       0x0000007f       0x80 examples/light_switch/provisioner/CMakeFiles/light_switch_provisioner_nrf52832_xxAA_s132_6.0.0.dir/__/__/__/mesh/core/src/net_packet.c.obj
 .comment       0x0000007f       0x80 examples/light_switch/provisioner/CMakeFiles/light_switch_provisioner_nrf52832_xxAA_s132_6.0.0.dir/__/__/__/mesh/core/src/msqueue.c.obj
 .comment       0x0000007f       0x80 examples/light_switch/provisioner/CMakeFiles/light_switch_provisioner_nrf52832_xxAA_s132_6.0.0.dir/__/__/__/mesh/core/src/nrf_mesh_keygen.c.obj
 .comment       0x0000007f       0x80 examples/light_switch/provisioner/CMakeFiles/light_switch_provisioner_nrf52832_xxAA_s132_6.0.0.dir/__/__/__/mesh/core/src/list.c.obj
 .comment       0x0000007f       0x80 examples/light_switch/provisioner/CMakeFiles/light_switch_provisioner_nrf52832_xxAA_s132_6.0.0.dir/__/__/__/mesh/core/src/log.c.obj
 .comment       0x0000007f       0x80 examples/light_switch/provisioner/CMakeFiles/light_switch_provisioner_nrf52832_xxAA_s132_6.0.0.dir/__/__/__/mesh/core/src/flash_manager.c.obj
 .comment       0x0000007f       0x80 examples/light_switch/provisioner/CMakeFiles/light_switch_provisioner_nrf52832_xxAA_s132_6.0.0.dir/__/__/__/mesh/core/src/ccm_soft.c.obj
 .comment       0x0000007f       0x80 examples/light_switch/provisioner/CMakeFiles/light_switch_provisioner_nrf52832_xxAA_s132_6.0.0.dir/__/__/__/mesh/core/src/replay_cache.c.obj
 .comment       0x0000007f       0x80 examples/light_switch/provisioner/CMakeFiles/light_switch_provisioner_nrf52832_xxAA_s132_6.0.0.dir/__/__/__/mesh/core/src/beacon.c.obj
 .comment       0x0000007f       0x80 examples/light_switch/provisioner/CMakeFiles/light_switch_provisioner_nrf52832_xxAA_s132_6.0.0.dir/__/__/__/mesh/core/src/flash_manager_internal.c.obj
 .comment       0x0000007f       0x80 examples/light_switch/provisioner/CMakeFiles/light_switch_provisioner_nrf52832_xxAA_s132_6.0.0.dir/__/__/__/mesh/core/src/core_tx.c.obj
 .comment       0x0000007f       0x80 examples/light_switch/provisioner/CMakeFiles/light_switch_provisioner_nrf52832_xxAA_s132_6.0.0.dir/__/__/__/mesh/core/src/heartbeat.c.obj
 .comment       0x0000007f       0x80 examples/light_switch/provisioner/CMakeFiles/light_switch_provisioner_nrf52832_xxAA_s132_6.0.0.dir/__/__/__/mesh/core/src/net_beacon.c.obj
 .comment       0x0000007f       0x80 examples/light_switch/provisioner/CMakeFiles/light_switch_provisioner_nrf52832_xxAA_s132_6.0.0.dir/__/__/__/mesh/core/src/core_tx_adv.c.obj
 .comment       0x0000007f       0x80 examples/light_switch/provisioner/CMakeFiles/light_switch_provisioner_nrf52832_xxAA_s132_6.0.0.dir/__/__/__/mesh/bearer/src/ad_listener.c.obj
 .comment       0x0000007f       0x80 examples/light_switch/provisioner/CMakeFiles/light_switch_provisioner_nrf52832_xxAA_s132_6.0.0.dir/__/__/__/mesh/bearer/src/ad_type_filter.c.obj
 .comment       0x0000007f       0x80 examples/light_switch/provisioner/CMakeFiles/light_switch_provisioner_nrf52832_xxAA_s132_6.0.0.dir/__/__/__/mesh/bearer/src/advertiser.c.obj
 .comment       0x0000007f       0x80 examples/light_switch/provisioner/CMakeFiles/light_switch_provisioner_nrf52832_xxAA_s132_6.0.0.dir/__/__/__/mesh/bearer/src/bearer_handler.c.obj
 .comment       0x0000007f       0x80 examples/light_switch/provisioner/CMakeFiles/light_switch_provisioner_nrf52832_xxAA_s132_6.0.0.dir/__/__/__/mesh/bearer/src/broadcast.c.obj
 .comment       0x0000007f       0x80 examples/light_switch/provisioner/CMakeFiles/light_switch_provisioner_nrf52832_xxAA_s132_6.0.0.dir/__/__/__/mesh/bearer/src/filter_engine.c.obj
 .comment       0x0000007f       0x80 examples/light_switch/provisioner/CMakeFiles/light_switch_provisioner_nrf52832_xxAA_s132_6.0.0.dir/__/__/__/mesh/bearer/src/radio_config.c.obj
 .comment       0x0000007f       0x80 examples/light_switch/provisioner/CMakeFiles/light_switch_provisioner_nrf52832_xxAA_s132_6.0.0.dir/__/__/__/mesh/bearer/src/scanner.c.obj
 .comment       0x0000007f       0x80 examples/light_switch/provisioner/CMakeFiles/light_switch_provisioner_nrf52832_xxAA_s132_6.0.0.dir/__/__/__/models/config/src/config_client.c.obj
 .comment       0x0000007f       0x80 examples/light_switch/provisioner/CMakeFiles/light_switch_provisioner_nrf52832_xxAA_s132_6.0.0.dir/__/__/__/models/config/src/composition_data.c.obj
 .comment       0x0000007f       0x80 examples/light_switch/provisioner/CMakeFiles/light_switch_provisioner_nrf52832_xxAA_s132_6.0.0.dir/__/__/__/models/config/src/config_server.c.obj
 .comment       0x0000007f       0x80 examples/light_switch/provisioner/CMakeFiles/light_switch_provisioner_nrf52832_xxAA_s132_6.0.0.dir/__/__/__/models/config/src/packed_index_list.c.obj
 .comment       0x0000007f       0x80 examples/light_switch/provisioner/CMakeFiles/light_switch_provisioner_nrf52832_xxAA_s132_6.0.0.dir/__/__/__/models/health/src/health_server.c.obj
 .comment       0x0000007f       0x80 examples/light_switch/provisioner/CMakeFiles/light_switch_provisioner_nrf52832_xxAA_s132_6.0.0.dir/__/__/__/models/health/src/health_client.c.obj
 .comment       0x0000007f       0x80 examples/light_switch/provisioner/CMakeFiles/light_switch_provisioner_nrf52832_xxAA_s132_6.0.0.dir/__/__/__/mesh/access/src/access_publish.c.obj
 .comment       0x0000007f       0x80 examples/light_switch/provisioner/CMakeFiles/light_switch_provisioner_nrf52832_xxAA_s132_6.0.0.dir/__/__/__/mesh/access/src/access.c.obj
 .comment       0x0000007f       0x80 examples/light_switch/provisioner/CMakeFiles/light_switch_provisioner_nrf52832_xxAA_s132_6.0.0.dir/__/__/__/mesh/access/src/access_reliable.c.obj
 .comment       0x0000007f       0x80 examples/light_switch/provisioner/CMakeFiles/light_switch_provisioner_nrf52832_xxAA_s132_6.0.0.dir/__/__/__/mesh/access/src/device_state_manager.c.obj
 .comment       0x0000007f       0x80 examples/light_switch/provisioner/CMakeFiles/light_switch_provisioner_nrf52832_xxAA_s132_6.0.0.dir/__/__/__/mesh/prov/src/prov_provisioner.c.obj
 .comment       0x0000007f       0x80 examples/light_switch/provisioner/CMakeFiles/light_switch_provisioner_nrf52832_xxAA_s132_6.0.0.dir/__/__/__/mesh/prov/src/nrf_mesh_prov.c.obj
 .comment       0x0000007f       0x80 examples/light_switch/provisioner/CMakeFiles/light_switch_provisioner_nrf52832_xxAA_s132_6.0.0.dir/__/__/__/mesh/prov/src/provisioning.c.obj
 .comment       0x0000007f       0x80 examples/light_switch/provisioner/CMakeFiles/light_switch_provisioner_nrf52832_xxAA_s132_6.0.0.dir/__/__/__/mesh/prov/src/prov_beacon.c.obj
 .comment       0x0000007f       0x80 examples/light_switch/provisioner/CMakeFiles/light_switch_provisioner_nrf52832_xxAA_s132_6.0.0.dir/__/__/__/mesh/prov/src/prov_utils.c.obj
 .comment       0x0000007f       0x80 examples/light_switch/provisioner/CMakeFiles/light_switch_provisioner_nrf52832_xxAA_s132_6.0.0.dir/__/__/__/mesh/prov/src/prov_bearer_adv.c.obj
 .comment       0x0000007f       0x80 examples/light_switch/provisioner/CMakeFiles/light_switch_provisioner_nrf52832_xxAA_s132_6.0.0.dir/C_/b/nRF5_SDK_15.0.0_a53641a/modules/nrfx/mdk/system_nrf52.c.obj
 .comment       0x0000007f       0x80 examples/light_switch/provisioner/CMakeFiles/light_switch_provisioner_nrf52832_xxAA_s132_6.0.0.dir/C_/b/nRF5_SDK_15.0.0_a53641a/components/libraries/util/app_error_handler_gcc.c.obj
 .comment       0x0000007f       0x80 external/rtt/librtt_nrf52832_xxAA.a(SEGGER_RTT.c.obj)
 .comment       0x0000007f       0x80 external/rtt/librtt_nrf52832_xxAA.a(SEGGER_RTT_printf.c.obj)
 .comment       0x0000007f       0x80 external/micro-ecc/libuECC_nrf52832_xxAA.a(uECC.c.obj)

.debug_info     0x00000000    0x88f73
 .debug_info    0x00000000     0x59cc examples/light_switch/provisioner/CMakeFiles/light_switch_provisioner_nrf52832_xxAA_s132_6.0.0.dir/src/main.c.obj
 .debug_info    0x000059cc     0x230b examples/light_switch/provisioner/CMakeFiles/light_switch_provisioner_nrf52832_xxAA_s132_6.0.0.dir/__/__/__/mesh/stack/src/mesh_stack.c.obj
 .debug_info    0x00007cd7     0x3957 examples/light_switch/provisioner/CMakeFiles/light_switch_provisioner_nrf52832_xxAA_s132_6.0.0.dir/src/provisioner_helper.c.obj
 .debug_info    0x0000b62e     0x3222 examples/light_switch/provisioner/CMakeFiles/light_switch_provisioner_nrf52832_xxAA_s132_6.0.0.dir/src/node_setup.c.obj
 .debug_info    0x0000e850     0x1714 examples/light_switch/provisioner/CMakeFiles/light_switch_provisioner_nrf52832_xxAA_s132_6.0.0.dir/__/__/common/src/mesh_softdevice_init.c.obj
 .debug_info    0x0000ff64     0x116f examples/light_switch/provisioner/CMakeFiles/light_switch_provisioner_nrf52832_xxAA_s132_6.0.0.dir/__/__/common/src/rtt_input.c.obj
 .debug_info    0x000110d3     0x156c examples/light_switch/provisioner/CMakeFiles/light_switch_provisioner_nrf52832_xxAA_s132_6.0.0.dir/__/__/common/src/simple_hal.c.obj
 .debug_info    0x0001263f      0x924 examples/light_switch/provisioner/CMakeFiles/light_switch_provisioner_nrf52832_xxAA_s132_6.0.0.dir/__/__/nrf_mesh_weak.c.obj
 .debug_info    0x00012f63     0x106b examples/light_switch/provisioner/CMakeFiles/light_switch_provisioner_nrf52832_xxAA_s132_6.0.0.dir/__/__/common/src/app_error_weak.c.obj
 .debug_info    0x00013fce      0x99b examples/light_switch/provisioner/CMakeFiles/light_switch_provisioner_nrf52832_xxAA_s132_6.0.0.dir/__/__/common/src/assertion_handler_weak.c.obj
 .debug_info    0x00014969      0xd04 examples/light_switch/provisioner/CMakeFiles/light_switch_provisioner_nrf52832_xxAA_s132_6.0.0.dir/__/__/__/mesh/core/src/nrf_mesh_configure.c.obj
 .debug_info    0x0001566d      0xbd2 examples/light_switch/provisioner/CMakeFiles/light_switch_provisioner_nrf52832_xxAA_s132_6.0.0.dir/__/__/__/mesh/core/src/aes.c.obj
 .debug_info    0x0001623f      0xa5a examples/light_switch/provisioner/CMakeFiles/light_switch_provisioner_nrf52832_xxAA_s132_6.0.0.dir/__/__/__/mesh/core/src/msg_cache.c.obj
 .debug_info    0x00016c99     0x5086 examples/light_switch/provisioner/CMakeFiles/light_switch_provisioner_nrf52832_xxAA_s132_6.0.0.dir/__/__/__/mesh/core/src/transport.c.obj
 .debug_info    0x0001bd1f     0x171f examples/light_switch/provisioner/CMakeFiles/light_switch_provisioner_nrf52832_xxAA_s132_6.0.0.dir/__/__/__/mesh/core/src/event.c.obj
 .debug_info    0x0001d43e     0x1927 examples/light_switch/provisioner/CMakeFiles/light_switch_provisioner_nrf52832_xxAA_s132_6.0.0.dir/__/__/__/mesh/core/src/packet_buffer.c.obj
 .debug_info    0x0001ed65     0x1fec examples/light_switch/provisioner/CMakeFiles/light_switch_provisioner_nrf52832_xxAA_s132_6.0.0.dir/__/__/__/mesh/core/src/flash_manager_defrag.c.obj
 .debug_info    0x00020d51      0xd19 examples/light_switch/provisioner/CMakeFiles/light_switch_provisioner_nrf52832_xxAA_s132_6.0.0.dir/__/__/__/mesh/core/src/fifo.c.obj
 .debug_info    0x00021a6a      0xb20 examples/light_switch/provisioner/CMakeFiles/light_switch_provisioner_nrf52832_xxAA_s132_6.0.0.dir/__/__/__/mesh/core/src/nrf_flash.c.obj
 .debug_info    0x0002258a     0x118d examples/light_switch/provisioner/CMakeFiles/light_switch_provisioner_nrf52832_xxAA_s132_6.0.0.dir/__/__/__/mesh/core/src/packet_mgr.c.obj
 .debug_info    0x00023717     0x27ed examples/light_switch/provisioner/CMakeFiles/light_switch_provisioner_nrf52832_xxAA_s132_6.0.0.dir/__/__/__/mesh/core/src/net_state.c.obj
 .debug_info    0x00025f04     0x1931 examples/light_switch/provisioner/CMakeFiles/light_switch_provisioner_nrf52832_xxAA_s132_6.0.0.dir/__/__/__/mesh/core/src/mesh_flash.c.obj
 .debug_info    0x00027835      0xa78 examples/light_switch/provisioner/CMakeFiles/light_switch_provisioner_nrf52832_xxAA_s132_6.0.0.dir/__/__/__/mesh/core/src/nrf_mesh_utils.c.obj
 .debug_info    0x000282ad     0x25a6 examples/light_switch/provisioner/CMakeFiles/light_switch_provisioner_nrf52832_xxAA_s132_6.0.0.dir/__/__/__/mesh/core/src/nrf_mesh.c.obj
 .debug_info    0x0002a853      0xb11 examples/light_switch/provisioner/CMakeFiles/light_switch_provisioner_nrf52832_xxAA_s132_6.0.0.dir/__/__/__/mesh/core/src/queue.c.obj
 .debug_info    0x0002b364      0x54f examples/light_switch/provisioner/CMakeFiles/light_switch_provisioner_nrf52832_xxAA_s132_6.0.0.dir/__/__/__/mesh/core/src/hal.c.obj
 .debug_info    0x0002b8b3      0xe48 examples/light_switch/provisioner/CMakeFiles/light_switch_provisioner_nrf52832_xxAA_s132_6.0.0.dir/__/__/__/mesh/core/src/aes_cmac.c.obj
 .debug_info    0x0002c6fb     0x10e0 examples/light_switch/provisioner/CMakeFiles/light_switch_provisioner_nrf52832_xxAA_s132_6.0.0.dir/__/__/__/mesh/core/src/timer_scheduler.c.obj
 .debug_info    0x0002d7db      0xd90 examples/light_switch/provisioner/CMakeFiles/light_switch_provisioner_nrf52832_xxAA_s132_6.0.0.dir/__/__/__/mesh/core/src/timer.c.obj
 .debug_info    0x0002e56b      0x20b examples/light_switch/provisioner/CMakeFiles/light_switch_provisioner_nrf52832_xxAA_s132_6.0.0.dir/__/__/__/mesh/core/src/ticker.c.obj
 .debug_info    0x0002e776      0x408 examples/light_switch/provisioner/CMakeFiles/light_switch_provisioner_nrf52832_xxAA_s132_6.0.0.dir/__/__/__/mesh/core/src/rand.c.obj
 .debug_info    0x0002eb7e      0xaf5 examples/light_switch/provisioner/CMakeFiles/light_switch_provisioner_nrf52832_xxAA_s132_6.0.0.dir/__/__/__/mesh/core/src/nrf_mesh_opt.c.obj
 .debug_info    0x0002f673     0x1a1c examples/light_switch/provisioner/CMakeFiles/light_switch_provisioner_nrf52832_xxAA_s132_6.0.0.dir/__/__/__/mesh/core/src/timeslot.c.obj
 .debug_info    0x0003108f     0x1a78 examples/light_switch/provisioner/CMakeFiles/light_switch_provisioner_nrf52832_xxAA_s132_6.0.0.dir/__/__/__/mesh/core/src/bearer_event.c.obj
 .debug_info    0x00032b07     0x1703 examples/light_switch/provisioner/CMakeFiles/light_switch_provisioner_nrf52832_xxAA_s132_6.0.0.dir/__/__/__/mesh/core/src/enc.c.obj
 .debug_info    0x0003420a     0x1acb examples/light_switch/provisioner/CMakeFiles/light_switch_provisioner_nrf52832_xxAA_s132_6.0.0.dir/__/__/__/mesh/core/src/network.c.obj
 .debug_info    0x00035cd5     0x1cad examples/light_switch/provisioner/CMakeFiles/light_switch_provisioner_nrf52832_xxAA_s132_6.0.0.dir/__/__/__/mesh/core/src/net_packet.c.obj
 .debug_info    0x00037982      0xd86 examples/light_switch/provisioner/CMakeFiles/light_switch_provisioner_nrf52832_xxAA_s132_6.0.0.dir/__/__/__/mesh/core/src/msqueue.c.obj
 .debug_info    0x00038708      0x4c7 examples/light_switch/provisioner/CMakeFiles/light_switch_provisioner_nrf52832_xxAA_s132_6.0.0.dir/__/__/__/mesh/core/src/nrf_mesh_keygen.c.obj
 .debug_info    0x00038bcf      0x506 examples/light_switch/provisioner/CMakeFiles/light_switch_provisioner_nrf52832_xxAA_s132_6.0.0.dir/__/__/__/mesh/core/src/list.c.obj
 .debug_info    0x000390d5      0xe28 examples/light_switch/provisioner/CMakeFiles/light_switch_provisioner_nrf52832_xxAA_s132_6.0.0.dir/__/__/__/mesh/core/src/log.c.obj
 .debug_info    0x00039efd     0x3024 examples/light_switch/provisioner/CMakeFiles/light_switch_provisioner_nrf52832_xxAA_s132_6.0.0.dir/__/__/__/mesh/core/src/flash_manager.c.obj
 .debug_info    0x0003cf21     0x10a3 examples/light_switch/provisioner/CMakeFiles/light_switch_provisioner_nrf52832_xxAA_s132_6.0.0.dir/__/__/__/mesh/core/src/ccm_soft.c.obj
 .debug_info    0x0003dfc4      0xa95 examples/light_switch/provisioner/CMakeFiles/light_switch_provisioner_nrf52832_xxAA_s132_6.0.0.dir/__/__/__/mesh/core/src/replay_cache.c.obj
 .debug_info    0x0003ea59     0x177f examples/light_switch/provisioner/CMakeFiles/light_switch_provisioner_nrf52832_xxAA_s132_6.0.0.dir/__/__/__/mesh/core/src/beacon.c.obj
 .debug_info    0x000401d8      0xb9b examples/light_switch/provisioner/CMakeFiles/light_switch_provisioner_nrf52832_xxAA_s132_6.0.0.dir/__/__/__/mesh/core/src/flash_manager_internal.c.obj
 .debug_info    0x00040d73     0x126f examples/light_switch/provisioner/CMakeFiles/light_switch_provisioner_nrf52832_xxAA_s132_6.0.0.dir/__/__/__/mesh/core/src/core_tx.c.obj
 .debug_info    0x00041fe2     0x24d8 examples/light_switch/provisioner/CMakeFiles/light_switch_provisioner_nrf52832_xxAA_s132_6.0.0.dir/__/__/__/mesh/core/src/heartbeat.c.obj
 .debug_info    0x000444ba     0x28ac examples/light_switch/provisioner/CMakeFiles/light_switch_provisioner_nrf52832_xxAA_s132_6.0.0.dir/__/__/__/mesh/core/src/net_beacon.c.obj
 .debug_info    0x00046d66     0x197b examples/light_switch/provisioner/CMakeFiles/light_switch_provisioner_nrf52832_xxAA_s132_6.0.0.dir/__/__/__/mesh/core/src/core_tx_adv.c.obj
 .debug_info    0x000486e1     0x1164 examples/light_switch/provisioner/CMakeFiles/light_switch_provisioner_nrf52832_xxAA_s132_6.0.0.dir/__/__/__/mesh/bearer/src/ad_listener.c.obj
 .debug_info    0x00049845      0xfbe examples/light_switch/provisioner/CMakeFiles/light_switch_provisioner_nrf52832_xxAA_s132_6.0.0.dir/__/__/__/mesh/bearer/src/ad_type_filter.c.obj
 .debug_info    0x0004a803     0x2584 examples/light_switch/provisioner/CMakeFiles/light_switch_provisioner_nrf52832_xxAA_s132_6.0.0.dir/__/__/__/mesh/bearer/src/advertiser.c.obj
 .debug_info    0x0004cd87     0x19de examples/light_switch/provisioner/CMakeFiles/light_switch_provisioner_nrf52832_xxAA_s132_6.0.0.dir/__/__/__/mesh/bearer/src/bearer_handler.c.obj
 .debug_info    0x0004e765     0x19a6 examples/light_switch/provisioner/CMakeFiles/light_switch_provisioner_nrf52832_xxAA_s132_6.0.0.dir/__/__/__/mesh/bearer/src/broadcast.c.obj
 .debug_info    0x0005010b      0xcff examples/light_switch/provisioner/CMakeFiles/light_switch_provisioner_nrf52832_xxAA_s132_6.0.0.dir/__/__/__/mesh/bearer/src/filter_engine.c.obj
 .debug_info    0x00050e0a      0x8e4 examples/light_switch/provisioner/CMakeFiles/light_switch_provisioner_nrf52832_xxAA_s132_6.0.0.dir/__/__/__/mesh/bearer/src/radio_config.c.obj
 .debug_info    0x000516ee     0x262e examples/light_switch/provisioner/CMakeFiles/light_switch_provisioner_nrf52832_xxAA_s132_6.0.0.dir/__/__/__/mesh/bearer/src/scanner.c.obj
 .debug_info    0x00053d1c     0x44aa examples/light_switch/provisioner/CMakeFiles/light_switch_provisioner_nrf52832_xxAA_s132_6.0.0.dir/__/__/__/models/config/src/config_client.c.obj
 .debug_info    0x000581c6      0xed3 examples/light_switch/provisioner/CMakeFiles/light_switch_provisioner_nrf52832_xxAA_s132_6.0.0.dir/__/__/__/models/config/src/composition_data.c.obj
 .debug_info    0x00059099     0x8a98 examples/light_switch/provisioner/CMakeFiles/light_switch_provisioner_nrf52832_xxAA_s132_6.0.0.dir/__/__/__/models/config/src/config_server.c.obj
 .debug_info    0x00061b31      0x126 examples/light_switch/provisioner/CMakeFiles/light_switch_provisioner_nrf52832_xxAA_s132_6.0.0.dir/__/__/__/models/config/src/packed_index_list.c.obj
 .debug_info    0x00061c57     0x270a examples/light_switch/provisioner/CMakeFiles/light_switch_provisioner_nrf52832_xxAA_s132_6.0.0.dir/__/__/__/models/health/src/health_server.c.obj
 .debug_info    0x00064361     0x1d76 examples/light_switch/provisioner/CMakeFiles/light_switch_provisioner_nrf52832_xxAA_s132_6.0.0.dir/__/__/__/models/health/src/health_client.c.obj
 .debug_info    0x000660d7     0x1155 examples/light_switch/provisioner/CMakeFiles/light_switch_provisioner_nrf52832_xxAA_s132_6.0.0.dir/__/__/__/mesh/access/src/access_publish.c.obj
 .debug_info    0x0006722c     0x49e7 examples/light_switch/provisioner/CMakeFiles/light_switch_provisioner_nrf52832_xxAA_s132_6.0.0.dir/__/__/__/mesh/access/src/access.c.obj
 .debug_info    0x0006bc13     0x19db examples/light_switch/provisioner/CMakeFiles/light_switch_provisioner_nrf52832_xxAA_s132_6.0.0.dir/__/__/__/mesh/access/src/access_reliable.c.obj
 .debug_info    0x0006d5ee     0x6557 examples/light_switch/provisioner/CMakeFiles/light_switch_provisioner_nrf52832_xxAA_s132_6.0.0.dir/__/__/__/mesh/access/src/device_state_manager.c.obj
 .debug_info    0x00073b45     0x2438 examples/light_switch/provisioner/CMakeFiles/light_switch_provisioner_nrf52832_xxAA_s132_6.0.0.dir/__/__/__/mesh/prov/src/prov_provisioner.c.obj
 .debug_info    0x00075f7d     0x1ed2 examples/light_switch/provisioner/CMakeFiles/light_switch_provisioner_nrf52832_xxAA_s132_6.0.0.dir/__/__/__/mesh/prov/src/nrf_mesh_prov.c.obj
 .debug_info    0x00077e4f     0x1586 examples/light_switch/provisioner/CMakeFiles/light_switch_provisioner_nrf52832_xxAA_s132_6.0.0.dir/__/__/__/mesh/prov/src/provisioning.c.obj
 .debug_info    0x000793d5     0x1a48 examples/light_switch/provisioner/CMakeFiles/light_switch_provisioner_nrf52832_xxAA_s132_6.0.0.dir/__/__/__/mesh/prov/src/prov_beacon.c.obj
 .debug_info    0x0007ae1d     0x2054 examples/light_switch/provisioner/CMakeFiles/light_switch_provisioner_nrf52832_xxAA_s132_6.0.0.dir/__/__/__/mesh/prov/src/prov_utils.c.obj
 .debug_info    0x0007ce71     0x3ab2 examples/light_switch/provisioner/CMakeFiles/light_switch_provisioner_nrf52832_xxAA_s132_6.0.0.dir/__/__/__/mesh/prov/src/prov_bearer_adv.c.obj
 .debug_info    0x00080923     0x10f2 examples/light_switch/provisioner/CMakeFiles/light_switch_provisioner_nrf52832_xxAA_s132_6.0.0.dir/C_/b/nRF5_SDK_15.0.0_a53641a/modules/nrfx/mdk/system_nrf52.c.obj
 .debug_info    0x00081a15      0x974 examples/light_switch/provisioner/CMakeFiles/light_switch_provisioner_nrf52832_xxAA_s132_6.0.0.dir/C_/b/nRF5_SDK_15.0.0_a53641a/components/libraries/util/app_error_handler_gcc.c.obj
 .debug_info    0x00082389     0x1818 external/rtt/librtt_nrf52832_xxAA.a(SEGGER_RTT.c.obj)
 .debug_info    0x00083ba1      0xec1 external/rtt/librtt_nrf52832_xxAA.a(SEGGER_RTT_printf.c.obj)
 .debug_info    0x00084a62     0x4511 external/micro-ecc/libuECC_nrf52832_xxAA.a(uECC.c.obj)

.debug_abbrev   0x00000000    0x11412
 .debug_abbrev  0x00000000      0x623 examples/light_switch/provisioner/CMakeFiles/light_switch_provisioner_nrf52832_xxAA_s132_6.0.0.dir/src/main.c.obj
 .debug_abbrev  0x00000623      0x36b examples/light_switch/provisioner/CMakeFiles/light_switch_provisioner_nrf52832_xxAA_s132_6.0.0.dir/__/__/__/mesh/stack/src/mesh_stack.c.obj
 .debug_abbrev  0x0000098e      0x43d examples/light_switch/provisioner/CMakeFiles/light_switch_provisioner_nrf52832_xxAA_s132_6.0.0.dir/src/provisioner_helper.c.obj
 .debug_abbrev  0x00000dcb      0x4e3 examples/light_switch/provisioner/CMakeFiles/light_switch_provisioner_nrf52832_xxAA_s132_6.0.0.dir/src/node_setup.c.obj
 .debug_abbrev  0x000012ae      0x40b examples/light_switch/provisioner/CMakeFiles/light_switch_provisioner_nrf52832_xxAA_s132_6.0.0.dir/__/__/common/src/mesh_softdevice_init.c.obj
 .debug_abbrev  0x000016b9      0x2b8 examples/light_switch/provisioner/CMakeFiles/light_switch_provisioner_nrf52832_xxAA_s132_6.0.0.dir/__/__/common/src/rtt_input.c.obj
 .debug_abbrev  0x00001971      0x36b examples/light_switch/provisioner/CMakeFiles/light_switch_provisioner_nrf52832_xxAA_s132_6.0.0.dir/__/__/common/src/simple_hal.c.obj
 .debug_abbrev  0x00001cdc      0x1ae examples/light_switch/provisioner/CMakeFiles/light_switch_provisioner_nrf52832_xxAA_s132_6.0.0.dir/__/__/nrf_mesh_weak.c.obj
 .debug_abbrev  0x00001e8a      0x2de examples/light_switch/provisioner/CMakeFiles/light_switch_provisioner_nrf52832_xxAA_s132_6.0.0.dir/__/__/common/src/app_error_weak.c.obj
 .debug_abbrev  0x00002168      0x1f6 examples/light_switch/provisioner/CMakeFiles/light_switch_provisioner_nrf52832_xxAA_s132_6.0.0.dir/__/__/common/src/assertion_handler_weak.c.obj
 .debug_abbrev  0x0000235e      0x24b examples/light_switch/provisioner/CMakeFiles/light_switch_provisioner_nrf52832_xxAA_s132_6.0.0.dir/__/__/__/mesh/core/src/nrf_mesh_configure.c.obj
 .debug_abbrev  0x000025a9      0x264 examples/light_switch/provisioner/CMakeFiles/light_switch_provisioner_nrf52832_xxAA_s132_6.0.0.dir/__/__/__/mesh/core/src/aes.c.obj
 .debug_abbrev  0x0000280d      0x25d examples/light_switch/provisioner/CMakeFiles/light_switch_provisioner_nrf52832_xxAA_s132_6.0.0.dir/__/__/__/mesh/core/src/msg_cache.c.obj
 .debug_abbrev  0x00002a6a      0x5e8 examples/light_switch/provisioner/CMakeFiles/light_switch_provisioner_nrf52832_xxAA_s132_6.0.0.dir/__/__/__/mesh/core/src/transport.c.obj
 .debug_abbrev  0x00003052      0x2be examples/light_switch/provisioner/CMakeFiles/light_switch_provisioner_nrf52832_xxAA_s132_6.0.0.dir/__/__/__/mesh/core/src/event.c.obj
 .debug_abbrev  0x00003310      0x45f examples/light_switch/provisioner/CMakeFiles/light_switch_provisioner_nrf52832_xxAA_s132_6.0.0.dir/__/__/__/mesh/core/src/packet_buffer.c.obj
 .debug_abbrev  0x0000376f      0x50e examples/light_switch/provisioner/CMakeFiles/light_switch_provisioner_nrf52832_xxAA_s132_6.0.0.dir/__/__/__/mesh/core/src/flash_manager_defrag.c.obj
 .debug_abbrev  0x00003c7d      0x2f2 examples/light_switch/provisioner/CMakeFiles/light_switch_provisioner_nrf52832_xxAA_s132_6.0.0.dir/__/__/__/mesh/core/src/fifo.c.obj
 .debug_abbrev  0x00003f6f      0x21f examples/light_switch/provisioner/CMakeFiles/light_switch_provisioner_nrf52832_xxAA_s132_6.0.0.dir/__/__/__/mesh/core/src/nrf_flash.c.obj
 .debug_abbrev  0x0000418e      0x3b1 examples/light_switch/provisioner/CMakeFiles/light_switch_provisioner_nrf52832_xxAA_s132_6.0.0.dir/__/__/__/mesh/core/src/packet_mgr.c.obj
 .debug_abbrev  0x0000453f      0x552 examples/light_switch/provisioner/CMakeFiles/light_switch_provisioner_nrf52832_xxAA_s132_6.0.0.dir/__/__/__/mesh/core/src/net_state.c.obj
 .debug_abbrev  0x00004a91      0x453 examples/light_switch/provisioner/CMakeFiles/light_switch_provisioner_nrf52832_xxAA_s132_6.0.0.dir/__/__/__/mesh/core/src/mesh_flash.c.obj
 .debug_abbrev  0x00004ee4      0x242 examples/light_switch/provisioner/CMakeFiles/light_switch_provisioner_nrf52832_xxAA_s132_6.0.0.dir/__/__/__/mesh/core/src/nrf_mesh_utils.c.obj
 .debug_abbrev  0x00005126      0x476 examples/light_switch/provisioner/CMakeFiles/light_switch_provisioner_nrf52832_xxAA_s132_6.0.0.dir/__/__/__/mesh/core/src/nrf_mesh.c.obj
 .debug_abbrev  0x0000559c      0x247 examples/light_switch/provisioner/CMakeFiles/light_switch_provisioner_nrf52832_xxAA_s132_6.0.0.dir/__/__/__/mesh/core/src/queue.c.obj
 .debug_abbrev  0x000057e3      0x1eb examples/light_switch/provisioner/CMakeFiles/light_switch_provisioner_nrf52832_xxAA_s132_6.0.0.dir/__/__/__/mesh/core/src/hal.c.obj
 .debug_abbrev  0x000059ce      0x332 examples/light_switch/provisioner/CMakeFiles/light_switch_provisioner_nrf52832_xxAA_s132_6.0.0.dir/__/__/__/mesh/core/src/aes_cmac.c.obj
 .debug_abbrev  0x00005d00      0x3bc examples/light_switch/provisioner/CMakeFiles/light_switch_provisioner_nrf52832_xxAA_s132_6.0.0.dir/__/__/__/mesh/core/src/timer_scheduler.c.obj
 .debug_abbrev  0x000060bc      0x337 examples/light_switch/provisioner/CMakeFiles/light_switch_provisioner_nrf52832_xxAA_s132_6.0.0.dir/__/__/__/mesh/core/src/timer.c.obj
 .debug_abbrev  0x000063f3      0x152 examples/light_switch/provisioner/CMakeFiles/light_switch_provisioner_nrf52832_xxAA_s132_6.0.0.dir/__/__/__/mesh/core/src/ticker.c.obj
 .debug_abbrev  0x00006545      0x194 examples/light_switch/provisioner/CMakeFiles/light_switch_provisioner_nrf52832_xxAA_s132_6.0.0.dir/__/__/__/mesh/core/src/rand.c.obj
 .debug_abbrev  0x000066d9      0x24a examples/light_switch/provisioner/CMakeFiles/light_switch_provisioner_nrf52832_xxAA_s132_6.0.0.dir/__/__/__/mesh/core/src/nrf_mesh_opt.c.obj
 .debug_abbrev  0x00006923      0x4a4 examples/light_switch/provisioner/CMakeFiles/light_switch_provisioner_nrf52832_xxAA_s132_6.0.0.dir/__/__/__/mesh/core/src/timeslot.c.obj
 .debug_abbrev  0x00006dc7      0x4b5 examples/light_switch/provisioner/CMakeFiles/light_switch_provisioner_nrf52832_xxAA_s132_6.0.0.dir/__/__/__/mesh/core/src/bearer_event.c.obj
 .debug_abbrev  0x0000727c      0x375 examples/light_switch/provisioner/CMakeFiles/light_switch_provisioner_nrf52832_xxAA_s132_6.0.0.dir/__/__/__/mesh/core/src/enc.c.obj
 .debug_abbrev  0x000075f1      0x496 examples/light_switch/provisioner/CMakeFiles/light_switch_provisioner_nrf52832_xxAA_s132_6.0.0.dir/__/__/__/mesh/core/src/network.c.obj
 .debug_abbrev  0x00007a87      0x4a1 examples/light_switch/provisioner/CMakeFiles/light_switch_provisioner_nrf52832_xxAA_s132_6.0.0.dir/__/__/__/mesh/core/src/net_packet.c.obj
 .debug_abbrev  0x00007f28      0x2c0 examples/light_switch/provisioner/CMakeFiles/light_switch_provisioner_nrf52832_xxAA_s132_6.0.0.dir/__/__/__/mesh/core/src/msqueue.c.obj
 .debug_abbrev  0x000081e8      0x156 examples/light_switch/provisioner/CMakeFiles/light_switch_provisioner_nrf52832_xxAA_s132_6.0.0.dir/__/__/__/mesh/core/src/nrf_mesh_keygen.c.obj
 .debug_abbrev  0x0000833e      0x1a4 examples/light_switch/provisioner/CMakeFiles/light_switch_provisioner_nrf52832_xxAA_s132_6.0.0.dir/__/__/__/mesh/core/src/list.c.obj
 .debug_abbrev  0x000084e2      0x24e examples/light_switch/provisioner/CMakeFiles/light_switch_provisioner_nrf52832_xxAA_s132_6.0.0.dir/__/__/__/mesh/core/src/log.c.obj
 .debug_abbrev  0x00008730      0x524 examples/light_switch/provisioner/CMakeFiles/light_switch_provisioner_nrf52832_xxAA_s132_6.0.0.dir/__/__/__/mesh/core/src/flash_manager.c.obj
 .debug_abbrev  0x00008c54      0x2b3 examples/light_switch/provisioner/CMakeFiles/light_switch_provisioner_nrf52832_xxAA_s132_6.0.0.dir/__/__/__/mesh/core/src/ccm_soft.c.obj
 .debug_abbrev  0x00008f07      0x261 examples/light_switch/provisioner/CMakeFiles/light_switch_provisioner_nrf52832_xxAA_s132_6.0.0.dir/__/__/__/mesh/core/src/replay_cache.c.obj
 .debug_abbrev  0x00009168      0x2c4 examples/light_switch/provisioner/CMakeFiles/light_switch_provisioner_nrf52832_xxAA_s132_6.0.0.dir/__/__/__/mesh/core/src/beacon.c.obj
 .debug_abbrev  0x0000942c      0x288 examples/light_switch/provisioner/CMakeFiles/light_switch_provisioner_nrf52832_xxAA_s132_6.0.0.dir/__/__/__/mesh/core/src/flash_manager_internal.c.obj
 .debug_abbrev  0x000096b4      0x2ed examples/light_switch/provisioner/CMakeFiles/light_switch_provisioner_nrf52832_xxAA_s132_6.0.0.dir/__/__/__/mesh/core/src/core_tx.c.obj
 .debug_abbrev  0x000099a1      0x4be examples/light_switch/provisioner/CMakeFiles/light_switch_provisioner_nrf52832_xxAA_s132_6.0.0.dir/__/__/__/mesh/core/src/heartbeat.c.obj
 .debug_abbrev  0x00009e5f      0x4ac examples/light_switch/provisioner/CMakeFiles/light_switch_provisioner_nrf52832_xxAA_s132_6.0.0.dir/__/__/__/mesh/core/src/net_beacon.c.obj
 .debug_abbrev  0x0000a30b      0x2fa examples/light_switch/provisioner/CMakeFiles/light_switch_provisioner_nrf52832_xxAA_s132_6.0.0.dir/__/__/__/mesh/core/src/core_tx_adv.c.obj
 .debug_abbrev  0x0000a605      0x341 examples/light_switch/provisioner/CMakeFiles/light_switch_provisioner_nrf52832_xxAA_s132_6.0.0.dir/__/__/__/mesh/bearer/src/ad_listener.c.obj
 .debug_abbrev  0x0000a946      0x368 examples/light_switch/provisioner/CMakeFiles/light_switch_provisioner_nrf52832_xxAA_s132_6.0.0.dir/__/__/__/mesh/bearer/src/ad_type_filter.c.obj
 .debug_abbrev  0x0000acae      0x4e4 examples/light_switch/provisioner/CMakeFiles/light_switch_provisioner_nrf52832_xxAA_s132_6.0.0.dir/__/__/__/mesh/bearer/src/advertiser.c.obj
 .debug_abbrev  0x0000b192      0x3e2 examples/light_switch/provisioner/CMakeFiles/light_switch_provisioner_nrf52832_xxAA_s132_6.0.0.dir/__/__/__/mesh/bearer/src/bearer_handler.c.obj
 .debug_abbrev  0x0000b574      0x3c8 examples/light_switch/provisioner/CMakeFiles/light_switch_provisioner_nrf52832_xxAA_s132_6.0.0.dir/__/__/__/mesh/bearer/src/broadcast.c.obj
 .debug_abbrev  0x0000b93c      0x2a6 examples/light_switch/provisioner/CMakeFiles/light_switch_provisioner_nrf52832_xxAA_s132_6.0.0.dir/__/__/__/mesh/bearer/src/filter_engine.c.obj
 .debug_abbrev  0x0000bbe2      0x1d5 examples/light_switch/provisioner/CMakeFiles/light_switch_provisioner_nrf52832_xxAA_s132_6.0.0.dir/__/__/__/mesh/bearer/src/radio_config.c.obj
 .debug_abbrev  0x0000bdb7      0x52a examples/light_switch/provisioner/CMakeFiles/light_switch_provisioner_nrf52832_xxAA_s132_6.0.0.dir/__/__/__/mesh/bearer/src/scanner.c.obj
 .debug_abbrev  0x0000c2e1      0x559 examples/light_switch/provisioner/CMakeFiles/light_switch_provisioner_nrf52832_xxAA_s132_6.0.0.dir/__/__/__/models/config/src/config_client.c.obj
 .debug_abbrev  0x0000c83a      0x2db examples/light_switch/provisioner/CMakeFiles/light_switch_provisioner_nrf52832_xxAA_s132_6.0.0.dir/__/__/__/models/config/src/composition_data.c.obj
 .debug_abbrev  0x0000cb15      0x54e examples/light_switch/provisioner/CMakeFiles/light_switch_provisioner_nrf52832_xxAA_s132_6.0.0.dir/__/__/__/models/config/src/config_server.c.obj
 .debug_abbrev  0x0000d063       0x95 examples/light_switch/provisioner/CMakeFiles/light_switch_provisioner_nrf52832_xxAA_s132_6.0.0.dir/__/__/__/models/config/src/packed_index_list.c.obj
 .debug_abbrev  0x0000d0f8      0x4d0 examples/light_switch/provisioner/CMakeFiles/light_switch_provisioner_nrf52832_xxAA_s132_6.0.0.dir/__/__/__/models/health/src/health_server.c.obj
 .debug_abbrev  0x0000d5c8      0x3e1 examples/light_switch/provisioner/CMakeFiles/light_switch_provisioner_nrf52832_xxAA_s132_6.0.0.dir/__/__/__/models/health/src/health_client.c.obj
 .debug_abbrev  0x0000d9a9      0x434 examples/light_switch/provisioner/CMakeFiles/light_switch_provisioner_nrf52832_xxAA_s132_6.0.0.dir/__/__/__/mesh/access/src/access_publish.c.obj
 .debug_abbrev  0x0000dddd      0x646 examples/light_switch/provisioner/CMakeFiles/light_switch_provisioner_nrf52832_xxAA_s132_6.0.0.dir/__/__/__/mesh/access/src/access.c.obj
 .debug_abbrev  0x0000e423      0x43b examples/light_switch/provisioner/CMakeFiles/light_switch_provisioner_nrf52832_xxAA_s132_6.0.0.dir/__/__/__/mesh/access/src/access_reliable.c.obj
 .debug_abbrev  0x0000e85e      0x604 examples/light_switch/provisioner/CMakeFiles/light_switch_provisioner_nrf52832_xxAA_s132_6.0.0.dir/__/__/__/mesh/access/src/device_state_manager.c.obj
 .debug_abbrev  0x0000ee62      0x40e examples/light_switch/provisioner/CMakeFiles/light_switch_provisioner_nrf52832_xxAA_s132_6.0.0.dir/__/__/__/mesh/prov/src/prov_provisioner.c.obj
 .debug_abbrev  0x0000f270      0x434 examples/light_switch/provisioner/CMakeFiles/light_switch_provisioner_nrf52832_xxAA_s132_6.0.0.dir/__/__/__/mesh/prov/src/nrf_mesh_prov.c.obj
 .debug_abbrev  0x0000f6a4      0x2a9 examples/light_switch/provisioner/CMakeFiles/light_switch_provisioner_nrf52832_xxAA_s132_6.0.0.dir/__/__/__/mesh/prov/src/provisioning.c.obj
 .debug_abbrev  0x0000f94d      0x2c8 examples/light_switch/provisioner/CMakeFiles/light_switch_provisioner_nrf52832_xxAA_s132_6.0.0.dir/__/__/__/mesh/prov/src/prov_beacon.c.obj
 .debug_abbrev  0x0000fc15      0x3ca examples/light_switch/provisioner/CMakeFiles/light_switch_provisioner_nrf52832_xxAA_s132_6.0.0.dir/__/__/__/mesh/prov/src/prov_utils.c.obj
 .debug_abbrev  0x0000ffdf      0x4eb examples/light_switch/provisioner/CMakeFiles/light_switch_provisioner_nrf52832_xxAA_s132_6.0.0.dir/__/__/__/mesh/prov/src/prov_bearer_adv.c.obj
 .debug_abbrev  0x000104ca      0x200 examples/light_switch/provisioner/CMakeFiles/light_switch_provisioner_nrf52832_xxAA_s132_6.0.0.dir/C_/b/nRF5_SDK_15.0.0_a53641a/modules/nrfx/mdk/system_nrf52.c.obj
 .debug_abbrev  0x000106ca      0x1bd examples/light_switch/provisioner/CMakeFiles/light_switch_provisioner_nrf52832_xxAA_s132_6.0.0.dir/C_/b/nRF5_SDK_15.0.0_a53641a/components/libraries/util/app_error_handler_gcc.c.obj
 .debug_abbrev  0x00010887      0x3a9 external/rtt/librtt_nrf52832_xxAA.a(SEGGER_RTT.c.obj)
 .debug_abbrev  0x00010c30      0x32e external/rtt/librtt_nrf52832_xxAA.a(SEGGER_RTT_printf.c.obj)
 .debug_abbrev  0x00010f5e      0x4b4 external/micro-ecc/libuECC_nrf52832_xxAA.a(uECC.c.obj)

.debug_loc      0x00000000    0x26508
 .debug_loc     0x00000000      0x85d examples/light_switch/provisioner/CMakeFiles/light_switch_provisioner_nrf52832_xxAA_s132_6.0.0.dir/src/main.c.obj
 .debug_loc     0x0000085d      0x192 examples/light_switch/provisioner/CMakeFiles/light_switch_provisioner_nrf52832_xxAA_s132_6.0.0.dir/__/__/__/mesh/stack/src/mesh_stack.c.obj
 .debug_loc     0x000009ef      0x4d4 examples/light_switch/provisioner/CMakeFiles/light_switch_provisioner_nrf52832_xxAA_s132_6.0.0.dir/src/provisioner_helper.c.obj
 .debug_loc     0x00000ec3      0x8dc examples/light_switch/provisioner/CMakeFiles/light_switch_provisioner_nrf52832_xxAA_s132_6.0.0.dir/src/node_setup.c.obj
 .debug_loc     0x0000179f      0x1b3 examples/light_switch/provisioner/CMakeFiles/light_switch_provisioner_nrf52832_xxAA_s132_6.0.0.dir/__/__/common/src/mesh_softdevice_init.c.obj
 .debug_loc     0x00001952       0xa5 examples/light_switch/provisioner/CMakeFiles/light_switch_provisioner_nrf52832_xxAA_s132_6.0.0.dir/__/__/common/src/rtt_input.c.obj
 .debug_loc     0x000019f7      0x277 examples/light_switch/provisioner/CMakeFiles/light_switch_provisioner_nrf52832_xxAA_s132_6.0.0.dir/__/__/common/src/simple_hal.c.obj
 .debug_loc     0x00001c6e      0x18c examples/light_switch/provisioner/CMakeFiles/light_switch_provisioner_nrf52832_xxAA_s132_6.0.0.dir/__/__/common/src/app_error_weak.c.obj
 .debug_loc     0x00001dfa       0x2c examples/light_switch/provisioner/CMakeFiles/light_switch_provisioner_nrf52832_xxAA_s132_6.0.0.dir/__/__/common/src/assertion_handler_weak.c.obj
 .debug_loc     0x00001e26       0x2c examples/light_switch/provisioner/CMakeFiles/light_switch_provisioner_nrf52832_xxAA_s132_6.0.0.dir/__/__/__/mesh/core/src/nrf_mesh_configure.c.obj
 .debug_loc     0x00001e52       0x89 examples/light_switch/provisioner/CMakeFiles/light_switch_provisioner_nrf52832_xxAA_s132_6.0.0.dir/__/__/__/mesh/core/src/aes.c.obj
 .debug_loc     0x00001edb      0x10d examples/light_switch/provisioner/CMakeFiles/light_switch_provisioner_nrf52832_xxAA_s132_6.0.0.dir/__/__/__/mesh/core/src/msg_cache.c.obj
 .debug_loc     0x00001fe8     0x259a examples/light_switch/provisioner/CMakeFiles/light_switch_provisioner_nrf52832_xxAA_s132_6.0.0.dir/__/__/__/mesh/core/src/transport.c.obj
 .debug_loc     0x00004582       0xff examples/light_switch/provisioner/CMakeFiles/light_switch_provisioner_nrf52832_xxAA_s132_6.0.0.dir/__/__/__/mesh/core/src/event.c.obj
 .debug_loc     0x00004681      0x816 examples/light_switch/provisioner/CMakeFiles/light_switch_provisioner_nrf52832_xxAA_s132_6.0.0.dir/__/__/__/mesh/core/src/packet_buffer.c.obj
 .debug_loc     0x00004e97      0x7fe examples/light_switch/provisioner/CMakeFiles/light_switch_provisioner_nrf52832_xxAA_s132_6.0.0.dir/__/__/__/mesh/core/src/flash_manager_defrag.c.obj
 .debug_loc     0x00005695      0x4f6 examples/light_switch/provisioner/CMakeFiles/light_switch_provisioner_nrf52832_xxAA_s132_6.0.0.dir/__/__/__/mesh/core/src/fifo.c.obj
 .debug_loc     0x00005b8b      0x17a examples/light_switch/provisioner/CMakeFiles/light_switch_provisioner_nrf52832_xxAA_s132_6.0.0.dir/__/__/__/mesh/core/src/nrf_flash.c.obj
 .debug_loc     0x00005d05      0x6c1 examples/light_switch/provisioner/CMakeFiles/light_switch_provisioner_nrf52832_xxAA_s132_6.0.0.dir/__/__/__/mesh/core/src/packet_mgr.c.obj
 .debug_loc     0x000063c6      0x936 examples/light_switch/provisioner/CMakeFiles/light_switch_provisioner_nrf52832_xxAA_s132_6.0.0.dir/__/__/__/mesh/core/src/net_state.c.obj
 .debug_loc     0x00006cfc      0x8be examples/light_switch/provisioner/CMakeFiles/light_switch_provisioner_nrf52832_xxAA_s132_6.0.0.dir/__/__/__/mesh/core/src/mesh_flash.c.obj
 .debug_loc     0x000075ba       0xf8 examples/light_switch/provisioner/CMakeFiles/light_switch_provisioner_nrf52832_xxAA_s132_6.0.0.dir/__/__/__/mesh/core/src/nrf_mesh_utils.c.obj
 .debug_loc     0x000076b2      0x4f8 examples/light_switch/provisioner/CMakeFiles/light_switch_provisioner_nrf52832_xxAA_s132_6.0.0.dir/__/__/__/mesh/core/src/nrf_mesh.c.obj
 .debug_loc     0x00007baa       0xf5 examples/light_switch/provisioner/CMakeFiles/light_switch_provisioner_nrf52832_xxAA_s132_6.0.0.dir/__/__/__/mesh/core/src/queue.c.obj
 .debug_loc     0x00007c9f       0x84 examples/light_switch/provisioner/CMakeFiles/light_switch_provisioner_nrf52832_xxAA_s132_6.0.0.dir/__/__/__/mesh/core/src/hal.c.obj
 .debug_loc     0x00007d23      0x3f8 examples/light_switch/provisioner/CMakeFiles/light_switch_provisioner_nrf52832_xxAA_s132_6.0.0.dir/__/__/__/mesh/core/src/aes_cmac.c.obj
 .debug_loc     0x0000811b      0x2d1 examples/light_switch/provisioner/CMakeFiles/light_switch_provisioner_nrf52832_xxAA_s132_6.0.0.dir/__/__/__/mesh/core/src/timer_scheduler.c.obj
 .debug_loc     0x000083ec      0x5f9 examples/light_switch/provisioner/CMakeFiles/light_switch_provisioner_nrf52832_xxAA_s132_6.0.0.dir/__/__/__/mesh/core/src/timer.c.obj
 .debug_loc     0x000089e5      0x14e examples/light_switch/provisioner/CMakeFiles/light_switch_provisioner_nrf52832_xxAA_s132_6.0.0.dir/__/__/__/mesh/core/src/rand.c.obj
 .debug_loc     0x00008b33      0x194 examples/light_switch/provisioner/CMakeFiles/light_switch_provisioner_nrf52832_xxAA_s132_6.0.0.dir/__/__/__/mesh/core/src/nrf_mesh_opt.c.obj
 .debug_loc     0x00008cc7      0x344 examples/light_switch/provisioner/CMakeFiles/light_switch_provisioner_nrf52832_xxAA_s132_6.0.0.dir/__/__/__/mesh/core/src/timeslot.c.obj
 .debug_loc     0x0000900b      0x526 examples/light_switch/provisioner/CMakeFiles/light_switch_provisioner_nrf52832_xxAA_s132_6.0.0.dir/__/__/__/mesh/core/src/bearer_event.c.obj
 .debug_loc     0x00009531      0x8c1 examples/light_switch/provisioner/CMakeFiles/light_switch_provisioner_nrf52832_xxAA_s132_6.0.0.dir/__/__/__/mesh/core/src/enc.c.obj
 .debug_loc     0x00009df2      0x5da examples/light_switch/provisioner/CMakeFiles/light_switch_provisioner_nrf52832_xxAA_s132_6.0.0.dir/__/__/__/mesh/core/src/network.c.obj
 .debug_loc     0x0000a3cc      0x817 examples/light_switch/provisioner/CMakeFiles/light_switch_provisioner_nrf52832_xxAA_s132_6.0.0.dir/__/__/__/mesh/core/src/net_packet.c.obj
 .debug_loc     0x0000abe3      0x2ed examples/light_switch/provisioner/CMakeFiles/light_switch_provisioner_nrf52832_xxAA_s132_6.0.0.dir/__/__/__/mesh/core/src/msqueue.c.obj
 .debug_loc     0x0000aed0      0x1ee examples/light_switch/provisioner/CMakeFiles/light_switch_provisioner_nrf52832_xxAA_s132_6.0.0.dir/__/__/__/mesh/core/src/nrf_mesh_keygen.c.obj
 .debug_loc     0x0000b0be      0x3bf examples/light_switch/provisioner/CMakeFiles/light_switch_provisioner_nrf52832_xxAA_s132_6.0.0.dir/__/__/__/mesh/core/src/list.c.obj
 .debug_loc     0x0000b47d      0x348 examples/light_switch/provisioner/CMakeFiles/light_switch_provisioner_nrf52832_xxAA_s132_6.0.0.dir/__/__/__/mesh/core/src/log.c.obj
 .debug_loc     0x0000b7c5     0x1439 examples/light_switch/provisioner/CMakeFiles/light_switch_provisioner_nrf52832_xxAA_s132_6.0.0.dir/__/__/__/mesh/core/src/flash_manager.c.obj
 .debug_loc     0x0000cbfe      0x371 examples/light_switch/provisioner/CMakeFiles/light_switch_provisioner_nrf52832_xxAA_s132_6.0.0.dir/__/__/__/mesh/core/src/ccm_soft.c.obj
 .debug_loc     0x0000cf6f      0x157 examples/light_switch/provisioner/CMakeFiles/light_switch_provisioner_nrf52832_xxAA_s132_6.0.0.dir/__/__/__/mesh/core/src/replay_cache.c.obj
 .debug_loc     0x0000d0c6      0x30d examples/light_switch/provisioner/CMakeFiles/light_switch_provisioner_nrf52832_xxAA_s132_6.0.0.dir/__/__/__/mesh/core/src/beacon.c.obj
 .debug_loc     0x0000d3d3       0xe3 examples/light_switch/provisioner/CMakeFiles/light_switch_provisioner_nrf52832_xxAA_s132_6.0.0.dir/__/__/__/mesh/core/src/flash_manager_internal.c.obj
 .debug_loc     0x0000d4b6      0x3c5 examples/light_switch/provisioner/CMakeFiles/light_switch_provisioner_nrf52832_xxAA_s132_6.0.0.dir/__/__/__/mesh/core/src/core_tx.c.obj
 .debug_loc     0x0000d87b      0x570 examples/light_switch/provisioner/CMakeFiles/light_switch_provisioner_nrf52832_xxAA_s132_6.0.0.dir/__/__/__/mesh/core/src/heartbeat.c.obj
 .debug_loc     0x0000ddeb      0x5f5 examples/light_switch/provisioner/CMakeFiles/light_switch_provisioner_nrf52832_xxAA_s132_6.0.0.dir/__/__/__/mesh/core/src/net_beacon.c.obj
 .debug_loc     0x0000e3e0      0x3ca examples/light_switch/provisioner/CMakeFiles/light_switch_provisioner_nrf52832_xxAA_s132_6.0.0.dir/__/__/__/mesh/core/src/core_tx_adv.c.obj
 .debug_loc     0x0000e7aa      0x42e examples/light_switch/provisioner/CMakeFiles/light_switch_provisioner_nrf52832_xxAA_s132_6.0.0.dir/__/__/__/mesh/bearer/src/ad_listener.c.obj
 .debug_loc     0x0000ebd8      0x3ae examples/light_switch/provisioner/CMakeFiles/light_switch_provisioner_nrf52832_xxAA_s132_6.0.0.dir/__/__/__/mesh/bearer/src/ad_type_filter.c.obj
 .debug_loc     0x0000ef86      0xca9 examples/light_switch/provisioner/CMakeFiles/light_switch_provisioner_nrf52832_xxAA_s132_6.0.0.dir/__/__/__/mesh/bearer/src/advertiser.c.obj
 .debug_loc     0x0000fc2f      0x333 examples/light_switch/provisioner/CMakeFiles/light_switch_provisioner_nrf52832_xxAA_s132_6.0.0.dir/__/__/__/mesh/bearer/src/bearer_handler.c.obj
 .debug_loc     0x0000ff62      0x306 examples/light_switch/provisioner/CMakeFiles/light_switch_provisioner_nrf52832_xxAA_s132_6.0.0.dir/__/__/__/mesh/bearer/src/broadcast.c.obj
 .debug_loc     0x00010268       0xde examples/light_switch/provisioner/CMakeFiles/light_switch_provisioner_nrf52832_xxAA_s132_6.0.0.dir/__/__/__/mesh/bearer/src/filter_engine.c.obj
 .debug_loc     0x00010346      0x232 examples/light_switch/provisioner/CMakeFiles/light_switch_provisioner_nrf52832_xxAA_s132_6.0.0.dir/__/__/__/mesh/bearer/src/radio_config.c.obj
 .debug_loc     0x00010578      0x442 examples/light_switch/provisioner/CMakeFiles/light_switch_provisioner_nrf52832_xxAA_s132_6.0.0.dir/__/__/__/mesh/bearer/src/scanner.c.obj
 .debug_loc     0x000109ba     0x1520 examples/light_switch/provisioner/CMakeFiles/light_switch_provisioner_nrf52832_xxAA_s132_6.0.0.dir/__/__/__/models/config/src/config_client.c.obj
 .debug_loc     0x00011eda      0x26f examples/light_switch/provisioner/CMakeFiles/light_switch_provisioner_nrf52832_xxAA_s132_6.0.0.dir/__/__/__/models/config/src/composition_data.c.obj
 .debug_loc     0x00012149     0x4c68 examples/light_switch/provisioner/CMakeFiles/light_switch_provisioner_nrf52832_xxAA_s132_6.0.0.dir/__/__/__/models/config/src/config_server.c.obj
 .debug_loc     0x00016db1       0x89 examples/light_switch/provisioner/CMakeFiles/light_switch_provisioner_nrf52832_xxAA_s132_6.0.0.dir/__/__/__/models/config/src/packed_index_list.c.obj
 .debug_loc     0x00016e3a     0x13e7 examples/light_switch/provisioner/CMakeFiles/light_switch_provisioner_nrf52832_xxAA_s132_6.0.0.dir/__/__/__/models/health/src/health_server.c.obj
 .debug_loc     0x00018221      0xa00 examples/light_switch/provisioner/CMakeFiles/light_switch_provisioner_nrf52832_xxAA_s132_6.0.0.dir/__/__/__/models/health/src/health_client.c.obj
 .debug_loc     0x00018c21      0x4d4 examples/light_switch/provisioner/CMakeFiles/light_switch_provisioner_nrf52832_xxAA_s132_6.0.0.dir/__/__/__/mesh/access/src/access_publish.c.obj
 .debug_loc     0x000190f5     0x2483 examples/light_switch/provisioner/CMakeFiles/light_switch_provisioner_nrf52832_xxAA_s132_6.0.0.dir/__/__/__/mesh/access/src/access.c.obj
 .debug_loc     0x0001b578      0x784 examples/light_switch/provisioner/CMakeFiles/light_switch_provisioner_nrf52832_xxAA_s132_6.0.0.dir/__/__/__/mesh/access/src/access_reliable.c.obj
 .debug_loc     0x0001bcfc     0x3a1f examples/light_switch/provisioner/CMakeFiles/light_switch_provisioner_nrf52832_xxAA_s132_6.0.0.dir/__/__/__/mesh/access/src/device_state_manager.c.obj
 .debug_loc     0x0001f71b      0x747 examples/light_switch/provisioner/CMakeFiles/light_switch_provisioner_nrf52832_xxAA_s132_6.0.0.dir/__/__/__/mesh/prov/src/prov_provisioner.c.obj
 .debug_loc     0x0001fe62      0xa4b examples/light_switch/provisioner/CMakeFiles/light_switch_provisioner_nrf52832_xxAA_s132_6.0.0.dir/__/__/__/mesh/prov/src/nrf_mesh_prov.c.obj
 .debug_loc     0x000208ad      0x490 examples/light_switch/provisioner/CMakeFiles/light_switch_provisioner_nrf52832_xxAA_s132_6.0.0.dir/__/__/__/mesh/prov/src/provisioning.c.obj
 .debug_loc     0x00020d3d      0x18c examples/light_switch/provisioner/CMakeFiles/light_switch_provisioner_nrf52832_xxAA_s132_6.0.0.dir/__/__/__/mesh/prov/src/prov_beacon.c.obj
 .debug_loc     0x00020ec9      0x40b examples/light_switch/provisioner/CMakeFiles/light_switch_provisioner_nrf52832_xxAA_s132_6.0.0.dir/__/__/__/mesh/prov/src/prov_utils.c.obj
 .debug_loc     0x000212d4     0x1457 examples/light_switch/provisioner/CMakeFiles/light_switch_provisioner_nrf52832_xxAA_s132_6.0.0.dir/__/__/__/mesh/prov/src/prov_bearer_adv.c.obj
 .debug_loc     0x0002272b       0x63 examples/light_switch/provisioner/CMakeFiles/light_switch_provisioner_nrf52832_xxAA_s132_6.0.0.dir/C_/b/nRF5_SDK_15.0.0_a53641a/components/libraries/util/app_error_handler_gcc.c.obj
 .debug_loc     0x0002278e     0x1222 external/rtt/librtt_nrf52832_xxAA.a(SEGGER_RTT.c.obj)
 .debug_loc     0x000239b0      0x70f external/rtt/librtt_nrf52832_xxAA.a(SEGGER_RTT_printf.c.obj)
 .debug_loc     0x000240bf     0x2449 external/micro-ecc/libuECC_nrf52832_xxAA.a(uECC.c.obj)

.debug_aranges  0x00000000     0x2598
 .debug_aranges
                0x00000000       0xc8 examples/light_switch/provisioner/CMakeFiles/light_switch_provisioner_nrf52832_xxAA_s132_6.0.0.dir/src/main.c.obj
 .debug_aranges
                0x000000c8       0x50 examples/light_switch/provisioner/CMakeFiles/light_switch_provisioner_nrf52832_xxAA_s132_6.0.0.dir/__/__/__/mesh/stack/src/mesh_stack.c.obj
 .debug_aranges
                0x00000118       0x50 examples/light_switch/provisioner/CMakeFiles/light_switch_provisioner_nrf52832_xxAA_s132_6.0.0.dir/src/provisioner_helper.c.obj
 .debug_aranges
                0x00000168       0x50 examples/light_switch/provisioner/CMakeFiles/light_switch_provisioner_nrf52832_xxAA_s132_6.0.0.dir/src/node_setup.c.obj
 .debug_aranges
                0x000001b8       0x40 examples/light_switch/provisioner/CMakeFiles/light_switch_provisioner_nrf52832_xxAA_s132_6.0.0.dir/__/__/common/src/mesh_softdevice_init.c.obj
 .debug_aranges
                0x000001f8       0x30 examples/light_switch/provisioner/CMakeFiles/light_switch_provisioner_nrf52832_xxAA_s132_6.0.0.dir/__/__/common/src/rtt_input.c.obj
 .debug_aranges
                0x00000228       0x50 examples/light_switch/provisioner/CMakeFiles/light_switch_provisioner_nrf52832_xxAA_s132_6.0.0.dir/__/__/common/src/simple_hal.c.obj
 .debug_aranges
                0x00000278       0x28 examples/light_switch/provisioner/CMakeFiles/light_switch_provisioner_nrf52832_xxAA_s132_6.0.0.dir/__/__/nrf_mesh_weak.c.obj
 .debug_aranges
                0x000002a0       0x20 examples/light_switch/provisioner/CMakeFiles/light_switch_provisioner_nrf52832_xxAA_s132_6.0.0.dir/__/__/common/src/app_error_weak.c.obj
 .debug_aranges
                0x000002c0       0x20 examples/light_switch/provisioner/CMakeFiles/light_switch_provisioner_nrf52832_xxAA_s132_6.0.0.dir/__/__/common/src/assertion_handler_weak.c.obj
 .debug_aranges
                0x000002e0       0x30 examples/light_switch/provisioner/CMakeFiles/light_switch_provisioner_nrf52832_xxAA_s132_6.0.0.dir/__/__/__/mesh/core/src/nrf_mesh_configure.c.obj
 .debug_aranges
                0x00000310       0x28 examples/light_switch/provisioner/CMakeFiles/light_switch_provisioner_nrf52832_xxAA_s132_6.0.0.dir/__/__/__/mesh/core/src/aes.c.obj
 .debug_aranges
                0x00000338       0x38 examples/light_switch/provisioner/CMakeFiles/light_switch_provisioner_nrf52832_xxAA_s132_6.0.0.dir/__/__/__/mesh/core/src/msg_cache.c.obj
 .debug_aranges
                0x00000370      0x110 examples/light_switch/provisioner/CMakeFiles/light_switch_provisioner_nrf52832_xxAA_s132_6.0.0.dir/__/__/__/mesh/core/src/transport.c.obj
 .debug_aranges
                0x00000480       0x30 examples/light_switch/provisioner/CMakeFiles/light_switch_provisioner_nrf52832_xxAA_s132_6.0.0.dir/__/__/__/mesh/core/src/event.c.obj
 .debug_aranges
                0x000004b0       0x68 examples/light_switch/provisioner/CMakeFiles/light_switch_provisioner_nrf52832_xxAA_s132_6.0.0.dir/__/__/__/mesh/core/src/packet_buffer.c.obj
 .debug_aranges
                0x00000518       0xc8 examples/light_switch/provisioner/CMakeFiles/light_switch_provisioner_nrf52832_xxAA_s132_6.0.0.dir/__/__/__/mesh/core/src/flash_manager_defrag.c.obj
 .debug_aranges
                0x000005e0       0x60 examples/light_switch/provisioner/CMakeFiles/light_switch_provisioner_nrf52832_xxAA_s132_6.0.0.dir/__/__/__/mesh/core/src/fifo.c.obj
 .debug_aranges
                0x00000640       0x30 examples/light_switch/provisioner/CMakeFiles/light_switch_provisioner_nrf52832_xxAA_s132_6.0.0.dir/__/__/__/mesh/core/src/nrf_flash.c.obj
 .debug_aranges
                0x00000670       0x48 examples/light_switch/provisioner/CMakeFiles/light_switch_provisioner_nrf52832_xxAA_s132_6.0.0.dir/__/__/__/mesh/core/src/packet_mgr.c.obj
 .debug_aranges
                0x000006b8       0xd0 examples/light_switch/provisioner/CMakeFiles/light_switch_provisioner_nrf52832_xxAA_s132_6.0.0.dir/__/__/__/mesh/core/src/net_state.c.obj
 .debug_aranges
                0x00000788       0x60 examples/light_switch/provisioner/CMakeFiles/light_switch_provisioner_nrf52832_xxAA_s132_6.0.0.dir/__/__/__/mesh/core/src/mesh_flash.c.obj
 .debug_aranges
                0x000007e8       0x30 examples/light_switch/provisioner/CMakeFiles/light_switch_provisioner_nrf52832_xxAA_s132_6.0.0.dir/__/__/__/mesh/core/src/nrf_mesh_utils.c.obj
 .debug_aranges
                0x00000818       0x90 examples/light_switch/provisioner/CMakeFiles/light_switch_provisioner_nrf52832_xxAA_s132_6.0.0.dir/__/__/__/mesh/core/src/nrf_mesh.c.obj
 .debug_aranges
                0x000008a8       0x38 examples/light_switch/provisioner/CMakeFiles/light_switch_provisioner_nrf52832_xxAA_s132_6.0.0.dir/__/__/__/mesh/core/src/queue.c.obj
 .debug_aranges
                0x000008e0       0x38 examples/light_switch/provisioner/CMakeFiles/light_switch_provisioner_nrf52832_xxAA_s132_6.0.0.dir/__/__/__/mesh/core/src/hal.c.obj
 .debug_aranges
                0x00000918       0x38 examples/light_switch/provisioner/CMakeFiles/light_switch_provisioner_nrf52832_xxAA_s132_6.0.0.dir/__/__/__/mesh/core/src/aes_cmac.c.obj
 .debug_aranges
                0x00000950       0x68 examples/light_switch/provisioner/CMakeFiles/light_switch_provisioner_nrf52832_xxAA_s132_6.0.0.dir/__/__/__/mesh/core/src/timer_scheduler.c.obj
 .debug_aranges
                0x000009b8       0x60 examples/light_switch/provisioner/CMakeFiles/light_switch_provisioner_nrf52832_xxAA_s132_6.0.0.dir/__/__/__/mesh/core/src/timer.c.obj
 .debug_aranges
                0x00000a18       0x30 examples/light_switch/provisioner/CMakeFiles/light_switch_provisioner_nrf52832_xxAA_s132_6.0.0.dir/__/__/__/mesh/core/src/ticker.c.obj
 .debug_aranges
                0x00000a48       0x40 examples/light_switch/provisioner/CMakeFiles/light_switch_provisioner_nrf52832_xxAA_s132_6.0.0.dir/__/__/__/mesh/core/src/rand.c.obj
 .debug_aranges
                0x00000a88       0x28 examples/light_switch/provisioner/CMakeFiles/light_switch_provisioner_nrf52832_xxAA_s132_6.0.0.dir/__/__/__/mesh/core/src/nrf_mesh_opt.c.obj
 .debug_aranges
                0x00000ab0       0xb8 examples/light_switch/provisioner/CMakeFiles/light_switch_provisioner_nrf52832_xxAA_s132_6.0.0.dir/__/__/__/mesh/core/src/timeslot.c.obj
 .debug_aranges
                0x00000b68       0x98 examples/light_switch/provisioner/CMakeFiles/light_switch_provisioner_nrf52832_xxAA_s132_6.0.0.dir/__/__/__/mesh/core/src/bearer_event.c.obj
 .debug_aranges
                0x00000c00       0x70 examples/light_switch/provisioner/CMakeFiles/light_switch_provisioner_nrf52832_xxAA_s132_6.0.0.dir/__/__/__/mesh/core/src/enc.c.obj
 .debug_aranges
                0x00000c70       0x58 examples/light_switch/provisioner/CMakeFiles/light_switch_provisioner_nrf52832_xxAA_s132_6.0.0.dir/__/__/__/mesh/core/src/network.c.obj
 .debug_aranges
                0x00000cc8       0x68 examples/light_switch/provisioner/CMakeFiles/light_switch_provisioner_nrf52832_xxAA_s132_6.0.0.dir/__/__/__/mesh/core/src/net_packet.c.obj
 .debug_aranges
                0x00000d30       0x48 examples/light_switch/provisioner/CMakeFiles/light_switch_provisioner_nrf52832_xxAA_s132_6.0.0.dir/__/__/__/mesh/core/src/msqueue.c.obj
 .debug_aranges
                0x00000d78       0x40 examples/light_switch/provisioner/CMakeFiles/light_switch_provisioner_nrf52832_xxAA_s132_6.0.0.dir/__/__/__/mesh/core/src/nrf_mesh_keygen.c.obj
 .debug_aranges
                0x00000db8       0x48 examples/light_switch/provisioner/CMakeFiles/light_switch_provisioner_nrf52832_xxAA_s132_6.0.0.dir/__/__/__/mesh/core/src/list.c.obj
 .debug_aranges
                0x00000e00       0x48 examples/light_switch/provisioner/CMakeFiles/light_switch_provisioner_nrf52832_xxAA_s132_6.0.0.dir/__/__/__/mesh/core/src/log.c.obj
 .debug_aranges
                0x00000e48       0xf8 examples/light_switch/provisioner/CMakeFiles/light_switch_provisioner_nrf52832_xxAA_s132_6.0.0.dir/__/__/__/mesh/core/src/flash_manager.c.obj
 .debug_aranges
                0x00000f40       0x50 examples/light_switch/provisioner/CMakeFiles/light_switch_provisioner_nrf52832_xxAA_s132_6.0.0.dir/__/__/__/mesh/core/src/ccm_soft.c.obj
 .debug_aranges
                0x00000f90       0x40 examples/light_switch/provisioner/CMakeFiles/light_switch_provisioner_nrf52832_xxAA_s132_6.0.0.dir/__/__/__/mesh/core/src/replay_cache.c.obj
 .debug_aranges
                0x00000fd0       0x28 examples/light_switch/provisioner/CMakeFiles/light_switch_provisioner_nrf52832_xxAA_s132_6.0.0.dir/__/__/__/mesh/core/src/beacon.c.obj
 .debug_aranges
                0x00000ff8       0x20 examples/light_switch/provisioner/CMakeFiles/light_switch_provisioner_nrf52832_xxAA_s132_6.0.0.dir/__/__/__/mesh/core/src/flash_manager_internal.c.obj
 .debug_aranges
                0x00001018       0x58 examples/light_switch/provisioner/CMakeFiles/light_switch_provisioner_nrf52832_xxAA_s132_6.0.0.dir/__/__/__/mesh/core/src/core_tx.c.obj
 .debug_aranges
                0x00001070       0x70 examples/light_switch/provisioner/CMakeFiles/light_switch_provisioner_nrf52832_xxAA_s132_6.0.0.dir/__/__/__/mesh/core/src/heartbeat.c.obj
 .debug_aranges
                0x000010e0       0x68 examples/light_switch/provisioner/CMakeFiles/light_switch_provisioner_nrf52832_xxAA_s132_6.0.0.dir/__/__/__/mesh/core/src/net_beacon.c.obj
 .debug_aranges
                0x00001148       0x68 examples/light_switch/provisioner/CMakeFiles/light_switch_provisioner_nrf52832_xxAA_s132_6.0.0.dir/__/__/__/mesh/core/src/core_tx_adv.c.obj
 .debug_aranges
                0x000011b0       0x30 examples/light_switch/provisioner/CMakeFiles/light_switch_provisioner_nrf52832_xxAA_s132_6.0.0.dir/__/__/__/mesh/bearer/src/ad_listener.c.obj
 .debug_aranges
                0x000011e0       0x58 examples/light_switch/provisioner/CMakeFiles/light_switch_provisioner_nrf52832_xxAA_s132_6.0.0.dir/__/__/__/mesh/bearer/src/ad_type_filter.c.obj
 .debug_aranges
                0x00001238       0xb0 examples/light_switch/provisioner/CMakeFiles/light_switch_provisioner_nrf52832_xxAA_s132_6.0.0.dir/__/__/__/mesh/bearer/src/advertiser.c.obj
 .debug_aranges
                0x000012e8       0x70 examples/light_switch/provisioner/CMakeFiles/light_switch_provisioner_nrf52832_xxAA_s132_6.0.0.dir/__/__/__/mesh/bearer/src/bearer_handler.c.obj
 .debug_aranges
                0x00001358       0x30 examples/light_switch/provisioner/CMakeFiles/light_switch_provisioner_nrf52832_xxAA_s132_6.0.0.dir/__/__/__/mesh/bearer/src/broadcast.c.obj
 .debug_aranges
                0x00001388       0x38 examples/light_switch/provisioner/CMakeFiles/light_switch_provisioner_nrf52832_xxAA_s132_6.0.0.dir/__/__/__/mesh/bearer/src/filter_engine.c.obj
 .debug_aranges
                0x000013c0       0x40 examples/light_switch/provisioner/CMakeFiles/light_switch_provisioner_nrf52832_xxAA_s132_6.0.0.dir/__/__/__/mesh/bearer/src/radio_config.c.obj
 .debug_aranges
                0x00001400       0xe0 examples/light_switch/provisioner/CMakeFiles/light_switch_provisioner_nrf52832_xxAA_s132_6.0.0.dir/__/__/__/mesh/bearer/src/scanner.c.obj
 .debug_aranges
                0x000014e0      0x190 examples/light_switch/provisioner/CMakeFiles/light_switch_provisioner_nrf52832_xxAA_s132_6.0.0.dir/__/__/__/models/config/src/config_client.c.obj
 .debug_aranges
                0x00001670       0x20 examples/light_switch/provisioner/CMakeFiles/light_switch_provisioner_nrf52832_xxAA_s132_6.0.0.dir/__/__/__/models/config/src/composition_data.c.obj
 .debug_aranges
                0x00001690      0x210 examples/light_switch/provisioner/CMakeFiles/light_switch_provisioner_nrf52832_xxAA_s132_6.0.0.dir/__/__/__/models/config/src/config_server.c.obj
 .debug_aranges
                0x000018a0       0x20 examples/light_switch/provisioner/CMakeFiles/light_switch_provisioner_nrf52832_xxAA_s132_6.0.0.dir/__/__/__/models/config/src/packed_index_list.c.obj
 .debug_aranges
                0x000018c0       0xc8 examples/light_switch/provisioner/CMakeFiles/light_switch_provisioner_nrf52832_xxAA_s132_6.0.0.dir/__/__/__/models/health/src/health_server.c.obj
 .debug_aranges
                0x00001988       0x88 examples/light_switch/provisioner/CMakeFiles/light_switch_provisioner_nrf52832_xxAA_s132_6.0.0.dir/__/__/__/models/health/src/health_client.c.obj
 .debug_aranges
                0x00001a10       0x50 examples/light_switch/provisioner/CMakeFiles/light_switch_provisioner_nrf52832_xxAA_s132_6.0.0.dir/__/__/__/mesh/access/src/access_publish.c.obj
 .debug_aranges
                0x00001a60      0x1d0 examples/light_switch/provisioner/CMakeFiles/light_switch_provisioner_nrf52832_xxAA_s132_6.0.0.dir/__/__/__/mesh/access/src/access.c.obj
 .debug_aranges
                0x00001c30       0x50 examples/light_switch/provisioner/CMakeFiles/light_switch_provisioner_nrf52832_xxAA_s132_6.0.0.dir/__/__/__/mesh/access/src/access_reliable.c.obj
 .debug_aranges
                0x00001c80      0x318 examples/light_switch/provisioner/CMakeFiles/light_switch_provisioner_nrf52832_xxAA_s132_6.0.0.dir/__/__/__/mesh/access/src/device_state_manager.c.obj
 .debug_aranges
                0x00001f98       0x78 examples/light_switch/provisioner/CMakeFiles/light_switch_provisioner_nrf52832_xxAA_s132_6.0.0.dir/__/__/__/mesh/prov/src/prov_provisioner.c.obj
 .debug_aranges
                0x00002010       0x88 examples/light_switch/provisioner/CMakeFiles/light_switch_provisioner_nrf52832_xxAA_s132_6.0.0.dir/__/__/__/mesh/prov/src/nrf_mesh_prov.c.obj
 .debug_aranges
                0x00002098       0x80 examples/light_switch/provisioner/CMakeFiles/light_switch_provisioner_nrf52832_xxAA_s132_6.0.0.dir/__/__/__/mesh/prov/src/provisioning.c.obj
 .debug_aranges
                0x00002118       0x38 examples/light_switch/provisioner/CMakeFiles/light_switch_provisioner_nrf52832_xxAA_s132_6.0.0.dir/__/__/__/mesh/prov/src/prov_beacon.c.obj
 .debug_aranges
                0x00002150       0x70 examples/light_switch/provisioner/CMakeFiles/light_switch_provisioner_nrf52832_xxAA_s132_6.0.0.dir/__/__/__/mesh/prov/src/prov_utils.c.obj
 .debug_aranges
                0x000021c0       0xc8 examples/light_switch/provisioner/CMakeFiles/light_switch_provisioner_nrf52832_xxAA_s132_6.0.0.dir/__/__/__/mesh/prov/src/prov_bearer_adv.c.obj
 .debug_aranges
                0x00002288       0x38 examples/light_switch/provisioner/CMakeFiles/light_switch_provisioner_nrf52832_xxAA_s132_6.0.0.dir/C_/b/nRF5_SDK_15.0.0_a53641a/modules/nrfx/mdk/system_nrf52.c.obj
 .debug_aranges
                0x000022c0       0x20 examples/light_switch/provisioner/CMakeFiles/light_switch_provisioner_nrf52832_xxAA_s132_6.0.0.dir/C_/b/nRF5_SDK_15.0.0_a53641a/components/libraries/util/app_error_handler_gcc.c.obj
 .debug_aranges
                0x000022e0       0xd8 external/rtt/librtt_nrf52832_xxAA.a(SEGGER_RTT.c.obj)
 .debug_aranges
                0x000023b8       0x38 external/rtt/librtt_nrf52832_xxAA.a(SEGGER_RTT_printf.c.obj)
 .debug_aranges
                0x000023f0      0x1a8 external/micro-ecc/libuECC_nrf52832_xxAA.a(uECC.c.obj)

.debug_ranges   0x00000000     0x6610
 .debug_ranges  0x00000000      0x6c8 examples/light_switch/provisioner/CMakeFiles/light_switch_provisioner_nrf52832_xxAA_s132_6.0.0.dir/src/main.c.obj
 .debug_ranges  0x000006c8       0x70 examples/light_switch/provisioner/CMakeFiles/light_switch_provisioner_nrf52832_xxAA_s132_6.0.0.dir/__/__/__/mesh/stack/src/mesh_stack.c.obj
 .debug_ranges  0x00000738      0x308 examples/light_switch/provisioner/CMakeFiles/light_switch_provisioner_nrf52832_xxAA_s132_6.0.0.dir/src/provisioner_helper.c.obj
 .debug_ranges  0x00000a40      0x368 examples/light_switch/provisioner/CMakeFiles/light_switch_provisioner_nrf52832_xxAA_s132_6.0.0.dir/src/node_setup.c.obj
 .debug_ranges  0x00000da8       0xb0 examples/light_switch/provisioner/CMakeFiles/light_switch_provisioner_nrf52832_xxAA_s132_6.0.0.dir/__/__/common/src/mesh_softdevice_init.c.obj
 .debug_ranges  0x00000e58       0x20 examples/light_switch/provisioner/CMakeFiles/light_switch_provisioner_nrf52832_xxAA_s132_6.0.0.dir/__/__/common/src/rtt_input.c.obj
 .debug_ranges  0x00000e78       0xe0 examples/light_switch/provisioner/CMakeFiles/light_switch_provisioner_nrf52832_xxAA_s132_6.0.0.dir/__/__/common/src/simple_hal.c.obj
 .debug_ranges  0x00000f58       0x18 examples/light_switch/provisioner/CMakeFiles/light_switch_provisioner_nrf52832_xxAA_s132_6.0.0.dir/__/__/nrf_mesh_weak.c.obj
 .debug_ranges  0x00000f70       0xb8 examples/light_switch/provisioner/CMakeFiles/light_switch_provisioner_nrf52832_xxAA_s132_6.0.0.dir/__/__/common/src/app_error_weak.c.obj
 .debug_ranges  0x00001028       0x10 examples/light_switch/provisioner/CMakeFiles/light_switch_provisioner_nrf52832_xxAA_s132_6.0.0.dir/__/__/common/src/assertion_handler_weak.c.obj
 .debug_ranges  0x00001038       0x20 examples/light_switch/provisioner/CMakeFiles/light_switch_provisioner_nrf52832_xxAA_s132_6.0.0.dir/__/__/__/mesh/core/src/nrf_mesh_configure.c.obj
 .debug_ranges  0x00001058       0x18 examples/light_switch/provisioner/CMakeFiles/light_switch_provisioner_nrf52832_xxAA_s132_6.0.0.dir/__/__/__/mesh/core/src/aes.c.obj
 .debug_ranges  0x00001070       0x48 examples/light_switch/provisioner/CMakeFiles/light_switch_provisioner_nrf52832_xxAA_s132_6.0.0.dir/__/__/__/mesh/core/src/msg_cache.c.obj
 .debug_ranges  0x000010b8      0x5d0 examples/light_switch/provisioner/CMakeFiles/light_switch_provisioner_nrf52832_xxAA_s132_6.0.0.dir/__/__/__/mesh/core/src/transport.c.obj
 .debug_ranges  0x00001688       0x20 examples/light_switch/provisioner/CMakeFiles/light_switch_provisioner_nrf52832_xxAA_s132_6.0.0.dir/__/__/__/mesh/core/src/event.c.obj
 .debug_ranges  0x000016a8      0x128 examples/light_switch/provisioner/CMakeFiles/light_switch_provisioner_nrf52832_xxAA_s132_6.0.0.dir/__/__/__/mesh/core/src/packet_buffer.c.obj
 .debug_ranges  0x000017d0      0x230 examples/light_switch/provisioner/CMakeFiles/light_switch_provisioner_nrf52832_xxAA_s132_6.0.0.dir/__/__/__/mesh/core/src/flash_manager_defrag.c.obj
 .debug_ranges  0x00001a00       0x68 examples/light_switch/provisioner/CMakeFiles/light_switch_provisioner_nrf52832_xxAA_s132_6.0.0.dir/__/__/__/mesh/core/src/fifo.c.obj
 .debug_ranges  0x00001a68       0x38 examples/light_switch/provisioner/CMakeFiles/light_switch_provisioner_nrf52832_xxAA_s132_6.0.0.dir/__/__/__/mesh/core/src/nrf_flash.c.obj
 .debug_ranges  0x00001aa0       0xe0 examples/light_switch/provisioner/CMakeFiles/light_switch_provisioner_nrf52832_xxAA_s132_6.0.0.dir/__/__/__/mesh/core/src/packet_mgr.c.obj
 .debug_ranges  0x00001b80      0x1f8 examples/light_switch/provisioner/CMakeFiles/light_switch_provisioner_nrf52832_xxAA_s132_6.0.0.dir/__/__/__/mesh/core/src/net_state.c.obj
 .debug_ranges  0x00001d78      0x1c8 examples/light_switch/provisioner/CMakeFiles/light_switch_provisioner_nrf52832_xxAA_s132_6.0.0.dir/__/__/__/mesh/core/src/mesh_flash.c.obj
 .debug_ranges  0x00001f40       0x20 examples/light_switch/provisioner/CMakeFiles/light_switch_provisioner_nrf52832_xxAA_s132_6.0.0.dir/__/__/__/mesh/core/src/nrf_mesh_utils.c.obj
 .debug_ranges  0x00001f60       0xe0 examples/light_switch/provisioner/CMakeFiles/light_switch_provisioner_nrf52832_xxAA_s132_6.0.0.dir/__/__/__/mesh/core/src/nrf_mesh.c.obj
 .debug_ranges  0x00002040       0x28 examples/light_switch/provisioner/CMakeFiles/light_switch_provisioner_nrf52832_xxAA_s132_6.0.0.dir/__/__/__/mesh/core/src/queue.c.obj
 .debug_ranges  0x00002068       0x28 examples/light_switch/provisioner/CMakeFiles/light_switch_provisioner_nrf52832_xxAA_s132_6.0.0.dir/__/__/__/mesh/core/src/hal.c.obj
 .debug_ranges  0x00002090       0x98 examples/light_switch/provisioner/CMakeFiles/light_switch_provisioner_nrf52832_xxAA_s132_6.0.0.dir/__/__/__/mesh/core/src/aes_cmac.c.obj
 .debug_ranges  0x00002128       0xf0 examples/light_switch/provisioner/CMakeFiles/light_switch_provisioner_nrf52832_xxAA_s132_6.0.0.dir/__/__/__/mesh/core/src/timer_scheduler.c.obj
 .debug_ranges  0x00002218       0xd8 examples/light_switch/provisioner/CMakeFiles/light_switch_provisioner_nrf52832_xxAA_s132_6.0.0.dir/__/__/__/mesh/core/src/timer.c.obj
 .debug_ranges  0x000022f0       0x20 examples/light_switch/provisioner/CMakeFiles/light_switch_provisioner_nrf52832_xxAA_s132_6.0.0.dir/__/__/__/mesh/core/src/ticker.c.obj
 .debug_ranges  0x00002310       0x30 examples/light_switch/provisioner/CMakeFiles/light_switch_provisioner_nrf52832_xxAA_s132_6.0.0.dir/__/__/__/mesh/core/src/rand.c.obj
 .debug_ranges  0x00002340       0x18 examples/light_switch/provisioner/CMakeFiles/light_switch_provisioner_nrf52832_xxAA_s132_6.0.0.dir/__/__/__/mesh/core/src/nrf_mesh_opt.c.obj
 .debug_ranges  0x00002358      0x168 examples/light_switch/provisioner/CMakeFiles/light_switch_provisioner_nrf52832_xxAA_s132_6.0.0.dir/__/__/__/mesh/core/src/timeslot.c.obj
 .debug_ranges  0x000024c0       0xf8 examples/light_switch/provisioner/CMakeFiles/light_switch_provisioner_nrf52832_xxAA_s132_6.0.0.dir/__/__/__/mesh/core/src/bearer_event.c.obj
 .debug_ranges  0x000025b8       0xb0 examples/light_switch/provisioner/CMakeFiles/light_switch_provisioner_nrf52832_xxAA_s132_6.0.0.dir/__/__/__/mesh/core/src/enc.c.obj
 .debug_ranges  0x00002668       0xe8 examples/light_switch/provisioner/CMakeFiles/light_switch_provisioner_nrf52832_xxAA_s132_6.0.0.dir/__/__/__/mesh/core/src/network.c.obj
 .debug_ranges  0x00002750      0x160 examples/light_switch/provisioner/CMakeFiles/light_switch_provisioner_nrf52832_xxAA_s132_6.0.0.dir/__/__/__/mesh/core/src/net_packet.c.obj
 .debug_ranges  0x000028b0       0x50 examples/light_switch/provisioner/CMakeFiles/light_switch_provisioner_nrf52832_xxAA_s132_6.0.0.dir/__/__/__/mesh/core/src/msqueue.c.obj
 .debug_ranges  0x00002900       0x30 examples/light_switch/provisioner/CMakeFiles/light_switch_provisioner_nrf52832_xxAA_s132_6.0.0.dir/__/__/__/mesh/core/src/nrf_mesh_keygen.c.obj
 .debug_ranges  0x00002930       0x78 examples/light_switch/provisioner/CMakeFiles/light_switch_provisioner_nrf52832_xxAA_s132_6.0.0.dir/__/__/__/mesh/core/src/list.c.obj
 .debug_ranges  0x000029a8       0x38 examples/light_switch/provisioner/CMakeFiles/light_switch_provisioner_nrf52832_xxAA_s132_6.0.0.dir/__/__/__/mesh/core/src/log.c.obj
 .debug_ranges  0x000029e0      0x388 examples/light_switch/provisioner/CMakeFiles/light_switch_provisioner_nrf52832_xxAA_s132_6.0.0.dir/__/__/__/mesh/core/src/flash_manager.c.obj
 .debug_ranges  0x00002d68       0x40 examples/light_switch/provisioner/CMakeFiles/light_switch_provisioner_nrf52832_xxAA_s132_6.0.0.dir/__/__/__/mesh/core/src/ccm_soft.c.obj
 .debug_ranges  0x00002da8       0x30 examples/light_switch/provisioner/CMakeFiles/light_switch_provisioner_nrf52832_xxAA_s132_6.0.0.dir/__/__/__/mesh/core/src/replay_cache.c.obj
 .debug_ranges  0x00002dd8       0x90 examples/light_switch/provisioner/CMakeFiles/light_switch_provisioner_nrf52832_xxAA_s132_6.0.0.dir/__/__/__/mesh/core/src/beacon.c.obj
 .debug_ranges  0x00002e68       0x10 examples/light_switch/provisioner/CMakeFiles/light_switch_provisioner_nrf52832_xxAA_s132_6.0.0.dir/__/__/__/mesh/core/src/flash_manager_internal.c.obj
 .debug_ranges  0x00002e78       0xf8 examples/light_switch/provisioner/CMakeFiles/light_switch_provisioner_nrf52832_xxAA_s132_6.0.0.dir/__/__/__/mesh/core/src/core_tx.c.obj
 .debug_ranges  0x00002f70       0xa8 examples/light_switch/provisioner/CMakeFiles/light_switch_provisioner_nrf52832_xxAA_s132_6.0.0.dir/__/__/__/mesh/core/src/heartbeat.c.obj
 .debug_ranges  0x00003018      0x170 examples/light_switch/provisioner/CMakeFiles/light_switch_provisioner_nrf52832_xxAA_s132_6.0.0.dir/__/__/__/mesh/core/src/net_beacon.c.obj
 .debug_ranges  0x00003188       0x58 examples/light_switch/provisioner/CMakeFiles/light_switch_provisioner_nrf52832_xxAA_s132_6.0.0.dir/__/__/__/mesh/core/src/core_tx_adv.c.obj
 .debug_ranges  0x000031e0       0xf8 examples/light_switch/provisioner/CMakeFiles/light_switch_provisioner_nrf52832_xxAA_s132_6.0.0.dir/__/__/__/mesh/bearer/src/ad_listener.c.obj
 .debug_ranges  0x000032d8       0xd0 examples/light_switch/provisioner/CMakeFiles/light_switch_provisioner_nrf52832_xxAA_s132_6.0.0.dir/__/__/__/mesh/bearer/src/ad_type_filter.c.obj
 .debug_ranges  0x000033a8      0x240 examples/light_switch/provisioner/CMakeFiles/light_switch_provisioner_nrf52832_xxAA_s132_6.0.0.dir/__/__/__/mesh/bearer/src/advertiser.c.obj
 .debug_ranges  0x000035e8       0xb0 examples/light_switch/provisioner/CMakeFiles/light_switch_provisioner_nrf52832_xxAA_s132_6.0.0.dir/__/__/__/mesh/bearer/src/bearer_handler.c.obj
 .debug_ranges  0x00003698       0xa8 examples/light_switch/provisioner/CMakeFiles/light_switch_provisioner_nrf52832_xxAA_s132_6.0.0.dir/__/__/__/mesh/bearer/src/broadcast.c.obj
 .debug_ranges  0x00003740       0x48 examples/light_switch/provisioner/CMakeFiles/light_switch_provisioner_nrf52832_xxAA_s132_6.0.0.dir/__/__/__/mesh/bearer/src/filter_engine.c.obj
 .debug_ranges  0x00003788       0x48 examples/light_switch/provisioner/CMakeFiles/light_switch_provisioner_nrf52832_xxAA_s132_6.0.0.dir/__/__/__/mesh/bearer/src/radio_config.c.obj
 .debug_ranges  0x000037d0      0x198 examples/light_switch/provisioner/CMakeFiles/light_switch_provisioner_nrf52832_xxAA_s132_6.0.0.dir/__/__/__/mesh/bearer/src/scanner.c.obj
 .debug_ranges  0x00003968      0x280 examples/light_switch/provisioner/CMakeFiles/light_switch_provisioner_nrf52832_xxAA_s132_6.0.0.dir/__/__/__/models/config/src/config_client.c.obj
 .debug_ranges  0x00003be8       0xa8 examples/light_switch/provisioner/CMakeFiles/light_switch_provisioner_nrf52832_xxAA_s132_6.0.0.dir/__/__/__/models/config/src/composition_data.c.obj
 .debug_ranges  0x00003c90      0x788 examples/light_switch/provisioner/CMakeFiles/light_switch_provisioner_nrf52832_xxAA_s132_6.0.0.dir/__/__/__/models/config/src/config_server.c.obj
 .debug_ranges  0x00004418       0x10 examples/light_switch/provisioner/CMakeFiles/light_switch_provisioner_nrf52832_xxAA_s132_6.0.0.dir/__/__/__/models/config/src/packed_index_list.c.obj
 .debug_ranges  0x00004428      0x260 examples/light_switch/provisioner/CMakeFiles/light_switch_provisioner_nrf52832_xxAA_s132_6.0.0.dir/__/__/__/models/health/src/health_server.c.obj
 .debug_ranges  0x00004688       0x90 examples/light_switch/provisioner/CMakeFiles/light_switch_provisioner_nrf52832_xxAA_s132_6.0.0.dir/__/__/__/models/health/src/health_client.c.obj
 .debug_ranges  0x00004718      0x118 examples/light_switch/provisioner/CMakeFiles/light_switch_provisioner_nrf52832_xxAA_s132_6.0.0.dir/__/__/__/mesh/access/src/access_publish.c.obj
 .debug_ranges  0x00004830      0x7f8 examples/light_switch/provisioner/CMakeFiles/light_switch_provisioner_nrf52832_xxAA_s132_6.0.0.dir/__/__/__/mesh/access/src/access.c.obj
 .debug_ranges  0x00005028      0x160 examples/light_switch/provisioner/CMakeFiles/light_switch_provisioner_nrf52832_xxAA_s132_6.0.0.dir/__/__/__/mesh/access/src/access_reliable.c.obj
 .debug_ranges  0x00005188      0x7d8 examples/light_switch/provisioner/CMakeFiles/light_switch_provisioner_nrf52832_xxAA_s132_6.0.0.dir/__/__/__/mesh/access/src/device_state_manager.c.obj
 .debug_ranges  0x00005960      0x100 examples/light_switch/provisioner/CMakeFiles/light_switch_provisioner_nrf52832_xxAA_s132_6.0.0.dir/__/__/__/mesh/prov/src/prov_provisioner.c.obj
 .debug_ranges  0x00005a60      0x130 examples/light_switch/provisioner/CMakeFiles/light_switch_provisioner_nrf52832_xxAA_s132_6.0.0.dir/__/__/__/mesh/prov/src/nrf_mesh_prov.c.obj
 .debug_ranges  0x00005b90       0x70 examples/light_switch/provisioner/CMakeFiles/light_switch_provisioner_nrf52832_xxAA_s132_6.0.0.dir/__/__/__/mesh/prov/src/provisioning.c.obj
 .debug_ranges  0x00005c00       0x40 examples/light_switch/provisioner/CMakeFiles/light_switch_provisioner_nrf52832_xxAA_s132_6.0.0.dir/__/__/__/mesh/prov/src/prov_beacon.c.obj
 .debug_ranges  0x00005c40       0xa0 examples/light_switch/provisioner/CMakeFiles/light_switch_provisioner_nrf52832_xxAA_s132_6.0.0.dir/__/__/__/mesh/prov/src/prov_utils.c.obj
 .debug_ranges  0x00005ce0      0x498 examples/light_switch/provisioner/CMakeFiles/light_switch_provisioner_nrf52832_xxAA_s132_6.0.0.dir/__/__/__/mesh/prov/src/prov_bearer_adv.c.obj
 .debug_ranges  0x00006178       0x28 examples/light_switch/provisioner/CMakeFiles/light_switch_provisioner_nrf52832_xxAA_s132_6.0.0.dir/C_/b/nRF5_SDK_15.0.0_a53641a/modules/nrfx/mdk/system_nrf52.c.obj
 .debug_ranges  0x000061a0       0x10 examples/light_switch/provisioner/CMakeFiles/light_switch_provisioner_nrf52832_xxAA_s132_6.0.0.dir/C_/b/nRF5_SDK_15.0.0_a53641a/components/libraries/util/app_error_handler_gcc.c.obj
 .debug_ranges  0x000061b0      0x130 external/rtt/librtt_nrf52832_xxAA.a(SEGGER_RTT.c.obj)
 .debug_ranges  0x000062e0       0x48 external/rtt/librtt_nrf52832_xxAA.a(SEGGER_RTT_printf.c.obj)
 .debug_ranges  0x00006328      0x2e8 external/micro-ecc/libuECC_nrf52832_xxAA.a(uECC.c.obj)

.debug_line     0x00000000    0x191d0
 .debug_line    0x00000000      0xf2c examples/light_switch/provisioner/CMakeFiles/light_switch_provisioner_nrf52832_xxAA_s132_6.0.0.dir/src/main.c.obj
 .debug_line    0x00000f2c      0x496 examples/light_switch/provisioner/CMakeFiles/light_switch_provisioner_nrf52832_xxAA_s132_6.0.0.dir/__/__/__/mesh/stack/src/mesh_stack.c.obj
 .debug_line    0x000013c2      0xbf0 examples/light_switch/provisioner/CMakeFiles/light_switch_provisioner_nrf52832_xxAA_s132_6.0.0.dir/src/provisioner_helper.c.obj
 .debug_line    0x00001fb2      0xa64 examples/light_switch/provisioner/CMakeFiles/light_switch_provisioner_nrf52832_xxAA_s132_6.0.0.dir/src/node_setup.c.obj
 .debug_line    0x00002a16      0x3d4 examples/light_switch/provisioner/CMakeFiles/light_switch_provisioner_nrf52832_xxAA_s132_6.0.0.dir/__/__/common/src/mesh_softdevice_init.c.obj
 .debug_line    0x00002dea      0x29a examples/light_switch/provisioner/CMakeFiles/light_switch_provisioner_nrf52832_xxAA_s132_6.0.0.dir/__/__/common/src/rtt_input.c.obj
 .debug_line    0x00003084      0x46c examples/light_switch/provisioner/CMakeFiles/light_switch_provisioner_nrf52832_xxAA_s132_6.0.0.dir/__/__/common/src/simple_hal.c.obj
 .debug_line    0x000034f0      0x1e2 examples/light_switch/provisioner/CMakeFiles/light_switch_provisioner_nrf52832_xxAA_s132_6.0.0.dir/__/__/nrf_mesh_weak.c.obj
 .debug_line    0x000036d2      0x46d examples/light_switch/provisioner/CMakeFiles/light_switch_provisioner_nrf52832_xxAA_s132_6.0.0.dir/__/__/common/src/app_error_weak.c.obj
 .debug_line    0x00003b3f      0x228 examples/light_switch/provisioner/CMakeFiles/light_switch_provisioner_nrf52832_xxAA_s132_6.0.0.dir/__/__/common/src/assertion_handler_weak.c.obj
 .debug_line    0x00003d67      0x21f examples/light_switch/provisioner/CMakeFiles/light_switch_provisioner_nrf52832_xxAA_s132_6.0.0.dir/__/__/__/mesh/core/src/nrf_mesh_configure.c.obj
 .debug_line    0x00003f86      0x247 examples/light_switch/provisioner/CMakeFiles/light_switch_provisioner_nrf52832_xxAA_s132_6.0.0.dir/__/__/__/mesh/core/src/aes.c.obj
 .debug_line    0x000041cd      0x255 examples/light_switch/provisioner/CMakeFiles/light_switch_provisioner_nrf52832_xxAA_s132_6.0.0.dir/__/__/__/mesh/core/src/msg_cache.c.obj
 .debug_line    0x00004422      0xcb1 examples/light_switch/provisioner/CMakeFiles/light_switch_provisioner_nrf52832_xxAA_s132_6.0.0.dir/__/__/__/mesh/core/src/transport.c.obj
 .debug_line    0x000050d3      0x2d7 examples/light_switch/provisioner/CMakeFiles/light_switch_provisioner_nrf52832_xxAA_s132_6.0.0.dir/__/__/__/mesh/core/src/event.c.obj
 .debug_line    0x000053aa      0x4a9 examples/light_switch/provisioner/CMakeFiles/light_switch_provisioner_nrf52832_xxAA_s132_6.0.0.dir/__/__/__/mesh/core/src/packet_buffer.c.obj
 .debug_line    0x00005853      0x6cb examples/light_switch/provisioner/CMakeFiles/light_switch_provisioner_nrf52832_xxAA_s132_6.0.0.dir/__/__/__/mesh/core/src/flash_manager_defrag.c.obj
 .debug_line    0x00005f1e      0x36c examples/light_switch/provisioner/CMakeFiles/light_switch_provisioner_nrf52832_xxAA_s132_6.0.0.dir/__/__/__/mesh/core/src/fifo.c.obj
 .debug_line    0x0000628a      0x230 examples/light_switch/provisioner/CMakeFiles/light_switch_provisioner_nrf52832_xxAA_s132_6.0.0.dir/__/__/__/mesh/core/src/nrf_flash.c.obj
 .debug_line    0x000064ba      0x40b examples/light_switch/provisioner/CMakeFiles/light_switch_provisioner_nrf52832_xxAA_s132_6.0.0.dir/__/__/__/mesh/core/src/packet_mgr.c.obj
 .debug_line    0x000068c5      0x6aa examples/light_switch/provisioner/CMakeFiles/light_switch_provisioner_nrf52832_xxAA_s132_6.0.0.dir/__/__/__/mesh/core/src/net_state.c.obj
 .debug_line    0x00006f6f      0x508 examples/light_switch/provisioner/CMakeFiles/light_switch_provisioner_nrf52832_xxAA_s132_6.0.0.dir/__/__/__/mesh/core/src/mesh_flash.c.obj
 .debug_line    0x00007477      0x249 examples/light_switch/provisioner/CMakeFiles/light_switch_provisioner_nrf52832_xxAA_s132_6.0.0.dir/__/__/__/mesh/core/src/nrf_mesh_utils.c.obj
 .debug_line    0x000076c0      0x747 examples/light_switch/provisioner/CMakeFiles/light_switch_provisioner_nrf52832_xxAA_s132_6.0.0.dir/__/__/__/mesh/core/src/nrf_mesh.c.obj
 .debug_line    0x00007e07      0x281 examples/light_switch/provisioner/CMakeFiles/light_switch_provisioner_nrf52832_xxAA_s132_6.0.0.dir/__/__/__/mesh/core/src/queue.c.obj
 .debug_line    0x00008088      0x20d examples/light_switch/provisioner/CMakeFiles/light_switch_provisioner_nrf52832_xxAA_s132_6.0.0.dir/__/__/__/mesh/core/src/hal.c.obj
 .debug_line    0x00008295      0x2c6 examples/light_switch/provisioner/CMakeFiles/light_switch_provisioner_nrf52832_xxAA_s132_6.0.0.dir/__/__/__/mesh/core/src/aes_cmac.c.obj
 .debug_line    0x0000855b      0x41f examples/light_switch/provisioner/CMakeFiles/light_switch_provisioner_nrf52832_xxAA_s132_6.0.0.dir/__/__/__/mesh/core/src/timer_scheduler.c.obj
 .debug_line    0x0000897a      0x39f examples/light_switch/provisioner/CMakeFiles/light_switch_provisioner_nrf52832_xxAA_s132_6.0.0.dir/__/__/__/mesh/core/src/timer.c.obj
 .debug_line    0x00008d19      0x124 examples/light_switch/provisioner/CMakeFiles/light_switch_provisioner_nrf52832_xxAA_s132_6.0.0.dir/__/__/__/mesh/core/src/ticker.c.obj
 .debug_line    0x00008e3d      0x266 examples/light_switch/provisioner/CMakeFiles/light_switch_provisioner_nrf52832_xxAA_s132_6.0.0.dir/__/__/__/mesh/core/src/rand.c.obj
 .debug_line    0x000090a3      0x257 examples/light_switch/provisioner/CMakeFiles/light_switch_provisioner_nrf52832_xxAA_s132_6.0.0.dir/__/__/__/mesh/core/src/nrf_mesh_opt.c.obj
 .debug_line    0x000092fa      0x548 examples/light_switch/provisioner/CMakeFiles/light_switch_provisioner_nrf52832_xxAA_s132_6.0.0.dir/__/__/__/mesh/core/src/timeslot.c.obj
 .debug_line    0x00009842      0x507 examples/light_switch/provisioner/CMakeFiles/light_switch_provisioner_nrf52832_xxAA_s132_6.0.0.dir/__/__/__/mesh/core/src/bearer_event.c.obj
 .debug_line    0x00009d49      0x413 examples/light_switch/provisioner/CMakeFiles/light_switch_provisioner_nrf52832_xxAA_s132_6.0.0.dir/__/__/__/mesh/core/src/enc.c.obj
 .debug_line    0x0000a15c      0x520 examples/light_switch/provisioner/CMakeFiles/light_switch_provisioner_nrf52832_xxAA_s132_6.0.0.dir/__/__/__/mesh/core/src/network.c.obj
 .debug_line    0x0000a67c      0x54e examples/light_switch/provisioner/CMakeFiles/light_switch_provisioner_nrf52832_xxAA_s132_6.0.0.dir/__/__/__/mesh/core/src/net_packet.c.obj
 .debug_line    0x0000abca      0x2f0 examples/light_switch/provisioner/CMakeFiles/light_switch_provisioner_nrf52832_xxAA_s132_6.0.0.dir/__/__/__/mesh/core/src/msqueue.c.obj
 .debug_line    0x0000aeba      0x226 examples/light_switch/provisioner/CMakeFiles/light_switch_provisioner_nrf52832_xxAA_s132_6.0.0.dir/__/__/__/mesh/core/src/nrf_mesh_keygen.c.obj
 .debug_line    0x0000b0e0      0x2d0 examples/light_switch/provisioner/CMakeFiles/light_switch_provisioner_nrf52832_xxAA_s132_6.0.0.dir/__/__/__/mesh/core/src/list.c.obj
 .debug_line    0x0000b3b0      0x275 examples/light_switch/provisioner/CMakeFiles/light_switch_provisioner_nrf52832_xxAA_s132_6.0.0.dir/__/__/__/mesh/core/src/log.c.obj
 .debug_line    0x0000b625      0x8f6 examples/light_switch/provisioner/CMakeFiles/light_switch_provisioner_nrf52832_xxAA_s132_6.0.0.dir/__/__/__/mesh/core/src/flash_manager.c.obj
 .debug_line    0x0000bf1b      0x33d examples/light_switch/provisioner/CMakeFiles/light_switch_provisioner_nrf52832_xxAA_s132_6.0.0.dir/__/__/__/mesh/core/src/ccm_soft.c.obj
 .debug_line    0x0000c258      0x1cd examples/light_switch/provisioner/CMakeFiles/light_switch_provisioner_nrf52832_xxAA_s132_6.0.0.dir/__/__/__/mesh/core/src/replay_cache.c.obj
 .debug_line    0x0000c425      0x47e examples/light_switch/provisioner/CMakeFiles/light_switch_provisioner_nrf52832_xxAA_s132_6.0.0.dir/__/__/__/mesh/core/src/beacon.c.obj
 .debug_line    0x0000c8a3      0x269 examples/light_switch/provisioner/CMakeFiles/light_switch_provisioner_nrf52832_xxAA_s132_6.0.0.dir/__/__/__/mesh/core/src/flash_manager_internal.c.obj
 .debug_line    0x0000cb0c      0x396 examples/light_switch/provisioner/CMakeFiles/light_switch_provisioner_nrf52832_xxAA_s132_6.0.0.dir/__/__/__/mesh/core/src/core_tx.c.obj
 .debug_line    0x0000cea2      0x597 examples/light_switch/provisioner/CMakeFiles/light_switch_provisioner_nrf52832_xxAA_s132_6.0.0.dir/__/__/__/mesh/core/src/heartbeat.c.obj
 .debug_line    0x0000d439      0x5e8 examples/light_switch/provisioner/CMakeFiles/light_switch_provisioner_nrf52832_xxAA_s132_6.0.0.dir/__/__/__/mesh/core/src/net_beacon.c.obj
 .debug_line    0x0000da21      0x4b0 examples/light_switch/provisioner/CMakeFiles/light_switch_provisioner_nrf52832_xxAA_s132_6.0.0.dir/__/__/__/mesh/core/src/core_tx_adv.c.obj
 .debug_line    0x0000ded1      0x327 examples/light_switch/provisioner/CMakeFiles/light_switch_provisioner_nrf52832_xxAA_s132_6.0.0.dir/__/__/__/mesh/bearer/src/ad_listener.c.obj
 .debug_line    0x0000e1f8      0x3dc examples/light_switch/provisioner/CMakeFiles/light_switch_provisioner_nrf52832_xxAA_s132_6.0.0.dir/__/__/__/mesh/bearer/src/ad_type_filter.c.obj
 .debug_line    0x0000e5d4      0x6c7 examples/light_switch/provisioner/CMakeFiles/light_switch_provisioner_nrf52832_xxAA_s132_6.0.0.dir/__/__/__/mesh/bearer/src/advertiser.c.obj
 .debug_line    0x0000ec9b      0x495 examples/light_switch/provisioner/CMakeFiles/light_switch_provisioner_nrf52832_xxAA_s132_6.0.0.dir/__/__/__/mesh/bearer/src/bearer_handler.c.obj
 .debug_line    0x0000f130      0x351 examples/light_switch/provisioner/CMakeFiles/light_switch_provisioner_nrf52832_xxAA_s132_6.0.0.dir/__/__/__/mesh/bearer/src/broadcast.c.obj
 .debug_line    0x0000f481      0x31a examples/light_switch/provisioner/CMakeFiles/light_switch_provisioner_nrf52832_xxAA_s132_6.0.0.dir/__/__/__/mesh/bearer/src/filter_engine.c.obj
 .debug_line    0x0000f79b      0x286 examples/light_switch/provisioner/CMakeFiles/light_switch_provisioner_nrf52832_xxAA_s132_6.0.0.dir/__/__/__/mesh/bearer/src/radio_config.c.obj
 .debug_line    0x0000fa21      0x676 examples/light_switch/provisioner/CMakeFiles/light_switch_provisioner_nrf52832_xxAA_s132_6.0.0.dir/__/__/__/mesh/bearer/src/scanner.c.obj
 .debug_line    0x00010097      0xab2 examples/light_switch/provisioner/CMakeFiles/light_switch_provisioner_nrf52832_xxAA_s132_6.0.0.dir/__/__/__/models/config/src/config_client.c.obj
 .debug_line    0x00010b49      0x2ea examples/light_switch/provisioner/CMakeFiles/light_switch_provisioner_nrf52832_xxAA_s132_6.0.0.dir/__/__/__/models/config/src/composition_data.c.obj
 .debug_line    0x00010e33     0x1352 examples/light_switch/provisioner/CMakeFiles/light_switch_provisioner_nrf52832_xxAA_s132_6.0.0.dir/__/__/__/models/config/src/config_server.c.obj
 .debug_line    0x00012185       0xef examples/light_switch/provisioner/CMakeFiles/light_switch_provisioner_nrf52832_xxAA_s132_6.0.0.dir/__/__/__/models/config/src/packed_index_list.c.obj
 .debug_line    0x00012274      0x68e examples/light_switch/provisioner/CMakeFiles/light_switch_provisioner_nrf52832_xxAA_s132_6.0.0.dir/__/__/__/models/health/src/health_server.c.obj
 .debug_line    0x00012902      0x513 examples/light_switch/provisioner/CMakeFiles/light_switch_provisioner_nrf52832_xxAA_s132_6.0.0.dir/__/__/__/models/health/src/health_client.c.obj
 .debug_line    0x00012e15      0x40e examples/light_switch/provisioner/CMakeFiles/light_switch_provisioner_nrf52832_xxAA_s132_6.0.0.dir/__/__/__/mesh/access/src/access_publish.c.obj
 .debug_line    0x00013223      0xf0a examples/light_switch/provisioner/CMakeFiles/light_switch_provisioner_nrf52832_xxAA_s132_6.0.0.dir/__/__/__/mesh/access/src/access.c.obj
 .debug_line    0x0001412d      0x513 examples/light_switch/provisioner/CMakeFiles/light_switch_provisioner_nrf52832_xxAA_s132_6.0.0.dir/__/__/__/mesh/access/src/access_reliable.c.obj
 .debug_line    0x00014640     0x139a examples/light_switch/provisioner/CMakeFiles/light_switch_provisioner_nrf52832_xxAA_s132_6.0.0.dir/__/__/__/mesh/access/src/device_state_manager.c.obj
 .debug_line    0x000159da      0x57f examples/light_switch/provisioner/CMakeFiles/light_switch_provisioner_nrf52832_xxAA_s132_6.0.0.dir/__/__/__/mesh/prov/src/prov_provisioner.c.obj
 .debug_line    0x00015f59      0x54e examples/light_switch/provisioner/CMakeFiles/light_switch_provisioner_nrf52832_xxAA_s132_6.0.0.dir/__/__/__/mesh/prov/src/nrf_mesh_prov.c.obj
 .debug_line    0x000164a7      0x3ae examples/light_switch/provisioner/CMakeFiles/light_switch_provisioner_nrf52832_xxAA_s132_6.0.0.dir/__/__/__/mesh/prov/src/provisioning.c.obj
 .debug_line    0x00016855      0x44e examples/light_switch/provisioner/CMakeFiles/light_switch_provisioner_nrf52832_xxAA_s132_6.0.0.dir/__/__/__/mesh/prov/src/prov_beacon.c.obj
 .debug_line    0x00016ca3      0x48b examples/light_switch/provisioner/CMakeFiles/light_switch_provisioner_nrf52832_xxAA_s132_6.0.0.dir/__/__/__/mesh/prov/src/prov_utils.c.obj
 .debug_line    0x0001712e      0xb15 examples/light_switch/provisioner/CMakeFiles/light_switch_provisioner_nrf52832_xxAA_s132_6.0.0.dir/__/__/__/mesh/prov/src/prov_bearer_adv.c.obj
 .debug_line    0x00017c43      0x243 examples/light_switch/provisioner/CMakeFiles/light_switch_provisioner_nrf52832_xxAA_s132_6.0.0.dir/C_/b/nRF5_SDK_15.0.0_a53641a/modules/nrfx/mdk/system_nrf52.c.obj
 .debug_line    0x00017e86      0x205 examples/light_switch/provisioner/CMakeFiles/light_switch_provisioner_nrf52832_xxAA_s132_6.0.0.dir/C_/b/nRF5_SDK_15.0.0_a53641a/components/libraries/util/app_error_handler_gcc.c.obj
 .debug_line    0x0001808b      0x4c3 external/rtt/librtt_nrf52832_xxAA.a(SEGGER_RTT.c.obj)
 .debug_line    0x0001854e      0x285 external/rtt/librtt_nrf52832_xxAA.a(SEGGER_RTT_printf.c.obj)
 .debug_line    0x000187d3      0x9fd external/micro-ecc/libuECC_nrf52832_xxAA.a(uECC.c.obj)

.debug_str      0x00000000    0x1419a
 .debug_str     0x00000000     0x45e4 examples/light_switch/provisioner/CMakeFiles/light_switch_provisioner_nrf52832_xxAA_s132_6.0.0.dir/src/main.c.obj
                               0x4c57 (size before relaxing)
 .debug_str     0x000045e4      0x26d examples/light_switch/provisioner/CMakeFiles/light_switch_provisioner_nrf52832_xxAA_s132_6.0.0.dir/__/__/__/mesh/stack/src/mesh_stack.c.obj
                               0x272e (size before relaxing)
 .debug_str     0x00004851     0x19e9 examples/light_switch/provisioner/CMakeFiles/light_switch_provisioner_nrf52832_xxAA_s132_6.0.0.dir/src/provisioner_helper.c.obj
                               0x2dcf (size before relaxing)
 .debug_str     0x0000623a      0x943 examples/light_switch/provisioner/CMakeFiles/light_switch_provisioner_nrf52832_xxAA_s132_6.0.0.dir/src/node_setup.c.obj
                               0x253b (size before relaxing)
 .debug_str     0x00006b7d      0x317 examples/light_switch/provisioner/CMakeFiles/light_switch_provisioner_nrf52832_xxAA_s132_6.0.0.dir/__/__/common/src/mesh_softdevice_init.c.obj
                               0x117c (size before relaxing)
 .debug_str     0x00006e94      0x18d examples/light_switch/provisioner/CMakeFiles/light_switch_provisioner_nrf52832_xxAA_s132_6.0.0.dir/__/__/common/src/rtt_input.c.obj
                                0xb69 (size before relaxing)
 .debug_str     0x00007021      0x1e5 examples/light_switch/provisioner/CMakeFiles/light_switch_provisioner_nrf52832_xxAA_s132_6.0.0.dir/__/__/common/src/simple_hal.c.obj
                                0xceb (size before relaxing)
 .debug_str     0x00007206       0x3c examples/light_switch/provisioner/CMakeFiles/light_switch_provisioner_nrf52832_xxAA_s132_6.0.0.dir/__/__/nrf_mesh_weak.c.obj
                                0x61c (size before relaxing)
 .debug_str     0x00007242       0xa0 examples/light_switch/provisioner/CMakeFiles/light_switch_provisioner_nrf52832_xxAA_s132_6.0.0.dir/__/__/common/src/app_error_weak.c.obj
                                0x85d (size before relaxing)
 .debug_str     0x000072e2       0x3c examples/light_switch/provisioner/CMakeFiles/light_switch_provisioner_nrf52832_xxAA_s132_6.0.0.dir/__/__/common/src/assertion_handler_weak.c.obj
                                0x672 (size before relaxing)
 .debug_str     0x0000731e      0x159 examples/light_switch/provisioner/CMakeFiles/light_switch_provisioner_nrf52832_xxAA_s132_6.0.0.dir/__/__/__/mesh/core/src/nrf_mesh_configure.c.obj
                                0x77e (size before relaxing)
 .debug_str     0x00007477       0xc1 examples/light_switch/provisioner/CMakeFiles/light_switch_provisioner_nrf52832_xxAA_s132_6.0.0.dir/__/__/__/mesh/core/src/aes.c.obj
                                0xa89 (size before relaxing)
 .debug_str     0x00007538       0xbb examples/light_switch/provisioner/CMakeFiles/light_switch_provisioner_nrf52832_xxAA_s132_6.0.0.dir/__/__/__/mesh/core/src/msg_cache.c.obj
                                0x6b9 (size before relaxing)
 .debug_str     0x000075f3     0x163c examples/light_switch/provisioner/CMakeFiles/light_switch_provisioner_nrf52832_xxAA_s132_6.0.0.dir/__/__/__/mesh/core/src/transport.c.obj
                               0x3106 (size before relaxing)
 .debug_str     0x00008c2f       0x82 examples/light_switch/provisioner/CMakeFiles/light_switch_provisioner_nrf52832_xxAA_s132_6.0.0.dir/__/__/__/mesh/core/src/event.c.obj
                               0x16b3 (size before relaxing)
 .debug_str     0x00008cb1      0x30d examples/light_switch/provisioner/CMakeFiles/light_switch_provisioner_nrf52832_xxAA_s132_6.0.0.dir/__/__/__/mesh/core/src/packet_buffer.c.obj
                                0xaac (size before relaxing)
 .debug_str     0x00008fbe      0x644 examples/light_switch/provisioner/CMakeFiles/light_switch_provisioner_nrf52832_xxAA_s132_6.0.0.dir/__/__/__/mesh/core/src/flash_manager_defrag.c.obj
                               0x1104 (size before relaxing)
 .debug_str     0x00009602       0xa5 examples/light_switch/provisioner/CMakeFiles/light_switch_provisioner_nrf52832_xxAA_s132_6.0.0.dir/__/__/__/mesh/core/src/fifo.c.obj
                                0x6db (size before relaxing)
 .debug_str     0x000096a7       0xaa examples/light_switch/provisioner/CMakeFiles/light_switch_provisioner_nrf52832_xxAA_s132_6.0.0.dir/__/__/__/mesh/core/src/nrf_flash.c.obj
                                0x6bb (size before relaxing)
 .debug_str     0x00009751      0x287 examples/light_switch/provisioner/CMakeFiles/light_switch_provisioner_nrf52832_xxAA_s132_6.0.0.dir/__/__/__/mesh/core/src/packet_mgr.c.obj
                                0x9a5 (size before relaxing)
 .debug_str     0x000099d8      0x465 examples/light_switch/provisioner/CMakeFiles/light_switch_provisioner_nrf52832_xxAA_s132_6.0.0.dir/__/__/__/mesh/core/src/net_state.c.obj
                               0x2148 (size before relaxing)
 .debug_str     0x00009e3d      0x387 examples/light_switch/provisioner/CMakeFiles/light_switch_provisioner_nrf52832_xxAA_s132_6.0.0.dir/__/__/__/mesh/core/src/mesh_flash.c.obj
                                0xcdc (size before relaxing)
 .debug_str     0x0000a1c4       0x8b examples/light_switch/provisioner/CMakeFiles/light_switch_provisioner_nrf52832_xxAA_s132_6.0.0.dir/__/__/__/mesh/core/src/nrf_mesh_utils.c.obj
                                0x751 (size before relaxing)
 .debug_str     0x0000a24f      0x5fc examples/light_switch/provisioner/CMakeFiles/light_switch_provisioner_nrf52832_xxAA_s132_6.0.0.dir/__/__/__/mesh/core/src/nrf_mesh.c.obj
                               0x2137 (size before relaxing)
 .debug_str     0x0000a84b       0x5b examples/light_switch/provisioner/CMakeFiles/light_switch_provisioner_nrf52832_xxAA_s132_6.0.0.dir/__/__/__/mesh/core/src/queue.c.obj
                                0x683 (size before relaxing)
 .debug_str     0x0000a8a6       0xb5 examples/light_switch/provisioner/CMakeFiles/light_switch_provisioner_nrf52832_xxAA_s132_6.0.0.dir/__/__/__/mesh/core/src/hal.c.obj
                                0x749 (size before relaxing)
 .debug_str     0x0000a95b       0xca examples/light_switch/provisioner/CMakeFiles/light_switch_provisioner_nrf52832_xxAA_s132_6.0.0.dir/__/__/__/mesh/core/src/aes_cmac.c.obj
                                0x715 (size before relaxing)
 .debug_str     0x0000aa25      0x146 examples/light_switch/provisioner/CMakeFiles/light_switch_provisioner_nrf52832_xxAA_s132_6.0.0.dir/__/__/__/mesh/core/src/timer_scheduler.c.obj
                                0x934 (size before relaxing)
 .debug_str     0x0000ab6b      0x1db examples/light_switch/provisioner/CMakeFiles/light_switch_provisioner_nrf52832_xxAA_s132_6.0.0.dir/__/__/__/mesh/core/src/timer.c.obj
                                0x869 (size before relaxing)
 .debug_str     0x0000ad46       0x42 examples/light_switch/provisioner/CMakeFiles/light_switch_provisioner_nrf52832_xxAA_s132_6.0.0.dir/__/__/__/mesh/core/src/ticker.c.obj
                                0x34c (size before relaxing)
 .debug_str     0x0000ad88       0xac examples/light_switch/provisioner/CMakeFiles/light_switch_provisioner_nrf52832_xxAA_s132_6.0.0.dir/__/__/__/mesh/core/src/rand.c.obj
                                0x6dd (size before relaxing)
 .debug_str     0x0000ae34       0x88 examples/light_switch/provisioner/CMakeFiles/light_switch_provisioner_nrf52832_xxAA_s132_6.0.0.dir/__/__/__/mesh/core/src/nrf_mesh_opt.c.obj
                                0x8f0 (size before relaxing)
 .debug_str     0x0000aebc      0x8af examples/light_switch/provisioner/CMakeFiles/light_switch_provisioner_nrf52832_xxAA_s132_6.0.0.dir/__/__/__/mesh/core/src/timeslot.c.obj
                               0x17f6 (size before relaxing)
 .debug_str     0x0000b76b      0x2c6 examples/light_switch/provisioner/CMakeFiles/light_switch_provisioner_nrf52832_xxAA_s132_6.0.0.dir/__/__/__/mesh/core/src/bearer_event.c.obj
                                0xeb9 (size before relaxing)
 .debug_str     0x0000ba31      0x16e examples/light_switch/provisioner/CMakeFiles/light_switch_provisioner_nrf52832_xxAA_s132_6.0.0.dir/__/__/__/mesh/core/src/enc.c.obj
                                0x9ef (size before relaxing)
 .debug_str     0x0000bb9f      0x2f9 examples/light_switch/provisioner/CMakeFiles/light_switch_provisioner_nrf52832_xxAA_s132_6.0.0.dir/__/__/__/mesh/core/src/network.c.obj
                               0x12e8 (size before relaxing)
 .debug_str     0x0000be98      0x30f examples/light_switch/provisioner/CMakeFiles/light_switch_provisioner_nrf52832_xxAA_s132_6.0.0.dir/__/__/__/mesh/core/src/net_packet.c.obj
                                0xe86 (size before relaxing)
 .debug_str     0x0000c1a7       0x53 examples/light_switch/provisioner/CMakeFiles/light_switch_provisioner_nrf52832_xxAA_s132_6.0.0.dir/__/__/__/mesh/core/src/msqueue.c.obj
                                0x6bf (size before relaxing)
 .debug_str     0x0000c1fa       0xbf examples/light_switch/provisioner/CMakeFiles/light_switch_provisioner_nrf52832_xxAA_s132_6.0.0.dir/__/__/__/mesh/core/src/nrf_mesh_keygen.c.obj
                                0x397 (size before relaxing)
 .debug_str     0x0000c2b9       0x7d examples/light_switch/provisioner/CMakeFiles/light_switch_provisioner_nrf52832_xxAA_s132_6.0.0.dir/__/__/__/mesh/core/src/list.c.obj
                                0x2be (size before relaxing)
 .debug_str     0x0000c336       0xf7 examples/light_switch/provisioner/CMakeFiles/light_switch_provisioner_nrf52832_xxAA_s132_6.0.0.dir/__/__/__/mesh/core/src/log.c.obj
                                0x7d0 (size before relaxing)
 .debug_str     0x0000c42d      0x4e7 examples/light_switch/provisioner/CMakeFiles/light_switch_provisioner_nrf52832_xxAA_s132_6.0.0.dir/__/__/__/mesh/core/src/flash_manager.c.obj
                               0x1578 (size before relaxing)
 .debug_str     0x0000c914       0x85 examples/light_switch/provisioner/CMakeFiles/light_switch_provisioner_nrf52832_xxAA_s132_6.0.0.dir/__/__/__/mesh/core/src/ccm_soft.c.obj
                                0x75d (size before relaxing)
 .debug_str     0x0000c999       0x92 examples/light_switch/provisioner/CMakeFiles/light_switch_provisioner_nrf52832_xxAA_s132_6.0.0.dir/__/__/__/mesh/core/src/replay_cache.c.obj
                                0x68d (size before relaxing)
 .debug_str     0x0000ca2b       0xd4 examples/light_switch/provisioner/CMakeFiles/light_switch_provisioner_nrf52832_xxAA_s132_6.0.0.dir/__/__/__/mesh/core/src/beacon.c.obj
                               0x1103 (size before relaxing)
 .debug_str     0x0000caff       0x38 examples/light_switch/provisioner/CMakeFiles/light_switch_provisioner_nrf52832_xxAA_s132_6.0.0.dir/__/__/__/mesh/core/src/flash_manager_internal.c.obj
                                0x7a4 (size before relaxing)
 .debug_str     0x0000cb37      0x2c7 examples/light_switch/provisioner/CMakeFiles/light_switch_provisioner_nrf52832_xxAA_s132_6.0.0.dir/__/__/__/mesh/core/src/core_tx.c.obj
                                0xbef (size before relaxing)
 .debug_str     0x0000cdfe      0x418 examples/light_switch/provisioner/CMakeFiles/light_switch_provisioner_nrf52832_xxAA_s132_6.0.0.dir/__/__/__/mesh/core/src/heartbeat.c.obj
                               0x2240 (size before relaxing)
 .debug_str     0x0000d216      0x25c examples/light_switch/provisioner/CMakeFiles/light_switch_provisioner_nrf52832_xxAA_s132_6.0.0.dir/__/__/__/mesh/core/src/net_beacon.c.obj
                               0x20a0 (size before relaxing)
 .debug_str     0x0000d472      0x107 examples/light_switch/provisioner/CMakeFiles/light_switch_provisioner_nrf52832_xxAA_s132_6.0.0.dir/__/__/__/mesh/core/src/core_tx_adv.c.obj
                               0x12d9 (size before relaxing)
 .debug_str     0x0000d579      0x186 examples/light_switch/provisioner/CMakeFiles/light_switch_provisioner_nrf52832_xxAA_s132_6.0.0.dir/__/__/__/mesh/bearer/src/ad_listener.c.obj
                                0xbe2 (size before relaxing)
 .debug_str     0x0000d6ff      0x162 examples/light_switch/provisioner/CMakeFiles/light_switch_provisioner_nrf52832_xxAA_s132_6.0.0.dir/__/__/__/mesh/bearer/src/ad_type_filter.c.obj
                                0x99f (size before relaxing)
 .debug_str     0x0000d861      0x321 examples/light_switch/provisioner/CMakeFiles/light_switch_provisioner_nrf52832_xxAA_s132_6.0.0.dir/__/__/__/mesh/bearer/src/advertiser.c.obj
                               0x14f2 (size before relaxing)
 .debug_str     0x0000db82      0x328 examples/light_switch/provisioner/CMakeFiles/light_switch_provisioner_nrf52832_xxAA_s132_6.0.0.dir/__/__/__/mesh/bearer/src/bearer_handler.c.obj
                                0xf75 (size before relaxing)
 .debug_str     0x0000deaa      0x1ac examples/light_switch/provisioner/CMakeFiles/light_switch_provisioner_nrf52832_xxAA_s132_6.0.0.dir/__/__/__/mesh/bearer/src/broadcast.c.obj
                                0xf2c (size before relaxing)
 .debug_str     0x0000e056       0x72 examples/light_switch/provisioner/CMakeFiles/light_switch_provisioner_nrf52832_xxAA_s132_6.0.0.dir/__/__/__/mesh/bearer/src/filter_engine.c.obj
                                0x80c (size before relaxing)
 .debug_str     0x0000e0c8       0x79 examples/light_switch/provisioner/CMakeFiles/light_switch_provisioner_nrf52832_xxAA_s132_6.0.0.dir/__/__/__/mesh/bearer/src/radio_config.c.obj
                                0x77a (size before relaxing)
 .debug_str     0x0000e141      0x45d examples/light_switch/provisioner/CMakeFiles/light_switch_provisioner_nrf52832_xxAA_s132_6.0.0.dir/__/__/__/mesh/bearer/src/scanner.c.obj
                               0x18be (size before relaxing)
 .debug_str     0x0000e59e      0xd13 examples/light_switch/provisioner/CMakeFiles/light_switch_provisioner_nrf52832_xxAA_s132_6.0.0.dir/__/__/__/models/config/src/config_client.c.obj
                               0x2bf5 (size before relaxing)
 .debug_str     0x0000f2b1      0x22b examples/light_switch/provisioner/CMakeFiles/light_switch_provisioner_nrf52832_xxAA_s132_6.0.0.dir/__/__/__/models/config/src/composition_data.c.obj
                                0x8dd (size before relaxing)
 .debug_str     0x0000f4dc     0x1120 examples/light_switch/provisioner/CMakeFiles/light_switch_provisioner_nrf52832_xxAA_s132_6.0.0.dir/__/__/__/models/config/src/config_server.c.obj
                               0x5005 (size before relaxing)
 .debug_str     0x000105fc       0x69 examples/light_switch/provisioner/CMakeFiles/light_switch_provisioner_nrf52832_xxAA_s132_6.0.0.dir/__/__/__/models/config/src/packed_index_list.c.obj
                                0x24d (size before relaxing)
 .debug_str     0x00010665      0x607 examples/light_switch/provisioner/CMakeFiles/light_switch_provisioner_nrf52832_xxAA_s132_6.0.0.dir/__/__/__/models/health/src/health_server.c.obj
                               0x169f (size before relaxing)
 .debug_str     0x00010c6c      0x193 examples/light_switch/provisioner/CMakeFiles/light_switch_provisioner_nrf52832_xxAA_s132_6.0.0.dir/__/__/__/models/health/src/health_client.c.obj
                               0x1440 (size before relaxing)
 .debug_str     0x00010dff      0x264 examples/light_switch/provisioner/CMakeFiles/light_switch_provisioner_nrf52832_xxAA_s132_6.0.0.dir/__/__/__/mesh/access/src/access_publish.c.obj
                                0xbcc (size before relaxing)
 .debug_str     0x00011063      0x785 examples/light_switch/provisioner/CMakeFiles/light_switch_provisioner_nrf52832_xxAA_s132_6.0.0.dir/__/__/__/mesh/access/src/access.c.obj
                               0x2f65 (size before relaxing)
 .debug_str     0x000117e8      0x12f examples/light_switch/provisioner/CMakeFiles/light_switch_provisioner_nrf52832_xxAA_s132_6.0.0.dir/__/__/__/mesh/access/src/access_reliable.c.obj
                               0x1006 (size before relaxing)
 .debug_str     0x00011917      0xcc5 examples/light_switch/provisioner/CMakeFiles/light_switch_provisioner_nrf52832_xxAA_s132_6.0.0.dir/__/__/__/mesh/access/src/device_state_manager.c.obj
                               0x3068 (size before relaxing)
 .debug_str     0x000125dc      0x501 examples/light_switch/provisioner/CMakeFiles/light_switch_provisioner_nrf52832_xxAA_s132_6.0.0.dir/__/__/__/mesh/prov/src/prov_provisioner.c.obj
                               0x1f74 (size before relaxing)
 .debug_str     0x00012add      0x201 examples/light_switch/provisioner/CMakeFiles/light_switch_provisioner_nrf52832_xxAA_s132_6.0.0.dir/__/__/__/mesh/prov/src/nrf_mesh_prov.c.obj
                               0x1dda (size before relaxing)
 .debug_str     0x00012cde      0x105 examples/light_switch/provisioner/CMakeFiles/light_switch_provisioner_nrf52832_xxAA_s132_6.0.0.dir/__/__/__/mesh/prov/src/provisioning.c.obj
                                0xf2b (size before relaxing)
 .debug_str     0x00012de3       0xb1 examples/light_switch/provisioner/CMakeFiles/light_switch_provisioner_nrf52832_xxAA_s132_6.0.0.dir/__/__/__/mesh/prov/src/prov_beacon.c.obj
                               0x195c (size before relaxing)
 .debug_str     0x00012e94      0x180 examples/light_switch/provisioner/CMakeFiles/light_switch_provisioner_nrf52832_xxAA_s132_6.0.0.dir/__/__/__/mesh/prov/src/prov_utils.c.obj
                               0x1f04 (size before relaxing)
 .debug_str     0x00013014      0x417 examples/light_switch/provisioner/CMakeFiles/light_switch_provisioner_nrf52832_xxAA_s132_6.0.0.dir/__/__/__/mesh/prov/src/prov_bearer_adv.c.obj
                               0x1bc0 (size before relaxing)
 .debug_str     0x0001342b      0x2e6 examples/light_switch/provisioner/CMakeFiles/light_switch_provisioner_nrf52832_xxAA_s132_6.0.0.dir/C_/b/nRF5_SDK_15.0.0_a53641a/modules/nrfx/mdk/system_nrf52.c.obj
                                0x762 (size before relaxing)
 .debug_str     0x00013711       0x5a examples/light_switch/provisioner/CMakeFiles/light_switch_provisioner_nrf52832_xxAA_s132_6.0.0.dir/C_/b/nRF5_SDK_15.0.0_a53641a/components/libraries/util/app_error_handler_gcc.c.obj
                                0x689 (size before relaxing)
 .debug_str     0x0001376b      0x2bf external/rtt/librtt_nrf52832_xxAA.a(SEGGER_RTT.c.obj)
                                0x922 (size before relaxing)
 .debug_str     0x00013a2a       0xdf external/rtt/librtt_nrf52832_xxAA.a(SEGGER_RTT_printf.c.obj)
                                0x792 (size before relaxing)
 .debug_str     0x00013b09      0x691 external/micro-ecc/libuECC_nrf52832_xxAA.a(uECC.c.obj)
                                0x880 (size before relaxing)

.debug_frame    0x00000000     0x7698
 .debug_frame   0x00000000      0x2d0 examples/light_switch/provisioner/CMakeFiles/light_switch_provisioner_nrf52832_xxAA_s132_6.0.0.dir/src/main.c.obj
 .debug_frame   0x000002d0       0xcc examples/light_switch/provisioner/CMakeFiles/light_switch_provisioner_nrf52832_xxAA_s132_6.0.0.dir/__/__/__/mesh/stack/src/mesh_stack.c.obj
 .debug_frame   0x0000039c       0xf8 examples/light_switch/provisioner/CMakeFiles/light_switch_provisioner_nrf52832_xxAA_s132_6.0.0.dir/src/provisioner_helper.c.obj
 .debug_frame   0x00000494      0x12c examples/light_switch/provisioner/CMakeFiles/light_switch_provisioner_nrf52832_xxAA_s132_6.0.0.dir/src/node_setup.c.obj
 .debug_frame   0x000005c0       0x80 examples/light_switch/provisioner/CMakeFiles/light_switch_provisioner_nrf52832_xxAA_s132_6.0.0.dir/__/__/common/src/mesh_softdevice_init.c.obj
 .debug_frame   0x00000640       0x54 examples/light_switch/provisioner/CMakeFiles/light_switch_provisioner_nrf52832_xxAA_s132_6.0.0.dir/__/__/common/src/rtt_input.c.obj
 .debug_frame   0x00000694       0xa0 examples/light_switch/provisioner/CMakeFiles/light_switch_provisioner_nrf52832_xxAA_s132_6.0.0.dir/__/__/common/src/simple_hal.c.obj
 .debug_frame   0x00000734       0x30 examples/light_switch/provisioner/CMakeFiles/light_switch_provisioner_nrf52832_xxAA_s132_6.0.0.dir/__/__/nrf_mesh_weak.c.obj
 .debug_frame   0x00000764       0x34 examples/light_switch/provisioner/CMakeFiles/light_switch_provisioner_nrf52832_xxAA_s132_6.0.0.dir/__/__/common/src/app_error_weak.c.obj
 .debug_frame   0x00000798       0x28 examples/light_switch/provisioner/CMakeFiles/light_switch_provisioner_nrf52832_xxAA_s132_6.0.0.dir/__/__/common/src/assertion_handler_weak.c.obj
 .debug_frame   0x000007c0       0x4c examples/light_switch/provisioner/CMakeFiles/light_switch_provisioner_nrf52832_xxAA_s132_6.0.0.dir/__/__/__/mesh/core/src/nrf_mesh_configure.c.obj
 .debug_frame   0x0000080c       0x40 examples/light_switch/provisioner/CMakeFiles/light_switch_provisioner_nrf52832_xxAA_s132_6.0.0.dir/__/__/__/mesh/core/src/aes.c.obj
 .debug_frame   0x0000084c       0x6c examples/light_switch/provisioner/CMakeFiles/light_switch_provisioner_nrf52832_xxAA_s132_6.0.0.dir/__/__/__/mesh/core/src/msg_cache.c.obj
 .debug_frame   0x000008b8      0x404 examples/light_switch/provisioner/CMakeFiles/light_switch_provisioner_nrf52832_xxAA_s132_6.0.0.dir/__/__/__/mesh/core/src/transport.c.obj
 .debug_frame   0x00000cbc       0x64 examples/light_switch/provisioner/CMakeFiles/light_switch_provisioner_nrf52832_xxAA_s132_6.0.0.dir/__/__/__/mesh/core/src/event.c.obj
 .debug_frame   0x00000d20      0x128 examples/light_switch/provisioner/CMakeFiles/light_switch_provisioner_nrf52832_xxAA_s132_6.0.0.dir/__/__/__/mesh/core/src/packet_buffer.c.obj
 .debug_frame   0x00000e48      0x24c examples/light_switch/provisioner/CMakeFiles/light_switch_provisioner_nrf52832_xxAA_s132_6.0.0.dir/__/__/__/mesh/core/src/flash_manager_defrag.c.obj
 .debug_frame   0x00001094       0xd0 examples/light_switch/provisioner/CMakeFiles/light_switch_provisioner_nrf52832_xxAA_s132_6.0.0.dir/__/__/__/mesh/core/src/fifo.c.obj
 .debug_frame   0x00001164       0x54 examples/light_switch/provisioner/CMakeFiles/light_switch_provisioner_nrf52832_xxAA_s132_6.0.0.dir/__/__/__/mesh/core/src/nrf_flash.c.obj
 .debug_frame   0x000011b8       0xa0 examples/light_switch/provisioner/CMakeFiles/light_switch_provisioner_nrf52832_xxAA_s132_6.0.0.dir/__/__/__/mesh/core/src/packet_mgr.c.obj
 .debug_frame   0x00001258      0x298 examples/light_switch/provisioner/CMakeFiles/light_switch_provisioner_nrf52832_xxAA_s132_6.0.0.dir/__/__/__/mesh/core/src/net_state.c.obj
 .debug_frame   0x000014f0      0x150 examples/light_switch/provisioner/CMakeFiles/light_switch_provisioner_nrf52832_xxAA_s132_6.0.0.dir/__/__/__/mesh/core/src/mesh_flash.c.obj
 .debug_frame   0x00001640       0x50 examples/light_switch/provisioner/CMakeFiles/light_switch_provisioner_nrf52832_xxAA_s132_6.0.0.dir/__/__/__/mesh/core/src/nrf_mesh_utils.c.obj
 .debug_frame   0x00001690      0x190 examples/light_switch/provisioner/CMakeFiles/light_switch_provisioner_nrf52832_xxAA_s132_6.0.0.dir/__/__/__/mesh/core/src/nrf_mesh.c.obj
 .debug_frame   0x00001820       0x74 examples/light_switch/provisioner/CMakeFiles/light_switch_provisioner_nrf52832_xxAA_s132_6.0.0.dir/__/__/__/mesh/core/src/queue.c.obj
 .debug_frame   0x00001894       0x58 examples/light_switch/provisioner/CMakeFiles/light_switch_provisioner_nrf52832_xxAA_s132_6.0.0.dir/__/__/__/mesh/core/src/hal.c.obj
 .debug_frame   0x000018ec       0xa4 examples/light_switch/provisioner/CMakeFiles/light_switch_provisioner_nrf52832_xxAA_s132_6.0.0.dir/__/__/__/mesh/core/src/aes_cmac.c.obj
 .debug_frame   0x00001990      0x134 examples/light_switch/provisioner/CMakeFiles/light_switch_provisioner_nrf52832_xxAA_s132_6.0.0.dir/__/__/__/mesh/core/src/timer_scheduler.c.obj
 .debug_frame   0x00001ac4      0x10c examples/light_switch/provisioner/CMakeFiles/light_switch_provisioner_nrf52832_xxAA_s132_6.0.0.dir/__/__/__/mesh/core/src/timer.c.obj
 .debug_frame   0x00001bd0       0x4c examples/light_switch/provisioner/CMakeFiles/light_switch_provisioner_nrf52832_xxAA_s132_6.0.0.dir/__/__/__/mesh/core/src/ticker.c.obj
 .debug_frame   0x00001c1c       0x84 examples/light_switch/provisioner/CMakeFiles/light_switch_provisioner_nrf52832_xxAA_s132_6.0.0.dir/__/__/__/mesh/core/src/rand.c.obj
 .debug_frame   0x00001ca0       0x30 examples/light_switch/provisioner/CMakeFiles/light_switch_provisioner_nrf52832_xxAA_s132_6.0.0.dir/__/__/__/mesh/core/src/nrf_mesh_opt.c.obj
 .debug_frame   0x00001cd0      0x1a0 examples/light_switch/provisioner/CMakeFiles/light_switch_provisioner_nrf52832_xxAA_s132_6.0.0.dir/__/__/__/mesh/core/src/timeslot.c.obj
 .debug_frame   0x00001e70      0x1bc examples/light_switch/provisioner/CMakeFiles/light_switch_provisioner_nrf52832_xxAA_s132_6.0.0.dir/__/__/__/mesh/core/src/bearer_event.c.obj
 .debug_frame   0x0000202c      0x13c examples/light_switch/provisioner/CMakeFiles/light_switch_provisioner_nrf52832_xxAA_s132_6.0.0.dir/__/__/__/mesh/core/src/enc.c.obj
 .debug_frame   0x00002168      0x100 examples/light_switch/provisioner/CMakeFiles/light_switch_provisioner_nrf52832_xxAA_s132_6.0.0.dir/__/__/__/mesh/core/src/network.c.obj
 .debug_frame   0x00002268      0x114 examples/light_switch/provisioner/CMakeFiles/light_switch_provisioner_nrf52832_xxAA_s132_6.0.0.dir/__/__/__/mesh/core/src/net_packet.c.obj
 .debug_frame   0x0000237c       0xb4 examples/light_switch/provisioner/CMakeFiles/light_switch_provisioner_nrf52832_xxAA_s132_6.0.0.dir/__/__/__/mesh/core/src/msqueue.c.obj
 .debug_frame   0x00002430       0xb4 examples/light_switch/provisioner/CMakeFiles/light_switch_provisioner_nrf52832_xxAA_s132_6.0.0.dir/__/__/__/mesh/core/src/nrf_mesh_keygen.c.obj
 .debug_frame   0x000024e4       0xc8 examples/light_switch/provisioner/CMakeFiles/light_switch_provisioner_nrf52832_xxAA_s132_6.0.0.dir/__/__/__/mesh/core/src/list.c.obj
 .debug_frame   0x000025ac       0xb0 examples/light_switch/provisioner/CMakeFiles/light_switch_provisioner_nrf52832_xxAA_s132_6.0.0.dir/__/__/__/mesh/core/src/log.c.obj
 .debug_frame   0x0000265c      0x320 examples/light_switch/provisioner/CMakeFiles/light_switch_provisioner_nrf52832_xxAA_s132_6.0.0.dir/__/__/__/mesh/core/src/flash_manager.c.obj
 .debug_frame   0x0000297c      0x10c examples/light_switch/provisioner/CMakeFiles/light_switch_provisioner_nrf52832_xxAA_s132_6.0.0.dir/__/__/__/mesh/core/src/ccm_soft.c.obj
 .debug_frame   0x00002a88       0x80 examples/light_switch/provisioner/CMakeFiles/light_switch_provisioner_nrf52832_xxAA_s132_6.0.0.dir/__/__/__/mesh/core/src/replay_cache.c.obj
 .debug_frame   0x00002b08       0x60 examples/light_switch/provisioner/CMakeFiles/light_switch_provisioner_nrf52832_xxAA_s132_6.0.0.dir/__/__/__/mesh/core/src/beacon.c.obj
 .debug_frame   0x00002b68       0x34 examples/light_switch/provisioner/CMakeFiles/light_switch_provisioner_nrf52832_xxAA_s132_6.0.0.dir/__/__/__/mesh/core/src/flash_manager_internal.c.obj
 .debug_frame   0x00002b9c       0xf0 examples/light_switch/provisioner/CMakeFiles/light_switch_provisioner_nrf52832_xxAA_s132_6.0.0.dir/__/__/__/mesh/core/src/core_tx.c.obj
 .debug_frame   0x00002c8c      0x160 examples/light_switch/provisioner/CMakeFiles/light_switch_provisioner_nrf52832_xxAA_s132_6.0.0.dir/__/__/__/mesh/core/src/heartbeat.c.obj
 .debug_frame   0x00002dec      0x138 examples/light_switch/provisioner/CMakeFiles/light_switch_provisioner_nrf52832_xxAA_s132_6.0.0.dir/__/__/__/mesh/core/src/net_beacon.c.obj
 .debug_frame   0x00002f24      0x12c examples/light_switch/provisioner/CMakeFiles/light_switch_provisioner_nrf52832_xxAA_s132_6.0.0.dir/__/__/__/mesh/core/src/core_tx_adv.c.obj
 .debug_frame   0x00003050       0x6c examples/light_switch/provisioner/CMakeFiles/light_switch_provisioner_nrf52832_xxAA_s132_6.0.0.dir/__/__/__/mesh/bearer/src/ad_listener.c.obj
 .debug_frame   0x000030bc       0xa8 examples/light_switch/provisioner/CMakeFiles/light_switch_provisioner_nrf52832_xxAA_s132_6.0.0.dir/__/__/__/mesh/bearer/src/ad_type_filter.c.obj
 .debug_frame   0x00003164      0x268 examples/light_switch/provisioner/CMakeFiles/light_switch_provisioner_nrf52832_xxAA_s132_6.0.0.dir/__/__/__/mesh/bearer/src/advertiser.c.obj
 .debug_frame   0x000033cc      0x158 examples/light_switch/provisioner/CMakeFiles/light_switch_provisioner_nrf52832_xxAA_s132_6.0.0.dir/__/__/__/mesh/bearer/src/bearer_handler.c.obj
 .debug_frame   0x00003524       0x70 examples/light_switch/provisioner/CMakeFiles/light_switch_provisioner_nrf52832_xxAA_s132_6.0.0.dir/__/__/__/mesh/bearer/src/broadcast.c.obj
 .debug_frame   0x00003594       0x74 examples/light_switch/provisioner/CMakeFiles/light_switch_provisioner_nrf52832_xxAA_s132_6.0.0.dir/__/__/__/mesh/bearer/src/filter_engine.c.obj
 .debug_frame   0x00003608       0x94 examples/light_switch/provisioner/CMakeFiles/light_switch_provisioner_nrf52832_xxAA_s132_6.0.0.dir/__/__/__/mesh/bearer/src/radio_config.c.obj
 .debug_frame   0x0000369c      0x2a4 examples/light_switch/provisioner/CMakeFiles/light_switch_provisioner_nrf52832_xxAA_s132_6.0.0.dir/__/__/__/mesh/bearer/src/scanner.c.obj
 .debug_frame   0x00003940      0x628 examples/light_switch/provisioner/CMakeFiles/light_switch_provisioner_nrf52832_xxAA_s132_6.0.0.dir/__/__/__/models/config/src/config_client.c.obj
 .debug_frame   0x00003f68       0x40 examples/light_switch/provisioner/CMakeFiles/light_switch_provisioner_nrf52832_xxAA_s132_6.0.0.dir/__/__/__/models/config/src/composition_data.c.obj
 .debug_frame   0x00003fa8      0x8bc examples/light_switch/provisioner/CMakeFiles/light_switch_provisioner_nrf52832_xxAA_s132_6.0.0.dir/__/__/__/models/config/src/config_server.c.obj
 .debug_frame   0x00004864       0x2c examples/light_switch/provisioner/CMakeFiles/light_switch_provisioner_nrf52832_xxAA_s132_6.0.0.dir/__/__/__/models/config/src/packed_index_list.c.obj
 .debug_frame   0x00004890      0x2a0 examples/light_switch/provisioner/CMakeFiles/light_switch_provisioner_nrf52832_xxAA_s132_6.0.0.dir/__/__/__/models/health/src/health_server.c.obj
 .debug_frame   0x00004b30      0x1bc examples/light_switch/provisioner/CMakeFiles/light_switch_provisioner_nrf52832_xxAA_s132_6.0.0.dir/__/__/__/models/health/src/health_client.c.obj
 .debug_frame   0x00004cec      0x114 examples/light_switch/provisioner/CMakeFiles/light_switch_provisioner_nrf52832_xxAA_s132_6.0.0.dir/__/__/__/mesh/access/src/access_publish.c.obj
 .debug_frame   0x00004e00      0x5c0 examples/light_switch/provisioner/CMakeFiles/light_switch_provisioner_nrf52832_xxAA_s132_6.0.0.dir/__/__/__/mesh/access/src/access.c.obj
 .debug_frame   0x000053c0      0x124 examples/light_switch/provisioner/CMakeFiles/light_switch_provisioner_nrf52832_xxAA_s132_6.0.0.dir/__/__/__/mesh/access/src/access_reliable.c.obj
 .debug_frame   0x000054e4      0xab8 examples/light_switch/provisioner/CMakeFiles/light_switch_provisioner_nrf52832_xxAA_s132_6.0.0.dir/__/__/__/mesh/access/src/device_state_manager.c.obj
 .debug_frame   0x00005f9c      0x190 examples/light_switch/provisioner/CMakeFiles/light_switch_provisioner_nrf52832_xxAA_s132_6.0.0.dir/__/__/__/mesh/prov/src/prov_provisioner.c.obj
 .debug_frame   0x0000612c      0x160 examples/light_switch/provisioner/CMakeFiles/light_switch_provisioner_nrf52832_xxAA_s132_6.0.0.dir/__/__/__/mesh/prov/src/nrf_mesh_prov.c.obj
 .debug_frame   0x0000628c      0x170 examples/light_switch/provisioner/CMakeFiles/light_switch_provisioner_nrf52832_xxAA_s132_6.0.0.dir/__/__/__/mesh/prov/src/provisioning.c.obj
 .debug_frame   0x000063fc       0x84 examples/light_switch/provisioner/CMakeFiles/light_switch_provisioner_nrf52832_xxAA_s132_6.0.0.dir/__/__/__/mesh/prov/src/prov_beacon.c.obj
 .debug_frame   0x00006480      0x150 examples/light_switch/provisioner/CMakeFiles/light_switch_provisioner_nrf52832_xxAA_s132_6.0.0.dir/__/__/__/mesh/prov/src/prov_utils.c.obj
 .debug_frame   0x000065d0      0x324 examples/light_switch/provisioner/CMakeFiles/light_switch_provisioner_nrf52832_xxAA_s132_6.0.0.dir/__/__/__/mesh/prov/src/prov_bearer_adv.c.obj
 .debug_frame   0x000068f4       0x58 examples/light_switch/provisioner/CMakeFiles/light_switch_provisioner_nrf52832_xxAA_s132_6.0.0.dir/C_/b/nRF5_SDK_15.0.0_a53641a/modules/nrfx/mdk/system_nrf52.c.obj
 .debug_frame   0x0000694c       0x20 examples/light_switch/provisioner/CMakeFiles/light_switch_provisioner_nrf52832_xxAA_s132_6.0.0.dir/C_/b/nRF5_SDK_15.0.0_a53641a/components/libraries/util/app_error_handler_gcc.c.obj
 .debug_frame   0x0000696c      0x2d8 external/rtt/librtt_nrf52832_xxAA.a(SEGGER_RTT.c.obj)
 .debug_frame   0x00006c44       0xac external/rtt/librtt_nrf52832_xxAA.a(SEGGER_RTT_printf.c.obj)
 .debug_frame   0x00006cf0      0x684 external/micro-ecc/libuECC_nrf52832_xxAA.a(uECC.c.obj)
 .debug_frame   0x00007374       0x2c c:/mesh/arm_gcc/bin/../lib/gcc/arm-none-eabi/6.3.1/thumb/v7e-m/fpv4-sp/hard\libgcc.a(_aeabi_uldivmod.o)
 .debug_frame   0x000073a0       0x34 c:/mesh/arm_gcc/bin/../lib/gcc/arm-none-eabi/6.3.1/thumb/v7e-m/fpv4-sp/hard\libgcc.a(_udivmoddi4.o)
 .debug_frame   0x000073d4       0x28 c:/mesh/arm_gcc/bin/../lib/gcc/arm-none-eabi/6.3.1/../../../../arm-none-eabi/lib/thumb/v7e-m/fpv4-sp/hard\libg_nano.a(lib_a-exit.o)
 .debug_frame   0x000073fc       0x2c c:/mesh/arm_gcc/bin/../lib/gcc/arm-none-eabi/6.3.1/../../../../arm-none-eabi/lib/thumb/v7e-m/fpv4-sp/hard\libg_nano.a(lib_a-init.o)
 .debug_frame   0x00007428       0x30 c:/mesh/arm_gcc/bin/../lib/gcc/arm-none-eabi/6.3.1/../../../../arm-none-eabi/lib/thumb/v7e-m/fpv4-sp/hard\libg_nano.a(lib_a-malloc.o)
 .debug_frame   0x00007458       0x28 c:/mesh/arm_gcc/bin/../lib/gcc/arm-none-eabi/6.3.1/../../../../arm-none-eabi/lib/thumb/v7e-m/fpv4-sp/hard\libg_nano.a(lib_a-memcmp.o)
 .debug_frame   0x00007480       0x28 c:/mesh/arm_gcc/bin/../lib/gcc/arm-none-eabi/6.3.1/../../../../arm-none-eabi/lib/thumb/v7e-m/fpv4-sp/hard\libg_nano.a(lib_a-memcpy-stub.o)
 .debug_frame   0x000074a8       0x20 c:/mesh/arm_gcc/bin/../lib/gcc/arm-none-eabi/6.3.1/../../../../arm-none-eabi/lib/thumb/v7e-m/fpv4-sp/hard\libg_nano.a(lib_a-memset.o)
 .debug_frame   0x000074c8       0x38 c:/mesh/arm_gcc/bin/../lib/gcc/arm-none-eabi/6.3.1/../../../../arm-none-eabi/lib/thumb/v7e-m/fpv4-sp/hard\libg_nano.a(lib_a-nano-freer.o)
 .debug_frame   0x00007500       0x2c c:/mesh/arm_gcc/bin/../lib/gcc/arm-none-eabi/6.3.1/../../../../arm-none-eabi/lib/thumb/v7e-m/fpv4-sp/hard\libg_nano.a(lib_a-nano-mallocr.o)
 .debug_frame   0x0000752c       0x2c c:/mesh/arm_gcc/bin/../lib/gcc/arm-none-eabi/6.3.1/../../../../arm-none-eabi/lib/thumb/v7e-m/fpv4-sp/hard\libg_nano.a(lib_a-sbrkr.o)
 .debug_frame   0x00007558       0x20 c:/mesh/arm_gcc/bin/../lib/gcc/arm-none-eabi/6.3.1/../../../../arm-none-eabi/lib/thumb/v7e-m/fpv4-sp/hard\libg_nano.a(lib_a-strcpy.o)
 .debug_frame   0x00007578       0x34 c:/mesh/arm_gcc/bin/../lib/gcc/arm-none-eabi/6.3.1/../../../../arm-none-eabi/lib/thumb/v7e-m/fpv4-sp/hard\libg_nano.a(lib_a-strrchr.o)
 .debug_frame   0x000075ac       0x30 c:/mesh/arm_gcc/bin/../lib/gcc/arm-none-eabi/6.3.1/../../../../arm-none-eabi/lib/thumb/v7e-m/fpv4-sp/hard\libg_nano.a(lib_a-mlock.o)
 .debug_frame   0x000075dc       0x5c c:/mesh/arm_gcc/bin/../lib/gcc/arm-none-eabi/6.3.1/../../../../arm-none-eabi/lib/thumb/v7e-m/fpv4-sp/hard\libg_nano.a(lib_a-reent.o)
 .debug_frame   0x00007638       0x20 c:/mesh/arm_gcc/bin/../lib/gcc/arm-none-eabi/6.3.1/../../../../arm-none-eabi/lib/thumb/v7e-m/fpv4-sp/hard\libg_nano.a(lib_a-strchr.o)
 .debug_frame   0x00007658       0x20 c:/mesh/arm_gcc/bin/../lib/gcc/arm-none-eabi/6.3.1/../../../../arm-none-eabi/lib/thumb/v7e-m/fpv4-sp/hard\libnosys.a(sbrk.o)
 .debug_frame   0x00007678       0x20 c:/mesh/arm_gcc/bin/../lib/gcc/arm-none-eabi/6.3.1/../../../../arm-none-eabi/lib/thumb/v7e-m/fpv4-sp/hard\libnosys.a(_exit.o)
