Archive member included to satisfy reference by file (symbol)

external/rtt/librtt_nrf52840_xxAA.a(SEGGER_RTT.c.obj)
                              examples/light_switch/proxy_server/CMakeFiles/light_switch_proxy_server_nrf52840_xxAA_s140_6.0.0.dir/__/__/__/mesh/core/src/log.c.obj (SEGGER_RTT_Write)
external/rtt/librtt_nrf52840_xxAA.a(SEGGER_RTT_printf.c.obj)
                              examples/light_switch/proxy_server/CMakeFiles/light_switch_proxy_server_nrf52840_xxAA_s140_6.0.0.dir/__/__/__/mesh/core/src/log.c.obj (SEGGER_RTT_vprintf)
external/micro-ecc/libuECC_nrf52840_xxAA.a(uECC.c.obj)
                              examples/light_switch/proxy_server/CMakeFiles/light_switch_proxy_server_nrf52840_xxAA_s140_6.0.0.dir/__/__/__/mesh/prov/src/prov_utils.c.obj (uECC_secp256r1)
c:/mesh/arm_gcc/bin/../lib/gcc/arm-none-eabi/6.3.1/thumb/v7e-m/fpv4-sp/hard\libgcc.a(_aeabi_uldivmod.o)
                              examples/light_switch/proxy_server/CMakeFiles/light_switch_proxy_server_nrf52840_xxAA_s140_6.0.0.dir/__/__/common/src/rtt_input.c.obj (__aeabi_uldivmod)
c:/mesh/arm_gcc/bin/../lib/gcc/arm-none-eabi/6.3.1/thumb/v7e-m/fpv4-sp/hard\libgcc.a(_udivmoddi4.o)
                              c:/mesh/arm_gcc/bin/../lib/gcc/arm-none-eabi/6.3.1/thumb/v7e-m/fpv4-sp/hard\libgcc.a(_aeabi_uldivmod.o) (__udivmoddi4)
c:/mesh/arm_gcc/bin/../lib/gcc/arm-none-eabi/6.3.1/thumb/v7e-m/fpv4-sp/hard\libgcc.a(_dvmd_tls.o)
                              c:/mesh/arm_gcc/bin/../lib/gcc/arm-none-eabi/6.3.1/thumb/v7e-m/fpv4-sp/hard\libgcc.a(_aeabi_uldivmod.o) (__aeabi_ldiv0)
c:/mesh/arm_gcc/bin/../lib/gcc/arm-none-eabi/6.3.1/../../../../arm-none-eabi/lib/thumb/v7e-m/fpv4-sp/hard\libg_nano.a(lib_a-exit.o)
                              c:/mesh/arm_gcc/bin/../lib/gcc/arm-none-eabi/6.3.1/../../../../arm-none-eabi/lib/thumb/v7e-m/fpv4-sp/hard/crt0.o (exit)
c:/mesh/arm_gcc/bin/../lib/gcc/arm-none-eabi/6.3.1/../../../../arm-none-eabi/lib/thumb/v7e-m/fpv4-sp/hard\libg_nano.a(lib_a-impure.o)
                              c:/mesh/arm_gcc/bin/../lib/gcc/arm-none-eabi/6.3.1/../../../../arm-none-eabi/lib/thumb/v7e-m/fpv4-sp/hard\libg_nano.a(lib_a-exit.o) (_global_impure_ptr)
c:/mesh/arm_gcc/bin/../lib/gcc/arm-none-eabi/6.3.1/../../../../arm-none-eabi/lib/thumb/v7e-m/fpv4-sp/hard\libg_nano.a(lib_a-init.o)
                              c:/mesh/arm_gcc/bin/../lib/gcc/arm-none-eabi/6.3.1/../../../../arm-none-eabi/lib/thumb/v7e-m/fpv4-sp/hard/crt0.o (__libc_init_array)
c:/mesh/arm_gcc/bin/../lib/gcc/arm-none-eabi/6.3.1/../../../../arm-none-eabi/lib/thumb/v7e-m/fpv4-sp/hard\libg_nano.a(lib_a-malloc.o)
                              examples/light_switch/proxy_server/CMakeFiles/light_switch_proxy_server_nrf52840_xxAA_s140_6.0.0.dir/__/__/__/mesh/core/src/transport.c.obj (malloc)
c:/mesh/arm_gcc/bin/../lib/gcc/arm-none-eabi/6.3.1/../../../../arm-none-eabi/lib/thumb/v7e-m/fpv4-sp/hard\libg_nano.a(lib_a-memcmp.o)
                              examples/light_switch/proxy_server/CMakeFiles/light_switch_proxy_server_nrf52840_xxAA_s140_6.0.0.dir/C_/ver/mod/nRF5_SDK_15.0.0_a53641a/components/ble/common/ble_advdata.c.obj (memcmp)
c:/mesh/arm_gcc/bin/../lib/gcc/arm-none-eabi/6.3.1/../../../../arm-none-eabi/lib/thumb/v7e-m/fpv4-sp/hard\libg_nano.a(lib_a-memcpy-stub.o)
                              examples/light_switch/proxy_server/CMakeFiles/light_switch_proxy_server_nrf52840_xxAA_s140_6.0.0.dir/__/__/common/src/mesh_app_utils.c.obj (memcpy)
c:/mesh/arm_gcc/bin/../lib/gcc/arm-none-eabi/6.3.1/../../../../arm-none-eabi/lib/thumb/v7e-m/fpv4-sp/hard\libg_nano.a(lib_a-memset.o)
                              c:/mesh/arm_gcc/bin/../lib/gcc/arm-none-eabi/6.3.1/../../../../arm-none-eabi/lib/thumb/v7e-m/fpv4-sp/hard/crt0.o (memset)
c:/mesh/arm_gcc/bin/../lib/gcc/arm-none-eabi/6.3.1/../../../../arm-none-eabi/lib/thumb/v7e-m/fpv4-sp/hard\libg_nano.a(lib_a-nano-freer.o)
                              c:/mesh/arm_gcc/bin/../lib/gcc/arm-none-eabi/6.3.1/../../../../arm-none-eabi/lib/thumb/v7e-m/fpv4-sp/hard\libg_nano.a(lib_a-malloc.o) (_free_r)
c:/mesh/arm_gcc/bin/../lib/gcc/arm-none-eabi/6.3.1/../../../../arm-none-eabi/lib/thumb/v7e-m/fpv4-sp/hard\libg_nano.a(lib_a-nano-mallocr.o)
                              c:/mesh/arm_gcc/bin/../lib/gcc/arm-none-eabi/6.3.1/../../../../arm-none-eabi/lib/thumb/v7e-m/fpv4-sp/hard\libg_nano.a(lib_a-malloc.o) (_malloc_r)
c:/mesh/arm_gcc/bin/../lib/gcc/arm-none-eabi/6.3.1/../../../../arm-none-eabi/lib/thumb/v7e-m/fpv4-sp/hard\libg_nano.a(lib_a-sbrkr.o)
                              c:/mesh/arm_gcc/bin/../lib/gcc/arm-none-eabi/6.3.1/../../../../arm-none-eabi/lib/thumb/v7e-m/fpv4-sp/hard\libg_nano.a(lib_a-nano-mallocr.o) (_sbrk_r)
c:/mesh/arm_gcc/bin/../lib/gcc/arm-none-eabi/6.3.1/../../../../arm-none-eabi/lib/thumb/v7e-m/fpv4-sp/hard\libg_nano.a(lib_a-strcpy.o)
                              external/rtt/librtt_nrf52840_xxAA.a(SEGGER_RTT.c.obj) (strcpy)
c:/mesh/arm_gcc/bin/../lib/gcc/arm-none-eabi/6.3.1/../../../../arm-none-eabi/lib/thumb/v7e-m/fpv4-sp/hard\libg_nano.a(lib_a-strlen.o)
                              examples/light_switch/proxy_server/CMakeFiles/light_switch_proxy_server_nrf52840_xxAA_s140_6.0.0.dir/src/main.c.obj (strlen)
c:/mesh/arm_gcc/bin/../lib/gcc/arm-none-eabi/6.3.1/../../../../arm-none-eabi/lib/thumb/v7e-m/fpv4-sp/hard\libg_nano.a(lib_a-strrchr.o)
                              examples/light_switch/proxy_server/CMakeFiles/light_switch_proxy_server_nrf52840_xxAA_s140_6.0.0.dir/src/main.c.obj (strrchr)
c:/mesh/arm_gcc/bin/../lib/gcc/arm-none-eabi/6.3.1/../../../../arm-none-eabi/lib/thumb/v7e-m/fpv4-sp/hard\libg_nano.a(lib_a-mlock.o)
                              c:/mesh/arm_gcc/bin/../lib/gcc/arm-none-eabi/6.3.1/../../../../arm-none-eabi/lib/thumb/v7e-m/fpv4-sp/hard\libg_nano.a(lib_a-nano-freer.o) (__malloc_lock)
c:/mesh/arm_gcc/bin/../lib/gcc/arm-none-eabi/6.3.1/../../../../arm-none-eabi/lib/thumb/v7e-m/fpv4-sp/hard\libg_nano.a(lib_a-reent.o)
                              c:/mesh/arm_gcc/bin/../lib/gcc/arm-none-eabi/6.3.1/../../../../arm-none-eabi/lib/thumb/v7e-m/fpv4-sp/hard\libg_nano.a(lib_a-sbrkr.o) (errno)
c:/mesh/arm_gcc/bin/../lib/gcc/arm-none-eabi/6.3.1/../../../../arm-none-eabi/lib/thumb/v7e-m/fpv4-sp/hard\libg_nano.a(lib_a-strchr.o)
                              c:/mesh/arm_gcc/bin/../lib/gcc/arm-none-eabi/6.3.1/../../../../arm-none-eabi/lib/thumb/v7e-m/fpv4-sp/hard\libg_nano.a(lib_a-strrchr.o) (strchr)
c:/mesh/arm_gcc/bin/../lib/gcc/arm-none-eabi/6.3.1/../../../../arm-none-eabi/lib/thumb/v7e-m/fpv4-sp/hard\libnosys.a(sbrk.o)
                              c:/mesh/arm_gcc/bin/../lib/gcc/arm-none-eabi/6.3.1/../../../../arm-none-eabi/lib/thumb/v7e-m/fpv4-sp/hard\libg_nano.a(lib_a-sbrkr.o) (_sbrk)
c:/mesh/arm_gcc/bin/../lib/gcc/arm-none-eabi/6.3.1/../../../../arm-none-eabi/lib/thumb/v7e-m/fpv4-sp/hard\libnosys.a(_exit.o)
                              c:/mesh/arm_gcc/bin/../lib/gcc/arm-none-eabi/6.3.1/../../../../arm-none-eabi/lib/thumb/v7e-m/fpv4-sp/hard\libg_nano.a(lib_a-exit.o) (_exit)

Allocating common symbols
Common symbol       size              file

nrf_nvic_state      0xc               examples/light_switch/proxy_server/CMakeFiles/light_switch_proxy_server_nrf52840_xxAA_s140_6.0.0.dir/C_/ver/mod/nRF5_SDK_15.0.0_a53641a/components/libraries/util/app_util_platform.c.obj
m_packet            0x24              examples/light_switch/proxy_server/CMakeFiles/light_switch_proxy_server_nrf52840_xxAA_s140_6.0.0.dir/__/__/__/mesh/core/src/core_tx.c.obj
errno               0x4               c:/mesh/arm_gcc/bin/../lib/gcc/arm-none-eabi/6.3.1/../../../../arm-none-eabi/lib/thumb/v7e-m/fpv4-sp/hard\libg_nano.a(lib_a-reent.o)
_SEGGER_RTT         0x78              external/rtt/librtt_nrf52840_xxAA.a(SEGGER_RTT.c.obj)

Discarded input sections

 .text          0x00000000        0x0 c:/mesh/arm_gcc/bin/../lib/gcc/arm-none-eabi/6.3.1/thumb/v7e-m/fpv4-sp/hard/crti.o
 .data          0x00000000        0x0 c:/mesh/arm_gcc/bin/../lib/gcc/arm-none-eabi/6.3.1/thumb/v7e-m/fpv4-sp/hard/crti.o
 .bss           0x00000000        0x0 c:/mesh/arm_gcc/bin/../lib/gcc/arm-none-eabi/6.3.1/thumb/v7e-m/fpv4-sp/hard/crti.o
 .data          0x00000000        0x4 c:/mesh/arm_gcc/bin/../lib/gcc/arm-none-eabi/6.3.1/thumb/v7e-m/fpv4-sp/hard/crtbegin.o
 .data          0x00000000        0x0 c:/mesh/arm_gcc/bin/../lib/gcc/arm-none-eabi/6.3.1/../../../../arm-none-eabi/lib/thumb/v7e-m/fpv4-sp/hard/crt0.o
 .bss           0x00000000        0x0 c:/mesh/arm_gcc/bin/../lib/gcc/arm-none-eabi/6.3.1/../../../../arm-none-eabi/lib/thumb/v7e-m/fpv4-sp/hard/crt0.o
 .ARM.extab     0x00000000        0x0 c:/mesh/arm_gcc/bin/../lib/gcc/arm-none-eabi/6.3.1/../../../../arm-none-eabi/lib/thumb/v7e-m/fpv4-sp/hard/crt0.o
 .text          0x00000000        0x0 examples/light_switch/proxy_server/CMakeFiles/light_switch_proxy_server_nrf52840_xxAA_s140_6.0.0.dir/src/main.c.obj
 .data          0x00000000        0x0 examples/light_switch/proxy_server/CMakeFiles/light_switch_proxy_server_nrf52840_xxAA_s140_6.0.0.dir/src/main.c.obj
 .bss           0x00000000        0x0 examples/light_switch/proxy_server/CMakeFiles/light_switch_proxy_server_nrf52840_xxAA_s140_6.0.0.dir/src/main.c.obj
 .text          0x00000000        0x0 examples/light_switch/proxy_server/CMakeFiles/light_switch_proxy_server_nrf52840_xxAA_s140_6.0.0.dir/__/__/__/mesh/stack/src/mesh_stack.c.obj
 .data          0x00000000        0x0 examples/light_switch/proxy_server/CMakeFiles/light_switch_proxy_server_nrf52840_xxAA_s140_6.0.0.dir/__/__/__/mesh/stack/src/mesh_stack.c.obj
 .bss           0x00000000        0x0 examples/light_switch/proxy_server/CMakeFiles/light_switch_proxy_server_nrf52840_xxAA_s140_6.0.0.dir/__/__/__/mesh/stack/src/mesh_stack.c.obj
 .text          0x00000000        0x0 examples/light_switch/proxy_server/CMakeFiles/light_switch_proxy_server_nrf52840_xxAA_s140_6.0.0.dir/__/__/common/src/mesh_provisionee.c.obj
 .data          0x00000000        0x0 examples/light_switch/proxy_server/CMakeFiles/light_switch_proxy_server_nrf52840_xxAA_s140_6.0.0.dir/__/__/common/src/mesh_provisionee.c.obj
 .bss           0x00000000        0x0 examples/light_switch/proxy_server/CMakeFiles/light_switch_proxy_server_nrf52840_xxAA_s140_6.0.0.dir/__/__/common/src/mesh_provisionee.c.obj
 .text          0x00000000        0x0 examples/light_switch/proxy_server/CMakeFiles/light_switch_proxy_server_nrf52840_xxAA_s140_6.0.0.dir/__/__/common/src/rtt_input.c.obj
 .data          0x00000000        0x0 examples/light_switch/proxy_server/CMakeFiles/light_switch_proxy_server_nrf52840_xxAA_s140_6.0.0.dir/__/__/common/src/rtt_input.c.obj
 .bss           0x00000000        0x0 examples/light_switch/proxy_server/CMakeFiles/light_switch_proxy_server_nrf52840_xxAA_s140_6.0.0.dir/__/__/common/src/rtt_input.c.obj
 .text.rtt_input_disable
                0x00000000       0x24 examples/light_switch/proxy_server/CMakeFiles/light_switch_proxy_server_nrf52840_xxAA_s140_6.0.0.dir/__/__/common/src/rtt_input.c.obj
 .text          0x00000000        0x0 examples/light_switch/proxy_server/CMakeFiles/light_switch_proxy_server_nrf52840_xxAA_s140_6.0.0.dir/__/__/common/src/simple_hal.c.obj
 .data          0x00000000        0x0 examples/light_switch/proxy_server/CMakeFiles/light_switch_proxy_server_nrf52840_xxAA_s140_6.0.0.dir/__/__/common/src/simple_hal.c.obj
 .bss           0x00000000        0x0 examples/light_switch/proxy_server/CMakeFiles/light_switch_proxy_server_nrf52840_xxAA_s140_6.0.0.dir/__/__/common/src/simple_hal.c.obj
 .text          0x00000000        0x0 examples/light_switch/proxy_server/CMakeFiles/light_switch_proxy_server_nrf52840_xxAA_s140_6.0.0.dir/__/__/common/src/mesh_app_utils.c.obj
 .data          0x00000000        0x0 examples/light_switch/proxy_server/CMakeFiles/light_switch_proxy_server_nrf52840_xxAA_s140_6.0.0.dir/__/__/common/src/mesh_app_utils.c.obj
 .bss           0x00000000        0x0 examples/light_switch/proxy_server/CMakeFiles/light_switch_proxy_server_nrf52840_xxAA_s140_6.0.0.dir/__/__/common/src/mesh_app_utils.c.obj
 .text          0x00000000        0x0 examples/light_switch/proxy_server/CMakeFiles/light_switch_proxy_server_nrf52840_xxAA_s140_6.0.0.dir/__/__/common/src/mesh_adv.c.obj
 .data          0x00000000        0x0 examples/light_switch/proxy_server/CMakeFiles/light_switch_proxy_server_nrf52840_xxAA_s140_6.0.0.dir/__/__/common/src/mesh_adv.c.obj
 .bss           0x00000000        0x0 examples/light_switch/proxy_server/CMakeFiles/light_switch_proxy_server_nrf52840_xxAA_s140_6.0.0.dir/__/__/common/src/mesh_adv.c.obj
 .text          0x00000000        0x0 examples/light_switch/proxy_server/CMakeFiles/light_switch_proxy_server_nrf52840_xxAA_s140_6.0.0.dir/__/__/__/mesh/prov/src/nrf_mesh_prov_bearer_gatt.c.obj
 .data          0x00000000        0x0 examples/light_switch/proxy_server/CMakeFiles/light_switch_proxy_server_nrf52840_xxAA_s140_6.0.0.dir/__/__/__/mesh/prov/src/nrf_mesh_prov_bearer_gatt.c.obj
 .bss           0x00000000        0x0 examples/light_switch/proxy_server/CMakeFiles/light_switch_proxy_server_nrf52840_xxAA_s140_6.0.0.dir/__/__/__/mesh/prov/src/nrf_mesh_prov_bearer_gatt.c.obj
 .text          0x00000000        0x0 examples/light_switch/proxy_server/CMakeFiles/light_switch_proxy_server_nrf52840_xxAA_s140_6.0.0.dir/C_/ver/mod/nRF5_SDK_15.0.0_a53641a/components/libraries/util/app_util_platform.c.obj
 .data          0x00000000        0x0 examples/light_switch/proxy_server/CMakeFiles/light_switch_proxy_server_nrf52840_xxAA_s140_6.0.0.dir/C_/ver/mod/nRF5_SDK_15.0.0_a53641a/components/libraries/util/app_util_platform.c.obj
 .bss           0x00000000        0x0 examples/light_switch/proxy_server/CMakeFiles/light_switch_proxy_server_nrf52840_xxAA_s140_6.0.0.dir/C_/ver/mod/nRF5_SDK_15.0.0_a53641a/components/libraries/util/app_util_platform.c.obj
 .text.app_util_disable_irq
                0x00000000       0x10 examples/light_switch/proxy_server/CMakeFiles/light_switch_proxy_server_nrf52840_xxAA_s140_6.0.0.dir/C_/ver/mod/nRF5_SDK_15.0.0_a53641a/components/libraries/util/app_util_platform.c.obj
 .text.app_util_enable_irq
                0x00000000       0x14 examples/light_switch/proxy_server/CMakeFiles/light_switch_proxy_server_nrf52840_xxAA_s140_6.0.0.dir/C_/ver/mod/nRF5_SDK_15.0.0_a53641a/components/libraries/util/app_util_platform.c.obj
 .text.privilege_level_get
                0x00000000       0x1a examples/light_switch/proxy_server/CMakeFiles/light_switch_proxy_server_nrf52840_xxAA_s140_6.0.0.dir/C_/ver/mod/nRF5_SDK_15.0.0_a53641a/components/libraries/util/app_util_platform.c.obj
 .text.current_int_priority_get
                0x00000000       0x38 examples/light_switch/proxy_server/CMakeFiles/light_switch_proxy_server_nrf52840_xxAA_s140_6.0.0.dir/C_/ver/mod/nRF5_SDK_15.0.0_a53641a/components/libraries/util/app_util_platform.c.obj
 .bss.m_in_critical_region
                0x00000000        0x4 examples/light_switch/proxy_server/CMakeFiles/light_switch_proxy_server_nrf52840_xxAA_s140_6.0.0.dir/C_/ver/mod/nRF5_SDK_15.0.0_a53641a/components/libraries/util/app_util_platform.c.obj
 .text          0x00000000        0x0 examples/light_switch/proxy_server/CMakeFiles/light_switch_proxy_server_nrf52840_xxAA_s140_6.0.0.dir/C_/ver/mod/nRF5_SDK_15.0.0_a53641a/components/ble/common/ble_advdata.c.obj
 .data          0x00000000        0x0 examples/light_switch/proxy_server/CMakeFiles/light_switch_proxy_server_nrf52840_xxAA_s140_6.0.0.dir/C_/ver/mod/nRF5_SDK_15.0.0_a53641a/components/ble/common/ble_advdata.c.obj
 .bss           0x00000000        0x0 examples/light_switch/proxy_server/CMakeFiles/light_switch_proxy_server_nrf52840_xxAA_s140_6.0.0.dir/C_/ver/mod/nRF5_SDK_15.0.0_a53641a/components/ble/common/ble_advdata.c.obj
 .text.ble_advdata_search
                0x00000000       0x38 examples/light_switch/proxy_server/CMakeFiles/light_switch_proxy_server_nrf52840_xxAA_s140_6.0.0.dir/C_/ver/mod/nRF5_SDK_15.0.0_a53641a/components/ble/common/ble_advdata.c.obj
 .text.ble_advdata_parse
                0x00000000       0x20 examples/light_switch/proxy_server/CMakeFiles/light_switch_proxy_server_nrf52840_xxAA_s140_6.0.0.dir/C_/ver/mod/nRF5_SDK_15.0.0_a53641a/components/ble/common/ble_advdata.c.obj
 .text.ble_advdata_name_find
                0x00000000       0x48 examples/light_switch/proxy_server/CMakeFiles/light_switch_proxy_server_nrf52840_xxAA_s140_6.0.0.dir/C_/ver/mod/nRF5_SDK_15.0.0_a53641a/components/ble/common/ble_advdata.c.obj
 .text.ble_advdata_short_name_find
                0x00000000       0x52 examples/light_switch/proxy_server/CMakeFiles/light_switch_proxy_server_nrf52840_xxAA_s140_6.0.0.dir/C_/ver/mod/nRF5_SDK_15.0.0_a53641a/components/ble/common/ble_advdata.c.obj
 .text.ble_advdata_uuid_find
                0x00000000       0xb6 examples/light_switch/proxy_server/CMakeFiles/light_switch_proxy_server_nrf52840_xxAA_s140_6.0.0.dir/C_/ver/mod/nRF5_SDK_15.0.0_a53641a/components/ble/common/ble_advdata.c.obj
 .text.ble_advdata_appearance_find
                0x00000000       0x40 examples/light_switch/proxy_server/CMakeFiles/light_switch_proxy_server_nrf52840_xxAA_s140_6.0.0.dir/C_/ver/mod/nRF5_SDK_15.0.0_a53641a/components/ble/common/ble_advdata.c.obj
 .text          0x00000000        0x0 examples/light_switch/proxy_server/CMakeFiles/light_switch_proxy_server_nrf52840_xxAA_s140_6.0.0.dir/C_/ver/mod/nRF5_SDK_15.0.0_a53641a/components/libraries/experimental_section_vars/nrf_section_iter.c.obj
 .data          0x00000000        0x0 examples/light_switch/proxy_server/CMakeFiles/light_switch_proxy_server_nrf52840_xxAA_s140_6.0.0.dir/C_/ver/mod/nRF5_SDK_15.0.0_a53641a/components/libraries/experimental_section_vars/nrf_section_iter.c.obj
 .bss           0x00000000        0x0 examples/light_switch/proxy_server/CMakeFiles/light_switch_proxy_server_nrf52840_xxAA_s140_6.0.0.dir/C_/ver/mod/nRF5_SDK_15.0.0_a53641a/components/libraries/experimental_section_vars/nrf_section_iter.c.obj
 .text          0x00000000        0x0 examples/light_switch/proxy_server/CMakeFiles/light_switch_proxy_server_nrf52840_xxAA_s140_6.0.0.dir/C_/ver/mod/nRF5_SDK_15.0.0_a53641a/components/softdevice/common/nrf_sdh.c.obj
 .data          0x00000000        0x0 examples/light_switch/proxy_server/CMakeFiles/light_switch_proxy_server_nrf52840_xxAA_s140_6.0.0.dir/C_/ver/mod/nRF5_SDK_15.0.0_a53641a/components/softdevice/common/nrf_sdh.c.obj
 .bss           0x00000000        0x0 examples/light_switch/proxy_server/CMakeFiles/light_switch_proxy_server_nrf52840_xxAA_s140_6.0.0.dir/C_/ver/mod/nRF5_SDK_15.0.0_a53641a/components/softdevice/common/nrf_sdh.c.obj
 .text.nrf_sdh_request_continue
                0x00000000       0x20 examples/light_switch/proxy_server/CMakeFiles/light_switch_proxy_server_nrf52840_xxAA_s140_6.0.0.dir/C_/ver/mod/nRF5_SDK_15.0.0_a53641a/components/softdevice/common/nrf_sdh.c.obj
 .text.nrf_sdh_is_enabled
                0x00000000        0xc examples/light_switch/proxy_server/CMakeFiles/light_switch_proxy_server_nrf52840_xxAA_s140_6.0.0.dir/C_/ver/mod/nRF5_SDK_15.0.0_a53641a/components/softdevice/common/nrf_sdh.c.obj
 .text.nrf_sdh_suspend
                0x00000000       0x1c examples/light_switch/proxy_server/CMakeFiles/light_switch_proxy_server_nrf52840_xxAA_s140_6.0.0.dir/C_/ver/mod/nRF5_SDK_15.0.0_a53641a/components/softdevice/common/nrf_sdh.c.obj
 .text.nrf_sdh_resume
                0x00000000       0x30 examples/light_switch/proxy_server/CMakeFiles/light_switch_proxy_server_nrf52840_xxAA_s140_6.0.0.dir/C_/ver/mod/nRF5_SDK_15.0.0_a53641a/components/softdevice/common/nrf_sdh.c.obj
 .text.nrf_sdh_is_suspended
                0x00000000       0x18 examples/light_switch/proxy_server/CMakeFiles/light_switch_proxy_server_nrf52840_xxAA_s140_6.0.0.dir/C_/ver/mod/nRF5_SDK_15.0.0_a53641a/components/softdevice/common/nrf_sdh.c.obj
 .text          0x00000000        0x0 examples/light_switch/proxy_server/CMakeFiles/light_switch_proxy_server_nrf52840_xxAA_s140_6.0.0.dir/C_/ver/mod/nRF5_SDK_15.0.0_a53641a/components/softdevice/common/nrf_sdh_soc.c.obj
 .data          0x00000000        0x0 examples/light_switch/proxy_server/CMakeFiles/light_switch_proxy_server_nrf52840_xxAA_s140_6.0.0.dir/C_/ver/mod/nRF5_SDK_15.0.0_a53641a/components/softdevice/common/nrf_sdh_soc.c.obj
 .bss           0x00000000        0x0 examples/light_switch/proxy_server/CMakeFiles/light_switch_proxy_server_nrf52840_xxAA_s140_6.0.0.dir/C_/ver/mod/nRF5_SDK_15.0.0_a53641a/components/softdevice/common/nrf_sdh_soc.c.obj
 .text          0x00000000        0x0 examples/light_switch/proxy_server/CMakeFiles/light_switch_proxy_server_nrf52840_xxAA_s140_6.0.0.dir/C_/ver/mod/nRF5_SDK_15.0.0_a53641a/components/softdevice/common/nrf_sdh_ble.c.obj
 .data          0x00000000        0x0 examples/light_switch/proxy_server/CMakeFiles/light_switch_proxy_server_nrf52840_xxAA_s140_6.0.0.dir/C_/ver/mod/nRF5_SDK_15.0.0_a53641a/components/softdevice/common/nrf_sdh_ble.c.obj
 .bss           0x00000000        0x0 examples/light_switch/proxy_server/CMakeFiles/light_switch_proxy_server_nrf52840_xxAA_s140_6.0.0.dir/C_/ver/mod/nRF5_SDK_15.0.0_a53641a/components/softdevice/common/nrf_sdh_ble.c.obj
 .text.nrf_sdh_ble_app_ram_start_get
                0x00000000       0x14 examples/light_switch/proxy_server/CMakeFiles/light_switch_proxy_server_nrf52840_xxAA_s140_6.0.0.dir/C_/ver/mod/nRF5_SDK_15.0.0_a53641a/components/softdevice/common/nrf_sdh_ble.c.obj
 .rodata.m_ram_start
                0x00000000        0x4 examples/light_switch/proxy_server/CMakeFiles/light_switch_proxy_server_nrf52840_xxAA_s140_6.0.0.dir/C_/ver/mod/nRF5_SDK_15.0.0_a53641a/components/softdevice/common/nrf_sdh_ble.c.obj
 .text          0x00000000        0x0 examples/light_switch/proxy_server/CMakeFiles/light_switch_proxy_server_nrf52840_xxAA_s140_6.0.0.dir/__/__/nrf_mesh_weak.c.obj
 .data          0x00000000        0x0 examples/light_switch/proxy_server/CMakeFiles/light_switch_proxy_server_nrf52840_xxAA_s140_6.0.0.dir/__/__/nrf_mesh_weak.c.obj
 .bss           0x00000000        0x0 examples/light_switch/proxy_server/CMakeFiles/light_switch_proxy_server_nrf52840_xxAA_s140_6.0.0.dir/__/__/nrf_mesh_weak.c.obj
 .text._weak_handler_ptr
                0x00000000        0x4 examples/light_switch/proxy_server/CMakeFiles/light_switch_proxy_server_nrf52840_xxAA_s140_6.0.0.dir/__/__/nrf_mesh_weak.c.obj
 .text          0x00000000        0x0 examples/light_switch/proxy_server/CMakeFiles/light_switch_proxy_server_nrf52840_xxAA_s140_6.0.0.dir/__/__/common/src/app_error_weak.c.obj
 .data          0x00000000        0x0 examples/light_switch/proxy_server/CMakeFiles/light_switch_proxy_server_nrf52840_xxAA_s140_6.0.0.dir/__/__/common/src/app_error_weak.c.obj
 .bss           0x00000000        0x0 examples/light_switch/proxy_server/CMakeFiles/light_switch_proxy_server_nrf52840_xxAA_s140_6.0.0.dir/__/__/common/src/app_error_weak.c.obj
 .text          0x00000000        0x0 examples/light_switch/proxy_server/CMakeFiles/light_switch_proxy_server_nrf52840_xxAA_s140_6.0.0.dir/__/__/common/src/assertion_handler_weak.c.obj
 .data          0x00000000        0x0 examples/light_switch/proxy_server/CMakeFiles/light_switch_proxy_server_nrf52840_xxAA_s140_6.0.0.dir/__/__/common/src/assertion_handler_weak.c.obj
 .bss           0x00000000        0x0 examples/light_switch/proxy_server/CMakeFiles/light_switch_proxy_server_nrf52840_xxAA_s140_6.0.0.dir/__/__/common/src/assertion_handler_weak.c.obj
 .text          0x00000000        0x0 examples/light_switch/proxy_server/CMakeFiles/light_switch_proxy_server_nrf52840_xxAA_s140_6.0.0.dir/__/__/__/mesh/core/src/internal_event.c.obj
 .data          0x00000000        0x0 examples/light_switch/proxy_server/CMakeFiles/light_switch_proxy_server_nrf52840_xxAA_s140_6.0.0.dir/__/__/__/mesh/core/src/internal_event.c.obj
 .bss           0x00000000        0x0 examples/light_switch/proxy_server/CMakeFiles/light_switch_proxy_server_nrf52840_xxAA_s140_6.0.0.dir/__/__/__/mesh/core/src/internal_event.c.obj
 .debug_info    0x00000000      0x8f2 examples/light_switch/proxy_server/CMakeFiles/light_switch_proxy_server_nrf52840_xxAA_s140_6.0.0.dir/__/__/__/mesh/core/src/internal_event.c.obj
 .debug_abbrev  0x00000000      0x192 examples/light_switch/proxy_server/CMakeFiles/light_switch_proxy_server_nrf52840_xxAA_s140_6.0.0.dir/__/__/__/mesh/core/src/internal_event.c.obj
 .debug_aranges
                0x00000000       0x18 examples/light_switch/proxy_server/CMakeFiles/light_switch_proxy_server_nrf52840_xxAA_s140_6.0.0.dir/__/__/__/mesh/core/src/internal_event.c.obj
 .debug_line    0x00000000      0x1b2 examples/light_switch/proxy_server/CMakeFiles/light_switch_proxy_server_nrf52840_xxAA_s140_6.0.0.dir/__/__/__/mesh/core/src/internal_event.c.obj
 .debug_str     0x00000000      0x602 examples/light_switch/proxy_server/CMakeFiles/light_switch_proxy_server_nrf52840_xxAA_s140_6.0.0.dir/__/__/__/mesh/core/src/internal_event.c.obj
 .comment       0x00000000       0x80 examples/light_switch/proxy_server/CMakeFiles/light_switch_proxy_server_nrf52840_xxAA_s140_6.0.0.dir/__/__/__/mesh/core/src/internal_event.c.obj
 .ARM.attributes
                0x00000000       0x39 examples/light_switch/proxy_server/CMakeFiles/light_switch_proxy_server_nrf52840_xxAA_s140_6.0.0.dir/__/__/__/mesh/core/src/internal_event.c.obj
 .text          0x00000000        0x0 examples/light_switch/proxy_server/CMakeFiles/light_switch_proxy_server_nrf52840_xxAA_s140_6.0.0.dir/__/__/__/mesh/core/src/nrf_mesh_configure.c.obj
 .data          0x00000000        0x0 examples/light_switch/proxy_server/CMakeFiles/light_switch_proxy_server_nrf52840_xxAA_s140_6.0.0.dir/__/__/__/mesh/core/src/nrf_mesh_configure.c.obj
 .bss           0x00000000        0x0 examples/light_switch/proxy_server/CMakeFiles/light_switch_proxy_server_nrf52840_xxAA_s140_6.0.0.dir/__/__/__/mesh/core/src/nrf_mesh_configure.c.obj
 .text          0x00000000        0x0 examples/light_switch/proxy_server/CMakeFiles/light_switch_proxy_server_nrf52840_xxAA_s140_6.0.0.dir/__/__/__/mesh/core/src/aes.c.obj
 .data          0x00000000        0x0 examples/light_switch/proxy_server/CMakeFiles/light_switch_proxy_server_nrf52840_xxAA_s140_6.0.0.dir/__/__/__/mesh/core/src/aes.c.obj
 .bss           0x00000000        0x0 examples/light_switch/proxy_server/CMakeFiles/light_switch_proxy_server_nrf52840_xxAA_s140_6.0.0.dir/__/__/__/mesh/core/src/aes.c.obj
 .text          0x00000000        0x0 examples/light_switch/proxy_server/CMakeFiles/light_switch_proxy_server_nrf52840_xxAA_s140_6.0.0.dir/__/__/__/mesh/core/src/msg_cache.c.obj
 .data          0x00000000        0x0 examples/light_switch/proxy_server/CMakeFiles/light_switch_proxy_server_nrf52840_xxAA_s140_6.0.0.dir/__/__/__/mesh/core/src/msg_cache.c.obj
 .bss           0x00000000        0x0 examples/light_switch/proxy_server/CMakeFiles/light_switch_proxy_server_nrf52840_xxAA_s140_6.0.0.dir/__/__/__/mesh/core/src/msg_cache.c.obj
 .text.msg_cache_clear
                0x00000000       0x18 examples/light_switch/proxy_server/CMakeFiles/light_switch_proxy_server_nrf52840_xxAA_s140_6.0.0.dir/__/__/__/mesh/core/src/msg_cache.c.obj
 .text          0x00000000        0x0 examples/light_switch/proxy_server/CMakeFiles/light_switch_proxy_server_nrf52840_xxAA_s140_6.0.0.dir/__/__/__/mesh/core/src/transport.c.obj
 .data          0x00000000        0x0 examples/light_switch/proxy_server/CMakeFiles/light_switch_proxy_server_nrf52840_xxAA_s140_6.0.0.dir/__/__/__/mesh/core/src/transport.c.obj
 .bss           0x00000000        0x0 examples/light_switch/proxy_server/CMakeFiles/light_switch_proxy_server_nrf52840_xxAA_s140_6.0.0.dir/__/__/__/mesh/core/src/transport.c.obj
 .text.transport_sar_mem_funcs_set
                0x00000000       0x44 examples/light_switch/proxy_server/CMakeFiles/light_switch_proxy_server_nrf52840_xxAA_s140_6.0.0.dir/__/__/__/mesh/core/src/transport.c.obj
 .text          0x00000000        0x0 examples/light_switch/proxy_server/CMakeFiles/light_switch_proxy_server_nrf52840_xxAA_s140_6.0.0.dir/__/__/__/mesh/core/src/event.c.obj
 .data          0x00000000        0x0 examples/light_switch/proxy_server/CMakeFiles/light_switch_proxy_server_nrf52840_xxAA_s140_6.0.0.dir/__/__/__/mesh/core/src/event.c.obj
 .bss           0x00000000        0x0 examples/light_switch/proxy_server/CMakeFiles/light_switch_proxy_server_nrf52840_xxAA_s140_6.0.0.dir/__/__/__/mesh/core/src/event.c.obj
 .text          0x00000000        0x0 examples/light_switch/proxy_server/CMakeFiles/light_switch_proxy_server_nrf52840_xxAA_s140_6.0.0.dir/__/__/__/mesh/core/src/packet_buffer.c.obj
 .data          0x00000000        0x0 examples/light_switch/proxy_server/CMakeFiles/light_switch_proxy_server_nrf52840_xxAA_s140_6.0.0.dir/__/__/__/mesh/core/src/packet_buffer.c.obj
 .bss           0x00000000        0x0 examples/light_switch/proxy_server/CMakeFiles/light_switch_proxy_server_nrf52840_xxAA_s140_6.0.0.dir/__/__/__/mesh/core/src/packet_buffer.c.obj
 .text.packet_buffer_max_packet_len_get
                0x00000000       0x20 examples/light_switch/proxy_server/CMakeFiles/light_switch_proxy_server_nrf52840_xxAA_s140_6.0.0.dir/__/__/__/mesh/core/src/packet_buffer.c.obj
 .text          0x00000000        0x0 examples/light_switch/proxy_server/CMakeFiles/light_switch_proxy_server_nrf52840_xxAA_s140_6.0.0.dir/__/__/__/mesh/core/src/flash_manager_defrag.c.obj
 .data          0x00000000        0x0 examples/light_switch/proxy_server/CMakeFiles/light_switch_proxy_server_nrf52840_xxAA_s140_6.0.0.dir/__/__/__/mesh/core/src/flash_manager_defrag.c.obj
 .bss           0x00000000        0x0 examples/light_switch/proxy_server/CMakeFiles/light_switch_proxy_server_nrf52840_xxAA_s140_6.0.0.dir/__/__/__/mesh/core/src/flash_manager_defrag.c.obj
 .text.flash_manager_defragging
                0x00000000       0x38 examples/light_switch/proxy_server/CMakeFiles/light_switch_proxy_server_nrf52840_xxAA_s140_6.0.0.dir/__/__/__/mesh/core/src/flash_manager_defrag.c.obj
 .text          0x00000000        0x0 examples/light_switch/proxy_server/CMakeFiles/light_switch_proxy_server_nrf52840_xxAA_s140_6.0.0.dir/__/__/__/mesh/core/src/fifo.c.obj
 .data          0x00000000        0x0 examples/light_switch/proxy_server/CMakeFiles/light_switch_proxy_server_nrf52840_xxAA_s140_6.0.0.dir/__/__/__/mesh/core/src/fifo.c.obj
 .bss           0x00000000        0x0 examples/light_switch/proxy_server/CMakeFiles/light_switch_proxy_server_nrf52840_xxAA_s140_6.0.0.dir/__/__/__/mesh/core/src/fifo.c.obj
 .text.fifo_peek_at
                0x00000000       0x50 examples/light_switch/proxy_server/CMakeFiles/light_switch_proxy_server_nrf52840_xxAA_s140_6.0.0.dir/__/__/__/mesh/core/src/fifo.c.obj
 .text.fifo_peek
                0x00000000        0x6 examples/light_switch/proxy_server/CMakeFiles/light_switch_proxy_server_nrf52840_xxAA_s140_6.0.0.dir/__/__/__/mesh/core/src/fifo.c.obj
 .text.fifo_flush
                0x00000000        0x6 examples/light_switch/proxy_server/CMakeFiles/light_switch_proxy_server_nrf52840_xxAA_s140_6.0.0.dir/__/__/__/mesh/core/src/fifo.c.obj
 .text.fifo_get_len
                0x00000000        0x8 examples/light_switch/proxy_server/CMakeFiles/light_switch_proxy_server_nrf52840_xxAA_s140_6.0.0.dir/__/__/__/mesh/core/src/fifo.c.obj
 .text.fifo_is_full
                0x00000000       0x10 examples/light_switch/proxy_server/CMakeFiles/light_switch_proxy_server_nrf52840_xxAA_s140_6.0.0.dir/__/__/__/mesh/core/src/fifo.c.obj
 .text.fifo_is_empty
                0x00000000        0xc examples/light_switch/proxy_server/CMakeFiles/light_switch_proxy_server_nrf52840_xxAA_s140_6.0.0.dir/__/__/__/mesh/core/src/fifo.c.obj
 .text          0x00000000        0x0 examples/light_switch/proxy_server/CMakeFiles/light_switch_proxy_server_nrf52840_xxAA_s140_6.0.0.dir/__/__/__/mesh/core/src/nrf_flash.c.obj
 .data          0x00000000        0x0 examples/light_switch/proxy_server/CMakeFiles/light_switch_proxy_server_nrf52840_xxAA_s140_6.0.0.dir/__/__/__/mesh/core/src/nrf_flash.c.obj
 .bss           0x00000000        0x0 examples/light_switch/proxy_server/CMakeFiles/light_switch_proxy_server_nrf52840_xxAA_s140_6.0.0.dir/__/__/__/mesh/core/src/nrf_flash.c.obj
 .text          0x00000000        0x0 examples/light_switch/proxy_server/CMakeFiles/light_switch_proxy_server_nrf52840_xxAA_s140_6.0.0.dir/__/__/__/mesh/core/src/packet_mgr.c.obj
 .data          0x00000000        0x0 examples/light_switch/proxy_server/CMakeFiles/light_switch_proxy_server_nrf52840_xxAA_s140_6.0.0.dir/__/__/__/mesh/core/src/packet_mgr.c.obj
 .bss           0x00000000        0x0 examples/light_switch/proxy_server/CMakeFiles/light_switch_proxy_server_nrf52840_xxAA_s140_6.0.0.dir/__/__/__/mesh/core/src/packet_mgr.c.obj
 .text.packet_mgr_alloc
                0x00000000      0x17c examples/light_switch/proxy_server/CMakeFiles/light_switch_proxy_server_nrf52840_xxAA_s140_6.0.0.dir/__/__/__/mesh/core/src/packet_mgr.c.obj
 .text.packet_mgr_free
                0x00000000       0x58 examples/light_switch/proxy_server/CMakeFiles/light_switch_proxy_server_nrf52840_xxAA_s140_6.0.0.dir/__/__/__/mesh/core/src/packet_mgr.c.obj
 .text.packet_mgr_get_free_space
                0x00000000       0x1c examples/light_switch/proxy_server/CMakeFiles/light_switch_proxy_server_nrf52840_xxAA_s140_6.0.0.dir/__/__/__/mesh/core/src/packet_mgr.c.obj
 .text.packet_mgr_refcount_get
                0x00000000        0x6 examples/light_switch/proxy_server/CMakeFiles/light_switch_proxy_server_nrf52840_xxAA_s140_6.0.0.dir/__/__/__/mesh/core/src/packet_mgr.c.obj
 .text.packet_mgr_size_get
                0x00000000        0x6 examples/light_switch/proxy_server/CMakeFiles/light_switch_proxy_server_nrf52840_xxAA_s140_6.0.0.dir/__/__/__/mesh/core/src/packet_mgr.c.obj
 .text          0x00000000        0x0 examples/light_switch/proxy_server/CMakeFiles/light_switch_proxy_server_nrf52840_xxAA_s140_6.0.0.dir/__/__/__/mesh/core/src/net_state.c.obj
 .data          0x00000000        0x0 examples/light_switch/proxy_server/CMakeFiles/light_switch_proxy_server_nrf52840_xxAA_s140_6.0.0.dir/__/__/__/mesh/core/src/net_state.c.obj
 .bss           0x00000000        0x0 examples/light_switch/proxy_server/CMakeFiles/light_switch_proxy_server_nrf52840_xxAA_s140_6.0.0.dir/__/__/__/mesh/core/src/net_state.c.obj
 .text.net_state_iv_update_test_mode_set
                0x00000000        0xc examples/light_switch/proxy_server/CMakeFiles/light_switch_proxy_server_nrf52840_xxAA_s140_6.0.0.dir/__/__/__/mesh/core/src/net_state.c.obj
 .text.net_state_test_mode_transition_run
                0x00000000       0x2c examples/light_switch/proxy_server/CMakeFiles/light_switch_proxy_server_nrf52840_xxAA_s140_6.0.0.dir/__/__/__/mesh/core/src/net_state.c.obj
 .text          0x00000000        0x0 examples/light_switch/proxy_server/CMakeFiles/light_switch_proxy_server_nrf52840_xxAA_s140_6.0.0.dir/__/__/__/mesh/core/src/mesh_flash.c.obj
 .data          0x00000000        0x0 examples/light_switch/proxy_server/CMakeFiles/light_switch_proxy_server_nrf52840_xxAA_s140_6.0.0.dir/__/__/__/mesh/core/src/mesh_flash.c.obj
 .bss           0x00000000        0x0 examples/light_switch/proxy_server/CMakeFiles/light_switch_proxy_server_nrf52840_xxAA_s140_6.0.0.dir/__/__/__/mesh/core/src/mesh_flash.c.obj
 .text.mesh_flash_op_available_slots
                0x00000000       0x2c examples/light_switch/proxy_server/CMakeFiles/light_switch_proxy_server_nrf52840_xxAA_s140_6.0.0.dir/__/__/__/mesh/core/src/mesh_flash.c.obj
 .text.mesh_flash_in_progress
                0x00000000       0x34 examples/light_switch/proxy_server/CMakeFiles/light_switch_proxy_server_nrf52840_xxAA_s140_6.0.0.dir/__/__/__/mesh/core/src/mesh_flash.c.obj
 .text.mesh_flash_set_suspended
                0x00000000       0x74 examples/light_switch/proxy_server/CMakeFiles/light_switch_proxy_server_nrf52840_xxAA_s140_6.0.0.dir/__/__/__/mesh/core/src/mesh_flash.c.obj
 .bss.suspend_count.10417
                0x00000000        0x4 examples/light_switch/proxy_server/CMakeFiles/light_switch_proxy_server_nrf52840_xxAA_s140_6.0.0.dir/__/__/__/mesh/core/src/mesh_flash.c.obj
 .text          0x00000000        0x0 examples/light_switch/proxy_server/CMakeFiles/light_switch_proxy_server_nrf52840_xxAA_s140_6.0.0.dir/__/__/__/mesh/core/src/nrf_mesh_utils.c.obj
 .data          0x00000000        0x0 examples/light_switch/proxy_server/CMakeFiles/light_switch_proxy_server_nrf52840_xxAA_s140_6.0.0.dir/__/__/__/mesh/core/src/nrf_mesh_utils.c.obj
 .bss           0x00000000        0x0 examples/light_switch/proxy_server/CMakeFiles/light_switch_proxy_server_nrf52840_xxAA_s140_6.0.0.dir/__/__/__/mesh/core/src/nrf_mesh_utils.c.obj
 .text.nrf_mesh_rand_get
                0x00000000       0x10 examples/light_switch/proxy_server/CMakeFiles/light_switch_proxy_server_nrf52840_xxAA_s140_6.0.0.dir/__/__/__/mesh/core/src/nrf_mesh_utils.c.obj
 .text.nrf_mesh_gap_address_type_get
                0x00000000       0x30 examples/light_switch/proxy_server/CMakeFiles/light_switch_proxy_server_nrf52840_xxAA_s140_6.0.0.dir/__/__/__/mesh/core/src/nrf_mesh_utils.c.obj
 .text          0x00000000        0x0 examples/light_switch/proxy_server/CMakeFiles/light_switch_proxy_server_nrf52840_xxAA_s140_6.0.0.dir/__/__/__/mesh/core/src/nrf_mesh.c.obj
 .data          0x00000000        0x0 examples/light_switch/proxy_server/CMakeFiles/light_switch_proxy_server_nrf52840_xxAA_s140_6.0.0.dir/__/__/__/mesh/core/src/nrf_mesh.c.obj
 .bss           0x00000000        0x0 examples/light_switch/proxy_server/CMakeFiles/light_switch_proxy_server_nrf52840_xxAA_s140_6.0.0.dir/__/__/__/mesh/core/src/nrf_mesh.c.obj
 .text.nrf_mesh_process
                0x00000000        0x4 examples/light_switch/proxy_server/CMakeFiles/light_switch_proxy_server_nrf52840_xxAA_s140_6.0.0.dir/__/__/__/mesh/core/src/nrf_mesh.c.obj
 .text.nrf_mesh_evt_handler_remove
                0x00000000        0x4 examples/light_switch/proxy_server/CMakeFiles/light_switch_proxy_server_nrf52840_xxAA_s140_6.0.0.dir/__/__/__/mesh/core/src/nrf_mesh.c.obj
 .text.nrf_mesh_rx_cb_set
                0x00000000        0xc examples/light_switch/proxy_server/CMakeFiles/light_switch_proxy_server_nrf52840_xxAA_s140_6.0.0.dir/__/__/__/mesh/core/src/nrf_mesh.c.obj
 .text.nrf_mesh_rx_cb_clear
                0x00000000        0xc examples/light_switch/proxy_server/CMakeFiles/light_switch_proxy_server_nrf52840_xxAA_s140_6.0.0.dir/__/__/__/mesh/core/src/nrf_mesh.c.obj
 .text          0x00000000        0x0 examples/light_switch/proxy_server/CMakeFiles/light_switch_proxy_server_nrf52840_xxAA_s140_6.0.0.dir/__/__/__/mesh/core/src/queue.c.obj
 .data          0x00000000        0x0 examples/light_switch/proxy_server/CMakeFiles/light_switch_proxy_server_nrf52840_xxAA_s140_6.0.0.dir/__/__/__/mesh/core/src/queue.c.obj
 .bss           0x00000000        0x0 examples/light_switch/proxy_server/CMakeFiles/light_switch_proxy_server_nrf52840_xxAA_s140_6.0.0.dir/__/__/__/mesh/core/src/queue.c.obj
 .text          0x00000000        0x0 examples/light_switch/proxy_server/CMakeFiles/light_switch_proxy_server_nrf52840_xxAA_s140_6.0.0.dir/__/__/__/mesh/core/src/hal.c.obj
 .data          0x00000000        0x0 examples/light_switch/proxy_server/CMakeFiles/light_switch_proxy_server_nrf52840_xxAA_s140_6.0.0.dir/__/__/__/mesh/core/src/hal.c.obj
 .bss           0x00000000        0x0 examples/light_switch/proxy_server/CMakeFiles/light_switch_proxy_server_nrf52840_xxAA_s140_6.0.0.dir/__/__/__/mesh/core/src/hal.c.obj
 .text          0x00000000        0x0 examples/light_switch/proxy_server/CMakeFiles/light_switch_proxy_server_nrf52840_xxAA_s140_6.0.0.dir/__/__/__/mesh/core/src/aes_cmac.c.obj
 .data          0x00000000        0x0 examples/light_switch/proxy_server/CMakeFiles/light_switch_proxy_server_nrf52840_xxAA_s140_6.0.0.dir/__/__/__/mesh/core/src/aes_cmac.c.obj
 .bss           0x00000000        0x0 examples/light_switch/proxy_server/CMakeFiles/light_switch_proxy_server_nrf52840_xxAA_s140_6.0.0.dir/__/__/__/mesh/core/src/aes_cmac.c.obj
 .text          0x00000000        0x0 examples/light_switch/proxy_server/CMakeFiles/light_switch_proxy_server_nrf52840_xxAA_s140_6.0.0.dir/__/__/__/mesh/core/src/timer_scheduler.c.obj
 .data          0x00000000        0x0 examples/light_switch/proxy_server/CMakeFiles/light_switch_proxy_server_nrf52840_xxAA_s140_6.0.0.dir/__/__/__/mesh/core/src/timer_scheduler.c.obj
 .bss           0x00000000        0x0 examples/light_switch/proxy_server/CMakeFiles/light_switch_proxy_server_nrf52840_xxAA_s140_6.0.0.dir/__/__/__/mesh/core/src/timer_scheduler.c.obj
 .text          0x00000000        0x0 examples/light_switch/proxy_server/CMakeFiles/light_switch_proxy_server_nrf52840_xxAA_s140_6.0.0.dir/__/__/__/mesh/core/src/timer.c.obj
 .data          0x00000000        0x0 examples/light_switch/proxy_server/CMakeFiles/light_switch_proxy_server_nrf52840_xxAA_s140_6.0.0.dir/__/__/__/mesh/core/src/timer.c.obj
 .bss           0x00000000        0x0 examples/light_switch/proxy_server/CMakeFiles/light_switch_proxy_server_nrf52840_xxAA_s140_6.0.0.dir/__/__/__/mesh/core/src/timer.c.obj
 .text.timer_order_cb_ppi
                0x00000000       0xc4 examples/light_switch/proxy_server/CMakeFiles/light_switch_proxy_server_nrf52840_xxAA_s140_6.0.0.dir/__/__/__/mesh/core/src/timer.c.obj
 .text.timer_order_ppi
                0x00000000       0xc0 examples/light_switch/proxy_server/CMakeFiles/light_switch_proxy_server_nrf52840_xxAA_s140_6.0.0.dir/__/__/__/mesh/core/src/timer.c.obj
 .text.timer_abort
                0x00000000       0x78 examples/light_switch/proxy_server/CMakeFiles/light_switch_proxy_server_nrf52840_xxAA_s140_6.0.0.dir/__/__/__/mesh/core/src/timer.c.obj
 .text          0x00000000        0x0 examples/light_switch/proxy_server/CMakeFiles/light_switch_proxy_server_nrf52840_xxAA_s140_6.0.0.dir/__/__/__/mesh/core/src/ticker.c.obj
 .data          0x00000000        0x0 examples/light_switch/proxy_server/CMakeFiles/light_switch_proxy_server_nrf52840_xxAA_s140_6.0.0.dir/__/__/__/mesh/core/src/ticker.c.obj
 .bss           0x00000000        0x0 examples/light_switch/proxy_server/CMakeFiles/light_switch_proxy_server_nrf52840_xxAA_s140_6.0.0.dir/__/__/__/mesh/core/src/ticker.c.obj
 .text.ticker_get
                0x00000000        0xc examples/light_switch/proxy_server/CMakeFiles/light_switch_proxy_server_nrf52840_xxAA_s140_6.0.0.dir/__/__/__/mesh/core/src/ticker.c.obj
 .text          0x00000000        0x0 examples/light_switch/proxy_server/CMakeFiles/light_switch_proxy_server_nrf52840_xxAA_s140_6.0.0.dir/__/__/__/mesh/core/src/rand.c.obj
 .data          0x00000000        0x0 examples/light_switch/proxy_server/CMakeFiles/light_switch_proxy_server_nrf52840_xxAA_s140_6.0.0.dir/__/__/__/mesh/core/src/rand.c.obj
 .bss           0x00000000        0x0 examples/light_switch/proxy_server/CMakeFiles/light_switch_proxy_server_nrf52840_xxAA_s140_6.0.0.dir/__/__/__/mesh/core/src/rand.c.obj
 .text          0x00000000        0x0 examples/light_switch/proxy_server/CMakeFiles/light_switch_proxy_server_nrf52840_xxAA_s140_6.0.0.dir/__/__/__/mesh/core/src/nrf_mesh_opt.c.obj
 .data          0x00000000        0x0 examples/light_switch/proxy_server/CMakeFiles/light_switch_proxy_server_nrf52840_xxAA_s140_6.0.0.dir/__/__/__/mesh/core/src/nrf_mesh_opt.c.obj
 .bss           0x00000000        0x0 examples/light_switch/proxy_server/CMakeFiles/light_switch_proxy_server_nrf52840_xxAA_s140_6.0.0.dir/__/__/__/mesh/core/src/nrf_mesh_opt.c.obj
 .text          0x00000000        0x0 examples/light_switch/proxy_server/CMakeFiles/light_switch_proxy_server_nrf52840_xxAA_s140_6.0.0.dir/__/__/__/mesh/core/src/timeslot.c.obj
 .data          0x00000000        0x0 examples/light_switch/proxy_server/CMakeFiles/light_switch_proxy_server_nrf52840_xxAA_s140_6.0.0.dir/__/__/__/mesh/core/src/timeslot.c.obj
 .bss           0x00000000        0x0 examples/light_switch/proxy_server/CMakeFiles/light_switch_proxy_server_nrf52840_xxAA_s140_6.0.0.dir/__/__/__/mesh/core/src/timeslot.c.obj
 .text.timeslot_end_time_get
                0x00000000       0x10 examples/light_switch/proxy_server/CMakeFiles/light_switch_proxy_server_nrf52840_xxAA_s140_6.0.0.dir/__/__/__/mesh/core/src/timeslot.c.obj
 .text.timeslot_is_in_ts
                0x00000000        0xc examples/light_switch/proxy_server/CMakeFiles/light_switch_proxy_server_nrf52840_xxAA_s140_6.0.0.dir/__/__/__/mesh/core/src/timeslot.c.obj
 .text.timeslot_restart
                0x00000000       0x10 examples/light_switch/proxy_server/CMakeFiles/light_switch_proxy_server_nrf52840_xxAA_s140_6.0.0.dir/__/__/__/mesh/core/src/timeslot.c.obj
 .text          0x00000000        0x0 examples/light_switch/proxy_server/CMakeFiles/light_switch_proxy_server_nrf52840_xxAA_s140_6.0.0.dir/__/__/__/mesh/core/src/bearer_event.c.obj
 .data          0x00000000        0x0 examples/light_switch/proxy_server/CMakeFiles/light_switch_proxy_server_nrf52840_xxAA_s140_6.0.0.dir/__/__/__/mesh/core/src/bearer_event.c.obj
 .bss           0x00000000        0x0 examples/light_switch/proxy_server/CMakeFiles/light_switch_proxy_server_nrf52840_xxAA_s140_6.0.0.dir/__/__/__/mesh/core/src/bearer_event.c.obj
 .text.bearer_event_generic_post
                0x00000000       0x24 examples/light_switch/proxy_server/CMakeFiles/light_switch_proxy_server_nrf52840_xxAA_s140_6.0.0.dir/__/__/__/mesh/core/src/bearer_event.c.obj
 .text.bearer_event_timer_sch_post
                0x00000000       0x26 examples/light_switch/proxy_server/CMakeFiles/light_switch_proxy_server_nrf52840_xxAA_s140_6.0.0.dir/__/__/__/mesh/core/src/bearer_event.c.obj
 .text.bearer_event_in_correct_irq_priority
                0x00000000       0x48 examples/light_switch/proxy_server/CMakeFiles/light_switch_proxy_server_nrf52840_xxAA_s140_6.0.0.dir/__/__/__/mesh/core/src/bearer_event.c.obj
 .text          0x00000000        0x0 examples/light_switch/proxy_server/CMakeFiles/light_switch_proxy_server_nrf52840_xxAA_s140_6.0.0.dir/__/__/__/mesh/core/src/enc.c.obj
 .data          0x00000000        0x0 examples/light_switch/proxy_server/CMakeFiles/light_switch_proxy_server_nrf52840_xxAA_s140_6.0.0.dir/__/__/__/mesh/core/src/enc.c.obj
 .bss           0x00000000        0x0 examples/light_switch/proxy_server/CMakeFiles/light_switch_proxy_server_nrf52840_xxAA_s140_6.0.0.dir/__/__/__/mesh/core/src/enc.c.obj
 .text.enc_key_generate
                0x00000000        0x6 examples/light_switch/proxy_server/CMakeFiles/light_switch_proxy_server_nrf52840_xxAA_s140_6.0.0.dir/__/__/__/mesh/core/src/enc.c.obj
 .text          0x00000000        0x0 examples/light_switch/proxy_server/CMakeFiles/light_switch_proxy_server_nrf52840_xxAA_s140_6.0.0.dir/__/__/__/mesh/core/src/network.c.obj
 .data          0x00000000        0x0 examples/light_switch/proxy_server/CMakeFiles/light_switch_proxy_server_nrf52840_xxAA_s140_6.0.0.dir/__/__/__/mesh/core/src/network.c.obj
 .bss           0x00000000        0x0 examples/light_switch/proxy_server/CMakeFiles/light_switch_proxy_server_nrf52840_xxAA_s140_6.0.0.dir/__/__/__/mesh/core/src/network.c.obj
 .text.network_packet_discard
                0x00000000       0x1e examples/light_switch/proxy_server/CMakeFiles/light_switch_proxy_server_nrf52840_xxAA_s140_6.0.0.dir/__/__/__/mesh/core/src/network.c.obj
 .text          0x00000000        0x0 examples/light_switch/proxy_server/CMakeFiles/light_switch_proxy_server_nrf52840_xxAA_s140_6.0.0.dir/__/__/__/mesh/core/src/net_packet.c.obj
 .data          0x00000000        0x0 examples/light_switch/proxy_server/CMakeFiles/light_switch_proxy_server_nrf52840_xxAA_s140_6.0.0.dir/__/__/__/mesh/core/src/net_packet.c.obj
 .bss           0x00000000        0x0 examples/light_switch/proxy_server/CMakeFiles/light_switch_proxy_server_nrf52840_xxAA_s140_6.0.0.dir/__/__/__/mesh/core/src/net_packet.c.obj
 .text.net_packet_enc_start_get
                0x00000000        0x4 examples/light_switch/proxy_server/CMakeFiles/light_switch_proxy_server_nrf52840_xxAA_s140_6.0.0.dir/__/__/__/mesh/core/src/net_packet.c.obj
 .text          0x00000000        0x0 examples/light_switch/proxy_server/CMakeFiles/light_switch_proxy_server_nrf52840_xxAA_s140_6.0.0.dir/__/__/__/mesh/core/src/msqueue.c.obj
 .data          0x00000000        0x0 examples/light_switch/proxy_server/CMakeFiles/light_switch_proxy_server_nrf52840_xxAA_s140_6.0.0.dir/__/__/__/mesh/core/src/msqueue.c.obj
 .bss           0x00000000        0x0 examples/light_switch/proxy_server/CMakeFiles/light_switch_proxy_server_nrf52840_xxAA_s140_6.0.0.dir/__/__/__/mesh/core/src/msqueue.c.obj
 .text          0x00000000        0x0 examples/light_switch/proxy_server/CMakeFiles/light_switch_proxy_server_nrf52840_xxAA_s140_6.0.0.dir/__/__/__/mesh/core/src/nrf_mesh_keygen.c.obj
 .data          0x00000000        0x0 examples/light_switch/proxy_server/CMakeFiles/light_switch_proxy_server_nrf52840_xxAA_s140_6.0.0.dir/__/__/__/mesh/core/src/nrf_mesh_keygen.c.obj
 .bss           0x00000000        0x0 examples/light_switch/proxy_server/CMakeFiles/light_switch_proxy_server_nrf52840_xxAA_s140_6.0.0.dir/__/__/__/mesh/core/src/nrf_mesh_keygen.c.obj
 .text          0x00000000        0x0 examples/light_switch/proxy_server/CMakeFiles/light_switch_proxy_server_nrf52840_xxAA_s140_6.0.0.dir/__/__/__/mesh/core/src/cache.c.obj
 .data          0x00000000        0x0 examples/light_switch/proxy_server/CMakeFiles/light_switch_proxy_server_nrf52840_xxAA_s140_6.0.0.dir/__/__/__/mesh/core/src/cache.c.obj
 .bss           0x00000000        0x0 examples/light_switch/proxy_server/CMakeFiles/light_switch_proxy_server_nrf52840_xxAA_s140_6.0.0.dir/__/__/__/mesh/core/src/cache.c.obj
 .text.cache_erase_elem
                0x00000000       0x4c examples/light_switch/proxy_server/CMakeFiles/light_switch_proxy_server_nrf52840_xxAA_s140_6.0.0.dir/__/__/__/mesh/core/src/cache.c.obj
 .text          0x00000000        0x0 examples/light_switch/proxy_server/CMakeFiles/light_switch_proxy_server_nrf52840_xxAA_s140_6.0.0.dir/__/__/__/mesh/core/src/uri.c.obj
 .data          0x00000000        0x0 examples/light_switch/proxy_server/CMakeFiles/light_switch_proxy_server_nrf52840_xxAA_s140_6.0.0.dir/__/__/__/mesh/core/src/uri.c.obj
 .bss           0x00000000        0x0 examples/light_switch/proxy_server/CMakeFiles/light_switch_proxy_server_nrf52840_xxAA_s140_6.0.0.dir/__/__/__/mesh/core/src/uri.c.obj
 .text.uri_data_parse
                0x00000000       0x78 examples/light_switch/proxy_server/CMakeFiles/light_switch_proxy_server_nrf52840_xxAA_s140_6.0.0.dir/__/__/__/mesh/core/src/uri.c.obj
 .text.uri_scheme_name_code_point
                0x00000000       0x5c examples/light_switch/proxy_server/CMakeFiles/light_switch_proxy_server_nrf52840_xxAA_s140_6.0.0.dir/__/__/__/mesh/core/src/uri.c.obj
 .text.uri_data_generate
                0x00000000       0x52 examples/light_switch/proxy_server/CMakeFiles/light_switch_proxy_server_nrf52840_xxAA_s140_6.0.0.dir/__/__/__/mesh/core/src/uri.c.obj
 .text.uri_scheme_name_string
                0x00000000       0x14 examples/light_switch/proxy_server/CMakeFiles/light_switch_proxy_server_nrf52840_xxAA_s140_6.0.0.dir/__/__/__/mesh/core/src/uri.c.obj
 .rodata.m_code_point_strings
                0x00000000      0x2ec examples/light_switch/proxy_server/CMakeFiles/light_switch_proxy_server_nrf52840_xxAA_s140_6.0.0.dir/__/__/__/mesh/core/src/uri.c.obj
 .rodata.str1.1
                0x00000000      0x566 examples/light_switch/proxy_server/CMakeFiles/light_switch_proxy_server_nrf52840_xxAA_s140_6.0.0.dir/__/__/__/mesh/core/src/uri.c.obj
 .debug_info    0x00000000      0xcac examples/light_switch/proxy_server/CMakeFiles/light_switch_proxy_server_nrf52840_xxAA_s140_6.0.0.dir/__/__/__/mesh/core/src/uri.c.obj
 .debug_abbrev  0x00000000      0x2e4 examples/light_switch/proxy_server/CMakeFiles/light_switch_proxy_server_nrf52840_xxAA_s140_6.0.0.dir/__/__/__/mesh/core/src/uri.c.obj
 .debug_loc     0x00000000      0x253 examples/light_switch/proxy_server/CMakeFiles/light_switch_proxy_server_nrf52840_xxAA_s140_6.0.0.dir/__/__/__/mesh/core/src/uri.c.obj
 .debug_aranges
                0x00000000       0x38 examples/light_switch/proxy_server/CMakeFiles/light_switch_proxy_server_nrf52840_xxAA_s140_6.0.0.dir/__/__/__/mesh/core/src/uri.c.obj
 .debug_ranges  0x00000000       0x48 examples/light_switch/proxy_server/CMakeFiles/light_switch_proxy_server_nrf52840_xxAA_s140_6.0.0.dir/__/__/__/mesh/core/src/uri.c.obj
 .debug_line    0x00000000      0x2bd examples/light_switch/proxy_server/CMakeFiles/light_switch_proxy_server_nrf52840_xxAA_s140_6.0.0.dir/__/__/__/mesh/core/src/uri.c.obj
 .debug_str     0x00000000      0x6dd examples/light_switch/proxy_server/CMakeFiles/light_switch_proxy_server_nrf52840_xxAA_s140_6.0.0.dir/__/__/__/mesh/core/src/uri.c.obj
 .comment       0x00000000       0x80 examples/light_switch/proxy_server/CMakeFiles/light_switch_proxy_server_nrf52840_xxAA_s140_6.0.0.dir/__/__/__/mesh/core/src/uri.c.obj
 .debug_frame   0x00000000       0x84 examples/light_switch/proxy_server/CMakeFiles/light_switch_proxy_server_nrf52840_xxAA_s140_6.0.0.dir/__/__/__/mesh/core/src/uri.c.obj
 .ARM.attributes
                0x00000000       0x39 examples/light_switch/proxy_server/CMakeFiles/light_switch_proxy_server_nrf52840_xxAA_s140_6.0.0.dir/__/__/__/mesh/core/src/uri.c.obj
 .text          0x00000000        0x0 examples/light_switch/proxy_server/CMakeFiles/light_switch_proxy_server_nrf52840_xxAA_s140_6.0.0.dir/__/__/__/mesh/core/src/list.c.obj
 .data          0x00000000        0x0 examples/light_switch/proxy_server/CMakeFiles/light_switch_proxy_server_nrf52840_xxAA_s140_6.0.0.dir/__/__/__/mesh/core/src/list.c.obj
 .bss           0x00000000        0x0 examples/light_switch/proxy_server/CMakeFiles/light_switch_proxy_server_nrf52840_xxAA_s140_6.0.0.dir/__/__/__/mesh/core/src/list.c.obj
 .text.list_size_get
                0x00000000       0x12 examples/light_switch/proxy_server/CMakeFiles/light_switch_proxy_server_nrf52840_xxAA_s140_6.0.0.dir/__/__/__/mesh/core/src/list.c.obj
 .text.list_sorted_add
                0x00000000       0x6c examples/light_switch/proxy_server/CMakeFiles/light_switch_proxy_server_nrf52840_xxAA_s140_6.0.0.dir/__/__/__/mesh/core/src/list.c.obj
 .text          0x00000000        0x0 examples/light_switch/proxy_server/CMakeFiles/light_switch_proxy_server_nrf52840_xxAA_s140_6.0.0.dir/__/__/__/mesh/core/src/log.c.obj
 .data          0x00000000        0x0 examples/light_switch/proxy_server/CMakeFiles/light_switch_proxy_server_nrf52840_xxAA_s140_6.0.0.dir/__/__/__/mesh/core/src/log.c.obj
 .bss           0x00000000        0x0 examples/light_switch/proxy_server/CMakeFiles/light_switch_proxy_server_nrf52840_xxAA_s140_6.0.0.dir/__/__/__/mesh/core/src/log.c.obj
 .text.log_callback_logview
                0x00000000       0x38 examples/light_switch/proxy_server/CMakeFiles/light_switch_proxy_server_nrf52840_xxAA_s140_6.0.0.dir/__/__/__/mesh/core/src/log.c.obj
 .text.log_set_callback
                0x00000000        0xc examples/light_switch/proxy_server/CMakeFiles/light_switch_proxy_server_nrf52840_xxAA_s140_6.0.0.dir/__/__/__/mesh/core/src/log.c.obj
 .rodata.log_callback_logview.str1.1
                0x00000000        0xf examples/light_switch/proxy_server/CMakeFiles/light_switch_proxy_server_nrf52840_xxAA_s140_6.0.0.dir/__/__/__/mesh/core/src/log.c.obj
 .text          0x00000000        0x0 examples/light_switch/proxy_server/CMakeFiles/light_switch_proxy_server_nrf52840_xxAA_s140_6.0.0.dir/__/__/__/mesh/core/src/flash_manager.c.obj
 .data          0x00000000        0x0 examples/light_switch/proxy_server/CMakeFiles/light_switch_proxy_server_nrf52840_xxAA_s140_6.0.0.dir/__/__/__/mesh/core/src/flash_manager.c.obj
 .bss           0x00000000        0x0 examples/light_switch/proxy_server/CMakeFiles/light_switch_proxy_server_nrf52840_xxAA_s140_6.0.0.dir/__/__/__/mesh/core/src/flash_manager.c.obj
 .text.flash_manager_entry_count_get
                0x00000000       0x50 examples/light_switch/proxy_server/CMakeFiles/light_switch_proxy_server_nrf52840_xxAA_s140_6.0.0.dir/__/__/__/mesh/core/src/flash_manager.c.obj
 .text.flash_manager_entry_release
                0x00000000       0x2c examples/light_switch/proxy_server/CMakeFiles/light_switch_proxy_server_nrf52840_xxAA_s140_6.0.0.dir/__/__/__/mesh/core/src/flash_manager.c.obj
 .text          0x00000000        0x0 examples/light_switch/proxy_server/CMakeFiles/light_switch_proxy_server_nrf52840_xxAA_s140_6.0.0.dir/__/__/__/mesh/core/src/ccm_soft.c.obj
 .data          0x00000000        0x0 examples/light_switch/proxy_server/CMakeFiles/light_switch_proxy_server_nrf52840_xxAA_s140_6.0.0.dir/__/__/__/mesh/core/src/ccm_soft.c.obj
 .bss           0x00000000        0x0 examples/light_switch/proxy_server/CMakeFiles/light_switch_proxy_server_nrf52840_xxAA_s140_6.0.0.dir/__/__/__/mesh/core/src/ccm_soft.c.obj
 .text          0x00000000        0x0 examples/light_switch/proxy_server/CMakeFiles/light_switch_proxy_server_nrf52840_xxAA_s140_6.0.0.dir/__/__/__/mesh/core/src/toolchain.c.obj
 .data          0x00000000        0x0 examples/light_switch/proxy_server/CMakeFiles/light_switch_proxy_server_nrf52840_xxAA_s140_6.0.0.dir/__/__/__/mesh/core/src/toolchain.c.obj
 .bss           0x00000000        0x0 examples/light_switch/proxy_server/CMakeFiles/light_switch_proxy_server_nrf52840_xxAA_s140_6.0.0.dir/__/__/__/mesh/core/src/toolchain.c.obj
 .debug_info    0x00000000       0xb3 examples/light_switch/proxy_server/CMakeFiles/light_switch_proxy_server_nrf52840_xxAA_s140_6.0.0.dir/__/__/__/mesh/core/src/toolchain.c.obj
 .debug_abbrev  0x00000000       0x5c examples/light_switch/proxy_server/CMakeFiles/light_switch_proxy_server_nrf52840_xxAA_s140_6.0.0.dir/__/__/__/mesh/core/src/toolchain.c.obj
 .debug_aranges
                0x00000000       0x18 examples/light_switch/proxy_server/CMakeFiles/light_switch_proxy_server_nrf52840_xxAA_s140_6.0.0.dir/__/__/__/mesh/core/src/toolchain.c.obj
 .debug_line    0x00000000      0x133 examples/light_switch/proxy_server/CMakeFiles/light_switch_proxy_server_nrf52840_xxAA_s140_6.0.0.dir/__/__/__/mesh/core/src/toolchain.c.obj
 .debug_str     0x00000000      0x1fa examples/light_switch/proxy_server/CMakeFiles/light_switch_proxy_server_nrf52840_xxAA_s140_6.0.0.dir/__/__/__/mesh/core/src/toolchain.c.obj
 .comment       0x00000000       0x80 examples/light_switch/proxy_server/CMakeFiles/light_switch_proxy_server_nrf52840_xxAA_s140_6.0.0.dir/__/__/__/mesh/core/src/toolchain.c.obj
 .ARM.attributes
                0x00000000       0x39 examples/light_switch/proxy_server/CMakeFiles/light_switch_proxy_server_nrf52840_xxAA_s140_6.0.0.dir/__/__/__/mesh/core/src/toolchain.c.obj
 .text          0x00000000        0x0 examples/light_switch/proxy_server/CMakeFiles/light_switch_proxy_server_nrf52840_xxAA_s140_6.0.0.dir/__/__/__/mesh/core/src/replay_cache.c.obj
 .data          0x00000000        0x0 examples/light_switch/proxy_server/CMakeFiles/light_switch_proxy_server_nrf52840_xxAA_s140_6.0.0.dir/__/__/__/mesh/core/src/replay_cache.c.obj
 .bss           0x00000000        0x0 examples/light_switch/proxy_server/CMakeFiles/light_switch_proxy_server_nrf52840_xxAA_s140_6.0.0.dir/__/__/__/mesh/core/src/replay_cache.c.obj
 .text.replay_cache_on_iv_update
                0x00000000       0x24 examples/light_switch/proxy_server/CMakeFiles/light_switch_proxy_server_nrf52840_xxAA_s140_6.0.0.dir/__/__/__/mesh/core/src/replay_cache.c.obj
 .text          0x00000000        0x0 examples/light_switch/proxy_server/CMakeFiles/light_switch_proxy_server_nrf52840_xxAA_s140_6.0.0.dir/__/__/__/mesh/core/src/beacon.c.obj
 .data          0x00000000        0x0 examples/light_switch/proxy_server/CMakeFiles/light_switch_proxy_server_nrf52840_xxAA_s140_6.0.0.dir/__/__/__/mesh/core/src/beacon.c.obj
 .bss           0x00000000        0x0 examples/light_switch/proxy_server/CMakeFiles/light_switch_proxy_server_nrf52840_xxAA_s140_6.0.0.dir/__/__/__/mesh/core/src/beacon.c.obj
 .text          0x00000000        0x0 examples/light_switch/proxy_server/CMakeFiles/light_switch_proxy_server_nrf52840_xxAA_s140_6.0.0.dir/__/__/__/mesh/core/src/flash_manager_internal.c.obj
 .data          0x00000000        0x0 examples/light_switch/proxy_server/CMakeFiles/light_switch_proxy_server_nrf52840_xxAA_s140_6.0.0.dir/__/__/__/mesh/core/src/flash_manager_internal.c.obj
 .bss           0x00000000        0x0 examples/light_switch/proxy_server/CMakeFiles/light_switch_proxy_server_nrf52840_xxAA_s140_6.0.0.dir/__/__/__/mesh/core/src/flash_manager_internal.c.obj
 .text          0x00000000        0x0 examples/light_switch/proxy_server/CMakeFiles/light_switch_proxy_server_nrf52840_xxAA_s140_6.0.0.dir/__/__/__/mesh/core/src/core_tx.c.obj
 .data          0x00000000        0x0 examples/light_switch/proxy_server/CMakeFiles/light_switch_proxy_server_nrf52840_xxAA_s140_6.0.0.dir/__/__/__/mesh/core/src/core_tx.c.obj
 .bss           0x00000000        0x0 examples/light_switch/proxy_server/CMakeFiles/light_switch_proxy_server_nrf52840_xxAA_s140_6.0.0.dir/__/__/__/mesh/core/src/core_tx.c.obj
 .text.core_tx_bearer_type_get
                0x00000000       0x1c examples/light_switch/proxy_server/CMakeFiles/light_switch_proxy_server_nrf52840_xxAA_s140_6.0.0.dir/__/__/__/mesh/core/src/core_tx.c.obj
 .text.core_tx_bearer_count_get
                0x00000000        0xc examples/light_switch/proxy_server/CMakeFiles/light_switch_proxy_server_nrf52840_xxAA_s140_6.0.0.dir/__/__/__/mesh/core/src/core_tx.c.obj
 .text          0x00000000        0x0 examples/light_switch/proxy_server/CMakeFiles/light_switch_proxy_server_nrf52840_xxAA_s140_6.0.0.dir/__/__/__/mesh/core/src/heartbeat.c.obj
 .data          0x00000000        0x0 examples/light_switch/proxy_server/CMakeFiles/light_switch_proxy_server_nrf52840_xxAA_s140_6.0.0.dir/__/__/__/mesh/core/src/heartbeat.c.obj
 .bss           0x00000000        0x0 examples/light_switch/proxy_server/CMakeFiles/light_switch_proxy_server_nrf52840_xxAA_s140_6.0.0.dir/__/__/__/mesh/core/src/heartbeat.c.obj
 .text          0x00000000        0x0 examples/light_switch/proxy_server/CMakeFiles/light_switch_proxy_server_nrf52840_xxAA_s140_6.0.0.dir/__/__/__/mesh/core/src/net_beacon.c.obj
 .data          0x00000000        0x0 examples/light_switch/proxy_server/CMakeFiles/light_switch_proxy_server_nrf52840_xxAA_s140_6.0.0.dir/__/__/__/mesh/core/src/net_beacon.c.obj
 .bss           0x00000000        0x0 examples/light_switch/proxy_server/CMakeFiles/light_switch_proxy_server_nrf52840_xxAA_s140_6.0.0.dir/__/__/__/mesh/core/src/net_beacon.c.obj
 .text          0x00000000        0x0 examples/light_switch/proxy_server/CMakeFiles/light_switch_proxy_server_nrf52840_xxAA_s140_6.0.0.dir/__/__/__/mesh/core/src/fsm.c.obj
 .data          0x00000000        0x0 examples/light_switch/proxy_server/CMakeFiles/light_switch_proxy_server_nrf52840_xxAA_s140_6.0.0.dir/__/__/__/mesh/core/src/fsm.c.obj
 .bss           0x00000000        0x0 examples/light_switch/proxy_server/CMakeFiles/light_switch_proxy_server_nrf52840_xxAA_s140_6.0.0.dir/__/__/__/mesh/core/src/fsm.c.obj
 .text          0x00000000        0x0 examples/light_switch/proxy_server/CMakeFiles/light_switch_proxy_server_nrf52840_xxAA_s140_6.0.0.dir/__/__/__/mesh/core/src/core_tx_adv.c.obj
 .data          0x00000000        0x0 examples/light_switch/proxy_server/CMakeFiles/light_switch_proxy_server_nrf52840_xxAA_s140_6.0.0.dir/__/__/__/mesh/core/src/core_tx_adv.c.obj
 .bss           0x00000000        0x0 examples/light_switch/proxy_server/CMakeFiles/light_switch_proxy_server_nrf52840_xxAA_s140_6.0.0.dir/__/__/__/mesh/core/src/core_tx_adv.c.obj
 .text.core_tx_adv_address_set
                0x00000000       0x28 examples/light_switch/proxy_server/CMakeFiles/light_switch_proxy_server_nrf52840_xxAA_s140_6.0.0.dir/__/__/__/mesh/core/src/core_tx_adv.c.obj
 .text          0x00000000        0x0 examples/light_switch/proxy_server/CMakeFiles/light_switch_proxy_server_nrf52840_xxAA_s140_6.0.0.dir/__/__/__/mesh/bearer/src/ad_listener.c.obj
 .data          0x00000000        0x0 examples/light_switch/proxy_server/CMakeFiles/light_switch_proxy_server_nrf52840_xxAA_s140_6.0.0.dir/__/__/__/mesh/bearer/src/ad_listener.c.obj
 .bss           0x00000000        0x0 examples/light_switch/proxy_server/CMakeFiles/light_switch_proxy_server_nrf52840_xxAA_s140_6.0.0.dir/__/__/__/mesh/bearer/src/ad_listener.c.obj
 .text.ad_listener_unsubscribe
                0x00000000       0x6c examples/light_switch/proxy_server/CMakeFiles/light_switch_proxy_server_nrf52840_xxAA_s140_6.0.0.dir/__/__/__/mesh/bearer/src/ad_listener.c.obj
 .text          0x00000000        0x0 examples/light_switch/proxy_server/CMakeFiles/light_switch_proxy_server_nrf52840_xxAA_s140_6.0.0.dir/__/__/__/mesh/bearer/src/ad_type_filter.c.obj
 .data          0x00000000        0x0 examples/light_switch/proxy_server/CMakeFiles/light_switch_proxy_server_nrf52840_xxAA_s140_6.0.0.dir/__/__/__/mesh/bearer/src/ad_type_filter.c.obj
 .bss           0x00000000        0x0 examples/light_switch/proxy_server/CMakeFiles/light_switch_proxy_server_nrf52840_xxAA_s140_6.0.0.dir/__/__/__/mesh/bearer/src/ad_type_filter.c.obj
 .text.bearer_adtype_remove
                0x00000000       0x20 examples/light_switch/proxy_server/CMakeFiles/light_switch_proxy_server_nrf52840_xxAA_s140_6.0.0.dir/__/__/__/mesh/bearer/src/ad_type_filter.c.obj
 .text.bearer_adtype_clear
                0x00000000       0x10 examples/light_switch/proxy_server/CMakeFiles/light_switch_proxy_server_nrf52840_xxAA_s140_6.0.0.dir/__/__/__/mesh/bearer/src/ad_type_filter.c.obj
 .text.bearer_invalid_length_amount_get
                0x00000000        0xc examples/light_switch/proxy_server/CMakeFiles/light_switch_proxy_server_nrf52840_xxAA_s140_6.0.0.dir/__/__/__/mesh/bearer/src/ad_type_filter.c.obj
 .text.bearer_adtype_filtered_amount_get
                0x00000000        0xc examples/light_switch/proxy_server/CMakeFiles/light_switch_proxy_server_nrf52840_xxAA_s140_6.0.0.dir/__/__/__/mesh/bearer/src/ad_type_filter.c.obj
 .text          0x00000000        0x0 examples/light_switch/proxy_server/CMakeFiles/light_switch_proxy_server_nrf52840_xxAA_s140_6.0.0.dir/__/__/__/mesh/bearer/src/adv_packet_filter.c.obj
 .data          0x00000000        0x0 examples/light_switch/proxy_server/CMakeFiles/light_switch_proxy_server_nrf52840_xxAA_s140_6.0.0.dir/__/__/__/mesh/bearer/src/adv_packet_filter.c.obj
 .bss           0x00000000        0x0 examples/light_switch/proxy_server/CMakeFiles/light_switch_proxy_server_nrf52840_xxAA_s140_6.0.0.dir/__/__/__/mesh/bearer/src/adv_packet_filter.c.obj
 .text.adv_filter_handle
                0x00000000       0x3c examples/light_switch/proxy_server/CMakeFiles/light_switch_proxy_server_nrf52840_xxAA_s140_6.0.0.dir/__/__/__/mesh/bearer/src/adv_packet_filter.c.obj
 .text.bearer_adv_packet_filtering_set
                0x00000000       0x1c examples/light_switch/proxy_server/CMakeFiles/light_switch_proxy_server_nrf52840_xxAA_s140_6.0.0.dir/__/__/__/mesh/bearer/src/adv_packet_filter.c.obj
 .text.bearer_adv_packet_remove
                0x00000000       0x18 examples/light_switch/proxy_server/CMakeFiles/light_switch_proxy_server_nrf52840_xxAA_s140_6.0.0.dir/__/__/__/mesh/bearer/src/adv_packet_filter.c.obj
 .text.bearer_adv_packet_add
                0x00000000       0x14 examples/light_switch/proxy_server/CMakeFiles/light_switch_proxy_server_nrf52840_xxAA_s140_6.0.0.dir/__/__/__/mesh/bearer/src/adv_packet_filter.c.obj
 .text.bearer_adv_packet_clear
                0x00000000        0xc examples/light_switch/proxy_server/CMakeFiles/light_switch_proxy_server_nrf52840_xxAA_s140_6.0.0.dir/__/__/__/mesh/bearer/src/adv_packet_filter.c.obj
 .text.bearer_adv_packet_filter_mode_set
                0x00000000       0x18 examples/light_switch/proxy_server/CMakeFiles/light_switch_proxy_server_nrf52840_xxAA_s140_6.0.0.dir/__/__/__/mesh/bearer/src/adv_packet_filter.c.obj
 .text.bearer_adv_packet_filtered_amount_get
                0x00000000        0xc examples/light_switch/proxy_server/CMakeFiles/light_switch_proxy_server_nrf52840_xxAA_s140_6.0.0.dir/__/__/__/mesh/bearer/src/adv_packet_filter.c.obj
 .bss.m_adv_packet_filter
                0x00000000       0x14 examples/light_switch/proxy_server/CMakeFiles/light_switch_proxy_server_nrf52840_xxAA_s140_6.0.0.dir/__/__/__/mesh/bearer/src/adv_packet_filter.c.obj
 .debug_info    0x00000000      0xd97 examples/light_switch/proxy_server/CMakeFiles/light_switch_proxy_server_nrf52840_xxAA_s140_6.0.0.dir/__/__/__/mesh/bearer/src/adv_packet_filter.c.obj
 .debug_abbrev  0x00000000      0x2c9 examples/light_switch/proxy_server/CMakeFiles/light_switch_proxy_server_nrf52840_xxAA_s140_6.0.0.dir/__/__/__/mesh/bearer/src/adv_packet_filter.c.obj
 .debug_loc     0x00000000      0x1c0 examples/light_switch/proxy_server/CMakeFiles/light_switch_proxy_server_nrf52840_xxAA_s140_6.0.0.dir/__/__/__/mesh/bearer/src/adv_packet_filter.c.obj
 .debug_aranges
                0x00000000       0x50 examples/light_switch/proxy_server/CMakeFiles/light_switch_proxy_server_nrf52840_xxAA_s140_6.0.0.dir/__/__/__/mesh/bearer/src/adv_packet_filter.c.obj
 .debug_ranges  0x00000000       0x40 examples/light_switch/proxy_server/CMakeFiles/light_switch_proxy_server_nrf52840_xxAA_s140_6.0.0.dir/__/__/__/mesh/bearer/src/adv_packet_filter.c.obj
 .debug_line    0x00000000      0x370 examples/light_switch/proxy_server/CMakeFiles/light_switch_proxy_server_nrf52840_xxAA_s140_6.0.0.dir/__/__/__/mesh/bearer/src/adv_packet_filter.c.obj
 .debug_str     0x00000000      0xa28 examples/light_switch/proxy_server/CMakeFiles/light_switch_proxy_server_nrf52840_xxAA_s140_6.0.0.dir/__/__/__/mesh/bearer/src/adv_packet_filter.c.obj
 .comment       0x00000000       0x80 examples/light_switch/proxy_server/CMakeFiles/light_switch_proxy_server_nrf52840_xxAA_s140_6.0.0.dir/__/__/__/mesh/bearer/src/adv_packet_filter.c.obj
 .debug_frame   0x00000000       0x88 examples/light_switch/proxy_server/CMakeFiles/light_switch_proxy_server_nrf52840_xxAA_s140_6.0.0.dir/__/__/__/mesh/bearer/src/adv_packet_filter.c.obj
 .ARM.attributes
                0x00000000       0x39 examples/light_switch/proxy_server/CMakeFiles/light_switch_proxy_server_nrf52840_xxAA_s140_6.0.0.dir/__/__/__/mesh/bearer/src/adv_packet_filter.c.obj
 .text          0x00000000        0x0 examples/light_switch/proxy_server/CMakeFiles/light_switch_proxy_server_nrf52840_xxAA_s140_6.0.0.dir/__/__/__/mesh/bearer/src/advertiser.c.obj
 .data          0x00000000        0x0 examples/light_switch/proxy_server/CMakeFiles/light_switch_proxy_server_nrf52840_xxAA_s140_6.0.0.dir/__/__/__/mesh/bearer/src/advertiser.c.obj
 .bss           0x00000000        0x0 examples/light_switch/proxy_server/CMakeFiles/light_switch_proxy_server_nrf52840_xxAA_s140_6.0.0.dir/__/__/__/mesh/bearer/src/advertiser.c.obj
 .text.advertiser_disable
                0x00000000        0xa examples/light_switch/proxy_server/CMakeFiles/light_switch_proxy_server_nrf52840_xxAA_s140_6.0.0.dir/__/__/__/mesh/bearer/src/advertiser.c.obj
 .text.advertiser_channels_set
                0x00000000       0x60 examples/light_switch/proxy_server/CMakeFiles/light_switch_proxy_server_nrf52840_xxAA_s140_6.0.0.dir/__/__/__/mesh/bearer/src/advertiser.c.obj
 .text.advertiser_address_set
                0x00000000       0x3c examples/light_switch/proxy_server/CMakeFiles/light_switch_proxy_server_nrf52840_xxAA_s140_6.0.0.dir/__/__/__/mesh/bearer/src/advertiser.c.obj
 .text.advertiser_config_set
                0x00000000       0x36 examples/light_switch/proxy_server/CMakeFiles/light_switch_proxy_server_nrf52840_xxAA_s140_6.0.0.dir/__/__/__/mesh/bearer/src/advertiser.c.obj
 .text.advertiser_config_get
                0x00000000       0x20 examples/light_switch/proxy_server/CMakeFiles/light_switch_proxy_server_nrf52840_xxAA_s140_6.0.0.dir/__/__/__/mesh/bearer/src/advertiser.c.obj
 .text          0x00000000        0x0 examples/light_switch/proxy_server/CMakeFiles/light_switch_proxy_server_nrf52840_xxAA_s140_6.0.0.dir/__/__/__/mesh/bearer/src/bearer_handler.c.obj
 .data          0x00000000        0x0 examples/light_switch/proxy_server/CMakeFiles/light_switch_proxy_server_nrf52840_xxAA_s140_6.0.0.dir/__/__/__/mesh/bearer/src/bearer_handler.c.obj
 .bss           0x00000000        0x0 examples/light_switch/proxy_server/CMakeFiles/light_switch_proxy_server_nrf52840_xxAA_s140_6.0.0.dir/__/__/__/mesh/bearer/src/bearer_handler.c.obj
 .text.bearer_handler_action_fire
                0x00000000       0x94 examples/light_switch/proxy_server/CMakeFiles/light_switch_proxy_server_nrf52840_xxAA_s140_6.0.0.dir/__/__/__/mesh/bearer/src/bearer_handler.c.obj
 .text          0x00000000        0x0 examples/light_switch/proxy_server/CMakeFiles/light_switch_proxy_server_nrf52840_xxAA_s140_6.0.0.dir/__/__/__/mesh/bearer/src/broadcast.c.obj
 .data          0x00000000        0x0 examples/light_switch/proxy_server/CMakeFiles/light_switch_proxy_server_nrf52840_xxAA_s140_6.0.0.dir/__/__/__/mesh/bearer/src/broadcast.c.obj
 .bss           0x00000000        0x0 examples/light_switch/proxy_server/CMakeFiles/light_switch_proxy_server_nrf52840_xxAA_s140_6.0.0.dir/__/__/__/mesh/bearer/src/broadcast.c.obj
 .text          0x00000000        0x0 examples/light_switch/proxy_server/CMakeFiles/light_switch_proxy_server_nrf52840_xxAA_s140_6.0.0.dir/__/__/__/mesh/bearer/src/filter_engine.c.obj
 .data          0x00000000        0x0 examples/light_switch/proxy_server/CMakeFiles/light_switch_proxy_server_nrf52840_xxAA_s140_6.0.0.dir/__/__/__/mesh/bearer/src/filter_engine.c.obj
 .bss           0x00000000        0x0 examples/light_switch/proxy_server/CMakeFiles/light_switch_proxy_server_nrf52840_xxAA_s140_6.0.0.dir/__/__/__/mesh/bearer/src/filter_engine.c.obj
 .text.fen_accepted_amount_get
                0x00000000        0xc examples/light_switch/proxy_server/CMakeFiles/light_switch_proxy_server_nrf52840_xxAA_s140_6.0.0.dir/__/__/__/mesh/bearer/src/filter_engine.c.obj
 .text          0x00000000        0x0 examples/light_switch/proxy_server/CMakeFiles/light_switch_proxy_server_nrf52840_xxAA_s140_6.0.0.dir/__/__/__/mesh/bearer/src/gap_address_filter.c.obj
 .data          0x00000000        0x0 examples/light_switch/proxy_server/CMakeFiles/light_switch_proxy_server_nrf52840_xxAA_s140_6.0.0.dir/__/__/__/mesh/bearer/src/gap_address_filter.c.obj
 .bss           0x00000000        0x0 examples/light_switch/proxy_server/CMakeFiles/light_switch_proxy_server_nrf52840_xxAA_s140_6.0.0.dir/__/__/__/mesh/bearer/src/gap_address_filter.c.obj
 .text.gap_address_filter_handle
                0x00000000       0xa6 examples/light_switch/proxy_server/CMakeFiles/light_switch_proxy_server_nrf52840_xxAA_s140_6.0.0.dir/__/__/__/mesh/bearer/src/gap_address_filter.c.obj
 .text.gap_addr_filter_set
                0x00000000       0x40 examples/light_switch/proxy_server/CMakeFiles/light_switch_proxy_server_nrf52840_xxAA_s140_6.0.0.dir/__/__/__/mesh/bearer/src/gap_address_filter.c.obj
 .text.bearer_filter_gap_addr_whitelist_set
                0x00000000        0x6 examples/light_switch/proxy_server/CMakeFiles/light_switch_proxy_server_nrf52840_xxAA_s140_6.0.0.dir/__/__/__/mesh/bearer/src/gap_address_filter.c.obj
 .text.bearer_filter_gap_addr_blacklist_set
                0x00000000        0x6 examples/light_switch/proxy_server/CMakeFiles/light_switch_proxy_server_nrf52840_xxAA_s140_6.0.0.dir/__/__/__/mesh/bearer/src/gap_address_filter.c.obj
 .text.bearer_filter_gap_addr_range_set
                0x00000000       0x38 examples/light_switch/proxy_server/CMakeFiles/light_switch_proxy_server_nrf52840_xxAA_s140_6.0.0.dir/__/__/__/mesh/bearer/src/gap_address_filter.c.obj
 .text.bearer_filter_gap_addr_clear
                0x00000000       0x20 examples/light_switch/proxy_server/CMakeFiles/light_switch_proxy_server_nrf52840_xxAA_s140_6.0.0.dir/__/__/__/mesh/bearer/src/gap_address_filter.c.obj
 .text.bearer_gap_addr_filtered_amount_get
                0x00000000        0xc examples/light_switch/proxy_server/CMakeFiles/light_switch_proxy_server_nrf52840_xxAA_s140_6.0.0.dir/__/__/__/mesh/bearer/src/gap_address_filter.c.obj
 .bss.m_addr_filter
                0x00000000       0x18 examples/light_switch/proxy_server/CMakeFiles/light_switch_proxy_server_nrf52840_xxAA_s140_6.0.0.dir/__/__/__/mesh/bearer/src/gap_address_filter.c.obj
 .debug_info    0x00000000      0xebb examples/light_switch/proxy_server/CMakeFiles/light_switch_proxy_server_nrf52840_xxAA_s140_6.0.0.dir/__/__/__/mesh/bearer/src/gap_address_filter.c.obj
 .debug_abbrev  0x00000000      0x2f4 examples/light_switch/proxy_server/CMakeFiles/light_switch_proxy_server_nrf52840_xxAA_s140_6.0.0.dir/__/__/__/mesh/bearer/src/gap_address_filter.c.obj
 .debug_loc     0x00000000      0x3e8 examples/light_switch/proxy_server/CMakeFiles/light_switch_proxy_server_nrf52840_xxAA_s140_6.0.0.dir/__/__/__/mesh/bearer/src/gap_address_filter.c.obj
 .debug_aranges
                0x00000000       0x50 examples/light_switch/proxy_server/CMakeFiles/light_switch_proxy_server_nrf52840_xxAA_s140_6.0.0.dir/__/__/__/mesh/bearer/src/gap_address_filter.c.obj
 .debug_ranges  0x00000000       0x58 examples/light_switch/proxy_server/CMakeFiles/light_switch_proxy_server_nrf52840_xxAA_s140_6.0.0.dir/__/__/__/mesh/bearer/src/gap_address_filter.c.obj
 .debug_line    0x00000000      0x3c8 examples/light_switch/proxy_server/CMakeFiles/light_switch_proxy_server_nrf52840_xxAA_s140_6.0.0.dir/__/__/__/mesh/bearer/src/gap_address_filter.c.obj
 .debug_str     0x00000000      0x982 examples/light_switch/proxy_server/CMakeFiles/light_switch_proxy_server_nrf52840_xxAA_s140_6.0.0.dir/__/__/__/mesh/bearer/src/gap_address_filter.c.obj
 .comment       0x00000000       0x80 examples/light_switch/proxy_server/CMakeFiles/light_switch_proxy_server_nrf52840_xxAA_s140_6.0.0.dir/__/__/__/mesh/bearer/src/gap_address_filter.c.obj
 .debug_frame   0x00000000       0xb4 examples/light_switch/proxy_server/CMakeFiles/light_switch_proxy_server_nrf52840_xxAA_s140_6.0.0.dir/__/__/__/mesh/bearer/src/gap_address_filter.c.obj
 .ARM.attributes
                0x00000000       0x39 examples/light_switch/proxy_server/CMakeFiles/light_switch_proxy_server_nrf52840_xxAA_s140_6.0.0.dir/__/__/__/mesh/bearer/src/gap_address_filter.c.obj
 .text          0x00000000        0x0 examples/light_switch/proxy_server/CMakeFiles/light_switch_proxy_server_nrf52840_xxAA_s140_6.0.0.dir/__/__/__/mesh/bearer/src/radio_config.c.obj
 .data          0x00000000        0x0 examples/light_switch/proxy_server/CMakeFiles/light_switch_proxy_server_nrf52840_xxAA_s140_6.0.0.dir/__/__/__/mesh/bearer/src/radio_config.c.obj
 .bss           0x00000000        0x0 examples/light_switch/proxy_server/CMakeFiles/light_switch_proxy_server_nrf52840_xxAA_s140_6.0.0.dir/__/__/__/mesh/bearer/src/radio_config.c.obj
 .text.radio_config_access_addr_get
                0x00000000       0x4c examples/light_switch/proxy_server/CMakeFiles/light_switch_proxy_server_nrf52840_xxAA_s140_6.0.0.dir/__/__/__/mesh/bearer/src/radio_config.c.obj
 .text          0x00000000        0x0 examples/light_switch/proxy_server/CMakeFiles/light_switch_proxy_server_nrf52840_xxAA_s140_6.0.0.dir/__/__/__/mesh/bearer/src/rssi_filter.c.obj
 .data          0x00000000        0x0 examples/light_switch/proxy_server/CMakeFiles/light_switch_proxy_server_nrf52840_xxAA_s140_6.0.0.dir/__/__/__/mesh/bearer/src/rssi_filter.c.obj
 .bss           0x00000000        0x0 examples/light_switch/proxy_server/CMakeFiles/light_switch_proxy_server_nrf52840_xxAA_s140_6.0.0.dir/__/__/__/mesh/bearer/src/rssi_filter.c.obj
 .text.rssi_filter_handle
                0x00000000       0x20 examples/light_switch/proxy_server/CMakeFiles/light_switch_proxy_server_nrf52840_xxAA_s140_6.0.0.dir/__/__/__/mesh/bearer/src/rssi_filter.c.obj
 .text.bearer_rssi_filtering_set
                0x00000000       0x34 examples/light_switch/proxy_server/CMakeFiles/light_switch_proxy_server_nrf52840_xxAA_s140_6.0.0.dir/__/__/__/mesh/bearer/src/rssi_filter.c.obj
 .text.bearer_rssi_filtered_amount_get
                0x00000000        0xc examples/light_switch/proxy_server/CMakeFiles/light_switch_proxy_server_nrf52840_xxAA_s140_6.0.0.dir/__/__/__/mesh/bearer/src/rssi_filter.c.obj
 .bss.m_rssi_filter
                0x00000000       0x18 examples/light_switch/proxy_server/CMakeFiles/light_switch_proxy_server_nrf52840_xxAA_s140_6.0.0.dir/__/__/__/mesh/bearer/src/rssi_filter.c.obj
 .debug_info    0x00000000      0xc73 examples/light_switch/proxy_server/CMakeFiles/light_switch_proxy_server_nrf52840_xxAA_s140_6.0.0.dir/__/__/__/mesh/bearer/src/rssi_filter.c.obj
 .debug_abbrev  0x00000000      0x28e examples/light_switch/proxy_server/CMakeFiles/light_switch_proxy_server_nrf52840_xxAA_s140_6.0.0.dir/__/__/__/mesh/bearer/src/rssi_filter.c.obj
 .debug_loc     0x00000000       0xb3 examples/light_switch/proxy_server/CMakeFiles/light_switch_proxy_server_nrf52840_xxAA_s140_6.0.0.dir/__/__/__/mesh/bearer/src/rssi_filter.c.obj
 .debug_aranges
                0x00000000       0x30 examples/light_switch/proxy_server/CMakeFiles/light_switch_proxy_server_nrf52840_xxAA_s140_6.0.0.dir/__/__/__/mesh/bearer/src/rssi_filter.c.obj
 .debug_ranges  0x00000000       0x20 examples/light_switch/proxy_server/CMakeFiles/light_switch_proxy_server_nrf52840_xxAA_s140_6.0.0.dir/__/__/__/mesh/bearer/src/rssi_filter.c.obj
 .debug_line    0x00000000      0x2e5 examples/light_switch/proxy_server/CMakeFiles/light_switch_proxy_server_nrf52840_xxAA_s140_6.0.0.dir/__/__/__/mesh/bearer/src/rssi_filter.c.obj
 .debug_str     0x00000000      0x83d examples/light_switch/proxy_server/CMakeFiles/light_switch_proxy_server_nrf52840_xxAA_s140_6.0.0.dir/__/__/__/mesh/bearer/src/rssi_filter.c.obj
 .comment       0x00000000       0x80 examples/light_switch/proxy_server/CMakeFiles/light_switch_proxy_server_nrf52840_xxAA_s140_6.0.0.dir/__/__/__/mesh/bearer/src/rssi_filter.c.obj
 .debug_frame   0x00000000       0x54 examples/light_switch/proxy_server/CMakeFiles/light_switch_proxy_server_nrf52840_xxAA_s140_6.0.0.dir/__/__/__/mesh/bearer/src/rssi_filter.c.obj
 .ARM.attributes
                0x00000000       0x39 examples/light_switch/proxy_server/CMakeFiles/light_switch_proxy_server_nrf52840_xxAA_s140_6.0.0.dir/__/__/__/mesh/bearer/src/rssi_filter.c.obj
 .text          0x00000000        0x0 examples/light_switch/proxy_server/CMakeFiles/light_switch_proxy_server_nrf52840_xxAA_s140_6.0.0.dir/__/__/__/mesh/bearer/src/scanner.c.obj
 .data          0x00000000        0x0 examples/light_switch/proxy_server/CMakeFiles/light_switch_proxy_server_nrf52840_xxAA_s140_6.0.0.dir/__/__/__/mesh/bearer/src/scanner.c.obj
 .bss           0x00000000        0x0 examples/light_switch/proxy_server/CMakeFiles/light_switch_proxy_server_nrf52840_xxAA_s140_6.0.0.dir/__/__/__/mesh/bearer/src/scanner.c.obj
 .text.scanner_rx_callback_set
                0x00000000       0x20 examples/light_switch/proxy_server/CMakeFiles/light_switch_proxy_server_nrf52840_xxAA_s140_6.0.0.dir/__/__/__/mesh/bearer/src/scanner.c.obj
 .text.scanner_is_enabled
                0x00000000       0x10 examples/light_switch/proxy_server/CMakeFiles/light_switch_proxy_server_nrf52840_xxAA_s140_6.0.0.dir/__/__/__/mesh/bearer/src/scanner.c.obj
 .text.scanner_stats_get
                0x00000000        0x8 examples/light_switch/proxy_server/CMakeFiles/light_switch_proxy_server_nrf52840_xxAA_s140_6.0.0.dir/__/__/__/mesh/bearer/src/scanner.c.obj
 .text.scanner_config_radio_mode_set
                0x00000000       0x10 examples/light_switch/proxy_server/CMakeFiles/light_switch_proxy_server_nrf52840_xxAA_s140_6.0.0.dir/__/__/__/mesh/bearer/src/scanner.c.obj
 .text          0x00000000        0x0 examples/light_switch/proxy_server/CMakeFiles/light_switch_proxy_server_nrf52840_xxAA_s140_6.0.0.dir/__/__/__/mesh/gatt/src/mesh_gatt.c.obj
 .data          0x00000000        0x0 examples/light_switch/proxy_server/CMakeFiles/light_switch_proxy_server_nrf52840_xxAA_s140_6.0.0.dir/__/__/__/mesh/gatt/src/mesh_gatt.c.obj
 .bss           0x00000000        0x0 examples/light_switch/proxy_server/CMakeFiles/light_switch_proxy_server_nrf52840_xxAA_s140_6.0.0.dir/__/__/__/mesh/gatt/src/mesh_gatt.c.obj
 .text          0x00000000        0x0 examples/light_switch/proxy_server/CMakeFiles/light_switch_proxy_server_nrf52840_xxAA_s140_6.0.0.dir/__/__/__/mesh/gatt/src/proxy.c.obj
 .data          0x00000000        0x0 examples/light_switch/proxy_server/CMakeFiles/light_switch_proxy_server_nrf52840_xxAA_s140_6.0.0.dir/__/__/__/mesh/gatt/src/proxy.c.obj
 .bss           0x00000000        0x0 examples/light_switch/proxy_server/CMakeFiles/light_switch_proxy_server_nrf52840_xxAA_s140_6.0.0.dir/__/__/__/mesh/gatt/src/proxy.c.obj
 .text.proxy_is_connected
                0x00000000       0x18 examples/light_switch/proxy_server/CMakeFiles/light_switch_proxy_server_nrf52840_xxAA_s140_6.0.0.dir/__/__/__/mesh/gatt/src/proxy.c.obj
 .text          0x00000000        0x0 examples/light_switch/proxy_server/CMakeFiles/light_switch_proxy_server_nrf52840_xxAA_s140_6.0.0.dir/__/__/__/mesh/gatt/src/proxy_filter.c.obj
 .data          0x00000000        0x0 examples/light_switch/proxy_server/CMakeFiles/light_switch_proxy_server_nrf52840_xxAA_s140_6.0.0.dir/__/__/__/mesh/gatt/src/proxy_filter.c.obj
 .bss           0x00000000        0x0 examples/light_switch/proxy_server/CMakeFiles/light_switch_proxy_server_nrf52840_xxAA_s140_6.0.0.dir/__/__/__/mesh/gatt/src/proxy_filter.c.obj
 .text          0x00000000        0x0 examples/light_switch/proxy_server/CMakeFiles/light_switch_proxy_server_nrf52840_xxAA_s140_6.0.0.dir/__/__/__/models/simple_on_off/src/simple_on_off_server.c.obj
 .data          0x00000000        0x0 examples/light_switch/proxy_server/CMakeFiles/light_switch_proxy_server_nrf52840_xxAA_s140_6.0.0.dir/__/__/__/models/simple_on_off/src/simple_on_off_server.c.obj
 .bss           0x00000000        0x0 examples/light_switch/proxy_server/CMakeFiles/light_switch_proxy_server_nrf52840_xxAA_s140_6.0.0.dir/__/__/__/models/simple_on_off/src/simple_on_off_server.c.obj
 .text          0x00000000        0x0 examples/light_switch/proxy_server/CMakeFiles/light_switch_proxy_server_nrf52840_xxAA_s140_6.0.0.dir/__/__/__/models/config/src/composition_data.c.obj
 .data          0x00000000        0x0 examples/light_switch/proxy_server/CMakeFiles/light_switch_proxy_server_nrf52840_xxAA_s140_6.0.0.dir/__/__/__/models/config/src/composition_data.c.obj
 .bss           0x00000000        0x0 examples/light_switch/proxy_server/CMakeFiles/light_switch_proxy_server_nrf52840_xxAA_s140_6.0.0.dir/__/__/__/models/config/src/composition_data.c.obj
 .text          0x00000000        0x0 examples/light_switch/proxy_server/CMakeFiles/light_switch_proxy_server_nrf52840_xxAA_s140_6.0.0.dir/__/__/__/models/config/src/config_server.c.obj
 .data          0x00000000        0x0 examples/light_switch/proxy_server/CMakeFiles/light_switch_proxy_server_nrf52840_xxAA_s140_6.0.0.dir/__/__/__/models/config/src/config_server.c.obj
 .bss           0x00000000        0x0 examples/light_switch/proxy_server/CMakeFiles/light_switch_proxy_server_nrf52840_xxAA_s140_6.0.0.dir/__/__/__/models/config/src/config_server.c.obj
 .text          0x00000000        0x0 examples/light_switch/proxy_server/CMakeFiles/light_switch_proxy_server_nrf52840_xxAA_s140_6.0.0.dir/__/__/__/models/config/src/packed_index_list.c.obj
 .data          0x00000000        0x0 examples/light_switch/proxy_server/CMakeFiles/light_switch_proxy_server_nrf52840_xxAA_s140_6.0.0.dir/__/__/__/models/config/src/packed_index_list.c.obj
 .bss           0x00000000        0x0 examples/light_switch/proxy_server/CMakeFiles/light_switch_proxy_server_nrf52840_xxAA_s140_6.0.0.dir/__/__/__/models/config/src/packed_index_list.c.obj
 .text          0x00000000        0x0 examples/light_switch/proxy_server/CMakeFiles/light_switch_proxy_server_nrf52840_xxAA_s140_6.0.0.dir/__/__/__/models/health/src/health_server.c.obj
 .data          0x00000000        0x0 examples/light_switch/proxy_server/CMakeFiles/light_switch_proxy_server_nrf52840_xxAA_s140_6.0.0.dir/__/__/__/models/health/src/health_server.c.obj
 .bss           0x00000000        0x0 examples/light_switch/proxy_server/CMakeFiles/light_switch_proxy_server_nrf52840_xxAA_s140_6.0.0.dir/__/__/__/models/health/src/health_server.c.obj
 .text.health_server_fault_is_set
                0x00000000       0x1c examples/light_switch/proxy_server/CMakeFiles/light_switch_proxy_server_nrf52840_xxAA_s140_6.0.0.dir/__/__/__/models/health/src/health_server.c.obj
 .text.health_server_fault_count_get
                0x00000000        0xc examples/light_switch/proxy_server/CMakeFiles/light_switch_proxy_server_nrf52840_xxAA_s140_6.0.0.dir/__/__/__/models/health/src/health_server.c.obj
 .text.health_server_fault_register
                0x00000000       0xca examples/light_switch/proxy_server/CMakeFiles/light_switch_proxy_server_nrf52840_xxAA_s140_6.0.0.dir/__/__/__/models/health/src/health_server.c.obj
 .text.health_server_fault_clear
                0x00000000       0x48 examples/light_switch/proxy_server/CMakeFiles/light_switch_proxy_server_nrf52840_xxAA_s140_6.0.0.dir/__/__/__/models/health/src/health_server.c.obj
 .text.health_server_attention_get
                0x00000000        0x6 examples/light_switch/proxy_server/CMakeFiles/light_switch_proxy_server_nrf52840_xxAA_s140_6.0.0.dir/__/__/__/models/health/src/health_server.c.obj
 .text.health_server_attention_set
                0x00000000        0x4 examples/light_switch/proxy_server/CMakeFiles/light_switch_proxy_server_nrf52840_xxAA_s140_6.0.0.dir/__/__/__/models/health/src/health_server.c.obj
 .text          0x00000000        0x0 examples/light_switch/proxy_server/CMakeFiles/light_switch_proxy_server_nrf52840_xxAA_s140_6.0.0.dir/__/__/__/mesh/access/src/access_publish.c.obj
 .data          0x00000000        0x0 examples/light_switch/proxy_server/CMakeFiles/light_switch_proxy_server_nrf52840_xxAA_s140_6.0.0.dir/__/__/__/mesh/access/src/access_publish.c.obj
 .bss           0x00000000        0x0 examples/light_switch/proxy_server/CMakeFiles/light_switch_proxy_server_nrf52840_xxAA_s140_6.0.0.dir/__/__/__/mesh/access/src/access_publish.c.obj
 .text          0x00000000        0x0 examples/light_switch/proxy_server/CMakeFiles/light_switch_proxy_server_nrf52840_xxAA_s140_6.0.0.dir/__/__/__/mesh/access/src/access.c.obj
 .data          0x00000000        0x0 examples/light_switch/proxy_server/CMakeFiles/light_switch_proxy_server_nrf52840_xxAA_s140_6.0.0.dir/__/__/__/mesh/access/src/access.c.obj
 .bss           0x00000000        0x0 examples/light_switch/proxy_server/CMakeFiles/light_switch_proxy_server_nrf52840_xxAA_s140_6.0.0.dir/__/__/__/mesh/access/src/access.c.obj
 .text.access_model_subscription_lists_share
                0x00000000       0x48 examples/light_switch/proxy_server/CMakeFiles/light_switch_proxy_server_nrf52840_xxAA_s140_6.0.0.dir/__/__/__/mesh/access/src/access.c.obj
 .text.access_element_location_set
                0x00000000       0x20 examples/light_switch/proxy_server/CMakeFiles/light_switch_proxy_server_nrf52840_xxAA_s140_6.0.0.dir/__/__/__/mesh/access/src/access.c.obj
 .text          0x00000000        0x0 examples/light_switch/proxy_server/CMakeFiles/light_switch_proxy_server_nrf52840_xxAA_s140_6.0.0.dir/__/__/__/mesh/access/src/access_reliable.c.obj
 .data          0x00000000        0x0 examples/light_switch/proxy_server/CMakeFiles/light_switch_proxy_server_nrf52840_xxAA_s140_6.0.0.dir/__/__/__/mesh/access/src/access_reliable.c.obj
 .bss           0x00000000        0x0 examples/light_switch/proxy_server/CMakeFiles/light_switch_proxy_server_nrf52840_xxAA_s140_6.0.0.dir/__/__/__/mesh/access/src/access_reliable.c.obj
 .text.access_model_reliable_publish
                0x00000000      0x1b8 examples/light_switch/proxy_server/CMakeFiles/light_switch_proxy_server_nrf52840_xxAA_s140_6.0.0.dir/__/__/__/mesh/access/src/access_reliable.c.obj
 .text          0x00000000        0x0 examples/light_switch/proxy_server/CMakeFiles/light_switch_proxy_server_nrf52840_xxAA_s140_6.0.0.dir/__/__/__/mesh/access/src/device_state_manager.c.obj
 .data          0x00000000        0x0 examples/light_switch/proxy_server/CMakeFiles/light_switch_proxy_server_nrf52840_xxAA_s140_6.0.0.dir/__/__/__/mesh/access/src/device_state_manager.c.obj
 .bss           0x00000000        0x0 examples/light_switch/proxy_server/CMakeFiles/light_switch_proxy_server_nrf52840_xxAA_s140_6.0.0.dir/__/__/__/mesh/access/src/device_state_manager.c.obj
 .text.dsm_has_unflashed_data
                0x00000000       0x24 examples/light_switch/proxy_server/CMakeFiles/light_switch_proxy_server_nrf52840_xxAA_s140_6.0.0.dir/__/__/__/mesh/access/src/device_state_manager.c.obj
 .text.dsm_address_subscription_count_get
                0x00000000       0x58 examples/light_switch/proxy_server/CMakeFiles/light_switch_proxy_server_nrf52840_xxAA_s140_6.0.0.dir/__/__/__/mesh/access/src/device_state_manager.c.obj
 .text.dsm_address_get_all
                0x00000000       0x74 examples/light_switch/proxy_server/CMakeFiles/light_switch_proxy_server_nrf52840_xxAA_s140_6.0.0.dir/__/__/__/mesh/access/src/device_state_manager.c.obj
 .text.dsm_subnet_handle_to_netkey_index
                0x00000000       0x34 examples/light_switch/proxy_server/CMakeFiles/light_switch_proxy_server_nrf52840_xxAA_s140_6.0.0.dir/__/__/__/mesh/access/src/device_state_manager.c.obj
 .text.dsm_devkey_delete
                0x00000000       0x38 examples/light_switch/proxy_server/CMakeFiles/light_switch_proxy_server_nrf52840_xxAA_s140_6.0.0.dir/__/__/__/mesh/access/src/device_state_manager.c.obj
 .text.dsm_devkey_handle_get
                0x00000000       0x34 examples/light_switch/proxy_server/CMakeFiles/light_switch_proxy_server_nrf52840_xxAA_s140_6.0.0.dir/__/__/__/mesh/access/src/device_state_manager.c.obj
 .text          0x00000000        0x0 examples/light_switch/proxy_server/CMakeFiles/light_switch_proxy_server_nrf52840_xxAA_s140_6.0.0.dir/__/__/__/mesh/prov/src/prov_provisionee.c.obj
 .data          0x00000000        0x0 examples/light_switch/proxy_server/CMakeFiles/light_switch_proxy_server_nrf52840_xxAA_s140_6.0.0.dir/__/__/__/mesh/prov/src/prov_provisionee.c.obj
 .bss           0x00000000        0x0 examples/light_switch/proxy_server/CMakeFiles/light_switch_proxy_server_nrf52840_xxAA_s140_6.0.0.dir/__/__/__/mesh/prov/src/prov_provisionee.c.obj
 .text.prov_provisionee_shared_secret
                0x00000000       0x28 examples/light_switch/proxy_server/CMakeFiles/light_switch_proxy_server_nrf52840_xxAA_s140_6.0.0.dir/__/__/__/mesh/prov/src/prov_provisionee.c.obj
 .text          0x00000000        0x0 examples/light_switch/proxy_server/CMakeFiles/light_switch_proxy_server_nrf52840_xxAA_s140_6.0.0.dir/__/__/__/mesh/prov/src/nrf_mesh_prov.c.obj
 .data          0x00000000        0x0 examples/light_switch/proxy_server/CMakeFiles/light_switch_proxy_server_nrf52840_xxAA_s140_6.0.0.dir/__/__/__/mesh/prov/src/nrf_mesh_prov.c.obj
 .bss           0x00000000        0x0 examples/light_switch/proxy_server/CMakeFiles/light_switch_proxy_server_nrf52840_xxAA_s140_6.0.0.dir/__/__/__/mesh/prov/src/nrf_mesh_prov.c.obj
 .text.nrf_mesh_prov_provision
                0x00000000       0x4e examples/light_switch/proxy_server/CMakeFiles/light_switch_proxy_server_nrf52840_xxAA_s140_6.0.0.dir/__/__/__/mesh/prov/src/nrf_mesh_prov.c.obj
 .text.nrf_mesh_prov_oob_use
                0x00000000       0x18 examples/light_switch/proxy_server/CMakeFiles/light_switch_proxy_server_nrf52840_xxAA_s140_6.0.0.dir/__/__/__/mesh/prov/src/nrf_mesh_prov.c.obj
 .text.nrf_mesh_prov_shared_secret_provide
                0x00000000        0xe examples/light_switch/proxy_server/CMakeFiles/light_switch_proxy_server_nrf52840_xxAA_s140_6.0.0.dir/__/__/__/mesh/prov/src/nrf_mesh_prov.c.obj
 .text.nrf_mesh_prov_pubkey_provide
                0x00000000       0x10 examples/light_switch/proxy_server/CMakeFiles/light_switch_proxy_server_nrf52840_xxAA_s140_6.0.0.dir/__/__/__/mesh/prov/src/nrf_mesh_prov.c.obj
 .text.nrf_mesh_prov_scan_start
                0x00000000       0x10 examples/light_switch/proxy_server/CMakeFiles/light_switch_proxy_server_nrf52840_xxAA_s140_6.0.0.dir/__/__/__/mesh/prov/src/nrf_mesh_prov.c.obj
 .text.nrf_mesh_prov_scan_stop
                0x00000000        0x4 examples/light_switch/proxy_server/CMakeFiles/light_switch_proxy_server_nrf52840_xxAA_s140_6.0.0.dir/__/__/__/mesh/prov/src/nrf_mesh_prov.c.obj
 .text          0x00000000        0x0 examples/light_switch/proxy_server/CMakeFiles/light_switch_proxy_server_nrf52840_xxAA_s140_6.0.0.dir/__/__/__/mesh/prov/src/provisioning.c.obj
 .data          0x00000000        0x0 examples/light_switch/proxy_server/CMakeFiles/light_switch_proxy_server_nrf52840_xxAA_s140_6.0.0.dir/__/__/__/mesh/prov/src/provisioning.c.obj
 .bss           0x00000000        0x0 examples/light_switch/proxy_server/CMakeFiles/light_switch_proxy_server_nrf52840_xxAA_s140_6.0.0.dir/__/__/__/mesh/prov/src/provisioning.c.obj
 .text.prov_tx_invite
                0x00000000       0x28 examples/light_switch/proxy_server/CMakeFiles/light_switch_proxy_server_nrf52840_xxAA_s140_6.0.0.dir/__/__/__/mesh/prov/src/provisioning.c.obj
 .text.prov_tx_start
                0x00000000       0x20 examples/light_switch/proxy_server/CMakeFiles/light_switch_proxy_server_nrf52840_xxAA_s140_6.0.0.dir/__/__/__/mesh/prov/src/provisioning.c.obj
 .text.prov_tx_data
                0x00000000        0x6 examples/light_switch/proxy_server/CMakeFiles/light_switch_proxy_server_nrf52840_xxAA_s140_6.0.0.dir/__/__/__/mesh/prov/src/provisioning.c.obj
 .text.prov_tx  0x00000000        0x4 examples/light_switch/proxy_server/CMakeFiles/light_switch_proxy_server_nrf52840_xxAA_s140_6.0.0.dir/__/__/__/mesh/prov/src/provisioning.c.obj
 .text          0x00000000        0x0 examples/light_switch/proxy_server/CMakeFiles/light_switch_proxy_server_nrf52840_xxAA_s140_6.0.0.dir/__/__/__/mesh/prov/src/prov_beacon.c.obj
 .data          0x00000000        0x0 examples/light_switch/proxy_server/CMakeFiles/light_switch_proxy_server_nrf52840_xxAA_s140_6.0.0.dir/__/__/__/mesh/prov/src/prov_beacon.c.obj
 .bss           0x00000000        0x0 examples/light_switch/proxy_server/CMakeFiles/light_switch_proxy_server_nrf52840_xxAA_s140_6.0.0.dir/__/__/__/mesh/prov/src/prov_beacon.c.obj
 .text.prov_beacon_scan_start
                0x00000000       0x18 examples/light_switch/proxy_server/CMakeFiles/light_switch_proxy_server_nrf52840_xxAA_s140_6.0.0.dir/__/__/__/mesh/prov/src/prov_beacon.c.obj
 .text.prov_beacon_scan_stop
                0x00000000        0xc examples/light_switch/proxy_server/CMakeFiles/light_switch_proxy_server_nrf52840_xxAA_s140_6.0.0.dir/__/__/__/mesh/prov/src/prov_beacon.c.obj
 .text          0x00000000        0x0 examples/light_switch/proxy_server/CMakeFiles/light_switch_proxy_server_nrf52840_xxAA_s140_6.0.0.dir/__/__/__/mesh/prov/src/prov_utils.c.obj
 .data          0x00000000        0x0 examples/light_switch/proxy_server/CMakeFiles/light_switch_proxy_server_nrf52840_xxAA_s140_6.0.0.dir/__/__/__/mesh/prov/src/prov_utils.c.obj
 .bss           0x00000000        0x0 examples/light_switch/proxy_server/CMakeFiles/light_switch_proxy_server_nrf52840_xxAA_s140_6.0.0.dir/__/__/__/mesh/prov/src/prov_utils.c.obj
 .text          0x00000000        0x0 examples/light_switch/proxy_server/CMakeFiles/light_switch_proxy_server_nrf52840_xxAA_s140_6.0.0.dir/__/__/__/mesh/prov/src/prov_bearer_adv.c.obj
 .data          0x00000000        0x0 examples/light_switch/proxy_server/CMakeFiles/light_switch_proxy_server_nrf52840_xxAA_s140_6.0.0.dir/__/__/__/mesh/prov/src/prov_bearer_adv.c.obj
 .bss           0x00000000        0x0 examples/light_switch/proxy_server/CMakeFiles/light_switch_proxy_server_nrf52840_xxAA_s140_6.0.0.dir/__/__/__/mesh/prov/src/prov_bearer_adv.c.obj
 .text          0x00000000        0x0 examples/light_switch/proxy_server/CMakeFiles/light_switch_proxy_server_nrf52840_xxAA_s140_6.0.0.dir/C_/ver/mod/nRF5_SDK_15.0.0_a53641a/modules/nrfx/mdk/system_nrf52840.c.obj
 .data          0x00000000        0x0 examples/light_switch/proxy_server/CMakeFiles/light_switch_proxy_server_nrf52840_xxAA_s140_6.0.0.dir/C_/ver/mod/nRF5_SDK_15.0.0_a53641a/modules/nrfx/mdk/system_nrf52840.c.obj
 .bss           0x00000000        0x0 examples/light_switch/proxy_server/CMakeFiles/light_switch_proxy_server_nrf52840_xxAA_s140_6.0.0.dir/C_/ver/mod/nRF5_SDK_15.0.0_a53641a/modules/nrfx/mdk/system_nrf52840.c.obj
 .text.SystemCoreClockUpdate
                0x00000000       0x10 examples/light_switch/proxy_server/CMakeFiles/light_switch_proxy_server_nrf52840_xxAA_s140_6.0.0.dir/C_/ver/mod/nRF5_SDK_15.0.0_a53641a/modules/nrfx/mdk/system_nrf52840.c.obj
 .data          0x00000000        0x0 examples/light_switch/proxy_server/CMakeFiles/light_switch_proxy_server_nrf52840_xxAA_s140_6.0.0.dir/C_/ver/mod/nRF5_SDK_15.0.0_a53641a/modules/nrfx/mdk/gcc_startup_nrf52840.S.obj
 .bss           0x00000000        0x0 examples/light_switch/proxy_server/CMakeFiles/light_switch_proxy_server_nrf52840_xxAA_s140_6.0.0.dir/C_/ver/mod/nRF5_SDK_15.0.0_a53641a/modules/nrfx/mdk/gcc_startup_nrf52840.S.obj
 .text          0x00000000        0x0 examples/light_switch/proxy_server/CMakeFiles/light_switch_proxy_server_nrf52840_xxAA_s140_6.0.0.dir/C_/ver/mod/nRF5_SDK_15.0.0_a53641a/components/libraries/util/app_error.c.obj
 .data          0x00000000        0x0 examples/light_switch/proxy_server/CMakeFiles/light_switch_proxy_server_nrf52840_xxAA_s140_6.0.0.dir/C_/ver/mod/nRF5_SDK_15.0.0_a53641a/components/libraries/util/app_error.c.obj
 .bss           0x00000000        0x0 examples/light_switch/proxy_server/CMakeFiles/light_switch_proxy_server_nrf52840_xxAA_s140_6.0.0.dir/C_/ver/mod/nRF5_SDK_15.0.0_a53641a/components/libraries/util/app_error.c.obj
 .text.app_error_save_and_stop
                0x00000000       0x58 examples/light_switch/proxy_server/CMakeFiles/light_switch_proxy_server_nrf52840_xxAA_s140_6.0.0.dir/C_/ver/mod/nRF5_SDK_15.0.0_a53641a/components/libraries/util/app_error.c.obj
 .bss.m_error_data.8119
                0x00000000       0x20 examples/light_switch/proxy_server/CMakeFiles/light_switch_proxy_server_nrf52840_xxAA_s140_6.0.0.dir/C_/ver/mod/nRF5_SDK_15.0.0_a53641a/components/libraries/util/app_error.c.obj
 .text          0x00000000        0x0 examples/light_switch/proxy_server/CMakeFiles/light_switch_proxy_server_nrf52840_xxAA_s140_6.0.0.dir/C_/ver/mod/nRF5_SDK_15.0.0_a53641a/components/libraries/util/app_error_handler_gcc.c.obj
 .data          0x00000000        0x0 examples/light_switch/proxy_server/CMakeFiles/light_switch_proxy_server_nrf52840_xxAA_s140_6.0.0.dir/C_/ver/mod/nRF5_SDK_15.0.0_a53641a/components/libraries/util/app_error_handler_gcc.c.obj
 .bss           0x00000000        0x0 examples/light_switch/proxy_server/CMakeFiles/light_switch_proxy_server_nrf52840_xxAA_s140_6.0.0.dir/C_/ver/mod/nRF5_SDK_15.0.0_a53641a/components/libraries/util/app_error_handler_gcc.c.obj
 .text          0x00000000        0x0 external/rtt/librtt_nrf52840_xxAA.a(SEGGER_RTT.c.obj)
 .data          0x00000000        0x0 external/rtt/librtt_nrf52840_xxAA.a(SEGGER_RTT.c.obj)
 .bss           0x00000000        0x0 external/rtt/librtt_nrf52840_xxAA.a(SEGGER_RTT.c.obj)
 .text._PostTerminalSwitch.constprop.0
                0x00000000       0x28 external/rtt/librtt_nrf52840_xxAA.a(SEGGER_RTT.c.obj)
 .text.SEGGER_RTT_WriteSkipNoLock
                0x00000000       0xb4 external/rtt/librtt_nrf52840_xxAA.a(SEGGER_RTT.c.obj)
 .text.SEGGER_RTT_WriteString
                0x00000000       0x1a external/rtt/librtt_nrf52840_xxAA.a(SEGGER_RTT.c.obj)
 .text.SEGGER_RTT_WaitKey
                0x00000000        0xc external/rtt/librtt_nrf52840_xxAA.a(SEGGER_RTT.c.obj)
 .text.SEGGER_RTT_HasKey
                0x00000000       0x1c external/rtt/librtt_nrf52840_xxAA.a(SEGGER_RTT.c.obj)
 .text.SEGGER_RTT_HasData
                0x00000000       0x14 external/rtt/librtt_nrf52840_xxAA.a(SEGGER_RTT.c.obj)
 .text.SEGGER_RTT_AllocDownBuffer
                0x00000000       0x68 external/rtt/librtt_nrf52840_xxAA.a(SEGGER_RTT.c.obj)
 .text.SEGGER_RTT_AllocUpBuffer
                0x00000000       0x70 external/rtt/librtt_nrf52840_xxAA.a(SEGGER_RTT.c.obj)
 .text.SEGGER_RTT_ConfigUpBuffer
                0x00000000       0x68 external/rtt/librtt_nrf52840_xxAA.a(SEGGER_RTT.c.obj)
 .text.SEGGER_RTT_ConfigDownBuffer
                0x00000000       0x60 external/rtt/librtt_nrf52840_xxAA.a(SEGGER_RTT.c.obj)
 .text.SEGGER_RTT_SetNameUpBuffer
                0x00000000       0x3c external/rtt/librtt_nrf52840_xxAA.a(SEGGER_RTT.c.obj)
 .text.SEGGER_RTT_SetNameDownBuffer
                0x00000000       0x3c external/rtt/librtt_nrf52840_xxAA.a(SEGGER_RTT.c.obj)
 .text.SEGGER_RTT_Init
                0x00000000       0x10 external/rtt/librtt_nrf52840_xxAA.a(SEGGER_RTT.c.obj)
 .text.SEGGER_RTT_SetTerminal
                0x00000000       0x84 external/rtt/librtt_nrf52840_xxAA.a(SEGGER_RTT.c.obj)
 .text.SEGGER_RTT_TerminalOut
                0x00000000       0xa0 external/rtt/librtt_nrf52840_xxAA.a(SEGGER_RTT.c.obj)
 .bss._ActiveTerminal
                0x00000000        0x1 external/rtt/librtt_nrf52840_xxAA.a(SEGGER_RTT.c.obj)
 .rodata._aTerminalId
                0x00000000       0x10 external/rtt/librtt_nrf52840_xxAA.a(SEGGER_RTT.c.obj)
 .text          0x00000000        0x0 external/rtt/librtt_nrf52840_xxAA.a(SEGGER_RTT_printf.c.obj)
 .data          0x00000000        0x0 external/rtt/librtt_nrf52840_xxAA.a(SEGGER_RTT_printf.c.obj)
 .bss           0x00000000        0x0 external/rtt/librtt_nrf52840_xxAA.a(SEGGER_RTT_printf.c.obj)
 .text          0x00000000        0x0 external/micro-ecc/libuECC_nrf52840_xxAA.a(uECC.c.obj)
 .data          0x00000000        0x0 external/micro-ecc/libuECC_nrf52840_xxAA.a(uECC.c.obj)
 .bss           0x00000000        0x0 external/micro-ecc/libuECC_nrf52840_xxAA.a(uECC.c.obj)
 .text.uECC_vli_modMult
                0x00000000      0x148 external/micro-ecc/libuECC_nrf52840_xxAA.a(uECC.c.obj)
 .text.HMAC_init
                0x00000000       0x46 external/micro-ecc/libuECC_nrf52840_xxAA.a(uECC.c.obj)
 .text.HMAC_update
                0x00000000        0x4 external/micro-ecc/libuECC_nrf52840_xxAA.a(uECC.c.obj)
 .text.HMAC_finish
                0x00000000       0x62 external/micro-ecc/libuECC_nrf52840_xxAA.a(uECC.c.obj)
 .text.update_V
                0x00000000       0x24 external/micro-ecc/libuECC_nrf52840_xxAA.a(uECC.c.obj)
 .text.bits2int
                0x00000000       0x88 external/micro-ecc/libuECC_nrf52840_xxAA.a(uECC.c.obj)
 .text.uECC_sign_with_k
                0x00000000      0x17c external/micro-ecc/libuECC_nrf52840_xxAA.a(uECC.c.obj)
 .text.uECC_set_rng
                0x00000000        0xc external/micro-ecc/libuECC_nrf52840_xxAA.a(uECC.c.obj)
 .text.uECC_get_rng
                0x00000000        0xc external/micro-ecc/libuECC_nrf52840_xxAA.a(uECC.c.obj)
 .text.uECC_curve_private_key_size
                0x00000000        0xe external/micro-ecc/libuECC_nrf52840_xxAA.a(uECC.c.obj)
 .text.uECC_curve_public_key_size
                0x00000000        0x8 external/micro-ecc/libuECC_nrf52840_xxAA.a(uECC.c.obj)
 .text.uECC_compute_public_key
                0x00000000       0x7e external/micro-ecc/libuECC_nrf52840_xxAA.a(uECC.c.obj)
 .text.uECC_sign
                0x00000000       0x56 external/micro-ecc/libuECC_nrf52840_xxAA.a(uECC.c.obj)
 .text.uECC_sign_deterministic
                0x00000000      0x192 external/micro-ecc/libuECC_nrf52840_xxAA.a(uECC.c.obj)
 .text.uECC_verify
                0x00000000      0x2f0 external/micro-ecc/libuECC_nrf52840_xxAA.a(uECC.c.obj)
 .data          0x00000000        0x0 c:/mesh/arm_gcc/bin/../lib/gcc/arm-none-eabi/6.3.1/thumb/v7e-m/fpv4-sp/hard\libgcc.a(_aeabi_uldivmod.o)
 .bss           0x00000000        0x0 c:/mesh/arm_gcc/bin/../lib/gcc/arm-none-eabi/6.3.1/thumb/v7e-m/fpv4-sp/hard\libgcc.a(_aeabi_uldivmod.o)
 .data          0x00000000        0x0 c:/mesh/arm_gcc/bin/../lib/gcc/arm-none-eabi/6.3.1/thumb/v7e-m/fpv4-sp/hard\libgcc.a(_udivmoddi4.o)
 .bss           0x00000000        0x0 c:/mesh/arm_gcc/bin/../lib/gcc/arm-none-eabi/6.3.1/thumb/v7e-m/fpv4-sp/hard\libgcc.a(_udivmoddi4.o)
 .ARM.extab     0x00000000        0x0 c:/mesh/arm_gcc/bin/../lib/gcc/arm-none-eabi/6.3.1/thumb/v7e-m/fpv4-sp/hard\libgcc.a(_udivmoddi4.o)
 .data          0x00000000        0x0 c:/mesh/arm_gcc/bin/../lib/gcc/arm-none-eabi/6.3.1/thumb/v7e-m/fpv4-sp/hard\libgcc.a(_dvmd_tls.o)
 .bss           0x00000000        0x0 c:/mesh/arm_gcc/bin/../lib/gcc/arm-none-eabi/6.3.1/thumb/v7e-m/fpv4-sp/hard\libgcc.a(_dvmd_tls.o)
 .text          0x00000000        0x0 c:/mesh/arm_gcc/bin/../lib/gcc/arm-none-eabi/6.3.1/../../../../arm-none-eabi/lib/thumb/v7e-m/fpv4-sp/hard\libg_nano.a(lib_a-exit.o)
 .data          0x00000000        0x0 c:/mesh/arm_gcc/bin/../lib/gcc/arm-none-eabi/6.3.1/../../../../arm-none-eabi/lib/thumb/v7e-m/fpv4-sp/hard\libg_nano.a(lib_a-exit.o)
 .bss           0x00000000        0x0 c:/mesh/arm_gcc/bin/../lib/gcc/arm-none-eabi/6.3.1/../../../../arm-none-eabi/lib/thumb/v7e-m/fpv4-sp/hard\libg_nano.a(lib_a-exit.o)
 .text          0x00000000        0x0 c:/mesh/arm_gcc/bin/../lib/gcc/arm-none-eabi/6.3.1/../../../../arm-none-eabi/lib/thumb/v7e-m/fpv4-sp/hard\libg_nano.a(lib_a-impure.o)
 .data          0x00000000        0x0 c:/mesh/arm_gcc/bin/../lib/gcc/arm-none-eabi/6.3.1/../../../../arm-none-eabi/lib/thumb/v7e-m/fpv4-sp/hard\libg_nano.a(lib_a-impure.o)
 .bss           0x00000000        0x0 c:/mesh/arm_gcc/bin/../lib/gcc/arm-none-eabi/6.3.1/../../../../arm-none-eabi/lib/thumb/v7e-m/fpv4-sp/hard\libg_nano.a(lib_a-impure.o)
 .text          0x00000000        0x0 c:/mesh/arm_gcc/bin/../lib/gcc/arm-none-eabi/6.3.1/../../../../arm-none-eabi/lib/thumb/v7e-m/fpv4-sp/hard\libg_nano.a(lib_a-init.o)
 .data          0x00000000        0x0 c:/mesh/arm_gcc/bin/../lib/gcc/arm-none-eabi/6.3.1/../../../../arm-none-eabi/lib/thumb/v7e-m/fpv4-sp/hard\libg_nano.a(lib_a-init.o)
 .bss           0x00000000        0x0 c:/mesh/arm_gcc/bin/../lib/gcc/arm-none-eabi/6.3.1/../../../../arm-none-eabi/lib/thumb/v7e-m/fpv4-sp/hard\libg_nano.a(lib_a-init.o)
 .text          0x00000000        0x0 c:/mesh/arm_gcc/bin/../lib/gcc/arm-none-eabi/6.3.1/../../../../arm-none-eabi/lib/thumb/v7e-m/fpv4-sp/hard\libg_nano.a(lib_a-malloc.o)
 .data          0x00000000        0x0 c:/mesh/arm_gcc/bin/../lib/gcc/arm-none-eabi/6.3.1/../../../../arm-none-eabi/lib/thumb/v7e-m/fpv4-sp/hard\libg_nano.a(lib_a-malloc.o)
 .bss           0x00000000        0x0 c:/mesh/arm_gcc/bin/../lib/gcc/arm-none-eabi/6.3.1/../../../../arm-none-eabi/lib/thumb/v7e-m/fpv4-sp/hard\libg_nano.a(lib_a-malloc.o)
 .text          0x00000000        0x0 c:/mesh/arm_gcc/bin/../lib/gcc/arm-none-eabi/6.3.1/../../../../arm-none-eabi/lib/thumb/v7e-m/fpv4-sp/hard\libg_nano.a(lib_a-memcmp.o)
 .data          0x00000000        0x0 c:/mesh/arm_gcc/bin/../lib/gcc/arm-none-eabi/6.3.1/../../../../arm-none-eabi/lib/thumb/v7e-m/fpv4-sp/hard\libg_nano.a(lib_a-memcmp.o)
 .bss           0x00000000        0x0 c:/mesh/arm_gcc/bin/../lib/gcc/arm-none-eabi/6.3.1/../../../../arm-none-eabi/lib/thumb/v7e-m/fpv4-sp/hard\libg_nano.a(lib_a-memcmp.o)
 .text          0x00000000        0x0 c:/mesh/arm_gcc/bin/../lib/gcc/arm-none-eabi/6.3.1/../../../../arm-none-eabi/lib/thumb/v7e-m/fpv4-sp/hard\libg_nano.a(lib_a-memcpy-stub.o)
 .data          0x00000000        0x0 c:/mesh/arm_gcc/bin/../lib/gcc/arm-none-eabi/6.3.1/../../../../arm-none-eabi/lib/thumb/v7e-m/fpv4-sp/hard\libg_nano.a(lib_a-memcpy-stub.o)
 .bss           0x00000000        0x0 c:/mesh/arm_gcc/bin/../lib/gcc/arm-none-eabi/6.3.1/../../../../arm-none-eabi/lib/thumb/v7e-m/fpv4-sp/hard\libg_nano.a(lib_a-memcpy-stub.o)
 .text          0x00000000        0x0 c:/mesh/arm_gcc/bin/../lib/gcc/arm-none-eabi/6.3.1/../../../../arm-none-eabi/lib/thumb/v7e-m/fpv4-sp/hard\libg_nano.a(lib_a-memset.o)
 .data          0x00000000        0x0 c:/mesh/arm_gcc/bin/../lib/gcc/arm-none-eabi/6.3.1/../../../../arm-none-eabi/lib/thumb/v7e-m/fpv4-sp/hard\libg_nano.a(lib_a-memset.o)
 .bss           0x00000000        0x0 c:/mesh/arm_gcc/bin/../lib/gcc/arm-none-eabi/6.3.1/../../../../arm-none-eabi/lib/thumb/v7e-m/fpv4-sp/hard\libg_nano.a(lib_a-memset.o)
 .text          0x00000000        0x0 c:/mesh/arm_gcc/bin/../lib/gcc/arm-none-eabi/6.3.1/../../../../arm-none-eabi/lib/thumb/v7e-m/fpv4-sp/hard\libg_nano.a(lib_a-nano-freer.o)
 .data          0x00000000        0x0 c:/mesh/arm_gcc/bin/../lib/gcc/arm-none-eabi/6.3.1/../../../../arm-none-eabi/lib/thumb/v7e-m/fpv4-sp/hard\libg_nano.a(lib_a-nano-freer.o)
 .bss           0x00000000        0x0 c:/mesh/arm_gcc/bin/../lib/gcc/arm-none-eabi/6.3.1/../../../../arm-none-eabi/lib/thumb/v7e-m/fpv4-sp/hard\libg_nano.a(lib_a-nano-freer.o)
 .text          0x00000000        0x0 c:/mesh/arm_gcc/bin/../lib/gcc/arm-none-eabi/6.3.1/../../../../arm-none-eabi/lib/thumb/v7e-m/fpv4-sp/hard\libg_nano.a(lib_a-nano-mallocr.o)
 .data          0x00000000        0x0 c:/mesh/arm_gcc/bin/../lib/gcc/arm-none-eabi/6.3.1/../../../../arm-none-eabi/lib/thumb/v7e-m/fpv4-sp/hard\libg_nano.a(lib_a-nano-mallocr.o)
 .bss           0x00000000        0x0 c:/mesh/arm_gcc/bin/../lib/gcc/arm-none-eabi/6.3.1/../../../../arm-none-eabi/lib/thumb/v7e-m/fpv4-sp/hard\libg_nano.a(lib_a-nano-mallocr.o)
 .text          0x00000000        0x0 c:/mesh/arm_gcc/bin/../lib/gcc/arm-none-eabi/6.3.1/../../../../arm-none-eabi/lib/thumb/v7e-m/fpv4-sp/hard\libg_nano.a(lib_a-sbrkr.o)
 .data          0x00000000        0x0 c:/mesh/arm_gcc/bin/../lib/gcc/arm-none-eabi/6.3.1/../../../../arm-none-eabi/lib/thumb/v7e-m/fpv4-sp/hard\libg_nano.a(lib_a-sbrkr.o)
 .bss           0x00000000        0x0 c:/mesh/arm_gcc/bin/../lib/gcc/arm-none-eabi/6.3.1/../../../../arm-none-eabi/lib/thumb/v7e-m/fpv4-sp/hard\libg_nano.a(lib_a-sbrkr.o)
 .text          0x00000000        0x0 c:/mesh/arm_gcc/bin/../lib/gcc/arm-none-eabi/6.3.1/../../../../arm-none-eabi/lib/thumb/v7e-m/fpv4-sp/hard\libg_nano.a(lib_a-strcpy.o)
 .data          0x00000000        0x0 c:/mesh/arm_gcc/bin/../lib/gcc/arm-none-eabi/6.3.1/../../../../arm-none-eabi/lib/thumb/v7e-m/fpv4-sp/hard\libg_nano.a(lib_a-strcpy.o)
 .bss           0x00000000        0x0 c:/mesh/arm_gcc/bin/../lib/gcc/arm-none-eabi/6.3.1/../../../../arm-none-eabi/lib/thumb/v7e-m/fpv4-sp/hard\libg_nano.a(lib_a-strcpy.o)
 .data          0x00000000        0x0 c:/mesh/arm_gcc/bin/../lib/gcc/arm-none-eabi/6.3.1/../../../../arm-none-eabi/lib/thumb/v7e-m/fpv4-sp/hard\libg_nano.a(lib_a-strlen.o)
 .bss           0x00000000        0x0 c:/mesh/arm_gcc/bin/../lib/gcc/arm-none-eabi/6.3.1/../../../../arm-none-eabi/lib/thumb/v7e-m/fpv4-sp/hard\libg_nano.a(lib_a-strlen.o)
 .text          0x00000000        0x0 c:/mesh/arm_gcc/bin/../lib/gcc/arm-none-eabi/6.3.1/../../../../arm-none-eabi/lib/thumb/v7e-m/fpv4-sp/hard\libg_nano.a(lib_a-strrchr.o)
 .data          0x00000000        0x0 c:/mesh/arm_gcc/bin/../lib/gcc/arm-none-eabi/6.3.1/../../../../arm-none-eabi/lib/thumb/v7e-m/fpv4-sp/hard\libg_nano.a(lib_a-strrchr.o)
 .bss           0x00000000        0x0 c:/mesh/arm_gcc/bin/../lib/gcc/arm-none-eabi/6.3.1/../../../../arm-none-eabi/lib/thumb/v7e-m/fpv4-sp/hard\libg_nano.a(lib_a-strrchr.o)
 .text          0x00000000        0x0 c:/mesh/arm_gcc/bin/../lib/gcc/arm-none-eabi/6.3.1/../../../../arm-none-eabi/lib/thumb/v7e-m/fpv4-sp/hard\libg_nano.a(lib_a-mlock.o)
 .data          0x00000000        0x0 c:/mesh/arm_gcc/bin/../lib/gcc/arm-none-eabi/6.3.1/../../../../arm-none-eabi/lib/thumb/v7e-m/fpv4-sp/hard\libg_nano.a(lib_a-mlock.o)
 .bss           0x00000000        0x0 c:/mesh/arm_gcc/bin/../lib/gcc/arm-none-eabi/6.3.1/../../../../arm-none-eabi/lib/thumb/v7e-m/fpv4-sp/hard\libg_nano.a(lib_a-mlock.o)
 .text          0x00000000        0x0 c:/mesh/arm_gcc/bin/../lib/gcc/arm-none-eabi/6.3.1/../../../../arm-none-eabi/lib/thumb/v7e-m/fpv4-sp/hard\libg_nano.a(lib_a-reent.o)
 .data          0x00000000        0x0 c:/mesh/arm_gcc/bin/../lib/gcc/arm-none-eabi/6.3.1/../../../../arm-none-eabi/lib/thumb/v7e-m/fpv4-sp/hard\libg_nano.a(lib_a-reent.o)
 .bss           0x00000000        0x0 c:/mesh/arm_gcc/bin/../lib/gcc/arm-none-eabi/6.3.1/../../../../arm-none-eabi/lib/thumb/v7e-m/fpv4-sp/hard\libg_nano.a(lib_a-reent.o)
 .text.cleanup_glue
                0x00000000       0x1a c:/mesh/arm_gcc/bin/../lib/gcc/arm-none-eabi/6.3.1/../../../../arm-none-eabi/lib/thumb/v7e-m/fpv4-sp/hard\libg_nano.a(lib_a-reent.o)
 .text._reclaim_reent
                0x00000000       0xb8 c:/mesh/arm_gcc/bin/../lib/gcc/arm-none-eabi/6.3.1/../../../../arm-none-eabi/lib/thumb/v7e-m/fpv4-sp/hard\libg_nano.a(lib_a-reent.o)
 .text          0x00000000        0x0 c:/mesh/arm_gcc/bin/../lib/gcc/arm-none-eabi/6.3.1/../../../../arm-none-eabi/lib/thumb/v7e-m/fpv4-sp/hard\libg_nano.a(lib_a-strchr.o)
 .data          0x00000000        0x0 c:/mesh/arm_gcc/bin/../lib/gcc/arm-none-eabi/6.3.1/../../../../arm-none-eabi/lib/thumb/v7e-m/fpv4-sp/hard\libg_nano.a(lib_a-strchr.o)
 .bss           0x00000000        0x0 c:/mesh/arm_gcc/bin/../lib/gcc/arm-none-eabi/6.3.1/../../../../arm-none-eabi/lib/thumb/v7e-m/fpv4-sp/hard\libg_nano.a(lib_a-strchr.o)
 .text          0x00000000        0x0 c:/mesh/arm_gcc/bin/../lib/gcc/arm-none-eabi/6.3.1/thumb/v7e-m/fpv4-sp/hard/crtend.o
 .data          0x00000000        0x0 c:/mesh/arm_gcc/bin/../lib/gcc/arm-none-eabi/6.3.1/thumb/v7e-m/fpv4-sp/hard/crtend.o
 .bss           0x00000000        0x0 c:/mesh/arm_gcc/bin/../lib/gcc/arm-none-eabi/6.3.1/thumb/v7e-m/fpv4-sp/hard/crtend.o
 .text          0x00000000        0x0 c:/mesh/arm_gcc/bin/../lib/gcc/arm-none-eabi/6.3.1/thumb/v7e-m/fpv4-sp/hard/crtn.o
 .data          0x00000000        0x0 c:/mesh/arm_gcc/bin/../lib/gcc/arm-none-eabi/6.3.1/thumb/v7e-m/fpv4-sp/hard/crtn.o
 .bss           0x00000000        0x0 c:/mesh/arm_gcc/bin/../lib/gcc/arm-none-eabi/6.3.1/thumb/v7e-m/fpv4-sp/hard/crtn.o
 .text          0x00000000        0x0 c:/mesh/arm_gcc/bin/../lib/gcc/arm-none-eabi/6.3.1/../../../../arm-none-eabi/lib/thumb/v7e-m/fpv4-sp/hard\libnosys.a(sbrk.o)
 .data          0x00000000        0x0 c:/mesh/arm_gcc/bin/../lib/gcc/arm-none-eabi/6.3.1/../../../../arm-none-eabi/lib/thumb/v7e-m/fpv4-sp/hard\libnosys.a(sbrk.o)
 .bss           0x00000000        0x0 c:/mesh/arm_gcc/bin/../lib/gcc/arm-none-eabi/6.3.1/../../../../arm-none-eabi/lib/thumb/v7e-m/fpv4-sp/hard\libnosys.a(sbrk.o)
 .text          0x00000000        0x0 c:/mesh/arm_gcc/bin/../lib/gcc/arm-none-eabi/6.3.1/../../../../arm-none-eabi/lib/thumb/v7e-m/fpv4-sp/hard\libnosys.a(_exit.o)
 .data          0x00000000        0x0 c:/mesh/arm_gcc/bin/../lib/gcc/arm-none-eabi/6.3.1/../../../../arm-none-eabi/lib/thumb/v7e-m/fpv4-sp/hard\libnosys.a(_exit.o)
 .bss           0x00000000        0x0 c:/mesh/arm_gcc/bin/../lib/gcc/arm-none-eabi/6.3.1/../../../../arm-none-eabi/lib/thumb/v7e-m/fpv4-sp/hard\libnosys.a(_exit.o)

Memory Configuration

Name             Origin             Length             Attributes
FLASH            0x00026000         0x000d1000         xr
RAM              0x200032c8         0x0003ca38         xrw
*default*        0x00000000         0xffffffff

Linker script and memory map


.text           0x00026000    0x15bfc
 *(.isr_vector)
 .isr_vector    0x00026000      0x200 examples/light_switch/proxy_server/CMakeFiles/light_switch_proxy_server_nrf52840_xxAA_s140_6.0.0.dir/C_/ver/mod/nRF5_SDK_15.0.0_a53641a/modules/nrfx/mdk/gcc_startup_nrf52840.S.obj
                0x00026000                __isr_vector
 *(.text*)
 .text          0x00026200       0x6c c:/mesh/arm_gcc/bin/../lib/gcc/arm-none-eabi/6.3.1/thumb/v7e-m/fpv4-sp/hard/crtbegin.o
 .text          0x0002626c       0x74 c:/mesh/arm_gcc/bin/../lib/gcc/arm-none-eabi/6.3.1/../../../../arm-none-eabi/lib/thumb/v7e-m/fpv4-sp/hard/crt0.o
                0x0002626c                _start
                0x0002626c                _mainCRTStartup
 .text.sd_app_evt_wait
                0x000262e0        0x4 examples/light_switch/proxy_server/CMakeFiles/light_switch_proxy_server_nrf52840_xxAA_s140_6.0.0.dir/src/main.c.obj
 .text.sd_ble_gap_ppcp_set
                0x000262e4        0x4 examples/light_switch/proxy_server/CMakeFiles/light_switch_proxy_server_nrf52840_xxAA_s140_6.0.0.dir/src/main.c.obj
 .text.sd_ble_gap_device_name_set
                0x000262e8        0x4 examples/light_switch/proxy_server/CMakeFiles/light_switch_proxy_server_nrf52840_xxAA_s140_6.0.0.dir/src/main.c.obj
 .text.on_sd_evt
                0x000262ec        0x4 examples/light_switch/proxy_server/CMakeFiles/light_switch_proxy_server_nrf52840_xxAA_s140_6.0.0.dir/src/main.c.obj
 .text.provisioning_complete_cb
                0x000262f0       0xd0 examples/light_switch/proxy_server/CMakeFiles/light_switch_proxy_server_nrf52840_xxAA_s140_6.0.0.dir/src/main.c.obj
 .text.on_off_server_get_cb
                0x000263c0        0x6 examples/light_switch/proxy_server/CMakeFiles/light_switch_proxy_server_nrf52840_xxAA_s140_6.0.0.dir/src/main.c.obj
 *fill*         0x000263c6        0x2 
 .text.on_off_server_set_cb
                0x000263c8       0x70 examples/light_switch/proxy_server/CMakeFiles/light_switch_proxy_server_nrf52840_xxAA_s140_6.0.0.dir/src/main.c.obj
 .text.node_reset
                0x00026438       0x74 examples/light_switch/proxy_server/CMakeFiles/light_switch_proxy_server_nrf52840_xxAA_s140_6.0.0.dir/src/main.c.obj
 .text.button_event_handler
                0x000264ac       0xf0 examples/light_switch/proxy_server/CMakeFiles/light_switch_proxy_server_nrf52840_xxAA_s140_6.0.0.dir/src/main.c.obj
 .text.app_rtt_input_handler
                0x0002659c        0xc examples/light_switch/proxy_server/CMakeFiles/light_switch_proxy_server_nrf52840_xxAA_s140_6.0.0.dir/src/main.c.obj
 .text.config_server_evt_cb
                0x000265a8        0xc examples/light_switch/proxy_server/CMakeFiles/light_switch_proxy_server_nrf52840_xxAA_s140_6.0.0.dir/src/main.c.obj
 .text.models_init_cb
                0x000265b4       0xb4 examples/light_switch/proxy_server/CMakeFiles/light_switch_proxy_server_nrf52840_xxAA_s140_6.0.0.dir/src/main.c.obj
 .text.startup.main
                0x00026668      0x2bc examples/light_switch/proxy_server/CMakeFiles/light_switch_proxy_server_nrf52840_xxAA_s140_6.0.0.dir/src/main.c.obj
                0x00026668                main
 .text.mesh_evt_handler
                0x00026924        0xe examples/light_switch/proxy_server/CMakeFiles/light_switch_proxy_server_nrf52840_xxAA_s140_6.0.0.dir/__/__/__/mesh/stack/src/mesh_stack.c.obj
 .text.mesh_stack_provisioning_data_store
                0x00026932       0x6c examples/light_switch/proxy_server/CMakeFiles/light_switch_proxy_server_nrf52840_xxAA_s140_6.0.0.dir/__/__/__/mesh/stack/src/mesh_stack.c.obj
                0x00026932                mesh_stack_provisioning_data_store
 .text.mesh_stack_config_clear
                0x0002699e       0x12 examples/light_switch/proxy_server/CMakeFiles/light_switch_proxy_server_nrf52840_xxAA_s140_6.0.0.dir/__/__/__/mesh/stack/src/mesh_stack.c.obj
                0x0002699e                mesh_stack_config_clear
 .text.mesh_stack_is_device_provisioned
                0x000269b0       0x18 examples/light_switch/proxy_server/CMakeFiles/light_switch_proxy_server_nrf52840_xxAA_s140_6.0.0.dir/__/__/__/mesh/stack/src/mesh_stack.c.obj
                0x000269b0                mesh_stack_is_device_provisioned
 .text.mesh_stack_init
                0x000269c8       0x80 examples/light_switch/proxy_server/CMakeFiles/light_switch_proxy_server_nrf52840_xxAA_s140_6.0.0.dir/__/__/__/mesh/stack/src/mesh_stack.c.obj
                0x000269c8                mesh_stack_init
 .text.mesh_stack_start
                0x00026a48       0x14 examples/light_switch/proxy_server/CMakeFiles/light_switch_proxy_server_nrf52840_xxAA_s140_6.0.0.dir/__/__/__/mesh/stack/src/mesh_stack.c.obj
                0x00026a48                mesh_stack_start
 .text.mesh_stack_device_reset
                0x00026a5c       0x20 examples/light_switch/proxy_server/CMakeFiles/light_switch_proxy_server_nrf52840_xxAA_s140_6.0.0.dir/__/__/__/mesh/stack/src/mesh_stack.c.obj
                0x00026a5c                mesh_stack_device_reset
 .text.provisionee_start
                0x00026a7c       0x18 examples/light_switch/proxy_server/CMakeFiles/light_switch_proxy_server_nrf52840_xxAA_s140_6.0.0.dir/__/__/common/src/mesh_provisionee.c.obj
 .text.sd_state_evt_handler
                0x00026a94       0x94 examples/light_switch/proxy_server/CMakeFiles/light_switch_proxy_server_nrf52840_xxAA_s140_6.0.0.dir/__/__/common/src/mesh_provisionee.c.obj
 .text.prov_evt_handler
                0x00026b28       0x78 examples/light_switch/proxy_server/CMakeFiles/light_switch_proxy_server_nrf52840_xxAA_s140_6.0.0.dir/__/__/common/src/mesh_provisionee.c.obj
 .text.mesh_provisionee_prov_start
                0x00026ba0       0x94 examples/light_switch/proxy_server/CMakeFiles/light_switch_proxy_server_nrf52840_xxAA_s140_6.0.0.dir/__/__/common/src/mesh_provisionee.c.obj
                0x00026ba0                mesh_provisionee_prov_start
 .text.TIMER2_IRQHandler
                0x00026c34       0x30 examples/light_switch/proxy_server/CMakeFiles/light_switch_proxy_server_nrf52840_xxAA_s140_6.0.0.dir/__/__/common/src/rtt_input.c.obj
                0x00026c34                TIMER2_IRQHandler
 .text.rtt_input_enable
                0x00026c64       0x5c examples/light_switch/proxy_server/CMakeFiles/light_switch_proxy_server_nrf52840_xxAA_s140_6.0.0.dir/__/__/common/src/rtt_input.c.obj
                0x00026c64                rtt_input_enable
 .text.hal_led_pin_get
                0x00026cc0       0x18 examples/light_switch/proxy_server/CMakeFiles/light_switch_proxy_server_nrf52840_xxAA_s140_6.0.0.dir/__/__/common/src/simple_hal.c.obj
                0x00026cc0                hal_led_pin_get
 .text.hal_led_pin_set
                0x00026cd8       0x16 examples/light_switch/proxy_server/CMakeFiles/light_switch_proxy_server_nrf52840_xxAA_s140_6.0.0.dir/__/__/common/src/simple_hal.c.obj
                0x00026cd8                hal_led_pin_set
 .text.hal_led_mask_set
                0x00026cee       0x12 examples/light_switch/proxy_server/CMakeFiles/light_switch_proxy_server_nrf52840_xxAA_s140_6.0.0.dir/__/__/common/src/simple_hal.c.obj
                0x00026cee                hal_led_mask_set
 .text.hal_led_blink_ms
                0x00026d00       0x44 examples/light_switch/proxy_server/CMakeFiles/light_switch_proxy_server_nrf52840_xxAA_s140_6.0.0.dir/__/__/common/src/simple_hal.c.obj
                0x00026d00                hal_led_blink_ms
 .text.hal_leds_init
                0x00026d44       0x38 examples/light_switch/proxy_server/CMakeFiles/light_switch_proxy_server_nrf52840_xxAA_s140_6.0.0.dir/__/__/common/src/simple_hal.c.obj
                0x00026d44                hal_leds_init
 .text.hal_buttons_init
                0x00026d7c       0x50 examples/light_switch/proxy_server/CMakeFiles/light_switch_proxy_server_nrf52840_xxAA_s140_6.0.0.dir/__/__/common/src/simple_hal.c.obj
                0x00026d7c                hal_buttons_init
 .text.GPIOTE_IRQHandler
                0x00026dcc       0x60 examples/light_switch/proxy_server/CMakeFiles/light_switch_proxy_server_nrf52840_xxAA_s140_6.0.0.dir/__/__/common/src/simple_hal.c.obj
                0x00026dcc                GPIOTE_IRQHandler
 .text.mesh_app_uuid_gen
                0x00026e2c       0x30 examples/light_switch/proxy_server/CMakeFiles/light_switch_proxy_server_nrf52840_xxAA_s140_6.0.0.dir/__/__/common/src/mesh_app_utils.c.obj
                0x00026e2c                mesh_app_uuid_gen
 .text.sd_ble_gap_adv_set_configure
                0x00026e5c        0x4 examples/light_switch/proxy_server/CMakeFiles/light_switch_proxy_server_nrf52840_xxAA_s140_6.0.0.dir/__/__/common/src/mesh_adv.c.obj
 .text.sd_ble_gap_adv_start
                0x00026e60        0x4 examples/light_switch/proxy_server/CMakeFiles/light_switch_proxy_server_nrf52840_xxAA_s140_6.0.0.dir/__/__/common/src/mesh_adv.c.obj
 .text.sd_ble_gap_adv_stop
                0x00026e64        0x4 examples/light_switch/proxy_server/CMakeFiles/light_switch_proxy_server_nrf52840_xxAA_s140_6.0.0.dir/__/__/common/src/mesh_adv.c.obj
 .text.mesh_adv_data_set
                0x00026e68       0xdc examples/light_switch/proxy_server/CMakeFiles/light_switch_proxy_server_nrf52840_xxAA_s140_6.0.0.dir/__/__/common/src/mesh_adv.c.obj
                0x00026e68                mesh_adv_data_set
 .text.mesh_adv_params_set
                0x00026f44       0x14 examples/light_switch/proxy_server/CMakeFiles/light_switch_proxy_server_nrf52840_xxAA_s140_6.0.0.dir/__/__/common/src/mesh_adv.c.obj
                0x00026f44                mesh_adv_params_set
 .text.mesh_adv_start
                0x00026f58       0x1c examples/light_switch/proxy_server/CMakeFiles/light_switch_proxy_server_nrf52840_xxAA_s140_6.0.0.dir/__/__/common/src/mesh_adv.c.obj
                0x00026f58                mesh_adv_start
 .text.mesh_adv_stop
                0x00026f74       0x1c examples/light_switch/proxy_server/CMakeFiles/light_switch_proxy_server_nrf52840_xxAA_s140_6.0.0.dir/__/__/common/src/mesh_adv.c.obj
                0x00026f74                mesh_adv_stop
 .text.pb_gatt_fsm_action
                0x00026f90       0x10 examples/light_switch/proxy_server/CMakeFiles/light_switch_proxy_server_nrf52840_xxAA_s140_6.0.0.dir/__/__/__/mesh/prov/src/nrf_mesh_prov_bearer_gatt.c.obj
 .text.pb_gatt_fsm_guard
                0x00026fa0        0xa examples/light_switch/proxy_server/CMakeFiles/light_switch_proxy_server_nrf52840_xxAA_s140_6.0.0.dir/__/__/__/mesh/prov/src/nrf_mesh_prov_bearer_gatt.c.obj
 .text.a_link_open_notify
                0x00026faa        0xa examples/light_switch/proxy_server/CMakeFiles/light_switch_proxy_server_nrf52840_xxAA_s140_6.0.0.dir/__/__/__/mesh/prov/src/nrf_mesh_prov_bearer_gatt.c.obj
 .text.a_pdu_ack
                0x00026fb4        0xa examples/light_switch/proxy_server/CMakeFiles/light_switch_proxy_server_nrf52840_xxAA_s140_6.0.0.dir/__/__/__/mesh/prov/src/nrf_mesh_prov_bearer_gatt.c.obj
 .text.link_evt_process
                0x00026fbe        0xa examples/light_switch/proxy_server/CMakeFiles/light_switch_proxy_server_nrf52840_xxAA_s140_6.0.0.dir/__/__/__/mesh/prov/src/nrf_mesh_prov_bearer_gatt.c.obj
 .text.link_timer_cb
                0x00026fc8       0x1e examples/light_switch/proxy_server/CMakeFiles/light_switch_proxy_server_nrf52840_xxAA_s140_6.0.0.dir/__/__/__/mesh/prov/src/nrf_mesh_prov_bearer_gatt.c.obj
 .text.tx_cb    0x00026fe6       0x2c examples/light_switch/proxy_server/CMakeFiles/light_switch_proxy_server_nrf52840_xxAA_s140_6.0.0.dir/__/__/__/mesh/prov/src/nrf_mesh_prov_bearer_gatt.c.obj
 .text.mesh_gatt_event_handler
                0x00027012       0x86 examples/light_switch/proxy_server/CMakeFiles/light_switch_proxy_server_nrf52840_xxAA_s140_6.0.0.dir/__/__/__/mesh/prov/src/nrf_mesh_prov_bearer_gatt.c.obj
 .text.a_listen_stop
                0x00027098        0x4 examples/light_switch/proxy_server/CMakeFiles/light_switch_proxy_server_nrf52840_xxAA_s140_6.0.0.dir/__/__/__/mesh/prov/src/nrf_mesh_prov_bearer_gatt.c.obj
 .text.a_listen_start
                0x0002709c       0x3c examples/light_switch/proxy_server/CMakeFiles/light_switch_proxy_server_nrf52840_xxAA_s140_6.0.0.dir/__/__/__/mesh/prov/src/nrf_mesh_prov_bearer_gatt.c.obj
 .text.link_timer_reset
                0x000270d8       0x18 examples/light_switch/proxy_server/CMakeFiles/light_switch_proxy_server_nrf52840_xxAA_s140_6.0.0.dir/__/__/__/mesh/prov/src/nrf_mesh_prov_bearer_gatt.c.obj
 .text.a_link_timer_start
                0x000270f0        0x6 examples/light_switch/proxy_server/CMakeFiles/light_switch_proxy_server_nrf52840_xxAA_s140_6.0.0.dir/__/__/__/mesh/prov/src/nrf_mesh_prov_bearer_gatt.c.obj
 .text.a_pdu_rx
                0x000270f6       0x1e examples/light_switch/proxy_server/CMakeFiles/light_switch_proxy_server_nrf52840_xxAA_s140_6.0.0.dir/__/__/__/mesh/prov/src/nrf_mesh_prov_bearer_gatt.c.obj
 .text.a_pdu_tx
                0x00027114       0x42 examples/light_switch/proxy_server/CMakeFiles/light_switch_proxy_server_nrf52840_xxAA_s140_6.0.0.dir/__/__/__/mesh/prov/src/nrf_mesh_prov_bearer_gatt.c.obj
 .text.a_link_close_notify
                0x00027156       0x1c examples/light_switch/proxy_server/CMakeFiles/light_switch_proxy_server_nrf52840_xxAA_s140_6.0.0.dir/__/__/__/mesh/prov/src/nrf_mesh_prov_bearer_gatt.c.obj
 .text.a_link_close
                0x00027172       0x18 examples/light_switch/proxy_server/CMakeFiles/light_switch_proxy_server_nrf52840_xxAA_s140_6.0.0.dir/__/__/__/mesh/prov/src/nrf_mesh_prov_bearer_gatt.c.obj
 *fill*         0x0002718a        0x2 
 .text.link_evt_send
                0x0002718c       0x28 examples/light_switch/proxy_server/CMakeFiles/light_switch_proxy_server_nrf52840_xxAA_s140_6.0.0.dir/__/__/__/mesh/prov/src/nrf_mesh_prov_bearer_gatt.c.obj
 .text.link_close_cb
                0x000271b4       0x24 examples/light_switch/proxy_server/CMakeFiles/light_switch_proxy_server_nrf52840_xxAA_s140_6.0.0.dir/__/__/__/mesh/prov/src/nrf_mesh_prov_bearer_gatt.c.obj
 .text.listen_stop_cb
                0x000271d8       0x24 examples/light_switch/proxy_server/CMakeFiles/light_switch_proxy_server_nrf52840_xxAA_s140_6.0.0.dir/__/__/__/mesh/prov/src/nrf_mesh_prov_bearer_gatt.c.obj
 .text.listen_start_cb
                0x000271fc       0x34 examples/light_switch/proxy_server/CMakeFiles/light_switch_proxy_server_nrf52840_xxAA_s140_6.0.0.dir/__/__/__/mesh/prov/src/nrf_mesh_prov_bearer_gatt.c.obj
 .text.nrf_mesh_prov_bearer_gatt_init
                0x00027230       0x6c examples/light_switch/proxy_server/CMakeFiles/light_switch_proxy_server_nrf52840_xxAA_s140_6.0.0.dir/__/__/__/mesh/prov/src/nrf_mesh_prov_bearer_gatt.c.obj
                0x00027230                nrf_mesh_prov_bearer_gatt_init
 .text.nrf_mesh_prov_bearer_gatt_interface_get
                0x0002729c       0x14 examples/light_switch/proxy_server/CMakeFiles/light_switch_proxy_server_nrf52840_xxAA_s140_6.0.0.dir/__/__/__/mesh/prov/src/nrf_mesh_prov_bearer_gatt.c.obj
                0x0002729c                nrf_mesh_prov_bearer_gatt_interface_get
 .text.app_util_critical_region_enter
                0x000272b0       0x48 examples/light_switch/proxy_server/CMakeFiles/light_switch_proxy_server_nrf52840_xxAA_s140_6.0.0.dir/C_/ver/mod/nRF5_SDK_15.0.0_a53641a/components/libraries/util/app_util_platform.c.obj
                0x000272b0                app_util_critical_region_enter
 .text.app_util_critical_region_exit
                0x000272f8       0x2c examples/light_switch/proxy_server/CMakeFiles/light_switch_proxy_server_nrf52840_xxAA_s140_6.0.0.dir/C_/ver/mod/nRF5_SDK_15.0.0_a53641a/components/libraries/util/app_util_platform.c.obj
                0x000272f8                app_util_critical_region_exit
 .text.sd_ble_gap_addr_get
                0x00027324        0x4 examples/light_switch/proxy_server/CMakeFiles/light_switch_proxy_server_nrf52840_xxAA_s140_6.0.0.dir/C_/ver/mod/nRF5_SDK_15.0.0_a53641a/components/ble/common/ble_advdata.c.obj
 .text.sd_ble_gap_appearance_get
                0x00027328        0x4 examples/light_switch/proxy_server/CMakeFiles/light_switch_proxy_server_nrf52840_xxAA_s140_6.0.0.dir/C_/ver/mod/nRF5_SDK_15.0.0_a53641a/components/ble/common/ble_advdata.c.obj
 .text.sd_ble_gap_device_name_get
                0x0002732c        0x4 examples/light_switch/proxy_server/CMakeFiles/light_switch_proxy_server_nrf52840_xxAA_s140_6.0.0.dir/C_/ver/mod/nRF5_SDK_15.0.0_a53641a/components/ble/common/ble_advdata.c.obj
 .text.sd_ble_uuid_encode
                0x00027330        0x4 examples/light_switch/proxy_server/CMakeFiles/light_switch_proxy_server_nrf52840_xxAA_s140_6.0.0.dir/C_/ver/mod/nRF5_SDK_15.0.0_a53641a/components/ble/common/ble_advdata.c.obj
 .text.uuid_list_sized_encode
                0x00027334       0xa4 examples/light_switch/proxy_server/CMakeFiles/light_switch_proxy_server_nrf52840_xxAA_s140_6.0.0.dir/C_/ver/mod/nRF5_SDK_15.0.0_a53641a/components/ble/common/ble_advdata.c.obj
 .text.uuid_list_encode
                0x000273d8       0x34 examples/light_switch/proxy_server/CMakeFiles/light_switch_proxy_server_nrf52840_xxAA_s140_6.0.0.dir/C_/ver/mod/nRF5_SDK_15.0.0_a53641a/components/ble/common/ble_advdata.c.obj
 .text.ble_advdata_encode
                0x0002740c      0x378 examples/light_switch/proxy_server/CMakeFiles/light_switch_proxy_server_nrf52840_xxAA_s140_6.0.0.dir/C_/ver/mod/nRF5_SDK_15.0.0_a53641a/components/ble/common/ble_advdata.c.obj
                0x0002740c                ble_advdata_encode
 .text.nrf_section_iter_init
                0x00027784       0x12 examples/light_switch/proxy_server/CMakeFiles/light_switch_proxy_server_nrf52840_xxAA_s140_6.0.0.dir/C_/ver/mod/nRF5_SDK_15.0.0_a53641a/components/libraries/experimental_section_vars/nrf_section_iter.c.obj
                0x00027784                nrf_section_iter_init
 .text.nrf_section_iter_next
                0x00027796       0x18 examples/light_switch/proxy_server/CMakeFiles/light_switch_proxy_server_nrf52840_xxAA_s140_6.0.0.dir/C_/ver/mod/nRF5_SDK_15.0.0_a53641a/components/libraries/experimental_section_vars/nrf_section_iter.c.obj
                0x00027796                nrf_section_iter_next
 .text.sd_softdevice_enable
                0x000277ae        0x4 examples/light_switch/proxy_server/CMakeFiles/light_switch_proxy_server_nrf52840_xxAA_s140_6.0.0.dir/C_/ver/mod/nRF5_SDK_15.0.0_a53641a/components/softdevice/common/nrf_sdh.c.obj
 .text.sd_softdevice_disable
                0x000277b2        0x4 examples/light_switch/proxy_server/CMakeFiles/light_switch_proxy_server_nrf52840_xxAA_s140_6.0.0.dir/C_/ver/mod/nRF5_SDK_15.0.0_a53641a/components/softdevice/common/nrf_sdh.c.obj
 *fill*         0x000277b6        0x2 
 .text.sdh_request_observer_notify
                0x000277b8       0x30 examples/light_switch/proxy_server/CMakeFiles/light_switch_proxy_server_nrf52840_xxAA_s140_6.0.0.dir/C_/ver/mod/nRF5_SDK_15.0.0_a53641a/components/softdevice/common/nrf_sdh.c.obj
 .text.sdh_state_observer_notify
                0x000277e8       0x28 examples/light_switch/proxy_server/CMakeFiles/light_switch_proxy_server_nrf52840_xxAA_s140_6.0.0.dir/C_/ver/mod/nRF5_SDK_15.0.0_a53641a/components/softdevice/common/nrf_sdh.c.obj
 .text.softdevice_evt_irq_disable
                0x00027810       0x24 examples/light_switch/proxy_server/CMakeFiles/light_switch_proxy_server_nrf52840_xxAA_s140_6.0.0.dir/C_/ver/mod/nRF5_SDK_15.0.0_a53641a/components/softdevice/common/nrf_sdh.c.obj
 .text.softdevices_evt_irq_enable
                0x00027834       0x3c examples/light_switch/proxy_server/CMakeFiles/light_switch_proxy_server_nrf52840_xxAA_s140_6.0.0.dir/C_/ver/mod/nRF5_SDK_15.0.0_a53641a/components/softdevice/common/nrf_sdh.c.obj
 .text.nrf_sdh_enable_request
                0x00027870       0x78 examples/light_switch/proxy_server/CMakeFiles/light_switch_proxy_server_nrf52840_xxAA_s140_6.0.0.dir/C_/ver/mod/nRF5_SDK_15.0.0_a53641a/components/softdevice/common/nrf_sdh.c.obj
                0x00027870                nrf_sdh_enable_request
 .text.nrf_sdh_disable_request
                0x000278e8       0x60 examples/light_switch/proxy_server/CMakeFiles/light_switch_proxy_server_nrf52840_xxAA_s140_6.0.0.dir/C_/ver/mod/nRF5_SDK_15.0.0_a53641a/components/softdevice/common/nrf_sdh.c.obj
                0x000278e8                nrf_sdh_disable_request
 .text.nrf_sdh_evts_poll
                0x00027948       0x28 examples/light_switch/proxy_server/CMakeFiles/light_switch_proxy_server_nrf52840_xxAA_s140_6.0.0.dir/C_/ver/mod/nRF5_SDK_15.0.0_a53641a/components/softdevice/common/nrf_sdh.c.obj
                0x00027948                nrf_sdh_evts_poll
 .text.SWI2_EGU2_IRQHandler
                0x00027970        0x4 examples/light_switch/proxy_server/CMakeFiles/light_switch_proxy_server_nrf52840_xxAA_s140_6.0.0.dir/C_/ver/mod/nRF5_SDK_15.0.0_a53641a/components/softdevice/common/nrf_sdh.c.obj
                0x00027970                SWI2_EGU2_IRQHandler
 .text.sd_evt_get
                0x00027974        0x4 examples/light_switch/proxy_server/CMakeFiles/light_switch_proxy_server_nrf52840_xxAA_s140_6.0.0.dir/C_/ver/mod/nRF5_SDK_15.0.0_a53641a/components/softdevice/common/nrf_sdh_soc.c.obj
 .text.nrf_sdh_soc_evts_poll
                0x00027978       0x3c examples/light_switch/proxy_server/CMakeFiles/light_switch_proxy_server_nrf52840_xxAA_s140_6.0.0.dir/C_/ver/mod/nRF5_SDK_15.0.0_a53641a/components/softdevice/common/nrf_sdh_soc.c.obj
 .text.sd_ble_enable
                0x000279b4        0x4 examples/light_switch/proxy_server/CMakeFiles/light_switch_proxy_server_nrf52840_xxAA_s140_6.0.0.dir/C_/ver/mod/nRF5_SDK_15.0.0_a53641a/components/softdevice/common/nrf_sdh_ble.c.obj
 .text.sd_ble_cfg_set
                0x000279b8        0x4 examples/light_switch/proxy_server/CMakeFiles/light_switch_proxy_server_nrf52840_xxAA_s140_6.0.0.dir/C_/ver/mod/nRF5_SDK_15.0.0_a53641a/components/softdevice/common/nrf_sdh_ble.c.obj
 .text.sd_ble_evt_get
                0x000279bc        0x4 examples/light_switch/proxy_server/CMakeFiles/light_switch_proxy_server_nrf52840_xxAA_s140_6.0.0.dir/C_/ver/mod/nRF5_SDK_15.0.0_a53641a/components/softdevice/common/nrf_sdh_ble.c.obj
 .text.nrf_sdh_ble_evts_poll
                0x000279c0       0x50 examples/light_switch/proxy_server/CMakeFiles/light_switch_proxy_server_nrf52840_xxAA_s140_6.0.0.dir/C_/ver/mod/nRF5_SDK_15.0.0_a53641a/components/softdevice/common/nrf_sdh_ble.c.obj
 .text.nrf_sdh_ble_default_cfg_set
                0x00027a10       0xd4 examples/light_switch/proxy_server/CMakeFiles/light_switch_proxy_server_nrf52840_xxAA_s140_6.0.0.dir/C_/ver/mod/nRF5_SDK_15.0.0_a53641a/components/softdevice/common/nrf_sdh_ble.c.obj
                0x00027a10                nrf_sdh_ble_default_cfg_set
 .text.nrf_sdh_ble_enable
                0x00027ae4       0x14 examples/light_switch/proxy_server/CMakeFiles/light_switch_proxy_server_nrf52840_xxAA_s140_6.0.0.dir/C_/ver/mod/nRF5_SDK_15.0.0_a53641a/components/softdevice/common/nrf_sdh_ble.c.obj
                0x00027ae4                nrf_sdh_ble_enable
 .text._weak_handler
                0x00027af8        0x4 examples/light_switch/proxy_server/CMakeFiles/light_switch_proxy_server_nrf52840_xxAA_s140_6.0.0.dir/__/__/nrf_mesh_weak.c.obj
                0x00027af8                nrf_mesh_dfu_init
                0x00027af8                nrf_mesh_dfu_jump_to_bootloader
                0x00027af8                nrf_mesh_dfu_rx
                0x00027af8                prov_provisioner_provision
                0x00027af8                nrf_mesh_dfu_bank_info_get
                0x00027af8                prov_provisioner_oob_pubkey
                0x00027af8                nrf_mesh_dfu_request
                0x00027af8                nrf_mesh_dfu_bank_flash
                0x00027af8                _weak_handler
                0x00027af8                nrf_mesh_dfu_relay
                0x00027af8                nrf_mesh_dfu_abort
                0x00027af8                mesh_flash_op_execute
                0x00027af8                prov_provisionee_init
                0x00027af8                nrf_mesh_dfu_state_get
                0x00027af8                prov_provisioner_shared_secret
                0x00027af8                prov_provisioner_auth_data
                0x00027af8                prov_provisioner_oob_use
 .text.app_error_fault_handler
                0x00027afc      0x204 examples/light_switch/proxy_server/CMakeFiles/light_switch_proxy_server_nrf52840_xxAA_s140_6.0.0.dir/__/__/common/src/app_error_weak.c.obj
                0x00027afc                app_error_fault_handler
 .text.mesh_assertion_handler
                0x00027d00       0x24 examples/light_switch/proxy_server/CMakeFiles/light_switch_proxy_server_nrf52840_xxAA_s140_6.0.0.dir/__/__/common/src/assertion_handler_weak.c.obj
                0x00027d00                mesh_assertion_handler
 .text.nrf_mesh_configure_device_uuid_set
                0x00027d24       0x10 examples/light_switch/proxy_server/CMakeFiles/light_switch_proxy_server_nrf52840_xxAA_s140_6.0.0.dir/__/__/__/mesh/core/src/nrf_mesh_configure.c.obj
                0x00027d24                nrf_mesh_configure_device_uuid_set
 .text.nrf_mesh_configure_device_uuid_reset
                0x00027d34       0x28 examples/light_switch/proxy_server/CMakeFiles/light_switch_proxy_server_nrf52840_xxAA_s140_6.0.0.dir/__/__/__/mesh/core/src/nrf_mesh_configure.c.obj
                0x00027d34                nrf_mesh_configure_device_uuid_reset
 .text.nrf_mesh_configure_device_uuid_get
                0x00027d5c        0x8 examples/light_switch/proxy_server/CMakeFiles/light_switch_proxy_server_nrf52840_xxAA_s140_6.0.0.dir/__/__/__/mesh/core/src/nrf_mesh_configure.c.obj
                0x00027d5c                nrf_mesh_configure_device_uuid_get
 .text.sd_ecb_block_encrypt
                0x00027d64        0x4 examples/light_switch/proxy_server/CMakeFiles/light_switch_proxy_server_nrf52840_xxAA_s140_6.0.0.dir/__/__/__/mesh/core/src/aes.c.obj
 .text.aes_encrypt
                0x00027d68       0x32 examples/light_switch/proxy_server/CMakeFiles/light_switch_proxy_server_nrf52840_xxAA_s140_6.0.0.dir/__/__/__/mesh/core/src/aes.c.obj
                0x00027d68                aes_encrypt
 *fill*         0x00027d9a        0x2 
 .text.msg_cache_init
                0x00027d9c       0x24 examples/light_switch/proxy_server/CMakeFiles/light_switch_proxy_server_nrf52840_xxAA_s140_6.0.0.dir/__/__/__/mesh/core/src/msg_cache.c.obj
                0x00027d9c                msg_cache_init
 .text.msg_cache_entry_exists
                0x00027dc0       0x3c examples/light_switch/proxy_server/CMakeFiles/light_switch_proxy_server_nrf52840_xxAA_s140_6.0.0.dir/__/__/__/mesh/core/src/msg_cache.c.obj
                0x00027dc0                msg_cache_entry_exists
 .text.msg_cache_entry_add
                0x00027dfc       0x2c examples/light_switch/proxy_server/CMakeFiles/light_switch_proxy_server_nrf52840_xxAA_s140_6.0.0.dir/__/__/__/mesh/core/src/msg_cache.c.obj
                0x00027dfc                msg_cache_entry_add
 .text.seqauth_sequence_number_get
                0x00027e28       0x12 examples/light_switch/proxy_server/CMakeFiles/light_switch_proxy_server_nrf52840_xxAA_s140_6.0.0.dir/__/__/__/mesh/core/src/transport.c.obj
 *fill*         0x00027e3a        0x2 
 .text.control_packet_callback_get
                0x00027e3c       0x44 examples/light_switch/proxy_server/CMakeFiles/light_switch_proxy_server_nrf52840_xxAA_s140_6.0.0.dir/__/__/__/mesh/core/src/transport.c.obj
 .text.tx_complete
                0x00027e80       0x30 examples/light_switch/proxy_server/CMakeFiles/light_switch_proxy_server_nrf52840_xxAA_s140_6.0.0.dir/__/__/__/mesh/core/src/transport.c.obj
 .text.block_ack_full
                0x00027eb0       0x1a examples/light_switch/proxy_server/CMakeFiles/light_switch_proxy_server_nrf52840_xxAA_s140_6.0.0.dir/__/__/__/mesh/core/src/transport.c.obj
 *fill*         0x00027eca        0x2 
 .text.sar_rx_session_mark_as_handled
                0x00027ecc       0x48 examples/light_switch/proxy_server/CMakeFiles/light_switch_proxy_server_nrf52840_xxAA_s140_6.0.0.dir/__/__/__/mesh/core/src/transport.c.obj
 .text.upper_trs_packet_encrypt
                0x00027f14       0x90 examples/light_switch/proxy_server/CMakeFiles/light_switch_proxy_server_nrf52840_xxAA_s140_6.0.0.dir/__/__/__/mesh/core/src/transport.c.obj
 .text.sar_ctx_free
                0x00027fa4       0x3c examples/light_switch/proxy_server/CMakeFiles/light_switch_proxy_server_nrf52840_xxAA_s140_6.0.0.dir/__/__/__/mesh/core/src/transport.c.obj
 .text.sar_ctx_tx_complete
                0x00027fe0       0x2e examples/light_switch/proxy_server/CMakeFiles/light_switch_proxy_server_nrf52840_xxAA_s140_6.0.0.dir/__/__/__/mesh/core/src/transport.c.obj
 *fill*         0x0002800e        0x2 
 .text.sar_ctx_alloc
                0x00028010       0xa4 examples/light_switch/proxy_server/CMakeFiles/light_switch_proxy_server_nrf52840_xxAA_s140_6.0.0.dir/__/__/__/mesh/core/src/transport.c.obj
 .text.test_transport_decrypt
                0x000280b4       0x88 examples/light_switch/proxy_server/CMakeFiles/light_switch_proxy_server_nrf52840_xxAA_s140_6.0.0.dir/__/__/__/mesh/core/src/transport.c.obj
 .text.upper_transport_access_packet_in
                0x0002813c      0x19c examples/light_switch/proxy_server/CMakeFiles/light_switch_proxy_server_nrf52840_xxAA_s140_6.0.0.dir/__/__/__/mesh/core/src/transport.c.obj
 .text.trs_packet_header_build
                0x000282d8       0xa6 examples/light_switch/proxy_server/CMakeFiles/light_switch_proxy_server_nrf52840_xxAA_s140_6.0.0.dir/__/__/__/mesh/core/src/transport.c.obj
 *fill*         0x0002837e        0x2 
 .text.tx_retry_timer_reset
                0x00028380       0x44 examples/light_switch/proxy_server/CMakeFiles/light_switch_proxy_server_nrf52840_xxAA_s140_6.0.0.dir/__/__/__/mesh/core/src/transport.c.obj
 .text.sar_ctx_cancel
                0x000283c4       0xa8 examples/light_switch/proxy_server/CMakeFiles/light_switch_proxy_server_nrf52840_xxAA_s140_6.0.0.dir/__/__/__/mesh/core/src/transport.c.obj
 .text.abort_timeout
                0x0002846c        0x8 examples/light_switch/proxy_server/CMakeFiles/light_switch_proxy_server_nrf52840_xxAA_s140_6.0.0.dir/__/__/__/mesh/core/src/transport.c.obj
 .text.trs_sar_packet_out
                0x00028474       0xda examples/light_switch/proxy_server/CMakeFiles/light_switch_proxy_server_nrf52840_xxAA_s140_6.0.0.dir/__/__/__/mesh/core/src/transport.c.obj
 .text.retry_timeout
                0x0002854e       0x46 examples/light_switch/proxy_server/CMakeFiles/light_switch_proxy_server_nrf52840_xxAA_s140_6.0.0.dir/__/__/__/mesh/core/src/transport.c.obj
 .text.upper_transport_packet_in
                0x00028594      0x150 examples/light_switch/proxy_server/CMakeFiles/light_switch_proxy_server_nrf52840_xxAA_s140_6.0.0.dir/__/__/__/mesh/core/src/transport.c.obj
 .text.upper_transport_tx
                0x000286e4      0x1e4 examples/light_switch/proxy_server/CMakeFiles/light_switch_proxy_server_nrf52840_xxAA_s140_6.0.0.dir/__/__/__/mesh/core/src/transport.c.obj
 .text.transport_sar_mem_funcs_reset
                0x000288c8       0x28 examples/light_switch/proxy_server/CMakeFiles/light_switch_proxy_server_nrf52840_xxAA_s140_6.0.0.dir/__/__/__/mesh/core/src/transport.c.obj
                0x000288c8                transport_sar_mem_funcs_reset
 .text.transport_init
                0x000288f0       0x8c examples/light_switch/proxy_server/CMakeFiles/light_switch_proxy_server_nrf52840_xxAA_s140_6.0.0.dir/__/__/__/mesh/core/src/transport.c.obj
                0x000288f0                transport_init
 .text.transport_tx
                0x0002897c       0xb4 examples/light_switch/proxy_server/CMakeFiles/light_switch_proxy_server_nrf52840_xxAA_s140_6.0.0.dir/__/__/__/mesh/core/src/transport.c.obj
                0x0002897c                transport_tx
 .text.transport_control_tx
                0x00028a30       0x8e examples/light_switch/proxy_server/CMakeFiles/light_switch_proxy_server_nrf52840_xxAA_s140_6.0.0.dir/__/__/__/mesh/core/src/transport.c.obj
                0x00028a30                transport_control_tx
 *fill*         0x00028abe        0x2 
 .text.sar_ack_send
                0x00028ac0       0xa0 examples/light_switch/proxy_server/CMakeFiles/light_switch_proxy_server_nrf52840_xxAA_s140_6.0.0.dir/__/__/__/mesh/core/src/transport.c.obj
 .text.transport_sar_process
                0x00028b60       0x74 examples/light_switch/proxy_server/CMakeFiles/light_switch_proxy_server_nrf52840_xxAA_s140_6.0.0.dir/__/__/__/mesh/core/src/transport.c.obj
 .text.transport_packet_in
                0x00028bd4      0x434 examples/light_switch/proxy_server/CMakeFiles/light_switch_proxy_server_nrf52840_xxAA_s140_6.0.0.dir/__/__/__/mesh/core/src/transport.c.obj
                0x00028bd4                transport_packet_in
 .text.ack_timeout
                0x00029008       0x28 examples/light_switch/proxy_server/CMakeFiles/light_switch_proxy_server_nrf52840_xxAA_s140_6.0.0.dir/__/__/__/mesh/core/src/transport.c.obj
 .text.transport_opt_set
                0x00029030       0xd0 examples/light_switch/proxy_server/CMakeFiles/light_switch_proxy_server_nrf52840_xxAA_s140_6.0.0.dir/__/__/__/mesh/core/src/transport.c.obj
                0x00029030                transport_opt_set
 .text.transport_opt_get
                0x00029100       0x68 examples/light_switch/proxy_server/CMakeFiles/light_switch_proxy_server_nrf52840_xxAA_s140_6.0.0.dir/__/__/__/mesh/core/src/transport.c.obj
                0x00029100                transport_opt_get
 .text.transport_control_packet_consumer_add
                0x00029168       0x5c examples/light_switch/proxy_server/CMakeFiles/light_switch_proxy_server_nrf52840_xxAA_s140_6.0.0.dir/__/__/__/mesh/core/src/transport.c.obj
                0x00029168                transport_control_packet_consumer_add
 .text.event_handle
                0x000291c4       0x24 examples/light_switch/proxy_server/CMakeFiles/light_switch_proxy_server_nrf52840_xxAA_s140_6.0.0.dir/__/__/__/mesh/core/src/event.c.obj
                0x000291c4                event_handle
 .text.event_handler_add
                0x000291e8       0x1c examples/light_switch/proxy_server/CMakeFiles/light_switch_proxy_server_nrf52840_xxAA_s140_6.0.0.dir/__/__/__/mesh/core/src/event.c.obj
                0x000291e8                event_handler_add
 .text.event_handler_remove
                0x00029204       0x1c examples/light_switch/proxy_server/CMakeFiles/light_switch_proxy_server_nrf52840_xxAA_s140_6.0.0.dir/__/__/__/mesh/core/src/event.c.obj
                0x00029204                event_handler_remove
 .text.m_index_increment
                0x00029220       0x1e examples/light_switch/proxy_server/CMakeFiles/light_switch_proxy_server_nrf52840_xxAA_s140_6.0.0.dir/__/__/__/mesh/core/src/packet_buffer.c.obj
 .text.packet_buffer_init
                0x0002923e       0xac examples/light_switch/proxy_server/CMakeFiles/light_switch_proxy_server_nrf52840_xxAA_s140_6.0.0.dir/__/__/__/mesh/core/src/packet_buffer.c.obj
                0x0002923e                packet_buffer_init
 .text.packet_buffer_flush
                0x000292ea       0x60 examples/light_switch/proxy_server/CMakeFiles/light_switch_proxy_server_nrf52840_xxAA_s140_6.0.0.dir/__/__/__/mesh/core/src/packet_buffer.c.obj
                0x000292ea                packet_buffer_flush
 .text.packet_buffer_reserve
                0x0002934a       0x96 examples/light_switch/proxy_server/CMakeFiles/light_switch_proxy_server_nrf52840_xxAA_s140_6.0.0.dir/__/__/__/mesh/core/src/packet_buffer.c.obj
                0x0002934a                packet_buffer_reserve
 .text.packet_buffer_commit
                0x000293e0       0x58 examples/light_switch/proxy_server/CMakeFiles/light_switch_proxy_server_nrf52840_xxAA_s140_6.0.0.dir/__/__/__/mesh/core/src/packet_buffer.c.obj
                0x000293e0                packet_buffer_commit
 .text.packet_buffer_pop
                0x00029438       0x3c examples/light_switch/proxy_server/CMakeFiles/light_switch_proxy_server_nrf52840_xxAA_s140_6.0.0.dir/__/__/__/mesh/core/src/packet_buffer.c.obj
                0x00029438                packet_buffer_pop
 .text.packet_buffer_can_pop
                0x00029474       0x1c examples/light_switch/proxy_server/CMakeFiles/light_switch_proxy_server_nrf52840_xxAA_s140_6.0.0.dir/__/__/__/mesh/core/src/packet_buffer.c.obj
                0x00029474                packet_buffer_can_pop
 .text.packet_buffer_packets_ready_to_pop
                0x00029490       0x3a examples/light_switch/proxy_server/CMakeFiles/light_switch_proxy_server_nrf52840_xxAA_s140_6.0.0.dir/__/__/__/mesh/core/src/packet_buffer.c.obj
                0x00029490                packet_buffer_packets_ready_to_pop
 .text.packet_buffer_free
                0x000294ca       0x6e examples/light_switch/proxy_server/CMakeFiles/light_switch_proxy_server_nrf52840_xxAA_s140_6.0.0.dir/__/__/__/mesh/core/src/packet_buffer.c.obj
                0x000294ca                packet_buffer_free
 .text.get_last_page
                0x00029538       0x14 examples/light_switch/proxy_server/CMakeFiles/light_switch_proxy_server_nrf52840_xxAA_s140_6.0.0.dir/__/__/__/mesh/core/src/flash_manager_defrag.c.obj
 .text.defrag_on_end
                0x0002954c       0x1c examples/light_switch/proxy_server/CMakeFiles/light_switch_proxy_server_nrf52840_xxAA_s140_6.0.0.dir/__/__/__/mesh/core/src/flash_manager_defrag.c.obj
 .text.execute_procedure_step
                0x00029568       0x7c examples/light_switch/proxy_server/CMakeFiles/light_switch_proxy_server_nrf52840_xxAA_s140_6.0.0.dir/__/__/__/mesh/core/src/flash_manager_defrag.c.obj
 .text.get_next_entry
                0x000295e4       0x34 examples/light_switch/proxy_server/CMakeFiles/light_switch_proxy_server_nrf52840_xxAA_s140_6.0.0.dir/__/__/__/mesh/core/src/flash_manager_defrag.c.obj
 .text.get_next_data_entry
                0x00029618       0x26 examples/light_switch/proxy_server/CMakeFiles/light_switch_proxy_server_nrf52840_xxAA_s140_6.0.0.dir/__/__/__/mesh/core/src/flash_manager_defrag.c.obj
 *fill*         0x0002963e        0x2 
 .text.on_flash_op_end
                0x00029640       0x30 examples/light_switch/proxy_server/CMakeFiles/light_switch_proxy_server_nrf52840_xxAA_s140_6.0.0.dir/__/__/__/mesh/core/src/flash_manager_defrag.c.obj
 .text.check_for_invalid_entries
                0x00029670       0x38 examples/light_switch/proxy_server/CMakeFiles/light_switch_proxy_server_nrf52840_xxAA_s140_6.0.0.dir/__/__/__/mesh/core/src/flash_manager_defrag.c.obj
 .text.erase_recovery_area
                0x000296a8       0x34 examples/light_switch/proxy_server/CMakeFiles/light_switch_proxy_server_nrf52840_xxAA_s140_6.0.0.dir/__/__/__/mesh/core/src/flash_manager_defrag.c.obj
 .text.flash.constprop.6
                0x000296dc       0x24 examples/light_switch/proxy_server/CMakeFiles/light_switch_proxy_server_nrf52840_xxAA_s140_6.0.0.dir/__/__/__/mesh/core/src/flash_manager_defrag.c.obj
 .text.seal_storage_page
                0x00029700       0x50 examples/light_switch/proxy_server/CMakeFiles/light_switch_proxy_server_nrf52840_xxAA_s140_6.0.0.dir/__/__/__/mesh/core/src/flash_manager_defrag.c.obj
 .text.invalidate_duplicate_entries
                0x00029750       0x9c examples/light_switch/proxy_server/CMakeFiles/light_switch_proxy_server_nrf52840_xxAA_s140_6.0.0.dir/__/__/__/mesh/core/src/flash_manager_defrag.c.obj
 .text.copy_metadata
                0x000297ec       0x3c examples/light_switch/proxy_server/CMakeFiles/light_switch_proxy_server_nrf52840_xxAA_s140_6.0.0.dir/__/__/__/mesh/core/src/flash_manager_defrag.c.obj
 .text.write_defrag_start_pointer
                0x00029828       0x20 examples/light_switch/proxy_server/CMakeFiles/light_switch_proxy_server_nrf52840_xxAA_s140_6.0.0.dir/__/__/__/mesh/core/src/flash_manager_defrag.c.obj
 .text.write_back
                0x00029848       0x28 examples/light_switch/proxy_server/CMakeFiles/light_switch_proxy_server_nrf52840_xxAA_s140_6.0.0.dir/__/__/__/mesh/core/src/flash_manager_defrag.c.obj
 .text.post_process
                0x00029870       0x40 examples/light_switch/proxy_server/CMakeFiles/light_switch_proxy_server_nrf52840_xxAA_s140_6.0.0.dir/__/__/__/mesh/core/src/flash_manager_defrag.c.obj
 .text.backup_entries
                0x000298b0       0xf8 examples/light_switch/proxy_server/CMakeFiles/light_switch_proxy_server_nrf52840_xxAA_s140_6.0.0.dir/__/__/__/mesh/core/src/flash_manager_defrag.c.obj
 .text.erase_source
                0x000299a8       0x34 examples/light_switch/proxy_server/CMakeFiles/light_switch_proxy_server_nrf52840_xxAA_s140_6.0.0.dir/__/__/__/mesh/core/src/flash_manager_defrag.c.obj
 .text.flash_manager_defrag_init
                0x000299dc       0x8c examples/light_switch/proxy_server/CMakeFiles/light_switch_proxy_server_nrf52840_xxAA_s140_6.0.0.dir/__/__/__/mesh/core/src/flash_manager_defrag.c.obj
                0x000299dc                flash_manager_defrag_init
 .text.flash_manager_defrag_is_running
                0x00029a68       0x10 examples/light_switch/proxy_server/CMakeFiles/light_switch_proxy_server_nrf52840_xxAA_s140_6.0.0.dir/__/__/__/mesh/core/src/flash_manager_defrag.c.obj
                0x00029a68                flash_manager_defrag_is_running
 .text.flash_manager_defrag
                0x00029a78       0x44 examples/light_switch/proxy_server/CMakeFiles/light_switch_proxy_server_nrf52840_xxAA_s140_6.0.0.dir/__/__/__/mesh/core/src/flash_manager_defrag.c.obj
                0x00029a78                flash_manager_defrag
 .text.flash_manager_defrag_recovery_page_get
                0x00029abc        0xc examples/light_switch/proxy_server/CMakeFiles/light_switch_proxy_server_nrf52840_xxAA_s140_6.0.0.dir/__/__/__/mesh/core/src/flash_manager_defrag.c.obj
                0x00029abc                flash_manager_defrag_recovery_page_get
 .text.fifo_init
                0x00029ac8       0x34 examples/light_switch/proxy_server/CMakeFiles/light_switch_proxy_server_nrf52840_xxAA_s140_6.0.0.dir/__/__/__/mesh/core/src/fifo.c.obj
                0x00029ac8                fifo_init
 .text.fifo_push
                0x00029afc       0x50 examples/light_switch/proxy_server/CMakeFiles/light_switch_proxy_server_nrf52840_xxAA_s140_6.0.0.dir/__/__/__/mesh/core/src/fifo.c.obj
                0x00029afc                fifo_push
 .text.fifo_pop
                0x00029b4c       0x52 examples/light_switch/proxy_server/CMakeFiles/light_switch_proxy_server_nrf52840_xxAA_s140_6.0.0.dir/__/__/__/mesh/core/src/fifo.c.obj
                0x00029b4c                fifo_pop
 *fill*         0x00029b9e        0x2 
 .text.wait_for_ready
                0x00029ba0       0x10 examples/light_switch/proxy_server/CMakeFiles/light_switch_proxy_server_nrf52840_xxAA_s140_6.0.0.dir/__/__/__/mesh/core/src/nrf_flash.c.obj
 .text.nrf_flash_erase
                0x00029bb0       0x50 examples/light_switch/proxy_server/CMakeFiles/light_switch_proxy_server_nrf52840_xxAA_s140_6.0.0.dir/__/__/__/mesh/core/src/nrf_flash.c.obj
                0x00029bb0                nrf_flash_erase
 .text.nrf_flash_write
                0x00029c00       0x50 examples/light_switch/proxy_server/CMakeFiles/light_switch_proxy_server_nrf52840_xxAA_s140_6.0.0.dir/__/__/__/mesh/core/src/nrf_flash.c.obj
                0x00029c00                nrf_flash_write
 .text.packet_mgr_init
                0x00029c50       0x4c examples/light_switch/proxy_server/CMakeFiles/light_switch_proxy_server_nrf52840_xxAA_s140_6.0.0.dir/__/__/__/mesh/core/src/packet_mgr.c.obj
                0x00029c50                packet_mgr_init
 .text.flash_store_iv_index
                0x00029c9c       0x38 examples/light_switch/proxy_server/CMakeFiles/light_switch_proxy_server_nrf52840_xxAA_s140_6.0.0.dir/__/__/__/mesh/core/src/net_state.c.obj
 .text.flash_mem_available
                0x00029cd4       0x14 examples/light_switch/proxy_server/CMakeFiles/light_switch_proxy_server_nrf52840_xxAA_s140_6.0.0.dir/__/__/__/mesh/core/src/net_state.c.obj
 .text.seqnum_block_allocate
                0x00029ce8       0x4c examples/light_switch/proxy_server/CMakeFiles/light_switch_proxy_server_nrf52840_xxAA_s140_6.0.0.dir/__/__/__/mesh/core/src/net_state.c.obj
 .text.net_state_reset
                0x00029d34       0x3c examples/light_switch/proxy_server/CMakeFiles/light_switch_proxy_server_nrf52840_xxAA_s140_6.0.0.dir/__/__/__/mesh/core/src/net_state.c.obj
                0x00029d34                net_state_reset
 .text.flash_write_complete
                0x00029d70       0x64 examples/light_switch/proxy_server/CMakeFiles/light_switch_proxy_server_nrf52840_xxAA_s140_6.0.0.dir/__/__/__/mesh/core/src/net_state.c.obj
 .text.net_state_recover_from_flash
                0x00029dd4       0x8c examples/light_switch/proxy_server/CMakeFiles/light_switch_proxy_server_nrf52840_xxAA_s140_6.0.0.dir/__/__/__/mesh/core/src/net_state.c.obj
                0x00029dd4                net_state_recover_from_flash
 .text.net_state_flash_area_get
                0x00029e60        0xc examples/light_switch/proxy_server/CMakeFiles/light_switch_proxy_server_nrf52840_xxAA_s140_6.0.0.dir/__/__/__/mesh/core/src/net_state.c.obj
                0x00029e60                net_state_flash_area_get
 .text.init_flash_storage
                0x00029e6c       0x40 examples/light_switch/proxy_server/CMakeFiles/light_switch_proxy_server_nrf52840_xxAA_s140_6.0.0.dir/__/__/__/mesh/core/src/net_state.c.obj
 .text.net_state_init
                0x00029eac       0x5c examples/light_switch/proxy_server/CMakeFiles/light_switch_proxy_server_nrf52840_xxAA_s140_6.0.0.dir/__/__/__/mesh/core/src/net_state.c.obj
                0x00029eac                net_state_init
 .text.net_state_iv_update_start
                0x00029f08       0x68 examples/light_switch/proxy_server/CMakeFiles/light_switch_proxy_server_nrf52840_xxAA_s140_6.0.0.dir/__/__/__/mesh/core/src/net_state.c.obj
                0x00029f08                net_state_iv_update_start
 .text.iv_update_trigger_if_pending
                0x00029f70       0x80 examples/light_switch/proxy_server/CMakeFiles/light_switch_proxy_server_nrf52840_xxAA_s140_6.0.0.dir/__/__/__/mesh/core/src/net_state.c.obj
 .text.mesh_evt_handler
                0x00029ff0       0xa0 examples/light_switch/proxy_server/CMakeFiles/light_switch_proxy_server_nrf52840_xxAA_s140_6.0.0.dir/__/__/__/mesh/core/src/net_state.c.obj
 .text.iv_update_timer_handler
                0x0002a090       0x68 examples/light_switch/proxy_server/CMakeFiles/light_switch_proxy_server_nrf52840_xxAA_s140_6.0.0.dir/__/__/__/mesh/core/src/net_state.c.obj
 .text.net_state_seqnum_alloc
                0x0002a0f8       0x68 examples/light_switch/proxy_server/CMakeFiles/light_switch_proxy_server_nrf52840_xxAA_s140_6.0.0.dir/__/__/__/mesh/core/src/net_state.c.obj
                0x0002a0f8                net_state_seqnum_alloc
 .text.net_state_iv_index_lock
                0x0002a160       0x3c examples/light_switch/proxy_server/CMakeFiles/light_switch_proxy_server_nrf52840_xxAA_s140_6.0.0.dir/__/__/__/mesh/core/src/net_state.c.obj
                0x0002a160                net_state_iv_index_lock
 .text.net_state_key_refresh_phase_changed
                0x0002a19c       0x20 examples/light_switch/proxy_server/CMakeFiles/light_switch_proxy_server_nrf52840_xxAA_s140_6.0.0.dir/__/__/__/mesh/core/src/net_state.c.obj
                0x0002a19c                net_state_key_refresh_phase_changed
 .text.net_state_beacon_iv_index_get
                0x0002a1bc        0xc examples/light_switch/proxy_server/CMakeFiles/light_switch_proxy_server_nrf52840_xxAA_s140_6.0.0.dir/__/__/__/mesh/core/src/net_state.c.obj
                0x0002a1bc                net_state_beacon_iv_index_get
 .text.net_state_tx_iv_index_get
                0x0002a1c8       0x14 examples/light_switch/proxy_server/CMakeFiles/light_switch_proxy_server_nrf52840_xxAA_s140_6.0.0.dir/__/__/__/mesh/core/src/net_state.c.obj
                0x0002a1c8                net_state_tx_iv_index_get
 .text.net_state_rx_iv_index_get
                0x0002a1dc       0x18 examples/light_switch/proxy_server/CMakeFiles/light_switch_proxy_server_nrf52840_xxAA_s140_6.0.0.dir/__/__/__/mesh/core/src/net_state.c.obj
                0x0002a1dc                net_state_rx_iv_index_get
 .text.net_state_iv_update_get
                0x0002a1f4        0xc examples/light_switch/proxy_server/CMakeFiles/light_switch_proxy_server_nrf52840_xxAA_s140_6.0.0.dir/__/__/__/mesh/core/src/net_state.c.obj
                0x0002a1f4                net_state_iv_update_get
 .text.net_state_iv_index_set
                0x0002a200       0x30 examples/light_switch/proxy_server/CMakeFiles/light_switch_proxy_server_nrf52840_xxAA_s140_6.0.0.dir/__/__/__/mesh/core/src/net_state.c.obj
                0x0002a200                net_state_iv_index_set
 .text.send_end_events
                0x0002a230       0x84 examples/light_switch/proxy_server/CMakeFiles/light_switch_proxy_server_nrf52840_xxAA_s140_6.0.0.dir/__/__/__/mesh/core/src/mesh_flash.c.obj
 .text.flash_op_schedule
                0x0002a2b4       0x88 examples/light_switch/proxy_server/CMakeFiles/light_switch_proxy_server_nrf52840_xxAA_s140_6.0.0.dir/__/__/__/mesh/core/src/mesh_flash.c.obj
 .text.flash_op_start
                0x0002a33c      0x13c examples/light_switch/proxy_server/CMakeFiles/light_switch_proxy_server_nrf52840_xxAA_s140_6.0.0.dir/__/__/__/mesh/core/src/mesh_flash.c.obj
 .text.mesh_flash_init
                0x0002a478       0x88 examples/light_switch/proxy_server/CMakeFiles/light_switch_proxy_server_nrf52840_xxAA_s140_6.0.0.dir/__/__/__/mesh/core/src/mesh_flash.c.obj
                0x0002a478                mesh_flash_init
 .text.mesh_flash_user_callback_set
                0x0002a500       0x20 examples/light_switch/proxy_server/CMakeFiles/light_switch_proxy_server_nrf52840_xxAA_s140_6.0.0.dir/__/__/__/mesh/core/src/mesh_flash.c.obj
                0x0002a500                mesh_flash_user_callback_set
 .text.mesh_flash_op_push
                0x0002a520       0xe4 examples/light_switch/proxy_server/CMakeFiles/light_switch_proxy_server_nrf52840_xxAA_s140_6.0.0.dir/__/__/__/mesh/core/src/mesh_flash.c.obj
                0x0002a520                mesh_flash_op_push
 .text.nrf_mesh_address_type_get
                0x0002a604       0x10 examples/light_switch/proxy_server/CMakeFiles/light_switch_proxy_server_nrf52840_xxAA_s140_6.0.0.dir/__/__/__/mesh/core/src/nrf_mesh_utils.c.obj
                0x0002a604                nrf_mesh_address_type_get
 .text.sd_softdevice_is_enabled
                0x0002a614        0x4 examples/light_switch/proxy_server/CMakeFiles/light_switch_proxy_server_nrf52840_xxAA_s140_6.0.0.dir/__/__/__/mesh/core/src/nrf_mesh.c.obj
 .text.nrf_mesh_listen
                0x0002a618      0x138 examples/light_switch/proxy_server/CMakeFiles/light_switch_proxy_server_nrf52840_xxAA_s140_6.0.0.dir/__/__/__/mesh/core/src/nrf_mesh.c.obj
 .text.flash_stable_cb
                0x0002a750       0x20 examples/light_switch/proxy_server/CMakeFiles/light_switch_proxy_server_nrf52840_xxAA_s140_6.0.0.dir/__/__/__/mesh/core/src/nrf_mesh.c.obj
 .text.scanner_packet_process_cb
                0x0002a770       0x8c examples/light_switch/proxy_server/CMakeFiles/light_switch_proxy_server_nrf52840_xxAA_s140_6.0.0.dir/__/__/__/mesh/core/src/nrf_mesh.c.obj
 .text.nrf_mesh_init
                0x0002a7fc       0xd8 examples/light_switch/proxy_server/CMakeFiles/light_switch_proxy_server_nrf52840_xxAA_s140_6.0.0.dir/__/__/__/mesh/core/src/nrf_mesh.c.obj
                0x0002a7fc                nrf_mesh_init
 .text.nrf_mesh_enable
                0x0002a8d4       0x3c examples/light_switch/proxy_server/CMakeFiles/light_switch_proxy_server_nrf52840_xxAA_s140_6.0.0.dir/__/__/__/mesh/core/src/nrf_mesh.c.obj
                0x0002a8d4                nrf_mesh_enable
 .text.nrf_mesh_disable
                0x0002a910       0x28 examples/light_switch/proxy_server/CMakeFiles/light_switch_proxy_server_nrf52840_xxAA_s140_6.0.0.dir/__/__/__/mesh/core/src/nrf_mesh.c.obj
                0x0002a910                nrf_mesh_disable
 .text.nrf_mesh_packet_send
                0x0002a938       0x7c examples/light_switch/proxy_server/CMakeFiles/light_switch_proxy_server_nrf52840_xxAA_s140_6.0.0.dir/__/__/__/mesh/core/src/nrf_mesh.c.obj
                0x0002a938                nrf_mesh_packet_send
 .text.nrf_mesh_evt_handler_add
                0x0002a9b4        0x4 examples/light_switch/proxy_server/CMakeFiles/light_switch_proxy_server_nrf52840_xxAA_s140_6.0.0.dir/__/__/__/mesh/core/src/nrf_mesh.c.obj
                0x0002a9b4                nrf_mesh_evt_handler_add
 .text.nrf_mesh_on_sd_evt
                0x0002a9b8        0xa examples/light_switch/proxy_server/CMakeFiles/light_switch_proxy_server_nrf52840_xxAA_s140_6.0.0.dir/__/__/__/mesh/core/src/nrf_mesh.c.obj
                0x0002a9b8                nrf_mesh_on_sd_evt
 .text.nrf_mesh_subnet_added
                0x0002a9c2        0x4 examples/light_switch/proxy_server/CMakeFiles/light_switch_proxy_server_nrf52840_xxAA_s140_6.0.0.dir/__/__/__/mesh/core/src/nrf_mesh.c.obj
                0x0002a9c2                nrf_mesh_subnet_added
 .text.queue_init
                0x0002a9c6       0x14 examples/light_switch/proxy_server/CMakeFiles/light_switch_proxy_server_nrf52840_xxAA_s140_6.0.0.dir/__/__/__/mesh/core/src/queue.c.obj
                0x0002a9c6                queue_init
 .text.queue_push
                0x0002a9da       0x34 examples/light_switch/proxy_server/CMakeFiles/light_switch_proxy_server_nrf52840_xxAA_s140_6.0.0.dir/__/__/__/mesh/core/src/queue.c.obj
                0x0002a9da                queue_push
 .text.queue_pop
                0x0002aa0e       0x26 examples/light_switch/proxy_server/CMakeFiles/light_switch_proxy_server_nrf52840_xxAA_s140_6.0.0.dir/__/__/__/mesh/core/src/queue.c.obj
                0x0002aa0e                queue_pop
 .text.queue_peek
                0x0002aa34       0x10 examples/light_switch/proxy_server/CMakeFiles/light_switch_proxy_server_nrf52840_xxAA_s140_6.0.0.dir/__/__/__/mesh/core/src/queue.c.obj
                0x0002aa34                queue_peek
 .text.sd_power_reset_reason_clr
                0x0002aa44        0x4 examples/light_switch/proxy_server/CMakeFiles/light_switch_proxy_server_nrf52840_xxAA_s140_6.0.0.dir/__/__/__/mesh/core/src/hal.c.obj
 .text.hal_device_reset
                0x0002aa48       0x2c examples/light_switch/proxy_server/CMakeFiles/light_switch_proxy_server_nrf52840_xxAA_s140_6.0.0.dir/__/__/__/mesh/core/src/hal.c.obj
                0x0002aa48                hal_device_reset
 .text.hal_lfclk_ppm_get
                0x0002aa74       0x14 examples/light_switch/proxy_server/CMakeFiles/light_switch_proxy_server_nrf52840_xxAA_s140_6.0.0.dir/__/__/__/mesh/core/src/hal.c.obj
                0x0002aa74                hal_lfclk_ppm_get
 .text.my_xor.constprop.1
                0x0002aa88       0x20 examples/light_switch/proxy_server/CMakeFiles/light_switch_proxy_server_nrf52840_xxAA_s140_6.0.0.dir/__/__/__/mesh/core/src/aes_cmac.c.obj
 .text.utils_lshift.constprop.2
                0x0002aaa8       0x24 examples/light_switch/proxy_server/CMakeFiles/light_switch_proxy_server_nrf52840_xxAA_s140_6.0.0.dir/__/__/__/mesh/core/src/aes_cmac.c.obj
 .text.aes_cmac_subkey_generate
                0x0002aacc       0x6c examples/light_switch/proxy_server/CMakeFiles/light_switch_proxy_server_nrf52840_xxAA_s140_6.0.0.dir/__/__/__/mesh/core/src/aes_cmac.c.obj
                0x0002aacc                aes_cmac_subkey_generate
 .text.aes_cmac
                0x0002ab38       0xbc examples/light_switch/proxy_server/CMakeFiles/light_switch_proxy_server_nrf52840_xxAA_s140_6.0.0.dir/__/__/__/mesh/core/src/aes_cmac.c.obj
                0x0002ab38                aes_cmac
 .text.add_to_add_list
                0x0002abf4       0x30 examples/light_switch/proxy_server/CMakeFiles/light_switch_proxy_server_nrf52840_xxAA_s140_6.0.0.dir/__/__/__/mesh/core/src/timer_scheduler.c.obj
 .text.process_dirty_events
                0x0002ac24       0x5c examples/light_switch/proxy_server/CMakeFiles/light_switch_proxy_server_nrf52840_xxAA_s140_6.0.0.dir/__/__/__/mesh/core/src/timer_scheduler.c.obj
 .text.timer_cb
                0x0002ac80        0xc examples/light_switch/proxy_server/CMakeFiles/light_switch_proxy_server_nrf52840_xxAA_s140_6.0.0.dir/__/__/__/mesh/core/src/timer_scheduler.c.obj
 .text.add_evt.constprop.1
                0x0002ac8c       0x58 examples/light_switch/proxy_server/CMakeFiles/light_switch_proxy_server_nrf52840_xxAA_s140_6.0.0.dir/__/__/__/mesh/core/src/timer_scheduler.c.obj
 .text.process_add_list
                0x0002ace4       0x3c examples/light_switch/proxy_server/CMakeFiles/light_switch_proxy_server_nrf52840_xxAA_s140_6.0.0.dir/__/__/__/mesh/core/src/timer_scheduler.c.obj
 .text.flag_event_cb
                0x0002ad20       0xd8 examples/light_switch/proxy_server/CMakeFiles/light_switch_proxy_server_nrf52840_xxAA_s140_6.0.0.dir/__/__/__/mesh/core/src/timer_scheduler.c.obj
 .text.timer_sch_init
                0x0002adf8       0x24 examples/light_switch/proxy_server/CMakeFiles/light_switch_proxy_server_nrf52840_xxAA_s140_6.0.0.dir/__/__/__/mesh/core/src/timer_scheduler.c.obj
                0x0002adf8                timer_sch_init
 .text.timer_sch_schedule
                0x0002ae1c       0x3c examples/light_switch/proxy_server/CMakeFiles/light_switch_proxy_server_nrf52840_xxAA_s140_6.0.0.dir/__/__/__/mesh/core/src/timer_scheduler.c.obj
                0x0002ae1c                timer_sch_schedule
 .text.timer_sch_abort
                0x0002ae58       0x58 examples/light_switch/proxy_server/CMakeFiles/light_switch_proxy_server_nrf52840_xxAA_s140_6.0.0.dir/__/__/__/mesh/core/src/timer_scheduler.c.obj
                0x0002ae58                timer_sch_abort
 .text.timer_sch_reschedule
                0x0002aeb0       0x64 examples/light_switch/proxy_server/CMakeFiles/light_switch_proxy_server_nrf52840_xxAA_s140_6.0.0.dir/__/__/__/mesh/core/src/timer_scheduler.c.obj
                0x0002aeb0                timer_sch_reschedule
 .text.timer_mut_unlock
                0x0002af14       0x10 examples/light_switch/proxy_server/CMakeFiles/light_switch_proxy_server_nrf52840_xxAA_s140_6.0.0.dir/__/__/__/mesh/core/src/timer.c.obj
 .text.timer_order_cb
                0x0002af24       0x94 examples/light_switch/proxy_server/CMakeFiles/light_switch_proxy_server_nrf52840_xxAA_s140_6.0.0.dir/__/__/__/mesh/core/src/timer.c.obj
                0x0002af24                timer_order_cb
 .text.timer_now
                0x0002afb8       0x48 examples/light_switch/proxy_server/CMakeFiles/light_switch_proxy_server_nrf52840_xxAA_s140_6.0.0.dir/__/__/__/mesh/core/src/timer.c.obj
                0x0002afb8                timer_now
 .text.timer_event_handler
                0x0002b000       0x84 examples/light_switch/proxy_server/CMakeFiles/light_switch_proxy_server_nrf52840_xxAA_s140_6.0.0.dir/__/__/__/mesh/core/src/timer.c.obj
                0x0002b000                timer_event_handler
 .text.timer_on_ts_begin
                0x0002b084       0xf4 examples/light_switch/proxy_server/CMakeFiles/light_switch_proxy_server_nrf52840_xxAA_s140_6.0.0.dir/__/__/__/mesh/core/src/timer.c.obj
                0x0002b084                timer_on_ts_begin
 .text.timer_on_ts_end
                0x0002b178       0x60 examples/light_switch/proxy_server/CMakeFiles/light_switch_proxy_server_nrf52840_xxAA_s140_6.0.0.dir/__/__/__/mesh/core/src/timer.c.obj
                0x0002b178                timer_on_ts_end
 .text.timer_cb
                0x0002b1d8       0x10 examples/light_switch/proxy_server/CMakeFiles/light_switch_proxy_server_nrf52840_xxAA_s140_6.0.0.dir/__/__/__/mesh/core/src/ticker.c.obj
 .text.ticker_init
                0x0002b1e8       0x3c examples/light_switch/proxy_server/CMakeFiles/light_switch_proxy_server_nrf52840_xxAA_s140_6.0.0.dir/__/__/__/mesh/core/src/ticker.c.obj
                0x0002b1e8                ticker_init
 .text.sd_rand_application_bytes_available_get
                0x0002b224        0x4 examples/light_switch/proxy_server/CMakeFiles/light_switch_proxy_server_nrf52840_xxAA_s140_6.0.0.dir/__/__/__/mesh/core/src/rand.c.obj
 .text.sd_rand_application_vector_get
                0x0002b228        0x4 examples/light_switch/proxy_server/CMakeFiles/light_switch_proxy_server_nrf52840_xxAA_s140_6.0.0.dir/__/__/__/mesh/core/src/rand.c.obj
 .text.rand_prng_get
                0x0002b22c       0x22 examples/light_switch/proxy_server/CMakeFiles/light_switch_proxy_server_nrf52840_xxAA_s140_6.0.0.dir/__/__/__/mesh/core/src/rand.c.obj
                0x0002b22c                rand_prng_get
 .text.rand_hw_rng_get
                0x0002b24e       0x44 examples/light_switch/proxy_server/CMakeFiles/light_switch_proxy_server_nrf52840_xxAA_s140_6.0.0.dir/__/__/__/mesh/core/src/rand.c.obj
                0x0002b24e                rand_hw_rng_get
 *fill*         0x0002b292        0x2 
 .text.rand_prng_seed
                0x0002b294       0x34 examples/light_switch/proxy_server/CMakeFiles/light_switch_proxy_server_nrf52840_xxAA_s140_6.0.0.dir/__/__/__/mesh/core/src/rand.c.obj
                0x0002b294                rand_prng_seed
 .text.nrf_mesh_opt_set
                0x0002b2c8       0x26 examples/light_switch/proxy_server/CMakeFiles/light_switch_proxy_server_nrf52840_xxAA_s140_6.0.0.dir/__/__/__/mesh/core/src/nrf_mesh_opt.c.obj
                0x0002b2c8                nrf_mesh_opt_set
 .text.nrf_mesh_opt_get
                0x0002b2ee       0x26 examples/light_switch/proxy_server/CMakeFiles/light_switch_proxy_server_nrf52840_xxAA_s140_6.0.0.dir/__/__/__/mesh/core/src/nrf_mesh_opt.c.obj
                0x0002b2ee                nrf_mesh_opt_get
 .text.sd_radio_session_open
                0x0002b314        0x4 examples/light_switch/proxy_server/CMakeFiles/light_switch_proxy_server_nrf52840_xxAA_s140_6.0.0.dir/__/__/__/mesh/core/src/timeslot.c.obj
 .text.sd_radio_session_close
                0x0002b318        0x4 examples/light_switch/proxy_server/CMakeFiles/light_switch_proxy_server_nrf52840_xxAA_s140_6.0.0.dir/__/__/__/mesh/core/src/timeslot.c.obj
 .text.sd_radio_request
                0x0002b31c        0x4 examples/light_switch/proxy_server/CMakeFiles/light_switch_proxy_server_nrf52840_xxAA_s140_6.0.0.dir/__/__/__/mesh/core/src/timeslot.c.obj
 .text.end_timer_handler
                0x0002b320       0x24 examples/light_switch/proxy_server/CMakeFiles/light_switch_proxy_server_nrf52840_xxAA_s140_6.0.0.dir/__/__/__/mesh/core/src/timeslot.c.obj
 .text.get_end_time.constprop.10
                0x0002b344       0x28 examples/light_switch/proxy_server/CMakeFiles/light_switch_proxy_server_nrf52840_xxAA_s140_6.0.0.dir/__/__/__/mesh/core/src/timeslot.c.obj
 .text.handle_extend_end.constprop.3
                0x0002b36c       0xb4 examples/light_switch/proxy_server/CMakeFiles/light_switch_proxy_server_nrf52840_xxAA_s140_6.0.0.dir/__/__/__/mesh/core/src/timeslot.c.obj
 .text.radio_signal_callback
                0x0002b420      0x138 examples/light_switch/proxy_server/CMakeFiles/light_switch_proxy_server_nrf52840_xxAA_s140_6.0.0.dir/__/__/__/mesh/core/src/timeslot.c.obj
 .text.timeslot_sd_event_handler
                0x0002b558       0x38 examples/light_switch/proxy_server/CMakeFiles/light_switch_proxy_server_nrf52840_xxAA_s140_6.0.0.dir/__/__/__/mesh/core/src/timeslot.c.obj
                0x0002b558                timeslot_sd_event_handler
 .text.timeslot_init
                0x0002b590       0x48 examples/light_switch/proxy_server/CMakeFiles/light_switch_proxy_server_nrf52840_xxAA_s140_6.0.0.dir/__/__/__/mesh/core/src/timeslot.c.obj
                0x0002b590                timeslot_init
 .text.timeslot_start
                0x0002b5d8       0x20 examples/light_switch/proxy_server/CMakeFiles/light_switch_proxy_server_nrf52840_xxAA_s140_6.0.0.dir/__/__/__/mesh/core/src/timeslot.c.obj
                0x0002b5d8                timeslot_start
 .text.timeslot_end_is_pending
                0x0002b5f8       0x24 examples/light_switch/proxy_server/CMakeFiles/light_switch_proxy_server_nrf52840_xxAA_s140_6.0.0.dir/__/__/__/mesh/core/src/timeslot.c.obj
                0x0002b5f8                timeslot_end_is_pending
 .text.timeslot_start_time_get
                0x0002b61c        0xc examples/light_switch/proxy_server/CMakeFiles/light_switch_proxy_server_nrf52840_xxAA_s140_6.0.0.dir/__/__/__/mesh/core/src/timeslot.c.obj
                0x0002b61c                timeslot_start_time_get
 .text.timeslot_remaining_time_get
                0x0002b628       0x20 examples/light_switch/proxy_server/CMakeFiles/light_switch_proxy_server_nrf52840_xxAA_s140_6.0.0.dir/__/__/__/mesh/core/src/timeslot.c.obj
                0x0002b628                timeslot_remaining_time_get
 .text.timeslot_is_in_cb
                0x0002b648        0xc examples/light_switch/proxy_server/CMakeFiles/light_switch_proxy_server_nrf52840_xxAA_s140_6.0.0.dir/__/__/__/mesh/core/src/timeslot.c.obj
                0x0002b648                timeslot_is_in_cb
 .text.timeslot_trigger
                0x0002b654       0x24 examples/light_switch/proxy_server/CMakeFiles/light_switch_proxy_server_nrf52840_xxAA_s140_6.0.0.dir/__/__/__/mesh/core/src/timeslot.c.obj
                0x0002b654                timeslot_trigger
 .text.timeslot_stop
                0x0002b678       0x10 examples/light_switch/proxy_server/CMakeFiles/light_switch_proxy_server_nrf52840_xxAA_s140_6.0.0.dir/__/__/__/mesh/core/src/timeslot.c.obj
                0x0002b678                timeslot_stop
 .text.timeslot_state_lock
                0x0002b688       0x28 examples/light_switch/proxy_server/CMakeFiles/light_switch_proxy_server_nrf52840_xxAA_s140_6.0.0.dir/__/__/__/mesh/core/src/timeslot.c.obj
                0x0002b688                timeslot_state_lock
 .text.trigger_event_handler
                0x0002b6b0       0x1c examples/light_switch/proxy_server/CMakeFiles/light_switch_proxy_server_nrf52840_xxAA_s140_6.0.0.dir/__/__/__/mesh/core/src/bearer_event.c.obj
 .text.evt_push
                0x0002b6cc       0x1c examples/light_switch/proxy_server/CMakeFiles/light_switch_proxy_server_nrf52840_xxAA_s140_6.0.0.dir/__/__/__/mesh/core/src/bearer_event.c.obj
 .text.bearer_event_init
                0x0002b6e8       0x48 examples/light_switch/proxy_server/CMakeFiles/light_switch_proxy_server_nrf52840_xxAA_s140_6.0.0.dir/__/__/__/mesh/core/src/bearer_event.c.obj
                0x0002b6e8                bearer_event_init
 .text.bearer_event_timer_post
                0x0002b730       0x24 examples/light_switch/proxy_server/CMakeFiles/light_switch_proxy_server_nrf52840_xxAA_s140_6.0.0.dir/__/__/__/mesh/core/src/bearer_event.c.obj
                0x0002b730                bearer_event_timer_post
 .text.bearer_event_critical_section_begin
                0x0002b754       0x44 examples/light_switch/proxy_server/CMakeFiles/light_switch_proxy_server_nrf52840_xxAA_s140_6.0.0.dir/__/__/__/mesh/core/src/bearer_event.c.obj
                0x0002b754                bearer_event_critical_section_begin
 .text.bearer_event_critical_section_end
                0x0002b798       0x40 examples/light_switch/proxy_server/CMakeFiles/light_switch_proxy_server_nrf52840_xxAA_s140_6.0.0.dir/__/__/__/mesh/core/src/bearer_event.c.obj
                0x0002b798                bearer_event_critical_section_end
 .text.bearer_event_flag_add
                0x0002b7d8       0x3c examples/light_switch/proxy_server/CMakeFiles/light_switch_proxy_server_nrf52840_xxAA_s140_6.0.0.dir/__/__/__/mesh/core/src/bearer_event.c.obj
                0x0002b7d8                bearer_event_flag_add
 .text.bearer_event_flag_set
                0x0002b814       0x44 examples/light_switch/proxy_server/CMakeFiles/light_switch_proxy_server_nrf52840_xxAA_s140_6.0.0.dir/__/__/__/mesh/core/src/bearer_event.c.obj
                0x0002b814                bearer_event_flag_set
 .text.bearer_event_sequential_add
                0x0002b858       0x2e examples/light_switch/proxy_server/CMakeFiles/light_switch_proxy_server_nrf52840_xxAA_s140_6.0.0.dir/__/__/__/mesh/core/src/bearer_event.c.obj
                0x0002b858                bearer_event_sequential_add
 *fill*         0x0002b886        0x2 
 .text.bearer_event_sequential_post
                0x0002b888       0x44 examples/light_switch/proxy_server/CMakeFiles/light_switch_proxy_server_nrf52840_xxAA_s140_6.0.0.dir/__/__/__/mesh/core/src/bearer_event.c.obj
                0x0002b888                bearer_event_sequential_post
 .text.bearer_event_sequential_pending
                0x0002b8cc       0x10 examples/light_switch/proxy_server/CMakeFiles/light_switch_proxy_server_nrf52840_xxAA_s140_6.0.0.dir/__/__/__/mesh/core/src/bearer_event.c.obj
                0x0002b8cc                bearer_event_sequential_pending
 .text.bearer_event_handler
                0x0002b8dc       0xe8 examples/light_switch/proxy_server/CMakeFiles/light_switch_proxy_server_nrf52840_xxAA_s140_6.0.0.dir/__/__/__/mesh/core/src/bearer_event.c.obj
                0x0002b8dc                bearer_event_handler
 .text.QDEC_IRQHandler
                0x0002b9c4        0x4 examples/light_switch/proxy_server/CMakeFiles/light_switch_proxy_server_nrf52840_xxAA_s140_6.0.0.dir/__/__/__/mesh/core/src/bearer_event.c.obj
                0x0002b9c4                QDEC_IRQHandler
 .text.enc_aes_encrypt
                0x0002b9c8        0x4 examples/light_switch/proxy_server/CMakeFiles/light_switch_proxy_server_nrf52840_xxAA_s140_6.0.0.dir/__/__/__/mesh/core/src/enc.c.obj
                0x0002b9c8                enc_aes_encrypt
 .text.enc_aes_cmac
                0x0002b9cc        0x4 examples/light_switch/proxy_server/CMakeFiles/light_switch_proxy_server_nrf52840_xxAA_s140_6.0.0.dir/__/__/__/mesh/core/src/enc.c.obj
                0x0002b9cc                enc_aes_cmac
 .text.enc_aes_ccm_encrypt
                0x0002b9d0        0x4 examples/light_switch/proxy_server/CMakeFiles/light_switch_proxy_server_nrf52840_xxAA_s140_6.0.0.dir/__/__/__/mesh/core/src/enc.c.obj
                0x0002b9d0                enc_aes_ccm_encrypt
 .text.enc_aes_ccm_decrypt
                0x0002b9d4        0x4 examples/light_switch/proxy_server/CMakeFiles/light_switch_proxy_server_nrf52840_xxAA_s140_6.0.0.dir/__/__/__/mesh/core/src/enc.c.obj
                0x0002b9d4                enc_aes_ccm_decrypt
 .text.enc_nonce_generate
                0x0002b9d8       0xbc examples/light_switch/proxy_server/CMakeFiles/light_switch_proxy_server_nrf52840_xxAA_s140_6.0.0.dir/__/__/__/mesh/core/src/enc.c.obj
                0x0002b9d8                enc_nonce_generate
 .text.enc_s1   0x0002ba94       0x2c examples/light_switch/proxy_server/CMakeFiles/light_switch_proxy_server_nrf52840_xxAA_s140_6.0.0.dir/__/__/__/mesh/core/src/enc.c.obj
                0x0002ba94                enc_s1
 .text.enc_k1   0x0002bac0       0x3c examples/light_switch/proxy_server/CMakeFiles/light_switch_proxy_server_nrf52840_xxAA_s140_6.0.0.dir/__/__/__/mesh/core/src/enc.c.obj
                0x0002bac0                enc_k1
 .text.enc_k2   0x0002bafc       0xc8 examples/light_switch/proxy_server/CMakeFiles/light_switch_proxy_server_nrf52840_xxAA_s140_6.0.0.dir/__/__/__/mesh/core/src/enc.c.obj
                0x0002bafc                enc_k2
 .text.enc_k3   0x0002bbc4       0x5c examples/light_switch/proxy_server/CMakeFiles/light_switch_proxy_server_nrf52840_xxAA_s140_6.0.0.dir/__/__/__/mesh/core/src/enc.c.obj
                0x0002bbc4                enc_k3
 .text.enc_k4   0x0002bc20       0x54 examples/light_switch/proxy_server/CMakeFiles/light_switch_proxy_server_nrf52840_xxAA_s140_6.0.0.dir/__/__/__/mesh/core/src/enc.c.obj
                0x0002bc20                enc_k4
 .text.allocate_packet
                0x0002bc74       0x6a examples/light_switch/proxy_server/CMakeFiles/light_switch_proxy_server_nrf52840_xxAA_s140_6.0.0.dir/__/__/__/mesh/core/src/network.c.obj
 *fill*         0x0002bcde        0x2 
 .text.network_init
                0x0002bce0       0x2c examples/light_switch/proxy_server/CMakeFiles/light_switch_proxy_server_nrf52840_xxAA_s140_6.0.0.dir/__/__/__/mesh/core/src/network.c.obj
                0x0002bce0                network_init
 .text.network_opt_set
                0x0002bd0c       0x70 examples/light_switch/proxy_server/CMakeFiles/light_switch_proxy_server_nrf52840_xxAA_s140_6.0.0.dir/__/__/__/mesh/core/src/network.c.obj
                0x0002bd0c                network_opt_set
 .text.network_opt_get
                0x0002bd7c       0x4c examples/light_switch/proxy_server/CMakeFiles/light_switch_proxy_server_nrf52840_xxAA_s140_6.0.0.dir/__/__/__/mesh/core/src/network.c.obj
                0x0002bd7c                network_opt_get
 .text.network_packet_alloc
                0x0002bdc8       0x30 examples/light_switch/proxy_server/CMakeFiles/light_switch_proxy_server_nrf52840_xxAA_s140_6.0.0.dir/__/__/__/mesh/core/src/network.c.obj
                0x0002bdc8                network_packet_alloc
 .text.network_packet_send
                0x0002bdf8       0x46 examples/light_switch/proxy_server/CMakeFiles/light_switch_proxy_server_nrf52840_xxAA_s140_6.0.0.dir/__/__/__/mesh/core/src/network.c.obj
                0x0002bdf8                network_packet_send
 *fill*         0x0002be3e        0x2 
 .text.network_packet_in
                0x0002be40      0x170 examples/light_switch/proxy_server/CMakeFiles/light_switch_proxy_server_nrf52840_xxAA_s140_6.0.0.dir/__/__/__/mesh/core/src/network.c.obj
                0x0002be40                network_packet_in
 .text.nonce_type_get
                0x0002bfb0       0x16 examples/light_switch/proxy_server/CMakeFiles/light_switch_proxy_server_nrf52840_xxAA_s140_6.0.0.dir/__/__/__/mesh/core/src/net_packet.c.obj
 .text.header_transfuscate
                0x0002bfc6       0x54 examples/light_switch/proxy_server/CMakeFiles/light_switch_proxy_server_nrf52840_xxAA_s140_6.0.0.dir/__/__/__/mesh/core/src/net_packet.c.obj
 *fill*         0x0002c01a        0x2 
 .text.net_packet_decrypt
                0x0002c01c      0x224 examples/light_switch/proxy_server/CMakeFiles/light_switch_proxy_server_nrf52840_xxAA_s140_6.0.0.dir/__/__/__/mesh/core/src/net_packet.c.obj
                0x0002c01c                net_packet_decrypt
 .text.net_packet_encrypt
                0x0002c240       0x7e examples/light_switch/proxy_server/CMakeFiles/light_switch_proxy_server_nrf52840_xxAA_s140_6.0.0.dir/__/__/__/mesh/core/src/net_packet.c.obj
                0x0002c240                net_packet_encrypt
 .text.net_packet_header_set
                0x0002c2be       0xaa examples/light_switch/proxy_server/CMakeFiles/light_switch_proxy_server_nrf52840_xxAA_s140_6.0.0.dir/__/__/__/mesh/core/src/net_packet.c.obj
                0x0002c2be                net_packet_header_set
 .text.net_packet_payload_len_get
                0x0002c368       0x10 examples/light_switch/proxy_server/CMakeFiles/light_switch_proxy_server_nrf52840_xxAA_s140_6.0.0.dir/__/__/__/mesh/core/src/net_packet.c.obj
                0x0002c368                net_packet_payload_len_get
 .text.net_packet_from_payload
                0x0002c378        0x4 examples/light_switch/proxy_server/CMakeFiles/light_switch_proxy_server_nrf52840_xxAA_s140_6.0.0.dir/__/__/__/mesh/core/src/net_packet.c.obj
                0x0002c378                net_packet_from_payload
 .text.net_packet_payload_get
                0x0002c37c        0x4 examples/light_switch/proxy_server/CMakeFiles/light_switch_proxy_server_nrf52840_xxAA_s140_6.0.0.dir/__/__/__/mesh/core/src/net_packet.c.obj
                0x0002c37c                net_packet_payload_get
 .text.net_packet_obfuscation_start_get
                0x0002c380        0x4 examples/light_switch/proxy_server/CMakeFiles/light_switch_proxy_server_nrf52840_xxAA_s140_6.0.0.dir/__/__/__/mesh/core/src/net_packet.c.obj
                0x0002c380                net_packet_obfuscation_start_get
 .text.stage_get_available
                0x0002c384       0x24 examples/light_switch/proxy_server/CMakeFiles/light_switch_proxy_server_nrf52840_xxAA_s140_6.0.0.dir/__/__/__/mesh/core/src/msqueue.c.obj
 .text.msq_get  0x0002c3a8       0x38 examples/light_switch/proxy_server/CMakeFiles/light_switch_proxy_server_nrf52840_xxAA_s140_6.0.0.dir/__/__/__/mesh/core/src/msqueue.c.obj
                0x0002c3a8                msq_get
 .text.msq_move
                0x0002c3e0       0x2e examples/light_switch/proxy_server/CMakeFiles/light_switch_proxy_server_nrf52840_xxAA_s140_6.0.0.dir/__/__/__/mesh/core/src/msqueue.c.obj
                0x0002c3e0                msq_move
 .text.msq_reset
                0x0002c40e       0x20 examples/light_switch/proxy_server/CMakeFiles/light_switch_proxy_server_nrf52840_xxAA_s140_6.0.0.dir/__/__/__/mesh/core/src/msqueue.c.obj
                0x0002c40e                msq_reset
 .text.msq_init
                0x0002c42e       0x4a examples/light_switch/proxy_server/CMakeFiles/light_switch_proxy_server_nrf52840_xxAA_s140_6.0.0.dir/__/__/__/mesh/core/src/msqueue.c.obj
                0x0002c42e                msq_init
 .text.msq_available
                0x0002c478       0x26 examples/light_switch/proxy_server/CMakeFiles/light_switch_proxy_server_nrf52840_xxAA_s140_6.0.0.dir/__/__/__/mesh/core/src/msqueue.c.obj
                0x0002c478                msq_available
 .text.nrf_mesh_keygen_aid
                0x0002c49e       0x12 examples/light_switch/proxy_server/CMakeFiles/light_switch_proxy_server_nrf52840_xxAA_s140_6.0.0.dir/__/__/__/mesh/core/src/nrf_mesh_keygen.c.obj
                0x0002c49e                nrf_mesh_keygen_aid
 .text.nrf_mesh_keygen_network_secmat
                0x0002c4b0       0x20 examples/light_switch/proxy_server/CMakeFiles/light_switch_proxy_server_nrf52840_xxAA_s140_6.0.0.dir/__/__/__/mesh/core/src/nrf_mesh_keygen.c.obj
                0x0002c4b0                nrf_mesh_keygen_network_secmat
 .text.nrf_mesh_keygen_beacon_secmat
                0x0002c4d0       0x50 examples/light_switch/proxy_server/CMakeFiles/light_switch_proxy_server_nrf52840_xxAA_s140_6.0.0.dir/__/__/__/mesh/core/src/nrf_mesh_keygen.c.obj
                0x0002c4d0                nrf_mesh_keygen_beacon_secmat
 .text.nrf_mesh_keygen_identitykey
                0x0002c520       0x4c examples/light_switch/proxy_server/CMakeFiles/light_switch_proxy_server_nrf52840_xxAA_s140_6.0.0.dir/__/__/__/mesh/core/src/nrf_mesh_keygen.c.obj
                0x0002c520                nrf_mesh_keygen_identitykey
 .text.nrf_mesh_keygen_virtual_address
                0x0002c56c       0x50 examples/light_switch/proxy_server/CMakeFiles/light_switch_proxy_server_nrf52840_xxAA_s140_6.0.0.dir/__/__/__/mesh/core/src/nrf_mesh_keygen.c.obj
                0x0002c56c                nrf_mesh_keygen_virtual_address
 .text.erase_at
                0x0002c5bc       0x1c examples/light_switch/proxy_server/CMakeFiles/light_switch_proxy_server_nrf52840_xxAA_s140_6.0.0.dir/__/__/__/mesh/core/src/cache.c.obj
 .text.cache_init
                0x0002c5d8       0x1e examples/light_switch/proxy_server/CMakeFiles/light_switch_proxy_server_nrf52840_xxAA_s140_6.0.0.dir/__/__/__/mesh/core/src/cache.c.obj
                0x0002c5d8                cache_init
 .text.cache_has_elem
                0x0002c5f6       0x3e examples/light_switch/proxy_server/CMakeFiles/light_switch_proxy_server_nrf52840_xxAA_s140_6.0.0.dir/__/__/__/mesh/core/src/cache.c.obj
                0x0002c5f6                cache_has_elem
 .text.cache_put
                0x0002c634       0x2a examples/light_switch/proxy_server/CMakeFiles/light_switch_proxy_server_nrf52840_xxAA_s140_6.0.0.dir/__/__/__/mesh/core/src/cache.c.obj
                0x0002c634                cache_put
 .text.list_insert
                0x0002c65e       0x1c examples/light_switch/proxy_server/CMakeFiles/light_switch_proxy_server_nrf52840_xxAA_s140_6.0.0.dir/__/__/__/mesh/core/src/list.c.obj
 .text.list_add
                0x0002c67a       0x42 examples/light_switch/proxy_server/CMakeFiles/light_switch_proxy_server_nrf52840_xxAA_s140_6.0.0.dir/__/__/__/mesh/core/src/list.c.obj
                0x0002c67a                list_add
 .text.list_remove
                0x0002c6bc       0x3a examples/light_switch/proxy_server/CMakeFiles/light_switch_proxy_server_nrf52840_xxAA_s140_6.0.0.dir/__/__/__/mesh/core/src/list.c.obj
                0x0002c6bc                list_remove
 .text.list_compare_add
                0x0002c6f6       0x56 examples/light_switch/proxy_server/CMakeFiles/light_switch_proxy_server_nrf52840_xxAA_s140_6.0.0.dir/__/__/__/mesh/core/src/list.c.obj
                0x0002c6f6                list_compare_add
 .text.log_callback_rtt
                0x0002c74c       0x2c examples/light_switch/proxy_server/CMakeFiles/light_switch_proxy_server_nrf52840_xxAA_s140_6.0.0.dir/__/__/__/mesh/core/src/log.c.obj
                0x0002c74c                log_callback_rtt
 .text.log_init
                0x0002c778       0x1c examples/light_switch/proxy_server/CMakeFiles/light_switch_proxy_server_nrf52840_xxAA_s140_6.0.0.dir/__/__/__/mesh/core/src/log.c.obj
                0x0002c778                log_init
 .text.log_vprintf
                0x0002c794       0x18 examples/light_switch/proxy_server/CMakeFiles/light_switch_proxy_server_nrf52840_xxAA_s140_6.0.0.dir/__/__/__/mesh/core/src/log.c.obj
                0x0002c794                log_vprintf
 .text.log_printf
                0x0002c7ac       0x18 examples/light_switch/proxy_server/CMakeFiles/light_switch_proxy_server_nrf52840_xxAA_s140_6.0.0.dir/__/__/__/mesh/core/src/log.c.obj
                0x0002c7ac                log_printf
 .text.get_area_end
                0x0002c7c4        0xc examples/light_switch/proxy_server/CMakeFiles/light_switch_proxy_server_nrf52840_xxAA_s140_6.0.0.dir/__/__/__/mesh/core/src/flash_manager.c.obj
 .text.handle_matches_filter
                0x0002c7d0       0x26 examples/light_switch/proxy_server/CMakeFiles/light_switch_proxy_server_nrf52840_xxAA_s140_6.0.0.dir/__/__/__/mesh/core/src/flash_manager.c.obj
 .text.flash_area_is_blank
                0x0002c7f6       0x34 examples/light_switch/proxy_server/CMakeFiles/light_switch_proxy_server_nrf52840_xxAA_s140_6.0.0.dir/__/__/__/mesh/core/src/flash_manager.c.obj
 *fill*         0x0002c82a        0x2 
 .text.get_packet_buffer
                0x0002c82c       0x20 examples/light_switch/proxy_server/CMakeFiles/light_switch_proxy_server_nrf52840_xxAA_s140_6.0.0.dir/__/__/__/mesh/core/src/flash_manager.c.obj
 .text.flash    0x0002c84c       0x1c examples/light_switch/proxy_server/CMakeFiles/light_switch_proxy_server_nrf52840_xxAA_s140_6.0.0.dir/__/__/__/mesh/core/src/flash_manager.c.obj
 .text.free_packet_buffer
                0x0002c868       0x3c examples/light_switch/proxy_server/CMakeFiles/light_switch_proxy_server_nrf52840_xxAA_s140_6.0.0.dir/__/__/__/mesh/core/src/flash_manager.c.obj
 .text.reserve_action_buffer
                0x0002c8a4       0x24 examples/light_switch/proxy_server/CMakeFiles/light_switch_proxy_server_nrf52840_xxAA_s140_6.0.0.dir/__/__/__/mesh/core/src/flash_manager.c.obj
 .text.commit_action_buffer
                0x0002c8c8       0x18 examples/light_switch/proxy_server/CMakeFiles/light_switch_proxy_server_nrf52840_xxAA_s140_6.0.0.dir/__/__/__/mesh/core/src/flash_manager.c.obj
 .text.schedule_processing
                0x0002c8e0        0xc examples/light_switch/proxy_server/CMakeFiles/light_switch_proxy_server_nrf52840_xxAA_s140_6.0.0.dir/__/__/__/mesh/core/src/flash_manager.c.obj
 .text.get_next_entry
                0x0002c8ec       0x34 examples/light_switch/proxy_server/CMakeFiles/light_switch_proxy_server_nrf52840_xxAA_s140_6.0.0.dir/__/__/__/mesh/core/src/flash_manager.c.obj
 .text.get_last_entry.isra.1
                0x0002c920       0x30 examples/light_switch/proxy_server/CMakeFiles/light_switch_proxy_server_nrf52840_xxAA_s140_6.0.0.dir/__/__/__/mesh/core/src/flash_manager.c.obj
 .text.process_action_queue
                0x0002c950      0x3b0 examples/light_switch/proxy_server/CMakeFiles/light_switch_proxy_server_nrf52840_xxAA_s140_6.0.0.dir/__/__/__/mesh/core/src/flash_manager.c.obj
 .text.flash_op_ended_callback
                0x0002cd00       0x24 examples/light_switch/proxy_server/CMakeFiles/light_switch_proxy_server_nrf52840_xxAA_s140_6.0.0.dir/__/__/__/mesh/core/src/flash_manager.c.obj
 .text.flash_manager_init
                0x0002cd24       0x68 examples/light_switch/proxy_server/CMakeFiles/light_switch_proxy_server_nrf52840_xxAA_s140_6.0.0.dir/__/__/__/mesh/core/src/flash_manager.c.obj
                0x0002cd24                flash_manager_init
 .text.flash_manager_remove
                0x0002cd8c       0x24 examples/light_switch/proxy_server/CMakeFiles/light_switch_proxy_server_nrf52840_xxAA_s140_6.0.0.dir/__/__/__/mesh/core/src/flash_manager.c.obj
                0x0002cd8c                flash_manager_remove
 .text.flash_manager_entry_get
                0x0002cdb0       0x3c examples/light_switch/proxy_server/CMakeFiles/light_switch_proxy_server_nrf52840_xxAA_s140_6.0.0.dir/__/__/__/mesh/core/src/flash_manager.c.obj
                0x0002cdb0                flash_manager_entry_get
 .text.flash_manager_entry_next_get
                0x0002cdec       0x60 examples/light_switch/proxy_server/CMakeFiles/light_switch_proxy_server_nrf52840_xxAA_s140_6.0.0.dir/__/__/__/mesh/core/src/flash_manager.c.obj
                0x0002cdec                flash_manager_entry_next_get
 .text.flash_manager_entry_alloc
                0x0002ce4c       0x5c examples/light_switch/proxy_server/CMakeFiles/light_switch_proxy_server_nrf52840_xxAA_s140_6.0.0.dir/__/__/__/mesh/core/src/flash_manager.c.obj
                0x0002ce4c                flash_manager_entry_alloc
 .text.flash_manager_entry_commit
                0x0002cea8       0x2c examples/light_switch/proxy_server/CMakeFiles/light_switch_proxy_server_nrf52840_xxAA_s140_6.0.0.dir/__/__/__/mesh/core/src/flash_manager.c.obj
                0x0002cea8                flash_manager_entry_commit
 .text.flash_manager_entry_invalidate
                0x0002ced4       0x4e examples/light_switch/proxy_server/CMakeFiles/light_switch_proxy_server_nrf52840_xxAA_s140_6.0.0.dir/__/__/__/mesh/core/src/flash_manager.c.obj
                0x0002ced4                flash_manager_entry_invalidate
 .text.flash_manager_add
                0x0002cf22      0x1f6 examples/light_switch/proxy_server/CMakeFiles/light_switch_proxy_server_nrf52840_xxAA_s140_6.0.0.dir/__/__/__/mesh/core/src/flash_manager.c.obj
                0x0002cf22                flash_manager_add
 .text.flash_manager_mem_listener_register
                0x0002d118       0x30 examples/light_switch/proxy_server/CMakeFiles/light_switch_proxy_server_nrf52840_xxAA_s140_6.0.0.dir/__/__/__/mesh/core/src/flash_manager.c.obj
                0x0002d118                flash_manager_mem_listener_register
 .text.flash_manager_is_stable
                0x0002d148       0x24 examples/light_switch/proxy_server/CMakeFiles/light_switch_proxy_server_nrf52840_xxAA_s140_6.0.0.dir/__/__/__/mesh/core/src/flash_manager.c.obj
                0x0002d148                flash_manager_is_stable
 .text.flash_manager_on_defrag_end
                0x0002d16c       0x4c examples/light_switch/proxy_server/CMakeFiles/light_switch_proxy_server_nrf52840_xxAA_s140_6.0.0.dir/__/__/__/mesh/core/src/flash_manager.c.obj
                0x0002d16c                flash_manager_on_defrag_end
 .text.flash_manager_recovery_page_get
                0x0002d1b8        0x4 examples/light_switch/proxy_server/CMakeFiles/light_switch_proxy_server_nrf52840_xxAA_s140_6.0.0.dir/__/__/__/mesh/core/src/flash_manager.c.obj
                0x0002d1b8                flash_manager_recovery_page_get
 .text.flash_manager_action_queue_empty_cb_set
                0x0002d1bc       0x1c examples/light_switch/proxy_server/CMakeFiles/light_switch_proxy_server_nrf52840_xxAA_s140_6.0.0.dir/__/__/__/mesh/core/src/flash_manager.c.obj
                0x0002d1bc                flash_manager_action_queue_empty_cb_set
 .text.utils_xor
                0x0002d1d8       0x14 examples/light_switch/proxy_server/CMakeFiles/light_switch_proxy_server_nrf52840_xxAA_s140_6.0.0.dir/__/__/__/mesh/core/src/ccm_soft.c.obj
 .text.ccm_soft_authenticate_blocks
                0x0002d1ec       0x68 examples/light_switch/proxy_server/CMakeFiles/light_switch_proxy_server_nrf52840_xxAA_s140_6.0.0.dir/__/__/__/mesh/core/src/ccm_soft.c.obj
 .text.utils_reverse_memcpy.constprop.0
                0x0002d254        0xa examples/light_switch/proxy_server/CMakeFiles/light_switch_proxy_server_nrf52840_xxAA_s140_6.0.0.dir/__/__/__/mesh/core/src/ccm_soft.c.obj
 .text.ccm_soft_authenticate
                0x0002d25e       0xa0 examples/light_switch/proxy_server/CMakeFiles/light_switch_proxy_server_nrf52840_xxAA_s140_6.0.0.dir/__/__/__/mesh/core/src/ccm_soft.c.obj
 .text.ccm_soft_crypt
                0x0002d2fe       0x6c examples/light_switch/proxy_server/CMakeFiles/light_switch_proxy_server_nrf52840_xxAA_s140_6.0.0.dir/__/__/__/mesh/core/src/ccm_soft.c.obj
 .text.ccm_soft_encrypt
                0x0002d36a       0x70 examples/light_switch/proxy_server/CMakeFiles/light_switch_proxy_server_nrf52840_xxAA_s140_6.0.0.dir/__/__/__/mesh/core/src/ccm_soft.c.obj
                0x0002d36a                ccm_soft_encrypt
 .text.ccm_soft_decrypt
                0x0002d3da       0xfe examples/light_switch/proxy_server/CMakeFiles/light_switch_proxy_server_nrf52840_xxAA_s140_6.0.0.dir/__/__/__/mesh/core/src/ccm_soft.c.obj
                0x0002d3da                ccm_soft_decrypt
 .text.replay_cache_add
                0x0002d4d8       0x50 examples/light_switch/proxy_server/CMakeFiles/light_switch_proxy_server_nrf52840_xxAA_s140_6.0.0.dir/__/__/__/mesh/core/src/replay_cache.c.obj
                0x0002d4d8                replay_cache_add
 .text.replay_cache_has_elem
                0x0002d528       0x38 examples/light_switch/proxy_server/CMakeFiles/light_switch_proxy_server_nrf52840_xxAA_s140_6.0.0.dir/__/__/__/mesh/core/src/replay_cache.c.obj
                0x0002d528                replay_cache_has_elem
 .text.replay_cache_clear
                0x0002d560       0x20 examples/light_switch/proxy_server/CMakeFiles/light_switch_proxy_server_nrf52840_xxAA_s140_6.0.0.dir/__/__/__/mesh/core/src/replay_cache.c.obj
                0x0002d560                replay_cache_clear
 .text.replay_cache_init
                0x0002d580        0x4 examples/light_switch/proxy_server/CMakeFiles/light_switch_proxy_server_nrf52840_xxAA_s140_6.0.0.dir/__/__/__/mesh/core/src/replay_cache.c.obj
                0x0002d580                replay_cache_init
 .text.beacon_create
                0x0002d584       0x46 examples/light_switch/proxy_server/CMakeFiles/light_switch_proxy_server_nrf52840_xxAA_s140_6.0.0.dir/__/__/__/mesh/core/src/beacon.c.obj
                0x0002d584                beacon_create
 *fill*         0x0002d5ca        0x2 
 .text.beacon_packet_in
                0x0002d5cc      0x154 examples/light_switch/proxy_server/CMakeFiles/light_switch_proxy_server_nrf52840_xxAA_s140_6.0.0.dir/__/__/__/mesh/core/src/beacon.c.obj
                0x0002d5cc                beacon_packet_in
 .text.entry_get
                0x0002d720       0x78 examples/light_switch/proxy_server/CMakeFiles/light_switch_proxy_server_nrf52840_xxAA_s140_6.0.0.dir/__/__/__/mesh/core/src/flash_manager_internal.c.obj
                0x0002d720                entry_get
 .text.core_tx_complete_cb_set
                0x0002d798        0xc examples/light_switch/proxy_server/CMakeFiles/light_switch_proxy_server_nrf52840_xxAA_s140_6.0.0.dir/__/__/__/mesh/core/src/core_tx.c.obj
                0x0002d798                core_tx_complete_cb_set
 .text.core_tx_packet_alloc
                0x0002d7a4       0x98 examples/light_switch/proxy_server/CMakeFiles/light_switch_proxy_server_nrf52840_xxAA_s140_6.0.0.dir/__/__/__/mesh/core/src/core_tx.c.obj
                0x0002d7a4                core_tx_packet_alloc
 .text.core_tx_packet_send
                0x0002d83c       0x4c examples/light_switch/proxy_server/CMakeFiles/light_switch_proxy_server_nrf52840_xxAA_s140_6.0.0.dir/__/__/__/mesh/core/src/core_tx.c.obj
                0x0002d83c                core_tx_packet_send
 .text.core_tx_packet_discard
                0x0002d888       0x40 examples/light_switch/proxy_server/CMakeFiles/light_switch_proxy_server_nrf52840_xxAA_s140_6.0.0.dir/__/__/__/mesh/core/src/core_tx.c.obj
                0x0002d888                core_tx_packet_discard
 .text.core_tx_complete
                0x0002d8c8       0x34 examples/light_switch/proxy_server/CMakeFiles/light_switch_proxy_server_nrf52840_xxAA_s140_6.0.0.dir/__/__/__/mesh/core/src/core_tx.c.obj
                0x0002d8c8                core_tx_complete
 .text.core_tx_bearer_add
                0x0002d8fc       0x70 examples/light_switch/proxy_server/CMakeFiles/light_switch_proxy_server_nrf52840_xxAA_s140_6.0.0.dir/__/__/__/mesh/core/src/core_tx.c.obj
                0x0002d8fc                core_tx_bearer_add
 .text.heartbeat_subscription_timer_cb
                0x0002d96c       0x1c examples/light_switch/proxy_server/CMakeFiles/light_switch_proxy_server_nrf52840_xxAA_s140_6.0.0.dir/__/__/__/mesh/core/src/heartbeat.c.obj
 .text.heartbeat_opcode_handle
                0x0002d988       0x88 examples/light_switch/proxy_server/CMakeFiles/light_switch_proxy_server_nrf52840_xxAA_s140_6.0.0.dir/__/__/__/mesh/core/src/heartbeat.c.obj
 .text.heartbeat_send
                0x0002da10       0xb0 examples/light_switch/proxy_server/CMakeFiles/light_switch_proxy_server_nrf52840_xxAA_s140_6.0.0.dir/__/__/__/mesh/core/src/heartbeat.c.obj
 .text.heartbeat_publication_timer_cb
                0x0002dac0       0xa8 examples/light_switch/proxy_server/CMakeFiles/light_switch_proxy_server_nrf52840_xxAA_s140_6.0.0.dir/__/__/__/mesh/core/src/heartbeat.c.obj
 .text.heartbeat_core_evt_cb
                0x0002db68       0x7c examples/light_switch/proxy_server/CMakeFiles/light_switch_proxy_server_nrf52840_xxAA_s140_6.0.0.dir/__/__/__/mesh/core/src/heartbeat.c.obj
 .text.heartbeat_on_feature_change_trigger
                0x0002dbe4       0x44 examples/light_switch/proxy_server/CMakeFiles/light_switch_proxy_server_nrf52840_xxAA_s140_6.0.0.dir/__/__/__/mesh/core/src/heartbeat.c.obj
                0x0002dbe4                heartbeat_on_feature_change_trigger
 .text.heartbeat_init
                0x0002dc28       0x78 examples/light_switch/proxy_server/CMakeFiles/light_switch_proxy_server_nrf52840_xxAA_s140_6.0.0.dir/__/__/__/mesh/core/src/heartbeat.c.obj
                0x0002dc28                heartbeat_init
 .text.heartbeat_subscription_set
                0x0002dca0       0xa4 examples/light_switch/proxy_server/CMakeFiles/light_switch_proxy_server_nrf52840_xxAA_s140_6.0.0.dir/__/__/__/mesh/core/src/heartbeat.c.obj
                0x0002dca0                heartbeat_subscription_set
 .text.heartbeat_subscription_get
                0x0002dd44        0x8 examples/light_switch/proxy_server/CMakeFiles/light_switch_proxy_server_nrf52840_xxAA_s140_6.0.0.dir/__/__/__/mesh/core/src/heartbeat.c.obj
                0x0002dd44                heartbeat_subscription_get
 .text.heartbeat_config_server_cb_set
                0x0002dd4c       0x28 examples/light_switch/proxy_server/CMakeFiles/light_switch_proxy_server_nrf52840_xxAA_s140_6.0.0.dir/__/__/__/mesh/core/src/heartbeat.c.obj
                0x0002dd4c                heartbeat_config_server_cb_set
 .text.heartbeat_publication_state_updated
                0x0002dd74       0x74 examples/light_switch/proxy_server/CMakeFiles/light_switch_proxy_server_nrf52840_xxAA_s140_6.0.0.dir/__/__/__/mesh/core/src/heartbeat.c.obj
                0x0002dd74                heartbeat_publication_state_updated
 .text.make_network_beacon_packet
                0x0002dde8       0x50 examples/light_switch/proxy_server/CMakeFiles/light_switch_proxy_server_nrf52840_xxAA_s140_6.0.0.dir/__/__/__/mesh/core/src/net_beacon.c.obj
 .text.beacon_tx
                0x0002de38      0x12c examples/light_switch/proxy_server/CMakeFiles/light_switch_proxy_server_nrf52840_xxAA_s140_6.0.0.dir/__/__/__/mesh/core/src/net_beacon.c.obj
 .text.tx_complete_cb
                0x0002df64        0xe examples/light_switch/proxy_server/CMakeFiles/light_switch_proxy_server_nrf52840_xxAA_s140_6.0.0.dir/__/__/__/mesh/core/src/net_beacon.c.obj
 .text.beacon_tx_timeout
                0x0002df72        0x4 examples/light_switch/proxy_server/CMakeFiles/light_switch_proxy_server_nrf52840_xxAA_s140_6.0.0.dir/__/__/__/mesh/core/src/net_beacon.c.obj
 .text.is_valid_beacon_pkt.part.0
                0x0002df76       0x30 examples/light_switch/proxy_server/CMakeFiles/light_switch_proxy_server_nrf52840_xxAA_s140_6.0.0.dir/__/__/__/mesh/core/src/net_beacon.c.obj
 *fill*         0x0002dfa6        0x2 
 .text.net_beacon_init
                0x0002dfa8       0x94 examples/light_switch/proxy_server/CMakeFiles/light_switch_proxy_server_nrf52840_xxAA_s140_6.0.0.dir/__/__/__/mesh/core/src/net_beacon.c.obj
                0x0002dfa8                net_beacon_init
 .text.net_beacon_state_set
                0x0002e03c       0x34 examples/light_switch/proxy_server/CMakeFiles/light_switch_proxy_server_nrf52840_xxAA_s140_6.0.0.dir/__/__/__/mesh/core/src/net_beacon.c.obj
                0x0002e03c                net_beacon_state_set
 .text.net_beacon_state_get
                0x0002e070        0xc examples/light_switch/proxy_server/CMakeFiles/light_switch_proxy_server_nrf52840_xxAA_s140_6.0.0.dir/__/__/__/mesh/core/src/net_beacon.c.obj
                0x0002e070                net_beacon_state_get
 .text.net_beacon_build
                0x0002e07c       0x24 examples/light_switch/proxy_server/CMakeFiles/light_switch_proxy_server_nrf52840_xxAA_s140_6.0.0.dir/__/__/__/mesh/core/src/net_beacon.c.obj
                0x0002e07c                net_beacon_build
 .text.net_beacon_packet_in
                0x0002e0a0       0xf2 examples/light_switch/proxy_server/CMakeFiles/light_switch_proxy_server_nrf52840_xxAA_s140_6.0.0.dir/__/__/__/mesh/core/src/net_beacon.c.obj
                0x0002e0a0                net_beacon_packet_in
 *fill*         0x0002e192        0x2 
 .text.fsm_event_post_try
                0x0002e194      0x1ec examples/light_switch/proxy_server/CMakeFiles/light_switch_proxy_server_nrf52840_xxAA_s140_6.0.0.dir/__/__/__/mesh/core/src/fsm.c.obj
 .text.fsm_init
                0x0002e380       0xcc examples/light_switch/proxy_server/CMakeFiles/light_switch_proxy_server_nrf52840_xxAA_s140_6.0.0.dir/__/__/__/mesh/core/src/fsm.c.obj
                0x0002e380                fsm_init
 .text.fsm_event_post
                0x0002e44c       0xac examples/light_switch/proxy_server/CMakeFiles/light_switch_proxy_server_nrf52840_xxAA_s140_6.0.0.dir/__/__/__/mesh/core/src/fsm.c.obj
                0x0002e44c                fsm_event_post
 .text.fsm_is_processing
                0x0002e4f8        0xa examples/light_switch/proxy_server/CMakeFiles/light_switch_proxy_server_nrf52840_xxAA_s140_6.0.0.dir/__/__/__/mesh/core/src/fsm.c.obj
                0x0002e4f8                fsm_is_processing
 *fill*         0x0002e502        0x2 
 .text.packet_discard
                0x0002e504       0x40 examples/light_switch/proxy_server/CMakeFiles/light_switch_proxy_server_nrf52840_xxAA_s140_6.0.0.dir/__/__/__/mesh/core/src/core_tx_adv.c.obj
 .text.packet_send
                0x0002e544       0x58 examples/light_switch/proxy_server/CMakeFiles/light_switch_proxy_server_nrf52840_xxAA_s140_6.0.0.dir/__/__/__/mesh/core/src/core_tx_adv.c.obj
 .text.packet_alloc
                0x0002e59c       0x58 examples/light_switch/proxy_server/CMakeFiles/light_switch_proxy_server_nrf52840_xxAA_s140_6.0.0.dir/__/__/__/mesh/core/src/core_tx_adv.c.obj
 .text.adv_tx_complete_callback
                0x0002e5f4       0x20 examples/light_switch/proxy_server/CMakeFiles/light_switch_proxy_server_nrf52840_xxAA_s140_6.0.0.dir/__/__/__/mesh/core/src/core_tx_adv.c.obj
 .text.core_tx_adv_init
                0x0002e614       0x60 examples/light_switch/proxy_server/CMakeFiles/light_switch_proxy_server_nrf52840_xxAA_s140_6.0.0.dir/__/__/__/mesh/core/src/core_tx_adv.c.obj
                0x0002e614                core_tx_adv_init
 .text.core_tx_adv_count_set
                0x0002e674       0x28 examples/light_switch/proxy_server/CMakeFiles/light_switch_proxy_server_nrf52840_xxAA_s140_6.0.0.dir/__/__/__/mesh/core/src/core_tx_adv.c.obj
                0x0002e674                core_tx_adv_count_set
 .text.core_tx_adv_count_get
                0x0002e69c       0x1c examples/light_switch/proxy_server/CMakeFiles/light_switch_proxy_server_nrf52840_xxAA_s140_6.0.0.dir/__/__/__/mesh/core/src/core_tx_adv.c.obj
                0x0002e69c                core_tx_adv_count_get
 .text.core_tx_adv_interval_set
                0x0002e6b8       0x28 examples/light_switch/proxy_server/CMakeFiles/light_switch_proxy_server_nrf52840_xxAA_s140_6.0.0.dir/__/__/__/mesh/core/src/core_tx_adv.c.obj
                0x0002e6b8                core_tx_adv_interval_set
 .text.core_tx_adv_interval_get
                0x0002e6e0       0x28 examples/light_switch/proxy_server/CMakeFiles/light_switch_proxy_server_nrf52840_xxAA_s140_6.0.0.dir/__/__/__/mesh/core/src/core_tx_adv.c.obj
                0x0002e6e0                core_tx_adv_interval_get
 .text.ad_listener_subscribe
                0x0002e708       0x5c examples/light_switch/proxy_server/CMakeFiles/light_switch_proxy_server_nrf52840_xxAA_s140_6.0.0.dir/__/__/__/mesh/bearer/src/ad_listener.c.obj
                0x0002e708                ad_listener_subscribe
 .text.ad_listener_process
                0x0002e764       0x64 examples/light_switch/proxy_server/CMakeFiles/light_switch_proxy_server_nrf52840_xxAA_s140_6.0.0.dir/__/__/__/mesh/bearer/src/ad_listener.c.obj
                0x0002e764                ad_listener_process
 .text.adtype_filter_handle
                0x0002e7c8       0x64 examples/light_switch/proxy_server/CMakeFiles/light_switch_proxy_server_nrf52840_xxAA_s140_6.0.0.dir/__/__/__/mesh/bearer/src/ad_type_filter.c.obj
 .text.bearer_adtype_filtering_set
                0x0002e82c       0x1c examples/light_switch/proxy_server/CMakeFiles/light_switch_proxy_server_nrf52840_xxAA_s140_6.0.0.dir/__/__/__/mesh/bearer/src/ad_type_filter.c.obj
                0x0002e82c                bearer_adtype_filtering_set
 .text.bearer_adtype_add
                0x0002e848       0x20 examples/light_switch/proxy_server/CMakeFiles/light_switch_proxy_server_nrf52840_xxAA_s140_6.0.0.dir/__/__/__/mesh/bearer/src/ad_type_filter.c.obj
                0x0002e848                bearer_adtype_add
 .text.bearer_adtype_mode_set
                0x0002e868       0x18 examples/light_switch/proxy_server/CMakeFiles/light_switch_proxy_server_nrf52840_xxAA_s140_6.0.0.dir/__/__/__/mesh/bearer/src/ad_type_filter.c.obj
                0x0002e868                bearer_adtype_mode_set
 .text.tx_complete_event_callback
                0x0002e880       0x28 examples/light_switch/proxy_server/CMakeFiles/light_switch_proxy_server_nrf52840_xxAA_s140_6.0.0.dir/__/__/__/mesh/bearer/src/advertiser.c.obj
 .text.set_gap_addr_type
                0x0002e8a8       0x26 examples/light_switch/proxy_server/CMakeFiles/light_switch_proxy_server_nrf52840_xxAA_s140_6.0.0.dir/__/__/__/mesh/bearer/src/advertiser.c.obj
 .text.broadcast_complete_cb
                0x0002e8ce       0x46 examples/light_switch/proxy_server/CMakeFiles/light_switch_proxy_server_nrf52840_xxAA_s140_6.0.0.dir/__/__/__/mesh/bearer/src/advertiser.c.obj
 .text.schedule_first_time
                0x0002e914       0x28 examples/light_switch/proxy_server/CMakeFiles/light_switch_proxy_server_nrf52840_xxAA_s140_6.0.0.dir/__/__/__/mesh/bearer/src/advertiser.c.obj
 .text.timeout_event
                0x0002e93c      0x10c examples/light_switch/proxy_server/CMakeFiles/light_switch_proxy_server_nrf52840_xxAA_s140_6.0.0.dir/__/__/__/mesh/bearer/src/advertiser.c.obj
 .text.advertiser_init
                0x0002ea48        0xc examples/light_switch/proxy_server/CMakeFiles/light_switch_proxy_server_nrf52840_xxAA_s140_6.0.0.dir/__/__/__/mesh/bearer/src/advertiser.c.obj
                0x0002ea48                advertiser_init
 .text.advertiser_enable
                0x0002ea54       0x2a examples/light_switch/proxy_server/CMakeFiles/light_switch_proxy_server_nrf52840_xxAA_s140_6.0.0.dir/__/__/__/mesh/bearer/src/advertiser.c.obj
                0x0002ea54                advertiser_enable
 .text.advertiser_packet_alloc
                0x0002ea7e       0x76 examples/light_switch/proxy_server/CMakeFiles/light_switch_proxy_server_nrf52840_xxAA_s140_6.0.0.dir/__/__/__/mesh/bearer/src/advertiser.c.obj
                0x0002ea7e                advertiser_packet_alloc
 .text.advertiser_packet_send
                0x0002eaf4       0x62 examples/light_switch/proxy_server/CMakeFiles/light_switch_proxy_server_nrf52840_xxAA_s140_6.0.0.dir/__/__/__/mesh/bearer/src/advertiser.c.obj
                0x0002eaf4                advertiser_packet_send
 .text.advertiser_packet_discard
                0x0002eb56       0x1e examples/light_switch/proxy_server/CMakeFiles/light_switch_proxy_server_nrf52840_xxAA_s140_6.0.0.dir/__/__/__/mesh/bearer/src/advertiser.c.obj
                0x0002eb56                advertiser_packet_discard
 .text.advertiser_interval_set
                0x0002eb74       0x54 examples/light_switch/proxy_server/CMakeFiles/light_switch_proxy_server_nrf52840_xxAA_s140_6.0.0.dir/__/__/__/mesh/bearer/src/advertiser.c.obj
                0x0002eb74                advertiser_interval_set
 .text.advertiser_flush
                0x0002ebc8       0x1e examples/light_switch/proxy_server/CMakeFiles/light_switch_proxy_server_nrf52840_xxAA_s140_6.0.0.dir/__/__/__/mesh/bearer/src/advertiser.c.obj
                0x0002ebc8                advertiser_flush
 *fill*         0x0002ebe6        0x2 
 .text.advertiser_address_default_get
                0x0002ebe8       0x38 examples/light_switch/proxy_server/CMakeFiles/light_switch_proxy_server_nrf52840_xxAA_s140_6.0.0.dir/__/__/__/mesh/bearer/src/advertiser.c.obj
                0x0002ebe8                advertiser_address_default_get
 .text.advertiser_instance_init
                0x0002ec20       0xa4 examples/light_switch/proxy_server/CMakeFiles/light_switch_proxy_server_nrf52840_xxAA_s140_6.0.0.dir/__/__/__/mesh/bearer/src/advertiser.c.obj
                0x0002ec20                advertiser_instance_init
 .text.action_switch
                0x0002ecc4       0xb4 examples/light_switch/proxy_server/CMakeFiles/light_switch_proxy_server_nrf52840_xxAA_s140_6.0.0.dir/__/__/__/mesh/bearer/src/bearer_handler.c.obj
 .text.bearer_handler_init
                0x0002ed78       0x2c examples/light_switch/proxy_server/CMakeFiles/light_switch_proxy_server_nrf52840_xxAA_s140_6.0.0.dir/__/__/__/mesh/bearer/src/bearer_handler.c.obj
                0x0002ed78                bearer_handler_init
 .text.bearer_handler_start
                0x0002eda4       0x1c examples/light_switch/proxy_server/CMakeFiles/light_switch_proxy_server_nrf52840_xxAA_s140_6.0.0.dir/__/__/__/mesh/bearer/src/bearer_handler.c.obj
                0x0002eda4                bearer_handler_start
 .text.bearer_handler_stop
                0x0002edc0       0x20 examples/light_switch/proxy_server/CMakeFiles/light_switch_proxy_server_nrf52840_xxAA_s140_6.0.0.dir/__/__/__/mesh/bearer/src/bearer_handler.c.obj
                0x0002edc0                bearer_handler_stop
 .text.bearer_handler_action_enqueue
                0x0002ede0       0x6c examples/light_switch/proxy_server/CMakeFiles/light_switch_proxy_server_nrf52840_xxAA_s140_6.0.0.dir/__/__/__/mesh/bearer/src/bearer_handler.c.obj
                0x0002ede0                bearer_handler_action_enqueue
 .text.bearer_handler_action_end
                0x0002ee4c       0x5c examples/light_switch/proxy_server/CMakeFiles/light_switch_proxy_server_nrf52840_xxAA_s140_6.0.0.dir/__/__/__/mesh/bearer/src/bearer_handler.c.obj
                0x0002ee4c                bearer_handler_action_end
 .text.bearer_handler_radio_irq_handler
                0x0002eea8       0x48 examples/light_switch/proxy_server/CMakeFiles/light_switch_proxy_server_nrf52840_xxAA_s140_6.0.0.dir/__/__/__/mesh/bearer/src/bearer_handler.c.obj
                0x0002eea8                bearer_handler_radio_irq_handler
 .text.bearer_handler_timer_irq_handler
                0x0002eef0       0x24 examples/light_switch/proxy_server/CMakeFiles/light_switch_proxy_server_nrf52840_xxAA_s140_6.0.0.dir/__/__/__/mesh/bearer/src/bearer_handler.c.obj
                0x0002eef0                bearer_handler_timer_irq_handler
 .text.bearer_handler_on_ts_begin
                0x0002ef14       0x30 examples/light_switch/proxy_server/CMakeFiles/light_switch_proxy_server_nrf52840_xxAA_s140_6.0.0.dir/__/__/__/mesh/bearer/src/bearer_handler.c.obj
                0x0002ef14                bearer_handler_on_ts_begin
 .text.bearer_handler_on_ts_end
                0x0002ef44       0x34 examples/light_switch/proxy_server/CMakeFiles/light_switch_proxy_server_nrf52840_xxAA_s140_6.0.0.dir/__/__/__/mesh/bearer/src/bearer_handler.c.obj
                0x0002ef44                bearer_handler_on_ts_end
 .text.radio_irq_handler
                0x0002ef78       0x94 examples/light_switch/proxy_server/CMakeFiles/light_switch_proxy_server_nrf52840_xxAA_s140_6.0.0.dir/__/__/__/mesh/bearer/src/broadcast.c.obj
 .text.broadcast_start
                0x0002f00c       0x8c examples/light_switch/proxy_server/CMakeFiles/light_switch_proxy_server_nrf52840_xxAA_s140_6.0.0.dir/__/__/__/mesh/bearer/src/broadcast.c.obj
 .text.broadcast_send
                0x0002f098       0x6c examples/light_switch/proxy_server/CMakeFiles/light_switch_proxy_server_nrf52840_xxAA_s140_6.0.0.dir/__/__/__/mesh/bearer/src/broadcast.c.obj
                0x0002f098                broadcast_send
 .text.fen_filter_start
                0x0002f104       0x28 examples/light_switch/proxy_server/CMakeFiles/light_switch_proxy_server_nrf52840_xxAA_s140_6.0.0.dir/__/__/__/mesh/bearer/src/filter_engine.c.obj
                0x0002f104                fen_filter_start
 .text.fen_filter_stop
                0x0002f12c       0x20 examples/light_switch/proxy_server/CMakeFiles/light_switch_proxy_server_nrf52840_xxAA_s140_6.0.0.dir/__/__/__/mesh/bearer/src/filter_engine.c.obj
                0x0002f12c                fen_filter_stop
 .text.fen_filters_apply
                0x0002f14c       0x34 examples/light_switch/proxy_server/CMakeFiles/light_switch_proxy_server_nrf52840_xxAA_s140_6.0.0.dir/__/__/__/mesh/bearer/src/filter_engine.c.obj
                0x0002f14c                fen_filters_apply
 .text.radio_config_reset
                0x0002f180       0x34 examples/light_switch/proxy_server/CMakeFiles/light_switch_proxy_server_nrf52840_xxAA_s140_6.0.0.dir/__/__/__/mesh/bearer/src/radio_config.c.obj
                0x0002f180                radio_config_reset
 .text.radio_config_channel_set
                0x0002f1b4       0x28 examples/light_switch/proxy_server/CMakeFiles/light_switch_proxy_server_nrf52840_xxAA_s140_6.0.0.dir/__/__/__/mesh/bearer/src/radio_config.c.obj
                0x0002f1b4                radio_config_channel_set
 .text.radio_config_config
                0x0002f1dc       0x90 examples/light_switch/proxy_server/CMakeFiles/light_switch_proxy_server_nrf52840_xxAA_s140_6.0.0.dir/__/__/__/mesh/bearer/src/radio_config.c.obj
                0x0002f1dc                radio_config_config
 .text.radio_config_access_addr_set
                0x0002f26c       0x50 examples/light_switch/proxy_server/CMakeFiles/light_switch_proxy_server_nrf52840_xxAA_s140_6.0.0.dir/__/__/__/mesh/bearer/src/radio_config.c.obj
                0x0002f26c                radio_config_access_addr_set
 .text.radio_trigger
                0x0002f2bc       0x24 examples/light_switch/proxy_server/CMakeFiles/light_switch_proxy_server_nrf52840_xxAA_s140_6.0.0.dir/__/__/__/mesh/bearer/src/scanner.c.obj
 .text.scan_window_end
                0x0002f2e0       0x10 examples/light_switch/proxy_server/CMakeFiles/light_switch_proxy_server_nrf52840_xxAA_s140_6.0.0.dir/__/__/__/mesh/bearer/src/scanner.c.obj
 .text.scan_window_start
                0x0002f2f0       0x24 examples/light_switch/proxy_server/CMakeFiles/light_switch_proxy_server_nrf52840_xxAA_s140_6.0.0.dir/__/__/__/mesh/bearer/src/scanner.c.obj
 .text.radio_configure
                0x0002f314       0x78 examples/light_switch/proxy_server/CMakeFiles/light_switch_proxy_server_nrf52840_xxAA_s140_6.0.0.dir/__/__/__/mesh/bearer/src/scanner.c.obj
 .text.radio_set_packet
                0x0002f38c       0x44 examples/light_switch/proxy_server/CMakeFiles/light_switch_proxy_server_nrf52840_xxAA_s140_6.0.0.dir/__/__/__/mesh/bearer/src/scanner.c.obj
 .text.radio_start
                0x0002f3d0       0x40 examples/light_switch/proxy_server/CMakeFiles/light_switch_proxy_server_nrf52840_xxAA_s140_6.0.0.dir/__/__/__/mesh/bearer/src/scanner.c.obj
 .text.radio_stop
                0x0002f410       0x30 examples/light_switch/proxy_server/CMakeFiles/light_switch_proxy_server_nrf52840_xxAA_s140_6.0.0.dir/__/__/__/mesh/bearer/src/scanner.c.obj
 .text.schedule_timers
                0x0002f440       0x38 examples/light_switch/proxy_server/CMakeFiles/light_switch_proxy_server_nrf52840_xxAA_s140_6.0.0.dir/__/__/__/mesh/bearer/src/scanner.c.obj
 .text.scanner_radio_start
                0x0002f478       0x28 examples/light_switch/proxy_server/CMakeFiles/light_switch_proxy_server_nrf52840_xxAA_s140_6.0.0.dir/__/__/__/mesh/bearer/src/scanner.c.obj
                0x0002f478                scanner_radio_start
 .text.scanner_radio_stop
                0x0002f4a0       0x10 examples/light_switch/proxy_server/CMakeFiles/light_switch_proxy_server_nrf52840_xxAA_s140_6.0.0.dir/__/__/__/mesh/bearer/src/scanner.c.obj
                0x0002f4a0                scanner_radio_stop
 .text.scanner_radio_irq_handler
                0x0002f4b0      0x130 examples/light_switch/proxy_server/CMakeFiles/light_switch_proxy_server_nrf52840_xxAA_s140_6.0.0.dir/__/__/__/mesh/bearer/src/scanner.c.obj
                0x0002f4b0                scanner_radio_irq_handler
 .text.scanner_enable
                0x0002f5e0       0x24 examples/light_switch/proxy_server/CMakeFiles/light_switch_proxy_server_nrf52840_xxAA_s140_6.0.0.dir/__/__/__/mesh/bearer/src/scanner.c.obj
                0x0002f5e0                scanner_enable
 .text.scanner_disable
                0x0002f604       0x3c examples/light_switch/proxy_server/CMakeFiles/light_switch_proxy_server_nrf52840_xxAA_s140_6.0.0.dir/__/__/__/mesh/bearer/src/scanner.c.obj
                0x0002f604                scanner_disable
 .text.scanner_packet_release
                0x0002f640       0x2c examples/light_switch/proxy_server/CMakeFiles/light_switch_proxy_server_nrf52840_xxAA_s140_6.0.0.dir/__/__/__/mesh/bearer/src/scanner.c.obj
                0x0002f640                scanner_packet_release
 .text.scanner_rx
                0x0002f66c       0x30 examples/light_switch/proxy_server/CMakeFiles/light_switch_proxy_server_nrf52840_xxAA_s140_6.0.0.dir/__/__/__/mesh/bearer/src/scanner.c.obj
                0x0002f66c                scanner_rx
 .text.scanner_rx_pending
                0x0002f69c        0xc examples/light_switch/proxy_server/CMakeFiles/light_switch_proxy_server_nrf52840_xxAA_s140_6.0.0.dir/__/__/__/mesh/bearer/src/scanner.c.obj
                0x0002f69c                scanner_rx_pending
 .text.scanner_config_scan_time_set
                0x0002f6a8       0x4c examples/light_switch/proxy_server/CMakeFiles/light_switch_proxy_server_nrf52840_xxAA_s140_6.0.0.dir/__/__/__/mesh/bearer/src/scanner.c.obj
                0x0002f6a8                scanner_config_scan_time_set
 .text.scanner_config_channels_set
                0x0002f6f4       0x50 examples/light_switch/proxy_server/CMakeFiles/light_switch_proxy_server_nrf52840_xxAA_s140_6.0.0.dir/__/__/__/mesh/bearer/src/scanner.c.obj
                0x0002f6f4                scanner_config_channels_set
 .text.scanner_config_access_addresses_set
                0x0002f744       0x38 examples/light_switch/proxy_server/CMakeFiles/light_switch_proxy_server_nrf52840_xxAA_s140_6.0.0.dir/__/__/__/mesh/bearer/src/scanner.c.obj
                0x0002f744                scanner_config_access_addresses_set
 .text.scanner_config_reset
                0x0002f77c       0x50 examples/light_switch/proxy_server/CMakeFiles/light_switch_proxy_server_nrf52840_xxAA_s140_6.0.0.dir/__/__/__/mesh/bearer/src/scanner.c.obj
                0x0002f77c                scanner_config_reset
 .text.scanner_init
                0x0002f7cc       0x54 examples/light_switch/proxy_server/CMakeFiles/light_switch_proxy_server_nrf52840_xxAA_s140_6.0.0.dir/__/__/__/mesh/bearer/src/scanner.c.obj
                0x0002f7cc                scanner_init
 .text.sd_ble_gap_disconnect
                0x0002f820        0x4 examples/light_switch/proxy_server/CMakeFiles/light_switch_proxy_server_nrf52840_xxAA_s140_6.0.0.dir/__/__/__/mesh/gatt/src/mesh_gatt.c.obj
 .text.sd_ble_gap_sec_params_reply
                0x0002f824        0x4 examples/light_switch/proxy_server/CMakeFiles/light_switch_proxy_server_nrf52840_xxAA_s140_6.0.0.dir/__/__/__/mesh/gatt/src/mesh_gatt.c.obj
 .text.sd_ble_gap_phy_update
                0x0002f828        0x4 examples/light_switch/proxy_server/CMakeFiles/light_switch_proxy_server_nrf52840_xxAA_s140_6.0.0.dir/__/__/__/mesh/gatt/src/mesh_gatt.c.obj
 .text.sd_ble_gap_data_length_update
                0x0002f82c        0x4 examples/light_switch/proxy_server/CMakeFiles/light_switch_proxy_server_nrf52840_xxAA_s140_6.0.0.dir/__/__/__/mesh/gatt/src/mesh_gatt.c.obj
 .text.sd_ble_gatts_service_add
                0x0002f830        0x4 examples/light_switch/proxy_server/CMakeFiles/light_switch_proxy_server_nrf52840_xxAA_s140_6.0.0.dir/__/__/__/mesh/gatt/src/mesh_gatt.c.obj
 .text.sd_ble_gatts_characteristic_add
                0x0002f834        0x4 examples/light_switch/proxy_server/CMakeFiles/light_switch_proxy_server_nrf52840_xxAA_s140_6.0.0.dir/__/__/__/mesh/gatt/src/mesh_gatt.c.obj
 .text.sd_ble_gatts_hvx
                0x0002f838        0x4 examples/light_switch/proxy_server/CMakeFiles/light_switch_proxy_server_nrf52840_xxAA_s140_6.0.0.dir/__/__/__/mesh/gatt/src/mesh_gatt.c.obj
 .text.sd_ble_gatts_service_changed
                0x0002f83c        0x4 examples/light_switch/proxy_server/CMakeFiles/light_switch_proxy_server_nrf52840_xxAA_s140_6.0.0.dir/__/__/__/mesh/gatt/src/mesh_gatt.c.obj
 .text.sd_ble_gatts_sys_attr_set
                0x0002f840        0x4 examples/light_switch/proxy_server/CMakeFiles/light_switch_proxy_server_nrf52840_xxAA_s140_6.0.0.dir/__/__/__/mesh/gatt/src/mesh_gatt.c.obj
 .text.sd_ble_gatts_exchange_mtu_reply
                0x0002f844        0x4 examples/light_switch/proxy_server/CMakeFiles/light_switch_proxy_server_nrf52840_xxAA_s140_6.0.0.dir/__/__/__/mesh/gatt/src/mesh_gatt.c.obj
 .text.conn_handle_to_index
                0x0002f848       0x14 examples/light_switch/proxy_server/CMakeFiles/light_switch_proxy_server_nrf52840_xxAA_s140_6.0.0.dir/__/__/__/mesh/gatt/src/mesh_gatt.c.obj
 .text.timeout_cb
                0x0002f85c       0x1c examples/light_switch/proxy_server/CMakeFiles/light_switch_proxy_server_nrf52840_xxAA_s140_6.0.0.dir/__/__/__/mesh/gatt/src/mesh_gatt.c.obj
 .text.mesh_gatt_init
                0x0002f878      0x154 examples/light_switch/proxy_server/CMakeFiles/light_switch_proxy_server_nrf52840_xxAA_s140_6.0.0.dir/__/__/__/mesh/gatt/src/mesh_gatt.c.obj
                0x0002f878                mesh_gatt_init
 .text.mesh_gatt_packet_alloc
                0x0002f9cc       0x7c examples/light_switch/proxy_server/CMakeFiles/light_switch_proxy_server_nrf52840_xxAA_s140_6.0.0.dir/__/__/__/mesh/gatt/src/mesh_gatt.c.obj
                0x0002f9cc                mesh_gatt_packet_alloc
 .text.mesh_gatt_packet_discard
                0x0002fa48       0x48 examples/light_switch/proxy_server/CMakeFiles/light_switch_proxy_server_nrf52840_xxAA_s140_6.0.0.dir/__/__/__/mesh/gatt/src/mesh_gatt.c.obj
                0x0002fa48                mesh_gatt_packet_discard
 .text.mesh_gatt_disconnect
                0x0002fa90       0x30 examples/light_switch/proxy_server/CMakeFiles/light_switch_proxy_server_nrf52840_xxAA_s140_6.0.0.dir/__/__/__/mesh/gatt/src/mesh_gatt.c.obj
                0x0002fa90                mesh_gatt_disconnect
 .text.mesh_gatt_pdu_send
                0x0002fac0      0x140 examples/light_switch/proxy_server/CMakeFiles/light_switch_proxy_server_nrf52840_xxAA_s140_6.0.0.dir/__/__/__/mesh/gatt/src/mesh_gatt.c.obj
 .text.mesh_gatt_packet_send
                0x0002fc00       0x8c examples/light_switch/proxy_server/CMakeFiles/light_switch_proxy_server_nrf52840_xxAA_s140_6.0.0.dir/__/__/__/mesh/gatt/src/mesh_gatt.c.obj
                0x0002fc00                mesh_gatt_packet_send
 .text.mesh_gatt_on_ble_evt
                0x0002fc8c      0x408 examples/light_switch/proxy_server/CMakeFiles/light_switch_proxy_server_nrf52840_xxAA_s140_6.0.0.dir/__/__/__/mesh/gatt/src/mesh_gatt.c.obj
                0x0002fc8c                mesh_gatt_on_ble_evt
 .text.active_connection_count
                0x00030094        0xc examples/light_switch/proxy_server/CMakeFiles/light_switch_proxy_server_nrf52840_xxAA_s140_6.0.0.dir/__/__/__/mesh/gatt/src/proxy.c.obj
 .text.packet_discard
                0x000300a0       0x30 examples/light_switch/proxy_server/CMakeFiles/light_switch_proxy_server_nrf52840_xxAA_s140_6.0.0.dir/__/__/__/mesh/gatt/src/proxy.c.obj
 .text.core_tx_packet_discard_cb
                0x000300d0       0x18 examples/light_switch/proxy_server/CMakeFiles/light_switch_proxy_server_nrf52840_xxAA_s140_6.0.0.dir/__/__/__/mesh/gatt/src/proxy.c.obj
 .text.packet_send
                0x000300e8       0x3c examples/light_switch/proxy_server/CMakeFiles/light_switch_proxy_server_nrf52840_xxAA_s140_6.0.0.dir/__/__/__/mesh/gatt/src/proxy.c.obj
 .text.core_tx_packet_send_cb
                0x00030124       0x38 examples/light_switch/proxy_server/CMakeFiles/light_switch_proxy_server_nrf52840_xxAA_s140_6.0.0.dir/__/__/__/mesh/gatt/src/proxy.c.obj
 .text.packet_alloc
                0x0003015c       0x44 examples/light_switch/proxy_server/CMakeFiles/light_switch_proxy_server_nrf52840_xxAA_s140_6.0.0.dir/__/__/__/mesh/gatt/src/proxy.c.obj
 .text.core_tx_packet_alloc_cb
                0x000301a0       0x40 examples/light_switch/proxy_server/CMakeFiles/light_switch_proxy_server_nrf52840_xxAA_s140_6.0.0.dir/__/__/__/mesh/gatt/src/proxy.c.obj
 .text.adv_data_set
                0x000301e0       0xa4 examples/light_switch/proxy_server/CMakeFiles/light_switch_proxy_server_nrf52840_xxAA_s140_6.0.0.dir/__/__/__/mesh/gatt/src/proxy.c.obj
 .text.adv_net_iterate
                0x00030284       0x34 examples/light_switch/proxy_server/CMakeFiles/light_switch_proxy_server_nrf52840_xxAA_s140_6.0.0.dir/__/__/__/mesh/gatt/src/proxy.c.obj
 .text.adv_timer_handler
                0x000302b8        0xe examples/light_switch/proxy_server/CMakeFiles/light_switch_proxy_server_nrf52840_xxAA_s140_6.0.0.dir/__/__/__/mesh/gatt/src/proxy.c.obj
 *fill*         0x000302c6        0x2 
 .text.adv_start
                0x000302c8       0x58 examples/light_switch/proxy_server/CMakeFiles/light_switch_proxy_server_nrf52840_xxAA_s140_6.0.0.dir/__/__/__/mesh/gatt/src/proxy.c.obj
 .text.beacon_packet_send_to_all
                0x00030320       0x54 examples/light_switch/proxy_server/CMakeFiles/light_switch_proxy_server_nrf52840_xxAA_s140_6.0.0.dir/__/__/__/mesh/gatt/src/proxy.c.obj
 .text.mesh_evt_handle
                0x00030374       0x3c examples/light_switch/proxy_server/CMakeFiles/light_switch_proxy_server_nrf52840_xxAA_s140_6.0.0.dir/__/__/__/mesh/gatt/src/proxy.c.obj
 .text.gatt_evt_handler
                0x000303b0      0x67c examples/light_switch/proxy_server/CMakeFiles/light_switch_proxy_server_nrf52840_xxAA_s140_6.0.0.dir/__/__/__/mesh/gatt/src/proxy.c.obj
 .text.proxy_init
                0x00030a2c       0x8c examples/light_switch/proxy_server/CMakeFiles/light_switch_proxy_server_nrf52840_xxAA_s140_6.0.0.dir/__/__/__/mesh/gatt/src/proxy.c.obj
                0x00030a2c                proxy_init
 .text.proxy_subnet_added
                0x00030ab8       0x58 examples/light_switch/proxy_server/CMakeFiles/light_switch_proxy_server_nrf52840_xxAA_s140_6.0.0.dir/__/__/__/mesh/gatt/src/proxy.c.obj
                0x00030ab8                proxy_subnet_added
 .text.proxy_net_packet_processed
                0x00030b10       0x40 examples/light_switch/proxy_server/CMakeFiles/light_switch_proxy_server_nrf52840_xxAA_s140_6.0.0.dir/__/__/__/mesh/gatt/src/proxy.c.obj
                0x00030b10                proxy_net_packet_processed
 .text.proxy_enable
                0x00030b50       0x28 examples/light_switch/proxy_server/CMakeFiles/light_switch_proxy_server_nrf52840_xxAA_s140_6.0.0.dir/__/__/__/mesh/gatt/src/proxy.c.obj
                0x00030b50                proxy_enable
 .text.proxy_node_id_enable
                0x00030b78       0x38 examples/light_switch/proxy_server/CMakeFiles/light_switch_proxy_server_nrf52840_xxAA_s140_6.0.0.dir/__/__/__/mesh/gatt/src/proxy.c.obj
                0x00030b78                proxy_node_id_enable
 .text.proxy_node_id_is_enabled
                0x00030bb0       0x2c examples/light_switch/proxy_server/CMakeFiles/light_switch_proxy_server_nrf52840_xxAA_s140_6.0.0.dir/__/__/__/mesh/gatt/src/proxy.c.obj
                0x00030bb0                proxy_node_id_is_enabled
 .text.proxy_node_id_disable
                0x00030bdc       0x1a examples/light_switch/proxy_server/CMakeFiles/light_switch_proxy_server_nrf52840_xxAA_s140_6.0.0.dir/__/__/__/mesh/gatt/src/proxy.c.obj
                0x00030bdc                proxy_node_id_disable
 *fill*         0x00030bf6        0x2 
 .text.proxy_disable
                0x00030bf8       0x40 examples/light_switch/proxy_server/CMakeFiles/light_switch_proxy_server_nrf52840_xxAA_s140_6.0.0.dir/__/__/__/mesh/gatt/src/proxy.c.obj
                0x00030bf8                proxy_disable
 .text.proxy_is_enabled
                0x00030c38        0xc examples/light_switch/proxy_server/CMakeFiles/light_switch_proxy_server_nrf52840_xxAA_s140_6.0.0.dir/__/__/__/mesh/gatt/src/proxy.c.obj
                0x00030c38                proxy_is_enabled
 .text.proxy_filter_clear
                0x00030c44       0x18 examples/light_switch/proxy_server/CMakeFiles/light_switch_proxy_server_nrf52840_xxAA_s140_6.0.0.dir/__/__/__/mesh/gatt/src/proxy_filter.c.obj
                0x00030c44                proxy_filter_clear
 .text.proxy_filter_type_set
                0x00030c5c       0x24 examples/light_switch/proxy_server/CMakeFiles/light_switch_proxy_server_nrf52840_xxAA_s140_6.0.0.dir/__/__/__/mesh/gatt/src/proxy_filter.c.obj
                0x00030c5c                proxy_filter_type_set
 .text.proxy_filter_add
                0x00030c80       0x54 examples/light_switch/proxy_server/CMakeFiles/light_switch_proxy_server_nrf52840_xxAA_s140_6.0.0.dir/__/__/__/mesh/gatt/src/proxy_filter.c.obj
                0x00030c80                proxy_filter_add
 .text.proxy_filter_remove
                0x00030cd4       0x4e examples/light_switch/proxy_server/CMakeFiles/light_switch_proxy_server_nrf52840_xxAA_s140_6.0.0.dir/__/__/__/mesh/gatt/src/proxy_filter.c.obj
                0x00030cd4                proxy_filter_remove
 .text.proxy_filter_accept
                0x00030d22       0x36 examples/light_switch/proxy_server/CMakeFiles/light_switch_proxy_server_nrf52840_xxAA_s140_6.0.0.dir/__/__/__/mesh/gatt/src/proxy_filter.c.obj
                0x00030d22                proxy_filter_accept
 .text.handle_get_cb
                0x00030d58       0x4e examples/light_switch/proxy_server/CMakeFiles/light_switch_proxy_server_nrf52840_xxAA_s140_6.0.0.dir/__/__/__/models/simple_on_off/src/simple_on_off_server.c.obj
 *fill*         0x00030da6        0x2 
 .text.simple_on_off_server_init
                0x00030da8       0x40 examples/light_switch/proxy_server/CMakeFiles/light_switch_proxy_server_nrf52840_xxAA_s140_6.0.0.dir/__/__/__/models/simple_on_off/src/simple_on_off_server.c.obj
                0x00030da8                simple_on_off_server_init
 .text.simple_on_off_server_status_publish
                0x00030de8       0x36 examples/light_switch/proxy_server/CMakeFiles/light_switch_proxy_server_nrf52840_xxAA_s140_6.0.0.dir/__/__/__/models/simple_on_off/src/simple_on_off_server.c.obj
                0x00030de8                simple_on_off_server_status_publish
 .text.handle_set_unreliable_cb
                0x00030e1e       0x2c examples/light_switch/proxy_server/CMakeFiles/light_switch_proxy_server_nrf52840_xxAA_s140_6.0.0.dir/__/__/__/models/simple_on_off/src/simple_on_off_server.c.obj
 .text.handle_set_cb
                0x00030e4a       0x60 examples/light_switch/proxy_server/CMakeFiles/light_switch_proxy_server_nrf52840_xxAA_s140_6.0.0.dir/__/__/__/models/simple_on_off/src/simple_on_off_server.c.obj
 .text.config_composition_data_get
                0x00030eaa      0x186 examples/light_switch/proxy_server/CMakeFiles/light_switch_proxy_server_nrf52840_xxAA_s140_6.0.0.dir/__/__/__/models/config/src/composition_data.c.obj
                0x00030eaa                config_composition_data_get
 .text.app_evt_send
                0x00031030       0x10 examples/light_switch/proxy_server/CMakeFiles/light_switch_proxy_server_nrf52840_xxAA_s140_6.0.0.dir/__/__/__/models/config/src/config_server.c.obj
 .text.config_server_heartbeat_publication_count_decrement
                0x00031040       0x1c examples/light_switch/proxy_server/CMakeFiles/light_switch_proxy_server_nrf52840_xxAA_s140_6.0.0.dir/__/__/__/models/config/src/config_server.c.obj
 .text.get_element_index
                0x0003105c       0x26 examples/light_switch/proxy_server/CMakeFiles/light_switch_proxy_server_nrf52840_xxAA_s140_6.0.0.dir/__/__/__/models/config/src/config_server.c.obj
 *fill*         0x00031082        0x2 
 .text.config_server_heartbeat_publication_params_get
                0x00031084       0x34 examples/light_switch/proxy_server/CMakeFiles/light_switch_proxy_server_nrf52840_xxAA_s140_6.0.0.dir/__/__/__/models/config/src/config_server.c.obj
 .text.send_reply
                0x000310b8       0x34 examples/light_switch/proxy_server/CMakeFiles/light_switch_proxy_server_nrf52840_xxAA_s140_6.0.0.dir/__/__/__/models/config/src/config_server.c.obj
 .text.send_network_transmit_status
                0x000310ec       0x72 examples/light_switch/proxy_server/CMakeFiles/light_switch_proxy_server_nrf52840_xxAA_s140_6.0.0.dir/__/__/__/models/config/src/config_server.c.obj
 .text.handle_config_network_transmit_set
                0x0003115e       0x82 examples/light_switch/proxy_server/CMakeFiles/light_switch_proxy_server_nrf52840_xxAA_s140_6.0.0.dir/__/__/__/models/config/src/config_server.c.obj
 .text.handle_config_network_transmit_get
                0x000311e0        0xa examples/light_switch/proxy_server/CMakeFiles/light_switch_proxy_server_nrf52840_xxAA_s140_6.0.0.dir/__/__/__/models/config/src/config_server.c.obj
 *fill*         0x000311ea        0x2 
 .text.handle_node_reset
                0x000311ec       0x1c examples/light_switch/proxy_server/CMakeFiles/light_switch_proxy_server_nrf52840_xxAA_s140_6.0.0.dir/__/__/__/models/config/src/config_server.c.obj
 .text.send_netkey_status
                0x00031208       0x22 examples/light_switch/proxy_server/CMakeFiles/light_switch_proxy_server_nrf52840_xxAA_s140_6.0.0.dir/__/__/__/models/config/src/config_server.c.obj
 .text.send_relay_status
                0x0003122a       0xa6 examples/light_switch/proxy_server/CMakeFiles/light_switch_proxy_server_nrf52840_xxAA_s140_6.0.0.dir/__/__/__/models/config/src/config_server.c.obj
 .text.handle_config_relay_set
                0x000312d0       0xb6 examples/light_switch/proxy_server/CMakeFiles/light_switch_proxy_server_nrf52840_xxAA_s140_6.0.0.dir/__/__/__/models/config/src/config_server.c.obj
 .text.handle_config_relay_get
                0x00031386        0xa examples/light_switch/proxy_server/CMakeFiles/light_switch_proxy_server_nrf52840_xxAA_s140_6.0.0.dir/__/__/__/models/config/src/config_server.c.obj
 .text.send_subscription_status
                0x00031390       0x3a examples/light_switch/proxy_server/CMakeFiles/light_switch_proxy_server_nrf52840_xxAA_s140_6.0.0.dir/__/__/__/models/config/src/config_server.c.obj
 .text.send_appkey_status
                0x000313ca       0x30 examples/light_switch/proxy_server/CMakeFiles/light_switch_proxy_server_nrf52840_xxAA_s140_6.0.0.dir/__/__/__/models/config/src/config_server.c.obj
 .text.proxy_status_reply
                0x000313fa       0x2a examples/light_switch/proxy_server/CMakeFiles/light_switch_proxy_server_nrf52840_xxAA_s140_6.0.0.dir/__/__/__/models/config/src/config_server.c.obj
 .text.handle_config_gatt_proxy_get
                0x00031424        0xa examples/light_switch/proxy_server/CMakeFiles/light_switch_proxy_server_nrf52840_xxAA_s140_6.0.0.dir/__/__/__/models/config/src/config_server.c.obj
 .text.handle_node_identity_set
                0x0003142e       0x9a examples/light_switch/proxy_server/CMakeFiles/light_switch_proxy_server_nrf52840_xxAA_s140_6.0.0.dir/__/__/__/models/config/src/config_server.c.obj
 .text.handle_netkey_get
                0x000314c8       0x4c examples/light_switch/proxy_server/CMakeFiles/light_switch_proxy_server_nrf52840_xxAA_s140_6.0.0.dir/__/__/__/models/config/src/config_server.c.obj
 .text.handle_netkey_delete
                0x00031514       0xbc examples/light_switch/proxy_server/CMakeFiles/light_switch_proxy_server_nrf52840_xxAA_s140_6.0.0.dir/__/__/__/models/config/src/config_server.c.obj
 .text.handle_netkey_add_update
                0x000315d0       0x78 examples/light_switch/proxy_server/CMakeFiles/light_switch_proxy_server_nrf52840_xxAA_s140_6.0.0.dir/__/__/__/models/config/src/config_server.c.obj
 .text.status_error_sub_send
                0x00031648      0x11e examples/light_switch/proxy_server/CMakeFiles/light_switch_proxy_server_nrf52840_xxAA_s140_6.0.0.dir/__/__/__/models/config/src/config_server.c.obj
 .text.delete_all_subscriptions
                0x00031766       0x66 examples/light_switch/proxy_server/CMakeFiles/light_switch_proxy_server_nrf52840_xxAA_s140_6.0.0.dir/__/__/__/models/config/src/config_server.c.obj
 .text.send_publication_status
                0x000317cc      0x16e examples/light_switch/proxy_server/CMakeFiles/light_switch_proxy_server_nrf52840_xxAA_s140_6.0.0.dir/__/__/__/models/config/src/config_server.c.obj
 .text.handle_config_key_refresh_phase_set
                0x0003193a       0xc6 examples/light_switch/proxy_server/CMakeFiles/light_switch_proxy_server_nrf52840_xxAA_s140_6.0.0.dir/__/__/__/models/config/src/config_server.c.obj
 .text.handle_config_default_ttl_set
                0x00031a00       0x4e examples/light_switch/proxy_server/CMakeFiles/light_switch_proxy_server_nrf52840_xxAA_s140_6.0.0.dir/__/__/__/models/config/src/config_server.c.obj
 .text.send_net_beacon_state
                0x00031a4e       0x2a examples/light_switch/proxy_server/CMakeFiles/light_switch_proxy_server_nrf52840_xxAA_s140_6.0.0.dir/__/__/__/models/config/src/config_server.c.obj
 .text.handle_config_beacon_get
                0x00031a78        0xa examples/light_switch/proxy_server/CMakeFiles/light_switch_proxy_server_nrf52840_xxAA_s140_6.0.0.dir/__/__/__/models/config/src/config_server.c.obj
 *fill*         0x00031a82        0x2 
 .text.handle_heartbeat_publication_set
                0x00031a84      0x128 examples/light_switch/proxy_server/CMakeFiles/light_switch_proxy_server_nrf52840_xxAA_s140_6.0.0.dir/__/__/__/models/config/src/config_server.c.obj
 .text.mesh_event_cb
                0x00031bac       0x64 examples/light_switch/proxy_server/CMakeFiles/light_switch_proxy_server_nrf52840_xxAA_s140_6.0.0.dir/__/__/__/models/config/src/config_server.c.obj
 .text.handle_config_friend_set
                0x00031c10       0x22 examples/light_switch/proxy_server/CMakeFiles/light_switch_proxy_server_nrf52840_xxAA_s140_6.0.0.dir/__/__/__/models/config/src/config_server.c.obj
 .text.handle_config_key_refresh_phase_get
                0x00031c32       0x54 examples/light_switch/proxy_server/CMakeFiles/light_switch_proxy_server_nrf52840_xxAA_s140_6.0.0.dir/__/__/__/models/config/src/config_server.c.obj
 .text.handle_node_identity_get
                0x00031c86       0x62 examples/light_switch/proxy_server/CMakeFiles/light_switch_proxy_server_nrf52840_xxAA_s140_6.0.0.dir/__/__/__/models/config/src/config_server.c.obj
 .text.status_error_pub_send
                0x00031ce8       0x9a examples/light_switch/proxy_server/CMakeFiles/light_switch_proxy_server_nrf52840_xxAA_s140_6.0.0.dir/__/__/__/models/config/src/config_server.c.obj
 .text.handle_config_gatt_proxy_set
                0x00031d82       0x30 examples/light_switch/proxy_server/CMakeFiles/light_switch_proxy_server_nrf52840_xxAA_s140_6.0.0.dir/__/__/__/models/config/src/config_server.c.obj
 .text.handle_config_default_ttl_get
                0x00031db2       0x2a examples/light_switch/proxy_server/CMakeFiles/light_switch_proxy_server_nrf52840_xxAA_s140_6.0.0.dir/__/__/__/models/config/src/config_server.c.obj
 .text.handle_config_beacon_set
                0x00031ddc       0x42 examples/light_switch/proxy_server/CMakeFiles/light_switch_proxy_server_nrf52840_xxAA_s140_6.0.0.dir/__/__/__/models/config/src/config_server.c.obj
 .text.handle_composition_data_get
                0x00031e1e       0x4c examples/light_switch/proxy_server/CMakeFiles/light_switch_proxy_server_nrf52840_xxAA_s140_6.0.0.dir/__/__/__/models/config/src/config_server.c.obj
 .text.handle_appkey_delete
                0x00031e6a       0xc2 examples/light_switch/proxy_server/CMakeFiles/light_switch_proxy_server_nrf52840_xxAA_s140_6.0.0.dir/__/__/__/models/config/src/config_server.c.obj
 .text.get_subscription_list.constprop.23
                0x00031f2c       0x50 examples/light_switch/proxy_server/CMakeFiles/light_switch_proxy_server_nrf52840_xxAA_s140_6.0.0.dir/__/__/__/models/config/src/config_server.c.obj
 .text.handle_appkey_get
                0x00031f7c       0xb8 examples/light_switch/proxy_server/CMakeFiles/light_switch_proxy_server_nrf52840_xxAA_s140_6.0.0.dir/__/__/__/models/config/src/config_server.c.obj
 .text.heartbeat_subscription_count_encode
                0x00032034       0x26 examples/light_switch/proxy_server/CMakeFiles/light_switch_proxy_server_nrf52840_xxAA_s140_6.0.0.dir/__/__/__/models/config/src/config_server.c.obj
 .text.handle_appkey_add
                0x0003205a       0xba examples/light_switch/proxy_server/CMakeFiles/light_switch_proxy_server_nrf52840_xxAA_s140_6.0.0.dir/__/__/__/models/config/src/config_server.c.obj
 .text.handle_appkey_update
                0x00032114       0xbc examples/light_switch/proxy_server/CMakeFiles/light_switch_proxy_server_nrf52840_xxAA_s140_6.0.0.dir/__/__/__/models/config/src/config_server.c.obj
 .text.heartbeat_pubsub_period_encode
                0x000321d0       0x26 examples/light_switch/proxy_server/CMakeFiles/light_switch_proxy_server_nrf52840_xxAA_s140_6.0.0.dir/__/__/__/models/config/src/config_server.c.obj
 *fill*         0x000321f6        0x2 
 .text.handle_heartbeat_publication_get
                0x000321f8       0x7c examples/light_switch/proxy_server/CMakeFiles/light_switch_proxy_server_nrf52840_xxAA_s140_6.0.0.dir/__/__/__/models/config/src/config_server.c.obj
 .text.handle_heartbeat_subscription_get
                0x00032274       0x82 examples/light_switch/proxy_server/CMakeFiles/light_switch_proxy_server_nrf52840_xxAA_s140_6.0.0.dir/__/__/__/models/config/src/config_server.c.obj
 .text.handle_heartbeat_subscription_set
                0x000322f6       0xa4 examples/light_switch/proxy_server/CMakeFiles/light_switch_proxy_server_nrf52840_xxAA_s140_6.0.0.dir/__/__/__/models/config/src/config_server.c.obj
 .text.handle_config_model_publication_get
                0x0003239a       0x94 examples/light_switch/proxy_server/CMakeFiles/light_switch_proxy_server_nrf52840_xxAA_s140_6.0.0.dir/__/__/__/models/config/src/config_server.c.obj
 .text.handle_config_model_subscription_delete_all
                0x0003242e       0xca examples/light_switch/proxy_server/CMakeFiles/light_switch_proxy_server_nrf52840_xxAA_s140_6.0.0.dir/__/__/__/models/config/src/config_server.c.obj
 .text.handle_config_sig_model_subscription_get
                0x000324f8       0xc4 examples/light_switch/proxy_server/CMakeFiles/light_switch_proxy_server_nrf52840_xxAA_s140_6.0.0.dir/__/__/__/models/config/src/config_server.c.obj
 .text.handle_config_vendor_model_subscription_get
                0x000325bc       0xfe examples/light_switch/proxy_server/CMakeFiles/light_switch_proxy_server_nrf52840_xxAA_s140_6.0.0.dir/__/__/__/models/config/src/config_server.c.obj
 .text.handle_config_model_subscription_virtual_address_delete
                0x000326ba      0x110 examples/light_switch/proxy_server/CMakeFiles/light_switch_proxy_server_nrf52840_xxAA_s140_6.0.0.dir/__/__/__/models/config/src/config_server.c.obj
 .text.handle_config_model_subscription_virtual_address_add
                0x000327ca      0x10e examples/light_switch/proxy_server/CMakeFiles/light_switch_proxy_server_nrf52840_xxAA_s140_6.0.0.dir/__/__/__/models/config/src/config_server.c.obj
 .text.handle_config_model_subscription_delete
                0x000328d8      0x116 examples/light_switch/proxy_server/CMakeFiles/light_switch_proxy_server_nrf52840_xxAA_s140_6.0.0.dir/__/__/__/models/config/src/config_server.c.obj
 .text.handle_config_model_subscription_add
                0x000329ee      0x114 examples/light_switch/proxy_server/CMakeFiles/light_switch_proxy_server_nrf52840_xxAA_s140_6.0.0.dir/__/__/__/models/config/src/config_server.c.obj
 .text.handle_model_app_get
                0x00032b02      0x19e examples/light_switch/proxy_server/CMakeFiles/light_switch_proxy_server_nrf52840_xxAA_s140_6.0.0.dir/__/__/__/models/config/src/config_server.c.obj
 .text.handle_config_model_subscription_virtual_address_overwrite
                0x00032ca0      0x128 examples/light_switch/proxy_server/CMakeFiles/light_switch_proxy_server_nrf52840_xxAA_s140_6.0.0.dir/__/__/__/models/config/src/config_server.c.obj
 .text.handle_config_model_subscription_overwrite
                0x00032dc8      0x122 examples/light_switch/proxy_server/CMakeFiles/light_switch_proxy_server_nrf52840_xxAA_s140_6.0.0.dir/__/__/__/models/config/src/config_server.c.obj
 .text.handle_model_app_bind_unbind
                0x00032eea      0x174 examples/light_switch/proxy_server/CMakeFiles/light_switch_proxy_server_nrf52840_xxAA_s140_6.0.0.dir/__/__/__/models/config/src/config_server.c.obj
 .text.handle_config_friend_get
                0x0003305e       0x20 examples/light_switch/proxy_server/CMakeFiles/light_switch_proxy_server_nrf52840_xxAA_s140_6.0.0.dir/__/__/__/models/config/src/config_server.c.obj
 .text.handle_config_model_publication_set
                0x0003307e      0x2ce examples/light_switch/proxy_server/CMakeFiles/light_switch_proxy_server_nrf52840_xxAA_s140_6.0.0.dir/__/__/__/models/config/src/config_server.c.obj
 .text.config_server_init
                0x0003334c       0x64 examples/light_switch/proxy_server/CMakeFiles/light_switch_proxy_server_nrf52840_xxAA_s140_6.0.0.dir/__/__/__/models/config/src/config_server.c.obj
                0x0003334c                config_server_init
 .text.config_server_bind
                0x000333b0       0x10 examples/light_switch/proxy_server/CMakeFiles/light_switch_proxy_server_nrf52840_xxAA_s140_6.0.0.dir/__/__/__/models/config/src/config_server.c.obj
                0x000333b0                config_server_bind
 .text.packed_index_list_create
                0x000333c0       0x32 examples/light_switch/proxy_server/CMakeFiles/light_switch_proxy_server_nrf52840_xxAA_s140_6.0.0.dir/__/__/__/models/config/src/packed_index_list.c.obj
                0x000333c0                packed_index_list_create
 *fill*         0x000333f2        0x2 
 .text.attention_timer_set
                0x000333f4       0x8c examples/light_switch/proxy_server/CMakeFiles/light_switch_proxy_server_nrf52840_xxAA_s140_6.0.0.dir/__/__/__/models/health/src/health_server.c.obj
 .text.attention_timer_handler
                0x00033480       0x5c examples/light_switch/proxy_server/CMakeFiles/light_switch_proxy_server_nrf52840_xxAA_s140_6.0.0.dir/__/__/__/models/health/src/health_server.c.obj
 .text.send_attention_status.isra.1
                0x000334dc       0x44 examples/light_switch/proxy_server/CMakeFiles/light_switch_proxy_server_nrf52840_xxAA_s140_6.0.0.dir/__/__/__/models/health/src/health_server.c.obj
 .text.handle_attention_set
                0x00033520       0x32 examples/light_switch/proxy_server/CMakeFiles/light_switch_proxy_server_nrf52840_xxAA_s140_6.0.0.dir/__/__/__/models/health/src/health_server.c.obj
 .text.send_period_status.isra.4
                0x00033552       0x44 examples/light_switch/proxy_server/CMakeFiles/light_switch_proxy_server_nrf52840_xxAA_s140_6.0.0.dir/__/__/__/models/health/src/health_server.c.obj
 .text.handle_period_set
                0x00033596       0x28 examples/light_switch/proxy_server/CMakeFiles/light_switch_proxy_server_nrf52840_xxAA_s140_6.0.0.dir/__/__/__/models/health/src/health_server.c.obj
 *fill*         0x000335be        0x2 
 .text.bitfield_next_get.part.0.constprop.13
                0x000335c0       0x44 examples/light_switch/proxy_server/CMakeFiles/light_switch_proxy_server_nrf52840_xxAA_s140_6.0.0.dir/__/__/__/models/health/src/health_server.c.obj
 .text.bitfield_popcount.constprop.11
                0x00033604       0x28 examples/light_switch/proxy_server/CMakeFiles/light_switch_proxy_server_nrf52840_xxAA_s140_6.0.0.dir/__/__/__/models/health/src/health_server.c.obj
 .text.send_fault_status
                0x0003362c       0xa8 examples/light_switch/proxy_server/CMakeFiles/light_switch_proxy_server_nrf52840_xxAA_s140_6.0.0.dir/__/__/__/models/health/src/health_server.c.obj
 .text.health_publish_timeout_handler
                0x000336d4        0xa examples/light_switch/proxy_server/CMakeFiles/light_switch_proxy_server_nrf52840_xxAA_s140_6.0.0.dir/__/__/__/models/health/src/health_server.c.obj
 .text.handle_fault_test
                0x000336de       0x68 examples/light_switch/proxy_server/CMakeFiles/light_switch_proxy_server_nrf52840_xxAA_s140_6.0.0.dir/__/__/__/models/health/src/health_server.c.obj
 .text.handle_fault_get
                0x00033746       0x32 examples/light_switch/proxy_server/CMakeFiles/light_switch_proxy_server_nrf52840_xxAA_s140_6.0.0.dir/__/__/__/models/health/src/health_server.c.obj
 .text.handle_fault_clear
                0x00033778       0x48 examples/light_switch/proxy_server/CMakeFiles/light_switch_proxy_server_nrf52840_xxAA_s140_6.0.0.dir/__/__/__/models/health/src/health_server.c.obj
 .text.handle_attention_get
                0x000337c0       0x14 examples/light_switch/proxy_server/CMakeFiles/light_switch_proxy_server_nrf52840_xxAA_s140_6.0.0.dir/__/__/__/models/health/src/health_server.c.obj
 .text.handle_period_get
                0x000337d4       0x12 examples/light_switch/proxy_server/CMakeFiles/light_switch_proxy_server_nrf52840_xxAA_s140_6.0.0.dir/__/__/__/models/health/src/health_server.c.obj
 *fill*         0x000337e6        0x2 
 .text.health_server_init
                0x000337e8       0x6c examples/light_switch/proxy_server/CMakeFiles/light_switch_proxy_server_nrf52840_xxAA_s140_6.0.0.dir/__/__/__/models/health/src/health_server.c.obj
                0x000337e8                health_server_init
 .text.add_to_publication_list
                0x00033854       0x78 examples/light_switch/proxy_server/CMakeFiles/light_switch_proxy_server_nrf52840_xxAA_s140_6.0.0.dir/__/__/__/mesh/access/src/access_publish.c.obj
 .text.step_resolution_to_us
                0x000338cc       0x38 examples/light_switch/proxy_server/CMakeFiles/light_switch_proxy_server_nrf52840_xxAA_s140_6.0.0.dir/__/__/__/mesh/access/src/access_publish.c.obj
 .text.schedule_publication_timer
                0x00033904      0x184 examples/light_switch/proxy_server/CMakeFiles/light_switch_proxy_server_nrf52840_xxAA_s140_6.0.0.dir/__/__/__/mesh/access/src/access_publish.c.obj
 .text.publish_timer_tick
                0x00033a88       0xa8 examples/light_switch/proxy_server/CMakeFiles/light_switch_proxy_server_nrf52840_xxAA_s140_6.0.0.dir/__/__/__/mesh/access/src/access_publish.c.obj
 .text.access_publish_init
                0x00033b30       0x38 examples/light_switch/proxy_server/CMakeFiles/light_switch_proxy_server_nrf52840_xxAA_s140_6.0.0.dir/__/__/__/mesh/access/src/access_publish.c.obj
                0x00033b30                access_publish_init
 .text.access_publish_period_set
                0x00033b68       0x60 examples/light_switch/proxy_server/CMakeFiles/light_switch_proxy_server_nrf52840_xxAA_s140_6.0.0.dir/__/__/__/mesh/access/src/access_publish.c.obj
                0x00033b68                access_publish_period_set
 .text.access_publish_period_get
                0x00033bc8       0x22 examples/light_switch/proxy_server/CMakeFiles/light_switch_proxy_server_nrf52840_xxAA_s140_6.0.0.dir/__/__/__/mesh/access/src/access_publish.c.obj
                0x00033bc8                access_publish_period_get
 .text.bitfield_get
                0x00033bea       0x1a examples/light_switch/proxy_server/CMakeFiles/light_switch_proxy_server_nrf52840_xxAA_s140_6.0.0.dir/__/__/__/mesh/access/src/access.c.obj
 .text.is_valid_opcode
                0x00033c04       0x42 examples/light_switch/proxy_server/CMakeFiles/light_switch_proxy_server_nrf52840_xxAA_s140_6.0.0.dir/__/__/__/mesh/access/src/access.c.obj
 *fill*         0x00033c46        0x2 
 .text.model_handle_valid_and_allocated
                0x00033c48       0x20 examples/light_switch/proxy_server/CMakeFiles/light_switch_proxy_server_nrf52840_xxAA_s140_6.0.0.dir/__/__/__/mesh/access/src/access.c.obj
 .text.flash_manager_mem_available
                0x00033c68        0x2 examples/light_switch/proxy_server/CMakeFiles/light_switch_proxy_server_nrf52840_xxAA_s140_6.0.0.dir/__/__/__/mesh/access/src/access.c.obj
 *fill*         0x00033c6a        0x2 
 .text.restore_acquired_subscription
                0x00033c6c       0x24 examples/light_switch/proxy_server/CMakeFiles/light_switch_proxy_server_nrf52840_xxAA_s140_6.0.0.dir/__/__/__/mesh/access/src/access.c.obj
 .text.restore_acquired_element
                0x00033c90       0x1c examples/light_switch/proxy_server/CMakeFiles/light_switch_proxy_server_nrf52840_xxAA_s140_6.0.0.dir/__/__/__/mesh/access/src/access.c.obj
 .text.restore_flash_data
                0x00033cac       0x50 examples/light_switch/proxy_server/CMakeFiles/light_switch_proxy_server_nrf52840_xxAA_s140_6.0.0.dir/__/__/__/mesh/access/src/access.c.obj
 .text.flash_invalidate_complete
                0x00033cfc        0x6 examples/light_switch/proxy_server/CMakeFiles/light_switch_proxy_server_nrf52840_xxAA_s140_6.0.0.dir/__/__/__/mesh/access/src/access.c.obj
 *fill*         0x00033d02        0x2 
 .text.access_flash_config_clear
                0x00033d04       0x28 examples/light_switch/proxy_server/CMakeFiles/light_switch_proxy_server_nrf52840_xxAA_s140_6.0.0.dir/__/__/__/mesh/access/src/access.c.obj
 .text.access_flash_config_store
                0x00033d2c      0x114 examples/light_switch/proxy_server/CMakeFiles/light_switch_proxy_server_nrf52840_xxAA_s140_6.0.0.dir/__/__/__/mesh/access/src/access.c.obj
                0x00033d2c                access_flash_config_store
 .text.access_state_clear
                0x00033e40       0x48 examples/light_switch/proxy_server/CMakeFiles/light_switch_proxy_server_nrf52840_xxAA_s140_6.0.0.dir/__/__/__/mesh/access/src/access.c.obj
 .text.add_flash_manager
                0x00033e88       0x58 examples/light_switch/proxy_server/CMakeFiles/light_switch_proxy_server_nrf52840_xxAA_s140_6.0.0.dir/__/__/__/mesh/access/src/access.c.obj
 .text.flash_remove_complete
                0x00033ee0       0x4c examples/light_switch/proxy_server/CMakeFiles/light_switch_proxy_server_nrf52840_xxAA_s140_6.0.0.dir/__/__/__/mesh/access/src/access.c.obj
 .text.flash_write_complete
                0x00033f2c       0x46 examples/light_switch/proxy_server/CMakeFiles/light_switch_proxy_server_nrf52840_xxAA_s140_6.0.0.dir/__/__/__/mesh/access/src/access.c.obj
 *fill*         0x00033f72        0x2 
 .text.unlikely.bitfield_next_get.part.0.constprop.4
                0x00033f74       0x34 examples/light_switch/proxy_server/CMakeFiles/light_switch_proxy_server_nrf52840_xxAA_s140_6.0.0.dir/__/__/__/mesh/access/src/access.c.obj
 .text.restore_acquired_model
                0x00033fa8       0x84 examples/light_switch/proxy_server/CMakeFiles/light_switch_proxy_server_nrf52840_xxAA_s140_6.0.0.dir/__/__/__/mesh/access/src/access.c.obj
 .text.handle_incoming
                0x0003402c      0x140 examples/light_switch/proxy_server/CMakeFiles/light_switch_proxy_server_nrf52840_xxAA_s140_6.0.0.dir/__/__/__/mesh/access/src/access.c.obj
 .text.mesh_evt_cb
                0x0003416c      0x134 examples/light_switch/proxy_server/CMakeFiles/light_switch_proxy_server_nrf52840_xxAA_s140_6.0.0.dir/__/__/__/mesh/access/src/access.c.obj
 .text.packet_tx
                0x000342a0      0x380 examples/light_switch/proxy_server/CMakeFiles/light_switch_proxy_server_nrf52840_xxAA_s140_6.0.0.dir/__/__/__/mesh/access/src/access.c.obj
 .text.access_flash_config_load
                0x00034620      0x118 examples/light_switch/proxy_server/CMakeFiles/light_switch_proxy_server_nrf52840_xxAA_s140_6.0.0.dir/__/__/__/mesh/access/src/access.c.obj
                0x00034620                access_flash_config_load
 .text.access_clear
                0x00034738       0x12 examples/light_switch/proxy_server/CMakeFiles/light_switch_proxy_server_nrf52840_xxAA_s140_6.0.0.dir/__/__/__/mesh/access/src/access.c.obj
                0x00034738                access_clear
 *fill*         0x0003474a        0x2 
 .text.access_init
                0x0003474c       0x28 examples/light_switch/proxy_server/CMakeFiles/light_switch_proxy_server_nrf52840_xxAA_s140_6.0.0.dir/__/__/__/mesh/access/src/access.c.obj
                0x0003474c                access_init
 .text.access_model_add
                0x00034774      0x1b8 examples/light_switch/proxy_server/CMakeFiles/light_switch_proxy_server_nrf52840_xxAA_s140_6.0.0.dir/__/__/__/mesh/access/src/access.c.obj
                0x00034774                access_model_add
 .text.access_model_publish
                0x0003492c        0xc examples/light_switch/proxy_server/CMakeFiles/light_switch_proxy_server_nrf52840_xxAA_s140_6.0.0.dir/__/__/__/mesh/access/src/access.c.obj
                0x0003492c                access_model_publish
 .text.access_model_reply
                0x00034938       0x12 examples/light_switch/proxy_server/CMakeFiles/light_switch_proxy_server_nrf52840_xxAA_s140_6.0.0.dir/__/__/__/mesh/access/src/access.c.obj
                0x00034938                access_model_reply
 *fill*         0x0003494a        0x2 
 .text.access_model_publish_address_set
                0x0003494c       0x3c examples/light_switch/proxy_server/CMakeFiles/light_switch_proxy_server_nrf52840_xxAA_s140_6.0.0.dir/__/__/__/mesh/access/src/access.c.obj
                0x0003494c                access_model_publish_address_set
 .text.access_model_publish_address_get
                0x00034988       0x28 examples/light_switch/proxy_server/CMakeFiles/light_switch_proxy_server_nrf52840_xxAA_s140_6.0.0.dir/__/__/__/mesh/access/src/access.c.obj
                0x00034988                access_model_publish_address_get
 .text.access_model_publish_retransmit_set
                0x000349b0       0x4c examples/light_switch/proxy_server/CMakeFiles/light_switch_proxy_server_nrf52840_xxAA_s140_6.0.0.dir/__/__/__/mesh/access/src/access.c.obj
                0x000349b0                access_model_publish_retransmit_set
 .text.access_model_publish_retransmit_get
                0x000349fc       0x2c examples/light_switch/proxy_server/CMakeFiles/light_switch_proxy_server_nrf52840_xxAA_s140_6.0.0.dir/__/__/__/mesh/access/src/access.c.obj
                0x000349fc                access_model_publish_retransmit_get
 .text.access_model_publish_period_set
                0x00034a28       0x6c examples/light_switch/proxy_server/CMakeFiles/light_switch_proxy_server_nrf52840_xxAA_s140_6.0.0.dir/__/__/__/mesh/access/src/access.c.obj
                0x00034a28                access_model_publish_period_set
 .text.access_model_publish_period_get
                0x00034a94       0x3c examples/light_switch/proxy_server/CMakeFiles/light_switch_proxy_server_nrf52840_xxAA_s140_6.0.0.dir/__/__/__/mesh/access/src/access.c.obj
                0x00034a94                access_model_publish_period_get
 .text.access_model_subscription_list_alloc
                0x00034ad0       0x40 examples/light_switch/proxy_server/CMakeFiles/light_switch_proxy_server_nrf52840_xxAA_s140_6.0.0.dir/__/__/__/mesh/access/src/access.c.obj
                0x00034ad0                access_model_subscription_list_alloc
 .text.access_model_subscription_add
                0x00034b10       0x60 examples/light_switch/proxy_server/CMakeFiles/light_switch_proxy_server_nrf52840_xxAA_s140_6.0.0.dir/__/__/__/mesh/access/src/access.c.obj
                0x00034b10                access_model_subscription_add
 .text.access_model_subscription_remove
                0x00034b70       0x60 examples/light_switch/proxy_server/CMakeFiles/light_switch_proxy_server_nrf52840_xxAA_s140_6.0.0.dir/__/__/__/mesh/access/src/access.c.obj
                0x00034b70                access_model_subscription_remove
 .text.access_model_subscriptions_get
                0x00034bd0       0x7c examples/light_switch/proxy_server/CMakeFiles/light_switch_proxy_server_nrf52840_xxAA_s140_6.0.0.dir/__/__/__/mesh/access/src/access.c.obj
                0x00034bd0                access_model_subscriptions_get
 .text.access_model_application_bind
                0x00034c4c       0x50 examples/light_switch/proxy_server/CMakeFiles/light_switch_proxy_server_nrf52840_xxAA_s140_6.0.0.dir/__/__/__/mesh/access/src/access.c.obj
                0x00034c4c                access_model_application_bind
 .text.access_model_application_unbind
                0x00034c9c       0x50 examples/light_switch/proxy_server/CMakeFiles/light_switch_proxy_server_nrf52840_xxAA_s140_6.0.0.dir/__/__/__/mesh/access/src/access.c.obj
                0x00034c9c                access_model_application_unbind
 .text.access_model_applications_get
                0x00034cec       0x64 examples/light_switch/proxy_server/CMakeFiles/light_switch_proxy_server_nrf52840_xxAA_s140_6.0.0.dir/__/__/__/mesh/access/src/access.c.obj
                0x00034cec                access_model_applications_get
 .text.access_model_publish_application_set
                0x00034d50       0x3c examples/light_switch/proxy_server/CMakeFiles/light_switch_proxy_server_nrf52840_xxAA_s140_6.0.0.dir/__/__/__/mesh/access/src/access.c.obj
                0x00034d50                access_model_publish_application_set
 .text.access_model_publish_application_get
                0x00034d8c       0x28 examples/light_switch/proxy_server/CMakeFiles/light_switch_proxy_server_nrf52840_xxAA_s140_6.0.0.dir/__/__/__/mesh/access/src/access.c.obj
                0x00034d8c                access_model_publish_application_get
 .text.access_default_ttl_set
                0x00034db4       0x18 examples/light_switch/proxy_server/CMakeFiles/light_switch_proxy_server_nrf52840_xxAA_s140_6.0.0.dir/__/__/__/mesh/access/src/access.c.obj
                0x00034db4                access_default_ttl_set
 .text.access_default_ttl_get
                0x00034dcc        0xc examples/light_switch/proxy_server/CMakeFiles/light_switch_proxy_server_nrf52840_xxAA_s140_6.0.0.dir/__/__/__/mesh/access/src/access.c.obj
                0x00034dcc                access_default_ttl_get
 .text.access_model_publish_ttl_set
                0x00034dd8       0x40 examples/light_switch/proxy_server/CMakeFiles/light_switch_proxy_server_nrf52840_xxAA_s140_6.0.0.dir/__/__/__/mesh/access/src/access.c.obj
                0x00034dd8                access_model_publish_ttl_set
 .text.access_model_publish_ttl_get
                0x00034e18       0x28 examples/light_switch/proxy_server/CMakeFiles/light_switch_proxy_server_nrf52840_xxAA_s140_6.0.0.dir/__/__/__/mesh/access/src/access.c.obj
                0x00034e18                access_model_publish_ttl_get
 .text.access_element_location_get
                0x00034e40       0x18 examples/light_switch/proxy_server/CMakeFiles/light_switch_proxy_server_nrf52840_xxAA_s140_6.0.0.dir/__/__/__/mesh/access/src/access.c.obj
                0x00034e40                access_element_location_get
 .text.access_element_sig_model_count_get
                0x00034e58       0x18 examples/light_switch/proxy_server/CMakeFiles/light_switch_proxy_server_nrf52840_xxAA_s140_6.0.0.dir/__/__/__/mesh/access/src/access.c.obj
                0x00034e58                access_element_sig_model_count_get
 .text.access_element_vendor_model_count_get
                0x00034e70       0x18 examples/light_switch/proxy_server/CMakeFiles/light_switch_proxy_server_nrf52840_xxAA_s140_6.0.0.dir/__/__/__/mesh/access/src/access.c.obj
                0x00034e70                access_element_vendor_model_count_get
 .text.access_model_id_get
                0x00034e88       0x2c examples/light_switch/proxy_server/CMakeFiles/light_switch_proxy_server_nrf52840_xxAA_s140_6.0.0.dir/__/__/__/mesh/access/src/access.c.obj
                0x00034e88                access_model_id_get
 .text.access_handle_get
                0x00034eb4       0x4c examples/light_switch/proxy_server/CMakeFiles/light_switch_proxy_server_nrf52840_xxAA_s140_6.0.0.dir/__/__/__/mesh/access/src/access.c.obj
                0x00034eb4                access_handle_get
 .text.access_element_models_get
                0x00034f00       0x48 examples/light_switch/proxy_server/CMakeFiles/light_switch_proxy_server_nrf52840_xxAA_s140_6.0.0.dir/__/__/__/mesh/access/src/access.c.obj
                0x00034f00                access_element_models_get
 .text.access_model_p_args_get
                0x00034f48       0x28 examples/light_switch/proxy_server/CMakeFiles/light_switch_proxy_server_nrf52840_xxAA_s140_6.0.0.dir/__/__/__/mesh/access/src/access.c.obj
                0x00034f48                access_model_p_args_get
 .text.access_model_publication_stop
                0x00034f70       0x70 examples/light_switch/proxy_server/CMakeFiles/light_switch_proxy_server_nrf52840_xxAA_s140_6.0.0.dir/__/__/__/mesh/access/src/access.c.obj
                0x00034f70                access_model_publication_stop
 .text.access_model_publication_by_appkey_stop
                0x00034fe0       0x36 examples/light_switch/proxy_server/CMakeFiles/light_switch_proxy_server_nrf52840_xxAA_s140_6.0.0.dir/__/__/__/mesh/access/src/access.c.obj
                0x00034fe0                access_model_publication_by_appkey_stop
 *fill*         0x00035016        0x2 
 .text.reliable_timer_cb
                0x00035018      0x11c examples/light_switch/proxy_server/CMakeFiles/light_switch_proxy_server_nrf52840_xxAA_s140_6.0.0.dir/__/__/__/mesh/access/src/access_reliable.c.obj
 .text.remove_and_reschedule
                0x00035134       0xac examples/light_switch/proxy_server/CMakeFiles/light_switch_proxy_server_nrf52840_xxAA_s140_6.0.0.dir/__/__/__/mesh/access/src/access_reliable.c.obj
 .text.access_reliable_message_rx_cb
                0x000351e0       0x68 examples/light_switch/proxy_server/CMakeFiles/light_switch_proxy_server_nrf52840_xxAA_s140_6.0.0.dir/__/__/__/mesh/access/src/access_reliable.c.obj
                0x000351e0                access_reliable_message_rx_cb
 .text.access_reliable_init
                0x00035248       0x1c examples/light_switch/proxy_server/CMakeFiles/light_switch_proxy_server_nrf52840_xxAA_s140_6.0.0.dir/__/__/__/mesh/access/src/access_reliable.c.obj
                0x00035248                access_reliable_init
 .text.access_reliable_cancel_all
                0x00035264       0x60 examples/light_switch/proxy_server/CMakeFiles/light_switch_proxy_server_nrf52840_xxAA_s140_6.0.0.dir/__/__/__/mesh/access/src/access_reliable.c.obj
                0x00035264                access_reliable_cancel_all
 .text.access_model_reliable_cancel
                0x000352c4       0x68 examples/light_switch/proxy_server/CMakeFiles/light_switch_proxy_server_nrf52840_xxAA_s140_6.0.0.dir/__/__/__/mesh/access/src/access_reliable.c.obj
                0x000352c4                access_model_reliable_cancel
 .text.bitfield_get
                0x0003532c       0x1a examples/light_switch/proxy_server/CMakeFiles/light_switch_proxy_server_nrf52840_xxAA_s140_6.0.0.dir/__/__/__/mesh/access/src/device_state_manager.c.obj
 .text.bitfield_set
                0x00035346       0x18 examples/light_switch/proxy_server/CMakeFiles/light_switch_proxy_server_nrf52840_xxAA_s140_6.0.0.dir/__/__/__/mesh/access/src/device_state_manager.c.obj
 .text.bitfield_clear
                0x0003535e       0x1a examples/light_switch/proxy_server/CMakeFiles/light_switch_proxy_server_nrf52840_xxAA_s140_6.0.0.dir/__/__/__/mesh/access/src/device_state_manager.c.obj
 .text.bitfield_is_all_clear
                0x00035378       0x3c examples/light_switch/proxy_server/CMakeFiles/light_switch_proxy_server_nrf52840_xxAA_s140_6.0.0.dir/__/__/__/mesh/access/src/device_state_manager.c.obj
 .text.address_handle_virtual_valid
                0x000353b4       0x18 examples/light_switch/proxy_server/CMakeFiles/light_switch_proxy_server_nrf52840_xxAA_s140_6.0.0.dir/__/__/__/mesh/access/src/device_state_manager.c.obj
 .text.net_key_handle_get
                0x000353cc       0x58 examples/light_switch/proxy_server/CMakeFiles/light_switch_proxy_server_nrf52840_xxAA_s140_6.0.0.dir/__/__/__/mesh/access/src/device_state_manager.c.obj
 .text.dev_key_handle_get
                0x00035424       0x30 examples/light_switch/proxy_server/CMakeFiles/light_switch_proxy_server_nrf52840_xxAA_s140_6.0.0.dir/__/__/__/mesh/access/src/device_state_manager.c.obj
 .text.app_key_handle_get
                0x00035454       0x58 examples/light_switch/proxy_server/CMakeFiles/light_switch_proxy_server_nrf52840_xxAA_s140_6.0.0.dir/__/__/__/mesh/access/src/device_state_manager.c.obj
 .text.addr_nonvirtual_to_flash_entry
                0x000354ac       0x10 examples/light_switch/proxy_server/CMakeFiles/light_switch_proxy_server_nrf52840_xxAA_s140_6.0.0.dir/__/__/__/mesh/access/src/device_state_manager.c.obj
 .text.devkey_set
                0x000354bc       0x50 examples/light_switch/proxy_server/CMakeFiles/light_switch_proxy_server_nrf52840_xxAA_s140_6.0.0.dir/__/__/__/mesh/access/src/device_state_manager.c.obj
 .text.devkey_to_dsm_entry
                0x0003550c       0x18 examples/light_switch/proxy_server/CMakeFiles/light_switch_proxy_server_nrf52840_xxAA_s140_6.0.0.dir/__/__/__/mesh/access/src/device_state_manager.c.obj
 .text.devkey_to_flash_entry
                0x00035524       0x28 examples/light_switch/proxy_server/CMakeFiles/light_switch_proxy_server_nrf52840_xxAA_s140_6.0.0.dir/__/__/__/mesh/access/src/device_state_manager.c.obj
 .text.addr_virtual_to_flash_entry
                0x0003554c       0x18 examples/light_switch/proxy_server/CMakeFiles/light_switch_proxy_server_nrf52840_xxAA_s140_6.0.0.dir/__/__/__/mesh/access/src/device_state_manager.c.obj
 .text.addr_unicast_to_dsm_entry
                0x00035564        0xc examples/light_switch/proxy_server/CMakeFiles/light_switch_proxy_server_nrf52840_xxAA_s140_6.0.0.dir/__/__/__/mesh/access/src/device_state_manager.c.obj
 .text.addr_unicast_to_flash_entry
                0x00035570       0x10 examples/light_switch/proxy_server/CMakeFiles/light_switch_proxy_server_nrf52840_xxAA_s140_6.0.0.dir/__/__/__/mesh/access/src/device_state_manager.c.obj
 .text.flash_mem_listener_callback
                0x00035580       0x14 examples/light_switch/proxy_server/CMakeFiles/light_switch_proxy_server_nrf52840_xxAA_s140_6.0.0.dir/__/__/__/mesh/access/src/device_state_manager.c.obj
 .text.get_subnet_handle
                0x00035594       0x54 examples/light_switch/proxy_server/CMakeFiles/light_switch_proxy_server_nrf52840_xxAA_s140_6.0.0.dir/__/__/__/mesh/access/src/device_state_manager.c.obj
 .text.appkey_set
                0x000355e8       0x70 examples/light_switch/proxy_server/CMakeFiles/light_switch_proxy_server_nrf52840_xxAA_s140_6.0.0.dir/__/__/__/mesh/access/src/device_state_manager.c.obj
 .text.appkey_to_flash_entry
                0x00035658       0x54 examples/light_switch/proxy_server/CMakeFiles/light_switch_proxy_server_nrf52840_xxAA_s140_6.0.0.dir/__/__/__/mesh/access/src/device_state_manager.c.obj
 .text.subnet_to_flash_entry
                0x000356ac       0x60 examples/light_switch/proxy_server/CMakeFiles/light_switch_proxy_server_nrf52840_xxAA_s140_6.0.0.dir/__/__/__/mesh/access/src/device_state_manager.c.obj
 .text.bitfield_clear_all
                0x0003570c        0xe examples/light_switch/proxy_server/CMakeFiles/light_switch_proxy_server_nrf52840_xxAA_s140_6.0.0.dir/__/__/__/mesh/access/src/device_state_manager.c.obj
 *fill*         0x0003571a        0x2 
 .text.subnet_set
                0x0003571c       0xac examples/light_switch/proxy_server/CMakeFiles/light_switch_proxy_server_nrf52840_xxAA_s140_6.0.0.dir/__/__/__/mesh/access/src/device_state_manager.c.obj
 .text.virtual_address_set
                0x000357c8       0x4c examples/light_switch/proxy_server/CMakeFiles/light_switch_proxy_server_nrf52840_xxAA_s140_6.0.0.dir/__/__/__/mesh/access/src/device_state_manager.c.obj
 .text.addr_virtual_to_dsm_entry
                0x00035814        0xe examples/light_switch/proxy_server/CMakeFiles/light_switch_proxy_server_nrf52840_xxAA_s140_6.0.0.dir/__/__/__/mesh/access/src/device_state_manager.c.obj
 *fill*         0x00035822        0x2 
 .text.reset_flash_area
                0x00035824       0x28 examples/light_switch/proxy_server/CMakeFiles/light_switch_proxy_server_nrf52840_xxAA_s140_6.0.0.dir/__/__/__/mesh/access/src/device_state_manager.c.obj
 .text.flash_save
                0x0003584c       0x7c examples/light_switch/proxy_server/CMakeFiles/light_switch_proxy_server_nrf52840_xxAA_s140_6.0.0.dir/__/__/__/mesh/access/src/device_state_manager.c.obj
 .text.flash_invalidate
                0x000358c8       0x64 examples/light_switch/proxy_server/CMakeFiles/light_switch_proxy_server_nrf52840_xxAA_s140_6.0.0.dir/__/__/__/mesh/access/src/device_state_manager.c.obj
 .text.flash_update_all
                0x0003592c       0x6c examples/light_switch/proxy_server/CMakeFiles/light_switch_proxy_server_nrf52840_xxAA_s140_6.0.0.dir/__/__/__/mesh/access/src/device_state_manager.c.obj
 .text.virtual_address_uuid_index_get
                0x00035998       0x60 examples/light_switch/proxy_server/CMakeFiles/light_switch_proxy_server_nrf52840_xxAA_s140_6.0.0.dir/__/__/__/mesh/access/src/device_state_manager.c.obj
 .text.add_address_virtual
                0x000359f8       0x74 examples/light_switch/proxy_server/CMakeFiles/light_switch_proxy_server_nrf52840_xxAA_s140_6.0.0.dir/__/__/__/mesh/access/src/device_state_manager.c.obj
 .text.get_subnet_handle_by_beacon_info
                0x00035a6c       0x30 examples/light_switch/proxy_server/CMakeFiles/light_switch_proxy_server_nrf52840_xxAA_s140_6.0.0.dir/__/__/__/mesh/access/src/device_state_manager.c.obj
 .text.get_app_handle
                0x00035a9c       0x44 examples/light_switch/proxy_server/CMakeFiles/light_switch_proxy_server_nrf52840_xxAA_s140_6.0.0.dir/__/__/__/mesh/access/src/device_state_manager.c.obj
 .text.appkey_to_dsm_entry
                0x00035ae0       0x68 examples/light_switch/proxy_server/CMakeFiles/light_switch_proxy_server_nrf52840_xxAA_s140_6.0.0.dir/__/__/__/mesh/access/src/device_state_manager.c.obj
 .text.subnet_to_dsm_entry
                0x00035b48       0x68 examples/light_switch/proxy_server/CMakeFiles/light_switch_proxy_server_nrf52840_xxAA_s140_6.0.0.dir/__/__/__/mesh/access/src/device_state_manager.c.obj
 .text.flash_operation_complete
                0x00035bb0       0x4c examples/light_switch/proxy_server/CMakeFiles/light_switch_proxy_server_nrf52840_xxAA_s140_6.0.0.dir/__/__/__/mesh/access/src/device_state_manager.c.obj
 .text.flash_invalidate_complete
                0x00035bfc        0x8 examples/light_switch/proxy_server/CMakeFiles/light_switch_proxy_server_nrf52840_xxAA_s140_6.0.0.dir/__/__/__/mesh/access/src/device_state_manager.c.obj
 .text.flash_write_complete
                0x00035c04        0x8 examples/light_switch/proxy_server/CMakeFiles/light_switch_proxy_server_nrf52840_xxAA_s140_6.0.0.dir/__/__/__/mesh/access/src/device_state_manager.c.obj
 .text.add_address.part.8
                0x00035c0c      0x164 examples/light_switch/proxy_server/CMakeFiles/light_switch_proxy_server_nrf52840_xxAA_s140_6.0.0.dir/__/__/__/mesh/access/src/device_state_manager.c.obj
 .text.bitfield_next_get.part.0.constprop.17
                0x00035d70       0x3c examples/light_switch/proxy_server/CMakeFiles/light_switch_proxy_server_nrf52840_xxAA_s140_6.0.0.dir/__/__/__/mesh/access/src/device_state_manager.c.obj
 .text.address_handle_valid
                0x00035dac       0x28 examples/light_switch/proxy_server/CMakeFiles/light_switch_proxy_server_nrf52840_xxAA_s140_6.0.0.dir/__/__/__/mesh/access/src/device_state_manager.c.obj
 .text.address_handle_nonvirtual_valid
                0x00035dd4       0x14 examples/light_switch/proxy_server/CMakeFiles/light_switch_proxy_server_nrf52840_xxAA_s140_6.0.0.dir/__/__/__/mesh/access/src/device_state_manager.c.obj
 .text.address_delete_if_unused
                0x00035de8       0x78 examples/light_switch/proxy_server/CMakeFiles/light_switch_proxy_server_nrf52840_xxAA_s140_6.0.0.dir/__/__/__/mesh/access/src/device_state_manager.c.obj
 .text.addr_nonvirtual_to_dsm_entry
                0x00035e60       0x38 examples/light_switch/proxy_server/CMakeFiles/light_switch_proxy_server_nrf52840_xxAA_s140_6.0.0.dir/__/__/__/mesh/access/src/device_state_manager.c.obj
 .text.dsm_flash_config_load
                0x00035e98      0x120 examples/light_switch/proxy_server/CMakeFiles/light_switch_proxy_server_nrf52840_xxAA_s140_6.0.0.dir/__/__/__/mesh/access/src/device_state_manager.c.obj
                0x00035e98                dsm_flash_config_load
 .text.dsm_flash_area_get
                0x00035fb8        0xc examples/light_switch/proxy_server/CMakeFiles/light_switch_proxy_server_nrf52840_xxAA_s140_6.0.0.dir/__/__/__/mesh/access/src/device_state_manager.c.obj
                0x00035fb8                dsm_flash_area_get
 .text.build_flash_area
                0x00035fc4       0x8c examples/light_switch/proxy_server/CMakeFiles/light_switch_proxy_server_nrf52840_xxAA_s140_6.0.0.dir/__/__/__/mesh/access/src/device_state_manager.c.obj
 .text.flash_remove_complete
                0x00036050        0x4 examples/light_switch/proxy_server/CMakeFiles/light_switch_proxy_server_nrf52840_xxAA_s140_6.0.0.dir/__/__/__/mesh/access/src/device_state_manager.c.obj
 .text.dsm_clear
                0x00036054       0xb4 examples/light_switch/proxy_server/CMakeFiles/light_switch_proxy_server_nrf52840_xxAA_s140_6.0.0.dir/__/__/__/mesh/access/src/device_state_manager.c.obj
                0x00036054                dsm_clear
 .text.dsm_init
                0x00036108       0x3c examples/light_switch/proxy_server/CMakeFiles/light_switch_proxy_server_nrf52840_xxAA_s140_6.0.0.dir/__/__/__/mesh/access/src/device_state_manager.c.obj
                0x00036108                dsm_init
 .text.dsm_local_unicast_addresses_set
                0x00036144       0x78 examples/light_switch/proxy_server/CMakeFiles/light_switch_proxy_server_nrf52840_xxAA_s140_6.0.0.dir/__/__/__/mesh/access/src/device_state_manager.c.obj
                0x00036144                dsm_local_unicast_addresses_set
 .text.dsm_local_unicast_addresses_get
                0x000361bc       0x20 examples/light_switch/proxy_server/CMakeFiles/light_switch_proxy_server_nrf52840_xxAA_s140_6.0.0.dir/__/__/__/mesh/access/src/device_state_manager.c.obj
                0x000361bc                dsm_local_unicast_addresses_get
 .text.dsm_address_publish_add
                0x000361dc        0xc examples/light_switch/proxy_server/CMakeFiles/light_switch_proxy_server_nrf52840_xxAA_s140_6.0.0.dir/__/__/__/mesh/access/src/device_state_manager.c.obj
                0x000361dc                dsm_address_publish_add
 .text.dsm_address_publish_add_handle
                0x000361e8       0x38 examples/light_switch/proxy_server/CMakeFiles/light_switch_proxy_server_nrf52840_xxAA_s140_6.0.0.dir/__/__/__/mesh/access/src/device_state_manager.c.obj
                0x000361e8                dsm_address_publish_add_handle
 .text.dsm_address_publish_virtual_add
                0x00036220        0x6 examples/light_switch/proxy_server/CMakeFiles/light_switch_proxy_server_nrf52840_xxAA_s140_6.0.0.dir/__/__/__/mesh/access/src/device_state_manager.c.obj
                0x00036220                dsm_address_publish_virtual_add
 *fill*         0x00036226        0x2 
 .text.dsm_address_publish_remove
                0x00036228       0x44 examples/light_switch/proxy_server/CMakeFiles/light_switch_proxy_server_nrf52840_xxAA_s140_6.0.0.dir/__/__/__/mesh/access/src/device_state_manager.c.obj
                0x00036228                dsm_address_publish_remove
 .text.dsm_address_subscription_add
                0x0003626c        0xc examples/light_switch/proxy_server/CMakeFiles/light_switch_proxy_server_nrf52840_xxAA_s140_6.0.0.dir/__/__/__/mesh/access/src/device_state_manager.c.obj
                0x0003626c                dsm_address_subscription_add
 .text.dsm_address_subscription_virtual_add
                0x00036278        0x6 examples/light_switch/proxy_server/CMakeFiles/light_switch_proxy_server_nrf52840_xxAA_s140_6.0.0.dir/__/__/__/mesh/access/src/device_state_manager.c.obj
                0x00036278                dsm_address_subscription_virtual_add
 *fill*         0x0003627e        0x2 
 .text.dsm_address_subscription_add_handle
                0x00036280       0x38 examples/light_switch/proxy_server/CMakeFiles/light_switch_proxy_server_nrf52840_xxAA_s140_6.0.0.dir/__/__/__/mesh/access/src/device_state_manager.c.obj
                0x00036280                dsm_address_subscription_add_handle
 .text.dsm_address_subscription_get
                0x000362b8       0x34 examples/light_switch/proxy_server/CMakeFiles/light_switch_proxy_server_nrf52840_xxAA_s140_6.0.0.dir/__/__/__/mesh/access/src/device_state_manager.c.obj
                0x000362b8                dsm_address_subscription_get
 .text.dsm_address_get
                0x000362ec       0x5c examples/light_switch/proxy_server/CMakeFiles/light_switch_proxy_server_nrf52840_xxAA_s140_6.0.0.dir/__/__/__/mesh/access/src/device_state_manager.c.obj
                0x000362ec                dsm_address_get
 .text.dsm_address_subscription_remove
                0x00036348       0x5c examples/light_switch/proxy_server/CMakeFiles/light_switch_proxy_server_nrf52840_xxAA_s140_6.0.0.dir/__/__/__/mesh/access/src/device_state_manager.c.obj
                0x00036348                dsm_address_subscription_remove
 .text.dsm_address_handle_get
                0x000363a4       0x98 examples/light_switch/proxy_server/CMakeFiles/light_switch_proxy_server_nrf52840_xxAA_s140_6.0.0.dir/__/__/__/mesh/access/src/device_state_manager.c.obj
                0x000363a4                dsm_address_handle_get
 .text.dsm_net_key_index_to_subnet_handle
                0x0003643c       0x1c examples/light_switch/proxy_server/CMakeFiles/light_switch_proxy_server_nrf52840_xxAA_s140_6.0.0.dir/__/__/__/mesh/access/src/device_state_manager.c.obj
                0x0003643c                dsm_net_key_index_to_subnet_handle
 .text.dsm_subnet_handle_get
                0x00036458        0xc examples/light_switch/proxy_server/CMakeFiles/light_switch_proxy_server_nrf52840_xxAA_s140_6.0.0.dir/__/__/__/mesh/access/src/device_state_manager.c.obj
                0x00036458                dsm_subnet_handle_get
 .text.dsm_appkey_index_to_appkey_handle
                0x00036464       0x1c examples/light_switch/proxy_server/CMakeFiles/light_switch_proxy_server_nrf52840_xxAA_s140_6.0.0.dir/__/__/__/mesh/access/src/device_state_manager.c.obj
                0x00036464                dsm_appkey_index_to_appkey_handle
 .text.dsm_appkey_handle_get
                0x00036480        0xc examples/light_switch/proxy_server/CMakeFiles/light_switch_proxy_server_nrf52840_xxAA_s140_6.0.0.dir/__/__/__/mesh/access/src/device_state_manager.c.obj
                0x00036480                dsm_appkey_handle_get
 .text.dsm_appkey_handle_to_appkey_index
                0x0003648c       0x34 examples/light_switch/proxy_server/CMakeFiles/light_switch_proxy_server_nrf52840_xxAA_s140_6.0.0.dir/__/__/__/mesh/access/src/device_state_manager.c.obj
                0x0003648c                dsm_appkey_handle_to_appkey_index
 .text.dsm_appkey_handle_to_subnet_handle
                0x000364c0       0xa0 examples/light_switch/proxy_server/CMakeFiles/light_switch_proxy_server_nrf52840_xxAA_s140_6.0.0.dir/__/__/__/mesh/access/src/device_state_manager.c.obj
                0x000364c0                dsm_appkey_handle_to_subnet_handle
 .text.dsm_subnet_add
                0x00036560       0x78 examples/light_switch/proxy_server/CMakeFiles/light_switch_proxy_server_nrf52840_xxAA_s140_6.0.0.dir/__/__/__/mesh/access/src/device_state_manager.c.obj
                0x00036560                dsm_subnet_add
 .text.dsm_subnet_kr_phase_get
                0x000365d8       0x34 examples/light_switch/proxy_server/CMakeFiles/light_switch_proxy_server_nrf52840_xxAA_s140_6.0.0.dir/__/__/__/mesh/access/src/device_state_manager.c.obj
                0x000365d8                dsm_subnet_kr_phase_get
 .text.dsm_subnet_update
                0x0003660c       0xdc examples/light_switch/proxy_server/CMakeFiles/light_switch_proxy_server_nrf52840_xxAA_s140_6.0.0.dir/__/__/__/mesh/access/src/device_state_manager.c.obj
                0x0003660c                dsm_subnet_update
 .text.dsm_subnet_update_swap_keys
                0x000366e8       0x5c examples/light_switch/proxy_server/CMakeFiles/light_switch_proxy_server_nrf52840_xxAA_s140_6.0.0.dir/__/__/__/mesh/access/src/device_state_manager.c.obj
                0x000366e8                dsm_subnet_update_swap_keys
 .text.dsm_subnet_update_commit
                0x00036744       0xf4 examples/light_switch/proxy_server/CMakeFiles/light_switch_proxy_server_nrf52840_xxAA_s140_6.0.0.dir/__/__/__/mesh/access/src/device_state_manager.c.obj
                0x00036744                dsm_subnet_update_commit
 .text.mesh_evt_handler
                0x00036838       0x4c examples/light_switch/proxy_server/CMakeFiles/light_switch_proxy_server_nrf52840_xxAA_s140_6.0.0.dir/__/__/__/mesh/access/src/device_state_manager.c.obj
 .text.dsm_subnet_get_all
                0x00036884       0x60 examples/light_switch/proxy_server/CMakeFiles/light_switch_proxy_server_nrf52840_xxAA_s140_6.0.0.dir/__/__/__/mesh/access/src/device_state_manager.c.obj
                0x00036884                dsm_subnet_get_all
 .text.dsm_devkey_add
                0x000368e4       0x7c examples/light_switch/proxy_server/CMakeFiles/light_switch_proxy_server_nrf52840_xxAA_s140_6.0.0.dir/__/__/__/mesh/access/src/device_state_manager.c.obj
                0x000368e4                dsm_devkey_add
 .text.dsm_appkey_add
                0x00036960       0x90 examples/light_switch/proxy_server/CMakeFiles/light_switch_proxy_server_nrf52840_xxAA_s140_6.0.0.dir/__/__/__/mesh/access/src/device_state_manager.c.obj
                0x00036960                dsm_appkey_add
 .text.dsm_appkey_update
                0x000369f0       0xa4 examples/light_switch/proxy_server/CMakeFiles/light_switch_proxy_server_nrf52840_xxAA_s140_6.0.0.dir/__/__/__/mesh/access/src/device_state_manager.c.obj
                0x000369f0                dsm_appkey_update
 .text.dsm_appkey_delete
                0x00036a94       0x30 examples/light_switch/proxy_server/CMakeFiles/light_switch_proxy_server_nrf52840_xxAA_s140_6.0.0.dir/__/__/__/mesh/access/src/device_state_manager.c.obj
                0x00036a94                dsm_appkey_delete
 .text.dsm_subnet_delete
                0x00036ac4       0xac examples/light_switch/proxy_server/CMakeFiles/light_switch_proxy_server_nrf52840_xxAA_s140_6.0.0.dir/__/__/__/mesh/access/src/device_state_manager.c.obj
                0x00036ac4                dsm_subnet_delete
 .text.dsm_appkey_get_all
                0x00036b70       0x88 examples/light_switch/proxy_server/CMakeFiles/light_switch_proxy_server_nrf52840_xxAA_s140_6.0.0.dir/__/__/__/mesh/access/src/device_state_manager.c.obj
                0x00036b70                dsm_appkey_get_all
 .text.dsm_tx_secmat_get
                0x00036bf8       0xc4 examples/light_switch/proxy_server/CMakeFiles/light_switch_proxy_server_nrf52840_xxAA_s140_6.0.0.dir/__/__/__/mesh/access/src/device_state_manager.c.obj
                0x00036bf8                dsm_tx_secmat_get
 .text.dsm_beacon_info_get
                0x00036cbc       0x38 examples/light_switch/proxy_server/CMakeFiles/light_switch_proxy_server_nrf52840_xxAA_s140_6.0.0.dir/__/__/__/mesh/access/src/device_state_manager.c.obj
                0x00036cbc                dsm_beacon_info_get
 .text.dsm_net_secmat_from_keyindex_get
                0x00036cf4       0x3c examples/light_switch/proxy_server/CMakeFiles/light_switch_proxy_server_nrf52840_xxAA_s140_6.0.0.dir/__/__/__/mesh/access/src/device_state_manager.c.obj
                0x00036cf4                dsm_net_secmat_from_keyindex_get
 .text.nrf_mesh_net_secmat_next_get
                0x00036d30       0xb4 examples/light_switch/proxy_server/CMakeFiles/light_switch_proxy_server_nrf52840_xxAA_s140_6.0.0.dir/__/__/__/mesh/access/src/device_state_manager.c.obj
                0x00036d30                nrf_mesh_net_secmat_next_get
 .text.nrf_mesh_app_secmat_next_get
                0x00036de4       0x88 examples/light_switch/proxy_server/CMakeFiles/light_switch_proxy_server_nrf52840_xxAA_s140_6.0.0.dir/__/__/__/mesh/access/src/device_state_manager.c.obj
                0x00036de4                nrf_mesh_app_secmat_next_get
 .text.nrf_mesh_devkey_secmat_get
                0x00036e6c       0x28 examples/light_switch/proxy_server/CMakeFiles/light_switch_proxy_server_nrf52840_xxAA_s140_6.0.0.dir/__/__/__/mesh/access/src/device_state_manager.c.obj
                0x00036e6c                nrf_mesh_devkey_secmat_get
 .text.nrf_mesh_beacon_info_next_get
                0x00036e94       0xd4 examples/light_switch/proxy_server/CMakeFiles/light_switch_proxy_server_nrf52840_xxAA_s140_6.0.0.dir/__/__/__/mesh/access/src/device_state_manager.c.obj
                0x00036e94                nrf_mesh_beacon_info_next_get
 .text.nrf_mesh_rx_address_get
                0x00036f68      0x118 examples/light_switch/proxy_server/CMakeFiles/light_switch_proxy_server_nrf52840_xxAA_s140_6.0.0.dir/__/__/__/mesh/access/src/device_state_manager.c.obj
                0x00036f68                nrf_mesh_rx_address_get
 .text.nrf_mesh_unicast_address_get
                0x00037080       0x20 examples/light_switch/proxy_server/CMakeFiles/light_switch_proxy_server_nrf52840_xxAA_s140_6.0.0.dir/__/__/__/mesh/access/src/device_state_manager.c.obj
                0x00037080                nrf_mesh_unicast_address_get
 .text.complete_provisioning
                0x000370a0       0x24 examples/light_switch/proxy_server/CMakeFiles/light_switch_proxy_server_nrf52840_xxAA_s140_6.0.0.dir/__/__/__/mesh/prov/src/prov_provisionee.c.obj
 .text.prov_provisionee_cb_link_established
                0x000370c4       0x36 examples/light_switch/proxy_server/CMakeFiles/light_switch_proxy_server_nrf52840_xxAA_s140_6.0.0.dir/__/__/__/mesh/prov/src/prov_provisionee.c.obj
 .text.prov_provisionee_cb_link_closed
                0x000370fa       0x34 examples/light_switch/proxy_server/CMakeFiles/light_switch_proxy_server_nrf52840_xxAA_s140_6.0.0.dir/__/__/__/mesh/prov/src/prov_provisionee.c.obj
 .text.request_authentication
                0x0003712e       0x8a examples/light_switch/proxy_server/CMakeFiles/light_switch_proxy_server_nrf52840_xxAA_s140_6.0.0.dir/__/__/__/mesh/prov/src/prov_provisionee.c.obj
 .text.send_failed
                0x000371b8       0x3a examples/light_switch/proxy_server/CMakeFiles/light_switch_proxy_server_nrf52840_xxAA_s140_6.0.0.dir/__/__/__/mesh/prov/src/prov_provisionee.c.obj
 .text.start_authentication
                0x000371f2       0x52 examples/light_switch/proxy_server/CMakeFiles/light_switch_proxy_server_nrf52840_xxAA_s140_6.0.0.dir/__/__/__/mesh/prov/src/prov_provisionee.c.obj
 .text.prov_provisionee_cb_ack_received
                0x00037244       0xc8 examples/light_switch/proxy_server/CMakeFiles/light_switch_proxy_server_nrf52840_xxAA_s140_6.0.0.dir/__/__/__/mesh/prov/src/prov_provisionee.c.obj
 .text.prov_provisionee_pkt_in
                0x0003730c      0x2e4 examples/light_switch/proxy_server/CMakeFiles/light_switch_proxy_server_nrf52840_xxAA_s140_6.0.0.dir/__/__/__/mesh/prov/src/prov_provisionee.c.obj
 .text.prov_provisionee_listen
                0x000375f0       0x30 examples/light_switch/proxy_server/CMakeFiles/light_switch_proxy_server_nrf52840_xxAA_s140_6.0.0.dir/__/__/__/mesh/prov/src/prov_provisionee.c.obj
                0x000375f0                prov_provisionee_listen
 .text.prov_provisionee_auth_data
                0x00037620       0x98 examples/light_switch/proxy_server/CMakeFiles/light_switch_proxy_server_nrf52840_xxAA_s140_6.0.0.dir/__/__/__/mesh/prov/src/prov_provisionee.c.obj
                0x00037620                prov_provisionee_auth_data
 .text.bearer_compare_callback
                0x000376b8        0xc examples/light_switch/proxy_server/CMakeFiles/light_switch_proxy_server_nrf52840_xxAA_s140_6.0.0.dir/__/__/__/mesh/prov/src/nrf_mesh_prov.c.obj
 .text.bitfield_next_get.part.0.constprop.4
                0x000376c4       0x34 examples/light_switch/proxy_server/CMakeFiles/light_switch_proxy_server_nrf52840_xxAA_s140_6.0.0.dir/__/__/__/mesh/prov/src/nrf_mesh_prov.c.obj
 .text.nrf_mesh_prov_init
                0x000376f8       0x32 examples/light_switch/proxy_server/CMakeFiles/light_switch_proxy_server_nrf52840_xxAA_s140_6.0.0.dir/__/__/__/mesh/prov/src/nrf_mesh_prov.c.obj
                0x000376f8                nrf_mesh_prov_init
 *fill*         0x0003772a        0x2 
 .text.nrf_mesh_prov_bearer_add
                0x0003772c       0x28 examples/light_switch/proxy_server/CMakeFiles/light_switch_proxy_server_nrf52840_xxAA_s140_6.0.0.dir/__/__/__/mesh/prov/src/nrf_mesh_prov.c.obj
                0x0003772c                nrf_mesh_prov_bearer_add
 .text.nrf_mesh_prov_generate_keys
                0x00037754        0x4 examples/light_switch/proxy_server/CMakeFiles/light_switch_proxy_server_nrf52840_xxAA_s140_6.0.0.dir/__/__/__/mesh/prov/src/nrf_mesh_prov.c.obj
                0x00037754                nrf_mesh_prov_generate_keys
 .text.nrf_mesh_prov_listen_stop
                0x00037758       0x2e examples/light_switch/proxy_server/CMakeFiles/light_switch_proxy_server_nrf52840_xxAA_s140_6.0.0.dir/__/__/__/mesh/prov/src/nrf_mesh_prov.c.obj
                0x00037758                nrf_mesh_prov_listen_stop
 .text.nrf_mesh_prov_listen
                0x00037786       0x88 examples/light_switch/proxy_server/CMakeFiles/light_switch_proxy_server_nrf52840_xxAA_s140_6.0.0.dir/__/__/__/mesh/prov/src/nrf_mesh_prov.c.obj
                0x00037786                nrf_mesh_prov_listen
 .text.nrf_mesh_prov_auth_data_provide
                0x0003780e        0xe examples/light_switch/proxy_server/CMakeFiles/light_switch_proxy_server_nrf52840_xxAA_s140_6.0.0.dir/__/__/__/mesh/prov/src/nrf_mesh_prov.c.obj
                0x0003780e                nrf_mesh_prov_auth_data_provide
 .text.send_data
                0x0003781c       0x28 examples/light_switch/proxy_server/CMakeFiles/light_switch_proxy_server_nrf52840_xxAA_s140_6.0.0.dir/__/__/__/mesh/prov/src/provisioning.c.obj
 .text.prov_packet_length_valid
                0x00037844       0x1c examples/light_switch/proxy_server/CMakeFiles/light_switch_proxy_server_nrf52840_xxAA_s140_6.0.0.dir/__/__/__/mesh/prov/src/provisioning.c.obj
                0x00037844                prov_packet_length_valid
 .text.prov_tx_capabilities
                0x00037860       0x1e examples/light_switch/proxy_server/CMakeFiles/light_switch_proxy_server_nrf52840_xxAA_s140_6.0.0.dir/__/__/__/mesh/prov/src/provisioning.c.obj
                0x00037860                prov_tx_capabilities
 .text.prov_tx_public_key
                0x0003787e       0x26 examples/light_switch/proxy_server/CMakeFiles/light_switch_proxy_server_nrf52840_xxAA_s140_6.0.0.dir/__/__/__/mesh/prov/src/provisioning.c.obj
                0x0003787e                prov_tx_public_key
 .text.prov_tx_input_complete
                0x000378a4       0x16 examples/light_switch/proxy_server/CMakeFiles/light_switch_proxy_server_nrf52840_xxAA_s140_6.0.0.dir/__/__/__/mesh/prov/src/provisioning.c.obj
                0x000378a4                prov_tx_input_complete
 .text.prov_tx_confirmation
                0x000378ba       0x26 examples/light_switch/proxy_server/CMakeFiles/light_switch_proxy_server_nrf52840_xxAA_s140_6.0.0.dir/__/__/__/mesh/prov/src/provisioning.c.obj
                0x000378ba                prov_tx_confirmation
 .text.prov_tx_random
                0x000378e0       0x26 examples/light_switch/proxy_server/CMakeFiles/light_switch_proxy_server_nrf52840_xxAA_s140_6.0.0.dir/__/__/__/mesh/prov/src/provisioning.c.obj
                0x000378e0                prov_tx_random
 .text.prov_tx_complete
                0x00037906       0x16 examples/light_switch/proxy_server/CMakeFiles/light_switch_proxy_server_nrf52840_xxAA_s140_6.0.0.dir/__/__/__/mesh/prov/src/provisioning.c.obj
                0x00037906                prov_tx_complete
 .text.prov_tx_failed
                0x0003791c       0x1a examples/light_switch/proxy_server/CMakeFiles/light_switch_proxy_server_nrf52840_xxAA_s140_6.0.0.dir/__/__/__/mesh/prov/src/provisioning.c.obj
                0x0003791c                prov_tx_failed
 .text.prov_beacon_unprov_build
                0x00037936       0x54 examples/light_switch/proxy_server/CMakeFiles/light_switch_proxy_server_nrf52840_xxAA_s140_6.0.0.dir/__/__/__/mesh/prov/src/prov_beacon.c.obj
                0x00037936                prov_beacon_unprov_build
 *fill*         0x0003798a        0x2 
 .text.prov_beacon_unprov_packet_in
                0x0003798c       0x88 examples/light_switch/proxy_server/CMakeFiles/light_switch_proxy_server_nrf52840_xxAA_s140_6.0.0.dir/__/__/__/mesh/prov/src/prov_beacon.c.obj
                0x0003798c                prov_beacon_unprov_packet_in
 .text.oob_gen_alphanumeric
                0x00037a14       0x34 examples/light_switch/proxy_server/CMakeFiles/light_switch_proxy_server_nrf52840_xxAA_s140_6.0.0.dir/__/__/__/mesh/prov/src/prov_utils.c.obj
 .text.oob_gen_numeric
                0x00037a48       0x3c examples/light_switch/proxy_server/CMakeFiles/light_switch_proxy_server_nrf52840_xxAA_s140_6.0.0.dir/__/__/__/mesh/prov/src/prov_utils.c.obj
 .text.prov_utils_opt_set
                0x00037a84       0x20 examples/light_switch/proxy_server/CMakeFiles/light_switch_proxy_server_nrf52840_xxAA_s140_6.0.0.dir/__/__/__/mesh/prov/src/prov_utils.c.obj
                0x00037a84                prov_utils_opt_set
 .text.prov_utils_opt_get
                0x00037aa4       0x1c examples/light_switch/proxy_server/CMakeFiles/light_switch_proxy_server_nrf52840_xxAA_s140_6.0.0.dir/__/__/__/mesh/prov/src/prov_utils.c.obj
                0x00037aa4                prov_utils_opt_get
 .text.prov_utils_use_ecdh_offloading
                0x00037ac0        0xc examples/light_switch/proxy_server/CMakeFiles/light_switch_proxy_server_nrf52840_xxAA_s140_6.0.0.dir/__/__/__/mesh/prov/src/prov_utils.c.obj
                0x00037ac0                prov_utils_use_ecdh_offloading
 .text.prov_utils_authentication_values_derive
                0x00037acc       0xa0 examples/light_switch/proxy_server/CMakeFiles/light_switch_proxy_server_nrf52840_xxAA_s140_6.0.0.dir/__/__/__/mesh/prov/src/prov_utils.c.obj
                0x00037acc                prov_utils_authentication_values_derive
 .text.prov_utils_keys_generate
                0x00037b6c       0x1e examples/light_switch/proxy_server/CMakeFiles/light_switch_proxy_server_nrf52840_xxAA_s140_6.0.0.dir/__/__/__/mesh/prov/src/prov_utils.c.obj
                0x00037b6c                prov_utils_keys_generate
 *fill*         0x00037b8a        0x2 
 .text.prov_utils_derive_keys
                0x00037b8c       0xac examples/light_switch/proxy_server/CMakeFiles/light_switch_proxy_server_nrf52840_xxAA_s140_6.0.0.dir/__/__/__/mesh/prov/src/prov_utils.c.obj
                0x00037b8c                prov_utils_derive_keys
 .text.prov_utils_calculate_shared_secret
                0x00037c38       0x36 examples/light_switch/proxy_server/CMakeFiles/light_switch_proxy_server_nrf52840_xxAA_s140_6.0.0.dir/__/__/__/mesh/prov/src/prov_utils.c.obj
                0x00037c38                prov_utils_calculate_shared_secret
 .text.prov_utils_generate_oob_data
                0x00037c6e       0x8a examples/light_switch/proxy_server/CMakeFiles/light_switch_proxy_server_nrf52840_xxAA_s140_6.0.0.dir/__/__/__/mesh/prov/src/prov_utils.c.obj
                0x00037c6e                prov_utils_generate_oob_data
 .text.prov_utils_confirmation_check
                0x00037cf8       0x5c examples/light_switch/proxy_server/CMakeFiles/light_switch_proxy_server_nrf52840_xxAA_s140_6.0.0.dir/__/__/__/mesh/prov/src/prov_utils.c.obj
                0x00037cf8                prov_utils_confirmation_check
 .text.link_timeout_cb
                0x00037d54       0x10 examples/light_switch/proxy_server/CMakeFiles/light_switch_proxy_server_nrf52840_xxAA_s140_6.0.0.dir/__/__/__/mesh/prov/src/prov_bearer_adv.c.obj
 .text.remove_active_bearer
                0x00037d64       0x4c examples/light_switch/proxy_server/CMakeFiles/light_switch_proxy_server_nrf52840_xxAA_s140_6.0.0.dir/__/__/__/mesh/prov/src/prov_bearer_adv.c.obj
 .text.close_link
                0x00037db0       0x58 examples/light_switch/proxy_server/CMakeFiles/light_switch_proxy_server_nrf52840_xxAA_s140_6.0.0.dir/__/__/__/mesh/prov/src/prov_bearer_adv.c.obj
 .text.prov_bearer_adv_listen_stop
                0x00037e08       0x30 examples/light_switch/proxy_server/CMakeFiles/light_switch_proxy_server_nrf52840_xxAA_s140_6.0.0.dir/__/__/__/mesh/prov/src/prov_bearer_adv.c.obj
 .text.send_packet
                0x00037e38       0x5e examples/light_switch/proxy_server/CMakeFiles/light_switch_proxy_server_nrf52840_xxAA_s140_6.0.0.dir/__/__/__/mesh/prov/src/prov_bearer_adv.c.obj
 .text.prov_buffer_tx
                0x00037e96      0x134 examples/light_switch/proxy_server/CMakeFiles/light_switch_proxy_server_nrf52840_xxAA_s140_6.0.0.dir/__/__/__/mesh/prov/src/prov_bearer_adv.c.obj
 .text.send_link_close
                0x00037fca       0x38 examples/light_switch/proxy_server/CMakeFiles/light_switch_proxy_server_nrf52840_xxAA_s140_6.0.0.dir/__/__/__/mesh/prov/src/prov_bearer_adv.c.obj
 .text.prov_bearer_adv_link_close
                0x00038002       0x56 examples/light_switch/proxy_server/CMakeFiles/light_switch_proxy_server_nrf52840_xxAA_s140_6.0.0.dir/__/__/__/mesh/prov/src/prov_bearer_adv.c.obj
 .text.send_transaction_ack
                0x00038058       0x24 examples/light_switch/proxy_server/CMakeFiles/light_switch_proxy_server_nrf52840_xxAA_s140_6.0.0.dir/__/__/__/mesh/prov/src/prov_bearer_adv.c.obj
 .text.send_link_ack
                0x0003807c       0x32 examples/light_switch/proxy_server/CMakeFiles/light_switch_proxy_server_nrf52840_xxAA_s140_6.0.0.dir/__/__/__/mesh/prov/src/prov_bearer_adv.c.obj
 .text.reset_timeout_timer
                0x000380ae       0x1a examples/light_switch/proxy_server/CMakeFiles/light_switch_proxy_server_nrf52840_xxAA_s140_6.0.0.dir/__/__/__/mesh/prov/src/prov_bearer_adv.c.obj
 .text.tx_complete_cb
                0x000380c8       0x1c examples/light_switch/proxy_server/CMakeFiles/light_switch_proxy_server_nrf52840_xxAA_s140_6.0.0.dir/__/__/__/mesh/prov/src/prov_bearer_adv.c.obj
 .text.tx_retry_cb
                0x000380e4       0xcc examples/light_switch/proxy_server/CMakeFiles/light_switch_proxy_server_nrf52840_xxAA_s140_6.0.0.dir/__/__/__/mesh/prov/src/prov_bearer_adv.c.obj
 .text.add_active_bearer
                0x000381b0       0x80 examples/light_switch/proxy_server/CMakeFiles/light_switch_proxy_server_nrf52840_xxAA_s140_6.0.0.dir/__/__/__/mesh/prov/src/prov_bearer_adv.c.obj
 .text.prov_bearer_adv_link_open
                0x00038230       0xec examples/light_switch/proxy_server/CMakeFiles/light_switch_proxy_server_nrf52840_xxAA_s140_6.0.0.dir/__/__/__/mesh/prov/src/prov_bearer_adv.c.obj
 .text.async_process
                0x0003831c       0x50 examples/light_switch/proxy_server/CMakeFiles/light_switch_proxy_server_nrf52840_xxAA_s140_6.0.0.dir/__/__/__/mesh/prov/src/prov_bearer_adv.c.obj
 .text.prov_bearer_adv_listen
                0x0003836c       0xd8 examples/light_switch/proxy_server/CMakeFiles/light_switch_proxy_server_nrf52840_xxAA_s140_6.0.0.dir/__/__/__/mesh/prov/src/prov_bearer_adv.c.obj
 .text.calculate_3GPP_CRC
                0x00038444       0x24 examples/light_switch/proxy_server/CMakeFiles/light_switch_proxy_server_nrf52840_xxAA_s140_6.0.0.dir/__/__/__/mesh/prov/src/prov_bearer_adv.c.obj
                0x00038444                calculate_3GPP_CRC
 .text.prov_bearer_adv_tx
                0x00038468       0xb4 examples/light_switch/proxy_server/CMakeFiles/light_switch_proxy_server_nrf52840_xxAA_s140_6.0.0.dir/__/__/__/mesh/prov/src/prov_bearer_adv.c.obj
 .text.prov_buffer_rx
                0x0003851c       0x6e examples/light_switch/proxy_server/CMakeFiles/light_switch_proxy_server_nrf52840_xxAA_s140_6.0.0.dir/__/__/__/mesh/prov/src/prov_bearer_adv.c.obj
 *fill*         0x0003858a        0x2 
 .text.nrf_mesh_prov_bearer_adv_interface_get
                0x0003858c       0x3c examples/light_switch/proxy_server/CMakeFiles/light_switch_proxy_server_nrf52840_xxAA_s140_6.0.0.dir/__/__/__/mesh/prov/src/prov_bearer_adv.c.obj
                0x0003858c                nrf_mesh_prov_bearer_adv_interface_get
 .text.prov_bearer_adv_packet_in
                0x000385c8      0x7f8 examples/light_switch/proxy_server/CMakeFiles/light_switch_proxy_server_nrf52840_xxAA_s140_6.0.0.dir/__/__/__/mesh/prov/src/prov_bearer_adv.c.obj
                0x000385c8                prov_bearer_adv_packet_in
 .text.errata_120
                0x00038dc0       0x20 examples/light_switch/proxy_server/CMakeFiles/light_switch_proxy_server_nrf52840_xxAA_s140_6.0.0.dir/C_/ver/mod/nRF5_SDK_15.0.0_a53641a/modules/nrfx/mdk/system_nrf52840.c.obj
 .text.SystemInit
                0x00038de0      0x1b8 examples/light_switch/proxy_server/CMakeFiles/light_switch_proxy_server_nrf52840_xxAA_s140_6.0.0.dir/C_/ver/mod/nRF5_SDK_15.0.0_a53641a/modules/nrfx/mdk/system_nrf52840.c.obj
                0x00038de0                SystemInit
 .text          0x00038f98       0x3c examples/light_switch/proxy_server/CMakeFiles/light_switch_proxy_server_nrf52840_xxAA_s140_6.0.0.dir/C_/ver/mod/nRF5_SDK_15.0.0_a53641a/modules/nrfx/mdk/gcc_startup_nrf52840.S.obj
                0x00038f98                Reset_Handler
                0x00038fc0                NMI_Handler
                0x00038fc2                HardFault_Handler
                0x00038fc4                MemoryManagement_Handler
                0x00038fc6                BusFault_Handler
                0x00038fc8                UsageFault_Handler
                0x00038fca                SVC_Handler
                0x00038fcc                DebugMon_Handler
                0x00038fce                PendSV_Handler
                0x00038fd0                SysTick_Handler
                0x00038fd2                PDM_IRQHandler
                0x00038fd2                TEMP_IRQHandler
                0x00038fd2                TIMER3_IRQHandler
                0x00038fd2                PWM3_IRQHandler
                0x00038fd2                FPU_IRQHandler
                0x00038fd2                USBD_IRQHandler
                0x00038fd2                SPIM0_SPIS0_TWIM0_TWIS0_SPI0_TWI0_IRQHandler
                0x00038fd2                RADIO_IRQHandler
                0x00038fd2                UARTE0_UART0_IRQHandler
                0x00038fd2                TIMER4_IRQHandler
                0x00038fd2                CRYPTOCELL_IRQHandler
                0x00038fd2                I2S_IRQHandler
                0x00038fd2                SWI4_EGU4_IRQHandler
                0x00038fd2                TIMER0_IRQHandler
                0x00038fd2                RTC0_IRQHandler
                0x00038fd2                UARTE1_IRQHandler
                0x00038fd2                POWER_CLOCK_IRQHandler
                0x00038fd2                SPIM3_IRQHandler
                0x00038fd2                PWM2_IRQHandler
                0x00038fd2                ECB_IRQHandler
                0x00038fd2                SPIM1_SPIS1_TWIM1_TWIS1_SPI1_TWI1_IRQHandler
                0x00038fd2                Default_Handler
                0x00038fd2                SAADC_IRQHandler
                0x00038fd2                CCM_AAR_IRQHandler
                0x00038fd2                WDT_IRQHandler
                0x00038fd2                SWI0_EGU0_IRQHandler
                0x00038fd2                SWI5_EGU5_IRQHandler
                0x00038fd2                RNG_IRQHandler
                0x00038fd2                RTC2_IRQHandler
                0x00038fd2                PWM0_IRQHandler
                0x00038fd2                SWI3_EGU3_IRQHandler
                0x00038fd2                RTC1_IRQHandler
                0x00038fd2                SWI1_EGU1_IRQHandler
                0x00038fd2                SPIM2_SPIS2_SPI2_IRQHandler
                0x00038fd2                NFCT_IRQHandler
                0x00038fd2                PWM1_IRQHandler
                0x00038fd2                MWU_IRQHandler
                0x00038fd2                TIMER1_IRQHandler
                0x00038fd2                QSPI_IRQHandler
                0x00038fd2                COMP_LPCOMP_IRQHandler
 .text.app_error_handler_bare
                0x00038fd4       0x1a examples/light_switch/proxy_server/CMakeFiles/light_switch_proxy_server_nrf52840_xxAA_s140_6.0.0.dir/C_/ver/mod/nRF5_SDK_15.0.0_a53641a/components/libraries/util/app_error.c.obj
                0x00038fd4                app_error_handler_bare
 .text.app_error_handler
                0x00038fee       0x1a examples/light_switch/proxy_server/CMakeFiles/light_switch_proxy_server_nrf52840_xxAA_s140_6.0.0.dir/C_/ver/mod/nRF5_SDK_15.0.0_a53641a/components/libraries/util/app_error_handler_gcc.c.obj
                0x00038fee                app_error_handler
 .text._GetAvailWriteSpace
                0x00039008       0x1c external/rtt/librtt_nrf52840_xxAA.a(SEGGER_RTT.c.obj)
 .text._WriteNoCheck
                0x00039024       0x3c external/rtt/librtt_nrf52840_xxAA.a(SEGGER_RTT.c.obj)
 .text._WriteBlocking
                0x00039060       0x52 external/rtt/librtt_nrf52840_xxAA.a(SEGGER_RTT.c.obj)
 *fill*         0x000390b2        0x2 
 .text._DoInit  0x000390b4       0x60 external/rtt/librtt_nrf52840_xxAA.a(SEGGER_RTT.c.obj)
 .text.SEGGER_RTT_ReadNoLock
                0x00039114       0x88 external/rtt/librtt_nrf52840_xxAA.a(SEGGER_RTT.c.obj)
                0x00039114                SEGGER_RTT_ReadNoLock
 .text.SEGGER_RTT_Read
                0x0003919c       0x1c external/rtt/librtt_nrf52840_xxAA.a(SEGGER_RTT.c.obj)
                0x0003919c                SEGGER_RTT_Read
 .text.SEGGER_RTT_WriteNoLock
                0x000391b8       0x68 external/rtt/librtt_nrf52840_xxAA.a(SEGGER_RTT.c.obj)
                0x000391b8                SEGGER_RTT_WriteNoLock
 .text.SEGGER_RTT_Write
                0x00039220       0x34 external/rtt/librtt_nrf52840_xxAA.a(SEGGER_RTT.c.obj)
                0x00039220                SEGGER_RTT_Write
 .text.SEGGER_RTT_GetKey
                0x00039254       0x20 external/rtt/librtt_nrf52840_xxAA.a(SEGGER_RTT.c.obj)
                0x00039254                SEGGER_RTT_GetKey
 .text._StoreChar
                0x00039274       0x3e external/rtt/librtt_nrf52840_xxAA.a(SEGGER_RTT_printf.c.obj)
 *fill*         0x000392b2        0x2 
 .text._PrintUnsigned
                0x000392b4       0xd0 external/rtt/librtt_nrf52840_xxAA.a(SEGGER_RTT_printf.c.obj)
 .text.SEGGER_RTT_vprintf
                0x00039384      0x246 external/rtt/librtt_nrf52840_xxAA.a(SEGGER_RTT_printf.c.obj)
                0x00039384                SEGGER_RTT_vprintf
 .text.SEGGER_RTT_printf
                0x000395ca       0x1e external/rtt/librtt_nrf52840_xxAA.a(SEGGER_RTT_printf.c.obj)
                0x000395ca                SEGGER_RTT_printf
 .text.uECC_vli_mult
                0x000395e8       0x64 external/micro-ecc/libuECC_nrf52840_xxAA.a(uECC.c.obj)
 .text.uECC_vli_clear
                0x0003964c       0x16 external/micro-ecc/libuECC_nrf52840_xxAA.a(uECC.c.obj)
 .text.uECC_vli_isZero
                0x00039662       0x1e external/micro-ecc/libuECC_nrf52840_xxAA.a(uECC.c.obj)
 .text.uECC_vli_testBit
                0x00039680       0x14 external/micro-ecc/libuECC_nrf52840_xxAA.a(uECC.c.obj)
 .text.uECC_vli_numBits
                0x00039694       0x3a external/micro-ecc/libuECC_nrf52840_xxAA.a(uECC.c.obj)
 .text.uECC_vli_set
                0x000396ce       0x18 external/micro-ecc/libuECC_nrf52840_xxAA.a(uECC.c.obj)
 .text.uECC_vli_cmp_unsafe
                0x000396e6       0x28 external/micro-ecc/libuECC_nrf52840_xxAA.a(uECC.c.obj)
 .text.uECC_vli_rshift1
                0x0003970e       0x1c external/micro-ecc/libuECC_nrf52840_xxAA.a(uECC.c.obj)
 .text.uECC_vli_modMult_fast
                0x0003972a       0x20 external/micro-ecc/libuECC_nrf52840_xxAA.a(uECC.c.obj)
 .text.uECC_vli_modSquare_fast
                0x0003974a        0x8 external/micro-ecc/libuECC_nrf52840_xxAA.a(uECC.c.obj)
 .text.apply_z  0x00039752       0x3e external/micro-ecc/libuECC_nrf52840_xxAA.a(uECC.c.obj)
 .text.uECC_vli_nativeToBytes
                0x00039790       0x28 external/micro-ecc/libuECC_nrf52840_xxAA.a(uECC.c.obj)
 .text.uECC_vli_bytesToNative
                0x000397b8       0x40 external/micro-ecc/libuECC_nrf52840_xxAA.a(uECC.c.obj)
 .text.default_RNG
                0x000397f8        0xc external/micro-ecc/libuECC_nrf52840_xxAA.a(uECC.c.obj)
 .text.uECC_vli_add.isra.0
                0x00039804       0x4a external/micro-ecc/libuECC_nrf52840_xxAA.a(uECC.c.obj)
 .text.regularize_k
                0x0003984e       0x50 external/micro-ecc/libuECC_nrf52840_xxAA.a(uECC.c.obj)
 .text.uECC_vli_sub.isra.1
                0x0003989e       0x4e external/micro-ecc/libuECC_nrf52840_xxAA.a(uECC.c.obj)
 .text.uECC_vli_cmp
                0x000398ec       0x30 external/micro-ecc/libuECC_nrf52840_xxAA.a(uECC.c.obj)
 .text.uECC_generate_random_int
                0x0003991c       0x78 external/micro-ecc/libuECC_nrf52840_xxAA.a(uECC.c.obj)
 .text.uECC_vli_modAdd
                0x00039994       0x2e external/micro-ecc/libuECC_nrf52840_xxAA.a(uECC.c.obj)
 *fill*         0x000399c2        0x2 
 .text.vli_mmod_fast_secp256r1
                0x000399c4      0x194 external/micro-ecc/libuECC_nrf52840_xxAA.a(uECC.c.obj)
 .text.uECC_vli_modSub.isra.2
                0x00039b58       0x1c external/micro-ecc/libuECC_nrf52840_xxAA.a(uECC.c.obj)
 .text.double_jacobian_default
                0x00039b74      0x14a external/micro-ecc/libuECC_nrf52840_xxAA.a(uECC.c.obj)
 .text.x_side_default
                0x00039cbe       0x5a external/micro-ecc/libuECC_nrf52840_xxAA.a(uECC.c.obj)
 .text.XYcZ_add
                0x00039d18       0xbc external/micro-ecc/libuECC_nrf52840_xxAA.a(uECC.c.obj)
 .text.XYcZ_addC
                0x00039dd4      0x10a external/micro-ecc/libuECC_nrf52840_xxAA.a(uECC.c.obj)
 .text.vli_modInv_update
                0x00039ede       0x36 external/micro-ecc/libuECC_nrf52840_xxAA.a(uECC.c.obj)
 .text.uECC_vli_modInv
                0x00039f14      0x102 external/micro-ecc/libuECC_nrf52840_xxAA.a(uECC.c.obj)
 .text.EccPoint_mult
                0x0003a016      0x19e external/micro-ecc/libuECC_nrf52840_xxAA.a(uECC.c.obj)
 .text.EccPoint_compute_public_key
                0x0003a1b4       0x54 external/micro-ecc/libuECC_nrf52840_xxAA.a(uECC.c.obj)
 .text.uECC_secp256r1
                0x0003a208        0x8 external/micro-ecc/libuECC_nrf52840_xxAA.a(uECC.c.obj)
                0x0003a208                uECC_secp256r1
 .text.uECC_make_key
                0x0003a210       0x7e external/micro-ecc/libuECC_nrf52840_xxAA.a(uECC.c.obj)
                0x0003a210                uECC_make_key
 *fill*         0x0003a28e        0x2 
 .text.uECC_shared_secret
                0x0003a290       0xbc external/micro-ecc/libuECC_nrf52840_xxAA.a(uECC.c.obj)
                0x0003a290                uECC_shared_secret
 .text.uECC_valid_point
                0x0003a34c       0x86 external/micro-ecc/libuECC_nrf52840_xxAA.a(uECC.c.obj)
                0x0003a34c                uECC_valid_point
 .text.uECC_valid_public_key
                0x0003a3d2       0x32 external/micro-ecc/libuECC_nrf52840_xxAA.a(uECC.c.obj)
                0x0003a3d2                uECC_valid_public_key
 .text          0x0003a404       0x30 c:/mesh/arm_gcc/bin/../lib/gcc/arm-none-eabi/6.3.1/thumb/v7e-m/fpv4-sp/hard\libgcc.a(_aeabi_uldivmod.o)
                0x0003a404                __aeabi_uldivmod
 .text          0x0003a434      0x2dc c:/mesh/arm_gcc/bin/../lib/gcc/arm-none-eabi/6.3.1/thumb/v7e-m/fpv4-sp/hard\libgcc.a(_udivmoddi4.o)
                0x0003a434                __udivmoddi4
 .text          0x0003a710        0x4 c:/mesh/arm_gcc/bin/../lib/gcc/arm-none-eabi/6.3.1/thumb/v7e-m/fpv4-sp/hard\libgcc.a(_dvmd_tls.o)
                0x0003a710                __aeabi_idiv0
                0x0003a710                __aeabi_ldiv0
 .text.exit     0x0003a714       0x28 c:/mesh/arm_gcc/bin/../lib/gcc/arm-none-eabi/6.3.1/../../../../arm-none-eabi/lib/thumb/v7e-m/fpv4-sp/hard\libg_nano.a(lib_a-exit.o)
                0x0003a714                exit
 .text.__libc_init_array
                0x0003a73c       0x48 c:/mesh/arm_gcc/bin/../lib/gcc/arm-none-eabi/6.3.1/../../../../arm-none-eabi/lib/thumb/v7e-m/fpv4-sp/hard\libg_nano.a(lib_a-init.o)
                0x0003a73c                __libc_init_array
 .text.malloc   0x0003a784       0x10 c:/mesh/arm_gcc/bin/../lib/gcc/arm-none-eabi/6.3.1/../../../../arm-none-eabi/lib/thumb/v7e-m/fpv4-sp/hard\libg_nano.a(lib_a-malloc.o)
                0x0003a784                malloc
 .text.free     0x0003a794       0x10 c:/mesh/arm_gcc/bin/../lib/gcc/arm-none-eabi/6.3.1/../../../../arm-none-eabi/lib/thumb/v7e-m/fpv4-sp/hard\libg_nano.a(lib_a-malloc.o)
                0x0003a794                free
 .text.memcmp   0x0003a7a4       0x1e c:/mesh/arm_gcc/bin/../lib/gcc/arm-none-eabi/6.3.1/../../../../arm-none-eabi/lib/thumb/v7e-m/fpv4-sp/hard\libg_nano.a(lib_a-memcmp.o)
                0x0003a7a4                memcmp
 .text.memcpy   0x0003a7c2       0x16 c:/mesh/arm_gcc/bin/../lib/gcc/arm-none-eabi/6.3.1/../../../../arm-none-eabi/lib/thumb/v7e-m/fpv4-sp/hard\libg_nano.a(lib_a-memcpy-stub.o)
                0x0003a7c2                memcpy
 .text.memset   0x0003a7d8       0x10 c:/mesh/arm_gcc/bin/../lib/gcc/arm-none-eabi/6.3.1/../../../../arm-none-eabi/lib/thumb/v7e-m/fpv4-sp/hard\libg_nano.a(lib_a-memset.o)
                0x0003a7d8                memset
 .text._free_r  0x0003a7e8       0x9c c:/mesh/arm_gcc/bin/../lib/gcc/arm-none-eabi/6.3.1/../../../../arm-none-eabi/lib/thumb/v7e-m/fpv4-sp/hard\libg_nano.a(lib_a-nano-freer.o)
                0x0003a7e8                _free_r
 .text._malloc_r
                0x0003a884       0xbc c:/mesh/arm_gcc/bin/../lib/gcc/arm-none-eabi/6.3.1/../../../../arm-none-eabi/lib/thumb/v7e-m/fpv4-sp/hard\libg_nano.a(lib_a-nano-mallocr.o)
                0x0003a884                _malloc_r
 .text._sbrk_r  0x0003a940       0x20 c:/mesh/arm_gcc/bin/../lib/gcc/arm-none-eabi/6.3.1/../../../../arm-none-eabi/lib/thumb/v7e-m/fpv4-sp/hard\libg_nano.a(lib_a-sbrkr.o)
                0x0003a940                _sbrk_r
 .text.strcpy   0x0003a960       0x10 c:/mesh/arm_gcc/bin/../lib/gcc/arm-none-eabi/6.3.1/../../../../arm-none-eabi/lib/thumb/v7e-m/fpv4-sp/hard\libg_nano.a(lib_a-strcpy.o)
                0x0003a960                strcpy
 .text          0x0003a970       0x10 c:/mesh/arm_gcc/bin/../lib/gcc/arm-none-eabi/6.3.1/../../../../arm-none-eabi/lib/thumb/v7e-m/fpv4-sp/hard\libg_nano.a(lib_a-strlen.o)
                0x0003a970                strlen
 .text.strrchr  0x0003a980       0x26 c:/mesh/arm_gcc/bin/../lib/gcc/arm-none-eabi/6.3.1/../../../../arm-none-eabi/lib/thumb/v7e-m/fpv4-sp/hard\libg_nano.a(lib_a-strrchr.o)
                0x0003a980                strrchr
 .text.__malloc_lock
                0x0003a9a6        0x2 c:/mesh/arm_gcc/bin/../lib/gcc/arm-none-eabi/6.3.1/../../../../arm-none-eabi/lib/thumb/v7e-m/fpv4-sp/hard\libg_nano.a(lib_a-mlock.o)
                0x0003a9a6                __malloc_lock
 .text.__malloc_unlock
                0x0003a9a8        0x2 c:/mesh/arm_gcc/bin/../lib/gcc/arm-none-eabi/6.3.1/../../../../arm-none-eabi/lib/thumb/v7e-m/fpv4-sp/hard\libg_nano.a(lib_a-mlock.o)
                0x0003a9a8                __malloc_unlock
 .text.strchr   0x0003a9aa       0x1c c:/mesh/arm_gcc/bin/../lib/gcc/arm-none-eabi/6.3.1/../../../../arm-none-eabi/lib/thumb/v7e-m/fpv4-sp/hard\libg_nano.a(lib_a-strchr.o)
                0x0003a9aa                strchr
 *fill*         0x0003a9c6        0x2 
 .text._sbrk    0x0003a9c8       0x1c c:/mesh/arm_gcc/bin/../lib/gcc/arm-none-eabi/6.3.1/../../../../arm-none-eabi/lib/thumb/v7e-m/fpv4-sp/hard\libnosys.a(sbrk.o)
                0x0003a9c8                _sbrk
 .text._exit    0x0003a9e4        0x4 c:/mesh/arm_gcc/bin/../lib/gcc/arm-none-eabi/6.3.1/../../../../arm-none-eabi/lib/thumb/v7e-m/fpv4-sp/hard\libnosys.a(_exit.o)
                0x0003a9e4                _exit
 *(.init)
 .init          0x0003a9e8        0x4 c:/mesh/arm_gcc/bin/../lib/gcc/arm-none-eabi/6.3.1/thumb/v7e-m/fpv4-sp/hard/crti.o
                0x0003a9e8                _init
 .init          0x0003a9ec        0x8 c:/mesh/arm_gcc/bin/../lib/gcc/arm-none-eabi/6.3.1/thumb/v7e-m/fpv4-sp/hard/crtn.o
 *(.fini)
 .fini          0x0003a9f4        0x4 c:/mesh/arm_gcc/bin/../lib/gcc/arm-none-eabi/6.3.1/thumb/v7e-m/fpv4-sp/hard/crti.o
                0x0003a9f4                _fini
 .fini          0x0003a9f8        0x8 c:/mesh/arm_gcc/bin/../lib/gcc/arm-none-eabi/6.3.1/thumb/v7e-m/fpv4-sp/hard/crtn.o
 *crtbegin.o(.ctors)
 *crtbegin?.o(.ctors)
 *(EXCLUDE_FILE(*crtend.o *crtend?.o) .ctors)
 *(SORT(.ctors.*))
 *(.ctors)
 *crtbegin.o(.dtors)
 *crtbegin?.o(.dtors)
 *(EXCLUDE_FILE(*crtend.o *crtend?.o) .dtors)
 *(SORT(.dtors.*))
 *(.dtors)
 *(.rodata*)
 .rodata        0x0003aa00        0x4 examples/light_switch/proxy_server/CMakeFiles/light_switch_proxy_server_nrf52840_xxAA_s140_6.0.0.dir/src/main.c.obj
 .rodata.button_event_handler.str1.1
                0x0003aa04       0x21 examples/light_switch/proxy_server/CMakeFiles/light_switch_proxy_server_nrf52840_xxAA_s140_6.0.0.dir/src/main.c.obj
 .rodata.main.str1.1
                0x0003aa25       0x5b examples/light_switch/proxy_server/CMakeFiles/light_switch_proxy_server_nrf52840_xxAA_s140_6.0.0.dir/src/main.c.obj
 .rodata.models_init_cb.str1.1
                0x0003aa80       0x20 examples/light_switch/proxy_server/CMakeFiles/light_switch_proxy_server_nrf52840_xxAA_s140_6.0.0.dir/src/main.c.obj
 .rodata.node_reset.str1.1
                0x0003aaa0       0x19 examples/light_switch/proxy_server/CMakeFiles/light_switch_proxy_server_nrf52840_xxAA_s140_6.0.0.dir/src/main.c.obj
 .rodata.on_off_server_set_cb.str1.1
                0x0003aab9       0x17 examples/light_switch/proxy_server/CMakeFiles/light_switch_proxy_server_nrf52840_xxAA_s140_6.0.0.dir/src/main.c.obj
 .rodata.provisioning_complete_cb.str1.1
                0x0003aad0       0x62 examples/light_switch/proxy_server/CMakeFiles/light_switch_proxy_server_nrf52840_xxAA_s140_6.0.0.dir/src/main.c.obj
 .rodata.static_auth_data.12447
                0x0003ab32       0x10 examples/light_switch/proxy_server/CMakeFiles/light_switch_proxy_server_nrf52840_xxAA_s140_6.0.0.dir/src/main.c.obj
 .rodata        0x0003ab42        0xb examples/light_switch/proxy_server/CMakeFiles/light_switch_proxy_server_nrf52840_xxAA_s140_6.0.0.dir/__/__/common/src/mesh_provisionee.c.obj
 *fill*         0x0003ab4d        0x3 
 .rodata.delay_bytecode.8707
                0x0003ab50        0x6 examples/light_switch/proxy_server/CMakeFiles/light_switch_proxy_server_nrf52840_xxAA_s140_6.0.0.dir/__/__/common/src/simple_hal.c.obj
 .rodata.m_buttons_list
                0x0003ab56        0x4 examples/light_switch/proxy_server/CMakeFiles/light_switch_proxy_server_nrf52840_xxAA_s140_6.0.0.dir/__/__/common/src/simple_hal.c.obj
 *fill*         0x0003ab5a        0x2 
 .rodata.m_pb_gatt_fsm_descriptor
                0x0003ab5c       0x24 examples/light_switch/proxy_server/CMakeFiles/light_switch_proxy_server_nrf52840_xxAA_s140_6.0.0.dir/__/__/__/mesh/prov/src/nrf_mesh_prov_bearer_gatt.c.obj
 .rodata.m_pb_gatt_fsm_transition_table
                0x0003ab80       0x48 examples/light_switch/proxy_server/CMakeFiles/light_switch_proxy_server_nrf52840_xxAA_s140_6.0.0.dir/__/__/__/mesh/prov/src/nrf_mesh_prov_bearer_gatt.c.obj
 .rodata.pb_gatt_fsm_actions
                0x0003abc8       0x24 examples/light_switch/proxy_server/CMakeFiles/light_switch_proxy_server_nrf52840_xxAA_s140_6.0.0.dir/__/__/__/mesh/prov/src/nrf_mesh_prov_bearer_gatt.c.obj
 .rodata.prov_bearer_interface.10105
                0x0003abec       0x14 examples/light_switch/proxy_server/CMakeFiles/light_switch_proxy_server_nrf52840_xxAA_s140_6.0.0.dir/__/__/__/mesh/prov/src/nrf_mesh_prov_bearer_gatt.c.obj
 .rodata.str1.1
                0x0003ac00      0x15f examples/light_switch/proxy_server/CMakeFiles/light_switch_proxy_server_nrf52840_xxAA_s140_6.0.0.dir/__/__/__/mesh/prov/src/nrf_mesh_prov_bearer_gatt.c.obj
 .rodata        0x0003ad5f        0x4 examples/light_switch/proxy_server/CMakeFiles/light_switch_proxy_server_nrf52840_xxAA_s140_6.0.0.dir/C_/ver/mod/nRF5_SDK_15.0.0_a53641a/components/softdevice/common/nrf_sdh.c.obj
 *fill*         0x0003ad63        0x1 
 .rodata.sdh_req_observers
                0x0003ad64        0xc examples/light_switch/proxy_server/CMakeFiles/light_switch_proxy_server_nrf52840_xxAA_s140_6.0.0.dir/C_/ver/mod/nRF5_SDK_15.0.0_a53641a/components/softdevice/common/nrf_sdh.c.obj
 .rodata.sdh_stack_observers
                0x0003ad70        0xc examples/light_switch/proxy_server/CMakeFiles/light_switch_proxy_server_nrf52840_xxAA_s140_6.0.0.dir/C_/ver/mod/nRF5_SDK_15.0.0_a53641a/components/softdevice/common/nrf_sdh.c.obj
 .rodata.sdh_state_observers
                0x0003ad7c        0xc examples/light_switch/proxy_server/CMakeFiles/light_switch_proxy_server_nrf52840_xxAA_s140_6.0.0.dir/C_/ver/mod/nRF5_SDK_15.0.0_a53641a/components/softdevice/common/nrf_sdh.c.obj
 .rodata.sdh_soc_observers
                0x0003ad88        0xc examples/light_switch/proxy_server/CMakeFiles/light_switch_proxy_server_nrf52840_xxAA_s140_6.0.0.dir/C_/ver/mod/nRF5_SDK_15.0.0_a53641a/components/softdevice/common/nrf_sdh_soc.c.obj
 .rodata.sdh_ble_observers
                0x0003ad94        0xc examples/light_switch/proxy_server/CMakeFiles/light_switch_proxy_server_nrf52840_xxAA_s140_6.0.0.dir/C_/ver/mod/nRF5_SDK_15.0.0_a53641a/components/softdevice/common/nrf_sdh_ble.c.obj
 .rodata.app_error_fault_handler.str1.1
                0x0003ada0       0xbd examples/light_switch/proxy_server/CMakeFiles/light_switch_proxy_server_nrf52840_xxAA_s140_6.0.0.dir/__/__/common/src/app_error_weak.c.obj
 .rodata.mesh_assertion_handler.str1.1
                0x0003ae5d       0xbd examples/light_switch/proxy_server/CMakeFiles/light_switch_proxy_server_nrf52840_xxAA_s140_6.0.0.dir/__/__/common/src/assertion_handler_weak.c.obj
                                  0x1 (size before relaxing)
 .rodata.sar_ctx_cancel.str1.1
                0x0003ae5d       0x23 examples/light_switch/proxy_server/CMakeFiles/light_switch_proxy_server_nrf52840_xxAA_s140_6.0.0.dir/__/__/__/mesh/core/src/transport.c.obj
 .rodata.test_transport_decrypt.str1.1
                0x0003ae80       0x30 examples/light_switch/proxy_server/CMakeFiles/light_switch_proxy_server_nrf52840_xxAA_s140_6.0.0.dir/__/__/__/mesh/core/src/transport.c.obj
 .rodata.transport_packet_in.str1.1
                0x0003aeb0       0x24 examples/light_switch/proxy_server/CMakeFiles/light_switch_proxy_server_nrf52840_xxAA_s140_6.0.0.dir/__/__/__/mesh/core/src/transport.c.obj
 .rodata.upper_transport_access_packet_in.str1.1
                0x0003aed4       0x29 examples/light_switch/proxy_server/CMakeFiles/light_switch_proxy_server_nrf52840_xxAA_s140_6.0.0.dir/__/__/__/mesh/core/src/transport.c.obj
 .rodata.upper_transport_packet_in.str1.1
                0x0003aefd       0x2e examples/light_switch/proxy_server/CMakeFiles/light_switch_proxy_server_nrf52840_xxAA_s140_6.0.0.dir/__/__/__/mesh/core/src/transport.c.obj
 .rodata.upper_transport_tx.str1.1
                0x0003af2b        0xe examples/light_switch/proxy_server/CMakeFiles/light_switch_proxy_server_nrf52840_xxAA_s140_6.0.0.dir/__/__/__/mesh/core/src/transport.c.obj
                                 0x16 (size before relaxing)
 *fill*         0x0003af39        0x3 
 .rodata.m_procedure_steps
                0x0003af3c       0x28 examples/light_switch/proxy_server/CMakeFiles/light_switch_proxy_server_nrf52840_xxAA_s140_6.0.0.dir/__/__/__/mesh/core/src/flash_manager_defrag.c.obj
 .rodata.m_all_operations
                0x0003af64       0x10 examples/light_switch/proxy_server/CMakeFiles/light_switch_proxy_server_nrf52840_xxAA_s140_6.0.0.dir/__/__/__/mesh/core/src/mesh_flash.c.obj
 .rodata.types_lookup.9353
                0x0003af74        0x4 examples/light_switch/proxy_server/CMakeFiles/light_switch_proxy_server_nrf52840_xxAA_s140_6.0.0.dir/__/__/__/mesh/core/src/nrf_mesh_utils.c.obj
 .rodata.__func__.11848
                0x0003af78       0x15 examples/light_switch/proxy_server/CMakeFiles/light_switch_proxy_server_nrf52840_xxAA_s140_6.0.0.dir/__/__/__/mesh/core/src/nrf_mesh.c.obj
 .rodata.nrf_mesh_listen.str1.1
                0x0003af8d       0x70 examples/light_switch/proxy_server/CMakeFiles/light_switch_proxy_server_nrf52840_xxAA_s140_6.0.0.dir/__/__/__/mesh/core/src/nrf_mesh.c.obj
 .rodata.nrf_mesh_packet_send.str1.1
                0x0003affd       0x70 examples/light_switch/proxy_server/CMakeFiles/light_switch_proxy_server_nrf52840_xxAA_s140_6.0.0.dir/__/__/__/mesh/core/src/nrf_mesh.c.obj
                                  0x4 (size before relaxing)
 *fill*         0x0003affd        0x1 
 .rodata.CSWTCH.7
                0x0003affe       0x10 examples/light_switch/proxy_server/CMakeFiles/light_switch_proxy_server_nrf52840_xxAA_s140_6.0.0.dir/__/__/__/mesh/core/src/hal.c.obj
 .rodata.Rb.7608
                0x0003b00e       0x10 examples/light_switch/proxy_server/CMakeFiles/light_switch_proxy_server_nrf52840_xxAA_s140_6.0.0.dir/__/__/__/mesh/core/src/aes_cmac.c.obj
 .rodata        0x0003b01e       0x15 examples/light_switch/proxy_server/CMakeFiles/light_switch_proxy_server_nrf52840_xxAA_s140_6.0.0.dir/__/__/__/mesh/core/src/enc.c.obj
 .rodata.network_packet_in.str1.1
                0x0003b033       0x48 examples/light_switch/proxy_server/CMakeFiles/light_switch_proxy_server_nrf52840_xxAA_s140_6.0.0.dir/__/__/__/mesh/core/src/network.c.obj
 .rodata.net_packet_decrypt.str1.1
                0x0003b07b       0x31 examples/light_switch/proxy_server/CMakeFiles/light_switch_proxy_server_nrf52840_xxAA_s140_6.0.0.dir/__/__/__/mesh/core/src/net_packet.c.obj
                                 0x39 (size before relaxing)
 .rodata        0x0003b0ac        0x7 examples/light_switch/proxy_server/CMakeFiles/light_switch_proxy_server_nrf52840_xxAA_s140_6.0.0.dir/__/__/__/mesh/core/src/nrf_mesh_keygen.c.obj
 .rodata.log_callback_rtt.str1.1
                0x0003b0b3       0x15 examples/light_switch/proxy_server/CMakeFiles/light_switch_proxy_server_nrf52840_xxAA_s140_6.0.0.dir/__/__/__/mesh/core/src/log.c.obj
 .rodata.str1.1
                0x0003b0c8       0x11 examples/light_switch/proxy_server/CMakeFiles/light_switch_proxy_server_nrf52840_xxAA_s140_6.0.0.dir/__/__/__/mesh/core/src/log.c.obj
 *fill*         0x0003b0d9        0x3 
 .rodata.INVALID_HEADER
                0x0003b0dc        0x4 examples/light_switch/proxy_server/CMakeFiles/light_switch_proxy_server_nrf52840_xxAA_s140_6.0.0.dir/__/__/__/mesh/core/src/flash_manager.c.obj
                0x0003b0dc                INVALID_HEADER
 .rodata.PADDING_HEADER
                0x0003b0e0        0x4 examples/light_switch/proxy_server/CMakeFiles/light_switch_proxy_server_nrf52840_xxAA_s140_6.0.0.dir/__/__/__/mesh/core/src/flash_manager.c.obj
                0x0003b0e0                PADDING_HEADER
 .rodata.SEAL_HEADER
                0x0003b0e4        0x4 examples/light_switch/proxy_server/CMakeFiles/light_switch_proxy_server_nrf52840_xxAA_s140_6.0.0.dir/__/__/__/mesh/core/src/flash_manager.c.obj
                0x0003b0e4                SEAL_HEADER
 .rodata.beacon_packet_in.str1.1
                0x0003b0e8       0x51 examples/light_switch/proxy_server/CMakeFiles/light_switch_proxy_server_nrf52840_xxAA_s140_6.0.0.dir/__/__/__/mesh/core/src/beacon.c.obj
                                 0x59 (size before relaxing)
 *fill*         0x0003b139        0x3 
 .rodata.cp_handler
                0x0003b13c        0x8 examples/light_switch/proxy_server/CMakeFiles/light_switch_proxy_server_nrf52840_xxAA_s140_6.0.0.dir/__/__/__/mesh/core/src/heartbeat.c.obj
 .rodata.beacon_tx.str1.1
                0x0003b144       0x35 examples/light_switch/proxy_server/CMakeFiles/light_switch_proxy_server_nrf52840_xxAA_s140_6.0.0.dir/__/__/__/mesh/core/src/net_beacon.c.obj
 .rodata.net_beacon_init.str1.1
                0x0003b179        0x5 examples/light_switch/proxy_server/CMakeFiles/light_switch_proxy_server_nrf52840_xxAA_s140_6.0.0.dir/__/__/__/mesh/core/src/net_beacon.c.obj
 .rodata.fsm_event_post.str1.1
                0x0003b17e        0xb examples/light_switch/proxy_server/CMakeFiles/light_switch_proxy_server_nrf52840_xxAA_s140_6.0.0.dir/__/__/__/mesh/core/src/fsm.c.obj
 .rodata.fsm_event_post_try.str1.1
                0x0003b189       0x41 examples/light_switch/proxy_server/CMakeFiles/light_switch_proxy_server_nrf52840_xxAA_s140_6.0.0.dir/__/__/__/mesh/core/src/fsm.c.obj
 .rodata.fsm_init.str1.1
                0x0003b1ca        0xa examples/light_switch/proxy_server/CMakeFiles/light_switch_proxy_server_nrf52840_xxAA_s140_6.0.0.dir/__/__/__/mesh/core/src/fsm.c.obj
 .rodata.m_interface
                0x0003b1d4        0xc examples/light_switch/proxy_server/CMakeFiles/light_switch_proxy_server_nrf52840_xxAA_s140_6.0.0.dir/__/__/__/mesh/core/src/core_tx_adv.c.obj
 .rodata.radio_mode_to_us_per_byte.9746
                0x0003b1e0        0x6 examples/light_switch/proxy_server/CMakeFiles/light_switch_proxy_server_nrf52840_xxAA_s140_6.0.0.dir/__/__/__/mesh/bearer/src/broadcast.c.obj
 .rodata.channel_rf_offsets.8987
                0x0003b1e6       0x28 examples/light_switch/proxy_server/CMakeFiles/light_switch_proxy_server_nrf52840_xxAA_s140_6.0.0.dir/__/__/__/mesh/bearer/src/radio_config.c.obj
 .rodata        0x0003b20e        0x3 examples/light_switch/proxy_server/CMakeFiles/light_switch_proxy_server_nrf52840_xxAA_s140_6.0.0.dir/__/__/__/mesh/bearer/src/scanner.c.obj
 *fill*         0x0003b211        0x1 
 .rodata        0x0003b212        0x6 examples/light_switch/proxy_server/CMakeFiles/light_switch_proxy_server_nrf52840_xxAA_s140_6.0.0.dir/__/__/__/mesh/gatt/src/proxy.c.obj
 .rodata.gatt_evt_handler.str1.1
                0x0003b218       0xd9 examples/light_switch/proxy_server/CMakeFiles/light_switch_proxy_server_nrf52840_xxAA_s140_6.0.0.dir/__/__/__/mesh/gatt/src/proxy.c.obj
 *fill*         0x0003b2f1        0x3 
 .rodata.m_interface
                0x0003b2f4        0xc examples/light_switch/proxy_server/CMakeFiles/light_switch_proxy_server_nrf52840_xxAA_s140_6.0.0.dir/__/__/__/mesh/gatt/src/proxy.c.obj
 .rodata.m_opcode_handlers
                0x0003b300       0x18 examples/light_switch/proxy_server/CMakeFiles/light_switch_proxy_server_nrf52840_xxAA_s140_6.0.0.dir/__/__/__/models/simple_on_off/src/simple_on_off_server.c.obj
 .rodata        0x0003b318        0x8 examples/light_switch/proxy_server/CMakeFiles/light_switch_proxy_server_nrf52840_xxAA_s140_6.0.0.dir/__/__/__/models/config/src/config_server.c.obj
 .rodata.CSWTCH.127
                0x0003b320       0x10 examples/light_switch/proxy_server/CMakeFiles/light_switch_proxy_server_nrf52840_xxAA_s140_6.0.0.dir/__/__/__/models/config/src/config_server.c.obj
 .rodata.opcode_handlers
                0x0003b330      0x170 examples/light_switch/proxy_server/CMakeFiles/light_switch_proxy_server_nrf52840_xxAA_s140_6.0.0.dir/__/__/__/models/config/src/config_server.c.obj
 .rodata.m_opcode_handlers
                0x0003b4a0       0x58 examples/light_switch/proxy_server/CMakeFiles/light_switch_proxy_server_nrf52840_xxAA_s140_6.0.0.dir/__/__/__/models/health/src/health_server.c.obj
 .rodata.multiply_de_bruijn_bit_position.9598
                0x0003b4f8       0x20 examples/light_switch/proxy_server/CMakeFiles/light_switch_proxy_server_nrf52840_xxAA_s140_6.0.0.dir/__/__/__/models/health/src/health_server.c.obj
 .rodata.mesh_evt_cb.str1.1
                0x0003b518       0x2f examples/light_switch/proxy_server/CMakeFiles/light_switch_proxy_server_nrf52840_xxAA_s140_6.0.0.dir/__/__/__/mesh/access/src/access.c.obj
 .rodata.multiply_de_bruijn_bit_position.9554
                0x0003b547       0x20 examples/light_switch/proxy_server/CMakeFiles/light_switch_proxy_server_nrf52840_xxAA_s140_6.0.0.dir/__/__/__/mesh/access/src/access.c.obj
 .rodata.packet_tx.str1.1
                0x0003b567       0x1c examples/light_switch/proxy_server/CMakeFiles/light_switch_proxy_server_nrf52840_xxAA_s140_6.0.0.dir/__/__/__/mesh/access/src/access.c.obj
                                 0x24 (size before relaxing)
 *fill*         0x0003b583        0x1 
 .rodata.m_flash_groups
                0x0003b584       0xa8 examples/light_switch/proxy_server/CMakeFiles/light_switch_proxy_server_nrf52840_xxAA_s140_6.0.0.dir/__/__/__/mesh/access/src/device_state_manager.c.obj
 .rodata.multiply_de_bruijn_bit_position.9660
                0x0003b62c       0x20 examples/light_switch/proxy_server/CMakeFiles/light_switch_proxy_server_nrf52840_xxAA_s140_6.0.0.dir/__/__/__/mesh/access/src/device_state_manager.c.obj
 .rodata.m_prov_callbacks
                0x0003b64c       0x10 examples/light_switch/proxy_server/CMakeFiles/light_switch_proxy_server_nrf52840_xxAA_s140_6.0.0.dir/__/__/__/mesh/prov/src/prov_provisionee.c.obj
 .rodata.prov_provisionee_cb_ack_received.str1.1
                0x0003b65c       0x53 examples/light_switch/proxy_server/CMakeFiles/light_switch_proxy_server_nrf52840_xxAA_s140_6.0.0.dir/__/__/__/mesh/prov/src/prov_provisionee.c.obj
 .rodata.multiply_de_bruijn_bit_position.9607
                0x0003b6af       0x20 examples/light_switch/proxy_server/CMakeFiles/light_switch_proxy_server_nrf52840_xxAA_s140_6.0.0.dir/__/__/__/mesh/prov/src/nrf_mesh_prov.c.obj
 .rodata.pdu_sizes.11532
                0x0003b6cf        0xa examples/light_switch/proxy_server/CMakeFiles/light_switch_proxy_server_nrf52840_xxAA_s140_6.0.0.dir/__/__/__/mesh/prov/src/provisioning.c.obj
 .rodata.alphanumeric.11637
                0x0003b6d9       0x25 examples/light_switch/proxy_server/CMakeFiles/light_switch_proxy_server_nrf52840_xxAA_s140_6.0.0.dir/__/__/__/mesh/prov/src/prov_utils.c.obj
 *fill*         0x0003b6fe        0x2 
 .rodata.numeric_max.11631
                0x0003b700       0x24 examples/light_switch/proxy_server/CMakeFiles/light_switch_proxy_server_nrf52840_xxAA_s140_6.0.0.dir/__/__/__/mesh/prov/src/prov_utils.c.obj
 .rodata.prov_utils_authentication_values_derive.str1.1
                0x0003b724        0x5 examples/light_switch/proxy_server/CMakeFiles/light_switch_proxy_server_nrf52840_xxAA_s140_6.0.0.dir/__/__/__/mesh/prov/src/prov_utils.c.obj
 .rodata.prov_utils_derive_keys.str1.1
                0x0003b729        0xf examples/light_switch/proxy_server/CMakeFiles/light_switch_proxy_server_nrf52840_xxAA_s140_6.0.0.dir/__/__/__/mesh/prov/src/prov_utils.c.obj
 .rodata.add_active_bearer.str1.1
                0x0003b738       0x2c examples/light_switch/proxy_server/CMakeFiles/light_switch_proxy_server_nrf52840_xxAA_s140_6.0.0.dir/__/__/__/mesh/prov/src/prov_bearer_adv.c.obj
 .rodata.crctable.11266
                0x0003b764      0x100 examples/light_switch/proxy_server/CMakeFiles/light_switch_proxy_server_nrf52840_xxAA_s140_6.0.0.dir/__/__/__/mesh/prov/src/prov_bearer_adv.c.obj
 .rodata.interface.11496
                0x0003b864       0x14 examples/light_switch/proxy_server/CMakeFiles/light_switch_proxy_server_nrf52840_xxAA_s140_6.0.0.dir/__/__/__/mesh/prov/src/prov_bearer_adv.c.obj
 .rodata.prov_bearer_adv_packet_in.str1.1
                0x0003b878      0x26e examples/light_switch/proxy_server/CMakeFiles/light_switch_proxy_server_nrf52840_xxAA_s140_6.0.0.dir/__/__/__/mesh/prov/src/prov_bearer_adv.c.obj
 .rodata.tx_retry_cb.str1.1
                0x0003bae6       0x37 examples/light_switch/proxy_server/CMakeFiles/light_switch_proxy_server_nrf52840_xxAA_s140_6.0.0.dir/__/__/__/mesh/prov/src/prov_bearer_adv.c.obj
 .rodata._DoInit.str1.1
                0x0003bb1d       0x14 external/rtt/librtt_nrf52840_xxAA.a(SEGGER_RTT.c.obj)
 .rodata._aV2C.5497
                0x0003bb31       0x10 external/rtt/librtt_nrf52840_xxAA.a(SEGGER_RTT_printf.c.obj)
 *fill*         0x0003bb41        0x3 
 .rodata.curve_secp256r1
                0x0003bb44       0xb0 external/micro-ecc/libuECC_nrf52840_xxAA.a(uECC.c.obj)
 .rodata._global_impure_ptr
                0x0003bbf4        0x4 c:/mesh/arm_gcc/bin/../lib/gcc/arm-none-eabi/6.3.1/../../../../arm-none-eabi/lib/thumb/v7e-m/fpv4-sp/hard\libg_nano.a(lib_a-impure.o)
                0x0003bbf4                _global_impure_ptr
 *(.eh_frame*)
 .eh_frame      0x0003bbf8        0x0 c:/mesh/arm_gcc/bin/../lib/gcc/arm-none-eabi/6.3.1/thumb/v7e-m/fpv4-sp/hard/crtbegin.o
 .eh_frame      0x0003bbf8        0x4 c:/mesh/arm_gcc/bin/../lib/gcc/arm-none-eabi/6.3.1/thumb/v7e-m/fpv4-sp/hard/crtend.o

.glue_7         0x0003bbfc        0x0
 .glue_7        0x0003bbfc        0x0 linker stubs

.glue_7t        0x0003bbfc        0x0
 .glue_7t       0x0003bbfc        0x0 linker stubs

.vfp11_veneer   0x0003bbfc        0x0
 .vfp11_veneer  0x0003bbfc        0x0 linker stubs

.v4_bx          0x0003bbfc        0x0
 .v4_bx         0x0003bbfc        0x0 linker stubs

.iplt           0x0003bbfc        0x0
 .iplt          0x0003bbfc        0x0 c:/mesh/arm_gcc/bin/../lib/gcc/arm-none-eabi/6.3.1/thumb/v7e-m/fpv4-sp/hard/crtbegin.o

.pwr_mgmt_data  0x0003bbfc        0x0
                [!provide]                PROVIDE (__start_pwr_mgmt_data, .)
 *(SORT(.pwr_mgmt_data*))
                [!provide]                PROVIDE (__stop_pwr_mgmt_data, .)

.log_const_data
                0x0003bbfc        0x0
                [!provide]                PROVIDE (__start_log_const_data, .)
 *(.log_const_data)
                [!provide]                PROVIDE (__stop_log_const_data, .)

.cli_command    0x0003bbfc        0x0
                [!provide]                PROVIDE (__start_cli_command, .)
 *(.cli_command)
                [!provide]                PROVIDE (__stop_cli_command, .)

.sdh_stack_observers
                0x0003bbfc       0x10
                0x0003bbfc                PROVIDE (__start_sdh_stack_observers, .)
 *(SORT(.sdh_stack_observers*))
 .sdh_stack_observers0
                0x0003bbfc        0x8 examples/light_switch/proxy_server/CMakeFiles/light_switch_proxy_server_nrf52840_xxAA_s140_6.0.0.dir/C_/ver/mod/nRF5_SDK_15.0.0_a53641a/components/softdevice/common/nrf_sdh_soc.c.obj
 .sdh_stack_observers0
                0x0003bc04        0x8 examples/light_switch/proxy_server/CMakeFiles/light_switch_proxy_server_nrf52840_xxAA_s140_6.0.0.dir/C_/ver/mod/nRF5_SDK_15.0.0_a53641a/components/softdevice/common/nrf_sdh_ble.c.obj
                0x0003bc0c                PROVIDE (__stop_sdh_stack_observers, .)

.sdh_req_observers
                0x0003bc0c        0x0
                0x0003bc0c                PROVIDE (__start_sdh_req_observers, .)
 *(SORT(.sdh_req_observers*))
                0x0003bc0c                PROVIDE (__stop_sdh_req_observers, .)

.sdh_state_observers
                0x0003bc0c        0x8
                0x0003bc0c                PROVIDE (__start_sdh_state_observers, .)
 *(SORT(.sdh_state_observers*))
 .sdh_state_observers1
                0x0003bc0c        0x8 examples/light_switch/proxy_server/CMakeFiles/light_switch_proxy_server_nrf52840_xxAA_s140_6.0.0.dir/__/__/common/src/mesh_provisionee.c.obj
                0x0003bc14                PROVIDE (__stop_sdh_state_observers, .)

.sdh_ant_observers
                0x0003bc14        0x0
                [!provide]                PROVIDE (__start_sdh_ant_observers, .)
 *(SORT(.sdh_ant_observers*))
                [!provide]                PROVIDE (__stop_sdh_ant_observers, .)

.sdh_ble_observers
                0x0003bc14        0x8
                0x0003bc14                PROVIDE (__start_sdh_ble_observers, .)
 *(SORT(.sdh_ble_observers*))
 .sdh_ble_observers2
                0x0003bc14        0x8 examples/light_switch/proxy_server/CMakeFiles/light_switch_proxy_server_nrf52840_xxAA_s140_6.0.0.dir/__/__/__/mesh/gatt/src/mesh_gatt.c.obj
                0x0003bc1c                PROVIDE (__stop_sdh_ble_observers, .)

.sdh_soc_observers
                0x0003bc1c        0x8
                0x0003bc1c                PROVIDE (__start_sdh_soc_observers, .)
 *(SORT(.sdh_soc_observers*))
 .sdh_soc_observers0
                0x0003bc1c        0x8 examples/light_switch/proxy_server/CMakeFiles/light_switch_proxy_server_nrf52840_xxAA_s140_6.0.0.dir/src/main.c.obj
                0x0003bc24                PROVIDE (__stop_sdh_soc_observers, .)

.ARM.extab
 *(.ARM.extab* .gnu.linkonce.armextab.*)
                0x0003bc24                __exidx_start = .

.ARM.exidx      0x0003bc24        0x8
 *(.ARM.exidx* .gnu.linkonce.armexidx.*)
 .ARM.exidx     0x0003bc24        0x8 c:/mesh/arm_gcc/bin/../lib/gcc/arm-none-eabi/6.3.1/../../../../arm-none-eabi/lib/thumb/v7e-m/fpv4-sp/hard/crt0.o
 .ARM.exidx     0x0003bc2c        0x0 c:/mesh/arm_gcc/bin/../lib/gcc/arm-none-eabi/6.3.1/thumb/v7e-m/fpv4-sp/hard\libgcc.a(_udivmoddi4.o)
                                  0x8 (size before relaxing)
                0x0003bc2c                __exidx_end = .
                0x0003bc2c                __etext = .

.rel.dyn        0x0003bc2c        0x0
 .rel.iplt      0x0003bc2c        0x0 c:/mesh/arm_gcc/bin/../lib/gcc/arm-none-eabi/6.3.1/thumb/v7e-m/fpv4-sp/hard/crtbegin.o

.data           0x200032c8      0x1c4 load address 0x0003bc2c
                0x200032c8                __data_start__ = .
 *(vtable)
 *(.data*)
 .data.s_evt_handler.11372
                0x200032c8        0x8 examples/light_switch/proxy_server/CMakeFiles/light_switch_proxy_server_nrf52840_xxAA_s140_6.0.0.dir/__/__/__/mesh/stack/src/mesh_stack.c.obj
 .data.m_adv_handle
                0x200032d0        0x1 examples/light_switch/proxy_server/CMakeFiles/light_switch_proxy_server_nrf52840_xxAA_s140_6.0.0.dir/__/__/common/src/mesh_adv.c.obj
 *fill*         0x200032d1        0x3 
 .data.m_adv_params
                0x200032d4       0x18 examples/light_switch/proxy_server/CMakeFiles/light_switch_proxy_server_nrf52840_xxAA_s140_6.0.0.dir/__/__/common/src/mesh_adv.c.obj
 .data.m_action_lookup_table
                0x200032ec       0x24 examples/light_switch/proxy_server/CMakeFiles/light_switch_proxy_server_nrf52840_xxAA_s140_6.0.0.dir/__/__/__/mesh/prov/src/nrf_mesh_prov_bearer_gatt.c.obj
 .data.m_event_lookup_table
                0x20003310       0x2c examples/light_switch/proxy_server/CMakeFiles/light_switch_proxy_server_nrf52840_xxAA_s140_6.0.0.dir/__/__/__/mesh/prov/src/nrf_mesh_prov_bearer_gatt.c.obj
 .data.m_guard_lookup_table
                0x2000333c        0x4 examples/light_switch/proxy_server/CMakeFiles/light_switch_proxy_server_nrf52840_xxAA_s140_6.0.0.dir/__/__/__/mesh/prov/src/nrf_mesh_prov_bearer_gatt.c.obj
 .data.m_state_lookup_table
                0x20003340       0x10 examples/light_switch/proxy_server/CMakeFiles/light_switch_proxy_server_nrf52840_xxAA_s140_6.0.0.dir/__/__/__/mesh/prov/src/nrf_mesh_prov_bearer_gatt.c.obj
 .data.wait.9229
                0x20003350        0x1 examples/light_switch/proxy_server/CMakeFiles/light_switch_proxy_server_nrf52840_xxAA_s140_6.0.0.dir/__/__/common/src/app_error_weak.c.obj
 *fill*         0x20003351        0x3 
 .data.mem_listener.10104
                0x20003354       0x10 examples/light_switch/proxy_server/CMakeFiles/light_switch_proxy_server_nrf52840_xxAA_s140_6.0.0.dir/__/__/__/mesh/core/src/net_state.c.obj
 .data.mem_listener.10109
                0x20003364       0x10 examples/light_switch/proxy_server/CMakeFiles/light_switch_proxy_server_nrf52840_xxAA_s140_6.0.0.dir/__/__/__/mesh/core/src/net_state.c.obj
 .data.mem_listener.10123
                0x20003374       0x10 examples/light_switch/proxy_server/CMakeFiles/light_switch_proxy_server_nrf52840_xxAA_s140_6.0.0.dir/__/__/__/mesh/core/src/net_state.c.obj
 .data.mem_listener.10140
                0x20003384       0x10 examples/light_switch/proxy_server/CMakeFiles/light_switch_proxy_server_nrf52840_xxAA_s140_6.0.0.dir/__/__/__/mesh/core/src/net_state.c.obj
 .data.m_nrf_mesh_listener
                0x20003394        0xc examples/light_switch/proxy_server/CMakeFiles/light_switch_proxy_server_nrf52840_xxAA_s140_6.0.0.dir/__/__/__/mesh/core/src/nrf_mesh.c.obj
 .data.g_log_dbg_lvl
                0x200033a0        0x4 examples/light_switch/proxy_server/CMakeFiles/light_switch_proxy_server_nrf52840_xxAA_s140_6.0.0.dir/__/__/__/mesh/core/src/log.c.obj
                0x200033a0                g_log_dbg_lvl
 .data.g_log_dbg_msk
                0x200033a4        0x4 examples/light_switch/proxy_server/CMakeFiles/light_switch_proxy_server_nrf52840_xxAA_s140_6.0.0.dir/__/__/__/mesh/core/src/log.c.obj
                0x200033a4                g_log_dbg_msk
 .data.g_log_hex_digits
                0x200033a8        0x4 examples/light_switch/proxy_server/CMakeFiles/light_switch_proxy_server_nrf52840_xxAA_s140_6.0.0.dir/__/__/__/mesh/core/src/log.c.obj
                0x200033a8                g_log_hex_digits
 .data.m_log_callback
                0x200033ac        0x4 examples/light_switch/proxy_server/CMakeFiles/light_switch_proxy_server_nrf52840_xxAA_s140_6.0.0.dir/__/__/__/mesh/core/src/log.c.obj
                0x200033ac                m_log_callback
 .data.m_config_server_handle
                0x200033b0        0x2 examples/light_switch/proxy_server/CMakeFiles/light_switch_proxy_server_nrf52840_xxAA_s140_6.0.0.dir/__/__/__/models/config/src/config_server.c.obj
 *fill*         0x200033b2        0x2 
 .data.m_mesh_evt_handler
                0x200033b4        0x8 examples/light_switch/proxy_server/CMakeFiles/light_switch_proxy_server_nrf52840_xxAA_s140_6.0.0.dir/__/__/__/models/config/src/config_server.c.obj
 .data.flash_add_mem_available_struct.10678
                0x200033bc       0x10 examples/light_switch/proxy_server/CMakeFiles/light_switch_proxy_server_nrf52840_xxAA_s140_6.0.0.dir/__/__/__/mesh/access/src/access.c.obj
 .data.flash_clear_mem_available_struct.10767
                0x200033cc       0x10 examples/light_switch/proxy_server/CMakeFiles/light_switch_proxy_server_nrf52840_xxAA_s140_6.0.0.dir/__/__/__/mesh/access/src/access.c.obj
 .data.flash_store_mem_available_struct.10791
                0x200033dc       0x10 examples/light_switch/proxy_server/CMakeFiles/light_switch_proxy_server_nrf52840_xxAA_s140_6.0.0.dir/__/__/__/mesh/access/src/access.c.obj
 .data.m_default_ttl
                0x200033ec        0x1 examples/light_switch/proxy_server/CMakeFiles/light_switch_proxy_server_nrf52840_xxAA_s140_6.0.0.dir/__/__/__/mesh/access/src/access.c.obj
 *fill*         0x200033ed        0x3 
 .data.mem_listener.10968
                0x200033f0       0x10 examples/light_switch/proxy_server/CMakeFiles/light_switch_proxy_server_nrf52840_xxAA_s140_6.0.0.dir/__/__/__/mesh/access/src/device_state_manager.c.obj
 .data.mem_listener.10994
                0x20003400       0x10 examples/light_switch/proxy_server/CMakeFiles/light_switch_proxy_server_nrf52840_xxAA_s140_6.0.0.dir/__/__/__/mesh/access/src/device_state_manager.c.obj
 .data.m_async_process_flag
                0x20003410        0x4 examples/light_switch/proxy_server/CMakeFiles/light_switch_proxy_server_nrf52840_xxAA_s140_6.0.0.dir/__/__/__/mesh/prov/src/prov_bearer_adv.c.obj
 .data.SystemCoreClock
                0x20003414        0x4 examples/light_switch/proxy_server/CMakeFiles/light_switch_proxy_server_nrf52840_xxAA_s140_6.0.0.dir/C_/ver/mod/nRF5_SDK_15.0.0_a53641a/modules/nrfx/mdk/system_nrf52840.c.obj
                0x20003414                SystemCoreClock
 .data.g_rng_function
                0x20003418        0x4 external/micro-ecc/libuECC_nrf52840_xxAA.a(uECC.c.obj)
 .data._impure_ptr
                0x2000341c        0x4 c:/mesh/arm_gcc/bin/../lib/gcc/arm-none-eabi/6.3.1/../../../../arm-none-eabi/lib/thumb/v7e-m/fpv4-sp/hard\libg_nano.a(lib_a-impure.o)
                0x2000341c                _impure_ptr
 .data.impure_data
                0x20003420       0x60 c:/mesh/arm_gcc/bin/../lib/gcc/arm-none-eabi/6.3.1/../../../../arm-none-eabi/lib/thumb/v7e-m/fpv4-sp/hard\libg_nano.a(lib_a-impure.o)
                0x20003480                . = ALIGN (0x4)
                0x20003480                PROVIDE (__preinit_array_start, .)
 *(.preinit_array)
                0x20003480                PROVIDE (__preinit_array_end, .)
                0x20003480                . = ALIGN (0x4)
                0x20003480                PROVIDE (__init_array_start, .)
 *(SORT(.init_array.*))
 *(.init_array)
 .init_array    0x20003480        0x4 c:/mesh/arm_gcc/bin/../lib/gcc/arm-none-eabi/6.3.1/thumb/v7e-m/fpv4-sp/hard/crtbegin.o
                0x20003484                PROVIDE (__init_array_end, .)
                0x20003484                . = ALIGN (0x4)
                [!provide]                PROVIDE (__fini_array_start, .)
 *(SORT(.fini_array.*))
 *(.fini_array)
 .fini_array    0x20003484        0x4 c:/mesh/arm_gcc/bin/../lib/gcc/arm-none-eabi/6.3.1/thumb/v7e-m/fpv4-sp/hard/crtbegin.o
                [!provide]                PROVIDE (__fini_array_end, .)
 *(.jcr*)
 .jcr           0x20003488        0x0 c:/mesh/arm_gcc/bin/../lib/gcc/arm-none-eabi/6.3.1/thumb/v7e-m/fpv4-sp/hard/crtbegin.o
 .jcr           0x20003488        0x4 c:/mesh/arm_gcc/bin/../lib/gcc/arm-none-eabi/6.3.1/thumb/v7e-m/fpv4-sp/hard/crtend.o
                0x2000348c                . = ALIGN (0x4)
                0x2000348c                __data_end__ = .
LOAD c:/mesh/arm_gcc/bin/../lib/gcc/arm-none-eabi/6.3.1/thumb/v7e-m/fpv4-sp/hard/crti.o
LOAD c:/mesh/arm_gcc/bin/../lib/gcc/arm-none-eabi/6.3.1/thumb/v7e-m/fpv4-sp/hard/crtbegin.o
LOAD c:/mesh/arm_gcc/bin/../lib/gcc/arm-none-eabi/6.3.1/../../../../arm-none-eabi/lib/thumb/v7e-m/fpv4-sp/hard/crt0.o
LOAD examples/light_switch/proxy_server/CMakeFiles/light_switch_proxy_server_nrf52840_xxAA_s140_6.0.0.dir/src/main.c.obj
LOAD examples/light_switch/proxy_server/CMakeFiles/light_switch_proxy_server_nrf52840_xxAA_s140_6.0.0.dir/__/__/__/mesh/stack/src/mesh_stack.c.obj
LOAD examples/light_switch/proxy_server/CMakeFiles/light_switch_proxy_server_nrf52840_xxAA_s140_6.0.0.dir/__/__/common/src/mesh_provisionee.c.obj
LOAD examples/light_switch/proxy_server/CMakeFiles/light_switch_proxy_server_nrf52840_xxAA_s140_6.0.0.dir/__/__/common/src/rtt_input.c.obj
LOAD examples/light_switch/proxy_server/CMakeFiles/light_switch_proxy_server_nrf52840_xxAA_s140_6.0.0.dir/__/__/common/src/simple_hal.c.obj
LOAD examples/light_switch/proxy_server/CMakeFiles/light_switch_proxy_server_nrf52840_xxAA_s140_6.0.0.dir/__/__/common/src/mesh_app_utils.c.obj
LOAD examples/light_switch/proxy_server/CMakeFiles/light_switch_proxy_server_nrf52840_xxAA_s140_6.0.0.dir/__/__/common/src/mesh_adv.c.obj
LOAD examples/light_switch/proxy_server/CMakeFiles/light_switch_proxy_server_nrf52840_xxAA_s140_6.0.0.dir/__/__/__/mesh/prov/src/nrf_mesh_prov_bearer_gatt.c.obj
LOAD examples/light_switch/proxy_server/CMakeFiles/light_switch_proxy_server_nrf52840_xxAA_s140_6.0.0.dir/C_/ver/mod/nRF5_SDK_15.0.0_a53641a/components/libraries/util/app_util_platform.c.obj
LOAD examples/light_switch/proxy_server/CMakeFiles/light_switch_proxy_server_nrf52840_xxAA_s140_6.0.0.dir/C_/ver/mod/nRF5_SDK_15.0.0_a53641a/components/ble/common/ble_advdata.c.obj
LOAD examples/light_switch/proxy_server/CMakeFiles/light_switch_proxy_server_nrf52840_xxAA_s140_6.0.0.dir/C_/ver/mod/nRF5_SDK_15.0.0_a53641a/components/libraries/experimental_section_vars/nrf_section_iter.c.obj
LOAD examples/light_switch/proxy_server/CMakeFiles/light_switch_proxy_server_nrf52840_xxAA_s140_6.0.0.dir/C_/ver/mod/nRF5_SDK_15.0.0_a53641a/components/softdevice/common/nrf_sdh.c.obj
LOAD examples/light_switch/proxy_server/CMakeFiles/light_switch_proxy_server_nrf52840_xxAA_s140_6.0.0.dir/C_/ver/mod/nRF5_SDK_15.0.0_a53641a/components/softdevice/common/nrf_sdh_soc.c.obj
LOAD examples/light_switch/proxy_server/CMakeFiles/light_switch_proxy_server_nrf52840_xxAA_s140_6.0.0.dir/C_/ver/mod/nRF5_SDK_15.0.0_a53641a/components/softdevice/common/nrf_sdh_ble.c.obj
LOAD examples/light_switch/proxy_server/CMakeFiles/light_switch_proxy_server_nrf52840_xxAA_s140_6.0.0.dir/__/__/nrf_mesh_weak.c.obj
LOAD examples/light_switch/proxy_server/CMakeFiles/light_switch_proxy_server_nrf52840_xxAA_s140_6.0.0.dir/__/__/common/src/app_error_weak.c.obj
LOAD examples/light_switch/proxy_server/CMakeFiles/light_switch_proxy_server_nrf52840_xxAA_s140_6.0.0.dir/__/__/common/src/assertion_handler_weak.c.obj
LOAD examples/light_switch/proxy_server/CMakeFiles/light_switch_proxy_server_nrf52840_xxAA_s140_6.0.0.dir/__/__/__/mesh/core/src/internal_event.c.obj
LOAD examples/light_switch/proxy_server/CMakeFiles/light_switch_proxy_server_nrf52840_xxAA_s140_6.0.0.dir/__/__/__/mesh/core/src/nrf_mesh_configure.c.obj
LOAD examples/light_switch/proxy_server/CMakeFiles/light_switch_proxy_server_nrf52840_xxAA_s140_6.0.0.dir/__/__/__/mesh/core/src/aes.c.obj
LOAD examples/light_switch/proxy_server/CMakeFiles/light_switch_proxy_server_nrf52840_xxAA_s140_6.0.0.dir/__/__/__/mesh/core/src/msg_cache.c.obj
LOAD examples/light_switch/proxy_server/CMakeFiles/light_switch_proxy_server_nrf52840_xxAA_s140_6.0.0.dir/__/__/__/mesh/core/src/transport.c.obj
LOAD examples/light_switch/proxy_server/CMakeFiles/light_switch_proxy_server_nrf52840_xxAA_s140_6.0.0.dir/__/__/__/mesh/core/src/event.c.obj
LOAD examples/light_switch/proxy_server/CMakeFiles/light_switch_proxy_server_nrf52840_xxAA_s140_6.0.0.dir/__/__/__/mesh/core/src/packet_buffer.c.obj
LOAD examples/light_switch/proxy_server/CMakeFiles/light_switch_proxy_server_nrf52840_xxAA_s140_6.0.0.dir/__/__/__/mesh/core/src/flash_manager_defrag.c.obj
LOAD examples/light_switch/proxy_server/CMakeFiles/light_switch_proxy_server_nrf52840_xxAA_s140_6.0.0.dir/__/__/__/mesh/core/src/fifo.c.obj
LOAD examples/light_switch/proxy_server/CMakeFiles/light_switch_proxy_server_nrf52840_xxAA_s140_6.0.0.dir/__/__/__/mesh/core/src/nrf_flash.c.obj
LOAD examples/light_switch/proxy_server/CMakeFiles/light_switch_proxy_server_nrf52840_xxAA_s140_6.0.0.dir/__/__/__/mesh/core/src/packet_mgr.c.obj
LOAD examples/light_switch/proxy_server/CMakeFiles/light_switch_proxy_server_nrf52840_xxAA_s140_6.0.0.dir/__/__/__/mesh/core/src/net_state.c.obj
LOAD examples/light_switch/proxy_server/CMakeFiles/light_switch_proxy_server_nrf52840_xxAA_s140_6.0.0.dir/__/__/__/mesh/core/src/mesh_flash.c.obj
LOAD examples/light_switch/proxy_server/CMakeFiles/light_switch_proxy_server_nrf52840_xxAA_s140_6.0.0.dir/__/__/__/mesh/core/src/nrf_mesh_utils.c.obj
LOAD examples/light_switch/proxy_server/CMakeFiles/light_switch_proxy_server_nrf52840_xxAA_s140_6.0.0.dir/__/__/__/mesh/core/src/nrf_mesh.c.obj
LOAD examples/light_switch/proxy_server/CMakeFiles/light_switch_proxy_server_nrf52840_xxAA_s140_6.0.0.dir/__/__/__/mesh/core/src/queue.c.obj
LOAD examples/light_switch/proxy_server/CMakeFiles/light_switch_proxy_server_nrf52840_xxAA_s140_6.0.0.dir/__/__/__/mesh/core/src/hal.c.obj
LOAD examples/light_switch/proxy_server/CMakeFiles/light_switch_proxy_server_nrf52840_xxAA_s140_6.0.0.dir/__/__/__/mesh/core/src/aes_cmac.c.obj
LOAD examples/light_switch/proxy_server/CMakeFiles/light_switch_proxy_server_nrf52840_xxAA_s140_6.0.0.dir/__/__/__/mesh/core/src/timer_scheduler.c.obj
LOAD examples/light_switch/proxy_server/CMakeFiles/light_switch_proxy_server_nrf52840_xxAA_s140_6.0.0.dir/__/__/__/mesh/core/src/timer.c.obj
LOAD examples/light_switch/proxy_server/CMakeFiles/light_switch_proxy_server_nrf52840_xxAA_s140_6.0.0.dir/__/__/__/mesh/core/src/ticker.c.obj
LOAD examples/light_switch/proxy_server/CMakeFiles/light_switch_proxy_server_nrf52840_xxAA_s140_6.0.0.dir/__/__/__/mesh/core/src/rand.c.obj
LOAD examples/light_switch/proxy_server/CMakeFiles/light_switch_proxy_server_nrf52840_xxAA_s140_6.0.0.dir/__/__/__/mesh/core/src/nrf_mesh_opt.c.obj
LOAD examples/light_switch/proxy_server/CMakeFiles/light_switch_proxy_server_nrf52840_xxAA_s140_6.0.0.dir/__/__/__/mesh/core/src/timeslot.c.obj
LOAD examples/light_switch/proxy_server/CMakeFiles/light_switch_proxy_server_nrf52840_xxAA_s140_6.0.0.dir/__/__/__/mesh/core/src/bearer_event.c.obj
LOAD examples/light_switch/proxy_server/CMakeFiles/light_switch_proxy_server_nrf52840_xxAA_s140_6.0.0.dir/__/__/__/mesh/core/src/enc.c.obj
LOAD examples/light_switch/proxy_server/CMakeFiles/light_switch_proxy_server_nrf52840_xxAA_s140_6.0.0.dir/__/__/__/mesh/core/src/network.c.obj
LOAD examples/light_switch/proxy_server/CMakeFiles/light_switch_proxy_server_nrf52840_xxAA_s140_6.0.0.dir/__/__/__/mesh/core/src/net_packet.c.obj
LOAD examples/light_switch/proxy_server/CMakeFiles/light_switch_proxy_server_nrf52840_xxAA_s140_6.0.0.dir/__/__/__/mesh/core/src/msqueue.c.obj
LOAD examples/light_switch/proxy_server/CMakeFiles/light_switch_proxy_server_nrf52840_xxAA_s140_6.0.0.dir/__/__/__/mesh/core/src/nrf_mesh_keygen.c.obj
LOAD examples/light_switch/proxy_server/CMakeFiles/light_switch_proxy_server_nrf52840_xxAA_s140_6.0.0.dir/__/__/__/mesh/core/src/cache.c.obj
LOAD examples/light_switch/proxy_server/CMakeFiles/light_switch_proxy_server_nrf52840_xxAA_s140_6.0.0.dir/__/__/__/mesh/core/src/uri.c.obj
LOAD examples/light_switch/proxy_server/CMakeFiles/light_switch_proxy_server_nrf52840_xxAA_s140_6.0.0.dir/__/__/__/mesh/core/src/list.c.obj
LOAD examples/light_switch/proxy_server/CMakeFiles/light_switch_proxy_server_nrf52840_xxAA_s140_6.0.0.dir/__/__/__/mesh/core/src/log.c.obj
LOAD examples/light_switch/proxy_server/CMakeFiles/light_switch_proxy_server_nrf52840_xxAA_s140_6.0.0.dir/__/__/__/mesh/core/src/flash_manager.c.obj
LOAD examples/light_switch/proxy_server/CMakeFiles/light_switch_proxy_server_nrf52840_xxAA_s140_6.0.0.dir/__/__/__/mesh/core/src/ccm_soft.c.obj
LOAD examples/light_switch/proxy_server/CMakeFiles/light_switch_proxy_server_nrf52840_xxAA_s140_6.0.0.dir/__/__/__/mesh/core/src/toolchain.c.obj
LOAD examples/light_switch/proxy_server/CMakeFiles/light_switch_proxy_server_nrf52840_xxAA_s140_6.0.0.dir/__/__/__/mesh/core/src/replay_cache.c.obj
LOAD examples/light_switch/proxy_server/CMakeFiles/light_switch_proxy_server_nrf52840_xxAA_s140_6.0.0.dir/__/__/__/mesh/core/src/beacon.c.obj
LOAD examples/light_switch/proxy_server/CMakeFiles/light_switch_proxy_server_nrf52840_xxAA_s140_6.0.0.dir/__/__/__/mesh/core/src/flash_manager_internal.c.obj
LOAD examples/light_switch/proxy_server/CMakeFiles/light_switch_proxy_server_nrf52840_xxAA_s140_6.0.0.dir/__/__/__/mesh/core/src/core_tx.c.obj
LOAD examples/light_switch/proxy_server/CMakeFiles/light_switch_proxy_server_nrf52840_xxAA_s140_6.0.0.dir/__/__/__/mesh/core/src/heartbeat.c.obj
LOAD examples/light_switch/proxy_server/CMakeFiles/light_switch_proxy_server_nrf52840_xxAA_s140_6.0.0.dir/__/__/__/mesh/core/src/net_beacon.c.obj
LOAD examples/light_switch/proxy_server/CMakeFiles/light_switch_proxy_server_nrf52840_xxAA_s140_6.0.0.dir/__/__/__/mesh/core/src/fsm.c.obj
LOAD examples/light_switch/proxy_server/CMakeFiles/light_switch_proxy_server_nrf52840_xxAA_s140_6.0.0.dir/__/__/__/mesh/core/src/core_tx_adv.c.obj
LOAD examples/light_switch/proxy_server/CMakeFiles/light_switch_proxy_server_nrf52840_xxAA_s140_6.0.0.dir/__/__/__/mesh/bearer/src/ad_listener.c.obj
LOAD examples/light_switch/proxy_server/CMakeFiles/light_switch_proxy_server_nrf52840_xxAA_s140_6.0.0.dir/__/__/__/mesh/bearer/src/ad_type_filter.c.obj
LOAD examples/light_switch/proxy_server/CMakeFiles/light_switch_proxy_server_nrf52840_xxAA_s140_6.0.0.dir/__/__/__/mesh/bearer/src/adv_packet_filter.c.obj
LOAD examples/light_switch/proxy_server/CMakeFiles/light_switch_proxy_server_nrf52840_xxAA_s140_6.0.0.dir/__/__/__/mesh/bearer/src/advertiser.c.obj
LOAD examples/light_switch/proxy_server/CMakeFiles/light_switch_proxy_server_nrf52840_xxAA_s140_6.0.0.dir/__/__/__/mesh/bearer/src/bearer_handler.c.obj
LOAD examples/light_switch/proxy_server/CMakeFiles/light_switch_proxy_server_nrf52840_xxAA_s140_6.0.0.dir/__/__/__/mesh/bearer/src/broadcast.c.obj
LOAD examples/light_switch/proxy_server/CMakeFiles/light_switch_proxy_server_nrf52840_xxAA_s140_6.0.0.dir/__/__/__/mesh/bearer/src/filter_engine.c.obj
LOAD examples/light_switch/proxy_server/CMakeFiles/light_switch_proxy_server_nrf52840_xxAA_s140_6.0.0.dir/__/__/__/mesh/bearer/src/gap_address_filter.c.obj
LOAD examples/light_switch/proxy_server/CMakeFiles/light_switch_proxy_server_nrf52840_xxAA_s140_6.0.0.dir/__/__/__/mesh/bearer/src/radio_config.c.obj
LOAD examples/light_switch/proxy_server/CMakeFiles/light_switch_proxy_server_nrf52840_xxAA_s140_6.0.0.dir/__/__/__/mesh/bearer/src/rssi_filter.c.obj
LOAD examples/light_switch/proxy_server/CMakeFiles/light_switch_proxy_server_nrf52840_xxAA_s140_6.0.0.dir/__/__/__/mesh/bearer/src/scanner.c.obj
LOAD examples/light_switch/proxy_server/CMakeFiles/light_switch_proxy_server_nrf52840_xxAA_s140_6.0.0.dir/__/__/__/mesh/gatt/src/mesh_gatt.c.obj
LOAD examples/light_switch/proxy_server/CMakeFiles/light_switch_proxy_server_nrf52840_xxAA_s140_6.0.0.dir/__/__/__/mesh/gatt/src/proxy.c.obj
LOAD examples/light_switch/proxy_server/CMakeFiles/light_switch_proxy_server_nrf52840_xxAA_s140_6.0.0.dir/__/__/__/mesh/gatt/src/proxy_filter.c.obj
LOAD examples/light_switch/proxy_server/CMakeFiles/light_switch_proxy_server_nrf52840_xxAA_s140_6.0.0.dir/__/__/__/models/simple_on_off/src/simple_on_off_server.c.obj
LOAD examples/light_switch/proxy_server/CMakeFiles/light_switch_proxy_server_nrf52840_xxAA_s140_6.0.0.dir/__/__/__/models/config/src/composition_data.c.obj
LOAD examples/light_switch/proxy_server/CMakeFiles/light_switch_proxy_server_nrf52840_xxAA_s140_6.0.0.dir/__/__/__/models/config/src/config_server.c.obj
LOAD examples/light_switch/proxy_server/CMakeFiles/light_switch_proxy_server_nrf52840_xxAA_s140_6.0.0.dir/__/__/__/models/config/src/packed_index_list.c.obj
LOAD examples/light_switch/proxy_server/CMakeFiles/light_switch_proxy_server_nrf52840_xxAA_s140_6.0.0.dir/__/__/__/models/health/src/health_server.c.obj
LOAD examples/light_switch/proxy_server/CMakeFiles/light_switch_proxy_server_nrf52840_xxAA_s140_6.0.0.dir/__/__/__/mesh/access/src/access_publish.c.obj
LOAD examples/light_switch/proxy_server/CMakeFiles/light_switch_proxy_server_nrf52840_xxAA_s140_6.0.0.dir/__/__/__/mesh/access/src/access.c.obj
LOAD examples/light_switch/proxy_server/CMakeFiles/light_switch_proxy_server_nrf52840_xxAA_s140_6.0.0.dir/__/__/__/mesh/access/src/access_reliable.c.obj
LOAD examples/light_switch/proxy_server/CMakeFiles/light_switch_proxy_server_nrf52840_xxAA_s140_6.0.0.dir/__/__/__/mesh/access/src/device_state_manager.c.obj
LOAD examples/light_switch/proxy_server/CMakeFiles/light_switch_proxy_server_nrf52840_xxAA_s140_6.0.0.dir/__/__/__/mesh/prov/src/prov_provisionee.c.obj
LOAD examples/light_switch/proxy_server/CMakeFiles/light_switch_proxy_server_nrf52840_xxAA_s140_6.0.0.dir/__/__/__/mesh/prov/src/nrf_mesh_prov.c.obj
LOAD examples/light_switch/proxy_server/CMakeFiles/light_switch_proxy_server_nrf52840_xxAA_s140_6.0.0.dir/__/__/__/mesh/prov/src/provisioning.c.obj
LOAD examples/light_switch/proxy_server/CMakeFiles/light_switch_proxy_server_nrf52840_xxAA_s140_6.0.0.dir/__/__/__/mesh/prov/src/prov_beacon.c.obj
LOAD examples/light_switch/proxy_server/CMakeFiles/light_switch_proxy_server_nrf52840_xxAA_s140_6.0.0.dir/__/__/__/mesh/prov/src/prov_utils.c.obj
LOAD examples/light_switch/proxy_server/CMakeFiles/light_switch_proxy_server_nrf52840_xxAA_s140_6.0.0.dir/__/__/__/mesh/prov/src/prov_bearer_adv.c.obj
LOAD examples/light_switch/proxy_server/CMakeFiles/light_switch_proxy_server_nrf52840_xxAA_s140_6.0.0.dir/C_/ver/mod/nRF5_SDK_15.0.0_a53641a/modules/nrfx/mdk/system_nrf52840.c.obj
LOAD examples/light_switch/proxy_server/CMakeFiles/light_switch_proxy_server_nrf52840_xxAA_s140_6.0.0.dir/C_/ver/mod/nRF5_SDK_15.0.0_a53641a/modules/nrfx/mdk/gcc_startup_nrf52840.S.obj
LOAD examples/light_switch/proxy_server/CMakeFiles/light_switch_proxy_server_nrf52840_xxAA_s140_6.0.0.dir/C_/ver/mod/nRF5_SDK_15.0.0_a53641a/components/libraries/util/app_error.c.obj
LOAD examples/light_switch/proxy_server/CMakeFiles/light_switch_proxy_server_nrf52840_xxAA_s140_6.0.0.dir/C_/ver/mod/nRF5_SDK_15.0.0_a53641a/components/libraries/util/app_error_handler_gcc.c.obj
LOAD external/rtt/librtt_nrf52840_xxAA.a
LOAD external/micro-ecc/libuECC_nrf52840_xxAA.a
START GROUP
LOAD c:/mesh/arm_gcc/bin/../lib/gcc/arm-none-eabi/6.3.1/thumb/v7e-m/fpv4-sp/hard\libgcc.a
LOAD c:/mesh/arm_gcc/bin/../lib/gcc/arm-none-eabi/6.3.1/../../../../arm-none-eabi/lib/thumb/v7e-m/fpv4-sp/hard\libg_nano.a
LOAD c:/mesh/arm_gcc/bin/../lib/gcc/arm-none-eabi/6.3.1/../../../../arm-none-eabi/lib/thumb/v7e-m/fpv4-sp/hard\libc_nano.a
END GROUP
START GROUP
LOAD c:/mesh/arm_gcc/bin/../lib/gcc/arm-none-eabi/6.3.1/thumb/v7e-m/fpv4-sp/hard\libgcc.a
LOAD c:/mesh/arm_gcc/bin/../lib/gcc/arm-none-eabi/6.3.1/../../../../arm-none-eabi/lib/thumb/v7e-m/fpv4-sp/hard\libc_nano.a
END GROUP
LOAD c:/mesh/arm_gcc/bin/../lib/gcc/arm-none-eabi/6.3.1/thumb/v7e-m/fpv4-sp/hard/crtend.o
LOAD c:/mesh/arm_gcc/bin/../lib/gcc/arm-none-eabi/6.3.1/thumb/v7e-m/fpv4-sp/hard/crtn.o
START GROUP
LOAD c:/mesh/arm_gcc/bin/../lib/gcc/arm-none-eabi/6.3.1/thumb/v7e-m/fpv4-sp/hard\libgcc.a
LOAD c:/mesh/arm_gcc/bin/../lib/gcc/arm-none-eabi/6.3.1/../../../../arm-none-eabi/lib/thumb/v7e-m/fpv4-sp/hard\libc.a
LOAD c:/mesh/arm_gcc/bin/../lib/gcc/arm-none-eabi/6.3.1/../../../../arm-none-eabi/lib/thumb/v7e-m/fpv4-sp/hard\libnosys.a
END GROUP

.igot.plt       0x2000348c        0x0 load address 0x0003bdf0
 .igot.plt      0x2000348c        0x0 c:/mesh/arm_gcc/bin/../lib/gcc/arm-none-eabi/6.3.1/thumb/v7e-m/fpv4-sp/hard/crtbegin.o
                0x2000348c                . = ALIGN (0x4)

.svc_data       0x2000348c        0x0
                [!provide]                PROVIDE (__start_svc_data, .)
 *(.svc_data)
                [!provide]                PROVIDE (__stop_svc_data, .)

.fs_data        0x2000348c        0x0
                [!provide]                PROVIDE (__start_fs_data, .)
 *(.fs_data)
                [!provide]                PROVIDE (__stop_fs_data, .)

.log_dynamic_data
                0x2000348c        0x0
                [!provide]                PROVIDE (__start_log_dynamic_data, .)
 *(.log_dynamic_data)
                [!provide]                PROVIDE (__stop_log_dynamic_data, .)

.cli_sorted_cmd_ptrs
                0x2000348c        0x0
                [!provide]                PROVIDE (__start_cli_sorted_cmd_ptrs, .)
 *(.cli_sorted_cmd_ptrs)
                [!provide]                PROVIDE (__stop_cli_sorted_cmd_ptrs, .)

.bss            0x20003490     0x3534 load address 0x0003bdf8
                0x20003490                . = ALIGN (0x4)
                0x20003490                __bss_start__ = .
 *(.bss*)
 .bss           0x20003490       0x1c c:/mesh/arm_gcc/bin/../lib/gcc/arm-none-eabi/6.3.1/thumb/v7e-m/fpv4-sp/hard/crtbegin.o
 .bss.m_device_provisioned
                0x200034ac        0x1 examples/light_switch/proxy_server/CMakeFiles/light_switch_proxy_server_nrf52840_xxAA_s140_6.0.0.dir/src/main.c.obj
 *fill*         0x200034ad        0x3 
 .bss.m_server  0x200034b0        0xc examples/light_switch/proxy_server/CMakeFiles/light_switch_proxy_server_nrf52840_xxAA_s140_6.0.0.dir/src/main.c.obj
 .bss.m_health_server
                0x200034bc       0x5c examples/light_switch/proxy_server/CMakeFiles/light_switch_proxy_server_nrf52840_xxAA_s140_6.0.0.dir/__/__/__/mesh/stack/src/mesh_stack.c.obj
 .bss.m_init_params
                0x20003518       0x24 examples/light_switch/proxy_server/CMakeFiles/light_switch_proxy_server_nrf52840_xxAA_s140_6.0.0.dir/__/__/__/mesh/stack/src/mesh_stack.c.obj
 .bss.m_device_provisioned
                0x2000353c        0x1 examples/light_switch/proxy_server/CMakeFiles/light_switch_proxy_server_nrf52840_xxAA_s140_6.0.0.dir/__/__/common/src/mesh_provisionee.c.obj
 .bss.m_doing_gatt_reset
                0x2000353d        0x1 examples/light_switch/proxy_server/CMakeFiles/light_switch_proxy_server_nrf52840_xxAA_s140_6.0.0.dir/__/__/common/src/mesh_provisionee.c.obj
 *fill*         0x2000353e        0x2 
 .bss.m_params  0x20003540        0xc examples/light_switch/proxy_server/CMakeFiles/light_switch_proxy_server_nrf52840_xxAA_s140_6.0.0.dir/__/__/common/src/mesh_provisionee.c.obj
 .bss.m_private_key
                0x2000354c       0x20 examples/light_switch/proxy_server/CMakeFiles/light_switch_proxy_server_nrf52840_xxAA_s140_6.0.0.dir/__/__/common/src/mesh_provisionee.c.obj
 .bss.m_prov_bearer_adv
                0x2000356c      0x1c4 examples/light_switch/proxy_server/CMakeFiles/light_switch_proxy_server_nrf52840_xxAA_s140_6.0.0.dir/__/__/common/src/mesh_provisionee.c.obj
 .bss.m_prov_bearer_gatt
                0x20003730       0x50 examples/light_switch/proxy_server/CMakeFiles/light_switch_proxy_server_nrf52840_xxAA_s140_6.0.0.dir/__/__/common/src/mesh_provisionee.c.obj
 .bss.m_prov_ctx
                0x20003780      0x134 examples/light_switch/proxy_server/CMakeFiles/light_switch_proxy_server_nrf52840_xxAA_s140_6.0.0.dir/__/__/common/src/mesh_provisionee.c.obj
 .bss.m_public_key
                0x200038b4       0x40 examples/light_switch/proxy_server/CMakeFiles/light_switch_proxy_server_nrf52840_xxAA_s140_6.0.0.dir/__/__/common/src/mesh_provisionee.c.obj
 .bss.m_rtt_input_handler
                0x200038f4        0x4 examples/light_switch/proxy_server/CMakeFiles/light_switch_proxy_server_nrf52840_xxAA_s140_6.0.0.dir/__/__/common/src/rtt_input.c.obj
 .bss.m_button_handler_cb
                0x200038f8        0x4 examples/light_switch/proxy_server/CMakeFiles/light_switch_proxy_server_nrf52840_xxAA_s140_6.0.0.dir/__/__/common/src/simple_hal.c.obj
 .bss.m_last_button_press
                0x200038fc        0x4 examples/light_switch/proxy_server/CMakeFiles/light_switch_proxy_server_nrf52840_xxAA_s140_6.0.0.dir/__/__/common/src/simple_hal.c.obj
 .bss.m_adv_set_index
                0x20003900        0x1 examples/light_switch/proxy_server/CMakeFiles/light_switch_proxy_server_nrf52840_xxAA_s140_6.0.0.dir/__/__/common/src/mesh_adv.c.obj
 .bss.m_advdata_raw
                0x20003901       0x3e examples/light_switch/proxy_server/CMakeFiles/light_switch_proxy_server_nrf52840_xxAA_s140_6.0.0.dir/__/__/common/src/mesh_adv.c.obj
 *fill*         0x2000393f        0x1 
 .bss.m_gap_adv_data
                0x20003940       0x10 examples/light_switch/proxy_server/CMakeFiles/light_switch_proxy_server_nrf52840_xxAA_s140_6.0.0.dir/__/__/common/src/mesh_adv.c.obj
 .bss.m_srdata_raw
                0x20003950       0x3e examples/light_switch/proxy_server/CMakeFiles/light_switch_proxy_server_nrf52840_xxAA_s140_6.0.0.dir/__/__/common/src/mesh_adv.c.obj
 *fill*         0x2000398e        0x2 
 .bss.m_evt_prov_link
                0x20003990        0xc examples/light_switch/proxy_server/CMakeFiles/light_switch_proxy_server_nrf52840_xxAA_s140_6.0.0.dir/__/__/__/mesh/prov/src/nrf_mesh_prov_bearer_gatt.c.obj
 .bss.m_nrf_sdh_continue
                0x2000399c        0x1 examples/light_switch/proxy_server/CMakeFiles/light_switch_proxy_server_nrf52840_xxAA_s140_6.0.0.dir/C_/ver/mod/nRF5_SDK_15.0.0_a53641a/components/softdevice/common/nrf_sdh.c.obj
 .bss.m_nrf_sdh_enabled
                0x2000399d        0x1 examples/light_switch/proxy_server/CMakeFiles/light_switch_proxy_server_nrf52840_xxAA_s140_6.0.0.dir/C_/ver/mod/nRF5_SDK_15.0.0_a53641a/components/softdevice/common/nrf_sdh.c.obj
 .bss.m_nrf_sdh_suspended
                0x2000399e        0x1 examples/light_switch/proxy_server/CMakeFiles/light_switch_proxy_server_nrf52840_xxAA_s140_6.0.0.dir/C_/ver/mod/nRF5_SDK_15.0.0_a53641a/components/softdevice/common/nrf_sdh.c.obj
 .bss.m_stack_is_enabled
                0x2000399f        0x1 examples/light_switch/proxy_server/CMakeFiles/light_switch_proxy_server_nrf52840_xxAA_s140_6.0.0.dir/C_/ver/mod/nRF5_SDK_15.0.0_a53641a/components/softdevice/common/nrf_sdh_ble.c.obj
 .bss.m_uuid    0x200039a0       0x10 examples/light_switch/proxy_server/CMakeFiles/light_switch_proxy_server_nrf52840_xxAA_s140_6.0.0.dir/__/__/__/mesh/core/src/nrf_mesh_configure.c.obj
 .bss.m_msg_cache
                0x200039b0      0x100 examples/light_switch/proxy_server/CMakeFiles/light_switch_proxy_server_nrf52840_xxAA_s140_6.0.0.dir/__/__/__/mesh/core/src/msg_cache.c.obj
 .bss.m_msg_cache_head
                0x20003ab0        0x4 examples/light_switch/proxy_server/CMakeFiles/light_switch_proxy_server_nrf52840_xxAA_s140_6.0.0.dir/__/__/__/mesh/core/src/msg_cache.c.obj
 .bss.m_control_packet_consumer_count
                0x20003ab4        0x4 examples/light_switch/proxy_server/CMakeFiles/light_switch_proxy_server_nrf52840_xxAA_s140_6.0.0.dir/__/__/__/mesh/core/src/transport.c.obj
 .bss.m_control_packet_consumers
                0x20003ab8        0x8 examples/light_switch/proxy_server/CMakeFiles/light_switch_proxy_server_nrf52840_xxAA_s140_6.0.0.dir/__/__/__/mesh/core/src/transport.c.obj
 .bss.m_sar_alloc
                0x20003ac0        0x4 examples/light_switch/proxy_server/CMakeFiles/light_switch_proxy_server_nrf52840_xxAA_s140_6.0.0.dir/__/__/__/mesh/core/src/transport.c.obj
 .bss.m_sar_process_flag
                0x20003ac4        0x4 examples/light_switch/proxy_server/CMakeFiles/light_switch_proxy_server_nrf52840_xxAA_s140_6.0.0.dir/__/__/__/mesh/core/src/transport.c.obj
 .bss.m_sar_release
                0x20003ac8        0x4 examples/light_switch/proxy_server/CMakeFiles/light_switch_proxy_server_nrf52840_xxAA_s140_6.0.0.dir/__/__/__/mesh/core/src/transport.c.obj
 .bss.m_sar_session_cache
                0x20003acc       0x40 examples/light_switch/proxy_server/CMakeFiles/light_switch_proxy_server_nrf52840_xxAA_s140_6.0.0.dir/__/__/__/mesh/core/src/transport.c.obj
 .bss.m_sar_session_cache_head
                0x20003b0c        0x4 examples/light_switch/proxy_server/CMakeFiles/light_switch_proxy_server_nrf52840_xxAA_s140_6.0.0.dir/__/__/__/mesh/core/src/transport.c.obj
 .bss.m_trs_config
                0x20003b10       0x18 examples/light_switch/proxy_server/CMakeFiles/light_switch_proxy_server_nrf52840_xxAA_s140_6.0.0.dir/__/__/__/mesh/core/src/transport.c.obj
 .bss.m_trs_sar_sessions
                0x20003b28      0x1b0 examples/light_switch/proxy_server/CMakeFiles/light_switch_proxy_server_nrf52840_xxAA_s140_6.0.0.dir/__/__/__/mesh/core/src/transport.c.obj
 .bss.mp_evt_handlers_head
                0x20003cd8        0x4 examples/light_switch/proxy_server/CMakeFiles/light_switch_proxy_server_nrf52840_xxAA_s140_6.0.0.dir/__/__/__/mesh/core/src/event.c.obj
 .bss.m_defrag  0x20003cdc       0x1c examples/light_switch/proxy_server/CMakeFiles/light_switch_proxy_server_nrf52840_xxAA_s140_6.0.0.dir/__/__/__/mesh/core/src/flash_manager_defrag.c.obj
 .bss.m_token   0x20003cf8        0x2 examples/light_switch/proxy_server/CMakeFiles/light_switch_proxy_server_nrf52840_xxAA_s140_6.0.0.dir/__/__/__/mesh/core/src/flash_manager_defrag.c.obj
 *fill*         0x20003cfa        0x2 
 .bss.mp_recovery_area
                0x20003cfc        0x4 examples/light_switch/proxy_server/CMakeFiles/light_switch_proxy_server_nrf52840_xxAA_s140_6.0.0.dir/__/__/__/mesh/core/src/flash_manager_defrag.c.obj
 .bss.p_null_ptr.10535
                0x20003d00        0x4 examples/light_switch/proxy_server/CMakeFiles/light_switch_proxy_server_nrf52840_xxAA_s140_6.0.0.dir/__/__/__/mesh/core/src/flash_manager_defrag.c.obj
 .bss.m_pool    0x20003d04     0x1000 examples/light_switch/proxy_server/CMakeFiles/light_switch_proxy_server_nrf52840_xxAA_s140_6.0.0.dir/__/__/__/mesh/core/src/packet_mgr.c.obj
 .bss.mp_free_head
                0x20004d04        0x4 examples/light_switch/proxy_server/CMakeFiles/light_switch_proxy_server_nrf52840_xxAA_s140_6.0.0.dir/__/__/__/mesh/core/src/packet_mgr.c.obj
 .bss.iv_state_set.10190
                0x20004d08        0x1 examples/light_switch/proxy_server/CMakeFiles/light_switch_proxy_server_nrf52840_xxAA_s140_6.0.0.dir/__/__/__/mesh/core/src/net_state.c.obj
 *fill*         0x20004d09        0x3 
 .bss.lock_count.10166
                0x20004d0c        0x4 examples/light_switch/proxy_server/CMakeFiles/light_switch_proxy_server_nrf52840_xxAA_s140_6.0.0.dir/__/__/__/mesh/core/src/net_state.c.obj
 .bss.m_flash_manager
                0x20004d10       0x24 examples/light_switch/proxy_server/CMakeFiles/light_switch_proxy_server_nrf52840_xxAA_s140_6.0.0.dir/__/__/__/mesh/core/src/net_state.c.obj
 .bss.m_iv_update_timer
                0x20004d34       0x18 examples/light_switch/proxy_server/CMakeFiles/light_switch_proxy_server_nrf52840_xxAA_s140_6.0.0.dir/__/__/__/mesh/core/src/net_state.c.obj
 .bss.m_mesh_evt_handler
                0x20004d4c        0x8 examples/light_switch/proxy_server/CMakeFiles/light_switch_proxy_server_nrf52840_xxAA_s140_6.0.0.dir/__/__/__/mesh/core/src/net_state.c.obj
 .bss.m_net_state
                0x20004d54       0x14 examples/light_switch/proxy_server/CMakeFiles/light_switch_proxy_server_nrf52840_xxAA_s140_6.0.0.dir/__/__/__/mesh/core/src/net_state.c.obj
 .bss.m_seqnum_allocation_in_progress
                0x20004d68        0x1 examples/light_switch/proxy_server/CMakeFiles/light_switch_proxy_server_nrf52840_xxAA_s140_6.0.0.dir/__/__/__/mesh/core/src/net_state.c.obj
 .bss.m_test_mode
                0x20004d69        0x1 examples/light_switch/proxy_server/CMakeFiles/light_switch_proxy_server_nrf52840_xxAA_s140_6.0.0.dir/__/__/__/mesh/core/src/net_state.c.obj
 *fill*         0x20004d6a        0x2 
 .bss.m_event_flag
                0x20004d6c        0x4 examples/light_switch/proxy_server/CMakeFiles/light_switch_proxy_server_nrf52840_xxAA_s140_6.0.0.dir/__/__/__/mesh/core/src/mesh_flash.c.obj
 .bss.m_suspended
                0x20004d70        0x1 examples/light_switch/proxy_server/CMakeFiles/light_switch_proxy_server_nrf52840_xxAA_s140_6.0.0.dir/__/__/__/mesh/core/src/mesh_flash.c.obj
 *fill*         0x20004d71        0x3 
 .bss.m_users   0x20004d74      0x228 examples/light_switch/proxy_server/CMakeFiles/light_switch_proxy_server_nrf52840_xxAA_s140_6.0.0.dir/__/__/__/mesh/core/src/mesh_flash.c.obj
 .bss.m_is_enabled
                0x20004f9c        0x1 examples/light_switch/proxy_server/CMakeFiles/light_switch_proxy_server_nrf52840_xxAA_s140_6.0.0.dir/__/__/__/mesh/core/src/nrf_mesh.c.obj
 .bss.m_is_initialized
                0x20004f9d        0x1 examples/light_switch/proxy_server/CMakeFiles/light_switch_proxy_server_nrf52840_xxAA_s140_6.0.0.dir/__/__/__/mesh/core/src/nrf_mesh.c.obj
 *fill*         0x20004f9e        0x2 
 .bss.m_rx_cb   0x20004fa0        0x4 examples/light_switch/proxy_server/CMakeFiles/light_switch_proxy_server_nrf52840_xxAA_s140_6.0.0.dir/__/__/__/mesh/core/src/nrf_mesh.c.obj
 .bss.m_128buf  0x20004fa4       0x10 examples/light_switch/proxy_server/CMakeFiles/light_switch_proxy_server_nrf52840_xxAA_s140_6.0.0.dir/__/__/__/mesh/core/src/aes_cmac.c.obj
 .bss.m_subkey1
                0x20004fb4       0x10 examples/light_switch/proxy_server/CMakeFiles/light_switch_proxy_server_nrf52840_xxAA_s140_6.0.0.dir/__/__/__/mesh/core/src/aes_cmac.c.obj
 .bss.m_subkey2
                0x20004fc4       0x10 examples/light_switch/proxy_server/CMakeFiles/light_switch_proxy_server_nrf52840_xxAA_s140_6.0.0.dir/__/__/__/mesh/core/src/aes_cmac.c.obj
 .bss.m_event_flag
                0x20004fd4        0x4 examples/light_switch/proxy_server/CMakeFiles/light_switch_proxy_server_nrf52840_xxAA_s140_6.0.0.dir/__/__/__/mesh/core/src/timer_scheduler.c.obj
 .bss.m_scheduler
                0x20004fd8       0x10 examples/light_switch/proxy_server/CMakeFiles/light_switch_proxy_server_nrf52840_xxAA_s140_6.0.0.dir/__/__/__/mesh/core/src/timer_scheduler.c.obj
 .bss.m_attributes
                0x20004fe8        0x3 examples/light_switch/proxy_server/CMakeFiles/light_switch_proxy_server_nrf52840_xxAA_s140_6.0.0.dir/__/__/__/mesh/core/src/timer.c.obj
 *fill*         0x20004feb        0x1 
 .bss.m_callbacks
                0x20004fec        0xc examples/light_switch/proxy_server/CMakeFiles/light_switch_proxy_server_nrf52840_xxAA_s140_6.0.0.dir/__/__/__/mesh/core/src/timer.c.obj
 .bss.m_is_in_ts
                0x20004ff8        0x1 examples/light_switch/proxy_server/CMakeFiles/light_switch_proxy_server_nrf52840_xxAA_s140_6.0.0.dir/__/__/__/mesh/core/src/timer.c.obj
 *fill*         0x20004ff9        0x3 
 .bss.m_reference_time
                0x20004ffc        0x4 examples/light_switch/proxy_server/CMakeFiles/light_switch_proxy_server_nrf52840_xxAA_s140_6.0.0.dir/__/__/__/mesh/core/src/timer.c.obj
 .bss.m_timeouts
                0x20005000        0xc examples/light_switch/proxy_server/CMakeFiles/light_switch_proxy_server_nrf52840_xxAA_s140_6.0.0.dir/__/__/__/mesh/core/src/timer.c.obj
 .bss.m_timer_mut
                0x2000500c        0x4 examples/light_switch/proxy_server/CMakeFiles/light_switch_proxy_server_nrf52840_xxAA_s140_6.0.0.dir/__/__/__/mesh/core/src/timer.c.obj
 .bss.m_ts_end_time
                0x20005010        0x4 examples/light_switch/proxy_server/CMakeFiles/light_switch_proxy_server_nrf52840_xxAA_s140_6.0.0.dir/__/__/__/mesh/core/src/timer.c.obj
 .bss.mp_ppi_tasks
                0x20005014        0xc examples/light_switch/proxy_server/CMakeFiles/light_switch_proxy_server_nrf52840_xxAA_s140_6.0.0.dir/__/__/__/mesh/core/src/timer.c.obj
 .bss.m_current_time
                0x20005020        0x4 examples/light_switch/proxy_server/CMakeFiles/light_switch_proxy_server_nrf52840_xxAA_s140_6.0.0.dir/__/__/__/mesh/core/src/ticker.c.obj
 .bss.m_timer   0x20005024       0x18 examples/light_switch/proxy_server/CMakeFiles/light_switch_proxy_server_nrf52840_xxAA_s140_6.0.0.dir/__/__/__/mesh/core/src/ticker.c.obj
 .bss.m_current_timeslot
                0x2000503c       0x1c examples/light_switch/proxy_server/CMakeFiles/light_switch_proxy_server_nrf52840_xxAA_s140_6.0.0.dir/__/__/__/mesh/core/src/timeslot.c.obj
 .bss.m_lfclk_ppm
                0x20005058        0x4 examples/light_switch/proxy_server/CMakeFiles/light_switch_proxy_server_nrf52840_xxAA_s140_6.0.0.dir/__/__/__/mesh/core/src/timeslot.c.obj
 .bss.m_radio_request_earliest
                0x2000505c       0x10 examples/light_switch/proxy_server/CMakeFiles/light_switch_proxy_server_nrf52840_xxAA_s140_6.0.0.dir/__/__/__/mesh/core/src/timeslot.c.obj
 .bss.m_state_lock
                0x2000506c        0x1 examples/light_switch/proxy_server/CMakeFiles/light_switch_proxy_server_nrf52840_xxAA_s140_6.0.0.dir/__/__/__/mesh/core/src/timeslot.c.obj
 .bss.m_timeslot_forced_command
                0x2000506d        0x1 examples/light_switch/proxy_server/CMakeFiles/light_switch_proxy_server_nrf52840_xxAA_s140_6.0.0.dir/__/__/__/mesh/core/src/timeslot.c.obj
 *fill*         0x2000506e        0x2 
 .bss.s_last_rtc_value.9593
                0x20005070        0x8 examples/light_switch/proxy_server/CMakeFiles/light_switch_proxy_server_nrf52840_xxAA_s140_6.0.0.dir/__/__/__/mesh/core/src/timeslot.c.obj
 .bss.m_bearer_event_fifo
                0x20005078       0x14 examples/light_switch/proxy_server/CMakeFiles/light_switch_proxy_server_nrf52840_xxAA_s140_6.0.0.dir/__/__/__/mesh/core/src/bearer_event.c.obj
 .bss.m_bearer_event_fifo_buffer
                0x2000508c      0x100 examples/light_switch/proxy_server/CMakeFiles/light_switch_proxy_server_nrf52840_xxAA_s140_6.0.0.dir/__/__/__/mesh/core/src/bearer_event.c.obj
 .bss.m_critical
                0x2000518c        0x4 examples/light_switch/proxy_server/CMakeFiles/light_switch_proxy_server_nrf52840_xxAA_s140_6.0.0.dir/__/__/__/mesh/core/src/bearer_event.c.obj
 .bss.m_flag_count
                0x20005190        0x4 examples/light_switch/proxy_server/CMakeFiles/light_switch_proxy_server_nrf52840_xxAA_s140_6.0.0.dir/__/__/__/mesh/core/src/bearer_event.c.obj
 .bss.m_flag_event_callbacks
                0x20005194       0x20 examples/light_switch/proxy_server/CMakeFiles/light_switch_proxy_server_nrf52840_xxAA_s140_6.0.0.dir/__/__/__/mesh/core/src/bearer_event.c.obj
 .bss.m_flags   0x200051b4        0x4 examples/light_switch/proxy_server/CMakeFiles/light_switch_proxy_server_nrf52840_xxAA_s140_6.0.0.dir/__/__/__/mesh/core/src/bearer_event.c.obj
 .bss.m_irq_priority
                0x200051b8        0x1 examples/light_switch/proxy_server/CMakeFiles/light_switch_proxy_server_nrf52840_xxAA_s140_6.0.0.dir/__/__/__/mesh/core/src/bearer_event.c.obj
 *fill*         0x200051b9        0x3 
 .bss.m_sequential_event_queue
                0x200051bc        0x8 examples/light_switch/proxy_server/CMakeFiles/light_switch_proxy_server_nrf52840_xxAA_s140_6.0.0.dir/__/__/__/mesh/core/src/bearer_event.c.obj
 .bss.s_recursion_guard.9724
                0x200051c4        0x1 examples/light_switch/proxy_server/CMakeFiles/light_switch_proxy_server_nrf52840_xxAA_s140_6.0.0.dir/__/__/__/mesh/core/src/bearer_event.c.obj
 *fill*         0x200051c5        0x3 
 .bss.m_relay_check_cb
                0x200051c8        0x4 examples/light_switch/proxy_server/CMakeFiles/light_switch_proxy_server_nrf52840_xxAA_s140_6.0.0.dir/__/__/__/mesh/core/src/network.c.obj
 .bss.m_relay_enable
                0x200051cc        0x1 examples/light_switch/proxy_server/CMakeFiles/light_switch_proxy_server_nrf52840_xxAA_s140_6.0.0.dir/__/__/__/mesh/core/src/network.c.obj
 *fill*         0x200051cd        0x3 
 .bss.m_action_queue
                0x200051d0        0xc examples/light_switch/proxy_server/CMakeFiles/light_switch_proxy_server_nrf52840_xxAA_s140_6.0.0.dir/__/__/__/mesh/core/src/flash_manager.c.obj
 .bss.m_action_queue_buffer
                0x200051dc      0x104 examples/light_switch/proxy_server/CMakeFiles/light_switch_proxy_server_nrf52840_xxAA_s140_6.0.0.dir/__/__/__/mesh/core/src/flash_manager.c.obj
 .bss.m_action_state
                0x200052e0        0x1 examples/light_switch/proxy_server/CMakeFiles/light_switch_proxy_server_nrf52840_xxAA_s140_6.0.0.dir/__/__/__/mesh/core/src/flash_manager.c.obj
 *fill*         0x200052e1        0x3 
 .bss.m_memory_listener_queue
                0x200052e4        0x8 examples/light_switch/proxy_server/CMakeFiles/light_switch_proxy_server_nrf52840_xxAA_s140_6.0.0.dir/__/__/__/mesh/core/src/flash_manager.c.obj
 .bss.m_processing_flag
                0x200052ec        0x4 examples/light_switch/proxy_server/CMakeFiles/light_switch_proxy_server_nrf52840_xxAA_s140_6.0.0.dir/__/__/__/mesh/core/src/flash_manager.c.obj
 .bss.m_queue_empty_cb
                0x200052f0        0x4 examples/light_switch/proxy_server/CMakeFiles/light_switch_proxy_server_nrf52840_xxAA_s140_6.0.0.dir/__/__/__/mesh/core/src/flash_manager.c.obj
 .bss.m_state   0x200052f4        0x1 examples/light_switch/proxy_server/CMakeFiles/light_switch_proxy_server_nrf52840_xxAA_s140_6.0.0.dir/__/__/__/mesh/core/src/flash_manager.c.obj
 *fill*         0x200052f5        0x1 
 .bss.m_token   0x200052f6        0x2 examples/light_switch/proxy_server/CMakeFiles/light_switch_proxy_server_nrf52840_xxAA_s140_6.0.0.dir/__/__/__/mesh/core/src/flash_manager.c.obj
 .bss.p_current.11443
                0x200052f8        0x4 examples/light_switch/proxy_server/CMakeFiles/light_switch_proxy_server_nrf52840_xxAA_s140_6.0.0.dir/__/__/__/mesh/core/src/flash_manager.c.obj
 .bss.result.11444
                0x200052fc        0x1 examples/light_switch/proxy_server/CMakeFiles/light_switch_proxy_server_nrf52840_xxAA_s140_6.0.0.dir/__/__/__/mesh/core/src/flash_manager.c.obj
 .bss.m_cache_index
                0x200052fd        0x1 examples/light_switch/proxy_server/CMakeFiles/light_switch_proxy_server_nrf52840_xxAA_s140_6.0.0.dir/__/__/__/mesh/core/src/replay_cache.c.obj
 *fill*         0x200052fe        0x2 
 .bss.m_replay_cache
                0x20005300      0x200 examples/light_switch/proxy_server/CMakeFiles/light_switch_proxy_server_nrf52840_xxAA_s140_6.0.0.dir/__/__/__/mesh/core/src/replay_cache.c.obj
 .bss.m_bearer_count
                0x20005500        0x1 examples/light_switch/proxy_server/CMakeFiles/light_switch_proxy_server_nrf52840_xxAA_s140_6.0.0.dir/__/__/__/mesh/core/src/core_tx.c.obj
 *fill*         0x20005501        0x3 
 .bss.m_tx_complete_callback
                0x20005504        0x4 examples/light_switch/proxy_server/CMakeFiles/light_switch_proxy_server_nrf52840_xxAA_s140_6.0.0.dir/__/__/__/mesh/core/src/core_tx.c.obj
 .bss.mp_bearers
                0x20005508        0x4 examples/light_switch/proxy_server/CMakeFiles/light_switch_proxy_server_nrf52840_xxAA_s140_6.0.0.dir/__/__/__/mesh/core/src/core_tx.c.obj
 .bss.m_hb_core_evt_handler
                0x2000550c        0x8 examples/light_switch/proxy_server/CMakeFiles/light_switch_proxy_server_nrf52840_xxAA_s140_6.0.0.dir/__/__/__/mesh/core/src/heartbeat.c.obj
 .bss.m_hb_pending_feat_msg
                0x20005514        0x1 examples/light_switch/proxy_server/CMakeFiles/light_switch_proxy_server_nrf52840_xxAA_s140_6.0.0.dir/__/__/__/mesh/core/src/heartbeat.c.obj
 .bss.m_hb_pending_pub_msg
                0x20005515        0x1 examples/light_switch/proxy_server/CMakeFiles/light_switch_proxy_server_nrf52840_xxAA_s140_6.0.0.dir/__/__/__/mesh/core/src/heartbeat.c.obj
 .bss.m_heartbeat_init_done
                0x20005516        0x1 examples/light_switch/proxy_server/CMakeFiles/light_switch_proxy_server_nrf52840_xxAA_s140_6.0.0.dir/__/__/__/mesh/core/src/heartbeat.c.obj
 *fill*         0x20005517        0x1 
 .bss.m_heartbeat_subscription
                0x20005518       0x10 examples/light_switch/proxy_server/CMakeFiles/light_switch_proxy_server_nrf52840_xxAA_s140_6.0.0.dir/__/__/__/mesh/core/src/heartbeat.c.obj
 .bss.m_publication_count_decrement_cb
                0x20005528        0x4 examples/light_switch/proxy_server/CMakeFiles/light_switch_proxy_server_nrf52840_xxAA_s140_6.0.0.dir/__/__/__/mesh/core/src/heartbeat.c.obj
 .bss.m_publication_get_cb
                0x2000552c        0x4 examples/light_switch/proxy_server/CMakeFiles/light_switch_proxy_server_nrf52840_xxAA_s140_6.0.0.dir/__/__/__/mesh/core/src/heartbeat.c.obj
 .bss.m_publication_timer
                0x20005530       0x1c examples/light_switch/proxy_server/CMakeFiles/light_switch_proxy_server_nrf52840_xxAA_s140_6.0.0.dir/__/__/__/mesh/core/src/heartbeat.c.obj
 .bss.m_subscription_timer
                0x2000554c       0x18 examples/light_switch/proxy_server/CMakeFiles/light_switch_proxy_server_nrf52840_xxAA_s140_6.0.0.dir/__/__/__/mesh/core/src/heartbeat.c.obj
 .bss.m_adv     0x20005564       0x98 examples/light_switch/proxy_server/CMakeFiles/light_switch_proxy_server_nrf52840_xxAA_s140_6.0.0.dir/__/__/__/mesh/core/src/net_beacon.c.obj
 .bss.m_adv_buf
                0x200055fc       0x34 examples/light_switch/proxy_server/CMakeFiles/light_switch_proxy_server_nrf52840_xxAA_s140_6.0.0.dir/__/__/__/mesh/core/src/net_beacon.c.obj
 .bss.m_beacon_salt
                0x20005630       0x10 examples/light_switch/proxy_server/CMakeFiles/light_switch_proxy_server_nrf52840_xxAA_s140_6.0.0.dir/__/__/__/mesh/core/src/net_beacon.c.obj
 .bss.m_enabled
                0x20005640        0x1 examples/light_switch/proxy_server/CMakeFiles/light_switch_proxy_server_nrf52840_xxAA_s140_6.0.0.dir/__/__/__/mesh/core/src/net_beacon.c.obj
 *fill*         0x20005641        0x3 
 .bss.m_tx_timer
                0x20005644       0x18 examples/light_switch/proxy_server/CMakeFiles/light_switch_proxy_server_nrf52840_xxAA_s140_6.0.0.dir/__/__/__/mesh/core/src/net_beacon.c.obj
 .bss.mp_beacon_info
                0x2000565c        0x4 examples/light_switch/proxy_server/CMakeFiles/light_switch_proxy_server_nrf52840_xxAA_s140_6.0.0.dir/__/__/__/mesh/core/src/net_beacon.c.obj
 .bss.m_bearer  0x20005660        0xc examples/light_switch/proxy_server/CMakeFiles/light_switch_proxy_server_nrf52840_xxAA_s140_6.0.0.dir/__/__/__/mesh/core/src/core_tx_adv.c.obj
 .bss.m_bearer_roles
                0x2000566c      0x138 examples/light_switch/proxy_server/CMakeFiles/light_switch_proxy_server_nrf52840_xxAA_s140_6.0.0.dir/__/__/__/mesh/core/src/core_tx_adv.c.obj
 .bss.m_current_alloc
                0x200057a4        0x8 examples/light_switch/proxy_server/CMakeFiles/light_switch_proxy_server_nrf52840_xxAA_s140_6.0.0.dir/__/__/__/mesh/core/src/core_tx_adv.c.obj
 .bss.m_originator_adv_packet_buffer
                0x200057ac      0x100 examples/light_switch/proxy_server/CMakeFiles/light_switch_proxy_server_nrf52840_xxAA_s140_6.0.0.dir/__/__/__/mesh/core/src/core_tx_adv.c.obj
 .bss.m_relay_adv_packet_buffer
                0x200058ac       0x80 examples/light_switch/proxy_server/CMakeFiles/light_switch_proxy_server_nrf52840_xxAA_s140_6.0.0.dir/__/__/__/mesh/core/src/core_tx_adv.c.obj
 .bss.m_subscribers
                0x2000592c        0x4 examples/light_switch/proxy_server/CMakeFiles/light_switch_proxy_server_nrf52840_xxAA_s140_6.0.0.dir/__/__/__/mesh/bearer/src/ad_listener.c.obj
 .bss.m_adtype_filter
                0x20005930       0x38 examples/light_switch/proxy_server/CMakeFiles/light_switch_proxy_server_nrf52840_xxAA_s140_6.0.0.dir/__/__/__/mesh/bearer/src/ad_type_filter.c.obj
 .bss.m_adv_prng
                0x20005968       0x10 examples/light_switch/proxy_server/CMakeFiles/light_switch_proxy_server_nrf52840_xxAA_s140_6.0.0.dir/__/__/__/mesh/bearer/src/advertiser.c.obj
 .bss.m_action_queue
                0x20005978        0x8 examples/light_switch/proxy_server/CMakeFiles/light_switch_proxy_server_nrf52840_xxAA_s140_6.0.0.dir/__/__/__/mesh/bearer/src/bearer_handler.c.obj
 .bss.m_end_time
                0x20005980        0x4 examples/light_switch/proxy_server/CMakeFiles/light_switch_proxy_server_nrf52840_xxAA_s140_6.0.0.dir/__/__/__/mesh/bearer/src/bearer_handler.c.obj
 .bss.m_scanner_is_active
                0x20005984        0x1 examples/light_switch/proxy_server/CMakeFiles/light_switch_proxy_server_nrf52840_xxAA_s140_6.0.0.dir/__/__/__/mesh/bearer/src/bearer_handler.c.obj
 .bss.m_stopped
                0x20005985        0x1 examples/light_switch/proxy_server/CMakeFiles/light_switch_proxy_server_nrf52840_xxAA_s140_6.0.0.dir/__/__/__/mesh/bearer/src/bearer_handler.c.obj
 *fill*         0x20005986        0x2 
 .bss.mp_action
                0x20005988        0x4 examples/light_switch/proxy_server/CMakeFiles/light_switch_proxy_server_nrf52840_xxAA_s140_6.0.0.dir/__/__/__/mesh/bearer/src/bearer_handler.c.obj
 .bss.m_next_channel_index
                0x2000598c        0x1 examples/light_switch/proxy_server/CMakeFiles/light_switch_proxy_server_nrf52840_xxAA_s140_6.0.0.dir/__/__/__/mesh/bearer/src/broadcast.c.obj
 *fill*         0x2000598d        0x3 
 .bss.m_accepted_amount
                0x20005990        0x4 examples/light_switch/proxy_server/CMakeFiles/light_switch_proxy_server_nrf52840_xxAA_s140_6.0.0.dir/__/__/__/mesh/bearer/src/filter_engine.c.obj
 .bss.m_filter_list_head
                0x20005994        0x4 examples/light_switch/proxy_server/CMakeFiles/light_switch_proxy_server_nrf52840_xxAA_s140_6.0.0.dir/__/__/__/mesh/bearer/src/filter_engine.c.obj
 .bss.m_scanner
                0x20005998      0x290 examples/light_switch/proxy_server/CMakeFiles/light_switch_proxy_server_nrf52840_xxAA_s140_6.0.0.dir/__/__/__/mesh/bearer/src/scanner.c.obj
 .bss.m_gatt    0x20005c28      0x16c examples/light_switch/proxy_server/CMakeFiles/light_switch_proxy_server_nrf52840_xxAA_s140_6.0.0.dir/__/__/__/mesh/gatt/src/mesh_gatt.c.obj
 .bss.m_advertising
                0x20005d94       0x24 examples/light_switch/proxy_server/CMakeFiles/light_switch_proxy_server_nrf52840_xxAA_s140_6.0.0.dir/__/__/__/mesh/gatt/src/proxy.c.obj
 .bss.m_beacon_cache
                0x20005db8       0x1c examples/light_switch/proxy_server/CMakeFiles/light_switch_proxy_server_nrf52840_xxAA_s140_6.0.0.dir/__/__/__/mesh/gatt/src/proxy.c.obj
 .bss.m_beacon_cache_entries
                0x20005dd4       0x40 examples/light_switch/proxy_server/CMakeFiles/light_switch_proxy_server_nrf52840_xxAA_s140_6.0.0.dir/__/__/__/mesh/gatt/src/proxy.c.obj
 .bss.m_connections
                0x20005e14       0x5c examples/light_switch/proxy_server/CMakeFiles/light_switch_proxy_server_nrf52840_xxAA_s140_6.0.0.dir/__/__/__/mesh/gatt/src/proxy.c.obj
 .bss.m_enabled
                0x20005e70        0x1 examples/light_switch/proxy_server/CMakeFiles/light_switch_proxy_server_nrf52840_xxAA_s140_6.0.0.dir/__/__/__/mesh/gatt/src/proxy.c.obj
 *fill*         0x20005e71        0x3 
 .bss.m_mesh_evt_handler
                0x20005e74        0x8 examples/light_switch/proxy_server/CMakeFiles/light_switch_proxy_server_nrf52840_xxAA_s140_6.0.0.dir/__/__/__/mesh/gatt/src/proxy.c.obj
 .bss.m_evt_cb  0x20005e7c        0x4 examples/light_switch/proxy_server/CMakeFiles/light_switch_proxy_server_nrf52840_xxAA_s140_6.0.0.dir/__/__/__/models/config/src/config_server.c.obj
 .bss.m_heartbeat_publication
                0x20005e80       0x14 examples/light_switch/proxy_server/CMakeFiles/light_switch_proxy_server_nrf52840_xxAA_s140_6.0.0.dir/__/__/__/models/config/src/config_server.c.obj
 .bss.m_node_reset_pending
                0x20005e94        0x1 examples/light_switch/proxy_server/CMakeFiles/light_switch_proxy_server_nrf52840_xxAA_s140_6.0.0.dir/__/__/__/models/config/src/config_server.c.obj
 *fill*         0x20005e95        0x3 
 .bss.m_attention_timer
                0x20005e98       0x18 examples/light_switch/proxy_server/CMakeFiles/light_switch_proxy_server_nrf52840_xxAA_s140_6.0.0.dir/__/__/__/models/health/src/health_server.c.obj
 .bss.mp_attention_list
                0x20005eb0        0x4 examples/light_switch/proxy_server/CMakeFiles/light_switch_proxy_server_nrf52840_xxAA_s140_6.0.0.dir/__/__/__/models/health/src/health_server.c.obj
 .bss.m_publish_timer
                0x20005eb4       0x18 examples/light_switch/proxy_server/CMakeFiles/light_switch_proxy_server_nrf52840_xxAA_s140_6.0.0.dir/__/__/__/mesh/access/src/access_publish.c.obj
 .bss.m_publish_timer_counter
                0x20005ecc        0x4 examples/light_switch/proxy_server/CMakeFiles/light_switch_proxy_server_nrf52840_xxAA_s140_6.0.0.dir/__/__/__/mesh/access/src/access_publish.c.obj
 .bss.m_publish_timer_running
                0x20005ed0        0x1 examples/light_switch/proxy_server/CMakeFiles/light_switch_proxy_server_nrf52840_xxAA_s140_6.0.0.dir/__/__/__/mesh/access/src/access_publish.c.obj
 .bss.m_timer_resolution
                0x20005ed1        0x1 examples/light_switch/proxy_server/CMakeFiles/light_switch_proxy_server_nrf52840_xxAA_s140_6.0.0.dir/__/__/__/mesh/access/src/access_publish.c.obj
 *fill*         0x20005ed2        0x2 
 .bss.mp_publication_list
                0x20005ed4        0x4 examples/light_switch/proxy_server/CMakeFiles/light_switch_proxy_server_nrf52840_xxAA_s140_6.0.0.dir/__/__/__/mesh/access/src/access_publish.c.obj
 .bss.m_element_pool
                0x20005ed8        0x6 examples/light_switch/proxy_server/CMakeFiles/light_switch_proxy_server_nrf52840_xxAA_s140_6.0.0.dir/__/__/__/mesh/access/src/access.c.obj
 *fill*         0x20005ede        0x2 
 .bss.m_evt_handler
                0x20005ee0        0x8 examples/light_switch/proxy_server/CMakeFiles/light_switch_proxy_server_nrf52840_xxAA_s140_6.0.0.dir/__/__/__/mesh/access/src/access.c.obj
 .bss.m_flash_manager
                0x20005ee8       0x24 examples/light_switch/proxy_server/CMakeFiles/light_switch_proxy_server_nrf52840_xxAA_s140_6.0.0.dir/__/__/__/mesh/access/src/access.c.obj
 .bss.m_flash_not_ready
                0x20005f0c        0x1 examples/light_switch/proxy_server/CMakeFiles/light_switch_proxy_server_nrf52840_xxAA_s140_6.0.0.dir/__/__/__/mesh/access/src/access.c.obj
 .bss.m_metadata_stored
                0x20005f0d        0x1 examples/light_switch/proxy_server/CMakeFiles/light_switch_proxy_server_nrf52840_xxAA_s140_6.0.0.dir/__/__/__/mesh/access/src/access.c.obj
 *fill*         0x20005f0e        0x2 
 .bss.m_model_pool
                0x20005f10       0x9c examples/light_switch/proxy_server/CMakeFiles/light_switch_proxy_server_nrf52840_xxAA_s140_6.0.0.dir/__/__/__/mesh/access/src/access.c.obj
 .bss.m_subscription_list_pool
                0x20005fac        0x8 examples/light_switch/proxy_server/CMakeFiles/light_switch_proxy_server_nrf52840_xxAA_s140_6.0.0.dir/__/__/__/mesh/access/src/access.c.obj
 .bss.m_reliable
                0x20005fb4       0xa0 examples/light_switch/proxy_server/CMakeFiles/light_switch_proxy_server_nrf52840_xxAA_s140_6.0.0.dir/__/__/__/mesh/access/src/access_reliable.c.obj
 .bss.m_addr_nonvirtual_allocated
                0x20006054        0x4 examples/light_switch/proxy_server/CMakeFiles/light_switch_proxy_server_nrf52840_xxAA_s140_6.0.0.dir/__/__/__/mesh/access/src/device_state_manager.c.obj
 .bss.m_addr_nonvirtual_needs_flashing
                0x20006058        0x4 examples/light_switch/proxy_server/CMakeFiles/light_switch_proxy_server_nrf52840_xxAA_s140_6.0.0.dir/__/__/__/mesh/access/src/device_state_manager.c.obj
 .bss.m_addr_unicast_allocated
                0x2000605c        0x4 examples/light_switch/proxy_server/CMakeFiles/light_switch_proxy_server_nrf52840_xxAA_s140_6.0.0.dir/__/__/__/mesh/access/src/device_state_manager.c.obj
 .bss.m_addr_unicast_needs_flashing
                0x20006060        0x4 examples/light_switch/proxy_server/CMakeFiles/light_switch_proxy_server_nrf52840_xxAA_s140_6.0.0.dir/__/__/__/mesh/access/src/device_state_manager.c.obj
 .bss.m_addr_virtual_allocated
                0x20006064        0x4 examples/light_switch/proxy_server/CMakeFiles/light_switch_proxy_server_nrf52840_xxAA_s140_6.0.0.dir/__/__/__/mesh/access/src/device_state_manager.c.obj
 .bss.m_addr_virtual_needs_flashing
                0x20006068        0x4 examples/light_switch/proxy_server/CMakeFiles/light_switch_proxy_server_nrf52840_xxAA_s140_6.0.0.dir/__/__/__/mesh/access/src/device_state_manager.c.obj
 .bss.m_addresses
                0x2000606c       0x20 examples/light_switch/proxy_server/CMakeFiles/light_switch_proxy_server_nrf52840_xxAA_s140_6.0.0.dir/__/__/__/mesh/access/src/device_state_manager.c.obj
 .bss.m_appkey_allocated
                0x2000608c        0x4 examples/light_switch/proxy_server/CMakeFiles/light_switch_proxy_server_nrf52840_xxAA_s140_6.0.0.dir/__/__/__/mesh/access/src/device_state_manager.c.obj
 .bss.m_appkey_needs_flashing
                0x20006090        0x4 examples/light_switch/proxy_server/CMakeFiles/light_switch_proxy_server_nrf52840_xxAA_s140_6.0.0.dir/__/__/__/mesh/access/src/device_state_manager.c.obj
 .bss.m_appkeys
                0x20006094      0x150 examples/light_switch/proxy_server/CMakeFiles/light_switch_proxy_server_nrf52840_xxAA_s140_6.0.0.dir/__/__/__/mesh/access/src/device_state_manager.c.obj
 .bss.m_devkey_allocated
                0x200061e4        0x4 examples/light_switch/proxy_server/CMakeFiles/light_switch_proxy_server_nrf52840_xxAA_s140_6.0.0.dir/__/__/__/mesh/access/src/device_state_manager.c.obj
 .bss.m_devkey_needs_flashing
                0x200061e8        0x4 examples/light_switch/proxy_server/CMakeFiles/light_switch_proxy_server_nrf52840_xxAA_s140_6.0.0.dir/__/__/__/mesh/access/src/device_state_manager.c.obj
 .bss.m_devkeys
                0x200061ec       0x16 examples/light_switch/proxy_server/CMakeFiles/light_switch_proxy_server_nrf52840_xxAA_s140_6.0.0.dir/__/__/__/mesh/access/src/device_state_manager.c.obj
 .bss.m_flash_is_available
                0x20006202        0x1 examples/light_switch/proxy_server/CMakeFiles/light_switch_proxy_server_nrf52840_xxAA_s140_6.0.0.dir/__/__/__/mesh/access/src/device_state_manager.c.obj
 *fill*         0x20006203        0x1 
 .bss.m_flash_manager
                0x20006204       0x24 examples/light_switch/proxy_server/CMakeFiles/light_switch_proxy_server_nrf52840_xxAA_s140_6.0.0.dir/__/__/__/mesh/access/src/device_state_manager.c.obj
 .bss.m_flash_mem_listener_update_all
                0x20006228       0x10 examples/light_switch/proxy_server/CMakeFiles/light_switch_proxy_server_nrf52840_xxAA_s140_6.0.0.dir/__/__/__/mesh/access/src/device_state_manager.c.obj
 .bss.m_has_primary_subnet
                0x20006238        0x1 examples/light_switch/proxy_server/CMakeFiles/light_switch_proxy_server_nrf52840_xxAA_s140_6.0.0.dir/__/__/__/mesh/access/src/device_state_manager.c.obj
 *fill*         0x20006239        0x1 
 .bss.m_local_unicast_addr
                0x2000623a        0x4 examples/light_switch/proxy_server/CMakeFiles/light_switch_proxy_server_nrf52840_xxAA_s140_6.0.0.dir/__/__/__/mesh/access/src/device_state_manager.c.obj
 *fill*         0x2000623e        0x2 
 .bss.m_mesh_evt_handler
                0x20006240        0x8 examples/light_switch/proxy_server/CMakeFiles/light_switch_proxy_server_nrf52840_xxAA_s140_6.0.0.dir/__/__/__/mesh/access/src/device_state_manager.c.obj
 .bss.m_subnet_allocated
                0x20006248        0x4 examples/light_switch/proxy_server/CMakeFiles/light_switch_proxy_server_nrf52840_xxAA_s140_6.0.0.dir/__/__/__/mesh/access/src/device_state_manager.c.obj
 .bss.m_subnet_needs_flashing
                0x2000624c        0x4 examples/light_switch/proxy_server/CMakeFiles/light_switch_proxy_server_nrf52840_xxAA_s140_6.0.0.dir/__/__/__/mesh/access/src/device_state_manager.c.obj
 .bss.m_subnets
                0x20006250      0x190 examples/light_switch/proxy_server/CMakeFiles/light_switch_proxy_server_nrf52840_xxAA_s140_6.0.0.dir/__/__/__/mesh/access/src/device_state_manager.c.obj
 .bss.m_virtual_addresses
                0x200063e0       0xa0 examples/light_switch/proxy_server/CMakeFiles/light_switch_proxy_server_nrf52840_xxAA_s140_6.0.0.dir/__/__/__/mesh/access/src/device_state_manager.c.obj
 .bss.m_event_handler
                0x20006480        0x4 examples/light_switch/proxy_server/CMakeFiles/light_switch_proxy_server_nrf52840_xxAA_s140_6.0.0.dir/__/__/__/mesh/prov/src/prov_beacon.c.obj
 .bss.m_offload_ecdh
                0x20006484        0x1 examples/light_switch/proxy_server/CMakeFiles/light_switch_proxy_server_nrf52840_xxAA_s140_6.0.0.dir/__/__/__/mesh/prov/src/prov_utils.c.obj
 *fill*         0x20006485        0x3 
 .bss.mp_bearer_head
                0x20006488        0x4 examples/light_switch/proxy_server/CMakeFiles/light_switch_proxy_server_nrf52840_xxAA_s140_6.0.0.dir/__/__/__/mesh/prov/src/prov_bearer_adv.c.obj
 .bss._acDownBuffer
                0x2000648c       0x80 external/rtt/librtt_nrf52840_xxAA.a(SEGGER_RTT.c.obj)
 .bss._acUpBuffer
                0x2000650c      0x400 external/rtt/librtt_nrf52840_xxAA.a(SEGGER_RTT.c.obj)
 .bss.__malloc_free_list
                0x2000690c        0x4 c:/mesh/arm_gcc/bin/../lib/gcc/arm-none-eabi/6.3.1/../../../../arm-none-eabi/lib/thumb/v7e-m/fpv4-sp/hard\libg_nano.a(lib_a-nano-mallocr.o)
                0x2000690c                __malloc_free_list
 .bss.__malloc_sbrk_start
                0x20006910        0x4 c:/mesh/arm_gcc/bin/../lib/gcc/arm-none-eabi/6.3.1/../../../../arm-none-eabi/lib/thumb/v7e-m/fpv4-sp/hard\libg_nano.a(lib_a-nano-mallocr.o)
                0x20006910                __malloc_sbrk_start
 .bss.heap_end.5239
                0x20006914        0x4 c:/mesh/arm_gcc/bin/../lib/gcc/arm-none-eabi/6.3.1/../../../../arm-none-eabi/lib/thumb/v7e-m/fpv4-sp/hard\libnosys.a(sbrk.o)
 *(COMMON)
 COMMON         0x20006918        0xc examples/light_switch/proxy_server/CMakeFiles/light_switch_proxy_server_nrf52840_xxAA_s140_6.0.0.dir/C_/ver/mod/nRF5_SDK_15.0.0_a53641a/components/libraries/util/app_util_platform.c.obj
                0x20006918                nrf_nvic_state
 COMMON         0x20006924       0x24 examples/light_switch/proxy_server/CMakeFiles/light_switch_proxy_server_nrf52840_xxAA_s140_6.0.0.dir/__/__/__/mesh/core/src/core_tx.c.obj
                0x20006924                m_packet
 COMMON         0x20006948       0x78 external/rtt/librtt_nrf52840_xxAA.a(SEGGER_RTT.c.obj)
                0x20006948                _SEGGER_RTT
 COMMON         0x200069c0        0x4 c:/mesh/arm_gcc/bin/../lib/gcc/arm-none-eabi/6.3.1/../../../../arm-none-eabi/lib/thumb/v7e-m/fpv4-sp/hard\libg_nano.a(lib_a-reent.o)
                0x200069c0                errno
                0x200069c4                . = ALIGN (0x4)
                0x200069c4                __bss_end__ = .

.heap           0x200069c8     0x2000
                0x200069c8                __HeapBase = .
                0x200069c8                __end__ = .
                0x200069c8                PROVIDE (end, .)
 *(.heap*)
 .heap          0x200069c8     0x2000 examples/light_switch/proxy_server/CMakeFiles/light_switch_proxy_server_nrf52840_xxAA_s140_6.0.0.dir/C_/ver/mod/nRF5_SDK_15.0.0_a53641a/modules/nrfx/mdk/gcc_startup_nrf52840.S.obj
                0x200089c8                __HeapLimit = .

.stack_dummy    0x200069c8     0x2000
 *(.stack*)
 .stack         0x200069c8     0x2000 examples/light_switch/proxy_server/CMakeFiles/light_switch_proxy_server_nrf52840_xxAA_s140_6.0.0.dir/C_/ver/mod/nRF5_SDK_15.0.0_a53641a/modules/nrfx/mdk/gcc_startup_nrf52840.S.obj
                0x2003fd00                __StackTop = (ORIGIN (RAM) + LENGTH (RAM))
                0x2003dd00                __StackLimit = (__StackTop - SIZEOF (.stack_dummy))
                0x2003fd00                PROVIDE (__stack, __StackTop)
                0x00000001                ASSERT ((__StackLimit >= __HeapLimit), region RAM overflowed with stack)
                0x000001c8                DataInitFlashUsed = (__bss_start__ - __data_start__)
                0x00015c2c                CodeFlashUsed = (__etext - ORIGIN (FLASH))
                0x00015df4                TotalFlashUsed = (CodeFlashUsed + DataInitFlashUsed)
                0x00000001                ASSERT ((TotalFlashUsed <= LENGTH (FLASH)), region FLASH overflowed with .data and user data)
OUTPUT(examples\light_switch\proxy_server\light_switch_proxy_server_nrf52840_xxAA_s140_6.0.0.elf elf32-littlearm)

.ARM.attributes
                0x00000000       0x30
 .ARM.attributes
                0x00000000       0x22 c:/mesh/arm_gcc/bin/../lib/gcc/arm-none-eabi/6.3.1/thumb/v7e-m/fpv4-sp/hard/crti.o
 .ARM.attributes
                0x00000022       0x34 c:/mesh/arm_gcc/bin/../lib/gcc/arm-none-eabi/6.3.1/thumb/v7e-m/fpv4-sp/hard/crtbegin.o
 .ARM.attributes
                0x00000056       0x20 c:/mesh/arm_gcc/bin/../lib/gcc/arm-none-eabi/6.3.1/../../../../arm-none-eabi/lib/thumb/v7e-m/fpv4-sp/hard/crt0.o
 .ARM.attributes
                0x00000076       0x39 examples/light_switch/proxy_server/CMakeFiles/light_switch_proxy_server_nrf52840_xxAA_s140_6.0.0.dir/src/main.c.obj
 .ARM.attributes
                0x000000af       0x39 examples/light_switch/proxy_server/CMakeFiles/light_switch_proxy_server_nrf52840_xxAA_s140_6.0.0.dir/__/__/__/mesh/stack/src/mesh_stack.c.obj
 .ARM.attributes
                0x000000e8       0x39 examples/light_switch/proxy_server/CMakeFiles/light_switch_proxy_server_nrf52840_xxAA_s140_6.0.0.dir/__/__/common/src/mesh_provisionee.c.obj
 .ARM.attributes
                0x00000121       0x39 examples/light_switch/proxy_server/CMakeFiles/light_switch_proxy_server_nrf52840_xxAA_s140_6.0.0.dir/__/__/common/src/rtt_input.c.obj
 .ARM.attributes
                0x0000015a       0x39 examples/light_switch/proxy_server/CMakeFiles/light_switch_proxy_server_nrf52840_xxAA_s140_6.0.0.dir/__/__/common/src/simple_hal.c.obj
 .ARM.attributes
                0x00000193       0x39 examples/light_switch/proxy_server/CMakeFiles/light_switch_proxy_server_nrf52840_xxAA_s140_6.0.0.dir/__/__/common/src/mesh_app_utils.c.obj
 .ARM.attributes
                0x000001cc       0x39 examples/light_switch/proxy_server/CMakeFiles/light_switch_proxy_server_nrf52840_xxAA_s140_6.0.0.dir/__/__/common/src/mesh_adv.c.obj
 .ARM.attributes
                0x00000205       0x39 examples/light_switch/proxy_server/CMakeFiles/light_switch_proxy_server_nrf52840_xxAA_s140_6.0.0.dir/__/__/__/mesh/prov/src/nrf_mesh_prov_bearer_gatt.c.obj
 .ARM.attributes
                0x0000023e       0x39 examples/light_switch/proxy_server/CMakeFiles/light_switch_proxy_server_nrf52840_xxAA_s140_6.0.0.dir/C_/ver/mod/nRF5_SDK_15.0.0_a53641a/components/libraries/util/app_util_platform.c.obj
 .ARM.attributes
                0x00000277       0x39 examples/light_switch/proxy_server/CMakeFiles/light_switch_proxy_server_nrf52840_xxAA_s140_6.0.0.dir/C_/ver/mod/nRF5_SDK_15.0.0_a53641a/components/ble/common/ble_advdata.c.obj
 .ARM.attributes
                0x000002b0       0x39 examples/light_switch/proxy_server/CMakeFiles/light_switch_proxy_server_nrf52840_xxAA_s140_6.0.0.dir/C_/ver/mod/nRF5_SDK_15.0.0_a53641a/components/libraries/experimental_section_vars/nrf_section_iter.c.obj
 .ARM.attributes
                0x000002e9       0x39 examples/light_switch/proxy_server/CMakeFiles/light_switch_proxy_server_nrf52840_xxAA_s140_6.0.0.dir/C_/ver/mod/nRF5_SDK_15.0.0_a53641a/components/softdevice/common/nrf_sdh.c.obj
 .ARM.attributes
                0x00000322       0x39 examples/light_switch/proxy_server/CMakeFiles/light_switch_proxy_server_nrf52840_xxAA_s140_6.0.0.dir/C_/ver/mod/nRF5_SDK_15.0.0_a53641a/components/softdevice/common/nrf_sdh_soc.c.obj
 .ARM.attributes
                0x0000035b       0x39 examples/light_switch/proxy_server/CMakeFiles/light_switch_proxy_server_nrf52840_xxAA_s140_6.0.0.dir/C_/ver/mod/nRF5_SDK_15.0.0_a53641a/components/softdevice/common/nrf_sdh_ble.c.obj
 .ARM.attributes
                0x00000394       0x39 examples/light_switch/proxy_server/CMakeFiles/light_switch_proxy_server_nrf52840_xxAA_s140_6.0.0.dir/__/__/nrf_mesh_weak.c.obj
 .ARM.attributes
                0x000003cd       0x39 examples/light_switch/proxy_server/CMakeFiles/light_switch_proxy_server_nrf52840_xxAA_s140_6.0.0.dir/__/__/common/src/app_error_weak.c.obj
 .ARM.attributes
                0x00000406       0x39 examples/light_switch/proxy_server/CMakeFiles/light_switch_proxy_server_nrf52840_xxAA_s140_6.0.0.dir/__/__/common/src/assertion_handler_weak.c.obj
 .ARM.attributes
                0x0000043f       0x39 examples/light_switch/proxy_server/CMakeFiles/light_switch_proxy_server_nrf52840_xxAA_s140_6.0.0.dir/__/__/__/mesh/core/src/nrf_mesh_configure.c.obj
 .ARM.attributes
                0x00000478       0x39 examples/light_switch/proxy_server/CMakeFiles/light_switch_proxy_server_nrf52840_xxAA_s140_6.0.0.dir/__/__/__/mesh/core/src/aes.c.obj
 .ARM.attributes
                0x000004b1       0x39 examples/light_switch/proxy_server/CMakeFiles/light_switch_proxy_server_nrf52840_xxAA_s140_6.0.0.dir/__/__/__/mesh/core/src/msg_cache.c.obj
 .ARM.attributes
                0x000004ea       0x39 examples/light_switch/proxy_server/CMakeFiles/light_switch_proxy_server_nrf52840_xxAA_s140_6.0.0.dir/__/__/__/mesh/core/src/transport.c.obj
 .ARM.attributes
                0x00000523       0x39 examples/light_switch/proxy_server/CMakeFiles/light_switch_proxy_server_nrf52840_xxAA_s140_6.0.0.dir/__/__/__/mesh/core/src/event.c.obj
 .ARM.attributes
                0x0000055c       0x39 examples/light_switch/proxy_server/CMakeFiles/light_switch_proxy_server_nrf52840_xxAA_s140_6.0.0.dir/__/__/__/mesh/core/src/packet_buffer.c.obj
 .ARM.attributes
                0x00000595       0x39 examples/light_switch/proxy_server/CMakeFiles/light_switch_proxy_server_nrf52840_xxAA_s140_6.0.0.dir/__/__/__/mesh/core/src/flash_manager_defrag.c.obj
 .ARM.attributes
                0x000005ce       0x39 examples/light_switch/proxy_server/CMakeFiles/light_switch_proxy_server_nrf52840_xxAA_s140_6.0.0.dir/__/__/__/mesh/core/src/fifo.c.obj
 .ARM.attributes
                0x00000607       0x39 examples/light_switch/proxy_server/CMakeFiles/light_switch_proxy_server_nrf52840_xxAA_s140_6.0.0.dir/__/__/__/mesh/core/src/nrf_flash.c.obj
 .ARM.attributes
                0x00000640       0x39 examples/light_switch/proxy_server/CMakeFiles/light_switch_proxy_server_nrf52840_xxAA_s140_6.0.0.dir/__/__/__/mesh/core/src/packet_mgr.c.obj
 .ARM.attributes
                0x00000679       0x39 examples/light_switch/proxy_server/CMakeFiles/light_switch_proxy_server_nrf52840_xxAA_s140_6.0.0.dir/__/__/__/mesh/core/src/net_state.c.obj
 .ARM.attributes
                0x000006b2       0x39 examples/light_switch/proxy_server/CMakeFiles/light_switch_proxy_server_nrf52840_xxAA_s140_6.0.0.dir/__/__/__/mesh/core/src/mesh_flash.c.obj
 .ARM.attributes
                0x000006eb       0x39 examples/light_switch/proxy_server/CMakeFiles/light_switch_proxy_server_nrf52840_xxAA_s140_6.0.0.dir/__/__/__/mesh/core/src/nrf_mesh_utils.c.obj
 .ARM.attributes
                0x00000724       0x39 examples/light_switch/proxy_server/CMakeFiles/light_switch_proxy_server_nrf52840_xxAA_s140_6.0.0.dir/__/__/__/mesh/core/src/nrf_mesh.c.obj
 .ARM.attributes
                0x0000075d       0x39 examples/light_switch/proxy_server/CMakeFiles/light_switch_proxy_server_nrf52840_xxAA_s140_6.0.0.dir/__/__/__/mesh/core/src/queue.c.obj
 .ARM.attributes
                0x00000796       0x39 examples/light_switch/proxy_server/CMakeFiles/light_switch_proxy_server_nrf52840_xxAA_s140_6.0.0.dir/__/__/__/mesh/core/src/hal.c.obj
 .ARM.attributes
                0x000007cf       0x39 examples/light_switch/proxy_server/CMakeFiles/light_switch_proxy_server_nrf52840_xxAA_s140_6.0.0.dir/__/__/__/mesh/core/src/aes_cmac.c.obj
 .ARM.attributes
                0x00000808       0x39 examples/light_switch/proxy_server/CMakeFiles/light_switch_proxy_server_nrf52840_xxAA_s140_6.0.0.dir/__/__/__/mesh/core/src/timer_scheduler.c.obj
 .ARM.attributes
                0x00000841       0x39 examples/light_switch/proxy_server/CMakeFiles/light_switch_proxy_server_nrf52840_xxAA_s140_6.0.0.dir/__/__/__/mesh/core/src/timer.c.obj
 .ARM.attributes
                0x0000087a       0x39 examples/light_switch/proxy_server/CMakeFiles/light_switch_proxy_server_nrf52840_xxAA_s140_6.0.0.dir/__/__/__/mesh/core/src/ticker.c.obj
 .ARM.attributes
                0x000008b3       0x39 examples/light_switch/proxy_server/CMakeFiles/light_switch_proxy_server_nrf52840_xxAA_s140_6.0.0.dir/__/__/__/mesh/core/src/rand.c.obj
 .ARM.attributes
                0x000008ec       0x39 examples/light_switch/proxy_server/CMakeFiles/light_switch_proxy_server_nrf52840_xxAA_s140_6.0.0.dir/__/__/__/mesh/core/src/nrf_mesh_opt.c.obj
 .ARM.attributes
                0x00000925       0x39 examples/light_switch/proxy_server/CMakeFiles/light_switch_proxy_server_nrf52840_xxAA_s140_6.0.0.dir/__/__/__/mesh/core/src/timeslot.c.obj
 .ARM.attributes
                0x0000095e       0x39 examples/light_switch/proxy_server/CMakeFiles/light_switch_proxy_server_nrf52840_xxAA_s140_6.0.0.dir/__/__/__/mesh/core/src/bearer_event.c.obj
 .ARM.attributes
                0x00000997       0x39 examples/light_switch/proxy_server/CMakeFiles/light_switch_proxy_server_nrf52840_xxAA_s140_6.0.0.dir/__/__/__/mesh/core/src/enc.c.obj
 .ARM.attributes
                0x000009d0       0x39 examples/light_switch/proxy_server/CMakeFiles/light_switch_proxy_server_nrf52840_xxAA_s140_6.0.0.dir/__/__/__/mesh/core/src/network.c.obj
 .ARM.attributes
                0x00000a09       0x39 examples/light_switch/proxy_server/CMakeFiles/light_switch_proxy_server_nrf52840_xxAA_s140_6.0.0.dir/__/__/__/mesh/core/src/net_packet.c.obj
 .ARM.attributes
                0x00000a42       0x39 examples/light_switch/proxy_server/CMakeFiles/light_switch_proxy_server_nrf52840_xxAA_s140_6.0.0.dir/__/__/__/mesh/core/src/msqueue.c.obj
 .ARM.attributes
                0x00000a7b       0x39 examples/light_switch/proxy_server/CMakeFiles/light_switch_proxy_server_nrf52840_xxAA_s140_6.0.0.dir/__/__/__/mesh/core/src/nrf_mesh_keygen.c.obj
 .ARM.attributes
                0x00000ab4       0x39 examples/light_switch/proxy_server/CMakeFiles/light_switch_proxy_server_nrf52840_xxAA_s140_6.0.0.dir/__/__/__/mesh/core/src/cache.c.obj
 .ARM.attributes
                0x00000aed       0x39 examples/light_switch/proxy_server/CMakeFiles/light_switch_proxy_server_nrf52840_xxAA_s140_6.0.0.dir/__/__/__/mesh/core/src/list.c.obj
 .ARM.attributes
                0x00000b26       0x39 examples/light_switch/proxy_server/CMakeFiles/light_switch_proxy_server_nrf52840_xxAA_s140_6.0.0.dir/__/__/__/mesh/core/src/log.c.obj
 .ARM.attributes
                0x00000b5f       0x39 examples/light_switch/proxy_server/CMakeFiles/light_switch_proxy_server_nrf52840_xxAA_s140_6.0.0.dir/__/__/__/mesh/core/src/flash_manager.c.obj
 .ARM.attributes
                0x00000b98       0x39 examples/light_switch/proxy_server/CMakeFiles/light_switch_proxy_server_nrf52840_xxAA_s140_6.0.0.dir/__/__/__/mesh/core/src/ccm_soft.c.obj
 .ARM.attributes
                0x00000bd1       0x39 examples/light_switch/proxy_server/CMakeFiles/light_switch_proxy_server_nrf52840_xxAA_s140_6.0.0.dir/__/__/__/mesh/core/src/replay_cache.c.obj
 .ARM.attributes
                0x00000c0a       0x39 examples/light_switch/proxy_server/CMakeFiles/light_switch_proxy_server_nrf52840_xxAA_s140_6.0.0.dir/__/__/__/mesh/core/src/beacon.c.obj
 .ARM.attributes
                0x00000c43       0x39 examples/light_switch/proxy_server/CMakeFiles/light_switch_proxy_server_nrf52840_xxAA_s140_6.0.0.dir/__/__/__/mesh/core/src/flash_manager_internal.c.obj
 .ARM.attributes
                0x00000c7c       0x39 examples/light_switch/proxy_server/CMakeFiles/light_switch_proxy_server_nrf52840_xxAA_s140_6.0.0.dir/__/__/__/mesh/core/src/core_tx.c.obj
 .ARM.attributes
                0x00000cb5       0x39 examples/light_switch/proxy_server/CMakeFiles/light_switch_proxy_server_nrf52840_xxAA_s140_6.0.0.dir/__/__/__/mesh/core/src/heartbeat.c.obj
 .ARM.attributes
                0x00000cee       0x39 examples/light_switch/proxy_server/CMakeFiles/light_switch_proxy_server_nrf52840_xxAA_s140_6.0.0.dir/__/__/__/mesh/core/src/net_beacon.c.obj
 .ARM.attributes
                0x00000d27       0x39 examples/light_switch/proxy_server/CMakeFiles/light_switch_proxy_server_nrf52840_xxAA_s140_6.0.0.dir/__/__/__/mesh/core/src/fsm.c.obj
 .ARM.attributes
                0x00000d60       0x39 examples/light_switch/proxy_server/CMakeFiles/light_switch_proxy_server_nrf52840_xxAA_s140_6.0.0.dir/__/__/__/mesh/core/src/core_tx_adv.c.obj
 .ARM.attributes
                0x00000d99       0x39 examples/light_switch/proxy_server/CMakeFiles/light_switch_proxy_server_nrf52840_xxAA_s140_6.0.0.dir/__/__/__/mesh/bearer/src/ad_listener.c.obj
 .ARM.attributes
                0x00000dd2       0x39 examples/light_switch/proxy_server/CMakeFiles/light_switch_proxy_server_nrf52840_xxAA_s140_6.0.0.dir/__/__/__/mesh/bearer/src/ad_type_filter.c.obj
 .ARM.attributes
                0x00000e0b       0x39 examples/light_switch/proxy_server/CMakeFiles/light_switch_proxy_server_nrf52840_xxAA_s140_6.0.0.dir/__/__/__/mesh/bearer/src/advertiser.c.obj
 .ARM.attributes
                0x00000e44       0x39 examples/light_switch/proxy_server/CMakeFiles/light_switch_proxy_server_nrf52840_xxAA_s140_6.0.0.dir/__/__/__/mesh/bearer/src/bearer_handler.c.obj
 .ARM.attributes
                0x00000e7d       0x39 examples/light_switch/proxy_server/CMakeFiles/light_switch_proxy_server_nrf52840_xxAA_s140_6.0.0.dir/__/__/__/mesh/bearer/src/broadcast.c.obj
 .ARM.attributes
                0x00000eb6       0x39 examples/light_switch/proxy_server/CMakeFiles/light_switch_proxy_server_nrf52840_xxAA_s140_6.0.0.dir/__/__/__/mesh/bearer/src/filter_engine.c.obj
 .ARM.attributes
                0x00000eef       0x39 examples/light_switch/proxy_server/CMakeFiles/light_switch_proxy_server_nrf52840_xxAA_s140_6.0.0.dir/__/__/__/mesh/bearer/src/radio_config.c.obj
 .ARM.attributes
                0x00000f28       0x39 examples/light_switch/proxy_server/CMakeFiles/light_switch_proxy_server_nrf52840_xxAA_s140_6.0.0.dir/__/__/__/mesh/bearer/src/scanner.c.obj
 .ARM.attributes
                0x00000f61       0x39 examples/light_switch/proxy_server/CMakeFiles/light_switch_proxy_server_nrf52840_xxAA_s140_6.0.0.dir/__/__/__/mesh/gatt/src/mesh_gatt.c.obj
 .ARM.attributes
                0x00000f9a       0x39 examples/light_switch/proxy_server/CMakeFiles/light_switch_proxy_server_nrf52840_xxAA_s140_6.0.0.dir/__/__/__/mesh/gatt/src/proxy.c.obj
 .ARM.attributes
                0x00000fd3       0x39 examples/light_switch/proxy_server/CMakeFiles/light_switch_proxy_server_nrf52840_xxAA_s140_6.0.0.dir/__/__/__/mesh/gatt/src/proxy_filter.c.obj
 .ARM.attributes
                0x0000100c       0x39 examples/light_switch/proxy_server/CMakeFiles/light_switch_proxy_server_nrf52840_xxAA_s140_6.0.0.dir/__/__/__/models/simple_on_off/src/simple_on_off_server.c.obj
 .ARM.attributes
                0x00001045       0x39 examples/light_switch/proxy_server/CMakeFiles/light_switch_proxy_server_nrf52840_xxAA_s140_6.0.0.dir/__/__/__/models/config/src/composition_data.c.obj
 .ARM.attributes
                0x0000107e       0x39 examples/light_switch/proxy_server/CMakeFiles/light_switch_proxy_server_nrf52840_xxAA_s140_6.0.0.dir/__/__/__/models/config/src/config_server.c.obj
 .ARM.attributes
                0x000010b7       0x39 examples/light_switch/proxy_server/CMakeFiles/light_switch_proxy_server_nrf52840_xxAA_s140_6.0.0.dir/__/__/__/models/config/src/packed_index_list.c.obj
 .ARM.attributes
                0x000010f0       0x39 examples/light_switch/proxy_server/CMakeFiles/light_switch_proxy_server_nrf52840_xxAA_s140_6.0.0.dir/__/__/__/models/health/src/health_server.c.obj
 .ARM.attributes
                0x00001129       0x39 examples/light_switch/proxy_server/CMakeFiles/light_switch_proxy_server_nrf52840_xxAA_s140_6.0.0.dir/__/__/__/mesh/access/src/access_publish.c.obj
 .ARM.attributes
                0x00001162       0x39 examples/light_switch/proxy_server/CMakeFiles/light_switch_proxy_server_nrf52840_xxAA_s140_6.0.0.dir/__/__/__/mesh/access/src/access.c.obj
 .ARM.attributes
                0x0000119b       0x39 examples/light_switch/proxy_server/CMakeFiles/light_switch_proxy_server_nrf52840_xxAA_s140_6.0.0.dir/__/__/__/mesh/access/src/access_reliable.c.obj
 .ARM.attributes
                0x000011d4       0x39 examples/light_switch/proxy_server/CMakeFiles/light_switch_proxy_server_nrf52840_xxAA_s140_6.0.0.dir/__/__/__/mesh/access/src/device_state_manager.c.obj
 .ARM.attributes
                0x0000120d       0x39 examples/light_switch/proxy_server/CMakeFiles/light_switch_proxy_server_nrf52840_xxAA_s140_6.0.0.dir/__/__/__/mesh/prov/src/prov_provisionee.c.obj
 .ARM.attributes
                0x00001246       0x39 examples/light_switch/proxy_server/CMakeFiles/light_switch_proxy_server_nrf52840_xxAA_s140_6.0.0.dir/__/__/__/mesh/prov/src/nrf_mesh_prov.c.obj
 .ARM.attributes
                0x0000127f       0x39 examples/light_switch/proxy_server/CMakeFiles/light_switch_proxy_server_nrf52840_xxAA_s140_6.0.0.dir/__/__/__/mesh/prov/src/provisioning.c.obj
 .ARM.attributes
                0x000012b8       0x39 examples/light_switch/proxy_server/CMakeFiles/light_switch_proxy_server_nrf52840_xxAA_s140_6.0.0.dir/__/__/__/mesh/prov/src/prov_beacon.c.obj
 .ARM.attributes
                0x000012f1       0x39 examples/light_switch/proxy_server/CMakeFiles/light_switch_proxy_server_nrf52840_xxAA_s140_6.0.0.dir/__/__/__/mesh/prov/src/prov_utils.c.obj
 .ARM.attributes
                0x0000132a       0x39 examples/light_switch/proxy_server/CMakeFiles/light_switch_proxy_server_nrf52840_xxAA_s140_6.0.0.dir/__/__/__/mesh/prov/src/prov_bearer_adv.c.obj
 .ARM.attributes
                0x00001363       0x39 examples/light_switch/proxy_server/CMakeFiles/light_switch_proxy_server_nrf52840_xxAA_s140_6.0.0.dir/C_/ver/mod/nRF5_SDK_15.0.0_a53641a/modules/nrfx/mdk/system_nrf52840.c.obj
 .ARM.attributes
                0x0000139c       0x20 examples/light_switch/proxy_server/CMakeFiles/light_switch_proxy_server_nrf52840_xxAA_s140_6.0.0.dir/C_/ver/mod/nRF5_SDK_15.0.0_a53641a/modules/nrfx/mdk/gcc_startup_nrf52840.S.obj
 .ARM.attributes
                0x000013bc       0x39 examples/light_switch/proxy_server/CMakeFiles/light_switch_proxy_server_nrf52840_xxAA_s140_6.0.0.dir/C_/ver/mod/nRF5_SDK_15.0.0_a53641a/components/libraries/util/app_error.c.obj
 .ARM.attributes
                0x000013f5       0x39 examples/light_switch/proxy_server/CMakeFiles/light_switch_proxy_server_nrf52840_xxAA_s140_6.0.0.dir/C_/ver/mod/nRF5_SDK_15.0.0_a53641a/components/libraries/util/app_error_handler_gcc.c.obj
 .ARM.attributes
                0x0000142e       0x39 external/rtt/librtt_nrf52840_xxAA.a(SEGGER_RTT.c.obj)
 .ARM.attributes
                0x00001467       0x39 external/rtt/librtt_nrf52840_xxAA.a(SEGGER_RTT_printf.c.obj)
 .ARM.attributes
                0x000014a0       0x39 external/micro-ecc/libuECC_nrf52840_xxAA.a(uECC.c.obj)
 .ARM.attributes
                0x000014d9       0x22 c:/mesh/arm_gcc/bin/../lib/gcc/arm-none-eabi/6.3.1/thumb/v7e-m/fpv4-sp/hard\libgcc.a(_aeabi_uldivmod.o)
 .ARM.attributes
                0x000014fb       0x34 c:/mesh/arm_gcc/bin/../lib/gcc/arm-none-eabi/6.3.1/thumb/v7e-m/fpv4-sp/hard\libgcc.a(_udivmoddi4.o)
 .ARM.attributes
                0x0000152f       0x22 c:/mesh/arm_gcc/bin/../lib/gcc/arm-none-eabi/6.3.1/thumb/v7e-m/fpv4-sp/hard\libgcc.a(_dvmd_tls.o)
 .ARM.attributes
                0x00001551       0x34 c:/mesh/arm_gcc/bin/../lib/gcc/arm-none-eabi/6.3.1/../../../../arm-none-eabi/lib/thumb/v7e-m/fpv4-sp/hard\libg_nano.a(lib_a-exit.o)
 .ARM.attributes
                0x00001585       0x34 c:/mesh/arm_gcc/bin/../lib/gcc/arm-none-eabi/6.3.1/../../../../arm-none-eabi/lib/thumb/v7e-m/fpv4-sp/hard\libg_nano.a(lib_a-impure.o)
 .ARM.attributes
                0x000015b9       0x34 c:/mesh/arm_gcc/bin/../lib/gcc/arm-none-eabi/6.3.1/../../../../arm-none-eabi/lib/thumb/v7e-m/fpv4-sp/hard\libg_nano.a(lib_a-init.o)
 .ARM.attributes
                0x000015ed       0x34 c:/mesh/arm_gcc/bin/../lib/gcc/arm-none-eabi/6.3.1/../../../../arm-none-eabi/lib/thumb/v7e-m/fpv4-sp/hard\libg_nano.a(lib_a-malloc.o)
 .ARM.attributes
                0x00001621       0x34 c:/mesh/arm_gcc/bin/../lib/gcc/arm-none-eabi/6.3.1/../../../../arm-none-eabi/lib/thumb/v7e-m/fpv4-sp/hard\libg_nano.a(lib_a-memcmp.o)
 .ARM.attributes
                0x00001655       0x34 c:/mesh/arm_gcc/bin/../lib/gcc/arm-none-eabi/6.3.1/../../../../arm-none-eabi/lib/thumb/v7e-m/fpv4-sp/hard\libg_nano.a(lib_a-memcpy-stub.o)
 .ARM.attributes
                0x00001689       0x34 c:/mesh/arm_gcc/bin/../lib/gcc/arm-none-eabi/6.3.1/../../../../arm-none-eabi/lib/thumb/v7e-m/fpv4-sp/hard\libg_nano.a(lib_a-memset.o)
 .ARM.attributes
                0x000016bd       0x34 c:/mesh/arm_gcc/bin/../lib/gcc/arm-none-eabi/6.3.1/../../../../arm-none-eabi/lib/thumb/v7e-m/fpv4-sp/hard\libg_nano.a(lib_a-nano-freer.o)
 .ARM.attributes
                0x000016f1       0x34 c:/mesh/arm_gcc/bin/../lib/gcc/arm-none-eabi/6.3.1/../../../../arm-none-eabi/lib/thumb/v7e-m/fpv4-sp/hard\libg_nano.a(lib_a-nano-mallocr.o)
 .ARM.attributes
                0x00001725       0x34 c:/mesh/arm_gcc/bin/../lib/gcc/arm-none-eabi/6.3.1/../../../../arm-none-eabi/lib/thumb/v7e-m/fpv4-sp/hard\libg_nano.a(lib_a-sbrkr.o)
 .ARM.attributes
                0x00001759       0x34 c:/mesh/arm_gcc/bin/../lib/gcc/arm-none-eabi/6.3.1/../../../../arm-none-eabi/lib/thumb/v7e-m/fpv4-sp/hard\libg_nano.a(lib_a-strcpy.o)
 .ARM.attributes
                0x0000178d       0x1b c:/mesh/arm_gcc/bin/../lib/gcc/arm-none-eabi/6.3.1/../../../../arm-none-eabi/lib/thumb/v7e-m/fpv4-sp/hard\libg_nano.a(lib_a-strlen.o)
 .ARM.attributes
                0x000017a8       0x34 c:/mesh/arm_gcc/bin/../lib/gcc/arm-none-eabi/6.3.1/../../../../arm-none-eabi/lib/thumb/v7e-m/fpv4-sp/hard\libg_nano.a(lib_a-strrchr.o)
 .ARM.attributes
                0x000017dc       0x34 c:/mesh/arm_gcc/bin/../lib/gcc/arm-none-eabi/6.3.1/../../../../arm-none-eabi/lib/thumb/v7e-m/fpv4-sp/hard\libg_nano.a(lib_a-mlock.o)
 .ARM.attributes
                0x00001810       0x34 c:/mesh/arm_gcc/bin/../lib/gcc/arm-none-eabi/6.3.1/../../../../arm-none-eabi/lib/thumb/v7e-m/fpv4-sp/hard\libg_nano.a(lib_a-reent.o)
 .ARM.attributes
                0x00001844       0x34 c:/mesh/arm_gcc/bin/../lib/gcc/arm-none-eabi/6.3.1/../../../../arm-none-eabi/lib/thumb/v7e-m/fpv4-sp/hard\libg_nano.a(lib_a-strchr.o)
 .ARM.attributes
                0x00001878       0x34 c:/mesh/arm_gcc/bin/../lib/gcc/arm-none-eabi/6.3.1/thumb/v7e-m/fpv4-sp/hard/crtend.o
 .ARM.attributes
                0x000018ac       0x22 c:/mesh/arm_gcc/bin/../lib/gcc/arm-none-eabi/6.3.1/thumb/v7e-m/fpv4-sp/hard/crtn.o
 .ARM.attributes
                0x000018ce       0x34 c:/mesh/arm_gcc/bin/../lib/gcc/arm-none-eabi/6.3.1/../../../../arm-none-eabi/lib/thumb/v7e-m/fpv4-sp/hard\libnosys.a(sbrk.o)
 .ARM.attributes
                0x00001902       0x34 c:/mesh/arm_gcc/bin/../lib/gcc/arm-none-eabi/6.3.1/../../../../arm-none-eabi/lib/thumb/v7e-m/fpv4-sp/hard\libnosys.a(_exit.o)

.comment        0x00000000       0x7f
 .comment       0x00000000       0x7f examples/light_switch/proxy_server/CMakeFiles/light_switch_proxy_server_nrf52840_xxAA_s140_6.0.0.dir/src/main.c.obj
                                 0x80 (size before relaxing)
 .comment       0x0000007f       0x80 examples/light_switch/proxy_server/CMakeFiles/light_switch_proxy_server_nrf52840_xxAA_s140_6.0.0.dir/__/__/__/mesh/stack/src/mesh_stack.c.obj
 .comment       0x0000007f       0x80 examples/light_switch/proxy_server/CMakeFiles/light_switch_proxy_server_nrf52840_xxAA_s140_6.0.0.dir/__/__/common/src/mesh_provisionee.c.obj
 .comment       0x0000007f       0x80 examples/light_switch/proxy_server/CMakeFiles/light_switch_proxy_server_nrf52840_xxAA_s140_6.0.0.dir/__/__/common/src/rtt_input.c.obj
 .comment       0x0000007f       0x80 examples/light_switch/proxy_server/CMakeFiles/light_switch_proxy_server_nrf52840_xxAA_s140_6.0.0.dir/__/__/common/src/simple_hal.c.obj
 .comment       0x0000007f       0x80 examples/light_switch/proxy_server/CMakeFiles/light_switch_proxy_server_nrf52840_xxAA_s140_6.0.0.dir/__/__/common/src/mesh_app_utils.c.obj
 .comment       0x0000007f       0x80 examples/light_switch/proxy_server/CMakeFiles/light_switch_proxy_server_nrf52840_xxAA_s140_6.0.0.dir/__/__/common/src/mesh_adv.c.obj
 .comment       0x0000007f       0x80 examples/light_switch/proxy_server/CMakeFiles/light_switch_proxy_server_nrf52840_xxAA_s140_6.0.0.dir/__/__/__/mesh/prov/src/nrf_mesh_prov_bearer_gatt.c.obj
 .comment       0x0000007f       0x80 examples/light_switch/proxy_server/CMakeFiles/light_switch_proxy_server_nrf52840_xxAA_s140_6.0.0.dir/C_/ver/mod/nRF5_SDK_15.0.0_a53641a/components/libraries/util/app_util_platform.c.obj
 .comment       0x0000007f       0x80 examples/light_switch/proxy_server/CMakeFiles/light_switch_proxy_server_nrf52840_xxAA_s140_6.0.0.dir/C_/ver/mod/nRF5_SDK_15.0.0_a53641a/components/ble/common/ble_advdata.c.obj
 .comment       0x0000007f       0x80 examples/light_switch/proxy_server/CMakeFiles/light_switch_proxy_server_nrf52840_xxAA_s140_6.0.0.dir/C_/ver/mod/nRF5_SDK_15.0.0_a53641a/components/libraries/experimental_section_vars/nrf_section_iter.c.obj
 .comment       0x0000007f       0x80 examples/light_switch/proxy_server/CMakeFiles/light_switch_proxy_server_nrf52840_xxAA_s140_6.0.0.dir/C_/ver/mod/nRF5_SDK_15.0.0_a53641a/components/softdevice/common/nrf_sdh.c.obj
 .comment       0x0000007f       0x80 examples/light_switch/proxy_server/CMakeFiles/light_switch_proxy_server_nrf52840_xxAA_s140_6.0.0.dir/C_/ver/mod/nRF5_SDK_15.0.0_a53641a/components/softdevice/common/nrf_sdh_soc.c.obj
 .comment       0x0000007f       0x80 examples/light_switch/proxy_server/CMakeFiles/light_switch_proxy_server_nrf52840_xxAA_s140_6.0.0.dir/C_/ver/mod/nRF5_SDK_15.0.0_a53641a/components/softdevice/common/nrf_sdh_ble.c.obj
 .comment       0x0000007f       0x80 examples/light_switch/proxy_server/CMakeFiles/light_switch_proxy_server_nrf52840_xxAA_s140_6.0.0.dir/__/__/nrf_mesh_weak.c.obj
 .comment       0x0000007f       0x80 examples/light_switch/proxy_server/CMakeFiles/light_switch_proxy_server_nrf52840_xxAA_s140_6.0.0.dir/__/__/common/src/app_error_weak.c.obj
 .comment       0x0000007f       0x80 examples/light_switch/proxy_server/CMakeFiles/light_switch_proxy_server_nrf52840_xxAA_s140_6.0.0.dir/__/__/common/src/assertion_handler_weak.c.obj
 .comment       0x0000007f       0x80 examples/light_switch/proxy_server/CMakeFiles/light_switch_proxy_server_nrf52840_xxAA_s140_6.0.0.dir/__/__/__/mesh/core/src/nrf_mesh_configure.c.obj
 .comment       0x0000007f       0x80 examples/light_switch/proxy_server/CMakeFiles/light_switch_proxy_server_nrf52840_xxAA_s140_6.0.0.dir/__/__/__/mesh/core/src/aes.c.obj
 .comment       0x0000007f       0x80 examples/light_switch/proxy_server/CMakeFiles/light_switch_proxy_server_nrf52840_xxAA_s140_6.0.0.dir/__/__/__/mesh/core/src/msg_cache.c.obj
 .comment       0x0000007f       0x80 examples/light_switch/proxy_server/CMakeFiles/light_switch_proxy_server_nrf52840_xxAA_s140_6.0.0.dir/__/__/__/mesh/core/src/transport.c.obj
 .comment       0x0000007f       0x80 examples/light_switch/proxy_server/CMakeFiles/light_switch_proxy_server_nrf52840_xxAA_s140_6.0.0.dir/__/__/__/mesh/core/src/event.c.obj
 .comment       0x0000007f       0x80 examples/light_switch/proxy_server/CMakeFiles/light_switch_proxy_server_nrf52840_xxAA_s140_6.0.0.dir/__/__/__/mesh/core/src/packet_buffer.c.obj
 .comment       0x0000007f       0x80 examples/light_switch/proxy_server/CMakeFiles/light_switch_proxy_server_nrf52840_xxAA_s140_6.0.0.dir/__/__/__/mesh/core/src/flash_manager_defrag.c.obj
 .comment       0x0000007f       0x80 examples/light_switch/proxy_server/CMakeFiles/light_switch_proxy_server_nrf52840_xxAA_s140_6.0.0.dir/__/__/__/mesh/core/src/fifo.c.obj
 .comment       0x0000007f       0x80 examples/light_switch/proxy_server/CMakeFiles/light_switch_proxy_server_nrf52840_xxAA_s140_6.0.0.dir/__/__/__/mesh/core/src/nrf_flash.c.obj
 .comment       0x0000007f       0x80 examples/light_switch/proxy_server/CMakeFiles/light_switch_proxy_server_nrf52840_xxAA_s140_6.0.0.dir/__/__/__/mesh/core/src/packet_mgr.c.obj
 .comment       0x0000007f       0x80 examples/light_switch/proxy_server/CMakeFiles/light_switch_proxy_server_nrf52840_xxAA_s140_6.0.0.dir/__/__/__/mesh/core/src/net_state.c.obj
 .comment       0x0000007f       0x80 examples/light_switch/proxy_server/CMakeFiles/light_switch_proxy_server_nrf52840_xxAA_s140_6.0.0.dir/__/__/__/mesh/core/src/mesh_flash.c.obj
 .comment       0x0000007f       0x80 examples/light_switch/proxy_server/CMakeFiles/light_switch_proxy_server_nrf52840_xxAA_s140_6.0.0.dir/__/__/__/mesh/core/src/nrf_mesh_utils.c.obj
 .comment       0x0000007f       0x80 examples/light_switch/proxy_server/CMakeFiles/light_switch_proxy_server_nrf52840_xxAA_s140_6.0.0.dir/__/__/__/mesh/core/src/nrf_mesh.c.obj
 .comment       0x0000007f       0x80 examples/light_switch/proxy_server/CMakeFiles/light_switch_proxy_server_nrf52840_xxAA_s140_6.0.0.dir/__/__/__/mesh/core/src/queue.c.obj
 .comment       0x0000007f       0x80 examples/light_switch/proxy_server/CMakeFiles/light_switch_proxy_server_nrf52840_xxAA_s140_6.0.0.dir/__/__/__/mesh/core/src/hal.c.obj
 .comment       0x0000007f       0x80 examples/light_switch/proxy_server/CMakeFiles/light_switch_proxy_server_nrf52840_xxAA_s140_6.0.0.dir/__/__/__/mesh/core/src/aes_cmac.c.obj
 .comment       0x0000007f       0x80 examples/light_switch/proxy_server/CMakeFiles/light_switch_proxy_server_nrf52840_xxAA_s140_6.0.0.dir/__/__/__/mesh/core/src/timer_scheduler.c.obj
 .comment       0x0000007f       0x80 examples/light_switch/proxy_server/CMakeFiles/light_switch_proxy_server_nrf52840_xxAA_s140_6.0.0.dir/__/__/__/mesh/core/src/timer.c.obj
 .comment       0x0000007f       0x80 examples/light_switch/proxy_server/CMakeFiles/light_switch_proxy_server_nrf52840_xxAA_s140_6.0.0.dir/__/__/__/mesh/core/src/ticker.c.obj
 .comment       0x0000007f       0x80 examples/light_switch/proxy_server/CMakeFiles/light_switch_proxy_server_nrf52840_xxAA_s140_6.0.0.dir/__/__/__/mesh/core/src/rand.c.obj
 .comment       0x0000007f       0x80 examples/light_switch/proxy_server/CMakeFiles/light_switch_proxy_server_nrf52840_xxAA_s140_6.0.0.dir/__/__/__/mesh/core/src/nrf_mesh_opt.c.obj
 .comment       0x0000007f       0x80 examples/light_switch/proxy_server/CMakeFiles/light_switch_proxy_server_nrf52840_xxAA_s140_6.0.0.dir/__/__/__/mesh/core/src/timeslot.c.obj
 .comment       0x0000007f       0x80 examples/light_switch/proxy_server/CMakeFiles/light_switch_proxy_server_nrf52840_xxAA_s140_6.0.0.dir/__/__/__/mesh/core/src/bearer_event.c.obj
 .comment       0x0000007f       0x80 examples/light_switch/proxy_server/CMakeFiles/light_switch_proxy_server_nrf52840_xxAA_s140_6.0.0.dir/__/__/__/mesh/core/src/enc.c.obj
 .comment       0x0000007f       0x80 examples/light_switch/proxy_server/CMakeFiles/light_switch_proxy_server_nrf52840_xxAA_s140_6.0.0.dir/__/__/__/mesh/core/src/network.c.obj
 .comment       0x0000007f       0x80 examples/light_switch/proxy_server/CMakeFiles/light_switch_proxy_server_nrf52840_xxAA_s140_6.0.0.dir/__/__/__/mesh/core/src/net_packet.c.obj
 .comment       0x0000007f       0x80 examples/light_switch/proxy_server/CMakeFiles/light_switch_proxy_server_nrf52840_xxAA_s140_6.0.0.dir/__/__/__/mesh/core/src/msqueue.c.obj
 .comment       0x0000007f       0x80 examples/light_switch/proxy_server/CMakeFiles/light_switch_proxy_server_nrf52840_xxAA_s140_6.0.0.dir/__/__/__/mesh/core/src/nrf_mesh_keygen.c.obj
 .comment       0x0000007f       0x80 examples/light_switch/proxy_server/CMakeFiles/light_switch_proxy_server_nrf52840_xxAA_s140_6.0.0.dir/__/__/__/mesh/core/src/cache.c.obj
 .comment       0x0000007f       0x80 examples/light_switch/proxy_server/CMakeFiles/light_switch_proxy_server_nrf52840_xxAA_s140_6.0.0.dir/__/__/__/mesh/core/src/list.c.obj
 .comment       0x0000007f       0x80 examples/light_switch/proxy_server/CMakeFiles/light_switch_proxy_server_nrf52840_xxAA_s140_6.0.0.dir/__/__/__/mesh/core/src/log.c.obj
 .comment       0x0000007f       0x80 examples/light_switch/proxy_server/CMakeFiles/light_switch_proxy_server_nrf52840_xxAA_s140_6.0.0.dir/__/__/__/mesh/core/src/flash_manager.c.obj
 .comment       0x0000007f       0x80 examples/light_switch/proxy_server/CMakeFiles/light_switch_proxy_server_nrf52840_xxAA_s140_6.0.0.dir/__/__/__/mesh/core/src/ccm_soft.c.obj
 .comment       0x0000007f       0x80 examples/light_switch/proxy_server/CMakeFiles/light_switch_proxy_server_nrf52840_xxAA_s140_6.0.0.dir/__/__/__/mesh/core/src/replay_cache.c.obj
 .comment       0x0000007f       0x80 examples/light_switch/proxy_server/CMakeFiles/light_switch_proxy_server_nrf52840_xxAA_s140_6.0.0.dir/__/__/__/mesh/core/src/beacon.c.obj
 .comment       0x0000007f       0x80 examples/light_switch/proxy_server/CMakeFiles/light_switch_proxy_server_nrf52840_xxAA_s140_6.0.0.dir/__/__/__/mesh/core/src/flash_manager_internal.c.obj
 .comment       0x0000007f       0x80 examples/light_switch/proxy_server/CMakeFiles/light_switch_proxy_server_nrf52840_xxAA_s140_6.0.0.dir/__/__/__/mesh/core/src/core_tx.c.obj
 .comment       0x0000007f       0x80 examples/light_switch/proxy_server/CMakeFiles/light_switch_proxy_server_nrf52840_xxAA_s140_6.0.0.dir/__/__/__/mesh/core/src/heartbeat.c.obj
 .comment       0x0000007f       0x80 examples/light_switch/proxy_server/CMakeFiles/light_switch_proxy_server_nrf52840_xxAA_s140_6.0.0.dir/__/__/__/mesh/core/src/net_beacon.c.obj
 .comment       0x0000007f       0x80 examples/light_switch/proxy_server/CMakeFiles/light_switch_proxy_server_nrf52840_xxAA_s140_6.0.0.dir/__/__/__/mesh/core/src/fsm.c.obj
 .comment       0x0000007f       0x80 examples/light_switch/proxy_server/CMakeFiles/light_switch_proxy_server_nrf52840_xxAA_s140_6.0.0.dir/__/__/__/mesh/core/src/core_tx_adv.c.obj
 .comment       0x0000007f       0x80 examples/light_switch/proxy_server/CMakeFiles/light_switch_proxy_server_nrf52840_xxAA_s140_6.0.0.dir/__/__/__/mesh/bearer/src/ad_listener.c.obj
 .comment       0x0000007f       0x80 examples/light_switch/proxy_server/CMakeFiles/light_switch_proxy_server_nrf52840_xxAA_s140_6.0.0.dir/__/__/__/mesh/bearer/src/ad_type_filter.c.obj
 .comment       0x0000007f       0x80 examples/light_switch/proxy_server/CMakeFiles/light_switch_proxy_server_nrf52840_xxAA_s140_6.0.0.dir/__/__/__/mesh/bearer/src/advertiser.c.obj
 .comment       0x0000007f       0x80 examples/light_switch/proxy_server/CMakeFiles/light_switch_proxy_server_nrf52840_xxAA_s140_6.0.0.dir/__/__/__/mesh/bearer/src/bearer_handler.c.obj
 .comment       0x0000007f       0x80 examples/light_switch/proxy_server/CMakeFiles/light_switch_proxy_server_nrf52840_xxAA_s140_6.0.0.dir/__/__/__/mesh/bearer/src/broadcast.c.obj
 .comment       0x0000007f       0x80 examples/light_switch/proxy_server/CMakeFiles/light_switch_proxy_server_nrf52840_xxAA_s140_6.0.0.dir/__/__/__/mesh/bearer/src/filter_engine.c.obj
 .comment       0x0000007f       0x80 examples/light_switch/proxy_server/CMakeFiles/light_switch_proxy_server_nrf52840_xxAA_s140_6.0.0.dir/__/__/__/mesh/bearer/src/radio_config.c.obj
 .comment       0x0000007f       0x80 examples/light_switch/proxy_server/CMakeFiles/light_switch_proxy_server_nrf52840_xxAA_s140_6.0.0.dir/__/__/__/mesh/bearer/src/scanner.c.obj
 .comment       0x0000007f       0x80 examples/light_switch/proxy_server/CMakeFiles/light_switch_proxy_server_nrf52840_xxAA_s140_6.0.0.dir/__/__/__/mesh/gatt/src/mesh_gatt.c.obj
 .comment       0x0000007f       0x80 examples/light_switch/proxy_server/CMakeFiles/light_switch_proxy_server_nrf52840_xxAA_s140_6.0.0.dir/__/__/__/mesh/gatt/src/proxy.c.obj
 .comment       0x0000007f       0x80 examples/light_switch/proxy_server/CMakeFiles/light_switch_proxy_server_nrf52840_xxAA_s140_6.0.0.dir/__/__/__/mesh/gatt/src/proxy_filter.c.obj
 .comment       0x0000007f       0x80 examples/light_switch/proxy_server/CMakeFiles/light_switch_proxy_server_nrf52840_xxAA_s140_6.0.0.dir/__/__/__/models/simple_on_off/src/simple_on_off_server.c.obj
 .comment       0x0000007f       0x80 examples/light_switch/proxy_server/CMakeFiles/light_switch_proxy_server_nrf52840_xxAA_s140_6.0.0.dir/__/__/__/models/config/src/composition_data.c.obj
 .comment       0x0000007f       0x80 examples/light_switch/proxy_server/CMakeFiles/light_switch_proxy_server_nrf52840_xxAA_s140_6.0.0.dir/__/__/__/models/config/src/config_server.c.obj
 .comment       0x0000007f       0x80 examples/light_switch/proxy_server/CMakeFiles/light_switch_proxy_server_nrf52840_xxAA_s140_6.0.0.dir/__/__/__/models/config/src/packed_index_list.c.obj
 .comment       0x0000007f       0x80 examples/light_switch/proxy_server/CMakeFiles/light_switch_proxy_server_nrf52840_xxAA_s140_6.0.0.dir/__/__/__/models/health/src/health_server.c.obj
 .comment       0x0000007f       0x80 examples/light_switch/proxy_server/CMakeFiles/light_switch_proxy_server_nrf52840_xxAA_s140_6.0.0.dir/__/__/__/mesh/access/src/access_publish.c.obj
 .comment       0x0000007f       0x80 examples/light_switch/proxy_server/CMakeFiles/light_switch_proxy_server_nrf52840_xxAA_s140_6.0.0.dir/__/__/__/mesh/access/src/access.c.obj
 .comment       0x0000007f       0x80 examples/light_switch/proxy_server/CMakeFiles/light_switch_proxy_server_nrf52840_xxAA_s140_6.0.0.dir/__/__/__/mesh/access/src/access_reliable.c.obj
 .comment       0x0000007f       0x80 examples/light_switch/proxy_server/CMakeFiles/light_switch_proxy_server_nrf52840_xxAA_s140_6.0.0.dir/__/__/__/mesh/access/src/device_state_manager.c.obj
 .comment       0x0000007f       0x80 examples/light_switch/proxy_server/CMakeFiles/light_switch_proxy_server_nrf52840_xxAA_s140_6.0.0.dir/__/__/__/mesh/prov/src/prov_provisionee.c.obj
 .comment       0x0000007f       0x80 examples/light_switch/proxy_server/CMakeFiles/light_switch_proxy_server_nrf52840_xxAA_s140_6.0.0.dir/__/__/__/mesh/prov/src/nrf_mesh_prov.c.obj
 .comment       0x0000007f       0x80 examples/light_switch/proxy_server/CMakeFiles/light_switch_proxy_server_nrf52840_xxAA_s140_6.0.0.dir/__/__/__/mesh/prov/src/provisioning.c.obj
 .comment       0x0000007f       0x80 examples/light_switch/proxy_server/CMakeFiles/light_switch_proxy_server_nrf52840_xxAA_s140_6.0.0.dir/__/__/__/mesh/prov/src/prov_beacon.c.obj
 .comment       0x0000007f       0x80 examples/light_switch/proxy_server/CMakeFiles/light_switch_proxy_server_nrf52840_xxAA_s140_6.0.0.dir/__/__/__/mesh/prov/src/prov_utils.c.obj
 .comment       0x0000007f       0x80 examples/light_switch/proxy_server/CMakeFiles/light_switch_proxy_server_nrf52840_xxAA_s140_6.0.0.dir/__/__/__/mesh/prov/src/prov_bearer_adv.c.obj
 .comment       0x0000007f       0x80 examples/light_switch/proxy_server/CMakeFiles/light_switch_proxy_server_nrf52840_xxAA_s140_6.0.0.dir/C_/ver/mod/nRF5_SDK_15.0.0_a53641a/modules/nrfx/mdk/system_nrf52840.c.obj
 .comment       0x0000007f       0x80 examples/light_switch/proxy_server/CMakeFiles/light_switch_proxy_server_nrf52840_xxAA_s140_6.0.0.dir/C_/ver/mod/nRF5_SDK_15.0.0_a53641a/components/libraries/util/app_error.c.obj
 .comment       0x0000007f       0x80 examples/light_switch/proxy_server/CMakeFiles/light_switch_proxy_server_nrf52840_xxAA_s140_6.0.0.dir/C_/ver/mod/nRF5_SDK_15.0.0_a53641a/components/libraries/util/app_error_handler_gcc.c.obj
 .comment       0x0000007f       0x80 external/rtt/librtt_nrf52840_xxAA.a(SEGGER_RTT.c.obj)
 .comment       0x0000007f       0x80 external/rtt/librtt_nrf52840_xxAA.a(SEGGER_RTT_printf.c.obj)
 .comment       0x0000007f       0x80 external/micro-ecc/libuECC_nrf52840_xxAA.a(uECC.c.obj)

.debug_info     0x00000000    0x949d5
 .debug_info    0x00000000     0x2e07 examples/light_switch/proxy_server/CMakeFiles/light_switch_proxy_server_nrf52840_xxAA_s140_6.0.0.dir/src/main.c.obj
 .debug_info    0x00002e07     0x2349 examples/light_switch/proxy_server/CMakeFiles/light_switch_proxy_server_nrf52840_xxAA_s140_6.0.0.dir/__/__/__/mesh/stack/src/mesh_stack.c.obj
 .debug_info    0x00005150     0x28cb examples/light_switch/proxy_server/CMakeFiles/light_switch_proxy_server_nrf52840_xxAA_s140_6.0.0.dir/__/__/common/src/mesh_provisionee.c.obj
 .debug_info    0x00007a1b     0x1193 examples/light_switch/proxy_server/CMakeFiles/light_switch_proxy_server_nrf52840_xxAA_s140_6.0.0.dir/__/__/common/src/rtt_input.c.obj
 .debug_info    0x00008bae     0x1590 examples/light_switch/proxy_server/CMakeFiles/light_switch_proxy_server_nrf52840_xxAA_s140_6.0.0.dir/__/__/common/src/simple_hal.c.obj
 .debug_info    0x0000a13e      0xde7 examples/light_switch/proxy_server/CMakeFiles/light_switch_proxy_server_nrf52840_xxAA_s140_6.0.0.dir/__/__/common/src/mesh_app_utils.c.obj
 .debug_info    0x0000af25     0x12ff examples/light_switch/proxy_server/CMakeFiles/light_switch_proxy_server_nrf52840_xxAA_s140_6.0.0.dir/__/__/common/src/mesh_adv.c.obj
 .debug_info    0x0000c224     0x1e26 examples/light_switch/proxy_server/CMakeFiles/light_switch_proxy_server_nrf52840_xxAA_s140_6.0.0.dir/__/__/__/mesh/prov/src/nrf_mesh_prov_bearer_gatt.c.obj
 .debug_info    0x0000e04a     0x11bd examples/light_switch/proxy_server/CMakeFiles/light_switch_proxy_server_nrf52840_xxAA_s140_6.0.0.dir/C_/ver/mod/nRF5_SDK_15.0.0_a53641a/components/libraries/util/app_util_platform.c.obj
 .debug_info    0x0000f207     0x1fb1 examples/light_switch/proxy_server/CMakeFiles/light_switch_proxy_server_nrf52840_xxAA_s140_6.0.0.dir/C_/ver/mod/nRF5_SDK_15.0.0_a53641a/components/ble/common/ble_advdata.c.obj
 .debug_info    0x000111b8      0xa20 examples/light_switch/proxy_server/CMakeFiles/light_switch_proxy_server_nrf52840_xxAA_s140_6.0.0.dir/C_/ver/mod/nRF5_SDK_15.0.0_a53641a/components/libraries/experimental_section_vars/nrf_section_iter.c.obj
 .debug_info    0x00011bd8     0x18ac examples/light_switch/proxy_server/CMakeFiles/light_switch_proxy_server_nrf52840_xxAA_s140_6.0.0.dir/C_/ver/mod/nRF5_SDK_15.0.0_a53641a/components/softdevice/common/nrf_sdh.c.obj
 .debug_info    0x00013484      0xda4 examples/light_switch/proxy_server/CMakeFiles/light_switch_proxy_server_nrf52840_xxAA_s140_6.0.0.dir/C_/ver/mod/nRF5_SDK_15.0.0_a53641a/components/softdevice/common/nrf_sdh_soc.c.obj
 .debug_info    0x00014228     0x2b98 examples/light_switch/proxy_server/CMakeFiles/light_switch_proxy_server_nrf52840_xxAA_s140_6.0.0.dir/C_/ver/mod/nRF5_SDK_15.0.0_a53641a/components/softdevice/common/nrf_sdh_ble.c.obj
 .debug_info    0x00016dc0      0x924 examples/light_switch/proxy_server/CMakeFiles/light_switch_proxy_server_nrf52840_xxAA_s140_6.0.0.dir/__/__/nrf_mesh_weak.c.obj
 .debug_info    0x000176e4     0x106b examples/light_switch/proxy_server/CMakeFiles/light_switch_proxy_server_nrf52840_xxAA_s140_6.0.0.dir/__/__/common/src/app_error_weak.c.obj
 .debug_info    0x0001874f      0x99b examples/light_switch/proxy_server/CMakeFiles/light_switch_proxy_server_nrf52840_xxAA_s140_6.0.0.dir/__/__/common/src/assertion_handler_weak.c.obj
 .debug_info    0x000190ea      0xdff examples/light_switch/proxy_server/CMakeFiles/light_switch_proxy_server_nrf52840_xxAA_s140_6.0.0.dir/__/__/__/mesh/core/src/nrf_mesh_configure.c.obj
 .debug_info    0x00019ee9      0xbf0 examples/light_switch/proxy_server/CMakeFiles/light_switch_proxy_server_nrf52840_xxAA_s140_6.0.0.dir/__/__/__/mesh/core/src/aes.c.obj
 .debug_info    0x0001aad9      0xa5a examples/light_switch/proxy_server/CMakeFiles/light_switch_proxy_server_nrf52840_xxAA_s140_6.0.0.dir/__/__/__/mesh/core/src/msg_cache.c.obj
 .debug_info    0x0001b533     0x5093 examples/light_switch/proxy_server/CMakeFiles/light_switch_proxy_server_nrf52840_xxAA_s140_6.0.0.dir/__/__/__/mesh/core/src/transport.c.obj
 .debug_info    0x000205c6     0x172c examples/light_switch/proxy_server/CMakeFiles/light_switch_proxy_server_nrf52840_xxAA_s140_6.0.0.dir/__/__/__/mesh/core/src/event.c.obj
 .debug_info    0x00021cf2     0x1a22 examples/light_switch/proxy_server/CMakeFiles/light_switch_proxy_server_nrf52840_xxAA_s140_6.0.0.dir/__/__/__/mesh/core/src/packet_buffer.c.obj
 .debug_info    0x00023714     0x212b examples/light_switch/proxy_server/CMakeFiles/light_switch_proxy_server_nrf52840_xxAA_s140_6.0.0.dir/__/__/__/mesh/core/src/flash_manager_defrag.c.obj
 .debug_info    0x0002583f      0xd19 examples/light_switch/proxy_server/CMakeFiles/light_switch_proxy_server_nrf52840_xxAA_s140_6.0.0.dir/__/__/__/mesh/core/src/fifo.c.obj
 .debug_info    0x00026558      0xb58 examples/light_switch/proxy_server/CMakeFiles/light_switch_proxy_server_nrf52840_xxAA_s140_6.0.0.dir/__/__/__/mesh/core/src/nrf_flash.c.obj
 .debug_info    0x000270b0     0x118d examples/light_switch/proxy_server/CMakeFiles/light_switch_proxy_server_nrf52840_xxAA_s140_6.0.0.dir/__/__/__/mesh/core/src/packet_mgr.c.obj
 .debug_info    0x0002823d     0x27fa examples/light_switch/proxy_server/CMakeFiles/light_switch_proxy_server_nrf52840_xxAA_s140_6.0.0.dir/__/__/__/mesh/core/src/net_state.c.obj
 .debug_info    0x0002aa37     0x1931 examples/light_switch/proxy_server/CMakeFiles/light_switch_proxy_server_nrf52840_xxAA_s140_6.0.0.dir/__/__/__/mesh/core/src/mesh_flash.c.obj
 .debug_info    0x0002c368      0xa78 examples/light_switch/proxy_server/CMakeFiles/light_switch_proxy_server_nrf52840_xxAA_s140_6.0.0.dir/__/__/__/mesh/core/src/nrf_mesh_utils.c.obj
 .debug_info    0x0002cde0     0x25d3 examples/light_switch/proxy_server/CMakeFiles/light_switch_proxy_server_nrf52840_xxAA_s140_6.0.0.dir/__/__/__/mesh/core/src/nrf_mesh.c.obj
 .debug_info    0x0002f3b3      0xb11 examples/light_switch/proxy_server/CMakeFiles/light_switch_proxy_server_nrf52840_xxAA_s140_6.0.0.dir/__/__/__/mesh/core/src/queue.c.obj
 .debug_info    0x0002fec4      0x51a examples/light_switch/proxy_server/CMakeFiles/light_switch_proxy_server_nrf52840_xxAA_s140_6.0.0.dir/__/__/__/mesh/core/src/hal.c.obj
 .debug_info    0x000303de      0xe48 examples/light_switch/proxy_server/CMakeFiles/light_switch_proxy_server_nrf52840_xxAA_s140_6.0.0.dir/__/__/__/mesh/core/src/aes_cmac.c.obj
 .debug_info    0x00031226     0x10e0 examples/light_switch/proxy_server/CMakeFiles/light_switch_proxy_server_nrf52840_xxAA_s140_6.0.0.dir/__/__/__/mesh/core/src/timer_scheduler.c.obj
 .debug_info    0x00032306      0xdb4 examples/light_switch/proxy_server/CMakeFiles/light_switch_proxy_server_nrf52840_xxAA_s140_6.0.0.dir/__/__/__/mesh/core/src/timer.c.obj
 .debug_info    0x000330ba      0x20b examples/light_switch/proxy_server/CMakeFiles/light_switch_proxy_server_nrf52840_xxAA_s140_6.0.0.dir/__/__/__/mesh/core/src/ticker.c.obj
 .debug_info    0x000332c5      0x426 examples/light_switch/proxy_server/CMakeFiles/light_switch_proxy_server_nrf52840_xxAA_s140_6.0.0.dir/__/__/__/mesh/core/src/rand.c.obj
 .debug_info    0x000336eb      0xaf5 examples/light_switch/proxy_server/CMakeFiles/light_switch_proxy_server_nrf52840_xxAA_s140_6.0.0.dir/__/__/__/mesh/core/src/nrf_mesh_opt.c.obj
 .debug_info    0x000341e0     0x1a71 examples/light_switch/proxy_server/CMakeFiles/light_switch_proxy_server_nrf52840_xxAA_s140_6.0.0.dir/__/__/__/mesh/core/src/timeslot.c.obj
 .debug_info    0x00035c51     0x1a9c examples/light_switch/proxy_server/CMakeFiles/light_switch_proxy_server_nrf52840_xxAA_s140_6.0.0.dir/__/__/__/mesh/core/src/bearer_event.c.obj
 .debug_info    0x000376ed     0x1703 examples/light_switch/proxy_server/CMakeFiles/light_switch_proxy_server_nrf52840_xxAA_s140_6.0.0.dir/__/__/__/mesh/core/src/enc.c.obj
 .debug_info    0x00038df0     0x1af0 examples/light_switch/proxy_server/CMakeFiles/light_switch_proxy_server_nrf52840_xxAA_s140_6.0.0.dir/__/__/__/mesh/core/src/network.c.obj
 .debug_info    0x0003a8e0     0x1cad examples/light_switch/proxy_server/CMakeFiles/light_switch_proxy_server_nrf52840_xxAA_s140_6.0.0.dir/__/__/__/mesh/core/src/net_packet.c.obj
 .debug_info    0x0003c58d      0xd86 examples/light_switch/proxy_server/CMakeFiles/light_switch_proxy_server_nrf52840_xxAA_s140_6.0.0.dir/__/__/__/mesh/core/src/msqueue.c.obj
 .debug_info    0x0003d313      0x4d4 examples/light_switch/proxy_server/CMakeFiles/light_switch_proxy_server_nrf52840_xxAA_s140_6.0.0.dir/__/__/__/mesh/core/src/nrf_mesh_keygen.c.obj
 .debug_info    0x0003d7e7      0xbe1 examples/light_switch/proxy_server/CMakeFiles/light_switch_proxy_server_nrf52840_xxAA_s140_6.0.0.dir/__/__/__/mesh/core/src/cache.c.obj
 .debug_info    0x0003e3c8      0x506 examples/light_switch/proxy_server/CMakeFiles/light_switch_proxy_server_nrf52840_xxAA_s140_6.0.0.dir/__/__/__/mesh/core/src/list.c.obj
 .debug_info    0x0003e8ce      0xe28 examples/light_switch/proxy_server/CMakeFiles/light_switch_proxy_server_nrf52840_xxAA_s140_6.0.0.dir/__/__/__/mesh/core/src/log.c.obj
 .debug_info    0x0003f6f6     0x3024 examples/light_switch/proxy_server/CMakeFiles/light_switch_proxy_server_nrf52840_xxAA_s140_6.0.0.dir/__/__/__/mesh/core/src/flash_manager.c.obj
 .debug_info    0x0004271a     0x10a3 examples/light_switch/proxy_server/CMakeFiles/light_switch_proxy_server_nrf52840_xxAA_s140_6.0.0.dir/__/__/__/mesh/core/src/ccm_soft.c.obj
 .debug_info    0x000437bd      0xa93 examples/light_switch/proxy_server/CMakeFiles/light_switch_proxy_server_nrf52840_xxAA_s140_6.0.0.dir/__/__/__/mesh/core/src/replay_cache.c.obj
 .debug_info    0x00044250     0x177f examples/light_switch/proxy_server/CMakeFiles/light_switch_proxy_server_nrf52840_xxAA_s140_6.0.0.dir/__/__/__/mesh/core/src/beacon.c.obj
 .debug_info    0x000459cf      0xb9b examples/light_switch/proxy_server/CMakeFiles/light_switch_proxy_server_nrf52840_xxAA_s140_6.0.0.dir/__/__/__/mesh/core/src/flash_manager_internal.c.obj
 .debug_info    0x0004656a     0x126f examples/light_switch/proxy_server/CMakeFiles/light_switch_proxy_server_nrf52840_xxAA_s140_6.0.0.dir/__/__/__/mesh/core/src/core_tx.c.obj
 .debug_info    0x000477d9     0x24e5 examples/light_switch/proxy_server/CMakeFiles/light_switch_proxy_server_nrf52840_xxAA_s140_6.0.0.dir/__/__/__/mesh/core/src/heartbeat.c.obj
 .debug_info    0x00049cbe     0x28b9 examples/light_switch/proxy_server/CMakeFiles/light_switch_proxy_server_nrf52840_xxAA_s140_6.0.0.dir/__/__/__/mesh/core/src/net_beacon.c.obj
 .debug_info    0x0004c577     0x132d examples/light_switch/proxy_server/CMakeFiles/light_switch_proxy_server_nrf52840_xxAA_s140_6.0.0.dir/__/__/__/mesh/core/src/fsm.c.obj
 .debug_info    0x0004d8a4     0x197b examples/light_switch/proxy_server/CMakeFiles/light_switch_proxy_server_nrf52840_xxAA_s140_6.0.0.dir/__/__/__/mesh/core/src/core_tx_adv.c.obj
 .debug_info    0x0004f21f     0x1164 examples/light_switch/proxy_server/CMakeFiles/light_switch_proxy_server_nrf52840_xxAA_s140_6.0.0.dir/__/__/__/mesh/bearer/src/ad_listener.c.obj
 .debug_info    0x00050383      0xfbe examples/light_switch/proxy_server/CMakeFiles/light_switch_proxy_server_nrf52840_xxAA_s140_6.0.0.dir/__/__/__/mesh/bearer/src/ad_type_filter.c.obj
 .debug_info    0x00051341     0x267f examples/light_switch/proxy_server/CMakeFiles/light_switch_proxy_server_nrf52840_xxAA_s140_6.0.0.dir/__/__/__/mesh/bearer/src/advertiser.c.obj
 .debug_info    0x000539c0     0x1b53 examples/light_switch/proxy_server/CMakeFiles/light_switch_proxy_server_nrf52840_xxAA_s140_6.0.0.dir/__/__/__/mesh/bearer/src/bearer_handler.c.obj
 .debug_info    0x00055513     0x1af7 examples/light_switch/proxy_server/CMakeFiles/light_switch_proxy_server_nrf52840_xxAA_s140_6.0.0.dir/__/__/__/mesh/bearer/src/broadcast.c.obj
 .debug_info    0x0005700a      0xcff examples/light_switch/proxy_server/CMakeFiles/light_switch_proxy_server_nrf52840_xxAA_s140_6.0.0.dir/__/__/__/mesh/bearer/src/filter_engine.c.obj
 .debug_info    0x00057d09      0xa35 examples/light_switch/proxy_server/CMakeFiles/light_switch_proxy_server_nrf52840_xxAA_s140_6.0.0.dir/__/__/__/mesh/bearer/src/radio_config.c.obj
 .debug_info    0x0005873e     0x27a3 examples/light_switch/proxy_server/CMakeFiles/light_switch_proxy_server_nrf52840_xxAA_s140_6.0.0.dir/__/__/__/mesh/bearer/src/scanner.c.obj
 .debug_info    0x0005aee1     0x4612 examples/light_switch/proxy_server/CMakeFiles/light_switch_proxy_server_nrf52840_xxAA_s140_6.0.0.dir/__/__/__/mesh/gatt/src/mesh_gatt.c.obj
 .debug_info    0x0005f4f3     0x40fd examples/light_switch/proxy_server/CMakeFiles/light_switch_proxy_server_nrf52840_xxAA_s140_6.0.0.dir/__/__/__/mesh/gatt/src/proxy.c.obj
 .debug_info    0x000635f0      0x46f examples/light_switch/proxy_server/CMakeFiles/light_switch_proxy_server_nrf52840_xxAA_s140_6.0.0.dir/__/__/__/mesh/gatt/src/proxy_filter.c.obj
 .debug_info    0x00063a5f      0xb6c examples/light_switch/proxy_server/CMakeFiles/light_switch_proxy_server_nrf52840_xxAA_s140_6.0.0.dir/__/__/__/models/simple_on_off/src/simple_on_off_server.c.obj
 .debug_info    0x000645cb      0xed3 examples/light_switch/proxy_server/CMakeFiles/light_switch_proxy_server_nrf52840_xxAA_s140_6.0.0.dir/__/__/__/models/config/src/composition_data.c.obj
 .debug_info    0x0006549e     0x8bb9 examples/light_switch/proxy_server/CMakeFiles/light_switch_proxy_server_nrf52840_xxAA_s140_6.0.0.dir/__/__/__/models/config/src/config_server.c.obj
 .debug_info    0x0006e057      0x126 examples/light_switch/proxy_server/CMakeFiles/light_switch_proxy_server_nrf52840_xxAA_s140_6.0.0.dir/__/__/__/models/config/src/packed_index_list.c.obj
 .debug_info    0x0006e17d     0x270a examples/light_switch/proxy_server/CMakeFiles/light_switch_proxy_server_nrf52840_xxAA_s140_6.0.0.dir/__/__/__/models/health/src/health_server.c.obj
 .debug_info    0x00070887     0x1155 examples/light_switch/proxy_server/CMakeFiles/light_switch_proxy_server_nrf52840_xxAA_s140_6.0.0.dir/__/__/__/mesh/access/src/access_publish.c.obj
 .debug_info    0x000719dc     0x49f1 examples/light_switch/proxy_server/CMakeFiles/light_switch_proxy_server_nrf52840_xxAA_s140_6.0.0.dir/__/__/__/mesh/access/src/access.c.obj
 .debug_info    0x000763cd     0x19db examples/light_switch/proxy_server/CMakeFiles/light_switch_proxy_server_nrf52840_xxAA_s140_6.0.0.dir/__/__/__/mesh/access/src/access_reliable.c.obj
 .debug_info    0x00077da8     0x6679 examples/light_switch/proxy_server/CMakeFiles/light_switch_proxy_server_nrf52840_xxAA_s140_6.0.0.dir/__/__/__/mesh/access/src/device_state_manager.c.obj
 .debug_info    0x0007e421     0x2823 examples/light_switch/proxy_server/CMakeFiles/light_switch_proxy_server_nrf52840_xxAA_s140_6.0.0.dir/__/__/__/mesh/prov/src/prov_provisionee.c.obj
 .debug_info    0x00080c44     0x1ed2 examples/light_switch/proxy_server/CMakeFiles/light_switch_proxy_server_nrf52840_xxAA_s140_6.0.0.dir/__/__/__/mesh/prov/src/nrf_mesh_prov.c.obj
 .debug_info    0x00082b16     0x1586 examples/light_switch/proxy_server/CMakeFiles/light_switch_proxy_server_nrf52840_xxAA_s140_6.0.0.dir/__/__/__/mesh/prov/src/provisioning.c.obj
 .debug_info    0x0008409c     0x1a48 examples/light_switch/proxy_server/CMakeFiles/light_switch_proxy_server_nrf52840_xxAA_s140_6.0.0.dir/__/__/__/mesh/prov/src/prov_beacon.c.obj
 .debug_info    0x00085ae4     0x2054 examples/light_switch/proxy_server/CMakeFiles/light_switch_proxy_server_nrf52840_xxAA_s140_6.0.0.dir/__/__/__/mesh/prov/src/prov_utils.c.obj
 .debug_info    0x00087b38     0x3ab2 examples/light_switch/proxy_server/CMakeFiles/light_switch_proxy_server_nrf52840_xxAA_s140_6.0.0.dir/__/__/__/mesh/prov/src/prov_bearer_adv.c.obj
 .debug_info    0x0008b5ea     0x139f examples/light_switch/proxy_server/CMakeFiles/light_switch_proxy_server_nrf52840_xxAA_s140_6.0.0.dir/C_/ver/mod/nRF5_SDK_15.0.0_a53641a/modules/nrfx/mdk/system_nrf52840.c.obj
 .debug_info    0x0008c989      0xaee examples/light_switch/proxy_server/CMakeFiles/light_switch_proxy_server_nrf52840_xxAA_s140_6.0.0.dir/C_/ver/mod/nRF5_SDK_15.0.0_a53641a/components/libraries/util/app_error.c.obj
 .debug_info    0x0008d477      0x974 examples/light_switch/proxy_server/CMakeFiles/light_switch_proxy_server_nrf52840_xxAA_s140_6.0.0.dir/C_/ver/mod/nRF5_SDK_15.0.0_a53641a/components/libraries/util/app_error_handler_gcc.c.obj
 .debug_info    0x0008ddeb     0x1818 external/rtt/librtt_nrf52840_xxAA.a(SEGGER_RTT.c.obj)
 .debug_info    0x0008f603      0xec1 external/rtt/librtt_nrf52840_xxAA.a(SEGGER_RTT_printf.c.obj)
 .debug_info    0x000904c4     0x4511 external/micro-ecc/libuECC_nrf52840_xxAA.a(uECC.c.obj)

.debug_abbrev   0x00000000    0x13629
 .debug_abbrev  0x00000000      0x54b examples/light_switch/proxy_server/CMakeFiles/light_switch_proxy_server_nrf52840_xxAA_s140_6.0.0.dir/src/main.c.obj
 .debug_abbrev  0x0000054b      0x36b examples/light_switch/proxy_server/CMakeFiles/light_switch_proxy_server_nrf52840_xxAA_s140_6.0.0.dir/__/__/__/mesh/stack/src/mesh_stack.c.obj
 .debug_abbrev  0x000008b6      0x359 examples/light_switch/proxy_server/CMakeFiles/light_switch_proxy_server_nrf52840_xxAA_s140_6.0.0.dir/__/__/common/src/mesh_provisionee.c.obj
 .debug_abbrev  0x00000c0f      0x2b8 examples/light_switch/proxy_server/CMakeFiles/light_switch_proxy_server_nrf52840_xxAA_s140_6.0.0.dir/__/__/common/src/rtt_input.c.obj
 .debug_abbrev  0x00000ec7      0x36b examples/light_switch/proxy_server/CMakeFiles/light_switch_proxy_server_nrf52840_xxAA_s140_6.0.0.dir/__/__/common/src/simple_hal.c.obj
 .debug_abbrev  0x00001232      0x22a examples/light_switch/proxy_server/CMakeFiles/light_switch_proxy_server_nrf52840_xxAA_s140_6.0.0.dir/__/__/common/src/mesh_app_utils.c.obj
 .debug_abbrev  0x0000145c      0x2da examples/light_switch/proxy_server/CMakeFiles/light_switch_proxy_server_nrf52840_xxAA_s140_6.0.0.dir/__/__/common/src/mesh_adv.c.obj
 .debug_abbrev  0x00001736      0x44c examples/light_switch/proxy_server/CMakeFiles/light_switch_proxy_server_nrf52840_xxAA_s140_6.0.0.dir/__/__/__/mesh/prov/src/nrf_mesh_prov_bearer_gatt.c.obj
 .debug_abbrev  0x00001b82      0x35b examples/light_switch/proxy_server/CMakeFiles/light_switch_proxy_server_nrf52840_xxAA_s140_6.0.0.dir/C_/ver/mod/nRF5_SDK_15.0.0_a53641a/components/libraries/util/app_util_platform.c.obj
 .debug_abbrev  0x00001edd      0x432 examples/light_switch/proxy_server/CMakeFiles/light_switch_proxy_server_nrf52840_xxAA_s140_6.0.0.dir/C_/ver/mod/nRF5_SDK_15.0.0_a53641a/components/ble/common/ble_advdata.c.obj
 .debug_abbrev  0x0000230f      0x1d5 examples/light_switch/proxy_server/CMakeFiles/light_switch_proxy_server_nrf52840_xxAA_s140_6.0.0.dir/C_/ver/mod/nRF5_SDK_15.0.0_a53641a/components/libraries/experimental_section_vars/nrf_section_iter.c.obj
 .debug_abbrev  0x000024e4      0x4cf examples/light_switch/proxy_server/CMakeFiles/light_switch_proxy_server_nrf52840_xxAA_s140_6.0.0.dir/C_/ver/mod/nRF5_SDK_15.0.0_a53641a/components/softdevice/common/nrf_sdh.c.obj
 .debug_abbrev  0x000029b3      0x2a5 examples/light_switch/proxy_server/CMakeFiles/light_switch_proxy_server_nrf52840_xxAA_s140_6.0.0.dir/C_/ver/mod/nRF5_SDK_15.0.0_a53641a/components/softdevice/common/nrf_sdh_soc.c.obj
 .debug_abbrev  0x00002c58      0x3d6 examples/light_switch/proxy_server/CMakeFiles/light_switch_proxy_server_nrf52840_xxAA_s140_6.0.0.dir/C_/ver/mod/nRF5_SDK_15.0.0_a53641a/components/softdevice/common/nrf_sdh_ble.c.obj
 .debug_abbrev  0x0000302e      0x1ae examples/light_switch/proxy_server/CMakeFiles/light_switch_proxy_server_nrf52840_xxAA_s140_6.0.0.dir/__/__/nrf_mesh_weak.c.obj
 .debug_abbrev  0x000031dc      0x2de examples/light_switch/proxy_server/CMakeFiles/light_switch_proxy_server_nrf52840_xxAA_s140_6.0.0.dir/__/__/common/src/app_error_weak.c.obj
 .debug_abbrev  0x000034ba      0x1f6 examples/light_switch/proxy_server/CMakeFiles/light_switch_proxy_server_nrf52840_xxAA_s140_6.0.0.dir/__/__/common/src/assertion_handler_weak.c.obj
 .debug_abbrev  0x000036b0      0x254 examples/light_switch/proxy_server/CMakeFiles/light_switch_proxy_server_nrf52840_xxAA_s140_6.0.0.dir/__/__/__/mesh/core/src/nrf_mesh_configure.c.obj
 .debug_abbrev  0x00003904      0x264 examples/light_switch/proxy_server/CMakeFiles/light_switch_proxy_server_nrf52840_xxAA_s140_6.0.0.dir/__/__/__/mesh/core/src/aes.c.obj
 .debug_abbrev  0x00003b68      0x25d examples/light_switch/proxy_server/CMakeFiles/light_switch_proxy_server_nrf52840_xxAA_s140_6.0.0.dir/__/__/__/mesh/core/src/msg_cache.c.obj
 .debug_abbrev  0x00003dc5      0x5e8 examples/light_switch/proxy_server/CMakeFiles/light_switch_proxy_server_nrf52840_xxAA_s140_6.0.0.dir/__/__/__/mesh/core/src/transport.c.obj
 .debug_abbrev  0x000043ad      0x2be examples/light_switch/proxy_server/CMakeFiles/light_switch_proxy_server_nrf52840_xxAA_s140_6.0.0.dir/__/__/__/mesh/core/src/event.c.obj
 .debug_abbrev  0x0000466b      0x468 examples/light_switch/proxy_server/CMakeFiles/light_switch_proxy_server_nrf52840_xxAA_s140_6.0.0.dir/__/__/__/mesh/core/src/packet_buffer.c.obj
 .debug_abbrev  0x00004ad3      0x50e examples/light_switch/proxy_server/CMakeFiles/light_switch_proxy_server_nrf52840_xxAA_s140_6.0.0.dir/__/__/__/mesh/core/src/flash_manager_defrag.c.obj
 .debug_abbrev  0x00004fe1      0x2f2 examples/light_switch/proxy_server/CMakeFiles/light_switch_proxy_server_nrf52840_xxAA_s140_6.0.0.dir/__/__/__/mesh/core/src/fifo.c.obj
 .debug_abbrev  0x000052d3      0x21f examples/light_switch/proxy_server/CMakeFiles/light_switch_proxy_server_nrf52840_xxAA_s140_6.0.0.dir/__/__/__/mesh/core/src/nrf_flash.c.obj
 .debug_abbrev  0x000054f2      0x3b1 examples/light_switch/proxy_server/CMakeFiles/light_switch_proxy_server_nrf52840_xxAA_s140_6.0.0.dir/__/__/__/mesh/core/src/packet_mgr.c.obj
 .debug_abbrev  0x000058a3      0x552 examples/light_switch/proxy_server/CMakeFiles/light_switch_proxy_server_nrf52840_xxAA_s140_6.0.0.dir/__/__/__/mesh/core/src/net_state.c.obj
 .debug_abbrev  0x00005df5      0x453 examples/light_switch/proxy_server/CMakeFiles/light_switch_proxy_server_nrf52840_xxAA_s140_6.0.0.dir/__/__/__/mesh/core/src/mesh_flash.c.obj
 .debug_abbrev  0x00006248      0x242 examples/light_switch/proxy_server/CMakeFiles/light_switch_proxy_server_nrf52840_xxAA_s140_6.0.0.dir/__/__/__/mesh/core/src/nrf_mesh_utils.c.obj
 .debug_abbrev  0x0000648a      0x476 examples/light_switch/proxy_server/CMakeFiles/light_switch_proxy_server_nrf52840_xxAA_s140_6.0.0.dir/__/__/__/mesh/core/src/nrf_mesh.c.obj
 .debug_abbrev  0x00006900      0x247 examples/light_switch/proxy_server/CMakeFiles/light_switch_proxy_server_nrf52840_xxAA_s140_6.0.0.dir/__/__/__/mesh/core/src/queue.c.obj
 .debug_abbrev  0x00006b47      0x1cf examples/light_switch/proxy_server/CMakeFiles/light_switch_proxy_server_nrf52840_xxAA_s140_6.0.0.dir/__/__/__/mesh/core/src/hal.c.obj
 .debug_abbrev  0x00006d16      0x332 examples/light_switch/proxy_server/CMakeFiles/light_switch_proxy_server_nrf52840_xxAA_s140_6.0.0.dir/__/__/__/mesh/core/src/aes_cmac.c.obj
 .debug_abbrev  0x00007048      0x3bc examples/light_switch/proxy_server/CMakeFiles/light_switch_proxy_server_nrf52840_xxAA_s140_6.0.0.dir/__/__/__/mesh/core/src/timer_scheduler.c.obj
 .debug_abbrev  0x00007404      0x337 examples/light_switch/proxy_server/CMakeFiles/light_switch_proxy_server_nrf52840_xxAA_s140_6.0.0.dir/__/__/__/mesh/core/src/timer.c.obj
 .debug_abbrev  0x0000773b      0x152 examples/light_switch/proxy_server/CMakeFiles/light_switch_proxy_server_nrf52840_xxAA_s140_6.0.0.dir/__/__/__/mesh/core/src/ticker.c.obj
 .debug_abbrev  0x0000788d      0x194 examples/light_switch/proxy_server/CMakeFiles/light_switch_proxy_server_nrf52840_xxAA_s140_6.0.0.dir/__/__/__/mesh/core/src/rand.c.obj
 .debug_abbrev  0x00007a21      0x24a examples/light_switch/proxy_server/CMakeFiles/light_switch_proxy_server_nrf52840_xxAA_s140_6.0.0.dir/__/__/__/mesh/core/src/nrf_mesh_opt.c.obj
 .debug_abbrev  0x00007c6b      0x4a4 examples/light_switch/proxy_server/CMakeFiles/light_switch_proxy_server_nrf52840_xxAA_s140_6.0.0.dir/__/__/__/mesh/core/src/timeslot.c.obj
 .debug_abbrev  0x0000810f      0x4b5 examples/light_switch/proxy_server/CMakeFiles/light_switch_proxy_server_nrf52840_xxAA_s140_6.0.0.dir/__/__/__/mesh/core/src/bearer_event.c.obj
 .debug_abbrev  0x000085c4      0x375 examples/light_switch/proxy_server/CMakeFiles/light_switch_proxy_server_nrf52840_xxAA_s140_6.0.0.dir/__/__/__/mesh/core/src/enc.c.obj
 .debug_abbrev  0x00008939      0x496 examples/light_switch/proxy_server/CMakeFiles/light_switch_proxy_server_nrf52840_xxAA_s140_6.0.0.dir/__/__/__/mesh/core/src/network.c.obj
 .debug_abbrev  0x00008dcf      0x4a1 examples/light_switch/proxy_server/CMakeFiles/light_switch_proxy_server_nrf52840_xxAA_s140_6.0.0.dir/__/__/__/mesh/core/src/net_packet.c.obj
 .debug_abbrev  0x00009270      0x2c0 examples/light_switch/proxy_server/CMakeFiles/light_switch_proxy_server_nrf52840_xxAA_s140_6.0.0.dir/__/__/__/mesh/core/src/msqueue.c.obj
 .debug_abbrev  0x00009530      0x156 examples/light_switch/proxy_server/CMakeFiles/light_switch_proxy_server_nrf52840_xxAA_s140_6.0.0.dir/__/__/__/mesh/core/src/nrf_mesh_keygen.c.obj
 .debug_abbrev  0x00009686      0x2a3 examples/light_switch/proxy_server/CMakeFiles/light_switch_proxy_server_nrf52840_xxAA_s140_6.0.0.dir/__/__/__/mesh/core/src/cache.c.obj
 .debug_abbrev  0x00009929      0x1a4 examples/light_switch/proxy_server/CMakeFiles/light_switch_proxy_server_nrf52840_xxAA_s140_6.0.0.dir/__/__/__/mesh/core/src/list.c.obj
 .debug_abbrev  0x00009acd      0x24e examples/light_switch/proxy_server/CMakeFiles/light_switch_proxy_server_nrf52840_xxAA_s140_6.0.0.dir/__/__/__/mesh/core/src/log.c.obj
 .debug_abbrev  0x00009d1b      0x524 examples/light_switch/proxy_server/CMakeFiles/light_switch_proxy_server_nrf52840_xxAA_s140_6.0.0.dir/__/__/__/mesh/core/src/flash_manager.c.obj
 .debug_abbrev  0x0000a23f      0x2b3 examples/light_switch/proxy_server/CMakeFiles/light_switch_proxy_server_nrf52840_xxAA_s140_6.0.0.dir/__/__/__/mesh/core/src/ccm_soft.c.obj
 .debug_abbrev  0x0000a4f2      0x270 examples/light_switch/proxy_server/CMakeFiles/light_switch_proxy_server_nrf52840_xxAA_s140_6.0.0.dir/__/__/__/mesh/core/src/replay_cache.c.obj
 .debug_abbrev  0x0000a762      0x2c4 examples/light_switch/proxy_server/CMakeFiles/light_switch_proxy_server_nrf52840_xxAA_s140_6.0.0.dir/__/__/__/mesh/core/src/beacon.c.obj
 .debug_abbrev  0x0000aa26      0x288 examples/light_switch/proxy_server/CMakeFiles/light_switch_proxy_server_nrf52840_xxAA_s140_6.0.0.dir/__/__/__/mesh/core/src/flash_manager_internal.c.obj
 .debug_abbrev  0x0000acae      0x2ed examples/light_switch/proxy_server/CMakeFiles/light_switch_proxy_server_nrf52840_xxAA_s140_6.0.0.dir/__/__/__/mesh/core/src/core_tx.c.obj
 .debug_abbrev  0x0000af9b      0x4be examples/light_switch/proxy_server/CMakeFiles/light_switch_proxy_server_nrf52840_xxAA_s140_6.0.0.dir/__/__/__/mesh/core/src/heartbeat.c.obj
 .debug_abbrev  0x0000b459      0x4ac examples/light_switch/proxy_server/CMakeFiles/light_switch_proxy_server_nrf52840_xxAA_s140_6.0.0.dir/__/__/__/mesh/core/src/net_beacon.c.obj
 .debug_abbrev  0x0000b905      0x345 examples/light_switch/proxy_server/CMakeFiles/light_switch_proxy_server_nrf52840_xxAA_s140_6.0.0.dir/__/__/__/mesh/core/src/fsm.c.obj
 .debug_abbrev  0x0000bc4a      0x2fa examples/light_switch/proxy_server/CMakeFiles/light_switch_proxy_server_nrf52840_xxAA_s140_6.0.0.dir/__/__/__/mesh/core/src/core_tx_adv.c.obj
 .debug_abbrev  0x0000bf44      0x341 examples/light_switch/proxy_server/CMakeFiles/light_switch_proxy_server_nrf52840_xxAA_s140_6.0.0.dir/__/__/__/mesh/bearer/src/ad_listener.c.obj
 .debug_abbrev  0x0000c285      0x368 examples/light_switch/proxy_server/CMakeFiles/light_switch_proxy_server_nrf52840_xxAA_s140_6.0.0.dir/__/__/__/mesh/bearer/src/ad_type_filter.c.obj
 .debug_abbrev  0x0000c5ed      0x4ed examples/light_switch/proxy_server/CMakeFiles/light_switch_proxy_server_nrf52840_xxAA_s140_6.0.0.dir/__/__/__/mesh/bearer/src/advertiser.c.obj
 .debug_abbrev  0x0000cada      0x3e2 examples/light_switch/proxy_server/CMakeFiles/light_switch_proxy_server_nrf52840_xxAA_s140_6.0.0.dir/__/__/__/mesh/bearer/src/bearer_handler.c.obj
 .debug_abbrev  0x0000cebc      0x3c8 examples/light_switch/proxy_server/CMakeFiles/light_switch_proxy_server_nrf52840_xxAA_s140_6.0.0.dir/__/__/__/mesh/bearer/src/broadcast.c.obj
 .debug_abbrev  0x0000d284      0x2a6 examples/light_switch/proxy_server/CMakeFiles/light_switch_proxy_server_nrf52840_xxAA_s140_6.0.0.dir/__/__/__/mesh/bearer/src/filter_engine.c.obj
 .debug_abbrev  0x0000d52a      0x1d5 examples/light_switch/proxy_server/CMakeFiles/light_switch_proxy_server_nrf52840_xxAA_s140_6.0.0.dir/__/__/__/mesh/bearer/src/radio_config.c.obj
 .debug_abbrev  0x0000d6ff      0x52a examples/light_switch/proxy_server/CMakeFiles/light_switch_proxy_server_nrf52840_xxAA_s140_6.0.0.dir/__/__/__/mesh/bearer/src/scanner.c.obj
 .debug_abbrev  0x0000dc29      0x524 examples/light_switch/proxy_server/CMakeFiles/light_switch_proxy_server_nrf52840_xxAA_s140_6.0.0.dir/__/__/__/mesh/gatt/src/mesh_gatt.c.obj
 .debug_abbrev  0x0000e14d      0x591 examples/light_switch/proxy_server/CMakeFiles/light_switch_proxy_server_nrf52840_xxAA_s140_6.0.0.dir/__/__/__/mesh/gatt/src/proxy.c.obj
 .debug_abbrev  0x0000e6de      0x1ce examples/light_switch/proxy_server/CMakeFiles/light_switch_proxy_server_nrf52840_xxAA_s140_6.0.0.dir/__/__/__/mesh/gatt/src/proxy_filter.c.obj
 .debug_abbrev  0x0000e8ac      0x2c5 examples/light_switch/proxy_server/CMakeFiles/light_switch_proxy_server_nrf52840_xxAA_s140_6.0.0.dir/__/__/__/models/simple_on_off/src/simple_on_off_server.c.obj
 .debug_abbrev  0x0000eb71      0x2db examples/light_switch/proxy_server/CMakeFiles/light_switch_proxy_server_nrf52840_xxAA_s140_6.0.0.dir/__/__/__/models/config/src/composition_data.c.obj
 .debug_abbrev  0x0000ee4c      0x55e examples/light_switch/proxy_server/CMakeFiles/light_switch_proxy_server_nrf52840_xxAA_s140_6.0.0.dir/__/__/__/models/config/src/config_server.c.obj
 .debug_abbrev  0x0000f3aa       0x95 examples/light_switch/proxy_server/CMakeFiles/light_switch_proxy_server_nrf52840_xxAA_s140_6.0.0.dir/__/__/__/models/config/src/packed_index_list.c.obj
 .debug_abbrev  0x0000f43f      0x4d0 examples/light_switch/proxy_server/CMakeFiles/light_switch_proxy_server_nrf52840_xxAA_s140_6.0.0.dir/__/__/__/models/health/src/health_server.c.obj
 .debug_abbrev  0x0000f90f      0x434 examples/light_switch/proxy_server/CMakeFiles/light_switch_proxy_server_nrf52840_xxAA_s140_6.0.0.dir/__/__/__/mesh/access/src/access_publish.c.obj
 .debug_abbrev  0x0000fd43      0x637 examples/light_switch/proxy_server/CMakeFiles/light_switch_proxy_server_nrf52840_xxAA_s140_6.0.0.dir/__/__/__/mesh/access/src/access.c.obj
 .debug_abbrev  0x0001037a      0x43b examples/light_switch/proxy_server/CMakeFiles/light_switch_proxy_server_nrf52840_xxAA_s140_6.0.0.dir/__/__/__/mesh/access/src/access_reliable.c.obj
 .debug_abbrev  0x000107b5      0x604 examples/light_switch/proxy_server/CMakeFiles/light_switch_proxy_server_nrf52840_xxAA_s140_6.0.0.dir/__/__/__/mesh/access/src/device_state_manager.c.obj
 .debug_abbrev  0x00010db9      0x491 examples/light_switch/proxy_server/CMakeFiles/light_switch_proxy_server_nrf52840_xxAA_s140_6.0.0.dir/__/__/__/mesh/prov/src/prov_provisionee.c.obj
 .debug_abbrev  0x0001124a      0x434 examples/light_switch/proxy_server/CMakeFiles/light_switch_proxy_server_nrf52840_xxAA_s140_6.0.0.dir/__/__/__/mesh/prov/src/nrf_mesh_prov.c.obj
 .debug_abbrev  0x0001167e      0x2a9 examples/light_switch/proxy_server/CMakeFiles/light_switch_proxy_server_nrf52840_xxAA_s140_6.0.0.dir/__/__/__/mesh/prov/src/provisioning.c.obj
 .debug_abbrev  0x00011927      0x2c8 examples/light_switch/proxy_server/CMakeFiles/light_switch_proxy_server_nrf52840_xxAA_s140_6.0.0.dir/__/__/__/mesh/prov/src/prov_beacon.c.obj
 .debug_abbrev  0x00011bef      0x3ca examples/light_switch/proxy_server/CMakeFiles/light_switch_proxy_server_nrf52840_xxAA_s140_6.0.0.dir/__/__/__/mesh/prov/src/prov_utils.c.obj
 .debug_abbrev  0x00011fb9      0x4eb examples/light_switch/proxy_server/CMakeFiles/light_switch_proxy_server_nrf52840_xxAA_s140_6.0.0.dir/__/__/__/mesh/prov/src/prov_bearer_adv.c.obj
 .debug_abbrev  0x000124a4      0x20b examples/light_switch/proxy_server/CMakeFiles/light_switch_proxy_server_nrf52840_xxAA_s140_6.0.0.dir/C_/ver/mod/nRF5_SDK_15.0.0_a53641a/modules/nrfx/mdk/system_nrf52840.c.obj
 .debug_abbrev  0x000126af      0x232 examples/light_switch/proxy_server/CMakeFiles/light_switch_proxy_server_nrf52840_xxAA_s140_6.0.0.dir/C_/ver/mod/nRF5_SDK_15.0.0_a53641a/components/libraries/util/app_error.c.obj
 .debug_abbrev  0x000128e1      0x1bd examples/light_switch/proxy_server/CMakeFiles/light_switch_proxy_server_nrf52840_xxAA_s140_6.0.0.dir/C_/ver/mod/nRF5_SDK_15.0.0_a53641a/components/libraries/util/app_error_handler_gcc.c.obj
 .debug_abbrev  0x00012a9e      0x3a9 external/rtt/librtt_nrf52840_xxAA.a(SEGGER_RTT.c.obj)
 .debug_abbrev  0x00012e47      0x32e external/rtt/librtt_nrf52840_xxAA.a(SEGGER_RTT_printf.c.obj)
 .debug_abbrev  0x00013175      0x4b4 external/micro-ecc/libuECC_nrf52840_xxAA.a(uECC.c.obj)

.debug_loc      0x00000000    0x28293
 .debug_loc     0x00000000      0x3f8 examples/light_switch/proxy_server/CMakeFiles/light_switch_proxy_server_nrf52840_xxAA_s140_6.0.0.dir/src/main.c.obj
 .debug_loc     0x000003f8      0x192 examples/light_switch/proxy_server/CMakeFiles/light_switch_proxy_server_nrf52840_xxAA_s140_6.0.0.dir/__/__/__/mesh/stack/src/mesh_stack.c.obj
 .debug_loc     0x0000058a      0x27c examples/light_switch/proxy_server/CMakeFiles/light_switch_proxy_server_nrf52840_xxAA_s140_6.0.0.dir/__/__/common/src/mesh_provisionee.c.obj
 .debug_loc     0x00000806       0xa5 examples/light_switch/proxy_server/CMakeFiles/light_switch_proxy_server_nrf52840_xxAA_s140_6.0.0.dir/__/__/common/src/rtt_input.c.obj
 .debug_loc     0x000008ab      0x277 examples/light_switch/proxy_server/CMakeFiles/light_switch_proxy_server_nrf52840_xxAA_s140_6.0.0.dir/__/__/common/src/simple_hal.c.obj
 .debug_loc     0x00000b22       0x9a examples/light_switch/proxy_server/CMakeFiles/light_switch_proxy_server_nrf52840_xxAA_s140_6.0.0.dir/__/__/common/src/mesh_app_utils.c.obj
 .debug_loc     0x00000bbc      0x185 examples/light_switch/proxy_server/CMakeFiles/light_switch_proxy_server_nrf52840_xxAA_s140_6.0.0.dir/__/__/common/src/mesh_adv.c.obj
 .debug_loc     0x00000d41      0x72a examples/light_switch/proxy_server/CMakeFiles/light_switch_proxy_server_nrf52840_xxAA_s140_6.0.0.dir/__/__/__/mesh/prov/src/nrf_mesh_prov_bearer_gatt.c.obj
 .debug_loc     0x0000146b       0xc1 examples/light_switch/proxy_server/CMakeFiles/light_switch_proxy_server_nrf52840_xxAA_s140_6.0.0.dir/C_/ver/mod/nRF5_SDK_15.0.0_a53641a/components/libraries/util/app_util_platform.c.obj
 .debug_loc     0x0000152c      0xd8d examples/light_switch/proxy_server/CMakeFiles/light_switch_proxy_server_nrf52840_xxAA_s140_6.0.0.dir/C_/ver/mod/nRF5_SDK_15.0.0_a53641a/components/ble/common/ble_advdata.c.obj
 .debug_loc     0x000022b9      0x156 examples/light_switch/proxy_server/CMakeFiles/light_switch_proxy_server_nrf52840_xxAA_s140_6.0.0.dir/C_/ver/mod/nRF5_SDK_15.0.0_a53641a/components/softdevice/common/nrf_sdh.c.obj
 .debug_loc     0x0000240f       0x74 examples/light_switch/proxy_server/CMakeFiles/light_switch_proxy_server_nrf52840_xxAA_s140_6.0.0.dir/C_/ver/mod/nRF5_SDK_15.0.0_a53641a/components/softdevice/common/nrf_sdh_soc.c.obj
 .debug_loc     0x00002483      0x1d5 examples/light_switch/proxy_server/CMakeFiles/light_switch_proxy_server_nrf52840_xxAA_s140_6.0.0.dir/C_/ver/mod/nRF5_SDK_15.0.0_a53641a/components/softdevice/common/nrf_sdh_ble.c.obj
 .debug_loc     0x00002658      0x18c examples/light_switch/proxy_server/CMakeFiles/light_switch_proxy_server_nrf52840_xxAA_s140_6.0.0.dir/__/__/common/src/app_error_weak.c.obj
 .debug_loc     0x000027e4       0x2c examples/light_switch/proxy_server/CMakeFiles/light_switch_proxy_server_nrf52840_xxAA_s140_6.0.0.dir/__/__/common/src/assertion_handler_weak.c.obj
 .debug_loc     0x00002810       0x2c examples/light_switch/proxy_server/CMakeFiles/light_switch_proxy_server_nrf52840_xxAA_s140_6.0.0.dir/__/__/__/mesh/core/src/nrf_mesh_configure.c.obj
 .debug_loc     0x0000283c       0x89 examples/light_switch/proxy_server/CMakeFiles/light_switch_proxy_server_nrf52840_xxAA_s140_6.0.0.dir/__/__/__/mesh/core/src/aes.c.obj
 .debug_loc     0x000028c5      0x10d examples/light_switch/proxy_server/CMakeFiles/light_switch_proxy_server_nrf52840_xxAA_s140_6.0.0.dir/__/__/__/mesh/core/src/msg_cache.c.obj
 .debug_loc     0x000029d2     0x259a examples/light_switch/proxy_server/CMakeFiles/light_switch_proxy_server_nrf52840_xxAA_s140_6.0.0.dir/__/__/__/mesh/core/src/transport.c.obj
 .debug_loc     0x00004f6c       0xff examples/light_switch/proxy_server/CMakeFiles/light_switch_proxy_server_nrf52840_xxAA_s140_6.0.0.dir/__/__/__/mesh/core/src/event.c.obj
 .debug_loc     0x0000506b      0x816 examples/light_switch/proxy_server/CMakeFiles/light_switch_proxy_server_nrf52840_xxAA_s140_6.0.0.dir/__/__/__/mesh/core/src/packet_buffer.c.obj
 .debug_loc     0x00005881      0x7fe examples/light_switch/proxy_server/CMakeFiles/light_switch_proxy_server_nrf52840_xxAA_s140_6.0.0.dir/__/__/__/mesh/core/src/flash_manager_defrag.c.obj
 .debug_loc     0x0000607f      0x4f6 examples/light_switch/proxy_server/CMakeFiles/light_switch_proxy_server_nrf52840_xxAA_s140_6.0.0.dir/__/__/__/mesh/core/src/fifo.c.obj
 .debug_loc     0x00006575      0x17a examples/light_switch/proxy_server/CMakeFiles/light_switch_proxy_server_nrf52840_xxAA_s140_6.0.0.dir/__/__/__/mesh/core/src/nrf_flash.c.obj
 .debug_loc     0x000066ef      0x6c1 examples/light_switch/proxy_server/CMakeFiles/light_switch_proxy_server_nrf52840_xxAA_s140_6.0.0.dir/__/__/__/mesh/core/src/packet_mgr.c.obj
 .debug_loc     0x00006db0      0x936 examples/light_switch/proxy_server/CMakeFiles/light_switch_proxy_server_nrf52840_xxAA_s140_6.0.0.dir/__/__/__/mesh/core/src/net_state.c.obj
 .debug_loc     0x000076e6      0x8be examples/light_switch/proxy_server/CMakeFiles/light_switch_proxy_server_nrf52840_xxAA_s140_6.0.0.dir/__/__/__/mesh/core/src/mesh_flash.c.obj
 .debug_loc     0x00007fa4       0xf8 examples/light_switch/proxy_server/CMakeFiles/light_switch_proxy_server_nrf52840_xxAA_s140_6.0.0.dir/__/__/__/mesh/core/src/nrf_mesh_utils.c.obj
 .debug_loc     0x0000809c      0x520 examples/light_switch/proxy_server/CMakeFiles/light_switch_proxy_server_nrf52840_xxAA_s140_6.0.0.dir/__/__/__/mesh/core/src/nrf_mesh.c.obj
 .debug_loc     0x000085bc       0xf5 examples/light_switch/proxy_server/CMakeFiles/light_switch_proxy_server_nrf52840_xxAA_s140_6.0.0.dir/__/__/__/mesh/core/src/queue.c.obj
 .debug_loc     0x000086b1       0x63 examples/light_switch/proxy_server/CMakeFiles/light_switch_proxy_server_nrf52840_xxAA_s140_6.0.0.dir/__/__/__/mesh/core/src/hal.c.obj
 .debug_loc     0x00008714      0x3f8 examples/light_switch/proxy_server/CMakeFiles/light_switch_proxy_server_nrf52840_xxAA_s140_6.0.0.dir/__/__/__/mesh/core/src/aes_cmac.c.obj
 .debug_loc     0x00008b0c      0x2d1 examples/light_switch/proxy_server/CMakeFiles/light_switch_proxy_server_nrf52840_xxAA_s140_6.0.0.dir/__/__/__/mesh/core/src/timer_scheduler.c.obj
 .debug_loc     0x00008ddd      0x5f9 examples/light_switch/proxy_server/CMakeFiles/light_switch_proxy_server_nrf52840_xxAA_s140_6.0.0.dir/__/__/__/mesh/core/src/timer.c.obj
 .debug_loc     0x000093d6      0x14e examples/light_switch/proxy_server/CMakeFiles/light_switch_proxy_server_nrf52840_xxAA_s140_6.0.0.dir/__/__/__/mesh/core/src/rand.c.obj
 .debug_loc     0x00009524      0x194 examples/light_switch/proxy_server/CMakeFiles/light_switch_proxy_server_nrf52840_xxAA_s140_6.0.0.dir/__/__/__/mesh/core/src/nrf_mesh_opt.c.obj
 .debug_loc     0x000096b8      0x344 examples/light_switch/proxy_server/CMakeFiles/light_switch_proxy_server_nrf52840_xxAA_s140_6.0.0.dir/__/__/__/mesh/core/src/timeslot.c.obj
 .debug_loc     0x000099fc      0x526 examples/light_switch/proxy_server/CMakeFiles/light_switch_proxy_server_nrf52840_xxAA_s140_6.0.0.dir/__/__/__/mesh/core/src/bearer_event.c.obj
 .debug_loc     0x00009f22      0x8c1 examples/light_switch/proxy_server/CMakeFiles/light_switch_proxy_server_nrf52840_xxAA_s140_6.0.0.dir/__/__/__/mesh/core/src/enc.c.obj
 .debug_loc     0x0000a7e3      0x5da examples/light_switch/proxy_server/CMakeFiles/light_switch_proxy_server_nrf52840_xxAA_s140_6.0.0.dir/__/__/__/mesh/core/src/network.c.obj
 .debug_loc     0x0000adbd      0x817 examples/light_switch/proxy_server/CMakeFiles/light_switch_proxy_server_nrf52840_xxAA_s140_6.0.0.dir/__/__/__/mesh/core/src/net_packet.c.obj
 .debug_loc     0x0000b5d4      0x2ed examples/light_switch/proxy_server/CMakeFiles/light_switch_proxy_server_nrf52840_xxAA_s140_6.0.0.dir/__/__/__/mesh/core/src/msqueue.c.obj
 .debug_loc     0x0000b8c1      0x1ee examples/light_switch/proxy_server/CMakeFiles/light_switch_proxy_server_nrf52840_xxAA_s140_6.0.0.dir/__/__/__/mesh/core/src/nrf_mesh_keygen.c.obj
 .debug_loc     0x0000baaf      0x29b examples/light_switch/proxy_server/CMakeFiles/light_switch_proxy_server_nrf52840_xxAA_s140_6.0.0.dir/__/__/__/mesh/core/src/cache.c.obj
 .debug_loc     0x0000bd4a      0x3bf examples/light_switch/proxy_server/CMakeFiles/light_switch_proxy_server_nrf52840_xxAA_s140_6.0.0.dir/__/__/__/mesh/core/src/list.c.obj
 .debug_loc     0x0000c109      0x348 examples/light_switch/proxy_server/CMakeFiles/light_switch_proxy_server_nrf52840_xxAA_s140_6.0.0.dir/__/__/__/mesh/core/src/log.c.obj
 .debug_loc     0x0000c451     0x1439 examples/light_switch/proxy_server/CMakeFiles/light_switch_proxy_server_nrf52840_xxAA_s140_6.0.0.dir/__/__/__/mesh/core/src/flash_manager.c.obj
 .debug_loc     0x0000d88a      0x371 examples/light_switch/proxy_server/CMakeFiles/light_switch_proxy_server_nrf52840_xxAA_s140_6.0.0.dir/__/__/__/mesh/core/src/ccm_soft.c.obj
 .debug_loc     0x0000dbfb      0x141 examples/light_switch/proxy_server/CMakeFiles/light_switch_proxy_server_nrf52840_xxAA_s140_6.0.0.dir/__/__/__/mesh/core/src/replay_cache.c.obj
 .debug_loc     0x0000dd3c      0x30d examples/light_switch/proxy_server/CMakeFiles/light_switch_proxy_server_nrf52840_xxAA_s140_6.0.0.dir/__/__/__/mesh/core/src/beacon.c.obj
 .debug_loc     0x0000e049       0xe3 examples/light_switch/proxy_server/CMakeFiles/light_switch_proxy_server_nrf52840_xxAA_s140_6.0.0.dir/__/__/__/mesh/core/src/flash_manager_internal.c.obj
 .debug_loc     0x0000e12c      0x3c5 examples/light_switch/proxy_server/CMakeFiles/light_switch_proxy_server_nrf52840_xxAA_s140_6.0.0.dir/__/__/__/mesh/core/src/core_tx.c.obj
 .debug_loc     0x0000e4f1      0x570 examples/light_switch/proxy_server/CMakeFiles/light_switch_proxy_server_nrf52840_xxAA_s140_6.0.0.dir/__/__/__/mesh/core/src/heartbeat.c.obj
 .debug_loc     0x0000ea61      0x5f5 examples/light_switch/proxy_server/CMakeFiles/light_switch_proxy_server_nrf52840_xxAA_s140_6.0.0.dir/__/__/__/mesh/core/src/net_beacon.c.obj
 .debug_loc     0x0000f056      0x3fd examples/light_switch/proxy_server/CMakeFiles/light_switch_proxy_server_nrf52840_xxAA_s140_6.0.0.dir/__/__/__/mesh/core/src/fsm.c.obj
 .debug_loc     0x0000f453      0x3ca examples/light_switch/proxy_server/CMakeFiles/light_switch_proxy_server_nrf52840_xxAA_s140_6.0.0.dir/__/__/__/mesh/core/src/core_tx_adv.c.obj
 .debug_loc     0x0000f81d      0x42e examples/light_switch/proxy_server/CMakeFiles/light_switch_proxy_server_nrf52840_xxAA_s140_6.0.0.dir/__/__/__/mesh/bearer/src/ad_listener.c.obj
 .debug_loc     0x0000fc4b      0x3ae examples/light_switch/proxy_server/CMakeFiles/light_switch_proxy_server_nrf52840_xxAA_s140_6.0.0.dir/__/__/__/mesh/bearer/src/ad_type_filter.c.obj
 .debug_loc     0x0000fff9      0xcb6 examples/light_switch/proxy_server/CMakeFiles/light_switch_proxy_server_nrf52840_xxAA_s140_6.0.0.dir/__/__/__/mesh/bearer/src/advertiser.c.obj
 .debug_loc     0x00010caf      0x333 examples/light_switch/proxy_server/CMakeFiles/light_switch_proxy_server_nrf52840_xxAA_s140_6.0.0.dir/__/__/__/mesh/bearer/src/bearer_handler.c.obj
 .debug_loc     0x00010fe2      0x306 examples/light_switch/proxy_server/CMakeFiles/light_switch_proxy_server_nrf52840_xxAA_s140_6.0.0.dir/__/__/__/mesh/bearer/src/broadcast.c.obj
 .debug_loc     0x000112e8       0xde examples/light_switch/proxy_server/CMakeFiles/light_switch_proxy_server_nrf52840_xxAA_s140_6.0.0.dir/__/__/__/mesh/bearer/src/filter_engine.c.obj
 .debug_loc     0x000113c6      0x232 examples/light_switch/proxy_server/CMakeFiles/light_switch_proxy_server_nrf52840_xxAA_s140_6.0.0.dir/__/__/__/mesh/bearer/src/radio_config.c.obj
 .debug_loc     0x000115f8      0x442 examples/light_switch/proxy_server/CMakeFiles/light_switch_proxy_server_nrf52840_xxAA_s140_6.0.0.dir/__/__/__/mesh/bearer/src/scanner.c.obj
 .debug_loc     0x00011a3a     0x11da examples/light_switch/proxy_server/CMakeFiles/light_switch_proxy_server_nrf52840_xxAA_s140_6.0.0.dir/__/__/__/mesh/gatt/src/mesh_gatt.c.obj
 .debug_loc     0x00012c14     0x1188 examples/light_switch/proxy_server/CMakeFiles/light_switch_proxy_server_nrf52840_xxAA_s140_6.0.0.dir/__/__/__/mesh/gatt/src/proxy.c.obj
 .debug_loc     0x00013d9c      0x27a examples/light_switch/proxy_server/CMakeFiles/light_switch_proxy_server_nrf52840_xxAA_s140_6.0.0.dir/__/__/__/mesh/gatt/src/proxy_filter.c.obj
 .debug_loc     0x00014016      0x35f examples/light_switch/proxy_server/CMakeFiles/light_switch_proxy_server_nrf52840_xxAA_s140_6.0.0.dir/__/__/__/models/simple_on_off/src/simple_on_off_server.c.obj
 .debug_loc     0x00014375      0x26f examples/light_switch/proxy_server/CMakeFiles/light_switch_proxy_server_nrf52840_xxAA_s140_6.0.0.dir/__/__/__/models/config/src/composition_data.c.obj
 .debug_loc     0x000145e4     0x4e94 examples/light_switch/proxy_server/CMakeFiles/light_switch_proxy_server_nrf52840_xxAA_s140_6.0.0.dir/__/__/__/models/config/src/config_server.c.obj
 .debug_loc     0x00019478       0x89 examples/light_switch/proxy_server/CMakeFiles/light_switch_proxy_server_nrf52840_xxAA_s140_6.0.0.dir/__/__/__/models/config/src/packed_index_list.c.obj
 .debug_loc     0x00019501     0x13e7 examples/light_switch/proxy_server/CMakeFiles/light_switch_proxy_server_nrf52840_xxAA_s140_6.0.0.dir/__/__/__/models/health/src/health_server.c.obj
 .debug_loc     0x0001a8e8      0x4d4 examples/light_switch/proxy_server/CMakeFiles/light_switch_proxy_server_nrf52840_xxAA_s140_6.0.0.dir/__/__/__/mesh/access/src/access_publish.c.obj
 .debug_loc     0x0001adbc     0x2493 examples/light_switch/proxy_server/CMakeFiles/light_switch_proxy_server_nrf52840_xxAA_s140_6.0.0.dir/__/__/__/mesh/access/src/access.c.obj
 .debug_loc     0x0001d24f      0x784 examples/light_switch/proxy_server/CMakeFiles/light_switch_proxy_server_nrf52840_xxAA_s140_6.0.0.dir/__/__/__/mesh/access/src/access_reliable.c.obj
 .debug_loc     0x0001d9d3     0x39f3 examples/light_switch/proxy_server/CMakeFiles/light_switch_proxy_server_nrf52840_xxAA_s140_6.0.0.dir/__/__/__/mesh/access/src/device_state_manager.c.obj
 .debug_loc     0x000213c6      0x772 examples/light_switch/proxy_server/CMakeFiles/light_switch_proxy_server_nrf52840_xxAA_s140_6.0.0.dir/__/__/__/mesh/prov/src/prov_provisionee.c.obj
 .debug_loc     0x00021b38      0xa4b examples/light_switch/proxy_server/CMakeFiles/light_switch_proxy_server_nrf52840_xxAA_s140_6.0.0.dir/__/__/__/mesh/prov/src/nrf_mesh_prov.c.obj
 .debug_loc     0x00022583      0x490 examples/light_switch/proxy_server/CMakeFiles/light_switch_proxy_server_nrf52840_xxAA_s140_6.0.0.dir/__/__/__/mesh/prov/src/provisioning.c.obj
 .debug_loc     0x00022a13      0x18c examples/light_switch/proxy_server/CMakeFiles/light_switch_proxy_server_nrf52840_xxAA_s140_6.0.0.dir/__/__/__/mesh/prov/src/prov_beacon.c.obj
 .debug_loc     0x00022b9f      0x40b examples/light_switch/proxy_server/CMakeFiles/light_switch_proxy_server_nrf52840_xxAA_s140_6.0.0.dir/__/__/__/mesh/prov/src/prov_utils.c.obj
 .debug_loc     0x00022faa     0x1457 examples/light_switch/proxy_server/CMakeFiles/light_switch_proxy_server_nrf52840_xxAA_s140_6.0.0.dir/__/__/__/mesh/prov/src/prov_bearer_adv.c.obj
 .debug_loc     0x00024401       0xb5 examples/light_switch/proxy_server/CMakeFiles/light_switch_proxy_server_nrf52840_xxAA_s140_6.0.0.dir/C_/ver/mod/nRF5_SDK_15.0.0_a53641a/components/libraries/util/app_error.c.obj
 .debug_loc     0x000244b6       0x63 examples/light_switch/proxy_server/CMakeFiles/light_switch_proxy_server_nrf52840_xxAA_s140_6.0.0.dir/C_/ver/mod/nRF5_SDK_15.0.0_a53641a/components/libraries/util/app_error_handler_gcc.c.obj
 .debug_loc     0x00024519     0x1222 external/rtt/librtt_nrf52840_xxAA.a(SEGGER_RTT.c.obj)
 .debug_loc     0x0002573b      0x70f external/rtt/librtt_nrf52840_xxAA.a(SEGGER_RTT_printf.c.obj)
 .debug_loc     0x00025e4a     0x2449 external/micro-ecc/libuECC_nrf52840_xxAA.a(uECC.c.obj)

.debug_aranges  0x00000000     0x2858
 .debug_aranges
                0x00000000       0x80 examples/light_switch/proxy_server/CMakeFiles/light_switch_proxy_server_nrf52840_xxAA_s140_6.0.0.dir/src/main.c.obj
 .debug_aranges
                0x00000080       0x50 examples/light_switch/proxy_server/CMakeFiles/light_switch_proxy_server_nrf52840_xxAA_s140_6.0.0.dir/__/__/__/mesh/stack/src/mesh_stack.c.obj
 .debug_aranges
                0x000000d0       0x38 examples/light_switch/proxy_server/CMakeFiles/light_switch_proxy_server_nrf52840_xxAA_s140_6.0.0.dir/__/__/common/src/mesh_provisionee.c.obj
 .debug_aranges
                0x00000108       0x30 examples/light_switch/proxy_server/CMakeFiles/light_switch_proxy_server_nrf52840_xxAA_s140_6.0.0.dir/__/__/common/src/rtt_input.c.obj
 .debug_aranges
                0x00000138       0x50 examples/light_switch/proxy_server/CMakeFiles/light_switch_proxy_server_nrf52840_xxAA_s140_6.0.0.dir/__/__/common/src/simple_hal.c.obj
 .debug_aranges
                0x00000188       0x20 examples/light_switch/proxy_server/CMakeFiles/light_switch_proxy_server_nrf52840_xxAA_s140_6.0.0.dir/__/__/common/src/mesh_app_utils.c.obj
 .debug_aranges
                0x000001a8       0x50 examples/light_switch/proxy_server/CMakeFiles/light_switch_proxy_server_nrf52840_xxAA_s140_6.0.0.dir/__/__/common/src/mesh_adv.c.obj
 .debug_aranges
                0x000001f8       0xc8 examples/light_switch/proxy_server/CMakeFiles/light_switch_proxy_server_nrf52840_xxAA_s140_6.0.0.dir/__/__/__/mesh/prov/src/nrf_mesh_prov_bearer_gatt.c.obj
 .debug_aranges
                0x000002c0       0x48 examples/light_switch/proxy_server/CMakeFiles/light_switch_proxy_server_nrf52840_xxAA_s140_6.0.0.dir/C_/ver/mod/nRF5_SDK_15.0.0_a53641a/components/libraries/util/app_util_platform.c.obj
 .debug_aranges
                0x00000308       0x80 examples/light_switch/proxy_server/CMakeFiles/light_switch_proxy_server_nrf52840_xxAA_s140_6.0.0.dir/C_/ver/mod/nRF5_SDK_15.0.0_a53641a/components/ble/common/ble_advdata.c.obj
 .debug_aranges
                0x00000388       0x28 examples/light_switch/proxy_server/CMakeFiles/light_switch_proxy_server_nrf52840_xxAA_s140_6.0.0.dir/C_/ver/mod/nRF5_SDK_15.0.0_a53641a/components/libraries/experimental_section_vars/nrf_section_iter.c.obj
 .debug_aranges
                0x000003b0       0x90 examples/light_switch/proxy_server/CMakeFiles/light_switch_proxy_server_nrf52840_xxAA_s140_6.0.0.dir/C_/ver/mod/nRF5_SDK_15.0.0_a53641a/components/softdevice/common/nrf_sdh.c.obj
 .debug_aranges
                0x00000440       0x28 examples/light_switch/proxy_server/CMakeFiles/light_switch_proxy_server_nrf52840_xxAA_s140_6.0.0.dir/C_/ver/mod/nRF5_SDK_15.0.0_a53641a/components/softdevice/common/nrf_sdh_soc.c.obj
 .debug_aranges
                0x00000468       0x50 examples/light_switch/proxy_server/CMakeFiles/light_switch_proxy_server_nrf52840_xxAA_s140_6.0.0.dir/C_/ver/mod/nRF5_SDK_15.0.0_a53641a/components/softdevice/common/nrf_sdh_ble.c.obj
 .debug_aranges
                0x000004b8       0x28 examples/light_switch/proxy_server/CMakeFiles/light_switch_proxy_server_nrf52840_xxAA_s140_6.0.0.dir/__/__/nrf_mesh_weak.c.obj
 .debug_aranges
                0x000004e0       0x20 examples/light_switch/proxy_server/CMakeFiles/light_switch_proxy_server_nrf52840_xxAA_s140_6.0.0.dir/__/__/common/src/app_error_weak.c.obj
 .debug_aranges
                0x00000500       0x20 examples/light_switch/proxy_server/CMakeFiles/light_switch_proxy_server_nrf52840_xxAA_s140_6.0.0.dir/__/__/common/src/assertion_handler_weak.c.obj
 .debug_aranges
                0x00000520       0x30 examples/light_switch/proxy_server/CMakeFiles/light_switch_proxy_server_nrf52840_xxAA_s140_6.0.0.dir/__/__/__/mesh/core/src/nrf_mesh_configure.c.obj
 .debug_aranges
                0x00000550       0x28 examples/light_switch/proxy_server/CMakeFiles/light_switch_proxy_server_nrf52840_xxAA_s140_6.0.0.dir/__/__/__/mesh/core/src/aes.c.obj
 .debug_aranges
                0x00000578       0x38 examples/light_switch/proxy_server/CMakeFiles/light_switch_proxy_server_nrf52840_xxAA_s140_6.0.0.dir/__/__/__/mesh/core/src/msg_cache.c.obj
 .debug_aranges
                0x000005b0      0x110 examples/light_switch/proxy_server/CMakeFiles/light_switch_proxy_server_nrf52840_xxAA_s140_6.0.0.dir/__/__/__/mesh/core/src/transport.c.obj
 .debug_aranges
                0x000006c0       0x30 examples/light_switch/proxy_server/CMakeFiles/light_switch_proxy_server_nrf52840_xxAA_s140_6.0.0.dir/__/__/__/mesh/core/src/event.c.obj
 .debug_aranges
                0x000006f0       0x68 examples/light_switch/proxy_server/CMakeFiles/light_switch_proxy_server_nrf52840_xxAA_s140_6.0.0.dir/__/__/__/mesh/core/src/packet_buffer.c.obj
 .debug_aranges
                0x00000758       0xc8 examples/light_switch/proxy_server/CMakeFiles/light_switch_proxy_server_nrf52840_xxAA_s140_6.0.0.dir/__/__/__/mesh/core/src/flash_manager_defrag.c.obj
 .debug_aranges
                0x00000820       0x60 examples/light_switch/proxy_server/CMakeFiles/light_switch_proxy_server_nrf52840_xxAA_s140_6.0.0.dir/__/__/__/mesh/core/src/fifo.c.obj
 .debug_aranges
                0x00000880       0x30 examples/light_switch/proxy_server/CMakeFiles/light_switch_proxy_server_nrf52840_xxAA_s140_6.0.0.dir/__/__/__/mesh/core/src/nrf_flash.c.obj
 .debug_aranges
                0x000008b0       0x48 examples/light_switch/proxy_server/CMakeFiles/light_switch_proxy_server_nrf52840_xxAA_s140_6.0.0.dir/__/__/__/mesh/core/src/packet_mgr.c.obj
 .debug_aranges
                0x000008f8       0xd0 examples/light_switch/proxy_server/CMakeFiles/light_switch_proxy_server_nrf52840_xxAA_s140_6.0.0.dir/__/__/__/mesh/core/src/net_state.c.obj
 .debug_aranges
                0x000009c8       0x60 examples/light_switch/proxy_server/CMakeFiles/light_switch_proxy_server_nrf52840_xxAA_s140_6.0.0.dir/__/__/__/mesh/core/src/mesh_flash.c.obj
 .debug_aranges
                0x00000a28       0x30 examples/light_switch/proxy_server/CMakeFiles/light_switch_proxy_server_nrf52840_xxAA_s140_6.0.0.dir/__/__/__/mesh/core/src/nrf_mesh_utils.c.obj
 .debug_aranges
                0x00000a58       0x90 examples/light_switch/proxy_server/CMakeFiles/light_switch_proxy_server_nrf52840_xxAA_s140_6.0.0.dir/__/__/__/mesh/core/src/nrf_mesh.c.obj
 .debug_aranges
                0x00000ae8       0x38 examples/light_switch/proxy_server/CMakeFiles/light_switch_proxy_server_nrf52840_xxAA_s140_6.0.0.dir/__/__/__/mesh/core/src/queue.c.obj
 .debug_aranges
                0x00000b20       0x30 examples/light_switch/proxy_server/CMakeFiles/light_switch_proxy_server_nrf52840_xxAA_s140_6.0.0.dir/__/__/__/mesh/core/src/hal.c.obj
 .debug_aranges
                0x00000b50       0x38 examples/light_switch/proxy_server/CMakeFiles/light_switch_proxy_server_nrf52840_xxAA_s140_6.0.0.dir/__/__/__/mesh/core/src/aes_cmac.c.obj
 .debug_aranges
                0x00000b88       0x68 examples/light_switch/proxy_server/CMakeFiles/light_switch_proxy_server_nrf52840_xxAA_s140_6.0.0.dir/__/__/__/mesh/core/src/timer_scheduler.c.obj
 .debug_aranges
                0x00000bf0       0x60 examples/light_switch/proxy_server/CMakeFiles/light_switch_proxy_server_nrf52840_xxAA_s140_6.0.0.dir/__/__/__/mesh/core/src/timer.c.obj
 .debug_aranges
                0x00000c50       0x30 examples/light_switch/proxy_server/CMakeFiles/light_switch_proxy_server_nrf52840_xxAA_s140_6.0.0.dir/__/__/__/mesh/core/src/ticker.c.obj
 .debug_aranges
                0x00000c80       0x40 examples/light_switch/proxy_server/CMakeFiles/light_switch_proxy_server_nrf52840_xxAA_s140_6.0.0.dir/__/__/__/mesh/core/src/rand.c.obj
 .debug_aranges
                0x00000cc0       0x28 examples/light_switch/proxy_server/CMakeFiles/light_switch_proxy_server_nrf52840_xxAA_s140_6.0.0.dir/__/__/__/mesh/core/src/nrf_mesh_opt.c.obj
 .debug_aranges
                0x00000ce8       0xb8 examples/light_switch/proxy_server/CMakeFiles/light_switch_proxy_server_nrf52840_xxAA_s140_6.0.0.dir/__/__/__/mesh/core/src/timeslot.c.obj
 .debug_aranges
                0x00000da0       0x98 examples/light_switch/proxy_server/CMakeFiles/light_switch_proxy_server_nrf52840_xxAA_s140_6.0.0.dir/__/__/__/mesh/core/src/bearer_event.c.obj
 .debug_aranges
                0x00000e38       0x70 examples/light_switch/proxy_server/CMakeFiles/light_switch_proxy_server_nrf52840_xxAA_s140_6.0.0.dir/__/__/__/mesh/core/src/enc.c.obj
 .debug_aranges
                0x00000ea8       0x58 examples/light_switch/proxy_server/CMakeFiles/light_switch_proxy_server_nrf52840_xxAA_s140_6.0.0.dir/__/__/__/mesh/core/src/network.c.obj
 .debug_aranges
                0x00000f00       0x68 examples/light_switch/proxy_server/CMakeFiles/light_switch_proxy_server_nrf52840_xxAA_s140_6.0.0.dir/__/__/__/mesh/core/src/net_packet.c.obj
 .debug_aranges
                0x00000f68       0x48 examples/light_switch/proxy_server/CMakeFiles/light_switch_proxy_server_nrf52840_xxAA_s140_6.0.0.dir/__/__/__/mesh/core/src/msqueue.c.obj
 .debug_aranges
                0x00000fb0       0x40 examples/light_switch/proxy_server/CMakeFiles/light_switch_proxy_server_nrf52840_xxAA_s140_6.0.0.dir/__/__/__/mesh/core/src/nrf_mesh_keygen.c.obj
 .debug_aranges
                0x00000ff0       0x40 examples/light_switch/proxy_server/CMakeFiles/light_switch_proxy_server_nrf52840_xxAA_s140_6.0.0.dir/__/__/__/mesh/core/src/cache.c.obj
 .debug_aranges
                0x00001030       0x48 examples/light_switch/proxy_server/CMakeFiles/light_switch_proxy_server_nrf52840_xxAA_s140_6.0.0.dir/__/__/__/mesh/core/src/list.c.obj
 .debug_aranges
                0x00001078       0x48 examples/light_switch/proxy_server/CMakeFiles/light_switch_proxy_server_nrf52840_xxAA_s140_6.0.0.dir/__/__/__/mesh/core/src/log.c.obj
 .debug_aranges
                0x000010c0       0xf8 examples/light_switch/proxy_server/CMakeFiles/light_switch_proxy_server_nrf52840_xxAA_s140_6.0.0.dir/__/__/__/mesh/core/src/flash_manager.c.obj
 .debug_aranges
                0x000011b8       0x50 examples/light_switch/proxy_server/CMakeFiles/light_switch_proxy_server_nrf52840_xxAA_s140_6.0.0.dir/__/__/__/mesh/core/src/ccm_soft.c.obj
 .debug_aranges
                0x00001208       0x40 examples/light_switch/proxy_server/CMakeFiles/light_switch_proxy_server_nrf52840_xxAA_s140_6.0.0.dir/__/__/__/mesh/core/src/replay_cache.c.obj
 .debug_aranges
                0x00001248       0x28 examples/light_switch/proxy_server/CMakeFiles/light_switch_proxy_server_nrf52840_xxAA_s140_6.0.0.dir/__/__/__/mesh/core/src/beacon.c.obj
 .debug_aranges
                0x00001270       0x20 examples/light_switch/proxy_server/CMakeFiles/light_switch_proxy_server_nrf52840_xxAA_s140_6.0.0.dir/__/__/__/mesh/core/src/flash_manager_internal.c.obj
 .debug_aranges
                0x00001290       0x58 examples/light_switch/proxy_server/CMakeFiles/light_switch_proxy_server_nrf52840_xxAA_s140_6.0.0.dir/__/__/__/mesh/core/src/core_tx.c.obj
 .debug_aranges
                0x000012e8       0x70 examples/light_switch/proxy_server/CMakeFiles/light_switch_proxy_server_nrf52840_xxAA_s140_6.0.0.dir/__/__/__/mesh/core/src/heartbeat.c.obj
 .debug_aranges
                0x00001358       0x68 examples/light_switch/proxy_server/CMakeFiles/light_switch_proxy_server_nrf52840_xxAA_s140_6.0.0.dir/__/__/__/mesh/core/src/net_beacon.c.obj
 .debug_aranges
                0x000013c0       0x38 examples/light_switch/proxy_server/CMakeFiles/light_switch_proxy_server_nrf52840_xxAA_s140_6.0.0.dir/__/__/__/mesh/core/src/fsm.c.obj
 .debug_aranges
                0x000013f8       0x68 examples/light_switch/proxy_server/CMakeFiles/light_switch_proxy_server_nrf52840_xxAA_s140_6.0.0.dir/__/__/__/mesh/core/src/core_tx_adv.c.obj
 .debug_aranges
                0x00001460       0x30 examples/light_switch/proxy_server/CMakeFiles/light_switch_proxy_server_nrf52840_xxAA_s140_6.0.0.dir/__/__/__/mesh/bearer/src/ad_listener.c.obj
 .debug_aranges
                0x00001490       0x58 examples/light_switch/proxy_server/CMakeFiles/light_switch_proxy_server_nrf52840_xxAA_s140_6.0.0.dir/__/__/__/mesh/bearer/src/ad_type_filter.c.obj
 .debug_aranges
                0x000014e8       0xb0 examples/light_switch/proxy_server/CMakeFiles/light_switch_proxy_server_nrf52840_xxAA_s140_6.0.0.dir/__/__/__/mesh/bearer/src/advertiser.c.obj
 .debug_aranges
                0x00001598       0x70 examples/light_switch/proxy_server/CMakeFiles/light_switch_proxy_server_nrf52840_xxAA_s140_6.0.0.dir/__/__/__/mesh/bearer/src/bearer_handler.c.obj
 .debug_aranges
                0x00001608       0x30 examples/light_switch/proxy_server/CMakeFiles/light_switch_proxy_server_nrf52840_xxAA_s140_6.0.0.dir/__/__/__/mesh/bearer/src/broadcast.c.obj
 .debug_aranges
                0x00001638       0x38 examples/light_switch/proxy_server/CMakeFiles/light_switch_proxy_server_nrf52840_xxAA_s140_6.0.0.dir/__/__/__/mesh/bearer/src/filter_engine.c.obj
 .debug_aranges
                0x00001670       0x40 examples/light_switch/proxy_server/CMakeFiles/light_switch_proxy_server_nrf52840_xxAA_s140_6.0.0.dir/__/__/__/mesh/bearer/src/radio_config.c.obj
 .debug_aranges
                0x000016b0       0xe0 examples/light_switch/proxy_server/CMakeFiles/light_switch_proxy_server_nrf52840_xxAA_s140_6.0.0.dir/__/__/__/mesh/bearer/src/scanner.c.obj
 .debug_aranges
                0x00001790       0xb0 examples/light_switch/proxy_server/CMakeFiles/light_switch_proxy_server_nrf52840_xxAA_s140_6.0.0.dir/__/__/__/mesh/gatt/src/mesh_gatt.c.obj
 .debug_aranges
                0x00001840       0xd8 examples/light_switch/proxy_server/CMakeFiles/light_switch_proxy_server_nrf52840_xxAA_s140_6.0.0.dir/__/__/__/mesh/gatt/src/proxy.c.obj
 .debug_aranges
                0x00001918       0x40 examples/light_switch/proxy_server/CMakeFiles/light_switch_proxy_server_nrf52840_xxAA_s140_6.0.0.dir/__/__/__/mesh/gatt/src/proxy_filter.c.obj
 .debug_aranges
                0x00001958       0x40 examples/light_switch/proxy_server/CMakeFiles/light_switch_proxy_server_nrf52840_xxAA_s140_6.0.0.dir/__/__/__/models/simple_on_off/src/simple_on_off_server.c.obj
 .debug_aranges
                0x00001998       0x20 examples/light_switch/proxy_server/CMakeFiles/light_switch_proxy_server_nrf52840_xxAA_s140_6.0.0.dir/__/__/__/models/config/src/composition_data.c.obj
 .debug_aranges
                0x000019b8      0x218 examples/light_switch/proxy_server/CMakeFiles/light_switch_proxy_server_nrf52840_xxAA_s140_6.0.0.dir/__/__/__/models/config/src/config_server.c.obj
 .debug_aranges
                0x00001bd0       0x20 examples/light_switch/proxy_server/CMakeFiles/light_switch_proxy_server_nrf52840_xxAA_s140_6.0.0.dir/__/__/__/models/config/src/packed_index_list.c.obj
 .debug_aranges
                0x00001bf0       0xc8 examples/light_switch/proxy_server/CMakeFiles/light_switch_proxy_server_nrf52840_xxAA_s140_6.0.0.dir/__/__/__/models/health/src/health_server.c.obj
 .debug_aranges
                0x00001cb8       0x50 examples/light_switch/proxy_server/CMakeFiles/light_switch_proxy_server_nrf52840_xxAA_s140_6.0.0.dir/__/__/__/mesh/access/src/access_publish.c.obj
 .debug_aranges
                0x00001d08      0x1d0 examples/light_switch/proxy_server/CMakeFiles/light_switch_proxy_server_nrf52840_xxAA_s140_6.0.0.dir/__/__/__/mesh/access/src/access.c.obj
 .debug_aranges
                0x00001ed8       0x50 examples/light_switch/proxy_server/CMakeFiles/light_switch_proxy_server_nrf52840_xxAA_s140_6.0.0.dir/__/__/__/mesh/access/src/access_reliable.c.obj
 .debug_aranges
                0x00001f28      0x318 examples/light_switch/proxy_server/CMakeFiles/light_switch_proxy_server_nrf52840_xxAA_s140_6.0.0.dir/__/__/__/mesh/access/src/device_state_manager.c.obj
 .debug_aranges
                0x00002240       0x70 examples/light_switch/proxy_server/CMakeFiles/light_switch_proxy_server_nrf52840_xxAA_s140_6.0.0.dir/__/__/__/mesh/prov/src/prov_provisionee.c.obj
 .debug_aranges
                0x000022b0       0x88 examples/light_switch/proxy_server/CMakeFiles/light_switch_proxy_server_nrf52840_xxAA_s140_6.0.0.dir/__/__/__/mesh/prov/src/nrf_mesh_prov.c.obj
 .debug_aranges
                0x00002338       0x80 examples/light_switch/proxy_server/CMakeFiles/light_switch_proxy_server_nrf52840_xxAA_s140_6.0.0.dir/__/__/__/mesh/prov/src/provisioning.c.obj
 .debug_aranges
                0x000023b8       0x38 examples/light_switch/proxy_server/CMakeFiles/light_switch_proxy_server_nrf52840_xxAA_s140_6.0.0.dir/__/__/__/mesh/prov/src/prov_beacon.c.obj
 .debug_aranges
                0x000023f0       0x70 examples/light_switch/proxy_server/CMakeFiles/light_switch_proxy_server_nrf52840_xxAA_s140_6.0.0.dir/__/__/__/mesh/prov/src/prov_utils.c.obj
 .debug_aranges
                0x00002460       0xc8 examples/light_switch/proxy_server/CMakeFiles/light_switch_proxy_server_nrf52840_xxAA_s140_6.0.0.dir/__/__/__/mesh/prov/src/prov_bearer_adv.c.obj
 .debug_aranges
                0x00002528       0x30 examples/light_switch/proxy_server/CMakeFiles/light_switch_proxy_server_nrf52840_xxAA_s140_6.0.0.dir/C_/ver/mod/nRF5_SDK_15.0.0_a53641a/modules/nrfx/mdk/system_nrf52840.c.obj
 .debug_aranges
                0x00002558       0x28 examples/light_switch/proxy_server/CMakeFiles/light_switch_proxy_server_nrf52840_xxAA_s140_6.0.0.dir/C_/ver/mod/nRF5_SDK_15.0.0_a53641a/components/libraries/util/app_error.c.obj
 .debug_aranges
                0x00002580       0x20 examples/light_switch/proxy_server/CMakeFiles/light_switch_proxy_server_nrf52840_xxAA_s140_6.0.0.dir/C_/ver/mod/nRF5_SDK_15.0.0_a53641a/components/libraries/util/app_error_handler_gcc.c.obj
 .debug_aranges
                0x000025a0       0xd8 external/rtt/librtt_nrf52840_xxAA.a(SEGGER_RTT.c.obj)
 .debug_aranges
                0x00002678       0x38 external/rtt/librtt_nrf52840_xxAA.a(SEGGER_RTT_printf.c.obj)
 .debug_aranges
                0x000026b0      0x1a8 external/micro-ecc/libuECC_nrf52840_xxAA.a(uECC.c.obj)

.debug_ranges   0x00000000     0x6570
 .debug_ranges  0x00000000      0x268 examples/light_switch/proxy_server/CMakeFiles/light_switch_proxy_server_nrf52840_xxAA_s140_6.0.0.dir/src/main.c.obj
 .debug_ranges  0x00000268       0x70 examples/light_switch/proxy_server/CMakeFiles/light_switch_proxy_server_nrf52840_xxAA_s140_6.0.0.dir/__/__/__/mesh/stack/src/mesh_stack.c.obj
 .debug_ranges  0x000002d8       0x40 examples/light_switch/proxy_server/CMakeFiles/light_switch_proxy_server_nrf52840_xxAA_s140_6.0.0.dir/__/__/common/src/mesh_provisionee.c.obj
 .debug_ranges  0x00000318       0x20 examples/light_switch/proxy_server/CMakeFiles/light_switch_proxy_server_nrf52840_xxAA_s140_6.0.0.dir/__/__/common/src/rtt_input.c.obj
 .debug_ranges  0x00000338       0xe0 examples/light_switch/proxy_server/CMakeFiles/light_switch_proxy_server_nrf52840_xxAA_s140_6.0.0.dir/__/__/common/src/simple_hal.c.obj
 .debug_ranges  0x00000418       0x10 examples/light_switch/proxy_server/CMakeFiles/light_switch_proxy_server_nrf52840_xxAA_s140_6.0.0.dir/__/__/common/src/mesh_app_utils.c.obj
 .debug_ranges  0x00000428       0x88 examples/light_switch/proxy_server/CMakeFiles/light_switch_proxy_server_nrf52840_xxAA_s140_6.0.0.dir/__/__/common/src/mesh_adv.c.obj
 .debug_ranges  0x000004b0       0xd0 examples/light_switch/proxy_server/CMakeFiles/light_switch_proxy_server_nrf52840_xxAA_s140_6.0.0.dir/__/__/__/mesh/prov/src/nrf_mesh_prov_bearer_gatt.c.obj
 .debug_ranges  0x00000580       0x38 examples/light_switch/proxy_server/CMakeFiles/light_switch_proxy_server_nrf52840_xxAA_s140_6.0.0.dir/C_/ver/mod/nRF5_SDK_15.0.0_a53641a/components/libraries/util/app_util_platform.c.obj
 .debug_ranges  0x000005b8      0x1b8 examples/light_switch/proxy_server/CMakeFiles/light_switch_proxy_server_nrf52840_xxAA_s140_6.0.0.dir/C_/ver/mod/nRF5_SDK_15.0.0_a53641a/components/ble/common/ble_advdata.c.obj
 .debug_ranges  0x00000770       0x18 examples/light_switch/proxy_server/CMakeFiles/light_switch_proxy_server_nrf52840_xxAA_s140_6.0.0.dir/C_/ver/mod/nRF5_SDK_15.0.0_a53641a/components/libraries/experimental_section_vars/nrf_section_iter.c.obj
 .debug_ranges  0x00000788       0xb0 examples/light_switch/proxy_server/CMakeFiles/light_switch_proxy_server_nrf52840_xxAA_s140_6.0.0.dir/C_/ver/mod/nRF5_SDK_15.0.0_a53641a/components/softdevice/common/nrf_sdh.c.obj
 .debug_ranges  0x00000838       0x18 examples/light_switch/proxy_server/CMakeFiles/light_switch_proxy_server_nrf52840_xxAA_s140_6.0.0.dir/C_/ver/mod/nRF5_SDK_15.0.0_a53641a/components/softdevice/common/nrf_sdh_soc.c.obj
 .debug_ranges  0x00000850       0x58 examples/light_switch/proxy_server/CMakeFiles/light_switch_proxy_server_nrf52840_xxAA_s140_6.0.0.dir/C_/ver/mod/nRF5_SDK_15.0.0_a53641a/components/softdevice/common/nrf_sdh_ble.c.obj
 .debug_ranges  0x000008a8       0x18 examples/light_switch/proxy_server/CMakeFiles/light_switch_proxy_server_nrf52840_xxAA_s140_6.0.0.dir/__/__/nrf_mesh_weak.c.obj
 .debug_ranges  0x000008c0       0xb8 examples/light_switch/proxy_server/CMakeFiles/light_switch_proxy_server_nrf52840_xxAA_s140_6.0.0.dir/__/__/common/src/app_error_weak.c.obj
 .debug_ranges  0x00000978       0x10 examples/light_switch/proxy_server/CMakeFiles/light_switch_proxy_server_nrf52840_xxAA_s140_6.0.0.dir/__/__/common/src/assertion_handler_weak.c.obj
 .debug_ranges  0x00000988       0x20 examples/light_switch/proxy_server/CMakeFiles/light_switch_proxy_server_nrf52840_xxAA_s140_6.0.0.dir/__/__/__/mesh/core/src/nrf_mesh_configure.c.obj
 .debug_ranges  0x000009a8       0x18 examples/light_switch/proxy_server/CMakeFiles/light_switch_proxy_server_nrf52840_xxAA_s140_6.0.0.dir/__/__/__/mesh/core/src/aes.c.obj
 .debug_ranges  0x000009c0       0x48 examples/light_switch/proxy_server/CMakeFiles/light_switch_proxy_server_nrf52840_xxAA_s140_6.0.0.dir/__/__/__/mesh/core/src/msg_cache.c.obj
 .debug_ranges  0x00000a08      0x5d0 examples/light_switch/proxy_server/CMakeFiles/light_switch_proxy_server_nrf52840_xxAA_s140_6.0.0.dir/__/__/__/mesh/core/src/transport.c.obj
 .debug_ranges  0x00000fd8       0x20 examples/light_switch/proxy_server/CMakeFiles/light_switch_proxy_server_nrf52840_xxAA_s140_6.0.0.dir/__/__/__/mesh/core/src/event.c.obj
 .debug_ranges  0x00000ff8      0x128 examples/light_switch/proxy_server/CMakeFiles/light_switch_proxy_server_nrf52840_xxAA_s140_6.0.0.dir/__/__/__/mesh/core/src/packet_buffer.c.obj
 .debug_ranges  0x00001120      0x230 examples/light_switch/proxy_server/CMakeFiles/light_switch_proxy_server_nrf52840_xxAA_s140_6.0.0.dir/__/__/__/mesh/core/src/flash_manager_defrag.c.obj
 .debug_ranges  0x00001350       0x68 examples/light_switch/proxy_server/CMakeFiles/light_switch_proxy_server_nrf52840_xxAA_s140_6.0.0.dir/__/__/__/mesh/core/src/fifo.c.obj
 .debug_ranges  0x000013b8       0x38 examples/light_switch/proxy_server/CMakeFiles/light_switch_proxy_server_nrf52840_xxAA_s140_6.0.0.dir/__/__/__/mesh/core/src/nrf_flash.c.obj
 .debug_ranges  0x000013f0       0xe0 examples/light_switch/proxy_server/CMakeFiles/light_switch_proxy_server_nrf52840_xxAA_s140_6.0.0.dir/__/__/__/mesh/core/src/packet_mgr.c.obj
 .debug_ranges  0x000014d0      0x1f8 examples/light_switch/proxy_server/CMakeFiles/light_switch_proxy_server_nrf52840_xxAA_s140_6.0.0.dir/__/__/__/mesh/core/src/net_state.c.obj
 .debug_ranges  0x000016c8      0x1c8 examples/light_switch/proxy_server/CMakeFiles/light_switch_proxy_server_nrf52840_xxAA_s140_6.0.0.dir/__/__/__/mesh/core/src/mesh_flash.c.obj
 .debug_ranges  0x00001890       0x20 examples/light_switch/proxy_server/CMakeFiles/light_switch_proxy_server_nrf52840_xxAA_s140_6.0.0.dir/__/__/__/mesh/core/src/nrf_mesh_utils.c.obj
 .debug_ranges  0x000018b0       0xe0 examples/light_switch/proxy_server/CMakeFiles/light_switch_proxy_server_nrf52840_xxAA_s140_6.0.0.dir/__/__/__/mesh/core/src/nrf_mesh.c.obj
 .debug_ranges  0x00001990       0x28 examples/light_switch/proxy_server/CMakeFiles/light_switch_proxy_server_nrf52840_xxAA_s140_6.0.0.dir/__/__/__/mesh/core/src/queue.c.obj
 .debug_ranges  0x000019b8       0x20 examples/light_switch/proxy_server/CMakeFiles/light_switch_proxy_server_nrf52840_xxAA_s140_6.0.0.dir/__/__/__/mesh/core/src/hal.c.obj
 .debug_ranges  0x000019d8       0x98 examples/light_switch/proxy_server/CMakeFiles/light_switch_proxy_server_nrf52840_xxAA_s140_6.0.0.dir/__/__/__/mesh/core/src/aes_cmac.c.obj
 .debug_ranges  0x00001a70       0xf0 examples/light_switch/proxy_server/CMakeFiles/light_switch_proxy_server_nrf52840_xxAA_s140_6.0.0.dir/__/__/__/mesh/core/src/timer_scheduler.c.obj
 .debug_ranges  0x00001b60       0xd8 examples/light_switch/proxy_server/CMakeFiles/light_switch_proxy_server_nrf52840_xxAA_s140_6.0.0.dir/__/__/__/mesh/core/src/timer.c.obj
 .debug_ranges  0x00001c38       0x20 examples/light_switch/proxy_server/CMakeFiles/light_switch_proxy_server_nrf52840_xxAA_s140_6.0.0.dir/__/__/__/mesh/core/src/ticker.c.obj
 .debug_ranges  0x00001c58       0x30 examples/light_switch/proxy_server/CMakeFiles/light_switch_proxy_server_nrf52840_xxAA_s140_6.0.0.dir/__/__/__/mesh/core/src/rand.c.obj
 .debug_ranges  0x00001c88       0x18 examples/light_switch/proxy_server/CMakeFiles/light_switch_proxy_server_nrf52840_xxAA_s140_6.0.0.dir/__/__/__/mesh/core/src/nrf_mesh_opt.c.obj
 .debug_ranges  0x00001ca0      0x168 examples/light_switch/proxy_server/CMakeFiles/light_switch_proxy_server_nrf52840_xxAA_s140_6.0.0.dir/__/__/__/mesh/core/src/timeslot.c.obj
 .debug_ranges  0x00001e08       0xf8 examples/light_switch/proxy_server/CMakeFiles/light_switch_proxy_server_nrf52840_xxAA_s140_6.0.0.dir/__/__/__/mesh/core/src/bearer_event.c.obj
 .debug_ranges  0x00001f00       0xb0 examples/light_switch/proxy_server/CMakeFiles/light_switch_proxy_server_nrf52840_xxAA_s140_6.0.0.dir/__/__/__/mesh/core/src/enc.c.obj
 .debug_ranges  0x00001fb0       0xd0 examples/light_switch/proxy_server/CMakeFiles/light_switch_proxy_server_nrf52840_xxAA_s140_6.0.0.dir/__/__/__/mesh/core/src/network.c.obj
 .debug_ranges  0x00002080      0x160 examples/light_switch/proxy_server/CMakeFiles/light_switch_proxy_server_nrf52840_xxAA_s140_6.0.0.dir/__/__/__/mesh/core/src/net_packet.c.obj
 .debug_ranges  0x000021e0       0x50 examples/light_switch/proxy_server/CMakeFiles/light_switch_proxy_server_nrf52840_xxAA_s140_6.0.0.dir/__/__/__/mesh/core/src/msqueue.c.obj
 .debug_ranges  0x00002230       0x30 examples/light_switch/proxy_server/CMakeFiles/light_switch_proxy_server_nrf52840_xxAA_s140_6.0.0.dir/__/__/__/mesh/core/src/nrf_mesh_keygen.c.obj
 .debug_ranges  0x00002260       0x80 examples/light_switch/proxy_server/CMakeFiles/light_switch_proxy_server_nrf52840_xxAA_s140_6.0.0.dir/__/__/__/mesh/core/src/cache.c.obj
 .debug_ranges  0x000022e0       0x78 examples/light_switch/proxy_server/CMakeFiles/light_switch_proxy_server_nrf52840_xxAA_s140_6.0.0.dir/__/__/__/mesh/core/src/list.c.obj
 .debug_ranges  0x00002358       0x38 examples/light_switch/proxy_server/CMakeFiles/light_switch_proxy_server_nrf52840_xxAA_s140_6.0.0.dir/__/__/__/mesh/core/src/log.c.obj
 .debug_ranges  0x00002390      0x388 examples/light_switch/proxy_server/CMakeFiles/light_switch_proxy_server_nrf52840_xxAA_s140_6.0.0.dir/__/__/__/mesh/core/src/flash_manager.c.obj
 .debug_ranges  0x00002718       0x40 examples/light_switch/proxy_server/CMakeFiles/light_switch_proxy_server_nrf52840_xxAA_s140_6.0.0.dir/__/__/__/mesh/core/src/ccm_soft.c.obj
 .debug_ranges  0x00002758       0x30 examples/light_switch/proxy_server/CMakeFiles/light_switch_proxy_server_nrf52840_xxAA_s140_6.0.0.dir/__/__/__/mesh/core/src/replay_cache.c.obj
 .debug_ranges  0x00002788       0x90 examples/light_switch/proxy_server/CMakeFiles/light_switch_proxy_server_nrf52840_xxAA_s140_6.0.0.dir/__/__/__/mesh/core/src/beacon.c.obj
 .debug_ranges  0x00002818       0x10 examples/light_switch/proxy_server/CMakeFiles/light_switch_proxy_server_nrf52840_xxAA_s140_6.0.0.dir/__/__/__/mesh/core/src/flash_manager_internal.c.obj
 .debug_ranges  0x00002828       0xf8 examples/light_switch/proxy_server/CMakeFiles/light_switch_proxy_server_nrf52840_xxAA_s140_6.0.0.dir/__/__/__/mesh/core/src/core_tx.c.obj
 .debug_ranges  0x00002920       0xa8 examples/light_switch/proxy_server/CMakeFiles/light_switch_proxy_server_nrf52840_xxAA_s140_6.0.0.dir/__/__/__/mesh/core/src/heartbeat.c.obj
 .debug_ranges  0x000029c8      0x170 examples/light_switch/proxy_server/CMakeFiles/light_switch_proxy_server_nrf52840_xxAA_s140_6.0.0.dir/__/__/__/mesh/core/src/net_beacon.c.obj
 .debug_ranges  0x00002b38       0xe0 examples/light_switch/proxy_server/CMakeFiles/light_switch_proxy_server_nrf52840_xxAA_s140_6.0.0.dir/__/__/__/mesh/core/src/fsm.c.obj
 .debug_ranges  0x00002c18       0x58 examples/light_switch/proxy_server/CMakeFiles/light_switch_proxy_server_nrf52840_xxAA_s140_6.0.0.dir/__/__/__/mesh/core/src/core_tx_adv.c.obj
 .debug_ranges  0x00002c70       0xf8 examples/light_switch/proxy_server/CMakeFiles/light_switch_proxy_server_nrf52840_xxAA_s140_6.0.0.dir/__/__/__/mesh/bearer/src/ad_listener.c.obj
 .debug_ranges  0x00002d68       0xd0 examples/light_switch/proxy_server/CMakeFiles/light_switch_proxy_server_nrf52840_xxAA_s140_6.0.0.dir/__/__/__/mesh/bearer/src/ad_type_filter.c.obj
 .debug_ranges  0x00002e38      0x240 examples/light_switch/proxy_server/CMakeFiles/light_switch_proxy_server_nrf52840_xxAA_s140_6.0.0.dir/__/__/__/mesh/bearer/src/advertiser.c.obj
 .debug_ranges  0x00003078       0xb0 examples/light_switch/proxy_server/CMakeFiles/light_switch_proxy_server_nrf52840_xxAA_s140_6.0.0.dir/__/__/__/mesh/bearer/src/bearer_handler.c.obj
 .debug_ranges  0x00003128       0xa8 examples/light_switch/proxy_server/CMakeFiles/light_switch_proxy_server_nrf52840_xxAA_s140_6.0.0.dir/__/__/__/mesh/bearer/src/broadcast.c.obj
 .debug_ranges  0x000031d0       0x48 examples/light_switch/proxy_server/CMakeFiles/light_switch_proxy_server_nrf52840_xxAA_s140_6.0.0.dir/__/__/__/mesh/bearer/src/filter_engine.c.obj
 .debug_ranges  0x00003218       0x48 examples/light_switch/proxy_server/CMakeFiles/light_switch_proxy_server_nrf52840_xxAA_s140_6.0.0.dir/__/__/__/mesh/bearer/src/radio_config.c.obj
 .debug_ranges  0x00003260      0x198 examples/light_switch/proxy_server/CMakeFiles/light_switch_proxy_server_nrf52840_xxAA_s140_6.0.0.dir/__/__/__/mesh/bearer/src/scanner.c.obj
 .debug_ranges  0x000033f8      0x190 examples/light_switch/proxy_server/CMakeFiles/light_switch_proxy_server_nrf52840_xxAA_s140_6.0.0.dir/__/__/__/mesh/gatt/src/mesh_gatt.c.obj
 .debug_ranges  0x00003588      0x4a8 examples/light_switch/proxy_server/CMakeFiles/light_switch_proxy_server_nrf52840_xxAA_s140_6.0.0.dir/__/__/__/mesh/gatt/src/proxy.c.obj
 .debug_ranges  0x00003a30       0x90 examples/light_switch/proxy_server/CMakeFiles/light_switch_proxy_server_nrf52840_xxAA_s140_6.0.0.dir/__/__/__/mesh/gatt/src/proxy_filter.c.obj
 .debug_ranges  0x00003ac0       0x48 examples/light_switch/proxy_server/CMakeFiles/light_switch_proxy_server_nrf52840_xxAA_s140_6.0.0.dir/__/__/__/models/simple_on_off/src/simple_on_off_server.c.obj
 .debug_ranges  0x00003b08       0xa8 examples/light_switch/proxy_server/CMakeFiles/light_switch_proxy_server_nrf52840_xxAA_s140_6.0.0.dir/__/__/__/models/config/src/composition_data.c.obj
 .debug_ranges  0x00003bb0      0x7d8 examples/light_switch/proxy_server/CMakeFiles/light_switch_proxy_server_nrf52840_xxAA_s140_6.0.0.dir/__/__/__/models/config/src/config_server.c.obj
 .debug_ranges  0x00004388       0x10 examples/light_switch/proxy_server/CMakeFiles/light_switch_proxy_server_nrf52840_xxAA_s140_6.0.0.dir/__/__/__/models/config/src/packed_index_list.c.obj
 .debug_ranges  0x00004398      0x260 examples/light_switch/proxy_server/CMakeFiles/light_switch_proxy_server_nrf52840_xxAA_s140_6.0.0.dir/__/__/__/models/health/src/health_server.c.obj
 .debug_ranges  0x000045f8      0x118 examples/light_switch/proxy_server/CMakeFiles/light_switch_proxy_server_nrf52840_xxAA_s140_6.0.0.dir/__/__/__/mesh/access/src/access_publish.c.obj
 .debug_ranges  0x00004710      0x7f0 examples/light_switch/proxy_server/CMakeFiles/light_switch_proxy_server_nrf52840_xxAA_s140_6.0.0.dir/__/__/__/mesh/access/src/access.c.obj
 .debug_ranges  0x00004f00      0x160 examples/light_switch/proxy_server/CMakeFiles/light_switch_proxy_server_nrf52840_xxAA_s140_6.0.0.dir/__/__/__/mesh/access/src/access_reliable.c.obj
 .debug_ranges  0x00005060      0x808 examples/light_switch/proxy_server/CMakeFiles/light_switch_proxy_server_nrf52840_xxAA_s140_6.0.0.dir/__/__/__/mesh/access/src/device_state_manager.c.obj
 .debug_ranges  0x00005868      0x148 examples/light_switch/proxy_server/CMakeFiles/light_switch_proxy_server_nrf52840_xxAA_s140_6.0.0.dir/__/__/__/mesh/prov/src/prov_provisionee.c.obj
 .debug_ranges  0x000059b0      0x130 examples/light_switch/proxy_server/CMakeFiles/light_switch_proxy_server_nrf52840_xxAA_s140_6.0.0.dir/__/__/__/mesh/prov/src/nrf_mesh_prov.c.obj
 .debug_ranges  0x00005ae0       0x70 examples/light_switch/proxy_server/CMakeFiles/light_switch_proxy_server_nrf52840_xxAA_s140_6.0.0.dir/__/__/__/mesh/prov/src/provisioning.c.obj
 .debug_ranges  0x00005b50       0x40 examples/light_switch/proxy_server/CMakeFiles/light_switch_proxy_server_nrf52840_xxAA_s140_6.0.0.dir/__/__/__/mesh/prov/src/prov_beacon.c.obj
 .debug_ranges  0x00005b90       0xa0 examples/light_switch/proxy_server/CMakeFiles/light_switch_proxy_server_nrf52840_xxAA_s140_6.0.0.dir/__/__/__/mesh/prov/src/prov_utils.c.obj
 .debug_ranges  0x00005c30      0x498 examples/light_switch/proxy_server/CMakeFiles/light_switch_proxy_server_nrf52840_xxAA_s140_6.0.0.dir/__/__/__/mesh/prov/src/prov_bearer_adv.c.obj
 .debug_ranges  0x000060c8       0x20 examples/light_switch/proxy_server/CMakeFiles/light_switch_proxy_server_nrf52840_xxAA_s140_6.0.0.dir/C_/ver/mod/nRF5_SDK_15.0.0_a53641a/modules/nrfx/mdk/system_nrf52840.c.obj
 .debug_ranges  0x000060e8       0x18 examples/light_switch/proxy_server/CMakeFiles/light_switch_proxy_server_nrf52840_xxAA_s140_6.0.0.dir/C_/ver/mod/nRF5_SDK_15.0.0_a53641a/components/libraries/util/app_error.c.obj
 .debug_ranges  0x00006100       0x10 examples/light_switch/proxy_server/CMakeFiles/light_switch_proxy_server_nrf52840_xxAA_s140_6.0.0.dir/C_/ver/mod/nRF5_SDK_15.0.0_a53641a/components/libraries/util/app_error_handler_gcc.c.obj
 .debug_ranges  0x00006110      0x130 external/rtt/librtt_nrf52840_xxAA.a(SEGGER_RTT.c.obj)
 .debug_ranges  0x00006240       0x48 external/rtt/librtt_nrf52840_xxAA.a(SEGGER_RTT_printf.c.obj)
 .debug_ranges  0x00006288      0x2e8 external/micro-ecc/libuECC_nrf52840_xxAA.a(uECC.c.obj)

.debug_line     0x00000000    0x1b56b
 .debug_line    0x00000000      0x946 examples/light_switch/proxy_server/CMakeFiles/light_switch_proxy_server_nrf52840_xxAA_s140_6.0.0.dir/src/main.c.obj
 .debug_line    0x00000946      0x4d0 examples/light_switch/proxy_server/CMakeFiles/light_switch_proxy_server_nrf52840_xxAA_s140_6.0.0.dir/__/__/__/mesh/stack/src/mesh_stack.c.obj
 .debug_line    0x00000e16      0x60c examples/light_switch/proxy_server/CMakeFiles/light_switch_proxy_server_nrf52840_xxAA_s140_6.0.0.dir/__/__/common/src/mesh_provisionee.c.obj
 .debug_line    0x00001422      0x2ac examples/light_switch/proxy_server/CMakeFiles/light_switch_proxy_server_nrf52840_xxAA_s140_6.0.0.dir/__/__/common/src/rtt_input.c.obj
 .debug_line    0x000016ce      0x49c examples/light_switch/proxy_server/CMakeFiles/light_switch_proxy_server_nrf52840_xxAA_s140_6.0.0.dir/__/__/common/src/simple_hal.c.obj
 .debug_line    0x00001b6a      0x21c examples/light_switch/proxy_server/CMakeFiles/light_switch_proxy_server_nrf52840_xxAA_s140_6.0.0.dir/__/__/common/src/mesh_app_utils.c.obj
 .debug_line    0x00001d86      0x3d5 examples/light_switch/proxy_server/CMakeFiles/light_switch_proxy_server_nrf52840_xxAA_s140_6.0.0.dir/__/__/common/src/mesh_adv.c.obj
 .debug_line    0x0000215b      0x543 examples/light_switch/proxy_server/CMakeFiles/light_switch_proxy_server_nrf52840_xxAA_s140_6.0.0.dir/__/__/__/mesh/prov/src/nrf_mesh_prov_bearer_gatt.c.obj
 .debug_line    0x0000269e      0x352 examples/light_switch/proxy_server/CMakeFiles/light_switch_proxy_server_nrf52840_xxAA_s140_6.0.0.dir/C_/ver/mod/nRF5_SDK_15.0.0_a53641a/components/libraries/util/app_util_platform.c.obj
 .debug_line    0x000029f0      0x618 examples/light_switch/proxy_server/CMakeFiles/light_switch_proxy_server_nrf52840_xxAA_s140_6.0.0.dir/C_/ver/mod/nRF5_SDK_15.0.0_a53641a/components/ble/common/ble_advdata.c.obj
 .debug_line    0x00003008      0x285 examples/light_switch/proxy_server/CMakeFiles/light_switch_proxy_server_nrf52840_xxAA_s140_6.0.0.dir/C_/ver/mod/nRF5_SDK_15.0.0_a53641a/components/libraries/experimental_section_vars/nrf_section_iter.c.obj
 .debug_line    0x0000328d      0x5c9 examples/light_switch/proxy_server/CMakeFiles/light_switch_proxy_server_nrf52840_xxAA_s140_6.0.0.dir/C_/ver/mod/nRF5_SDK_15.0.0_a53641a/components/softdevice/common/nrf_sdh.c.obj
 .debug_line    0x00003856      0x426 examples/light_switch/proxy_server/CMakeFiles/light_switch_proxy_server_nrf52840_xxAA_s140_6.0.0.dir/C_/ver/mod/nRF5_SDK_15.0.0_a53641a/components/softdevice/common/nrf_sdh_soc.c.obj
 .debug_line    0x00003c7c      0x547 examples/light_switch/proxy_server/CMakeFiles/light_switch_proxy_server_nrf52840_xxAA_s140_6.0.0.dir/C_/ver/mod/nRF5_SDK_15.0.0_a53641a/components/softdevice/common/nrf_sdh_ble.c.obj
 .debug_line    0x000041c3      0x1f1 examples/light_switch/proxy_server/CMakeFiles/light_switch_proxy_server_nrf52840_xxAA_s140_6.0.0.dir/__/__/nrf_mesh_weak.c.obj
 .debug_line    0x000043b4      0x48b examples/light_switch/proxy_server/CMakeFiles/light_switch_proxy_server_nrf52840_xxAA_s140_6.0.0.dir/__/__/common/src/app_error_weak.c.obj
 .debug_line    0x0000483f      0x23d examples/light_switch/proxy_server/CMakeFiles/light_switch_proxy_server_nrf52840_xxAA_s140_6.0.0.dir/__/__/common/src/assertion_handler_weak.c.obj
 .debug_line    0x00004a7c      0x231 examples/light_switch/proxy_server/CMakeFiles/light_switch_proxy_server_nrf52840_xxAA_s140_6.0.0.dir/__/__/__/mesh/core/src/nrf_mesh_configure.c.obj
 .debug_line    0x00004cad      0x25c examples/light_switch/proxy_server/CMakeFiles/light_switch_proxy_server_nrf52840_xxAA_s140_6.0.0.dir/__/__/__/mesh/core/src/aes.c.obj
 .debug_line    0x00004f09      0x264 examples/light_switch/proxy_server/CMakeFiles/light_switch_proxy_server_nrf52840_xxAA_s140_6.0.0.dir/__/__/__/mesh/core/src/msg_cache.c.obj
 .debug_line    0x0000516d      0xcc9 examples/light_switch/proxy_server/CMakeFiles/light_switch_proxy_server_nrf52840_xxAA_s140_6.0.0.dir/__/__/__/mesh/core/src/transport.c.obj
 .debug_line    0x00005e36      0x2ec examples/light_switch/proxy_server/CMakeFiles/light_switch_proxy_server_nrf52840_xxAA_s140_6.0.0.dir/__/__/__/mesh/core/src/event.c.obj
 .debug_line    0x00006122      0x4bb examples/light_switch/proxy_server/CMakeFiles/light_switch_proxy_server_nrf52840_xxAA_s140_6.0.0.dir/__/__/__/mesh/core/src/packet_buffer.c.obj
 .debug_line    0x000065dd      0x6dd examples/light_switch/proxy_server/CMakeFiles/light_switch_proxy_server_nrf52840_xxAA_s140_6.0.0.dir/__/__/__/mesh/core/src/flash_manager_defrag.c.obj
 .debug_line    0x00006cba      0x37b examples/light_switch/proxy_server/CMakeFiles/light_switch_proxy_server_nrf52840_xxAA_s140_6.0.0.dir/__/__/__/mesh/core/src/fifo.c.obj
 .debug_line    0x00007035      0x242 examples/light_switch/proxy_server/CMakeFiles/light_switch_proxy_server_nrf52840_xxAA_s140_6.0.0.dir/__/__/__/mesh/core/src/nrf_flash.c.obj
 .debug_line    0x00007277      0x420 examples/light_switch/proxy_server/CMakeFiles/light_switch_proxy_server_nrf52840_xxAA_s140_6.0.0.dir/__/__/__/mesh/core/src/packet_mgr.c.obj
 .debug_line    0x00007697      0x6bf examples/light_switch/proxy_server/CMakeFiles/light_switch_proxy_server_nrf52840_xxAA_s140_6.0.0.dir/__/__/__/mesh/core/src/net_state.c.obj
 .debug_line    0x00007d56      0x517 examples/light_switch/proxy_server/CMakeFiles/light_switch_proxy_server_nrf52840_xxAA_s140_6.0.0.dir/__/__/__/mesh/core/src/mesh_flash.c.obj
 .debug_line    0x0000826d      0x258 examples/light_switch/proxy_server/CMakeFiles/light_switch_proxy_server_nrf52840_xxAA_s140_6.0.0.dir/__/__/__/mesh/core/src/nrf_mesh_utils.c.obj
 .debug_line    0x000084c5      0x780 examples/light_switch/proxy_server/CMakeFiles/light_switch_proxy_server_nrf52840_xxAA_s140_6.0.0.dir/__/__/__/mesh/core/src/nrf_mesh.c.obj
 .debug_line    0x00008c45      0x290 examples/light_switch/proxy_server/CMakeFiles/light_switch_proxy_server_nrf52840_xxAA_s140_6.0.0.dir/__/__/__/mesh/core/src/queue.c.obj
 .debug_line    0x00008ed5      0x20f examples/light_switch/proxy_server/CMakeFiles/light_switch_proxy_server_nrf52840_xxAA_s140_6.0.0.dir/__/__/__/mesh/core/src/hal.c.obj
 .debug_line    0x000090e4      0x2d5 examples/light_switch/proxy_server/CMakeFiles/light_switch_proxy_server_nrf52840_xxAA_s140_6.0.0.dir/__/__/__/mesh/core/src/aes_cmac.c.obj
 .debug_line    0x000093b9      0x42e examples/light_switch/proxy_server/CMakeFiles/light_switch_proxy_server_nrf52840_xxAA_s140_6.0.0.dir/__/__/__/mesh/core/src/timer_scheduler.c.obj
 .debug_line    0x000097e7      0x3b1 examples/light_switch/proxy_server/CMakeFiles/light_switch_proxy_server_nrf52840_xxAA_s140_6.0.0.dir/__/__/__/mesh/core/src/timer.c.obj
 .debug_line    0x00009b98      0x124 examples/light_switch/proxy_server/CMakeFiles/light_switch_proxy_server_nrf52840_xxAA_s140_6.0.0.dir/__/__/__/mesh/core/src/ticker.c.obj
 .debug_line    0x00009cbc      0x27b examples/light_switch/proxy_server/CMakeFiles/light_switch_proxy_server_nrf52840_xxAA_s140_6.0.0.dir/__/__/__/mesh/core/src/rand.c.obj
 .debug_line    0x00009f37      0x266 examples/light_switch/proxy_server/CMakeFiles/light_switch_proxy_server_nrf52840_xxAA_s140_6.0.0.dir/__/__/__/mesh/core/src/nrf_mesh_opt.c.obj
 .debug_line    0x0000a19d      0x560 examples/light_switch/proxy_server/CMakeFiles/light_switch_proxy_server_nrf52840_xxAA_s140_6.0.0.dir/__/__/__/mesh/core/src/timeslot.c.obj
 .debug_line    0x0000a6fd      0x519 examples/light_switch/proxy_server/CMakeFiles/light_switch_proxy_server_nrf52840_xxAA_s140_6.0.0.dir/__/__/__/mesh/core/src/bearer_event.c.obj
 .debug_line    0x0000ac16      0x422 examples/light_switch/proxy_server/CMakeFiles/light_switch_proxy_server_nrf52840_xxAA_s140_6.0.0.dir/__/__/__/mesh/core/src/enc.c.obj
 .debug_line    0x0000b038      0x555 examples/light_switch/proxy_server/CMakeFiles/light_switch_proxy_server_nrf52840_xxAA_s140_6.0.0.dir/__/__/__/mesh/core/src/network.c.obj
 .debug_line    0x0000b58d      0x560 examples/light_switch/proxy_server/CMakeFiles/light_switch_proxy_server_nrf52840_xxAA_s140_6.0.0.dir/__/__/__/mesh/core/src/net_packet.c.obj
 .debug_line    0x0000baed      0x2ff examples/light_switch/proxy_server/CMakeFiles/light_switch_proxy_server_nrf52840_xxAA_s140_6.0.0.dir/__/__/__/mesh/core/src/msqueue.c.obj
 .debug_line    0x0000bdec      0x235 examples/light_switch/proxy_server/CMakeFiles/light_switch_proxy_server_nrf52840_xxAA_s140_6.0.0.dir/__/__/__/mesh/core/src/nrf_mesh_keygen.c.obj
 .debug_line    0x0000c021      0x21e examples/light_switch/proxy_server/CMakeFiles/light_switch_proxy_server_nrf52840_xxAA_s140_6.0.0.dir/__/__/__/mesh/core/src/cache.c.obj
 .debug_line    0x0000c23f      0x2df examples/light_switch/proxy_server/CMakeFiles/light_switch_proxy_server_nrf52840_xxAA_s140_6.0.0.dir/__/__/__/mesh/core/src/list.c.obj
 .debug_line    0x0000c51e      0x284 examples/light_switch/proxy_server/CMakeFiles/light_switch_proxy_server_nrf52840_xxAA_s140_6.0.0.dir/__/__/__/mesh/core/src/log.c.obj
 .debug_line    0x0000c7a2      0x905 examples/light_switch/proxy_server/CMakeFiles/light_switch_proxy_server_nrf52840_xxAA_s140_6.0.0.dir/__/__/__/mesh/core/src/flash_manager.c.obj
 .debug_line    0x0000d0a7      0x34c examples/light_switch/proxy_server/CMakeFiles/light_switch_proxy_server_nrf52840_xxAA_s140_6.0.0.dir/__/__/__/mesh/core/src/ccm_soft.c.obj
 .debug_line    0x0000d3f3      0x1cd examples/light_switch/proxy_server/CMakeFiles/light_switch_proxy_server_nrf52840_xxAA_s140_6.0.0.dir/__/__/__/mesh/core/src/replay_cache.c.obj
 .debug_line    0x0000d5c0      0x496 examples/light_switch/proxy_server/CMakeFiles/light_switch_proxy_server_nrf52840_xxAA_s140_6.0.0.dir/__/__/__/mesh/core/src/beacon.c.obj
 .debug_line    0x0000da56      0x278 examples/light_switch/proxy_server/CMakeFiles/light_switch_proxy_server_nrf52840_xxAA_s140_6.0.0.dir/__/__/__/mesh/core/src/flash_manager_internal.c.obj
 .debug_line    0x0000dcce      0x3a5 examples/light_switch/proxy_server/CMakeFiles/light_switch_proxy_server_nrf52840_xxAA_s140_6.0.0.dir/__/__/__/mesh/core/src/core_tx.c.obj
 .debug_line    0x0000e073      0x5ac examples/light_switch/proxy_server/CMakeFiles/light_switch_proxy_server_nrf52840_xxAA_s140_6.0.0.dir/__/__/__/mesh/core/src/heartbeat.c.obj
 .debug_line    0x0000e61f      0x600 examples/light_switch/proxy_server/CMakeFiles/light_switch_proxy_server_nrf52840_xxAA_s140_6.0.0.dir/__/__/__/mesh/core/src/net_beacon.c.obj
 .debug_line    0x0000ec1f      0x3e8 examples/light_switch/proxy_server/CMakeFiles/light_switch_proxy_server_nrf52840_xxAA_s140_6.0.0.dir/__/__/__/mesh/core/src/fsm.c.obj
 .debug_line    0x0000f007      0x4c5 examples/light_switch/proxy_server/CMakeFiles/light_switch_proxy_server_nrf52840_xxAA_s140_6.0.0.dir/__/__/__/mesh/core/src/core_tx_adv.c.obj
 .debug_line    0x0000f4cc      0x33c examples/light_switch/proxy_server/CMakeFiles/light_switch_proxy_server_nrf52840_xxAA_s140_6.0.0.dir/__/__/__/mesh/bearer/src/ad_listener.c.obj
 .debug_line    0x0000f808      0x3f1 examples/light_switch/proxy_server/CMakeFiles/light_switch_proxy_server_nrf52840_xxAA_s140_6.0.0.dir/__/__/__/mesh/bearer/src/ad_type_filter.c.obj
 .debug_line    0x0000fbf9      0x6df examples/light_switch/proxy_server/CMakeFiles/light_switch_proxy_server_nrf52840_xxAA_s140_6.0.0.dir/__/__/__/mesh/bearer/src/advertiser.c.obj
 .debug_line    0x000102d8      0x4a7 examples/light_switch/proxy_server/CMakeFiles/light_switch_proxy_server_nrf52840_xxAA_s140_6.0.0.dir/__/__/__/mesh/bearer/src/bearer_handler.c.obj
 .debug_line    0x0001077f      0x363 examples/light_switch/proxy_server/CMakeFiles/light_switch_proxy_server_nrf52840_xxAA_s140_6.0.0.dir/__/__/__/mesh/bearer/src/broadcast.c.obj
 .debug_line    0x00010ae2      0x32f examples/light_switch/proxy_server/CMakeFiles/light_switch_proxy_server_nrf52840_xxAA_s140_6.0.0.dir/__/__/__/mesh/bearer/src/filter_engine.c.obj
 .debug_line    0x00010e11      0x298 examples/light_switch/proxy_server/CMakeFiles/light_switch_proxy_server_nrf52840_xxAA_s140_6.0.0.dir/__/__/__/mesh/bearer/src/radio_config.c.obj
 .debug_line    0x000110a9      0x68e examples/light_switch/proxy_server/CMakeFiles/light_switch_proxy_server_nrf52840_xxAA_s140_6.0.0.dir/__/__/__/mesh/bearer/src/scanner.c.obj
 .debug_line    0x00011737      0x7f1 examples/light_switch/proxy_server/CMakeFiles/light_switch_proxy_server_nrf52840_xxAA_s140_6.0.0.dir/__/__/__/mesh/gatt/src/mesh_gatt.c.obj
 .debug_line    0x00011f28      0xab0 examples/light_switch/proxy_server/CMakeFiles/light_switch_proxy_server_nrf52840_xxAA_s140_6.0.0.dir/__/__/__/mesh/gatt/src/proxy.c.obj
 .debug_line    0x000129d8      0x27c examples/light_switch/proxy_server/CMakeFiles/light_switch_proxy_server_nrf52840_xxAA_s140_6.0.0.dir/__/__/__/mesh/gatt/src/proxy_filter.c.obj
 .debug_line    0x00012c54      0x34c examples/light_switch/proxy_server/CMakeFiles/light_switch_proxy_server_nrf52840_xxAA_s140_6.0.0.dir/__/__/__/models/simple_on_off/src/simple_on_off_server.c.obj
 .debug_line    0x00012fa0      0x2f9 examples/light_switch/proxy_server/CMakeFiles/light_switch_proxy_server_nrf52840_xxAA_s140_6.0.0.dir/__/__/__/models/config/src/composition_data.c.obj
 .debug_line    0x00013299     0x13b4 examples/light_switch/proxy_server/CMakeFiles/light_switch_proxy_server_nrf52840_xxAA_s140_6.0.0.dir/__/__/__/models/config/src/config_server.c.obj
 .debug_line    0x0001464d       0xef examples/light_switch/proxy_server/CMakeFiles/light_switch_proxy_server_nrf52840_xxAA_s140_6.0.0.dir/__/__/__/models/config/src/packed_index_list.c.obj
 .debug_line    0x0001473c      0x6a3 examples/light_switch/proxy_server/CMakeFiles/light_switch_proxy_server_nrf52840_xxAA_s140_6.0.0.dir/__/__/__/models/health/src/health_server.c.obj
 .debug_line    0x00014ddf      0x41d examples/light_switch/proxy_server/CMakeFiles/light_switch_proxy_server_nrf52840_xxAA_s140_6.0.0.dir/__/__/__/mesh/access/src/access_publish.c.obj
 .debug_line    0x000151fc      0xef2 examples/light_switch/proxy_server/CMakeFiles/light_switch_proxy_server_nrf52840_xxAA_s140_6.0.0.dir/__/__/__/mesh/access/src/access.c.obj
 .debug_line    0x000160ee      0x528 examples/light_switch/proxy_server/CMakeFiles/light_switch_proxy_server_nrf52840_xxAA_s140_6.0.0.dir/__/__/__/mesh/access/src/access_reliable.c.obj
 .debug_line    0x00016616     0x13f6 examples/light_switch/proxy_server/CMakeFiles/light_switch_proxy_server_nrf52840_xxAA_s140_6.0.0.dir/__/__/__/mesh/access/src/device_state_manager.c.obj
 .debug_line    0x00017a0c      0x630 examples/light_switch/proxy_server/CMakeFiles/light_switch_proxy_server_nrf52840_xxAA_s140_6.0.0.dir/__/__/__/mesh/prov/src/prov_provisionee.c.obj
 .debug_line    0x0001803c      0x563 examples/light_switch/proxy_server/CMakeFiles/light_switch_proxy_server_nrf52840_xxAA_s140_6.0.0.dir/__/__/__/mesh/prov/src/nrf_mesh_prov.c.obj
 .debug_line    0x0001859f      0x3bd examples/light_switch/proxy_server/CMakeFiles/light_switch_proxy_server_nrf52840_xxAA_s140_6.0.0.dir/__/__/__/mesh/prov/src/provisioning.c.obj
 .debug_line    0x0001895c      0x463 examples/light_switch/proxy_server/CMakeFiles/light_switch_proxy_server_nrf52840_xxAA_s140_6.0.0.dir/__/__/__/mesh/prov/src/prov_beacon.c.obj
 .debug_line    0x00018dbf      0x4a0 examples/light_switch/proxy_server/CMakeFiles/light_switch_proxy_server_nrf52840_xxAA_s140_6.0.0.dir/__/__/__/mesh/prov/src/prov_utils.c.obj
 .debug_line    0x0001925f      0xb2d examples/light_switch/proxy_server/CMakeFiles/light_switch_proxy_server_nrf52840_xxAA_s140_6.0.0.dir/__/__/__/mesh/prov/src/prov_bearer_adv.c.obj
 .debug_line    0x00019d8c      0x20b examples/light_switch/proxy_server/CMakeFiles/light_switch_proxy_server_nrf52840_xxAA_s140_6.0.0.dir/C_/ver/mod/nRF5_SDK_15.0.0_a53641a/modules/nrfx/mdk/system_nrf52840.c.obj
 .debug_line    0x00019f97      0x275 examples/light_switch/proxy_server/CMakeFiles/light_switch_proxy_server_nrf52840_xxAA_s140_6.0.0.dir/C_/ver/mod/nRF5_SDK_15.0.0_a53641a/components/libraries/util/app_error.c.obj
 .debug_line    0x0001a20c      0x21a examples/light_switch/proxy_server/CMakeFiles/light_switch_proxy_server_nrf52840_xxAA_s140_6.0.0.dir/C_/ver/mod/nRF5_SDK_15.0.0_a53641a/components/libraries/util/app_error_handler_gcc.c.obj
 .debug_line    0x0001a426      0x4c3 external/rtt/librtt_nrf52840_xxAA.a(SEGGER_RTT.c.obj)
 .debug_line    0x0001a8e9      0x285 external/rtt/librtt_nrf52840_xxAA.a(SEGGER_RTT_printf.c.obj)
 .debug_line    0x0001ab6e      0x9fd external/micro-ecc/libuECC_nrf52840_xxAA.a(uECC.c.obj)

.debug_str      0x00000000    0x17ae0
 .debug_str     0x00000000     0x2532 examples/light_switch/proxy_server/CMakeFiles/light_switch_proxy_server_nrf52840_xxAA_s140_6.0.0.dir/src/main.c.obj
                               0x28f5 (size before relaxing)
 .debug_str     0x00002532     0x10fc examples/light_switch/proxy_server/CMakeFiles/light_switch_proxy_server_nrf52840_xxAA_s140_6.0.0.dir/__/__/__/mesh/stack/src/mesh_stack.c.obj
                               0x2753 (size before relaxing)
 .debug_str     0x0000362e     0x1b5a examples/light_switch/proxy_server/CMakeFiles/light_switch_proxy_server_nrf52840_xxAA_s140_6.0.0.dir/__/__/common/src/mesh_provisionee.c.obj
                               0x294f (size before relaxing)
 .debug_str     0x00005188      0x20b examples/light_switch/proxy_server/CMakeFiles/light_switch_proxy_server_nrf52840_xxAA_s140_6.0.0.dir/__/__/common/src/rtt_input.c.obj
                                0xbae (size before relaxing)
 .debug_str     0x00005393      0x1d5 examples/light_switch/proxy_server/CMakeFiles/light_switch_proxy_server_nrf52840_xxAA_s140_6.0.0.dir/__/__/common/src/simple_hal.c.obj
                                0xd30 (size before relaxing)
 .debug_str     0x00005568      0x178 examples/light_switch/proxy_server/CMakeFiles/light_switch_proxy_server_nrf52840_xxAA_s140_6.0.0.dir/__/__/common/src/mesh_app_utils.c.obj
                                0x7b9 (size before relaxing)
 .debug_str     0x000056e0      0x56a examples/light_switch/proxy_server/CMakeFiles/light_switch_proxy_server_nrf52840_xxAA_s140_6.0.0.dir/__/__/common/src/mesh_adv.c.obj
                               0x1067 (size before relaxing)
 .debug_str     0x00005c4a      0x6e6 examples/light_switch/proxy_server/CMakeFiles/light_switch_proxy_server_nrf52840_xxAA_s140_6.0.0.dir/__/__/__/mesh/prov/src/nrf_mesh_prov_bearer_gatt.c.obj
                               0x14c2 (size before relaxing)
 .debug_str     0x00006330      0x201 examples/light_switch/proxy_server/CMakeFiles/light_switch_proxy_server_nrf52840_xxAA_s140_6.0.0.dir/C_/ver/mod/nRF5_SDK_15.0.0_a53641a/components/libraries/util/app_util_platform.c.obj
                                0xc93 (size before relaxing)
 .debug_str     0x00006531      0x4d3 examples/light_switch/proxy_server/CMakeFiles/light_switch_proxy_server_nrf52840_xxAA_s140_6.0.0.dir/C_/ver/mod/nRF5_SDK_15.0.0_a53641a/components/ble/common/ble_advdata.c.obj
                               0x12de (size before relaxing)
 .debug_str     0x00006a04       0xe4 examples/light_switch/proxy_server/CMakeFiles/light_switch_proxy_server_nrf52840_xxAA_s140_6.0.0.dir/C_/ver/mod/nRF5_SDK_15.0.0_a53641a/components/libraries/experimental_section_vars/nrf_section_iter.c.obj
                                0x6f9 (size before relaxing)
 .debug_str     0x00006ae8      0x53b examples/light_switch/proxy_server/CMakeFiles/light_switch_proxy_server_nrf52840_xxAA_s140_6.0.0.dir/C_/ver/mod/nRF5_SDK_15.0.0_a53641a/components/softdevice/common/nrf_sdh.c.obj
                               0x11ff (size before relaxing)
 .debug_str     0x00007023       0xd5 examples/light_switch/proxy_server/CMakeFiles/light_switch_proxy_server_nrf52840_xxAA_s140_6.0.0.dir/C_/ver/mod/nRF5_SDK_15.0.0_a53641a/components/softdevice/common/nrf_sdh_soc.c.obj
                                0xdb6 (size before relaxing)
 .debug_str     0x000070f8     0x1475 examples/light_switch/proxy_server/CMakeFiles/light_switch_proxy_server_nrf52840_xxAA_s140_6.0.0.dir/C_/ver/mod/nRF5_SDK_15.0.0_a53641a/components/softdevice/common/nrf_sdh_ble.c.obj
                               0x2047 (size before relaxing)
 .debug_str     0x0000856d       0x3c examples/light_switch/proxy_server/CMakeFiles/light_switch_proxy_server_nrf52840_xxAA_s140_6.0.0.dir/__/__/nrf_mesh_weak.c.obj
                                0x61c (size before relaxing)
 .debug_str     0x000085a9       0x97 examples/light_switch/proxy_server/CMakeFiles/light_switch_proxy_server_nrf52840_xxAA_s140_6.0.0.dir/__/__/common/src/app_error_weak.c.obj
                                0x85d (size before relaxing)
 .debug_str     0x00008640       0x30 examples/light_switch/proxy_server/CMakeFiles/light_switch_proxy_server_nrf52840_xxAA_s140_6.0.0.dir/__/__/common/src/assertion_handler_weak.c.obj
                                0x672 (size before relaxing)
 .debug_str     0x00008670       0x75 examples/light_switch/proxy_server/CMakeFiles/light_switch_proxy_server_nrf52840_xxAA_s140_6.0.0.dir/__/__/__/mesh/core/src/nrf_mesh_configure.c.obj
                                0x7ed (size before relaxing)
 .debug_str     0x000086e5       0xc1 examples/light_switch/proxy_server/CMakeFiles/light_switch_proxy_server_nrf52840_xxAA_s140_6.0.0.dir/__/__/__/mesh/core/src/aes.c.obj
                                0xb1a (size before relaxing)
 .debug_str     0x000087a6       0xbb examples/light_switch/proxy_server/CMakeFiles/light_switch_proxy_server_nrf52840_xxAA_s140_6.0.0.dir/__/__/__/mesh/core/src/msg_cache.c.obj
                                0x6b9 (size before relaxing)
 .debug_str     0x00008861     0x1642 examples/light_switch/proxy_server/CMakeFiles/light_switch_proxy_server_nrf52840_xxAA_s140_6.0.0.dir/__/__/__/mesh/core/src/transport.c.obj
                               0x3113 (size before relaxing)
 .debug_str     0x00009ea3       0x82 examples/light_switch/proxy_server/CMakeFiles/light_switch_proxy_server_nrf52840_xxAA_s140_6.0.0.dir/__/__/__/mesh/core/src/event.c.obj
                               0x16c0 (size before relaxing)
 .debug_str     0x00009f25      0x30d examples/light_switch/proxy_server/CMakeFiles/light_switch_proxy_server_nrf52840_xxAA_s140_6.0.0.dir/__/__/__/mesh/core/src/packet_buffer.c.obj
                                0xb1b (size before relaxing)
 .debug_str     0x0000a232      0x914 examples/light_switch/proxy_server/CMakeFiles/light_switch_proxy_server_nrf52840_xxAA_s140_6.0.0.dir/__/__/__/mesh/core/src/flash_manager_defrag.c.obj
                               0x118d (size before relaxing)
 .debug_str     0x0000ab46       0x9e examples/light_switch/proxy_server/CMakeFiles/light_switch_proxy_server_nrf52840_xxAA_s140_6.0.0.dir/__/__/__/mesh/core/src/fifo.c.obj
                                0x6db (size before relaxing)
 .debug_str     0x0000abe4       0xd9 examples/light_switch/proxy_server/CMakeFiles/light_switch_proxy_server_nrf52840_xxAA_s140_6.0.0.dir/__/__/__/mesh/core/src/nrf_flash.c.obj
                                0x6f4 (size before relaxing)
 .debug_str     0x0000acbd      0x287 examples/light_switch/proxy_server/CMakeFiles/light_switch_proxy_server_nrf52840_xxAA_s140_6.0.0.dir/__/__/__/mesh/core/src/packet_mgr.c.obj
                                0x9a5 (size before relaxing)
 .debug_str     0x0000af44      0x585 examples/light_switch/proxy_server/CMakeFiles/light_switch_proxy_server_nrf52840_xxAA_s140_6.0.0.dir/__/__/__/mesh/core/src/net_state.c.obj
                               0x2155 (size before relaxing)
 .debug_str     0x0000b4c9      0x37f examples/light_switch/proxy_server/CMakeFiles/light_switch_proxy_server_nrf52840_xxAA_s140_6.0.0.dir/__/__/__/mesh/core/src/mesh_flash.c.obj
                                0xcdc (size before relaxing)
 .debug_str     0x0000b848       0x94 examples/light_switch/proxy_server/CMakeFiles/light_switch_proxy_server_nrf52840_xxAA_s140_6.0.0.dir/__/__/__/mesh/core/src/nrf_mesh_utils.c.obj
                                0x751 (size before relaxing)
 .debug_str     0x0000b8dc      0x5e7 examples/light_switch/proxy_server/CMakeFiles/light_switch_proxy_server_nrf52840_xxAA_s140_6.0.0.dir/__/__/__/mesh/core/src/nrf_mesh.c.obj
                               0x2157 (size before relaxing)
 .debug_str     0x0000bec3       0x5b examples/light_switch/proxy_server/CMakeFiles/light_switch_proxy_server_nrf52840_xxAA_s140_6.0.0.dir/__/__/__/mesh/core/src/queue.c.obj
                                0x683 (size before relaxing)
 .debug_str     0x0000bf1e       0x86 examples/light_switch/proxy_server/CMakeFiles/light_switch_proxy_server_nrf52840_xxAA_s140_6.0.0.dir/__/__/__/mesh/core/src/hal.c.obj
                                0x7ab (size before relaxing)
 .debug_str     0x0000bfa4       0xd0 examples/light_switch/proxy_server/CMakeFiles/light_switch_proxy_server_nrf52840_xxAA_s140_6.0.0.dir/__/__/__/mesh/core/src/aes_cmac.c.obj
                                0x715 (size before relaxing)
 .debug_str     0x0000c074      0x13d examples/light_switch/proxy_server/CMakeFiles/light_switch_proxy_server_nrf52840_xxAA_s140_6.0.0.dir/__/__/__/mesh/core/src/timer_scheduler.c.obj
                                0x934 (size before relaxing)
 .debug_str     0x0000c1b1      0x1db examples/light_switch/proxy_server/CMakeFiles/light_switch_proxy_server_nrf52840_xxAA_s140_6.0.0.dir/__/__/__/mesh/core/src/timer.c.obj
                                0x8ae (size before relaxing)
 .debug_str     0x0000c38c       0x42 examples/light_switch/proxy_server/CMakeFiles/light_switch_proxy_server_nrf52840_xxAA_s140_6.0.0.dir/__/__/__/mesh/core/src/ticker.c.obj
                                0x34c (size before relaxing)
 .debug_str     0x0000c3ce       0xac examples/light_switch/proxy_server/CMakeFiles/light_switch_proxy_server_nrf52840_xxAA_s140_6.0.0.dir/__/__/__/mesh/core/src/rand.c.obj
                                0x76e (size before relaxing)
 .debug_str     0x0000c47a       0x88 examples/light_switch/proxy_server/CMakeFiles/light_switch_proxy_server_nrf52840_xxAA_s140_6.0.0.dir/__/__/__/mesh/core/src/nrf_mesh_opt.c.obj
                                0x8f0 (size before relaxing)
 .debug_str     0x0000c502      0x8ed examples/light_switch/proxy_server/CMakeFiles/light_switch_proxy_server_nrf52840_xxAA_s140_6.0.0.dir/__/__/__/mesh/core/src/timeslot.c.obj
                               0x191f (size before relaxing)
 .debug_str     0x0000cdef      0x28d examples/light_switch/proxy_server/CMakeFiles/light_switch_proxy_server_nrf52840_xxAA_s140_6.0.0.dir/__/__/__/mesh/core/src/bearer_event.c.obj
                                0xefe (size before relaxing)
 .debug_str     0x0000d07c      0x163 examples/light_switch/proxy_server/CMakeFiles/light_switch_proxy_server_nrf52840_xxAA_s140_6.0.0.dir/__/__/__/mesh/core/src/enc.c.obj
                                0x9ef (size before relaxing)
 .debug_str     0x0000d1df      0x314 examples/light_switch/proxy_server/CMakeFiles/light_switch_proxy_server_nrf52840_xxAA_s140_6.0.0.dir/__/__/__/mesh/core/src/network.c.obj
                               0x1303 (size before relaxing)
 .debug_str     0x0000d4f3      0x30f examples/light_switch/proxy_server/CMakeFiles/light_switch_proxy_server_nrf52840_xxAA_s140_6.0.0.dir/__/__/__/mesh/core/src/net_packet.c.obj
                                0xe86 (size before relaxing)
 .debug_str     0x0000d802       0x53 examples/light_switch/proxy_server/CMakeFiles/light_switch_proxy_server_nrf52840_xxAA_s140_6.0.0.dir/__/__/__/mesh/core/src/msqueue.c.obj
                                0x6bf (size before relaxing)
 .debug_str     0x0000d855       0xc8 examples/light_switch/proxy_server/CMakeFiles/light_switch_proxy_server_nrf52840_xxAA_s140_6.0.0.dir/__/__/__/mesh/core/src/nrf_mesh_keygen.c.obj
                                0x3a4 (size before relaxing)
 .debug_str     0x0000d91d       0xa8 examples/light_switch/proxy_server/CMakeFiles/light_switch_proxy_server_nrf52840_xxAA_s140_6.0.0.dir/__/__/__/mesh/core/src/cache.c.obj
                                0x6af (size before relaxing)
 .debug_str     0x0000d9c5       0x76 examples/light_switch/proxy_server/CMakeFiles/light_switch_proxy_server_nrf52840_xxAA_s140_6.0.0.dir/__/__/__/mesh/core/src/list.c.obj
                                0x2be (size before relaxing)
 .debug_str     0x0000da3b       0xf0 examples/light_switch/proxy_server/CMakeFiles/light_switch_proxy_server_nrf52840_xxAA_s140_6.0.0.dir/__/__/__/mesh/core/src/log.c.obj
                                0x7d0 (size before relaxing)
 .debug_str     0x0000db2b      0x524 examples/light_switch/proxy_server/CMakeFiles/light_switch_proxy_server_nrf52840_xxAA_s140_6.0.0.dir/__/__/__/mesh/core/src/flash_manager.c.obj
                               0x1578 (size before relaxing)
 .debug_str     0x0000e04f       0x85 examples/light_switch/proxy_server/CMakeFiles/light_switch_proxy_server_nrf52840_xxAA_s140_6.0.0.dir/__/__/__/mesh/core/src/ccm_soft.c.obj
                                0x75d (size before relaxing)
 .debug_str     0x0000e0d4       0x92 examples/light_switch/proxy_server/CMakeFiles/light_switch_proxy_server_nrf52840_xxAA_s140_6.0.0.dir/__/__/__/mesh/core/src/replay_cache.c.obj
                                0x68d (size before relaxing)
 .debug_str     0x0000e166       0xd4 examples/light_switch/proxy_server/CMakeFiles/light_switch_proxy_server_nrf52840_xxAA_s140_6.0.0.dir/__/__/__/mesh/core/src/beacon.c.obj
                               0x1103 (size before relaxing)
 .debug_str     0x0000e23a       0x38 examples/light_switch/proxy_server/CMakeFiles/light_switch_proxy_server_nrf52840_xxAA_s140_6.0.0.dir/__/__/__/mesh/core/src/flash_manager_internal.c.obj
                                0x7a4 (size before relaxing)
 .debug_str     0x0000e272      0x2be examples/light_switch/proxy_server/CMakeFiles/light_switch_proxy_server_nrf52840_xxAA_s140_6.0.0.dir/__/__/__/mesh/core/src/core_tx.c.obj
                                0xbef (size before relaxing)
 .debug_str     0x0000e530      0x418 examples/light_switch/proxy_server/CMakeFiles/light_switch_proxy_server_nrf52840_xxAA_s140_6.0.0.dir/__/__/__/mesh/core/src/heartbeat.c.obj
                               0x224d (size before relaxing)
 .debug_str     0x0000e948      0x25c examples/light_switch/proxy_server/CMakeFiles/light_switch_proxy_server_nrf52840_xxAA_s140_6.0.0.dir/__/__/__/mesh/core/src/net_beacon.c.obj
                               0x20ad (size before relaxing)
 .debug_str     0x0000eba4       0xc3 examples/light_switch/proxy_server/CMakeFiles/light_switch_proxy_server_nrf52840_xxAA_s140_6.0.0.dir/__/__/__/mesh/core/src/fsm.c.obj
                                0x984 (size before relaxing)
 .debug_str     0x0000ec67      0x107 examples/light_switch/proxy_server/CMakeFiles/light_switch_proxy_server_nrf52840_xxAA_s140_6.0.0.dir/__/__/__/mesh/core/src/core_tx_adv.c.obj
                               0x12d9 (size before relaxing)
 .debug_str     0x0000ed6e      0x18d examples/light_switch/proxy_server/CMakeFiles/light_switch_proxy_server_nrf52840_xxAA_s140_6.0.0.dir/__/__/__/mesh/bearer/src/ad_listener.c.obj
                                0xbe2 (size before relaxing)
 .debug_str     0x0000eefb      0x162 examples/light_switch/proxy_server/CMakeFiles/light_switch_proxy_server_nrf52840_xxAA_s140_6.0.0.dir/__/__/__/mesh/bearer/src/ad_type_filter.c.obj
                                0x99f (size before relaxing)
 .debug_str     0x0000f05d      0x321 examples/light_switch/proxy_server/CMakeFiles/light_switch_proxy_server_nrf52840_xxAA_s140_6.0.0.dir/__/__/__/mesh/bearer/src/advertiser.c.obj
                               0x1561 (size before relaxing)
 .debug_str     0x0000f37e      0x45c examples/light_switch/proxy_server/CMakeFiles/light_switch_proxy_server_nrf52840_xxAA_s140_6.0.0.dir/__/__/__/mesh/bearer/src/bearer_handler.c.obj
                               0x10f0 (size before relaxing)
 .debug_str     0x0000f7da      0x1ac examples/light_switch/proxy_server/CMakeFiles/light_switch_proxy_server_nrf52840_xxAA_s140_6.0.0.dir/__/__/__/mesh/bearer/src/broadcast.c.obj
                               0x1062 (size before relaxing)
 .debug_str     0x0000f986       0x72 examples/light_switch/proxy_server/CMakeFiles/light_switch_proxy_server_nrf52840_xxAA_s140_6.0.0.dir/__/__/__/mesh/bearer/src/filter_engine.c.obj
                                0x80c (size before relaxing)
 .debug_str     0x0000f9f8       0x79 examples/light_switch/proxy_server/CMakeFiles/light_switch_proxy_server_nrf52840_xxAA_s140_6.0.0.dir/__/__/__/mesh/bearer/src/radio_config.c.obj
                                0x8b0 (size before relaxing)
 .debug_str     0x0000fa71      0x45d examples/light_switch/proxy_server/CMakeFiles/light_switch_proxy_server_nrf52840_xxAA_s140_6.0.0.dir/__/__/__/mesh/bearer/src/scanner.c.obj
                               0x1a39 (size before relaxing)
 .debug_str     0x0000fece      0xc78 examples/light_switch/proxy_server/CMakeFiles/light_switch_proxy_server_nrf52840_xxAA_s140_6.0.0.dir/__/__/__/mesh/gatt/src/mesh_gatt.c.obj
                               0x2ec4 (size before relaxing)
 .debug_str     0x00010b46      0x6ac examples/light_switch/proxy_server/CMakeFiles/light_switch_proxy_server_nrf52840_xxAA_s140_6.0.0.dir/__/__/__/mesh/gatt/src/proxy.c.obj
                               0x29c1 (size before relaxing)
 .debug_str     0x000111f2       0x3e examples/light_switch/proxy_server/CMakeFiles/light_switch_proxy_server_nrf52840_xxAA_s140_6.0.0.dir/__/__/__/mesh/gatt/src/proxy_filter.c.obj
                                0x358 (size before relaxing)
 .debug_str     0x00011230      0x2c6 examples/light_switch/proxy_server/CMakeFiles/light_switch_proxy_server_nrf52840_xxAA_s140_6.0.0.dir/__/__/__/models/simple_on_off/src/simple_on_off_server.c.obj
                                0xa2f (size before relaxing)
 .debug_str     0x000114f6      0x221 examples/light_switch/proxy_server/CMakeFiles/light_switch_proxy_server_nrf52840_xxAA_s140_6.0.0.dir/__/__/__/models/config/src/composition_data.c.obj
                                0x8dd (size before relaxing)
 .debug_str     0x00011717     0x2603 examples/light_switch/proxy_server/CMakeFiles/light_switch_proxy_server_nrf52840_xxAA_s140_6.0.0.dir/__/__/__/models/config/src/config_server.c.obj
                               0x5098 (size before relaxing)
 .debug_str     0x00013d1a       0x69 examples/light_switch/proxy_server/CMakeFiles/light_switch_proxy_server_nrf52840_xxAA_s140_6.0.0.dir/__/__/__/models/config/src/packed_index_list.c.obj
                                0x24d (size before relaxing)
 .debug_str     0x00013d83      0x601 examples/light_switch/proxy_server/CMakeFiles/light_switch_proxy_server_nrf52840_xxAA_s140_6.0.0.dir/__/__/__/models/health/src/health_server.c.obj
                               0x169f (size before relaxing)
 .debug_str     0x00014384      0x264 examples/light_switch/proxy_server/CMakeFiles/light_switch_proxy_server_nrf52840_xxAA_s140_6.0.0.dir/__/__/__/mesh/access/src/access_publish.c.obj
                                0xbcc (size before relaxing)
 .debug_str     0x000145e8      0x82f examples/light_switch/proxy_server/CMakeFiles/light_switch_proxy_server_nrf52840_xxAA_s140_6.0.0.dir/__/__/__/mesh/access/src/access.c.obj
                               0x2f72 (size before relaxing)
 .debug_str     0x00014e17      0x209 examples/light_switch/proxy_server/CMakeFiles/light_switch_proxy_server_nrf52840_xxAA_s140_6.0.0.dir/__/__/__/mesh/access/src/access_reliable.c.obj
                               0x1006 (size before relaxing)
 .debug_str     0x00015020      0xcc7 examples/light_switch/proxy_server/CMakeFiles/light_switch_proxy_server_nrf52840_xxAA_s140_6.0.0.dir/__/__/__/mesh/access/src/device_state_manager.c.obj
                               0x3091 (size before relaxing)
 .debug_str     0x00015ce7      0x5cf examples/light_switch/proxy_server/CMakeFiles/light_switch_proxy_server_nrf52840_xxAA_s140_6.0.0.dir/__/__/__/mesh/prov/src/prov_provisionee.c.obj
                               0x21e8 (size before relaxing)
 .debug_str     0x000162b6      0x239 examples/light_switch/proxy_server/CMakeFiles/light_switch_proxy_server_nrf52840_xxAA_s140_6.0.0.dir/__/__/__/mesh/prov/src/nrf_mesh_prov.c.obj
                               0x1dda (size before relaxing)
 .debug_str     0x000164ef       0xed examples/light_switch/proxy_server/CMakeFiles/light_switch_proxy_server_nrf52840_xxAA_s140_6.0.0.dir/__/__/__/mesh/prov/src/provisioning.c.obj
                                0xf2b (size before relaxing)
 .debug_str     0x000165dc       0x9b examples/light_switch/proxy_server/CMakeFiles/light_switch_proxy_server_nrf52840_xxAA_s140_6.0.0.dir/__/__/__/mesh/prov/src/prov_beacon.c.obj
                               0x195c (size before relaxing)
 .debug_str     0x00016677      0x19e examples/light_switch/proxy_server/CMakeFiles/light_switch_proxy_server_nrf52840_xxAA_s140_6.0.0.dir/__/__/__/mesh/prov/src/prov_utils.c.obj
                               0x1f04 (size before relaxing)
 .debug_str     0x00016815      0x3ef examples/light_switch/proxy_server/CMakeFiles/light_switch_proxy_server_nrf52840_xxAA_s140_6.0.0.dir/__/__/__/mesh/prov/src/prov_bearer_adv.c.obj
                               0x1bc0 (size before relaxing)
 .debug_str     0x00016c04      0x3c1 examples/light_switch/proxy_server/CMakeFiles/light_switch_proxy_server_nrf52840_xxAA_s140_6.0.0.dir/C_/ver/mod/nRF5_SDK_15.0.0_a53641a/modules/nrfx/mdk/system_nrf52840.c.obj
                                0x917 (size before relaxing)
 .debug_str     0x00016fc5       0x97 examples/light_switch/proxy_server/CMakeFiles/light_switch_proxy_server_nrf52840_xxAA_s140_6.0.0.dir/C_/ver/mod/nRF5_SDK_15.0.0_a53641a/components/libraries/util/app_error.c.obj
                                0x72a (size before relaxing)
 .debug_str     0x0001705c       0x55 examples/light_switch/proxy_server/CMakeFiles/light_switch_proxy_server_nrf52840_xxAA_s140_6.0.0.dir/C_/ver/mod/nRF5_SDK_15.0.0_a53641a/components/libraries/util/app_error_handler_gcc.c.obj
                                0x68f (size before relaxing)
 .debug_str     0x000170b1      0x2bf external/rtt/librtt_nrf52840_xxAA.a(SEGGER_RTT.c.obj)
                                0x922 (size before relaxing)
 .debug_str     0x00017370       0xdf external/rtt/librtt_nrf52840_xxAA.a(SEGGER_RTT_printf.c.obj)
                                0x792 (size before relaxing)
 .debug_str     0x0001744f      0x691 external/micro-ecc/libuECC_nrf52840_xxAA.a(uECC.c.obj)
                                0x880 (size before relaxing)

.debug_frame    0x00000000     0x7af4
 .debug_frame   0x00000000      0x158 examples/light_switch/proxy_server/CMakeFiles/light_switch_proxy_server_nrf52840_xxAA_s140_6.0.0.dir/src/main.c.obj
 .debug_frame   0x00000158       0xd8 examples/light_switch/proxy_server/CMakeFiles/light_switch_proxy_server_nrf52840_xxAA_s140_6.0.0.dir/__/__/__/mesh/stack/src/mesh_stack.c.obj
 .debug_frame   0x00000230       0x8c examples/light_switch/proxy_server/CMakeFiles/light_switch_proxy_server_nrf52840_xxAA_s140_6.0.0.dir/__/__/common/src/mesh_provisionee.c.obj
 .debug_frame   0x000002bc       0x54 examples/light_switch/proxy_server/CMakeFiles/light_switch_proxy_server_nrf52840_xxAA_s140_6.0.0.dir/__/__/common/src/rtt_input.c.obj
 .debug_frame   0x00000310       0xa0 examples/light_switch/proxy_server/CMakeFiles/light_switch_proxy_server_nrf52840_xxAA_s140_6.0.0.dir/__/__/common/src/simple_hal.c.obj
 .debug_frame   0x000003b0       0x2c examples/light_switch/proxy_server/CMakeFiles/light_switch_proxy_server_nrf52840_xxAA_s140_6.0.0.dir/__/__/common/src/mesh_app_utils.c.obj
 .debug_frame   0x000003dc       0xb8 examples/light_switch/proxy_server/CMakeFiles/light_switch_proxy_server_nrf52840_xxAA_s140_6.0.0.dir/__/__/common/src/mesh_adv.c.obj
 .debug_frame   0x00000494      0x250 examples/light_switch/proxy_server/CMakeFiles/light_switch_proxy_server_nrf52840_xxAA_s140_6.0.0.dir/__/__/__/mesh/prov/src/nrf_mesh_prov_bearer_gatt.c.obj
 .debug_frame   0x000006e4       0x84 examples/light_switch/proxy_server/CMakeFiles/light_switch_proxy_server_nrf52840_xxAA_s140_6.0.0.dir/C_/ver/mod/nRF5_SDK_15.0.0_a53641a/components/libraries/util/app_util_platform.c.obj
 .debug_frame   0x00000768      0x1ac examples/light_switch/proxy_server/CMakeFiles/light_switch_proxy_server_nrf52840_xxAA_s140_6.0.0.dir/C_/ver/mod/nRF5_SDK_15.0.0_a53641a/components/ble/common/ble_advdata.c.obj
 .debug_frame   0x00000914       0x30 examples/light_switch/proxy_server/CMakeFiles/light_switch_proxy_server_nrf52840_xxAA_s140_6.0.0.dir/C_/ver/mod/nRF5_SDK_15.0.0_a53641a/components/libraries/experimental_section_vars/nrf_section_iter.c.obj
 .debug_frame   0x00000944      0x164 examples/light_switch/proxy_server/CMakeFiles/light_switch_proxy_server_nrf52840_xxAA_s140_6.0.0.dir/C_/ver/mod/nRF5_SDK_15.0.0_a53641a/components/softdevice/common/nrf_sdh.c.obj
 .debug_frame   0x00000aa8       0x3c examples/light_switch/proxy_server/CMakeFiles/light_switch_proxy_server_nrf52840_xxAA_s140_6.0.0.dir/C_/ver/mod/nRF5_SDK_15.0.0_a53641a/components/softdevice/common/nrf_sdh_soc.c.obj
 .debug_frame   0x00000ae4       0xb0 examples/light_switch/proxy_server/CMakeFiles/light_switch_proxy_server_nrf52840_xxAA_s140_6.0.0.dir/C_/ver/mod/nRF5_SDK_15.0.0_a53641a/components/softdevice/common/nrf_sdh_ble.c.obj
 .debug_frame   0x00000b94       0x30 examples/light_switch/proxy_server/CMakeFiles/light_switch_proxy_server_nrf52840_xxAA_s140_6.0.0.dir/__/__/nrf_mesh_weak.c.obj
 .debug_frame   0x00000bc4       0x34 examples/light_switch/proxy_server/CMakeFiles/light_switch_proxy_server_nrf52840_xxAA_s140_6.0.0.dir/__/__/common/src/app_error_weak.c.obj
 .debug_frame   0x00000bf8       0x28 examples/light_switch/proxy_server/CMakeFiles/light_switch_proxy_server_nrf52840_xxAA_s140_6.0.0.dir/__/__/common/src/assertion_handler_weak.c.obj
 .debug_frame   0x00000c20       0x4c examples/light_switch/proxy_server/CMakeFiles/light_switch_proxy_server_nrf52840_xxAA_s140_6.0.0.dir/__/__/__/mesh/core/src/nrf_mesh_configure.c.obj
 .debug_frame   0x00000c6c       0x40 examples/light_switch/proxy_server/CMakeFiles/light_switch_proxy_server_nrf52840_xxAA_s140_6.0.0.dir/__/__/__/mesh/core/src/aes.c.obj
 .debug_frame   0x00000cac       0x6c examples/light_switch/proxy_server/CMakeFiles/light_switch_proxy_server_nrf52840_xxAA_s140_6.0.0.dir/__/__/__/mesh/core/src/msg_cache.c.obj
 .debug_frame   0x00000d18      0x404 examples/light_switch/proxy_server/CMakeFiles/light_switch_proxy_server_nrf52840_xxAA_s140_6.0.0.dir/__/__/__/mesh/core/src/transport.c.obj
 .debug_frame   0x0000111c       0x64 examples/light_switch/proxy_server/CMakeFiles/light_switch_proxy_server_nrf52840_xxAA_s140_6.0.0.dir/__/__/__/mesh/core/src/event.c.obj
 .debug_frame   0x00001180      0x128 examples/light_switch/proxy_server/CMakeFiles/light_switch_proxy_server_nrf52840_xxAA_s140_6.0.0.dir/__/__/__/mesh/core/src/packet_buffer.c.obj
 .debug_frame   0x000012a8      0x24c examples/light_switch/proxy_server/CMakeFiles/light_switch_proxy_server_nrf52840_xxAA_s140_6.0.0.dir/__/__/__/mesh/core/src/flash_manager_defrag.c.obj
 .debug_frame   0x000014f4       0xd0 examples/light_switch/proxy_server/CMakeFiles/light_switch_proxy_server_nrf52840_xxAA_s140_6.0.0.dir/__/__/__/mesh/core/src/fifo.c.obj
 .debug_frame   0x000015c4       0x54 examples/light_switch/proxy_server/CMakeFiles/light_switch_proxy_server_nrf52840_xxAA_s140_6.0.0.dir/__/__/__/mesh/core/src/nrf_flash.c.obj
 .debug_frame   0x00001618       0xa0 examples/light_switch/proxy_server/CMakeFiles/light_switch_proxy_server_nrf52840_xxAA_s140_6.0.0.dir/__/__/__/mesh/core/src/packet_mgr.c.obj
 .debug_frame   0x000016b8      0x298 examples/light_switch/proxy_server/CMakeFiles/light_switch_proxy_server_nrf52840_xxAA_s140_6.0.0.dir/__/__/__/mesh/core/src/net_state.c.obj
 .debug_frame   0x00001950      0x150 examples/light_switch/proxy_server/CMakeFiles/light_switch_proxy_server_nrf52840_xxAA_s140_6.0.0.dir/__/__/__/mesh/core/src/mesh_flash.c.obj
 .debug_frame   0x00001aa0       0x50 examples/light_switch/proxy_server/CMakeFiles/light_switch_proxy_server_nrf52840_xxAA_s140_6.0.0.dir/__/__/__/mesh/core/src/nrf_mesh_utils.c.obj
 .debug_frame   0x00001af0      0x190 examples/light_switch/proxy_server/CMakeFiles/light_switch_proxy_server_nrf52840_xxAA_s140_6.0.0.dir/__/__/__/mesh/core/src/nrf_mesh.c.obj
 .debug_frame   0x00001c80       0x74 examples/light_switch/proxy_server/CMakeFiles/light_switch_proxy_server_nrf52840_xxAA_s140_6.0.0.dir/__/__/__/mesh/core/src/queue.c.obj
 .debug_frame   0x00001cf4       0x48 examples/light_switch/proxy_server/CMakeFiles/light_switch_proxy_server_nrf52840_xxAA_s140_6.0.0.dir/__/__/__/mesh/core/src/hal.c.obj
 .debug_frame   0x00001d3c       0xa4 examples/light_switch/proxy_server/CMakeFiles/light_switch_proxy_server_nrf52840_xxAA_s140_6.0.0.dir/__/__/__/mesh/core/src/aes_cmac.c.obj
 .debug_frame   0x00001de0      0x134 examples/light_switch/proxy_server/CMakeFiles/light_switch_proxy_server_nrf52840_xxAA_s140_6.0.0.dir/__/__/__/mesh/core/src/timer_scheduler.c.obj
 .debug_frame   0x00001f14      0x10c examples/light_switch/proxy_server/CMakeFiles/light_switch_proxy_server_nrf52840_xxAA_s140_6.0.0.dir/__/__/__/mesh/core/src/timer.c.obj
 .debug_frame   0x00002020       0x4c examples/light_switch/proxy_server/CMakeFiles/light_switch_proxy_server_nrf52840_xxAA_s140_6.0.0.dir/__/__/__/mesh/core/src/ticker.c.obj
 .debug_frame   0x0000206c       0x84 examples/light_switch/proxy_server/CMakeFiles/light_switch_proxy_server_nrf52840_xxAA_s140_6.0.0.dir/__/__/__/mesh/core/src/rand.c.obj
 .debug_frame   0x000020f0       0x30 examples/light_switch/proxy_server/CMakeFiles/light_switch_proxy_server_nrf52840_xxAA_s140_6.0.0.dir/__/__/__/mesh/core/src/nrf_mesh_opt.c.obj
 .debug_frame   0x00002120      0x1a0 examples/light_switch/proxy_server/CMakeFiles/light_switch_proxy_server_nrf52840_xxAA_s140_6.0.0.dir/__/__/__/mesh/core/src/timeslot.c.obj
 .debug_frame   0x000022c0      0x1bc examples/light_switch/proxy_server/CMakeFiles/light_switch_proxy_server_nrf52840_xxAA_s140_6.0.0.dir/__/__/__/mesh/core/src/bearer_event.c.obj
 .debug_frame   0x0000247c      0x13c examples/light_switch/proxy_server/CMakeFiles/light_switch_proxy_server_nrf52840_xxAA_s140_6.0.0.dir/__/__/__/mesh/core/src/enc.c.obj
 .debug_frame   0x000025b8      0x100 examples/light_switch/proxy_server/CMakeFiles/light_switch_proxy_server_nrf52840_xxAA_s140_6.0.0.dir/__/__/__/mesh/core/src/network.c.obj
 .debug_frame   0x000026b8      0x114 examples/light_switch/proxy_server/CMakeFiles/light_switch_proxy_server_nrf52840_xxAA_s140_6.0.0.dir/__/__/__/mesh/core/src/net_packet.c.obj
 .debug_frame   0x000027cc       0xb4 examples/light_switch/proxy_server/CMakeFiles/light_switch_proxy_server_nrf52840_xxAA_s140_6.0.0.dir/__/__/__/mesh/core/src/msqueue.c.obj
 .debug_frame   0x00002880       0xb4 examples/light_switch/proxy_server/CMakeFiles/light_switch_proxy_server_nrf52840_xxAA_s140_6.0.0.dir/__/__/__/mesh/core/src/nrf_mesh_keygen.c.obj
 .debug_frame   0x00002934       0xb0 examples/light_switch/proxy_server/CMakeFiles/light_switch_proxy_server_nrf52840_xxAA_s140_6.0.0.dir/__/__/__/mesh/core/src/cache.c.obj
 .debug_frame   0x000029e4       0xc8 examples/light_switch/proxy_server/CMakeFiles/light_switch_proxy_server_nrf52840_xxAA_s140_6.0.0.dir/__/__/__/mesh/core/src/list.c.obj
 .debug_frame   0x00002aac       0xb0 examples/light_switch/proxy_server/CMakeFiles/light_switch_proxy_server_nrf52840_xxAA_s140_6.0.0.dir/__/__/__/mesh/core/src/log.c.obj
 .debug_frame   0x00002b5c      0x320 examples/light_switch/proxy_server/CMakeFiles/light_switch_proxy_server_nrf52840_xxAA_s140_6.0.0.dir/__/__/__/mesh/core/src/flash_manager.c.obj
 .debug_frame   0x00002e7c      0x10c examples/light_switch/proxy_server/CMakeFiles/light_switch_proxy_server_nrf52840_xxAA_s140_6.0.0.dir/__/__/__/mesh/core/src/ccm_soft.c.obj
 .debug_frame   0x00002f88       0x80 examples/light_switch/proxy_server/CMakeFiles/light_switch_proxy_server_nrf52840_xxAA_s140_6.0.0.dir/__/__/__/mesh/core/src/replay_cache.c.obj
 .debug_frame   0x00003008       0x60 examples/light_switch/proxy_server/CMakeFiles/light_switch_proxy_server_nrf52840_xxAA_s140_6.0.0.dir/__/__/__/mesh/core/src/beacon.c.obj
 .debug_frame   0x00003068       0x34 examples/light_switch/proxy_server/CMakeFiles/light_switch_proxy_server_nrf52840_xxAA_s140_6.0.0.dir/__/__/__/mesh/core/src/flash_manager_internal.c.obj
 .debug_frame   0x0000309c       0xf0 examples/light_switch/proxy_server/CMakeFiles/light_switch_proxy_server_nrf52840_xxAA_s140_6.0.0.dir/__/__/__/mesh/core/src/core_tx.c.obj
 .debug_frame   0x0000318c      0x160 examples/light_switch/proxy_server/CMakeFiles/light_switch_proxy_server_nrf52840_xxAA_s140_6.0.0.dir/__/__/__/mesh/core/src/heartbeat.c.obj
 .debug_frame   0x000032ec      0x138 examples/light_switch/proxy_server/CMakeFiles/light_switch_proxy_server_nrf52840_xxAA_s140_6.0.0.dir/__/__/__/mesh/core/src/net_beacon.c.obj
 .debug_frame   0x00003424       0x9c examples/light_switch/proxy_server/CMakeFiles/light_switch_proxy_server_nrf52840_xxAA_s140_6.0.0.dir/__/__/__/mesh/core/src/fsm.c.obj
 .debug_frame   0x000034c0      0x12c examples/light_switch/proxy_server/CMakeFiles/light_switch_proxy_server_nrf52840_xxAA_s140_6.0.0.dir/__/__/__/mesh/core/src/core_tx_adv.c.obj
 .debug_frame   0x000035ec       0x6c examples/light_switch/proxy_server/CMakeFiles/light_switch_proxy_server_nrf52840_xxAA_s140_6.0.0.dir/__/__/__/mesh/bearer/src/ad_listener.c.obj
 .debug_frame   0x00003658       0xa8 examples/light_switch/proxy_server/CMakeFiles/light_switch_proxy_server_nrf52840_xxAA_s140_6.0.0.dir/__/__/__/mesh/bearer/src/ad_type_filter.c.obj
 .debug_frame   0x00003700      0x268 examples/light_switch/proxy_server/CMakeFiles/light_switch_proxy_server_nrf52840_xxAA_s140_6.0.0.dir/__/__/__/mesh/bearer/src/advertiser.c.obj
 .debug_frame   0x00003968      0x158 examples/light_switch/proxy_server/CMakeFiles/light_switch_proxy_server_nrf52840_xxAA_s140_6.0.0.dir/__/__/__/mesh/bearer/src/bearer_handler.c.obj
 .debug_frame   0x00003ac0       0x70 examples/light_switch/proxy_server/CMakeFiles/light_switch_proxy_server_nrf52840_xxAA_s140_6.0.0.dir/__/__/__/mesh/bearer/src/broadcast.c.obj
 .debug_frame   0x00003b30       0x74 examples/light_switch/proxy_server/CMakeFiles/light_switch_proxy_server_nrf52840_xxAA_s140_6.0.0.dir/__/__/__/mesh/bearer/src/filter_engine.c.obj
 .debug_frame   0x00003ba4       0x94 examples/light_switch/proxy_server/CMakeFiles/light_switch_proxy_server_nrf52840_xxAA_s140_6.0.0.dir/__/__/__/mesh/bearer/src/radio_config.c.obj
 .debug_frame   0x00003c38      0x2a4 examples/light_switch/proxy_server/CMakeFiles/light_switch_proxy_server_nrf52840_xxAA_s140_6.0.0.dir/__/__/__/mesh/bearer/src/scanner.c.obj
 .debug_frame   0x00003edc      0x1ec examples/light_switch/proxy_server/CMakeFiles/light_switch_proxy_server_nrf52840_xxAA_s140_6.0.0.dir/__/__/__/mesh/gatt/src/mesh_gatt.c.obj
 .debug_frame   0x000040c8      0x2c8 examples/light_switch/proxy_server/CMakeFiles/light_switch_proxy_server_nrf52840_xxAA_s140_6.0.0.dir/__/__/__/mesh/gatt/src/proxy.c.obj
 .debug_frame   0x00004390       0xa0 examples/light_switch/proxy_server/CMakeFiles/light_switch_proxy_server_nrf52840_xxAA_s140_6.0.0.dir/__/__/__/mesh/gatt/src/proxy_filter.c.obj
 .debug_frame   0x00004430       0xac examples/light_switch/proxy_server/CMakeFiles/light_switch_proxy_server_nrf52840_xxAA_s140_6.0.0.dir/__/__/__/models/simple_on_off/src/simple_on_off_server.c.obj
 .debug_frame   0x000044dc       0x40 examples/light_switch/proxy_server/CMakeFiles/light_switch_proxy_server_nrf52840_xxAA_s140_6.0.0.dir/__/__/__/models/config/src/composition_data.c.obj
 .debug_frame   0x0000451c      0x8f8 examples/light_switch/proxy_server/CMakeFiles/light_switch_proxy_server_nrf52840_xxAA_s140_6.0.0.dir/__/__/__/models/config/src/config_server.c.obj
 .debug_frame   0x00004e14       0x2c examples/light_switch/proxy_server/CMakeFiles/light_switch_proxy_server_nrf52840_xxAA_s140_6.0.0.dir/__/__/__/models/config/src/packed_index_list.c.obj
 .debug_frame   0x00004e40      0x2a0 examples/light_switch/proxy_server/CMakeFiles/light_switch_proxy_server_nrf52840_xxAA_s140_6.0.0.dir/__/__/__/models/health/src/health_server.c.obj
 .debug_frame   0x000050e0      0x114 examples/light_switch/proxy_server/CMakeFiles/light_switch_proxy_server_nrf52840_xxAA_s140_6.0.0.dir/__/__/__/mesh/access/src/access_publish.c.obj
 .debug_frame   0x000051f4      0x5b0 examples/light_switch/proxy_server/CMakeFiles/light_switch_proxy_server_nrf52840_xxAA_s140_6.0.0.dir/__/__/__/mesh/access/src/access.c.obj
 .debug_frame   0x000057a4      0x124 examples/light_switch/proxy_server/CMakeFiles/light_switch_proxy_server_nrf52840_xxAA_s140_6.0.0.dir/__/__/__/mesh/access/src/access_reliable.c.obj
 .debug_frame   0x000058c8      0xaf4 examples/light_switch/proxy_server/CMakeFiles/light_switch_proxy_server_nrf52840_xxAA_s140_6.0.0.dir/__/__/__/mesh/access/src/device_state_manager.c.obj
 .debug_frame   0x000063bc      0x198 examples/light_switch/proxy_server/CMakeFiles/light_switch_proxy_server_nrf52840_xxAA_s140_6.0.0.dir/__/__/__/mesh/prov/src/prov_provisionee.c.obj
 .debug_frame   0x00006554      0x160 examples/light_switch/proxy_server/CMakeFiles/light_switch_proxy_server_nrf52840_xxAA_s140_6.0.0.dir/__/__/__/mesh/prov/src/nrf_mesh_prov.c.obj
 .debug_frame   0x000066b4      0x170 examples/light_switch/proxy_server/CMakeFiles/light_switch_proxy_server_nrf52840_xxAA_s140_6.0.0.dir/__/__/__/mesh/prov/src/provisioning.c.obj
 .debug_frame   0x00006824       0x84 examples/light_switch/proxy_server/CMakeFiles/light_switch_proxy_server_nrf52840_xxAA_s140_6.0.0.dir/__/__/__/mesh/prov/src/prov_beacon.c.obj
 .debug_frame   0x000068a8      0x150 examples/light_switch/proxy_server/CMakeFiles/light_switch_proxy_server_nrf52840_xxAA_s140_6.0.0.dir/__/__/__/mesh/prov/src/prov_utils.c.obj
 .debug_frame   0x000069f8      0x324 examples/light_switch/proxy_server/CMakeFiles/light_switch_proxy_server_nrf52840_xxAA_s140_6.0.0.dir/__/__/__/mesh/prov/src/prov_bearer_adv.c.obj
 .debug_frame   0x00006d1c       0x48 examples/light_switch/proxy_server/CMakeFiles/light_switch_proxy_server_nrf52840_xxAA_s140_6.0.0.dir/C_/ver/mod/nRF5_SDK_15.0.0_a53641a/modules/nrfx/mdk/system_nrf52840.c.obj
 .debug_frame   0x00006d64       0x44 examples/light_switch/proxy_server/CMakeFiles/light_switch_proxy_server_nrf52840_xxAA_s140_6.0.0.dir/C_/ver/mod/nRF5_SDK_15.0.0_a53641a/components/libraries/util/app_error.c.obj
 .debug_frame   0x00006da8       0x20 examples/light_switch/proxy_server/CMakeFiles/light_switch_proxy_server_nrf52840_xxAA_s140_6.0.0.dir/C_/ver/mod/nRF5_SDK_15.0.0_a53641a/components/libraries/util/app_error_handler_gcc.c.obj
 .debug_frame   0x00006dc8      0x2d8 external/rtt/librtt_nrf52840_xxAA.a(SEGGER_RTT.c.obj)
 .debug_frame   0x000070a0       0xac external/rtt/librtt_nrf52840_xxAA.a(SEGGER_RTT_printf.c.obj)
 .debug_frame   0x0000714c      0x684 external/micro-ecc/libuECC_nrf52840_xxAA.a(uECC.c.obj)
 .debug_frame   0x000077d0       0x2c c:/mesh/arm_gcc/bin/../lib/gcc/arm-none-eabi/6.3.1/thumb/v7e-m/fpv4-sp/hard\libgcc.a(_aeabi_uldivmod.o)
 .debug_frame   0x000077fc       0x34 c:/mesh/arm_gcc/bin/../lib/gcc/arm-none-eabi/6.3.1/thumb/v7e-m/fpv4-sp/hard\libgcc.a(_udivmoddi4.o)
 .debug_frame   0x00007830       0x28 c:/mesh/arm_gcc/bin/../lib/gcc/arm-none-eabi/6.3.1/../../../../arm-none-eabi/lib/thumb/v7e-m/fpv4-sp/hard\libg_nano.a(lib_a-exit.o)
 .debug_frame   0x00007858       0x2c c:/mesh/arm_gcc/bin/../lib/gcc/arm-none-eabi/6.3.1/../../../../arm-none-eabi/lib/thumb/v7e-m/fpv4-sp/hard\libg_nano.a(lib_a-init.o)
 .debug_frame   0x00007884       0x30 c:/mesh/arm_gcc/bin/../lib/gcc/arm-none-eabi/6.3.1/../../../../arm-none-eabi/lib/thumb/v7e-m/fpv4-sp/hard\libg_nano.a(lib_a-malloc.o)
 .debug_frame   0x000078b4       0x28 c:/mesh/arm_gcc/bin/../lib/gcc/arm-none-eabi/6.3.1/../../../../arm-none-eabi/lib/thumb/v7e-m/fpv4-sp/hard\libg_nano.a(lib_a-memcmp.o)
 .debug_frame   0x000078dc       0x28 c:/mesh/arm_gcc/bin/../lib/gcc/arm-none-eabi/6.3.1/../../../../arm-none-eabi/lib/thumb/v7e-m/fpv4-sp/hard\libg_nano.a(lib_a-memcpy-stub.o)
 .debug_frame   0x00007904       0x20 c:/mesh/arm_gcc/bin/../lib/gcc/arm-none-eabi/6.3.1/../../../../arm-none-eabi/lib/thumb/v7e-m/fpv4-sp/hard\libg_nano.a(lib_a-memset.o)
 .debug_frame   0x00007924       0x38 c:/mesh/arm_gcc/bin/../lib/gcc/arm-none-eabi/6.3.1/../../../../arm-none-eabi/lib/thumb/v7e-m/fpv4-sp/hard\libg_nano.a(lib_a-nano-freer.o)
 .debug_frame   0x0000795c       0x2c c:/mesh/arm_gcc/bin/../lib/gcc/arm-none-eabi/6.3.1/../../../../arm-none-eabi/lib/thumb/v7e-m/fpv4-sp/hard\libg_nano.a(lib_a-nano-mallocr.o)
 .debug_frame   0x00007988       0x2c c:/mesh/arm_gcc/bin/../lib/gcc/arm-none-eabi/6.3.1/../../../../arm-none-eabi/lib/thumb/v7e-m/fpv4-sp/hard\libg_nano.a(lib_a-sbrkr.o)
 .debug_frame   0x000079b4       0x20 c:/mesh/arm_gcc/bin/../lib/gcc/arm-none-eabi/6.3.1/../../../../arm-none-eabi/lib/thumb/v7e-m/fpv4-sp/hard\libg_nano.a(lib_a-strcpy.o)
 .debug_frame   0x000079d4       0x34 c:/mesh/arm_gcc/bin/../lib/gcc/arm-none-eabi/6.3.1/../../../../arm-none-eabi/lib/thumb/v7e-m/fpv4-sp/hard\libg_nano.a(lib_a-strrchr.o)
 .debug_frame   0x00007a08       0x30 c:/mesh/arm_gcc/bin/../lib/gcc/arm-none-eabi/6.3.1/../../../../arm-none-eabi/lib/thumb/v7e-m/fpv4-sp/hard\libg_nano.a(lib_a-mlock.o)
 .debug_frame   0x00007a38       0x5c c:/mesh/arm_gcc/bin/../lib/gcc/arm-none-eabi/6.3.1/../../../../arm-none-eabi/lib/thumb/v7e-m/fpv4-sp/hard\libg_nano.a(lib_a-reent.o)
 .debug_frame   0x00007a94       0x20 c:/mesh/arm_gcc/bin/../lib/gcc/arm-none-eabi/6.3.1/../../../../arm-none-eabi/lib/thumb/v7e-m/fpv4-sp/hard\libg_nano.a(lib_a-strchr.o)
 .debug_frame   0x00007ab4       0x20 c:/mesh/arm_gcc/bin/../lib/gcc/arm-none-eabi/6.3.1/../../../../arm-none-eabi/lib/thumb/v7e-m/fpv4-sp/hard\libnosys.a(sbrk.o)
 .debug_frame   0x00007ad4       0x20 c:/mesh/arm_gcc/bin/../lib/gcc/arm-none-eabi/6.3.1/../../../../arm-none-eabi/lib/thumb/v7e-m/fpv4-sp/hard\libnosys.a(_exit.o)
