Archive member included to satisfy reference by file (symbol)

external/rtt/librtt_nrf52840_xxAA.a(SEGGER_RTT.c.obj)
                              examples/light_switch/provisioner/CMakeFiles/light_switch_provisioner_nrf52840_xxAA_s140_6.0.0.dir/__/__/__/mesh/core/src/log.c.obj (SEGGER_RTT_Write)
external/rtt/librtt_nrf52840_xxAA.a(SEGGER_RTT_printf.c.obj)
                              examples/light_switch/provisioner/CMakeFiles/light_switch_provisioner_nrf52840_xxAA_s140_6.0.0.dir/__/__/__/mesh/core/src/log.c.obj (SEGGER_RTT_vprintf)
external/micro-ecc/libuECC_nrf52840_xxAA.a(uECC.c.obj)
                              examples/light_switch/provisioner/CMakeFiles/light_switch_provisioner_nrf52840_xxAA_s140_6.0.0.dir/__/__/__/mesh/prov/src/prov_utils.c.obj (uECC_secp256r1)
c:/mesh/arm_gcc/bin/../lib/gcc/arm-none-eabi/6.3.1/thumb/v7e-m/fpv4-sp/hard\libgcc.a(_aeabi_uldivmod.o)
                              examples/light_switch/provisioner/CMakeFiles/light_switch_provisioner_nrf52840_xxAA_s140_6.0.0.dir/__/__/common/src/rtt_input.c.obj (__aeabi_uldivmod)
c:/mesh/arm_gcc/bin/../lib/gcc/arm-none-eabi/6.3.1/thumb/v7e-m/fpv4-sp/hard\libgcc.a(_udivmoddi4.o)
                              c:/mesh/arm_gcc/bin/../lib/gcc/arm-none-eabi/6.3.1/thumb/v7e-m/fpv4-sp/hard\libgcc.a(_aeabi_uldivmod.o) (__udivmoddi4)
c:/mesh/arm_gcc/bin/../lib/gcc/arm-none-eabi/6.3.1/thumb/v7e-m/fpv4-sp/hard\libgcc.a(_dvmd_tls.o)
                              c:/mesh/arm_gcc/bin/../lib/gcc/arm-none-eabi/6.3.1/thumb/v7e-m/fpv4-sp/hard\libgcc.a(_aeabi_uldivmod.o) (__aeabi_ldiv0)
c:/mesh/arm_gcc/bin/../lib/gcc/arm-none-eabi/6.3.1/../../../../arm-none-eabi/lib/thumb/v7e-m/fpv4-sp/hard\libg_nano.a(lib_a-exit.o)
                              c:/mesh/arm_gcc/bin/../lib/gcc/arm-none-eabi/6.3.1/../../../../arm-none-eabi/lib/thumb/v7e-m/fpv4-sp/hard/crt0.o (exit)
c:/mesh/arm_gcc/bin/../lib/gcc/arm-none-eabi/6.3.1/../../../../arm-none-eabi/lib/thumb/v7e-m/fpv4-sp/hard\libg_nano.a(lib_a-impure.o)
                              c:/mesh/arm_gcc/bin/../lib/gcc/arm-none-eabi/6.3.1/../../../../arm-none-eabi/lib/thumb/v7e-m/fpv4-sp/hard\libg_nano.a(lib_a-exit.o) (_global_impure_ptr)
c:/mesh/arm_gcc/bin/../lib/gcc/arm-none-eabi/6.3.1/../../../../arm-none-eabi/lib/thumb/v7e-m/fpv4-sp/hard\libg_nano.a(lib_a-init.o)
                              c:/mesh/arm_gcc/bin/../lib/gcc/arm-none-eabi/6.3.1/../../../../arm-none-eabi/lib/thumb/v7e-m/fpv4-sp/hard/crt0.o (__libc_init_array)
c:/mesh/arm_gcc/bin/../lib/gcc/arm-none-eabi/6.3.1/../../../../arm-none-eabi/lib/thumb/v7e-m/fpv4-sp/hard\libg_nano.a(lib_a-malloc.o)
                              examples/light_switch/provisioner/CMakeFiles/light_switch_provisioner_nrf52840_xxAA_s140_6.0.0.dir/__/__/__/mesh/core/src/transport.c.obj (malloc)
c:/mesh/arm_gcc/bin/../lib/gcc/arm-none-eabi/6.3.1/../../../../arm-none-eabi/lib/thumb/v7e-m/fpv4-sp/hard\libg_nano.a(lib_a-memcmp.o)
                              examples/light_switch/provisioner/CMakeFiles/light_switch_provisioner_nrf52840_xxAA_s140_6.0.0.dir/src/provisioner_helper.c.obj (memcmp)
c:/mesh/arm_gcc/bin/../lib/gcc/arm-none-eabi/6.3.1/../../../../arm-none-eabi/lib/thumb/v7e-m/fpv4-sp/hard\libg_nano.a(lib_a-memcpy-stub.o)
                              examples/light_switch/provisioner/CMakeFiles/light_switch_provisioner_nrf52840_xxAA_s140_6.0.0.dir/src/main.c.obj (memcpy)
c:/mesh/arm_gcc/bin/../lib/gcc/arm-none-eabi/6.3.1/../../../../arm-none-eabi/lib/thumb/v7e-m/fpv4-sp/hard\libg_nano.a(lib_a-memset.o)
                              c:/mesh/arm_gcc/bin/../lib/gcc/arm-none-eabi/6.3.1/../../../../arm-none-eabi/lib/thumb/v7e-m/fpv4-sp/hard/crt0.o (memset)
c:/mesh/arm_gcc/bin/../lib/gcc/arm-none-eabi/6.3.1/../../../../arm-none-eabi/lib/thumb/v7e-m/fpv4-sp/hard\libg_nano.a(lib_a-nano-freer.o)
                              c:/mesh/arm_gcc/bin/../lib/gcc/arm-none-eabi/6.3.1/../../../../arm-none-eabi/lib/thumb/v7e-m/fpv4-sp/hard\libg_nano.a(lib_a-malloc.o) (_free_r)
c:/mesh/arm_gcc/bin/../lib/gcc/arm-none-eabi/6.3.1/../../../../arm-none-eabi/lib/thumb/v7e-m/fpv4-sp/hard\libg_nano.a(lib_a-nano-mallocr.o)
                              c:/mesh/arm_gcc/bin/../lib/gcc/arm-none-eabi/6.3.1/../../../../arm-none-eabi/lib/thumb/v7e-m/fpv4-sp/hard\libg_nano.a(lib_a-malloc.o) (_malloc_r)
c:/mesh/arm_gcc/bin/../lib/gcc/arm-none-eabi/6.3.1/../../../../arm-none-eabi/lib/thumb/v7e-m/fpv4-sp/hard\libg_nano.a(lib_a-sbrkr.o)
                              c:/mesh/arm_gcc/bin/../lib/gcc/arm-none-eabi/6.3.1/../../../../arm-none-eabi/lib/thumb/v7e-m/fpv4-sp/hard\libg_nano.a(lib_a-nano-mallocr.o) (_sbrk_r)
c:/mesh/arm_gcc/bin/../lib/gcc/arm-none-eabi/6.3.1/../../../../arm-none-eabi/lib/thumb/v7e-m/fpv4-sp/hard\libg_nano.a(lib_a-strcpy.o)
                              external/rtt/librtt_nrf52840_xxAA.a(SEGGER_RTT.c.obj) (strcpy)
c:/mesh/arm_gcc/bin/../lib/gcc/arm-none-eabi/6.3.1/../../../../arm-none-eabi/lib/thumb/v7e-m/fpv4-sp/hard\libg_nano.a(lib_a-strlen.o)
                              examples/light_switch/provisioner/CMakeFiles/light_switch_provisioner_nrf52840_xxAA_s140_6.0.0.dir/__/__/__/mesh/core/src/uri.c.obj (strlen)
c:/mesh/arm_gcc/bin/../lib/gcc/arm-none-eabi/6.3.1/../../../../arm-none-eabi/lib/thumb/v7e-m/fpv4-sp/hard\libg_nano.a(lib_a-strrchr.o)
                              examples/light_switch/provisioner/CMakeFiles/light_switch_provisioner_nrf52840_xxAA_s140_6.0.0.dir/src/main.c.obj (strrchr)
c:/mesh/arm_gcc/bin/../lib/gcc/arm-none-eabi/6.3.1/../../../../arm-none-eabi/lib/thumb/v7e-m/fpv4-sp/hard\libg_nano.a(lib_a-mlock.o)
                              c:/mesh/arm_gcc/bin/../lib/gcc/arm-none-eabi/6.3.1/../../../../arm-none-eabi/lib/thumb/v7e-m/fpv4-sp/hard\libg_nano.a(lib_a-nano-freer.o) (__malloc_lock)
c:/mesh/arm_gcc/bin/../lib/gcc/arm-none-eabi/6.3.1/../../../../arm-none-eabi/lib/thumb/v7e-m/fpv4-sp/hard\libg_nano.a(lib_a-reent.o)
                              c:/mesh/arm_gcc/bin/../lib/gcc/arm-none-eabi/6.3.1/../../../../arm-none-eabi/lib/thumb/v7e-m/fpv4-sp/hard\libg_nano.a(lib_a-sbrkr.o) (errno)
c:/mesh/arm_gcc/bin/../lib/gcc/arm-none-eabi/6.3.1/../../../../arm-none-eabi/lib/thumb/v7e-m/fpv4-sp/hard\libg_nano.a(lib_a-strchr.o)
                              c:/mesh/arm_gcc/bin/../lib/gcc/arm-none-eabi/6.3.1/../../../../arm-none-eabi/lib/thumb/v7e-m/fpv4-sp/hard\libg_nano.a(lib_a-strrchr.o) (strchr)
c:/mesh/arm_gcc/bin/../lib/gcc/arm-none-eabi/6.3.1/../../../../arm-none-eabi/lib/thumb/v7e-m/fpv4-sp/hard\libnosys.a(sbrk.o)
                              c:/mesh/arm_gcc/bin/../lib/gcc/arm-none-eabi/6.3.1/../../../../arm-none-eabi/lib/thumb/v7e-m/fpv4-sp/hard\libg_nano.a(lib_a-sbrkr.o) (_sbrk)
c:/mesh/arm_gcc/bin/../lib/gcc/arm-none-eabi/6.3.1/../../../../arm-none-eabi/lib/thumb/v7e-m/fpv4-sp/hard\libnosys.a(_exit.o)
                              c:/mesh/arm_gcc/bin/../lib/gcc/arm-none-eabi/6.3.1/../../../../arm-none-eabi/lib/thumb/v7e-m/fpv4-sp/hard\libg_nano.a(lib_a-exit.o) (_exit)

Allocating common symbols
Common symbol       size              file

nrf_nvic_state      0xc               examples/light_switch/provisioner/CMakeFiles/light_switch_provisioner_nrf52840_xxAA_s140_6.0.0.dir/__/__/common/src/mesh_softdevice_init.c.obj
m_packet            0x24              examples/light_switch/provisioner/CMakeFiles/light_switch_provisioner_nrf52840_xxAA_s140_6.0.0.dir/__/__/__/mesh/core/src/core_tx.c.obj
errno               0x4               c:/mesh/arm_gcc/bin/../lib/gcc/arm-none-eabi/6.3.1/../../../../arm-none-eabi/lib/thumb/v7e-m/fpv4-sp/hard\libg_nano.a(lib_a-reent.o)
_SEGGER_RTT         0x78              external/rtt/librtt_nrf52840_xxAA.a(SEGGER_RTT.c.obj)

Discarded input sections

 .text          0x00000000        0x0 c:/mesh/arm_gcc/bin/../lib/gcc/arm-none-eabi/6.3.1/thumb/v7e-m/fpv4-sp/hard/crti.o
 .data          0x00000000        0x0 c:/mesh/arm_gcc/bin/../lib/gcc/arm-none-eabi/6.3.1/thumb/v7e-m/fpv4-sp/hard/crti.o
 .bss           0x00000000        0x0 c:/mesh/arm_gcc/bin/../lib/gcc/arm-none-eabi/6.3.1/thumb/v7e-m/fpv4-sp/hard/crti.o
 .data          0x00000000        0x4 c:/mesh/arm_gcc/bin/../lib/gcc/arm-none-eabi/6.3.1/thumb/v7e-m/fpv4-sp/hard/crtbegin.o
 .data          0x00000000        0x0 c:/mesh/arm_gcc/bin/../lib/gcc/arm-none-eabi/6.3.1/../../../../arm-none-eabi/lib/thumb/v7e-m/fpv4-sp/hard/crt0.o
 .bss           0x00000000        0x0 c:/mesh/arm_gcc/bin/../lib/gcc/arm-none-eabi/6.3.1/../../../../arm-none-eabi/lib/thumb/v7e-m/fpv4-sp/hard/crt0.o
 .ARM.extab     0x00000000        0x0 c:/mesh/arm_gcc/bin/../lib/gcc/arm-none-eabi/6.3.1/../../../../arm-none-eabi/lib/thumb/v7e-m/fpv4-sp/hard/crt0.o
 .text          0x00000000        0x0 examples/light_switch/provisioner/CMakeFiles/light_switch_provisioner_nrf52840_xxAA_s140_6.0.0.dir/src/main.c.obj
 .data          0x00000000        0x0 examples/light_switch/provisioner/CMakeFiles/light_switch_provisioner_nrf52840_xxAA_s140_6.0.0.dir/src/main.c.obj
 .bss           0x00000000        0x0 examples/light_switch/provisioner/CMakeFiles/light_switch_provisioner_nrf52840_xxAA_s140_6.0.0.dir/src/main.c.obj
 .text          0x00000000        0x0 examples/light_switch/provisioner/CMakeFiles/light_switch_provisioner_nrf52840_xxAA_s140_6.0.0.dir/__/__/__/mesh/stack/src/mesh_stack.c.obj
 .data          0x00000000        0x0 examples/light_switch/provisioner/CMakeFiles/light_switch_provisioner_nrf52840_xxAA_s140_6.0.0.dir/__/__/__/mesh/stack/src/mesh_stack.c.obj
 .bss           0x00000000        0x0 examples/light_switch/provisioner/CMakeFiles/light_switch_provisioner_nrf52840_xxAA_s140_6.0.0.dir/__/__/__/mesh/stack/src/mesh_stack.c.obj
 .text.mesh_evt_handler
                0x00000000        0xe examples/light_switch/provisioner/CMakeFiles/light_switch_provisioner_nrf52840_xxAA_s140_6.0.0.dir/__/__/__/mesh/stack/src/mesh_stack.c.obj
 .text.mesh_stack_start
                0x00000000        0x4 examples/light_switch/provisioner/CMakeFiles/light_switch_provisioner_nrf52840_xxAA_s140_6.0.0.dir/__/__/__/mesh/stack/src/mesh_stack.c.obj
 .text.mesh_stack_provisioning_data_store
                0x00000000       0x6c examples/light_switch/provisioner/CMakeFiles/light_switch_provisioner_nrf52840_xxAA_s140_6.0.0.dir/__/__/__/mesh/stack/src/mesh_stack.c.obj
 .text.mesh_stack_device_reset
                0x00000000       0x20 examples/light_switch/provisioner/CMakeFiles/light_switch_provisioner_nrf52840_xxAA_s140_6.0.0.dir/__/__/__/mesh/stack/src/mesh_stack.c.obj
 .data.s_evt_handler.11348
                0x00000000        0x8 examples/light_switch/provisioner/CMakeFiles/light_switch_provisioner_nrf52840_xxAA_s140_6.0.0.dir/__/__/__/mesh/stack/src/mesh_stack.c.obj
 .text          0x00000000        0x0 examples/light_switch/provisioner/CMakeFiles/light_switch_provisioner_nrf52840_xxAA_s140_6.0.0.dir/src/provisioner_helper.c.obj
 .data          0x00000000        0x0 examples/light_switch/provisioner/CMakeFiles/light_switch_provisioner_nrf52840_xxAA_s140_6.0.0.dir/src/provisioner_helper.c.obj
 .bss           0x00000000        0x0 examples/light_switch/provisioner/CMakeFiles/light_switch_provisioner_nrf52840_xxAA_s140_6.0.0.dir/src/provisioner_helper.c.obj
 .text.prov_helper_element_count_get
                0x00000000        0xc examples/light_switch/provisioner/CMakeFiles/light_switch_provisioner_nrf52840_xxAA_s140_6.0.0.dir/src/provisioner_helper.c.obj
 .text          0x00000000        0x0 examples/light_switch/provisioner/CMakeFiles/light_switch_provisioner_nrf52840_xxAA_s140_6.0.0.dir/src/node_setup.c.obj
 .data          0x00000000        0x0 examples/light_switch/provisioner/CMakeFiles/light_switch_provisioner_nrf52840_xxAA_s140_6.0.0.dir/src/node_setup.c.obj
 .bss           0x00000000        0x0 examples/light_switch/provisioner/CMakeFiles/light_switch_provisioner_nrf52840_xxAA_s140_6.0.0.dir/src/node_setup.c.obj
 .text          0x00000000        0x0 examples/light_switch/provisioner/CMakeFiles/light_switch_provisioner_nrf52840_xxAA_s140_6.0.0.dir/__/__/common/src/mesh_softdevice_init.c.obj
 .data          0x00000000        0x0 examples/light_switch/provisioner/CMakeFiles/light_switch_provisioner_nrf52840_xxAA_s140_6.0.0.dir/__/__/common/src/mesh_softdevice_init.c.obj
 .bss           0x00000000        0x0 examples/light_switch/provisioner/CMakeFiles/light_switch_provisioner_nrf52840_xxAA_s140_6.0.0.dir/__/__/common/src/mesh_softdevice_init.c.obj
 .text          0x00000000        0x0 examples/light_switch/provisioner/CMakeFiles/light_switch_provisioner_nrf52840_xxAA_s140_6.0.0.dir/__/__/common/src/rtt_input.c.obj
 .data          0x00000000        0x0 examples/light_switch/provisioner/CMakeFiles/light_switch_provisioner_nrf52840_xxAA_s140_6.0.0.dir/__/__/common/src/rtt_input.c.obj
 .bss           0x00000000        0x0 examples/light_switch/provisioner/CMakeFiles/light_switch_provisioner_nrf52840_xxAA_s140_6.0.0.dir/__/__/common/src/rtt_input.c.obj
 .text.rtt_input_disable
                0x00000000       0x24 examples/light_switch/provisioner/CMakeFiles/light_switch_provisioner_nrf52840_xxAA_s140_6.0.0.dir/__/__/common/src/rtt_input.c.obj
 .text          0x00000000        0x0 examples/light_switch/provisioner/CMakeFiles/light_switch_provisioner_nrf52840_xxAA_s140_6.0.0.dir/__/__/common/src/simple_hal.c.obj
 .data          0x00000000        0x0 examples/light_switch/provisioner/CMakeFiles/light_switch_provisioner_nrf52840_xxAA_s140_6.0.0.dir/__/__/common/src/simple_hal.c.obj
 .bss           0x00000000        0x0 examples/light_switch/provisioner/CMakeFiles/light_switch_provisioner_nrf52840_xxAA_s140_6.0.0.dir/__/__/common/src/simple_hal.c.obj
 .text.hal_led_pin_get
                0x00000000       0x18 examples/light_switch/provisioner/CMakeFiles/light_switch_provisioner_nrf52840_xxAA_s140_6.0.0.dir/__/__/common/src/simple_hal.c.obj
 .text          0x00000000        0x0 examples/light_switch/provisioner/CMakeFiles/light_switch_provisioner_nrf52840_xxAA_s140_6.0.0.dir/__/__/nrf_mesh_weak.c.obj
 .data          0x00000000        0x0 examples/light_switch/provisioner/CMakeFiles/light_switch_provisioner_nrf52840_xxAA_s140_6.0.0.dir/__/__/nrf_mesh_weak.c.obj
 .bss           0x00000000        0x0 examples/light_switch/provisioner/CMakeFiles/light_switch_provisioner_nrf52840_xxAA_s140_6.0.0.dir/__/__/nrf_mesh_weak.c.obj
 .text._weak_handler_ptr
                0x00000000        0x4 examples/light_switch/provisioner/CMakeFiles/light_switch_provisioner_nrf52840_xxAA_s140_6.0.0.dir/__/__/nrf_mesh_weak.c.obj
 .text          0x00000000        0x0 examples/light_switch/provisioner/CMakeFiles/light_switch_provisioner_nrf52840_xxAA_s140_6.0.0.dir/__/__/common/src/app_error_weak.c.obj
 .data          0x00000000        0x0 examples/light_switch/provisioner/CMakeFiles/light_switch_provisioner_nrf52840_xxAA_s140_6.0.0.dir/__/__/common/src/app_error_weak.c.obj
 .bss           0x00000000        0x0 examples/light_switch/provisioner/CMakeFiles/light_switch_provisioner_nrf52840_xxAA_s140_6.0.0.dir/__/__/common/src/app_error_weak.c.obj
 .text          0x00000000        0x0 examples/light_switch/provisioner/CMakeFiles/light_switch_provisioner_nrf52840_xxAA_s140_6.0.0.dir/__/__/common/src/assertion_handler_weak.c.obj
 .data          0x00000000        0x0 examples/light_switch/provisioner/CMakeFiles/light_switch_provisioner_nrf52840_xxAA_s140_6.0.0.dir/__/__/common/src/assertion_handler_weak.c.obj
 .bss           0x00000000        0x0 examples/light_switch/provisioner/CMakeFiles/light_switch_provisioner_nrf52840_xxAA_s140_6.0.0.dir/__/__/common/src/assertion_handler_weak.c.obj
 .text          0x00000000        0x0 examples/light_switch/provisioner/CMakeFiles/light_switch_provisioner_nrf52840_xxAA_s140_6.0.0.dir/__/__/__/mesh/core/src/internal_event.c.obj
 .data          0x00000000        0x0 examples/light_switch/provisioner/CMakeFiles/light_switch_provisioner_nrf52840_xxAA_s140_6.0.0.dir/__/__/__/mesh/core/src/internal_event.c.obj
 .bss           0x00000000        0x0 examples/light_switch/provisioner/CMakeFiles/light_switch_provisioner_nrf52840_xxAA_s140_6.0.0.dir/__/__/__/mesh/core/src/internal_event.c.obj
 .debug_info    0x00000000      0x8f2 examples/light_switch/provisioner/CMakeFiles/light_switch_provisioner_nrf52840_xxAA_s140_6.0.0.dir/__/__/__/mesh/core/src/internal_event.c.obj
 .debug_abbrev  0x00000000      0x192 examples/light_switch/provisioner/CMakeFiles/light_switch_provisioner_nrf52840_xxAA_s140_6.0.0.dir/__/__/__/mesh/core/src/internal_event.c.obj
 .debug_aranges
                0x00000000       0x18 examples/light_switch/provisioner/CMakeFiles/light_switch_provisioner_nrf52840_xxAA_s140_6.0.0.dir/__/__/__/mesh/core/src/internal_event.c.obj
 .debug_line    0x00000000      0x1b2 examples/light_switch/provisioner/CMakeFiles/light_switch_provisioner_nrf52840_xxAA_s140_6.0.0.dir/__/__/__/mesh/core/src/internal_event.c.obj
 .debug_str     0x00000000      0x602 examples/light_switch/provisioner/CMakeFiles/light_switch_provisioner_nrf52840_xxAA_s140_6.0.0.dir/__/__/__/mesh/core/src/internal_event.c.obj
 .comment       0x00000000       0x80 examples/light_switch/provisioner/CMakeFiles/light_switch_provisioner_nrf52840_xxAA_s140_6.0.0.dir/__/__/__/mesh/core/src/internal_event.c.obj
 .ARM.attributes
                0x00000000       0x39 examples/light_switch/provisioner/CMakeFiles/light_switch_provisioner_nrf52840_xxAA_s140_6.0.0.dir/__/__/__/mesh/core/src/internal_event.c.obj
 .text          0x00000000        0x0 examples/light_switch/provisioner/CMakeFiles/light_switch_provisioner_nrf52840_xxAA_s140_6.0.0.dir/__/__/__/mesh/core/src/nrf_mesh_configure.c.obj
 .data          0x00000000        0x0 examples/light_switch/provisioner/CMakeFiles/light_switch_provisioner_nrf52840_xxAA_s140_6.0.0.dir/__/__/__/mesh/core/src/nrf_mesh_configure.c.obj
 .bss           0x00000000        0x0 examples/light_switch/provisioner/CMakeFiles/light_switch_provisioner_nrf52840_xxAA_s140_6.0.0.dir/__/__/__/mesh/core/src/nrf_mesh_configure.c.obj
 .text          0x00000000        0x0 examples/light_switch/provisioner/CMakeFiles/light_switch_provisioner_nrf52840_xxAA_s140_6.0.0.dir/__/__/__/mesh/core/src/aes.c.obj
 .data          0x00000000        0x0 examples/light_switch/provisioner/CMakeFiles/light_switch_provisioner_nrf52840_xxAA_s140_6.0.0.dir/__/__/__/mesh/core/src/aes.c.obj
 .bss           0x00000000        0x0 examples/light_switch/provisioner/CMakeFiles/light_switch_provisioner_nrf52840_xxAA_s140_6.0.0.dir/__/__/__/mesh/core/src/aes.c.obj
 .text          0x00000000        0x0 examples/light_switch/provisioner/CMakeFiles/light_switch_provisioner_nrf52840_xxAA_s140_6.0.0.dir/__/__/__/mesh/core/src/msg_cache.c.obj
 .data          0x00000000        0x0 examples/light_switch/provisioner/CMakeFiles/light_switch_provisioner_nrf52840_xxAA_s140_6.0.0.dir/__/__/__/mesh/core/src/msg_cache.c.obj
 .bss           0x00000000        0x0 examples/light_switch/provisioner/CMakeFiles/light_switch_provisioner_nrf52840_xxAA_s140_6.0.0.dir/__/__/__/mesh/core/src/msg_cache.c.obj
 .text.msg_cache_clear
                0x00000000       0x18 examples/light_switch/provisioner/CMakeFiles/light_switch_provisioner_nrf52840_xxAA_s140_6.0.0.dir/__/__/__/mesh/core/src/msg_cache.c.obj
 .text          0x00000000        0x0 examples/light_switch/provisioner/CMakeFiles/light_switch_provisioner_nrf52840_xxAA_s140_6.0.0.dir/__/__/__/mesh/core/src/transport.c.obj
 .data          0x00000000        0x0 examples/light_switch/provisioner/CMakeFiles/light_switch_provisioner_nrf52840_xxAA_s140_6.0.0.dir/__/__/__/mesh/core/src/transport.c.obj
 .bss           0x00000000        0x0 examples/light_switch/provisioner/CMakeFiles/light_switch_provisioner_nrf52840_xxAA_s140_6.0.0.dir/__/__/__/mesh/core/src/transport.c.obj
 .text.transport_sar_mem_funcs_set
                0x00000000       0x44 examples/light_switch/provisioner/CMakeFiles/light_switch_provisioner_nrf52840_xxAA_s140_6.0.0.dir/__/__/__/mesh/core/src/transport.c.obj
 .text          0x00000000        0x0 examples/light_switch/provisioner/CMakeFiles/light_switch_provisioner_nrf52840_xxAA_s140_6.0.0.dir/__/__/__/mesh/core/src/event.c.obj
 .data          0x00000000        0x0 examples/light_switch/provisioner/CMakeFiles/light_switch_provisioner_nrf52840_xxAA_s140_6.0.0.dir/__/__/__/mesh/core/src/event.c.obj
 .bss           0x00000000        0x0 examples/light_switch/provisioner/CMakeFiles/light_switch_provisioner_nrf52840_xxAA_s140_6.0.0.dir/__/__/__/mesh/core/src/event.c.obj
 .text          0x00000000        0x0 examples/light_switch/provisioner/CMakeFiles/light_switch_provisioner_nrf52840_xxAA_s140_6.0.0.dir/__/__/__/mesh/core/src/packet_buffer.c.obj
 .data          0x00000000        0x0 examples/light_switch/provisioner/CMakeFiles/light_switch_provisioner_nrf52840_xxAA_s140_6.0.0.dir/__/__/__/mesh/core/src/packet_buffer.c.obj
 .bss           0x00000000        0x0 examples/light_switch/provisioner/CMakeFiles/light_switch_provisioner_nrf52840_xxAA_s140_6.0.0.dir/__/__/__/mesh/core/src/packet_buffer.c.obj
 .text.packet_buffer_max_packet_len_get
                0x00000000       0x20 examples/light_switch/provisioner/CMakeFiles/light_switch_provisioner_nrf52840_xxAA_s140_6.0.0.dir/__/__/__/mesh/core/src/packet_buffer.c.obj
 .text          0x00000000        0x0 examples/light_switch/provisioner/CMakeFiles/light_switch_provisioner_nrf52840_xxAA_s140_6.0.0.dir/__/__/__/mesh/core/src/flash_manager_defrag.c.obj
 .data          0x00000000        0x0 examples/light_switch/provisioner/CMakeFiles/light_switch_provisioner_nrf52840_xxAA_s140_6.0.0.dir/__/__/__/mesh/core/src/flash_manager_defrag.c.obj
 .bss           0x00000000        0x0 examples/light_switch/provisioner/CMakeFiles/light_switch_provisioner_nrf52840_xxAA_s140_6.0.0.dir/__/__/__/mesh/core/src/flash_manager_defrag.c.obj
 .text.flash_manager_defragging
                0x00000000       0x38 examples/light_switch/provisioner/CMakeFiles/light_switch_provisioner_nrf52840_xxAA_s140_6.0.0.dir/__/__/__/mesh/core/src/flash_manager_defrag.c.obj
 .text          0x00000000        0x0 examples/light_switch/provisioner/CMakeFiles/light_switch_provisioner_nrf52840_xxAA_s140_6.0.0.dir/__/__/__/mesh/core/src/fifo.c.obj
 .data          0x00000000        0x0 examples/light_switch/provisioner/CMakeFiles/light_switch_provisioner_nrf52840_xxAA_s140_6.0.0.dir/__/__/__/mesh/core/src/fifo.c.obj
 .bss           0x00000000        0x0 examples/light_switch/provisioner/CMakeFiles/light_switch_provisioner_nrf52840_xxAA_s140_6.0.0.dir/__/__/__/mesh/core/src/fifo.c.obj
 .text.fifo_peek_at
                0x00000000       0x50 examples/light_switch/provisioner/CMakeFiles/light_switch_provisioner_nrf52840_xxAA_s140_6.0.0.dir/__/__/__/mesh/core/src/fifo.c.obj
 .text.fifo_peek
                0x00000000        0x6 examples/light_switch/provisioner/CMakeFiles/light_switch_provisioner_nrf52840_xxAA_s140_6.0.0.dir/__/__/__/mesh/core/src/fifo.c.obj
 .text.fifo_flush
                0x00000000        0x6 examples/light_switch/provisioner/CMakeFiles/light_switch_provisioner_nrf52840_xxAA_s140_6.0.0.dir/__/__/__/mesh/core/src/fifo.c.obj
 .text.fifo_get_len
                0x00000000        0x8 examples/light_switch/provisioner/CMakeFiles/light_switch_provisioner_nrf52840_xxAA_s140_6.0.0.dir/__/__/__/mesh/core/src/fifo.c.obj
 .text.fifo_is_full
                0x00000000       0x10 examples/light_switch/provisioner/CMakeFiles/light_switch_provisioner_nrf52840_xxAA_s140_6.0.0.dir/__/__/__/mesh/core/src/fifo.c.obj
 .text.fifo_is_empty
                0x00000000        0xc examples/light_switch/provisioner/CMakeFiles/light_switch_provisioner_nrf52840_xxAA_s140_6.0.0.dir/__/__/__/mesh/core/src/fifo.c.obj
 .text          0x00000000        0x0 examples/light_switch/provisioner/CMakeFiles/light_switch_provisioner_nrf52840_xxAA_s140_6.0.0.dir/__/__/__/mesh/core/src/nrf_flash.c.obj
 .data          0x00000000        0x0 examples/light_switch/provisioner/CMakeFiles/light_switch_provisioner_nrf52840_xxAA_s140_6.0.0.dir/__/__/__/mesh/core/src/nrf_flash.c.obj
 .bss           0x00000000        0x0 examples/light_switch/provisioner/CMakeFiles/light_switch_provisioner_nrf52840_xxAA_s140_6.0.0.dir/__/__/__/mesh/core/src/nrf_flash.c.obj
 .text          0x00000000        0x0 examples/light_switch/provisioner/CMakeFiles/light_switch_provisioner_nrf52840_xxAA_s140_6.0.0.dir/__/__/__/mesh/core/src/packet_mgr.c.obj
 .data          0x00000000        0x0 examples/light_switch/provisioner/CMakeFiles/light_switch_provisioner_nrf52840_xxAA_s140_6.0.0.dir/__/__/__/mesh/core/src/packet_mgr.c.obj
 .bss           0x00000000        0x0 examples/light_switch/provisioner/CMakeFiles/light_switch_provisioner_nrf52840_xxAA_s140_6.0.0.dir/__/__/__/mesh/core/src/packet_mgr.c.obj
 .text.packet_mgr_get_free_space
                0x00000000       0x1c examples/light_switch/provisioner/CMakeFiles/light_switch_provisioner_nrf52840_xxAA_s140_6.0.0.dir/__/__/__/mesh/core/src/packet_mgr.c.obj
 .text.packet_mgr_refcount_get
                0x00000000        0x6 examples/light_switch/provisioner/CMakeFiles/light_switch_provisioner_nrf52840_xxAA_s140_6.0.0.dir/__/__/__/mesh/core/src/packet_mgr.c.obj
 .text.packet_mgr_size_get
                0x00000000        0x6 examples/light_switch/provisioner/CMakeFiles/light_switch_provisioner_nrf52840_xxAA_s140_6.0.0.dir/__/__/__/mesh/core/src/packet_mgr.c.obj
 .text          0x00000000        0x0 examples/light_switch/provisioner/CMakeFiles/light_switch_provisioner_nrf52840_xxAA_s140_6.0.0.dir/__/__/__/mesh/core/src/net_state.c.obj
 .data          0x00000000        0x0 examples/light_switch/provisioner/CMakeFiles/light_switch_provisioner_nrf52840_xxAA_s140_6.0.0.dir/__/__/__/mesh/core/src/net_state.c.obj
 .bss           0x00000000        0x0 examples/light_switch/provisioner/CMakeFiles/light_switch_provisioner_nrf52840_xxAA_s140_6.0.0.dir/__/__/__/mesh/core/src/net_state.c.obj
 .text.net_state_iv_update_test_mode_set
                0x00000000        0xc examples/light_switch/provisioner/CMakeFiles/light_switch_provisioner_nrf52840_xxAA_s140_6.0.0.dir/__/__/__/mesh/core/src/net_state.c.obj
 .text.net_state_test_mode_transition_run
                0x00000000       0x2c examples/light_switch/provisioner/CMakeFiles/light_switch_provisioner_nrf52840_xxAA_s140_6.0.0.dir/__/__/__/mesh/core/src/net_state.c.obj
 .text.net_state_iv_index_set
                0x00000000       0x30 examples/light_switch/provisioner/CMakeFiles/light_switch_provisioner_nrf52840_xxAA_s140_6.0.0.dir/__/__/__/mesh/core/src/net_state.c.obj
 .bss.iv_state_set.10189
                0x00000000        0x1 examples/light_switch/provisioner/CMakeFiles/light_switch_provisioner_nrf52840_xxAA_s140_6.0.0.dir/__/__/__/mesh/core/src/net_state.c.obj
 .text          0x00000000        0x0 examples/light_switch/provisioner/CMakeFiles/light_switch_provisioner_nrf52840_xxAA_s140_6.0.0.dir/__/__/__/mesh/core/src/mesh_flash.c.obj
 .data          0x00000000        0x0 examples/light_switch/provisioner/CMakeFiles/light_switch_provisioner_nrf52840_xxAA_s140_6.0.0.dir/__/__/__/mesh/core/src/mesh_flash.c.obj
 .bss           0x00000000        0x0 examples/light_switch/provisioner/CMakeFiles/light_switch_provisioner_nrf52840_xxAA_s140_6.0.0.dir/__/__/__/mesh/core/src/mesh_flash.c.obj
 .text.mesh_flash_op_available_slots
                0x00000000       0x2c examples/light_switch/provisioner/CMakeFiles/light_switch_provisioner_nrf52840_xxAA_s140_6.0.0.dir/__/__/__/mesh/core/src/mesh_flash.c.obj
 .text.mesh_flash_in_progress
                0x00000000       0x34 examples/light_switch/provisioner/CMakeFiles/light_switch_provisioner_nrf52840_xxAA_s140_6.0.0.dir/__/__/__/mesh/core/src/mesh_flash.c.obj
 .text.mesh_flash_set_suspended
                0x00000000       0x74 examples/light_switch/provisioner/CMakeFiles/light_switch_provisioner_nrf52840_xxAA_s140_6.0.0.dir/__/__/__/mesh/core/src/mesh_flash.c.obj
 .bss.suspend_count.10416
                0x00000000        0x4 examples/light_switch/provisioner/CMakeFiles/light_switch_provisioner_nrf52840_xxAA_s140_6.0.0.dir/__/__/__/mesh/core/src/mesh_flash.c.obj
 .text          0x00000000        0x0 examples/light_switch/provisioner/CMakeFiles/light_switch_provisioner_nrf52840_xxAA_s140_6.0.0.dir/__/__/__/mesh/core/src/nrf_mesh_utils.c.obj
 .data          0x00000000        0x0 examples/light_switch/provisioner/CMakeFiles/light_switch_provisioner_nrf52840_xxAA_s140_6.0.0.dir/__/__/__/mesh/core/src/nrf_mesh_utils.c.obj
 .bss           0x00000000        0x0 examples/light_switch/provisioner/CMakeFiles/light_switch_provisioner_nrf52840_xxAA_s140_6.0.0.dir/__/__/__/mesh/core/src/nrf_mesh_utils.c.obj
 .text.nrf_mesh_rand_get
                0x00000000       0x10 examples/light_switch/provisioner/CMakeFiles/light_switch_provisioner_nrf52840_xxAA_s140_6.0.0.dir/__/__/__/mesh/core/src/nrf_mesh_utils.c.obj
 .text.nrf_mesh_gap_address_type_get
                0x00000000       0x30 examples/light_switch/provisioner/CMakeFiles/light_switch_provisioner_nrf52840_xxAA_s140_6.0.0.dir/__/__/__/mesh/core/src/nrf_mesh_utils.c.obj
 .text          0x00000000        0x0 examples/light_switch/provisioner/CMakeFiles/light_switch_provisioner_nrf52840_xxAA_s140_6.0.0.dir/__/__/__/mesh/core/src/nrf_mesh.c.obj
 .data          0x00000000        0x0 examples/light_switch/provisioner/CMakeFiles/light_switch_provisioner_nrf52840_xxAA_s140_6.0.0.dir/__/__/__/mesh/core/src/nrf_mesh.c.obj
 .bss           0x00000000        0x0 examples/light_switch/provisioner/CMakeFiles/light_switch_provisioner_nrf52840_xxAA_s140_6.0.0.dir/__/__/__/mesh/core/src/nrf_mesh.c.obj
 .text.nrf_mesh_disable
                0x00000000       0x28 examples/light_switch/provisioner/CMakeFiles/light_switch_provisioner_nrf52840_xxAA_s140_6.0.0.dir/__/__/__/mesh/core/src/nrf_mesh.c.obj
 .text.nrf_mesh_process
                0x00000000        0x4 examples/light_switch/provisioner/CMakeFiles/light_switch_provisioner_nrf52840_xxAA_s140_6.0.0.dir/__/__/__/mesh/core/src/nrf_mesh.c.obj
 .text.nrf_mesh_evt_handler_remove
                0x00000000        0x4 examples/light_switch/provisioner/CMakeFiles/light_switch_provisioner_nrf52840_xxAA_s140_6.0.0.dir/__/__/__/mesh/core/src/nrf_mesh.c.obj
 .text.nrf_mesh_rx_cb_set
                0x00000000        0xc examples/light_switch/provisioner/CMakeFiles/light_switch_provisioner_nrf52840_xxAA_s140_6.0.0.dir/__/__/__/mesh/core/src/nrf_mesh.c.obj
 .text.nrf_mesh_rx_cb_clear
                0x00000000        0xc examples/light_switch/provisioner/CMakeFiles/light_switch_provisioner_nrf52840_xxAA_s140_6.0.0.dir/__/__/__/mesh/core/src/nrf_mesh.c.obj
 .text          0x00000000        0x0 examples/light_switch/provisioner/CMakeFiles/light_switch_provisioner_nrf52840_xxAA_s140_6.0.0.dir/__/__/__/mesh/core/src/queue.c.obj
 .data          0x00000000        0x0 examples/light_switch/provisioner/CMakeFiles/light_switch_provisioner_nrf52840_xxAA_s140_6.0.0.dir/__/__/__/mesh/core/src/queue.c.obj
 .bss           0x00000000        0x0 examples/light_switch/provisioner/CMakeFiles/light_switch_provisioner_nrf52840_xxAA_s140_6.0.0.dir/__/__/__/mesh/core/src/queue.c.obj
 .text          0x00000000        0x0 examples/light_switch/provisioner/CMakeFiles/light_switch_provisioner_nrf52840_xxAA_s140_6.0.0.dir/__/__/__/mesh/core/src/hal.c.obj
 .data          0x00000000        0x0 examples/light_switch/provisioner/CMakeFiles/light_switch_provisioner_nrf52840_xxAA_s140_6.0.0.dir/__/__/__/mesh/core/src/hal.c.obj
 .bss           0x00000000        0x0 examples/light_switch/provisioner/CMakeFiles/light_switch_provisioner_nrf52840_xxAA_s140_6.0.0.dir/__/__/__/mesh/core/src/hal.c.obj
 .text          0x00000000        0x0 examples/light_switch/provisioner/CMakeFiles/light_switch_provisioner_nrf52840_xxAA_s140_6.0.0.dir/__/__/__/mesh/core/src/aes_cmac.c.obj
 .data          0x00000000        0x0 examples/light_switch/provisioner/CMakeFiles/light_switch_provisioner_nrf52840_xxAA_s140_6.0.0.dir/__/__/__/mesh/core/src/aes_cmac.c.obj
 .bss           0x00000000        0x0 examples/light_switch/provisioner/CMakeFiles/light_switch_provisioner_nrf52840_xxAA_s140_6.0.0.dir/__/__/__/mesh/core/src/aes_cmac.c.obj
 .text          0x00000000        0x0 examples/light_switch/provisioner/CMakeFiles/light_switch_provisioner_nrf52840_xxAA_s140_6.0.0.dir/__/__/__/mesh/core/src/timer_scheduler.c.obj
 .data          0x00000000        0x0 examples/light_switch/provisioner/CMakeFiles/light_switch_provisioner_nrf52840_xxAA_s140_6.0.0.dir/__/__/__/mesh/core/src/timer_scheduler.c.obj
 .bss           0x00000000        0x0 examples/light_switch/provisioner/CMakeFiles/light_switch_provisioner_nrf52840_xxAA_s140_6.0.0.dir/__/__/__/mesh/core/src/timer_scheduler.c.obj
 .text          0x00000000        0x0 examples/light_switch/provisioner/CMakeFiles/light_switch_provisioner_nrf52840_xxAA_s140_6.0.0.dir/__/__/__/mesh/core/src/timer.c.obj
 .data          0x00000000        0x0 examples/light_switch/provisioner/CMakeFiles/light_switch_provisioner_nrf52840_xxAA_s140_6.0.0.dir/__/__/__/mesh/core/src/timer.c.obj
 .bss           0x00000000        0x0 examples/light_switch/provisioner/CMakeFiles/light_switch_provisioner_nrf52840_xxAA_s140_6.0.0.dir/__/__/__/mesh/core/src/timer.c.obj
 .text.timer_order_cb_ppi
                0x00000000       0xc4 examples/light_switch/provisioner/CMakeFiles/light_switch_provisioner_nrf52840_xxAA_s140_6.0.0.dir/__/__/__/mesh/core/src/timer.c.obj
 .text.timer_order_ppi
                0x00000000       0xc0 examples/light_switch/provisioner/CMakeFiles/light_switch_provisioner_nrf52840_xxAA_s140_6.0.0.dir/__/__/__/mesh/core/src/timer.c.obj
 .text.timer_abort
                0x00000000       0x78 examples/light_switch/provisioner/CMakeFiles/light_switch_provisioner_nrf52840_xxAA_s140_6.0.0.dir/__/__/__/mesh/core/src/timer.c.obj
 .text          0x00000000        0x0 examples/light_switch/provisioner/CMakeFiles/light_switch_provisioner_nrf52840_xxAA_s140_6.0.0.dir/__/__/__/mesh/core/src/ticker.c.obj
 .data          0x00000000        0x0 examples/light_switch/provisioner/CMakeFiles/light_switch_provisioner_nrf52840_xxAA_s140_6.0.0.dir/__/__/__/mesh/core/src/ticker.c.obj
 .bss           0x00000000        0x0 examples/light_switch/provisioner/CMakeFiles/light_switch_provisioner_nrf52840_xxAA_s140_6.0.0.dir/__/__/__/mesh/core/src/ticker.c.obj
 .text.ticker_get
                0x00000000        0xc examples/light_switch/provisioner/CMakeFiles/light_switch_provisioner_nrf52840_xxAA_s140_6.0.0.dir/__/__/__/mesh/core/src/ticker.c.obj
 .text          0x00000000        0x0 examples/light_switch/provisioner/CMakeFiles/light_switch_provisioner_nrf52840_xxAA_s140_6.0.0.dir/__/__/__/mesh/core/src/rand.c.obj
 .data          0x00000000        0x0 examples/light_switch/provisioner/CMakeFiles/light_switch_provisioner_nrf52840_xxAA_s140_6.0.0.dir/__/__/__/mesh/core/src/rand.c.obj
 .bss           0x00000000        0x0 examples/light_switch/provisioner/CMakeFiles/light_switch_provisioner_nrf52840_xxAA_s140_6.0.0.dir/__/__/__/mesh/core/src/rand.c.obj
 .text          0x00000000        0x0 examples/light_switch/provisioner/CMakeFiles/light_switch_provisioner_nrf52840_xxAA_s140_6.0.0.dir/__/__/__/mesh/core/src/nrf_mesh_opt.c.obj
 .data          0x00000000        0x0 examples/light_switch/provisioner/CMakeFiles/light_switch_provisioner_nrf52840_xxAA_s140_6.0.0.dir/__/__/__/mesh/core/src/nrf_mesh_opt.c.obj
 .bss           0x00000000        0x0 examples/light_switch/provisioner/CMakeFiles/light_switch_provisioner_nrf52840_xxAA_s140_6.0.0.dir/__/__/__/mesh/core/src/nrf_mesh_opt.c.obj
 .text          0x00000000        0x0 examples/light_switch/provisioner/CMakeFiles/light_switch_provisioner_nrf52840_xxAA_s140_6.0.0.dir/__/__/__/mesh/core/src/timeslot.c.obj
 .data          0x00000000        0x0 examples/light_switch/provisioner/CMakeFiles/light_switch_provisioner_nrf52840_xxAA_s140_6.0.0.dir/__/__/__/mesh/core/src/timeslot.c.obj
 .bss           0x00000000        0x0 examples/light_switch/provisioner/CMakeFiles/light_switch_provisioner_nrf52840_xxAA_s140_6.0.0.dir/__/__/__/mesh/core/src/timeslot.c.obj
 .text.timeslot_end_time_get
                0x00000000       0x10 examples/light_switch/provisioner/CMakeFiles/light_switch_provisioner_nrf52840_xxAA_s140_6.0.0.dir/__/__/__/mesh/core/src/timeslot.c.obj
 .text.timeslot_is_in_ts
                0x00000000        0xc examples/light_switch/provisioner/CMakeFiles/light_switch_provisioner_nrf52840_xxAA_s140_6.0.0.dir/__/__/__/mesh/core/src/timeslot.c.obj
 .text.timeslot_restart
                0x00000000       0x10 examples/light_switch/provisioner/CMakeFiles/light_switch_provisioner_nrf52840_xxAA_s140_6.0.0.dir/__/__/__/mesh/core/src/timeslot.c.obj
 .text          0x00000000        0x0 examples/light_switch/provisioner/CMakeFiles/light_switch_provisioner_nrf52840_xxAA_s140_6.0.0.dir/__/__/__/mesh/core/src/bearer_event.c.obj
 .data          0x00000000        0x0 examples/light_switch/provisioner/CMakeFiles/light_switch_provisioner_nrf52840_xxAA_s140_6.0.0.dir/__/__/__/mesh/core/src/bearer_event.c.obj
 .bss           0x00000000        0x0 examples/light_switch/provisioner/CMakeFiles/light_switch_provisioner_nrf52840_xxAA_s140_6.0.0.dir/__/__/__/mesh/core/src/bearer_event.c.obj
 .text.bearer_event_generic_post
                0x00000000       0x24 examples/light_switch/provisioner/CMakeFiles/light_switch_provisioner_nrf52840_xxAA_s140_6.0.0.dir/__/__/__/mesh/core/src/bearer_event.c.obj
 .text.bearer_event_timer_sch_post
                0x00000000       0x26 examples/light_switch/provisioner/CMakeFiles/light_switch_provisioner_nrf52840_xxAA_s140_6.0.0.dir/__/__/__/mesh/core/src/bearer_event.c.obj
 .text.bearer_event_in_correct_irq_priority
                0x00000000       0x48 examples/light_switch/provisioner/CMakeFiles/light_switch_provisioner_nrf52840_xxAA_s140_6.0.0.dir/__/__/__/mesh/core/src/bearer_event.c.obj
 .text          0x00000000        0x0 examples/light_switch/provisioner/CMakeFiles/light_switch_provisioner_nrf52840_xxAA_s140_6.0.0.dir/__/__/__/mesh/core/src/enc.c.obj
 .data          0x00000000        0x0 examples/light_switch/provisioner/CMakeFiles/light_switch_provisioner_nrf52840_xxAA_s140_6.0.0.dir/__/__/__/mesh/core/src/enc.c.obj
 .bss           0x00000000        0x0 examples/light_switch/provisioner/CMakeFiles/light_switch_provisioner_nrf52840_xxAA_s140_6.0.0.dir/__/__/__/mesh/core/src/enc.c.obj
 .text.enc_key_generate
                0x00000000        0x6 examples/light_switch/provisioner/CMakeFiles/light_switch_provisioner_nrf52840_xxAA_s140_6.0.0.dir/__/__/__/mesh/core/src/enc.c.obj
 .text          0x00000000        0x0 examples/light_switch/provisioner/CMakeFiles/light_switch_provisioner_nrf52840_xxAA_s140_6.0.0.dir/__/__/__/mesh/core/src/network.c.obj
 .data          0x00000000        0x0 examples/light_switch/provisioner/CMakeFiles/light_switch_provisioner_nrf52840_xxAA_s140_6.0.0.dir/__/__/__/mesh/core/src/network.c.obj
 .bss           0x00000000        0x0 examples/light_switch/provisioner/CMakeFiles/light_switch_provisioner_nrf52840_xxAA_s140_6.0.0.dir/__/__/__/mesh/core/src/network.c.obj
 .text.network_packet_discard
                0x00000000       0x1e examples/light_switch/provisioner/CMakeFiles/light_switch_provisioner_nrf52840_xxAA_s140_6.0.0.dir/__/__/__/mesh/core/src/network.c.obj
 .text          0x00000000        0x0 examples/light_switch/provisioner/CMakeFiles/light_switch_provisioner_nrf52840_xxAA_s140_6.0.0.dir/__/__/__/mesh/core/src/net_packet.c.obj
 .data          0x00000000        0x0 examples/light_switch/provisioner/CMakeFiles/light_switch_provisioner_nrf52840_xxAA_s140_6.0.0.dir/__/__/__/mesh/core/src/net_packet.c.obj
 .bss           0x00000000        0x0 examples/light_switch/provisioner/CMakeFiles/light_switch_provisioner_nrf52840_xxAA_s140_6.0.0.dir/__/__/__/mesh/core/src/net_packet.c.obj
 .text.net_packet_enc_start_get
                0x00000000        0x4 examples/light_switch/provisioner/CMakeFiles/light_switch_provisioner_nrf52840_xxAA_s140_6.0.0.dir/__/__/__/mesh/core/src/net_packet.c.obj
 .text.net_packet_payload_get
                0x00000000        0x4 examples/light_switch/provisioner/CMakeFiles/light_switch_provisioner_nrf52840_xxAA_s140_6.0.0.dir/__/__/__/mesh/core/src/net_packet.c.obj
 .text          0x00000000        0x0 examples/light_switch/provisioner/CMakeFiles/light_switch_provisioner_nrf52840_xxAA_s140_6.0.0.dir/__/__/__/mesh/core/src/msqueue.c.obj
 .data          0x00000000        0x0 examples/light_switch/provisioner/CMakeFiles/light_switch_provisioner_nrf52840_xxAA_s140_6.0.0.dir/__/__/__/mesh/core/src/msqueue.c.obj
 .bss           0x00000000        0x0 examples/light_switch/provisioner/CMakeFiles/light_switch_provisioner_nrf52840_xxAA_s140_6.0.0.dir/__/__/__/mesh/core/src/msqueue.c.obj
 .text          0x00000000        0x0 examples/light_switch/provisioner/CMakeFiles/light_switch_provisioner_nrf52840_xxAA_s140_6.0.0.dir/__/__/__/mesh/core/src/nrf_mesh_keygen.c.obj
 .data          0x00000000        0x0 examples/light_switch/provisioner/CMakeFiles/light_switch_provisioner_nrf52840_xxAA_s140_6.0.0.dir/__/__/__/mesh/core/src/nrf_mesh_keygen.c.obj
 .bss           0x00000000        0x0 examples/light_switch/provisioner/CMakeFiles/light_switch_provisioner_nrf52840_xxAA_s140_6.0.0.dir/__/__/__/mesh/core/src/nrf_mesh_keygen.c.obj
 .text.nrf_mesh_keygen_identitykey
                0x00000000       0x4c examples/light_switch/provisioner/CMakeFiles/light_switch_provisioner_nrf52840_xxAA_s140_6.0.0.dir/__/__/__/mesh/core/src/nrf_mesh_keygen.c.obj
 .text          0x00000000        0x0 examples/light_switch/provisioner/CMakeFiles/light_switch_provisioner_nrf52840_xxAA_s140_6.0.0.dir/__/__/__/mesh/core/src/cache.c.obj
 .data          0x00000000        0x0 examples/light_switch/provisioner/CMakeFiles/light_switch_provisioner_nrf52840_xxAA_s140_6.0.0.dir/__/__/__/mesh/core/src/cache.c.obj
 .bss           0x00000000        0x0 examples/light_switch/provisioner/CMakeFiles/light_switch_provisioner_nrf52840_xxAA_s140_6.0.0.dir/__/__/__/mesh/core/src/cache.c.obj
 .text.erase_at
                0x00000000       0x1c examples/light_switch/provisioner/CMakeFiles/light_switch_provisioner_nrf52840_xxAA_s140_6.0.0.dir/__/__/__/mesh/core/src/cache.c.obj
 .text.cache_init
                0x00000000       0x1e examples/light_switch/provisioner/CMakeFiles/light_switch_provisioner_nrf52840_xxAA_s140_6.0.0.dir/__/__/__/mesh/core/src/cache.c.obj
 .text.cache_has_elem
                0x00000000       0x3e examples/light_switch/provisioner/CMakeFiles/light_switch_provisioner_nrf52840_xxAA_s140_6.0.0.dir/__/__/__/mesh/core/src/cache.c.obj
 .text.cache_put
                0x00000000       0x2a examples/light_switch/provisioner/CMakeFiles/light_switch_provisioner_nrf52840_xxAA_s140_6.0.0.dir/__/__/__/mesh/core/src/cache.c.obj
 .text.cache_erase_elem
                0x00000000       0x4c examples/light_switch/provisioner/CMakeFiles/light_switch_provisioner_nrf52840_xxAA_s140_6.0.0.dir/__/__/__/mesh/core/src/cache.c.obj
 .debug_info    0x00000000      0xbe1 examples/light_switch/provisioner/CMakeFiles/light_switch_provisioner_nrf52840_xxAA_s140_6.0.0.dir/__/__/__/mesh/core/src/cache.c.obj
 .debug_abbrev  0x00000000      0x2a3 examples/light_switch/provisioner/CMakeFiles/light_switch_provisioner_nrf52840_xxAA_s140_6.0.0.dir/__/__/__/mesh/core/src/cache.c.obj
 .debug_loc     0x00000000      0x29b examples/light_switch/provisioner/CMakeFiles/light_switch_provisioner_nrf52840_xxAA_s140_6.0.0.dir/__/__/__/mesh/core/src/cache.c.obj
 .debug_aranges
                0x00000000       0x40 examples/light_switch/provisioner/CMakeFiles/light_switch_provisioner_nrf52840_xxAA_s140_6.0.0.dir/__/__/__/mesh/core/src/cache.c.obj
 .debug_ranges  0x00000000       0x80 examples/light_switch/provisioner/CMakeFiles/light_switch_provisioner_nrf52840_xxAA_s140_6.0.0.dir/__/__/__/mesh/core/src/cache.c.obj
 .debug_line    0x00000000      0x21e examples/light_switch/provisioner/CMakeFiles/light_switch_provisioner_nrf52840_xxAA_s140_6.0.0.dir/__/__/__/mesh/core/src/cache.c.obj
 .debug_str     0x00000000      0x6af examples/light_switch/provisioner/CMakeFiles/light_switch_provisioner_nrf52840_xxAA_s140_6.0.0.dir/__/__/__/mesh/core/src/cache.c.obj
 .comment       0x00000000       0x80 examples/light_switch/provisioner/CMakeFiles/light_switch_provisioner_nrf52840_xxAA_s140_6.0.0.dir/__/__/__/mesh/core/src/cache.c.obj
 .debug_frame   0x00000000       0xb0 examples/light_switch/provisioner/CMakeFiles/light_switch_provisioner_nrf52840_xxAA_s140_6.0.0.dir/__/__/__/mesh/core/src/cache.c.obj
 .ARM.attributes
                0x00000000       0x39 examples/light_switch/provisioner/CMakeFiles/light_switch_provisioner_nrf52840_xxAA_s140_6.0.0.dir/__/__/__/mesh/core/src/cache.c.obj
 .text          0x00000000        0x0 examples/light_switch/provisioner/CMakeFiles/light_switch_provisioner_nrf52840_xxAA_s140_6.0.0.dir/__/__/__/mesh/core/src/uri.c.obj
 .data          0x00000000        0x0 examples/light_switch/provisioner/CMakeFiles/light_switch_provisioner_nrf52840_xxAA_s140_6.0.0.dir/__/__/__/mesh/core/src/uri.c.obj
 .bss           0x00000000        0x0 examples/light_switch/provisioner/CMakeFiles/light_switch_provisioner_nrf52840_xxAA_s140_6.0.0.dir/__/__/__/mesh/core/src/uri.c.obj
 .text.uri_data_parse
                0x00000000       0x78 examples/light_switch/provisioner/CMakeFiles/light_switch_provisioner_nrf52840_xxAA_s140_6.0.0.dir/__/__/__/mesh/core/src/uri.c.obj
 .text.uri_scheme_name_code_point
                0x00000000       0x5c examples/light_switch/provisioner/CMakeFiles/light_switch_provisioner_nrf52840_xxAA_s140_6.0.0.dir/__/__/__/mesh/core/src/uri.c.obj
 .text.uri_data_generate
                0x00000000       0x52 examples/light_switch/provisioner/CMakeFiles/light_switch_provisioner_nrf52840_xxAA_s140_6.0.0.dir/__/__/__/mesh/core/src/uri.c.obj
 .text.uri_scheme_name_string
                0x00000000       0x14 examples/light_switch/provisioner/CMakeFiles/light_switch_provisioner_nrf52840_xxAA_s140_6.0.0.dir/__/__/__/mesh/core/src/uri.c.obj
 .rodata.m_code_point_strings
                0x00000000      0x2ec examples/light_switch/provisioner/CMakeFiles/light_switch_provisioner_nrf52840_xxAA_s140_6.0.0.dir/__/__/__/mesh/core/src/uri.c.obj
 .rodata.str1.1
                0x00000000      0x566 examples/light_switch/provisioner/CMakeFiles/light_switch_provisioner_nrf52840_xxAA_s140_6.0.0.dir/__/__/__/mesh/core/src/uri.c.obj
 .debug_info    0x00000000      0xcac examples/light_switch/provisioner/CMakeFiles/light_switch_provisioner_nrf52840_xxAA_s140_6.0.0.dir/__/__/__/mesh/core/src/uri.c.obj
 .debug_abbrev  0x00000000      0x2e4 examples/light_switch/provisioner/CMakeFiles/light_switch_provisioner_nrf52840_xxAA_s140_6.0.0.dir/__/__/__/mesh/core/src/uri.c.obj
 .debug_loc     0x00000000      0x253 examples/light_switch/provisioner/CMakeFiles/light_switch_provisioner_nrf52840_xxAA_s140_6.0.0.dir/__/__/__/mesh/core/src/uri.c.obj
 .debug_aranges
                0x00000000       0x38 examples/light_switch/provisioner/CMakeFiles/light_switch_provisioner_nrf52840_xxAA_s140_6.0.0.dir/__/__/__/mesh/core/src/uri.c.obj
 .debug_ranges  0x00000000       0x48 examples/light_switch/provisioner/CMakeFiles/light_switch_provisioner_nrf52840_xxAA_s140_6.0.0.dir/__/__/__/mesh/core/src/uri.c.obj
 .debug_line    0x00000000      0x2bd examples/light_switch/provisioner/CMakeFiles/light_switch_provisioner_nrf52840_xxAA_s140_6.0.0.dir/__/__/__/mesh/core/src/uri.c.obj
 .debug_str     0x00000000      0x6dd examples/light_switch/provisioner/CMakeFiles/light_switch_provisioner_nrf52840_xxAA_s140_6.0.0.dir/__/__/__/mesh/core/src/uri.c.obj
 .comment       0x00000000       0x80 examples/light_switch/provisioner/CMakeFiles/light_switch_provisioner_nrf52840_xxAA_s140_6.0.0.dir/__/__/__/mesh/core/src/uri.c.obj
 .debug_frame   0x00000000       0x84 examples/light_switch/provisioner/CMakeFiles/light_switch_provisioner_nrf52840_xxAA_s140_6.0.0.dir/__/__/__/mesh/core/src/uri.c.obj
 .ARM.attributes
                0x00000000       0x39 examples/light_switch/provisioner/CMakeFiles/light_switch_provisioner_nrf52840_xxAA_s140_6.0.0.dir/__/__/__/mesh/core/src/uri.c.obj
 .text          0x00000000        0x0 examples/light_switch/provisioner/CMakeFiles/light_switch_provisioner_nrf52840_xxAA_s140_6.0.0.dir/__/__/__/mesh/core/src/list.c.obj
 .data          0x00000000        0x0 examples/light_switch/provisioner/CMakeFiles/light_switch_provisioner_nrf52840_xxAA_s140_6.0.0.dir/__/__/__/mesh/core/src/list.c.obj
 .bss           0x00000000        0x0 examples/light_switch/provisioner/CMakeFiles/light_switch_provisioner_nrf52840_xxAA_s140_6.0.0.dir/__/__/__/mesh/core/src/list.c.obj
 .text.list_size_get
                0x00000000       0x12 examples/light_switch/provisioner/CMakeFiles/light_switch_provisioner_nrf52840_xxAA_s140_6.0.0.dir/__/__/__/mesh/core/src/list.c.obj
 .text.list_sorted_add
                0x00000000       0x6c examples/light_switch/provisioner/CMakeFiles/light_switch_provisioner_nrf52840_xxAA_s140_6.0.0.dir/__/__/__/mesh/core/src/list.c.obj
 .text          0x00000000        0x0 examples/light_switch/provisioner/CMakeFiles/light_switch_provisioner_nrf52840_xxAA_s140_6.0.0.dir/__/__/__/mesh/core/src/log.c.obj
 .data          0x00000000        0x0 examples/light_switch/provisioner/CMakeFiles/light_switch_provisioner_nrf52840_xxAA_s140_6.0.0.dir/__/__/__/mesh/core/src/log.c.obj
 .bss           0x00000000        0x0 examples/light_switch/provisioner/CMakeFiles/light_switch_provisioner_nrf52840_xxAA_s140_6.0.0.dir/__/__/__/mesh/core/src/log.c.obj
 .text.log_callback_logview
                0x00000000       0x38 examples/light_switch/provisioner/CMakeFiles/light_switch_provisioner_nrf52840_xxAA_s140_6.0.0.dir/__/__/__/mesh/core/src/log.c.obj
 .text.log_set_callback
                0x00000000        0xc examples/light_switch/provisioner/CMakeFiles/light_switch_provisioner_nrf52840_xxAA_s140_6.0.0.dir/__/__/__/mesh/core/src/log.c.obj
 .rodata.log_callback_logview.str1.1
                0x00000000        0xf examples/light_switch/provisioner/CMakeFiles/light_switch_provisioner_nrf52840_xxAA_s140_6.0.0.dir/__/__/__/mesh/core/src/log.c.obj
 .text          0x00000000        0x0 examples/light_switch/provisioner/CMakeFiles/light_switch_provisioner_nrf52840_xxAA_s140_6.0.0.dir/__/__/__/mesh/core/src/flash_manager.c.obj
 .data          0x00000000        0x0 examples/light_switch/provisioner/CMakeFiles/light_switch_provisioner_nrf52840_xxAA_s140_6.0.0.dir/__/__/__/mesh/core/src/flash_manager.c.obj
 .bss           0x00000000        0x0 examples/light_switch/provisioner/CMakeFiles/light_switch_provisioner_nrf52840_xxAA_s140_6.0.0.dir/__/__/__/mesh/core/src/flash_manager.c.obj
 .text.flash_manager_entry_count_get
                0x00000000       0x50 examples/light_switch/provisioner/CMakeFiles/light_switch_provisioner_nrf52840_xxAA_s140_6.0.0.dir/__/__/__/mesh/core/src/flash_manager.c.obj
 .text.flash_manager_entry_release
                0x00000000       0x2c examples/light_switch/provisioner/CMakeFiles/light_switch_provisioner_nrf52840_xxAA_s140_6.0.0.dir/__/__/__/mesh/core/src/flash_manager.c.obj
 .text          0x00000000        0x0 examples/light_switch/provisioner/CMakeFiles/light_switch_provisioner_nrf52840_xxAA_s140_6.0.0.dir/__/__/__/mesh/core/src/ccm_soft.c.obj
 .data          0x00000000        0x0 examples/light_switch/provisioner/CMakeFiles/light_switch_provisioner_nrf52840_xxAA_s140_6.0.0.dir/__/__/__/mesh/core/src/ccm_soft.c.obj
 .bss           0x00000000        0x0 examples/light_switch/provisioner/CMakeFiles/light_switch_provisioner_nrf52840_xxAA_s140_6.0.0.dir/__/__/__/mesh/core/src/ccm_soft.c.obj
 .text          0x00000000        0x0 examples/light_switch/provisioner/CMakeFiles/light_switch_provisioner_nrf52840_xxAA_s140_6.0.0.dir/__/__/__/mesh/core/src/toolchain.c.obj
 .data          0x00000000        0x0 examples/light_switch/provisioner/CMakeFiles/light_switch_provisioner_nrf52840_xxAA_s140_6.0.0.dir/__/__/__/mesh/core/src/toolchain.c.obj
 .bss           0x00000000        0x0 examples/light_switch/provisioner/CMakeFiles/light_switch_provisioner_nrf52840_xxAA_s140_6.0.0.dir/__/__/__/mesh/core/src/toolchain.c.obj
 .debug_info    0x00000000       0xb3 examples/light_switch/provisioner/CMakeFiles/light_switch_provisioner_nrf52840_xxAA_s140_6.0.0.dir/__/__/__/mesh/core/src/toolchain.c.obj
 .debug_abbrev  0x00000000       0x5c examples/light_switch/provisioner/CMakeFiles/light_switch_provisioner_nrf52840_xxAA_s140_6.0.0.dir/__/__/__/mesh/core/src/toolchain.c.obj
 .debug_aranges
                0x00000000       0x18 examples/light_switch/provisioner/CMakeFiles/light_switch_provisioner_nrf52840_xxAA_s140_6.0.0.dir/__/__/__/mesh/core/src/toolchain.c.obj
 .debug_line    0x00000000      0x133 examples/light_switch/provisioner/CMakeFiles/light_switch_provisioner_nrf52840_xxAA_s140_6.0.0.dir/__/__/__/mesh/core/src/toolchain.c.obj
 .debug_str     0x00000000      0x1fa examples/light_switch/provisioner/CMakeFiles/light_switch_provisioner_nrf52840_xxAA_s140_6.0.0.dir/__/__/__/mesh/core/src/toolchain.c.obj
 .comment       0x00000000       0x80 examples/light_switch/provisioner/CMakeFiles/light_switch_provisioner_nrf52840_xxAA_s140_6.0.0.dir/__/__/__/mesh/core/src/toolchain.c.obj
 .ARM.attributes
                0x00000000       0x39 examples/light_switch/provisioner/CMakeFiles/light_switch_provisioner_nrf52840_xxAA_s140_6.0.0.dir/__/__/__/mesh/core/src/toolchain.c.obj
 .text          0x00000000        0x0 examples/light_switch/provisioner/CMakeFiles/light_switch_provisioner_nrf52840_xxAA_s140_6.0.0.dir/__/__/__/mesh/core/src/replay_cache.c.obj
 .data          0x00000000        0x0 examples/light_switch/provisioner/CMakeFiles/light_switch_provisioner_nrf52840_xxAA_s140_6.0.0.dir/__/__/__/mesh/core/src/replay_cache.c.obj
 .bss           0x00000000        0x0 examples/light_switch/provisioner/CMakeFiles/light_switch_provisioner_nrf52840_xxAA_s140_6.0.0.dir/__/__/__/mesh/core/src/replay_cache.c.obj
 .text.replay_cache_on_iv_update
                0x00000000       0x24 examples/light_switch/provisioner/CMakeFiles/light_switch_provisioner_nrf52840_xxAA_s140_6.0.0.dir/__/__/__/mesh/core/src/replay_cache.c.obj
 .text          0x00000000        0x0 examples/light_switch/provisioner/CMakeFiles/light_switch_provisioner_nrf52840_xxAA_s140_6.0.0.dir/__/__/__/mesh/core/src/beacon.c.obj
 .data          0x00000000        0x0 examples/light_switch/provisioner/CMakeFiles/light_switch_provisioner_nrf52840_xxAA_s140_6.0.0.dir/__/__/__/mesh/core/src/beacon.c.obj
 .bss           0x00000000        0x0 examples/light_switch/provisioner/CMakeFiles/light_switch_provisioner_nrf52840_xxAA_s140_6.0.0.dir/__/__/__/mesh/core/src/beacon.c.obj
 .text          0x00000000        0x0 examples/light_switch/provisioner/CMakeFiles/light_switch_provisioner_nrf52840_xxAA_s140_6.0.0.dir/__/__/__/mesh/core/src/flash_manager_internal.c.obj
 .data          0x00000000        0x0 examples/light_switch/provisioner/CMakeFiles/light_switch_provisioner_nrf52840_xxAA_s140_6.0.0.dir/__/__/__/mesh/core/src/flash_manager_internal.c.obj
 .bss           0x00000000        0x0 examples/light_switch/provisioner/CMakeFiles/light_switch_provisioner_nrf52840_xxAA_s140_6.0.0.dir/__/__/__/mesh/core/src/flash_manager_internal.c.obj
 .text          0x00000000        0x0 examples/light_switch/provisioner/CMakeFiles/light_switch_provisioner_nrf52840_xxAA_s140_6.0.0.dir/__/__/__/mesh/core/src/core_tx.c.obj
 .data          0x00000000        0x0 examples/light_switch/provisioner/CMakeFiles/light_switch_provisioner_nrf52840_xxAA_s140_6.0.0.dir/__/__/__/mesh/core/src/core_tx.c.obj
 .bss           0x00000000        0x0 examples/light_switch/provisioner/CMakeFiles/light_switch_provisioner_nrf52840_xxAA_s140_6.0.0.dir/__/__/__/mesh/core/src/core_tx.c.obj
 .text.core_tx_bearer_type_get
                0x00000000       0x1c examples/light_switch/provisioner/CMakeFiles/light_switch_provisioner_nrf52840_xxAA_s140_6.0.0.dir/__/__/__/mesh/core/src/core_tx.c.obj
 .text.core_tx_bearer_count_get
                0x00000000        0xc examples/light_switch/provisioner/CMakeFiles/light_switch_provisioner_nrf52840_xxAA_s140_6.0.0.dir/__/__/__/mesh/core/src/core_tx.c.obj
 .text          0x00000000        0x0 examples/light_switch/provisioner/CMakeFiles/light_switch_provisioner_nrf52840_xxAA_s140_6.0.0.dir/__/__/__/mesh/core/src/heartbeat.c.obj
 .data          0x00000000        0x0 examples/light_switch/provisioner/CMakeFiles/light_switch_provisioner_nrf52840_xxAA_s140_6.0.0.dir/__/__/__/mesh/core/src/heartbeat.c.obj
 .bss           0x00000000        0x0 examples/light_switch/provisioner/CMakeFiles/light_switch_provisioner_nrf52840_xxAA_s140_6.0.0.dir/__/__/__/mesh/core/src/heartbeat.c.obj
 .text          0x00000000        0x0 examples/light_switch/provisioner/CMakeFiles/light_switch_provisioner_nrf52840_xxAA_s140_6.0.0.dir/__/__/__/mesh/core/src/net_beacon.c.obj
 .data          0x00000000        0x0 examples/light_switch/provisioner/CMakeFiles/light_switch_provisioner_nrf52840_xxAA_s140_6.0.0.dir/__/__/__/mesh/core/src/net_beacon.c.obj
 .bss           0x00000000        0x0 examples/light_switch/provisioner/CMakeFiles/light_switch_provisioner_nrf52840_xxAA_s140_6.0.0.dir/__/__/__/mesh/core/src/net_beacon.c.obj
 .text.net_beacon_build
                0x00000000       0x24 examples/light_switch/provisioner/CMakeFiles/light_switch_provisioner_nrf52840_xxAA_s140_6.0.0.dir/__/__/__/mesh/core/src/net_beacon.c.obj
 .text          0x00000000        0x0 examples/light_switch/provisioner/CMakeFiles/light_switch_provisioner_nrf52840_xxAA_s140_6.0.0.dir/__/__/__/mesh/core/src/fsm.c.obj
 .data          0x00000000        0x0 examples/light_switch/provisioner/CMakeFiles/light_switch_provisioner_nrf52840_xxAA_s140_6.0.0.dir/__/__/__/mesh/core/src/fsm.c.obj
 .bss           0x00000000        0x0 examples/light_switch/provisioner/CMakeFiles/light_switch_provisioner_nrf52840_xxAA_s140_6.0.0.dir/__/__/__/mesh/core/src/fsm.c.obj
 .text.fsm_event_post_try
                0x00000000      0x1ec examples/light_switch/provisioner/CMakeFiles/light_switch_provisioner_nrf52840_xxAA_s140_6.0.0.dir/__/__/__/mesh/core/src/fsm.c.obj
 .text.fsm_init
                0x00000000       0xcc examples/light_switch/provisioner/CMakeFiles/light_switch_provisioner_nrf52840_xxAA_s140_6.0.0.dir/__/__/__/mesh/core/src/fsm.c.obj
 .text.fsm_event_post
                0x00000000       0xac examples/light_switch/provisioner/CMakeFiles/light_switch_provisioner_nrf52840_xxAA_s140_6.0.0.dir/__/__/__/mesh/core/src/fsm.c.obj
 .text.fsm_is_processing
                0x00000000        0xa examples/light_switch/provisioner/CMakeFiles/light_switch_provisioner_nrf52840_xxAA_s140_6.0.0.dir/__/__/__/mesh/core/src/fsm.c.obj
 .rodata.fsm_event_post.str1.1
                0x00000000        0xb examples/light_switch/provisioner/CMakeFiles/light_switch_provisioner_nrf52840_xxAA_s140_6.0.0.dir/__/__/__/mesh/core/src/fsm.c.obj
 .rodata.fsm_event_post_try.str1.1
                0x00000000       0x41 examples/light_switch/provisioner/CMakeFiles/light_switch_provisioner_nrf52840_xxAA_s140_6.0.0.dir/__/__/__/mesh/core/src/fsm.c.obj
 .rodata.fsm_init.str1.1
                0x00000000        0xa examples/light_switch/provisioner/CMakeFiles/light_switch_provisioner_nrf52840_xxAA_s140_6.0.0.dir/__/__/__/mesh/core/src/fsm.c.obj
 .debug_info    0x00000000     0x132d examples/light_switch/provisioner/CMakeFiles/light_switch_provisioner_nrf52840_xxAA_s140_6.0.0.dir/__/__/__/mesh/core/src/fsm.c.obj
 .debug_abbrev  0x00000000      0x345 examples/light_switch/provisioner/CMakeFiles/light_switch_provisioner_nrf52840_xxAA_s140_6.0.0.dir/__/__/__/mesh/core/src/fsm.c.obj
 .debug_loc     0x00000000      0x3fd examples/light_switch/provisioner/CMakeFiles/light_switch_provisioner_nrf52840_xxAA_s140_6.0.0.dir/__/__/__/mesh/core/src/fsm.c.obj
 .debug_aranges
                0x00000000       0x38 examples/light_switch/provisioner/CMakeFiles/light_switch_provisioner_nrf52840_xxAA_s140_6.0.0.dir/__/__/__/mesh/core/src/fsm.c.obj
 .debug_ranges  0x00000000       0xe0 examples/light_switch/provisioner/CMakeFiles/light_switch_provisioner_nrf52840_xxAA_s140_6.0.0.dir/__/__/__/mesh/core/src/fsm.c.obj
 .debug_line    0x00000000      0x3e8 examples/light_switch/provisioner/CMakeFiles/light_switch_provisioner_nrf52840_xxAA_s140_6.0.0.dir/__/__/__/mesh/core/src/fsm.c.obj
 .debug_str     0x00000000      0x984 examples/light_switch/provisioner/CMakeFiles/light_switch_provisioner_nrf52840_xxAA_s140_6.0.0.dir/__/__/__/mesh/core/src/fsm.c.obj
 .comment       0x00000000       0x80 examples/light_switch/provisioner/CMakeFiles/light_switch_provisioner_nrf52840_xxAA_s140_6.0.0.dir/__/__/__/mesh/core/src/fsm.c.obj
 .debug_frame   0x00000000       0x9c examples/light_switch/provisioner/CMakeFiles/light_switch_provisioner_nrf52840_xxAA_s140_6.0.0.dir/__/__/__/mesh/core/src/fsm.c.obj
 .ARM.attributes
                0x00000000       0x39 examples/light_switch/provisioner/CMakeFiles/light_switch_provisioner_nrf52840_xxAA_s140_6.0.0.dir/__/__/__/mesh/core/src/fsm.c.obj
 .text          0x00000000        0x0 examples/light_switch/provisioner/CMakeFiles/light_switch_provisioner_nrf52840_xxAA_s140_6.0.0.dir/__/__/__/mesh/core/src/core_tx_adv.c.obj
 .data          0x00000000        0x0 examples/light_switch/provisioner/CMakeFiles/light_switch_provisioner_nrf52840_xxAA_s140_6.0.0.dir/__/__/__/mesh/core/src/core_tx_adv.c.obj
 .bss           0x00000000        0x0 examples/light_switch/provisioner/CMakeFiles/light_switch_provisioner_nrf52840_xxAA_s140_6.0.0.dir/__/__/__/mesh/core/src/core_tx_adv.c.obj
 .text.core_tx_adv_address_set
                0x00000000       0x28 examples/light_switch/provisioner/CMakeFiles/light_switch_provisioner_nrf52840_xxAA_s140_6.0.0.dir/__/__/__/mesh/core/src/core_tx_adv.c.obj
 .text          0x00000000        0x0 examples/light_switch/provisioner/CMakeFiles/light_switch_provisioner_nrf52840_xxAA_s140_6.0.0.dir/__/__/__/mesh/bearer/src/ad_listener.c.obj
 .data          0x00000000        0x0 examples/light_switch/provisioner/CMakeFiles/light_switch_provisioner_nrf52840_xxAA_s140_6.0.0.dir/__/__/__/mesh/bearer/src/ad_listener.c.obj
 .bss           0x00000000        0x0 examples/light_switch/provisioner/CMakeFiles/light_switch_provisioner_nrf52840_xxAA_s140_6.0.0.dir/__/__/__/mesh/bearer/src/ad_listener.c.obj
 .text.ad_listener_unsubscribe
                0x00000000       0x6c examples/light_switch/provisioner/CMakeFiles/light_switch_provisioner_nrf52840_xxAA_s140_6.0.0.dir/__/__/__/mesh/bearer/src/ad_listener.c.obj
 .text          0x00000000        0x0 examples/light_switch/provisioner/CMakeFiles/light_switch_provisioner_nrf52840_xxAA_s140_6.0.0.dir/__/__/__/mesh/bearer/src/ad_type_filter.c.obj
 .data          0x00000000        0x0 examples/light_switch/provisioner/CMakeFiles/light_switch_provisioner_nrf52840_xxAA_s140_6.0.0.dir/__/__/__/mesh/bearer/src/ad_type_filter.c.obj
 .bss           0x00000000        0x0 examples/light_switch/provisioner/CMakeFiles/light_switch_provisioner_nrf52840_xxAA_s140_6.0.0.dir/__/__/__/mesh/bearer/src/ad_type_filter.c.obj
 .text.bearer_adtype_remove
                0x00000000       0x20 examples/light_switch/provisioner/CMakeFiles/light_switch_provisioner_nrf52840_xxAA_s140_6.0.0.dir/__/__/__/mesh/bearer/src/ad_type_filter.c.obj
 .text.bearer_adtype_clear
                0x00000000       0x10 examples/light_switch/provisioner/CMakeFiles/light_switch_provisioner_nrf52840_xxAA_s140_6.0.0.dir/__/__/__/mesh/bearer/src/ad_type_filter.c.obj
 .text.bearer_invalid_length_amount_get
                0x00000000        0xc examples/light_switch/provisioner/CMakeFiles/light_switch_provisioner_nrf52840_xxAA_s140_6.0.0.dir/__/__/__/mesh/bearer/src/ad_type_filter.c.obj
 .text.bearer_adtype_filtered_amount_get
                0x00000000        0xc examples/light_switch/provisioner/CMakeFiles/light_switch_provisioner_nrf52840_xxAA_s140_6.0.0.dir/__/__/__/mesh/bearer/src/ad_type_filter.c.obj
 .text          0x00000000        0x0 examples/light_switch/provisioner/CMakeFiles/light_switch_provisioner_nrf52840_xxAA_s140_6.0.0.dir/__/__/__/mesh/bearer/src/adv_packet_filter.c.obj
 .data          0x00000000        0x0 examples/light_switch/provisioner/CMakeFiles/light_switch_provisioner_nrf52840_xxAA_s140_6.0.0.dir/__/__/__/mesh/bearer/src/adv_packet_filter.c.obj
 .bss           0x00000000        0x0 examples/light_switch/provisioner/CMakeFiles/light_switch_provisioner_nrf52840_xxAA_s140_6.0.0.dir/__/__/__/mesh/bearer/src/adv_packet_filter.c.obj
 .text.adv_filter_handle
                0x00000000       0x3c examples/light_switch/provisioner/CMakeFiles/light_switch_provisioner_nrf52840_xxAA_s140_6.0.0.dir/__/__/__/mesh/bearer/src/adv_packet_filter.c.obj
 .text.bearer_adv_packet_filtering_set
                0x00000000       0x1c examples/light_switch/provisioner/CMakeFiles/light_switch_provisioner_nrf52840_xxAA_s140_6.0.0.dir/__/__/__/mesh/bearer/src/adv_packet_filter.c.obj
 .text.bearer_adv_packet_remove
                0x00000000       0x18 examples/light_switch/provisioner/CMakeFiles/light_switch_provisioner_nrf52840_xxAA_s140_6.0.0.dir/__/__/__/mesh/bearer/src/adv_packet_filter.c.obj
 .text.bearer_adv_packet_add
                0x00000000       0x14 examples/light_switch/provisioner/CMakeFiles/light_switch_provisioner_nrf52840_xxAA_s140_6.0.0.dir/__/__/__/mesh/bearer/src/adv_packet_filter.c.obj
 .text.bearer_adv_packet_clear
                0x00000000        0xc examples/light_switch/provisioner/CMakeFiles/light_switch_provisioner_nrf52840_xxAA_s140_6.0.0.dir/__/__/__/mesh/bearer/src/adv_packet_filter.c.obj
 .text.bearer_adv_packet_filter_mode_set
                0x00000000       0x18 examples/light_switch/provisioner/CMakeFiles/light_switch_provisioner_nrf52840_xxAA_s140_6.0.0.dir/__/__/__/mesh/bearer/src/adv_packet_filter.c.obj
 .text.bearer_adv_packet_filtered_amount_get
                0x00000000        0xc examples/light_switch/provisioner/CMakeFiles/light_switch_provisioner_nrf52840_xxAA_s140_6.0.0.dir/__/__/__/mesh/bearer/src/adv_packet_filter.c.obj
 .bss.m_adv_packet_filter
                0x00000000       0x14 examples/light_switch/provisioner/CMakeFiles/light_switch_provisioner_nrf52840_xxAA_s140_6.0.0.dir/__/__/__/mesh/bearer/src/adv_packet_filter.c.obj
 .debug_info    0x00000000      0xd97 examples/light_switch/provisioner/CMakeFiles/light_switch_provisioner_nrf52840_xxAA_s140_6.0.0.dir/__/__/__/mesh/bearer/src/adv_packet_filter.c.obj
 .debug_abbrev  0x00000000      0x2c9 examples/light_switch/provisioner/CMakeFiles/light_switch_provisioner_nrf52840_xxAA_s140_6.0.0.dir/__/__/__/mesh/bearer/src/adv_packet_filter.c.obj
 .debug_loc     0x00000000      0x1c0 examples/light_switch/provisioner/CMakeFiles/light_switch_provisioner_nrf52840_xxAA_s140_6.0.0.dir/__/__/__/mesh/bearer/src/adv_packet_filter.c.obj
 .debug_aranges
                0x00000000       0x50 examples/light_switch/provisioner/CMakeFiles/light_switch_provisioner_nrf52840_xxAA_s140_6.0.0.dir/__/__/__/mesh/bearer/src/adv_packet_filter.c.obj
 .debug_ranges  0x00000000       0x40 examples/light_switch/provisioner/CMakeFiles/light_switch_provisioner_nrf52840_xxAA_s140_6.0.0.dir/__/__/__/mesh/bearer/src/adv_packet_filter.c.obj
 .debug_line    0x00000000      0x370 examples/light_switch/provisioner/CMakeFiles/light_switch_provisioner_nrf52840_xxAA_s140_6.0.0.dir/__/__/__/mesh/bearer/src/adv_packet_filter.c.obj
 .debug_str     0x00000000      0xa28 examples/light_switch/provisioner/CMakeFiles/light_switch_provisioner_nrf52840_xxAA_s140_6.0.0.dir/__/__/__/mesh/bearer/src/adv_packet_filter.c.obj
 .comment       0x00000000       0x80 examples/light_switch/provisioner/CMakeFiles/light_switch_provisioner_nrf52840_xxAA_s140_6.0.0.dir/__/__/__/mesh/bearer/src/adv_packet_filter.c.obj
 .debug_frame   0x00000000       0x88 examples/light_switch/provisioner/CMakeFiles/light_switch_provisioner_nrf52840_xxAA_s140_6.0.0.dir/__/__/__/mesh/bearer/src/adv_packet_filter.c.obj
 .ARM.attributes
                0x00000000       0x39 examples/light_switch/provisioner/CMakeFiles/light_switch_provisioner_nrf52840_xxAA_s140_6.0.0.dir/__/__/__/mesh/bearer/src/adv_packet_filter.c.obj
 .text          0x00000000        0x0 examples/light_switch/provisioner/CMakeFiles/light_switch_provisioner_nrf52840_xxAA_s140_6.0.0.dir/__/__/__/mesh/bearer/src/advertiser.c.obj
 .data          0x00000000        0x0 examples/light_switch/provisioner/CMakeFiles/light_switch_provisioner_nrf52840_xxAA_s140_6.0.0.dir/__/__/__/mesh/bearer/src/advertiser.c.obj
 .bss           0x00000000        0x0 examples/light_switch/provisioner/CMakeFiles/light_switch_provisioner_nrf52840_xxAA_s140_6.0.0.dir/__/__/__/mesh/bearer/src/advertiser.c.obj
 .text.advertiser_disable
                0x00000000        0xa examples/light_switch/provisioner/CMakeFiles/light_switch_provisioner_nrf52840_xxAA_s140_6.0.0.dir/__/__/__/mesh/bearer/src/advertiser.c.obj
 .text.advertiser_channels_set
                0x00000000       0x60 examples/light_switch/provisioner/CMakeFiles/light_switch_provisioner_nrf52840_xxAA_s140_6.0.0.dir/__/__/__/mesh/bearer/src/advertiser.c.obj
 .text.advertiser_address_set
                0x00000000       0x3c examples/light_switch/provisioner/CMakeFiles/light_switch_provisioner_nrf52840_xxAA_s140_6.0.0.dir/__/__/__/mesh/bearer/src/advertiser.c.obj
 .text.advertiser_config_set
                0x00000000       0x36 examples/light_switch/provisioner/CMakeFiles/light_switch_provisioner_nrf52840_xxAA_s140_6.0.0.dir/__/__/__/mesh/bearer/src/advertiser.c.obj
 .text.advertiser_config_get
                0x00000000       0x20 examples/light_switch/provisioner/CMakeFiles/light_switch_provisioner_nrf52840_xxAA_s140_6.0.0.dir/__/__/__/mesh/bearer/src/advertiser.c.obj
 .text          0x00000000        0x0 examples/light_switch/provisioner/CMakeFiles/light_switch_provisioner_nrf52840_xxAA_s140_6.0.0.dir/__/__/__/mesh/bearer/src/bearer_handler.c.obj
 .data          0x00000000        0x0 examples/light_switch/provisioner/CMakeFiles/light_switch_provisioner_nrf52840_xxAA_s140_6.0.0.dir/__/__/__/mesh/bearer/src/bearer_handler.c.obj
 .bss           0x00000000        0x0 examples/light_switch/provisioner/CMakeFiles/light_switch_provisioner_nrf52840_xxAA_s140_6.0.0.dir/__/__/__/mesh/bearer/src/bearer_handler.c.obj
 .text.bearer_handler_stop
                0x00000000       0x20 examples/light_switch/provisioner/CMakeFiles/light_switch_provisioner_nrf52840_xxAA_s140_6.0.0.dir/__/__/__/mesh/bearer/src/bearer_handler.c.obj
 .text.bearer_handler_action_fire
                0x00000000       0x94 examples/light_switch/provisioner/CMakeFiles/light_switch_provisioner_nrf52840_xxAA_s140_6.0.0.dir/__/__/__/mesh/bearer/src/bearer_handler.c.obj
 .text          0x00000000        0x0 examples/light_switch/provisioner/CMakeFiles/light_switch_provisioner_nrf52840_xxAA_s140_6.0.0.dir/__/__/__/mesh/bearer/src/broadcast.c.obj
 .data          0x00000000        0x0 examples/light_switch/provisioner/CMakeFiles/light_switch_provisioner_nrf52840_xxAA_s140_6.0.0.dir/__/__/__/mesh/bearer/src/broadcast.c.obj
 .bss           0x00000000        0x0 examples/light_switch/provisioner/CMakeFiles/light_switch_provisioner_nrf52840_xxAA_s140_6.0.0.dir/__/__/__/mesh/bearer/src/broadcast.c.obj
 .text          0x00000000        0x0 examples/light_switch/provisioner/CMakeFiles/light_switch_provisioner_nrf52840_xxAA_s140_6.0.0.dir/__/__/__/mesh/bearer/src/filter_engine.c.obj
 .data          0x00000000        0x0 examples/light_switch/provisioner/CMakeFiles/light_switch_provisioner_nrf52840_xxAA_s140_6.0.0.dir/__/__/__/mesh/bearer/src/filter_engine.c.obj
 .bss           0x00000000        0x0 examples/light_switch/provisioner/CMakeFiles/light_switch_provisioner_nrf52840_xxAA_s140_6.0.0.dir/__/__/__/mesh/bearer/src/filter_engine.c.obj
 .text.fen_accepted_amount_get
                0x00000000        0xc examples/light_switch/provisioner/CMakeFiles/light_switch_provisioner_nrf52840_xxAA_s140_6.0.0.dir/__/__/__/mesh/bearer/src/filter_engine.c.obj
 .text          0x00000000        0x0 examples/light_switch/provisioner/CMakeFiles/light_switch_provisioner_nrf52840_xxAA_s140_6.0.0.dir/__/__/__/mesh/bearer/src/gap_address_filter.c.obj
 .data          0x00000000        0x0 examples/light_switch/provisioner/CMakeFiles/light_switch_provisioner_nrf52840_xxAA_s140_6.0.0.dir/__/__/__/mesh/bearer/src/gap_address_filter.c.obj
 .bss           0x00000000        0x0 examples/light_switch/provisioner/CMakeFiles/light_switch_provisioner_nrf52840_xxAA_s140_6.0.0.dir/__/__/__/mesh/bearer/src/gap_address_filter.c.obj
 .text.gap_address_filter_handle
                0x00000000       0xa6 examples/light_switch/provisioner/CMakeFiles/light_switch_provisioner_nrf52840_xxAA_s140_6.0.0.dir/__/__/__/mesh/bearer/src/gap_address_filter.c.obj
 .text.gap_addr_filter_set
                0x00000000       0x40 examples/light_switch/provisioner/CMakeFiles/light_switch_provisioner_nrf52840_xxAA_s140_6.0.0.dir/__/__/__/mesh/bearer/src/gap_address_filter.c.obj
 .text.bearer_filter_gap_addr_whitelist_set
                0x00000000        0x6 examples/light_switch/provisioner/CMakeFiles/light_switch_provisioner_nrf52840_xxAA_s140_6.0.0.dir/__/__/__/mesh/bearer/src/gap_address_filter.c.obj
 .text.bearer_filter_gap_addr_blacklist_set
                0x00000000        0x6 examples/light_switch/provisioner/CMakeFiles/light_switch_provisioner_nrf52840_xxAA_s140_6.0.0.dir/__/__/__/mesh/bearer/src/gap_address_filter.c.obj
 .text.bearer_filter_gap_addr_range_set
                0x00000000       0x38 examples/light_switch/provisioner/CMakeFiles/light_switch_provisioner_nrf52840_xxAA_s140_6.0.0.dir/__/__/__/mesh/bearer/src/gap_address_filter.c.obj
 .text.bearer_filter_gap_addr_clear
                0x00000000       0x20 examples/light_switch/provisioner/CMakeFiles/light_switch_provisioner_nrf52840_xxAA_s140_6.0.0.dir/__/__/__/mesh/bearer/src/gap_address_filter.c.obj
 .text.bearer_gap_addr_filtered_amount_get
                0x00000000        0xc examples/light_switch/provisioner/CMakeFiles/light_switch_provisioner_nrf52840_xxAA_s140_6.0.0.dir/__/__/__/mesh/bearer/src/gap_address_filter.c.obj
 .bss.m_addr_filter
                0x00000000       0x18 examples/light_switch/provisioner/CMakeFiles/light_switch_provisioner_nrf52840_xxAA_s140_6.0.0.dir/__/__/__/mesh/bearer/src/gap_address_filter.c.obj
 .debug_info    0x00000000      0xebb examples/light_switch/provisioner/CMakeFiles/light_switch_provisioner_nrf52840_xxAA_s140_6.0.0.dir/__/__/__/mesh/bearer/src/gap_address_filter.c.obj
 .debug_abbrev  0x00000000      0x2f4 examples/light_switch/provisioner/CMakeFiles/light_switch_provisioner_nrf52840_xxAA_s140_6.0.0.dir/__/__/__/mesh/bearer/src/gap_address_filter.c.obj
 .debug_loc     0x00000000      0x3e8 examples/light_switch/provisioner/CMakeFiles/light_switch_provisioner_nrf52840_xxAA_s140_6.0.0.dir/__/__/__/mesh/bearer/src/gap_address_filter.c.obj
 .debug_aranges
                0x00000000       0x50 examples/light_switch/provisioner/CMakeFiles/light_switch_provisioner_nrf52840_xxAA_s140_6.0.0.dir/__/__/__/mesh/bearer/src/gap_address_filter.c.obj
 .debug_ranges  0x00000000       0x58 examples/light_switch/provisioner/CMakeFiles/light_switch_provisioner_nrf52840_xxAA_s140_6.0.0.dir/__/__/__/mesh/bearer/src/gap_address_filter.c.obj
 .debug_line    0x00000000      0x3c8 examples/light_switch/provisioner/CMakeFiles/light_switch_provisioner_nrf52840_xxAA_s140_6.0.0.dir/__/__/__/mesh/bearer/src/gap_address_filter.c.obj
 .debug_str     0x00000000      0x982 examples/light_switch/provisioner/CMakeFiles/light_switch_provisioner_nrf52840_xxAA_s140_6.0.0.dir/__/__/__/mesh/bearer/src/gap_address_filter.c.obj
 .comment       0x00000000       0x80 examples/light_switch/provisioner/CMakeFiles/light_switch_provisioner_nrf52840_xxAA_s140_6.0.0.dir/__/__/__/mesh/bearer/src/gap_address_filter.c.obj
 .debug_frame   0x00000000       0xb4 examples/light_switch/provisioner/CMakeFiles/light_switch_provisioner_nrf52840_xxAA_s140_6.0.0.dir/__/__/__/mesh/bearer/src/gap_address_filter.c.obj
 .ARM.attributes
                0x00000000       0x39 examples/light_switch/provisioner/CMakeFiles/light_switch_provisioner_nrf52840_xxAA_s140_6.0.0.dir/__/__/__/mesh/bearer/src/gap_address_filter.c.obj
 .text          0x00000000        0x0 examples/light_switch/provisioner/CMakeFiles/light_switch_provisioner_nrf52840_xxAA_s140_6.0.0.dir/__/__/__/mesh/bearer/src/radio_config.c.obj
 .data          0x00000000        0x0 examples/light_switch/provisioner/CMakeFiles/light_switch_provisioner_nrf52840_xxAA_s140_6.0.0.dir/__/__/__/mesh/bearer/src/radio_config.c.obj
 .bss           0x00000000        0x0 examples/light_switch/provisioner/CMakeFiles/light_switch_provisioner_nrf52840_xxAA_s140_6.0.0.dir/__/__/__/mesh/bearer/src/radio_config.c.obj
 .text.radio_config_access_addr_get
                0x00000000       0x4c examples/light_switch/provisioner/CMakeFiles/light_switch_provisioner_nrf52840_xxAA_s140_6.0.0.dir/__/__/__/mesh/bearer/src/radio_config.c.obj
 .text          0x00000000        0x0 examples/light_switch/provisioner/CMakeFiles/light_switch_provisioner_nrf52840_xxAA_s140_6.0.0.dir/__/__/__/mesh/bearer/src/rssi_filter.c.obj
 .data          0x00000000        0x0 examples/light_switch/provisioner/CMakeFiles/light_switch_provisioner_nrf52840_xxAA_s140_6.0.0.dir/__/__/__/mesh/bearer/src/rssi_filter.c.obj
 .bss           0x00000000        0x0 examples/light_switch/provisioner/CMakeFiles/light_switch_provisioner_nrf52840_xxAA_s140_6.0.0.dir/__/__/__/mesh/bearer/src/rssi_filter.c.obj
 .text.rssi_filter_handle
                0x00000000       0x20 examples/light_switch/provisioner/CMakeFiles/light_switch_provisioner_nrf52840_xxAA_s140_6.0.0.dir/__/__/__/mesh/bearer/src/rssi_filter.c.obj
 .text.bearer_rssi_filtering_set
                0x00000000       0x34 examples/light_switch/provisioner/CMakeFiles/light_switch_provisioner_nrf52840_xxAA_s140_6.0.0.dir/__/__/__/mesh/bearer/src/rssi_filter.c.obj
 .text.bearer_rssi_filtered_amount_get
                0x00000000        0xc examples/light_switch/provisioner/CMakeFiles/light_switch_provisioner_nrf52840_xxAA_s140_6.0.0.dir/__/__/__/mesh/bearer/src/rssi_filter.c.obj
 .bss.m_rssi_filter
                0x00000000       0x18 examples/light_switch/provisioner/CMakeFiles/light_switch_provisioner_nrf52840_xxAA_s140_6.0.0.dir/__/__/__/mesh/bearer/src/rssi_filter.c.obj
 .debug_info    0x00000000      0xc73 examples/light_switch/provisioner/CMakeFiles/light_switch_provisioner_nrf52840_xxAA_s140_6.0.0.dir/__/__/__/mesh/bearer/src/rssi_filter.c.obj
 .debug_abbrev  0x00000000      0x28e examples/light_switch/provisioner/CMakeFiles/light_switch_provisioner_nrf52840_xxAA_s140_6.0.0.dir/__/__/__/mesh/bearer/src/rssi_filter.c.obj
 .debug_loc     0x00000000       0xb3 examples/light_switch/provisioner/CMakeFiles/light_switch_provisioner_nrf52840_xxAA_s140_6.0.0.dir/__/__/__/mesh/bearer/src/rssi_filter.c.obj
 .debug_aranges
                0x00000000       0x30 examples/light_switch/provisioner/CMakeFiles/light_switch_provisioner_nrf52840_xxAA_s140_6.0.0.dir/__/__/__/mesh/bearer/src/rssi_filter.c.obj
 .debug_ranges  0x00000000       0x20 examples/light_switch/provisioner/CMakeFiles/light_switch_provisioner_nrf52840_xxAA_s140_6.0.0.dir/__/__/__/mesh/bearer/src/rssi_filter.c.obj
 .debug_line    0x00000000      0x2e5 examples/light_switch/provisioner/CMakeFiles/light_switch_provisioner_nrf52840_xxAA_s140_6.0.0.dir/__/__/__/mesh/bearer/src/rssi_filter.c.obj
 .debug_str     0x00000000      0x83d examples/light_switch/provisioner/CMakeFiles/light_switch_provisioner_nrf52840_xxAA_s140_6.0.0.dir/__/__/__/mesh/bearer/src/rssi_filter.c.obj
 .comment       0x00000000       0x80 examples/light_switch/provisioner/CMakeFiles/light_switch_provisioner_nrf52840_xxAA_s140_6.0.0.dir/__/__/__/mesh/bearer/src/rssi_filter.c.obj
 .debug_frame   0x00000000       0x54 examples/light_switch/provisioner/CMakeFiles/light_switch_provisioner_nrf52840_xxAA_s140_6.0.0.dir/__/__/__/mesh/bearer/src/rssi_filter.c.obj
 .ARM.attributes
                0x00000000       0x39 examples/light_switch/provisioner/CMakeFiles/light_switch_provisioner_nrf52840_xxAA_s140_6.0.0.dir/__/__/__/mesh/bearer/src/rssi_filter.c.obj
 .text          0x00000000        0x0 examples/light_switch/provisioner/CMakeFiles/light_switch_provisioner_nrf52840_xxAA_s140_6.0.0.dir/__/__/__/mesh/bearer/src/scanner.c.obj
 .data          0x00000000        0x0 examples/light_switch/provisioner/CMakeFiles/light_switch_provisioner_nrf52840_xxAA_s140_6.0.0.dir/__/__/__/mesh/bearer/src/scanner.c.obj
 .bss           0x00000000        0x0 examples/light_switch/provisioner/CMakeFiles/light_switch_provisioner_nrf52840_xxAA_s140_6.0.0.dir/__/__/__/mesh/bearer/src/scanner.c.obj
 .text.scanner_rx_callback_set
                0x00000000       0x20 examples/light_switch/provisioner/CMakeFiles/light_switch_provisioner_nrf52840_xxAA_s140_6.0.0.dir/__/__/__/mesh/bearer/src/scanner.c.obj
 .text.scanner_disable
                0x00000000       0x3c examples/light_switch/provisioner/CMakeFiles/light_switch_provisioner_nrf52840_xxAA_s140_6.0.0.dir/__/__/__/mesh/bearer/src/scanner.c.obj
 .text.scanner_is_enabled
                0x00000000       0x10 examples/light_switch/provisioner/CMakeFiles/light_switch_provisioner_nrf52840_xxAA_s140_6.0.0.dir/__/__/__/mesh/bearer/src/scanner.c.obj
 .text.scanner_stats_get
                0x00000000        0x8 examples/light_switch/provisioner/CMakeFiles/light_switch_provisioner_nrf52840_xxAA_s140_6.0.0.dir/__/__/__/mesh/bearer/src/scanner.c.obj
 .text.scanner_config_radio_mode_set
                0x00000000       0x10 examples/light_switch/provisioner/CMakeFiles/light_switch_provisioner_nrf52840_xxAA_s140_6.0.0.dir/__/__/__/mesh/bearer/src/scanner.c.obj
 .text          0x00000000        0x0 examples/light_switch/provisioner/CMakeFiles/light_switch_provisioner_nrf52840_xxAA_s140_6.0.0.dir/__/__/__/models/simple_on_off/src/simple_on_off_client.c.obj
 .data          0x00000000        0x0 examples/light_switch/provisioner/CMakeFiles/light_switch_provisioner_nrf52840_xxAA_s140_6.0.0.dir/__/__/__/models/simple_on_off/src/simple_on_off_client.c.obj
 .bss           0x00000000        0x0 examples/light_switch/provisioner/CMakeFiles/light_switch_provisioner_nrf52840_xxAA_s140_6.0.0.dir/__/__/__/models/simple_on_off/src/simple_on_off_client.c.obj
 .text.handle_publish_timeout
                0x00000000        0x8 examples/light_switch/provisioner/CMakeFiles/light_switch_provisioner_nrf52840_xxAA_s140_6.0.0.dir/__/__/__/models/simple_on_off/src/simple_on_off_client.c.obj
 .text.reliable_status_cb
                0x00000000       0x3c examples/light_switch/provisioner/CMakeFiles/light_switch_provisioner_nrf52840_xxAA_s140_6.0.0.dir/__/__/__/models/simple_on_off/src/simple_on_off_client.c.obj
 .text.handle_status_cb
                0x00000000       0x50 examples/light_switch/provisioner/CMakeFiles/light_switch_provisioner_nrf52840_xxAA_s140_6.0.0.dir/__/__/__/models/simple_on_off/src/simple_on_off_client.c.obj
 .text.simple_on_off_client_init
                0x00000000       0x40 examples/light_switch/provisioner/CMakeFiles/light_switch_provisioner_nrf52840_xxAA_s140_6.0.0.dir/__/__/__/models/simple_on_off/src/simple_on_off_client.c.obj
 .text.simple_on_off_client_set
                0x00000000       0x78 examples/light_switch/provisioner/CMakeFiles/light_switch_provisioner_nrf52840_xxAA_s140_6.0.0.dir/__/__/__/models/simple_on_off/src/simple_on_off_client.c.obj
 .text.simple_on_off_client_set_unreliable
                0x00000000       0x58 examples/light_switch/provisioner/CMakeFiles/light_switch_provisioner_nrf52840_xxAA_s140_6.0.0.dir/__/__/__/models/simple_on_off/src/simple_on_off_client.c.obj
 .text.simple_on_off_client_get
                0x00000000       0x64 examples/light_switch/provisioner/CMakeFiles/light_switch_provisioner_nrf52840_xxAA_s140_6.0.0.dir/__/__/__/models/simple_on_off/src/simple_on_off_client.c.obj
 .text.simple_on_off_client_pending_msg_cancel
                0x00000000        0x6 examples/light_switch/provisioner/CMakeFiles/light_switch_provisioner_nrf52840_xxAA_s140_6.0.0.dir/__/__/__/models/simple_on_off/src/simple_on_off_client.c.obj
 .bss.m_tid     0x00000000        0x1 examples/light_switch/provisioner/CMakeFiles/light_switch_provisioner_nrf52840_xxAA_s140_6.0.0.dir/__/__/__/models/simple_on_off/src/simple_on_off_client.c.obj
 .rodata.m_opcode_handlers
                0x00000000        0x8 examples/light_switch/provisioner/CMakeFiles/light_switch_provisioner_nrf52840_xxAA_s140_6.0.0.dir/__/__/__/models/simple_on_off/src/simple_on_off_client.c.obj
 .debug_info    0x00000000     0x16d0 examples/light_switch/provisioner/CMakeFiles/light_switch_provisioner_nrf52840_xxAA_s140_6.0.0.dir/__/__/__/models/simple_on_off/src/simple_on_off_client.c.obj
 .debug_abbrev  0x00000000      0x3c6 examples/light_switch/provisioner/CMakeFiles/light_switch_provisioner_nrf52840_xxAA_s140_6.0.0.dir/__/__/__/models/simple_on_off/src/simple_on_off_client.c.obj
 .debug_loc     0x00000000      0x5a7 examples/light_switch/provisioner/CMakeFiles/light_switch_provisioner_nrf52840_xxAA_s140_6.0.0.dir/__/__/__/models/simple_on_off/src/simple_on_off_client.c.obj
 .debug_aranges
                0x00000000       0x58 examples/light_switch/provisioner/CMakeFiles/light_switch_provisioner_nrf52840_xxAA_s140_6.0.0.dir/__/__/__/models/simple_on_off/src/simple_on_off_client.c.obj
 .debug_ranges  0x00000000       0x90 examples/light_switch/provisioner/CMakeFiles/light_switch_provisioner_nrf52840_xxAA_s140_6.0.0.dir/__/__/__/models/simple_on_off/src/simple_on_off_client.c.obj
 .debug_line    0x00000000      0x487 examples/light_switch/provisioner/CMakeFiles/light_switch_provisioner_nrf52840_xxAA_s140_6.0.0.dir/__/__/__/models/simple_on_off/src/simple_on_off_client.c.obj
 .debug_str     0x00000000     0x10ea examples/light_switch/provisioner/CMakeFiles/light_switch_provisioner_nrf52840_xxAA_s140_6.0.0.dir/__/__/__/models/simple_on_off/src/simple_on_off_client.c.obj
 .comment       0x00000000       0x80 examples/light_switch/provisioner/CMakeFiles/light_switch_provisioner_nrf52840_xxAA_s140_6.0.0.dir/__/__/__/models/simple_on_off/src/simple_on_off_client.c.obj
 .debug_frame   0x00000000      0x100 examples/light_switch/provisioner/CMakeFiles/light_switch_provisioner_nrf52840_xxAA_s140_6.0.0.dir/__/__/__/models/simple_on_off/src/simple_on_off_client.c.obj
 .ARM.attributes
                0x00000000       0x39 examples/light_switch/provisioner/CMakeFiles/light_switch_provisioner_nrf52840_xxAA_s140_6.0.0.dir/__/__/__/models/simple_on_off/src/simple_on_off_client.c.obj
 .text          0x00000000        0x0 examples/light_switch/provisioner/CMakeFiles/light_switch_provisioner_nrf52840_xxAA_s140_6.0.0.dir/__/__/__/models/config/src/config_client.c.obj
 .data          0x00000000        0x0 examples/light_switch/provisioner/CMakeFiles/light_switch_provisioner_nrf52840_xxAA_s140_6.0.0.dir/__/__/__/models/config/src/config_client.c.obj
 .bss           0x00000000        0x0 examples/light_switch/provisioner/CMakeFiles/light_switch_provisioner_nrf52840_xxAA_s140_6.0.0.dir/__/__/__/models/config/src/config_client.c.obj
 .text.config_client_appkey_delete
                0x00000000       0x60 examples/light_switch/provisioner/CMakeFiles/light_switch_provisioner_nrf52840_xxAA_s140_6.0.0.dir/__/__/__/models/config/src/config_client.c.obj
 .text.config_client_appkey_get
                0x00000000       0x50 examples/light_switch/provisioner/CMakeFiles/light_switch_provisioner_nrf52840_xxAA_s140_6.0.0.dir/__/__/__/models/config/src/config_client.c.obj
 .text.config_client_appkey_update
                0x00000000       0x68 examples/light_switch/provisioner/CMakeFiles/light_switch_provisioner_nrf52840_xxAA_s140_6.0.0.dir/__/__/__/models/config/src/config_client.c.obj
 .text.config_client_model_publication_get
                0x00000000       0x74 examples/light_switch/provisioner/CMakeFiles/light_switch_provisioner_nrf52840_xxAA_s140_6.0.0.dir/__/__/__/models/config/src/config_client.c.obj
 .text.config_client_net_beacon_get
                0x00000000       0x28 examples/light_switch/provisioner/CMakeFiles/light_switch_provisioner_nrf52840_xxAA_s140_6.0.0.dir/__/__/__/models/config/src/config_client.c.obj
 .text.config_client_net_beacon_set
                0x00000000       0x4c examples/light_switch/provisioner/CMakeFiles/light_switch_provisioner_nrf52840_xxAA_s140_6.0.0.dir/__/__/__/models/config/src/config_client.c.obj
 .text.config_client_default_ttl_get
                0x00000000        0xe examples/light_switch/provisioner/CMakeFiles/light_switch_provisioner_nrf52840_xxAA_s140_6.0.0.dir/__/__/__/models/config/src/config_client.c.obj
 .text.config_client_default_ttl_set
                0x00000000       0x54 examples/light_switch/provisioner/CMakeFiles/light_switch_provisioner_nrf52840_xxAA_s140_6.0.0.dir/__/__/__/models/config/src/config_client.c.obj
 .text.config_client_model_subscription_delete
                0x00000000       0x4c examples/light_switch/provisioner/CMakeFiles/light_switch_provisioner_nrf52840_xxAA_s140_6.0.0.dir/__/__/__/models/config/src/config_client.c.obj
 .text.config_client_model_subscription_delete_all
                0x00000000       0x74 examples/light_switch/provisioner/CMakeFiles/light_switch_provisioner_nrf52840_xxAA_s140_6.0.0.dir/__/__/__/models/config/src/config_client.c.obj
 .text.config_client_model_subscription_get
                0x00000000       0x7c examples/light_switch/provisioner/CMakeFiles/light_switch_provisioner_nrf52840_xxAA_s140_6.0.0.dir/__/__/__/models/config/src/config_client.c.obj
 .text.config_client_model_subscription_overwrite
                0x00000000       0x4c examples/light_switch/provisioner/CMakeFiles/light_switch_provisioner_nrf52840_xxAA_s140_6.0.0.dir/__/__/__/models/config/src/config_client.c.obj
 .text.config_client_relay_get
                0x00000000        0xe examples/light_switch/provisioner/CMakeFiles/light_switch_provisioner_nrf52840_xxAA_s140_6.0.0.dir/__/__/__/models/config/src/config_client.c.obj
 .text.config_client_relay_set
                0x00000000       0x68 examples/light_switch/provisioner/CMakeFiles/light_switch_provisioner_nrf52840_xxAA_s140_6.0.0.dir/__/__/__/models/config/src/config_client.c.obj
 .text.config_client_model_app_get
                0x00000000       0x7c examples/light_switch/provisioner/CMakeFiles/light_switch_provisioner_nrf52840_xxAA_s140_6.0.0.dir/__/__/__/models/config/src/config_client.c.obj
 .text.config_client_model_app_unbind
                0x00000000        0xe examples/light_switch/provisioner/CMakeFiles/light_switch_provisioner_nrf52840_xxAA_s140_6.0.0.dir/__/__/__/models/config/src/config_client.c.obj
 .text.config_client_netkey_add
                0x00000000       0x5c examples/light_switch/provisioner/CMakeFiles/light_switch_provisioner_nrf52840_xxAA_s140_6.0.0.dir/__/__/__/models/config/src/config_client.c.obj
 .text.config_client_netkey_delete
                0x00000000       0x50 examples/light_switch/provisioner/CMakeFiles/light_switch_provisioner_nrf52840_xxAA_s140_6.0.0.dir/__/__/__/models/config/src/config_client.c.obj
 .text.config_client_netkey_get
                0x00000000       0x28 examples/light_switch/provisioner/CMakeFiles/light_switch_provisioner_nrf52840_xxAA_s140_6.0.0.dir/__/__/__/models/config/src/config_client.c.obj
 .text.config_client_netkey_update
                0x00000000       0x5c examples/light_switch/provisioner/CMakeFiles/light_switch_provisioner_nrf52840_xxAA_s140_6.0.0.dir/__/__/__/models/config/src/config_client.c.obj
 .text.config_client_node_reset
                0x00000000       0x28 examples/light_switch/provisioner/CMakeFiles/light_switch_provisioner_nrf52840_xxAA_s140_6.0.0.dir/__/__/__/models/config/src/config_client.c.obj
 .text.config_client_key_refresh_phase_get
                0x00000000       0x50 examples/light_switch/provisioner/CMakeFiles/light_switch_provisioner_nrf52840_xxAA_s140_6.0.0.dir/__/__/__/models/config/src/config_client.c.obj
 .text.config_client_key_refresh_phase_set
                0x00000000       0x54 examples/light_switch/provisioner/CMakeFiles/light_switch_provisioner_nrf52840_xxAA_s140_6.0.0.dir/__/__/__/models/config/src/config_client.c.obj
 .text.config_client_friend_get
                0x00000000        0x4 examples/light_switch/provisioner/CMakeFiles/light_switch_provisioner_nrf52840_xxAA_s140_6.0.0.dir/__/__/__/models/config/src/config_client.c.obj
 .text.config_client_friend_set
                0x00000000        0x4 examples/light_switch/provisioner/CMakeFiles/light_switch_provisioner_nrf52840_xxAA_s140_6.0.0.dir/__/__/__/models/config/src/config_client.c.obj
 .text.config_client_gatt_proxy_get
                0x00000000        0x4 examples/light_switch/provisioner/CMakeFiles/light_switch_provisioner_nrf52840_xxAA_s140_6.0.0.dir/__/__/__/models/config/src/config_client.c.obj
 .text.config_client_gatt_proxy_set
                0x00000000        0x4 examples/light_switch/provisioner/CMakeFiles/light_switch_provisioner_nrf52840_xxAA_s140_6.0.0.dir/__/__/__/models/config/src/config_client.c.obj
 .text.config_client_node_identity_get
                0x00000000        0x4 examples/light_switch/provisioner/CMakeFiles/light_switch_provisioner_nrf52840_xxAA_s140_6.0.0.dir/__/__/__/models/config/src/config_client.c.obj
 .text.config_client_node_identity_set
                0x00000000        0x4 examples/light_switch/provisioner/CMakeFiles/light_switch_provisioner_nrf52840_xxAA_s140_6.0.0.dir/__/__/__/models/config/src/config_client.c.obj
 .text.config_client_heartbeat_publication_get
                0x00000000       0x26 examples/light_switch/provisioner/CMakeFiles/light_switch_provisioner_nrf52840_xxAA_s140_6.0.0.dir/__/__/__/models/config/src/config_client.c.obj
 .text.config_client_heartbeat_publication_set
                0x00000000       0x54 examples/light_switch/provisioner/CMakeFiles/light_switch_provisioner_nrf52840_xxAA_s140_6.0.0.dir/__/__/__/models/config/src/config_client.c.obj
 .text.config_client_heartbeat_subscription_get
                0x00000000       0x28 examples/light_switch/provisioner/CMakeFiles/light_switch_provisioner_nrf52840_xxAA_s140_6.0.0.dir/__/__/__/models/config/src/config_client.c.obj
 .text.config_client_heartbeat_subscription_set
                0x00000000       0x50 examples/light_switch/provisioner/CMakeFiles/light_switch_provisioner_nrf52840_xxAA_s140_6.0.0.dir/__/__/__/models/config/src/config_client.c.obj
 .text          0x00000000        0x0 examples/light_switch/provisioner/CMakeFiles/light_switch_provisioner_nrf52840_xxAA_s140_6.0.0.dir/__/__/__/models/config/src/composition_data.c.obj
 .data          0x00000000        0x0 examples/light_switch/provisioner/CMakeFiles/light_switch_provisioner_nrf52840_xxAA_s140_6.0.0.dir/__/__/__/models/config/src/composition_data.c.obj
 .bss           0x00000000        0x0 examples/light_switch/provisioner/CMakeFiles/light_switch_provisioner_nrf52840_xxAA_s140_6.0.0.dir/__/__/__/models/config/src/composition_data.c.obj
 .text          0x00000000        0x0 examples/light_switch/provisioner/CMakeFiles/light_switch_provisioner_nrf52840_xxAA_s140_6.0.0.dir/__/__/__/models/config/src/config_server.c.obj
 .data          0x00000000        0x0 examples/light_switch/provisioner/CMakeFiles/light_switch_provisioner_nrf52840_xxAA_s140_6.0.0.dir/__/__/__/models/config/src/config_server.c.obj
 .bss           0x00000000        0x0 examples/light_switch/provisioner/CMakeFiles/light_switch_provisioner_nrf52840_xxAA_s140_6.0.0.dir/__/__/__/models/config/src/config_server.c.obj
 .text          0x00000000        0x0 examples/light_switch/provisioner/CMakeFiles/light_switch_provisioner_nrf52840_xxAA_s140_6.0.0.dir/__/__/__/models/config/src/packed_index_list.c.obj
 .data          0x00000000        0x0 examples/light_switch/provisioner/CMakeFiles/light_switch_provisioner_nrf52840_xxAA_s140_6.0.0.dir/__/__/__/models/config/src/packed_index_list.c.obj
 .bss           0x00000000        0x0 examples/light_switch/provisioner/CMakeFiles/light_switch_provisioner_nrf52840_xxAA_s140_6.0.0.dir/__/__/__/models/config/src/packed_index_list.c.obj
 .text          0x00000000        0x0 examples/light_switch/provisioner/CMakeFiles/light_switch_provisioner_nrf52840_xxAA_s140_6.0.0.dir/__/__/__/models/health/src/health_server.c.obj
 .data          0x00000000        0x0 examples/light_switch/provisioner/CMakeFiles/light_switch_provisioner_nrf52840_xxAA_s140_6.0.0.dir/__/__/__/models/health/src/health_server.c.obj
 .bss           0x00000000        0x0 examples/light_switch/provisioner/CMakeFiles/light_switch_provisioner_nrf52840_xxAA_s140_6.0.0.dir/__/__/__/models/health/src/health_server.c.obj
 .text.health_server_fault_is_set
                0x00000000       0x1c examples/light_switch/provisioner/CMakeFiles/light_switch_provisioner_nrf52840_xxAA_s140_6.0.0.dir/__/__/__/models/health/src/health_server.c.obj
 .text.health_server_fault_count_get
                0x00000000        0xc examples/light_switch/provisioner/CMakeFiles/light_switch_provisioner_nrf52840_xxAA_s140_6.0.0.dir/__/__/__/models/health/src/health_server.c.obj
 .text.health_server_fault_register
                0x00000000       0xca examples/light_switch/provisioner/CMakeFiles/light_switch_provisioner_nrf52840_xxAA_s140_6.0.0.dir/__/__/__/models/health/src/health_server.c.obj
 .text.health_server_fault_clear
                0x00000000       0x48 examples/light_switch/provisioner/CMakeFiles/light_switch_provisioner_nrf52840_xxAA_s140_6.0.0.dir/__/__/__/models/health/src/health_server.c.obj
 .text.health_server_attention_get
                0x00000000        0x6 examples/light_switch/provisioner/CMakeFiles/light_switch_provisioner_nrf52840_xxAA_s140_6.0.0.dir/__/__/__/models/health/src/health_server.c.obj
 .text.health_server_attention_set
                0x00000000        0x4 examples/light_switch/provisioner/CMakeFiles/light_switch_provisioner_nrf52840_xxAA_s140_6.0.0.dir/__/__/__/models/health/src/health_server.c.obj
 .text          0x00000000        0x0 examples/light_switch/provisioner/CMakeFiles/light_switch_provisioner_nrf52840_xxAA_s140_6.0.0.dir/__/__/__/models/health/src/health_client.c.obj
 .data          0x00000000        0x0 examples/light_switch/provisioner/CMakeFiles/light_switch_provisioner_nrf52840_xxAA_s140_6.0.0.dir/__/__/__/models/health/src/health_client.c.obj
 .bss           0x00000000        0x0 examples/light_switch/provisioner/CMakeFiles/light_switch_provisioner_nrf52840_xxAA_s140_6.0.0.dir/__/__/__/models/health/src/health_client.c.obj
 .text.reliable_send
                0x00000000       0xb4 examples/light_switch/provisioner/CMakeFiles/light_switch_provisioner_nrf52840_xxAA_s140_6.0.0.dir/__/__/__/models/health/src/health_client.c.obj
 .text.reliable_status_cb
                0x00000000       0x42 examples/light_switch/provisioner/CMakeFiles/light_switch_provisioner_nrf52840_xxAA_s140_6.0.0.dir/__/__/__/models/health/src/health_client.c.obj
 .text.health_client_fault_get
                0x00000000       0x1c examples/light_switch/provisioner/CMakeFiles/light_switch_provisioner_nrf52840_xxAA_s140_6.0.0.dir/__/__/__/models/health/src/health_client.c.obj
 .text.health_client_fault_clear
                0x00000000       0x54 examples/light_switch/provisioner/CMakeFiles/light_switch_provisioner_nrf52840_xxAA_s140_6.0.0.dir/__/__/__/models/health/src/health_client.c.obj
 .text.health_client_fault_test
                0x00000000       0x5a examples/light_switch/provisioner/CMakeFiles/light_switch_provisioner_nrf52840_xxAA_s140_6.0.0.dir/__/__/__/models/health/src/health_client.c.obj
 .text.health_client_period_get
                0x00000000       0x18 examples/light_switch/provisioner/CMakeFiles/light_switch_provisioner_nrf52840_xxAA_s140_6.0.0.dir/__/__/__/models/health/src/health_client.c.obj
 .text.health_client_period_set
                0x00000000       0x58 examples/light_switch/provisioner/CMakeFiles/light_switch_provisioner_nrf52840_xxAA_s140_6.0.0.dir/__/__/__/models/health/src/health_client.c.obj
 .text.health_client_attention_get
                0x00000000       0x18 examples/light_switch/provisioner/CMakeFiles/light_switch_provisioner_nrf52840_xxAA_s140_6.0.0.dir/__/__/__/models/health/src/health_client.c.obj
 .text.health_client_attention_set
                0x00000000       0x58 examples/light_switch/provisioner/CMakeFiles/light_switch_provisioner_nrf52840_xxAA_s140_6.0.0.dir/__/__/__/models/health/src/health_client.c.obj
 .text.health_client_pending_msg_cancel
                0x00000000        0x6 examples/light_switch/provisioner/CMakeFiles/light_switch_provisioner_nrf52840_xxAA_s140_6.0.0.dir/__/__/__/models/health/src/health_client.c.obj
 .text          0x00000000        0x0 examples/light_switch/provisioner/CMakeFiles/light_switch_provisioner_nrf52840_xxAA_s140_6.0.0.dir/__/__/__/mesh/access/src/access_publish.c.obj
 .data          0x00000000        0x0 examples/light_switch/provisioner/CMakeFiles/light_switch_provisioner_nrf52840_xxAA_s140_6.0.0.dir/__/__/__/mesh/access/src/access_publish.c.obj
 .bss           0x00000000        0x0 examples/light_switch/provisioner/CMakeFiles/light_switch_provisioner_nrf52840_xxAA_s140_6.0.0.dir/__/__/__/mesh/access/src/access_publish.c.obj
 .text          0x00000000        0x0 examples/light_switch/provisioner/CMakeFiles/light_switch_provisioner_nrf52840_xxAA_s140_6.0.0.dir/__/__/__/mesh/access/src/access.c.obj
 .data          0x00000000        0x0 examples/light_switch/provisioner/CMakeFiles/light_switch_provisioner_nrf52840_xxAA_s140_6.0.0.dir/__/__/__/mesh/access/src/access.c.obj
 .bss           0x00000000        0x0 examples/light_switch/provisioner/CMakeFiles/light_switch_provisioner_nrf52840_xxAA_s140_6.0.0.dir/__/__/__/mesh/access/src/access.c.obj
 .text.access_model_subscription_lists_share
                0x00000000       0x4c examples/light_switch/provisioner/CMakeFiles/light_switch_provisioner_nrf52840_xxAA_s140_6.0.0.dir/__/__/__/mesh/access/src/access.c.obj
 .text.access_element_location_set
                0x00000000       0x20 examples/light_switch/provisioner/CMakeFiles/light_switch_provisioner_nrf52840_xxAA_s140_6.0.0.dir/__/__/__/mesh/access/src/access.c.obj
 .text          0x00000000        0x0 examples/light_switch/provisioner/CMakeFiles/light_switch_provisioner_nrf52840_xxAA_s140_6.0.0.dir/__/__/__/mesh/access/src/access_reliable.c.obj
 .data          0x00000000        0x0 examples/light_switch/provisioner/CMakeFiles/light_switch_provisioner_nrf52840_xxAA_s140_6.0.0.dir/__/__/__/mesh/access/src/access_reliable.c.obj
 .bss           0x00000000        0x0 examples/light_switch/provisioner/CMakeFiles/light_switch_provisioner_nrf52840_xxAA_s140_6.0.0.dir/__/__/__/mesh/access/src/access_reliable.c.obj
 .text          0x00000000        0x0 examples/light_switch/provisioner/CMakeFiles/light_switch_provisioner_nrf52840_xxAA_s140_6.0.0.dir/__/__/__/mesh/access/src/device_state_manager.c.obj
 .data          0x00000000        0x0 examples/light_switch/provisioner/CMakeFiles/light_switch_provisioner_nrf52840_xxAA_s140_6.0.0.dir/__/__/__/mesh/access/src/device_state_manager.c.obj
 .bss           0x00000000        0x0 examples/light_switch/provisioner/CMakeFiles/light_switch_provisioner_nrf52840_xxAA_s140_6.0.0.dir/__/__/__/mesh/access/src/device_state_manager.c.obj
 .text.dsm_has_unflashed_data
                0x00000000       0x24 examples/light_switch/provisioner/CMakeFiles/light_switch_provisioner_nrf52840_xxAA_s140_6.0.0.dir/__/__/__/mesh/access/src/device_state_manager.c.obj
 .text.dsm_address_subscription_count_get
                0x00000000       0x58 examples/light_switch/provisioner/CMakeFiles/light_switch_provisioner_nrf52840_xxAA_s140_6.0.0.dir/__/__/__/mesh/access/src/device_state_manager.c.obj
 .text.dsm_address_get_all
                0x00000000       0x64 examples/light_switch/provisioner/CMakeFiles/light_switch_provisioner_nrf52840_xxAA_s140_6.0.0.dir/__/__/__/mesh/access/src/device_state_manager.c.obj
 .text.dsm_subnet_handle_to_netkey_index
                0x00000000       0x30 examples/light_switch/provisioner/CMakeFiles/light_switch_provisioner_nrf52840_xxAA_s140_6.0.0.dir/__/__/__/mesh/access/src/device_state_manager.c.obj
 .text.dsm_devkey_delete
                0x00000000       0x40 examples/light_switch/provisioner/CMakeFiles/light_switch_provisioner_nrf52840_xxAA_s140_6.0.0.dir/__/__/__/mesh/access/src/device_state_manager.c.obj
 .text.dsm_beacon_info_get
                0x00000000       0x2c examples/light_switch/provisioner/CMakeFiles/light_switch_provisioner_nrf52840_xxAA_s140_6.0.0.dir/__/__/__/mesh/access/src/device_state_manager.c.obj
 .text          0x00000000        0x0 examples/light_switch/provisioner/CMakeFiles/light_switch_provisioner_nrf52840_xxAA_s140_6.0.0.dir/__/__/__/mesh/prov/src/prov_provisioner.c.obj
 .data          0x00000000        0x0 examples/light_switch/provisioner/CMakeFiles/light_switch_provisioner_nrf52840_xxAA_s140_6.0.0.dir/__/__/__/mesh/prov/src/prov_provisioner.c.obj
 .bss           0x00000000        0x0 examples/light_switch/provisioner/CMakeFiles/light_switch_provisioner_nrf52840_xxAA_s140_6.0.0.dir/__/__/__/mesh/prov/src/prov_provisioner.c.obj
 .text.prov_provisioner_shared_secret
                0x00000000       0x28 examples/light_switch/provisioner/CMakeFiles/light_switch_provisioner_nrf52840_xxAA_s140_6.0.0.dir/__/__/__/mesh/prov/src/prov_provisioner.c.obj
 .text.prov_provisioner_oob_pubkey
                0x00000000       0x30 examples/light_switch/provisioner/CMakeFiles/light_switch_provisioner_nrf52840_xxAA_s140_6.0.0.dir/__/__/__/mesh/prov/src/prov_provisioner.c.obj
 .text          0x00000000        0x0 examples/light_switch/provisioner/CMakeFiles/light_switch_provisioner_nrf52840_xxAA_s140_6.0.0.dir/__/__/__/mesh/prov/src/nrf_mesh_prov.c.obj
 .data          0x00000000        0x0 examples/light_switch/provisioner/CMakeFiles/light_switch_provisioner_nrf52840_xxAA_s140_6.0.0.dir/__/__/__/mesh/prov/src/nrf_mesh_prov.c.obj
 .bss           0x00000000        0x0 examples/light_switch/provisioner/CMakeFiles/light_switch_provisioner_nrf52840_xxAA_s140_6.0.0.dir/__/__/__/mesh/prov/src/nrf_mesh_prov.c.obj
 .text.bitfield_next_get.part.0.constprop.4
                0x00000000       0x34 examples/light_switch/provisioner/CMakeFiles/light_switch_provisioner_nrf52840_xxAA_s140_6.0.0.dir/__/__/__/mesh/prov/src/nrf_mesh_prov.c.obj
 .text.nrf_mesh_prov_listen_stop
                0x00000000       0x2e examples/light_switch/provisioner/CMakeFiles/light_switch_provisioner_nrf52840_xxAA_s140_6.0.0.dir/__/__/__/mesh/prov/src/nrf_mesh_prov.c.obj
 .text.nrf_mesh_prov_listen
                0x00000000       0x88 examples/light_switch/provisioner/CMakeFiles/light_switch_provisioner_nrf52840_xxAA_s140_6.0.0.dir/__/__/__/mesh/prov/src/nrf_mesh_prov.c.obj
 .text.nrf_mesh_prov_shared_secret_provide
                0x00000000        0xe examples/light_switch/provisioner/CMakeFiles/light_switch_provisioner_nrf52840_xxAA_s140_6.0.0.dir/__/__/__/mesh/prov/src/nrf_mesh_prov.c.obj
 .text.nrf_mesh_prov_pubkey_provide
                0x00000000       0x10 examples/light_switch/provisioner/CMakeFiles/light_switch_provisioner_nrf52840_xxAA_s140_6.0.0.dir/__/__/__/mesh/prov/src/nrf_mesh_prov.c.obj
 .text.nrf_mesh_prov_scan_stop
                0x00000000        0x4 examples/light_switch/provisioner/CMakeFiles/light_switch_provisioner_nrf52840_xxAA_s140_6.0.0.dir/__/__/__/mesh/prov/src/nrf_mesh_prov.c.obj
 .rodata.multiply_de_bruijn_bit_position.9606
                0x00000000       0x20 examples/light_switch/provisioner/CMakeFiles/light_switch_provisioner_nrf52840_xxAA_s140_6.0.0.dir/__/__/__/mesh/prov/src/nrf_mesh_prov.c.obj
 .text          0x00000000        0x0 examples/light_switch/provisioner/CMakeFiles/light_switch_provisioner_nrf52840_xxAA_s140_6.0.0.dir/__/__/__/mesh/prov/src/provisioning.c.obj
 .data          0x00000000        0x0 examples/light_switch/provisioner/CMakeFiles/light_switch_provisioner_nrf52840_xxAA_s140_6.0.0.dir/__/__/__/mesh/prov/src/provisioning.c.obj
 .bss           0x00000000        0x0 examples/light_switch/provisioner/CMakeFiles/light_switch_provisioner_nrf52840_xxAA_s140_6.0.0.dir/__/__/__/mesh/prov/src/provisioning.c.obj
 .text.prov_tx_capabilities
                0x00000000       0x1e examples/light_switch/provisioner/CMakeFiles/light_switch_provisioner_nrf52840_xxAA_s140_6.0.0.dir/__/__/__/mesh/prov/src/provisioning.c.obj
 .text.prov_tx_input_complete
                0x00000000       0x16 examples/light_switch/provisioner/CMakeFiles/light_switch_provisioner_nrf52840_xxAA_s140_6.0.0.dir/__/__/__/mesh/prov/src/provisioning.c.obj
 .text.prov_tx_complete
                0x00000000       0x16 examples/light_switch/provisioner/CMakeFiles/light_switch_provisioner_nrf52840_xxAA_s140_6.0.0.dir/__/__/__/mesh/prov/src/provisioning.c.obj
 .text.prov_tx_failed
                0x00000000       0x1a examples/light_switch/provisioner/CMakeFiles/light_switch_provisioner_nrf52840_xxAA_s140_6.0.0.dir/__/__/__/mesh/prov/src/provisioning.c.obj
 .text.prov_tx  0x00000000        0x4 examples/light_switch/provisioner/CMakeFiles/light_switch_provisioner_nrf52840_xxAA_s140_6.0.0.dir/__/__/__/mesh/prov/src/provisioning.c.obj
 .text          0x00000000        0x0 examples/light_switch/provisioner/CMakeFiles/light_switch_provisioner_nrf52840_xxAA_s140_6.0.0.dir/__/__/__/mesh/prov/src/prov_beacon.c.obj
 .data          0x00000000        0x0 examples/light_switch/provisioner/CMakeFiles/light_switch_provisioner_nrf52840_xxAA_s140_6.0.0.dir/__/__/__/mesh/prov/src/prov_beacon.c.obj
 .bss           0x00000000        0x0 examples/light_switch/provisioner/CMakeFiles/light_switch_provisioner_nrf52840_xxAA_s140_6.0.0.dir/__/__/__/mesh/prov/src/prov_beacon.c.obj
 .text.prov_beacon_scan_stop
                0x00000000        0xc examples/light_switch/provisioner/CMakeFiles/light_switch_provisioner_nrf52840_xxAA_s140_6.0.0.dir/__/__/__/mesh/prov/src/prov_beacon.c.obj
 .text          0x00000000        0x0 examples/light_switch/provisioner/CMakeFiles/light_switch_provisioner_nrf52840_xxAA_s140_6.0.0.dir/__/__/__/mesh/prov/src/prov_utils.c.obj
 .data          0x00000000        0x0 examples/light_switch/provisioner/CMakeFiles/light_switch_provisioner_nrf52840_xxAA_s140_6.0.0.dir/__/__/__/mesh/prov/src/prov_utils.c.obj
 .bss           0x00000000        0x0 examples/light_switch/provisioner/CMakeFiles/light_switch_provisioner_nrf52840_xxAA_s140_6.0.0.dir/__/__/__/mesh/prov/src/prov_utils.c.obj
 .text          0x00000000        0x0 examples/light_switch/provisioner/CMakeFiles/light_switch_provisioner_nrf52840_xxAA_s140_6.0.0.dir/__/__/__/mesh/prov/src/prov_bearer_adv.c.obj
 .data          0x00000000        0x0 examples/light_switch/provisioner/CMakeFiles/light_switch_provisioner_nrf52840_xxAA_s140_6.0.0.dir/__/__/__/mesh/prov/src/prov_bearer_adv.c.obj
 .bss           0x00000000        0x0 examples/light_switch/provisioner/CMakeFiles/light_switch_provisioner_nrf52840_xxAA_s140_6.0.0.dir/__/__/__/mesh/prov/src/prov_bearer_adv.c.obj
 .text          0x00000000        0x0 examples/light_switch/provisioner/CMakeFiles/light_switch_provisioner_nrf52840_xxAA_s140_6.0.0.dir/C_/ver/mod/nRF5_SDK_15.0.0_a53641a/modules/nrfx/mdk/system_nrf52840.c.obj
 .data          0x00000000        0x0 examples/light_switch/provisioner/CMakeFiles/light_switch_provisioner_nrf52840_xxAA_s140_6.0.0.dir/C_/ver/mod/nRF5_SDK_15.0.0_a53641a/modules/nrfx/mdk/system_nrf52840.c.obj
 .bss           0x00000000        0x0 examples/light_switch/provisioner/CMakeFiles/light_switch_provisioner_nrf52840_xxAA_s140_6.0.0.dir/C_/ver/mod/nRF5_SDK_15.0.0_a53641a/modules/nrfx/mdk/system_nrf52840.c.obj
 .text.SystemCoreClockUpdate
                0x00000000       0x10 examples/light_switch/provisioner/CMakeFiles/light_switch_provisioner_nrf52840_xxAA_s140_6.0.0.dir/C_/ver/mod/nRF5_SDK_15.0.0_a53641a/modules/nrfx/mdk/system_nrf52840.c.obj
 .data          0x00000000        0x0 examples/light_switch/provisioner/CMakeFiles/light_switch_provisioner_nrf52840_xxAA_s140_6.0.0.dir/C_/ver/mod/nRF5_SDK_15.0.0_a53641a/modules/nrfx/mdk/gcc_startup_nrf52840.S.obj
 .bss           0x00000000        0x0 examples/light_switch/provisioner/CMakeFiles/light_switch_provisioner_nrf52840_xxAA_s140_6.0.0.dir/C_/ver/mod/nRF5_SDK_15.0.0_a53641a/modules/nrfx/mdk/gcc_startup_nrf52840.S.obj
 .text          0x00000000        0x0 examples/light_switch/provisioner/CMakeFiles/light_switch_provisioner_nrf52840_xxAA_s140_6.0.0.dir/C_/ver/mod/nRF5_SDK_15.0.0_a53641a/components/libraries/util/app_error.c.obj
 .data          0x00000000        0x0 examples/light_switch/provisioner/CMakeFiles/light_switch_provisioner_nrf52840_xxAA_s140_6.0.0.dir/C_/ver/mod/nRF5_SDK_15.0.0_a53641a/components/libraries/util/app_error.c.obj
 .bss           0x00000000        0x0 examples/light_switch/provisioner/CMakeFiles/light_switch_provisioner_nrf52840_xxAA_s140_6.0.0.dir/C_/ver/mod/nRF5_SDK_15.0.0_a53641a/components/libraries/util/app_error.c.obj
 .text.app_error_handler_bare
                0x00000000       0x1a examples/light_switch/provisioner/CMakeFiles/light_switch_provisioner_nrf52840_xxAA_s140_6.0.0.dir/C_/ver/mod/nRF5_SDK_15.0.0_a53641a/components/libraries/util/app_error.c.obj
 .text.app_error_save_and_stop
                0x00000000       0x58 examples/light_switch/provisioner/CMakeFiles/light_switch_provisioner_nrf52840_xxAA_s140_6.0.0.dir/C_/ver/mod/nRF5_SDK_15.0.0_a53641a/components/libraries/util/app_error.c.obj
 .bss.m_error_data.8119
                0x00000000       0x20 examples/light_switch/provisioner/CMakeFiles/light_switch_provisioner_nrf52840_xxAA_s140_6.0.0.dir/C_/ver/mod/nRF5_SDK_15.0.0_a53641a/components/libraries/util/app_error.c.obj
 .debug_info    0x00000000      0xaee examples/light_switch/provisioner/CMakeFiles/light_switch_provisioner_nrf52840_xxAA_s140_6.0.0.dir/C_/ver/mod/nRF5_SDK_15.0.0_a53641a/components/libraries/util/app_error.c.obj
 .debug_abbrev  0x00000000      0x232 examples/light_switch/provisioner/CMakeFiles/light_switch_provisioner_nrf52840_xxAA_s140_6.0.0.dir/C_/ver/mod/nRF5_SDK_15.0.0_a53641a/components/libraries/util/app_error.c.obj
 .debug_loc     0x00000000       0xb5 examples/light_switch/provisioner/CMakeFiles/light_switch_provisioner_nrf52840_xxAA_s140_6.0.0.dir/C_/ver/mod/nRF5_SDK_15.0.0_a53641a/components/libraries/util/app_error.c.obj
 .debug_aranges
                0x00000000       0x28 examples/light_switch/provisioner/CMakeFiles/light_switch_provisioner_nrf52840_xxAA_s140_6.0.0.dir/C_/ver/mod/nRF5_SDK_15.0.0_a53641a/components/libraries/util/app_error.c.obj
 .debug_ranges  0x00000000       0x18 examples/light_switch/provisioner/CMakeFiles/light_switch_provisioner_nrf52840_xxAA_s140_6.0.0.dir/C_/ver/mod/nRF5_SDK_15.0.0_a53641a/components/libraries/util/app_error.c.obj
 .debug_line    0x00000000      0x275 examples/light_switch/provisioner/CMakeFiles/light_switch_provisioner_nrf52840_xxAA_s140_6.0.0.dir/C_/ver/mod/nRF5_SDK_15.0.0_a53641a/components/libraries/util/app_error.c.obj
 .debug_str     0x00000000      0x72a examples/light_switch/provisioner/CMakeFiles/light_switch_provisioner_nrf52840_xxAA_s140_6.0.0.dir/C_/ver/mod/nRF5_SDK_15.0.0_a53641a/components/libraries/util/app_error.c.obj
 .comment       0x00000000       0x80 examples/light_switch/provisioner/CMakeFiles/light_switch_provisioner_nrf52840_xxAA_s140_6.0.0.dir/C_/ver/mod/nRF5_SDK_15.0.0_a53641a/components/libraries/util/app_error.c.obj
 .debug_frame   0x00000000       0x44 examples/light_switch/provisioner/CMakeFiles/light_switch_provisioner_nrf52840_xxAA_s140_6.0.0.dir/C_/ver/mod/nRF5_SDK_15.0.0_a53641a/components/libraries/util/app_error.c.obj
 .ARM.attributes
                0x00000000       0x39 examples/light_switch/provisioner/CMakeFiles/light_switch_provisioner_nrf52840_xxAA_s140_6.0.0.dir/C_/ver/mod/nRF5_SDK_15.0.0_a53641a/components/libraries/util/app_error.c.obj
 .text          0x00000000        0x0 examples/light_switch/provisioner/CMakeFiles/light_switch_provisioner_nrf52840_xxAA_s140_6.0.0.dir/C_/ver/mod/nRF5_SDK_15.0.0_a53641a/components/libraries/util/app_error_handler_gcc.c.obj
 .data          0x00000000        0x0 examples/light_switch/provisioner/CMakeFiles/light_switch_provisioner_nrf52840_xxAA_s140_6.0.0.dir/C_/ver/mod/nRF5_SDK_15.0.0_a53641a/components/libraries/util/app_error_handler_gcc.c.obj
 .bss           0x00000000        0x0 examples/light_switch/provisioner/CMakeFiles/light_switch_provisioner_nrf52840_xxAA_s140_6.0.0.dir/C_/ver/mod/nRF5_SDK_15.0.0_a53641a/components/libraries/util/app_error_handler_gcc.c.obj
 .text          0x00000000        0x0 external/rtt/librtt_nrf52840_xxAA.a(SEGGER_RTT.c.obj)
 .data          0x00000000        0x0 external/rtt/librtt_nrf52840_xxAA.a(SEGGER_RTT.c.obj)
 .bss           0x00000000        0x0 external/rtt/librtt_nrf52840_xxAA.a(SEGGER_RTT.c.obj)
 .text._PostTerminalSwitch.constprop.0
                0x00000000       0x28 external/rtt/librtt_nrf52840_xxAA.a(SEGGER_RTT.c.obj)
 .text.SEGGER_RTT_WriteSkipNoLock
                0x00000000       0xb4 external/rtt/librtt_nrf52840_xxAA.a(SEGGER_RTT.c.obj)
 .text.SEGGER_RTT_WriteString
                0x00000000       0x1a external/rtt/librtt_nrf52840_xxAA.a(SEGGER_RTT.c.obj)
 .text.SEGGER_RTT_WaitKey
                0x00000000        0xc external/rtt/librtt_nrf52840_xxAA.a(SEGGER_RTT.c.obj)
 .text.SEGGER_RTT_HasKey
                0x00000000       0x1c external/rtt/librtt_nrf52840_xxAA.a(SEGGER_RTT.c.obj)
 .text.SEGGER_RTT_HasData
                0x00000000       0x14 external/rtt/librtt_nrf52840_xxAA.a(SEGGER_RTT.c.obj)
 .text.SEGGER_RTT_AllocDownBuffer
                0x00000000       0x68 external/rtt/librtt_nrf52840_xxAA.a(SEGGER_RTT.c.obj)
 .text.SEGGER_RTT_AllocUpBuffer
                0x00000000       0x70 external/rtt/librtt_nrf52840_xxAA.a(SEGGER_RTT.c.obj)
 .text.SEGGER_RTT_ConfigUpBuffer
                0x00000000       0x68 external/rtt/librtt_nrf52840_xxAA.a(SEGGER_RTT.c.obj)
 .text.SEGGER_RTT_ConfigDownBuffer
                0x00000000       0x60 external/rtt/librtt_nrf52840_xxAA.a(SEGGER_RTT.c.obj)
 .text.SEGGER_RTT_SetNameUpBuffer
                0x00000000       0x3c external/rtt/librtt_nrf52840_xxAA.a(SEGGER_RTT.c.obj)
 .text.SEGGER_RTT_SetNameDownBuffer
                0x00000000       0x3c external/rtt/librtt_nrf52840_xxAA.a(SEGGER_RTT.c.obj)
 .text.SEGGER_RTT_Init
                0x00000000       0x10 external/rtt/librtt_nrf52840_xxAA.a(SEGGER_RTT.c.obj)
 .text.SEGGER_RTT_SetTerminal
                0x00000000       0x84 external/rtt/librtt_nrf52840_xxAA.a(SEGGER_RTT.c.obj)
 .text.SEGGER_RTT_TerminalOut
                0x00000000       0xa0 external/rtt/librtt_nrf52840_xxAA.a(SEGGER_RTT.c.obj)
 .bss._ActiveTerminal
                0x00000000        0x1 external/rtt/librtt_nrf52840_xxAA.a(SEGGER_RTT.c.obj)
 .rodata._aTerminalId
                0x00000000       0x10 external/rtt/librtt_nrf52840_xxAA.a(SEGGER_RTT.c.obj)
 .text          0x00000000        0x0 external/rtt/librtt_nrf52840_xxAA.a(SEGGER_RTT_printf.c.obj)
 .data          0x00000000        0x0 external/rtt/librtt_nrf52840_xxAA.a(SEGGER_RTT_printf.c.obj)
 .bss           0x00000000        0x0 external/rtt/librtt_nrf52840_xxAA.a(SEGGER_RTT_printf.c.obj)
 .text          0x00000000        0x0 external/micro-ecc/libuECC_nrf52840_xxAA.a(uECC.c.obj)
 .data          0x00000000        0x0 external/micro-ecc/libuECC_nrf52840_xxAA.a(uECC.c.obj)
 .bss           0x00000000        0x0 external/micro-ecc/libuECC_nrf52840_xxAA.a(uECC.c.obj)
 .text.uECC_vli_modMult
                0x00000000      0x148 external/micro-ecc/libuECC_nrf52840_xxAA.a(uECC.c.obj)
 .text.HMAC_init
                0x00000000       0x46 external/micro-ecc/libuECC_nrf52840_xxAA.a(uECC.c.obj)
 .text.HMAC_update
                0x00000000        0x4 external/micro-ecc/libuECC_nrf52840_xxAA.a(uECC.c.obj)
 .text.HMAC_finish
                0x00000000       0x62 external/micro-ecc/libuECC_nrf52840_xxAA.a(uECC.c.obj)
 .text.update_V
                0x00000000       0x24 external/micro-ecc/libuECC_nrf52840_xxAA.a(uECC.c.obj)
 .text.bits2int
                0x00000000       0x88 external/micro-ecc/libuECC_nrf52840_xxAA.a(uECC.c.obj)
 .text.uECC_sign_with_k
                0x00000000      0x17c external/micro-ecc/libuECC_nrf52840_xxAA.a(uECC.c.obj)
 .text.uECC_set_rng
                0x00000000        0xc external/micro-ecc/libuECC_nrf52840_xxAA.a(uECC.c.obj)
 .text.uECC_get_rng
                0x00000000        0xc external/micro-ecc/libuECC_nrf52840_xxAA.a(uECC.c.obj)
 .text.uECC_curve_private_key_size
                0x00000000        0xe external/micro-ecc/libuECC_nrf52840_xxAA.a(uECC.c.obj)
 .text.uECC_curve_public_key_size
                0x00000000        0x8 external/micro-ecc/libuECC_nrf52840_xxAA.a(uECC.c.obj)
 .text.uECC_compute_public_key
                0x00000000       0x7e external/micro-ecc/libuECC_nrf52840_xxAA.a(uECC.c.obj)
 .text.uECC_sign
                0x00000000       0x56 external/micro-ecc/libuECC_nrf52840_xxAA.a(uECC.c.obj)
 .text.uECC_sign_deterministic
                0x00000000      0x192 external/micro-ecc/libuECC_nrf52840_xxAA.a(uECC.c.obj)
 .text.uECC_verify
                0x00000000      0x2f0 external/micro-ecc/libuECC_nrf52840_xxAA.a(uECC.c.obj)
 .data          0x00000000        0x0 c:/mesh/arm_gcc/bin/../lib/gcc/arm-none-eabi/6.3.1/thumb/v7e-m/fpv4-sp/hard\libgcc.a(_aeabi_uldivmod.o)
 .bss           0x00000000        0x0 c:/mesh/arm_gcc/bin/../lib/gcc/arm-none-eabi/6.3.1/thumb/v7e-m/fpv4-sp/hard\libgcc.a(_aeabi_uldivmod.o)
 .data          0x00000000        0x0 c:/mesh/arm_gcc/bin/../lib/gcc/arm-none-eabi/6.3.1/thumb/v7e-m/fpv4-sp/hard\libgcc.a(_udivmoddi4.o)
 .bss           0x00000000        0x0 c:/mesh/arm_gcc/bin/../lib/gcc/arm-none-eabi/6.3.1/thumb/v7e-m/fpv4-sp/hard\libgcc.a(_udivmoddi4.o)
 .ARM.extab     0x00000000        0x0 c:/mesh/arm_gcc/bin/../lib/gcc/arm-none-eabi/6.3.1/thumb/v7e-m/fpv4-sp/hard\libgcc.a(_udivmoddi4.o)
 .data          0x00000000        0x0 c:/mesh/arm_gcc/bin/../lib/gcc/arm-none-eabi/6.3.1/thumb/v7e-m/fpv4-sp/hard\libgcc.a(_dvmd_tls.o)
 .bss           0x00000000        0x0 c:/mesh/arm_gcc/bin/../lib/gcc/arm-none-eabi/6.3.1/thumb/v7e-m/fpv4-sp/hard\libgcc.a(_dvmd_tls.o)
 .text          0x00000000        0x0 c:/mesh/arm_gcc/bin/../lib/gcc/arm-none-eabi/6.3.1/../../../../arm-none-eabi/lib/thumb/v7e-m/fpv4-sp/hard\libg_nano.a(lib_a-exit.o)
 .data          0x00000000        0x0 c:/mesh/arm_gcc/bin/../lib/gcc/arm-none-eabi/6.3.1/../../../../arm-none-eabi/lib/thumb/v7e-m/fpv4-sp/hard\libg_nano.a(lib_a-exit.o)
 .bss           0x00000000        0x0 c:/mesh/arm_gcc/bin/../lib/gcc/arm-none-eabi/6.3.1/../../../../arm-none-eabi/lib/thumb/v7e-m/fpv4-sp/hard\libg_nano.a(lib_a-exit.o)
 .text          0x00000000        0x0 c:/mesh/arm_gcc/bin/../lib/gcc/arm-none-eabi/6.3.1/../../../../arm-none-eabi/lib/thumb/v7e-m/fpv4-sp/hard\libg_nano.a(lib_a-impure.o)
 .data          0x00000000        0x0 c:/mesh/arm_gcc/bin/../lib/gcc/arm-none-eabi/6.3.1/../../../../arm-none-eabi/lib/thumb/v7e-m/fpv4-sp/hard\libg_nano.a(lib_a-impure.o)
 .bss           0x00000000        0x0 c:/mesh/arm_gcc/bin/../lib/gcc/arm-none-eabi/6.3.1/../../../../arm-none-eabi/lib/thumb/v7e-m/fpv4-sp/hard\libg_nano.a(lib_a-impure.o)
 .text          0x00000000        0x0 c:/mesh/arm_gcc/bin/../lib/gcc/arm-none-eabi/6.3.1/../../../../arm-none-eabi/lib/thumb/v7e-m/fpv4-sp/hard\libg_nano.a(lib_a-init.o)
 .data          0x00000000        0x0 c:/mesh/arm_gcc/bin/../lib/gcc/arm-none-eabi/6.3.1/../../../../arm-none-eabi/lib/thumb/v7e-m/fpv4-sp/hard\libg_nano.a(lib_a-init.o)
 .bss           0x00000000        0x0 c:/mesh/arm_gcc/bin/../lib/gcc/arm-none-eabi/6.3.1/../../../../arm-none-eabi/lib/thumb/v7e-m/fpv4-sp/hard\libg_nano.a(lib_a-init.o)
 .text          0x00000000        0x0 c:/mesh/arm_gcc/bin/../lib/gcc/arm-none-eabi/6.3.1/../../../../arm-none-eabi/lib/thumb/v7e-m/fpv4-sp/hard\libg_nano.a(lib_a-malloc.o)
 .data          0x00000000        0x0 c:/mesh/arm_gcc/bin/../lib/gcc/arm-none-eabi/6.3.1/../../../../arm-none-eabi/lib/thumb/v7e-m/fpv4-sp/hard\libg_nano.a(lib_a-malloc.o)
 .bss           0x00000000        0x0 c:/mesh/arm_gcc/bin/../lib/gcc/arm-none-eabi/6.3.1/../../../../arm-none-eabi/lib/thumb/v7e-m/fpv4-sp/hard\libg_nano.a(lib_a-malloc.o)
 .text          0x00000000        0x0 c:/mesh/arm_gcc/bin/../lib/gcc/arm-none-eabi/6.3.1/../../../../arm-none-eabi/lib/thumb/v7e-m/fpv4-sp/hard\libg_nano.a(lib_a-memcmp.o)
 .data          0x00000000        0x0 c:/mesh/arm_gcc/bin/../lib/gcc/arm-none-eabi/6.3.1/../../../../arm-none-eabi/lib/thumb/v7e-m/fpv4-sp/hard\libg_nano.a(lib_a-memcmp.o)
 .bss           0x00000000        0x0 c:/mesh/arm_gcc/bin/../lib/gcc/arm-none-eabi/6.3.1/../../../../arm-none-eabi/lib/thumb/v7e-m/fpv4-sp/hard\libg_nano.a(lib_a-memcmp.o)
 .text          0x00000000        0x0 c:/mesh/arm_gcc/bin/../lib/gcc/arm-none-eabi/6.3.1/../../../../arm-none-eabi/lib/thumb/v7e-m/fpv4-sp/hard\libg_nano.a(lib_a-memcpy-stub.o)
 .data          0x00000000        0x0 c:/mesh/arm_gcc/bin/../lib/gcc/arm-none-eabi/6.3.1/../../../../arm-none-eabi/lib/thumb/v7e-m/fpv4-sp/hard\libg_nano.a(lib_a-memcpy-stub.o)
 .bss           0x00000000        0x0 c:/mesh/arm_gcc/bin/../lib/gcc/arm-none-eabi/6.3.1/../../../../arm-none-eabi/lib/thumb/v7e-m/fpv4-sp/hard\libg_nano.a(lib_a-memcpy-stub.o)
 .text          0x00000000        0x0 c:/mesh/arm_gcc/bin/../lib/gcc/arm-none-eabi/6.3.1/../../../../arm-none-eabi/lib/thumb/v7e-m/fpv4-sp/hard\libg_nano.a(lib_a-memset.o)
 .data          0x00000000        0x0 c:/mesh/arm_gcc/bin/../lib/gcc/arm-none-eabi/6.3.1/../../../../arm-none-eabi/lib/thumb/v7e-m/fpv4-sp/hard\libg_nano.a(lib_a-memset.o)
 .bss           0x00000000        0x0 c:/mesh/arm_gcc/bin/../lib/gcc/arm-none-eabi/6.3.1/../../../../arm-none-eabi/lib/thumb/v7e-m/fpv4-sp/hard\libg_nano.a(lib_a-memset.o)
 .text          0x00000000        0x0 c:/mesh/arm_gcc/bin/../lib/gcc/arm-none-eabi/6.3.1/../../../../arm-none-eabi/lib/thumb/v7e-m/fpv4-sp/hard\libg_nano.a(lib_a-nano-freer.o)
 .data          0x00000000        0x0 c:/mesh/arm_gcc/bin/../lib/gcc/arm-none-eabi/6.3.1/../../../../arm-none-eabi/lib/thumb/v7e-m/fpv4-sp/hard\libg_nano.a(lib_a-nano-freer.o)
 .bss           0x00000000        0x0 c:/mesh/arm_gcc/bin/../lib/gcc/arm-none-eabi/6.3.1/../../../../arm-none-eabi/lib/thumb/v7e-m/fpv4-sp/hard\libg_nano.a(lib_a-nano-freer.o)
 .text          0x00000000        0x0 c:/mesh/arm_gcc/bin/../lib/gcc/arm-none-eabi/6.3.1/../../../../arm-none-eabi/lib/thumb/v7e-m/fpv4-sp/hard\libg_nano.a(lib_a-nano-mallocr.o)
 .data          0x00000000        0x0 c:/mesh/arm_gcc/bin/../lib/gcc/arm-none-eabi/6.3.1/../../../../arm-none-eabi/lib/thumb/v7e-m/fpv4-sp/hard\libg_nano.a(lib_a-nano-mallocr.o)
 .bss           0x00000000        0x0 c:/mesh/arm_gcc/bin/../lib/gcc/arm-none-eabi/6.3.1/../../../../arm-none-eabi/lib/thumb/v7e-m/fpv4-sp/hard\libg_nano.a(lib_a-nano-mallocr.o)
 .text          0x00000000        0x0 c:/mesh/arm_gcc/bin/../lib/gcc/arm-none-eabi/6.3.1/../../../../arm-none-eabi/lib/thumb/v7e-m/fpv4-sp/hard\libg_nano.a(lib_a-sbrkr.o)
 .data          0x00000000        0x0 c:/mesh/arm_gcc/bin/../lib/gcc/arm-none-eabi/6.3.1/../../../../arm-none-eabi/lib/thumb/v7e-m/fpv4-sp/hard\libg_nano.a(lib_a-sbrkr.o)
 .bss           0x00000000        0x0 c:/mesh/arm_gcc/bin/../lib/gcc/arm-none-eabi/6.3.1/../../../../arm-none-eabi/lib/thumb/v7e-m/fpv4-sp/hard\libg_nano.a(lib_a-sbrkr.o)
 .text          0x00000000        0x0 c:/mesh/arm_gcc/bin/../lib/gcc/arm-none-eabi/6.3.1/../../../../arm-none-eabi/lib/thumb/v7e-m/fpv4-sp/hard\libg_nano.a(lib_a-strcpy.o)
 .data          0x00000000        0x0 c:/mesh/arm_gcc/bin/../lib/gcc/arm-none-eabi/6.3.1/../../../../arm-none-eabi/lib/thumb/v7e-m/fpv4-sp/hard\libg_nano.a(lib_a-strcpy.o)
 .bss           0x00000000        0x0 c:/mesh/arm_gcc/bin/../lib/gcc/arm-none-eabi/6.3.1/../../../../arm-none-eabi/lib/thumb/v7e-m/fpv4-sp/hard\libg_nano.a(lib_a-strcpy.o)
 .data          0x00000000        0x0 c:/mesh/arm_gcc/bin/../lib/gcc/arm-none-eabi/6.3.1/../../../../arm-none-eabi/lib/thumb/v7e-m/fpv4-sp/hard\libg_nano.a(lib_a-strlen.o)
 .bss           0x00000000        0x0 c:/mesh/arm_gcc/bin/../lib/gcc/arm-none-eabi/6.3.1/../../../../arm-none-eabi/lib/thumb/v7e-m/fpv4-sp/hard\libg_nano.a(lib_a-strlen.o)
 .text          0x00000000        0x0 c:/mesh/arm_gcc/bin/../lib/gcc/arm-none-eabi/6.3.1/../../../../arm-none-eabi/lib/thumb/v7e-m/fpv4-sp/hard\libg_nano.a(lib_a-strrchr.o)
 .data          0x00000000        0x0 c:/mesh/arm_gcc/bin/../lib/gcc/arm-none-eabi/6.3.1/../../../../arm-none-eabi/lib/thumb/v7e-m/fpv4-sp/hard\libg_nano.a(lib_a-strrchr.o)
 .bss           0x00000000        0x0 c:/mesh/arm_gcc/bin/../lib/gcc/arm-none-eabi/6.3.1/../../../../arm-none-eabi/lib/thumb/v7e-m/fpv4-sp/hard\libg_nano.a(lib_a-strrchr.o)
 .text          0x00000000        0x0 c:/mesh/arm_gcc/bin/../lib/gcc/arm-none-eabi/6.3.1/../../../../arm-none-eabi/lib/thumb/v7e-m/fpv4-sp/hard\libg_nano.a(lib_a-mlock.o)
 .data          0x00000000        0x0 c:/mesh/arm_gcc/bin/../lib/gcc/arm-none-eabi/6.3.1/../../../../arm-none-eabi/lib/thumb/v7e-m/fpv4-sp/hard\libg_nano.a(lib_a-mlock.o)
 .bss           0x00000000        0x0 c:/mesh/arm_gcc/bin/../lib/gcc/arm-none-eabi/6.3.1/../../../../arm-none-eabi/lib/thumb/v7e-m/fpv4-sp/hard\libg_nano.a(lib_a-mlock.o)
 .text          0x00000000        0x0 c:/mesh/arm_gcc/bin/../lib/gcc/arm-none-eabi/6.3.1/../../../../arm-none-eabi/lib/thumb/v7e-m/fpv4-sp/hard\libg_nano.a(lib_a-reent.o)
 .data          0x00000000        0x0 c:/mesh/arm_gcc/bin/../lib/gcc/arm-none-eabi/6.3.1/../../../../arm-none-eabi/lib/thumb/v7e-m/fpv4-sp/hard\libg_nano.a(lib_a-reent.o)
 .bss           0x00000000        0x0 c:/mesh/arm_gcc/bin/../lib/gcc/arm-none-eabi/6.3.1/../../../../arm-none-eabi/lib/thumb/v7e-m/fpv4-sp/hard\libg_nano.a(lib_a-reent.o)
 .text.cleanup_glue
                0x00000000       0x1a c:/mesh/arm_gcc/bin/../lib/gcc/arm-none-eabi/6.3.1/../../../../arm-none-eabi/lib/thumb/v7e-m/fpv4-sp/hard\libg_nano.a(lib_a-reent.o)
 .text._reclaim_reent
                0x00000000       0xb8 c:/mesh/arm_gcc/bin/../lib/gcc/arm-none-eabi/6.3.1/../../../../arm-none-eabi/lib/thumb/v7e-m/fpv4-sp/hard\libg_nano.a(lib_a-reent.o)
 .text          0x00000000        0x0 c:/mesh/arm_gcc/bin/../lib/gcc/arm-none-eabi/6.3.1/../../../../arm-none-eabi/lib/thumb/v7e-m/fpv4-sp/hard\libg_nano.a(lib_a-strchr.o)
 .data          0x00000000        0x0 c:/mesh/arm_gcc/bin/../lib/gcc/arm-none-eabi/6.3.1/../../../../arm-none-eabi/lib/thumb/v7e-m/fpv4-sp/hard\libg_nano.a(lib_a-strchr.o)
 .bss           0x00000000        0x0 c:/mesh/arm_gcc/bin/../lib/gcc/arm-none-eabi/6.3.1/../../../../arm-none-eabi/lib/thumb/v7e-m/fpv4-sp/hard\libg_nano.a(lib_a-strchr.o)
 .text          0x00000000        0x0 c:/mesh/arm_gcc/bin/../lib/gcc/arm-none-eabi/6.3.1/thumb/v7e-m/fpv4-sp/hard/crtend.o
 .data          0x00000000        0x0 c:/mesh/arm_gcc/bin/../lib/gcc/arm-none-eabi/6.3.1/thumb/v7e-m/fpv4-sp/hard/crtend.o
 .bss           0x00000000        0x0 c:/mesh/arm_gcc/bin/../lib/gcc/arm-none-eabi/6.3.1/thumb/v7e-m/fpv4-sp/hard/crtend.o
 .text          0x00000000        0x0 c:/mesh/arm_gcc/bin/../lib/gcc/arm-none-eabi/6.3.1/thumb/v7e-m/fpv4-sp/hard/crtn.o
 .data          0x00000000        0x0 c:/mesh/arm_gcc/bin/../lib/gcc/arm-none-eabi/6.3.1/thumb/v7e-m/fpv4-sp/hard/crtn.o
 .bss           0x00000000        0x0 c:/mesh/arm_gcc/bin/../lib/gcc/arm-none-eabi/6.3.1/thumb/v7e-m/fpv4-sp/hard/crtn.o
 .text          0x00000000        0x0 c:/mesh/arm_gcc/bin/../lib/gcc/arm-none-eabi/6.3.1/../../../../arm-none-eabi/lib/thumb/v7e-m/fpv4-sp/hard\libnosys.a(sbrk.o)
 .data          0x00000000        0x0 c:/mesh/arm_gcc/bin/../lib/gcc/arm-none-eabi/6.3.1/../../../../arm-none-eabi/lib/thumb/v7e-m/fpv4-sp/hard\libnosys.a(sbrk.o)
 .bss           0x00000000        0x0 c:/mesh/arm_gcc/bin/../lib/gcc/arm-none-eabi/6.3.1/../../../../arm-none-eabi/lib/thumb/v7e-m/fpv4-sp/hard\libnosys.a(sbrk.o)
 .text          0x00000000        0x0 c:/mesh/arm_gcc/bin/../lib/gcc/arm-none-eabi/6.3.1/../../../../arm-none-eabi/lib/thumb/v7e-m/fpv4-sp/hard\libnosys.a(_exit.o)
 .data          0x00000000        0x0 c:/mesh/arm_gcc/bin/../lib/gcc/arm-none-eabi/6.3.1/../../../../arm-none-eabi/lib/thumb/v7e-m/fpv4-sp/hard\libnosys.a(_exit.o)
 .bss           0x00000000        0x0 c:/mesh/arm_gcc/bin/../lib/gcc/arm-none-eabi/6.3.1/../../../../arm-none-eabi/lib/thumb/v7e-m/fpv4-sp/hard\libnosys.a(_exit.o)

Memory Configuration

Name             Origin             Length             Attributes
FLASH            0x00026000         0x000d1000         xr
RAM              0x200032c8         0x0003ca38         xrw
*default*        0x00000000         0xffffffff

Linker script and memory map


.text           0x00026000    0x162a8
 *(.isr_vector)
 .isr_vector    0x00026000      0x200 examples/light_switch/provisioner/CMakeFiles/light_switch_provisioner_nrf52840_xxAA_s140_6.0.0.dir/C_/ver/mod/nRF5_SDK_15.0.0_a53641a/modules/nrfx/mdk/gcc_startup_nrf52840.S.obj
                0x00026000                __isr_vector
 *(.text*)
 .text          0x00026200       0x6c c:/mesh/arm_gcc/bin/../lib/gcc/arm-none-eabi/6.3.1/thumb/v7e-m/fpv4-sp/hard/crtbegin.o
 .text          0x0002626c       0x74 c:/mesh/arm_gcc/bin/../lib/gcc/arm-none-eabi/6.3.1/../../../../arm-none-eabi/lib/thumb/v7e-m/fpv4-sp/hard/crt0.o
                0x0002626c                _start
                0x0002626c                _mainCRTStartup
 .text.sd_app_evt_wait
                0x000262e0        0x4 examples/light_switch/provisioner/CMakeFiles/light_switch_provisioner_nrf52840_xxAA_s140_6.0.0.dir/src/main.c.obj
 .text.flash_manager_mem_available
                0x000262e4        0x2 examples/light_switch/provisioner/CMakeFiles/light_switch_provisioner_nrf52840_xxAA_s140_6.0.0.dir/src/main.c.obj
 *fill*         0x000262e6        0x2 
 .text.flash_invalidate_complete
                0x000262e8       0x10 examples/light_switch/provisioner/CMakeFiles/light_switch_provisioner_nrf52840_xxAA_s140_6.0.0.dir/src/main.c.obj
 .text.models_init_cb
                0x000262f8       0xb0 examples/light_switch/provisioner/CMakeFiles/light_switch_provisioner_nrf52840_xxAA_s140_6.0.0.dir/src/main.c.obj
                0x000262f8                models_init_cb
 .text.app_config_client_event_cb
                0x000263a8       0x78 examples/light_switch/provisioner/CMakeFiles/light_switch_provisioner_nrf52840_xxAA_s140_6.0.0.dir/src/main.c.obj
 .text.app_config_failed_cb
                0x00026420       0x80 examples/light_switch/provisioner/CMakeFiles/light_switch_provisioner_nrf52840_xxAA_s140_6.0.0.dir/src/main.c.obj
 .text.app_prov_failed_cb
                0x000264a0       0x78 examples/light_switch/provisioner/CMakeFiles/light_switch_provisioner_nrf52840_xxAA_s140_6.0.0.dir/src/main.c.obj
 .text.app_prov_success_cb
                0x00026518       0x78 examples/light_switch/provisioner/CMakeFiles/light_switch_provisioner_nrf52840_xxAA_s140_6.0.0.dir/src/main.c.obj
 .text.clear_app_data
                0x00026590       0x2c examples/light_switch/provisioner/CMakeFiles/light_switch_provisioner_nrf52840_xxAA_s140_6.0.0.dir/src/main.c.obj
 .text.button_event_handler
                0x000265bc      0x2e8 examples/light_switch/provisioner/CMakeFiles/light_switch_provisioner_nrf52840_xxAA_s140_6.0.0.dir/src/main.c.obj
 .text.app_rtt_input_handler
                0x000268a4        0xc examples/light_switch/provisioner/CMakeFiles/light_switch_provisioner_nrf52840_xxAA_s140_6.0.0.dir/src/main.c.obj
 .text.store_app_data
                0x000268b0       0x38 examples/light_switch/provisioner/CMakeFiles/light_switch_provisioner_nrf52840_xxAA_s140_6.0.0.dir/src/main.c.obj
 .text.app_config_successful_cb
                0x000268e8      0x11c examples/light_switch/provisioner/CMakeFiles/light_switch_provisioner_nrf52840_xxAA_s140_6.0.0.dir/src/main.c.obj
 .text.app_data_store_cb
                0x00026a04       0x1c examples/light_switch/provisioner/CMakeFiles/light_switch_provisioner_nrf52840_xxAA_s140_6.0.0.dir/src/main.c.obj
 .text.app_mesh_core_event_cb
                0x00026a20      0x39c examples/light_switch/provisioner/CMakeFiles/light_switch_provisioner_nrf52840_xxAA_s140_6.0.0.dir/src/main.c.obj
 .text.app_config_server_event_cb
                0x00026dbc       0x7c examples/light_switch/provisioner/CMakeFiles/light_switch_provisioner_nrf52840_xxAA_s140_6.0.0.dir/src/main.c.obj
 .text.flash_write_complete
                0x00026e38       0x8c examples/light_switch/provisioner/CMakeFiles/light_switch_provisioner_nrf52840_xxAA_s140_6.0.0.dir/src/main.c.obj
 .text.app_health_event_cb
                0x00026ec4       0x88 examples/light_switch/provisioner/CMakeFiles/light_switch_provisioner_nrf52840_xxAA_s140_6.0.0.dir/src/main.c.obj
 .text.flash_remove_complete
                0x00026f4c       0x64 examples/light_switch/provisioner/CMakeFiles/light_switch_provisioner_nrf52840_xxAA_s140_6.0.0.dir/src/main.c.obj
 .text.app_flash_manager_add
                0x00026fb0       0xa8 examples/light_switch/provisioner/CMakeFiles/light_switch_provisioner_nrf52840_xxAA_s140_6.0.0.dir/src/main.c.obj
 .text.app_default_models_bind_setup
                0x00027058       0x4c examples/light_switch/provisioner/CMakeFiles/light_switch_provisioner_nrf52840_xxAA_s140_6.0.0.dir/src/main.c.obj
                0x00027058                app_default_models_bind_setup
 .text.startup.main
                0x000270a4      0x3a4 examples/light_switch/provisioner/CMakeFiles/light_switch_provisioner_nrf52840_xxAA_s140_6.0.0.dir/src/main.c.obj
                0x000270a4                main
 .text.mesh_stack_config_clear
                0x00027448       0x12 examples/light_switch/provisioner/CMakeFiles/light_switch_provisioner_nrf52840_xxAA_s140_6.0.0.dir/__/__/__/mesh/stack/src/mesh_stack.c.obj
                0x00027448                mesh_stack_config_clear
 .text.mesh_stack_is_device_provisioned
                0x0002745a       0x18 examples/light_switch/provisioner/CMakeFiles/light_switch_provisioner_nrf52840_xxAA_s140_6.0.0.dir/__/__/__/mesh/stack/src/mesh_stack.c.obj
                0x0002745a                mesh_stack_is_device_provisioned
 *fill*         0x00027472        0x2 
 .text.mesh_stack_init
                0x00027474       0x78 examples/light_switch/provisioner/CMakeFiles/light_switch_provisioner_nrf52840_xxAA_s140_6.0.0.dir/__/__/__/mesh/stack/src/mesh_stack.c.obj
                0x00027474                mesh_stack_init
 .text.prov_evt_handler
                0x000274ec      0x764 examples/light_switch/provisioner/CMakeFiles/light_switch_provisioner_nrf52840_xxAA_s140_6.0.0.dir/src/provisioner_helper.c.obj
 .text.prov_helper_provision_next_device
                0x00027c50       0xb8 examples/light_switch/provisioner/CMakeFiles/light_switch_provisioner_nrf52840_xxAA_s140_6.0.0.dir/src/provisioner_helper.c.obj
                0x00027c50                prov_helper_provision_next_device
 .text.prov_helper_scan_start
                0x00027d08       0x84 examples/light_switch/provisioner/CMakeFiles/light_switch_provisioner_nrf52840_xxAA_s140_6.0.0.dir/src/provisioner_helper.c.obj
                0x00027d08                prov_helper_scan_start
 .text.prov_helper_device_handles_load
                0x00027d8c       0xd8 examples/light_switch/provisioner/CMakeFiles/light_switch_provisioner_nrf52840_xxAA_s140_6.0.0.dir/src/provisioner_helper.c.obj
                0x00027d8c                prov_helper_device_handles_load
 .text.prov_helper_init
                0x00027e64       0x48 examples/light_switch/provisioner/CMakeFiles/light_switch_provisioner_nrf52840_xxAA_s140_6.0.0.dir/src/provisioner_helper.c.obj
                0x00027e64                prov_helper_init
 .text.prov_helper_provision_self
                0x00027eac       0xfc examples/light_switch/provisioner/CMakeFiles/light_switch_provisioner_nrf52840_xxAA_s140_6.0.0.dir/src/provisioner_helper.c.obj
                0x00027eac                prov_helper_provision_self
 .text.client_pub_state_set
                0x00027fa8       0xac examples/light_switch/provisioner/CMakeFiles/light_switch_provisioner_nrf52840_xxAA_s140_6.0.0.dir/src/node_setup.c.obj
 .text.retry_on_fail
                0x00028054       0xa8 examples/light_switch/provisioner/CMakeFiles/light_switch_provisioner_nrf52840_xxAA_s140_6.0.0.dir/src/node_setup.c.obj
 .text.config_step_execute
                0x000280fc      0x618 examples/light_switch/provisioner/CMakeFiles/light_switch_provisioner_nrf52840_xxAA_s140_6.0.0.dir/src/node_setup.c.obj
 .text.client_send_timer_cb
                0x00028714       0x14 examples/light_switch/provisioner/CMakeFiles/light_switch_provisioner_nrf52840_xxAA_s140_6.0.0.dir/src/node_setup.c.obj
 .text.node_setup_config_client_event_process
                0x00028728      0x2c0 examples/light_switch/provisioner/CMakeFiles/light_switch_provisioner_nrf52840_xxAA_s140_6.0.0.dir/src/node_setup.c.obj
                0x00028728                node_setup_config_client_event_process
 .text.node_setup_start
                0x000289e8      0x1e8 examples/light_switch/provisioner/CMakeFiles/light_switch_provisioner_nrf52840_xxAA_s140_6.0.0.dir/src/node_setup.c.obj
                0x000289e8                node_setup_start
 .text.node_setup_cb_set
                0x00028bd0       0x28 examples/light_switch/provisioner/CMakeFiles/light_switch_provisioner_nrf52840_xxAA_s140_6.0.0.dir/src/node_setup.c.obj
                0x00028bd0                node_setup_cb_set
 .text.sd_evt_get
                0x00028bf8        0x4 examples/light_switch/provisioner/CMakeFiles/light_switch_provisioner_nrf52840_xxAA_s140_6.0.0.dir/__/__/common/src/mesh_softdevice_init.c.obj
 .text.sd_softdevice_enable
                0x00028bfc        0x4 examples/light_switch/provisioner/CMakeFiles/light_switch_provisioner_nrf52840_xxAA_s140_6.0.0.dir/__/__/common/src/mesh_softdevice_init.c.obj
 .text.sd_ble_enable
                0x00028c00        0x4 examples/light_switch/provisioner/CMakeFiles/light_switch_provisioner_nrf52840_xxAA_s140_6.0.0.dir/__/__/common/src/mesh_softdevice_init.c.obj
 .text.SWI2_EGU2_IRQHandler
                0x00028c04       0x18 examples/light_switch/provisioner/CMakeFiles/light_switch_provisioner_nrf52840_xxAA_s140_6.0.0.dir/__/__/common/src/mesh_softdevice_init.c.obj
                0x00028c04                SWI2_EGU2_IRQHandler
 .text.mesh_softdevice_init
                0x00028c1c      0x1c0 examples/light_switch/provisioner/CMakeFiles/light_switch_provisioner_nrf52840_xxAA_s140_6.0.0.dir/__/__/common/src/mesh_softdevice_init.c.obj
                0x00028c1c                mesh_softdevice_init
 .text.TIMER2_IRQHandler
                0x00028ddc       0x30 examples/light_switch/provisioner/CMakeFiles/light_switch_provisioner_nrf52840_xxAA_s140_6.0.0.dir/__/__/common/src/rtt_input.c.obj
                0x00028ddc                TIMER2_IRQHandler
 .text.rtt_input_enable
                0x00028e0c       0x5c examples/light_switch/provisioner/CMakeFiles/light_switch_provisioner_nrf52840_xxAA_s140_6.0.0.dir/__/__/common/src/rtt_input.c.obj
                0x00028e0c                rtt_input_enable
 .text.hal_led_pin_set
                0x00028e68       0x16 examples/light_switch/provisioner/CMakeFiles/light_switch_provisioner_nrf52840_xxAA_s140_6.0.0.dir/__/__/common/src/simple_hal.c.obj
                0x00028e68                hal_led_pin_set
 .text.hal_led_mask_set
                0x00028e7e       0x12 examples/light_switch/provisioner/CMakeFiles/light_switch_provisioner_nrf52840_xxAA_s140_6.0.0.dir/__/__/common/src/simple_hal.c.obj
                0x00028e7e                hal_led_mask_set
 .text.hal_led_blink_ms
                0x00028e90       0x44 examples/light_switch/provisioner/CMakeFiles/light_switch_provisioner_nrf52840_xxAA_s140_6.0.0.dir/__/__/common/src/simple_hal.c.obj
                0x00028e90                hal_led_blink_ms
 .text.hal_leds_init
                0x00028ed4       0x38 examples/light_switch/provisioner/CMakeFiles/light_switch_provisioner_nrf52840_xxAA_s140_6.0.0.dir/__/__/common/src/simple_hal.c.obj
                0x00028ed4                hal_leds_init
 .text.hal_buttons_init
                0x00028f0c       0x50 examples/light_switch/provisioner/CMakeFiles/light_switch_provisioner_nrf52840_xxAA_s140_6.0.0.dir/__/__/common/src/simple_hal.c.obj
                0x00028f0c                hal_buttons_init
 .text.GPIOTE_IRQHandler
                0x00028f5c       0x60 examples/light_switch/provisioner/CMakeFiles/light_switch_provisioner_nrf52840_xxAA_s140_6.0.0.dir/__/__/common/src/simple_hal.c.obj
                0x00028f5c                GPIOTE_IRQHandler
 .text._weak_handler
                0x00028fbc        0x4 examples/light_switch/provisioner/CMakeFiles/light_switch_provisioner_nrf52840_xxAA_s140_6.0.0.dir/__/__/nrf_mesh_weak.c.obj
                0x00028fbc                nrf_mesh_dfu_init
                0x00028fbc                nrf_mesh_dfu_jump_to_bootloader
                0x00028fbc                nrf_mesh_dfu_rx
                0x00028fbc                nrf_mesh_dfu_bank_info_get
                0x00028fbc                nrf_mesh_dfu_request
                0x00028fbc                nrf_mesh_dfu_bank_flash
                0x00028fbc                _weak_handler
                0x00028fbc                prov_provisionee_auth_data
                0x00028fbc                nrf_mesh_dfu_relay
                0x00028fbc                prov_provisionee_shared_secret
                0x00028fbc                nrf_mesh_dfu_abort
                0x00028fbc                mesh_flash_op_execute
                0x00028fbc                prov_provisionee_init
                0x00028fbc                nrf_mesh_dfu_state_get
                0x00028fbc                prov_provisionee_listen
 .text.app_error_fault_handler
                0x00028fc0      0x204 examples/light_switch/provisioner/CMakeFiles/light_switch_provisioner_nrf52840_xxAA_s140_6.0.0.dir/__/__/common/src/app_error_weak.c.obj
                0x00028fc0                app_error_fault_handler
 .text.mesh_assertion_handler
                0x000291c4       0x24 examples/light_switch/provisioner/CMakeFiles/light_switch_provisioner_nrf52840_xxAA_s140_6.0.0.dir/__/__/common/src/assertion_handler_weak.c.obj
                0x000291c4                mesh_assertion_handler
 .text.nrf_mesh_configure_device_uuid_set
                0x000291e8       0x10 examples/light_switch/provisioner/CMakeFiles/light_switch_provisioner_nrf52840_xxAA_s140_6.0.0.dir/__/__/__/mesh/core/src/nrf_mesh_configure.c.obj
                0x000291e8                nrf_mesh_configure_device_uuid_set
 .text.nrf_mesh_configure_device_uuid_reset
                0x000291f8       0x28 examples/light_switch/provisioner/CMakeFiles/light_switch_provisioner_nrf52840_xxAA_s140_6.0.0.dir/__/__/__/mesh/core/src/nrf_mesh_configure.c.obj
                0x000291f8                nrf_mesh_configure_device_uuid_reset
 .text.nrf_mesh_configure_device_uuid_get
                0x00029220        0x8 examples/light_switch/provisioner/CMakeFiles/light_switch_provisioner_nrf52840_xxAA_s140_6.0.0.dir/__/__/__/mesh/core/src/nrf_mesh_configure.c.obj
                0x00029220                nrf_mesh_configure_device_uuid_get
 .text.sd_ecb_block_encrypt
                0x00029228        0x4 examples/light_switch/provisioner/CMakeFiles/light_switch_provisioner_nrf52840_xxAA_s140_6.0.0.dir/__/__/__/mesh/core/src/aes.c.obj
 .text.aes_encrypt
                0x0002922c       0x32 examples/light_switch/provisioner/CMakeFiles/light_switch_provisioner_nrf52840_xxAA_s140_6.0.0.dir/__/__/__/mesh/core/src/aes.c.obj
                0x0002922c                aes_encrypt
 *fill*         0x0002925e        0x2 
 .text.msg_cache_init
                0x00029260       0x24 examples/light_switch/provisioner/CMakeFiles/light_switch_provisioner_nrf52840_xxAA_s140_6.0.0.dir/__/__/__/mesh/core/src/msg_cache.c.obj
                0x00029260                msg_cache_init
 .text.msg_cache_entry_exists
                0x00029284       0x3c examples/light_switch/provisioner/CMakeFiles/light_switch_provisioner_nrf52840_xxAA_s140_6.0.0.dir/__/__/__/mesh/core/src/msg_cache.c.obj
                0x00029284                msg_cache_entry_exists
 .text.msg_cache_entry_add
                0x000292c0       0x2c examples/light_switch/provisioner/CMakeFiles/light_switch_provisioner_nrf52840_xxAA_s140_6.0.0.dir/__/__/__/mesh/core/src/msg_cache.c.obj
                0x000292c0                msg_cache_entry_add
 .text.seqauth_sequence_number_get
                0x000292ec       0x12 examples/light_switch/provisioner/CMakeFiles/light_switch_provisioner_nrf52840_xxAA_s140_6.0.0.dir/__/__/__/mesh/core/src/transport.c.obj
 *fill*         0x000292fe        0x2 
 .text.control_packet_callback_get
                0x00029300       0x44 examples/light_switch/provisioner/CMakeFiles/light_switch_provisioner_nrf52840_xxAA_s140_6.0.0.dir/__/__/__/mesh/core/src/transport.c.obj
 .text.tx_complete
                0x00029344       0x30 examples/light_switch/provisioner/CMakeFiles/light_switch_provisioner_nrf52840_xxAA_s140_6.0.0.dir/__/__/__/mesh/core/src/transport.c.obj
 .text.block_ack_full
                0x00029374       0x1a examples/light_switch/provisioner/CMakeFiles/light_switch_provisioner_nrf52840_xxAA_s140_6.0.0.dir/__/__/__/mesh/core/src/transport.c.obj
 *fill*         0x0002938e        0x2 
 .text.sar_rx_session_mark_as_handled
                0x00029390       0x48 examples/light_switch/provisioner/CMakeFiles/light_switch_provisioner_nrf52840_xxAA_s140_6.0.0.dir/__/__/__/mesh/core/src/transport.c.obj
 .text.upper_trs_packet_encrypt
                0x000293d8       0x90 examples/light_switch/provisioner/CMakeFiles/light_switch_provisioner_nrf52840_xxAA_s140_6.0.0.dir/__/__/__/mesh/core/src/transport.c.obj
 .text.sar_ctx_free
                0x00029468       0x3c examples/light_switch/provisioner/CMakeFiles/light_switch_provisioner_nrf52840_xxAA_s140_6.0.0.dir/__/__/__/mesh/core/src/transport.c.obj
 .text.sar_ctx_tx_complete
                0x000294a4       0x2e examples/light_switch/provisioner/CMakeFiles/light_switch_provisioner_nrf52840_xxAA_s140_6.0.0.dir/__/__/__/mesh/core/src/transport.c.obj
 *fill*         0x000294d2        0x2 
 .text.sar_ctx_alloc
                0x000294d4       0xa4 examples/light_switch/provisioner/CMakeFiles/light_switch_provisioner_nrf52840_xxAA_s140_6.0.0.dir/__/__/__/mesh/core/src/transport.c.obj
 .text.test_transport_decrypt
                0x00029578       0x88 examples/light_switch/provisioner/CMakeFiles/light_switch_provisioner_nrf52840_xxAA_s140_6.0.0.dir/__/__/__/mesh/core/src/transport.c.obj
 .text.upper_transport_access_packet_in
                0x00029600      0x19c examples/light_switch/provisioner/CMakeFiles/light_switch_provisioner_nrf52840_xxAA_s140_6.0.0.dir/__/__/__/mesh/core/src/transport.c.obj
 .text.trs_packet_header_build
                0x0002979c       0xa6 examples/light_switch/provisioner/CMakeFiles/light_switch_provisioner_nrf52840_xxAA_s140_6.0.0.dir/__/__/__/mesh/core/src/transport.c.obj
 *fill*         0x00029842        0x2 
 .text.tx_retry_timer_reset
                0x00029844       0x44 examples/light_switch/provisioner/CMakeFiles/light_switch_provisioner_nrf52840_xxAA_s140_6.0.0.dir/__/__/__/mesh/core/src/transport.c.obj
 .text.sar_ctx_cancel
                0x00029888       0xa8 examples/light_switch/provisioner/CMakeFiles/light_switch_provisioner_nrf52840_xxAA_s140_6.0.0.dir/__/__/__/mesh/core/src/transport.c.obj
 .text.abort_timeout
                0x00029930        0x8 examples/light_switch/provisioner/CMakeFiles/light_switch_provisioner_nrf52840_xxAA_s140_6.0.0.dir/__/__/__/mesh/core/src/transport.c.obj
 .text.trs_sar_packet_out
                0x00029938       0xda examples/light_switch/provisioner/CMakeFiles/light_switch_provisioner_nrf52840_xxAA_s140_6.0.0.dir/__/__/__/mesh/core/src/transport.c.obj
 .text.retry_timeout
                0x00029a12       0x46 examples/light_switch/provisioner/CMakeFiles/light_switch_provisioner_nrf52840_xxAA_s140_6.0.0.dir/__/__/__/mesh/core/src/transport.c.obj
 .text.upper_transport_packet_in
                0x00029a58      0x150 examples/light_switch/provisioner/CMakeFiles/light_switch_provisioner_nrf52840_xxAA_s140_6.0.0.dir/__/__/__/mesh/core/src/transport.c.obj
 .text.upper_transport_tx
                0x00029ba8      0x1e4 examples/light_switch/provisioner/CMakeFiles/light_switch_provisioner_nrf52840_xxAA_s140_6.0.0.dir/__/__/__/mesh/core/src/transport.c.obj
 .text.transport_sar_mem_funcs_reset
                0x00029d8c       0x28 examples/light_switch/provisioner/CMakeFiles/light_switch_provisioner_nrf52840_xxAA_s140_6.0.0.dir/__/__/__/mesh/core/src/transport.c.obj
                0x00029d8c                transport_sar_mem_funcs_reset
 .text.transport_init
                0x00029db4       0x8c examples/light_switch/provisioner/CMakeFiles/light_switch_provisioner_nrf52840_xxAA_s140_6.0.0.dir/__/__/__/mesh/core/src/transport.c.obj
                0x00029db4                transport_init
 .text.transport_tx
                0x00029e40       0xb4 examples/light_switch/provisioner/CMakeFiles/light_switch_provisioner_nrf52840_xxAA_s140_6.0.0.dir/__/__/__/mesh/core/src/transport.c.obj
                0x00029e40                transport_tx
 .text.transport_control_tx
                0x00029ef4       0x8e examples/light_switch/provisioner/CMakeFiles/light_switch_provisioner_nrf52840_xxAA_s140_6.0.0.dir/__/__/__/mesh/core/src/transport.c.obj
                0x00029ef4                transport_control_tx
 *fill*         0x00029f82        0x2 
 .text.sar_ack_send
                0x00029f84       0xa0 examples/light_switch/provisioner/CMakeFiles/light_switch_provisioner_nrf52840_xxAA_s140_6.0.0.dir/__/__/__/mesh/core/src/transport.c.obj
 .text.transport_sar_process
                0x0002a024       0x74 examples/light_switch/provisioner/CMakeFiles/light_switch_provisioner_nrf52840_xxAA_s140_6.0.0.dir/__/__/__/mesh/core/src/transport.c.obj
 .text.transport_packet_in
                0x0002a098      0x434 examples/light_switch/provisioner/CMakeFiles/light_switch_provisioner_nrf52840_xxAA_s140_6.0.0.dir/__/__/__/mesh/core/src/transport.c.obj
                0x0002a098                transport_packet_in
 .text.ack_timeout
                0x0002a4cc       0x28 examples/light_switch/provisioner/CMakeFiles/light_switch_provisioner_nrf52840_xxAA_s140_6.0.0.dir/__/__/__/mesh/core/src/transport.c.obj
 .text.transport_opt_set
                0x0002a4f4       0xd0 examples/light_switch/provisioner/CMakeFiles/light_switch_provisioner_nrf52840_xxAA_s140_6.0.0.dir/__/__/__/mesh/core/src/transport.c.obj
                0x0002a4f4                transport_opt_set
 .text.transport_opt_get
                0x0002a5c4       0x68 examples/light_switch/provisioner/CMakeFiles/light_switch_provisioner_nrf52840_xxAA_s140_6.0.0.dir/__/__/__/mesh/core/src/transport.c.obj
                0x0002a5c4                transport_opt_get
 .text.transport_control_packet_consumer_add
                0x0002a62c       0x5c examples/light_switch/provisioner/CMakeFiles/light_switch_provisioner_nrf52840_xxAA_s140_6.0.0.dir/__/__/__/mesh/core/src/transport.c.obj
                0x0002a62c                transport_control_packet_consumer_add
 .text.event_handle
                0x0002a688       0x24 examples/light_switch/provisioner/CMakeFiles/light_switch_provisioner_nrf52840_xxAA_s140_6.0.0.dir/__/__/__/mesh/core/src/event.c.obj
                0x0002a688                event_handle
 .text.event_handler_add
                0x0002a6ac       0x1c examples/light_switch/provisioner/CMakeFiles/light_switch_provisioner_nrf52840_xxAA_s140_6.0.0.dir/__/__/__/mesh/core/src/event.c.obj
                0x0002a6ac                event_handler_add
 .text.event_handler_remove
                0x0002a6c8       0x1c examples/light_switch/provisioner/CMakeFiles/light_switch_provisioner_nrf52840_xxAA_s140_6.0.0.dir/__/__/__/mesh/core/src/event.c.obj
                0x0002a6c8                event_handler_remove
 .text.m_index_increment
                0x0002a6e4       0x1e examples/light_switch/provisioner/CMakeFiles/light_switch_provisioner_nrf52840_xxAA_s140_6.0.0.dir/__/__/__/mesh/core/src/packet_buffer.c.obj
 .text.packet_buffer_init
                0x0002a702       0xac examples/light_switch/provisioner/CMakeFiles/light_switch_provisioner_nrf52840_xxAA_s140_6.0.0.dir/__/__/__/mesh/core/src/packet_buffer.c.obj
                0x0002a702                packet_buffer_init
 .text.packet_buffer_flush
                0x0002a7ae       0x60 examples/light_switch/provisioner/CMakeFiles/light_switch_provisioner_nrf52840_xxAA_s140_6.0.0.dir/__/__/__/mesh/core/src/packet_buffer.c.obj
                0x0002a7ae                packet_buffer_flush
 .text.packet_buffer_reserve
                0x0002a80e       0x96 examples/light_switch/provisioner/CMakeFiles/light_switch_provisioner_nrf52840_xxAA_s140_6.0.0.dir/__/__/__/mesh/core/src/packet_buffer.c.obj
                0x0002a80e                packet_buffer_reserve
 .text.packet_buffer_commit
                0x0002a8a4       0x58 examples/light_switch/provisioner/CMakeFiles/light_switch_provisioner_nrf52840_xxAA_s140_6.0.0.dir/__/__/__/mesh/core/src/packet_buffer.c.obj
                0x0002a8a4                packet_buffer_commit
 .text.packet_buffer_pop
                0x0002a8fc       0x3c examples/light_switch/provisioner/CMakeFiles/light_switch_provisioner_nrf52840_xxAA_s140_6.0.0.dir/__/__/__/mesh/core/src/packet_buffer.c.obj
                0x0002a8fc                packet_buffer_pop
 .text.packet_buffer_can_pop
                0x0002a938       0x1c examples/light_switch/provisioner/CMakeFiles/light_switch_provisioner_nrf52840_xxAA_s140_6.0.0.dir/__/__/__/mesh/core/src/packet_buffer.c.obj
                0x0002a938                packet_buffer_can_pop
 .text.packet_buffer_packets_ready_to_pop
                0x0002a954       0x3a examples/light_switch/provisioner/CMakeFiles/light_switch_provisioner_nrf52840_xxAA_s140_6.0.0.dir/__/__/__/mesh/core/src/packet_buffer.c.obj
                0x0002a954                packet_buffer_packets_ready_to_pop
 .text.packet_buffer_free
                0x0002a98e       0x6e examples/light_switch/provisioner/CMakeFiles/light_switch_provisioner_nrf52840_xxAA_s140_6.0.0.dir/__/__/__/mesh/core/src/packet_buffer.c.obj
                0x0002a98e                packet_buffer_free
 .text.get_last_page
                0x0002a9fc       0x14 examples/light_switch/provisioner/CMakeFiles/light_switch_provisioner_nrf52840_xxAA_s140_6.0.0.dir/__/__/__/mesh/core/src/flash_manager_defrag.c.obj
 .text.defrag_on_end
                0x0002aa10       0x1c examples/light_switch/provisioner/CMakeFiles/light_switch_provisioner_nrf52840_xxAA_s140_6.0.0.dir/__/__/__/mesh/core/src/flash_manager_defrag.c.obj
 .text.execute_procedure_step
                0x0002aa2c       0x7c examples/light_switch/provisioner/CMakeFiles/light_switch_provisioner_nrf52840_xxAA_s140_6.0.0.dir/__/__/__/mesh/core/src/flash_manager_defrag.c.obj
 .text.get_next_entry
                0x0002aaa8       0x34 examples/light_switch/provisioner/CMakeFiles/light_switch_provisioner_nrf52840_xxAA_s140_6.0.0.dir/__/__/__/mesh/core/src/flash_manager_defrag.c.obj
 .text.get_next_data_entry
                0x0002aadc       0x26 examples/light_switch/provisioner/CMakeFiles/light_switch_provisioner_nrf52840_xxAA_s140_6.0.0.dir/__/__/__/mesh/core/src/flash_manager_defrag.c.obj
 *fill*         0x0002ab02        0x2 
 .text.on_flash_op_end
                0x0002ab04       0x30 examples/light_switch/provisioner/CMakeFiles/light_switch_provisioner_nrf52840_xxAA_s140_6.0.0.dir/__/__/__/mesh/core/src/flash_manager_defrag.c.obj
 .text.check_for_invalid_entries
                0x0002ab34       0x38 examples/light_switch/provisioner/CMakeFiles/light_switch_provisioner_nrf52840_xxAA_s140_6.0.0.dir/__/__/__/mesh/core/src/flash_manager_defrag.c.obj
 .text.erase_recovery_area
                0x0002ab6c       0x34 examples/light_switch/provisioner/CMakeFiles/light_switch_provisioner_nrf52840_xxAA_s140_6.0.0.dir/__/__/__/mesh/core/src/flash_manager_defrag.c.obj
 .text.flash.constprop.6
                0x0002aba0       0x24 examples/light_switch/provisioner/CMakeFiles/light_switch_provisioner_nrf52840_xxAA_s140_6.0.0.dir/__/__/__/mesh/core/src/flash_manager_defrag.c.obj
 .text.seal_storage_page
                0x0002abc4       0x50 examples/light_switch/provisioner/CMakeFiles/light_switch_provisioner_nrf52840_xxAA_s140_6.0.0.dir/__/__/__/mesh/core/src/flash_manager_defrag.c.obj
 .text.invalidate_duplicate_entries
                0x0002ac14       0x9c examples/light_switch/provisioner/CMakeFiles/light_switch_provisioner_nrf52840_xxAA_s140_6.0.0.dir/__/__/__/mesh/core/src/flash_manager_defrag.c.obj
 .text.copy_metadata
                0x0002acb0       0x3c examples/light_switch/provisioner/CMakeFiles/light_switch_provisioner_nrf52840_xxAA_s140_6.0.0.dir/__/__/__/mesh/core/src/flash_manager_defrag.c.obj
 .text.write_defrag_start_pointer
                0x0002acec       0x20 examples/light_switch/provisioner/CMakeFiles/light_switch_provisioner_nrf52840_xxAA_s140_6.0.0.dir/__/__/__/mesh/core/src/flash_manager_defrag.c.obj
 .text.write_back
                0x0002ad0c       0x28 examples/light_switch/provisioner/CMakeFiles/light_switch_provisioner_nrf52840_xxAA_s140_6.0.0.dir/__/__/__/mesh/core/src/flash_manager_defrag.c.obj
 .text.post_process
                0x0002ad34       0x40 examples/light_switch/provisioner/CMakeFiles/light_switch_provisioner_nrf52840_xxAA_s140_6.0.0.dir/__/__/__/mesh/core/src/flash_manager_defrag.c.obj
 .text.backup_entries
                0x0002ad74       0xf8 examples/light_switch/provisioner/CMakeFiles/light_switch_provisioner_nrf52840_xxAA_s140_6.0.0.dir/__/__/__/mesh/core/src/flash_manager_defrag.c.obj
 .text.erase_source
                0x0002ae6c       0x34 examples/light_switch/provisioner/CMakeFiles/light_switch_provisioner_nrf52840_xxAA_s140_6.0.0.dir/__/__/__/mesh/core/src/flash_manager_defrag.c.obj
 .text.flash_manager_defrag_init
                0x0002aea0       0x8c examples/light_switch/provisioner/CMakeFiles/light_switch_provisioner_nrf52840_xxAA_s140_6.0.0.dir/__/__/__/mesh/core/src/flash_manager_defrag.c.obj
                0x0002aea0                flash_manager_defrag_init
 .text.flash_manager_defrag_is_running
                0x0002af2c       0x10 examples/light_switch/provisioner/CMakeFiles/light_switch_provisioner_nrf52840_xxAA_s140_6.0.0.dir/__/__/__/mesh/core/src/flash_manager_defrag.c.obj
                0x0002af2c                flash_manager_defrag_is_running
 .text.flash_manager_defrag
                0x0002af3c       0x44 examples/light_switch/provisioner/CMakeFiles/light_switch_provisioner_nrf52840_xxAA_s140_6.0.0.dir/__/__/__/mesh/core/src/flash_manager_defrag.c.obj
                0x0002af3c                flash_manager_defrag
 .text.flash_manager_defrag_recovery_page_get
                0x0002af80        0xc examples/light_switch/provisioner/CMakeFiles/light_switch_provisioner_nrf52840_xxAA_s140_6.0.0.dir/__/__/__/mesh/core/src/flash_manager_defrag.c.obj
                0x0002af80                flash_manager_defrag_recovery_page_get
 .text.fifo_init
                0x0002af8c       0x34 examples/light_switch/provisioner/CMakeFiles/light_switch_provisioner_nrf52840_xxAA_s140_6.0.0.dir/__/__/__/mesh/core/src/fifo.c.obj
                0x0002af8c                fifo_init
 .text.fifo_push
                0x0002afc0       0x50 examples/light_switch/provisioner/CMakeFiles/light_switch_provisioner_nrf52840_xxAA_s140_6.0.0.dir/__/__/__/mesh/core/src/fifo.c.obj
                0x0002afc0                fifo_push
 .text.fifo_pop
                0x0002b010       0x52 examples/light_switch/provisioner/CMakeFiles/light_switch_provisioner_nrf52840_xxAA_s140_6.0.0.dir/__/__/__/mesh/core/src/fifo.c.obj
                0x0002b010                fifo_pop
 *fill*         0x0002b062        0x2 
 .text.wait_for_ready
                0x0002b064       0x10 examples/light_switch/provisioner/CMakeFiles/light_switch_provisioner_nrf52840_xxAA_s140_6.0.0.dir/__/__/__/mesh/core/src/nrf_flash.c.obj
 .text.nrf_flash_erase
                0x0002b074       0x50 examples/light_switch/provisioner/CMakeFiles/light_switch_provisioner_nrf52840_xxAA_s140_6.0.0.dir/__/__/__/mesh/core/src/nrf_flash.c.obj
                0x0002b074                nrf_flash_erase
 .text.nrf_flash_write
                0x0002b0c4       0x50 examples/light_switch/provisioner/CMakeFiles/light_switch_provisioner_nrf52840_xxAA_s140_6.0.0.dir/__/__/__/mesh/core/src/nrf_flash.c.obj
                0x0002b0c4                nrf_flash_write
 .text.packet_mgr_init
                0x0002b114       0x4c examples/light_switch/provisioner/CMakeFiles/light_switch_provisioner_nrf52840_xxAA_s140_6.0.0.dir/__/__/__/mesh/core/src/packet_mgr.c.obj
                0x0002b114                packet_mgr_init
 .text.packet_mgr_alloc
                0x0002b160      0x17c examples/light_switch/provisioner/CMakeFiles/light_switch_provisioner_nrf52840_xxAA_s140_6.0.0.dir/__/__/__/mesh/core/src/packet_mgr.c.obj
                0x0002b160                packet_mgr_alloc
 .text.packet_mgr_free
                0x0002b2dc       0x58 examples/light_switch/provisioner/CMakeFiles/light_switch_provisioner_nrf52840_xxAA_s140_6.0.0.dir/__/__/__/mesh/core/src/packet_mgr.c.obj
                0x0002b2dc                packet_mgr_free
 .text.flash_store_iv_index
                0x0002b334       0x38 examples/light_switch/provisioner/CMakeFiles/light_switch_provisioner_nrf52840_xxAA_s140_6.0.0.dir/__/__/__/mesh/core/src/net_state.c.obj
 .text.flash_mem_available
                0x0002b36c       0x14 examples/light_switch/provisioner/CMakeFiles/light_switch_provisioner_nrf52840_xxAA_s140_6.0.0.dir/__/__/__/mesh/core/src/net_state.c.obj
 .text.seqnum_block_allocate
                0x0002b380       0x4c examples/light_switch/provisioner/CMakeFiles/light_switch_provisioner_nrf52840_xxAA_s140_6.0.0.dir/__/__/__/mesh/core/src/net_state.c.obj
 .text.net_state_reset
                0x0002b3cc       0x3c examples/light_switch/provisioner/CMakeFiles/light_switch_provisioner_nrf52840_xxAA_s140_6.0.0.dir/__/__/__/mesh/core/src/net_state.c.obj
                0x0002b3cc                net_state_reset
 .text.flash_write_complete
                0x0002b408       0x64 examples/light_switch/provisioner/CMakeFiles/light_switch_provisioner_nrf52840_xxAA_s140_6.0.0.dir/__/__/__/mesh/core/src/net_state.c.obj
 .text.net_state_recover_from_flash
                0x0002b46c       0x8c examples/light_switch/provisioner/CMakeFiles/light_switch_provisioner_nrf52840_xxAA_s140_6.0.0.dir/__/__/__/mesh/core/src/net_state.c.obj
                0x0002b46c                net_state_recover_from_flash
 .text.net_state_flash_area_get
                0x0002b4f8        0xc examples/light_switch/provisioner/CMakeFiles/light_switch_provisioner_nrf52840_xxAA_s140_6.0.0.dir/__/__/__/mesh/core/src/net_state.c.obj
                0x0002b4f8                net_state_flash_area_get
 .text.init_flash_storage
                0x0002b504       0x40 examples/light_switch/provisioner/CMakeFiles/light_switch_provisioner_nrf52840_xxAA_s140_6.0.0.dir/__/__/__/mesh/core/src/net_state.c.obj
 .text.net_state_init
                0x0002b544       0x5c examples/light_switch/provisioner/CMakeFiles/light_switch_provisioner_nrf52840_xxAA_s140_6.0.0.dir/__/__/__/mesh/core/src/net_state.c.obj
                0x0002b544                net_state_init
 .text.net_state_iv_update_start
                0x0002b5a0       0x68 examples/light_switch/provisioner/CMakeFiles/light_switch_provisioner_nrf52840_xxAA_s140_6.0.0.dir/__/__/__/mesh/core/src/net_state.c.obj
                0x0002b5a0                net_state_iv_update_start
 .text.iv_update_trigger_if_pending
                0x0002b608       0x80 examples/light_switch/provisioner/CMakeFiles/light_switch_provisioner_nrf52840_xxAA_s140_6.0.0.dir/__/__/__/mesh/core/src/net_state.c.obj
 .text.mesh_evt_handler
                0x0002b688       0xa0 examples/light_switch/provisioner/CMakeFiles/light_switch_provisioner_nrf52840_xxAA_s140_6.0.0.dir/__/__/__/mesh/core/src/net_state.c.obj
 .text.iv_update_timer_handler
                0x0002b728       0x68 examples/light_switch/provisioner/CMakeFiles/light_switch_provisioner_nrf52840_xxAA_s140_6.0.0.dir/__/__/__/mesh/core/src/net_state.c.obj
 .text.net_state_seqnum_alloc
                0x0002b790       0x68 examples/light_switch/provisioner/CMakeFiles/light_switch_provisioner_nrf52840_xxAA_s140_6.0.0.dir/__/__/__/mesh/core/src/net_state.c.obj
                0x0002b790                net_state_seqnum_alloc
 .text.net_state_iv_index_lock
                0x0002b7f8       0x3c examples/light_switch/provisioner/CMakeFiles/light_switch_provisioner_nrf52840_xxAA_s140_6.0.0.dir/__/__/__/mesh/core/src/net_state.c.obj
                0x0002b7f8                net_state_iv_index_lock
 .text.net_state_key_refresh_phase_changed
                0x0002b834       0x20 examples/light_switch/provisioner/CMakeFiles/light_switch_provisioner_nrf52840_xxAA_s140_6.0.0.dir/__/__/__/mesh/core/src/net_state.c.obj
                0x0002b834                net_state_key_refresh_phase_changed
 .text.net_state_beacon_iv_index_get
                0x0002b854        0xc examples/light_switch/provisioner/CMakeFiles/light_switch_provisioner_nrf52840_xxAA_s140_6.0.0.dir/__/__/__/mesh/core/src/net_state.c.obj
                0x0002b854                net_state_beacon_iv_index_get
 .text.net_state_tx_iv_index_get
                0x0002b860       0x14 examples/light_switch/provisioner/CMakeFiles/light_switch_provisioner_nrf52840_xxAA_s140_6.0.0.dir/__/__/__/mesh/core/src/net_state.c.obj
                0x0002b860                net_state_tx_iv_index_get
 .text.net_state_rx_iv_index_get
                0x0002b874       0x18 examples/light_switch/provisioner/CMakeFiles/light_switch_provisioner_nrf52840_xxAA_s140_6.0.0.dir/__/__/__/mesh/core/src/net_state.c.obj
                0x0002b874                net_state_rx_iv_index_get
 .text.net_state_iv_update_get
                0x0002b88c        0xc examples/light_switch/provisioner/CMakeFiles/light_switch_provisioner_nrf52840_xxAA_s140_6.0.0.dir/__/__/__/mesh/core/src/net_state.c.obj
                0x0002b88c                net_state_iv_update_get
 .text.send_end_events
                0x0002b898       0x84 examples/light_switch/provisioner/CMakeFiles/light_switch_provisioner_nrf52840_xxAA_s140_6.0.0.dir/__/__/__/mesh/core/src/mesh_flash.c.obj
 .text.flash_op_schedule
                0x0002b91c       0x88 examples/light_switch/provisioner/CMakeFiles/light_switch_provisioner_nrf52840_xxAA_s140_6.0.0.dir/__/__/__/mesh/core/src/mesh_flash.c.obj
 .text.flash_op_start
                0x0002b9a4      0x13c examples/light_switch/provisioner/CMakeFiles/light_switch_provisioner_nrf52840_xxAA_s140_6.0.0.dir/__/__/__/mesh/core/src/mesh_flash.c.obj
 .text.mesh_flash_init
                0x0002bae0       0x88 examples/light_switch/provisioner/CMakeFiles/light_switch_provisioner_nrf52840_xxAA_s140_6.0.0.dir/__/__/__/mesh/core/src/mesh_flash.c.obj
                0x0002bae0                mesh_flash_init
 .text.mesh_flash_user_callback_set
                0x0002bb68       0x20 examples/light_switch/provisioner/CMakeFiles/light_switch_provisioner_nrf52840_xxAA_s140_6.0.0.dir/__/__/__/mesh/core/src/mesh_flash.c.obj
                0x0002bb68                mesh_flash_user_callback_set
 .text.mesh_flash_op_push
                0x0002bb88       0xe4 examples/light_switch/provisioner/CMakeFiles/light_switch_provisioner_nrf52840_xxAA_s140_6.0.0.dir/__/__/__/mesh/core/src/mesh_flash.c.obj
                0x0002bb88                mesh_flash_op_push
 .text.nrf_mesh_address_type_get
                0x0002bc6c       0x10 examples/light_switch/provisioner/CMakeFiles/light_switch_provisioner_nrf52840_xxAA_s140_6.0.0.dir/__/__/__/mesh/core/src/nrf_mesh_utils.c.obj
                0x0002bc6c                nrf_mesh_address_type_get
 .text.sd_softdevice_is_enabled
                0x0002bc7c        0x4 examples/light_switch/provisioner/CMakeFiles/light_switch_provisioner_nrf52840_xxAA_s140_6.0.0.dir/__/__/__/mesh/core/src/nrf_mesh.c.obj
 .text.nrf_mesh_listen
                0x0002bc80      0x138 examples/light_switch/provisioner/CMakeFiles/light_switch_provisioner_nrf52840_xxAA_s140_6.0.0.dir/__/__/__/mesh/core/src/nrf_mesh.c.obj
 .text.flash_stable_cb
                0x0002bdb8       0x20 examples/light_switch/provisioner/CMakeFiles/light_switch_provisioner_nrf52840_xxAA_s140_6.0.0.dir/__/__/__/mesh/core/src/nrf_mesh.c.obj
 .text.scanner_packet_process_cb
                0x0002bdd8       0x8c examples/light_switch/provisioner/CMakeFiles/light_switch_provisioner_nrf52840_xxAA_s140_6.0.0.dir/__/__/__/mesh/core/src/nrf_mesh.c.obj
 .text.nrf_mesh_init
                0x0002be64       0xd8 examples/light_switch/provisioner/CMakeFiles/light_switch_provisioner_nrf52840_xxAA_s140_6.0.0.dir/__/__/__/mesh/core/src/nrf_mesh.c.obj
                0x0002be64                nrf_mesh_init
 .text.nrf_mesh_enable
                0x0002bf3c       0x3c examples/light_switch/provisioner/CMakeFiles/light_switch_provisioner_nrf52840_xxAA_s140_6.0.0.dir/__/__/__/mesh/core/src/nrf_mesh.c.obj
                0x0002bf3c                nrf_mesh_enable
 .text.nrf_mesh_packet_send
                0x0002bf78       0x7c examples/light_switch/provisioner/CMakeFiles/light_switch_provisioner_nrf52840_xxAA_s140_6.0.0.dir/__/__/__/mesh/core/src/nrf_mesh.c.obj
                0x0002bf78                nrf_mesh_packet_send
 .text.nrf_mesh_evt_handler_add
                0x0002bff4        0x4 examples/light_switch/provisioner/CMakeFiles/light_switch_provisioner_nrf52840_xxAA_s140_6.0.0.dir/__/__/__/mesh/core/src/nrf_mesh.c.obj
                0x0002bff4                nrf_mesh_evt_handler_add
 .text.nrf_mesh_on_sd_evt
                0x0002bff8        0xa examples/light_switch/provisioner/CMakeFiles/light_switch_provisioner_nrf52840_xxAA_s140_6.0.0.dir/__/__/__/mesh/core/src/nrf_mesh.c.obj
                0x0002bff8                nrf_mesh_on_sd_evt
 .text.nrf_mesh_subnet_added
                0x0002c002        0x2 examples/light_switch/provisioner/CMakeFiles/light_switch_provisioner_nrf52840_xxAA_s140_6.0.0.dir/__/__/__/mesh/core/src/nrf_mesh.c.obj
                0x0002c002                nrf_mesh_subnet_added
 .text.queue_init
                0x0002c004       0x14 examples/light_switch/provisioner/CMakeFiles/light_switch_provisioner_nrf52840_xxAA_s140_6.0.0.dir/__/__/__/mesh/core/src/queue.c.obj
                0x0002c004                queue_init
 .text.queue_push
                0x0002c018       0x34 examples/light_switch/provisioner/CMakeFiles/light_switch_provisioner_nrf52840_xxAA_s140_6.0.0.dir/__/__/__/mesh/core/src/queue.c.obj
                0x0002c018                queue_push
 .text.queue_pop
                0x0002c04c       0x26 examples/light_switch/provisioner/CMakeFiles/light_switch_provisioner_nrf52840_xxAA_s140_6.0.0.dir/__/__/__/mesh/core/src/queue.c.obj
                0x0002c04c                queue_pop
 .text.queue_peek
                0x0002c072       0x10 examples/light_switch/provisioner/CMakeFiles/light_switch_provisioner_nrf52840_xxAA_s140_6.0.0.dir/__/__/__/mesh/core/src/queue.c.obj
                0x0002c072                queue_peek
 .text.sd_power_reset_reason_clr
                0x0002c082        0x4 examples/light_switch/provisioner/CMakeFiles/light_switch_provisioner_nrf52840_xxAA_s140_6.0.0.dir/__/__/__/mesh/core/src/hal.c.obj
 *fill*         0x0002c086        0x2 
 .text.hal_device_reset
                0x0002c088       0x2c examples/light_switch/provisioner/CMakeFiles/light_switch_provisioner_nrf52840_xxAA_s140_6.0.0.dir/__/__/__/mesh/core/src/hal.c.obj
                0x0002c088                hal_device_reset
 .text.hal_lfclk_ppm_get
                0x0002c0b4       0x14 examples/light_switch/provisioner/CMakeFiles/light_switch_provisioner_nrf52840_xxAA_s140_6.0.0.dir/__/__/__/mesh/core/src/hal.c.obj
                0x0002c0b4                hal_lfclk_ppm_get
 .text.my_xor.constprop.1
                0x0002c0c8       0x20 examples/light_switch/provisioner/CMakeFiles/light_switch_provisioner_nrf52840_xxAA_s140_6.0.0.dir/__/__/__/mesh/core/src/aes_cmac.c.obj
 .text.utils_lshift.constprop.2
                0x0002c0e8       0x24 examples/light_switch/provisioner/CMakeFiles/light_switch_provisioner_nrf52840_xxAA_s140_6.0.0.dir/__/__/__/mesh/core/src/aes_cmac.c.obj
 .text.aes_cmac_subkey_generate
                0x0002c10c       0x6c examples/light_switch/provisioner/CMakeFiles/light_switch_provisioner_nrf52840_xxAA_s140_6.0.0.dir/__/__/__/mesh/core/src/aes_cmac.c.obj
                0x0002c10c                aes_cmac_subkey_generate
 .text.aes_cmac
                0x0002c178       0xbc examples/light_switch/provisioner/CMakeFiles/light_switch_provisioner_nrf52840_xxAA_s140_6.0.0.dir/__/__/__/mesh/core/src/aes_cmac.c.obj
                0x0002c178                aes_cmac
 .text.add_to_add_list
                0x0002c234       0x30 examples/light_switch/provisioner/CMakeFiles/light_switch_provisioner_nrf52840_xxAA_s140_6.0.0.dir/__/__/__/mesh/core/src/timer_scheduler.c.obj
 .text.process_dirty_events
                0x0002c264       0x5c examples/light_switch/provisioner/CMakeFiles/light_switch_provisioner_nrf52840_xxAA_s140_6.0.0.dir/__/__/__/mesh/core/src/timer_scheduler.c.obj
 .text.timer_cb
                0x0002c2c0        0xc examples/light_switch/provisioner/CMakeFiles/light_switch_provisioner_nrf52840_xxAA_s140_6.0.0.dir/__/__/__/mesh/core/src/timer_scheduler.c.obj
 .text.add_evt.constprop.1
                0x0002c2cc       0x58 examples/light_switch/provisioner/CMakeFiles/light_switch_provisioner_nrf52840_xxAA_s140_6.0.0.dir/__/__/__/mesh/core/src/timer_scheduler.c.obj
 .text.process_add_list
                0x0002c324       0x3c examples/light_switch/provisioner/CMakeFiles/light_switch_provisioner_nrf52840_xxAA_s140_6.0.0.dir/__/__/__/mesh/core/src/timer_scheduler.c.obj
 .text.flag_event_cb
                0x0002c360       0xd8 examples/light_switch/provisioner/CMakeFiles/light_switch_provisioner_nrf52840_xxAA_s140_6.0.0.dir/__/__/__/mesh/core/src/timer_scheduler.c.obj
 .text.timer_sch_init
                0x0002c438       0x24 examples/light_switch/provisioner/CMakeFiles/light_switch_provisioner_nrf52840_xxAA_s140_6.0.0.dir/__/__/__/mesh/core/src/timer_scheduler.c.obj
                0x0002c438                timer_sch_init
 .text.timer_sch_schedule
                0x0002c45c       0x3c examples/light_switch/provisioner/CMakeFiles/light_switch_provisioner_nrf52840_xxAA_s140_6.0.0.dir/__/__/__/mesh/core/src/timer_scheduler.c.obj
                0x0002c45c                timer_sch_schedule
 .text.timer_sch_abort
                0x0002c498       0x58 examples/light_switch/provisioner/CMakeFiles/light_switch_provisioner_nrf52840_xxAA_s140_6.0.0.dir/__/__/__/mesh/core/src/timer_scheduler.c.obj
                0x0002c498                timer_sch_abort
 .text.timer_sch_reschedule
                0x0002c4f0       0x64 examples/light_switch/provisioner/CMakeFiles/light_switch_provisioner_nrf52840_xxAA_s140_6.0.0.dir/__/__/__/mesh/core/src/timer_scheduler.c.obj
                0x0002c4f0                timer_sch_reschedule
 .text.timer_mut_unlock
                0x0002c554       0x10 examples/light_switch/provisioner/CMakeFiles/light_switch_provisioner_nrf52840_xxAA_s140_6.0.0.dir/__/__/__/mesh/core/src/timer.c.obj
 .text.timer_order_cb
                0x0002c564       0x94 examples/light_switch/provisioner/CMakeFiles/light_switch_provisioner_nrf52840_xxAA_s140_6.0.0.dir/__/__/__/mesh/core/src/timer.c.obj
                0x0002c564                timer_order_cb
 .text.timer_now
                0x0002c5f8       0x48 examples/light_switch/provisioner/CMakeFiles/light_switch_provisioner_nrf52840_xxAA_s140_6.0.0.dir/__/__/__/mesh/core/src/timer.c.obj
                0x0002c5f8                timer_now
 .text.timer_event_handler
                0x0002c640       0x84 examples/light_switch/provisioner/CMakeFiles/light_switch_provisioner_nrf52840_xxAA_s140_6.0.0.dir/__/__/__/mesh/core/src/timer.c.obj
                0x0002c640                timer_event_handler
 .text.timer_on_ts_begin
                0x0002c6c4       0xf4 examples/light_switch/provisioner/CMakeFiles/light_switch_provisioner_nrf52840_xxAA_s140_6.0.0.dir/__/__/__/mesh/core/src/timer.c.obj
                0x0002c6c4                timer_on_ts_begin
 .text.timer_on_ts_end
                0x0002c7b8       0x60 examples/light_switch/provisioner/CMakeFiles/light_switch_provisioner_nrf52840_xxAA_s140_6.0.0.dir/__/__/__/mesh/core/src/timer.c.obj
                0x0002c7b8                timer_on_ts_end
 .text.timer_cb
                0x0002c818       0x10 examples/light_switch/provisioner/CMakeFiles/light_switch_provisioner_nrf52840_xxAA_s140_6.0.0.dir/__/__/__/mesh/core/src/ticker.c.obj
 .text.ticker_init
                0x0002c828       0x3c examples/light_switch/provisioner/CMakeFiles/light_switch_provisioner_nrf52840_xxAA_s140_6.0.0.dir/__/__/__/mesh/core/src/ticker.c.obj
                0x0002c828                ticker_init
 .text.sd_rand_application_bytes_available_get
                0x0002c864        0x4 examples/light_switch/provisioner/CMakeFiles/light_switch_provisioner_nrf52840_xxAA_s140_6.0.0.dir/__/__/__/mesh/core/src/rand.c.obj
 .text.sd_rand_application_vector_get
                0x0002c868        0x4 examples/light_switch/provisioner/CMakeFiles/light_switch_provisioner_nrf52840_xxAA_s140_6.0.0.dir/__/__/__/mesh/core/src/rand.c.obj
 .text.rand_prng_get
                0x0002c86c       0x22 examples/light_switch/provisioner/CMakeFiles/light_switch_provisioner_nrf52840_xxAA_s140_6.0.0.dir/__/__/__/mesh/core/src/rand.c.obj
                0x0002c86c                rand_prng_get
 .text.rand_hw_rng_get
                0x0002c88e       0x44 examples/light_switch/provisioner/CMakeFiles/light_switch_provisioner_nrf52840_xxAA_s140_6.0.0.dir/__/__/__/mesh/core/src/rand.c.obj
                0x0002c88e                rand_hw_rng_get
 *fill*         0x0002c8d2        0x2 
 .text.rand_prng_seed
                0x0002c8d4       0x34 examples/light_switch/provisioner/CMakeFiles/light_switch_provisioner_nrf52840_xxAA_s140_6.0.0.dir/__/__/__/mesh/core/src/rand.c.obj
                0x0002c8d4                rand_prng_seed
 .text.nrf_mesh_opt_set
                0x0002c908       0x26 examples/light_switch/provisioner/CMakeFiles/light_switch_provisioner_nrf52840_xxAA_s140_6.0.0.dir/__/__/__/mesh/core/src/nrf_mesh_opt.c.obj
                0x0002c908                nrf_mesh_opt_set
 .text.nrf_mesh_opt_get
                0x0002c92e       0x26 examples/light_switch/provisioner/CMakeFiles/light_switch_provisioner_nrf52840_xxAA_s140_6.0.0.dir/__/__/__/mesh/core/src/nrf_mesh_opt.c.obj
                0x0002c92e                nrf_mesh_opt_get
 .text.sd_radio_session_open
                0x0002c954        0x4 examples/light_switch/provisioner/CMakeFiles/light_switch_provisioner_nrf52840_xxAA_s140_6.0.0.dir/__/__/__/mesh/core/src/timeslot.c.obj
 .text.sd_radio_session_close
                0x0002c958        0x4 examples/light_switch/provisioner/CMakeFiles/light_switch_provisioner_nrf52840_xxAA_s140_6.0.0.dir/__/__/__/mesh/core/src/timeslot.c.obj
 .text.sd_radio_request
                0x0002c95c        0x4 examples/light_switch/provisioner/CMakeFiles/light_switch_provisioner_nrf52840_xxAA_s140_6.0.0.dir/__/__/__/mesh/core/src/timeslot.c.obj
 .text.end_timer_handler
                0x0002c960       0x24 examples/light_switch/provisioner/CMakeFiles/light_switch_provisioner_nrf52840_xxAA_s140_6.0.0.dir/__/__/__/mesh/core/src/timeslot.c.obj
 .text.get_end_time.constprop.10
                0x0002c984       0x28 examples/light_switch/provisioner/CMakeFiles/light_switch_provisioner_nrf52840_xxAA_s140_6.0.0.dir/__/__/__/mesh/core/src/timeslot.c.obj
 .text.handle_extend_end.constprop.3
                0x0002c9ac       0xb4 examples/light_switch/provisioner/CMakeFiles/light_switch_provisioner_nrf52840_xxAA_s140_6.0.0.dir/__/__/__/mesh/core/src/timeslot.c.obj
 .text.radio_signal_callback
                0x0002ca60      0x138 examples/light_switch/provisioner/CMakeFiles/light_switch_provisioner_nrf52840_xxAA_s140_6.0.0.dir/__/__/__/mesh/core/src/timeslot.c.obj
 .text.timeslot_sd_event_handler
                0x0002cb98       0x38 examples/light_switch/provisioner/CMakeFiles/light_switch_provisioner_nrf52840_xxAA_s140_6.0.0.dir/__/__/__/mesh/core/src/timeslot.c.obj
                0x0002cb98                timeslot_sd_event_handler
 .text.timeslot_init
                0x0002cbd0       0x48 examples/light_switch/provisioner/CMakeFiles/light_switch_provisioner_nrf52840_xxAA_s140_6.0.0.dir/__/__/__/mesh/core/src/timeslot.c.obj
                0x0002cbd0                timeslot_init
 .text.timeslot_start
                0x0002cc18       0x20 examples/light_switch/provisioner/CMakeFiles/light_switch_provisioner_nrf52840_xxAA_s140_6.0.0.dir/__/__/__/mesh/core/src/timeslot.c.obj
                0x0002cc18                timeslot_start
 .text.timeslot_end_is_pending
                0x0002cc38       0x24 examples/light_switch/provisioner/CMakeFiles/light_switch_provisioner_nrf52840_xxAA_s140_6.0.0.dir/__/__/__/mesh/core/src/timeslot.c.obj
                0x0002cc38                timeslot_end_is_pending
 .text.timeslot_start_time_get
                0x0002cc5c        0xc examples/light_switch/provisioner/CMakeFiles/light_switch_provisioner_nrf52840_xxAA_s140_6.0.0.dir/__/__/__/mesh/core/src/timeslot.c.obj
                0x0002cc5c                timeslot_start_time_get
 .text.timeslot_remaining_time_get
                0x0002cc68       0x20 examples/light_switch/provisioner/CMakeFiles/light_switch_provisioner_nrf52840_xxAA_s140_6.0.0.dir/__/__/__/mesh/core/src/timeslot.c.obj
                0x0002cc68                timeslot_remaining_time_get
 .text.timeslot_is_in_cb
                0x0002cc88        0xc examples/light_switch/provisioner/CMakeFiles/light_switch_provisioner_nrf52840_xxAA_s140_6.0.0.dir/__/__/__/mesh/core/src/timeslot.c.obj
                0x0002cc88                timeslot_is_in_cb
 .text.timeslot_trigger
                0x0002cc94       0x24 examples/light_switch/provisioner/CMakeFiles/light_switch_provisioner_nrf52840_xxAA_s140_6.0.0.dir/__/__/__/mesh/core/src/timeslot.c.obj
                0x0002cc94                timeslot_trigger
 .text.timeslot_stop
                0x0002ccb8       0x10 examples/light_switch/provisioner/CMakeFiles/light_switch_provisioner_nrf52840_xxAA_s140_6.0.0.dir/__/__/__/mesh/core/src/timeslot.c.obj
                0x0002ccb8                timeslot_stop
 .text.timeslot_state_lock
                0x0002ccc8       0x28 examples/light_switch/provisioner/CMakeFiles/light_switch_provisioner_nrf52840_xxAA_s140_6.0.0.dir/__/__/__/mesh/core/src/timeslot.c.obj
                0x0002ccc8                timeslot_state_lock
 .text.trigger_event_handler
                0x0002ccf0       0x1c examples/light_switch/provisioner/CMakeFiles/light_switch_provisioner_nrf52840_xxAA_s140_6.0.0.dir/__/__/__/mesh/core/src/bearer_event.c.obj
 .text.evt_push
                0x0002cd0c       0x1c examples/light_switch/provisioner/CMakeFiles/light_switch_provisioner_nrf52840_xxAA_s140_6.0.0.dir/__/__/__/mesh/core/src/bearer_event.c.obj
 .text.bearer_event_init
                0x0002cd28       0x48 examples/light_switch/provisioner/CMakeFiles/light_switch_provisioner_nrf52840_xxAA_s140_6.0.0.dir/__/__/__/mesh/core/src/bearer_event.c.obj
                0x0002cd28                bearer_event_init
 .text.bearer_event_timer_post
                0x0002cd70       0x24 examples/light_switch/provisioner/CMakeFiles/light_switch_provisioner_nrf52840_xxAA_s140_6.0.0.dir/__/__/__/mesh/core/src/bearer_event.c.obj
                0x0002cd70                bearer_event_timer_post
 .text.bearer_event_critical_section_begin
                0x0002cd94       0x44 examples/light_switch/provisioner/CMakeFiles/light_switch_provisioner_nrf52840_xxAA_s140_6.0.0.dir/__/__/__/mesh/core/src/bearer_event.c.obj
                0x0002cd94                bearer_event_critical_section_begin
 .text.bearer_event_critical_section_end
                0x0002cdd8       0x40 examples/light_switch/provisioner/CMakeFiles/light_switch_provisioner_nrf52840_xxAA_s140_6.0.0.dir/__/__/__/mesh/core/src/bearer_event.c.obj
                0x0002cdd8                bearer_event_critical_section_end
 .text.bearer_event_flag_add
                0x0002ce18       0x3c examples/light_switch/provisioner/CMakeFiles/light_switch_provisioner_nrf52840_xxAA_s140_6.0.0.dir/__/__/__/mesh/core/src/bearer_event.c.obj
                0x0002ce18                bearer_event_flag_add
 .text.bearer_event_flag_set
                0x0002ce54       0x44 examples/light_switch/provisioner/CMakeFiles/light_switch_provisioner_nrf52840_xxAA_s140_6.0.0.dir/__/__/__/mesh/core/src/bearer_event.c.obj
                0x0002ce54                bearer_event_flag_set
 .text.bearer_event_sequential_add
                0x0002ce98       0x2e examples/light_switch/provisioner/CMakeFiles/light_switch_provisioner_nrf52840_xxAA_s140_6.0.0.dir/__/__/__/mesh/core/src/bearer_event.c.obj
                0x0002ce98                bearer_event_sequential_add
 *fill*         0x0002cec6        0x2 
 .text.bearer_event_sequential_post
                0x0002cec8       0x44 examples/light_switch/provisioner/CMakeFiles/light_switch_provisioner_nrf52840_xxAA_s140_6.0.0.dir/__/__/__/mesh/core/src/bearer_event.c.obj
                0x0002cec8                bearer_event_sequential_post
 .text.bearer_event_sequential_pending
                0x0002cf0c       0x10 examples/light_switch/provisioner/CMakeFiles/light_switch_provisioner_nrf52840_xxAA_s140_6.0.0.dir/__/__/__/mesh/core/src/bearer_event.c.obj
                0x0002cf0c                bearer_event_sequential_pending
 .text.bearer_event_handler
                0x0002cf1c       0xe8 examples/light_switch/provisioner/CMakeFiles/light_switch_provisioner_nrf52840_xxAA_s140_6.0.0.dir/__/__/__/mesh/core/src/bearer_event.c.obj
                0x0002cf1c                bearer_event_handler
 .text.QDEC_IRQHandler
                0x0002d004        0x4 examples/light_switch/provisioner/CMakeFiles/light_switch_provisioner_nrf52840_xxAA_s140_6.0.0.dir/__/__/__/mesh/core/src/bearer_event.c.obj
                0x0002d004                QDEC_IRQHandler
 .text.enc_aes_encrypt
                0x0002d008        0x4 examples/light_switch/provisioner/CMakeFiles/light_switch_provisioner_nrf52840_xxAA_s140_6.0.0.dir/__/__/__/mesh/core/src/enc.c.obj
                0x0002d008                enc_aes_encrypt
 .text.enc_aes_cmac
                0x0002d00c        0x4 examples/light_switch/provisioner/CMakeFiles/light_switch_provisioner_nrf52840_xxAA_s140_6.0.0.dir/__/__/__/mesh/core/src/enc.c.obj
                0x0002d00c                enc_aes_cmac
 .text.enc_aes_ccm_encrypt
                0x0002d010        0x4 examples/light_switch/provisioner/CMakeFiles/light_switch_provisioner_nrf52840_xxAA_s140_6.0.0.dir/__/__/__/mesh/core/src/enc.c.obj
                0x0002d010                enc_aes_ccm_encrypt
 .text.enc_aes_ccm_decrypt
                0x0002d014        0x4 examples/light_switch/provisioner/CMakeFiles/light_switch_provisioner_nrf52840_xxAA_s140_6.0.0.dir/__/__/__/mesh/core/src/enc.c.obj
                0x0002d014                enc_aes_ccm_decrypt
 .text.enc_nonce_generate
                0x0002d018       0xbc examples/light_switch/provisioner/CMakeFiles/light_switch_provisioner_nrf52840_xxAA_s140_6.0.0.dir/__/__/__/mesh/core/src/enc.c.obj
                0x0002d018                enc_nonce_generate
 .text.enc_s1   0x0002d0d4       0x2c examples/light_switch/provisioner/CMakeFiles/light_switch_provisioner_nrf52840_xxAA_s140_6.0.0.dir/__/__/__/mesh/core/src/enc.c.obj
                0x0002d0d4                enc_s1
 .text.enc_k1   0x0002d100       0x3c examples/light_switch/provisioner/CMakeFiles/light_switch_provisioner_nrf52840_xxAA_s140_6.0.0.dir/__/__/__/mesh/core/src/enc.c.obj
                0x0002d100                enc_k1
 .text.enc_k2   0x0002d13c       0xc8 examples/light_switch/provisioner/CMakeFiles/light_switch_provisioner_nrf52840_xxAA_s140_6.0.0.dir/__/__/__/mesh/core/src/enc.c.obj
                0x0002d13c                enc_k2
 .text.enc_k3   0x0002d204       0x5c examples/light_switch/provisioner/CMakeFiles/light_switch_provisioner_nrf52840_xxAA_s140_6.0.0.dir/__/__/__/mesh/core/src/enc.c.obj
                0x0002d204                enc_k3
 .text.enc_k4   0x0002d260       0x54 examples/light_switch/provisioner/CMakeFiles/light_switch_provisioner_nrf52840_xxAA_s140_6.0.0.dir/__/__/__/mesh/core/src/enc.c.obj
                0x0002d260                enc_k4
 .text.allocate_packet
                0x0002d2b4       0x6a examples/light_switch/provisioner/CMakeFiles/light_switch_provisioner_nrf52840_xxAA_s140_6.0.0.dir/__/__/__/mesh/core/src/network.c.obj
 *fill*         0x0002d31e        0x2 
 .text.network_init
                0x0002d320       0x2c examples/light_switch/provisioner/CMakeFiles/light_switch_provisioner_nrf52840_xxAA_s140_6.0.0.dir/__/__/__/mesh/core/src/network.c.obj
                0x0002d320                network_init
 .text.network_opt_set
                0x0002d34c       0x70 examples/light_switch/provisioner/CMakeFiles/light_switch_provisioner_nrf52840_xxAA_s140_6.0.0.dir/__/__/__/mesh/core/src/network.c.obj
                0x0002d34c                network_opt_set
 .text.network_opt_get
                0x0002d3bc       0x4c examples/light_switch/provisioner/CMakeFiles/light_switch_provisioner_nrf52840_xxAA_s140_6.0.0.dir/__/__/__/mesh/core/src/network.c.obj
                0x0002d3bc                network_opt_get
 .text.network_packet_alloc
                0x0002d408       0x30 examples/light_switch/provisioner/CMakeFiles/light_switch_provisioner_nrf52840_xxAA_s140_6.0.0.dir/__/__/__/mesh/core/src/network.c.obj
                0x0002d408                network_packet_alloc
 .text.network_packet_send
                0x0002d438       0x46 examples/light_switch/provisioner/CMakeFiles/light_switch_provisioner_nrf52840_xxAA_s140_6.0.0.dir/__/__/__/mesh/core/src/network.c.obj
                0x0002d438                network_packet_send
 *fill*         0x0002d47e        0x2 
 .text.network_packet_in
                0x0002d480      0x168 examples/light_switch/provisioner/CMakeFiles/light_switch_provisioner_nrf52840_xxAA_s140_6.0.0.dir/__/__/__/mesh/core/src/network.c.obj
                0x0002d480                network_packet_in
 .text.nonce_type_get
                0x0002d5e8       0x16 examples/light_switch/provisioner/CMakeFiles/light_switch_provisioner_nrf52840_xxAA_s140_6.0.0.dir/__/__/__/mesh/core/src/net_packet.c.obj
 .text.header_transfuscate
                0x0002d5fe       0x54 examples/light_switch/provisioner/CMakeFiles/light_switch_provisioner_nrf52840_xxAA_s140_6.0.0.dir/__/__/__/mesh/core/src/net_packet.c.obj
 *fill*         0x0002d652        0x2 
 .text.net_packet_decrypt
                0x0002d654      0x224 examples/light_switch/provisioner/CMakeFiles/light_switch_provisioner_nrf52840_xxAA_s140_6.0.0.dir/__/__/__/mesh/core/src/net_packet.c.obj
                0x0002d654                net_packet_decrypt
 .text.net_packet_encrypt
                0x0002d878       0x7e examples/light_switch/provisioner/CMakeFiles/light_switch_provisioner_nrf52840_xxAA_s140_6.0.0.dir/__/__/__/mesh/core/src/net_packet.c.obj
                0x0002d878                net_packet_encrypt
 .text.net_packet_header_set
                0x0002d8f6       0xaa examples/light_switch/provisioner/CMakeFiles/light_switch_provisioner_nrf52840_xxAA_s140_6.0.0.dir/__/__/__/mesh/core/src/net_packet.c.obj
                0x0002d8f6                net_packet_header_set
 .text.net_packet_payload_len_get
                0x0002d9a0       0x10 examples/light_switch/provisioner/CMakeFiles/light_switch_provisioner_nrf52840_xxAA_s140_6.0.0.dir/__/__/__/mesh/core/src/net_packet.c.obj
                0x0002d9a0                net_packet_payload_len_get
 .text.net_packet_from_payload
                0x0002d9b0        0x4 examples/light_switch/provisioner/CMakeFiles/light_switch_provisioner_nrf52840_xxAA_s140_6.0.0.dir/__/__/__/mesh/core/src/net_packet.c.obj
                0x0002d9b0                net_packet_from_payload
 .text.net_packet_obfuscation_start_get
                0x0002d9b4        0x4 examples/light_switch/provisioner/CMakeFiles/light_switch_provisioner_nrf52840_xxAA_s140_6.0.0.dir/__/__/__/mesh/core/src/net_packet.c.obj
                0x0002d9b4                net_packet_obfuscation_start_get
 .text.stage_get_available
                0x0002d9b8       0x24 examples/light_switch/provisioner/CMakeFiles/light_switch_provisioner_nrf52840_xxAA_s140_6.0.0.dir/__/__/__/mesh/core/src/msqueue.c.obj
 .text.msq_get  0x0002d9dc       0x38 examples/light_switch/provisioner/CMakeFiles/light_switch_provisioner_nrf52840_xxAA_s140_6.0.0.dir/__/__/__/mesh/core/src/msqueue.c.obj
                0x0002d9dc                msq_get
 .text.msq_move
                0x0002da14       0x2e examples/light_switch/provisioner/CMakeFiles/light_switch_provisioner_nrf52840_xxAA_s140_6.0.0.dir/__/__/__/mesh/core/src/msqueue.c.obj
                0x0002da14                msq_move
 .text.msq_reset
                0x0002da42       0x20 examples/light_switch/provisioner/CMakeFiles/light_switch_provisioner_nrf52840_xxAA_s140_6.0.0.dir/__/__/__/mesh/core/src/msqueue.c.obj
                0x0002da42                msq_reset
 .text.msq_init
                0x0002da62       0x4a examples/light_switch/provisioner/CMakeFiles/light_switch_provisioner_nrf52840_xxAA_s140_6.0.0.dir/__/__/__/mesh/core/src/msqueue.c.obj
                0x0002da62                msq_init
 .text.msq_available
                0x0002daac       0x26 examples/light_switch/provisioner/CMakeFiles/light_switch_provisioner_nrf52840_xxAA_s140_6.0.0.dir/__/__/__/mesh/core/src/msqueue.c.obj
                0x0002daac                msq_available
 .text.nrf_mesh_keygen_aid
                0x0002dad2       0x12 examples/light_switch/provisioner/CMakeFiles/light_switch_provisioner_nrf52840_xxAA_s140_6.0.0.dir/__/__/__/mesh/core/src/nrf_mesh_keygen.c.obj
                0x0002dad2                nrf_mesh_keygen_aid
 .text.nrf_mesh_keygen_network_secmat
                0x0002dae4       0x20 examples/light_switch/provisioner/CMakeFiles/light_switch_provisioner_nrf52840_xxAA_s140_6.0.0.dir/__/__/__/mesh/core/src/nrf_mesh_keygen.c.obj
                0x0002dae4                nrf_mesh_keygen_network_secmat
 .text.nrf_mesh_keygen_beacon_secmat
                0x0002db04       0x50 examples/light_switch/provisioner/CMakeFiles/light_switch_provisioner_nrf52840_xxAA_s140_6.0.0.dir/__/__/__/mesh/core/src/nrf_mesh_keygen.c.obj
                0x0002db04                nrf_mesh_keygen_beacon_secmat
 .text.nrf_mesh_keygen_virtual_address
                0x0002db54       0x50 examples/light_switch/provisioner/CMakeFiles/light_switch_provisioner_nrf52840_xxAA_s140_6.0.0.dir/__/__/__/mesh/core/src/nrf_mesh_keygen.c.obj
                0x0002db54                nrf_mesh_keygen_virtual_address
 .text.list_insert
                0x0002dba4       0x1c examples/light_switch/provisioner/CMakeFiles/light_switch_provisioner_nrf52840_xxAA_s140_6.0.0.dir/__/__/__/mesh/core/src/list.c.obj
 .text.list_add
                0x0002dbc0       0x42 examples/light_switch/provisioner/CMakeFiles/light_switch_provisioner_nrf52840_xxAA_s140_6.0.0.dir/__/__/__/mesh/core/src/list.c.obj
                0x0002dbc0                list_add
 .text.list_remove
                0x0002dc02       0x3a examples/light_switch/provisioner/CMakeFiles/light_switch_provisioner_nrf52840_xxAA_s140_6.0.0.dir/__/__/__/mesh/core/src/list.c.obj
                0x0002dc02                list_remove
 .text.list_compare_add
                0x0002dc3c       0x56 examples/light_switch/provisioner/CMakeFiles/light_switch_provisioner_nrf52840_xxAA_s140_6.0.0.dir/__/__/__/mesh/core/src/list.c.obj
                0x0002dc3c                list_compare_add
 *fill*         0x0002dc92        0x2 
 .text.log_callback_rtt
                0x0002dc94       0x2c examples/light_switch/provisioner/CMakeFiles/light_switch_provisioner_nrf52840_xxAA_s140_6.0.0.dir/__/__/__/mesh/core/src/log.c.obj
                0x0002dc94                log_callback_rtt
 .text.log_init
                0x0002dcc0       0x1c examples/light_switch/provisioner/CMakeFiles/light_switch_provisioner_nrf52840_xxAA_s140_6.0.0.dir/__/__/__/mesh/core/src/log.c.obj
                0x0002dcc0                log_init
 .text.log_vprintf
                0x0002dcdc       0x18 examples/light_switch/provisioner/CMakeFiles/light_switch_provisioner_nrf52840_xxAA_s140_6.0.0.dir/__/__/__/mesh/core/src/log.c.obj
                0x0002dcdc                log_vprintf
 .text.log_printf
                0x0002dcf4       0x18 examples/light_switch/provisioner/CMakeFiles/light_switch_provisioner_nrf52840_xxAA_s140_6.0.0.dir/__/__/__/mesh/core/src/log.c.obj
                0x0002dcf4                log_printf
 .text.get_area_end
                0x0002dd0c        0xc examples/light_switch/provisioner/CMakeFiles/light_switch_provisioner_nrf52840_xxAA_s140_6.0.0.dir/__/__/__/mesh/core/src/flash_manager.c.obj
 .text.handle_matches_filter
                0x0002dd18       0x26 examples/light_switch/provisioner/CMakeFiles/light_switch_provisioner_nrf52840_xxAA_s140_6.0.0.dir/__/__/__/mesh/core/src/flash_manager.c.obj
 .text.flash_area_is_blank
                0x0002dd3e       0x34 examples/light_switch/provisioner/CMakeFiles/light_switch_provisioner_nrf52840_xxAA_s140_6.0.0.dir/__/__/__/mesh/core/src/flash_manager.c.obj
 *fill*         0x0002dd72        0x2 
 .text.get_packet_buffer
                0x0002dd74       0x20 examples/light_switch/provisioner/CMakeFiles/light_switch_provisioner_nrf52840_xxAA_s140_6.0.0.dir/__/__/__/mesh/core/src/flash_manager.c.obj
 .text.flash    0x0002dd94       0x1c examples/light_switch/provisioner/CMakeFiles/light_switch_provisioner_nrf52840_xxAA_s140_6.0.0.dir/__/__/__/mesh/core/src/flash_manager.c.obj
 .text.free_packet_buffer
                0x0002ddb0       0x3c examples/light_switch/provisioner/CMakeFiles/light_switch_provisioner_nrf52840_xxAA_s140_6.0.0.dir/__/__/__/mesh/core/src/flash_manager.c.obj
 .text.reserve_action_buffer
                0x0002ddec       0x24 examples/light_switch/provisioner/CMakeFiles/light_switch_provisioner_nrf52840_xxAA_s140_6.0.0.dir/__/__/__/mesh/core/src/flash_manager.c.obj
 .text.commit_action_buffer
                0x0002de10       0x18 examples/light_switch/provisioner/CMakeFiles/light_switch_provisioner_nrf52840_xxAA_s140_6.0.0.dir/__/__/__/mesh/core/src/flash_manager.c.obj
 .text.schedule_processing
                0x0002de28        0xc examples/light_switch/provisioner/CMakeFiles/light_switch_provisioner_nrf52840_xxAA_s140_6.0.0.dir/__/__/__/mesh/core/src/flash_manager.c.obj
 .text.get_next_entry
                0x0002de34       0x34 examples/light_switch/provisioner/CMakeFiles/light_switch_provisioner_nrf52840_xxAA_s140_6.0.0.dir/__/__/__/mesh/core/src/flash_manager.c.obj
 .text.get_last_entry.isra.1
                0x0002de68       0x30 examples/light_switch/provisioner/CMakeFiles/light_switch_provisioner_nrf52840_xxAA_s140_6.0.0.dir/__/__/__/mesh/core/src/flash_manager.c.obj
 .text.process_action_queue
                0x0002de98      0x3b0 examples/light_switch/provisioner/CMakeFiles/light_switch_provisioner_nrf52840_xxAA_s140_6.0.0.dir/__/__/__/mesh/core/src/flash_manager.c.obj
 .text.flash_op_ended_callback
                0x0002e248       0x24 examples/light_switch/provisioner/CMakeFiles/light_switch_provisioner_nrf52840_xxAA_s140_6.0.0.dir/__/__/__/mesh/core/src/flash_manager.c.obj
 .text.flash_manager_init
                0x0002e26c       0x68 examples/light_switch/provisioner/CMakeFiles/light_switch_provisioner_nrf52840_xxAA_s140_6.0.0.dir/__/__/__/mesh/core/src/flash_manager.c.obj
                0x0002e26c                flash_manager_init
 .text.flash_manager_remove
                0x0002e2d4       0x24 examples/light_switch/provisioner/CMakeFiles/light_switch_provisioner_nrf52840_xxAA_s140_6.0.0.dir/__/__/__/mesh/core/src/flash_manager.c.obj
                0x0002e2d4                flash_manager_remove
 .text.flash_manager_entry_get
                0x0002e2f8       0x3c examples/light_switch/provisioner/CMakeFiles/light_switch_provisioner_nrf52840_xxAA_s140_6.0.0.dir/__/__/__/mesh/core/src/flash_manager.c.obj
                0x0002e2f8                flash_manager_entry_get
 .text.flash_manager_entry_next_get
                0x0002e334       0x60 examples/light_switch/provisioner/CMakeFiles/light_switch_provisioner_nrf52840_xxAA_s140_6.0.0.dir/__/__/__/mesh/core/src/flash_manager.c.obj
                0x0002e334                flash_manager_entry_next_get
 .text.flash_manager_entry_alloc
                0x0002e394       0x5c examples/light_switch/provisioner/CMakeFiles/light_switch_provisioner_nrf52840_xxAA_s140_6.0.0.dir/__/__/__/mesh/core/src/flash_manager.c.obj
                0x0002e394                flash_manager_entry_alloc
 .text.flash_manager_entry_commit
                0x0002e3f0       0x2c examples/light_switch/provisioner/CMakeFiles/light_switch_provisioner_nrf52840_xxAA_s140_6.0.0.dir/__/__/__/mesh/core/src/flash_manager.c.obj
                0x0002e3f0                flash_manager_entry_commit
 .text.flash_manager_entry_invalidate
                0x0002e41c       0x4e examples/light_switch/provisioner/CMakeFiles/light_switch_provisioner_nrf52840_xxAA_s140_6.0.0.dir/__/__/__/mesh/core/src/flash_manager.c.obj
                0x0002e41c                flash_manager_entry_invalidate
 .text.flash_manager_add
                0x0002e46a      0x1f6 examples/light_switch/provisioner/CMakeFiles/light_switch_provisioner_nrf52840_xxAA_s140_6.0.0.dir/__/__/__/mesh/core/src/flash_manager.c.obj
                0x0002e46a                flash_manager_add
 .text.flash_manager_mem_listener_register
                0x0002e660       0x30 examples/light_switch/provisioner/CMakeFiles/light_switch_provisioner_nrf52840_xxAA_s140_6.0.0.dir/__/__/__/mesh/core/src/flash_manager.c.obj
                0x0002e660                flash_manager_mem_listener_register
 .text.flash_manager_is_stable
                0x0002e690       0x24 examples/light_switch/provisioner/CMakeFiles/light_switch_provisioner_nrf52840_xxAA_s140_6.0.0.dir/__/__/__/mesh/core/src/flash_manager.c.obj
                0x0002e690                flash_manager_is_stable
 .text.flash_manager_on_defrag_end
                0x0002e6b4       0x4c examples/light_switch/provisioner/CMakeFiles/light_switch_provisioner_nrf52840_xxAA_s140_6.0.0.dir/__/__/__/mesh/core/src/flash_manager.c.obj
                0x0002e6b4                flash_manager_on_defrag_end
 .text.flash_manager_recovery_page_get
                0x0002e700        0x4 examples/light_switch/provisioner/CMakeFiles/light_switch_provisioner_nrf52840_xxAA_s140_6.0.0.dir/__/__/__/mesh/core/src/flash_manager.c.obj
                0x0002e700                flash_manager_recovery_page_get
 .text.flash_manager_action_queue_empty_cb_set
                0x0002e704       0x1c examples/light_switch/provisioner/CMakeFiles/light_switch_provisioner_nrf52840_xxAA_s140_6.0.0.dir/__/__/__/mesh/core/src/flash_manager.c.obj
                0x0002e704                flash_manager_action_queue_empty_cb_set
 .text.utils_xor
                0x0002e720       0x14 examples/light_switch/provisioner/CMakeFiles/light_switch_provisioner_nrf52840_xxAA_s140_6.0.0.dir/__/__/__/mesh/core/src/ccm_soft.c.obj
 .text.ccm_soft_authenticate_blocks
                0x0002e734       0x68 examples/light_switch/provisioner/CMakeFiles/light_switch_provisioner_nrf52840_xxAA_s140_6.0.0.dir/__/__/__/mesh/core/src/ccm_soft.c.obj
 .text.utils_reverse_memcpy.constprop.0
                0x0002e79c        0xa examples/light_switch/provisioner/CMakeFiles/light_switch_provisioner_nrf52840_xxAA_s140_6.0.0.dir/__/__/__/mesh/core/src/ccm_soft.c.obj
 .text.ccm_soft_authenticate
                0x0002e7a6       0xa0 examples/light_switch/provisioner/CMakeFiles/light_switch_provisioner_nrf52840_xxAA_s140_6.0.0.dir/__/__/__/mesh/core/src/ccm_soft.c.obj
 .text.ccm_soft_crypt
                0x0002e846       0x6c examples/light_switch/provisioner/CMakeFiles/light_switch_provisioner_nrf52840_xxAA_s140_6.0.0.dir/__/__/__/mesh/core/src/ccm_soft.c.obj
 .text.ccm_soft_encrypt
                0x0002e8b2       0x70 examples/light_switch/provisioner/CMakeFiles/light_switch_provisioner_nrf52840_xxAA_s140_6.0.0.dir/__/__/__/mesh/core/src/ccm_soft.c.obj
                0x0002e8b2                ccm_soft_encrypt
 .text.ccm_soft_decrypt
                0x0002e922       0xfe examples/light_switch/provisioner/CMakeFiles/light_switch_provisioner_nrf52840_xxAA_s140_6.0.0.dir/__/__/__/mesh/core/src/ccm_soft.c.obj
                0x0002e922                ccm_soft_decrypt
 .text.replay_cache_add
                0x0002ea20       0x58 examples/light_switch/provisioner/CMakeFiles/light_switch_provisioner_nrf52840_xxAA_s140_6.0.0.dir/__/__/__/mesh/core/src/replay_cache.c.obj
                0x0002ea20                replay_cache_add
 .text.replay_cache_has_elem
                0x0002ea78       0x40 examples/light_switch/provisioner/CMakeFiles/light_switch_provisioner_nrf52840_xxAA_s140_6.0.0.dir/__/__/__/mesh/core/src/replay_cache.c.obj
                0x0002ea78                replay_cache_has_elem
 .text.replay_cache_clear
                0x0002eab8       0x20 examples/light_switch/provisioner/CMakeFiles/light_switch_provisioner_nrf52840_xxAA_s140_6.0.0.dir/__/__/__/mesh/core/src/replay_cache.c.obj
                0x0002eab8                replay_cache_clear
 .text.replay_cache_init
                0x0002ead8        0x4 examples/light_switch/provisioner/CMakeFiles/light_switch_provisioner_nrf52840_xxAA_s140_6.0.0.dir/__/__/__/mesh/core/src/replay_cache.c.obj
                0x0002ead8                replay_cache_init
 .text.beacon_create
                0x0002eadc       0x46 examples/light_switch/provisioner/CMakeFiles/light_switch_provisioner_nrf52840_xxAA_s140_6.0.0.dir/__/__/__/mesh/core/src/beacon.c.obj
                0x0002eadc                beacon_create
 *fill*         0x0002eb22        0x2 
 .text.beacon_packet_in
                0x0002eb24      0x154 examples/light_switch/provisioner/CMakeFiles/light_switch_provisioner_nrf52840_xxAA_s140_6.0.0.dir/__/__/__/mesh/core/src/beacon.c.obj
                0x0002eb24                beacon_packet_in
 .text.entry_get
                0x0002ec78       0x78 examples/light_switch/provisioner/CMakeFiles/light_switch_provisioner_nrf52840_xxAA_s140_6.0.0.dir/__/__/__/mesh/core/src/flash_manager_internal.c.obj
                0x0002ec78                entry_get
 .text.core_tx_complete_cb_set
                0x0002ecf0        0xc examples/light_switch/provisioner/CMakeFiles/light_switch_provisioner_nrf52840_xxAA_s140_6.0.0.dir/__/__/__/mesh/core/src/core_tx.c.obj
                0x0002ecf0                core_tx_complete_cb_set
 .text.core_tx_packet_alloc
                0x0002ecfc       0x98 examples/light_switch/provisioner/CMakeFiles/light_switch_provisioner_nrf52840_xxAA_s140_6.0.0.dir/__/__/__/mesh/core/src/core_tx.c.obj
                0x0002ecfc                core_tx_packet_alloc
 .text.core_tx_packet_send
                0x0002ed94       0x4c examples/light_switch/provisioner/CMakeFiles/light_switch_provisioner_nrf52840_xxAA_s140_6.0.0.dir/__/__/__/mesh/core/src/core_tx.c.obj
                0x0002ed94                core_tx_packet_send
 .text.core_tx_packet_discard
                0x0002ede0       0x40 examples/light_switch/provisioner/CMakeFiles/light_switch_provisioner_nrf52840_xxAA_s140_6.0.0.dir/__/__/__/mesh/core/src/core_tx.c.obj
                0x0002ede0                core_tx_packet_discard
 .text.core_tx_complete
                0x0002ee20       0x34 examples/light_switch/provisioner/CMakeFiles/light_switch_provisioner_nrf52840_xxAA_s140_6.0.0.dir/__/__/__/mesh/core/src/core_tx.c.obj
                0x0002ee20                core_tx_complete
 .text.core_tx_bearer_add
                0x0002ee54       0x70 examples/light_switch/provisioner/CMakeFiles/light_switch_provisioner_nrf52840_xxAA_s140_6.0.0.dir/__/__/__/mesh/core/src/core_tx.c.obj
                0x0002ee54                core_tx_bearer_add
 .text.heartbeat_subscription_timer_cb
                0x0002eec4       0x1c examples/light_switch/provisioner/CMakeFiles/light_switch_provisioner_nrf52840_xxAA_s140_6.0.0.dir/__/__/__/mesh/core/src/heartbeat.c.obj
 .text.heartbeat_opcode_handle
                0x0002eee0       0x88 examples/light_switch/provisioner/CMakeFiles/light_switch_provisioner_nrf52840_xxAA_s140_6.0.0.dir/__/__/__/mesh/core/src/heartbeat.c.obj
 .text.heartbeat_send
                0x0002ef68       0xb0 examples/light_switch/provisioner/CMakeFiles/light_switch_provisioner_nrf52840_xxAA_s140_6.0.0.dir/__/__/__/mesh/core/src/heartbeat.c.obj
 .text.heartbeat_publication_timer_cb
                0x0002f018       0xa8 examples/light_switch/provisioner/CMakeFiles/light_switch_provisioner_nrf52840_xxAA_s140_6.0.0.dir/__/__/__/mesh/core/src/heartbeat.c.obj
 .text.heartbeat_core_evt_cb
                0x0002f0c0       0x7c examples/light_switch/provisioner/CMakeFiles/light_switch_provisioner_nrf52840_xxAA_s140_6.0.0.dir/__/__/__/mesh/core/src/heartbeat.c.obj
 .text.heartbeat_on_feature_change_trigger
                0x0002f13c       0x44 examples/light_switch/provisioner/CMakeFiles/light_switch_provisioner_nrf52840_xxAA_s140_6.0.0.dir/__/__/__/mesh/core/src/heartbeat.c.obj
                0x0002f13c                heartbeat_on_feature_change_trigger
 .text.heartbeat_init
                0x0002f180       0x78 examples/light_switch/provisioner/CMakeFiles/light_switch_provisioner_nrf52840_xxAA_s140_6.0.0.dir/__/__/__/mesh/core/src/heartbeat.c.obj
                0x0002f180                heartbeat_init
 .text.heartbeat_subscription_set
                0x0002f1f8       0xa4 examples/light_switch/provisioner/CMakeFiles/light_switch_provisioner_nrf52840_xxAA_s140_6.0.0.dir/__/__/__/mesh/core/src/heartbeat.c.obj
                0x0002f1f8                heartbeat_subscription_set
 .text.heartbeat_subscription_get
                0x0002f29c        0x8 examples/light_switch/provisioner/CMakeFiles/light_switch_provisioner_nrf52840_xxAA_s140_6.0.0.dir/__/__/__/mesh/core/src/heartbeat.c.obj
                0x0002f29c                heartbeat_subscription_get
 .text.heartbeat_config_server_cb_set
                0x0002f2a4       0x28 examples/light_switch/provisioner/CMakeFiles/light_switch_provisioner_nrf52840_xxAA_s140_6.0.0.dir/__/__/__/mesh/core/src/heartbeat.c.obj
                0x0002f2a4                heartbeat_config_server_cb_set
 .text.heartbeat_publication_state_updated
                0x0002f2cc       0x74 examples/light_switch/provisioner/CMakeFiles/light_switch_provisioner_nrf52840_xxAA_s140_6.0.0.dir/__/__/__/mesh/core/src/heartbeat.c.obj
                0x0002f2cc                heartbeat_publication_state_updated
 .text.make_network_beacon_packet
                0x0002f340       0x50 examples/light_switch/provisioner/CMakeFiles/light_switch_provisioner_nrf52840_xxAA_s140_6.0.0.dir/__/__/__/mesh/core/src/net_beacon.c.obj
 .text.beacon_tx
                0x0002f390      0x12c examples/light_switch/provisioner/CMakeFiles/light_switch_provisioner_nrf52840_xxAA_s140_6.0.0.dir/__/__/__/mesh/core/src/net_beacon.c.obj
 .text.tx_complete_cb
                0x0002f4bc        0xe examples/light_switch/provisioner/CMakeFiles/light_switch_provisioner_nrf52840_xxAA_s140_6.0.0.dir/__/__/__/mesh/core/src/net_beacon.c.obj
 .text.beacon_tx_timeout
                0x0002f4ca        0x4 examples/light_switch/provisioner/CMakeFiles/light_switch_provisioner_nrf52840_xxAA_s140_6.0.0.dir/__/__/__/mesh/core/src/net_beacon.c.obj
 .text.is_valid_beacon_pkt.part.0
                0x0002f4ce       0x30 examples/light_switch/provisioner/CMakeFiles/light_switch_provisioner_nrf52840_xxAA_s140_6.0.0.dir/__/__/__/mesh/core/src/net_beacon.c.obj
 *fill*         0x0002f4fe        0x2 
 .text.net_beacon_init
                0x0002f500       0x94 examples/light_switch/provisioner/CMakeFiles/light_switch_provisioner_nrf52840_xxAA_s140_6.0.0.dir/__/__/__/mesh/core/src/net_beacon.c.obj
                0x0002f500                net_beacon_init
 .text.net_beacon_state_set
                0x0002f594       0x34 examples/light_switch/provisioner/CMakeFiles/light_switch_provisioner_nrf52840_xxAA_s140_6.0.0.dir/__/__/__/mesh/core/src/net_beacon.c.obj
                0x0002f594                net_beacon_state_set
 .text.net_beacon_state_get
                0x0002f5c8        0xc examples/light_switch/provisioner/CMakeFiles/light_switch_provisioner_nrf52840_xxAA_s140_6.0.0.dir/__/__/__/mesh/core/src/net_beacon.c.obj
                0x0002f5c8                net_beacon_state_get
 .text.net_beacon_packet_in
                0x0002f5d4       0xf2 examples/light_switch/provisioner/CMakeFiles/light_switch_provisioner_nrf52840_xxAA_s140_6.0.0.dir/__/__/__/mesh/core/src/net_beacon.c.obj
                0x0002f5d4                net_beacon_packet_in
 *fill*         0x0002f6c6        0x2 
 .text.packet_discard
                0x0002f6c8       0x40 examples/light_switch/provisioner/CMakeFiles/light_switch_provisioner_nrf52840_xxAA_s140_6.0.0.dir/__/__/__/mesh/core/src/core_tx_adv.c.obj
 .text.packet_send
                0x0002f708       0x58 examples/light_switch/provisioner/CMakeFiles/light_switch_provisioner_nrf52840_xxAA_s140_6.0.0.dir/__/__/__/mesh/core/src/core_tx_adv.c.obj
 .text.packet_alloc
                0x0002f760       0x58 examples/light_switch/provisioner/CMakeFiles/light_switch_provisioner_nrf52840_xxAA_s140_6.0.0.dir/__/__/__/mesh/core/src/core_tx_adv.c.obj
 .text.adv_tx_complete_callback
                0x0002f7b8       0x20 examples/light_switch/provisioner/CMakeFiles/light_switch_provisioner_nrf52840_xxAA_s140_6.0.0.dir/__/__/__/mesh/core/src/core_tx_adv.c.obj
 .text.core_tx_adv_init
                0x0002f7d8       0x60 examples/light_switch/provisioner/CMakeFiles/light_switch_provisioner_nrf52840_xxAA_s140_6.0.0.dir/__/__/__/mesh/core/src/core_tx_adv.c.obj
                0x0002f7d8                core_tx_adv_init
 .text.core_tx_adv_count_set
                0x0002f838       0x28 examples/light_switch/provisioner/CMakeFiles/light_switch_provisioner_nrf52840_xxAA_s140_6.0.0.dir/__/__/__/mesh/core/src/core_tx_adv.c.obj
                0x0002f838                core_tx_adv_count_set
 .text.core_tx_adv_count_get
                0x0002f860       0x1c examples/light_switch/provisioner/CMakeFiles/light_switch_provisioner_nrf52840_xxAA_s140_6.0.0.dir/__/__/__/mesh/core/src/core_tx_adv.c.obj
                0x0002f860                core_tx_adv_count_get
 .text.core_tx_adv_interval_set
                0x0002f87c       0x28 examples/light_switch/provisioner/CMakeFiles/light_switch_provisioner_nrf52840_xxAA_s140_6.0.0.dir/__/__/__/mesh/core/src/core_tx_adv.c.obj
                0x0002f87c                core_tx_adv_interval_set
 .text.core_tx_adv_interval_get
                0x0002f8a4       0x28 examples/light_switch/provisioner/CMakeFiles/light_switch_provisioner_nrf52840_xxAA_s140_6.0.0.dir/__/__/__/mesh/core/src/core_tx_adv.c.obj
                0x0002f8a4                core_tx_adv_interval_get
 .text.ad_listener_subscribe
                0x0002f8cc       0x5c examples/light_switch/provisioner/CMakeFiles/light_switch_provisioner_nrf52840_xxAA_s140_6.0.0.dir/__/__/__/mesh/bearer/src/ad_listener.c.obj
                0x0002f8cc                ad_listener_subscribe
 .text.ad_listener_process
                0x0002f928       0x64 examples/light_switch/provisioner/CMakeFiles/light_switch_provisioner_nrf52840_xxAA_s140_6.0.0.dir/__/__/__/mesh/bearer/src/ad_listener.c.obj
                0x0002f928                ad_listener_process
 .text.adtype_filter_handle
                0x0002f98c       0x64 examples/light_switch/provisioner/CMakeFiles/light_switch_provisioner_nrf52840_xxAA_s140_6.0.0.dir/__/__/__/mesh/bearer/src/ad_type_filter.c.obj
 .text.bearer_adtype_filtering_set
                0x0002f9f0       0x1c examples/light_switch/provisioner/CMakeFiles/light_switch_provisioner_nrf52840_xxAA_s140_6.0.0.dir/__/__/__/mesh/bearer/src/ad_type_filter.c.obj
                0x0002f9f0                bearer_adtype_filtering_set
 .text.bearer_adtype_add
                0x0002fa0c       0x20 examples/light_switch/provisioner/CMakeFiles/light_switch_provisioner_nrf52840_xxAA_s140_6.0.0.dir/__/__/__/mesh/bearer/src/ad_type_filter.c.obj
                0x0002fa0c                bearer_adtype_add
 .text.bearer_adtype_mode_set
                0x0002fa2c       0x18 examples/light_switch/provisioner/CMakeFiles/light_switch_provisioner_nrf52840_xxAA_s140_6.0.0.dir/__/__/__/mesh/bearer/src/ad_type_filter.c.obj
                0x0002fa2c                bearer_adtype_mode_set
 .text.tx_complete_event_callback
                0x0002fa44       0x28 examples/light_switch/provisioner/CMakeFiles/light_switch_provisioner_nrf52840_xxAA_s140_6.0.0.dir/__/__/__/mesh/bearer/src/advertiser.c.obj
 .text.set_gap_addr_type
                0x0002fa6c       0x26 examples/light_switch/provisioner/CMakeFiles/light_switch_provisioner_nrf52840_xxAA_s140_6.0.0.dir/__/__/__/mesh/bearer/src/advertiser.c.obj
 .text.broadcast_complete_cb
                0x0002fa92       0x46 examples/light_switch/provisioner/CMakeFiles/light_switch_provisioner_nrf52840_xxAA_s140_6.0.0.dir/__/__/__/mesh/bearer/src/advertiser.c.obj
 .text.schedule_first_time
                0x0002fad8       0x28 examples/light_switch/provisioner/CMakeFiles/light_switch_provisioner_nrf52840_xxAA_s140_6.0.0.dir/__/__/__/mesh/bearer/src/advertiser.c.obj
 .text.timeout_event
                0x0002fb00      0x10c examples/light_switch/provisioner/CMakeFiles/light_switch_provisioner_nrf52840_xxAA_s140_6.0.0.dir/__/__/__/mesh/bearer/src/advertiser.c.obj
 .text.advertiser_init
                0x0002fc0c        0xc examples/light_switch/provisioner/CMakeFiles/light_switch_provisioner_nrf52840_xxAA_s140_6.0.0.dir/__/__/__/mesh/bearer/src/advertiser.c.obj
                0x0002fc0c                advertiser_init
 .text.advertiser_enable
                0x0002fc18       0x2a examples/light_switch/provisioner/CMakeFiles/light_switch_provisioner_nrf52840_xxAA_s140_6.0.0.dir/__/__/__/mesh/bearer/src/advertiser.c.obj
                0x0002fc18                advertiser_enable
 .text.advertiser_packet_alloc
                0x0002fc42       0x76 examples/light_switch/provisioner/CMakeFiles/light_switch_provisioner_nrf52840_xxAA_s140_6.0.0.dir/__/__/__/mesh/bearer/src/advertiser.c.obj
                0x0002fc42                advertiser_packet_alloc
 .text.advertiser_packet_send
                0x0002fcb8       0x62 examples/light_switch/provisioner/CMakeFiles/light_switch_provisioner_nrf52840_xxAA_s140_6.0.0.dir/__/__/__/mesh/bearer/src/advertiser.c.obj
                0x0002fcb8                advertiser_packet_send
 .text.advertiser_packet_discard
                0x0002fd1a       0x1e examples/light_switch/provisioner/CMakeFiles/light_switch_provisioner_nrf52840_xxAA_s140_6.0.0.dir/__/__/__/mesh/bearer/src/advertiser.c.obj
                0x0002fd1a                advertiser_packet_discard
 .text.advertiser_interval_set
                0x0002fd38       0x54 examples/light_switch/provisioner/CMakeFiles/light_switch_provisioner_nrf52840_xxAA_s140_6.0.0.dir/__/__/__/mesh/bearer/src/advertiser.c.obj
                0x0002fd38                advertiser_interval_set
 .text.advertiser_flush
                0x0002fd8c       0x1e examples/light_switch/provisioner/CMakeFiles/light_switch_provisioner_nrf52840_xxAA_s140_6.0.0.dir/__/__/__/mesh/bearer/src/advertiser.c.obj
                0x0002fd8c                advertiser_flush
 *fill*         0x0002fdaa        0x2 
 .text.advertiser_address_default_get
                0x0002fdac       0x38 examples/light_switch/provisioner/CMakeFiles/light_switch_provisioner_nrf52840_xxAA_s140_6.0.0.dir/__/__/__/mesh/bearer/src/advertiser.c.obj
                0x0002fdac                advertiser_address_default_get
 .text.advertiser_instance_init
                0x0002fde4       0xa4 examples/light_switch/provisioner/CMakeFiles/light_switch_provisioner_nrf52840_xxAA_s140_6.0.0.dir/__/__/__/mesh/bearer/src/advertiser.c.obj
                0x0002fde4                advertiser_instance_init
 .text.action_switch
                0x0002fe88       0xb4 examples/light_switch/provisioner/CMakeFiles/light_switch_provisioner_nrf52840_xxAA_s140_6.0.0.dir/__/__/__/mesh/bearer/src/bearer_handler.c.obj
 .text.bearer_handler_init
                0x0002ff3c       0x2c examples/light_switch/provisioner/CMakeFiles/light_switch_provisioner_nrf52840_xxAA_s140_6.0.0.dir/__/__/__/mesh/bearer/src/bearer_handler.c.obj
                0x0002ff3c                bearer_handler_init
 .text.bearer_handler_start
                0x0002ff68       0x1c examples/light_switch/provisioner/CMakeFiles/light_switch_provisioner_nrf52840_xxAA_s140_6.0.0.dir/__/__/__/mesh/bearer/src/bearer_handler.c.obj
                0x0002ff68                bearer_handler_start
 .text.bearer_handler_action_enqueue
                0x0002ff84       0x6c examples/light_switch/provisioner/CMakeFiles/light_switch_provisioner_nrf52840_xxAA_s140_6.0.0.dir/__/__/__/mesh/bearer/src/bearer_handler.c.obj
                0x0002ff84                bearer_handler_action_enqueue
 .text.bearer_handler_action_end
                0x0002fff0       0x5c examples/light_switch/provisioner/CMakeFiles/light_switch_provisioner_nrf52840_xxAA_s140_6.0.0.dir/__/__/__/mesh/bearer/src/bearer_handler.c.obj
                0x0002fff0                bearer_handler_action_end
 .text.bearer_handler_radio_irq_handler
                0x0003004c       0x48 examples/light_switch/provisioner/CMakeFiles/light_switch_provisioner_nrf52840_xxAA_s140_6.0.0.dir/__/__/__/mesh/bearer/src/bearer_handler.c.obj
                0x0003004c                bearer_handler_radio_irq_handler
 .text.bearer_handler_timer_irq_handler
                0x00030094       0x24 examples/light_switch/provisioner/CMakeFiles/light_switch_provisioner_nrf52840_xxAA_s140_6.0.0.dir/__/__/__/mesh/bearer/src/bearer_handler.c.obj
                0x00030094                bearer_handler_timer_irq_handler
 .text.bearer_handler_on_ts_begin
                0x000300b8       0x30 examples/light_switch/provisioner/CMakeFiles/light_switch_provisioner_nrf52840_xxAA_s140_6.0.0.dir/__/__/__/mesh/bearer/src/bearer_handler.c.obj
                0x000300b8                bearer_handler_on_ts_begin
 .text.bearer_handler_on_ts_end
                0x000300e8       0x34 examples/light_switch/provisioner/CMakeFiles/light_switch_provisioner_nrf52840_xxAA_s140_6.0.0.dir/__/__/__/mesh/bearer/src/bearer_handler.c.obj
                0x000300e8                bearer_handler_on_ts_end
 .text.radio_irq_handler
                0x0003011c       0x94 examples/light_switch/provisioner/CMakeFiles/light_switch_provisioner_nrf52840_xxAA_s140_6.0.0.dir/__/__/__/mesh/bearer/src/broadcast.c.obj
 .text.broadcast_start
                0x000301b0       0x8c examples/light_switch/provisioner/CMakeFiles/light_switch_provisioner_nrf52840_xxAA_s140_6.0.0.dir/__/__/__/mesh/bearer/src/broadcast.c.obj
 .text.broadcast_send
                0x0003023c       0x6c examples/light_switch/provisioner/CMakeFiles/light_switch_provisioner_nrf52840_xxAA_s140_6.0.0.dir/__/__/__/mesh/bearer/src/broadcast.c.obj
                0x0003023c                broadcast_send
 .text.fen_filter_start
                0x000302a8       0x28 examples/light_switch/provisioner/CMakeFiles/light_switch_provisioner_nrf52840_xxAA_s140_6.0.0.dir/__/__/__/mesh/bearer/src/filter_engine.c.obj
                0x000302a8                fen_filter_start
 .text.fen_filter_stop
                0x000302d0       0x20 examples/light_switch/provisioner/CMakeFiles/light_switch_provisioner_nrf52840_xxAA_s140_6.0.0.dir/__/__/__/mesh/bearer/src/filter_engine.c.obj
                0x000302d0                fen_filter_stop
 .text.fen_filters_apply
                0x000302f0       0x34 examples/light_switch/provisioner/CMakeFiles/light_switch_provisioner_nrf52840_xxAA_s140_6.0.0.dir/__/__/__/mesh/bearer/src/filter_engine.c.obj
                0x000302f0                fen_filters_apply
 .text.radio_config_reset
                0x00030324       0x34 examples/light_switch/provisioner/CMakeFiles/light_switch_provisioner_nrf52840_xxAA_s140_6.0.0.dir/__/__/__/mesh/bearer/src/radio_config.c.obj
                0x00030324                radio_config_reset
 .text.radio_config_channel_set
                0x00030358       0x28 examples/light_switch/provisioner/CMakeFiles/light_switch_provisioner_nrf52840_xxAA_s140_6.0.0.dir/__/__/__/mesh/bearer/src/radio_config.c.obj
                0x00030358                radio_config_channel_set
 .text.radio_config_config
                0x00030380       0x90 examples/light_switch/provisioner/CMakeFiles/light_switch_provisioner_nrf52840_xxAA_s140_6.0.0.dir/__/__/__/mesh/bearer/src/radio_config.c.obj
                0x00030380                radio_config_config
 .text.radio_config_access_addr_set
                0x00030410       0x50 examples/light_switch/provisioner/CMakeFiles/light_switch_provisioner_nrf52840_xxAA_s140_6.0.0.dir/__/__/__/mesh/bearer/src/radio_config.c.obj
                0x00030410                radio_config_access_addr_set
 .text.radio_trigger
                0x00030460       0x24 examples/light_switch/provisioner/CMakeFiles/light_switch_provisioner_nrf52840_xxAA_s140_6.0.0.dir/__/__/__/mesh/bearer/src/scanner.c.obj
 .text.scan_window_end
                0x00030484       0x10 examples/light_switch/provisioner/CMakeFiles/light_switch_provisioner_nrf52840_xxAA_s140_6.0.0.dir/__/__/__/mesh/bearer/src/scanner.c.obj
 .text.scan_window_start
                0x00030494       0x24 examples/light_switch/provisioner/CMakeFiles/light_switch_provisioner_nrf52840_xxAA_s140_6.0.0.dir/__/__/__/mesh/bearer/src/scanner.c.obj
 .text.radio_configure
                0x000304b8       0x78 examples/light_switch/provisioner/CMakeFiles/light_switch_provisioner_nrf52840_xxAA_s140_6.0.0.dir/__/__/__/mesh/bearer/src/scanner.c.obj
 .text.radio_set_packet
                0x00030530       0x44 examples/light_switch/provisioner/CMakeFiles/light_switch_provisioner_nrf52840_xxAA_s140_6.0.0.dir/__/__/__/mesh/bearer/src/scanner.c.obj
 .text.radio_start
                0x00030574       0x40 examples/light_switch/provisioner/CMakeFiles/light_switch_provisioner_nrf52840_xxAA_s140_6.0.0.dir/__/__/__/mesh/bearer/src/scanner.c.obj
 .text.radio_stop
                0x000305b4       0x30 examples/light_switch/provisioner/CMakeFiles/light_switch_provisioner_nrf52840_xxAA_s140_6.0.0.dir/__/__/__/mesh/bearer/src/scanner.c.obj
 .text.schedule_timers
                0x000305e4       0x38 examples/light_switch/provisioner/CMakeFiles/light_switch_provisioner_nrf52840_xxAA_s140_6.0.0.dir/__/__/__/mesh/bearer/src/scanner.c.obj
 .text.scanner_radio_start
                0x0003061c       0x28 examples/light_switch/provisioner/CMakeFiles/light_switch_provisioner_nrf52840_xxAA_s140_6.0.0.dir/__/__/__/mesh/bearer/src/scanner.c.obj
                0x0003061c                scanner_radio_start
 .text.scanner_radio_stop
                0x00030644       0x10 examples/light_switch/provisioner/CMakeFiles/light_switch_provisioner_nrf52840_xxAA_s140_6.0.0.dir/__/__/__/mesh/bearer/src/scanner.c.obj
                0x00030644                scanner_radio_stop
 .text.scanner_radio_irq_handler
                0x00030654      0x130 examples/light_switch/provisioner/CMakeFiles/light_switch_provisioner_nrf52840_xxAA_s140_6.0.0.dir/__/__/__/mesh/bearer/src/scanner.c.obj
                0x00030654                scanner_radio_irq_handler
 .text.scanner_enable
                0x00030784       0x24 examples/light_switch/provisioner/CMakeFiles/light_switch_provisioner_nrf52840_xxAA_s140_6.0.0.dir/__/__/__/mesh/bearer/src/scanner.c.obj
                0x00030784                scanner_enable
 .text.scanner_packet_release
                0x000307a8       0x2c examples/light_switch/provisioner/CMakeFiles/light_switch_provisioner_nrf52840_xxAA_s140_6.0.0.dir/__/__/__/mesh/bearer/src/scanner.c.obj
                0x000307a8                scanner_packet_release
 .text.scanner_rx
                0x000307d4       0x30 examples/light_switch/provisioner/CMakeFiles/light_switch_provisioner_nrf52840_xxAA_s140_6.0.0.dir/__/__/__/mesh/bearer/src/scanner.c.obj
                0x000307d4                scanner_rx
 .text.scanner_rx_pending
                0x00030804        0xc examples/light_switch/provisioner/CMakeFiles/light_switch_provisioner_nrf52840_xxAA_s140_6.0.0.dir/__/__/__/mesh/bearer/src/scanner.c.obj
                0x00030804                scanner_rx_pending
 .text.scanner_config_scan_time_set
                0x00030810       0x4c examples/light_switch/provisioner/CMakeFiles/light_switch_provisioner_nrf52840_xxAA_s140_6.0.0.dir/__/__/__/mesh/bearer/src/scanner.c.obj
                0x00030810                scanner_config_scan_time_set
 .text.scanner_config_channels_set
                0x0003085c       0x50 examples/light_switch/provisioner/CMakeFiles/light_switch_provisioner_nrf52840_xxAA_s140_6.0.0.dir/__/__/__/mesh/bearer/src/scanner.c.obj
                0x0003085c                scanner_config_channels_set
 .text.scanner_config_access_addresses_set
                0x000308ac       0x38 examples/light_switch/provisioner/CMakeFiles/light_switch_provisioner_nrf52840_xxAA_s140_6.0.0.dir/__/__/__/mesh/bearer/src/scanner.c.obj
                0x000308ac                scanner_config_access_addresses_set
 .text.scanner_config_reset
                0x000308e4       0x50 examples/light_switch/provisioner/CMakeFiles/light_switch_provisioner_nrf52840_xxAA_s140_6.0.0.dir/__/__/__/mesh/bearer/src/scanner.c.obj
                0x000308e4                scanner_config_reset
 .text.scanner_init
                0x00030934       0x54 examples/light_switch/provisioner/CMakeFiles/light_switch_provisioner_nrf52840_xxAA_s140_6.0.0.dir/__/__/__/mesh/bearer/src/scanner.c.obj
                0x00030934                scanner_init
 .text.send_reliable
                0x00030988       0x74 examples/light_switch/provisioner/CMakeFiles/light_switch_provisioner_nrf52840_xxAA_s140_6.0.0.dir/__/__/__/models/config/src/config_client.c.obj
 .text.reliable_status_cb
                0x000309fc       0x4c examples/light_switch/provisioner/CMakeFiles/light_switch_provisioner_nrf52840_xxAA_s140_6.0.0.dir/__/__/__/models/config/src/config_client.c.obj
 .text.client_in_wrong_state.constprop.4
                0x00030a48       0x20 examples/light_switch/provisioner/CMakeFiles/light_switch_provisioner_nrf52840_xxAA_s140_6.0.0.dir/__/__/__/models/config/src/config_client.c.obj
 .text.config_opcode_handler
                0x00030a68       0x5c examples/light_switch/provisioner/CMakeFiles/light_switch_provisioner_nrf52840_xxAA_s140_6.0.0.dir/__/__/__/models/config/src/config_client.c.obj
 .text.subscription_add_del_owr_send.isra.1
                0x00030ac4       0x68 examples/light_switch/provisioner/CMakeFiles/light_switch_provisioner_nrf52840_xxAA_s140_6.0.0.dir/__/__/__/models/config/src/config_client.c.obj
 .text.subscription_virtual_add_del_owr_send.isra.3
                0x00030b2c       0x6c examples/light_switch/provisioner/CMakeFiles/light_switch_provisioner_nrf52840_xxAA_s140_6.0.0.dir/__/__/__/models/config/src/config_client.c.obj
 .text.app_bind_unbind_send
                0x00030b98       0x7c examples/light_switch/provisioner/CMakeFiles/light_switch_provisioner_nrf52840_xxAA_s140_6.0.0.dir/__/__/__/models/config/src/config_client.c.obj
 .text.config_client_init
                0x00030c14       0x54 examples/light_switch/provisioner/CMakeFiles/light_switch_provisioner_nrf52840_xxAA_s140_6.0.0.dir/__/__/__/models/config/src/config_client.c.obj
                0x00030c14                config_client_init
 .text.config_client_server_set
                0x00030c68       0x88 examples/light_switch/provisioner/CMakeFiles/light_switch_provisioner_nrf52840_xxAA_s140_6.0.0.dir/__/__/__/models/config/src/config_client.c.obj
                0x00030c68                config_client_server_set
 .text.config_client_server_bind
                0x00030cf0       0x30 examples/light_switch/provisioner/CMakeFiles/light_switch_provisioner_nrf52840_xxAA_s140_6.0.0.dir/__/__/__/models/config/src/config_client.c.obj
                0x00030cf0                config_client_server_bind
 .text.config_client_composition_data_get
                0x00030d20       0x48 examples/light_switch/provisioner/CMakeFiles/light_switch_provisioner_nrf52840_xxAA_s140_6.0.0.dir/__/__/__/models/config/src/config_client.c.obj
                0x00030d20                config_client_composition_data_get
 .text.config_client_appkey_add
                0x00030d68       0x80 examples/light_switch/provisioner/CMakeFiles/light_switch_provisioner_nrf52840_xxAA_s140_6.0.0.dir/__/__/__/models/config/src/config_client.c.obj
                0x00030d68                config_client_appkey_add
 .text.config_client_model_publication_set
                0x00030de8      0x170 examples/light_switch/provisioner/CMakeFiles/light_switch_provisioner_nrf52840_xxAA_s140_6.0.0.dir/__/__/__/models/config/src/config_client.c.obj
                0x00030de8                config_client_model_publication_set
 .text.config_client_model_subscription_add
                0x00030f58       0x4c examples/light_switch/provisioner/CMakeFiles/light_switch_provisioner_nrf52840_xxAA_s140_6.0.0.dir/__/__/__/models/config/src/config_client.c.obj
                0x00030f58                config_client_model_subscription_add
 .text.config_client_model_app_bind
                0x00030fa4        0xe examples/light_switch/provisioner/CMakeFiles/light_switch_provisioner_nrf52840_xxAA_s140_6.0.0.dir/__/__/__/models/config/src/config_client.c.obj
                0x00030fa4                config_client_model_app_bind
 *fill*         0x00030fb2        0x2 
 .text.config_client_pending_msg_cancel
                0x00030fb4        0xc examples/light_switch/provisioner/CMakeFiles/light_switch_provisioner_nrf52840_xxAA_s140_6.0.0.dir/__/__/__/models/config/src/config_client.c.obj
                0x00030fb4                config_client_pending_msg_cancel
 .text.config_composition_data_get
                0x00030fc0      0x186 examples/light_switch/provisioner/CMakeFiles/light_switch_provisioner_nrf52840_xxAA_s140_6.0.0.dir/__/__/__/models/config/src/composition_data.c.obj
                0x00030fc0                config_composition_data_get
 *fill*         0x00031146        0x2 
 .text.app_evt_send
                0x00031148       0x10 examples/light_switch/provisioner/CMakeFiles/light_switch_provisioner_nrf52840_xxAA_s140_6.0.0.dir/__/__/__/models/config/src/config_server.c.obj
 .text.config_server_heartbeat_publication_count_decrement
                0x00031158       0x1c examples/light_switch/provisioner/CMakeFiles/light_switch_provisioner_nrf52840_xxAA_s140_6.0.0.dir/__/__/__/models/config/src/config_server.c.obj
 .text.get_element_index
                0x00031174       0x26 examples/light_switch/provisioner/CMakeFiles/light_switch_provisioner_nrf52840_xxAA_s140_6.0.0.dir/__/__/__/models/config/src/config_server.c.obj
 *fill*         0x0003119a        0x2 
 .text.config_server_heartbeat_publication_params_get
                0x0003119c       0x34 examples/light_switch/provisioner/CMakeFiles/light_switch_provisioner_nrf52840_xxAA_s140_6.0.0.dir/__/__/__/models/config/src/config_server.c.obj
 .text.send_reply
                0x000311d0       0x34 examples/light_switch/provisioner/CMakeFiles/light_switch_provisioner_nrf52840_xxAA_s140_6.0.0.dir/__/__/__/models/config/src/config_server.c.obj
 .text.send_network_transmit_status
                0x00031204       0x72 examples/light_switch/provisioner/CMakeFiles/light_switch_provisioner_nrf52840_xxAA_s140_6.0.0.dir/__/__/__/models/config/src/config_server.c.obj
 .text.handle_config_network_transmit_set
                0x00031276       0x82 examples/light_switch/provisioner/CMakeFiles/light_switch_provisioner_nrf52840_xxAA_s140_6.0.0.dir/__/__/__/models/config/src/config_server.c.obj
 .text.handle_config_network_transmit_get
                0x000312f8        0xa examples/light_switch/provisioner/CMakeFiles/light_switch_provisioner_nrf52840_xxAA_s140_6.0.0.dir/__/__/__/models/config/src/config_server.c.obj
 *fill*         0x00031302        0x2 
 .text.handle_node_reset
                0x00031304       0x1c examples/light_switch/provisioner/CMakeFiles/light_switch_provisioner_nrf52840_xxAA_s140_6.0.0.dir/__/__/__/models/config/src/config_server.c.obj
 .text.send_netkey_status
                0x00031320       0x22 examples/light_switch/provisioner/CMakeFiles/light_switch_provisioner_nrf52840_xxAA_s140_6.0.0.dir/__/__/__/models/config/src/config_server.c.obj
 .text.send_relay_status
                0x00031342       0xa6 examples/light_switch/provisioner/CMakeFiles/light_switch_provisioner_nrf52840_xxAA_s140_6.0.0.dir/__/__/__/models/config/src/config_server.c.obj
 .text.handle_config_relay_set
                0x000313e8       0xb6 examples/light_switch/provisioner/CMakeFiles/light_switch_provisioner_nrf52840_xxAA_s140_6.0.0.dir/__/__/__/models/config/src/config_server.c.obj
 .text.handle_config_relay_get
                0x0003149e        0xa examples/light_switch/provisioner/CMakeFiles/light_switch_provisioner_nrf52840_xxAA_s140_6.0.0.dir/__/__/__/models/config/src/config_server.c.obj
 .text.send_subscription_status
                0x000314a8       0x3a examples/light_switch/provisioner/CMakeFiles/light_switch_provisioner_nrf52840_xxAA_s140_6.0.0.dir/__/__/__/models/config/src/config_server.c.obj
 .text.handle_config_gatt_proxy_set
                0x000314e2       0x22 examples/light_switch/provisioner/CMakeFiles/light_switch_provisioner_nrf52840_xxAA_s140_6.0.0.dir/__/__/__/models/config/src/config_server.c.obj
 .text.send_appkey_status
                0x00031504       0x30 examples/light_switch/provisioner/CMakeFiles/light_switch_provisioner_nrf52840_xxAA_s140_6.0.0.dir/__/__/__/models/config/src/config_server.c.obj
 .text.handle_netkey_get
                0x00031534       0x4c examples/light_switch/provisioner/CMakeFiles/light_switch_provisioner_nrf52840_xxAA_s140_6.0.0.dir/__/__/__/models/config/src/config_server.c.obj
 .text.handle_netkey_delete
                0x00031580       0xbc examples/light_switch/provisioner/CMakeFiles/light_switch_provisioner_nrf52840_xxAA_s140_6.0.0.dir/__/__/__/models/config/src/config_server.c.obj
 .text.handle_netkey_add_update
                0x0003163c       0x78 examples/light_switch/provisioner/CMakeFiles/light_switch_provisioner_nrf52840_xxAA_s140_6.0.0.dir/__/__/__/models/config/src/config_server.c.obj
 .text.status_error_sub_send
                0x000316b4      0x11e examples/light_switch/provisioner/CMakeFiles/light_switch_provisioner_nrf52840_xxAA_s140_6.0.0.dir/__/__/__/models/config/src/config_server.c.obj
 .text.delete_all_subscriptions
                0x000317d2       0x66 examples/light_switch/provisioner/CMakeFiles/light_switch_provisioner_nrf52840_xxAA_s140_6.0.0.dir/__/__/__/models/config/src/config_server.c.obj
 .text.send_publication_status
                0x00031838      0x16e examples/light_switch/provisioner/CMakeFiles/light_switch_provisioner_nrf52840_xxAA_s140_6.0.0.dir/__/__/__/models/config/src/config_server.c.obj
 .text.handle_config_key_refresh_phase_set
                0x000319a6       0xc6 examples/light_switch/provisioner/CMakeFiles/light_switch_provisioner_nrf52840_xxAA_s140_6.0.0.dir/__/__/__/models/config/src/config_server.c.obj
 .text.handle_config_default_ttl_set
                0x00031a6c       0x4e examples/light_switch/provisioner/CMakeFiles/light_switch_provisioner_nrf52840_xxAA_s140_6.0.0.dir/__/__/__/models/config/src/config_server.c.obj
 .text.send_net_beacon_state
                0x00031aba       0x2a examples/light_switch/provisioner/CMakeFiles/light_switch_provisioner_nrf52840_xxAA_s140_6.0.0.dir/__/__/__/models/config/src/config_server.c.obj
 .text.handle_config_beacon_get
                0x00031ae4        0xa examples/light_switch/provisioner/CMakeFiles/light_switch_provisioner_nrf52840_xxAA_s140_6.0.0.dir/__/__/__/models/config/src/config_server.c.obj
 *fill*         0x00031aee        0x2 
 .text.handle_heartbeat_publication_set
                0x00031af0      0x128 examples/light_switch/provisioner/CMakeFiles/light_switch_provisioner_nrf52840_xxAA_s140_6.0.0.dir/__/__/__/models/config/src/config_server.c.obj
 .text.mesh_event_cb
                0x00031c18       0x64 examples/light_switch/provisioner/CMakeFiles/light_switch_provisioner_nrf52840_xxAA_s140_6.0.0.dir/__/__/__/models/config/src/config_server.c.obj
 .text.handle_node_identity_set
                0x00031c7c       0x32 examples/light_switch/provisioner/CMakeFiles/light_switch_provisioner_nrf52840_xxAA_s140_6.0.0.dir/__/__/__/models/config/src/config_server.c.obj
 .text.handle_node_identity_get
                0x00031cae       0x2e examples/light_switch/provisioner/CMakeFiles/light_switch_provisioner_nrf52840_xxAA_s140_6.0.0.dir/__/__/__/models/config/src/config_server.c.obj
 .text.handle_config_friend_set
                0x00031cdc       0x22 examples/light_switch/provisioner/CMakeFiles/light_switch_provisioner_nrf52840_xxAA_s140_6.0.0.dir/__/__/__/models/config/src/config_server.c.obj
 .text.status_error_pub_send
                0x00031cfe       0x9a examples/light_switch/provisioner/CMakeFiles/light_switch_provisioner_nrf52840_xxAA_s140_6.0.0.dir/__/__/__/models/config/src/config_server.c.obj
 .text.handle_config_key_refresh_phase_get
                0x00031d98       0x54 examples/light_switch/provisioner/CMakeFiles/light_switch_provisioner_nrf52840_xxAA_s140_6.0.0.dir/__/__/__/models/config/src/config_server.c.obj
 .text.handle_config_default_ttl_get
                0x00031dec       0x2a examples/light_switch/provisioner/CMakeFiles/light_switch_provisioner_nrf52840_xxAA_s140_6.0.0.dir/__/__/__/models/config/src/config_server.c.obj
 .text.handle_config_beacon_set
                0x00031e16       0x42 examples/light_switch/provisioner/CMakeFiles/light_switch_provisioner_nrf52840_xxAA_s140_6.0.0.dir/__/__/__/models/config/src/config_server.c.obj
 .text.handle_composition_data_get
                0x00031e58       0x4c examples/light_switch/provisioner/CMakeFiles/light_switch_provisioner_nrf52840_xxAA_s140_6.0.0.dir/__/__/__/models/config/src/config_server.c.obj
 .text.handle_appkey_delete
                0x00031ea4       0xc2 examples/light_switch/provisioner/CMakeFiles/light_switch_provisioner_nrf52840_xxAA_s140_6.0.0.dir/__/__/__/models/config/src/config_server.c.obj
 .text.get_subscription_list.constprop.23
                0x00031f66       0x50 examples/light_switch/provisioner/CMakeFiles/light_switch_provisioner_nrf52840_xxAA_s140_6.0.0.dir/__/__/__/models/config/src/config_server.c.obj
 .text.handle_appkey_get
                0x00031fb6       0xb8 examples/light_switch/provisioner/CMakeFiles/light_switch_provisioner_nrf52840_xxAA_s140_6.0.0.dir/__/__/__/models/config/src/config_server.c.obj
 .text.heartbeat_subscription_count_encode
                0x0003206e       0x26 examples/light_switch/provisioner/CMakeFiles/light_switch_provisioner_nrf52840_xxAA_s140_6.0.0.dir/__/__/__/models/config/src/config_server.c.obj
 .text.handle_appkey_add
                0x00032094       0xba examples/light_switch/provisioner/CMakeFiles/light_switch_provisioner_nrf52840_xxAA_s140_6.0.0.dir/__/__/__/models/config/src/config_server.c.obj
 .text.handle_appkey_update
                0x0003214e       0xbc examples/light_switch/provisioner/CMakeFiles/light_switch_provisioner_nrf52840_xxAA_s140_6.0.0.dir/__/__/__/models/config/src/config_server.c.obj
 .text.heartbeat_pubsub_period_encode
                0x0003220a       0x26 examples/light_switch/provisioner/CMakeFiles/light_switch_provisioner_nrf52840_xxAA_s140_6.0.0.dir/__/__/__/models/config/src/config_server.c.obj
 .text.handle_heartbeat_publication_get
                0x00032230       0x7c examples/light_switch/provisioner/CMakeFiles/light_switch_provisioner_nrf52840_xxAA_s140_6.0.0.dir/__/__/__/models/config/src/config_server.c.obj
 .text.handle_heartbeat_subscription_get
                0x000322ac       0x82 examples/light_switch/provisioner/CMakeFiles/light_switch_provisioner_nrf52840_xxAA_s140_6.0.0.dir/__/__/__/models/config/src/config_server.c.obj
 .text.handle_heartbeat_subscription_set
                0x0003232e       0xa4 examples/light_switch/provisioner/CMakeFiles/light_switch_provisioner_nrf52840_xxAA_s140_6.0.0.dir/__/__/__/models/config/src/config_server.c.obj
 .text.handle_config_model_publication_get
                0x000323d2       0x94 examples/light_switch/provisioner/CMakeFiles/light_switch_provisioner_nrf52840_xxAA_s140_6.0.0.dir/__/__/__/models/config/src/config_server.c.obj
 .text.handle_config_model_subscription_delete_all
                0x00032466       0xca examples/light_switch/provisioner/CMakeFiles/light_switch_provisioner_nrf52840_xxAA_s140_6.0.0.dir/__/__/__/models/config/src/config_server.c.obj
 .text.handle_config_gatt_proxy_get
                0x00032530       0x20 examples/light_switch/provisioner/CMakeFiles/light_switch_provisioner_nrf52840_xxAA_s140_6.0.0.dir/__/__/__/models/config/src/config_server.c.obj
 .text.handle_config_sig_model_subscription_get
                0x00032550       0xc4 examples/light_switch/provisioner/CMakeFiles/light_switch_provisioner_nrf52840_xxAA_s140_6.0.0.dir/__/__/__/models/config/src/config_server.c.obj
 .text.handle_config_vendor_model_subscription_get
                0x00032614      0x100 examples/light_switch/provisioner/CMakeFiles/light_switch_provisioner_nrf52840_xxAA_s140_6.0.0.dir/__/__/__/models/config/src/config_server.c.obj
 .text.handle_config_model_subscription_virtual_address_delete
                0x00032714      0x110 examples/light_switch/provisioner/CMakeFiles/light_switch_provisioner_nrf52840_xxAA_s140_6.0.0.dir/__/__/__/models/config/src/config_server.c.obj
 .text.handle_config_model_subscription_virtual_address_add
                0x00032824      0x10e examples/light_switch/provisioner/CMakeFiles/light_switch_provisioner_nrf52840_xxAA_s140_6.0.0.dir/__/__/__/models/config/src/config_server.c.obj
 .text.handle_config_model_subscription_delete
                0x00032932      0x116 examples/light_switch/provisioner/CMakeFiles/light_switch_provisioner_nrf52840_xxAA_s140_6.0.0.dir/__/__/__/models/config/src/config_server.c.obj
 .text.handle_config_model_subscription_add
                0x00032a48      0x114 examples/light_switch/provisioner/CMakeFiles/light_switch_provisioner_nrf52840_xxAA_s140_6.0.0.dir/__/__/__/models/config/src/config_server.c.obj
 .text.handle_model_app_get
                0x00032b5c      0x19e examples/light_switch/provisioner/CMakeFiles/light_switch_provisioner_nrf52840_xxAA_s140_6.0.0.dir/__/__/__/models/config/src/config_server.c.obj
 .text.handle_config_model_subscription_virtual_address_overwrite
                0x00032cfa      0x128 examples/light_switch/provisioner/CMakeFiles/light_switch_provisioner_nrf52840_xxAA_s140_6.0.0.dir/__/__/__/models/config/src/config_server.c.obj
 .text.handle_config_model_subscription_overwrite
                0x00032e22      0x122 examples/light_switch/provisioner/CMakeFiles/light_switch_provisioner_nrf52840_xxAA_s140_6.0.0.dir/__/__/__/models/config/src/config_server.c.obj
 .text.handle_model_app_bind_unbind
                0x00032f44      0x174 examples/light_switch/provisioner/CMakeFiles/light_switch_provisioner_nrf52840_xxAA_s140_6.0.0.dir/__/__/__/models/config/src/config_server.c.obj
 .text.handle_config_friend_get
                0x000330b8       0x20 examples/light_switch/provisioner/CMakeFiles/light_switch_provisioner_nrf52840_xxAA_s140_6.0.0.dir/__/__/__/models/config/src/config_server.c.obj
 .text.handle_config_model_publication_set
                0x000330d8      0x2ce examples/light_switch/provisioner/CMakeFiles/light_switch_provisioner_nrf52840_xxAA_s140_6.0.0.dir/__/__/__/models/config/src/config_server.c.obj
 *fill*         0x000333a6        0x2 
 .text.config_server_init
                0x000333a8       0x64 examples/light_switch/provisioner/CMakeFiles/light_switch_provisioner_nrf52840_xxAA_s140_6.0.0.dir/__/__/__/models/config/src/config_server.c.obj
                0x000333a8                config_server_init
 .text.config_server_bind
                0x0003340c       0x10 examples/light_switch/provisioner/CMakeFiles/light_switch_provisioner_nrf52840_xxAA_s140_6.0.0.dir/__/__/__/models/config/src/config_server.c.obj
                0x0003340c                config_server_bind
 .text.packed_index_list_create
                0x0003341c       0x32 examples/light_switch/provisioner/CMakeFiles/light_switch_provisioner_nrf52840_xxAA_s140_6.0.0.dir/__/__/__/models/config/src/packed_index_list.c.obj
                0x0003341c                packed_index_list_create
 *fill*         0x0003344e        0x2 
 .text.attention_timer_set
                0x00033450       0x8c examples/light_switch/provisioner/CMakeFiles/light_switch_provisioner_nrf52840_xxAA_s140_6.0.0.dir/__/__/__/models/health/src/health_server.c.obj
 .text.attention_timer_handler
                0x000334dc       0x5c examples/light_switch/provisioner/CMakeFiles/light_switch_provisioner_nrf52840_xxAA_s140_6.0.0.dir/__/__/__/models/health/src/health_server.c.obj
 .text.send_attention_status.isra.1
                0x00033538       0x44 examples/light_switch/provisioner/CMakeFiles/light_switch_provisioner_nrf52840_xxAA_s140_6.0.0.dir/__/__/__/models/health/src/health_server.c.obj
 .text.handle_attention_set
                0x0003357c       0x32 examples/light_switch/provisioner/CMakeFiles/light_switch_provisioner_nrf52840_xxAA_s140_6.0.0.dir/__/__/__/models/health/src/health_server.c.obj
 .text.send_period_status.isra.4
                0x000335ae       0x44 examples/light_switch/provisioner/CMakeFiles/light_switch_provisioner_nrf52840_xxAA_s140_6.0.0.dir/__/__/__/models/health/src/health_server.c.obj
 .text.handle_period_set
                0x000335f2       0x28 examples/light_switch/provisioner/CMakeFiles/light_switch_provisioner_nrf52840_xxAA_s140_6.0.0.dir/__/__/__/models/health/src/health_server.c.obj
 *fill*         0x0003361a        0x2 
 .text.bitfield_next_get.part.0.constprop.13
                0x0003361c       0x44 examples/light_switch/provisioner/CMakeFiles/light_switch_provisioner_nrf52840_xxAA_s140_6.0.0.dir/__/__/__/models/health/src/health_server.c.obj
 .text.bitfield_popcount.constprop.11
                0x00033660       0x28 examples/light_switch/provisioner/CMakeFiles/light_switch_provisioner_nrf52840_xxAA_s140_6.0.0.dir/__/__/__/models/health/src/health_server.c.obj
 .text.send_fault_status
                0x00033688       0xa8 examples/light_switch/provisioner/CMakeFiles/light_switch_provisioner_nrf52840_xxAA_s140_6.0.0.dir/__/__/__/models/health/src/health_server.c.obj
 .text.health_publish_timeout_handler
                0x00033730        0xa examples/light_switch/provisioner/CMakeFiles/light_switch_provisioner_nrf52840_xxAA_s140_6.0.0.dir/__/__/__/models/health/src/health_server.c.obj
 .text.handle_fault_test
                0x0003373a       0x68 examples/light_switch/provisioner/CMakeFiles/light_switch_provisioner_nrf52840_xxAA_s140_6.0.0.dir/__/__/__/models/health/src/health_server.c.obj
 .text.handle_fault_get
                0x000337a2       0x32 examples/light_switch/provisioner/CMakeFiles/light_switch_provisioner_nrf52840_xxAA_s140_6.0.0.dir/__/__/__/models/health/src/health_server.c.obj
 .text.handle_fault_clear
                0x000337d4       0x48 examples/light_switch/provisioner/CMakeFiles/light_switch_provisioner_nrf52840_xxAA_s140_6.0.0.dir/__/__/__/models/health/src/health_server.c.obj
 .text.handle_attention_get
                0x0003381c       0x14 examples/light_switch/provisioner/CMakeFiles/light_switch_provisioner_nrf52840_xxAA_s140_6.0.0.dir/__/__/__/models/health/src/health_server.c.obj
 .text.handle_period_get
                0x00033830       0x12 examples/light_switch/provisioner/CMakeFiles/light_switch_provisioner_nrf52840_xxAA_s140_6.0.0.dir/__/__/__/models/health/src/health_server.c.obj
 *fill*         0x00033842        0x2 
 .text.health_server_init
                0x00033844       0x6c examples/light_switch/provisioner/CMakeFiles/light_switch_provisioner_nrf52840_xxAA_s140_6.0.0.dir/__/__/__/models/health/src/health_server.c.obj
                0x00033844                health_server_init
 .text.handle_fault_status
                0x000338b0       0x48 examples/light_switch/provisioner/CMakeFiles/light_switch_provisioner_nrf52840_xxAA_s140_6.0.0.dir/__/__/__/models/health/src/health_client.c.obj
 .text.handle_period_status
                0x000338f8       0x28 examples/light_switch/provisioner/CMakeFiles/light_switch_provisioner_nrf52840_xxAA_s140_6.0.0.dir/__/__/__/models/health/src/health_client.c.obj
 .text.handle_attention_status
                0x00033920       0x28 examples/light_switch/provisioner/CMakeFiles/light_switch_provisioner_nrf52840_xxAA_s140_6.0.0.dir/__/__/__/models/health/src/health_client.c.obj
 .text.health_client_init
                0x00033948       0x54 examples/light_switch/provisioner/CMakeFiles/light_switch_provisioner_nrf52840_xxAA_s140_6.0.0.dir/__/__/__/models/health/src/health_client.c.obj
                0x00033948                health_client_init
 .text.add_to_publication_list
                0x0003399c       0x78 examples/light_switch/provisioner/CMakeFiles/light_switch_provisioner_nrf52840_xxAA_s140_6.0.0.dir/__/__/__/mesh/access/src/access_publish.c.obj
 .text.step_resolution_to_us
                0x00033a14       0x38 examples/light_switch/provisioner/CMakeFiles/light_switch_provisioner_nrf52840_xxAA_s140_6.0.0.dir/__/__/__/mesh/access/src/access_publish.c.obj
 .text.schedule_publication_timer
                0x00033a4c      0x184 examples/light_switch/provisioner/CMakeFiles/light_switch_provisioner_nrf52840_xxAA_s140_6.0.0.dir/__/__/__/mesh/access/src/access_publish.c.obj
 .text.publish_timer_tick
                0x00033bd0       0xa8 examples/light_switch/provisioner/CMakeFiles/light_switch_provisioner_nrf52840_xxAA_s140_6.0.0.dir/__/__/__/mesh/access/src/access_publish.c.obj
 .text.access_publish_init
                0x00033c78       0x38 examples/light_switch/provisioner/CMakeFiles/light_switch_provisioner_nrf52840_xxAA_s140_6.0.0.dir/__/__/__/mesh/access/src/access_publish.c.obj
                0x00033c78                access_publish_init
 .text.access_publish_period_set
                0x00033cb0       0x60 examples/light_switch/provisioner/CMakeFiles/light_switch_provisioner_nrf52840_xxAA_s140_6.0.0.dir/__/__/__/mesh/access/src/access_publish.c.obj
                0x00033cb0                access_publish_period_set
 .text.access_publish_period_get
                0x00033d10       0x22 examples/light_switch/provisioner/CMakeFiles/light_switch_provisioner_nrf52840_xxAA_s140_6.0.0.dir/__/__/__/mesh/access/src/access_publish.c.obj
                0x00033d10                access_publish_period_get
 .text.bitfield_get
                0x00033d32       0x1a examples/light_switch/provisioner/CMakeFiles/light_switch_provisioner_nrf52840_xxAA_s140_6.0.0.dir/__/__/__/mesh/access/src/access.c.obj
 .text.is_valid_opcode
                0x00033d4c       0x42 examples/light_switch/provisioner/CMakeFiles/light_switch_provisioner_nrf52840_xxAA_s140_6.0.0.dir/__/__/__/mesh/access/src/access.c.obj
 *fill*         0x00033d8e        0x2 
 .text.model_handle_valid_and_allocated
                0x00033d90       0x20 examples/light_switch/provisioner/CMakeFiles/light_switch_provisioner_nrf52840_xxAA_s140_6.0.0.dir/__/__/__/mesh/access/src/access.c.obj
 .text.flash_manager_mem_available
                0x00033db0        0x2 examples/light_switch/provisioner/CMakeFiles/light_switch_provisioner_nrf52840_xxAA_s140_6.0.0.dir/__/__/__/mesh/access/src/access.c.obj
 *fill*         0x00033db2        0x2 
 .text.restore_acquired_subscription
                0x00033db4       0x34 examples/light_switch/provisioner/CMakeFiles/light_switch_provisioner_nrf52840_xxAA_s140_6.0.0.dir/__/__/__/mesh/access/src/access.c.obj
 .text.restore_acquired_element
                0x00033de8       0x1c examples/light_switch/provisioner/CMakeFiles/light_switch_provisioner_nrf52840_xxAA_s140_6.0.0.dir/__/__/__/mesh/access/src/access.c.obj
 .text.restore_flash_data
                0x00033e04       0x50 examples/light_switch/provisioner/CMakeFiles/light_switch_provisioner_nrf52840_xxAA_s140_6.0.0.dir/__/__/__/mesh/access/src/access.c.obj
 .text.flash_invalidate_complete
                0x00033e54        0x6 examples/light_switch/provisioner/CMakeFiles/light_switch_provisioner_nrf52840_xxAA_s140_6.0.0.dir/__/__/__/mesh/access/src/access.c.obj
 *fill*         0x00033e5a        0x2 
 .text.access_flash_config_clear
                0x00033e5c       0x28 examples/light_switch/provisioner/CMakeFiles/light_switch_provisioner_nrf52840_xxAA_s140_6.0.0.dir/__/__/__/mesh/access/src/access.c.obj
 .text.access_flash_config_store
                0x00033e84      0x138 examples/light_switch/provisioner/CMakeFiles/light_switch_provisioner_nrf52840_xxAA_s140_6.0.0.dir/__/__/__/mesh/access/src/access.c.obj
                0x00033e84                access_flash_config_store
 .text.access_state_clear
                0x00033fbc       0x48 examples/light_switch/provisioner/CMakeFiles/light_switch_provisioner_nrf52840_xxAA_s140_6.0.0.dir/__/__/__/mesh/access/src/access.c.obj
 .text.add_flash_manager
                0x00034004       0x58 examples/light_switch/provisioner/CMakeFiles/light_switch_provisioner_nrf52840_xxAA_s140_6.0.0.dir/__/__/__/mesh/access/src/access.c.obj
 .text.flash_remove_complete
                0x0003405c       0x54 examples/light_switch/provisioner/CMakeFiles/light_switch_provisioner_nrf52840_xxAA_s140_6.0.0.dir/__/__/__/mesh/access/src/access.c.obj
 .text.flash_write_complete
                0x000340b0       0x46 examples/light_switch/provisioner/CMakeFiles/light_switch_provisioner_nrf52840_xxAA_s140_6.0.0.dir/__/__/__/mesh/access/src/access.c.obj
 *fill*         0x000340f6        0x2 
 .text.unlikely.bitfield_next_get.part.0.constprop.4
                0x000340f8       0x3c examples/light_switch/provisioner/CMakeFiles/light_switch_provisioner_nrf52840_xxAA_s140_6.0.0.dir/__/__/__/mesh/access/src/access.c.obj
 .text.restore_acquired_model
                0x00034134       0x90 examples/light_switch/provisioner/CMakeFiles/light_switch_provisioner_nrf52840_xxAA_s140_6.0.0.dir/__/__/__/mesh/access/src/access.c.obj
 .text.handle_incoming
                0x000341c4      0x148 examples/light_switch/provisioner/CMakeFiles/light_switch_provisioner_nrf52840_xxAA_s140_6.0.0.dir/__/__/__/mesh/access/src/access.c.obj
 .text.mesh_evt_cb
                0x0003430c      0x134 examples/light_switch/provisioner/CMakeFiles/light_switch_provisioner_nrf52840_xxAA_s140_6.0.0.dir/__/__/__/mesh/access/src/access.c.obj
 .text.packet_tx
                0x00034440      0x380 examples/light_switch/provisioner/CMakeFiles/light_switch_provisioner_nrf52840_xxAA_s140_6.0.0.dir/__/__/__/mesh/access/src/access.c.obj
 .text.access_flash_config_load
                0x000347c0      0x11c examples/light_switch/provisioner/CMakeFiles/light_switch_provisioner_nrf52840_xxAA_s140_6.0.0.dir/__/__/__/mesh/access/src/access.c.obj
                0x000347c0                access_flash_config_load
 .text.access_clear
                0x000348dc       0x12 examples/light_switch/provisioner/CMakeFiles/light_switch_provisioner_nrf52840_xxAA_s140_6.0.0.dir/__/__/__/mesh/access/src/access.c.obj
                0x000348dc                access_clear
 *fill*         0x000348ee        0x2 
 .text.access_init
                0x000348f0       0x28 examples/light_switch/provisioner/CMakeFiles/light_switch_provisioner_nrf52840_xxAA_s140_6.0.0.dir/__/__/__/mesh/access/src/access.c.obj
                0x000348f0                access_init
 .text.access_model_add
                0x00034918      0x1b8 examples/light_switch/provisioner/CMakeFiles/light_switch_provisioner_nrf52840_xxAA_s140_6.0.0.dir/__/__/__/mesh/access/src/access.c.obj
                0x00034918                access_model_add
 .text.access_model_publish
                0x00034ad0        0xc examples/light_switch/provisioner/CMakeFiles/light_switch_provisioner_nrf52840_xxAA_s140_6.0.0.dir/__/__/__/mesh/access/src/access.c.obj
                0x00034ad0                access_model_publish
 .text.access_model_reply
                0x00034adc       0x12 examples/light_switch/provisioner/CMakeFiles/light_switch_provisioner_nrf52840_xxAA_s140_6.0.0.dir/__/__/__/mesh/access/src/access.c.obj
                0x00034adc                access_model_reply
 *fill*         0x00034aee        0x2 
 .text.access_model_publish_address_set
                0x00034af0       0x3c examples/light_switch/provisioner/CMakeFiles/light_switch_provisioner_nrf52840_xxAA_s140_6.0.0.dir/__/__/__/mesh/access/src/access.c.obj
                0x00034af0                access_model_publish_address_set
 .text.access_model_publish_address_get
                0x00034b2c       0x28 examples/light_switch/provisioner/CMakeFiles/light_switch_provisioner_nrf52840_xxAA_s140_6.0.0.dir/__/__/__/mesh/access/src/access.c.obj
                0x00034b2c                access_model_publish_address_get
 .text.access_model_publish_retransmit_set
                0x00034b54       0x4c examples/light_switch/provisioner/CMakeFiles/light_switch_provisioner_nrf52840_xxAA_s140_6.0.0.dir/__/__/__/mesh/access/src/access.c.obj
                0x00034b54                access_model_publish_retransmit_set
 .text.access_model_publish_retransmit_get
                0x00034ba0       0x2c examples/light_switch/provisioner/CMakeFiles/light_switch_provisioner_nrf52840_xxAA_s140_6.0.0.dir/__/__/__/mesh/access/src/access.c.obj
                0x00034ba0                access_model_publish_retransmit_get
 .text.access_model_publish_period_set
                0x00034bcc       0x6c examples/light_switch/provisioner/CMakeFiles/light_switch_provisioner_nrf52840_xxAA_s140_6.0.0.dir/__/__/__/mesh/access/src/access.c.obj
                0x00034bcc                access_model_publish_period_set
 .text.access_model_publish_period_get
                0x00034c38       0x3c examples/light_switch/provisioner/CMakeFiles/light_switch_provisioner_nrf52840_xxAA_s140_6.0.0.dir/__/__/__/mesh/access/src/access.c.obj
                0x00034c38                access_model_publish_period_get
 .text.access_model_subscription_list_alloc
                0x00034c74       0x54 examples/light_switch/provisioner/CMakeFiles/light_switch_provisioner_nrf52840_xxAA_s140_6.0.0.dir/__/__/__/mesh/access/src/access.c.obj
                0x00034c74                access_model_subscription_list_alloc
 .text.access_model_subscription_add
                0x00034cc8       0x68 examples/light_switch/provisioner/CMakeFiles/light_switch_provisioner_nrf52840_xxAA_s140_6.0.0.dir/__/__/__/mesh/access/src/access.c.obj
                0x00034cc8                access_model_subscription_add
 .text.access_model_subscription_remove
                0x00034d30       0x68 examples/light_switch/provisioner/CMakeFiles/light_switch_provisioner_nrf52840_xxAA_s140_6.0.0.dir/__/__/__/mesh/access/src/access.c.obj
                0x00034d30                access_model_subscription_remove
 .text.access_model_subscriptions_get
                0x00034d98       0x84 examples/light_switch/provisioner/CMakeFiles/light_switch_provisioner_nrf52840_xxAA_s140_6.0.0.dir/__/__/__/mesh/access/src/access.c.obj
                0x00034d98                access_model_subscriptions_get
 .text.access_model_application_bind
                0x00034e1c       0x5c examples/light_switch/provisioner/CMakeFiles/light_switch_provisioner_nrf52840_xxAA_s140_6.0.0.dir/__/__/__/mesh/access/src/access.c.obj
                0x00034e1c                access_model_application_bind
 .text.access_model_application_unbind
                0x00034e78       0x5c examples/light_switch/provisioner/CMakeFiles/light_switch_provisioner_nrf52840_xxAA_s140_6.0.0.dir/__/__/__/mesh/access/src/access.c.obj
                0x00034e78                access_model_application_unbind
 .text.access_model_applications_get
                0x00034ed4       0x58 examples/light_switch/provisioner/CMakeFiles/light_switch_provisioner_nrf52840_xxAA_s140_6.0.0.dir/__/__/__/mesh/access/src/access.c.obj
                0x00034ed4                access_model_applications_get
 .text.access_model_publish_application_set
                0x00034f2c       0x3c examples/light_switch/provisioner/CMakeFiles/light_switch_provisioner_nrf52840_xxAA_s140_6.0.0.dir/__/__/__/mesh/access/src/access.c.obj
                0x00034f2c                access_model_publish_application_set
 .text.access_model_publish_application_get
                0x00034f68       0x28 examples/light_switch/provisioner/CMakeFiles/light_switch_provisioner_nrf52840_xxAA_s140_6.0.0.dir/__/__/__/mesh/access/src/access.c.obj
                0x00034f68                access_model_publish_application_get
 .text.access_default_ttl_set
                0x00034f90       0x18 examples/light_switch/provisioner/CMakeFiles/light_switch_provisioner_nrf52840_xxAA_s140_6.0.0.dir/__/__/__/mesh/access/src/access.c.obj
                0x00034f90                access_default_ttl_set
 .text.access_default_ttl_get
                0x00034fa8        0xc examples/light_switch/provisioner/CMakeFiles/light_switch_provisioner_nrf52840_xxAA_s140_6.0.0.dir/__/__/__/mesh/access/src/access.c.obj
                0x00034fa8                access_default_ttl_get
 .text.access_model_publish_ttl_set
                0x00034fb4       0x40 examples/light_switch/provisioner/CMakeFiles/light_switch_provisioner_nrf52840_xxAA_s140_6.0.0.dir/__/__/__/mesh/access/src/access.c.obj
                0x00034fb4                access_model_publish_ttl_set
 .text.access_model_publish_ttl_get
                0x00034ff4       0x28 examples/light_switch/provisioner/CMakeFiles/light_switch_provisioner_nrf52840_xxAA_s140_6.0.0.dir/__/__/__/mesh/access/src/access.c.obj
                0x00034ff4                access_model_publish_ttl_get
 .text.access_element_location_get
                0x0003501c       0x18 examples/light_switch/provisioner/CMakeFiles/light_switch_provisioner_nrf52840_xxAA_s140_6.0.0.dir/__/__/__/mesh/access/src/access.c.obj
                0x0003501c                access_element_location_get
 .text.access_element_sig_model_count_get
                0x00035034       0x18 examples/light_switch/provisioner/CMakeFiles/light_switch_provisioner_nrf52840_xxAA_s140_6.0.0.dir/__/__/__/mesh/access/src/access.c.obj
                0x00035034                access_element_sig_model_count_get
 .text.access_element_vendor_model_count_get
                0x0003504c       0x18 examples/light_switch/provisioner/CMakeFiles/light_switch_provisioner_nrf52840_xxAA_s140_6.0.0.dir/__/__/__/mesh/access/src/access.c.obj
                0x0003504c                access_element_vendor_model_count_get
 .text.access_model_id_get
                0x00035064       0x2c examples/light_switch/provisioner/CMakeFiles/light_switch_provisioner_nrf52840_xxAA_s140_6.0.0.dir/__/__/__/mesh/access/src/access.c.obj
                0x00035064                access_model_id_get
 .text.access_handle_get
                0x00035090       0x4c examples/light_switch/provisioner/CMakeFiles/light_switch_provisioner_nrf52840_xxAA_s140_6.0.0.dir/__/__/__/mesh/access/src/access.c.obj
                0x00035090                access_handle_get
 .text.access_element_models_get
                0x000350dc       0x48 examples/light_switch/provisioner/CMakeFiles/light_switch_provisioner_nrf52840_xxAA_s140_6.0.0.dir/__/__/__/mesh/access/src/access.c.obj
                0x000350dc                access_element_models_get
 .text.access_model_p_args_get
                0x00035124       0x28 examples/light_switch/provisioner/CMakeFiles/light_switch_provisioner_nrf52840_xxAA_s140_6.0.0.dir/__/__/__/mesh/access/src/access.c.obj
                0x00035124                access_model_p_args_get
 .text.access_model_publication_stop
                0x0003514c       0x70 examples/light_switch/provisioner/CMakeFiles/light_switch_provisioner_nrf52840_xxAA_s140_6.0.0.dir/__/__/__/mesh/access/src/access.c.obj
                0x0003514c                access_model_publication_stop
 .text.access_model_publication_by_appkey_stop
                0x000351bc       0x36 examples/light_switch/provisioner/CMakeFiles/light_switch_provisioner_nrf52840_xxAA_s140_6.0.0.dir/__/__/__/mesh/access/src/access.c.obj
                0x000351bc                access_model_publication_by_appkey_stop
 *fill*         0x000351f2        0x2 
 .text.reliable_timer_cb
                0x000351f4      0x11c examples/light_switch/provisioner/CMakeFiles/light_switch_provisioner_nrf52840_xxAA_s140_6.0.0.dir/__/__/__/mesh/access/src/access_reliable.c.obj
 .text.remove_and_reschedule
                0x00035310       0xac examples/light_switch/provisioner/CMakeFiles/light_switch_provisioner_nrf52840_xxAA_s140_6.0.0.dir/__/__/__/mesh/access/src/access_reliable.c.obj
 .text.access_reliable_message_rx_cb
                0x000353bc       0x68 examples/light_switch/provisioner/CMakeFiles/light_switch_provisioner_nrf52840_xxAA_s140_6.0.0.dir/__/__/__/mesh/access/src/access_reliable.c.obj
                0x000353bc                access_reliable_message_rx_cb
 .text.access_reliable_init
                0x00035424       0x1c examples/light_switch/provisioner/CMakeFiles/light_switch_provisioner_nrf52840_xxAA_s140_6.0.0.dir/__/__/__/mesh/access/src/access_reliable.c.obj
                0x00035424                access_reliable_init
 .text.access_reliable_cancel_all
                0x00035440       0x60 examples/light_switch/provisioner/CMakeFiles/light_switch_provisioner_nrf52840_xxAA_s140_6.0.0.dir/__/__/__/mesh/access/src/access_reliable.c.obj
                0x00035440                access_reliable_cancel_all
 .text.access_model_reliable_cancel
                0x000354a0       0x68 examples/light_switch/provisioner/CMakeFiles/light_switch_provisioner_nrf52840_xxAA_s140_6.0.0.dir/__/__/__/mesh/access/src/access_reliable.c.obj
                0x000354a0                access_model_reliable_cancel
 .text.access_model_reliable_publish
                0x00035508      0x1b8 examples/light_switch/provisioner/CMakeFiles/light_switch_provisioner_nrf52840_xxAA_s140_6.0.0.dir/__/__/__/mesh/access/src/access_reliable.c.obj
                0x00035508                access_model_reliable_publish
 .text.bitfield_get
                0x000356c0       0x1a examples/light_switch/provisioner/CMakeFiles/light_switch_provisioner_nrf52840_xxAA_s140_6.0.0.dir/__/__/__/mesh/access/src/device_state_manager.c.obj
 .text.bitfield_set
                0x000356da       0x18 examples/light_switch/provisioner/CMakeFiles/light_switch_provisioner_nrf52840_xxAA_s140_6.0.0.dir/__/__/__/mesh/access/src/device_state_manager.c.obj
 .text.bitfield_clear
                0x000356f2       0x1a examples/light_switch/provisioner/CMakeFiles/light_switch_provisioner_nrf52840_xxAA_s140_6.0.0.dir/__/__/__/mesh/access/src/device_state_manager.c.obj
 .text.bitfield_is_all_clear
                0x0003570c       0x3c examples/light_switch/provisioner/CMakeFiles/light_switch_provisioner_nrf52840_xxAA_s140_6.0.0.dir/__/__/__/mesh/access/src/device_state_manager.c.obj
 .text.address_handle_virtual_valid
                0x00035748       0x14 examples/light_switch/provisioner/CMakeFiles/light_switch_provisioner_nrf52840_xxAA_s140_6.0.0.dir/__/__/__/mesh/access/src/device_state_manager.c.obj
 .text.net_key_handle_get
                0x0003575c       0x38 examples/light_switch/provisioner/CMakeFiles/light_switch_provisioner_nrf52840_xxAA_s140_6.0.0.dir/__/__/__/mesh/access/src/device_state_manager.c.obj
 .text.dev_key_handle_get
                0x00035794       0x58 examples/light_switch/provisioner/CMakeFiles/light_switch_provisioner_nrf52840_xxAA_s140_6.0.0.dir/__/__/__/mesh/access/src/device_state_manager.c.obj
 .text.app_key_handle_get
                0x000357ec       0x38 examples/light_switch/provisioner/CMakeFiles/light_switch_provisioner_nrf52840_xxAA_s140_6.0.0.dir/__/__/__/mesh/access/src/device_state_manager.c.obj
 .text.addr_nonvirtual_to_flash_entry
                0x00035824       0x10 examples/light_switch/provisioner/CMakeFiles/light_switch_provisioner_nrf52840_xxAA_s140_6.0.0.dir/__/__/__/mesh/access/src/device_state_manager.c.obj
 .text.devkey_set
                0x00035834       0x4c examples/light_switch/provisioner/CMakeFiles/light_switch_provisioner_nrf52840_xxAA_s140_6.0.0.dir/__/__/__/mesh/access/src/device_state_manager.c.obj
 .text.devkey_to_dsm_entry
                0x00035880       0x16 examples/light_switch/provisioner/CMakeFiles/light_switch_provisioner_nrf52840_xxAA_s140_6.0.0.dir/__/__/__/mesh/access/src/device_state_manager.c.obj
 *fill*         0x00035896        0x2 
 .text.devkey_to_flash_entry
                0x00035898       0x28 examples/light_switch/provisioner/CMakeFiles/light_switch_provisioner_nrf52840_xxAA_s140_6.0.0.dir/__/__/__/mesh/access/src/device_state_manager.c.obj
 .text.addr_virtual_to_flash_entry
                0x000358c0       0x18 examples/light_switch/provisioner/CMakeFiles/light_switch_provisioner_nrf52840_xxAA_s140_6.0.0.dir/__/__/__/mesh/access/src/device_state_manager.c.obj
 .text.addr_unicast_to_dsm_entry
                0x000358d8        0xc examples/light_switch/provisioner/CMakeFiles/light_switch_provisioner_nrf52840_xxAA_s140_6.0.0.dir/__/__/__/mesh/access/src/device_state_manager.c.obj
 .text.addr_unicast_to_flash_entry
                0x000358e4       0x10 examples/light_switch/provisioner/CMakeFiles/light_switch_provisioner_nrf52840_xxAA_s140_6.0.0.dir/__/__/__/mesh/access/src/device_state_manager.c.obj
 .text.flash_mem_listener_callback
                0x000358f4       0x14 examples/light_switch/provisioner/CMakeFiles/light_switch_provisioner_nrf52840_xxAA_s140_6.0.0.dir/__/__/__/mesh/access/src/device_state_manager.c.obj
 .text.get_subnet_handle
                0x00035908       0x34 examples/light_switch/provisioner/CMakeFiles/light_switch_provisioner_nrf52840_xxAA_s140_6.0.0.dir/__/__/__/mesh/access/src/device_state_manager.c.obj
 .text.appkey_set
                0x0003593c       0x70 examples/light_switch/provisioner/CMakeFiles/light_switch_provisioner_nrf52840_xxAA_s140_6.0.0.dir/__/__/__/mesh/access/src/device_state_manager.c.obj
 .text.appkey_to_flash_entry
                0x000359ac       0x54 examples/light_switch/provisioner/CMakeFiles/light_switch_provisioner_nrf52840_xxAA_s140_6.0.0.dir/__/__/__/mesh/access/src/device_state_manager.c.obj
 .text.subnet_to_flash_entry
                0x00035a00       0x60 examples/light_switch/provisioner/CMakeFiles/light_switch_provisioner_nrf52840_xxAA_s140_6.0.0.dir/__/__/__/mesh/access/src/device_state_manager.c.obj
 .text.bitfield_clear_all
                0x00035a60        0xe examples/light_switch/provisioner/CMakeFiles/light_switch_provisioner_nrf52840_xxAA_s140_6.0.0.dir/__/__/__/mesh/access/src/device_state_manager.c.obj
 *fill*         0x00035a6e        0x2 
 .text.subnet_set
                0x00035a70       0x98 examples/light_switch/provisioner/CMakeFiles/light_switch_provisioner_nrf52840_xxAA_s140_6.0.0.dir/__/__/__/mesh/access/src/device_state_manager.c.obj
 .text.virtual_address_set
                0x00035b08       0x4c examples/light_switch/provisioner/CMakeFiles/light_switch_provisioner_nrf52840_xxAA_s140_6.0.0.dir/__/__/__/mesh/access/src/device_state_manager.c.obj
 .text.addr_virtual_to_dsm_entry
                0x00035b54        0xe examples/light_switch/provisioner/CMakeFiles/light_switch_provisioner_nrf52840_xxAA_s140_6.0.0.dir/__/__/__/mesh/access/src/device_state_manager.c.obj
 *fill*         0x00035b62        0x2 
 .text.reset_flash_area
                0x00035b64       0x28 examples/light_switch/provisioner/CMakeFiles/light_switch_provisioner_nrf52840_xxAA_s140_6.0.0.dir/__/__/__/mesh/access/src/device_state_manager.c.obj
 .text.flash_save
                0x00035b8c       0x7c examples/light_switch/provisioner/CMakeFiles/light_switch_provisioner_nrf52840_xxAA_s140_6.0.0.dir/__/__/__/mesh/access/src/device_state_manager.c.obj
 .text.flash_invalidate
                0x00035c08       0x64 examples/light_switch/provisioner/CMakeFiles/light_switch_provisioner_nrf52840_xxAA_s140_6.0.0.dir/__/__/__/mesh/access/src/device_state_manager.c.obj
 .text.flash_update_all
                0x00035c6c       0x6c examples/light_switch/provisioner/CMakeFiles/light_switch_provisioner_nrf52840_xxAA_s140_6.0.0.dir/__/__/__/mesh/access/src/device_state_manager.c.obj
 .text.virtual_address_uuid_index_get
                0x00035cd8       0x3c examples/light_switch/provisioner/CMakeFiles/light_switch_provisioner_nrf52840_xxAA_s140_6.0.0.dir/__/__/__/mesh/access/src/device_state_manager.c.obj
 .text.add_address_virtual
                0x00035d14       0x74 examples/light_switch/provisioner/CMakeFiles/light_switch_provisioner_nrf52840_xxAA_s140_6.0.0.dir/__/__/__/mesh/access/src/device_state_manager.c.obj
 .text.get_subnet_handle_by_beacon_info
                0x00035d88       0x24 examples/light_switch/provisioner/CMakeFiles/light_switch_provisioner_nrf52840_xxAA_s140_6.0.0.dir/__/__/__/mesh/access/src/device_state_manager.c.obj
 .text.get_app_handle
                0x00035dac       0x40 examples/light_switch/provisioner/CMakeFiles/light_switch_provisioner_nrf52840_xxAA_s140_6.0.0.dir/__/__/__/mesh/access/src/device_state_manager.c.obj
 .text.appkey_to_dsm_entry
                0x00035dec       0x68 examples/light_switch/provisioner/CMakeFiles/light_switch_provisioner_nrf52840_xxAA_s140_6.0.0.dir/__/__/__/mesh/access/src/device_state_manager.c.obj
 .text.subnet_to_dsm_entry
                0x00035e54       0x68 examples/light_switch/provisioner/CMakeFiles/light_switch_provisioner_nrf52840_xxAA_s140_6.0.0.dir/__/__/__/mesh/access/src/device_state_manager.c.obj
 .text.flash_operation_complete
                0x00035ebc       0x4c examples/light_switch/provisioner/CMakeFiles/light_switch_provisioner_nrf52840_xxAA_s140_6.0.0.dir/__/__/__/mesh/access/src/device_state_manager.c.obj
 .text.flash_invalidate_complete
                0x00035f08        0x8 examples/light_switch/provisioner/CMakeFiles/light_switch_provisioner_nrf52840_xxAA_s140_6.0.0.dir/__/__/__/mesh/access/src/device_state_manager.c.obj
 .text.flash_write_complete
                0x00035f10        0x8 examples/light_switch/provisioner/CMakeFiles/light_switch_provisioner_nrf52840_xxAA_s140_6.0.0.dir/__/__/__/mesh/access/src/device_state_manager.c.obj
 .text.add_address.part.8
                0x00035f18      0x144 examples/light_switch/provisioner/CMakeFiles/light_switch_provisioner_nrf52840_xxAA_s140_6.0.0.dir/__/__/__/mesh/access/src/device_state_manager.c.obj
 .text.bitfield_next_get.part.0.constprop.17
                0x0003605c       0x38 examples/light_switch/provisioner/CMakeFiles/light_switch_provisioner_nrf52840_xxAA_s140_6.0.0.dir/__/__/__/mesh/access/src/device_state_manager.c.obj
 .text.address_handle_valid
                0x00036094       0x28 examples/light_switch/provisioner/CMakeFiles/light_switch_provisioner_nrf52840_xxAA_s140_6.0.0.dir/__/__/__/mesh/access/src/device_state_manager.c.obj
 .text.address_handle_nonvirtual_valid
                0x000360bc       0x14 examples/light_switch/provisioner/CMakeFiles/light_switch_provisioner_nrf52840_xxAA_s140_6.0.0.dir/__/__/__/mesh/access/src/device_state_manager.c.obj
 .text.address_delete_if_unused
                0x000360d0       0x78 examples/light_switch/provisioner/CMakeFiles/light_switch_provisioner_nrf52840_xxAA_s140_6.0.0.dir/__/__/__/mesh/access/src/device_state_manager.c.obj
 .text.addr_nonvirtual_to_dsm_entry
                0x00036148       0x38 examples/light_switch/provisioner/CMakeFiles/light_switch_provisioner_nrf52840_xxAA_s140_6.0.0.dir/__/__/__/mesh/access/src/device_state_manager.c.obj
 .text.dsm_flash_config_load
                0x00036180      0x120 examples/light_switch/provisioner/CMakeFiles/light_switch_provisioner_nrf52840_xxAA_s140_6.0.0.dir/__/__/__/mesh/access/src/device_state_manager.c.obj
                0x00036180                dsm_flash_config_load
 .text.dsm_flash_area_get
                0x000362a0        0xc examples/light_switch/provisioner/CMakeFiles/light_switch_provisioner_nrf52840_xxAA_s140_6.0.0.dir/__/__/__/mesh/access/src/device_state_manager.c.obj
                0x000362a0                dsm_flash_area_get
 .text.build_flash_area
                0x000362ac       0x8c examples/light_switch/provisioner/CMakeFiles/light_switch_provisioner_nrf52840_xxAA_s140_6.0.0.dir/__/__/__/mesh/access/src/device_state_manager.c.obj
 .text.flash_remove_complete
                0x00036338        0x4 examples/light_switch/provisioner/CMakeFiles/light_switch_provisioner_nrf52840_xxAA_s140_6.0.0.dir/__/__/__/mesh/access/src/device_state_manager.c.obj
 .text.dsm_clear
                0x0003633c       0xa8 examples/light_switch/provisioner/CMakeFiles/light_switch_provisioner_nrf52840_xxAA_s140_6.0.0.dir/__/__/__/mesh/access/src/device_state_manager.c.obj
                0x0003633c                dsm_clear
 .text.dsm_init
                0x000363e4       0x3c examples/light_switch/provisioner/CMakeFiles/light_switch_provisioner_nrf52840_xxAA_s140_6.0.0.dir/__/__/__/mesh/access/src/device_state_manager.c.obj
                0x000363e4                dsm_init
 .text.dsm_local_unicast_addresses_set
                0x00036420       0x78 examples/light_switch/provisioner/CMakeFiles/light_switch_provisioner_nrf52840_xxAA_s140_6.0.0.dir/__/__/__/mesh/access/src/device_state_manager.c.obj
                0x00036420                dsm_local_unicast_addresses_set
 .text.dsm_local_unicast_addresses_get
                0x00036498       0x20 examples/light_switch/provisioner/CMakeFiles/light_switch_provisioner_nrf52840_xxAA_s140_6.0.0.dir/__/__/__/mesh/access/src/device_state_manager.c.obj
                0x00036498                dsm_local_unicast_addresses_get
 .text.dsm_address_publish_add
                0x000364b8        0xc examples/light_switch/provisioner/CMakeFiles/light_switch_provisioner_nrf52840_xxAA_s140_6.0.0.dir/__/__/__/mesh/access/src/device_state_manager.c.obj
                0x000364b8                dsm_address_publish_add
 .text.dsm_address_publish_add_handle
                0x000364c4       0x38 examples/light_switch/provisioner/CMakeFiles/light_switch_provisioner_nrf52840_xxAA_s140_6.0.0.dir/__/__/__/mesh/access/src/device_state_manager.c.obj
                0x000364c4                dsm_address_publish_add_handle
 .text.dsm_address_publish_virtual_add
                0x000364fc        0x6 examples/light_switch/provisioner/CMakeFiles/light_switch_provisioner_nrf52840_xxAA_s140_6.0.0.dir/__/__/__/mesh/access/src/device_state_manager.c.obj
                0x000364fc                dsm_address_publish_virtual_add
 *fill*         0x00036502        0x2 
 .text.dsm_address_publish_remove
                0x00036504       0x44 examples/light_switch/provisioner/CMakeFiles/light_switch_provisioner_nrf52840_xxAA_s140_6.0.0.dir/__/__/__/mesh/access/src/device_state_manager.c.obj
                0x00036504                dsm_address_publish_remove
 .text.dsm_address_subscription_add
                0x00036548        0xc examples/light_switch/provisioner/CMakeFiles/light_switch_provisioner_nrf52840_xxAA_s140_6.0.0.dir/__/__/__/mesh/access/src/device_state_manager.c.obj
                0x00036548                dsm_address_subscription_add
 .text.dsm_address_subscription_virtual_add
                0x00036554        0x6 examples/light_switch/provisioner/CMakeFiles/light_switch_provisioner_nrf52840_xxAA_s140_6.0.0.dir/__/__/__/mesh/access/src/device_state_manager.c.obj
                0x00036554                dsm_address_subscription_virtual_add
 *fill*         0x0003655a        0x2 
 .text.dsm_address_subscription_add_handle
                0x0003655c       0x38 examples/light_switch/provisioner/CMakeFiles/light_switch_provisioner_nrf52840_xxAA_s140_6.0.0.dir/__/__/__/mesh/access/src/device_state_manager.c.obj
                0x0003655c                dsm_address_subscription_add_handle
 .text.dsm_address_subscription_get
                0x00036594       0x34 examples/light_switch/provisioner/CMakeFiles/light_switch_provisioner_nrf52840_xxAA_s140_6.0.0.dir/__/__/__/mesh/access/src/device_state_manager.c.obj
                0x00036594                dsm_address_subscription_get
 .text.dsm_address_get
                0x000365c8       0x5c examples/light_switch/provisioner/CMakeFiles/light_switch_provisioner_nrf52840_xxAA_s140_6.0.0.dir/__/__/__/mesh/access/src/device_state_manager.c.obj
                0x000365c8                dsm_address_get
 .text.dsm_address_subscription_remove
                0x00036624       0x5c examples/light_switch/provisioner/CMakeFiles/light_switch_provisioner_nrf52840_xxAA_s140_6.0.0.dir/__/__/__/mesh/access/src/device_state_manager.c.obj
                0x00036624                dsm_address_subscription_remove
 .text.dsm_address_handle_get
                0x00036680       0x98 examples/light_switch/provisioner/CMakeFiles/light_switch_provisioner_nrf52840_xxAA_s140_6.0.0.dir/__/__/__/mesh/access/src/device_state_manager.c.obj
                0x00036680                dsm_address_handle_get
 .text.dsm_net_key_index_to_subnet_handle
                0x00036718       0x1c examples/light_switch/provisioner/CMakeFiles/light_switch_provisioner_nrf52840_xxAA_s140_6.0.0.dir/__/__/__/mesh/access/src/device_state_manager.c.obj
                0x00036718                dsm_net_key_index_to_subnet_handle
 .text.dsm_subnet_handle_get
                0x00036734        0xc examples/light_switch/provisioner/CMakeFiles/light_switch_provisioner_nrf52840_xxAA_s140_6.0.0.dir/__/__/__/mesh/access/src/device_state_manager.c.obj
                0x00036734                dsm_subnet_handle_get
 .text.dsm_appkey_index_to_appkey_handle
                0x00036740       0x1c examples/light_switch/provisioner/CMakeFiles/light_switch_provisioner_nrf52840_xxAA_s140_6.0.0.dir/__/__/__/mesh/access/src/device_state_manager.c.obj
                0x00036740                dsm_appkey_index_to_appkey_handle
 .text.dsm_appkey_handle_get
                0x0003675c        0xc examples/light_switch/provisioner/CMakeFiles/light_switch_provisioner_nrf52840_xxAA_s140_6.0.0.dir/__/__/__/mesh/access/src/device_state_manager.c.obj
                0x0003675c                dsm_appkey_handle_get
 .text.dsm_appkey_handle_to_appkey_index
                0x00036768       0x30 examples/light_switch/provisioner/CMakeFiles/light_switch_provisioner_nrf52840_xxAA_s140_6.0.0.dir/__/__/__/mesh/access/src/device_state_manager.c.obj
                0x00036768                dsm_appkey_handle_to_appkey_index
 .text.dsm_appkey_handle_to_subnet_handle
                0x00036798       0x98 examples/light_switch/provisioner/CMakeFiles/light_switch_provisioner_nrf52840_xxAA_s140_6.0.0.dir/__/__/__/mesh/access/src/device_state_manager.c.obj
                0x00036798                dsm_appkey_handle_to_subnet_handle
 .text.dsm_subnet_add
                0x00036830       0x78 examples/light_switch/provisioner/CMakeFiles/light_switch_provisioner_nrf52840_xxAA_s140_6.0.0.dir/__/__/__/mesh/access/src/device_state_manager.c.obj
                0x00036830                dsm_subnet_add
 .text.dsm_subnet_kr_phase_get
                0x000368a8       0x2c examples/light_switch/provisioner/CMakeFiles/light_switch_provisioner_nrf52840_xxAA_s140_6.0.0.dir/__/__/__/mesh/access/src/device_state_manager.c.obj
                0x000368a8                dsm_subnet_kr_phase_get
 .text.dsm_subnet_update
                0x000368d4       0xa4 examples/light_switch/provisioner/CMakeFiles/light_switch_provisioner_nrf52840_xxAA_s140_6.0.0.dir/__/__/__/mesh/access/src/device_state_manager.c.obj
                0x000368d4                dsm_subnet_update
 .text.dsm_subnet_update_swap_keys
                0x00036978       0x50 examples/light_switch/provisioner/CMakeFiles/light_switch_provisioner_nrf52840_xxAA_s140_6.0.0.dir/__/__/__/mesh/access/src/device_state_manager.c.obj
                0x00036978                dsm_subnet_update_swap_keys
 .text.dsm_subnet_update_commit
                0x000369c8       0xbc examples/light_switch/provisioner/CMakeFiles/light_switch_provisioner_nrf52840_xxAA_s140_6.0.0.dir/__/__/__/mesh/access/src/device_state_manager.c.obj
                0x000369c8                dsm_subnet_update_commit
 .text.mesh_evt_handler
                0x00036a84       0x4c examples/light_switch/provisioner/CMakeFiles/light_switch_provisioner_nrf52840_xxAA_s140_6.0.0.dir/__/__/__/mesh/access/src/device_state_manager.c.obj
 .text.dsm_subnet_get_all
                0x00036ad0       0x3c examples/light_switch/provisioner/CMakeFiles/light_switch_provisioner_nrf52840_xxAA_s140_6.0.0.dir/__/__/__/mesh/access/src/device_state_manager.c.obj
                0x00036ad0                dsm_subnet_get_all
 .text.dsm_devkey_add
                0x00036b0c       0x78 examples/light_switch/provisioner/CMakeFiles/light_switch_provisioner_nrf52840_xxAA_s140_6.0.0.dir/__/__/__/mesh/access/src/device_state_manager.c.obj
                0x00036b0c                dsm_devkey_add
 .text.dsm_devkey_handle_get
                0x00036b84       0x34 examples/light_switch/provisioner/CMakeFiles/light_switch_provisioner_nrf52840_xxAA_s140_6.0.0.dir/__/__/__/mesh/access/src/device_state_manager.c.obj
                0x00036b84                dsm_devkey_handle_get
 .text.dsm_appkey_add
                0x00036bb8       0x7c examples/light_switch/provisioner/CMakeFiles/light_switch_provisioner_nrf52840_xxAA_s140_6.0.0.dir/__/__/__/mesh/access/src/device_state_manager.c.obj
                0x00036bb8                dsm_appkey_add
 .text.dsm_appkey_update
                0x00036c34       0x90 examples/light_switch/provisioner/CMakeFiles/light_switch_provisioner_nrf52840_xxAA_s140_6.0.0.dir/__/__/__/mesh/access/src/device_state_manager.c.obj
                0x00036c34                dsm_appkey_update
 .text.dsm_appkey_delete
                0x00036cc4       0x2c examples/light_switch/provisioner/CMakeFiles/light_switch_provisioner_nrf52840_xxAA_s140_6.0.0.dir/__/__/__/mesh/access/src/device_state_manager.c.obj
                0x00036cc4                dsm_appkey_delete
 .text.dsm_subnet_delete
                0x00036cf0       0x84 examples/light_switch/provisioner/CMakeFiles/light_switch_provisioner_nrf52840_xxAA_s140_6.0.0.dir/__/__/__/mesh/access/src/device_state_manager.c.obj
                0x00036cf0                dsm_subnet_delete
 .text.dsm_appkey_get_all
                0x00036d74       0x58 examples/light_switch/provisioner/CMakeFiles/light_switch_provisioner_nrf52840_xxAA_s140_6.0.0.dir/__/__/__/mesh/access/src/device_state_manager.c.obj
                0x00036d74                dsm_appkey_get_all
 .text.dsm_tx_secmat_get
                0x00036dcc       0xb8 examples/light_switch/provisioner/CMakeFiles/light_switch_provisioner_nrf52840_xxAA_s140_6.0.0.dir/__/__/__/mesh/access/src/device_state_manager.c.obj
                0x00036dcc                dsm_tx_secmat_get
 .text.dsm_net_secmat_from_keyindex_get
                0x00036e84       0x30 examples/light_switch/provisioner/CMakeFiles/light_switch_provisioner_nrf52840_xxAA_s140_6.0.0.dir/__/__/__/mesh/access/src/device_state_manager.c.obj
                0x00036e84                dsm_net_secmat_from_keyindex_get
 .text.nrf_mesh_net_secmat_next_get
                0x00036eb4       0x90 examples/light_switch/provisioner/CMakeFiles/light_switch_provisioner_nrf52840_xxAA_s140_6.0.0.dir/__/__/__/mesh/access/src/device_state_manager.c.obj
                0x00036eb4                nrf_mesh_net_secmat_next_get
 .text.nrf_mesh_app_secmat_next_get
                0x00036f44       0x70 examples/light_switch/provisioner/CMakeFiles/light_switch_provisioner_nrf52840_xxAA_s140_6.0.0.dir/__/__/__/mesh/access/src/device_state_manager.c.obj
                0x00036f44                nrf_mesh_app_secmat_next_get
 .text.nrf_mesh_devkey_secmat_get
                0x00036fb4       0x38 examples/light_switch/provisioner/CMakeFiles/light_switch_provisioner_nrf52840_xxAA_s140_6.0.0.dir/__/__/__/mesh/access/src/device_state_manager.c.obj
                0x00036fb4                nrf_mesh_devkey_secmat_get
 .text.nrf_mesh_beacon_info_next_get
                0x00036fec       0xb4 examples/light_switch/provisioner/CMakeFiles/light_switch_provisioner_nrf52840_xxAA_s140_6.0.0.dir/__/__/__/mesh/access/src/device_state_manager.c.obj
                0x00036fec                nrf_mesh_beacon_info_next_get
 .text.nrf_mesh_rx_address_get
                0x000370a0       0xfc examples/light_switch/provisioner/CMakeFiles/light_switch_provisioner_nrf52840_xxAA_s140_6.0.0.dir/__/__/__/mesh/access/src/device_state_manager.c.obj
                0x000370a0                nrf_mesh_rx_address_get
 .text.nrf_mesh_unicast_address_get
                0x0003719c       0x20 examples/light_switch/provisioner/CMakeFiles/light_switch_provisioner_nrf52840_xxAA_s140_6.0.0.dir/__/__/__/mesh/access/src/device_state_manager.c.obj
                0x0003719c                nrf_mesh_unicast_address_get
 .text.prov_provisioner_cb_link_closed
                0x000371bc       0x2a examples/light_switch/provisioner/CMakeFiles/light_switch_provisioner_nrf52840_xxAA_s140_6.0.0.dir/__/__/__/mesh/prov/src/prov_provisioner.c.obj
 .text.prov_provisioner_cb_link_established
                0x000371e6       0x3e examples/light_switch/provisioner/CMakeFiles/light_switch_provisioner_nrf52840_xxAA_s140_6.0.0.dir/__/__/__/mesh/prov/src/prov_provisioner.c.obj
 .text.send_confirmation
                0x00037224       0x26 examples/light_switch/provisioner/CMakeFiles/light_switch_provisioner_nrf52840_xxAA_s140_6.0.0.dir/__/__/__/mesh/prov/src/prov_provisioner.c.obj
 .text.request_authentication
                0x0003724a       0x8a examples/light_switch/provisioner/CMakeFiles/light_switch_provisioner_nrf52840_xxAA_s140_6.0.0.dir/__/__/__/mesh/prov/src/prov_provisioner.c.obj
 .text.start_authentication
                0x000372d4       0x46 examples/light_switch/provisioner/CMakeFiles/light_switch_provisioner_nrf52840_xxAA_s140_6.0.0.dir/__/__/__/mesh/prov/src/prov_provisioner.c.obj
 .text.prov_provisioner_cb_ack_received
                0x0003731a       0x54 examples/light_switch/provisioner/CMakeFiles/light_switch_provisioner_nrf52840_xxAA_s140_6.0.0.dir/__/__/__/mesh/prov/src/prov_provisioner.c.obj
 *fill*         0x0003736e        0x2 
 .text.prov_provisioner_pkt_in
                0x00037370      0x23c examples/light_switch/provisioner/CMakeFiles/light_switch_provisioner_nrf52840_xxAA_s140_6.0.0.dir/__/__/__/mesh/prov/src/prov_provisioner.c.obj
 .text.prov_provisioner_provision
                0x000375ac       0x44 examples/light_switch/provisioner/CMakeFiles/light_switch_provisioner_nrf52840_xxAA_s140_6.0.0.dir/__/__/__/mesh/prov/src/prov_provisioner.c.obj
                0x000375ac                prov_provisioner_provision
 .text.prov_provisioner_oob_use
                0x000375f0       0x7e examples/light_switch/provisioner/CMakeFiles/light_switch_provisioner_nrf52840_xxAA_s140_6.0.0.dir/__/__/__/mesh/prov/src/prov_provisioner.c.obj
                0x000375f0                prov_provisioner_oob_use
 .text.prov_provisioner_auth_data
                0x0003766e       0x6c examples/light_switch/provisioner/CMakeFiles/light_switch_provisioner_nrf52840_xxAA_s140_6.0.0.dir/__/__/__/mesh/prov/src/prov_provisioner.c.obj
                0x0003766e                prov_provisioner_auth_data
 .text.bearer_compare_callback
                0x000376da        0xc examples/light_switch/provisioner/CMakeFiles/light_switch_provisioner_nrf52840_xxAA_s140_6.0.0.dir/__/__/__/mesh/prov/src/nrf_mesh_prov.c.obj
 .text.nrf_mesh_prov_init
                0x000376e6       0x32 examples/light_switch/provisioner/CMakeFiles/light_switch_provisioner_nrf52840_xxAA_s140_6.0.0.dir/__/__/__/mesh/prov/src/nrf_mesh_prov.c.obj
                0x000376e6                nrf_mesh_prov_init
 .text.nrf_mesh_prov_bearer_add
                0x00037718       0x28 examples/light_switch/provisioner/CMakeFiles/light_switch_provisioner_nrf52840_xxAA_s140_6.0.0.dir/__/__/__/mesh/prov/src/nrf_mesh_prov.c.obj
                0x00037718                nrf_mesh_prov_bearer_add
 .text.nrf_mesh_prov_generate_keys
                0x00037740        0x4 examples/light_switch/provisioner/CMakeFiles/light_switch_provisioner_nrf52840_xxAA_s140_6.0.0.dir/__/__/__/mesh/prov/src/nrf_mesh_prov.c.obj
                0x00037740                nrf_mesh_prov_generate_keys
 .text.nrf_mesh_prov_provision
                0x00037744       0x4e examples/light_switch/provisioner/CMakeFiles/light_switch_provisioner_nrf52840_xxAA_s140_6.0.0.dir/__/__/__/mesh/prov/src/nrf_mesh_prov.c.obj
                0x00037744                nrf_mesh_prov_provision
 .text.nrf_mesh_prov_oob_use
                0x00037792       0x18 examples/light_switch/provisioner/CMakeFiles/light_switch_provisioner_nrf52840_xxAA_s140_6.0.0.dir/__/__/__/mesh/prov/src/nrf_mesh_prov.c.obj
                0x00037792                nrf_mesh_prov_oob_use
 .text.nrf_mesh_prov_auth_data_provide
                0x000377aa        0xe examples/light_switch/provisioner/CMakeFiles/light_switch_provisioner_nrf52840_xxAA_s140_6.0.0.dir/__/__/__/mesh/prov/src/nrf_mesh_prov.c.obj
                0x000377aa                nrf_mesh_prov_auth_data_provide
 .text.nrf_mesh_prov_scan_start
                0x000377b8       0x10 examples/light_switch/provisioner/CMakeFiles/light_switch_provisioner_nrf52840_xxAA_s140_6.0.0.dir/__/__/__/mesh/prov/src/nrf_mesh_prov.c.obj
                0x000377b8                nrf_mesh_prov_scan_start
 .text.send_data
                0x000377c8       0x28 examples/light_switch/provisioner/CMakeFiles/light_switch_provisioner_nrf52840_xxAA_s140_6.0.0.dir/__/__/__/mesh/prov/src/provisioning.c.obj
 .text.prov_packet_length_valid
                0x000377f0       0x1c examples/light_switch/provisioner/CMakeFiles/light_switch_provisioner_nrf52840_xxAA_s140_6.0.0.dir/__/__/__/mesh/prov/src/provisioning.c.obj
                0x000377f0                prov_packet_length_valid
 .text.prov_tx_invite
                0x0003780c       0x28 examples/light_switch/provisioner/CMakeFiles/light_switch_provisioner_nrf52840_xxAA_s140_6.0.0.dir/__/__/__/mesh/prov/src/provisioning.c.obj
                0x0003780c                prov_tx_invite
 .text.prov_tx_start
                0x00037834       0x20 examples/light_switch/provisioner/CMakeFiles/light_switch_provisioner_nrf52840_xxAA_s140_6.0.0.dir/__/__/__/mesh/prov/src/provisioning.c.obj
                0x00037834                prov_tx_start
 .text.prov_tx_public_key
                0x00037854       0x26 examples/light_switch/provisioner/CMakeFiles/light_switch_provisioner_nrf52840_xxAA_s140_6.0.0.dir/__/__/__/mesh/prov/src/provisioning.c.obj
                0x00037854                prov_tx_public_key
 .text.prov_tx_confirmation
                0x0003787a       0x26 examples/light_switch/provisioner/CMakeFiles/light_switch_provisioner_nrf52840_xxAA_s140_6.0.0.dir/__/__/__/mesh/prov/src/provisioning.c.obj
                0x0003787a                prov_tx_confirmation
 .text.prov_tx_random
                0x000378a0       0x26 examples/light_switch/provisioner/CMakeFiles/light_switch_provisioner_nrf52840_xxAA_s140_6.0.0.dir/__/__/__/mesh/prov/src/provisioning.c.obj
                0x000378a0                prov_tx_random
 .text.prov_tx_data
                0x000378c6        0x6 examples/light_switch/provisioner/CMakeFiles/light_switch_provisioner_nrf52840_xxAA_s140_6.0.0.dir/__/__/__/mesh/prov/src/provisioning.c.obj
                0x000378c6                prov_tx_data
 .text.prov_beacon_unprov_build
                0x000378cc       0x54 examples/light_switch/provisioner/CMakeFiles/light_switch_provisioner_nrf52840_xxAA_s140_6.0.0.dir/__/__/__/mesh/prov/src/prov_beacon.c.obj
                0x000378cc                prov_beacon_unprov_build
 .text.prov_beacon_unprov_packet_in
                0x00037920       0x88 examples/light_switch/provisioner/CMakeFiles/light_switch_provisioner_nrf52840_xxAA_s140_6.0.0.dir/__/__/__/mesh/prov/src/prov_beacon.c.obj
                0x00037920                prov_beacon_unprov_packet_in
 .text.prov_beacon_scan_start
                0x000379a8       0x18 examples/light_switch/provisioner/CMakeFiles/light_switch_provisioner_nrf52840_xxAA_s140_6.0.0.dir/__/__/__/mesh/prov/src/prov_beacon.c.obj
                0x000379a8                prov_beacon_scan_start
 .text.oob_gen_alphanumeric
                0x000379c0       0x34 examples/light_switch/provisioner/CMakeFiles/light_switch_provisioner_nrf52840_xxAA_s140_6.0.0.dir/__/__/__/mesh/prov/src/prov_utils.c.obj
 .text.oob_gen_numeric
                0x000379f4       0x3c examples/light_switch/provisioner/CMakeFiles/light_switch_provisioner_nrf52840_xxAA_s140_6.0.0.dir/__/__/__/mesh/prov/src/prov_utils.c.obj
 .text.prov_utils_opt_set
                0x00037a30       0x20 examples/light_switch/provisioner/CMakeFiles/light_switch_provisioner_nrf52840_xxAA_s140_6.0.0.dir/__/__/__/mesh/prov/src/prov_utils.c.obj
                0x00037a30                prov_utils_opt_set
 .text.prov_utils_opt_get
                0x00037a50       0x1c examples/light_switch/provisioner/CMakeFiles/light_switch_provisioner_nrf52840_xxAA_s140_6.0.0.dir/__/__/__/mesh/prov/src/prov_utils.c.obj
                0x00037a50                prov_utils_opt_get
 .text.prov_utils_use_ecdh_offloading
                0x00037a6c        0xc examples/light_switch/provisioner/CMakeFiles/light_switch_provisioner_nrf52840_xxAA_s140_6.0.0.dir/__/__/__/mesh/prov/src/prov_utils.c.obj
                0x00037a6c                prov_utils_use_ecdh_offloading
 .text.prov_utils_authentication_values_derive
                0x00037a78       0xa0 examples/light_switch/provisioner/CMakeFiles/light_switch_provisioner_nrf52840_xxAA_s140_6.0.0.dir/__/__/__/mesh/prov/src/prov_utils.c.obj
                0x00037a78                prov_utils_authentication_values_derive
 .text.prov_utils_keys_generate
                0x00037b18       0x1e examples/light_switch/provisioner/CMakeFiles/light_switch_provisioner_nrf52840_xxAA_s140_6.0.0.dir/__/__/__/mesh/prov/src/prov_utils.c.obj
                0x00037b18                prov_utils_keys_generate
 *fill*         0x00037b36        0x2 
 .text.prov_utils_derive_keys
                0x00037b38       0xac examples/light_switch/provisioner/CMakeFiles/light_switch_provisioner_nrf52840_xxAA_s140_6.0.0.dir/__/__/__/mesh/prov/src/prov_utils.c.obj
                0x00037b38                prov_utils_derive_keys
 .text.prov_utils_calculate_shared_secret
                0x00037be4       0x36 examples/light_switch/provisioner/CMakeFiles/light_switch_provisioner_nrf52840_xxAA_s140_6.0.0.dir/__/__/__/mesh/prov/src/prov_utils.c.obj
                0x00037be4                prov_utils_calculate_shared_secret
 .text.prov_utils_generate_oob_data
                0x00037c1a       0x8a examples/light_switch/provisioner/CMakeFiles/light_switch_provisioner_nrf52840_xxAA_s140_6.0.0.dir/__/__/__/mesh/prov/src/prov_utils.c.obj
                0x00037c1a                prov_utils_generate_oob_data
 .text.prov_utils_confirmation_check
                0x00037ca4       0x5c examples/light_switch/provisioner/CMakeFiles/light_switch_provisioner_nrf52840_xxAA_s140_6.0.0.dir/__/__/__/mesh/prov/src/prov_utils.c.obj
                0x00037ca4                prov_utils_confirmation_check
 .text.link_timeout_cb
                0x00037d00       0x10 examples/light_switch/provisioner/CMakeFiles/light_switch_provisioner_nrf52840_xxAA_s140_6.0.0.dir/__/__/__/mesh/prov/src/prov_bearer_adv.c.obj
 .text.remove_active_bearer
                0x00037d10       0x4c examples/light_switch/provisioner/CMakeFiles/light_switch_provisioner_nrf52840_xxAA_s140_6.0.0.dir/__/__/__/mesh/prov/src/prov_bearer_adv.c.obj
 .text.close_link
                0x00037d5c       0x58 examples/light_switch/provisioner/CMakeFiles/light_switch_provisioner_nrf52840_xxAA_s140_6.0.0.dir/__/__/__/mesh/prov/src/prov_bearer_adv.c.obj
 .text.prov_bearer_adv_listen_stop
                0x00037db4       0x30 examples/light_switch/provisioner/CMakeFiles/light_switch_provisioner_nrf52840_xxAA_s140_6.0.0.dir/__/__/__/mesh/prov/src/prov_bearer_adv.c.obj
 .text.send_packet
                0x00037de4       0x5e examples/light_switch/provisioner/CMakeFiles/light_switch_provisioner_nrf52840_xxAA_s140_6.0.0.dir/__/__/__/mesh/prov/src/prov_bearer_adv.c.obj
 .text.prov_buffer_tx
                0x00037e42      0x134 examples/light_switch/provisioner/CMakeFiles/light_switch_provisioner_nrf52840_xxAA_s140_6.0.0.dir/__/__/__/mesh/prov/src/prov_bearer_adv.c.obj
 .text.send_link_close
                0x00037f76       0x38 examples/light_switch/provisioner/CMakeFiles/light_switch_provisioner_nrf52840_xxAA_s140_6.0.0.dir/__/__/__/mesh/prov/src/prov_bearer_adv.c.obj
 .text.prov_bearer_adv_link_close
                0x00037fae       0x56 examples/light_switch/provisioner/CMakeFiles/light_switch_provisioner_nrf52840_xxAA_s140_6.0.0.dir/__/__/__/mesh/prov/src/prov_bearer_adv.c.obj
 .text.send_transaction_ack
                0x00038004       0x24 examples/light_switch/provisioner/CMakeFiles/light_switch_provisioner_nrf52840_xxAA_s140_6.0.0.dir/__/__/__/mesh/prov/src/prov_bearer_adv.c.obj
 .text.send_link_ack
                0x00038028       0x32 examples/light_switch/provisioner/CMakeFiles/light_switch_provisioner_nrf52840_xxAA_s140_6.0.0.dir/__/__/__/mesh/prov/src/prov_bearer_adv.c.obj
 .text.reset_timeout_timer
                0x0003805a       0x1a examples/light_switch/provisioner/CMakeFiles/light_switch_provisioner_nrf52840_xxAA_s140_6.0.0.dir/__/__/__/mesh/prov/src/prov_bearer_adv.c.obj
 .text.tx_complete_cb
                0x00038074       0x1c examples/light_switch/provisioner/CMakeFiles/light_switch_provisioner_nrf52840_xxAA_s140_6.0.0.dir/__/__/__/mesh/prov/src/prov_bearer_adv.c.obj
 .text.tx_retry_cb
                0x00038090       0xcc examples/light_switch/provisioner/CMakeFiles/light_switch_provisioner_nrf52840_xxAA_s140_6.0.0.dir/__/__/__/mesh/prov/src/prov_bearer_adv.c.obj
 .text.add_active_bearer
                0x0003815c       0x80 examples/light_switch/provisioner/CMakeFiles/light_switch_provisioner_nrf52840_xxAA_s140_6.0.0.dir/__/__/__/mesh/prov/src/prov_bearer_adv.c.obj
 .text.prov_bearer_adv_link_open
                0x000381dc       0xec examples/light_switch/provisioner/CMakeFiles/light_switch_provisioner_nrf52840_xxAA_s140_6.0.0.dir/__/__/__/mesh/prov/src/prov_bearer_adv.c.obj
 .text.async_process
                0x000382c8       0x50 examples/light_switch/provisioner/CMakeFiles/light_switch_provisioner_nrf52840_xxAA_s140_6.0.0.dir/__/__/__/mesh/prov/src/prov_bearer_adv.c.obj
 .text.prov_bearer_adv_listen
                0x00038318       0xd8 examples/light_switch/provisioner/CMakeFiles/light_switch_provisioner_nrf52840_xxAA_s140_6.0.0.dir/__/__/__/mesh/prov/src/prov_bearer_adv.c.obj
 .text.calculate_3GPP_CRC
                0x000383f0       0x24 examples/light_switch/provisioner/CMakeFiles/light_switch_provisioner_nrf52840_xxAA_s140_6.0.0.dir/__/__/__/mesh/prov/src/prov_bearer_adv.c.obj
                0x000383f0                calculate_3GPP_CRC
 .text.prov_bearer_adv_tx
                0x00038414       0xb4 examples/light_switch/provisioner/CMakeFiles/light_switch_provisioner_nrf52840_xxAA_s140_6.0.0.dir/__/__/__/mesh/prov/src/prov_bearer_adv.c.obj
 .text.prov_buffer_rx
                0x000384c8       0x6e examples/light_switch/provisioner/CMakeFiles/light_switch_provisioner_nrf52840_xxAA_s140_6.0.0.dir/__/__/__/mesh/prov/src/prov_bearer_adv.c.obj
 *fill*         0x00038536        0x2 
 .text.nrf_mesh_prov_bearer_adv_interface_get
                0x00038538       0x3c examples/light_switch/provisioner/CMakeFiles/light_switch_provisioner_nrf52840_xxAA_s140_6.0.0.dir/__/__/__/mesh/prov/src/prov_bearer_adv.c.obj
                0x00038538                nrf_mesh_prov_bearer_adv_interface_get
 .text.prov_bearer_adv_packet_in
                0x00038574      0x7f8 examples/light_switch/provisioner/CMakeFiles/light_switch_provisioner_nrf52840_xxAA_s140_6.0.0.dir/__/__/__/mesh/prov/src/prov_bearer_adv.c.obj
                0x00038574                prov_bearer_adv_packet_in
 .text.errata_120
                0x00038d6c       0x20 examples/light_switch/provisioner/CMakeFiles/light_switch_provisioner_nrf52840_xxAA_s140_6.0.0.dir/C_/ver/mod/nRF5_SDK_15.0.0_a53641a/modules/nrfx/mdk/system_nrf52840.c.obj
 .text.SystemInit
                0x00038d8c      0x1b8 examples/light_switch/provisioner/CMakeFiles/light_switch_provisioner_nrf52840_xxAA_s140_6.0.0.dir/C_/ver/mod/nRF5_SDK_15.0.0_a53641a/modules/nrfx/mdk/system_nrf52840.c.obj
                0x00038d8c                SystemInit
 .text          0x00038f44       0x3c examples/light_switch/provisioner/CMakeFiles/light_switch_provisioner_nrf52840_xxAA_s140_6.0.0.dir/C_/ver/mod/nRF5_SDK_15.0.0_a53641a/modules/nrfx/mdk/gcc_startup_nrf52840.S.obj
                0x00038f44                Reset_Handler
                0x00038f6c                NMI_Handler
                0x00038f6e                HardFault_Handler
                0x00038f70                MemoryManagement_Handler
                0x00038f72                BusFault_Handler
                0x00038f74                UsageFault_Handler
                0x00038f76                SVC_Handler
                0x00038f78                DebugMon_Handler
                0x00038f7a                PendSV_Handler
                0x00038f7c                SysTick_Handler
                0x00038f7e                PDM_IRQHandler
                0x00038f7e                TEMP_IRQHandler
                0x00038f7e                TIMER3_IRQHandler
                0x00038f7e                PWM3_IRQHandler
                0x00038f7e                FPU_IRQHandler
                0x00038f7e                USBD_IRQHandler
                0x00038f7e                SPIM0_SPIS0_TWIM0_TWIS0_SPI0_TWI0_IRQHandler
                0x00038f7e                RADIO_IRQHandler
                0x00038f7e                UARTE0_UART0_IRQHandler
                0x00038f7e                TIMER4_IRQHandler
                0x00038f7e                CRYPTOCELL_IRQHandler
                0x00038f7e                I2S_IRQHandler
                0x00038f7e                SWI4_EGU4_IRQHandler
                0x00038f7e                TIMER0_IRQHandler
                0x00038f7e                RTC0_IRQHandler
                0x00038f7e                UARTE1_IRQHandler
                0x00038f7e                POWER_CLOCK_IRQHandler
                0x00038f7e                SPIM3_IRQHandler
                0x00038f7e                PWM2_IRQHandler
                0x00038f7e                ECB_IRQHandler
                0x00038f7e                SPIM1_SPIS1_TWIM1_TWIS1_SPI1_TWI1_IRQHandler
                0x00038f7e                Default_Handler
                0x00038f7e                SAADC_IRQHandler
                0x00038f7e                CCM_AAR_IRQHandler
                0x00038f7e                WDT_IRQHandler
                0x00038f7e                SWI0_EGU0_IRQHandler
                0x00038f7e                SWI5_EGU5_IRQHandler
                0x00038f7e                RNG_IRQHandler
                0x00038f7e                RTC2_IRQHandler
                0x00038f7e                PWM0_IRQHandler
                0x00038f7e                SWI3_EGU3_IRQHandler
                0x00038f7e                RTC1_IRQHandler
                0x00038f7e                SWI1_EGU1_IRQHandler
                0x00038f7e                SPIM2_SPIS2_SPI2_IRQHandler
                0x00038f7e                NFCT_IRQHandler
                0x00038f7e                PWM1_IRQHandler
                0x00038f7e                MWU_IRQHandler
                0x00038f7e                TIMER1_IRQHandler
                0x00038f7e                QSPI_IRQHandler
                0x00038f7e                COMP_LPCOMP_IRQHandler
 .text.app_error_handler
                0x00038f80       0x1a examples/light_switch/provisioner/CMakeFiles/light_switch_provisioner_nrf52840_xxAA_s140_6.0.0.dir/C_/ver/mod/nRF5_SDK_15.0.0_a53641a/components/libraries/util/app_error_handler_gcc.c.obj
                0x00038f80                app_error_handler
 .text._GetAvailWriteSpace
                0x00038f9a       0x1c external/rtt/librtt_nrf52840_xxAA.a(SEGGER_RTT.c.obj)
 .text._WriteNoCheck
                0x00038fb6       0x3c external/rtt/librtt_nrf52840_xxAA.a(SEGGER_RTT.c.obj)
 .text._WriteBlocking
                0x00038ff2       0x52 external/rtt/librtt_nrf52840_xxAA.a(SEGGER_RTT.c.obj)
 .text._DoInit  0x00039044       0x60 external/rtt/librtt_nrf52840_xxAA.a(SEGGER_RTT.c.obj)
 .text.SEGGER_RTT_ReadNoLock
                0x000390a4       0x88 external/rtt/librtt_nrf52840_xxAA.a(SEGGER_RTT.c.obj)
                0x000390a4                SEGGER_RTT_ReadNoLock
 .text.SEGGER_RTT_Read
                0x0003912c       0x1c external/rtt/librtt_nrf52840_xxAA.a(SEGGER_RTT.c.obj)
                0x0003912c                SEGGER_RTT_Read
 .text.SEGGER_RTT_WriteNoLock
                0x00039148       0x68 external/rtt/librtt_nrf52840_xxAA.a(SEGGER_RTT.c.obj)
                0x00039148                SEGGER_RTT_WriteNoLock
 .text.SEGGER_RTT_Write
                0x000391b0       0x34 external/rtt/librtt_nrf52840_xxAA.a(SEGGER_RTT.c.obj)
                0x000391b0                SEGGER_RTT_Write
 .text.SEGGER_RTT_GetKey
                0x000391e4       0x20 external/rtt/librtt_nrf52840_xxAA.a(SEGGER_RTT.c.obj)
                0x000391e4                SEGGER_RTT_GetKey
 .text._StoreChar
                0x00039204       0x3e external/rtt/librtt_nrf52840_xxAA.a(SEGGER_RTT_printf.c.obj)
 *fill*         0x00039242        0x2 
 .text._PrintUnsigned
                0x00039244       0xd0 external/rtt/librtt_nrf52840_xxAA.a(SEGGER_RTT_printf.c.obj)
 .text.SEGGER_RTT_vprintf
                0x00039314      0x246 external/rtt/librtt_nrf52840_xxAA.a(SEGGER_RTT_printf.c.obj)
                0x00039314                SEGGER_RTT_vprintf
 .text.SEGGER_RTT_printf
                0x0003955a       0x1e external/rtt/librtt_nrf52840_xxAA.a(SEGGER_RTT_printf.c.obj)
                0x0003955a                SEGGER_RTT_printf
 .text.uECC_vli_mult
                0x00039578       0x64 external/micro-ecc/libuECC_nrf52840_xxAA.a(uECC.c.obj)
 .text.uECC_vli_clear
                0x000395dc       0x16 external/micro-ecc/libuECC_nrf52840_xxAA.a(uECC.c.obj)
 .text.uECC_vli_isZero
                0x000395f2       0x1e external/micro-ecc/libuECC_nrf52840_xxAA.a(uECC.c.obj)
 .text.uECC_vli_testBit
                0x00039610       0x14 external/micro-ecc/libuECC_nrf52840_xxAA.a(uECC.c.obj)
 .text.uECC_vli_numBits
                0x00039624       0x3a external/micro-ecc/libuECC_nrf52840_xxAA.a(uECC.c.obj)
 .text.uECC_vli_set
                0x0003965e       0x18 external/micro-ecc/libuECC_nrf52840_xxAA.a(uECC.c.obj)
 .text.uECC_vli_cmp_unsafe
                0x00039676       0x28 external/micro-ecc/libuECC_nrf52840_xxAA.a(uECC.c.obj)
 .text.uECC_vli_rshift1
                0x0003969e       0x1c external/micro-ecc/libuECC_nrf52840_xxAA.a(uECC.c.obj)
 .text.uECC_vli_modMult_fast
                0x000396ba       0x20 external/micro-ecc/libuECC_nrf52840_xxAA.a(uECC.c.obj)
 .text.uECC_vli_modSquare_fast
                0x000396da        0x8 external/micro-ecc/libuECC_nrf52840_xxAA.a(uECC.c.obj)
 .text.apply_z  0x000396e2       0x3e external/micro-ecc/libuECC_nrf52840_xxAA.a(uECC.c.obj)
 .text.uECC_vli_nativeToBytes
                0x00039720       0x28 external/micro-ecc/libuECC_nrf52840_xxAA.a(uECC.c.obj)
 .text.uECC_vli_bytesToNative
                0x00039748       0x40 external/micro-ecc/libuECC_nrf52840_xxAA.a(uECC.c.obj)
 .text.default_RNG
                0x00039788        0xc external/micro-ecc/libuECC_nrf52840_xxAA.a(uECC.c.obj)
 .text.uECC_vli_add.isra.0
                0x00039794       0x4a external/micro-ecc/libuECC_nrf52840_xxAA.a(uECC.c.obj)
 .text.regularize_k
                0x000397de       0x50 external/micro-ecc/libuECC_nrf52840_xxAA.a(uECC.c.obj)
 .text.uECC_vli_sub.isra.1
                0x0003982e       0x4e external/micro-ecc/libuECC_nrf52840_xxAA.a(uECC.c.obj)
 .text.uECC_vli_cmp
                0x0003987c       0x30 external/micro-ecc/libuECC_nrf52840_xxAA.a(uECC.c.obj)
 .text.uECC_generate_random_int
                0x000398ac       0x78 external/micro-ecc/libuECC_nrf52840_xxAA.a(uECC.c.obj)
 .text.uECC_vli_modAdd
                0x00039924       0x2e external/micro-ecc/libuECC_nrf52840_xxAA.a(uECC.c.obj)
 *fill*         0x00039952        0x2 
 .text.vli_mmod_fast_secp256r1
                0x00039954      0x194 external/micro-ecc/libuECC_nrf52840_xxAA.a(uECC.c.obj)
 .text.uECC_vli_modSub.isra.2
                0x00039ae8       0x1c external/micro-ecc/libuECC_nrf52840_xxAA.a(uECC.c.obj)
 .text.double_jacobian_default
                0x00039b04      0x14a external/micro-ecc/libuECC_nrf52840_xxAA.a(uECC.c.obj)
 .text.x_side_default
                0x00039c4e       0x5a external/micro-ecc/libuECC_nrf52840_xxAA.a(uECC.c.obj)
 .text.XYcZ_add
                0x00039ca8       0xbc external/micro-ecc/libuECC_nrf52840_xxAA.a(uECC.c.obj)
 .text.XYcZ_addC
                0x00039d64      0x10a external/micro-ecc/libuECC_nrf52840_xxAA.a(uECC.c.obj)
 .text.vli_modInv_update
                0x00039e6e       0x36 external/micro-ecc/libuECC_nrf52840_xxAA.a(uECC.c.obj)
 .text.uECC_vli_modInv
                0x00039ea4      0x102 external/micro-ecc/libuECC_nrf52840_xxAA.a(uECC.c.obj)
 .text.EccPoint_mult
                0x00039fa6      0x19e external/micro-ecc/libuECC_nrf52840_xxAA.a(uECC.c.obj)
 .text.EccPoint_compute_public_key
                0x0003a144       0x54 external/micro-ecc/libuECC_nrf52840_xxAA.a(uECC.c.obj)
 .text.uECC_secp256r1
                0x0003a198        0x8 external/micro-ecc/libuECC_nrf52840_xxAA.a(uECC.c.obj)
                0x0003a198                uECC_secp256r1
 .text.uECC_make_key
                0x0003a1a0       0x7e external/micro-ecc/libuECC_nrf52840_xxAA.a(uECC.c.obj)
                0x0003a1a0                uECC_make_key
 *fill*         0x0003a21e        0x2 
 .text.uECC_shared_secret
                0x0003a220       0xbc external/micro-ecc/libuECC_nrf52840_xxAA.a(uECC.c.obj)
                0x0003a220                uECC_shared_secret
 .text.uECC_valid_point
                0x0003a2dc       0x86 external/micro-ecc/libuECC_nrf52840_xxAA.a(uECC.c.obj)
                0x0003a2dc                uECC_valid_point
 .text.uECC_valid_public_key
                0x0003a362       0x32 external/micro-ecc/libuECC_nrf52840_xxAA.a(uECC.c.obj)
                0x0003a362                uECC_valid_public_key
 .text          0x0003a394       0x30 c:/mesh/arm_gcc/bin/../lib/gcc/arm-none-eabi/6.3.1/thumb/v7e-m/fpv4-sp/hard\libgcc.a(_aeabi_uldivmod.o)
                0x0003a394                __aeabi_uldivmod
 .text          0x0003a3c4      0x2dc c:/mesh/arm_gcc/bin/../lib/gcc/arm-none-eabi/6.3.1/thumb/v7e-m/fpv4-sp/hard\libgcc.a(_udivmoddi4.o)
                0x0003a3c4                __udivmoddi4
 .text          0x0003a6a0        0x4 c:/mesh/arm_gcc/bin/../lib/gcc/arm-none-eabi/6.3.1/thumb/v7e-m/fpv4-sp/hard\libgcc.a(_dvmd_tls.o)
                0x0003a6a0                __aeabi_idiv0
                0x0003a6a0                __aeabi_ldiv0
 .text.exit     0x0003a6a4       0x28 c:/mesh/arm_gcc/bin/../lib/gcc/arm-none-eabi/6.3.1/../../../../arm-none-eabi/lib/thumb/v7e-m/fpv4-sp/hard\libg_nano.a(lib_a-exit.o)
                0x0003a6a4                exit
 .text.__libc_init_array
                0x0003a6cc       0x48 c:/mesh/arm_gcc/bin/../lib/gcc/arm-none-eabi/6.3.1/../../../../arm-none-eabi/lib/thumb/v7e-m/fpv4-sp/hard\libg_nano.a(lib_a-init.o)
                0x0003a6cc                __libc_init_array
 .text.malloc   0x0003a714       0x10 c:/mesh/arm_gcc/bin/../lib/gcc/arm-none-eabi/6.3.1/../../../../arm-none-eabi/lib/thumb/v7e-m/fpv4-sp/hard\libg_nano.a(lib_a-malloc.o)
                0x0003a714                malloc
 .text.free     0x0003a724       0x10 c:/mesh/arm_gcc/bin/../lib/gcc/arm-none-eabi/6.3.1/../../../../arm-none-eabi/lib/thumb/v7e-m/fpv4-sp/hard\libg_nano.a(lib_a-malloc.o)
                0x0003a724                free
 .text.memcmp   0x0003a734       0x1e c:/mesh/arm_gcc/bin/../lib/gcc/arm-none-eabi/6.3.1/../../../../arm-none-eabi/lib/thumb/v7e-m/fpv4-sp/hard\libg_nano.a(lib_a-memcmp.o)
                0x0003a734                memcmp
 .text.memcpy   0x0003a752       0x16 c:/mesh/arm_gcc/bin/../lib/gcc/arm-none-eabi/6.3.1/../../../../arm-none-eabi/lib/thumb/v7e-m/fpv4-sp/hard\libg_nano.a(lib_a-memcpy-stub.o)
                0x0003a752                memcpy
 .text.memset   0x0003a768       0x10 c:/mesh/arm_gcc/bin/../lib/gcc/arm-none-eabi/6.3.1/../../../../arm-none-eabi/lib/thumb/v7e-m/fpv4-sp/hard\libg_nano.a(lib_a-memset.o)
                0x0003a768                memset
 .text._free_r  0x0003a778       0x9c c:/mesh/arm_gcc/bin/../lib/gcc/arm-none-eabi/6.3.1/../../../../arm-none-eabi/lib/thumb/v7e-m/fpv4-sp/hard\libg_nano.a(lib_a-nano-freer.o)
                0x0003a778                _free_r
 .text._malloc_r
                0x0003a814       0xbc c:/mesh/arm_gcc/bin/../lib/gcc/arm-none-eabi/6.3.1/../../../../arm-none-eabi/lib/thumb/v7e-m/fpv4-sp/hard\libg_nano.a(lib_a-nano-mallocr.o)
                0x0003a814                _malloc_r
 .text._sbrk_r  0x0003a8d0       0x20 c:/mesh/arm_gcc/bin/../lib/gcc/arm-none-eabi/6.3.1/../../../../arm-none-eabi/lib/thumb/v7e-m/fpv4-sp/hard\libg_nano.a(lib_a-sbrkr.o)
                0x0003a8d0                _sbrk_r
 .text.strcpy   0x0003a8f0       0x10 c:/mesh/arm_gcc/bin/../lib/gcc/arm-none-eabi/6.3.1/../../../../arm-none-eabi/lib/thumb/v7e-m/fpv4-sp/hard\libg_nano.a(lib_a-strcpy.o)
                0x0003a8f0                strcpy
 .text          0x0003a900       0x10 c:/mesh/arm_gcc/bin/../lib/gcc/arm-none-eabi/6.3.1/../../../../arm-none-eabi/lib/thumb/v7e-m/fpv4-sp/hard\libg_nano.a(lib_a-strlen.o)
                0x0003a900                strlen
 .text.strrchr  0x0003a910       0x26 c:/mesh/arm_gcc/bin/../lib/gcc/arm-none-eabi/6.3.1/../../../../arm-none-eabi/lib/thumb/v7e-m/fpv4-sp/hard\libg_nano.a(lib_a-strrchr.o)
                0x0003a910                strrchr
 .text.__malloc_lock
                0x0003a936        0x2 c:/mesh/arm_gcc/bin/../lib/gcc/arm-none-eabi/6.3.1/../../../../arm-none-eabi/lib/thumb/v7e-m/fpv4-sp/hard\libg_nano.a(lib_a-mlock.o)
                0x0003a936                __malloc_lock
 .text.__malloc_unlock
                0x0003a938        0x2 c:/mesh/arm_gcc/bin/../lib/gcc/arm-none-eabi/6.3.1/../../../../arm-none-eabi/lib/thumb/v7e-m/fpv4-sp/hard\libg_nano.a(lib_a-mlock.o)
                0x0003a938                __malloc_unlock
 .text.strchr   0x0003a93a       0x1c c:/mesh/arm_gcc/bin/../lib/gcc/arm-none-eabi/6.3.1/../../../../arm-none-eabi/lib/thumb/v7e-m/fpv4-sp/hard\libg_nano.a(lib_a-strchr.o)
                0x0003a93a                strchr
 *fill*         0x0003a956        0x2 
 .text._sbrk    0x0003a958       0x1c c:/mesh/arm_gcc/bin/../lib/gcc/arm-none-eabi/6.3.1/../../../../arm-none-eabi/lib/thumb/v7e-m/fpv4-sp/hard\libnosys.a(sbrk.o)
                0x0003a958                _sbrk
 .text._exit    0x0003a974        0x4 c:/mesh/arm_gcc/bin/../lib/gcc/arm-none-eabi/6.3.1/../../../../arm-none-eabi/lib/thumb/v7e-m/fpv4-sp/hard\libnosys.a(_exit.o)
                0x0003a974                _exit
 *(.init)
 .init          0x0003a978        0x4 c:/mesh/arm_gcc/bin/../lib/gcc/arm-none-eabi/6.3.1/thumb/v7e-m/fpv4-sp/hard/crti.o
                0x0003a978                _init
 .init          0x0003a97c        0x8 c:/mesh/arm_gcc/bin/../lib/gcc/arm-none-eabi/6.3.1/thumb/v7e-m/fpv4-sp/hard/crtn.o
 *(.fini)
 .fini          0x0003a984        0x4 c:/mesh/arm_gcc/bin/../lib/gcc/arm-none-eabi/6.3.1/thumb/v7e-m/fpv4-sp/hard/crti.o
                0x0003a984                _fini
 .fini          0x0003a988        0x8 c:/mesh/arm_gcc/bin/../lib/gcc/arm-none-eabi/6.3.1/thumb/v7e-m/fpv4-sp/hard/crtn.o
 *crtbegin.o(.ctors)
 *crtbegin?.o(.ctors)
 *(EXCLUDE_FILE(*crtend.o *crtend?.o) .ctors)
 *(SORT(.ctors.*))
 *(.ctors)
 *crtbegin.o(.dtors)
 *crtbegin?.o(.dtors)
 *(EXCLUDE_FILE(*crtend.o *crtend?.o) .dtors)
 *(SORT(.dtors.*))
 *(.dtors)
 *(.rodata*)
 .rodata        0x0003a990       0x18 examples/light_switch/provisioner/CMakeFiles/light_switch_provisioner_nrf52840_xxAA_s140_6.0.0.dir/src/main.c.obj
 .rodata.app_config_client_event_cb.str1.1
                0x0003a9a8       0x15 examples/light_switch/provisioner/CMakeFiles/light_switch_provisioner_nrf52840_xxAA_s140_6.0.0.dir/src/main.c.obj
 .rodata.app_config_failed_cb.str1.1
                0x0003a9bd       0x3d examples/light_switch/provisioner/CMakeFiles/light_switch_provisioner_nrf52840_xxAA_s140_6.0.0.dir/src/main.c.obj
 .rodata.app_config_server_event_cb.str1.1
                0x0003a9fa       0x19 examples/light_switch/provisioner/CMakeFiles/light_switch_provisioner_nrf52840_xxAA_s140_6.0.0.dir/src/main.c.obj
 .rodata.app_config_successful_cb.str1.1
                0x0003aa13       0x40 examples/light_switch/provisioner/CMakeFiles/light_switch_provisioner_nrf52840_xxAA_s140_6.0.0.dir/src/main.c.obj
 .rodata.app_flash_manager_add.str1.1
                0x0003aa53       0x2a examples/light_switch/provisioner/CMakeFiles/light_switch_provisioner_nrf52840_xxAA_s140_6.0.0.dir/src/main.c.obj
 .rodata.app_health_event_cb.str1.1
                0x0003aa7d       0x35 examples/light_switch/provisioner/CMakeFiles/light_switch_provisioner_nrf52840_xxAA_s140_6.0.0.dir/src/main.c.obj
 .rodata.app_mesh_core_event_cb.str1.1
                0x0003aab2       0xf4 examples/light_switch/provisioner/CMakeFiles/light_switch_provisioner_nrf52840_xxAA_s140_6.0.0.dir/src/main.c.obj
 .rodata.app_prov_failed_cb.str1.1
                0x0003aba6       0x2f examples/light_switch/provisioner/CMakeFiles/light_switch_provisioner_nrf52840_xxAA_s140_6.0.0.dir/src/main.c.obj
 .rodata.app_prov_success_cb.str1.1
                0x0003abd5       0x19 examples/light_switch/provisioner/CMakeFiles/light_switch_provisioner_nrf52840_xxAA_s140_6.0.0.dir/src/main.c.obj
 .rodata.button_event_handler.str1.1
                0x0003abee      0x125 examples/light_switch/provisioner/CMakeFiles/light_switch_provisioner_nrf52840_xxAA_s140_6.0.0.dir/src/main.c.obj
 .rodata.flash_invalidate_complete.str1.1
                0x0003ad13       0x30 examples/light_switch/provisioner/CMakeFiles/light_switch_provisioner_nrf52840_xxAA_s140_6.0.0.dir/src/main.c.obj
 .rodata.flash_remove_complete.str1.1
                0x0003ad43       0x17 examples/light_switch/provisioner/CMakeFiles/light_switch_provisioner_nrf52840_xxAA_s140_6.0.0.dir/src/main.c.obj
 .rodata.flash_write_complete.str1.1
                0x0003ad5a       0x16 examples/light_switch/provisioner/CMakeFiles/light_switch_provisioner_nrf52840_xxAA_s140_6.0.0.dir/src/main.c.obj
 .rodata.m_client_node_uuid
                0x0003ad70       0x10 examples/light_switch/provisioner/CMakeFiles/light_switch_provisioner_nrf52840_xxAA_s140_6.0.0.dir/src/main.c.obj
 .rodata.m_server_uuid_filter
                0x0003ad80        0x4 examples/light_switch/provisioner/CMakeFiles/light_switch_provisioner_nrf52840_xxAA_s140_6.0.0.dir/src/main.c.obj
 .rodata.main.str1.1
                0x0003ad84       0x9d examples/light_switch/provisioner/CMakeFiles/light_switch_provisioner_nrf52840_xxAA_s140_6.0.0.dir/src/main.c.obj
 .rodata.models_init_cb.str1.1
                0x0003ae21       0x20 examples/light_switch/provisioner/CMakeFiles/light_switch_provisioner_nrf52840_xxAA_s140_6.0.0.dir/src/main.c.obj
 *fill*         0x0003ae41        0x1 
 .rodata        0x0003ae42       0x20 examples/light_switch/provisioner/CMakeFiles/light_switch_provisioner_nrf52840_xxAA_s140_6.0.0.dir/src/provisioner_helper.c.obj
 .rodata.prov_evt_handler.str1.1
                0x0003ae62      0x2c7 examples/light_switch/provisioner/CMakeFiles/light_switch_provisioner_nrf52840_xxAA_s140_6.0.0.dir/src/provisioner_helper.c.obj
                                0x2cf (size before relaxing)
 .rodata.prov_helper_device_handles_load.str1.1
                0x0003b129       0x3f examples/light_switch/provisioner/CMakeFiles/light_switch_provisioner_nrf52840_xxAA_s140_6.0.0.dir/src/provisioner_helper.c.obj
 .rodata.prov_helper_provision_self.str1.1
                0x0003b168       0x13 examples/light_switch/provisioner/CMakeFiles/light_switch_provisioner_nrf52840_xxAA_s140_6.0.0.dir/src/provisioner_helper.c.obj
 .rodata.prov_helper_scan_start.str1.1
                0x0003b17b       0x24 examples/light_switch/provisioner/CMakeFiles/light_switch_provisioner_nrf52840_xxAA_s140_6.0.0.dir/src/provisioner_helper.c.obj
 .rodata.client_config_steps
                0x0003b19f        0xd examples/light_switch/provisioner/CMakeFiles/light_switch_provisioner_nrf52840_xxAA_s140_6.0.0.dir/src/node_setup.c.obj
 .rodata.client_pub_state_set.str1.1
                0x0003b1ac       0x64 examples/light_switch/provisioner/CMakeFiles/light_switch_provisioner_nrf52840_xxAA_s140_6.0.0.dir/src/node_setup.c.obj
 .rodata.config_step_execute.str1.1
                0x0003b210      0x117 examples/light_switch/provisioner/CMakeFiles/light_switch_provisioner_nrf52840_xxAA_s140_6.0.0.dir/src/node_setup.c.obj
 .rodata.exp_status.11588
                0x0003b327        0x2 examples/light_switch/provisioner/CMakeFiles/light_switch_provisioner_nrf52840_xxAA_s140_6.0.0.dir/src/node_setup.c.obj
 .rodata.exp_status.11592
                0x0003b329        0x1 examples/light_switch/provisioner/CMakeFiles/light_switch_provisioner_nrf52840_xxAA_s140_6.0.0.dir/src/node_setup.c.obj
 .rodata.exp_status.11596
                0x0003b32a        0x1 examples/light_switch/provisioner/CMakeFiles/light_switch_provisioner_nrf52840_xxAA_s140_6.0.0.dir/src/node_setup.c.obj
 .rodata.exp_status.11600
                0x0003b32b        0x1 examples/light_switch/provisioner/CMakeFiles/light_switch_provisioner_nrf52840_xxAA_s140_6.0.0.dir/src/node_setup.c.obj
 .rodata.exp_status.11603
                0x0003b32c        0x1 examples/light_switch/provisioner/CMakeFiles/light_switch_provisioner_nrf52840_xxAA_s140_6.0.0.dir/src/node_setup.c.obj
 .rodata.exp_status.11606
                0x0003b32d        0x1 examples/light_switch/provisioner/CMakeFiles/light_switch_provisioner_nrf52840_xxAA_s140_6.0.0.dir/src/node_setup.c.obj
 .rodata.exp_status.11611
                0x0003b32e        0x1 examples/light_switch/provisioner/CMakeFiles/light_switch_provisioner_nrf52840_xxAA_s140_6.0.0.dir/src/node_setup.c.obj
 .rodata.exp_status.11614
                0x0003b32f        0x1 examples/light_switch/provisioner/CMakeFiles/light_switch_provisioner_nrf52840_xxAA_s140_6.0.0.dir/src/node_setup.c.obj
 .rodata.exp_status.11617
                0x0003b330        0x1 examples/light_switch/provisioner/CMakeFiles/light_switch_provisioner_nrf52840_xxAA_s140_6.0.0.dir/src/node_setup.c.obj
 .rodata.exp_status.11620
                0x0003b331        0x1 examples/light_switch/provisioner/CMakeFiles/light_switch_provisioner_nrf52840_xxAA_s140_6.0.0.dir/src/node_setup.c.obj
 .rodata.exp_status.11623
                0x0003b332        0x1 examples/light_switch/provisioner/CMakeFiles/light_switch_provisioner_nrf52840_xxAA_s140_6.0.0.dir/src/node_setup.c.obj
 .rodata.m_idle_step
                0x0003b333        0x1 examples/light_switch/provisioner/CMakeFiles/light_switch_provisioner_nrf52840_xxAA_s140_6.0.0.dir/src/node_setup.c.obj
 .rodata.node_setup_config_client_event_process.str1.1
                0x0003b334       0x9a examples/light_switch/provisioner/CMakeFiles/light_switch_provisioner_nrf52840_xxAA_s140_6.0.0.dir/src/node_setup.c.obj
 .rodata.node_setup_start.str1.1
                0x0003b3ce       0x84 examples/light_switch/provisioner/CMakeFiles/light_switch_provisioner_nrf52840_xxAA_s140_6.0.0.dir/src/node_setup.c.obj
 .rodata.retry_on_fail.str1.1
                0x0003b452       0x1b examples/light_switch/provisioner/CMakeFiles/light_switch_provisioner_nrf52840_xxAA_s140_6.0.0.dir/src/node_setup.c.obj
 .rodata.server1_server2_config_steps
                0x0003b46d        0x8 examples/light_switch/provisioner/CMakeFiles/light_switch_provisioner_nrf52840_xxAA_s140_6.0.0.dir/src/node_setup.c.obj
 .rodata.server_config_steps
                0x0003b475        0x7 examples/light_switch/provisioner/CMakeFiles/light_switch_provisioner_nrf52840_xxAA_s140_6.0.0.dir/src/node_setup.c.obj
 .rodata.mesh_softdevice_init.str1.1
                0x0003b47c       0xa4 examples/light_switch/provisioner/CMakeFiles/light_switch_provisioner_nrf52840_xxAA_s140_6.0.0.dir/__/__/common/src/mesh_softdevice_init.c.obj
 .rodata.delay_bytecode.8707
                0x0003b520        0x6 examples/light_switch/provisioner/CMakeFiles/light_switch_provisioner_nrf52840_xxAA_s140_6.0.0.dir/__/__/common/src/simple_hal.c.obj
 .rodata.m_buttons_list
                0x0003b526        0x4 examples/light_switch/provisioner/CMakeFiles/light_switch_provisioner_nrf52840_xxAA_s140_6.0.0.dir/__/__/common/src/simple_hal.c.obj
 .rodata.app_error_fault_handler.str1.1
                0x0003b52a       0xbd examples/light_switch/provisioner/CMakeFiles/light_switch_provisioner_nrf52840_xxAA_s140_6.0.0.dir/__/__/common/src/app_error_weak.c.obj
 .rodata.mesh_assertion_handler.str1.1
                0x0003b5e7       0xbd examples/light_switch/provisioner/CMakeFiles/light_switch_provisioner_nrf52840_xxAA_s140_6.0.0.dir/__/__/common/src/assertion_handler_weak.c.obj
                                  0x1 (size before relaxing)
 .rodata.sar_ctx_cancel.str1.1
                0x0003b5e7       0x23 examples/light_switch/provisioner/CMakeFiles/light_switch_provisioner_nrf52840_xxAA_s140_6.0.0.dir/__/__/__/mesh/core/src/transport.c.obj
 .rodata.test_transport_decrypt.str1.1
                0x0003b60a       0x30 examples/light_switch/provisioner/CMakeFiles/light_switch_provisioner_nrf52840_xxAA_s140_6.0.0.dir/__/__/__/mesh/core/src/transport.c.obj
 .rodata.transport_packet_in.str1.1
                0x0003b63a       0x24 examples/light_switch/provisioner/CMakeFiles/light_switch_provisioner_nrf52840_xxAA_s140_6.0.0.dir/__/__/__/mesh/core/src/transport.c.obj
 .rodata.upper_transport_access_packet_in.str1.1
                0x0003b65e       0x29 examples/light_switch/provisioner/CMakeFiles/light_switch_provisioner_nrf52840_xxAA_s140_6.0.0.dir/__/__/__/mesh/core/src/transport.c.obj
 .rodata.upper_transport_packet_in.str1.1
                0x0003b687       0x2e examples/light_switch/provisioner/CMakeFiles/light_switch_provisioner_nrf52840_xxAA_s140_6.0.0.dir/__/__/__/mesh/core/src/transport.c.obj
 .rodata.upper_transport_tx.str1.1
                0x0003b6b5        0xe examples/light_switch/provisioner/CMakeFiles/light_switch_provisioner_nrf52840_xxAA_s140_6.0.0.dir/__/__/__/mesh/core/src/transport.c.obj
                                 0x16 (size before relaxing)
 *fill*         0x0003b6c3        0x1 
 .rodata.m_procedure_steps
                0x0003b6c4       0x28 examples/light_switch/provisioner/CMakeFiles/light_switch_provisioner_nrf52840_xxAA_s140_6.0.0.dir/__/__/__/mesh/core/src/flash_manager_defrag.c.obj
 .rodata.m_all_operations
                0x0003b6ec       0x10 examples/light_switch/provisioner/CMakeFiles/light_switch_provisioner_nrf52840_xxAA_s140_6.0.0.dir/__/__/__/mesh/core/src/mesh_flash.c.obj
 .rodata.types_lookup.9352
                0x0003b6fc        0x4 examples/light_switch/provisioner/CMakeFiles/light_switch_provisioner_nrf52840_xxAA_s140_6.0.0.dir/__/__/__/mesh/core/src/nrf_mesh_utils.c.obj
 .rodata.__func__.11824
                0x0003b700       0x15 examples/light_switch/provisioner/CMakeFiles/light_switch_provisioner_nrf52840_xxAA_s140_6.0.0.dir/__/__/__/mesh/core/src/nrf_mesh.c.obj
 .rodata.nrf_mesh_listen.str1.1
                0x0003b715       0x70 examples/light_switch/provisioner/CMakeFiles/light_switch_provisioner_nrf52840_xxAA_s140_6.0.0.dir/__/__/__/mesh/core/src/nrf_mesh.c.obj
 .rodata.nrf_mesh_packet_send.str1.1
                0x0003b785       0x70 examples/light_switch/provisioner/CMakeFiles/light_switch_provisioner_nrf52840_xxAA_s140_6.0.0.dir/__/__/__/mesh/core/src/nrf_mesh.c.obj
                                  0x4 (size before relaxing)
 *fill*         0x0003b785        0x1 
 .rodata.CSWTCH.7
                0x0003b786       0x10 examples/light_switch/provisioner/CMakeFiles/light_switch_provisioner_nrf52840_xxAA_s140_6.0.0.dir/__/__/__/mesh/core/src/hal.c.obj
 .rodata.Rb.7608
                0x0003b796       0x10 examples/light_switch/provisioner/CMakeFiles/light_switch_provisioner_nrf52840_xxAA_s140_6.0.0.dir/__/__/__/mesh/core/src/aes_cmac.c.obj
 .rodata        0x0003b7a6       0x15 examples/light_switch/provisioner/CMakeFiles/light_switch_provisioner_nrf52840_xxAA_s140_6.0.0.dir/__/__/__/mesh/core/src/enc.c.obj
 .rodata.network_packet_in.str1.1
                0x0003b7bb       0x48 examples/light_switch/provisioner/CMakeFiles/light_switch_provisioner_nrf52840_xxAA_s140_6.0.0.dir/__/__/__/mesh/core/src/network.c.obj
 .rodata.net_packet_decrypt.str1.1
                0x0003b803       0x31 examples/light_switch/provisioner/CMakeFiles/light_switch_provisioner_nrf52840_xxAA_s140_6.0.0.dir/__/__/__/mesh/core/src/net_packet.c.obj
                                 0x39 (size before relaxing)
 .rodata        0x0003b834        0x7 examples/light_switch/provisioner/CMakeFiles/light_switch_provisioner_nrf52840_xxAA_s140_6.0.0.dir/__/__/__/mesh/core/src/nrf_mesh_keygen.c.obj
 .rodata.log_callback_rtt.str1.1
                0x0003b83b       0x15 examples/light_switch/provisioner/CMakeFiles/light_switch_provisioner_nrf52840_xxAA_s140_6.0.0.dir/__/__/__/mesh/core/src/log.c.obj
 .rodata.str1.1
                0x0003b850       0x11 examples/light_switch/provisioner/CMakeFiles/light_switch_provisioner_nrf52840_xxAA_s140_6.0.0.dir/__/__/__/mesh/core/src/log.c.obj
 *fill*         0x0003b861        0x3 
 .rodata.INVALID_HEADER
                0x0003b864        0x4 examples/light_switch/provisioner/CMakeFiles/light_switch_provisioner_nrf52840_xxAA_s140_6.0.0.dir/__/__/__/mesh/core/src/flash_manager.c.obj
                0x0003b864                INVALID_HEADER
 .rodata.PADDING_HEADER
                0x0003b868        0x4 examples/light_switch/provisioner/CMakeFiles/light_switch_provisioner_nrf52840_xxAA_s140_6.0.0.dir/__/__/__/mesh/core/src/flash_manager.c.obj
                0x0003b868                PADDING_HEADER
 .rodata.SEAL_HEADER
                0x0003b86c        0x4 examples/light_switch/provisioner/CMakeFiles/light_switch_provisioner_nrf52840_xxAA_s140_6.0.0.dir/__/__/__/mesh/core/src/flash_manager.c.obj
                0x0003b86c                SEAL_HEADER
 .rodata.beacon_packet_in.str1.1
                0x0003b870       0x51 examples/light_switch/provisioner/CMakeFiles/light_switch_provisioner_nrf52840_xxAA_s140_6.0.0.dir/__/__/__/mesh/core/src/beacon.c.obj
                                 0x59 (size before relaxing)
 *fill*         0x0003b8c1        0x3 
 .rodata.cp_handler
                0x0003b8c4        0x8 examples/light_switch/provisioner/CMakeFiles/light_switch_provisioner_nrf52840_xxAA_s140_6.0.0.dir/__/__/__/mesh/core/src/heartbeat.c.obj
 .rodata.beacon_tx.str1.1
                0x0003b8cc       0x35 examples/light_switch/provisioner/CMakeFiles/light_switch_provisioner_nrf52840_xxAA_s140_6.0.0.dir/__/__/__/mesh/core/src/net_beacon.c.obj
 .rodata.net_beacon_init.str1.1
                0x0003b901        0x5 examples/light_switch/provisioner/CMakeFiles/light_switch_provisioner_nrf52840_xxAA_s140_6.0.0.dir/__/__/__/mesh/core/src/net_beacon.c.obj
 *fill*         0x0003b906        0x2 
 .rodata.m_interface
                0x0003b908        0xc examples/light_switch/provisioner/CMakeFiles/light_switch_provisioner_nrf52840_xxAA_s140_6.0.0.dir/__/__/__/mesh/core/src/core_tx_adv.c.obj
 .rodata.radio_mode_to_us_per_byte.9745
                0x0003b914        0x6 examples/light_switch/provisioner/CMakeFiles/light_switch_provisioner_nrf52840_xxAA_s140_6.0.0.dir/__/__/__/mesh/bearer/src/broadcast.c.obj
 .rodata.channel_rf_offsets.8986
                0x0003b91a       0x28 examples/light_switch/provisioner/CMakeFiles/light_switch_provisioner_nrf52840_xxAA_s140_6.0.0.dir/__/__/__/mesh/bearer/src/radio_config.c.obj
 .rodata        0x0003b942        0x3 examples/light_switch/provisioner/CMakeFiles/light_switch_provisioner_nrf52840_xxAA_s140_6.0.0.dir/__/__/__/mesh/bearer/src/scanner.c.obj
 *fill*         0x0003b945        0x1 
 .rodata.m_config_message_lut
                0x0003b946       0x5a examples/light_switch/provisioner/CMakeFiles/light_switch_provisioner_nrf52840_xxAA_s140_6.0.0.dir/__/__/__/models/config/src/config_client.c.obj
 .rodata.m_opcode_handlers
                0x0003b9a0       0x78 examples/light_switch/provisioner/CMakeFiles/light_switch_provisioner_nrf52840_xxAA_s140_6.0.0.dir/__/__/__/models/config/src/config_client.c.obj
 .rodata        0x0003ba18        0x8 examples/light_switch/provisioner/CMakeFiles/light_switch_provisioner_nrf52840_xxAA_s140_6.0.0.dir/__/__/__/models/config/src/config_server.c.obj
 .rodata.CSWTCH.122
                0x0003ba20       0x10 examples/light_switch/provisioner/CMakeFiles/light_switch_provisioner_nrf52840_xxAA_s140_6.0.0.dir/__/__/__/models/config/src/config_server.c.obj
 .rodata.opcode_handlers
                0x0003ba30      0x170 examples/light_switch/provisioner/CMakeFiles/light_switch_provisioner_nrf52840_xxAA_s140_6.0.0.dir/__/__/__/models/config/src/config_server.c.obj
 .rodata.m_opcode_handlers
                0x0003bba0       0x58 examples/light_switch/provisioner/CMakeFiles/light_switch_provisioner_nrf52840_xxAA_s140_6.0.0.dir/__/__/__/models/health/src/health_server.c.obj
 .rodata.multiply_de_bruijn_bit_position.9597
                0x0003bbf8       0x20 examples/light_switch/provisioner/CMakeFiles/light_switch_provisioner_nrf52840_xxAA_s140_6.0.0.dir/__/__/__/models/health/src/health_server.c.obj
 .rodata.m_opcode_handlers
                0x0003bc18       0x20 examples/light_switch/provisioner/CMakeFiles/light_switch_provisioner_nrf52840_xxAA_s140_6.0.0.dir/__/__/__/models/health/src/health_client.c.obj
 .rodata.mesh_evt_cb.str1.1
                0x0003bc38       0x2f examples/light_switch/provisioner/CMakeFiles/light_switch_provisioner_nrf52840_xxAA_s140_6.0.0.dir/__/__/__/mesh/access/src/access.c.obj
 .rodata.multiply_de_bruijn_bit_position.9553
                0x0003bc67       0x20 examples/light_switch/provisioner/CMakeFiles/light_switch_provisioner_nrf52840_xxAA_s140_6.0.0.dir/__/__/__/mesh/access/src/access.c.obj
 .rodata.packet_tx.str1.1
                0x0003bc87       0x1c examples/light_switch/provisioner/CMakeFiles/light_switch_provisioner_nrf52840_xxAA_s140_6.0.0.dir/__/__/__/mesh/access/src/access.c.obj
                                 0x24 (size before relaxing)
 *fill*         0x0003bca3        0x1 
 .rodata.m_flash_groups
                0x0003bca4       0xa8 examples/light_switch/provisioner/CMakeFiles/light_switch_provisioner_nrf52840_xxAA_s140_6.0.0.dir/__/__/__/mesh/access/src/device_state_manager.c.obj
 .rodata.multiply_de_bruijn_bit_position.9659
                0x0003bd4c       0x20 examples/light_switch/provisioner/CMakeFiles/light_switch_provisioner_nrf52840_xxAA_s140_6.0.0.dir/__/__/__/mesh/access/src/device_state_manager.c.obj
 .rodata.m_prov_callbacks
                0x0003bd6c       0x10 examples/light_switch/provisioner/CMakeFiles/light_switch_provisioner_nrf52840_xxAA_s140_6.0.0.dir/__/__/__/mesh/prov/src/prov_provisioner.c.obj
 .rodata.pdu_sizes.11531
                0x0003bd7c        0xa examples/light_switch/provisioner/CMakeFiles/light_switch_provisioner_nrf52840_xxAA_s140_6.0.0.dir/__/__/__/mesh/prov/src/provisioning.c.obj
 .rodata.alphanumeric.11636
                0x0003bd86       0x25 examples/light_switch/provisioner/CMakeFiles/light_switch_provisioner_nrf52840_xxAA_s140_6.0.0.dir/__/__/__/mesh/prov/src/prov_utils.c.obj
 *fill*         0x0003bdab        0x1 
 .rodata.numeric_max.11630
                0x0003bdac       0x24 examples/light_switch/provisioner/CMakeFiles/light_switch_provisioner_nrf52840_xxAA_s140_6.0.0.dir/__/__/__/mesh/prov/src/prov_utils.c.obj
 .rodata.prov_utils_authentication_values_derive.str1.1
                0x0003bdd0        0x5 examples/light_switch/provisioner/CMakeFiles/light_switch_provisioner_nrf52840_xxAA_s140_6.0.0.dir/__/__/__/mesh/prov/src/prov_utils.c.obj
 .rodata.prov_utils_derive_keys.str1.1
                0x0003bdd5        0xf examples/light_switch/provisioner/CMakeFiles/light_switch_provisioner_nrf52840_xxAA_s140_6.0.0.dir/__/__/__/mesh/prov/src/prov_utils.c.obj
 .rodata.add_active_bearer.str1.1
                0x0003bde4       0x2c examples/light_switch/provisioner/CMakeFiles/light_switch_provisioner_nrf52840_xxAA_s140_6.0.0.dir/__/__/__/mesh/prov/src/prov_bearer_adv.c.obj
 .rodata.crctable.11265
                0x0003be10      0x100 examples/light_switch/provisioner/CMakeFiles/light_switch_provisioner_nrf52840_xxAA_s140_6.0.0.dir/__/__/__/mesh/prov/src/prov_bearer_adv.c.obj
 .rodata.interface.11495
                0x0003bf10       0x14 examples/light_switch/provisioner/CMakeFiles/light_switch_provisioner_nrf52840_xxAA_s140_6.0.0.dir/__/__/__/mesh/prov/src/prov_bearer_adv.c.obj
 .rodata.prov_bearer_adv_packet_in.str1.1
                0x0003bf24      0x26e examples/light_switch/provisioner/CMakeFiles/light_switch_provisioner_nrf52840_xxAA_s140_6.0.0.dir/__/__/__/mesh/prov/src/prov_bearer_adv.c.obj
 .rodata.tx_retry_cb.str1.1
                0x0003c192       0x37 examples/light_switch/provisioner/CMakeFiles/light_switch_provisioner_nrf52840_xxAA_s140_6.0.0.dir/__/__/__/mesh/prov/src/prov_bearer_adv.c.obj
 .rodata._DoInit.str1.1
                0x0003c1c9       0x14 external/rtt/librtt_nrf52840_xxAA.a(SEGGER_RTT.c.obj)
 .rodata._aV2C.5497
                0x0003c1dd       0x10 external/rtt/librtt_nrf52840_xxAA.a(SEGGER_RTT_printf.c.obj)
 *fill*         0x0003c1ed        0x3 
 .rodata.curve_secp256r1
                0x0003c1f0       0xb0 external/micro-ecc/libuECC_nrf52840_xxAA.a(uECC.c.obj)
 .rodata._global_impure_ptr
                0x0003c2a0        0x4 c:/mesh/arm_gcc/bin/../lib/gcc/arm-none-eabi/6.3.1/../../../../arm-none-eabi/lib/thumb/v7e-m/fpv4-sp/hard\libg_nano.a(lib_a-impure.o)
                0x0003c2a0                _global_impure_ptr
 *(.eh_frame*)
 .eh_frame      0x0003c2a4        0x0 c:/mesh/arm_gcc/bin/../lib/gcc/arm-none-eabi/6.3.1/thumb/v7e-m/fpv4-sp/hard/crtbegin.o
 .eh_frame      0x0003c2a4        0x4 c:/mesh/arm_gcc/bin/../lib/gcc/arm-none-eabi/6.3.1/thumb/v7e-m/fpv4-sp/hard/crtend.o

.glue_7         0x0003c2a8        0x0
 .glue_7        0x0003c2a8        0x0 linker stubs

.glue_7t        0x0003c2a8        0x0
 .glue_7t       0x0003c2a8        0x0 linker stubs

.vfp11_veneer   0x0003c2a8        0x0
 .vfp11_veneer  0x0003c2a8        0x0 linker stubs

.v4_bx          0x0003c2a8        0x0
 .v4_bx         0x0003c2a8        0x0 linker stubs

.iplt           0x0003c2a8        0x0
 .iplt          0x0003c2a8        0x0 c:/mesh/arm_gcc/bin/../lib/gcc/arm-none-eabi/6.3.1/thumb/v7e-m/fpv4-sp/hard/crtbegin.o

.pwr_mgmt_data  0x0003c2a8        0x0
                [!provide]                PROVIDE (__start_pwr_mgmt_data, .)
 *(SORT(.pwr_mgmt_data*))
                [!provide]                PROVIDE (__stop_pwr_mgmt_data, .)

.log_const_data
                0x0003c2a8        0x0
                [!provide]                PROVIDE (__start_log_const_data, .)
 *(.log_const_data)
                [!provide]                PROVIDE (__stop_log_const_data, .)

.cli_command    0x0003c2a8        0x0
                [!provide]                PROVIDE (__start_cli_command, .)
 *(.cli_command)
                [!provide]                PROVIDE (__stop_cli_command, .)

.sdh_stack_observers
                0x0003c2a8        0x0
                [!provide]                PROVIDE (__start_sdh_stack_observers, .)
 *(SORT(.sdh_stack_observers*))
                [!provide]                PROVIDE (__stop_sdh_stack_observers, .)

.sdh_req_observers
                0x0003c2a8        0x0
                [!provide]                PROVIDE (__start_sdh_req_observers, .)
 *(SORT(.sdh_req_observers*))
                [!provide]                PROVIDE (__stop_sdh_req_observers, .)

.sdh_state_observers
                0x0003c2a8        0x0
                [!provide]                PROVIDE (__start_sdh_state_observers, .)
 *(SORT(.sdh_state_observers*))
                [!provide]                PROVIDE (__stop_sdh_state_observers, .)

.sdh_ant_observers
                0x0003c2a8        0x0
                [!provide]                PROVIDE (__start_sdh_ant_observers, .)
 *(SORT(.sdh_ant_observers*))
                [!provide]                PROVIDE (__stop_sdh_ant_observers, .)

.sdh_ble_observers
                0x0003c2a8        0x0
                [!provide]                PROVIDE (__start_sdh_ble_observers, .)
 *(SORT(.sdh_ble_observers*))
                [!provide]                PROVIDE (__stop_sdh_ble_observers, .)

.sdh_soc_observers
                0x0003c2a8        0x0
                [!provide]                PROVIDE (__start_sdh_soc_observers, .)
 *(SORT(.sdh_soc_observers*))
                [!provide]                PROVIDE (__stop_sdh_soc_observers, .)

.ARM.extab
 *(.ARM.extab* .gnu.linkonce.armextab.*)
                0x0003c2a8                __exidx_start = .

.ARM.exidx      0x0003c2a8        0x8
 *(.ARM.exidx* .gnu.linkonce.armexidx.*)
 .ARM.exidx     0x0003c2a8        0x8 c:/mesh/arm_gcc/bin/../lib/gcc/arm-none-eabi/6.3.1/../../../../arm-none-eabi/lib/thumb/v7e-m/fpv4-sp/hard/crt0.o
 .ARM.exidx     0x0003c2b0        0x0 c:/mesh/arm_gcc/bin/../lib/gcc/arm-none-eabi/6.3.1/thumb/v7e-m/fpv4-sp/hard\libgcc.a(_udivmoddi4.o)
                                  0x8 (size before relaxing)
                0x0003c2b0                __exidx_end = .
                0x0003c2b0                __etext = .

.rel.dyn        0x0003c2b0        0x0
 .rel.iplt      0x0003c2b0        0x0 c:/mesh/arm_gcc/bin/../lib/gcc/arm-none-eabi/6.3.1/thumb/v7e-m/fpv4-sp/hard/crtbegin.o

.data           0x200032c8      0x178 load address 0x0003c2b0
                0x200032c8                __data_start__ = .
 *(vtable)
 *(.data*)
 .data.flash_add_mem_available_struct.13449
                0x200032c8       0x10 examples/light_switch/provisioner/CMakeFiles/light_switch_provisioner_nrf52840_xxAA_s140_6.0.0.dir/src/main.c.obj
 .data.flash_add_mem_available_struct.13460
                0x200032d8       0x10 examples/light_switch/provisioner/CMakeFiles/light_switch_provisioner_nrf52840_xxAA_s140_6.0.0.dir/src/main.c.obj
 .data.m_mesh_core_event_handler
                0x200032e8        0x8 examples/light_switch/provisioner/CMakeFiles/light_switch_provisioner_nrf52840_xxAA_s140_6.0.0.dir/src/main.c.obj
 .data.mem_listener.13465
                0x200032f0       0x10 examples/light_switch/provisioner/CMakeFiles/light_switch_provisioner_nrf52840_xxAA_s140_6.0.0.dir/src/main.c.obj
 .data.mp_config_step
                0x20003300        0x4 examples/light_switch/provisioner/CMakeFiles/light_switch_provisioner_nrf52840_xxAA_s140_6.0.0.dir/src/node_setup.c.obj
 .data.wait.9229
                0x20003304        0x1 examples/light_switch/provisioner/CMakeFiles/light_switch_provisioner_nrf52840_xxAA_s140_6.0.0.dir/__/__/common/src/app_error_weak.c.obj
 *fill*         0x20003305        0x3 
 .data.mem_listener.10103
                0x20003308       0x10 examples/light_switch/provisioner/CMakeFiles/light_switch_provisioner_nrf52840_xxAA_s140_6.0.0.dir/__/__/__/mesh/core/src/net_state.c.obj
 .data.mem_listener.10108
                0x20003318       0x10 examples/light_switch/provisioner/CMakeFiles/light_switch_provisioner_nrf52840_xxAA_s140_6.0.0.dir/__/__/__/mesh/core/src/net_state.c.obj
 .data.mem_listener.10122
                0x20003328       0x10 examples/light_switch/provisioner/CMakeFiles/light_switch_provisioner_nrf52840_xxAA_s140_6.0.0.dir/__/__/__/mesh/core/src/net_state.c.obj
 .data.mem_listener.10139
                0x20003338       0x10 examples/light_switch/provisioner/CMakeFiles/light_switch_provisioner_nrf52840_xxAA_s140_6.0.0.dir/__/__/__/mesh/core/src/net_state.c.obj
 .data.m_nrf_mesh_listener
                0x20003348        0xc examples/light_switch/provisioner/CMakeFiles/light_switch_provisioner_nrf52840_xxAA_s140_6.0.0.dir/__/__/__/mesh/core/src/nrf_mesh.c.obj
 .data.g_log_dbg_lvl
                0x20003354        0x4 examples/light_switch/provisioner/CMakeFiles/light_switch_provisioner_nrf52840_xxAA_s140_6.0.0.dir/__/__/__/mesh/core/src/log.c.obj
                0x20003354                g_log_dbg_lvl
 .data.g_log_dbg_msk
                0x20003358        0x4 examples/light_switch/provisioner/CMakeFiles/light_switch_provisioner_nrf52840_xxAA_s140_6.0.0.dir/__/__/__/mesh/core/src/log.c.obj
                0x20003358                g_log_dbg_msk
 .data.g_log_hex_digits
                0x2000335c        0x4 examples/light_switch/provisioner/CMakeFiles/light_switch_provisioner_nrf52840_xxAA_s140_6.0.0.dir/__/__/__/mesh/core/src/log.c.obj
                0x2000335c                g_log_hex_digits
 .data.m_log_callback
                0x20003360        0x4 examples/light_switch/provisioner/CMakeFiles/light_switch_provisioner_nrf52840_xxAA_s140_6.0.0.dir/__/__/__/mesh/core/src/log.c.obj
                0x20003360                m_log_callback
 .data.m_config_server_handle
                0x20003364        0x2 examples/light_switch/provisioner/CMakeFiles/light_switch_provisioner_nrf52840_xxAA_s140_6.0.0.dir/__/__/__/models/config/src/config_server.c.obj
 *fill*         0x20003366        0x2 
 .data.m_mesh_evt_handler
                0x20003368        0x8 examples/light_switch/provisioner/CMakeFiles/light_switch_provisioner_nrf52840_xxAA_s140_6.0.0.dir/__/__/__/models/config/src/config_server.c.obj
 .data.flash_add_mem_available_struct.10677
                0x20003370       0x10 examples/light_switch/provisioner/CMakeFiles/light_switch_provisioner_nrf52840_xxAA_s140_6.0.0.dir/__/__/__/mesh/access/src/access.c.obj
 .data.flash_clear_mem_available_struct.10766
                0x20003380       0x10 examples/light_switch/provisioner/CMakeFiles/light_switch_provisioner_nrf52840_xxAA_s140_6.0.0.dir/__/__/__/mesh/access/src/access.c.obj
 .data.flash_store_mem_available_struct.10790
                0x20003390       0x10 examples/light_switch/provisioner/CMakeFiles/light_switch_provisioner_nrf52840_xxAA_s140_6.0.0.dir/__/__/__/mesh/access/src/access.c.obj
 .data.m_default_ttl
                0x200033a0        0x1 examples/light_switch/provisioner/CMakeFiles/light_switch_provisioner_nrf52840_xxAA_s140_6.0.0.dir/__/__/__/mesh/access/src/access.c.obj
 *fill*         0x200033a1        0x3 
 .data.mem_listener.10966
                0x200033a4       0x10 examples/light_switch/provisioner/CMakeFiles/light_switch_provisioner_nrf52840_xxAA_s140_6.0.0.dir/__/__/__/mesh/access/src/device_state_manager.c.obj
 .data.mem_listener.10992
                0x200033b4       0x10 examples/light_switch/provisioner/CMakeFiles/light_switch_provisioner_nrf52840_xxAA_s140_6.0.0.dir/__/__/__/mesh/access/src/device_state_manager.c.obj
 .data.m_async_process_flag
                0x200033c4        0x4 examples/light_switch/provisioner/CMakeFiles/light_switch_provisioner_nrf52840_xxAA_s140_6.0.0.dir/__/__/__/mesh/prov/src/prov_bearer_adv.c.obj
 .data.SystemCoreClock
                0x200033c8        0x4 examples/light_switch/provisioner/CMakeFiles/light_switch_provisioner_nrf52840_xxAA_s140_6.0.0.dir/C_/ver/mod/nRF5_SDK_15.0.0_a53641a/modules/nrfx/mdk/system_nrf52840.c.obj
                0x200033c8                SystemCoreClock
 .data.g_rng_function
                0x200033cc        0x4 external/micro-ecc/libuECC_nrf52840_xxAA.a(uECC.c.obj)
 .data._impure_ptr
                0x200033d0        0x4 c:/mesh/arm_gcc/bin/../lib/gcc/arm-none-eabi/6.3.1/../../../../arm-none-eabi/lib/thumb/v7e-m/fpv4-sp/hard\libg_nano.a(lib_a-impure.o)
                0x200033d0                _impure_ptr
 .data.impure_data
                0x200033d4       0x60 c:/mesh/arm_gcc/bin/../lib/gcc/arm-none-eabi/6.3.1/../../../../arm-none-eabi/lib/thumb/v7e-m/fpv4-sp/hard\libg_nano.a(lib_a-impure.o)
                0x20003434                . = ALIGN (0x4)
                0x20003434                PROVIDE (__preinit_array_start, .)
 *(.preinit_array)
                0x20003434                PROVIDE (__preinit_array_end, .)
                0x20003434                . = ALIGN (0x4)
                0x20003434                PROVIDE (__init_array_start, .)
 *(SORT(.init_array.*))
 *(.init_array)
 .init_array    0x20003434        0x4 c:/mesh/arm_gcc/bin/../lib/gcc/arm-none-eabi/6.3.1/thumb/v7e-m/fpv4-sp/hard/crtbegin.o
                0x20003438                PROVIDE (__init_array_end, .)
                0x20003438                . = ALIGN (0x4)
                [!provide]                PROVIDE (__fini_array_start, .)
 *(SORT(.fini_array.*))
 *(.fini_array)
 .fini_array    0x20003438        0x4 c:/mesh/arm_gcc/bin/../lib/gcc/arm-none-eabi/6.3.1/thumb/v7e-m/fpv4-sp/hard/crtbegin.o
                [!provide]                PROVIDE (__fini_array_end, .)
 *(.jcr*)
 .jcr           0x2000343c        0x0 c:/mesh/arm_gcc/bin/../lib/gcc/arm-none-eabi/6.3.1/thumb/v7e-m/fpv4-sp/hard/crtbegin.o
 .jcr           0x2000343c        0x4 c:/mesh/arm_gcc/bin/../lib/gcc/arm-none-eabi/6.3.1/thumb/v7e-m/fpv4-sp/hard/crtend.o
                0x20003440                . = ALIGN (0x4)
                0x20003440                __data_end__ = .
LOAD c:/mesh/arm_gcc/bin/../lib/gcc/arm-none-eabi/6.3.1/thumb/v7e-m/fpv4-sp/hard/crti.o
LOAD c:/mesh/arm_gcc/bin/../lib/gcc/arm-none-eabi/6.3.1/thumb/v7e-m/fpv4-sp/hard/crtbegin.o
LOAD c:/mesh/arm_gcc/bin/../lib/gcc/arm-none-eabi/6.3.1/../../../../arm-none-eabi/lib/thumb/v7e-m/fpv4-sp/hard/crt0.o
LOAD examples/light_switch/provisioner/CMakeFiles/light_switch_provisioner_nrf52840_xxAA_s140_6.0.0.dir/src/main.c.obj
LOAD examples/light_switch/provisioner/CMakeFiles/light_switch_provisioner_nrf52840_xxAA_s140_6.0.0.dir/__/__/__/mesh/stack/src/mesh_stack.c.obj
LOAD examples/light_switch/provisioner/CMakeFiles/light_switch_provisioner_nrf52840_xxAA_s140_6.0.0.dir/src/provisioner_helper.c.obj
LOAD examples/light_switch/provisioner/CMakeFiles/light_switch_provisioner_nrf52840_xxAA_s140_6.0.0.dir/src/node_setup.c.obj
LOAD examples/light_switch/provisioner/CMakeFiles/light_switch_provisioner_nrf52840_xxAA_s140_6.0.0.dir/__/__/common/src/mesh_softdevice_init.c.obj
LOAD examples/light_switch/provisioner/CMakeFiles/light_switch_provisioner_nrf52840_xxAA_s140_6.0.0.dir/__/__/common/src/rtt_input.c.obj
LOAD examples/light_switch/provisioner/CMakeFiles/light_switch_provisioner_nrf52840_xxAA_s140_6.0.0.dir/__/__/common/src/simple_hal.c.obj
LOAD examples/light_switch/provisioner/CMakeFiles/light_switch_provisioner_nrf52840_xxAA_s140_6.0.0.dir/__/__/nrf_mesh_weak.c.obj
LOAD examples/light_switch/provisioner/CMakeFiles/light_switch_provisioner_nrf52840_xxAA_s140_6.0.0.dir/__/__/common/src/app_error_weak.c.obj
LOAD examples/light_switch/provisioner/CMakeFiles/light_switch_provisioner_nrf52840_xxAA_s140_6.0.0.dir/__/__/common/src/assertion_handler_weak.c.obj
LOAD examples/light_switch/provisioner/CMakeFiles/light_switch_provisioner_nrf52840_xxAA_s140_6.0.0.dir/__/__/__/mesh/core/src/internal_event.c.obj
LOAD examples/light_switch/provisioner/CMakeFiles/light_switch_provisioner_nrf52840_xxAA_s140_6.0.0.dir/__/__/__/mesh/core/src/nrf_mesh_configure.c.obj
LOAD examples/light_switch/provisioner/CMakeFiles/light_switch_provisioner_nrf52840_xxAA_s140_6.0.0.dir/__/__/__/mesh/core/src/aes.c.obj
LOAD examples/light_switch/provisioner/CMakeFiles/light_switch_provisioner_nrf52840_xxAA_s140_6.0.0.dir/__/__/__/mesh/core/src/msg_cache.c.obj
LOAD examples/light_switch/provisioner/CMakeFiles/light_switch_provisioner_nrf52840_xxAA_s140_6.0.0.dir/__/__/__/mesh/core/src/transport.c.obj
LOAD examples/light_switch/provisioner/CMakeFiles/light_switch_provisioner_nrf52840_xxAA_s140_6.0.0.dir/__/__/__/mesh/core/src/event.c.obj
LOAD examples/light_switch/provisioner/CMakeFiles/light_switch_provisioner_nrf52840_xxAA_s140_6.0.0.dir/__/__/__/mesh/core/src/packet_buffer.c.obj
LOAD examples/light_switch/provisioner/CMakeFiles/light_switch_provisioner_nrf52840_xxAA_s140_6.0.0.dir/__/__/__/mesh/core/src/flash_manager_defrag.c.obj
LOAD examples/light_switch/provisioner/CMakeFiles/light_switch_provisioner_nrf52840_xxAA_s140_6.0.0.dir/__/__/__/mesh/core/src/fifo.c.obj
LOAD examples/light_switch/provisioner/CMakeFiles/light_switch_provisioner_nrf52840_xxAA_s140_6.0.0.dir/__/__/__/mesh/core/src/nrf_flash.c.obj
LOAD examples/light_switch/provisioner/CMakeFiles/light_switch_provisioner_nrf52840_xxAA_s140_6.0.0.dir/__/__/__/mesh/core/src/packet_mgr.c.obj
LOAD examples/light_switch/provisioner/CMakeFiles/light_switch_provisioner_nrf52840_xxAA_s140_6.0.0.dir/__/__/__/mesh/core/src/net_state.c.obj
LOAD examples/light_switch/provisioner/CMakeFiles/light_switch_provisioner_nrf52840_xxAA_s140_6.0.0.dir/__/__/__/mesh/core/src/mesh_flash.c.obj
LOAD examples/light_switch/provisioner/CMakeFiles/light_switch_provisioner_nrf52840_xxAA_s140_6.0.0.dir/__/__/__/mesh/core/src/nrf_mesh_utils.c.obj
LOAD examples/light_switch/provisioner/CMakeFiles/light_switch_provisioner_nrf52840_xxAA_s140_6.0.0.dir/__/__/__/mesh/core/src/nrf_mesh.c.obj
LOAD examples/light_switch/provisioner/CMakeFiles/light_switch_provisioner_nrf52840_xxAA_s140_6.0.0.dir/__/__/__/mesh/core/src/queue.c.obj
LOAD examples/light_switch/provisioner/CMakeFiles/light_switch_provisioner_nrf52840_xxAA_s140_6.0.0.dir/__/__/__/mesh/core/src/hal.c.obj
LOAD examples/light_switch/provisioner/CMakeFiles/light_switch_provisioner_nrf52840_xxAA_s140_6.0.0.dir/__/__/__/mesh/core/src/aes_cmac.c.obj
LOAD examples/light_switch/provisioner/CMakeFiles/light_switch_provisioner_nrf52840_xxAA_s140_6.0.0.dir/__/__/__/mesh/core/src/timer_scheduler.c.obj
LOAD examples/light_switch/provisioner/CMakeFiles/light_switch_provisioner_nrf52840_xxAA_s140_6.0.0.dir/__/__/__/mesh/core/src/timer.c.obj
LOAD examples/light_switch/provisioner/CMakeFiles/light_switch_provisioner_nrf52840_xxAA_s140_6.0.0.dir/__/__/__/mesh/core/src/ticker.c.obj
LOAD examples/light_switch/provisioner/CMakeFiles/light_switch_provisioner_nrf52840_xxAA_s140_6.0.0.dir/__/__/__/mesh/core/src/rand.c.obj
LOAD examples/light_switch/provisioner/CMakeFiles/light_switch_provisioner_nrf52840_xxAA_s140_6.0.0.dir/__/__/__/mesh/core/src/nrf_mesh_opt.c.obj
LOAD examples/light_switch/provisioner/CMakeFiles/light_switch_provisioner_nrf52840_xxAA_s140_6.0.0.dir/__/__/__/mesh/core/src/timeslot.c.obj
LOAD examples/light_switch/provisioner/CMakeFiles/light_switch_provisioner_nrf52840_xxAA_s140_6.0.0.dir/__/__/__/mesh/core/src/bearer_event.c.obj
LOAD examples/light_switch/provisioner/CMakeFiles/light_switch_provisioner_nrf52840_xxAA_s140_6.0.0.dir/__/__/__/mesh/core/src/enc.c.obj
LOAD examples/light_switch/provisioner/CMakeFiles/light_switch_provisioner_nrf52840_xxAA_s140_6.0.0.dir/__/__/__/mesh/core/src/network.c.obj
LOAD examples/light_switch/provisioner/CMakeFiles/light_switch_provisioner_nrf52840_xxAA_s140_6.0.0.dir/__/__/__/mesh/core/src/net_packet.c.obj
LOAD examples/light_switch/provisioner/CMakeFiles/light_switch_provisioner_nrf52840_xxAA_s140_6.0.0.dir/__/__/__/mesh/core/src/msqueue.c.obj
LOAD examples/light_switch/provisioner/CMakeFiles/light_switch_provisioner_nrf52840_xxAA_s140_6.0.0.dir/__/__/__/mesh/core/src/nrf_mesh_keygen.c.obj
LOAD examples/light_switch/provisioner/CMakeFiles/light_switch_provisioner_nrf52840_xxAA_s140_6.0.0.dir/__/__/__/mesh/core/src/cache.c.obj
LOAD examples/light_switch/provisioner/CMakeFiles/light_switch_provisioner_nrf52840_xxAA_s140_6.0.0.dir/__/__/__/mesh/core/src/uri.c.obj
LOAD examples/light_switch/provisioner/CMakeFiles/light_switch_provisioner_nrf52840_xxAA_s140_6.0.0.dir/__/__/__/mesh/core/src/list.c.obj
LOAD examples/light_switch/provisioner/CMakeFiles/light_switch_provisioner_nrf52840_xxAA_s140_6.0.0.dir/__/__/__/mesh/core/src/log.c.obj
LOAD examples/light_switch/provisioner/CMakeFiles/light_switch_provisioner_nrf52840_xxAA_s140_6.0.0.dir/__/__/__/mesh/core/src/flash_manager.c.obj
LOAD examples/light_switch/provisioner/CMakeFiles/light_switch_provisioner_nrf52840_xxAA_s140_6.0.0.dir/__/__/__/mesh/core/src/ccm_soft.c.obj
LOAD examples/light_switch/provisioner/CMakeFiles/light_switch_provisioner_nrf52840_xxAA_s140_6.0.0.dir/__/__/__/mesh/core/src/toolchain.c.obj
LOAD examples/light_switch/provisioner/CMakeFiles/light_switch_provisioner_nrf52840_xxAA_s140_6.0.0.dir/__/__/__/mesh/core/src/replay_cache.c.obj
LOAD examples/light_switch/provisioner/CMakeFiles/light_switch_provisioner_nrf52840_xxAA_s140_6.0.0.dir/__/__/__/mesh/core/src/beacon.c.obj
LOAD examples/light_switch/provisioner/CMakeFiles/light_switch_provisioner_nrf52840_xxAA_s140_6.0.0.dir/__/__/__/mesh/core/src/flash_manager_internal.c.obj
LOAD examples/light_switch/provisioner/CMakeFiles/light_switch_provisioner_nrf52840_xxAA_s140_6.0.0.dir/__/__/__/mesh/core/src/core_tx.c.obj
LOAD examples/light_switch/provisioner/CMakeFiles/light_switch_provisioner_nrf52840_xxAA_s140_6.0.0.dir/__/__/__/mesh/core/src/heartbeat.c.obj
LOAD examples/light_switch/provisioner/CMakeFiles/light_switch_provisioner_nrf52840_xxAA_s140_6.0.0.dir/__/__/__/mesh/core/src/net_beacon.c.obj
LOAD examples/light_switch/provisioner/CMakeFiles/light_switch_provisioner_nrf52840_xxAA_s140_6.0.0.dir/__/__/__/mesh/core/src/fsm.c.obj
LOAD examples/light_switch/provisioner/CMakeFiles/light_switch_provisioner_nrf52840_xxAA_s140_6.0.0.dir/__/__/__/mesh/core/src/core_tx_adv.c.obj
LOAD examples/light_switch/provisioner/CMakeFiles/light_switch_provisioner_nrf52840_xxAA_s140_6.0.0.dir/__/__/__/mesh/bearer/src/ad_listener.c.obj
LOAD examples/light_switch/provisioner/CMakeFiles/light_switch_provisioner_nrf52840_xxAA_s140_6.0.0.dir/__/__/__/mesh/bearer/src/ad_type_filter.c.obj
LOAD examples/light_switch/provisioner/CMakeFiles/light_switch_provisioner_nrf52840_xxAA_s140_6.0.0.dir/__/__/__/mesh/bearer/src/adv_packet_filter.c.obj
LOAD examples/light_switch/provisioner/CMakeFiles/light_switch_provisioner_nrf52840_xxAA_s140_6.0.0.dir/__/__/__/mesh/bearer/src/advertiser.c.obj
LOAD examples/light_switch/provisioner/CMakeFiles/light_switch_provisioner_nrf52840_xxAA_s140_6.0.0.dir/__/__/__/mesh/bearer/src/bearer_handler.c.obj
LOAD examples/light_switch/provisioner/CMakeFiles/light_switch_provisioner_nrf52840_xxAA_s140_6.0.0.dir/__/__/__/mesh/bearer/src/broadcast.c.obj
LOAD examples/light_switch/provisioner/CMakeFiles/light_switch_provisioner_nrf52840_xxAA_s140_6.0.0.dir/__/__/__/mesh/bearer/src/filter_engine.c.obj
LOAD examples/light_switch/provisioner/CMakeFiles/light_switch_provisioner_nrf52840_xxAA_s140_6.0.0.dir/__/__/__/mesh/bearer/src/gap_address_filter.c.obj
LOAD examples/light_switch/provisioner/CMakeFiles/light_switch_provisioner_nrf52840_xxAA_s140_6.0.0.dir/__/__/__/mesh/bearer/src/radio_config.c.obj
LOAD examples/light_switch/provisioner/CMakeFiles/light_switch_provisioner_nrf52840_xxAA_s140_6.0.0.dir/__/__/__/mesh/bearer/src/rssi_filter.c.obj
LOAD examples/light_switch/provisioner/CMakeFiles/light_switch_provisioner_nrf52840_xxAA_s140_6.0.0.dir/__/__/__/mesh/bearer/src/scanner.c.obj
LOAD examples/light_switch/provisioner/CMakeFiles/light_switch_provisioner_nrf52840_xxAA_s140_6.0.0.dir/__/__/__/models/simple_on_off/src/simple_on_off_client.c.obj
LOAD examples/light_switch/provisioner/CMakeFiles/light_switch_provisioner_nrf52840_xxAA_s140_6.0.0.dir/__/__/__/models/config/src/config_client.c.obj
LOAD examples/light_switch/provisioner/CMakeFiles/light_switch_provisioner_nrf52840_xxAA_s140_6.0.0.dir/__/__/__/models/config/src/composition_data.c.obj
LOAD examples/light_switch/provisioner/CMakeFiles/light_switch_provisioner_nrf52840_xxAA_s140_6.0.0.dir/__/__/__/models/config/src/config_server.c.obj
LOAD examples/light_switch/provisioner/CMakeFiles/light_switch_provisioner_nrf52840_xxAA_s140_6.0.0.dir/__/__/__/models/config/src/packed_index_list.c.obj
LOAD examples/light_switch/provisioner/CMakeFiles/light_switch_provisioner_nrf52840_xxAA_s140_6.0.0.dir/__/__/__/models/health/src/health_server.c.obj
LOAD examples/light_switch/provisioner/CMakeFiles/light_switch_provisioner_nrf52840_xxAA_s140_6.0.0.dir/__/__/__/models/health/src/health_client.c.obj
LOAD examples/light_switch/provisioner/CMakeFiles/light_switch_provisioner_nrf52840_xxAA_s140_6.0.0.dir/__/__/__/mesh/access/src/access_publish.c.obj
LOAD examples/light_switch/provisioner/CMakeFiles/light_switch_provisioner_nrf52840_xxAA_s140_6.0.0.dir/__/__/__/mesh/access/src/access.c.obj
LOAD examples/light_switch/provisioner/CMakeFiles/light_switch_provisioner_nrf52840_xxAA_s140_6.0.0.dir/__/__/__/mesh/access/src/access_reliable.c.obj
LOAD examples/light_switch/provisioner/CMakeFiles/light_switch_provisioner_nrf52840_xxAA_s140_6.0.0.dir/__/__/__/mesh/access/src/device_state_manager.c.obj
LOAD examples/light_switch/provisioner/CMakeFiles/light_switch_provisioner_nrf52840_xxAA_s140_6.0.0.dir/__/__/__/mesh/prov/src/prov_provisioner.c.obj
LOAD examples/light_switch/provisioner/CMakeFiles/light_switch_provisioner_nrf52840_xxAA_s140_6.0.0.dir/__/__/__/mesh/prov/src/nrf_mesh_prov.c.obj
LOAD examples/light_switch/provisioner/CMakeFiles/light_switch_provisioner_nrf52840_xxAA_s140_6.0.0.dir/__/__/__/mesh/prov/src/provisioning.c.obj
LOAD examples/light_switch/provisioner/CMakeFiles/light_switch_provisioner_nrf52840_xxAA_s140_6.0.0.dir/__/__/__/mesh/prov/src/prov_beacon.c.obj
LOAD examples/light_switch/provisioner/CMakeFiles/light_switch_provisioner_nrf52840_xxAA_s140_6.0.0.dir/__/__/__/mesh/prov/src/prov_utils.c.obj
LOAD examples/light_switch/provisioner/CMakeFiles/light_switch_provisioner_nrf52840_xxAA_s140_6.0.0.dir/__/__/__/mesh/prov/src/prov_bearer_adv.c.obj
LOAD examples/light_switch/provisioner/CMakeFiles/light_switch_provisioner_nrf52840_xxAA_s140_6.0.0.dir/C_/ver/mod/nRF5_SDK_15.0.0_a53641a/modules/nrfx/mdk/system_nrf52840.c.obj
LOAD examples/light_switch/provisioner/CMakeFiles/light_switch_provisioner_nrf52840_xxAA_s140_6.0.0.dir/C_/ver/mod/nRF5_SDK_15.0.0_a53641a/modules/nrfx/mdk/gcc_startup_nrf52840.S.obj
LOAD examples/light_switch/provisioner/CMakeFiles/light_switch_provisioner_nrf52840_xxAA_s140_6.0.0.dir/C_/ver/mod/nRF5_SDK_15.0.0_a53641a/components/libraries/util/app_error.c.obj
LOAD examples/light_switch/provisioner/CMakeFiles/light_switch_provisioner_nrf52840_xxAA_s140_6.0.0.dir/C_/ver/mod/nRF5_SDK_15.0.0_a53641a/components/libraries/util/app_error_handler_gcc.c.obj
LOAD external/rtt/librtt_nrf52840_xxAA.a
LOAD external/micro-ecc/libuECC_nrf52840_xxAA.a
START GROUP
LOAD c:/mesh/arm_gcc/bin/../lib/gcc/arm-none-eabi/6.3.1/thumb/v7e-m/fpv4-sp/hard\libgcc.a
LOAD c:/mesh/arm_gcc/bin/../lib/gcc/arm-none-eabi/6.3.1/../../../../arm-none-eabi/lib/thumb/v7e-m/fpv4-sp/hard\libg_nano.a
LOAD c:/mesh/arm_gcc/bin/../lib/gcc/arm-none-eabi/6.3.1/../../../../arm-none-eabi/lib/thumb/v7e-m/fpv4-sp/hard\libc_nano.a
END GROUP
START GROUP
LOAD c:/mesh/arm_gcc/bin/../lib/gcc/arm-none-eabi/6.3.1/thumb/v7e-m/fpv4-sp/hard\libgcc.a
LOAD c:/mesh/arm_gcc/bin/../lib/gcc/arm-none-eabi/6.3.1/../../../../arm-none-eabi/lib/thumb/v7e-m/fpv4-sp/hard\libc_nano.a
END GROUP
LOAD c:/mesh/arm_gcc/bin/../lib/gcc/arm-none-eabi/6.3.1/thumb/v7e-m/fpv4-sp/hard/crtend.o
LOAD c:/mesh/arm_gcc/bin/../lib/gcc/arm-none-eabi/6.3.1/thumb/v7e-m/fpv4-sp/hard/crtn.o
START GROUP
LOAD c:/mesh/arm_gcc/bin/../lib/gcc/arm-none-eabi/6.3.1/thumb/v7e-m/fpv4-sp/hard\libgcc.a
LOAD c:/mesh/arm_gcc/bin/../lib/gcc/arm-none-eabi/6.3.1/../../../../arm-none-eabi/lib/thumb/v7e-m/fpv4-sp/hard\libc.a
LOAD c:/mesh/arm_gcc/bin/../lib/gcc/arm-none-eabi/6.3.1/../../../../arm-none-eabi/lib/thumb/v7e-m/fpv4-sp/hard\libnosys.a
END GROUP

.igot.plt       0x20003440        0x0 load address 0x0003c428
 .igot.plt      0x20003440        0x0 c:/mesh/arm_gcc/bin/../lib/gcc/arm-none-eabi/6.3.1/thumb/v7e-m/fpv4-sp/hard/crtbegin.o
                0x20003440                . = ALIGN (0x4)

.svc_data       0x20003440        0x0
                [!provide]                PROVIDE (__start_svc_data, .)
 *(.svc_data)
                [!provide]                PROVIDE (__stop_svc_data, .)

.fs_data        0x20003440        0x0
                [!provide]                PROVIDE (__start_fs_data, .)
 *(.fs_data)
                [!provide]                PROVIDE (__stop_fs_data, .)

.log_dynamic_data
                0x20003440        0x0
                [!provide]                PROVIDE (__start_log_dynamic_data, .)
 *(.log_dynamic_data)
                [!provide]                PROVIDE (__stop_log_dynamic_data, .)

.cli_sorted_cmd_ptrs
                0x20003440        0x0
                [!provide]                PROVIDE (__start_cli_sorted_cmd_ptrs, .)
 *(.cli_sorted_cmd_ptrs)
                [!provide]                PROVIDE (__stop_cli_sorted_cmd_ptrs, .)

.bss            0x20003440     0x3580 load address 0x0003c428
                0x20003440                . = ALIGN (0x4)
                0x20003440                __bss_start__ = .
 *(.bss*)
 .bss           0x20003440       0x1c c:/mesh/arm_gcc/bin/../lib/gcc/arm-none-eabi/6.3.1/thumb/v7e-m/fpv4-sp/hard/crtbegin.o
 .bss.m_dev_handles
                0x2000345c       0x1c examples/light_switch/provisioner/CMakeFiles/light_switch_provisioner_nrf52840_xxAA_s140_6.0.0.dir/src/main.c.obj
 .bss.m_exp_uuid
                0x20003478        0x8 examples/light_switch/provisioner/CMakeFiles/light_switch_provisioner_nrf52840_xxAA_s140_6.0.0.dir/src/main.c.obj
 .bss.m_flash_manager
                0x20003480       0x24 examples/light_switch/provisioner/CMakeFiles/light_switch_provisioner_nrf52840_xxAA_s140_6.0.0.dir/src/main.c.obj
 .bss.m_node_prov_setup_started
                0x200034a4        0x1 examples/light_switch/provisioner/CMakeFiles/light_switch_provisioner_nrf52840_xxAA_s140_6.0.0.dir/src/main.c.obj
 *fill*         0x200034a5        0x1 
 .bss.m_nw_state
                0x200034a6       0x38 examples/light_switch/provisioner/CMakeFiles/light_switch_provisioner_nrf52840_xxAA_s140_6.0.0.dir/src/main.c.obj
 .bss.s_app_started.13505
                0x200034de        0x1 examples/light_switch/provisioner/CMakeFiles/light_switch_provisioner_nrf52840_xxAA_s140_6.0.0.dir/src/main.c.obj
 *fill*         0x200034df        0x1 
 .bss.m_health_server
                0x200034e0       0x5c examples/light_switch/provisioner/CMakeFiles/light_switch_provisioner_nrf52840_xxAA_s140_6.0.0.dir/__/__/__/mesh/stack/src/mesh_stack.c.obj
 .bss.m_init_params
                0x2000353c       0x24 examples/light_switch/provisioner/CMakeFiles/light_switch_provisioner_nrf52840_xxAA_s140_6.0.0.dir/__/__/__/mesh/stack/src/mesh_stack.c.obj
 .bss.addr_handle.12339
                0x20003560        0x2 examples/light_switch/provisioner/CMakeFiles/light_switch_provisioner_nrf52840_xxAA_s140_6.0.0.dir/src/provisioner_helper.c.obj
 .bss.devkey_handle.12340
                0x20003562        0x2 examples/light_switch/provisioner/CMakeFiles/light_switch_provisioner_nrf52840_xxAA_s140_6.0.0.dir/src/provisioner_helper.c.obj
 .bss.m_private_key
                0x20003564       0x20 examples/light_switch/provisioner/CMakeFiles/light_switch_provisioner_nrf52840_xxAA_s140_6.0.0.dir/src/provisioner_helper.c.obj
 .bss.m_prov_bearer_adv
                0x20003584      0x1c4 examples/light_switch/provisioner/CMakeFiles/light_switch_provisioner_nrf52840_xxAA_s140_6.0.0.dir/src/provisioner_helper.c.obj
 .bss.m_prov_ctx
                0x20003748      0x134 examples/light_switch/provisioner/CMakeFiles/light_switch_provisioner_nrf52840_xxAA_s140_6.0.0.dir/src/provisioner_helper.c.obj
 .bss.m_prov_state
                0x2000387c        0x1 examples/light_switch/provisioner/CMakeFiles/light_switch_provisioner_nrf52840_xxAA_s140_6.0.0.dir/src/provisioner_helper.c.obj
 *fill*         0x2000387d        0x3 
 .bss.m_provisioner
                0x20003880       0x18 examples/light_switch/provisioner/CMakeFiles/light_switch_provisioner_nrf52840_xxAA_s140_6.0.0.dir/src/provisioner_helper.c.obj
 .bss.m_provisioner_init_done
                0x20003898        0x1 examples/light_switch/provisioner/CMakeFiles/light_switch_provisioner_nrf52840_xxAA_s140_6.0.0.dir/src/provisioner_helper.c.obj
 .bss.m_public_key
                0x20003899       0x40 examples/light_switch/provisioner/CMakeFiles/light_switch_provisioner_nrf52840_xxAA_s140_6.0.0.dir/src/provisioner_helper.c.obj
 .bss.m_retry_cnt
                0x200038d9        0x1 examples/light_switch/provisioner/CMakeFiles/light_switch_provisioner_nrf52840_xxAA_s140_6.0.0.dir/src/provisioner_helper.c.obj
 .bss.m_target_address
                0x200038da        0x2 examples/light_switch/provisioner/CMakeFiles/light_switch_provisioner_nrf52840_xxAA_s140_6.0.0.dir/src/provisioner_helper.c.obj
 .bss.m_target_elements
                0x200038dc        0x2 examples/light_switch/provisioner/CMakeFiles/light_switch_provisioner_nrf52840_xxAA_s140_6.0.0.dir/src/provisioner_helper.c.obj
 *fill*         0x200038de        0x2 
 .bss.mp_expected_uuid
                0x200038e0        0x4 examples/light_switch/provisioner/CMakeFiles/light_switch_provisioner_nrf52840_xxAA_s140_6.0.0.dir/src/provisioner_helper.c.obj
 .bss.m_appkey_idx
                0x200038e4        0x2 examples/light_switch/provisioner/CMakeFiles/light_switch_provisioner_nrf52840_xxAA_s140_6.0.0.dir/src/node_setup.c.obj
 .bss.m_current_node_addr
                0x200038e6        0x2 examples/light_switch/provisioner/CMakeFiles/light_switch_provisioner_nrf52840_xxAA_s140_6.0.0.dir/src/node_setup.c.obj
 .bss.m_expected_status_list
                0x200038e8        0x8 examples/light_switch/provisioner/CMakeFiles/light_switch_provisioner_nrf52840_xxAA_s140_6.0.0.dir/src/node_setup.c.obj
 .bss.m_node_composition
                0x200038f0      0x180 examples/light_switch/provisioner/CMakeFiles/light_switch_provisioner_nrf52840_xxAA_s140_6.0.0.dir/src/node_setup.c.obj
 .bss.m_node_setup_failed_cb
                0x20003a70        0x4 examples/light_switch/provisioner/CMakeFiles/light_switch_provisioner_nrf52840_xxAA_s140_6.0.0.dir/src/node_setup.c.obj
 .bss.m_node_setup_success_cb
                0x20003a74        0x4 examples/light_switch/provisioner/CMakeFiles/light_switch_provisioner_nrf52840_xxAA_s140_6.0.0.dir/src/node_setup.c.obj
 .bss.m_retry_count
                0x20003a78        0x2 examples/light_switch/provisioner/CMakeFiles/light_switch_provisioner_nrf52840_xxAA_s140_6.0.0.dir/src/node_setup.c.obj
 *fill*         0x20003a7a        0x2 
 .bss.m_send_timer
                0x20003a7c       0x1c examples/light_switch/provisioner/CMakeFiles/light_switch_provisioner_nrf52840_xxAA_s140_6.0.0.dir/src/node_setup.c.obj
 .bss.m_status_checked
                0x20003a98        0x1 examples/light_switch/provisioner/CMakeFiles/light_switch_provisioner_nrf52840_xxAA_s140_6.0.0.dir/src/node_setup.c.obj
 *fill*         0x20003a99        0x1 
 .bss.model_element_addr.11584
                0x20003a9a        0x2 examples/light_switch/provisioner/CMakeFiles/light_switch_provisioner_nrf52840_xxAA_s140_6.0.0.dir/src/node_setup.c.obj
 .bss.mp_appkey
                0x20003a9c        0x4 examples/light_switch/provisioner/CMakeFiles/light_switch_provisioner_nrf52840_xxAA_s140_6.0.0.dir/src/node_setup.c.obj
 .bss.m_rtt_input_handler
                0x20003aa0        0x4 examples/light_switch/provisioner/CMakeFiles/light_switch_provisioner_nrf52840_xxAA_s140_6.0.0.dir/__/__/common/src/rtt_input.c.obj
 .bss.m_button_handler_cb
                0x20003aa4        0x4 examples/light_switch/provisioner/CMakeFiles/light_switch_provisioner_nrf52840_xxAA_s140_6.0.0.dir/__/__/common/src/simple_hal.c.obj
 .bss.m_last_button_press
                0x20003aa8        0x4 examples/light_switch/provisioner/CMakeFiles/light_switch_provisioner_nrf52840_xxAA_s140_6.0.0.dir/__/__/common/src/simple_hal.c.obj
 .bss.m_uuid    0x20003aac       0x10 examples/light_switch/provisioner/CMakeFiles/light_switch_provisioner_nrf52840_xxAA_s140_6.0.0.dir/__/__/__/mesh/core/src/nrf_mesh_configure.c.obj
 .bss.m_msg_cache
                0x20003abc      0x100 examples/light_switch/provisioner/CMakeFiles/light_switch_provisioner_nrf52840_xxAA_s140_6.0.0.dir/__/__/__/mesh/core/src/msg_cache.c.obj
 .bss.m_msg_cache_head
                0x20003bbc        0x4 examples/light_switch/provisioner/CMakeFiles/light_switch_provisioner_nrf52840_xxAA_s140_6.0.0.dir/__/__/__/mesh/core/src/msg_cache.c.obj
 .bss.m_control_packet_consumer_count
                0x20003bc0        0x4 examples/light_switch/provisioner/CMakeFiles/light_switch_provisioner_nrf52840_xxAA_s140_6.0.0.dir/__/__/__/mesh/core/src/transport.c.obj
 .bss.m_control_packet_consumers
                0x20003bc4        0x8 examples/light_switch/provisioner/CMakeFiles/light_switch_provisioner_nrf52840_xxAA_s140_6.0.0.dir/__/__/__/mesh/core/src/transport.c.obj
 .bss.m_sar_alloc
                0x20003bcc        0x4 examples/light_switch/provisioner/CMakeFiles/light_switch_provisioner_nrf52840_xxAA_s140_6.0.0.dir/__/__/__/mesh/core/src/transport.c.obj
 .bss.m_sar_process_flag
                0x20003bd0        0x4 examples/light_switch/provisioner/CMakeFiles/light_switch_provisioner_nrf52840_xxAA_s140_6.0.0.dir/__/__/__/mesh/core/src/transport.c.obj
 .bss.m_sar_release
                0x20003bd4        0x4 examples/light_switch/provisioner/CMakeFiles/light_switch_provisioner_nrf52840_xxAA_s140_6.0.0.dir/__/__/__/mesh/core/src/transport.c.obj
 .bss.m_sar_session_cache
                0x20003bd8       0x40 examples/light_switch/provisioner/CMakeFiles/light_switch_provisioner_nrf52840_xxAA_s140_6.0.0.dir/__/__/__/mesh/core/src/transport.c.obj
 .bss.m_sar_session_cache_head
                0x20003c18        0x4 examples/light_switch/provisioner/CMakeFiles/light_switch_provisioner_nrf52840_xxAA_s140_6.0.0.dir/__/__/__/mesh/core/src/transport.c.obj
 .bss.m_trs_config
                0x20003c1c       0x18 examples/light_switch/provisioner/CMakeFiles/light_switch_provisioner_nrf52840_xxAA_s140_6.0.0.dir/__/__/__/mesh/core/src/transport.c.obj
 .bss.m_trs_sar_sessions
                0x20003c34      0x1b0 examples/light_switch/provisioner/CMakeFiles/light_switch_provisioner_nrf52840_xxAA_s140_6.0.0.dir/__/__/__/mesh/core/src/transport.c.obj
 .bss.mp_evt_handlers_head
                0x20003de4        0x4 examples/light_switch/provisioner/CMakeFiles/light_switch_provisioner_nrf52840_xxAA_s140_6.0.0.dir/__/__/__/mesh/core/src/event.c.obj
 .bss.m_defrag  0x20003de8       0x1c examples/light_switch/provisioner/CMakeFiles/light_switch_provisioner_nrf52840_xxAA_s140_6.0.0.dir/__/__/__/mesh/core/src/flash_manager_defrag.c.obj
 .bss.m_token   0x20003e04        0x2 examples/light_switch/provisioner/CMakeFiles/light_switch_provisioner_nrf52840_xxAA_s140_6.0.0.dir/__/__/__/mesh/core/src/flash_manager_defrag.c.obj
 *fill*         0x20003e06        0x2 
 .bss.mp_recovery_area
                0x20003e08        0x4 examples/light_switch/provisioner/CMakeFiles/light_switch_provisioner_nrf52840_xxAA_s140_6.0.0.dir/__/__/__/mesh/core/src/flash_manager_defrag.c.obj
 .bss.p_null_ptr.10534
                0x20003e0c        0x4 examples/light_switch/provisioner/CMakeFiles/light_switch_provisioner_nrf52840_xxAA_s140_6.0.0.dir/__/__/__/mesh/core/src/flash_manager_defrag.c.obj
 .bss.m_pool    0x20003e10     0x1000 examples/light_switch/provisioner/CMakeFiles/light_switch_provisioner_nrf52840_xxAA_s140_6.0.0.dir/__/__/__/mesh/core/src/packet_mgr.c.obj
 .bss.mp_free_head
                0x20004e10        0x4 examples/light_switch/provisioner/CMakeFiles/light_switch_provisioner_nrf52840_xxAA_s140_6.0.0.dir/__/__/__/mesh/core/src/packet_mgr.c.obj
 .bss.lock_count.10165
                0x20004e14        0x4 examples/light_switch/provisioner/CMakeFiles/light_switch_provisioner_nrf52840_xxAA_s140_6.0.0.dir/__/__/__/mesh/core/src/net_state.c.obj
 .bss.m_flash_manager
                0x20004e18       0x24 examples/light_switch/provisioner/CMakeFiles/light_switch_provisioner_nrf52840_xxAA_s140_6.0.0.dir/__/__/__/mesh/core/src/net_state.c.obj
 .bss.m_iv_update_timer
                0x20004e3c       0x18 examples/light_switch/provisioner/CMakeFiles/light_switch_provisioner_nrf52840_xxAA_s140_6.0.0.dir/__/__/__/mesh/core/src/net_state.c.obj
 .bss.m_mesh_evt_handler
                0x20004e54        0x8 examples/light_switch/provisioner/CMakeFiles/light_switch_provisioner_nrf52840_xxAA_s140_6.0.0.dir/__/__/__/mesh/core/src/net_state.c.obj
 .bss.m_net_state
                0x20004e5c       0x14 examples/light_switch/provisioner/CMakeFiles/light_switch_provisioner_nrf52840_xxAA_s140_6.0.0.dir/__/__/__/mesh/core/src/net_state.c.obj
 .bss.m_seqnum_allocation_in_progress
                0x20004e70        0x1 examples/light_switch/provisioner/CMakeFiles/light_switch_provisioner_nrf52840_xxAA_s140_6.0.0.dir/__/__/__/mesh/core/src/net_state.c.obj
 .bss.m_test_mode
                0x20004e71        0x1 examples/light_switch/provisioner/CMakeFiles/light_switch_provisioner_nrf52840_xxAA_s140_6.0.0.dir/__/__/__/mesh/core/src/net_state.c.obj
 *fill*         0x20004e72        0x2 
 .bss.m_event_flag
                0x20004e74        0x4 examples/light_switch/provisioner/CMakeFiles/light_switch_provisioner_nrf52840_xxAA_s140_6.0.0.dir/__/__/__/mesh/core/src/mesh_flash.c.obj
 .bss.m_suspended
                0x20004e78        0x1 examples/light_switch/provisioner/CMakeFiles/light_switch_provisioner_nrf52840_xxAA_s140_6.0.0.dir/__/__/__/mesh/core/src/mesh_flash.c.obj
 *fill*         0x20004e79        0x3 
 .bss.m_users   0x20004e7c      0x228 examples/light_switch/provisioner/CMakeFiles/light_switch_provisioner_nrf52840_xxAA_s140_6.0.0.dir/__/__/__/mesh/core/src/mesh_flash.c.obj
 .bss.m_is_enabled
                0x200050a4        0x1 examples/light_switch/provisioner/CMakeFiles/light_switch_provisioner_nrf52840_xxAA_s140_6.0.0.dir/__/__/__/mesh/core/src/nrf_mesh.c.obj
 .bss.m_is_initialized
                0x200050a5        0x1 examples/light_switch/provisioner/CMakeFiles/light_switch_provisioner_nrf52840_xxAA_s140_6.0.0.dir/__/__/__/mesh/core/src/nrf_mesh.c.obj
 *fill*         0x200050a6        0x2 
 .bss.m_rx_cb   0x200050a8        0x4 examples/light_switch/provisioner/CMakeFiles/light_switch_provisioner_nrf52840_xxAA_s140_6.0.0.dir/__/__/__/mesh/core/src/nrf_mesh.c.obj
 .bss.m_128buf  0x200050ac       0x10 examples/light_switch/provisioner/CMakeFiles/light_switch_provisioner_nrf52840_xxAA_s140_6.0.0.dir/__/__/__/mesh/core/src/aes_cmac.c.obj
 .bss.m_subkey1
                0x200050bc       0x10 examples/light_switch/provisioner/CMakeFiles/light_switch_provisioner_nrf52840_xxAA_s140_6.0.0.dir/__/__/__/mesh/core/src/aes_cmac.c.obj
 .bss.m_subkey2
                0x200050cc       0x10 examples/light_switch/provisioner/CMakeFiles/light_switch_provisioner_nrf52840_xxAA_s140_6.0.0.dir/__/__/__/mesh/core/src/aes_cmac.c.obj
 .bss.m_event_flag
                0x200050dc        0x4 examples/light_switch/provisioner/CMakeFiles/light_switch_provisioner_nrf52840_xxAA_s140_6.0.0.dir/__/__/__/mesh/core/src/timer_scheduler.c.obj
 .bss.m_scheduler
                0x200050e0       0x10 examples/light_switch/provisioner/CMakeFiles/light_switch_provisioner_nrf52840_xxAA_s140_6.0.0.dir/__/__/__/mesh/core/src/timer_scheduler.c.obj
 .bss.m_attributes
                0x200050f0        0x3 examples/light_switch/provisioner/CMakeFiles/light_switch_provisioner_nrf52840_xxAA_s140_6.0.0.dir/__/__/__/mesh/core/src/timer.c.obj
 *fill*         0x200050f3        0x1 
 .bss.m_callbacks
                0x200050f4        0xc examples/light_switch/provisioner/CMakeFiles/light_switch_provisioner_nrf52840_xxAA_s140_6.0.0.dir/__/__/__/mesh/core/src/timer.c.obj
 .bss.m_is_in_ts
                0x20005100        0x1 examples/light_switch/provisioner/CMakeFiles/light_switch_provisioner_nrf52840_xxAA_s140_6.0.0.dir/__/__/__/mesh/core/src/timer.c.obj
 *fill*         0x20005101        0x3 
 .bss.m_reference_time
                0x20005104        0x4 examples/light_switch/provisioner/CMakeFiles/light_switch_provisioner_nrf52840_xxAA_s140_6.0.0.dir/__/__/__/mesh/core/src/timer.c.obj
 .bss.m_timeouts
                0x20005108        0xc examples/light_switch/provisioner/CMakeFiles/light_switch_provisioner_nrf52840_xxAA_s140_6.0.0.dir/__/__/__/mesh/core/src/timer.c.obj
 .bss.m_timer_mut
                0x20005114        0x4 examples/light_switch/provisioner/CMakeFiles/light_switch_provisioner_nrf52840_xxAA_s140_6.0.0.dir/__/__/__/mesh/core/src/timer.c.obj
 .bss.m_ts_end_time
                0x20005118        0x4 examples/light_switch/provisioner/CMakeFiles/light_switch_provisioner_nrf52840_xxAA_s140_6.0.0.dir/__/__/__/mesh/core/src/timer.c.obj
 .bss.mp_ppi_tasks
                0x2000511c        0xc examples/light_switch/provisioner/CMakeFiles/light_switch_provisioner_nrf52840_xxAA_s140_6.0.0.dir/__/__/__/mesh/core/src/timer.c.obj
 .bss.m_current_time
                0x20005128        0x4 examples/light_switch/provisioner/CMakeFiles/light_switch_provisioner_nrf52840_xxAA_s140_6.0.0.dir/__/__/__/mesh/core/src/ticker.c.obj
 .bss.m_timer   0x2000512c       0x18 examples/light_switch/provisioner/CMakeFiles/light_switch_provisioner_nrf52840_xxAA_s140_6.0.0.dir/__/__/__/mesh/core/src/ticker.c.obj
 .bss.m_current_timeslot
                0x20005144       0x1c examples/light_switch/provisioner/CMakeFiles/light_switch_provisioner_nrf52840_xxAA_s140_6.0.0.dir/__/__/__/mesh/core/src/timeslot.c.obj
 .bss.m_lfclk_ppm
                0x20005160        0x4 examples/light_switch/provisioner/CMakeFiles/light_switch_provisioner_nrf52840_xxAA_s140_6.0.0.dir/__/__/__/mesh/core/src/timeslot.c.obj
 .bss.m_radio_request_earliest
                0x20005164       0x10 examples/light_switch/provisioner/CMakeFiles/light_switch_provisioner_nrf52840_xxAA_s140_6.0.0.dir/__/__/__/mesh/core/src/timeslot.c.obj
 .bss.m_state_lock
                0x20005174        0x1 examples/light_switch/provisioner/CMakeFiles/light_switch_provisioner_nrf52840_xxAA_s140_6.0.0.dir/__/__/__/mesh/core/src/timeslot.c.obj
 .bss.m_timeslot_forced_command
                0x20005175        0x1 examples/light_switch/provisioner/CMakeFiles/light_switch_provisioner_nrf52840_xxAA_s140_6.0.0.dir/__/__/__/mesh/core/src/timeslot.c.obj
 *fill*         0x20005176        0x2 
 .bss.s_last_rtc_value.9592
                0x20005178        0x8 examples/light_switch/provisioner/CMakeFiles/light_switch_provisioner_nrf52840_xxAA_s140_6.0.0.dir/__/__/__/mesh/core/src/timeslot.c.obj
 .bss.m_bearer_event_fifo
                0x20005180       0x14 examples/light_switch/provisioner/CMakeFiles/light_switch_provisioner_nrf52840_xxAA_s140_6.0.0.dir/__/__/__/mesh/core/src/bearer_event.c.obj
 .bss.m_bearer_event_fifo_buffer
                0x20005194      0x100 examples/light_switch/provisioner/CMakeFiles/light_switch_provisioner_nrf52840_xxAA_s140_6.0.0.dir/__/__/__/mesh/core/src/bearer_event.c.obj
 .bss.m_critical
                0x20005294        0x4 examples/light_switch/provisioner/CMakeFiles/light_switch_provisioner_nrf52840_xxAA_s140_6.0.0.dir/__/__/__/mesh/core/src/bearer_event.c.obj
 .bss.m_flag_count
                0x20005298        0x4 examples/light_switch/provisioner/CMakeFiles/light_switch_provisioner_nrf52840_xxAA_s140_6.0.0.dir/__/__/__/mesh/core/src/bearer_event.c.obj
 .bss.m_flag_event_callbacks
                0x2000529c       0x20 examples/light_switch/provisioner/CMakeFiles/light_switch_provisioner_nrf52840_xxAA_s140_6.0.0.dir/__/__/__/mesh/core/src/bearer_event.c.obj
 .bss.m_flags   0x200052bc        0x4 examples/light_switch/provisioner/CMakeFiles/light_switch_provisioner_nrf52840_xxAA_s140_6.0.0.dir/__/__/__/mesh/core/src/bearer_event.c.obj
 .bss.m_irq_priority
                0x200052c0        0x1 examples/light_switch/provisioner/CMakeFiles/light_switch_provisioner_nrf52840_xxAA_s140_6.0.0.dir/__/__/__/mesh/core/src/bearer_event.c.obj
 *fill*         0x200052c1        0x3 
 .bss.m_sequential_event_queue
                0x200052c4        0x8 examples/light_switch/provisioner/CMakeFiles/light_switch_provisioner_nrf52840_xxAA_s140_6.0.0.dir/__/__/__/mesh/core/src/bearer_event.c.obj
 .bss.s_recursion_guard.9723
                0x200052cc        0x1 examples/light_switch/provisioner/CMakeFiles/light_switch_provisioner_nrf52840_xxAA_s140_6.0.0.dir/__/__/__/mesh/core/src/bearer_event.c.obj
 *fill*         0x200052cd        0x3 
 .bss.m_relay_check_cb
                0x200052d0        0x4 examples/light_switch/provisioner/CMakeFiles/light_switch_provisioner_nrf52840_xxAA_s140_6.0.0.dir/__/__/__/mesh/core/src/network.c.obj
 .bss.m_relay_enable
                0x200052d4        0x1 examples/light_switch/provisioner/CMakeFiles/light_switch_provisioner_nrf52840_xxAA_s140_6.0.0.dir/__/__/__/mesh/core/src/network.c.obj
 *fill*         0x200052d5        0x3 
 .bss.m_action_queue
                0x200052d8        0xc examples/light_switch/provisioner/CMakeFiles/light_switch_provisioner_nrf52840_xxAA_s140_6.0.0.dir/__/__/__/mesh/core/src/flash_manager.c.obj
 .bss.m_action_queue_buffer
                0x200052e4      0x104 examples/light_switch/provisioner/CMakeFiles/light_switch_provisioner_nrf52840_xxAA_s140_6.0.0.dir/__/__/__/mesh/core/src/flash_manager.c.obj
 .bss.m_action_state
                0x200053e8        0x1 examples/light_switch/provisioner/CMakeFiles/light_switch_provisioner_nrf52840_xxAA_s140_6.0.0.dir/__/__/__/mesh/core/src/flash_manager.c.obj
 *fill*         0x200053e9        0x3 
 .bss.m_memory_listener_queue
                0x200053ec        0x8 examples/light_switch/provisioner/CMakeFiles/light_switch_provisioner_nrf52840_xxAA_s140_6.0.0.dir/__/__/__/mesh/core/src/flash_manager.c.obj
 .bss.m_processing_flag
                0x200053f4        0x4 examples/light_switch/provisioner/CMakeFiles/light_switch_provisioner_nrf52840_xxAA_s140_6.0.0.dir/__/__/__/mesh/core/src/flash_manager.c.obj
 .bss.m_queue_empty_cb
                0x200053f8        0x4 examples/light_switch/provisioner/CMakeFiles/light_switch_provisioner_nrf52840_xxAA_s140_6.0.0.dir/__/__/__/mesh/core/src/flash_manager.c.obj
 .bss.m_state   0x200053fc        0x1 examples/light_switch/provisioner/CMakeFiles/light_switch_provisioner_nrf52840_xxAA_s140_6.0.0.dir/__/__/__/mesh/core/src/flash_manager.c.obj
 *fill*         0x200053fd        0x1 
 .bss.m_token   0x200053fe        0x2 examples/light_switch/provisioner/CMakeFiles/light_switch_provisioner_nrf52840_xxAA_s140_6.0.0.dir/__/__/__/mesh/core/src/flash_manager.c.obj
 .bss.p_current.11442
                0x20005400        0x4 examples/light_switch/provisioner/CMakeFiles/light_switch_provisioner_nrf52840_xxAA_s140_6.0.0.dir/__/__/__/mesh/core/src/flash_manager.c.obj
 .bss.result.11443
                0x20005404        0x1 examples/light_switch/provisioner/CMakeFiles/light_switch_provisioner_nrf52840_xxAA_s140_6.0.0.dir/__/__/__/mesh/core/src/flash_manager.c.obj
 .bss.m_cache_index
                0x20005405        0x1 examples/light_switch/provisioner/CMakeFiles/light_switch_provisioner_nrf52840_xxAA_s140_6.0.0.dir/__/__/__/mesh/core/src/replay_cache.c.obj
 *fill*         0x20005406        0x2 
 .bss.m_replay_cache
                0x20005408      0x220 examples/light_switch/provisioner/CMakeFiles/light_switch_provisioner_nrf52840_xxAA_s140_6.0.0.dir/__/__/__/mesh/core/src/replay_cache.c.obj
 .bss.m_bearer_count
                0x20005628        0x1 examples/light_switch/provisioner/CMakeFiles/light_switch_provisioner_nrf52840_xxAA_s140_6.0.0.dir/__/__/__/mesh/core/src/core_tx.c.obj
 *fill*         0x20005629        0x3 
 .bss.m_tx_complete_callback
                0x2000562c        0x4 examples/light_switch/provisioner/CMakeFiles/light_switch_provisioner_nrf52840_xxAA_s140_6.0.0.dir/__/__/__/mesh/core/src/core_tx.c.obj
 .bss.mp_bearers
                0x20005630        0x4 examples/light_switch/provisioner/CMakeFiles/light_switch_provisioner_nrf52840_xxAA_s140_6.0.0.dir/__/__/__/mesh/core/src/core_tx.c.obj
 .bss.m_hb_core_evt_handler
                0x20005634        0x8 examples/light_switch/provisioner/CMakeFiles/light_switch_provisioner_nrf52840_xxAA_s140_6.0.0.dir/__/__/__/mesh/core/src/heartbeat.c.obj
 .bss.m_hb_pending_feat_msg
                0x2000563c        0x1 examples/light_switch/provisioner/CMakeFiles/light_switch_provisioner_nrf52840_xxAA_s140_6.0.0.dir/__/__/__/mesh/core/src/heartbeat.c.obj
 .bss.m_hb_pending_pub_msg
                0x2000563d        0x1 examples/light_switch/provisioner/CMakeFiles/light_switch_provisioner_nrf52840_xxAA_s140_6.0.0.dir/__/__/__/mesh/core/src/heartbeat.c.obj
 .bss.m_heartbeat_init_done
                0x2000563e        0x1 examples/light_switch/provisioner/CMakeFiles/light_switch_provisioner_nrf52840_xxAA_s140_6.0.0.dir/__/__/__/mesh/core/src/heartbeat.c.obj
 *fill*         0x2000563f        0x1 
 .bss.m_heartbeat_subscription
                0x20005640       0x10 examples/light_switch/provisioner/CMakeFiles/light_switch_provisioner_nrf52840_xxAA_s140_6.0.0.dir/__/__/__/mesh/core/src/heartbeat.c.obj
 .bss.m_publication_count_decrement_cb
                0x20005650        0x4 examples/light_switch/provisioner/CMakeFiles/light_switch_provisioner_nrf52840_xxAA_s140_6.0.0.dir/__/__/__/mesh/core/src/heartbeat.c.obj
 .bss.m_publication_get_cb
                0x20005654        0x4 examples/light_switch/provisioner/CMakeFiles/light_switch_provisioner_nrf52840_xxAA_s140_6.0.0.dir/__/__/__/mesh/core/src/heartbeat.c.obj
 .bss.m_publication_timer
                0x20005658       0x1c examples/light_switch/provisioner/CMakeFiles/light_switch_provisioner_nrf52840_xxAA_s140_6.0.0.dir/__/__/__/mesh/core/src/heartbeat.c.obj
 .bss.m_subscription_timer
                0x20005674       0x18 examples/light_switch/provisioner/CMakeFiles/light_switch_provisioner_nrf52840_xxAA_s140_6.0.0.dir/__/__/__/mesh/core/src/heartbeat.c.obj
 .bss.m_adv     0x2000568c       0x98 examples/light_switch/provisioner/CMakeFiles/light_switch_provisioner_nrf52840_xxAA_s140_6.0.0.dir/__/__/__/mesh/core/src/net_beacon.c.obj
 .bss.m_adv_buf
                0x20005724       0x34 examples/light_switch/provisioner/CMakeFiles/light_switch_provisioner_nrf52840_xxAA_s140_6.0.0.dir/__/__/__/mesh/core/src/net_beacon.c.obj
 .bss.m_beacon_salt
                0x20005758       0x10 examples/light_switch/provisioner/CMakeFiles/light_switch_provisioner_nrf52840_xxAA_s140_6.0.0.dir/__/__/__/mesh/core/src/net_beacon.c.obj
 .bss.m_enabled
                0x20005768        0x1 examples/light_switch/provisioner/CMakeFiles/light_switch_provisioner_nrf52840_xxAA_s140_6.0.0.dir/__/__/__/mesh/core/src/net_beacon.c.obj
 *fill*         0x20005769        0x3 
 .bss.m_tx_timer
                0x2000576c       0x18 examples/light_switch/provisioner/CMakeFiles/light_switch_provisioner_nrf52840_xxAA_s140_6.0.0.dir/__/__/__/mesh/core/src/net_beacon.c.obj
 .bss.mp_beacon_info
                0x20005784        0x4 examples/light_switch/provisioner/CMakeFiles/light_switch_provisioner_nrf52840_xxAA_s140_6.0.0.dir/__/__/__/mesh/core/src/net_beacon.c.obj
 .bss.m_bearer  0x20005788        0xc examples/light_switch/provisioner/CMakeFiles/light_switch_provisioner_nrf52840_xxAA_s140_6.0.0.dir/__/__/__/mesh/core/src/core_tx_adv.c.obj
 .bss.m_bearer_roles
                0x20005794      0x138 examples/light_switch/provisioner/CMakeFiles/light_switch_provisioner_nrf52840_xxAA_s140_6.0.0.dir/__/__/__/mesh/core/src/core_tx_adv.c.obj
 .bss.m_current_alloc
                0x200058cc        0x8 examples/light_switch/provisioner/CMakeFiles/light_switch_provisioner_nrf52840_xxAA_s140_6.0.0.dir/__/__/__/mesh/core/src/core_tx_adv.c.obj
 .bss.m_originator_adv_packet_buffer
                0x200058d4      0x100 examples/light_switch/provisioner/CMakeFiles/light_switch_provisioner_nrf52840_xxAA_s140_6.0.0.dir/__/__/__/mesh/core/src/core_tx_adv.c.obj
 .bss.m_relay_adv_packet_buffer
                0x200059d4       0x80 examples/light_switch/provisioner/CMakeFiles/light_switch_provisioner_nrf52840_xxAA_s140_6.0.0.dir/__/__/__/mesh/core/src/core_tx_adv.c.obj
 .bss.m_subscribers
                0x20005a54        0x4 examples/light_switch/provisioner/CMakeFiles/light_switch_provisioner_nrf52840_xxAA_s140_6.0.0.dir/__/__/__/mesh/bearer/src/ad_listener.c.obj
 .bss.m_adtype_filter
                0x20005a58       0x38 examples/light_switch/provisioner/CMakeFiles/light_switch_provisioner_nrf52840_xxAA_s140_6.0.0.dir/__/__/__/mesh/bearer/src/ad_type_filter.c.obj
 .bss.m_adv_prng
                0x20005a90       0x10 examples/light_switch/provisioner/CMakeFiles/light_switch_provisioner_nrf52840_xxAA_s140_6.0.0.dir/__/__/__/mesh/bearer/src/advertiser.c.obj
 .bss.m_action_queue
                0x20005aa0        0x8 examples/light_switch/provisioner/CMakeFiles/light_switch_provisioner_nrf52840_xxAA_s140_6.0.0.dir/__/__/__/mesh/bearer/src/bearer_handler.c.obj
 .bss.m_end_time
                0x20005aa8        0x4 examples/light_switch/provisioner/CMakeFiles/light_switch_provisioner_nrf52840_xxAA_s140_6.0.0.dir/__/__/__/mesh/bearer/src/bearer_handler.c.obj
 .bss.m_scanner_is_active
                0x20005aac        0x1 examples/light_switch/provisioner/CMakeFiles/light_switch_provisioner_nrf52840_xxAA_s140_6.0.0.dir/__/__/__/mesh/bearer/src/bearer_handler.c.obj
 .bss.m_stopped
                0x20005aad        0x1 examples/light_switch/provisioner/CMakeFiles/light_switch_provisioner_nrf52840_xxAA_s140_6.0.0.dir/__/__/__/mesh/bearer/src/bearer_handler.c.obj
 *fill*         0x20005aae        0x2 
 .bss.mp_action
                0x20005ab0        0x4 examples/light_switch/provisioner/CMakeFiles/light_switch_provisioner_nrf52840_xxAA_s140_6.0.0.dir/__/__/__/mesh/bearer/src/bearer_handler.c.obj
 .bss.m_next_channel_index
                0x20005ab4        0x1 examples/light_switch/provisioner/CMakeFiles/light_switch_provisioner_nrf52840_xxAA_s140_6.0.0.dir/__/__/__/mesh/bearer/src/broadcast.c.obj
 *fill*         0x20005ab5        0x3 
 .bss.m_accepted_amount
                0x20005ab8        0x4 examples/light_switch/provisioner/CMakeFiles/light_switch_provisioner_nrf52840_xxAA_s140_6.0.0.dir/__/__/__/mesh/bearer/src/filter_engine.c.obj
 .bss.m_filter_list_head
                0x20005abc        0x4 examples/light_switch/provisioner/CMakeFiles/light_switch_provisioner_nrf52840_xxAA_s140_6.0.0.dir/__/__/__/mesh/bearer/src/filter_engine.c.obj
 .bss.m_scanner
                0x20005ac0      0x290 examples/light_switch/provisioner/CMakeFiles/light_switch_provisioner_nrf52840_xxAA_s140_6.0.0.dir/__/__/__/mesh/bearer/src/scanner.c.obj
 .bss.m_client  0x20005d50        0x8 examples/light_switch/provisioner/CMakeFiles/light_switch_provisioner_nrf52840_xxAA_s140_6.0.0.dir/__/__/__/models/config/src/config_client.c.obj
 .bss.mp_packet_buffer
                0x20005d58        0x4 examples/light_switch/provisioner/CMakeFiles/light_switch_provisioner_nrf52840_xxAA_s140_6.0.0.dir/__/__/__/models/config/src/config_client.c.obj
 .bss.m_evt_cb  0x20005d5c        0x4 examples/light_switch/provisioner/CMakeFiles/light_switch_provisioner_nrf52840_xxAA_s140_6.0.0.dir/__/__/__/models/config/src/config_server.c.obj
 .bss.m_heartbeat_publication
                0x20005d60       0x14 examples/light_switch/provisioner/CMakeFiles/light_switch_provisioner_nrf52840_xxAA_s140_6.0.0.dir/__/__/__/models/config/src/config_server.c.obj
 .bss.m_node_reset_pending
                0x20005d74        0x1 examples/light_switch/provisioner/CMakeFiles/light_switch_provisioner_nrf52840_xxAA_s140_6.0.0.dir/__/__/__/models/config/src/config_server.c.obj
 *fill*         0x20005d75        0x3 
 .bss.m_attention_timer
                0x20005d78       0x18 examples/light_switch/provisioner/CMakeFiles/light_switch_provisioner_nrf52840_xxAA_s140_6.0.0.dir/__/__/__/models/health/src/health_server.c.obj
 .bss.mp_attention_list
                0x20005d90        0x4 examples/light_switch/provisioner/CMakeFiles/light_switch_provisioner_nrf52840_xxAA_s140_6.0.0.dir/__/__/__/models/health/src/health_server.c.obj
 .bss.m_publish_timer
                0x20005d94       0x18 examples/light_switch/provisioner/CMakeFiles/light_switch_provisioner_nrf52840_xxAA_s140_6.0.0.dir/__/__/__/mesh/access/src/access_publish.c.obj
 .bss.m_publish_timer_counter
                0x20005dac        0x4 examples/light_switch/provisioner/CMakeFiles/light_switch_provisioner_nrf52840_xxAA_s140_6.0.0.dir/__/__/__/mesh/access/src/access_publish.c.obj
 .bss.m_publish_timer_running
                0x20005db0        0x1 examples/light_switch/provisioner/CMakeFiles/light_switch_provisioner_nrf52840_xxAA_s140_6.0.0.dir/__/__/__/mesh/access/src/access_publish.c.obj
 .bss.m_timer_resolution
                0x20005db1        0x1 examples/light_switch/provisioner/CMakeFiles/light_switch_provisioner_nrf52840_xxAA_s140_6.0.0.dir/__/__/__/mesh/access/src/access_publish.c.obj
 *fill*         0x20005db2        0x2 
 .bss.mp_publication_list
                0x20005db4        0x4 examples/light_switch/provisioner/CMakeFiles/light_switch_provisioner_nrf52840_xxAA_s140_6.0.0.dir/__/__/__/mesh/access/src/access_publish.c.obj
 .bss.m_element_pool
                0x20005db8        0x6 examples/light_switch/provisioner/CMakeFiles/light_switch_provisioner_nrf52840_xxAA_s140_6.0.0.dir/__/__/__/mesh/access/src/access.c.obj
 *fill*         0x20005dbe        0x2 
 .bss.m_evt_handler
                0x20005dc0        0x8 examples/light_switch/provisioner/CMakeFiles/light_switch_provisioner_nrf52840_xxAA_s140_6.0.0.dir/__/__/__/mesh/access/src/access.c.obj
 .bss.m_flash_manager
                0x20005dc8       0x24 examples/light_switch/provisioner/CMakeFiles/light_switch_provisioner_nrf52840_xxAA_s140_6.0.0.dir/__/__/__/mesh/access/src/access.c.obj
 .bss.m_flash_not_ready
                0x20005dec        0x1 examples/light_switch/provisioner/CMakeFiles/light_switch_provisioner_nrf52840_xxAA_s140_6.0.0.dir/__/__/__/mesh/access/src/access.c.obj
 .bss.m_metadata_stored
                0x20005ded        0x1 examples/light_switch/provisioner/CMakeFiles/light_switch_provisioner_nrf52840_xxAA_s140_6.0.0.dir/__/__/__/mesh/access/src/access.c.obj
 *fill*         0x20005dee        0x2 
 .bss.m_model_pool
                0x20005df0       0xe0 examples/light_switch/provisioner/CMakeFiles/light_switch_provisioner_nrf52840_xxAA_s140_6.0.0.dir/__/__/__/mesh/access/src/access.c.obj
 .bss.m_subscription_list_pool
                0x20005ed0       0x30 examples/light_switch/provisioner/CMakeFiles/light_switch_provisioner_nrf52840_xxAA_s140_6.0.0.dir/__/__/__/mesh/access/src/access.c.obj
 .bss.m_reliable
                0x20005f00       0xcc examples/light_switch/provisioner/CMakeFiles/light_switch_provisioner_nrf52840_xxAA_s140_6.0.0.dir/__/__/__/mesh/access/src/access_reliable.c.obj
 .bss.m_addr_nonvirtual_allocated
                0x20005fcc        0x8 examples/light_switch/provisioner/CMakeFiles/light_switch_provisioner_nrf52840_xxAA_s140_6.0.0.dir/__/__/__/mesh/access/src/device_state_manager.c.obj
 .bss.m_addr_nonvirtual_needs_flashing
                0x20005fd4        0x8 examples/light_switch/provisioner/CMakeFiles/light_switch_provisioner_nrf52840_xxAA_s140_6.0.0.dir/__/__/__/mesh/access/src/device_state_manager.c.obj
 .bss.m_addr_unicast_allocated
                0x20005fdc        0x4 examples/light_switch/provisioner/CMakeFiles/light_switch_provisioner_nrf52840_xxAA_s140_6.0.0.dir/__/__/__/mesh/access/src/device_state_manager.c.obj
 .bss.m_addr_unicast_needs_flashing
                0x20005fe0        0x4 examples/light_switch/provisioner/CMakeFiles/light_switch_provisioner_nrf52840_xxAA_s140_6.0.0.dir/__/__/__/mesh/access/src/device_state_manager.c.obj
 .bss.m_addr_virtual_allocated
                0x20005fe4        0x4 examples/light_switch/provisioner/CMakeFiles/light_switch_provisioner_nrf52840_xxAA_s140_6.0.0.dir/__/__/__/mesh/access/src/device_state_manager.c.obj
 .bss.m_addr_virtual_needs_flashing
                0x20005fe8        0x4 examples/light_switch/provisioner/CMakeFiles/light_switch_provisioner_nrf52840_xxAA_s140_6.0.0.dir/__/__/__/mesh/access/src/device_state_manager.c.obj
 .bss.m_addresses
                0x20005fec       0x88 examples/light_switch/provisioner/CMakeFiles/light_switch_provisioner_nrf52840_xxAA_s140_6.0.0.dir/__/__/__/mesh/access/src/device_state_manager.c.obj
 .bss.m_appkey_allocated
                0x20006074        0x4 examples/light_switch/provisioner/CMakeFiles/light_switch_provisioner_nrf52840_xxAA_s140_6.0.0.dir/__/__/__/mesh/access/src/device_state_manager.c.obj
 .bss.m_appkey_needs_flashing
                0x20006078        0x4 examples/light_switch/provisioner/CMakeFiles/light_switch_provisioner_nrf52840_xxAA_s140_6.0.0.dir/__/__/__/mesh/access/src/device_state_manager.c.obj
 .bss.m_appkeys
                0x2000607c       0x2a examples/light_switch/provisioner/CMakeFiles/light_switch_provisioner_nrf52840_xxAA_s140_6.0.0.dir/__/__/__/mesh/access/src/device_state_manager.c.obj
 *fill*         0x200060a6        0x2 
 .bss.m_devkey_allocated
                0x200060a8        0x4 examples/light_switch/provisioner/CMakeFiles/light_switch_provisioner_nrf52840_xxAA_s140_6.0.0.dir/__/__/__/mesh/access/src/device_state_manager.c.obj
 .bss.m_devkey_needs_flashing
                0x200060ac        0x4 examples/light_switch/provisioner/CMakeFiles/light_switch_provisioner_nrf52840_xxAA_s140_6.0.0.dir/__/__/__/mesh/access/src/device_state_manager.c.obj
 .bss.m_devkeys
                0x200060b0      0x2c0 examples/light_switch/provisioner/CMakeFiles/light_switch_provisioner_nrf52840_xxAA_s140_6.0.0.dir/__/__/__/mesh/access/src/device_state_manager.c.obj
 .bss.m_flash_is_available
                0x20006370        0x1 examples/light_switch/provisioner/CMakeFiles/light_switch_provisioner_nrf52840_xxAA_s140_6.0.0.dir/__/__/__/mesh/access/src/device_state_manager.c.obj
 *fill*         0x20006371        0x3 
 .bss.m_flash_manager
                0x20006374       0x24 examples/light_switch/provisioner/CMakeFiles/light_switch_provisioner_nrf52840_xxAA_s140_6.0.0.dir/__/__/__/mesh/access/src/device_state_manager.c.obj
 .bss.m_flash_mem_listener_update_all
                0x20006398       0x10 examples/light_switch/provisioner/CMakeFiles/light_switch_provisioner_nrf52840_xxAA_s140_6.0.0.dir/__/__/__/mesh/access/src/device_state_manager.c.obj
 .bss.m_has_primary_subnet
                0x200063a8        0x1 examples/light_switch/provisioner/CMakeFiles/light_switch_provisioner_nrf52840_xxAA_s140_6.0.0.dir/__/__/__/mesh/access/src/device_state_manager.c.obj
 *fill*         0x200063a9        0x1 
 .bss.m_local_unicast_addr
                0x200063aa        0x4 examples/light_switch/provisioner/CMakeFiles/light_switch_provisioner_nrf52840_xxAA_s140_6.0.0.dir/__/__/__/mesh/access/src/device_state_manager.c.obj
 *fill*         0x200063ae        0x2 
 .bss.m_mesh_evt_handler
                0x200063b0        0x8 examples/light_switch/provisioner/CMakeFiles/light_switch_provisioner_nrf52840_xxAA_s140_6.0.0.dir/__/__/__/mesh/access/src/device_state_manager.c.obj
 .bss.m_subnet_allocated
                0x200063b8        0x4 examples/light_switch/provisioner/CMakeFiles/light_switch_provisioner_nrf52840_xxAA_s140_6.0.0.dir/__/__/__/mesh/access/src/device_state_manager.c.obj
 .bss.m_subnet_needs_flashing
                0x200063bc        0x4 examples/light_switch/provisioner/CMakeFiles/light_switch_provisioner_nrf52840_xxAA_s140_6.0.0.dir/__/__/__/mesh/access/src/device_state_manager.c.obj
 .bss.m_subnets
                0x200063c0       0xa8 examples/light_switch/provisioner/CMakeFiles/light_switch_provisioner_nrf52840_xxAA_s140_6.0.0.dir/__/__/__/mesh/access/src/device_state_manager.c.obj
 .bss.m_virtual_addresses
                0x20006468       0x14 examples/light_switch/provisioner/CMakeFiles/light_switch_provisioner_nrf52840_xxAA_s140_6.0.0.dir/__/__/__/mesh/access/src/device_state_manager.c.obj
 .bss.m_event_handler
                0x2000647c        0x4 examples/light_switch/provisioner/CMakeFiles/light_switch_provisioner_nrf52840_xxAA_s140_6.0.0.dir/__/__/__/mesh/prov/src/prov_beacon.c.obj
 .bss.m_offload_ecdh
                0x20006480        0x1 examples/light_switch/provisioner/CMakeFiles/light_switch_provisioner_nrf52840_xxAA_s140_6.0.0.dir/__/__/__/mesh/prov/src/prov_utils.c.obj
 *fill*         0x20006481        0x3 
 .bss.mp_bearer_head
                0x20006484        0x4 examples/light_switch/provisioner/CMakeFiles/light_switch_provisioner_nrf52840_xxAA_s140_6.0.0.dir/__/__/__/mesh/prov/src/prov_bearer_adv.c.obj
 .bss._acDownBuffer
                0x20006488       0x80 external/rtt/librtt_nrf52840_xxAA.a(SEGGER_RTT.c.obj)
 .bss._acUpBuffer
                0x20006508      0x400 external/rtt/librtt_nrf52840_xxAA.a(SEGGER_RTT.c.obj)
 .bss.__malloc_free_list
                0x20006908        0x4 c:/mesh/arm_gcc/bin/../lib/gcc/arm-none-eabi/6.3.1/../../../../arm-none-eabi/lib/thumb/v7e-m/fpv4-sp/hard\libg_nano.a(lib_a-nano-mallocr.o)
                0x20006908                __malloc_free_list
 .bss.__malloc_sbrk_start
                0x2000690c        0x4 c:/mesh/arm_gcc/bin/../lib/gcc/arm-none-eabi/6.3.1/../../../../arm-none-eabi/lib/thumb/v7e-m/fpv4-sp/hard\libg_nano.a(lib_a-nano-mallocr.o)
                0x2000690c                __malloc_sbrk_start
 .bss.heap_end.5239
                0x20006910        0x4 c:/mesh/arm_gcc/bin/../lib/gcc/arm-none-eabi/6.3.1/../../../../arm-none-eabi/lib/thumb/v7e-m/fpv4-sp/hard\libnosys.a(sbrk.o)
 *(COMMON)
 COMMON         0x20006914        0xc examples/light_switch/provisioner/CMakeFiles/light_switch_provisioner_nrf52840_xxAA_s140_6.0.0.dir/__/__/common/src/mesh_softdevice_init.c.obj
                0x20006914                nrf_nvic_state
 COMMON         0x20006920       0x24 examples/light_switch/provisioner/CMakeFiles/light_switch_provisioner_nrf52840_xxAA_s140_6.0.0.dir/__/__/__/mesh/core/src/core_tx.c.obj
                0x20006920                m_packet
 COMMON         0x20006944       0x78 external/rtt/librtt_nrf52840_xxAA.a(SEGGER_RTT.c.obj)
                0x20006944                _SEGGER_RTT
 COMMON         0x200069bc        0x4 c:/mesh/arm_gcc/bin/../lib/gcc/arm-none-eabi/6.3.1/../../../../arm-none-eabi/lib/thumb/v7e-m/fpv4-sp/hard\libg_nano.a(lib_a-reent.o)
                0x200069bc                errno
                0x200069c0                . = ALIGN (0x4)
                0x200069c0                __bss_end__ = .

.heap           0x200069c0     0x2000
                0x200069c0                __HeapBase = .
                0x200069c0                __end__ = .
                0x200069c0                PROVIDE (end, .)
 *(.heap*)
 .heap          0x200069c0     0x2000 examples/light_switch/provisioner/CMakeFiles/light_switch_provisioner_nrf52840_xxAA_s140_6.0.0.dir/C_/ver/mod/nRF5_SDK_15.0.0_a53641a/modules/nrfx/mdk/gcc_startup_nrf52840.S.obj
                0x200089c0                __HeapLimit = .

.stack_dummy    0x200069c0     0x2000
 *(.stack*)
 .stack         0x200069c0     0x2000 examples/light_switch/provisioner/CMakeFiles/light_switch_provisioner_nrf52840_xxAA_s140_6.0.0.dir/C_/ver/mod/nRF5_SDK_15.0.0_a53641a/modules/nrfx/mdk/gcc_startup_nrf52840.S.obj
                0x2003fd00                __StackTop = (ORIGIN (RAM) + LENGTH (RAM))
                0x2003dd00                __StackLimit = (__StackTop - SIZEOF (.stack_dummy))
                0x2003fd00                PROVIDE (__stack, __StackTop)
                0x00000001                ASSERT ((__StackLimit >= __HeapLimit), region RAM overflowed with stack)
                0x00000178                DataInitFlashUsed = (__bss_start__ - __data_start__)
                0x000162b0                CodeFlashUsed = (__etext - ORIGIN (FLASH))
                0x00016428                TotalFlashUsed = (CodeFlashUsed + DataInitFlashUsed)
                0x00000001                ASSERT ((TotalFlashUsed <= LENGTH (FLASH)), region FLASH overflowed with .data and user data)
OUTPUT(examples\light_switch\provisioner\light_switch_provisioner_nrf52840_xxAA_s140_6.0.0.elf elf32-littlearm)

.ARM.attributes
                0x00000000       0x30
 .ARM.attributes
                0x00000000       0x22 c:/mesh/arm_gcc/bin/../lib/gcc/arm-none-eabi/6.3.1/thumb/v7e-m/fpv4-sp/hard/crti.o
 .ARM.attributes
                0x00000022       0x34 c:/mesh/arm_gcc/bin/../lib/gcc/arm-none-eabi/6.3.1/thumb/v7e-m/fpv4-sp/hard/crtbegin.o
 .ARM.attributes
                0x00000056       0x20 c:/mesh/arm_gcc/bin/../lib/gcc/arm-none-eabi/6.3.1/../../../../arm-none-eabi/lib/thumb/v7e-m/fpv4-sp/hard/crt0.o
 .ARM.attributes
                0x00000076       0x39 examples/light_switch/provisioner/CMakeFiles/light_switch_provisioner_nrf52840_xxAA_s140_6.0.0.dir/src/main.c.obj
 .ARM.attributes
                0x000000af       0x39 examples/light_switch/provisioner/CMakeFiles/light_switch_provisioner_nrf52840_xxAA_s140_6.0.0.dir/__/__/__/mesh/stack/src/mesh_stack.c.obj
 .ARM.attributes
                0x000000e8       0x39 examples/light_switch/provisioner/CMakeFiles/light_switch_provisioner_nrf52840_xxAA_s140_6.0.0.dir/src/provisioner_helper.c.obj
 .ARM.attributes
                0x00000121       0x39 examples/light_switch/provisioner/CMakeFiles/light_switch_provisioner_nrf52840_xxAA_s140_6.0.0.dir/src/node_setup.c.obj
 .ARM.attributes
                0x0000015a       0x39 examples/light_switch/provisioner/CMakeFiles/light_switch_provisioner_nrf52840_xxAA_s140_6.0.0.dir/__/__/common/src/mesh_softdevice_init.c.obj
 .ARM.attributes
                0x00000193       0x39 examples/light_switch/provisioner/CMakeFiles/light_switch_provisioner_nrf52840_xxAA_s140_6.0.0.dir/__/__/common/src/rtt_input.c.obj
 .ARM.attributes
                0x000001cc       0x39 examples/light_switch/provisioner/CMakeFiles/light_switch_provisioner_nrf52840_xxAA_s140_6.0.0.dir/__/__/common/src/simple_hal.c.obj
 .ARM.attributes
                0x00000205       0x39 examples/light_switch/provisioner/CMakeFiles/light_switch_provisioner_nrf52840_xxAA_s140_6.0.0.dir/__/__/nrf_mesh_weak.c.obj
 .ARM.attributes
                0x0000023e       0x39 examples/light_switch/provisioner/CMakeFiles/light_switch_provisioner_nrf52840_xxAA_s140_6.0.0.dir/__/__/common/src/app_error_weak.c.obj
 .ARM.attributes
                0x00000277       0x39 examples/light_switch/provisioner/CMakeFiles/light_switch_provisioner_nrf52840_xxAA_s140_6.0.0.dir/__/__/common/src/assertion_handler_weak.c.obj
 .ARM.attributes
                0x000002b0       0x39 examples/light_switch/provisioner/CMakeFiles/light_switch_provisioner_nrf52840_xxAA_s140_6.0.0.dir/__/__/__/mesh/core/src/nrf_mesh_configure.c.obj
 .ARM.attributes
                0x000002e9       0x39 examples/light_switch/provisioner/CMakeFiles/light_switch_provisioner_nrf52840_xxAA_s140_6.0.0.dir/__/__/__/mesh/core/src/aes.c.obj
 .ARM.attributes
                0x00000322       0x39 examples/light_switch/provisioner/CMakeFiles/light_switch_provisioner_nrf52840_xxAA_s140_6.0.0.dir/__/__/__/mesh/core/src/msg_cache.c.obj
 .ARM.attributes
                0x0000035b       0x39 examples/light_switch/provisioner/CMakeFiles/light_switch_provisioner_nrf52840_xxAA_s140_6.0.0.dir/__/__/__/mesh/core/src/transport.c.obj
 .ARM.attributes
                0x00000394       0x39 examples/light_switch/provisioner/CMakeFiles/light_switch_provisioner_nrf52840_xxAA_s140_6.0.0.dir/__/__/__/mesh/core/src/event.c.obj
 .ARM.attributes
                0x000003cd       0x39 examples/light_switch/provisioner/CMakeFiles/light_switch_provisioner_nrf52840_xxAA_s140_6.0.0.dir/__/__/__/mesh/core/src/packet_buffer.c.obj
 .ARM.attributes
                0x00000406       0x39 examples/light_switch/provisioner/CMakeFiles/light_switch_provisioner_nrf52840_xxAA_s140_6.0.0.dir/__/__/__/mesh/core/src/flash_manager_defrag.c.obj
 .ARM.attributes
                0x0000043f       0x39 examples/light_switch/provisioner/CMakeFiles/light_switch_provisioner_nrf52840_xxAA_s140_6.0.0.dir/__/__/__/mesh/core/src/fifo.c.obj
 .ARM.attributes
                0x00000478       0x39 examples/light_switch/provisioner/CMakeFiles/light_switch_provisioner_nrf52840_xxAA_s140_6.0.0.dir/__/__/__/mesh/core/src/nrf_flash.c.obj
 .ARM.attributes
                0x000004b1       0x39 examples/light_switch/provisioner/CMakeFiles/light_switch_provisioner_nrf52840_xxAA_s140_6.0.0.dir/__/__/__/mesh/core/src/packet_mgr.c.obj
 .ARM.attributes
                0x000004ea       0x39 examples/light_switch/provisioner/CMakeFiles/light_switch_provisioner_nrf52840_xxAA_s140_6.0.0.dir/__/__/__/mesh/core/src/net_state.c.obj
 .ARM.attributes
                0x00000523       0x39 examples/light_switch/provisioner/CMakeFiles/light_switch_provisioner_nrf52840_xxAA_s140_6.0.0.dir/__/__/__/mesh/core/src/mesh_flash.c.obj
 .ARM.attributes
                0x0000055c       0x39 examples/light_switch/provisioner/CMakeFiles/light_switch_provisioner_nrf52840_xxAA_s140_6.0.0.dir/__/__/__/mesh/core/src/nrf_mesh_utils.c.obj
 .ARM.attributes
                0x00000595       0x39 examples/light_switch/provisioner/CMakeFiles/light_switch_provisioner_nrf52840_xxAA_s140_6.0.0.dir/__/__/__/mesh/core/src/nrf_mesh.c.obj
 .ARM.attributes
                0x000005ce       0x39 examples/light_switch/provisioner/CMakeFiles/light_switch_provisioner_nrf52840_xxAA_s140_6.0.0.dir/__/__/__/mesh/core/src/queue.c.obj
 .ARM.attributes
                0x00000607       0x39 examples/light_switch/provisioner/CMakeFiles/light_switch_provisioner_nrf52840_xxAA_s140_6.0.0.dir/__/__/__/mesh/core/src/hal.c.obj
 .ARM.attributes
                0x00000640       0x39 examples/light_switch/provisioner/CMakeFiles/light_switch_provisioner_nrf52840_xxAA_s140_6.0.0.dir/__/__/__/mesh/core/src/aes_cmac.c.obj
 .ARM.attributes
                0x00000679       0x39 examples/light_switch/provisioner/CMakeFiles/light_switch_provisioner_nrf52840_xxAA_s140_6.0.0.dir/__/__/__/mesh/core/src/timer_scheduler.c.obj
 .ARM.attributes
                0x000006b2       0x39 examples/light_switch/provisioner/CMakeFiles/light_switch_provisioner_nrf52840_xxAA_s140_6.0.0.dir/__/__/__/mesh/core/src/timer.c.obj
 .ARM.attributes
                0x000006eb       0x39 examples/light_switch/provisioner/CMakeFiles/light_switch_provisioner_nrf52840_xxAA_s140_6.0.0.dir/__/__/__/mesh/core/src/ticker.c.obj
 .ARM.attributes
                0x00000724       0x39 examples/light_switch/provisioner/CMakeFiles/light_switch_provisioner_nrf52840_xxAA_s140_6.0.0.dir/__/__/__/mesh/core/src/rand.c.obj
 .ARM.attributes
                0x0000075d       0x39 examples/light_switch/provisioner/CMakeFiles/light_switch_provisioner_nrf52840_xxAA_s140_6.0.0.dir/__/__/__/mesh/core/src/nrf_mesh_opt.c.obj
 .ARM.attributes
                0x00000796       0x39 examples/light_switch/provisioner/CMakeFiles/light_switch_provisioner_nrf52840_xxAA_s140_6.0.0.dir/__/__/__/mesh/core/src/timeslot.c.obj
 .ARM.attributes
                0x000007cf       0x39 examples/light_switch/provisioner/CMakeFiles/light_switch_provisioner_nrf52840_xxAA_s140_6.0.0.dir/__/__/__/mesh/core/src/bearer_event.c.obj
 .ARM.attributes
                0x00000808       0x39 examples/light_switch/provisioner/CMakeFiles/light_switch_provisioner_nrf52840_xxAA_s140_6.0.0.dir/__/__/__/mesh/core/src/enc.c.obj
 .ARM.attributes
                0x00000841       0x39 examples/light_switch/provisioner/CMakeFiles/light_switch_provisioner_nrf52840_xxAA_s140_6.0.0.dir/__/__/__/mesh/core/src/network.c.obj
 .ARM.attributes
                0x0000087a       0x39 examples/light_switch/provisioner/CMakeFiles/light_switch_provisioner_nrf52840_xxAA_s140_6.0.0.dir/__/__/__/mesh/core/src/net_packet.c.obj
 .ARM.attributes
                0x000008b3       0x39 examples/light_switch/provisioner/CMakeFiles/light_switch_provisioner_nrf52840_xxAA_s140_6.0.0.dir/__/__/__/mesh/core/src/msqueue.c.obj
 .ARM.attributes
                0x000008ec       0x39 examples/light_switch/provisioner/CMakeFiles/light_switch_provisioner_nrf52840_xxAA_s140_6.0.0.dir/__/__/__/mesh/core/src/nrf_mesh_keygen.c.obj
 .ARM.attributes
                0x00000925       0x39 examples/light_switch/provisioner/CMakeFiles/light_switch_provisioner_nrf52840_xxAA_s140_6.0.0.dir/__/__/__/mesh/core/src/list.c.obj
 .ARM.attributes
                0x0000095e       0x39 examples/light_switch/provisioner/CMakeFiles/light_switch_provisioner_nrf52840_xxAA_s140_6.0.0.dir/__/__/__/mesh/core/src/log.c.obj
 .ARM.attributes
                0x00000997       0x39 examples/light_switch/provisioner/CMakeFiles/light_switch_provisioner_nrf52840_xxAA_s140_6.0.0.dir/__/__/__/mesh/core/src/flash_manager.c.obj
 .ARM.attributes
                0x000009d0       0x39 examples/light_switch/provisioner/CMakeFiles/light_switch_provisioner_nrf52840_xxAA_s140_6.0.0.dir/__/__/__/mesh/core/src/ccm_soft.c.obj
 .ARM.attributes
                0x00000a09       0x39 examples/light_switch/provisioner/CMakeFiles/light_switch_provisioner_nrf52840_xxAA_s140_6.0.0.dir/__/__/__/mesh/core/src/replay_cache.c.obj
 .ARM.attributes
                0x00000a42       0x39 examples/light_switch/provisioner/CMakeFiles/light_switch_provisioner_nrf52840_xxAA_s140_6.0.0.dir/__/__/__/mesh/core/src/beacon.c.obj
 .ARM.attributes
                0x00000a7b       0x39 examples/light_switch/provisioner/CMakeFiles/light_switch_provisioner_nrf52840_xxAA_s140_6.0.0.dir/__/__/__/mesh/core/src/flash_manager_internal.c.obj
 .ARM.attributes
                0x00000ab4       0x39 examples/light_switch/provisioner/CMakeFiles/light_switch_provisioner_nrf52840_xxAA_s140_6.0.0.dir/__/__/__/mesh/core/src/core_tx.c.obj
 .ARM.attributes
                0x00000aed       0x39 examples/light_switch/provisioner/CMakeFiles/light_switch_provisioner_nrf52840_xxAA_s140_6.0.0.dir/__/__/__/mesh/core/src/heartbeat.c.obj
 .ARM.attributes
                0x00000b26       0x39 examples/light_switch/provisioner/CMakeFiles/light_switch_provisioner_nrf52840_xxAA_s140_6.0.0.dir/__/__/__/mesh/core/src/net_beacon.c.obj
 .ARM.attributes
                0x00000b5f       0x39 examples/light_switch/provisioner/CMakeFiles/light_switch_provisioner_nrf52840_xxAA_s140_6.0.0.dir/__/__/__/mesh/core/src/core_tx_adv.c.obj
 .ARM.attributes
                0x00000b98       0x39 examples/light_switch/provisioner/CMakeFiles/light_switch_provisioner_nrf52840_xxAA_s140_6.0.0.dir/__/__/__/mesh/bearer/src/ad_listener.c.obj
 .ARM.attributes
                0x00000bd1       0x39 examples/light_switch/provisioner/CMakeFiles/light_switch_provisioner_nrf52840_xxAA_s140_6.0.0.dir/__/__/__/mesh/bearer/src/ad_type_filter.c.obj
 .ARM.attributes
                0x00000c0a       0x39 examples/light_switch/provisioner/CMakeFiles/light_switch_provisioner_nrf52840_xxAA_s140_6.0.0.dir/__/__/__/mesh/bearer/src/advertiser.c.obj
 .ARM.attributes
                0x00000c43       0x39 examples/light_switch/provisioner/CMakeFiles/light_switch_provisioner_nrf52840_xxAA_s140_6.0.0.dir/__/__/__/mesh/bearer/src/bearer_handler.c.obj
 .ARM.attributes
                0x00000c7c       0x39 examples/light_switch/provisioner/CMakeFiles/light_switch_provisioner_nrf52840_xxAA_s140_6.0.0.dir/__/__/__/mesh/bearer/src/broadcast.c.obj
 .ARM.attributes
                0x00000cb5       0x39 examples/light_switch/provisioner/CMakeFiles/light_switch_provisioner_nrf52840_xxAA_s140_6.0.0.dir/__/__/__/mesh/bearer/src/filter_engine.c.obj
 .ARM.attributes
                0x00000cee       0x39 examples/light_switch/provisioner/CMakeFiles/light_switch_provisioner_nrf52840_xxAA_s140_6.0.0.dir/__/__/__/mesh/bearer/src/radio_config.c.obj
 .ARM.attributes
                0x00000d27       0x39 examples/light_switch/provisioner/CMakeFiles/light_switch_provisioner_nrf52840_xxAA_s140_6.0.0.dir/__/__/__/mesh/bearer/src/scanner.c.obj
 .ARM.attributes
                0x00000d60       0x39 examples/light_switch/provisioner/CMakeFiles/light_switch_provisioner_nrf52840_xxAA_s140_6.0.0.dir/__/__/__/models/config/src/config_client.c.obj
 .ARM.attributes
                0x00000d99       0x39 examples/light_switch/provisioner/CMakeFiles/light_switch_provisioner_nrf52840_xxAA_s140_6.0.0.dir/__/__/__/models/config/src/composition_data.c.obj
 .ARM.attributes
                0x00000dd2       0x39 examples/light_switch/provisioner/CMakeFiles/light_switch_provisioner_nrf52840_xxAA_s140_6.0.0.dir/__/__/__/models/config/src/config_server.c.obj
 .ARM.attributes
                0x00000e0b       0x39 examples/light_switch/provisioner/CMakeFiles/light_switch_provisioner_nrf52840_xxAA_s140_6.0.0.dir/__/__/__/models/config/src/packed_index_list.c.obj
 .ARM.attributes
                0x00000e44       0x39 examples/light_switch/provisioner/CMakeFiles/light_switch_provisioner_nrf52840_xxAA_s140_6.0.0.dir/__/__/__/models/health/src/health_server.c.obj
 .ARM.attributes
                0x00000e7d       0x39 examples/light_switch/provisioner/CMakeFiles/light_switch_provisioner_nrf52840_xxAA_s140_6.0.0.dir/__/__/__/models/health/src/health_client.c.obj
 .ARM.attributes
                0x00000eb6       0x39 examples/light_switch/provisioner/CMakeFiles/light_switch_provisioner_nrf52840_xxAA_s140_6.0.0.dir/__/__/__/mesh/access/src/access_publish.c.obj
 .ARM.attributes
                0x00000eef       0x39 examples/light_switch/provisioner/CMakeFiles/light_switch_provisioner_nrf52840_xxAA_s140_6.0.0.dir/__/__/__/mesh/access/src/access.c.obj
 .ARM.attributes
                0x00000f28       0x39 examples/light_switch/provisioner/CMakeFiles/light_switch_provisioner_nrf52840_xxAA_s140_6.0.0.dir/__/__/__/mesh/access/src/access_reliable.c.obj
 .ARM.attributes
                0x00000f61       0x39 examples/light_switch/provisioner/CMakeFiles/light_switch_provisioner_nrf52840_xxAA_s140_6.0.0.dir/__/__/__/mesh/access/src/device_state_manager.c.obj
 .ARM.attributes
                0x00000f9a       0x39 examples/light_switch/provisioner/CMakeFiles/light_switch_provisioner_nrf52840_xxAA_s140_6.0.0.dir/__/__/__/mesh/prov/src/prov_provisioner.c.obj
 .ARM.attributes
                0x00000fd3       0x39 examples/light_switch/provisioner/CMakeFiles/light_switch_provisioner_nrf52840_xxAA_s140_6.0.0.dir/__/__/__/mesh/prov/src/nrf_mesh_prov.c.obj
 .ARM.attributes
                0x0000100c       0x39 examples/light_switch/provisioner/CMakeFiles/light_switch_provisioner_nrf52840_xxAA_s140_6.0.0.dir/__/__/__/mesh/prov/src/provisioning.c.obj
 .ARM.attributes
                0x00001045       0x39 examples/light_switch/provisioner/CMakeFiles/light_switch_provisioner_nrf52840_xxAA_s140_6.0.0.dir/__/__/__/mesh/prov/src/prov_beacon.c.obj
 .ARM.attributes
                0x0000107e       0x39 examples/light_switch/provisioner/CMakeFiles/light_switch_provisioner_nrf52840_xxAA_s140_6.0.0.dir/__/__/__/mesh/prov/src/prov_utils.c.obj
 .ARM.attributes
                0x000010b7       0x39 examples/light_switch/provisioner/CMakeFiles/light_switch_provisioner_nrf52840_xxAA_s140_6.0.0.dir/__/__/__/mesh/prov/src/prov_bearer_adv.c.obj
 .ARM.attributes
                0x000010f0       0x39 examples/light_switch/provisioner/CMakeFiles/light_switch_provisioner_nrf52840_xxAA_s140_6.0.0.dir/C_/ver/mod/nRF5_SDK_15.0.0_a53641a/modules/nrfx/mdk/system_nrf52840.c.obj
 .ARM.attributes
                0x00001129       0x20 examples/light_switch/provisioner/CMakeFiles/light_switch_provisioner_nrf52840_xxAA_s140_6.0.0.dir/C_/ver/mod/nRF5_SDK_15.0.0_a53641a/modules/nrfx/mdk/gcc_startup_nrf52840.S.obj
 .ARM.attributes
                0x00001149       0x39 examples/light_switch/provisioner/CMakeFiles/light_switch_provisioner_nrf52840_xxAA_s140_6.0.0.dir/C_/ver/mod/nRF5_SDK_15.0.0_a53641a/components/libraries/util/app_error_handler_gcc.c.obj
 .ARM.attributes
                0x00001182       0x39 external/rtt/librtt_nrf52840_xxAA.a(SEGGER_RTT.c.obj)
 .ARM.attributes
                0x000011bb       0x39 external/rtt/librtt_nrf52840_xxAA.a(SEGGER_RTT_printf.c.obj)
 .ARM.attributes
                0x000011f4       0x39 external/micro-ecc/libuECC_nrf52840_xxAA.a(uECC.c.obj)
 .ARM.attributes
                0x0000122d       0x22 c:/mesh/arm_gcc/bin/../lib/gcc/arm-none-eabi/6.3.1/thumb/v7e-m/fpv4-sp/hard\libgcc.a(_aeabi_uldivmod.o)
 .ARM.attributes
                0x0000124f       0x34 c:/mesh/arm_gcc/bin/../lib/gcc/arm-none-eabi/6.3.1/thumb/v7e-m/fpv4-sp/hard\libgcc.a(_udivmoddi4.o)
 .ARM.attributes
                0x00001283       0x22 c:/mesh/arm_gcc/bin/../lib/gcc/arm-none-eabi/6.3.1/thumb/v7e-m/fpv4-sp/hard\libgcc.a(_dvmd_tls.o)
 .ARM.attributes
                0x000012a5       0x34 c:/mesh/arm_gcc/bin/../lib/gcc/arm-none-eabi/6.3.1/../../../../arm-none-eabi/lib/thumb/v7e-m/fpv4-sp/hard\libg_nano.a(lib_a-exit.o)
 .ARM.attributes
                0x000012d9       0x34 c:/mesh/arm_gcc/bin/../lib/gcc/arm-none-eabi/6.3.1/../../../../arm-none-eabi/lib/thumb/v7e-m/fpv4-sp/hard\libg_nano.a(lib_a-impure.o)
 .ARM.attributes
                0x0000130d       0x34 c:/mesh/arm_gcc/bin/../lib/gcc/arm-none-eabi/6.3.1/../../../../arm-none-eabi/lib/thumb/v7e-m/fpv4-sp/hard\libg_nano.a(lib_a-init.o)
 .ARM.attributes
                0x00001341       0x34 c:/mesh/arm_gcc/bin/../lib/gcc/arm-none-eabi/6.3.1/../../../../arm-none-eabi/lib/thumb/v7e-m/fpv4-sp/hard\libg_nano.a(lib_a-malloc.o)
 .ARM.attributes
                0x00001375       0x34 c:/mesh/arm_gcc/bin/../lib/gcc/arm-none-eabi/6.3.1/../../../../arm-none-eabi/lib/thumb/v7e-m/fpv4-sp/hard\libg_nano.a(lib_a-memcmp.o)
 .ARM.attributes
                0x000013a9       0x34 c:/mesh/arm_gcc/bin/../lib/gcc/arm-none-eabi/6.3.1/../../../../arm-none-eabi/lib/thumb/v7e-m/fpv4-sp/hard\libg_nano.a(lib_a-memcpy-stub.o)
 .ARM.attributes
                0x000013dd       0x34 c:/mesh/arm_gcc/bin/../lib/gcc/arm-none-eabi/6.3.1/../../../../arm-none-eabi/lib/thumb/v7e-m/fpv4-sp/hard\libg_nano.a(lib_a-memset.o)
 .ARM.attributes
                0x00001411       0x34 c:/mesh/arm_gcc/bin/../lib/gcc/arm-none-eabi/6.3.1/../../../../arm-none-eabi/lib/thumb/v7e-m/fpv4-sp/hard\libg_nano.a(lib_a-nano-freer.o)
 .ARM.attributes
                0x00001445       0x34 c:/mesh/arm_gcc/bin/../lib/gcc/arm-none-eabi/6.3.1/../../../../arm-none-eabi/lib/thumb/v7e-m/fpv4-sp/hard\libg_nano.a(lib_a-nano-mallocr.o)
 .ARM.attributes
                0x00001479       0x34 c:/mesh/arm_gcc/bin/../lib/gcc/arm-none-eabi/6.3.1/../../../../arm-none-eabi/lib/thumb/v7e-m/fpv4-sp/hard\libg_nano.a(lib_a-sbrkr.o)
 .ARM.attributes
                0x000014ad       0x34 c:/mesh/arm_gcc/bin/../lib/gcc/arm-none-eabi/6.3.1/../../../../arm-none-eabi/lib/thumb/v7e-m/fpv4-sp/hard\libg_nano.a(lib_a-strcpy.o)
 .ARM.attributes
                0x000014e1       0x1b c:/mesh/arm_gcc/bin/../lib/gcc/arm-none-eabi/6.3.1/../../../../arm-none-eabi/lib/thumb/v7e-m/fpv4-sp/hard\libg_nano.a(lib_a-strlen.o)
 .ARM.attributes
                0x000014fc       0x34 c:/mesh/arm_gcc/bin/../lib/gcc/arm-none-eabi/6.3.1/../../../../arm-none-eabi/lib/thumb/v7e-m/fpv4-sp/hard\libg_nano.a(lib_a-strrchr.o)
 .ARM.attributes
                0x00001530       0x34 c:/mesh/arm_gcc/bin/../lib/gcc/arm-none-eabi/6.3.1/../../../../arm-none-eabi/lib/thumb/v7e-m/fpv4-sp/hard\libg_nano.a(lib_a-mlock.o)
 .ARM.attributes
                0x00001564       0x34 c:/mesh/arm_gcc/bin/../lib/gcc/arm-none-eabi/6.3.1/../../../../arm-none-eabi/lib/thumb/v7e-m/fpv4-sp/hard\libg_nano.a(lib_a-reent.o)
 .ARM.attributes
                0x00001598       0x34 c:/mesh/arm_gcc/bin/../lib/gcc/arm-none-eabi/6.3.1/../../../../arm-none-eabi/lib/thumb/v7e-m/fpv4-sp/hard\libg_nano.a(lib_a-strchr.o)
 .ARM.attributes
                0x000015cc       0x34 c:/mesh/arm_gcc/bin/../lib/gcc/arm-none-eabi/6.3.1/thumb/v7e-m/fpv4-sp/hard/crtend.o
 .ARM.attributes
                0x00001600       0x22 c:/mesh/arm_gcc/bin/../lib/gcc/arm-none-eabi/6.3.1/thumb/v7e-m/fpv4-sp/hard/crtn.o
 .ARM.attributes
                0x00001622       0x34 c:/mesh/arm_gcc/bin/../lib/gcc/arm-none-eabi/6.3.1/../../../../arm-none-eabi/lib/thumb/v7e-m/fpv4-sp/hard\libnosys.a(sbrk.o)
 .ARM.attributes
                0x00001656       0x34 c:/mesh/arm_gcc/bin/../lib/gcc/arm-none-eabi/6.3.1/../../../../arm-none-eabi/lib/thumb/v7e-m/fpv4-sp/hard\libnosys.a(_exit.o)

.comment        0x00000000       0x7f
 .comment       0x00000000       0x7f examples/light_switch/provisioner/CMakeFiles/light_switch_provisioner_nrf52840_xxAA_s140_6.0.0.dir/src/main.c.obj
                                 0x80 (size before relaxing)
 .comment       0x0000007f       0x80 examples/light_switch/provisioner/CMakeFiles/light_switch_provisioner_nrf52840_xxAA_s140_6.0.0.dir/__/__/__/mesh/stack/src/mesh_stack.c.obj
 .comment       0x0000007f       0x80 examples/light_switch/provisioner/CMakeFiles/light_switch_provisioner_nrf52840_xxAA_s140_6.0.0.dir/src/provisioner_helper.c.obj
 .comment       0x0000007f       0x80 examples/light_switch/provisioner/CMakeFiles/light_switch_provisioner_nrf52840_xxAA_s140_6.0.0.dir/src/node_setup.c.obj
 .comment       0x0000007f       0x80 examples/light_switch/provisioner/CMakeFiles/light_switch_provisioner_nrf52840_xxAA_s140_6.0.0.dir/__/__/common/src/mesh_softdevice_init.c.obj
 .comment       0x0000007f       0x80 examples/light_switch/provisioner/CMakeFiles/light_switch_provisioner_nrf52840_xxAA_s140_6.0.0.dir/__/__/common/src/rtt_input.c.obj
 .comment       0x0000007f       0x80 examples/light_switch/provisioner/CMakeFiles/light_switch_provisioner_nrf52840_xxAA_s140_6.0.0.dir/__/__/common/src/simple_hal.c.obj
 .comment       0x0000007f       0x80 examples/light_switch/provisioner/CMakeFiles/light_switch_provisioner_nrf52840_xxAA_s140_6.0.0.dir/__/__/nrf_mesh_weak.c.obj
 .comment       0x0000007f       0x80 examples/light_switch/provisioner/CMakeFiles/light_switch_provisioner_nrf52840_xxAA_s140_6.0.0.dir/__/__/common/src/app_error_weak.c.obj
 .comment       0x0000007f       0x80 examples/light_switch/provisioner/CMakeFiles/light_switch_provisioner_nrf52840_xxAA_s140_6.0.0.dir/__/__/common/src/assertion_handler_weak.c.obj
 .comment       0x0000007f       0x80 examples/light_switch/provisioner/CMakeFiles/light_switch_provisioner_nrf52840_xxAA_s140_6.0.0.dir/__/__/__/mesh/core/src/nrf_mesh_configure.c.obj
 .comment       0x0000007f       0x80 examples/light_switch/provisioner/CMakeFiles/light_switch_provisioner_nrf52840_xxAA_s140_6.0.0.dir/__/__/__/mesh/core/src/aes.c.obj
 .comment       0x0000007f       0x80 examples/light_switch/provisioner/CMakeFiles/light_switch_provisioner_nrf52840_xxAA_s140_6.0.0.dir/__/__/__/mesh/core/src/msg_cache.c.obj
 .comment       0x0000007f       0x80 examples/light_switch/provisioner/CMakeFiles/light_switch_provisioner_nrf52840_xxAA_s140_6.0.0.dir/__/__/__/mesh/core/src/transport.c.obj
 .comment       0x0000007f       0x80 examples/light_switch/provisioner/CMakeFiles/light_switch_provisioner_nrf52840_xxAA_s140_6.0.0.dir/__/__/__/mesh/core/src/event.c.obj
 .comment       0x0000007f       0x80 examples/light_switch/provisioner/CMakeFiles/light_switch_provisioner_nrf52840_xxAA_s140_6.0.0.dir/__/__/__/mesh/core/src/packet_buffer.c.obj
 .comment       0x0000007f       0x80 examples/light_switch/provisioner/CMakeFiles/light_switch_provisioner_nrf52840_xxAA_s140_6.0.0.dir/__/__/__/mesh/core/src/flash_manager_defrag.c.obj
 .comment       0x0000007f       0x80 examples/light_switch/provisioner/CMakeFiles/light_switch_provisioner_nrf52840_xxAA_s140_6.0.0.dir/__/__/__/mesh/core/src/fifo.c.obj
 .comment       0x0000007f       0x80 examples/light_switch/provisioner/CMakeFiles/light_switch_provisioner_nrf52840_xxAA_s140_6.0.0.dir/__/__/__/mesh/core/src/nrf_flash.c.obj
 .comment       0x0000007f       0x80 examples/light_switch/provisioner/CMakeFiles/light_switch_provisioner_nrf52840_xxAA_s140_6.0.0.dir/__/__/__/mesh/core/src/packet_mgr.c.obj
 .comment       0x0000007f       0x80 examples/light_switch/provisioner/CMakeFiles/light_switch_provisioner_nrf52840_xxAA_s140_6.0.0.dir/__/__/__/mesh/core/src/net_state.c.obj
 .comment       0x0000007f       0x80 examples/light_switch/provisioner/CMakeFiles/light_switch_provisioner_nrf52840_xxAA_s140_6.0.0.dir/__/__/__/mesh/core/src/mesh_flash.c.obj
 .comment       0x0000007f       0x80 examples/light_switch/provisioner/CMakeFiles/light_switch_provisioner_nrf52840_xxAA_s140_6.0.0.dir/__/__/__/mesh/core/src/nrf_mesh_utils.c.obj
 .comment       0x0000007f       0x80 examples/light_switch/provisioner/CMakeFiles/light_switch_provisioner_nrf52840_xxAA_s140_6.0.0.dir/__/__/__/mesh/core/src/nrf_mesh.c.obj
 .comment       0x0000007f       0x80 examples/light_switch/provisioner/CMakeFiles/light_switch_provisioner_nrf52840_xxAA_s140_6.0.0.dir/__/__/__/mesh/core/src/queue.c.obj
 .comment       0x0000007f       0x80 examples/light_switch/provisioner/CMakeFiles/light_switch_provisioner_nrf52840_xxAA_s140_6.0.0.dir/__/__/__/mesh/core/src/hal.c.obj
 .comment       0x0000007f       0x80 examples/light_switch/provisioner/CMakeFiles/light_switch_provisioner_nrf52840_xxAA_s140_6.0.0.dir/__/__/__/mesh/core/src/aes_cmac.c.obj
 .comment       0x0000007f       0x80 examples/light_switch/provisioner/CMakeFiles/light_switch_provisioner_nrf52840_xxAA_s140_6.0.0.dir/__/__/__/mesh/core/src/timer_scheduler.c.obj
 .comment       0x0000007f       0x80 examples/light_switch/provisioner/CMakeFiles/light_switch_provisioner_nrf52840_xxAA_s140_6.0.0.dir/__/__/__/mesh/core/src/timer.c.obj
 .comment       0x0000007f       0x80 examples/light_switch/provisioner/CMakeFiles/light_switch_provisioner_nrf52840_xxAA_s140_6.0.0.dir/__/__/__/mesh/core/src/ticker.c.obj
 .comment       0x0000007f       0x80 examples/light_switch/provisioner/CMakeFiles/light_switch_provisioner_nrf52840_xxAA_s140_6.0.0.dir/__/__/__/mesh/core/src/rand.c.obj
 .comment       0x0000007f       0x80 examples/light_switch/provisioner/CMakeFiles/light_switch_provisioner_nrf52840_xxAA_s140_6.0.0.dir/__/__/__/mesh/core/src/nrf_mesh_opt.c.obj
 .comment       0x0000007f       0x80 examples/light_switch/provisioner/CMakeFiles/light_switch_provisioner_nrf52840_xxAA_s140_6.0.0.dir/__/__/__/mesh/core/src/timeslot.c.obj
 .comment       0x0000007f       0x80 examples/light_switch/provisioner/CMakeFiles/light_switch_provisioner_nrf52840_xxAA_s140_6.0.0.dir/__/__/__/mesh/core/src/bearer_event.c.obj
 .comment       0x0000007f       0x80 examples/light_switch/provisioner/CMakeFiles/light_switch_provisioner_nrf52840_xxAA_s140_6.0.0.dir/__/__/__/mesh/core/src/enc.c.obj
 .comment       0x0000007f       0x80 examples/light_switch/provisioner/CMakeFiles/light_switch_provisioner_nrf52840_xxAA_s140_6.0.0.dir/__/__/__/mesh/core/src/network.c.obj
 .comment       0x0000007f       0x80 examples/light_switch/provisioner/CMakeFiles/light_switch_provisioner_nrf52840_xxAA_s140_6.0.0.dir/__/__/__/mesh/core/src/net_packet.c.obj
 .comment       0x0000007f       0x80 examples/light_switch/provisioner/CMakeFiles/light_switch_provisioner_nrf52840_xxAA_s140_6.0.0.dir/__/__/__/mesh/core/src/msqueue.c.obj
 .comment       0x0000007f       0x80 examples/light_switch/provisioner/CMakeFiles/light_switch_provisioner_nrf52840_xxAA_s140_6.0.0.dir/__/__/__/mesh/core/src/nrf_mesh_keygen.c.obj
 .comment       0x0000007f       0x80 examples/light_switch/provisioner/CMakeFiles/light_switch_provisioner_nrf52840_xxAA_s140_6.0.0.dir/__/__/__/mesh/core/src/list.c.obj
 .comment       0x0000007f       0x80 examples/light_switch/provisioner/CMakeFiles/light_switch_provisioner_nrf52840_xxAA_s140_6.0.0.dir/__/__/__/mesh/core/src/log.c.obj
 .comment       0x0000007f       0x80 examples/light_switch/provisioner/CMakeFiles/light_switch_provisioner_nrf52840_xxAA_s140_6.0.0.dir/__/__/__/mesh/core/src/flash_manager.c.obj
 .comment       0x0000007f       0x80 examples/light_switch/provisioner/CMakeFiles/light_switch_provisioner_nrf52840_xxAA_s140_6.0.0.dir/__/__/__/mesh/core/src/ccm_soft.c.obj
 .comment       0x0000007f       0x80 examples/light_switch/provisioner/CMakeFiles/light_switch_provisioner_nrf52840_xxAA_s140_6.0.0.dir/__/__/__/mesh/core/src/replay_cache.c.obj
 .comment       0x0000007f       0x80 examples/light_switch/provisioner/CMakeFiles/light_switch_provisioner_nrf52840_xxAA_s140_6.0.0.dir/__/__/__/mesh/core/src/beacon.c.obj
 .comment       0x0000007f       0x80 examples/light_switch/provisioner/CMakeFiles/light_switch_provisioner_nrf52840_xxAA_s140_6.0.0.dir/__/__/__/mesh/core/src/flash_manager_internal.c.obj
 .comment       0x0000007f       0x80 examples/light_switch/provisioner/CMakeFiles/light_switch_provisioner_nrf52840_xxAA_s140_6.0.0.dir/__/__/__/mesh/core/src/core_tx.c.obj
 .comment       0x0000007f       0x80 examples/light_switch/provisioner/CMakeFiles/light_switch_provisioner_nrf52840_xxAA_s140_6.0.0.dir/__/__/__/mesh/core/src/heartbeat.c.obj
 .comment       0x0000007f       0x80 examples/light_switch/provisioner/CMakeFiles/light_switch_provisioner_nrf52840_xxAA_s140_6.0.0.dir/__/__/__/mesh/core/src/net_beacon.c.obj
 .comment       0x0000007f       0x80 examples/light_switch/provisioner/CMakeFiles/light_switch_provisioner_nrf52840_xxAA_s140_6.0.0.dir/__/__/__/mesh/core/src/core_tx_adv.c.obj
 .comment       0x0000007f       0x80 examples/light_switch/provisioner/CMakeFiles/light_switch_provisioner_nrf52840_xxAA_s140_6.0.0.dir/__/__/__/mesh/bearer/src/ad_listener.c.obj
 .comment       0x0000007f       0x80 examples/light_switch/provisioner/CMakeFiles/light_switch_provisioner_nrf52840_xxAA_s140_6.0.0.dir/__/__/__/mesh/bearer/src/ad_type_filter.c.obj
 .comment       0x0000007f       0x80 examples/light_switch/provisioner/CMakeFiles/light_switch_provisioner_nrf52840_xxAA_s140_6.0.0.dir/__/__/__/mesh/bearer/src/advertiser.c.obj
 .comment       0x0000007f       0x80 examples/light_switch/provisioner/CMakeFiles/light_switch_provisioner_nrf52840_xxAA_s140_6.0.0.dir/__/__/__/mesh/bearer/src/bearer_handler.c.obj
 .comment       0x0000007f       0x80 examples/light_switch/provisioner/CMakeFiles/light_switch_provisioner_nrf52840_xxAA_s140_6.0.0.dir/__/__/__/mesh/bearer/src/broadcast.c.obj
 .comment       0x0000007f       0x80 examples/light_switch/provisioner/CMakeFiles/light_switch_provisioner_nrf52840_xxAA_s140_6.0.0.dir/__/__/__/mesh/bearer/src/filter_engine.c.obj
 .comment       0x0000007f       0x80 examples/light_switch/provisioner/CMakeFiles/light_switch_provisioner_nrf52840_xxAA_s140_6.0.0.dir/__/__/__/mesh/bearer/src/radio_config.c.obj
 .comment       0x0000007f       0x80 examples/light_switch/provisioner/CMakeFiles/light_switch_provisioner_nrf52840_xxAA_s140_6.0.0.dir/__/__/__/mesh/bearer/src/scanner.c.obj
 .comment       0x0000007f       0x80 examples/light_switch/provisioner/CMakeFiles/light_switch_provisioner_nrf52840_xxAA_s140_6.0.0.dir/__/__/__/models/config/src/config_client.c.obj
 .comment       0x0000007f       0x80 examples/light_switch/provisioner/CMakeFiles/light_switch_provisioner_nrf52840_xxAA_s140_6.0.0.dir/__/__/__/models/config/src/composition_data.c.obj
 .comment       0x0000007f       0x80 examples/light_switch/provisioner/CMakeFiles/light_switch_provisioner_nrf52840_xxAA_s140_6.0.0.dir/__/__/__/models/config/src/config_server.c.obj
 .comment       0x0000007f       0x80 examples/light_switch/provisioner/CMakeFiles/light_switch_provisioner_nrf52840_xxAA_s140_6.0.0.dir/__/__/__/models/config/src/packed_index_list.c.obj
 .comment       0x0000007f       0x80 examples/light_switch/provisioner/CMakeFiles/light_switch_provisioner_nrf52840_xxAA_s140_6.0.0.dir/__/__/__/models/health/src/health_server.c.obj
 .comment       0x0000007f       0x80 examples/light_switch/provisioner/CMakeFiles/light_switch_provisioner_nrf52840_xxAA_s140_6.0.0.dir/__/__/__/models/health/src/health_client.c.obj
 .comment       0x0000007f       0x80 examples/light_switch/provisioner/CMakeFiles/light_switch_provisioner_nrf52840_xxAA_s140_6.0.0.dir/__/__/__/mesh/access/src/access_publish.c.obj
 .comment       0x0000007f       0x80 examples/light_switch/provisioner/CMakeFiles/light_switch_provisioner_nrf52840_xxAA_s140_6.0.0.dir/__/__/__/mesh/access/src/access.c.obj
 .comment       0x0000007f       0x80 examples/light_switch/provisioner/CMakeFiles/light_switch_provisioner_nrf52840_xxAA_s140_6.0.0.dir/__/__/__/mesh/access/src/access_reliable.c.obj
 .comment       0x0000007f       0x80 examples/light_switch/provisioner/CMakeFiles/light_switch_provisioner_nrf52840_xxAA_s140_6.0.0.dir/__/__/__/mesh/access/src/device_state_manager.c.obj
 .comment       0x0000007f       0x80 examples/light_switch/provisioner/CMakeFiles/light_switch_provisioner_nrf52840_xxAA_s140_6.0.0.dir/__/__/__/mesh/prov/src/prov_provisioner.c.obj
 .comment       0x0000007f       0x80 examples/light_switch/provisioner/CMakeFiles/light_switch_provisioner_nrf52840_xxAA_s140_6.0.0.dir/__/__/__/mesh/prov/src/nrf_mesh_prov.c.obj
 .comment       0x0000007f       0x80 examples/light_switch/provisioner/CMakeFiles/light_switch_provisioner_nrf52840_xxAA_s140_6.0.0.dir/__/__/__/mesh/prov/src/provisioning.c.obj
 .comment       0x0000007f       0x80 examples/light_switch/provisioner/CMakeFiles/light_switch_provisioner_nrf52840_xxAA_s140_6.0.0.dir/__/__/__/mesh/prov/src/prov_beacon.c.obj
 .comment       0x0000007f       0x80 examples/light_switch/provisioner/CMakeFiles/light_switch_provisioner_nrf52840_xxAA_s140_6.0.0.dir/__/__/__/mesh/prov/src/prov_utils.c.obj
 .comment       0x0000007f       0x80 examples/light_switch/provisioner/CMakeFiles/light_switch_provisioner_nrf52840_xxAA_s140_6.0.0.dir/__/__/__/mesh/prov/src/prov_bearer_adv.c.obj
 .comment       0x0000007f       0x80 examples/light_switch/provisioner/CMakeFiles/light_switch_provisioner_nrf52840_xxAA_s140_6.0.0.dir/C_/ver/mod/nRF5_SDK_15.0.0_a53641a/modules/nrfx/mdk/system_nrf52840.c.obj
 .comment       0x0000007f       0x80 examples/light_switch/provisioner/CMakeFiles/light_switch_provisioner_nrf52840_xxAA_s140_6.0.0.dir/C_/ver/mod/nRF5_SDK_15.0.0_a53641a/components/libraries/util/app_error_handler_gcc.c.obj
 .comment       0x0000007f       0x80 external/rtt/librtt_nrf52840_xxAA.a(SEGGER_RTT.c.obj)
 .comment       0x0000007f       0x80 external/rtt/librtt_nrf52840_xxAA.a(SEGGER_RTT_printf.c.obj)
 .comment       0x0000007f       0x80 external/micro-ecc/libuECC_nrf52840_xxAA.a(uECC.c.obj)

.debug_info     0x00000000    0x89cda
 .debug_info    0x00000000     0x5a0e examples/light_switch/provisioner/CMakeFiles/light_switch_provisioner_nrf52840_xxAA_s140_6.0.0.dir/src/main.c.obj
 .debug_info    0x00005a0e     0x230b examples/light_switch/provisioner/CMakeFiles/light_switch_provisioner_nrf52840_xxAA_s140_6.0.0.dir/__/__/__/mesh/stack/src/mesh_stack.c.obj
 .debug_info    0x00007d19     0x3957 examples/light_switch/provisioner/CMakeFiles/light_switch_provisioner_nrf52840_xxAA_s140_6.0.0.dir/src/provisioner_helper.c.obj
 .debug_info    0x0000b670     0x3222 examples/light_switch/provisioner/CMakeFiles/light_switch_provisioner_nrf52840_xxAA_s140_6.0.0.dir/src/node_setup.c.obj
 .debug_info    0x0000e892     0x1756 examples/light_switch/provisioner/CMakeFiles/light_switch_provisioner_nrf52840_xxAA_s140_6.0.0.dir/__/__/common/src/mesh_softdevice_init.c.obj
 .debug_info    0x0000ffe8     0x1193 examples/light_switch/provisioner/CMakeFiles/light_switch_provisioner_nrf52840_xxAA_s140_6.0.0.dir/__/__/common/src/rtt_input.c.obj
 .debug_info    0x0001117b     0x1590 examples/light_switch/provisioner/CMakeFiles/light_switch_provisioner_nrf52840_xxAA_s140_6.0.0.dir/__/__/common/src/simple_hal.c.obj
 .debug_info    0x0001270b      0x924 examples/light_switch/provisioner/CMakeFiles/light_switch_provisioner_nrf52840_xxAA_s140_6.0.0.dir/__/__/nrf_mesh_weak.c.obj
 .debug_info    0x0001302f     0x106b examples/light_switch/provisioner/CMakeFiles/light_switch_provisioner_nrf52840_xxAA_s140_6.0.0.dir/__/__/common/src/app_error_weak.c.obj
 .debug_info    0x0001409a      0x99b examples/light_switch/provisioner/CMakeFiles/light_switch_provisioner_nrf52840_xxAA_s140_6.0.0.dir/__/__/common/src/assertion_handler_weak.c.obj
 .debug_info    0x00014a35      0xdff examples/light_switch/provisioner/CMakeFiles/light_switch_provisioner_nrf52840_xxAA_s140_6.0.0.dir/__/__/__/mesh/core/src/nrf_mesh_configure.c.obj
 .debug_info    0x00015834      0xbf0 examples/light_switch/provisioner/CMakeFiles/light_switch_provisioner_nrf52840_xxAA_s140_6.0.0.dir/__/__/__/mesh/core/src/aes.c.obj
 .debug_info    0x00016424      0xa5a examples/light_switch/provisioner/CMakeFiles/light_switch_provisioner_nrf52840_xxAA_s140_6.0.0.dir/__/__/__/mesh/core/src/msg_cache.c.obj
 .debug_info    0x00016e7e     0x5086 examples/light_switch/provisioner/CMakeFiles/light_switch_provisioner_nrf52840_xxAA_s140_6.0.0.dir/__/__/__/mesh/core/src/transport.c.obj
 .debug_info    0x0001bf04     0x171f examples/light_switch/provisioner/CMakeFiles/light_switch_provisioner_nrf52840_xxAA_s140_6.0.0.dir/__/__/__/mesh/core/src/event.c.obj
 .debug_info    0x0001d623     0x1a22 examples/light_switch/provisioner/CMakeFiles/light_switch_provisioner_nrf52840_xxAA_s140_6.0.0.dir/__/__/__/mesh/core/src/packet_buffer.c.obj
 .debug_info    0x0001f045     0x212b examples/light_switch/provisioner/CMakeFiles/light_switch_provisioner_nrf52840_xxAA_s140_6.0.0.dir/__/__/__/mesh/core/src/flash_manager_defrag.c.obj
 .debug_info    0x00021170      0xd19 examples/light_switch/provisioner/CMakeFiles/light_switch_provisioner_nrf52840_xxAA_s140_6.0.0.dir/__/__/__/mesh/core/src/fifo.c.obj
 .debug_info    0x00021e89      0xb58 examples/light_switch/provisioner/CMakeFiles/light_switch_provisioner_nrf52840_xxAA_s140_6.0.0.dir/__/__/__/mesh/core/src/nrf_flash.c.obj
 .debug_info    0x000229e1     0x118d examples/light_switch/provisioner/CMakeFiles/light_switch_provisioner_nrf52840_xxAA_s140_6.0.0.dir/__/__/__/mesh/core/src/packet_mgr.c.obj
 .debug_info    0x00023b6e     0x27ed examples/light_switch/provisioner/CMakeFiles/light_switch_provisioner_nrf52840_xxAA_s140_6.0.0.dir/__/__/__/mesh/core/src/net_state.c.obj
 .debug_info    0x0002635b     0x1931 examples/light_switch/provisioner/CMakeFiles/light_switch_provisioner_nrf52840_xxAA_s140_6.0.0.dir/__/__/__/mesh/core/src/mesh_flash.c.obj
 .debug_info    0x00027c8c      0xa78 examples/light_switch/provisioner/CMakeFiles/light_switch_provisioner_nrf52840_xxAA_s140_6.0.0.dir/__/__/__/mesh/core/src/nrf_mesh_utils.c.obj
 .debug_info    0x00028704     0x25a6 examples/light_switch/provisioner/CMakeFiles/light_switch_provisioner_nrf52840_xxAA_s140_6.0.0.dir/__/__/__/mesh/core/src/nrf_mesh.c.obj
 .debug_info    0x0002acaa      0xb11 examples/light_switch/provisioner/CMakeFiles/light_switch_provisioner_nrf52840_xxAA_s140_6.0.0.dir/__/__/__/mesh/core/src/queue.c.obj
 .debug_info    0x0002b7bb      0x51a examples/light_switch/provisioner/CMakeFiles/light_switch_provisioner_nrf52840_xxAA_s140_6.0.0.dir/__/__/__/mesh/core/src/hal.c.obj
 .debug_info    0x0002bcd5      0xe48 examples/light_switch/provisioner/CMakeFiles/light_switch_provisioner_nrf52840_xxAA_s140_6.0.0.dir/__/__/__/mesh/core/src/aes_cmac.c.obj
 .debug_info    0x0002cb1d     0x10e0 examples/light_switch/provisioner/CMakeFiles/light_switch_provisioner_nrf52840_xxAA_s140_6.0.0.dir/__/__/__/mesh/core/src/timer_scheduler.c.obj
 .debug_info    0x0002dbfd      0xdb4 examples/light_switch/provisioner/CMakeFiles/light_switch_provisioner_nrf52840_xxAA_s140_6.0.0.dir/__/__/__/mesh/core/src/timer.c.obj
 .debug_info    0x0002e9b1      0x20b examples/light_switch/provisioner/CMakeFiles/light_switch_provisioner_nrf52840_xxAA_s140_6.0.0.dir/__/__/__/mesh/core/src/ticker.c.obj
 .debug_info    0x0002ebbc      0x426 examples/light_switch/provisioner/CMakeFiles/light_switch_provisioner_nrf52840_xxAA_s140_6.0.0.dir/__/__/__/mesh/core/src/rand.c.obj
 .debug_info    0x0002efe2      0xaf5 examples/light_switch/provisioner/CMakeFiles/light_switch_provisioner_nrf52840_xxAA_s140_6.0.0.dir/__/__/__/mesh/core/src/nrf_mesh_opt.c.obj
 .debug_info    0x0002fad7     0x1a71 examples/light_switch/provisioner/CMakeFiles/light_switch_provisioner_nrf52840_xxAA_s140_6.0.0.dir/__/__/__/mesh/core/src/timeslot.c.obj
 .debug_info    0x00031548     0x1a9c examples/light_switch/provisioner/CMakeFiles/light_switch_provisioner_nrf52840_xxAA_s140_6.0.0.dir/__/__/__/mesh/core/src/bearer_event.c.obj
 .debug_info    0x00032fe4     0x1703 examples/light_switch/provisioner/CMakeFiles/light_switch_provisioner_nrf52840_xxAA_s140_6.0.0.dir/__/__/__/mesh/core/src/enc.c.obj
 .debug_info    0x000346e7     0x1acb examples/light_switch/provisioner/CMakeFiles/light_switch_provisioner_nrf52840_xxAA_s140_6.0.0.dir/__/__/__/mesh/core/src/network.c.obj
 .debug_info    0x000361b2     0x1cad examples/light_switch/provisioner/CMakeFiles/light_switch_provisioner_nrf52840_xxAA_s140_6.0.0.dir/__/__/__/mesh/core/src/net_packet.c.obj
 .debug_info    0x00037e5f      0xd86 examples/light_switch/provisioner/CMakeFiles/light_switch_provisioner_nrf52840_xxAA_s140_6.0.0.dir/__/__/__/mesh/core/src/msqueue.c.obj
 .debug_info    0x00038be5      0x4c7 examples/light_switch/provisioner/CMakeFiles/light_switch_provisioner_nrf52840_xxAA_s140_6.0.0.dir/__/__/__/mesh/core/src/nrf_mesh_keygen.c.obj
 .debug_info    0x000390ac      0x506 examples/light_switch/provisioner/CMakeFiles/light_switch_provisioner_nrf52840_xxAA_s140_6.0.0.dir/__/__/__/mesh/core/src/list.c.obj
 .debug_info    0x000395b2      0xe28 examples/light_switch/provisioner/CMakeFiles/light_switch_provisioner_nrf52840_xxAA_s140_6.0.0.dir/__/__/__/mesh/core/src/log.c.obj
 .debug_info    0x0003a3da     0x3024 examples/light_switch/provisioner/CMakeFiles/light_switch_provisioner_nrf52840_xxAA_s140_6.0.0.dir/__/__/__/mesh/core/src/flash_manager.c.obj
 .debug_info    0x0003d3fe     0x10a3 examples/light_switch/provisioner/CMakeFiles/light_switch_provisioner_nrf52840_xxAA_s140_6.0.0.dir/__/__/__/mesh/core/src/ccm_soft.c.obj
 .debug_info    0x0003e4a1      0xa95 examples/light_switch/provisioner/CMakeFiles/light_switch_provisioner_nrf52840_xxAA_s140_6.0.0.dir/__/__/__/mesh/core/src/replay_cache.c.obj
 .debug_info    0x0003ef36     0x177f examples/light_switch/provisioner/CMakeFiles/light_switch_provisioner_nrf52840_xxAA_s140_6.0.0.dir/__/__/__/mesh/core/src/beacon.c.obj
 .debug_info    0x000406b5      0xb9b examples/light_switch/provisioner/CMakeFiles/light_switch_provisioner_nrf52840_xxAA_s140_6.0.0.dir/__/__/__/mesh/core/src/flash_manager_internal.c.obj
 .debug_info    0x00041250     0x126f examples/light_switch/provisioner/CMakeFiles/light_switch_provisioner_nrf52840_xxAA_s140_6.0.0.dir/__/__/__/mesh/core/src/core_tx.c.obj
 .debug_info    0x000424bf     0x24d8 examples/light_switch/provisioner/CMakeFiles/light_switch_provisioner_nrf52840_xxAA_s140_6.0.0.dir/__/__/__/mesh/core/src/heartbeat.c.obj
 .debug_info    0x00044997     0x28ac examples/light_switch/provisioner/CMakeFiles/light_switch_provisioner_nrf52840_xxAA_s140_6.0.0.dir/__/__/__/mesh/core/src/net_beacon.c.obj
 .debug_info    0x00047243     0x197b examples/light_switch/provisioner/CMakeFiles/light_switch_provisioner_nrf52840_xxAA_s140_6.0.0.dir/__/__/__/mesh/core/src/core_tx_adv.c.obj
 .debug_info    0x00048bbe     0x1164 examples/light_switch/provisioner/CMakeFiles/light_switch_provisioner_nrf52840_xxAA_s140_6.0.0.dir/__/__/__/mesh/bearer/src/ad_listener.c.obj
 .debug_info    0x00049d22      0xfbe examples/light_switch/provisioner/CMakeFiles/light_switch_provisioner_nrf52840_xxAA_s140_6.0.0.dir/__/__/__/mesh/bearer/src/ad_type_filter.c.obj
 .debug_info    0x0004ace0     0x267f examples/light_switch/provisioner/CMakeFiles/light_switch_provisioner_nrf52840_xxAA_s140_6.0.0.dir/__/__/__/mesh/bearer/src/advertiser.c.obj
 .debug_info    0x0004d35f     0x1b53 examples/light_switch/provisioner/CMakeFiles/light_switch_provisioner_nrf52840_xxAA_s140_6.0.0.dir/__/__/__/mesh/bearer/src/bearer_handler.c.obj
 .debug_info    0x0004eeb2     0x1af7 examples/light_switch/provisioner/CMakeFiles/light_switch_provisioner_nrf52840_xxAA_s140_6.0.0.dir/__/__/__/mesh/bearer/src/broadcast.c.obj
 .debug_info    0x000509a9      0xcff examples/light_switch/provisioner/CMakeFiles/light_switch_provisioner_nrf52840_xxAA_s140_6.0.0.dir/__/__/__/mesh/bearer/src/filter_engine.c.obj
 .debug_info    0x000516a8      0xa35 examples/light_switch/provisioner/CMakeFiles/light_switch_provisioner_nrf52840_xxAA_s140_6.0.0.dir/__/__/__/mesh/bearer/src/radio_config.c.obj
 .debug_info    0x000520dd     0x27a3 examples/light_switch/provisioner/CMakeFiles/light_switch_provisioner_nrf52840_xxAA_s140_6.0.0.dir/__/__/__/mesh/bearer/src/scanner.c.obj
 .debug_info    0x00054880     0x44aa examples/light_switch/provisioner/CMakeFiles/light_switch_provisioner_nrf52840_xxAA_s140_6.0.0.dir/__/__/__/models/config/src/config_client.c.obj
 .debug_info    0x00058d2a      0xed3 examples/light_switch/provisioner/CMakeFiles/light_switch_provisioner_nrf52840_xxAA_s140_6.0.0.dir/__/__/__/models/config/src/composition_data.c.obj
 .debug_info    0x00059bfd     0x89ee examples/light_switch/provisioner/CMakeFiles/light_switch_provisioner_nrf52840_xxAA_s140_6.0.0.dir/__/__/__/models/config/src/config_server.c.obj
 .debug_info    0x000625eb      0x126 examples/light_switch/provisioner/CMakeFiles/light_switch_provisioner_nrf52840_xxAA_s140_6.0.0.dir/__/__/__/models/config/src/packed_index_list.c.obj
 .debug_info    0x00062711     0x270a examples/light_switch/provisioner/CMakeFiles/light_switch_provisioner_nrf52840_xxAA_s140_6.0.0.dir/__/__/__/models/health/src/health_server.c.obj
 .debug_info    0x00064e1b     0x1d76 examples/light_switch/provisioner/CMakeFiles/light_switch_provisioner_nrf52840_xxAA_s140_6.0.0.dir/__/__/__/models/health/src/health_client.c.obj
 .debug_info    0x00066b91     0x1155 examples/light_switch/provisioner/CMakeFiles/light_switch_provisioner_nrf52840_xxAA_s140_6.0.0.dir/__/__/__/mesh/access/src/access_publish.c.obj
 .debug_info    0x00067ce6     0x49e7 examples/light_switch/provisioner/CMakeFiles/light_switch_provisioner_nrf52840_xxAA_s140_6.0.0.dir/__/__/__/mesh/access/src/access.c.obj
 .debug_info    0x0006c6cd     0x19db examples/light_switch/provisioner/CMakeFiles/light_switch_provisioner_nrf52840_xxAA_s140_6.0.0.dir/__/__/__/mesh/access/src/access_reliable.c.obj
 .debug_info    0x0006e0a8     0x6557 examples/light_switch/provisioner/CMakeFiles/light_switch_provisioner_nrf52840_xxAA_s140_6.0.0.dir/__/__/__/mesh/access/src/device_state_manager.c.obj
 .debug_info    0x000745ff     0x2438 examples/light_switch/provisioner/CMakeFiles/light_switch_provisioner_nrf52840_xxAA_s140_6.0.0.dir/__/__/__/mesh/prov/src/prov_provisioner.c.obj
 .debug_info    0x00076a37     0x1ed2 examples/light_switch/provisioner/CMakeFiles/light_switch_provisioner_nrf52840_xxAA_s140_6.0.0.dir/__/__/__/mesh/prov/src/nrf_mesh_prov.c.obj
 .debug_info    0x00078909     0x1586 examples/light_switch/provisioner/CMakeFiles/light_switch_provisioner_nrf52840_xxAA_s140_6.0.0.dir/__/__/__/mesh/prov/src/provisioning.c.obj
 .debug_info    0x00079e8f     0x1a48 examples/light_switch/provisioner/CMakeFiles/light_switch_provisioner_nrf52840_xxAA_s140_6.0.0.dir/__/__/__/mesh/prov/src/prov_beacon.c.obj
 .debug_info    0x0007b8d7     0x2054 examples/light_switch/provisioner/CMakeFiles/light_switch_provisioner_nrf52840_xxAA_s140_6.0.0.dir/__/__/__/mesh/prov/src/prov_utils.c.obj
 .debug_info    0x0007d92b     0x3ab2 examples/light_switch/provisioner/CMakeFiles/light_switch_provisioner_nrf52840_xxAA_s140_6.0.0.dir/__/__/__/mesh/prov/src/prov_bearer_adv.c.obj
 .debug_info    0x000813dd     0x139f examples/light_switch/provisioner/CMakeFiles/light_switch_provisioner_nrf52840_xxAA_s140_6.0.0.dir/C_/ver/mod/nRF5_SDK_15.0.0_a53641a/modules/nrfx/mdk/system_nrf52840.c.obj
 .debug_info    0x0008277c      0x974 examples/light_switch/provisioner/CMakeFiles/light_switch_provisioner_nrf52840_xxAA_s140_6.0.0.dir/C_/ver/mod/nRF5_SDK_15.0.0_a53641a/components/libraries/util/app_error_handler_gcc.c.obj
 .debug_info    0x000830f0     0x1818 external/rtt/librtt_nrf52840_xxAA.a(SEGGER_RTT.c.obj)
 .debug_info    0x00084908      0xec1 external/rtt/librtt_nrf52840_xxAA.a(SEGGER_RTT_printf.c.obj)
 .debug_info    0x000857c9     0x4511 external/micro-ecc/libuECC_nrf52840_xxAA.a(uECC.c.obj)

.debug_abbrev   0x00000000    0x1141c
 .debug_abbrev  0x00000000      0x623 examples/light_switch/provisioner/CMakeFiles/light_switch_provisioner_nrf52840_xxAA_s140_6.0.0.dir/src/main.c.obj
 .debug_abbrev  0x00000623      0x36b examples/light_switch/provisioner/CMakeFiles/light_switch_provisioner_nrf52840_xxAA_s140_6.0.0.dir/__/__/__/mesh/stack/src/mesh_stack.c.obj
 .debug_abbrev  0x0000098e      0x43d examples/light_switch/provisioner/CMakeFiles/light_switch_provisioner_nrf52840_xxAA_s140_6.0.0.dir/src/provisioner_helper.c.obj
 .debug_abbrev  0x00000dcb      0x4e3 examples/light_switch/provisioner/CMakeFiles/light_switch_provisioner_nrf52840_xxAA_s140_6.0.0.dir/src/node_setup.c.obj
 .debug_abbrev  0x000012ae      0x40b examples/light_switch/provisioner/CMakeFiles/light_switch_provisioner_nrf52840_xxAA_s140_6.0.0.dir/__/__/common/src/mesh_softdevice_init.c.obj
 .debug_abbrev  0x000016b9      0x2b8 examples/light_switch/provisioner/CMakeFiles/light_switch_provisioner_nrf52840_xxAA_s140_6.0.0.dir/__/__/common/src/rtt_input.c.obj
 .debug_abbrev  0x00001971      0x36b examples/light_switch/provisioner/CMakeFiles/light_switch_provisioner_nrf52840_xxAA_s140_6.0.0.dir/__/__/common/src/simple_hal.c.obj
 .debug_abbrev  0x00001cdc      0x1ae examples/light_switch/provisioner/CMakeFiles/light_switch_provisioner_nrf52840_xxAA_s140_6.0.0.dir/__/__/nrf_mesh_weak.c.obj
 .debug_abbrev  0x00001e8a      0x2de examples/light_switch/provisioner/CMakeFiles/light_switch_provisioner_nrf52840_xxAA_s140_6.0.0.dir/__/__/common/src/app_error_weak.c.obj
 .debug_abbrev  0x00002168      0x1f6 examples/light_switch/provisioner/CMakeFiles/light_switch_provisioner_nrf52840_xxAA_s140_6.0.0.dir/__/__/common/src/assertion_handler_weak.c.obj
 .debug_abbrev  0x0000235e      0x254 examples/light_switch/provisioner/CMakeFiles/light_switch_provisioner_nrf52840_xxAA_s140_6.0.0.dir/__/__/__/mesh/core/src/nrf_mesh_configure.c.obj
 .debug_abbrev  0x000025b2      0x264 examples/light_switch/provisioner/CMakeFiles/light_switch_provisioner_nrf52840_xxAA_s140_6.0.0.dir/__/__/__/mesh/core/src/aes.c.obj
 .debug_abbrev  0x00002816      0x25d examples/light_switch/provisioner/CMakeFiles/light_switch_provisioner_nrf52840_xxAA_s140_6.0.0.dir/__/__/__/mesh/core/src/msg_cache.c.obj
 .debug_abbrev  0x00002a73      0x5e8 examples/light_switch/provisioner/CMakeFiles/light_switch_provisioner_nrf52840_xxAA_s140_6.0.0.dir/__/__/__/mesh/core/src/transport.c.obj
 .debug_abbrev  0x0000305b      0x2be examples/light_switch/provisioner/CMakeFiles/light_switch_provisioner_nrf52840_xxAA_s140_6.0.0.dir/__/__/__/mesh/core/src/event.c.obj
 .debug_abbrev  0x00003319      0x468 examples/light_switch/provisioner/CMakeFiles/light_switch_provisioner_nrf52840_xxAA_s140_6.0.0.dir/__/__/__/mesh/core/src/packet_buffer.c.obj
 .debug_abbrev  0x00003781      0x50e examples/light_switch/provisioner/CMakeFiles/light_switch_provisioner_nrf52840_xxAA_s140_6.0.0.dir/__/__/__/mesh/core/src/flash_manager_defrag.c.obj
 .debug_abbrev  0x00003c8f      0x2f2 examples/light_switch/provisioner/CMakeFiles/light_switch_provisioner_nrf52840_xxAA_s140_6.0.0.dir/__/__/__/mesh/core/src/fifo.c.obj
 .debug_abbrev  0x00003f81      0x21f examples/light_switch/provisioner/CMakeFiles/light_switch_provisioner_nrf52840_xxAA_s140_6.0.0.dir/__/__/__/mesh/core/src/nrf_flash.c.obj
 .debug_abbrev  0x000041a0      0x3b1 examples/light_switch/provisioner/CMakeFiles/light_switch_provisioner_nrf52840_xxAA_s140_6.0.0.dir/__/__/__/mesh/core/src/packet_mgr.c.obj
 .debug_abbrev  0x00004551      0x552 examples/light_switch/provisioner/CMakeFiles/light_switch_provisioner_nrf52840_xxAA_s140_6.0.0.dir/__/__/__/mesh/core/src/net_state.c.obj
 .debug_abbrev  0x00004aa3      0x453 examples/light_switch/provisioner/CMakeFiles/light_switch_provisioner_nrf52840_xxAA_s140_6.0.0.dir/__/__/__/mesh/core/src/mesh_flash.c.obj
 .debug_abbrev  0x00004ef6      0x242 examples/light_switch/provisioner/CMakeFiles/light_switch_provisioner_nrf52840_xxAA_s140_6.0.0.dir/__/__/__/mesh/core/src/nrf_mesh_utils.c.obj
 .debug_abbrev  0x00005138      0x476 examples/light_switch/provisioner/CMakeFiles/light_switch_provisioner_nrf52840_xxAA_s140_6.0.0.dir/__/__/__/mesh/core/src/nrf_mesh.c.obj
 .debug_abbrev  0x000055ae      0x247 examples/light_switch/provisioner/CMakeFiles/light_switch_provisioner_nrf52840_xxAA_s140_6.0.0.dir/__/__/__/mesh/core/src/queue.c.obj
 .debug_abbrev  0x000057f5      0x1cf examples/light_switch/provisioner/CMakeFiles/light_switch_provisioner_nrf52840_xxAA_s140_6.0.0.dir/__/__/__/mesh/core/src/hal.c.obj
 .debug_abbrev  0x000059c4      0x332 examples/light_switch/provisioner/CMakeFiles/light_switch_provisioner_nrf52840_xxAA_s140_6.0.0.dir/__/__/__/mesh/core/src/aes_cmac.c.obj
 .debug_abbrev  0x00005cf6      0x3bc examples/light_switch/provisioner/CMakeFiles/light_switch_provisioner_nrf52840_xxAA_s140_6.0.0.dir/__/__/__/mesh/core/src/timer_scheduler.c.obj
 .debug_abbrev  0x000060b2      0x337 examples/light_switch/provisioner/CMakeFiles/light_switch_provisioner_nrf52840_xxAA_s140_6.0.0.dir/__/__/__/mesh/core/src/timer.c.obj
 .debug_abbrev  0x000063e9      0x152 examples/light_switch/provisioner/CMakeFiles/light_switch_provisioner_nrf52840_xxAA_s140_6.0.0.dir/__/__/__/mesh/core/src/ticker.c.obj
 .debug_abbrev  0x0000653b      0x194 examples/light_switch/provisioner/CMakeFiles/light_switch_provisioner_nrf52840_xxAA_s140_6.0.0.dir/__/__/__/mesh/core/src/rand.c.obj
 .debug_abbrev  0x000066cf      0x24a examples/light_switch/provisioner/CMakeFiles/light_switch_provisioner_nrf52840_xxAA_s140_6.0.0.dir/__/__/__/mesh/core/src/nrf_mesh_opt.c.obj
 .debug_abbrev  0x00006919      0x4a4 examples/light_switch/provisioner/CMakeFiles/light_switch_provisioner_nrf52840_xxAA_s140_6.0.0.dir/__/__/__/mesh/core/src/timeslot.c.obj
 .debug_abbrev  0x00006dbd      0x4b5 examples/light_switch/provisioner/CMakeFiles/light_switch_provisioner_nrf52840_xxAA_s140_6.0.0.dir/__/__/__/mesh/core/src/bearer_event.c.obj
 .debug_abbrev  0x00007272      0x375 examples/light_switch/provisioner/CMakeFiles/light_switch_provisioner_nrf52840_xxAA_s140_6.0.0.dir/__/__/__/mesh/core/src/enc.c.obj
 .debug_abbrev  0x000075e7      0x496 examples/light_switch/provisioner/CMakeFiles/light_switch_provisioner_nrf52840_xxAA_s140_6.0.0.dir/__/__/__/mesh/core/src/network.c.obj
 .debug_abbrev  0x00007a7d      0x4a1 examples/light_switch/provisioner/CMakeFiles/light_switch_provisioner_nrf52840_xxAA_s140_6.0.0.dir/__/__/__/mesh/core/src/net_packet.c.obj
 .debug_abbrev  0x00007f1e      0x2c0 examples/light_switch/provisioner/CMakeFiles/light_switch_provisioner_nrf52840_xxAA_s140_6.0.0.dir/__/__/__/mesh/core/src/msqueue.c.obj
 .debug_abbrev  0x000081de      0x156 examples/light_switch/provisioner/CMakeFiles/light_switch_provisioner_nrf52840_xxAA_s140_6.0.0.dir/__/__/__/mesh/core/src/nrf_mesh_keygen.c.obj
 .debug_abbrev  0x00008334      0x1a4 examples/light_switch/provisioner/CMakeFiles/light_switch_provisioner_nrf52840_xxAA_s140_6.0.0.dir/__/__/__/mesh/core/src/list.c.obj
 .debug_abbrev  0x000084d8      0x24e examples/light_switch/provisioner/CMakeFiles/light_switch_provisioner_nrf52840_xxAA_s140_6.0.0.dir/__/__/__/mesh/core/src/log.c.obj
 .debug_abbrev  0x00008726      0x524 examples/light_switch/provisioner/CMakeFiles/light_switch_provisioner_nrf52840_xxAA_s140_6.0.0.dir/__/__/__/mesh/core/src/flash_manager.c.obj
 .debug_abbrev  0x00008c4a      0x2b3 examples/light_switch/provisioner/CMakeFiles/light_switch_provisioner_nrf52840_xxAA_s140_6.0.0.dir/__/__/__/mesh/core/src/ccm_soft.c.obj
 .debug_abbrev  0x00008efd      0x261 examples/light_switch/provisioner/CMakeFiles/light_switch_provisioner_nrf52840_xxAA_s140_6.0.0.dir/__/__/__/mesh/core/src/replay_cache.c.obj
 .debug_abbrev  0x0000915e      0x2c4 examples/light_switch/provisioner/CMakeFiles/light_switch_provisioner_nrf52840_xxAA_s140_6.0.0.dir/__/__/__/mesh/core/src/beacon.c.obj
 .debug_abbrev  0x00009422      0x288 examples/light_switch/provisioner/CMakeFiles/light_switch_provisioner_nrf52840_xxAA_s140_6.0.0.dir/__/__/__/mesh/core/src/flash_manager_internal.c.obj
 .debug_abbrev  0x000096aa      0x2ed examples/light_switch/provisioner/CMakeFiles/light_switch_provisioner_nrf52840_xxAA_s140_6.0.0.dir/__/__/__/mesh/core/src/core_tx.c.obj
 .debug_abbrev  0x00009997      0x4be examples/light_switch/provisioner/CMakeFiles/light_switch_provisioner_nrf52840_xxAA_s140_6.0.0.dir/__/__/__/mesh/core/src/heartbeat.c.obj
 .debug_abbrev  0x00009e55      0x4ac examples/light_switch/provisioner/CMakeFiles/light_switch_provisioner_nrf52840_xxAA_s140_6.0.0.dir/__/__/__/mesh/core/src/net_beacon.c.obj
 .debug_abbrev  0x0000a301      0x2fa examples/light_switch/provisioner/CMakeFiles/light_switch_provisioner_nrf52840_xxAA_s140_6.0.0.dir/__/__/__/mesh/core/src/core_tx_adv.c.obj
 .debug_abbrev  0x0000a5fb      0x341 examples/light_switch/provisioner/CMakeFiles/light_switch_provisioner_nrf52840_xxAA_s140_6.0.0.dir/__/__/__/mesh/bearer/src/ad_listener.c.obj
 .debug_abbrev  0x0000a93c      0x368 examples/light_switch/provisioner/CMakeFiles/light_switch_provisioner_nrf52840_xxAA_s140_6.0.0.dir/__/__/__/mesh/bearer/src/ad_type_filter.c.obj
 .debug_abbrev  0x0000aca4      0x4ed examples/light_switch/provisioner/CMakeFiles/light_switch_provisioner_nrf52840_xxAA_s140_6.0.0.dir/__/__/__/mesh/bearer/src/advertiser.c.obj
 .debug_abbrev  0x0000b191      0x3e2 examples/light_switch/provisioner/CMakeFiles/light_switch_provisioner_nrf52840_xxAA_s140_6.0.0.dir/__/__/__/mesh/bearer/src/bearer_handler.c.obj
 .debug_abbrev  0x0000b573      0x3c8 examples/light_switch/provisioner/CMakeFiles/light_switch_provisioner_nrf52840_xxAA_s140_6.0.0.dir/__/__/__/mesh/bearer/src/broadcast.c.obj
 .debug_abbrev  0x0000b93b      0x2a6 examples/light_switch/provisioner/CMakeFiles/light_switch_provisioner_nrf52840_xxAA_s140_6.0.0.dir/__/__/__/mesh/bearer/src/filter_engine.c.obj
 .debug_abbrev  0x0000bbe1      0x1d5 examples/light_switch/provisioner/CMakeFiles/light_switch_provisioner_nrf52840_xxAA_s140_6.0.0.dir/__/__/__/mesh/bearer/src/radio_config.c.obj
 .debug_abbrev  0x0000bdb6      0x52a examples/light_switch/provisioner/CMakeFiles/light_switch_provisioner_nrf52840_xxAA_s140_6.0.0.dir/__/__/__/mesh/bearer/src/scanner.c.obj
 .debug_abbrev  0x0000c2e0      0x559 examples/light_switch/provisioner/CMakeFiles/light_switch_provisioner_nrf52840_xxAA_s140_6.0.0.dir/__/__/__/models/config/src/config_client.c.obj
 .debug_abbrev  0x0000c839      0x2db examples/light_switch/provisioner/CMakeFiles/light_switch_provisioner_nrf52840_xxAA_s140_6.0.0.dir/__/__/__/models/config/src/composition_data.c.obj
 .debug_abbrev  0x0000cb14      0x54e examples/light_switch/provisioner/CMakeFiles/light_switch_provisioner_nrf52840_xxAA_s140_6.0.0.dir/__/__/__/models/config/src/config_server.c.obj
 .debug_abbrev  0x0000d062       0x95 examples/light_switch/provisioner/CMakeFiles/light_switch_provisioner_nrf52840_xxAA_s140_6.0.0.dir/__/__/__/models/config/src/packed_index_list.c.obj
 .debug_abbrev  0x0000d0f7      0x4d0 examples/light_switch/provisioner/CMakeFiles/light_switch_provisioner_nrf52840_xxAA_s140_6.0.0.dir/__/__/__/models/health/src/health_server.c.obj
 .debug_abbrev  0x0000d5c7      0x3e1 examples/light_switch/provisioner/CMakeFiles/light_switch_provisioner_nrf52840_xxAA_s140_6.0.0.dir/__/__/__/models/health/src/health_client.c.obj
 .debug_abbrev  0x0000d9a8      0x434 examples/light_switch/provisioner/CMakeFiles/light_switch_provisioner_nrf52840_xxAA_s140_6.0.0.dir/__/__/__/mesh/access/src/access_publish.c.obj
 .debug_abbrev  0x0000dddc      0x646 examples/light_switch/provisioner/CMakeFiles/light_switch_provisioner_nrf52840_xxAA_s140_6.0.0.dir/__/__/__/mesh/access/src/access.c.obj
 .debug_abbrev  0x0000e422      0x43b examples/light_switch/provisioner/CMakeFiles/light_switch_provisioner_nrf52840_xxAA_s140_6.0.0.dir/__/__/__/mesh/access/src/access_reliable.c.obj
 .debug_abbrev  0x0000e85d      0x604 examples/light_switch/provisioner/CMakeFiles/light_switch_provisioner_nrf52840_xxAA_s140_6.0.0.dir/__/__/__/mesh/access/src/device_state_manager.c.obj
 .debug_abbrev  0x0000ee61      0x40e examples/light_switch/provisioner/CMakeFiles/light_switch_provisioner_nrf52840_xxAA_s140_6.0.0.dir/__/__/__/mesh/prov/src/prov_provisioner.c.obj
 .debug_abbrev  0x0000f26f      0x434 examples/light_switch/provisioner/CMakeFiles/light_switch_provisioner_nrf52840_xxAA_s140_6.0.0.dir/__/__/__/mesh/prov/src/nrf_mesh_prov.c.obj
 .debug_abbrev  0x0000f6a3      0x2a9 examples/light_switch/provisioner/CMakeFiles/light_switch_provisioner_nrf52840_xxAA_s140_6.0.0.dir/__/__/__/mesh/prov/src/provisioning.c.obj
 .debug_abbrev  0x0000f94c      0x2c8 examples/light_switch/provisioner/CMakeFiles/light_switch_provisioner_nrf52840_xxAA_s140_6.0.0.dir/__/__/__/mesh/prov/src/prov_beacon.c.obj
 .debug_abbrev  0x0000fc14      0x3ca examples/light_switch/provisioner/CMakeFiles/light_switch_provisioner_nrf52840_xxAA_s140_6.0.0.dir/__/__/__/mesh/prov/src/prov_utils.c.obj
 .debug_abbrev  0x0000ffde      0x4eb examples/light_switch/provisioner/CMakeFiles/light_switch_provisioner_nrf52840_xxAA_s140_6.0.0.dir/__/__/__/mesh/prov/src/prov_bearer_adv.c.obj
 .debug_abbrev  0x000104c9      0x20b examples/light_switch/provisioner/CMakeFiles/light_switch_provisioner_nrf52840_xxAA_s140_6.0.0.dir/C_/ver/mod/nRF5_SDK_15.0.0_a53641a/modules/nrfx/mdk/system_nrf52840.c.obj
 .debug_abbrev  0x000106d4      0x1bd examples/light_switch/provisioner/CMakeFiles/light_switch_provisioner_nrf52840_xxAA_s140_6.0.0.dir/C_/ver/mod/nRF5_SDK_15.0.0_a53641a/components/libraries/util/app_error_handler_gcc.c.obj
 .debug_abbrev  0x00010891      0x3a9 external/rtt/librtt_nrf52840_xxAA.a(SEGGER_RTT.c.obj)
 .debug_abbrev  0x00010c3a      0x32e external/rtt/librtt_nrf52840_xxAA.a(SEGGER_RTT_printf.c.obj)
 .debug_abbrev  0x00010f68      0x4b4 external/micro-ecc/libuECC_nrf52840_xxAA.a(uECC.c.obj)

.debug_loc      0x00000000    0x264b6
 .debug_loc     0x00000000      0x85d examples/light_switch/provisioner/CMakeFiles/light_switch_provisioner_nrf52840_xxAA_s140_6.0.0.dir/src/main.c.obj
 .debug_loc     0x0000085d      0x192 examples/light_switch/provisioner/CMakeFiles/light_switch_provisioner_nrf52840_xxAA_s140_6.0.0.dir/__/__/__/mesh/stack/src/mesh_stack.c.obj
 .debug_loc     0x000009ef      0x4d4 examples/light_switch/provisioner/CMakeFiles/light_switch_provisioner_nrf52840_xxAA_s140_6.0.0.dir/src/provisioner_helper.c.obj
 .debug_loc     0x00000ec3      0x8dc examples/light_switch/provisioner/CMakeFiles/light_switch_provisioner_nrf52840_xxAA_s140_6.0.0.dir/src/node_setup.c.obj
 .debug_loc     0x0000179f      0x1b3 examples/light_switch/provisioner/CMakeFiles/light_switch_provisioner_nrf52840_xxAA_s140_6.0.0.dir/__/__/common/src/mesh_softdevice_init.c.obj
 .debug_loc     0x00001952       0xa5 examples/light_switch/provisioner/CMakeFiles/light_switch_provisioner_nrf52840_xxAA_s140_6.0.0.dir/__/__/common/src/rtt_input.c.obj
 .debug_loc     0x000019f7      0x277 examples/light_switch/provisioner/CMakeFiles/light_switch_provisioner_nrf52840_xxAA_s140_6.0.0.dir/__/__/common/src/simple_hal.c.obj
 .debug_loc     0x00001c6e      0x18c examples/light_switch/provisioner/CMakeFiles/light_switch_provisioner_nrf52840_xxAA_s140_6.0.0.dir/__/__/common/src/app_error_weak.c.obj
 .debug_loc     0x00001dfa       0x2c examples/light_switch/provisioner/CMakeFiles/light_switch_provisioner_nrf52840_xxAA_s140_6.0.0.dir/__/__/common/src/assertion_handler_weak.c.obj
 .debug_loc     0x00001e26       0x2c examples/light_switch/provisioner/CMakeFiles/light_switch_provisioner_nrf52840_xxAA_s140_6.0.0.dir/__/__/__/mesh/core/src/nrf_mesh_configure.c.obj
 .debug_loc     0x00001e52       0x89 examples/light_switch/provisioner/CMakeFiles/light_switch_provisioner_nrf52840_xxAA_s140_6.0.0.dir/__/__/__/mesh/core/src/aes.c.obj
 .debug_loc     0x00001edb      0x10d examples/light_switch/provisioner/CMakeFiles/light_switch_provisioner_nrf52840_xxAA_s140_6.0.0.dir/__/__/__/mesh/core/src/msg_cache.c.obj
 .debug_loc     0x00001fe8     0x259a examples/light_switch/provisioner/CMakeFiles/light_switch_provisioner_nrf52840_xxAA_s140_6.0.0.dir/__/__/__/mesh/core/src/transport.c.obj
 .debug_loc     0x00004582       0xff examples/light_switch/provisioner/CMakeFiles/light_switch_provisioner_nrf52840_xxAA_s140_6.0.0.dir/__/__/__/mesh/core/src/event.c.obj
 .debug_loc     0x00004681      0x816 examples/light_switch/provisioner/CMakeFiles/light_switch_provisioner_nrf52840_xxAA_s140_6.0.0.dir/__/__/__/mesh/core/src/packet_buffer.c.obj
 .debug_loc     0x00004e97      0x7fe examples/light_switch/provisioner/CMakeFiles/light_switch_provisioner_nrf52840_xxAA_s140_6.0.0.dir/__/__/__/mesh/core/src/flash_manager_defrag.c.obj
 .debug_loc     0x00005695      0x4f6 examples/light_switch/provisioner/CMakeFiles/light_switch_provisioner_nrf52840_xxAA_s140_6.0.0.dir/__/__/__/mesh/core/src/fifo.c.obj
 .debug_loc     0x00005b8b      0x17a examples/light_switch/provisioner/CMakeFiles/light_switch_provisioner_nrf52840_xxAA_s140_6.0.0.dir/__/__/__/mesh/core/src/nrf_flash.c.obj
 .debug_loc     0x00005d05      0x6c1 examples/light_switch/provisioner/CMakeFiles/light_switch_provisioner_nrf52840_xxAA_s140_6.0.0.dir/__/__/__/mesh/core/src/packet_mgr.c.obj
 .debug_loc     0x000063c6      0x936 examples/light_switch/provisioner/CMakeFiles/light_switch_provisioner_nrf52840_xxAA_s140_6.0.0.dir/__/__/__/mesh/core/src/net_state.c.obj
 .debug_loc     0x00006cfc      0x8be examples/light_switch/provisioner/CMakeFiles/light_switch_provisioner_nrf52840_xxAA_s140_6.0.0.dir/__/__/__/mesh/core/src/mesh_flash.c.obj
 .debug_loc     0x000075ba       0xf8 examples/light_switch/provisioner/CMakeFiles/light_switch_provisioner_nrf52840_xxAA_s140_6.0.0.dir/__/__/__/mesh/core/src/nrf_mesh_utils.c.obj
 .debug_loc     0x000076b2      0x4f8 examples/light_switch/provisioner/CMakeFiles/light_switch_provisioner_nrf52840_xxAA_s140_6.0.0.dir/__/__/__/mesh/core/src/nrf_mesh.c.obj
 .debug_loc     0x00007baa       0xf5 examples/light_switch/provisioner/CMakeFiles/light_switch_provisioner_nrf52840_xxAA_s140_6.0.0.dir/__/__/__/mesh/core/src/queue.c.obj
 .debug_loc     0x00007c9f       0x63 examples/light_switch/provisioner/CMakeFiles/light_switch_provisioner_nrf52840_xxAA_s140_6.0.0.dir/__/__/__/mesh/core/src/hal.c.obj
 .debug_loc     0x00007d02      0x3f8 examples/light_switch/provisioner/CMakeFiles/light_switch_provisioner_nrf52840_xxAA_s140_6.0.0.dir/__/__/__/mesh/core/src/aes_cmac.c.obj
 .debug_loc     0x000080fa      0x2d1 examples/light_switch/provisioner/CMakeFiles/light_switch_provisioner_nrf52840_xxAA_s140_6.0.0.dir/__/__/__/mesh/core/src/timer_scheduler.c.obj
 .debug_loc     0x000083cb      0x5f9 examples/light_switch/provisioner/CMakeFiles/light_switch_provisioner_nrf52840_xxAA_s140_6.0.0.dir/__/__/__/mesh/core/src/timer.c.obj
 .debug_loc     0x000089c4      0x14e examples/light_switch/provisioner/CMakeFiles/light_switch_provisioner_nrf52840_xxAA_s140_6.0.0.dir/__/__/__/mesh/core/src/rand.c.obj
 .debug_loc     0x00008b12      0x194 examples/light_switch/provisioner/CMakeFiles/light_switch_provisioner_nrf52840_xxAA_s140_6.0.0.dir/__/__/__/mesh/core/src/nrf_mesh_opt.c.obj
 .debug_loc     0x00008ca6      0x344 examples/light_switch/provisioner/CMakeFiles/light_switch_provisioner_nrf52840_xxAA_s140_6.0.0.dir/__/__/__/mesh/core/src/timeslot.c.obj
 .debug_loc     0x00008fea      0x526 examples/light_switch/provisioner/CMakeFiles/light_switch_provisioner_nrf52840_xxAA_s140_6.0.0.dir/__/__/__/mesh/core/src/bearer_event.c.obj
 .debug_loc     0x00009510      0x8c1 examples/light_switch/provisioner/CMakeFiles/light_switch_provisioner_nrf52840_xxAA_s140_6.0.0.dir/__/__/__/mesh/core/src/enc.c.obj
 .debug_loc     0x00009dd1      0x5da examples/light_switch/provisioner/CMakeFiles/light_switch_provisioner_nrf52840_xxAA_s140_6.0.0.dir/__/__/__/mesh/core/src/network.c.obj
 .debug_loc     0x0000a3ab      0x817 examples/light_switch/provisioner/CMakeFiles/light_switch_provisioner_nrf52840_xxAA_s140_6.0.0.dir/__/__/__/mesh/core/src/net_packet.c.obj
 .debug_loc     0x0000abc2      0x2ed examples/light_switch/provisioner/CMakeFiles/light_switch_provisioner_nrf52840_xxAA_s140_6.0.0.dir/__/__/__/mesh/core/src/msqueue.c.obj
 .debug_loc     0x0000aeaf      0x1ee examples/light_switch/provisioner/CMakeFiles/light_switch_provisioner_nrf52840_xxAA_s140_6.0.0.dir/__/__/__/mesh/core/src/nrf_mesh_keygen.c.obj
 .debug_loc     0x0000b09d      0x3bf examples/light_switch/provisioner/CMakeFiles/light_switch_provisioner_nrf52840_xxAA_s140_6.0.0.dir/__/__/__/mesh/core/src/list.c.obj
 .debug_loc     0x0000b45c      0x348 examples/light_switch/provisioner/CMakeFiles/light_switch_provisioner_nrf52840_xxAA_s140_6.0.0.dir/__/__/__/mesh/core/src/log.c.obj
 .debug_loc     0x0000b7a4     0x1439 examples/light_switch/provisioner/CMakeFiles/light_switch_provisioner_nrf52840_xxAA_s140_6.0.0.dir/__/__/__/mesh/core/src/flash_manager.c.obj
 .debug_loc     0x0000cbdd      0x371 examples/light_switch/provisioner/CMakeFiles/light_switch_provisioner_nrf52840_xxAA_s140_6.0.0.dir/__/__/__/mesh/core/src/ccm_soft.c.obj
 .debug_loc     0x0000cf4e      0x157 examples/light_switch/provisioner/CMakeFiles/light_switch_provisioner_nrf52840_xxAA_s140_6.0.0.dir/__/__/__/mesh/core/src/replay_cache.c.obj
 .debug_loc     0x0000d0a5      0x30d examples/light_switch/provisioner/CMakeFiles/light_switch_provisioner_nrf52840_xxAA_s140_6.0.0.dir/__/__/__/mesh/core/src/beacon.c.obj
 .debug_loc     0x0000d3b2       0xe3 examples/light_switch/provisioner/CMakeFiles/light_switch_provisioner_nrf52840_xxAA_s140_6.0.0.dir/__/__/__/mesh/core/src/flash_manager_internal.c.obj
 .debug_loc     0x0000d495      0x3c5 examples/light_switch/provisioner/CMakeFiles/light_switch_provisioner_nrf52840_xxAA_s140_6.0.0.dir/__/__/__/mesh/core/src/core_tx.c.obj
 .debug_loc     0x0000d85a      0x570 examples/light_switch/provisioner/CMakeFiles/light_switch_provisioner_nrf52840_xxAA_s140_6.0.0.dir/__/__/__/mesh/core/src/heartbeat.c.obj
 .debug_loc     0x0000ddca      0x5f5 examples/light_switch/provisioner/CMakeFiles/light_switch_provisioner_nrf52840_xxAA_s140_6.0.0.dir/__/__/__/mesh/core/src/net_beacon.c.obj
 .debug_loc     0x0000e3bf      0x3ca examples/light_switch/provisioner/CMakeFiles/light_switch_provisioner_nrf52840_xxAA_s140_6.0.0.dir/__/__/__/mesh/core/src/core_tx_adv.c.obj
 .debug_loc     0x0000e789      0x42e examples/light_switch/provisioner/CMakeFiles/light_switch_provisioner_nrf52840_xxAA_s140_6.0.0.dir/__/__/__/mesh/bearer/src/ad_listener.c.obj
 .debug_loc     0x0000ebb7      0x3ae examples/light_switch/provisioner/CMakeFiles/light_switch_provisioner_nrf52840_xxAA_s140_6.0.0.dir/__/__/__/mesh/bearer/src/ad_type_filter.c.obj
 .debug_loc     0x0000ef65      0xcb6 examples/light_switch/provisioner/CMakeFiles/light_switch_provisioner_nrf52840_xxAA_s140_6.0.0.dir/__/__/__/mesh/bearer/src/advertiser.c.obj
 .debug_loc     0x0000fc1b      0x333 examples/light_switch/provisioner/CMakeFiles/light_switch_provisioner_nrf52840_xxAA_s140_6.0.0.dir/__/__/__/mesh/bearer/src/bearer_handler.c.obj
 .debug_loc     0x0000ff4e      0x306 examples/light_switch/provisioner/CMakeFiles/light_switch_provisioner_nrf52840_xxAA_s140_6.0.0.dir/__/__/__/mesh/bearer/src/broadcast.c.obj
 .debug_loc     0x00010254       0xde examples/light_switch/provisioner/CMakeFiles/light_switch_provisioner_nrf52840_xxAA_s140_6.0.0.dir/__/__/__/mesh/bearer/src/filter_engine.c.obj
 .debug_loc     0x00010332      0x232 examples/light_switch/provisioner/CMakeFiles/light_switch_provisioner_nrf52840_xxAA_s140_6.0.0.dir/__/__/__/mesh/bearer/src/radio_config.c.obj
 .debug_loc     0x00010564      0x442 examples/light_switch/provisioner/CMakeFiles/light_switch_provisioner_nrf52840_xxAA_s140_6.0.0.dir/__/__/__/mesh/bearer/src/scanner.c.obj
 .debug_loc     0x000109a6     0x1520 examples/light_switch/provisioner/CMakeFiles/light_switch_provisioner_nrf52840_xxAA_s140_6.0.0.dir/__/__/__/models/config/src/config_client.c.obj
 .debug_loc     0x00011ec6      0x26f examples/light_switch/provisioner/CMakeFiles/light_switch_provisioner_nrf52840_xxAA_s140_6.0.0.dir/__/__/__/models/config/src/composition_data.c.obj
 .debug_loc     0x00012135     0x4c2a examples/light_switch/provisioner/CMakeFiles/light_switch_provisioner_nrf52840_xxAA_s140_6.0.0.dir/__/__/__/models/config/src/config_server.c.obj
 .debug_loc     0x00016d5f       0x89 examples/light_switch/provisioner/CMakeFiles/light_switch_provisioner_nrf52840_xxAA_s140_6.0.0.dir/__/__/__/models/config/src/packed_index_list.c.obj
 .debug_loc     0x00016de8     0x13e7 examples/light_switch/provisioner/CMakeFiles/light_switch_provisioner_nrf52840_xxAA_s140_6.0.0.dir/__/__/__/models/health/src/health_server.c.obj
 .debug_loc     0x000181cf      0xa00 examples/light_switch/provisioner/CMakeFiles/light_switch_provisioner_nrf52840_xxAA_s140_6.0.0.dir/__/__/__/models/health/src/health_client.c.obj
 .debug_loc     0x00018bcf      0x4d4 examples/light_switch/provisioner/CMakeFiles/light_switch_provisioner_nrf52840_xxAA_s140_6.0.0.dir/__/__/__/mesh/access/src/access_publish.c.obj
 .debug_loc     0x000190a3     0x2483 examples/light_switch/provisioner/CMakeFiles/light_switch_provisioner_nrf52840_xxAA_s140_6.0.0.dir/__/__/__/mesh/access/src/access.c.obj
 .debug_loc     0x0001b526      0x784 examples/light_switch/provisioner/CMakeFiles/light_switch_provisioner_nrf52840_xxAA_s140_6.0.0.dir/__/__/__/mesh/access/src/access_reliable.c.obj
 .debug_loc     0x0001bcaa     0x3a1f examples/light_switch/provisioner/CMakeFiles/light_switch_provisioner_nrf52840_xxAA_s140_6.0.0.dir/__/__/__/mesh/access/src/device_state_manager.c.obj
 .debug_loc     0x0001f6c9      0x747 examples/light_switch/provisioner/CMakeFiles/light_switch_provisioner_nrf52840_xxAA_s140_6.0.0.dir/__/__/__/mesh/prov/src/prov_provisioner.c.obj
 .debug_loc     0x0001fe10      0xa4b examples/light_switch/provisioner/CMakeFiles/light_switch_provisioner_nrf52840_xxAA_s140_6.0.0.dir/__/__/__/mesh/prov/src/nrf_mesh_prov.c.obj
 .debug_loc     0x0002085b      0x490 examples/light_switch/provisioner/CMakeFiles/light_switch_provisioner_nrf52840_xxAA_s140_6.0.0.dir/__/__/__/mesh/prov/src/provisioning.c.obj
 .debug_loc     0x00020ceb      0x18c examples/light_switch/provisioner/CMakeFiles/light_switch_provisioner_nrf52840_xxAA_s140_6.0.0.dir/__/__/__/mesh/prov/src/prov_beacon.c.obj
 .debug_loc     0x00020e77      0x40b examples/light_switch/provisioner/CMakeFiles/light_switch_provisioner_nrf52840_xxAA_s140_6.0.0.dir/__/__/__/mesh/prov/src/prov_utils.c.obj
 .debug_loc     0x00021282     0x1457 examples/light_switch/provisioner/CMakeFiles/light_switch_provisioner_nrf52840_xxAA_s140_6.0.0.dir/__/__/__/mesh/prov/src/prov_bearer_adv.c.obj
 .debug_loc     0x000226d9       0x63 examples/light_switch/provisioner/CMakeFiles/light_switch_provisioner_nrf52840_xxAA_s140_6.0.0.dir/C_/ver/mod/nRF5_SDK_15.0.0_a53641a/components/libraries/util/app_error_handler_gcc.c.obj
 .debug_loc     0x0002273c     0x1222 external/rtt/librtt_nrf52840_xxAA.a(SEGGER_RTT.c.obj)
 .debug_loc     0x0002395e      0x70f external/rtt/librtt_nrf52840_xxAA.a(SEGGER_RTT_printf.c.obj)
 .debug_loc     0x0002406d     0x2449 external/micro-ecc/libuECC_nrf52840_xxAA.a(uECC.c.obj)

.debug_aranges  0x00000000     0x2588
 .debug_aranges
                0x00000000       0xc8 examples/light_switch/provisioner/CMakeFiles/light_switch_provisioner_nrf52840_xxAA_s140_6.0.0.dir/src/main.c.obj
 .debug_aranges
                0x000000c8       0x50 examples/light_switch/provisioner/CMakeFiles/light_switch_provisioner_nrf52840_xxAA_s140_6.0.0.dir/__/__/__/mesh/stack/src/mesh_stack.c.obj
 .debug_aranges
                0x00000118       0x50 examples/light_switch/provisioner/CMakeFiles/light_switch_provisioner_nrf52840_xxAA_s140_6.0.0.dir/src/provisioner_helper.c.obj
 .debug_aranges
                0x00000168       0x50 examples/light_switch/provisioner/CMakeFiles/light_switch_provisioner_nrf52840_xxAA_s140_6.0.0.dir/src/node_setup.c.obj
 .debug_aranges
                0x000001b8       0x40 examples/light_switch/provisioner/CMakeFiles/light_switch_provisioner_nrf52840_xxAA_s140_6.0.0.dir/__/__/common/src/mesh_softdevice_init.c.obj
 .debug_aranges
                0x000001f8       0x30 examples/light_switch/provisioner/CMakeFiles/light_switch_provisioner_nrf52840_xxAA_s140_6.0.0.dir/__/__/common/src/rtt_input.c.obj
 .debug_aranges
                0x00000228       0x50 examples/light_switch/provisioner/CMakeFiles/light_switch_provisioner_nrf52840_xxAA_s140_6.0.0.dir/__/__/common/src/simple_hal.c.obj
 .debug_aranges
                0x00000278       0x28 examples/light_switch/provisioner/CMakeFiles/light_switch_provisioner_nrf52840_xxAA_s140_6.0.0.dir/__/__/nrf_mesh_weak.c.obj
 .debug_aranges
                0x000002a0       0x20 examples/light_switch/provisioner/CMakeFiles/light_switch_provisioner_nrf52840_xxAA_s140_6.0.0.dir/__/__/common/src/app_error_weak.c.obj
 .debug_aranges
                0x000002c0       0x20 examples/light_switch/provisioner/CMakeFiles/light_switch_provisioner_nrf52840_xxAA_s140_6.0.0.dir/__/__/common/src/assertion_handler_weak.c.obj
 .debug_aranges
                0x000002e0       0x30 examples/light_switch/provisioner/CMakeFiles/light_switch_provisioner_nrf52840_xxAA_s140_6.0.0.dir/__/__/__/mesh/core/src/nrf_mesh_configure.c.obj
 .debug_aranges
                0x00000310       0x28 examples/light_switch/provisioner/CMakeFiles/light_switch_provisioner_nrf52840_xxAA_s140_6.0.0.dir/__/__/__/mesh/core/src/aes.c.obj
 .debug_aranges
                0x00000338       0x38 examples/light_switch/provisioner/CMakeFiles/light_switch_provisioner_nrf52840_xxAA_s140_6.0.0.dir/__/__/__/mesh/core/src/msg_cache.c.obj
 .debug_aranges
                0x00000370      0x110 examples/light_switch/provisioner/CMakeFiles/light_switch_provisioner_nrf52840_xxAA_s140_6.0.0.dir/__/__/__/mesh/core/src/transport.c.obj
 .debug_aranges
                0x00000480       0x30 examples/light_switch/provisioner/CMakeFiles/light_switch_provisioner_nrf52840_xxAA_s140_6.0.0.dir/__/__/__/mesh/core/src/event.c.obj
 .debug_aranges
                0x000004b0       0x68 examples/light_switch/provisioner/CMakeFiles/light_switch_provisioner_nrf52840_xxAA_s140_6.0.0.dir/__/__/__/mesh/core/src/packet_buffer.c.obj
 .debug_aranges
                0x00000518       0xc8 examples/light_switch/provisioner/CMakeFiles/light_switch_provisioner_nrf52840_xxAA_s140_6.0.0.dir/__/__/__/mesh/core/src/flash_manager_defrag.c.obj
 .debug_aranges
                0x000005e0       0x60 examples/light_switch/provisioner/CMakeFiles/light_switch_provisioner_nrf52840_xxAA_s140_6.0.0.dir/__/__/__/mesh/core/src/fifo.c.obj
 .debug_aranges
                0x00000640       0x30 examples/light_switch/provisioner/CMakeFiles/light_switch_provisioner_nrf52840_xxAA_s140_6.0.0.dir/__/__/__/mesh/core/src/nrf_flash.c.obj
 .debug_aranges
                0x00000670       0x48 examples/light_switch/provisioner/CMakeFiles/light_switch_provisioner_nrf52840_xxAA_s140_6.0.0.dir/__/__/__/mesh/core/src/packet_mgr.c.obj
 .debug_aranges
                0x000006b8       0xd0 examples/light_switch/provisioner/CMakeFiles/light_switch_provisioner_nrf52840_xxAA_s140_6.0.0.dir/__/__/__/mesh/core/src/net_state.c.obj
 .debug_aranges
                0x00000788       0x60 examples/light_switch/provisioner/CMakeFiles/light_switch_provisioner_nrf52840_xxAA_s140_6.0.0.dir/__/__/__/mesh/core/src/mesh_flash.c.obj
 .debug_aranges
                0x000007e8       0x30 examples/light_switch/provisioner/CMakeFiles/light_switch_provisioner_nrf52840_xxAA_s140_6.0.0.dir/__/__/__/mesh/core/src/nrf_mesh_utils.c.obj
 .debug_aranges
                0x00000818       0x90 examples/light_switch/provisioner/CMakeFiles/light_switch_provisioner_nrf52840_xxAA_s140_6.0.0.dir/__/__/__/mesh/core/src/nrf_mesh.c.obj
 .debug_aranges
                0x000008a8       0x38 examples/light_switch/provisioner/CMakeFiles/light_switch_provisioner_nrf52840_xxAA_s140_6.0.0.dir/__/__/__/mesh/core/src/queue.c.obj
 .debug_aranges
                0x000008e0       0x30 examples/light_switch/provisioner/CMakeFiles/light_switch_provisioner_nrf52840_xxAA_s140_6.0.0.dir/__/__/__/mesh/core/src/hal.c.obj
 .debug_aranges
                0x00000910       0x38 examples/light_switch/provisioner/CMakeFiles/light_switch_provisioner_nrf52840_xxAA_s140_6.0.0.dir/__/__/__/mesh/core/src/aes_cmac.c.obj
 .debug_aranges
                0x00000948       0x68 examples/light_switch/provisioner/CMakeFiles/light_switch_provisioner_nrf52840_xxAA_s140_6.0.0.dir/__/__/__/mesh/core/src/timer_scheduler.c.obj
 .debug_aranges
                0x000009b0       0x60 examples/light_switch/provisioner/CMakeFiles/light_switch_provisioner_nrf52840_xxAA_s140_6.0.0.dir/__/__/__/mesh/core/src/timer.c.obj
 .debug_aranges
                0x00000a10       0x30 examples/light_switch/provisioner/CMakeFiles/light_switch_provisioner_nrf52840_xxAA_s140_6.0.0.dir/__/__/__/mesh/core/src/ticker.c.obj
 .debug_aranges
                0x00000a40       0x40 examples/light_switch/provisioner/CMakeFiles/light_switch_provisioner_nrf52840_xxAA_s140_6.0.0.dir/__/__/__/mesh/core/src/rand.c.obj
 .debug_aranges
                0x00000a80       0x28 examples/light_switch/provisioner/CMakeFiles/light_switch_provisioner_nrf52840_xxAA_s140_6.0.0.dir/__/__/__/mesh/core/src/nrf_mesh_opt.c.obj
 .debug_aranges
                0x00000aa8       0xb8 examples/light_switch/provisioner/CMakeFiles/light_switch_provisioner_nrf52840_xxAA_s140_6.0.0.dir/__/__/__/mesh/core/src/timeslot.c.obj
 .debug_aranges
                0x00000b60       0x98 examples/light_switch/provisioner/CMakeFiles/light_switch_provisioner_nrf52840_xxAA_s140_6.0.0.dir/__/__/__/mesh/core/src/bearer_event.c.obj
 .debug_aranges
                0x00000bf8       0x70 examples/light_switch/provisioner/CMakeFiles/light_switch_provisioner_nrf52840_xxAA_s140_6.0.0.dir/__/__/__/mesh/core/src/enc.c.obj
 .debug_aranges
                0x00000c68       0x58 examples/light_switch/provisioner/CMakeFiles/light_switch_provisioner_nrf52840_xxAA_s140_6.0.0.dir/__/__/__/mesh/core/src/network.c.obj
 .debug_aranges
                0x00000cc0       0x68 examples/light_switch/provisioner/CMakeFiles/light_switch_provisioner_nrf52840_xxAA_s140_6.0.0.dir/__/__/__/mesh/core/src/net_packet.c.obj
 .debug_aranges
                0x00000d28       0x48 examples/light_switch/provisioner/CMakeFiles/light_switch_provisioner_nrf52840_xxAA_s140_6.0.0.dir/__/__/__/mesh/core/src/msqueue.c.obj
 .debug_aranges
                0x00000d70       0x40 examples/light_switch/provisioner/CMakeFiles/light_switch_provisioner_nrf52840_xxAA_s140_6.0.0.dir/__/__/__/mesh/core/src/nrf_mesh_keygen.c.obj
 .debug_aranges
                0x00000db0       0x48 examples/light_switch/provisioner/CMakeFiles/light_switch_provisioner_nrf52840_xxAA_s140_6.0.0.dir/__/__/__/mesh/core/src/list.c.obj
 .debug_aranges
                0x00000df8       0x48 examples/light_switch/provisioner/CMakeFiles/light_switch_provisioner_nrf52840_xxAA_s140_6.0.0.dir/__/__/__/mesh/core/src/log.c.obj
 .debug_aranges
                0x00000e40       0xf8 examples/light_switch/provisioner/CMakeFiles/light_switch_provisioner_nrf52840_xxAA_s140_6.0.0.dir/__/__/__/mesh/core/src/flash_manager.c.obj
 .debug_aranges
                0x00000f38       0x50 examples/light_switch/provisioner/CMakeFiles/light_switch_provisioner_nrf52840_xxAA_s140_6.0.0.dir/__/__/__/mesh/core/src/ccm_soft.c.obj
 .debug_aranges
                0x00000f88       0x40 examples/light_switch/provisioner/CMakeFiles/light_switch_provisioner_nrf52840_xxAA_s140_6.0.0.dir/__/__/__/mesh/core/src/replay_cache.c.obj
 .debug_aranges
                0x00000fc8       0x28 examples/light_switch/provisioner/CMakeFiles/light_switch_provisioner_nrf52840_xxAA_s140_6.0.0.dir/__/__/__/mesh/core/src/beacon.c.obj
 .debug_aranges
                0x00000ff0       0x20 examples/light_switch/provisioner/CMakeFiles/light_switch_provisioner_nrf52840_xxAA_s140_6.0.0.dir/__/__/__/mesh/core/src/flash_manager_internal.c.obj
 .debug_aranges
                0x00001010       0x58 examples/light_switch/provisioner/CMakeFiles/light_switch_provisioner_nrf52840_xxAA_s140_6.0.0.dir/__/__/__/mesh/core/src/core_tx.c.obj
 .debug_aranges
                0x00001068       0x70 examples/light_switch/provisioner/CMakeFiles/light_switch_provisioner_nrf52840_xxAA_s140_6.0.0.dir/__/__/__/mesh/core/src/heartbeat.c.obj
 .debug_aranges
                0x000010d8       0x68 examples/light_switch/provisioner/CMakeFiles/light_switch_provisioner_nrf52840_xxAA_s140_6.0.0.dir/__/__/__/mesh/core/src/net_beacon.c.obj
 .debug_aranges
                0x00001140       0x68 examples/light_switch/provisioner/CMakeFiles/light_switch_provisioner_nrf52840_xxAA_s140_6.0.0.dir/__/__/__/mesh/core/src/core_tx_adv.c.obj
 .debug_aranges
                0x000011a8       0x30 examples/light_switch/provisioner/CMakeFiles/light_switch_provisioner_nrf52840_xxAA_s140_6.0.0.dir/__/__/__/mesh/bearer/src/ad_listener.c.obj
 .debug_aranges
                0x000011d8       0x58 examples/light_switch/provisioner/CMakeFiles/light_switch_provisioner_nrf52840_xxAA_s140_6.0.0.dir/__/__/__/mesh/bearer/src/ad_type_filter.c.obj
 .debug_aranges
                0x00001230       0xb0 examples/light_switch/provisioner/CMakeFiles/light_switch_provisioner_nrf52840_xxAA_s140_6.0.0.dir/__/__/__/mesh/bearer/src/advertiser.c.obj
 .debug_aranges
                0x000012e0       0x70 examples/light_switch/provisioner/CMakeFiles/light_switch_provisioner_nrf52840_xxAA_s140_6.0.0.dir/__/__/__/mesh/bearer/src/bearer_handler.c.obj
 .debug_aranges
                0x00001350       0x30 examples/light_switch/provisioner/CMakeFiles/light_switch_provisioner_nrf52840_xxAA_s140_6.0.0.dir/__/__/__/mesh/bearer/src/broadcast.c.obj
 .debug_aranges
                0x00001380       0x38 examples/light_switch/provisioner/CMakeFiles/light_switch_provisioner_nrf52840_xxAA_s140_6.0.0.dir/__/__/__/mesh/bearer/src/filter_engine.c.obj
 .debug_aranges
                0x000013b8       0x40 examples/light_switch/provisioner/CMakeFiles/light_switch_provisioner_nrf52840_xxAA_s140_6.0.0.dir/__/__/__/mesh/bearer/src/radio_config.c.obj
 .debug_aranges
                0x000013f8       0xe0 examples/light_switch/provisioner/CMakeFiles/light_switch_provisioner_nrf52840_xxAA_s140_6.0.0.dir/__/__/__/mesh/bearer/src/scanner.c.obj
 .debug_aranges
                0x000014d8      0x190 examples/light_switch/provisioner/CMakeFiles/light_switch_provisioner_nrf52840_xxAA_s140_6.0.0.dir/__/__/__/models/config/src/config_client.c.obj
 .debug_aranges
                0x00001668       0x20 examples/light_switch/provisioner/CMakeFiles/light_switch_provisioner_nrf52840_xxAA_s140_6.0.0.dir/__/__/__/models/config/src/composition_data.c.obj
 .debug_aranges
                0x00001688      0x210 examples/light_switch/provisioner/CMakeFiles/light_switch_provisioner_nrf52840_xxAA_s140_6.0.0.dir/__/__/__/models/config/src/config_server.c.obj
 .debug_aranges
                0x00001898       0x20 examples/light_switch/provisioner/CMakeFiles/light_switch_provisioner_nrf52840_xxAA_s140_6.0.0.dir/__/__/__/models/config/src/packed_index_list.c.obj
 .debug_aranges
                0x000018b8       0xc8 examples/light_switch/provisioner/CMakeFiles/light_switch_provisioner_nrf52840_xxAA_s140_6.0.0.dir/__/__/__/models/health/src/health_server.c.obj
 .debug_aranges
                0x00001980       0x88 examples/light_switch/provisioner/CMakeFiles/light_switch_provisioner_nrf52840_xxAA_s140_6.0.0.dir/__/__/__/models/health/src/health_client.c.obj
 .debug_aranges
                0x00001a08       0x50 examples/light_switch/provisioner/CMakeFiles/light_switch_provisioner_nrf52840_xxAA_s140_6.0.0.dir/__/__/__/mesh/access/src/access_publish.c.obj
 .debug_aranges
                0x00001a58      0x1d0 examples/light_switch/provisioner/CMakeFiles/light_switch_provisioner_nrf52840_xxAA_s140_6.0.0.dir/__/__/__/mesh/access/src/access.c.obj
 .debug_aranges
                0x00001c28       0x50 examples/light_switch/provisioner/CMakeFiles/light_switch_provisioner_nrf52840_xxAA_s140_6.0.0.dir/__/__/__/mesh/access/src/access_reliable.c.obj
 .debug_aranges
                0x00001c78      0x318 examples/light_switch/provisioner/CMakeFiles/light_switch_provisioner_nrf52840_xxAA_s140_6.0.0.dir/__/__/__/mesh/access/src/device_state_manager.c.obj
 .debug_aranges
                0x00001f90       0x78 examples/light_switch/provisioner/CMakeFiles/light_switch_provisioner_nrf52840_xxAA_s140_6.0.0.dir/__/__/__/mesh/prov/src/prov_provisioner.c.obj
 .debug_aranges
                0x00002008       0x88 examples/light_switch/provisioner/CMakeFiles/light_switch_provisioner_nrf52840_xxAA_s140_6.0.0.dir/__/__/__/mesh/prov/src/nrf_mesh_prov.c.obj
 .debug_aranges
                0x00002090       0x80 examples/light_switch/provisioner/CMakeFiles/light_switch_provisioner_nrf52840_xxAA_s140_6.0.0.dir/__/__/__/mesh/prov/src/provisioning.c.obj
 .debug_aranges
                0x00002110       0x38 examples/light_switch/provisioner/CMakeFiles/light_switch_provisioner_nrf52840_xxAA_s140_6.0.0.dir/__/__/__/mesh/prov/src/prov_beacon.c.obj
 .debug_aranges
                0x00002148       0x70 examples/light_switch/provisioner/CMakeFiles/light_switch_provisioner_nrf52840_xxAA_s140_6.0.0.dir/__/__/__/mesh/prov/src/prov_utils.c.obj
 .debug_aranges
                0x000021b8       0xc8 examples/light_switch/provisioner/CMakeFiles/light_switch_provisioner_nrf52840_xxAA_s140_6.0.0.dir/__/__/__/mesh/prov/src/prov_bearer_adv.c.obj
 .debug_aranges
                0x00002280       0x30 examples/light_switch/provisioner/CMakeFiles/light_switch_provisioner_nrf52840_xxAA_s140_6.0.0.dir/C_/ver/mod/nRF5_SDK_15.0.0_a53641a/modules/nrfx/mdk/system_nrf52840.c.obj
 .debug_aranges
                0x000022b0       0x20 examples/light_switch/provisioner/CMakeFiles/light_switch_provisioner_nrf52840_xxAA_s140_6.0.0.dir/C_/ver/mod/nRF5_SDK_15.0.0_a53641a/components/libraries/util/app_error_handler_gcc.c.obj
 .debug_aranges
                0x000022d0       0xd8 external/rtt/librtt_nrf52840_xxAA.a(SEGGER_RTT.c.obj)
 .debug_aranges
                0x000023a8       0x38 external/rtt/librtt_nrf52840_xxAA.a(SEGGER_RTT_printf.c.obj)
 .debug_aranges
                0x000023e0      0x1a8 external/micro-ecc/libuECC_nrf52840_xxAA.a(uECC.c.obj)

.debug_ranges   0x00000000     0x6600
 .debug_ranges  0x00000000      0x6c8 examples/light_switch/provisioner/CMakeFiles/light_switch_provisioner_nrf52840_xxAA_s140_6.0.0.dir/src/main.c.obj
 .debug_ranges  0x000006c8       0x70 examples/light_switch/provisioner/CMakeFiles/light_switch_provisioner_nrf52840_xxAA_s140_6.0.0.dir/__/__/__/mesh/stack/src/mesh_stack.c.obj
 .debug_ranges  0x00000738      0x308 examples/light_switch/provisioner/CMakeFiles/light_switch_provisioner_nrf52840_xxAA_s140_6.0.0.dir/src/provisioner_helper.c.obj
 .debug_ranges  0x00000a40      0x368 examples/light_switch/provisioner/CMakeFiles/light_switch_provisioner_nrf52840_xxAA_s140_6.0.0.dir/src/node_setup.c.obj
 .debug_ranges  0x00000da8       0xb0 examples/light_switch/provisioner/CMakeFiles/light_switch_provisioner_nrf52840_xxAA_s140_6.0.0.dir/__/__/common/src/mesh_softdevice_init.c.obj
 .debug_ranges  0x00000e58       0x20 examples/light_switch/provisioner/CMakeFiles/light_switch_provisioner_nrf52840_xxAA_s140_6.0.0.dir/__/__/common/src/rtt_input.c.obj
 .debug_ranges  0x00000e78       0xe0 examples/light_switch/provisioner/CMakeFiles/light_switch_provisioner_nrf52840_xxAA_s140_6.0.0.dir/__/__/common/src/simple_hal.c.obj
 .debug_ranges  0x00000f58       0x18 examples/light_switch/provisioner/CMakeFiles/light_switch_provisioner_nrf52840_xxAA_s140_6.0.0.dir/__/__/nrf_mesh_weak.c.obj
 .debug_ranges  0x00000f70       0xb8 examples/light_switch/provisioner/CMakeFiles/light_switch_provisioner_nrf52840_xxAA_s140_6.0.0.dir/__/__/common/src/app_error_weak.c.obj
 .debug_ranges  0x00001028       0x10 examples/light_switch/provisioner/CMakeFiles/light_switch_provisioner_nrf52840_xxAA_s140_6.0.0.dir/__/__/common/src/assertion_handler_weak.c.obj
 .debug_ranges  0x00001038       0x20 examples/light_switch/provisioner/CMakeFiles/light_switch_provisioner_nrf52840_xxAA_s140_6.0.0.dir/__/__/__/mesh/core/src/nrf_mesh_configure.c.obj
 .debug_ranges  0x00001058       0x18 examples/light_switch/provisioner/CMakeFiles/light_switch_provisioner_nrf52840_xxAA_s140_6.0.0.dir/__/__/__/mesh/core/src/aes.c.obj
 .debug_ranges  0x00001070       0x48 examples/light_switch/provisioner/CMakeFiles/light_switch_provisioner_nrf52840_xxAA_s140_6.0.0.dir/__/__/__/mesh/core/src/msg_cache.c.obj
 .debug_ranges  0x000010b8      0x5d0 examples/light_switch/provisioner/CMakeFiles/light_switch_provisioner_nrf52840_xxAA_s140_6.0.0.dir/__/__/__/mesh/core/src/transport.c.obj
 .debug_ranges  0x00001688       0x20 examples/light_switch/provisioner/CMakeFiles/light_switch_provisioner_nrf52840_xxAA_s140_6.0.0.dir/__/__/__/mesh/core/src/event.c.obj
 .debug_ranges  0x000016a8      0x128 examples/light_switch/provisioner/CMakeFiles/light_switch_provisioner_nrf52840_xxAA_s140_6.0.0.dir/__/__/__/mesh/core/src/packet_buffer.c.obj
 .debug_ranges  0x000017d0      0x230 examples/light_switch/provisioner/CMakeFiles/light_switch_provisioner_nrf52840_xxAA_s140_6.0.0.dir/__/__/__/mesh/core/src/flash_manager_defrag.c.obj
 .debug_ranges  0x00001a00       0x68 examples/light_switch/provisioner/CMakeFiles/light_switch_provisioner_nrf52840_xxAA_s140_6.0.0.dir/__/__/__/mesh/core/src/fifo.c.obj
 .debug_ranges  0x00001a68       0x38 examples/light_switch/provisioner/CMakeFiles/light_switch_provisioner_nrf52840_xxAA_s140_6.0.0.dir/__/__/__/mesh/core/src/nrf_flash.c.obj
 .debug_ranges  0x00001aa0       0xe0 examples/light_switch/provisioner/CMakeFiles/light_switch_provisioner_nrf52840_xxAA_s140_6.0.0.dir/__/__/__/mesh/core/src/packet_mgr.c.obj
 .debug_ranges  0x00001b80      0x1f8 examples/light_switch/provisioner/CMakeFiles/light_switch_provisioner_nrf52840_xxAA_s140_6.0.0.dir/__/__/__/mesh/core/src/net_state.c.obj
 .debug_ranges  0x00001d78      0x1c8 examples/light_switch/provisioner/CMakeFiles/light_switch_provisioner_nrf52840_xxAA_s140_6.0.0.dir/__/__/__/mesh/core/src/mesh_flash.c.obj
 .debug_ranges  0x00001f40       0x20 examples/light_switch/provisioner/CMakeFiles/light_switch_provisioner_nrf52840_xxAA_s140_6.0.0.dir/__/__/__/mesh/core/src/nrf_mesh_utils.c.obj
 .debug_ranges  0x00001f60       0xe0 examples/light_switch/provisioner/CMakeFiles/light_switch_provisioner_nrf52840_xxAA_s140_6.0.0.dir/__/__/__/mesh/core/src/nrf_mesh.c.obj
 .debug_ranges  0x00002040       0x28 examples/light_switch/provisioner/CMakeFiles/light_switch_provisioner_nrf52840_xxAA_s140_6.0.0.dir/__/__/__/mesh/core/src/queue.c.obj
 .debug_ranges  0x00002068       0x20 examples/light_switch/provisioner/CMakeFiles/light_switch_provisioner_nrf52840_xxAA_s140_6.0.0.dir/__/__/__/mesh/core/src/hal.c.obj
 .debug_ranges  0x00002088       0x98 examples/light_switch/provisioner/CMakeFiles/light_switch_provisioner_nrf52840_xxAA_s140_6.0.0.dir/__/__/__/mesh/core/src/aes_cmac.c.obj
 .debug_ranges  0x00002120       0xf0 examples/light_switch/provisioner/CMakeFiles/light_switch_provisioner_nrf52840_xxAA_s140_6.0.0.dir/__/__/__/mesh/core/src/timer_scheduler.c.obj
 .debug_ranges  0x00002210       0xd8 examples/light_switch/provisioner/CMakeFiles/light_switch_provisioner_nrf52840_xxAA_s140_6.0.0.dir/__/__/__/mesh/core/src/timer.c.obj
 .debug_ranges  0x000022e8       0x20 examples/light_switch/provisioner/CMakeFiles/light_switch_provisioner_nrf52840_xxAA_s140_6.0.0.dir/__/__/__/mesh/core/src/ticker.c.obj
 .debug_ranges  0x00002308       0x30 examples/light_switch/provisioner/CMakeFiles/light_switch_provisioner_nrf52840_xxAA_s140_6.0.0.dir/__/__/__/mesh/core/src/rand.c.obj
 .debug_ranges  0x00002338       0x18 examples/light_switch/provisioner/CMakeFiles/light_switch_provisioner_nrf52840_xxAA_s140_6.0.0.dir/__/__/__/mesh/core/src/nrf_mesh_opt.c.obj
 .debug_ranges  0x00002350      0x168 examples/light_switch/provisioner/CMakeFiles/light_switch_provisioner_nrf52840_xxAA_s140_6.0.0.dir/__/__/__/mesh/core/src/timeslot.c.obj
 .debug_ranges  0x000024b8       0xf8 examples/light_switch/provisioner/CMakeFiles/light_switch_provisioner_nrf52840_xxAA_s140_6.0.0.dir/__/__/__/mesh/core/src/bearer_event.c.obj
 .debug_ranges  0x000025b0       0xb0 examples/light_switch/provisioner/CMakeFiles/light_switch_provisioner_nrf52840_xxAA_s140_6.0.0.dir/__/__/__/mesh/core/src/enc.c.obj
 .debug_ranges  0x00002660       0xe8 examples/light_switch/provisioner/CMakeFiles/light_switch_provisioner_nrf52840_xxAA_s140_6.0.0.dir/__/__/__/mesh/core/src/network.c.obj
 .debug_ranges  0x00002748      0x160 examples/light_switch/provisioner/CMakeFiles/light_switch_provisioner_nrf52840_xxAA_s140_6.0.0.dir/__/__/__/mesh/core/src/net_packet.c.obj
 .debug_ranges  0x000028a8       0x50 examples/light_switch/provisioner/CMakeFiles/light_switch_provisioner_nrf52840_xxAA_s140_6.0.0.dir/__/__/__/mesh/core/src/msqueue.c.obj
 .debug_ranges  0x000028f8       0x30 examples/light_switch/provisioner/CMakeFiles/light_switch_provisioner_nrf52840_xxAA_s140_6.0.0.dir/__/__/__/mesh/core/src/nrf_mesh_keygen.c.obj
 .debug_ranges  0x00002928       0x78 examples/light_switch/provisioner/CMakeFiles/light_switch_provisioner_nrf52840_xxAA_s140_6.0.0.dir/__/__/__/mesh/core/src/list.c.obj
 .debug_ranges  0x000029a0       0x38 examples/light_switch/provisioner/CMakeFiles/light_switch_provisioner_nrf52840_xxAA_s140_6.0.0.dir/__/__/__/mesh/core/src/log.c.obj
 .debug_ranges  0x000029d8      0x388 examples/light_switch/provisioner/CMakeFiles/light_switch_provisioner_nrf52840_xxAA_s140_6.0.0.dir/__/__/__/mesh/core/src/flash_manager.c.obj
 .debug_ranges  0x00002d60       0x40 examples/light_switch/provisioner/CMakeFiles/light_switch_provisioner_nrf52840_xxAA_s140_6.0.0.dir/__/__/__/mesh/core/src/ccm_soft.c.obj
 .debug_ranges  0x00002da0       0x30 examples/light_switch/provisioner/CMakeFiles/light_switch_provisioner_nrf52840_xxAA_s140_6.0.0.dir/__/__/__/mesh/core/src/replay_cache.c.obj
 .debug_ranges  0x00002dd0       0x90 examples/light_switch/provisioner/CMakeFiles/light_switch_provisioner_nrf52840_xxAA_s140_6.0.0.dir/__/__/__/mesh/core/src/beacon.c.obj
 .debug_ranges  0x00002e60       0x10 examples/light_switch/provisioner/CMakeFiles/light_switch_provisioner_nrf52840_xxAA_s140_6.0.0.dir/__/__/__/mesh/core/src/flash_manager_internal.c.obj
 .debug_ranges  0x00002e70       0xf8 examples/light_switch/provisioner/CMakeFiles/light_switch_provisioner_nrf52840_xxAA_s140_6.0.0.dir/__/__/__/mesh/core/src/core_tx.c.obj
 .debug_ranges  0x00002f68       0xa8 examples/light_switch/provisioner/CMakeFiles/light_switch_provisioner_nrf52840_xxAA_s140_6.0.0.dir/__/__/__/mesh/core/src/heartbeat.c.obj
 .debug_ranges  0x00003010      0x170 examples/light_switch/provisioner/CMakeFiles/light_switch_provisioner_nrf52840_xxAA_s140_6.0.0.dir/__/__/__/mesh/core/src/net_beacon.c.obj
 .debug_ranges  0x00003180       0x58 examples/light_switch/provisioner/CMakeFiles/light_switch_provisioner_nrf52840_xxAA_s140_6.0.0.dir/__/__/__/mesh/core/src/core_tx_adv.c.obj
 .debug_ranges  0x000031d8       0xf8 examples/light_switch/provisioner/CMakeFiles/light_switch_provisioner_nrf52840_xxAA_s140_6.0.0.dir/__/__/__/mesh/bearer/src/ad_listener.c.obj
 .debug_ranges  0x000032d0       0xd0 examples/light_switch/provisioner/CMakeFiles/light_switch_provisioner_nrf52840_xxAA_s140_6.0.0.dir/__/__/__/mesh/bearer/src/ad_type_filter.c.obj
 .debug_ranges  0x000033a0      0x240 examples/light_switch/provisioner/CMakeFiles/light_switch_provisioner_nrf52840_xxAA_s140_6.0.0.dir/__/__/__/mesh/bearer/src/advertiser.c.obj
 .debug_ranges  0x000035e0       0xb0 examples/light_switch/provisioner/CMakeFiles/light_switch_provisioner_nrf52840_xxAA_s140_6.0.0.dir/__/__/__/mesh/bearer/src/bearer_handler.c.obj
 .debug_ranges  0x00003690       0xa8 examples/light_switch/provisioner/CMakeFiles/light_switch_provisioner_nrf52840_xxAA_s140_6.0.0.dir/__/__/__/mesh/bearer/src/broadcast.c.obj
 .debug_ranges  0x00003738       0x48 examples/light_switch/provisioner/CMakeFiles/light_switch_provisioner_nrf52840_xxAA_s140_6.0.0.dir/__/__/__/mesh/bearer/src/filter_engine.c.obj
 .debug_ranges  0x00003780       0x48 examples/light_switch/provisioner/CMakeFiles/light_switch_provisioner_nrf52840_xxAA_s140_6.0.0.dir/__/__/__/mesh/bearer/src/radio_config.c.obj
 .debug_ranges  0x000037c8      0x198 examples/light_switch/provisioner/CMakeFiles/light_switch_provisioner_nrf52840_xxAA_s140_6.0.0.dir/__/__/__/mesh/bearer/src/scanner.c.obj
 .debug_ranges  0x00003960      0x280 examples/light_switch/provisioner/CMakeFiles/light_switch_provisioner_nrf52840_xxAA_s140_6.0.0.dir/__/__/__/models/config/src/config_client.c.obj
 .debug_ranges  0x00003be0       0xa8 examples/light_switch/provisioner/CMakeFiles/light_switch_provisioner_nrf52840_xxAA_s140_6.0.0.dir/__/__/__/models/config/src/composition_data.c.obj
 .debug_ranges  0x00003c88      0x788 examples/light_switch/provisioner/CMakeFiles/light_switch_provisioner_nrf52840_xxAA_s140_6.0.0.dir/__/__/__/models/config/src/config_server.c.obj
 .debug_ranges  0x00004410       0x10 examples/light_switch/provisioner/CMakeFiles/light_switch_provisioner_nrf52840_xxAA_s140_6.0.0.dir/__/__/__/models/config/src/packed_index_list.c.obj
 .debug_ranges  0x00004420      0x260 examples/light_switch/provisioner/CMakeFiles/light_switch_provisioner_nrf52840_xxAA_s140_6.0.0.dir/__/__/__/models/health/src/health_server.c.obj
 .debug_ranges  0x00004680       0x90 examples/light_switch/provisioner/CMakeFiles/light_switch_provisioner_nrf52840_xxAA_s140_6.0.0.dir/__/__/__/models/health/src/health_client.c.obj
 .debug_ranges  0x00004710      0x118 examples/light_switch/provisioner/CMakeFiles/light_switch_provisioner_nrf52840_xxAA_s140_6.0.0.dir/__/__/__/mesh/access/src/access_publish.c.obj
 .debug_ranges  0x00004828      0x7f8 examples/light_switch/provisioner/CMakeFiles/light_switch_provisioner_nrf52840_xxAA_s140_6.0.0.dir/__/__/__/mesh/access/src/access.c.obj
 .debug_ranges  0x00005020      0x160 examples/light_switch/provisioner/CMakeFiles/light_switch_provisioner_nrf52840_xxAA_s140_6.0.0.dir/__/__/__/mesh/access/src/access_reliable.c.obj
 .debug_ranges  0x00005180      0x7d8 examples/light_switch/provisioner/CMakeFiles/light_switch_provisioner_nrf52840_xxAA_s140_6.0.0.dir/__/__/__/mesh/access/src/device_state_manager.c.obj
 .debug_ranges  0x00005958      0x100 examples/light_switch/provisioner/CMakeFiles/light_switch_provisioner_nrf52840_xxAA_s140_6.0.0.dir/__/__/__/mesh/prov/src/prov_provisioner.c.obj
 .debug_ranges  0x00005a58      0x130 examples/light_switch/provisioner/CMakeFiles/light_switch_provisioner_nrf52840_xxAA_s140_6.0.0.dir/__/__/__/mesh/prov/src/nrf_mesh_prov.c.obj
 .debug_ranges  0x00005b88       0x70 examples/light_switch/provisioner/CMakeFiles/light_switch_provisioner_nrf52840_xxAA_s140_6.0.0.dir/__/__/__/mesh/prov/src/provisioning.c.obj
 .debug_ranges  0x00005bf8       0x40 examples/light_switch/provisioner/CMakeFiles/light_switch_provisioner_nrf52840_xxAA_s140_6.0.0.dir/__/__/__/mesh/prov/src/prov_beacon.c.obj
 .debug_ranges  0x00005c38       0xa0 examples/light_switch/provisioner/CMakeFiles/light_switch_provisioner_nrf52840_xxAA_s140_6.0.0.dir/__/__/__/mesh/prov/src/prov_utils.c.obj
 .debug_ranges  0x00005cd8      0x498 examples/light_switch/provisioner/CMakeFiles/light_switch_provisioner_nrf52840_xxAA_s140_6.0.0.dir/__/__/__/mesh/prov/src/prov_bearer_adv.c.obj
 .debug_ranges  0x00006170       0x20 examples/light_switch/provisioner/CMakeFiles/light_switch_provisioner_nrf52840_xxAA_s140_6.0.0.dir/C_/ver/mod/nRF5_SDK_15.0.0_a53641a/modules/nrfx/mdk/system_nrf52840.c.obj
 .debug_ranges  0x00006190       0x10 examples/light_switch/provisioner/CMakeFiles/light_switch_provisioner_nrf52840_xxAA_s140_6.0.0.dir/C_/ver/mod/nRF5_SDK_15.0.0_a53641a/components/libraries/util/app_error_handler_gcc.c.obj
 .debug_ranges  0x000061a0      0x130 external/rtt/librtt_nrf52840_xxAA.a(SEGGER_RTT.c.obj)
 .debug_ranges  0x000062d0       0x48 external/rtt/librtt_nrf52840_xxAA.a(SEGGER_RTT_printf.c.obj)
 .debug_ranges  0x00006318      0x2e8 external/micro-ecc/libuECC_nrf52840_xxAA.a(uECC.c.obj)

.debug_line     0x00000000    0x19710
 .debug_line    0x00000000      0xf4a examples/light_switch/provisioner/CMakeFiles/light_switch_provisioner_nrf52840_xxAA_s140_6.0.0.dir/src/main.c.obj
 .debug_line    0x00000f4a      0x4ab examples/light_switch/provisioner/CMakeFiles/light_switch_provisioner_nrf52840_xxAA_s140_6.0.0.dir/__/__/__/mesh/stack/src/mesh_stack.c.obj
 .debug_line    0x000013f5      0xc08 examples/light_switch/provisioner/CMakeFiles/light_switch_provisioner_nrf52840_xxAA_s140_6.0.0.dir/src/provisioner_helper.c.obj
 .debug_line    0x00001ffd      0xa7c examples/light_switch/provisioner/CMakeFiles/light_switch_provisioner_nrf52840_xxAA_s140_6.0.0.dir/src/node_setup.c.obj
 .debug_line    0x00002a79      0x3ec examples/light_switch/provisioner/CMakeFiles/light_switch_provisioner_nrf52840_xxAA_s140_6.0.0.dir/__/__/common/src/mesh_softdevice_init.c.obj
 .debug_line    0x00002e65      0x2ac examples/light_switch/provisioner/CMakeFiles/light_switch_provisioner_nrf52840_xxAA_s140_6.0.0.dir/__/__/common/src/rtt_input.c.obj
 .debug_line    0x00003111      0x49c examples/light_switch/provisioner/CMakeFiles/light_switch_provisioner_nrf52840_xxAA_s140_6.0.0.dir/__/__/common/src/simple_hal.c.obj
 .debug_line    0x000035ad      0x1f1 examples/light_switch/provisioner/CMakeFiles/light_switch_provisioner_nrf52840_xxAA_s140_6.0.0.dir/__/__/nrf_mesh_weak.c.obj
 .debug_line    0x0000379e      0x48b examples/light_switch/provisioner/CMakeFiles/light_switch_provisioner_nrf52840_xxAA_s140_6.0.0.dir/__/__/common/src/app_error_weak.c.obj
 .debug_line    0x00003c29      0x23d examples/light_switch/provisioner/CMakeFiles/light_switch_provisioner_nrf52840_xxAA_s140_6.0.0.dir/__/__/common/src/assertion_handler_weak.c.obj
 .debug_line    0x00003e66      0x231 examples/light_switch/provisioner/CMakeFiles/light_switch_provisioner_nrf52840_xxAA_s140_6.0.0.dir/__/__/__/mesh/core/src/nrf_mesh_configure.c.obj
 .debug_line    0x00004097      0x25c examples/light_switch/provisioner/CMakeFiles/light_switch_provisioner_nrf52840_xxAA_s140_6.0.0.dir/__/__/__/mesh/core/src/aes.c.obj
 .debug_line    0x000042f3      0x264 examples/light_switch/provisioner/CMakeFiles/light_switch_provisioner_nrf52840_xxAA_s140_6.0.0.dir/__/__/__/mesh/core/src/msg_cache.c.obj
 .debug_line    0x00004557      0xcc9 examples/light_switch/provisioner/CMakeFiles/light_switch_provisioner_nrf52840_xxAA_s140_6.0.0.dir/__/__/__/mesh/core/src/transport.c.obj
 .debug_line    0x00005220      0x2ec examples/light_switch/provisioner/CMakeFiles/light_switch_provisioner_nrf52840_xxAA_s140_6.0.0.dir/__/__/__/mesh/core/src/event.c.obj
 .debug_line    0x0000550c      0x4bb examples/light_switch/provisioner/CMakeFiles/light_switch_provisioner_nrf52840_xxAA_s140_6.0.0.dir/__/__/__/mesh/core/src/packet_buffer.c.obj
 .debug_line    0x000059c7      0x6dd examples/light_switch/provisioner/CMakeFiles/light_switch_provisioner_nrf52840_xxAA_s140_6.0.0.dir/__/__/__/mesh/core/src/flash_manager_defrag.c.obj
 .debug_line    0x000060a4      0x37b examples/light_switch/provisioner/CMakeFiles/light_switch_provisioner_nrf52840_xxAA_s140_6.0.0.dir/__/__/__/mesh/core/src/fifo.c.obj
 .debug_line    0x0000641f      0x242 examples/light_switch/provisioner/CMakeFiles/light_switch_provisioner_nrf52840_xxAA_s140_6.0.0.dir/__/__/__/mesh/core/src/nrf_flash.c.obj
 .debug_line    0x00006661      0x420 examples/light_switch/provisioner/CMakeFiles/light_switch_provisioner_nrf52840_xxAA_s140_6.0.0.dir/__/__/__/mesh/core/src/packet_mgr.c.obj
 .debug_line    0x00006a81      0x6bf examples/light_switch/provisioner/CMakeFiles/light_switch_provisioner_nrf52840_xxAA_s140_6.0.0.dir/__/__/__/mesh/core/src/net_state.c.obj
 .debug_line    0x00007140      0x517 examples/light_switch/provisioner/CMakeFiles/light_switch_provisioner_nrf52840_xxAA_s140_6.0.0.dir/__/__/__/mesh/core/src/mesh_flash.c.obj
 .debug_line    0x00007657      0x258 examples/light_switch/provisioner/CMakeFiles/light_switch_provisioner_nrf52840_xxAA_s140_6.0.0.dir/__/__/__/mesh/core/src/nrf_mesh_utils.c.obj
 .debug_line    0x000078af      0x75f examples/light_switch/provisioner/CMakeFiles/light_switch_provisioner_nrf52840_xxAA_s140_6.0.0.dir/__/__/__/mesh/core/src/nrf_mesh.c.obj
 .debug_line    0x0000800e      0x290 examples/light_switch/provisioner/CMakeFiles/light_switch_provisioner_nrf52840_xxAA_s140_6.0.0.dir/__/__/__/mesh/core/src/queue.c.obj
 .debug_line    0x0000829e      0x20f examples/light_switch/provisioner/CMakeFiles/light_switch_provisioner_nrf52840_xxAA_s140_6.0.0.dir/__/__/__/mesh/core/src/hal.c.obj
 .debug_line    0x000084ad      0x2d5 examples/light_switch/provisioner/CMakeFiles/light_switch_provisioner_nrf52840_xxAA_s140_6.0.0.dir/__/__/__/mesh/core/src/aes_cmac.c.obj
 .debug_line    0x00008782      0x42e examples/light_switch/provisioner/CMakeFiles/light_switch_provisioner_nrf52840_xxAA_s140_6.0.0.dir/__/__/__/mesh/core/src/timer_scheduler.c.obj
 .debug_line    0x00008bb0      0x3b1 examples/light_switch/provisioner/CMakeFiles/light_switch_provisioner_nrf52840_xxAA_s140_6.0.0.dir/__/__/__/mesh/core/src/timer.c.obj
 .debug_line    0x00008f61      0x124 examples/light_switch/provisioner/CMakeFiles/light_switch_provisioner_nrf52840_xxAA_s140_6.0.0.dir/__/__/__/mesh/core/src/ticker.c.obj
 .debug_line    0x00009085      0x27b examples/light_switch/provisioner/CMakeFiles/light_switch_provisioner_nrf52840_xxAA_s140_6.0.0.dir/__/__/__/mesh/core/src/rand.c.obj
 .debug_line    0x00009300      0x266 examples/light_switch/provisioner/CMakeFiles/light_switch_provisioner_nrf52840_xxAA_s140_6.0.0.dir/__/__/__/mesh/core/src/nrf_mesh_opt.c.obj
 .debug_line    0x00009566      0x560 examples/light_switch/provisioner/CMakeFiles/light_switch_provisioner_nrf52840_xxAA_s140_6.0.0.dir/__/__/__/mesh/core/src/timeslot.c.obj
 .debug_line    0x00009ac6      0x519 examples/light_switch/provisioner/CMakeFiles/light_switch_provisioner_nrf52840_xxAA_s140_6.0.0.dir/__/__/__/mesh/core/src/bearer_event.c.obj
 .debug_line    0x00009fdf      0x422 examples/light_switch/provisioner/CMakeFiles/light_switch_provisioner_nrf52840_xxAA_s140_6.0.0.dir/__/__/__/mesh/core/src/enc.c.obj
 .debug_line    0x0000a401      0x538 examples/light_switch/provisioner/CMakeFiles/light_switch_provisioner_nrf52840_xxAA_s140_6.0.0.dir/__/__/__/mesh/core/src/network.c.obj
 .debug_line    0x0000a939      0x560 examples/light_switch/provisioner/CMakeFiles/light_switch_provisioner_nrf52840_xxAA_s140_6.0.0.dir/__/__/__/mesh/core/src/net_packet.c.obj
 .debug_line    0x0000ae99      0x2ff examples/light_switch/provisioner/CMakeFiles/light_switch_provisioner_nrf52840_xxAA_s140_6.0.0.dir/__/__/__/mesh/core/src/msqueue.c.obj
 .debug_line    0x0000b198      0x235 examples/light_switch/provisioner/CMakeFiles/light_switch_provisioner_nrf52840_xxAA_s140_6.0.0.dir/__/__/__/mesh/core/src/nrf_mesh_keygen.c.obj
 .debug_line    0x0000b3cd      0x2df examples/light_switch/provisioner/CMakeFiles/light_switch_provisioner_nrf52840_xxAA_s140_6.0.0.dir/__/__/__/mesh/core/src/list.c.obj
 .debug_line    0x0000b6ac      0x284 examples/light_switch/provisioner/CMakeFiles/light_switch_provisioner_nrf52840_xxAA_s140_6.0.0.dir/__/__/__/mesh/core/src/log.c.obj
 .debug_line    0x0000b930      0x905 examples/light_switch/provisioner/CMakeFiles/light_switch_provisioner_nrf52840_xxAA_s140_6.0.0.dir/__/__/__/mesh/core/src/flash_manager.c.obj
 .debug_line    0x0000c235      0x34c examples/light_switch/provisioner/CMakeFiles/light_switch_provisioner_nrf52840_xxAA_s140_6.0.0.dir/__/__/__/mesh/core/src/ccm_soft.c.obj
 .debug_line    0x0000c581      0x1cd examples/light_switch/provisioner/CMakeFiles/light_switch_provisioner_nrf52840_xxAA_s140_6.0.0.dir/__/__/__/mesh/core/src/replay_cache.c.obj
 .debug_line    0x0000c74e      0x496 examples/light_switch/provisioner/CMakeFiles/light_switch_provisioner_nrf52840_xxAA_s140_6.0.0.dir/__/__/__/mesh/core/src/beacon.c.obj
 .debug_line    0x0000cbe4      0x278 examples/light_switch/provisioner/CMakeFiles/light_switch_provisioner_nrf52840_xxAA_s140_6.0.0.dir/__/__/__/mesh/core/src/flash_manager_internal.c.obj
 .debug_line    0x0000ce5c      0x3a5 examples/light_switch/provisioner/CMakeFiles/light_switch_provisioner_nrf52840_xxAA_s140_6.0.0.dir/__/__/__/mesh/core/src/core_tx.c.obj
 .debug_line    0x0000d201      0x5ac examples/light_switch/provisioner/CMakeFiles/light_switch_provisioner_nrf52840_xxAA_s140_6.0.0.dir/__/__/__/mesh/core/src/heartbeat.c.obj
 .debug_line    0x0000d7ad      0x600 examples/light_switch/provisioner/CMakeFiles/light_switch_provisioner_nrf52840_xxAA_s140_6.0.0.dir/__/__/__/mesh/core/src/net_beacon.c.obj
 .debug_line    0x0000ddad      0x4c5 examples/light_switch/provisioner/CMakeFiles/light_switch_provisioner_nrf52840_xxAA_s140_6.0.0.dir/__/__/__/mesh/core/src/core_tx_adv.c.obj
 .debug_line    0x0000e272      0x33c examples/light_switch/provisioner/CMakeFiles/light_switch_provisioner_nrf52840_xxAA_s140_6.0.0.dir/__/__/__/mesh/bearer/src/ad_listener.c.obj
 .debug_line    0x0000e5ae      0x3f1 examples/light_switch/provisioner/CMakeFiles/light_switch_provisioner_nrf52840_xxAA_s140_6.0.0.dir/__/__/__/mesh/bearer/src/ad_type_filter.c.obj
 .debug_line    0x0000e99f      0x6df examples/light_switch/provisioner/CMakeFiles/light_switch_provisioner_nrf52840_xxAA_s140_6.0.0.dir/__/__/__/mesh/bearer/src/advertiser.c.obj
 .debug_line    0x0000f07e      0x4a7 examples/light_switch/provisioner/CMakeFiles/light_switch_provisioner_nrf52840_xxAA_s140_6.0.0.dir/__/__/__/mesh/bearer/src/bearer_handler.c.obj
 .debug_line    0x0000f525      0x363 examples/light_switch/provisioner/CMakeFiles/light_switch_provisioner_nrf52840_xxAA_s140_6.0.0.dir/__/__/__/mesh/bearer/src/broadcast.c.obj
 .debug_line    0x0000f888      0x32f examples/light_switch/provisioner/CMakeFiles/light_switch_provisioner_nrf52840_xxAA_s140_6.0.0.dir/__/__/__/mesh/bearer/src/filter_engine.c.obj
 .debug_line    0x0000fbb7      0x298 examples/light_switch/provisioner/CMakeFiles/light_switch_provisioner_nrf52840_xxAA_s140_6.0.0.dir/__/__/__/mesh/bearer/src/radio_config.c.obj
 .debug_line    0x0000fe4f      0x68e examples/light_switch/provisioner/CMakeFiles/light_switch_provisioner_nrf52840_xxAA_s140_6.0.0.dir/__/__/__/mesh/bearer/src/scanner.c.obj
 .debug_line    0x000104dd      0xac7 examples/light_switch/provisioner/CMakeFiles/light_switch_provisioner_nrf52840_xxAA_s140_6.0.0.dir/__/__/__/models/config/src/config_client.c.obj
 .debug_line    0x00010fa4      0x2f9 examples/light_switch/provisioner/CMakeFiles/light_switch_provisioner_nrf52840_xxAA_s140_6.0.0.dir/__/__/__/models/config/src/composition_data.c.obj
 .debug_line    0x0001129d     0x1355 examples/light_switch/provisioner/CMakeFiles/light_switch_provisioner_nrf52840_xxAA_s140_6.0.0.dir/__/__/__/models/config/src/config_server.c.obj
 .debug_line    0x000125f2       0xef examples/light_switch/provisioner/CMakeFiles/light_switch_provisioner_nrf52840_xxAA_s140_6.0.0.dir/__/__/__/models/config/src/packed_index_list.c.obj
 .debug_line    0x000126e1      0x6a3 examples/light_switch/provisioner/CMakeFiles/light_switch_provisioner_nrf52840_xxAA_s140_6.0.0.dir/__/__/__/models/health/src/health_server.c.obj
 .debug_line    0x00012d84      0x528 examples/light_switch/provisioner/CMakeFiles/light_switch_provisioner_nrf52840_xxAA_s140_6.0.0.dir/__/__/__/models/health/src/health_client.c.obj
 .debug_line    0x000132ac      0x41d examples/light_switch/provisioner/CMakeFiles/light_switch_provisioner_nrf52840_xxAA_s140_6.0.0.dir/__/__/__/mesh/access/src/access_publish.c.obj
 .debug_line    0x000136c9      0xf22 examples/light_switch/provisioner/CMakeFiles/light_switch_provisioner_nrf52840_xxAA_s140_6.0.0.dir/__/__/__/mesh/access/src/access.c.obj
 .debug_line    0x000145eb      0x528 examples/light_switch/provisioner/CMakeFiles/light_switch_provisioner_nrf52840_xxAA_s140_6.0.0.dir/__/__/__/mesh/access/src/access_reliable.c.obj
 .debug_line    0x00014b13     0x13af examples/light_switch/provisioner/CMakeFiles/light_switch_provisioner_nrf52840_xxAA_s140_6.0.0.dir/__/__/__/mesh/access/src/device_state_manager.c.obj
 .debug_line    0x00015ec2      0x594 examples/light_switch/provisioner/CMakeFiles/light_switch_provisioner_nrf52840_xxAA_s140_6.0.0.dir/__/__/__/mesh/prov/src/prov_provisioner.c.obj
 .debug_line    0x00016456      0x563 examples/light_switch/provisioner/CMakeFiles/light_switch_provisioner_nrf52840_xxAA_s140_6.0.0.dir/__/__/__/mesh/prov/src/nrf_mesh_prov.c.obj
 .debug_line    0x000169b9      0x3bd examples/light_switch/provisioner/CMakeFiles/light_switch_provisioner_nrf52840_xxAA_s140_6.0.0.dir/__/__/__/mesh/prov/src/provisioning.c.obj
 .debug_line    0x00016d76      0x463 examples/light_switch/provisioner/CMakeFiles/light_switch_provisioner_nrf52840_xxAA_s140_6.0.0.dir/__/__/__/mesh/prov/src/prov_beacon.c.obj
 .debug_line    0x000171d9      0x4a0 examples/light_switch/provisioner/CMakeFiles/light_switch_provisioner_nrf52840_xxAA_s140_6.0.0.dir/__/__/__/mesh/prov/src/prov_utils.c.obj
 .debug_line    0x00017679      0xb2d examples/light_switch/provisioner/CMakeFiles/light_switch_provisioner_nrf52840_xxAA_s140_6.0.0.dir/__/__/__/mesh/prov/src/prov_bearer_adv.c.obj
 .debug_line    0x000181a6      0x20b examples/light_switch/provisioner/CMakeFiles/light_switch_provisioner_nrf52840_xxAA_s140_6.0.0.dir/C_/ver/mod/nRF5_SDK_15.0.0_a53641a/modules/nrfx/mdk/system_nrf52840.c.obj
 .debug_line    0x000183b1      0x21a examples/light_switch/provisioner/CMakeFiles/light_switch_provisioner_nrf52840_xxAA_s140_6.0.0.dir/C_/ver/mod/nRF5_SDK_15.0.0_a53641a/components/libraries/util/app_error_handler_gcc.c.obj
 .debug_line    0x000185cb      0x4c3 external/rtt/librtt_nrf52840_xxAA.a(SEGGER_RTT.c.obj)
 .debug_line    0x00018a8e      0x285 external/rtt/librtt_nrf52840_xxAA.a(SEGGER_RTT_printf.c.obj)
 .debug_line    0x00018d13      0x9fd external/micro-ecc/libuECC_nrf52840_xxAA.a(uECC.c.obj)

.debug_str      0x00000000    0x1453b
 .debug_str     0x00000000     0x46ba examples/light_switch/provisioner/CMakeFiles/light_switch_provisioner_nrf52840_xxAA_s140_6.0.0.dir/src/main.c.obj
                               0x4d2d (size before relaxing)
 .debug_str     0x000046ba      0x26d examples/light_switch/provisioner/CMakeFiles/light_switch_provisioner_nrf52840_xxAA_s140_6.0.0.dir/__/__/__/mesh/stack/src/mesh_stack.c.obj
                               0x272e (size before relaxing)
 .debug_str     0x00004927     0x19e9 examples/light_switch/provisioner/CMakeFiles/light_switch_provisioner_nrf52840_xxAA_s140_6.0.0.dir/src/provisioner_helper.c.obj
                               0x2dcf (size before relaxing)
 .debug_str     0x00006310      0x943 examples/light_switch/provisioner/CMakeFiles/light_switch_provisioner_nrf52840_xxAA_s140_6.0.0.dir/src/node_setup.c.obj
                               0x253b (size before relaxing)
 .debug_str     0x00006c53      0x317 examples/light_switch/provisioner/CMakeFiles/light_switch_provisioner_nrf52840_xxAA_s140_6.0.0.dir/__/__/common/src/mesh_softdevice_init.c.obj
                               0x1252 (size before relaxing)
 .debug_str     0x00006f6a      0x18d examples/light_switch/provisioner/CMakeFiles/light_switch_provisioner_nrf52840_xxAA_s140_6.0.0.dir/__/__/common/src/rtt_input.c.obj
                                0xbae (size before relaxing)
 .debug_str     0x000070f7      0x1e5 examples/light_switch/provisioner/CMakeFiles/light_switch_provisioner_nrf52840_xxAA_s140_6.0.0.dir/__/__/common/src/simple_hal.c.obj
                                0xd30 (size before relaxing)
 .debug_str     0x000072dc       0x3c examples/light_switch/provisioner/CMakeFiles/light_switch_provisioner_nrf52840_xxAA_s140_6.0.0.dir/__/__/nrf_mesh_weak.c.obj
                                0x61c (size before relaxing)
 .debug_str     0x00007318       0xa0 examples/light_switch/provisioner/CMakeFiles/light_switch_provisioner_nrf52840_xxAA_s140_6.0.0.dir/__/__/common/src/app_error_weak.c.obj
                                0x85d (size before relaxing)
 .debug_str     0x000073b8       0x3c examples/light_switch/provisioner/CMakeFiles/light_switch_provisioner_nrf52840_xxAA_s140_6.0.0.dir/__/__/common/src/assertion_handler_weak.c.obj
                                0x672 (size before relaxing)
 .debug_str     0x000073f4      0x1be examples/light_switch/provisioner/CMakeFiles/light_switch_provisioner_nrf52840_xxAA_s140_6.0.0.dir/__/__/__/mesh/core/src/nrf_mesh_configure.c.obj
                                0x7ed (size before relaxing)
 .debug_str     0x000075b2       0xc1 examples/light_switch/provisioner/CMakeFiles/light_switch_provisioner_nrf52840_xxAA_s140_6.0.0.dir/__/__/__/mesh/core/src/aes.c.obj
                                0xb1a (size before relaxing)
 .debug_str     0x00007673       0xbb examples/light_switch/provisioner/CMakeFiles/light_switch_provisioner_nrf52840_xxAA_s140_6.0.0.dir/__/__/__/mesh/core/src/msg_cache.c.obj
                                0x6b9 (size before relaxing)
 .debug_str     0x0000772e     0x163c examples/light_switch/provisioner/CMakeFiles/light_switch_provisioner_nrf52840_xxAA_s140_6.0.0.dir/__/__/__/mesh/core/src/transport.c.obj
                               0x3106 (size before relaxing)
 .debug_str     0x00008d6a       0x82 examples/light_switch/provisioner/CMakeFiles/light_switch_provisioner_nrf52840_xxAA_s140_6.0.0.dir/__/__/__/mesh/core/src/event.c.obj
                               0x16b3 (size before relaxing)
 .debug_str     0x00008dec      0x30d examples/light_switch/provisioner/CMakeFiles/light_switch_provisioner_nrf52840_xxAA_s140_6.0.0.dir/__/__/__/mesh/core/src/packet_buffer.c.obj
                                0xb1b (size before relaxing)
 .debug_str     0x000090f9      0x65e examples/light_switch/provisioner/CMakeFiles/light_switch_provisioner_nrf52840_xxAA_s140_6.0.0.dir/__/__/__/mesh/core/src/flash_manager_defrag.c.obj
                               0x118d (size before relaxing)
 .debug_str     0x00009757       0xa5 examples/light_switch/provisioner/CMakeFiles/light_switch_provisioner_nrf52840_xxAA_s140_6.0.0.dir/__/__/__/mesh/core/src/fifo.c.obj
                                0x6db (size before relaxing)
 .debug_str     0x000097fc       0xd9 examples/light_switch/provisioner/CMakeFiles/light_switch_provisioner_nrf52840_xxAA_s140_6.0.0.dir/__/__/__/mesh/core/src/nrf_flash.c.obj
                                0x6f4 (size before relaxing)
 .debug_str     0x000098d5      0x287 examples/light_switch/provisioner/CMakeFiles/light_switch_provisioner_nrf52840_xxAA_s140_6.0.0.dir/__/__/__/mesh/core/src/packet_mgr.c.obj
                                0x9a5 (size before relaxing)
 .debug_str     0x00009b5c      0x465 examples/light_switch/provisioner/CMakeFiles/light_switch_provisioner_nrf52840_xxAA_s140_6.0.0.dir/__/__/__/mesh/core/src/net_state.c.obj
                               0x2148 (size before relaxing)
 .debug_str     0x00009fc1      0x387 examples/light_switch/provisioner/CMakeFiles/light_switch_provisioner_nrf52840_xxAA_s140_6.0.0.dir/__/__/__/mesh/core/src/mesh_flash.c.obj
                                0xcdc (size before relaxing)
 .debug_str     0x0000a348       0x8b examples/light_switch/provisioner/CMakeFiles/light_switch_provisioner_nrf52840_xxAA_s140_6.0.0.dir/__/__/__/mesh/core/src/nrf_mesh_utils.c.obj
                                0x751 (size before relaxing)
 .debug_str     0x0000a3d3      0x5fc examples/light_switch/provisioner/CMakeFiles/light_switch_provisioner_nrf52840_xxAA_s140_6.0.0.dir/__/__/__/mesh/core/src/nrf_mesh.c.obj
                               0x2137 (size before relaxing)
 .debug_str     0x0000a9cf       0x5b examples/light_switch/provisioner/CMakeFiles/light_switch_provisioner_nrf52840_xxAA_s140_6.0.0.dir/__/__/__/mesh/core/src/queue.c.obj
                                0x683 (size before relaxing)
 .debug_str     0x0000aa2a       0x86 examples/light_switch/provisioner/CMakeFiles/light_switch_provisioner_nrf52840_xxAA_s140_6.0.0.dir/__/__/__/mesh/core/src/hal.c.obj
                                0x7ab (size before relaxing)
 .debug_str     0x0000aab0       0xca examples/light_switch/provisioner/CMakeFiles/light_switch_provisioner_nrf52840_xxAA_s140_6.0.0.dir/__/__/__/mesh/core/src/aes_cmac.c.obj
                                0x715 (size before relaxing)
 .debug_str     0x0000ab7a      0x146 examples/light_switch/provisioner/CMakeFiles/light_switch_provisioner_nrf52840_xxAA_s140_6.0.0.dir/__/__/__/mesh/core/src/timer_scheduler.c.obj
                                0x934 (size before relaxing)
 .debug_str     0x0000acc0      0x1db examples/light_switch/provisioner/CMakeFiles/light_switch_provisioner_nrf52840_xxAA_s140_6.0.0.dir/__/__/__/mesh/core/src/timer.c.obj
                                0x8ae (size before relaxing)
 .debug_str     0x0000ae9b       0x42 examples/light_switch/provisioner/CMakeFiles/light_switch_provisioner_nrf52840_xxAA_s140_6.0.0.dir/__/__/__/mesh/core/src/ticker.c.obj
                                0x34c (size before relaxing)
 .debug_str     0x0000aedd       0xac examples/light_switch/provisioner/CMakeFiles/light_switch_provisioner_nrf52840_xxAA_s140_6.0.0.dir/__/__/__/mesh/core/src/rand.c.obj
                                0x76e (size before relaxing)
 .debug_str     0x0000af89       0x88 examples/light_switch/provisioner/CMakeFiles/light_switch_provisioner_nrf52840_xxAA_s140_6.0.0.dir/__/__/__/mesh/core/src/nrf_mesh_opt.c.obj
                                0x8f0 (size before relaxing)
 .debug_str     0x0000b011      0x902 examples/light_switch/provisioner/CMakeFiles/light_switch_provisioner_nrf52840_xxAA_s140_6.0.0.dir/__/__/__/mesh/core/src/timeslot.c.obj
                               0x191f (size before relaxing)
 .debug_str     0x0000b913      0x2c6 examples/light_switch/provisioner/CMakeFiles/light_switch_provisioner_nrf52840_xxAA_s140_6.0.0.dir/__/__/__/mesh/core/src/bearer_event.c.obj
                                0xefe (size before relaxing)
 .debug_str     0x0000bbd9      0x16e examples/light_switch/provisioner/CMakeFiles/light_switch_provisioner_nrf52840_xxAA_s140_6.0.0.dir/__/__/__/mesh/core/src/enc.c.obj
                                0x9ef (size before relaxing)
 .debug_str     0x0000bd47      0x2f9 examples/light_switch/provisioner/CMakeFiles/light_switch_provisioner_nrf52840_xxAA_s140_6.0.0.dir/__/__/__/mesh/core/src/network.c.obj
                               0x12e8 (size before relaxing)
 .debug_str     0x0000c040      0x30f examples/light_switch/provisioner/CMakeFiles/light_switch_provisioner_nrf52840_xxAA_s140_6.0.0.dir/__/__/__/mesh/core/src/net_packet.c.obj
                                0xe86 (size before relaxing)
 .debug_str     0x0000c34f       0x53 examples/light_switch/provisioner/CMakeFiles/light_switch_provisioner_nrf52840_xxAA_s140_6.0.0.dir/__/__/__/mesh/core/src/msqueue.c.obj
                                0x6bf (size before relaxing)
 .debug_str     0x0000c3a2       0xbf examples/light_switch/provisioner/CMakeFiles/light_switch_provisioner_nrf52840_xxAA_s140_6.0.0.dir/__/__/__/mesh/core/src/nrf_mesh_keygen.c.obj
                                0x397 (size before relaxing)
 .debug_str     0x0000c461       0x7d examples/light_switch/provisioner/CMakeFiles/light_switch_provisioner_nrf52840_xxAA_s140_6.0.0.dir/__/__/__/mesh/core/src/list.c.obj
                                0x2be (size before relaxing)
 .debug_str     0x0000c4de       0xf7 examples/light_switch/provisioner/CMakeFiles/light_switch_provisioner_nrf52840_xxAA_s140_6.0.0.dir/__/__/__/mesh/core/src/log.c.obj
                                0x7d0 (size before relaxing)
 .debug_str     0x0000c5d5      0x4e7 examples/light_switch/provisioner/CMakeFiles/light_switch_provisioner_nrf52840_xxAA_s140_6.0.0.dir/__/__/__/mesh/core/src/flash_manager.c.obj
                               0x1578 (size before relaxing)
 .debug_str     0x0000cabc       0x85 examples/light_switch/provisioner/CMakeFiles/light_switch_provisioner_nrf52840_xxAA_s140_6.0.0.dir/__/__/__/mesh/core/src/ccm_soft.c.obj
                                0x75d (size before relaxing)
 .debug_str     0x0000cb41       0x92 examples/light_switch/provisioner/CMakeFiles/light_switch_provisioner_nrf52840_xxAA_s140_6.0.0.dir/__/__/__/mesh/core/src/replay_cache.c.obj
                                0x68d (size before relaxing)
 .debug_str     0x0000cbd3       0xd4 examples/light_switch/provisioner/CMakeFiles/light_switch_provisioner_nrf52840_xxAA_s140_6.0.0.dir/__/__/__/mesh/core/src/beacon.c.obj
                               0x1103 (size before relaxing)
 .debug_str     0x0000cca7       0x38 examples/light_switch/provisioner/CMakeFiles/light_switch_provisioner_nrf52840_xxAA_s140_6.0.0.dir/__/__/__/mesh/core/src/flash_manager_internal.c.obj
                                0x7a4 (size before relaxing)
 .debug_str     0x0000ccdf      0x2c7 examples/light_switch/provisioner/CMakeFiles/light_switch_provisioner_nrf52840_xxAA_s140_6.0.0.dir/__/__/__/mesh/core/src/core_tx.c.obj
                                0xbef (size before relaxing)
 .debug_str     0x0000cfa6      0x418 examples/light_switch/provisioner/CMakeFiles/light_switch_provisioner_nrf52840_xxAA_s140_6.0.0.dir/__/__/__/mesh/core/src/heartbeat.c.obj
                               0x2240 (size before relaxing)
 .debug_str     0x0000d3be      0x25c examples/light_switch/provisioner/CMakeFiles/light_switch_provisioner_nrf52840_xxAA_s140_6.0.0.dir/__/__/__/mesh/core/src/net_beacon.c.obj
                               0x20a0 (size before relaxing)
 .debug_str     0x0000d61a      0x107 examples/light_switch/provisioner/CMakeFiles/light_switch_provisioner_nrf52840_xxAA_s140_6.0.0.dir/__/__/__/mesh/core/src/core_tx_adv.c.obj
                               0x12d9 (size before relaxing)
 .debug_str     0x0000d721      0x186 examples/light_switch/provisioner/CMakeFiles/light_switch_provisioner_nrf52840_xxAA_s140_6.0.0.dir/__/__/__/mesh/bearer/src/ad_listener.c.obj
                                0xbe2 (size before relaxing)
 .debug_str     0x0000d8a7      0x162 examples/light_switch/provisioner/CMakeFiles/light_switch_provisioner_nrf52840_xxAA_s140_6.0.0.dir/__/__/__/mesh/bearer/src/ad_type_filter.c.obj
                                0x99f (size before relaxing)
 .debug_str     0x0000da09      0x321 examples/light_switch/provisioner/CMakeFiles/light_switch_provisioner_nrf52840_xxAA_s140_6.0.0.dir/__/__/__/mesh/bearer/src/advertiser.c.obj
                               0x1561 (size before relaxing)
 .debug_str     0x0000dd2a      0x45c examples/light_switch/provisioner/CMakeFiles/light_switch_provisioner_nrf52840_xxAA_s140_6.0.0.dir/__/__/__/mesh/bearer/src/bearer_handler.c.obj
                               0x10f0 (size before relaxing)
 .debug_str     0x0000e186      0x1ac examples/light_switch/provisioner/CMakeFiles/light_switch_provisioner_nrf52840_xxAA_s140_6.0.0.dir/__/__/__/mesh/bearer/src/broadcast.c.obj
                               0x1062 (size before relaxing)
 .debug_str     0x0000e332       0x72 examples/light_switch/provisioner/CMakeFiles/light_switch_provisioner_nrf52840_xxAA_s140_6.0.0.dir/__/__/__/mesh/bearer/src/filter_engine.c.obj
                                0x80c (size before relaxing)
 .debug_str     0x0000e3a4       0x79 examples/light_switch/provisioner/CMakeFiles/light_switch_provisioner_nrf52840_xxAA_s140_6.0.0.dir/__/__/__/mesh/bearer/src/radio_config.c.obj
                                0x8b0 (size before relaxing)
 .debug_str     0x0000e41d      0x45d examples/light_switch/provisioner/CMakeFiles/light_switch_provisioner_nrf52840_xxAA_s140_6.0.0.dir/__/__/__/mesh/bearer/src/scanner.c.obj
                               0x1a39 (size before relaxing)
 .debug_str     0x0000e87a      0xd13 examples/light_switch/provisioner/CMakeFiles/light_switch_provisioner_nrf52840_xxAA_s140_6.0.0.dir/__/__/__/models/config/src/config_client.c.obj
                               0x2bf5 (size before relaxing)
 .debug_str     0x0000f58d      0x22b examples/light_switch/provisioner/CMakeFiles/light_switch_provisioner_nrf52840_xxAA_s140_6.0.0.dir/__/__/__/models/config/src/composition_data.c.obj
                                0x8dd (size before relaxing)
 .debug_str     0x0000f7b8     0x1104 examples/light_switch/provisioner/CMakeFiles/light_switch_provisioner_nrf52840_xxAA_s140_6.0.0.dir/__/__/__/models/config/src/config_server.c.obj
                               0x4fe9 (size before relaxing)
 .debug_str     0x000108bc       0x69 examples/light_switch/provisioner/CMakeFiles/light_switch_provisioner_nrf52840_xxAA_s140_6.0.0.dir/__/__/__/models/config/src/packed_index_list.c.obj
                                0x24d (size before relaxing)
 .debug_str     0x00010925      0x607 examples/light_switch/provisioner/CMakeFiles/light_switch_provisioner_nrf52840_xxAA_s140_6.0.0.dir/__/__/__/models/health/src/health_server.c.obj
                               0x169f (size before relaxing)
 .debug_str     0x00010f2c      0x193 examples/light_switch/provisioner/CMakeFiles/light_switch_provisioner_nrf52840_xxAA_s140_6.0.0.dir/__/__/__/models/health/src/health_client.c.obj
                               0x1440 (size before relaxing)
 .debug_str     0x000110bf      0x264 examples/light_switch/provisioner/CMakeFiles/light_switch_provisioner_nrf52840_xxAA_s140_6.0.0.dir/__/__/__/mesh/access/src/access_publish.c.obj
                                0xbcc (size before relaxing)
 .debug_str     0x00011323      0x785 examples/light_switch/provisioner/CMakeFiles/light_switch_provisioner_nrf52840_xxAA_s140_6.0.0.dir/__/__/__/mesh/access/src/access.c.obj
                               0x2f65 (size before relaxing)
 .debug_str     0x00011aa8      0x12f examples/light_switch/provisioner/CMakeFiles/light_switch_provisioner_nrf52840_xxAA_s140_6.0.0.dir/__/__/__/mesh/access/src/access_reliable.c.obj
                               0x1006 (size before relaxing)
 .debug_str     0x00011bd7      0xcc5 examples/light_switch/provisioner/CMakeFiles/light_switch_provisioner_nrf52840_xxAA_s140_6.0.0.dir/__/__/__/mesh/access/src/device_state_manager.c.obj
                               0x3068 (size before relaxing)
 .debug_str     0x0001289c      0x501 examples/light_switch/provisioner/CMakeFiles/light_switch_provisioner_nrf52840_xxAA_s140_6.0.0.dir/__/__/__/mesh/prov/src/prov_provisioner.c.obj
                               0x1f74 (size before relaxing)
 .debug_str     0x00012d9d      0x201 examples/light_switch/provisioner/CMakeFiles/light_switch_provisioner_nrf52840_xxAA_s140_6.0.0.dir/__/__/__/mesh/prov/src/nrf_mesh_prov.c.obj
                               0x1dda (size before relaxing)
 .debug_str     0x00012f9e      0x105 examples/light_switch/provisioner/CMakeFiles/light_switch_provisioner_nrf52840_xxAA_s140_6.0.0.dir/__/__/__/mesh/prov/src/provisioning.c.obj
                                0xf2b (size before relaxing)
 .debug_str     0x000130a3       0xb1 examples/light_switch/provisioner/CMakeFiles/light_switch_provisioner_nrf52840_xxAA_s140_6.0.0.dir/__/__/__/mesh/prov/src/prov_beacon.c.obj
                               0x195c (size before relaxing)
 .debug_str     0x00013154      0x180 examples/light_switch/provisioner/CMakeFiles/light_switch_provisioner_nrf52840_xxAA_s140_6.0.0.dir/__/__/__/mesh/prov/src/prov_utils.c.obj
                               0x1f04 (size before relaxing)
 .debug_str     0x000132d4      0x417 examples/light_switch/provisioner/CMakeFiles/light_switch_provisioner_nrf52840_xxAA_s140_6.0.0.dir/__/__/__/mesh/prov/src/prov_bearer_adv.c.obj
                               0x1bc0 (size before relaxing)
 .debug_str     0x000136eb      0x3c1 examples/light_switch/provisioner/CMakeFiles/light_switch_provisioner_nrf52840_xxAA_s140_6.0.0.dir/C_/ver/mod/nRF5_SDK_15.0.0_a53641a/modules/nrfx/mdk/system_nrf52840.c.obj
                                0x917 (size before relaxing)
 .debug_str     0x00013aac       0x60 examples/light_switch/provisioner/CMakeFiles/light_switch_provisioner_nrf52840_xxAA_s140_6.0.0.dir/C_/ver/mod/nRF5_SDK_15.0.0_a53641a/components/libraries/util/app_error_handler_gcc.c.obj
                                0x68f (size before relaxing)
 .debug_str     0x00013b0c      0x2bf external/rtt/librtt_nrf52840_xxAA.a(SEGGER_RTT.c.obj)
                                0x922 (size before relaxing)
 .debug_str     0x00013dcb       0xdf external/rtt/librtt_nrf52840_xxAA.a(SEGGER_RTT_printf.c.obj)
                                0x792 (size before relaxing)
 .debug_str     0x00013eaa      0x691 external/micro-ecc/libuECC_nrf52840_xxAA.a(uECC.c.obj)
                                0x880 (size before relaxing)

.debug_frame    0x00000000     0x7678
 .debug_frame   0x00000000      0x2d0 examples/light_switch/provisioner/CMakeFiles/light_switch_provisioner_nrf52840_xxAA_s140_6.0.0.dir/src/main.c.obj
 .debug_frame   0x000002d0       0xcc examples/light_switch/provisioner/CMakeFiles/light_switch_provisioner_nrf52840_xxAA_s140_6.0.0.dir/__/__/__/mesh/stack/src/mesh_stack.c.obj
 .debug_frame   0x0000039c       0xf8 examples/light_switch/provisioner/CMakeFiles/light_switch_provisioner_nrf52840_xxAA_s140_6.0.0.dir/src/provisioner_helper.c.obj
 .debug_frame   0x00000494      0x12c examples/light_switch/provisioner/CMakeFiles/light_switch_provisioner_nrf52840_xxAA_s140_6.0.0.dir/src/node_setup.c.obj
 .debug_frame   0x000005c0       0x80 examples/light_switch/provisioner/CMakeFiles/light_switch_provisioner_nrf52840_xxAA_s140_6.0.0.dir/__/__/common/src/mesh_softdevice_init.c.obj
 .debug_frame   0x00000640       0x54 examples/light_switch/provisioner/CMakeFiles/light_switch_provisioner_nrf52840_xxAA_s140_6.0.0.dir/__/__/common/src/rtt_input.c.obj
 .debug_frame   0x00000694       0xa0 examples/light_switch/provisioner/CMakeFiles/light_switch_provisioner_nrf52840_xxAA_s140_6.0.0.dir/__/__/common/src/simple_hal.c.obj
 .debug_frame   0x00000734       0x30 examples/light_switch/provisioner/CMakeFiles/light_switch_provisioner_nrf52840_xxAA_s140_6.0.0.dir/__/__/nrf_mesh_weak.c.obj
 .debug_frame   0x00000764       0x34 examples/light_switch/provisioner/CMakeFiles/light_switch_provisioner_nrf52840_xxAA_s140_6.0.0.dir/__/__/common/src/app_error_weak.c.obj
 .debug_frame   0x00000798       0x28 examples/light_switch/provisioner/CMakeFiles/light_switch_provisioner_nrf52840_xxAA_s140_6.0.0.dir/__/__/common/src/assertion_handler_weak.c.obj
 .debug_frame   0x000007c0       0x4c examples/light_switch/provisioner/CMakeFiles/light_switch_provisioner_nrf52840_xxAA_s140_6.0.0.dir/__/__/__/mesh/core/src/nrf_mesh_configure.c.obj
 .debug_frame   0x0000080c       0x40 examples/light_switch/provisioner/CMakeFiles/light_switch_provisioner_nrf52840_xxAA_s140_6.0.0.dir/__/__/__/mesh/core/src/aes.c.obj
 .debug_frame   0x0000084c       0x6c examples/light_switch/provisioner/CMakeFiles/light_switch_provisioner_nrf52840_xxAA_s140_6.0.0.dir/__/__/__/mesh/core/src/msg_cache.c.obj
 .debug_frame   0x000008b8      0x404 examples/light_switch/provisioner/CMakeFiles/light_switch_provisioner_nrf52840_xxAA_s140_6.0.0.dir/__/__/__/mesh/core/src/transport.c.obj
 .debug_frame   0x00000cbc       0x64 examples/light_switch/provisioner/CMakeFiles/light_switch_provisioner_nrf52840_xxAA_s140_6.0.0.dir/__/__/__/mesh/core/src/event.c.obj
 .debug_frame   0x00000d20      0x128 examples/light_switch/provisioner/CMakeFiles/light_switch_provisioner_nrf52840_xxAA_s140_6.0.0.dir/__/__/__/mesh/core/src/packet_buffer.c.obj
 .debug_frame   0x00000e48      0x24c examples/light_switch/provisioner/CMakeFiles/light_switch_provisioner_nrf52840_xxAA_s140_6.0.0.dir/__/__/__/mesh/core/src/flash_manager_defrag.c.obj
 .debug_frame   0x00001094       0xd0 examples/light_switch/provisioner/CMakeFiles/light_switch_provisioner_nrf52840_xxAA_s140_6.0.0.dir/__/__/__/mesh/core/src/fifo.c.obj
 .debug_frame   0x00001164       0x54 examples/light_switch/provisioner/CMakeFiles/light_switch_provisioner_nrf52840_xxAA_s140_6.0.0.dir/__/__/__/mesh/core/src/nrf_flash.c.obj
 .debug_frame   0x000011b8       0xa0 examples/light_switch/provisioner/CMakeFiles/light_switch_provisioner_nrf52840_xxAA_s140_6.0.0.dir/__/__/__/mesh/core/src/packet_mgr.c.obj
 .debug_frame   0x00001258      0x298 examples/light_switch/provisioner/CMakeFiles/light_switch_provisioner_nrf52840_xxAA_s140_6.0.0.dir/__/__/__/mesh/core/src/net_state.c.obj
 .debug_frame   0x000014f0      0x150 examples/light_switch/provisioner/CMakeFiles/light_switch_provisioner_nrf52840_xxAA_s140_6.0.0.dir/__/__/__/mesh/core/src/mesh_flash.c.obj
 .debug_frame   0x00001640       0x50 examples/light_switch/provisioner/CMakeFiles/light_switch_provisioner_nrf52840_xxAA_s140_6.0.0.dir/__/__/__/mesh/core/src/nrf_mesh_utils.c.obj
 .debug_frame   0x00001690      0x190 examples/light_switch/provisioner/CMakeFiles/light_switch_provisioner_nrf52840_xxAA_s140_6.0.0.dir/__/__/__/mesh/core/src/nrf_mesh.c.obj
 .debug_frame   0x00001820       0x74 examples/light_switch/provisioner/CMakeFiles/light_switch_provisioner_nrf52840_xxAA_s140_6.0.0.dir/__/__/__/mesh/core/src/queue.c.obj
 .debug_frame   0x00001894       0x48 examples/light_switch/provisioner/CMakeFiles/light_switch_provisioner_nrf52840_xxAA_s140_6.0.0.dir/__/__/__/mesh/core/src/hal.c.obj
 .debug_frame   0x000018dc       0xa4 examples/light_switch/provisioner/CMakeFiles/light_switch_provisioner_nrf52840_xxAA_s140_6.0.0.dir/__/__/__/mesh/core/src/aes_cmac.c.obj
 .debug_frame   0x00001980      0x134 examples/light_switch/provisioner/CMakeFiles/light_switch_provisioner_nrf52840_xxAA_s140_6.0.0.dir/__/__/__/mesh/core/src/timer_scheduler.c.obj
 .debug_frame   0x00001ab4      0x10c examples/light_switch/provisioner/CMakeFiles/light_switch_provisioner_nrf52840_xxAA_s140_6.0.0.dir/__/__/__/mesh/core/src/timer.c.obj
 .debug_frame   0x00001bc0       0x4c examples/light_switch/provisioner/CMakeFiles/light_switch_provisioner_nrf52840_xxAA_s140_6.0.0.dir/__/__/__/mesh/core/src/ticker.c.obj
 .debug_frame   0x00001c0c       0x84 examples/light_switch/provisioner/CMakeFiles/light_switch_provisioner_nrf52840_xxAA_s140_6.0.0.dir/__/__/__/mesh/core/src/rand.c.obj
 .debug_frame   0x00001c90       0x30 examples/light_switch/provisioner/CMakeFiles/light_switch_provisioner_nrf52840_xxAA_s140_6.0.0.dir/__/__/__/mesh/core/src/nrf_mesh_opt.c.obj
 .debug_frame   0x00001cc0      0x1a0 examples/light_switch/provisioner/CMakeFiles/light_switch_provisioner_nrf52840_xxAA_s140_6.0.0.dir/__/__/__/mesh/core/src/timeslot.c.obj
 .debug_frame   0x00001e60      0x1bc examples/light_switch/provisioner/CMakeFiles/light_switch_provisioner_nrf52840_xxAA_s140_6.0.0.dir/__/__/__/mesh/core/src/bearer_event.c.obj
 .debug_frame   0x0000201c      0x13c examples/light_switch/provisioner/CMakeFiles/light_switch_provisioner_nrf52840_xxAA_s140_6.0.0.dir/__/__/__/mesh/core/src/enc.c.obj
 .debug_frame   0x00002158      0x100 examples/light_switch/provisioner/CMakeFiles/light_switch_provisioner_nrf52840_xxAA_s140_6.0.0.dir/__/__/__/mesh/core/src/network.c.obj
 .debug_frame   0x00002258      0x114 examples/light_switch/provisioner/CMakeFiles/light_switch_provisioner_nrf52840_xxAA_s140_6.0.0.dir/__/__/__/mesh/core/src/net_packet.c.obj
 .debug_frame   0x0000236c       0xb4 examples/light_switch/provisioner/CMakeFiles/light_switch_provisioner_nrf52840_xxAA_s140_6.0.0.dir/__/__/__/mesh/core/src/msqueue.c.obj
 .debug_frame   0x00002420       0xb4 examples/light_switch/provisioner/CMakeFiles/light_switch_provisioner_nrf52840_xxAA_s140_6.0.0.dir/__/__/__/mesh/core/src/nrf_mesh_keygen.c.obj
 .debug_frame   0x000024d4       0xc8 examples/light_switch/provisioner/CMakeFiles/light_switch_provisioner_nrf52840_xxAA_s140_6.0.0.dir/__/__/__/mesh/core/src/list.c.obj
 .debug_frame   0x0000259c       0xb0 examples/light_switch/provisioner/CMakeFiles/light_switch_provisioner_nrf52840_xxAA_s140_6.0.0.dir/__/__/__/mesh/core/src/log.c.obj
 .debug_frame   0x0000264c      0x320 examples/light_switch/provisioner/CMakeFiles/light_switch_provisioner_nrf52840_xxAA_s140_6.0.0.dir/__/__/__/mesh/core/src/flash_manager.c.obj
 .debug_frame   0x0000296c      0x10c examples/light_switch/provisioner/CMakeFiles/light_switch_provisioner_nrf52840_xxAA_s140_6.0.0.dir/__/__/__/mesh/core/src/ccm_soft.c.obj
 .debug_frame   0x00002a78       0x80 examples/light_switch/provisioner/CMakeFiles/light_switch_provisioner_nrf52840_xxAA_s140_6.0.0.dir/__/__/__/mesh/core/src/replay_cache.c.obj
 .debug_frame   0x00002af8       0x60 examples/light_switch/provisioner/CMakeFiles/light_switch_provisioner_nrf52840_xxAA_s140_6.0.0.dir/__/__/__/mesh/core/src/beacon.c.obj
 .debug_frame   0x00002b58       0x34 examples/light_switch/provisioner/CMakeFiles/light_switch_provisioner_nrf52840_xxAA_s140_6.0.0.dir/__/__/__/mesh/core/src/flash_manager_internal.c.obj
 .debug_frame   0x00002b8c       0xf0 examples/light_switch/provisioner/CMakeFiles/light_switch_provisioner_nrf52840_xxAA_s140_6.0.0.dir/__/__/__/mesh/core/src/core_tx.c.obj
 .debug_frame   0x00002c7c      0x160 examples/light_switch/provisioner/CMakeFiles/light_switch_provisioner_nrf52840_xxAA_s140_6.0.0.dir/__/__/__/mesh/core/src/heartbeat.c.obj
 .debug_frame   0x00002ddc      0x138 examples/light_switch/provisioner/CMakeFiles/light_switch_provisioner_nrf52840_xxAA_s140_6.0.0.dir/__/__/__/mesh/core/src/net_beacon.c.obj
 .debug_frame   0x00002f14      0x12c examples/light_switch/provisioner/CMakeFiles/light_switch_provisioner_nrf52840_xxAA_s140_6.0.0.dir/__/__/__/mesh/core/src/core_tx_adv.c.obj
 .debug_frame   0x00003040       0x6c examples/light_switch/provisioner/CMakeFiles/light_switch_provisioner_nrf52840_xxAA_s140_6.0.0.dir/__/__/__/mesh/bearer/src/ad_listener.c.obj
 .debug_frame   0x000030ac       0xa8 examples/light_switch/provisioner/CMakeFiles/light_switch_provisioner_nrf52840_xxAA_s140_6.0.0.dir/__/__/__/mesh/bearer/src/ad_type_filter.c.obj
 .debug_frame   0x00003154      0x268 examples/light_switch/provisioner/CMakeFiles/light_switch_provisioner_nrf52840_xxAA_s140_6.0.0.dir/__/__/__/mesh/bearer/src/advertiser.c.obj
 .debug_frame   0x000033bc      0x158 examples/light_switch/provisioner/CMakeFiles/light_switch_provisioner_nrf52840_xxAA_s140_6.0.0.dir/__/__/__/mesh/bearer/src/bearer_handler.c.obj
 .debug_frame   0x00003514       0x70 examples/light_switch/provisioner/CMakeFiles/light_switch_provisioner_nrf52840_xxAA_s140_6.0.0.dir/__/__/__/mesh/bearer/src/broadcast.c.obj
 .debug_frame   0x00003584       0x74 examples/light_switch/provisioner/CMakeFiles/light_switch_provisioner_nrf52840_xxAA_s140_6.0.0.dir/__/__/__/mesh/bearer/src/filter_engine.c.obj
 .debug_frame   0x000035f8       0x94 examples/light_switch/provisioner/CMakeFiles/light_switch_provisioner_nrf52840_xxAA_s140_6.0.0.dir/__/__/__/mesh/bearer/src/radio_config.c.obj
 .debug_frame   0x0000368c      0x2a4 examples/light_switch/provisioner/CMakeFiles/light_switch_provisioner_nrf52840_xxAA_s140_6.0.0.dir/__/__/__/mesh/bearer/src/scanner.c.obj
 .debug_frame   0x00003930      0x628 examples/light_switch/provisioner/CMakeFiles/light_switch_provisioner_nrf52840_xxAA_s140_6.0.0.dir/__/__/__/models/config/src/config_client.c.obj
 .debug_frame   0x00003f58       0x40 examples/light_switch/provisioner/CMakeFiles/light_switch_provisioner_nrf52840_xxAA_s140_6.0.0.dir/__/__/__/models/config/src/composition_data.c.obj
 .debug_frame   0x00003f98      0x8bc examples/light_switch/provisioner/CMakeFiles/light_switch_provisioner_nrf52840_xxAA_s140_6.0.0.dir/__/__/__/models/config/src/config_server.c.obj
 .debug_frame   0x00004854       0x2c examples/light_switch/provisioner/CMakeFiles/light_switch_provisioner_nrf52840_xxAA_s140_6.0.0.dir/__/__/__/models/config/src/packed_index_list.c.obj
 .debug_frame   0x00004880      0x2a0 examples/light_switch/provisioner/CMakeFiles/light_switch_provisioner_nrf52840_xxAA_s140_6.0.0.dir/__/__/__/models/health/src/health_server.c.obj
 .debug_frame   0x00004b20      0x1bc examples/light_switch/provisioner/CMakeFiles/light_switch_provisioner_nrf52840_xxAA_s140_6.0.0.dir/__/__/__/models/health/src/health_client.c.obj
 .debug_frame   0x00004cdc      0x114 examples/light_switch/provisioner/CMakeFiles/light_switch_provisioner_nrf52840_xxAA_s140_6.0.0.dir/__/__/__/mesh/access/src/access_publish.c.obj
 .debug_frame   0x00004df0      0x5c0 examples/light_switch/provisioner/CMakeFiles/light_switch_provisioner_nrf52840_xxAA_s140_6.0.0.dir/__/__/__/mesh/access/src/access.c.obj
 .debug_frame   0x000053b0      0x124 examples/light_switch/provisioner/CMakeFiles/light_switch_provisioner_nrf52840_xxAA_s140_6.0.0.dir/__/__/__/mesh/access/src/access_reliable.c.obj
 .debug_frame   0x000054d4      0xab8 examples/light_switch/provisioner/CMakeFiles/light_switch_provisioner_nrf52840_xxAA_s140_6.0.0.dir/__/__/__/mesh/access/src/device_state_manager.c.obj
 .debug_frame   0x00005f8c      0x190 examples/light_switch/provisioner/CMakeFiles/light_switch_provisioner_nrf52840_xxAA_s140_6.0.0.dir/__/__/__/mesh/prov/src/prov_provisioner.c.obj
 .debug_frame   0x0000611c      0x160 examples/light_switch/provisioner/CMakeFiles/light_switch_provisioner_nrf52840_xxAA_s140_6.0.0.dir/__/__/__/mesh/prov/src/nrf_mesh_prov.c.obj
 .debug_frame   0x0000627c      0x170 examples/light_switch/provisioner/CMakeFiles/light_switch_provisioner_nrf52840_xxAA_s140_6.0.0.dir/__/__/__/mesh/prov/src/provisioning.c.obj
 .debug_frame   0x000063ec       0x84 examples/light_switch/provisioner/CMakeFiles/light_switch_provisioner_nrf52840_xxAA_s140_6.0.0.dir/__/__/__/mesh/prov/src/prov_beacon.c.obj
 .debug_frame   0x00006470      0x150 examples/light_switch/provisioner/CMakeFiles/light_switch_provisioner_nrf52840_xxAA_s140_6.0.0.dir/__/__/__/mesh/prov/src/prov_utils.c.obj
 .debug_frame   0x000065c0      0x324 examples/light_switch/provisioner/CMakeFiles/light_switch_provisioner_nrf52840_xxAA_s140_6.0.0.dir/__/__/__/mesh/prov/src/prov_bearer_adv.c.obj
 .debug_frame   0x000068e4       0x48 examples/light_switch/provisioner/CMakeFiles/light_switch_provisioner_nrf52840_xxAA_s140_6.0.0.dir/C_/ver/mod/nRF5_SDK_15.0.0_a53641a/modules/nrfx/mdk/system_nrf52840.c.obj
 .debug_frame   0x0000692c       0x20 examples/light_switch/provisioner/CMakeFiles/light_switch_provisioner_nrf52840_xxAA_s140_6.0.0.dir/C_/ver/mod/nRF5_SDK_15.0.0_a53641a/components/libraries/util/app_error_handler_gcc.c.obj
 .debug_frame   0x0000694c      0x2d8 external/rtt/librtt_nrf52840_xxAA.a(SEGGER_RTT.c.obj)
 .debug_frame   0x00006c24       0xac external/rtt/librtt_nrf52840_xxAA.a(SEGGER_RTT_printf.c.obj)
 .debug_frame   0x00006cd0      0x684 external/micro-ecc/libuECC_nrf52840_xxAA.a(uECC.c.obj)
 .debug_frame   0x00007354       0x2c c:/mesh/arm_gcc/bin/../lib/gcc/arm-none-eabi/6.3.1/thumb/v7e-m/fpv4-sp/hard\libgcc.a(_aeabi_uldivmod.o)
 .debug_frame   0x00007380       0x34 c:/mesh/arm_gcc/bin/../lib/gcc/arm-none-eabi/6.3.1/thumb/v7e-m/fpv4-sp/hard\libgcc.a(_udivmoddi4.o)
 .debug_frame   0x000073b4       0x28 c:/mesh/arm_gcc/bin/../lib/gcc/arm-none-eabi/6.3.1/../../../../arm-none-eabi/lib/thumb/v7e-m/fpv4-sp/hard\libg_nano.a(lib_a-exit.o)
 .debug_frame   0x000073dc       0x2c c:/mesh/arm_gcc/bin/../lib/gcc/arm-none-eabi/6.3.1/../../../../arm-none-eabi/lib/thumb/v7e-m/fpv4-sp/hard\libg_nano.a(lib_a-init.o)
 .debug_frame   0x00007408       0x30 c:/mesh/arm_gcc/bin/../lib/gcc/arm-none-eabi/6.3.1/../../../../arm-none-eabi/lib/thumb/v7e-m/fpv4-sp/hard\libg_nano.a(lib_a-malloc.o)
 .debug_frame   0x00007438       0x28 c:/mesh/arm_gcc/bin/../lib/gcc/arm-none-eabi/6.3.1/../../../../arm-none-eabi/lib/thumb/v7e-m/fpv4-sp/hard\libg_nano.a(lib_a-memcmp.o)
 .debug_frame   0x00007460       0x28 c:/mesh/arm_gcc/bin/../lib/gcc/arm-none-eabi/6.3.1/../../../../arm-none-eabi/lib/thumb/v7e-m/fpv4-sp/hard\libg_nano.a(lib_a-memcpy-stub.o)
 .debug_frame   0x00007488       0x20 c:/mesh/arm_gcc/bin/../lib/gcc/arm-none-eabi/6.3.1/../../../../arm-none-eabi/lib/thumb/v7e-m/fpv4-sp/hard\libg_nano.a(lib_a-memset.o)
 .debug_frame   0x000074a8       0x38 c:/mesh/arm_gcc/bin/../lib/gcc/arm-none-eabi/6.3.1/../../../../arm-none-eabi/lib/thumb/v7e-m/fpv4-sp/hard\libg_nano.a(lib_a-nano-freer.o)
 .debug_frame   0x000074e0       0x2c c:/mesh/arm_gcc/bin/../lib/gcc/arm-none-eabi/6.3.1/../../../../arm-none-eabi/lib/thumb/v7e-m/fpv4-sp/hard\libg_nano.a(lib_a-nano-mallocr.o)
 .debug_frame   0x0000750c       0x2c c:/mesh/arm_gcc/bin/../lib/gcc/arm-none-eabi/6.3.1/../../../../arm-none-eabi/lib/thumb/v7e-m/fpv4-sp/hard\libg_nano.a(lib_a-sbrkr.o)
 .debug_frame   0x00007538       0x20 c:/mesh/arm_gcc/bin/../lib/gcc/arm-none-eabi/6.3.1/../../../../arm-none-eabi/lib/thumb/v7e-m/fpv4-sp/hard\libg_nano.a(lib_a-strcpy.o)
 .debug_frame   0x00007558       0x34 c:/mesh/arm_gcc/bin/../lib/gcc/arm-none-eabi/6.3.1/../../../../arm-none-eabi/lib/thumb/v7e-m/fpv4-sp/hard\libg_nano.a(lib_a-strrchr.o)
 .debug_frame   0x0000758c       0x30 c:/mesh/arm_gcc/bin/../lib/gcc/arm-none-eabi/6.3.1/../../../../arm-none-eabi/lib/thumb/v7e-m/fpv4-sp/hard\libg_nano.a(lib_a-mlock.o)
 .debug_frame   0x000075bc       0x5c c:/mesh/arm_gcc/bin/../lib/gcc/arm-none-eabi/6.3.1/../../../../arm-none-eabi/lib/thumb/v7e-m/fpv4-sp/hard\libg_nano.a(lib_a-reent.o)
 .debug_frame   0x00007618       0x20 c:/mesh/arm_gcc/bin/../lib/gcc/arm-none-eabi/6.3.1/../../../../arm-none-eabi/lib/thumb/v7e-m/fpv4-sp/hard\libg_nano.a(lib_a-strchr.o)
 .debug_frame   0x00007638       0x20 c:/mesh/arm_gcc/bin/../lib/gcc/arm-none-eabi/6.3.1/../../../../arm-none-eabi/lib/thumb/v7e-m/fpv4-sp/hard\libnosys.a(sbrk.o)
 .debug_frame   0x00007658       0x20 c:/mesh/arm_gcc/bin/../lib/gcc/arm-none-eabi/6.3.1/../../../../arm-none-eabi/lib/thumb/v7e-m/fpv4-sp/hard\libnosys.a(_exit.o)
