Archive member included to satisfy reference by file (symbol)

mesh/core/libmesh_core_nrf52840_xxAA.a(nrf_mesh_configure.c.obj)
                              examples/pb_remote/client/CMakeFiles/pb_remote_client_nrf52840_xxAA_s140_5.0.0-3.alpha.dir/__/__/__/mesh/prov/src/prov_beacon.c.obj (nrf_mesh_configure_device_uuid_get)
mesh/core/libmesh_core_nrf52840_xxAA.a(event.c.obj)
                              examples/pb_remote/client/CMakeFiles/pb_remote_client_nrf52840_xxAA_s140_5.0.0-3.alpha.dir/__/__/__/mesh/access/src/access.c.obj (event_handle)
mesh/core/libmesh_core_nrf52840_xxAA.a(fifo.c.obj)
                              examples/pb_remote/client/CMakeFiles/pb_remote_client_nrf52840_xxAA_s140_5.0.0-3.alpha.dir/__/__/__/models/pb_remote/src/pb_remote_client.c.obj (fifo_init)
mesh/core/libmesh_core_nrf52840_xxAA.a(net_state.c.obj)
                              examples/pb_remote/client/CMakeFiles/pb_remote_client_nrf52840_xxAA_s140_5.0.0-3.alpha.dir/__/__/__/mesh/access/src/device_state_manager.c.obj (net_state_flash_area_get)
mesh/core/libmesh_core_nrf52840_xxAA.a(nrf_mesh_utils.c.obj)
                              examples/pb_remote/client/CMakeFiles/pb_remote_client_nrf52840_xxAA_s140_5.0.0-3.alpha.dir/__/__/__/mesh/prov/src/nrf_mesh_prov.c.obj (nrf_mesh_address_type_get)
mesh/core/libmesh_core_nrf52840_xxAA.a(nrf_mesh.c.obj)
                              examples/pb_remote/client/CMakeFiles/pb_remote_client_nrf52840_xxAA_s140_5.0.0-3.alpha.dir/__/__/nrf_mesh_sdk.c.obj (nrf_mesh_init)
mesh/core/libmesh_core_nrf52840_xxAA.a(hal.c.obj)
                              mesh/core/libmesh_core_nrf52840_xxAA.a(nrf_mesh.c.obj) (hal_lfclk_ppm_get)
mesh/core/libmesh_core_nrf52840_xxAA.a(timer_scheduler.c.obj)
                              mesh/core/libmesh_core_nrf52840_xxAA.a(nrf_mesh.c.obj) (timer_sch_init)
mesh/core/libmesh_core_nrf52840_xxAA.a(timer.c.obj)
                              mesh/core/libmesh_core_nrf52840_xxAA.a(timer_scheduler.c.obj) (timer_order_cb)
mesh/core/libmesh_core_nrf52840_xxAA.a(ticker.c.obj)
                              mesh/core/libmesh_core_nrf52840_xxAA.a(nrf_mesh.c.obj) (ticker_init)
mesh/core/libmesh_core_nrf52840_xxAA.a(rand.c.obj)
                              examples/pb_remote/client/CMakeFiles/pb_remote_client_nrf52840_xxAA_s140_5.0.0-3.alpha.dir/__/__/__/mesh/prov/src/prov_utils.c.obj (rand_hw_rng_get)
mesh/core/libmesh_core_nrf52840_xxAA.a(timeslot.c.obj)
                              mesh/core/libmesh_core_nrf52840_xxAA.a(nrf_mesh.c.obj) (timeslot_sd_event_handler)
mesh/core/libmesh_core_nrf52840_xxAA.a(bearer_event.c.obj)
                              mesh/core/libmesh_core_nrf52840_xxAA.a(nrf_mesh.c.obj) (bearer_event_init)
mesh/core/libmesh_core_nrf52840_xxAA.a(enc.c.obj)
                              examples/pb_remote/client/CMakeFiles/pb_remote_client_nrf52840_xxAA_s140_5.0.0-3.alpha.dir/__/__/__/mesh/prov/src/prov_utils.c.obj (enc_aes_cmac)
mesh/core/libmesh_core_nrf52840_xxAA.a(network.c.obj)
                              mesh/core/libmesh_core_nrf52840_xxAA.a(nrf_mesh.c.obj) (network_init)
mesh/core/libmesh_core_nrf52840_xxAA.a(nrf_mesh_keygen.c.obj)
                              examples/pb_remote/client/CMakeFiles/pb_remote_client_nrf52840_xxAA_s140_5.0.0-3.alpha.dir/__/__/__/mesh/access/src/device_state_manager.c.obj (nrf_mesh_keygen_aid)
mesh/core/libmesh_core_nrf52840_xxAA.a(list.c.obj)
                              mesh/core/libmesh_core_nrf52840_xxAA.a(event.c.obj) (list_add)
mesh/core/libmesh_core_nrf52840_xxAA.a(log.c.obj)
                              examples/pb_remote/client/CMakeFiles/pb_remote_client_nrf52840_xxAA_s140_5.0.0-3.alpha.dir/src/main.c.obj (log_callback_rtt)
mesh/core/libmesh_core_nrf52840_xxAA.a(flash_manager.c.obj)
                              mesh/core/libmesh_core_nrf52840_xxAA.a(nrf_mesh.c.obj) (flash_manager_init)
mesh/core/libmesh_core_nrf52840_xxAA.a(ccm_soft.c.obj)
                              mesh/core/libmesh_core_nrf52840_xxAA.a(enc.c.obj) (ccm_soft_encrypt)
mesh/core/libmesh_core_nrf52840_xxAA.a(beacon.c.obj)
                              mesh/core/libmesh_core_nrf52840_xxAA.a(nrf_mesh.c.obj) (beacon_init)
mesh/core/libmesh_core_nrf52840_xxAA.a(flash_manager_internal.c.obj)
                              mesh/core/libmesh_core_nrf52840_xxAA.a(flash_manager.c.obj) (entry_get)
mesh/core/libmesh_core_nrf52840_xxAA.a(core_tx.c.obj)
                              mesh/core/libmesh_core_nrf52840_xxAA.a(network.c.obj) (core_tx_packet_alloc)
mesh/core/libmesh_core_nrf52840_xxAA.a(heartbeat.c.obj)
                              mesh/core/libmesh_core_nrf52840_xxAA.a(network.c.obj) (heartbeat_on_feature_change_trigger)
mesh/core/libmesh_core_nrf52840_xxAA.a(net_beacon.c.obj)
                              mesh/core/libmesh_core_nrf52840_xxAA.a(network.c.obj) (net_beacon_init)
mesh/core/libmesh_core_nrf52840_xxAA.a(core_tx_adv.c.obj)
                              mesh/core/libmesh_core_nrf52840_xxAA.a(nrf_mesh.c.obj) (core_tx_adv_init)
mesh/core/libmesh_core_nrf52840_xxAA.a(ad_listener.c.obj)
                              mesh/core/libmesh_core_nrf52840_xxAA.a(nrf_mesh.c.obj) (ad_listener_subscribe)
mesh/core/libmesh_core_nrf52840_xxAA.a(ad_type_filter.c.obj)
                              mesh/core/libmesh_core_nrf52840_xxAA.a(ad_listener.c.obj) (bearer_adtype_filtering_set)
mesh/core/libmesh_core_nrf52840_xxAA.a(advertiser.c.obj)
                              mesh/core/libmesh_core_nrf52840_xxAA.a(nrf_mesh.c.obj) (advertiser_init)
mesh/core/libmesh_core_nrf52840_xxAA.a(bearer_handler.c.obj)
                              mesh/core/libmesh_core_nrf52840_xxAA.a(nrf_mesh.c.obj) (bearer_handler_init)
mesh/core/libmesh_core_nrf52840_xxAA.a(broadcast.c.obj)
                              mesh/core/libmesh_core_nrf52840_xxAA.a(advertiser.c.obj) (broadcast_send)
mesh/core/libmesh_core_nrf52840_xxAA.a(filter_engine.c.obj)
                              mesh/core/libmesh_core_nrf52840_xxAA.a(ad_type_filter.c.obj) (fen_filter_start)
mesh/core/libmesh_core_nrf52840_xxAA.a(radio_config.c.obj)
                              mesh/core/libmesh_core_nrf52840_xxAA.a(broadcast.c.obj) (radio_config_reset)
mesh/core/libmesh_core_nrf52840_xxAA.a(scanner.c.obj)
                              mesh/core/libmesh_core_nrf52840_xxAA.a(bearer_handler.c.obj) (scanner_radio_start)
mesh/core/libmesh_core_nrf52840_xxAA.a(internal_event.c.obj)
                              mesh/core/libmesh_core_nrf52840_xxAA.a(network.c.obj) (internal_event_push)
mesh/core/libmesh_core_nrf52840_xxAA.a(aes.c.obj)
                              mesh/core/libmesh_core_nrf52840_xxAA.a(enc.c.obj) (aes_encrypt)
mesh/core/libmesh_core_nrf52840_xxAA.a(msg_cache.c.obj)
                              mesh/core/libmesh_core_nrf52840_xxAA.a(nrf_mesh.c.obj) (msg_cache_init)
mesh/core/libmesh_core_nrf52840_xxAA.a(transport.c.obj)
                              mesh/core/libmesh_core_nrf52840_xxAA.a(nrf_mesh.c.obj) (transport_init)
mesh/core/libmesh_core_nrf52840_xxAA.a(packet_buffer.c.obj)
                              mesh/core/libmesh_core_nrf52840_xxAA.a(flash_manager.c.obj) (packet_buffer_init)
mesh/core/libmesh_core_nrf52840_xxAA.a(flash_manager_defrag.c.obj)
                              mesh/core/libmesh_core_nrf52840_xxAA.a(flash_manager.c.obj) (flash_manager_defrag_init)
mesh/core/libmesh_core_nrf52840_xxAA.a(packet_mgr.c.obj)
                              mesh/core/libmesh_core_nrf52840_xxAA.a(nrf_mesh.c.obj) (packet_mgr_init)
mesh/core/libmesh_core_nrf52840_xxAA.a(mesh_flash.c.obj)
                              mesh/core/libmesh_core_nrf52840_xxAA.a(flash_manager.c.obj) (mesh_flash_user_callback_set)
mesh/core/libmesh_core_nrf52840_xxAA.a(queue.c.obj)
                              mesh/core/libmesh_core_nrf52840_xxAA.a(bearer_event.c.obj) (queue_init)
mesh/core/libmesh_core_nrf52840_xxAA.a(aes_cmac.c.obj)
                              mesh/core/libmesh_core_nrf52840_xxAA.a(enc.c.obj) (aes_cmac)
mesh/core/libmesh_core_nrf52840_xxAA.a(nrf_mesh_opt.c.obj)
                              mesh/core/libmesh_core_nrf52840_xxAA.a(heartbeat.c.obj) (nrf_mesh_opt_get)
mesh/core/libmesh_core_nrf52840_xxAA.a(msqueue.c.obj)
                              mesh/core/libmesh_core_nrf52840_xxAA.a(mesh_flash.c.obj) (msq_get)
mesh/core/libmesh_core_nrf52840_xxAA.a(replay_cache.c.obj)
                              mesh/core/libmesh_core_nrf52840_xxAA.a(transport.c.obj) (replay_cache_add)
mesh/core/libmesh_core_nrf52840_xxAA.a(nrf_flash.c.obj)
                              mesh/core/libmesh_core_nrf52840_xxAA.a(mesh_flash.c.obj) (nrf_flash_erase)
external/rtt/librtt_nrf52840_xxAA.a(SEGGER_RTT.c.obj)
                              mesh/core/libmesh_core_nrf52840_xxAA.a(log.c.obj) (SEGGER_RTT_Write)
external/rtt/librtt_nrf52840_xxAA.a(SEGGER_RTT_printf.c.obj)
                              mesh/core/libmesh_core_nrf52840_xxAA.a(log.c.obj) (SEGGER_RTT_vprintf)
external/micro-ecc/libuECC_nrf52840_xxAA.a(uECC.c.obj)
                              examples/pb_remote/client/CMakeFiles/pb_remote_client_nrf52840_xxAA_s140_5.0.0-3.alpha.dir/__/__/__/mesh/prov/src/prov_utils.c.obj (uECC_secp256r1)
c:/a/gcc_arm/6/bin/../lib/gcc/arm-none-eabi/6.3.1/thumb/v7e-m/fpv4-sp/hard\libgcc.a(_aeabi_uldivmod.o)
                              examples/pb_remote/client/CMakeFiles/pb_remote_client_nrf52840_xxAA_s140_5.0.0-3.alpha.dir/__/__/common/src/rtt_input.c.obj (__aeabi_uldivmod)
c:/a/gcc_arm/6/bin/../lib/gcc/arm-none-eabi/6.3.1/thumb/v7e-m/fpv4-sp/hard\libgcc.a(_udivmoddi4.o)
                              c:/a/gcc_arm/6/bin/../lib/gcc/arm-none-eabi/6.3.1/thumb/v7e-m/fpv4-sp/hard\libgcc.a(_aeabi_uldivmod.o) (__udivmoddi4)
c:/a/gcc_arm/6/bin/../lib/gcc/arm-none-eabi/6.3.1/thumb/v7e-m/fpv4-sp/hard\libgcc.a(_dvmd_tls.o)
                              c:/a/gcc_arm/6/bin/../lib/gcc/arm-none-eabi/6.3.1/thumb/v7e-m/fpv4-sp/hard\libgcc.a(_aeabi_uldivmod.o) (__aeabi_ldiv0)
c:/a/gcc_arm/6/bin/../lib/gcc/arm-none-eabi/6.3.1/../../../../arm-none-eabi/lib/thumb/v7e-m/fpv4-sp/hard\libg_nano.a(lib_a-exit.o)
                              c:/a/gcc_arm/6/bin/../lib/gcc/arm-none-eabi/6.3.1/../../../../arm-none-eabi/lib/thumb/v7e-m/fpv4-sp/hard/crt0.o (exit)
c:/a/gcc_arm/6/bin/../lib/gcc/arm-none-eabi/6.3.1/../../../../arm-none-eabi/lib/thumb/v7e-m/fpv4-sp/hard\libg_nano.a(lib_a-impure.o)
                              c:/a/gcc_arm/6/bin/../lib/gcc/arm-none-eabi/6.3.1/../../../../arm-none-eabi/lib/thumb/v7e-m/fpv4-sp/hard\libg_nano.a(lib_a-exit.o) (_global_impure_ptr)
c:/a/gcc_arm/6/bin/../lib/gcc/arm-none-eabi/6.3.1/../../../../arm-none-eabi/lib/thumb/v7e-m/fpv4-sp/hard\libg_nano.a(lib_a-init.o)
                              c:/a/gcc_arm/6/bin/../lib/gcc/arm-none-eabi/6.3.1/../../../../arm-none-eabi/lib/thumb/v7e-m/fpv4-sp/hard/crt0.o (__libc_init_array)
c:/a/gcc_arm/6/bin/../lib/gcc/arm-none-eabi/6.3.1/../../../../arm-none-eabi/lib/thumb/v7e-m/fpv4-sp/hard\libg_nano.a(lib_a-malloc.o)
                              mesh/core/libmesh_core_nrf52840_xxAA.a(transport.c.obj) (malloc)
c:/a/gcc_arm/6/bin/../lib/gcc/arm-none-eabi/6.3.1/../../../../arm-none-eabi/lib/thumb/v7e-m/fpv4-sp/hard\libg_nano.a(lib_a-memcmp.o)
                              examples/pb_remote/client/CMakeFiles/pb_remote_client_nrf52840_xxAA_s140_5.0.0-3.alpha.dir/__/__/__/mesh/prov/src/prov_utils.c.obj (memcmp)
c:/a/gcc_arm/6/bin/../lib/gcc/arm-none-eabi/6.3.1/../../../../arm-none-eabi/lib/thumb/v7e-m/fpv4-sp/hard\libg_nano.a(lib_a-memcpy-stub.o)
                              examples/pb_remote/client/CMakeFiles/pb_remote_client_nrf52840_xxAA_s140_5.0.0-3.alpha.dir/src/main.c.obj (memcpy)
c:/a/gcc_arm/6/bin/../lib/gcc/arm-none-eabi/6.3.1/../../../../arm-none-eabi/lib/thumb/v7e-m/fpv4-sp/hard\libg_nano.a(lib_a-memset.o)
                              c:/a/gcc_arm/6/bin/../lib/gcc/arm-none-eabi/6.3.1/../../../../arm-none-eabi/lib/thumb/v7e-m/fpv4-sp/hard/crt0.o (memset)
c:/a/gcc_arm/6/bin/../lib/gcc/arm-none-eabi/6.3.1/../../../../arm-none-eabi/lib/thumb/v7e-m/fpv4-sp/hard\libg_nano.a(lib_a-nano-freer.o)
                              c:/a/gcc_arm/6/bin/../lib/gcc/arm-none-eabi/6.3.1/../../../../arm-none-eabi/lib/thumb/v7e-m/fpv4-sp/hard\libg_nano.a(lib_a-malloc.o) (_free_r)
c:/a/gcc_arm/6/bin/../lib/gcc/arm-none-eabi/6.3.1/../../../../arm-none-eabi/lib/thumb/v7e-m/fpv4-sp/hard\libg_nano.a(lib_a-nano-mallocr.o)
                              c:/a/gcc_arm/6/bin/../lib/gcc/arm-none-eabi/6.3.1/../../../../arm-none-eabi/lib/thumb/v7e-m/fpv4-sp/hard\libg_nano.a(lib_a-malloc.o) (_malloc_r)
c:/a/gcc_arm/6/bin/../lib/gcc/arm-none-eabi/6.3.1/../../../../arm-none-eabi/lib/thumb/v7e-m/fpv4-sp/hard\libg_nano.a(lib_a-sbrkr.o)
                              c:/a/gcc_arm/6/bin/../lib/gcc/arm-none-eabi/6.3.1/../../../../arm-none-eabi/lib/thumb/v7e-m/fpv4-sp/hard\libg_nano.a(lib_a-nano-mallocr.o) (_sbrk_r)
c:/a/gcc_arm/6/bin/../lib/gcc/arm-none-eabi/6.3.1/../../../../arm-none-eabi/lib/thumb/v7e-m/fpv4-sp/hard\libg_nano.a(lib_a-strcpy.o)
                              external/rtt/librtt_nrf52840_xxAA.a(SEGGER_RTT.c.obj) (strcpy)
c:/a/gcc_arm/6/bin/../lib/gcc/arm-none-eabi/6.3.1/../../../../arm-none-eabi/lib/thumb/v7e-m/fpv4-sp/hard\libg_nano.a(lib_a-strlen.o)
                              examples/pb_remote/client/CMakeFiles/pb_remote_client_nrf52840_xxAA_s140_5.0.0-3.alpha.dir/__/__/__/mesh/prov/src/prov_beacon.c.obj (strlen)
c:/a/gcc_arm/6/bin/../lib/gcc/arm-none-eabi/6.3.1/../../../../arm-none-eabi/lib/thumb/v7e-m/fpv4-sp/hard\libg_nano.a(lib_a-strrchr.o)
                              examples/pb_remote/client/CMakeFiles/pb_remote_client_nrf52840_xxAA_s140_5.0.0-3.alpha.dir/src/main.c.obj (strrchr)
c:/a/gcc_arm/6/bin/../lib/gcc/arm-none-eabi/6.3.1/../../../../arm-none-eabi/lib/thumb/v7e-m/fpv4-sp/hard\libg_nano.a(lib_a-mlock.o)
                              c:/a/gcc_arm/6/bin/../lib/gcc/arm-none-eabi/6.3.1/../../../../arm-none-eabi/lib/thumb/v7e-m/fpv4-sp/hard\libg_nano.a(lib_a-nano-freer.o) (__malloc_lock)
c:/a/gcc_arm/6/bin/../lib/gcc/arm-none-eabi/6.3.1/../../../../arm-none-eabi/lib/thumb/v7e-m/fpv4-sp/hard\libg_nano.a(lib_a-reent.o)
                              c:/a/gcc_arm/6/bin/../lib/gcc/arm-none-eabi/6.3.1/../../../../arm-none-eabi/lib/thumb/v7e-m/fpv4-sp/hard\libg_nano.a(lib_a-sbrkr.o) (errno)
c:/a/gcc_arm/6/bin/../lib/gcc/arm-none-eabi/6.3.1/../../../../arm-none-eabi/lib/thumb/v7e-m/fpv4-sp/hard\libg_nano.a(lib_a-strchr.o)
                              c:/a/gcc_arm/6/bin/../lib/gcc/arm-none-eabi/6.3.1/../../../../arm-none-eabi/lib/thumb/v7e-m/fpv4-sp/hard\libg_nano.a(lib_a-strrchr.o) (strchr)
c:/a/gcc_arm/6/bin/../lib/gcc/arm-none-eabi/6.3.1/../../../../arm-none-eabi/lib/thumb/v7e-m/fpv4-sp/hard\libnosys.a(sbrk.o)
                              c:/a/gcc_arm/6/bin/../lib/gcc/arm-none-eabi/6.3.1/../../../../arm-none-eabi/lib/thumb/v7e-m/fpv4-sp/hard\libg_nano.a(lib_a-sbrkr.o) (_sbrk)
c:/a/gcc_arm/6/bin/../lib/gcc/arm-none-eabi/6.3.1/../../../../arm-none-eabi/lib/thumb/v7e-m/fpv4-sp/hard\libnosys.a(_exit.o)
                              c:/a/gcc_arm/6/bin/../lib/gcc/arm-none-eabi/6.3.1/../../../../arm-none-eabi/lib/thumb/v7e-m/fpv4-sp/hard\libg_nano.a(lib_a-exit.o) (_exit)

Allocating common symbols
Common symbol       size              file

nrf_nvic_state      0xc               examples/pb_remote/client/CMakeFiles/pb_remote_client_nrf52840_xxAA_s140_5.0.0-3.alpha.dir/__/__/nrf_mesh_sdk.c.obj
errno               0x4               c:/a/gcc_arm/6/bin/../lib/gcc/arm-none-eabi/6.3.1/../../../../arm-none-eabi/lib/thumb/v7e-m/fpv4-sp/hard\libg_nano.a(lib_a-reent.o)
m_assertion_handler
                    0x4               mesh/core/libmesh_core_nrf52840_xxAA.a(nrf_mesh.c.obj)
_SEGGER_RTT         0x78              external/rtt/librtt_nrf52840_xxAA.a(SEGGER_RTT.c.obj)

Discarded input sections

 .text          0x00000000        0x0 c:/a/gcc_arm/6/bin/../lib/gcc/arm-none-eabi/6.3.1/thumb/v7e-m/fpv4-sp/hard/crti.o
 .data          0x00000000        0x0 c:/a/gcc_arm/6/bin/../lib/gcc/arm-none-eabi/6.3.1/thumb/v7e-m/fpv4-sp/hard/crti.o
 .bss           0x00000000        0x0 c:/a/gcc_arm/6/bin/../lib/gcc/arm-none-eabi/6.3.1/thumb/v7e-m/fpv4-sp/hard/crti.o
 .data          0x00000000        0x4 c:/a/gcc_arm/6/bin/../lib/gcc/arm-none-eabi/6.3.1/thumb/v7e-m/fpv4-sp/hard/crtbegin.o
 .data          0x00000000        0x0 c:/a/gcc_arm/6/bin/../lib/gcc/arm-none-eabi/6.3.1/../../../../arm-none-eabi/lib/thumb/v7e-m/fpv4-sp/hard/crt0.o
 .bss           0x00000000        0x0 c:/a/gcc_arm/6/bin/../lib/gcc/arm-none-eabi/6.3.1/../../../../arm-none-eabi/lib/thumb/v7e-m/fpv4-sp/hard/crt0.o
 .ARM.extab     0x00000000        0x0 c:/a/gcc_arm/6/bin/../lib/gcc/arm-none-eabi/6.3.1/../../../../arm-none-eabi/lib/thumb/v7e-m/fpv4-sp/hard/crt0.o
 .text          0x00000000        0x0 examples/pb_remote/client/CMakeFiles/pb_remote_client_nrf52840_xxAA_s140_5.0.0-3.alpha.dir/src/main.c.obj
 .data          0x00000000        0x0 examples/pb_remote/client/CMakeFiles/pb_remote_client_nrf52840_xxAA_s140_5.0.0-3.alpha.dir/src/main.c.obj
 .bss           0x00000000        0x0 examples/pb_remote/client/CMakeFiles/pb_remote_client_nrf52840_xxAA_s140_5.0.0-3.alpha.dir/src/main.c.obj
 .text          0x00000000        0x0 examples/pb_remote/client/CMakeFiles/pb_remote_client_nrf52840_xxAA_s140_5.0.0-3.alpha.dir/__/__/nrf_mesh_sdk.c.obj
 .data          0x00000000        0x0 examples/pb_remote/client/CMakeFiles/pb_remote_client_nrf52840_xxAA_s140_5.0.0-3.alpha.dir/__/__/nrf_mesh_sdk.c.obj
 .bss           0x00000000        0x0 examples/pb_remote/client/CMakeFiles/pb_remote_client_nrf52840_xxAA_s140_5.0.0-3.alpha.dir/__/__/nrf_mesh_sdk.c.obj
 .text          0x00000000        0x0 examples/pb_remote/client/CMakeFiles/pb_remote_client_nrf52840_xxAA_s140_5.0.0-3.alpha.dir/__/__/common/src/rtt_input.c.obj
 .data          0x00000000        0x0 examples/pb_remote/client/CMakeFiles/pb_remote_client_nrf52840_xxAA_s140_5.0.0-3.alpha.dir/__/__/common/src/rtt_input.c.obj
 .bss           0x00000000        0x0 examples/pb_remote/client/CMakeFiles/pb_remote_client_nrf52840_xxAA_s140_5.0.0-3.alpha.dir/__/__/common/src/rtt_input.c.obj
 .text.rtt_input_disable
                0x00000000       0x24 examples/pb_remote/client/CMakeFiles/pb_remote_client_nrf52840_xxAA_s140_5.0.0-3.alpha.dir/__/__/common/src/rtt_input.c.obj
 .text          0x00000000        0x0 examples/pb_remote/client/CMakeFiles/pb_remote_client_nrf52840_xxAA_s140_5.0.0-3.alpha.dir/__/__/__/models/pb_remote/src/pb_remote_client.c.obj
 .data          0x00000000        0x0 examples/pb_remote/client/CMakeFiles/pb_remote_client_nrf52840_xxAA_s140_5.0.0-3.alpha.dir/__/__/__/models/pb_remote/src/pb_remote_client.c.obj
 .bss           0x00000000        0x0 examples/pb_remote/client/CMakeFiles/pb_remote_client_nrf52840_xxAA_s140_5.0.0-3.alpha.dir/__/__/__/models/pb_remote/src/pb_remote_client.c.obj
 .text          0x00000000        0x0 examples/pb_remote/client/CMakeFiles/pb_remote_client_nrf52840_xxAA_s140_5.0.0-3.alpha.dir/__/__/__/mesh/prov/src/prov_provisioner.c.obj
 .data          0x00000000        0x0 examples/pb_remote/client/CMakeFiles/pb_remote_client_nrf52840_xxAA_s140_5.0.0-3.alpha.dir/__/__/__/mesh/prov/src/prov_provisioner.c.obj
 .bss           0x00000000        0x0 examples/pb_remote/client/CMakeFiles/pb_remote_client_nrf52840_xxAA_s140_5.0.0-3.alpha.dir/__/__/__/mesh/prov/src/prov_provisioner.c.obj
 .text.prov_provisioner_shared_secret
                0x00000000       0x28 examples/pb_remote/client/CMakeFiles/pb_remote_client_nrf52840_xxAA_s140_5.0.0-3.alpha.dir/__/__/__/mesh/prov/src/prov_provisioner.c.obj
 .text.prov_provisioner_oob_pubkey
                0x00000000       0x30 examples/pb_remote/client/CMakeFiles/pb_remote_client_nrf52840_xxAA_s140_5.0.0-3.alpha.dir/__/__/__/mesh/prov/src/prov_provisioner.c.obj
 .text          0x00000000        0x0 examples/pb_remote/client/CMakeFiles/pb_remote_client_nrf52840_xxAA_s140_5.0.0-3.alpha.dir/__/__/__/mesh/prov/src/nrf_mesh_prov.c.obj
 .data          0x00000000        0x0 examples/pb_remote/client/CMakeFiles/pb_remote_client_nrf52840_xxAA_s140_5.0.0-3.alpha.dir/__/__/__/mesh/prov/src/nrf_mesh_prov.c.obj
 .bss           0x00000000        0x0 examples/pb_remote/client/CMakeFiles/pb_remote_client_nrf52840_xxAA_s140_5.0.0-3.alpha.dir/__/__/__/mesh/prov/src/nrf_mesh_prov.c.obj
 .text.nrf_mesh_prov_listen
                0x00000000       0x30 examples/pb_remote/client/CMakeFiles/pb_remote_client_nrf52840_xxAA_s140_5.0.0-3.alpha.dir/__/__/__/mesh/prov/src/nrf_mesh_prov.c.obj
 .text.nrf_mesh_prov_shared_secret_provide
                0x00000000        0xe examples/pb_remote/client/CMakeFiles/pb_remote_client_nrf52840_xxAA_s140_5.0.0-3.alpha.dir/__/__/__/mesh/prov/src/nrf_mesh_prov.c.obj
 .text.nrf_mesh_prov_pubkey_provide
                0x00000000       0x10 examples/pb_remote/client/CMakeFiles/pb_remote_client_nrf52840_xxAA_s140_5.0.0-3.alpha.dir/__/__/__/mesh/prov/src/nrf_mesh_prov.c.obj
 .text.nrf_mesh_prov_scan_stop
                0x00000000        0x4 examples/pb_remote/client/CMakeFiles/pb_remote_client_nrf52840_xxAA_s140_5.0.0-3.alpha.dir/__/__/__/mesh/prov/src/nrf_mesh_prov.c.obj
 .text          0x00000000        0x0 examples/pb_remote/client/CMakeFiles/pb_remote_client_nrf52840_xxAA_s140_5.0.0-3.alpha.dir/__/__/__/mesh/prov/src/provisioning.c.obj
 .data          0x00000000        0x0 examples/pb_remote/client/CMakeFiles/pb_remote_client_nrf52840_xxAA_s140_5.0.0-3.alpha.dir/__/__/__/mesh/prov/src/provisioning.c.obj
 .bss           0x00000000        0x0 examples/pb_remote/client/CMakeFiles/pb_remote_client_nrf52840_xxAA_s140_5.0.0-3.alpha.dir/__/__/__/mesh/prov/src/provisioning.c.obj
 .text.prov_tx_capabilities
                0x00000000       0x1e examples/pb_remote/client/CMakeFiles/pb_remote_client_nrf52840_xxAA_s140_5.0.0-3.alpha.dir/__/__/__/mesh/prov/src/provisioning.c.obj
 .text.prov_tx_input_complete
                0x00000000       0x16 examples/pb_remote/client/CMakeFiles/pb_remote_client_nrf52840_xxAA_s140_5.0.0-3.alpha.dir/__/__/__/mesh/prov/src/provisioning.c.obj
 .text.prov_tx_complete
                0x00000000       0x16 examples/pb_remote/client/CMakeFiles/pb_remote_client_nrf52840_xxAA_s140_5.0.0-3.alpha.dir/__/__/__/mesh/prov/src/provisioning.c.obj
 .text.prov_tx_failed
                0x00000000       0x1a examples/pb_remote/client/CMakeFiles/pb_remote_client_nrf52840_xxAA_s140_5.0.0-3.alpha.dir/__/__/__/mesh/prov/src/provisioning.c.obj
 .text.prov_tx  0x00000000        0x4 examples/pb_remote/client/CMakeFiles/pb_remote_client_nrf52840_xxAA_s140_5.0.0-3.alpha.dir/__/__/__/mesh/prov/src/provisioning.c.obj
 .text          0x00000000        0x0 examples/pb_remote/client/CMakeFiles/pb_remote_client_nrf52840_xxAA_s140_5.0.0-3.alpha.dir/__/__/__/mesh/prov/src/prov_beacon.c.obj
 .data          0x00000000        0x0 examples/pb_remote/client/CMakeFiles/pb_remote_client_nrf52840_xxAA_s140_5.0.0-3.alpha.dir/__/__/__/mesh/prov/src/prov_beacon.c.obj
 .bss           0x00000000        0x0 examples/pb_remote/client/CMakeFiles/pb_remote_client_nrf52840_xxAA_s140_5.0.0-3.alpha.dir/__/__/__/mesh/prov/src/prov_beacon.c.obj
 .text.prov_beacon_scan_stop
                0x00000000        0xc examples/pb_remote/client/CMakeFiles/pb_remote_client_nrf52840_xxAA_s140_5.0.0-3.alpha.dir/__/__/__/mesh/prov/src/prov_beacon.c.obj
 .text          0x00000000        0x0 examples/pb_remote/client/CMakeFiles/pb_remote_client_nrf52840_xxAA_s140_5.0.0-3.alpha.dir/__/__/__/mesh/prov/src/prov_utils.c.obj
 .data          0x00000000        0x0 examples/pb_remote/client/CMakeFiles/pb_remote_client_nrf52840_xxAA_s140_5.0.0-3.alpha.dir/__/__/__/mesh/prov/src/prov_utils.c.obj
 .bss           0x00000000        0x0 examples/pb_remote/client/CMakeFiles/pb_remote_client_nrf52840_xxAA_s140_5.0.0-3.alpha.dir/__/__/__/mesh/prov/src/prov_utils.c.obj
 .text.prov_utils_opt_set
                0x00000000       0x20 examples/pb_remote/client/CMakeFiles/pb_remote_client_nrf52840_xxAA_s140_5.0.0-3.alpha.dir/__/__/__/mesh/prov/src/prov_utils.c.obj
 .text          0x00000000        0x0 examples/pb_remote/client/CMakeFiles/pb_remote_client_nrf52840_xxAA_s140_5.0.0-3.alpha.dir/__/__/__/mesh/prov/src/prov_bearer_adv.c.obj
 .data          0x00000000        0x0 examples/pb_remote/client/CMakeFiles/pb_remote_client_nrf52840_xxAA_s140_5.0.0-3.alpha.dir/__/__/__/mesh/prov/src/prov_bearer_adv.c.obj
 .bss           0x00000000        0x0 examples/pb_remote/client/CMakeFiles/pb_remote_client_nrf52840_xxAA_s140_5.0.0-3.alpha.dir/__/__/__/mesh/prov/src/prov_bearer_adv.c.obj
 .text          0x00000000        0x0 examples/pb_remote/client/CMakeFiles/pb_remote_client_nrf52840_xxAA_s140_5.0.0-3.alpha.dir/__/__/__/mesh/access/src/access_publish.c.obj
 .data          0x00000000        0x0 examples/pb_remote/client/CMakeFiles/pb_remote_client_nrf52840_xxAA_s140_5.0.0-3.alpha.dir/__/__/__/mesh/access/src/access_publish.c.obj
 .bss           0x00000000        0x0 examples/pb_remote/client/CMakeFiles/pb_remote_client_nrf52840_xxAA_s140_5.0.0-3.alpha.dir/__/__/__/mesh/access/src/access_publish.c.obj
 .text.access_publish_period_set
                0x00000000       0x6c examples/pb_remote/client/CMakeFiles/pb_remote_client_nrf52840_xxAA_s140_5.0.0-3.alpha.dir/__/__/__/mesh/access/src/access_publish.c.obj
 .text.access_publish_period_get
                0x00000000       0x30 examples/pb_remote/client/CMakeFiles/pb_remote_client_nrf52840_xxAA_s140_5.0.0-3.alpha.dir/__/__/__/mesh/access/src/access_publish.c.obj
 .text          0x00000000        0x0 examples/pb_remote/client/CMakeFiles/pb_remote_client_nrf52840_xxAA_s140_5.0.0-3.alpha.dir/__/__/__/mesh/access/src/access.c.obj
 .data          0x00000000        0x0 examples/pb_remote/client/CMakeFiles/pb_remote_client_nrf52840_xxAA_s140_5.0.0-3.alpha.dir/__/__/__/mesh/access/src/access.c.obj
 .bss           0x00000000        0x0 examples/pb_remote/client/CMakeFiles/pb_remote_client_nrf52840_xxAA_s140_5.0.0-3.alpha.dir/__/__/__/mesh/access/src/access.c.obj
 .text.restore_acquired_subscription
                0x00000000       0x30 examples/pb_remote/client/CMakeFiles/pb_remote_client_nrf52840_xxAA_s140_5.0.0-3.alpha.dir/__/__/__/mesh/access/src/access.c.obj
 .text.restore_acquired_element
                0x00000000       0x1c examples/pb_remote/client/CMakeFiles/pb_remote_client_nrf52840_xxAA_s140_5.0.0-3.alpha.dir/__/__/__/mesh/access/src/access.c.obj
 .text.restore_flash_data
                0x00000000       0x5c examples/pb_remote/client/CMakeFiles/pb_remote_client_nrf52840_xxAA_s140_5.0.0-3.alpha.dir/__/__/__/mesh/access/src/access.c.obj
 .text.access_flash_config_clear
                0x00000000       0x28 examples/pb_remote/client/CMakeFiles/pb_remote_client_nrf52840_xxAA_s140_5.0.0-3.alpha.dir/__/__/__/mesh/access/src/access.c.obj
 .text.access_flash_config_store
                0x00000000      0x14c examples/pb_remote/client/CMakeFiles/pb_remote_client_nrf52840_xxAA_s140_5.0.0-3.alpha.dir/__/__/__/mesh/access/src/access.c.obj
 .text.unlikely.bitfield_next_get.part.0.constprop.3
                0x00000000       0x34 examples/pb_remote/client/CMakeFiles/pb_remote_client_nrf52840_xxAA_s140_5.0.0-3.alpha.dir/__/__/__/mesh/access/src/access.c.obj
 .text.restore_acquired_model
                0x00000000       0x94 examples/pb_remote/client/CMakeFiles/pb_remote_client_nrf52840_xxAA_s140_5.0.0-3.alpha.dir/__/__/__/mesh/access/src/access.c.obj
 .text.access_flash_config_load
                0x00000000      0x130 examples/pb_remote/client/CMakeFiles/pb_remote_client_nrf52840_xxAA_s140_5.0.0-3.alpha.dir/__/__/__/mesh/access/src/access.c.obj
 .text.access_clear
                0x00000000       0x12 examples/pb_remote/client/CMakeFiles/pb_remote_client_nrf52840_xxAA_s140_5.0.0-3.alpha.dir/__/__/__/mesh/access/src/access.c.obj
 .text.access_model_publish_period_set
                0x00000000       0x6c examples/pb_remote/client/CMakeFiles/pb_remote_client_nrf52840_xxAA_s140_5.0.0-3.alpha.dir/__/__/__/mesh/access/src/access.c.obj
 .text.access_model_publish_period_get
                0x00000000       0x3c examples/pb_remote/client/CMakeFiles/pb_remote_client_nrf52840_xxAA_s140_5.0.0-3.alpha.dir/__/__/__/mesh/access/src/access.c.obj
 .text.access_model_subscription_list_alloc
                0x00000000       0x50 examples/pb_remote/client/CMakeFiles/pb_remote_client_nrf52840_xxAA_s140_5.0.0-3.alpha.dir/__/__/__/mesh/access/src/access.c.obj
 .text.access_model_subscription_lists_share
                0x00000000       0x4c examples/pb_remote/client/CMakeFiles/pb_remote_client_nrf52840_xxAA_s140_5.0.0-3.alpha.dir/__/__/__/mesh/access/src/access.c.obj
 .text.access_model_subscription_add
                0x00000000       0x60 examples/pb_remote/client/CMakeFiles/pb_remote_client_nrf52840_xxAA_s140_5.0.0-3.alpha.dir/__/__/__/mesh/access/src/access.c.obj
 .text.access_model_subscription_remove
                0x00000000       0x60 examples/pb_remote/client/CMakeFiles/pb_remote_client_nrf52840_xxAA_s140_5.0.0-3.alpha.dir/__/__/__/mesh/access/src/access.c.obj
 .text.access_model_subscriptions_get
                0x00000000       0x80 examples/pb_remote/client/CMakeFiles/pb_remote_client_nrf52840_xxAA_s140_5.0.0-3.alpha.dir/__/__/__/mesh/access/src/access.c.obj
 .text.access_model_application_unbind
                0x00000000       0x50 examples/pb_remote/client/CMakeFiles/pb_remote_client_nrf52840_xxAA_s140_5.0.0-3.alpha.dir/__/__/__/mesh/access/src/access.c.obj
 .text.access_model_applications_get
                0x00000000       0x58 examples/pb_remote/client/CMakeFiles/pb_remote_client_nrf52840_xxAA_s140_5.0.0-3.alpha.dir/__/__/__/mesh/access/src/access.c.obj
 .text.access_model_publish_application_get
                0x00000000       0x28 examples/pb_remote/client/CMakeFiles/pb_remote_client_nrf52840_xxAA_s140_5.0.0-3.alpha.dir/__/__/__/mesh/access/src/access.c.obj
 .text.access_default_ttl_set
                0x00000000       0x10 examples/pb_remote/client/CMakeFiles/pb_remote_client_nrf52840_xxAA_s140_5.0.0-3.alpha.dir/__/__/__/mesh/access/src/access.c.obj
 .text.access_default_ttl_get
                0x00000000        0xc examples/pb_remote/client/CMakeFiles/pb_remote_client_nrf52840_xxAA_s140_5.0.0-3.alpha.dir/__/__/__/mesh/access/src/access.c.obj
 .text.access_element_location_set
                0x00000000       0x20 examples/pb_remote/client/CMakeFiles/pb_remote_client_nrf52840_xxAA_s140_5.0.0-3.alpha.dir/__/__/__/mesh/access/src/access.c.obj
 .text.access_element_location_get
                0x00000000       0x18 examples/pb_remote/client/CMakeFiles/pb_remote_client_nrf52840_xxAA_s140_5.0.0-3.alpha.dir/__/__/__/mesh/access/src/access.c.obj
 .text.access_element_sig_model_count_get
                0x00000000       0x18 examples/pb_remote/client/CMakeFiles/pb_remote_client_nrf52840_xxAA_s140_5.0.0-3.alpha.dir/__/__/__/mesh/access/src/access.c.obj
 .text.access_element_vendor_model_count_get
                0x00000000       0x18 examples/pb_remote/client/CMakeFiles/pb_remote_client_nrf52840_xxAA_s140_5.0.0-3.alpha.dir/__/__/__/mesh/access/src/access.c.obj
 .text.access_model_id_get
                0x00000000       0x2c examples/pb_remote/client/CMakeFiles/pb_remote_client_nrf52840_xxAA_s140_5.0.0-3.alpha.dir/__/__/__/mesh/access/src/access.c.obj
 .text.access_handle_get
                0x00000000       0x54 examples/pb_remote/client/CMakeFiles/pb_remote_client_nrf52840_xxAA_s140_5.0.0-3.alpha.dir/__/__/__/mesh/access/src/access.c.obj
 .text.access_element_models_get
                0x00000000       0x48 examples/pb_remote/client/CMakeFiles/pb_remote_client_nrf52840_xxAA_s140_5.0.0-3.alpha.dir/__/__/__/mesh/access/src/access.c.obj
 .bss.m_metadata_stored
                0x00000000        0x1 examples/pb_remote/client/CMakeFiles/pb_remote_client_nrf52840_xxAA_s140_5.0.0-3.alpha.dir/__/__/__/mesh/access/src/access.c.obj
 .data.flash_clear_mem_available_struct.10511
                0x00000000       0x10 examples/pb_remote/client/CMakeFiles/pb_remote_client_nrf52840_xxAA_s140_5.0.0-3.alpha.dir/__/__/__/mesh/access/src/access.c.obj
 .data.flash_store_mem_available_struct.10535
                0x00000000       0x10 examples/pb_remote/client/CMakeFiles/pb_remote_client_nrf52840_xxAA_s140_5.0.0-3.alpha.dir/__/__/__/mesh/access/src/access.c.obj
 .rodata.multiply_de_bruijn_bit_position.9350
                0x00000000       0x20 examples/pb_remote/client/CMakeFiles/pb_remote_client_nrf52840_xxAA_s140_5.0.0-3.alpha.dir/__/__/__/mesh/access/src/access.c.obj
 .text          0x00000000        0x0 examples/pb_remote/client/CMakeFiles/pb_remote_client_nrf52840_xxAA_s140_5.0.0-3.alpha.dir/__/__/__/mesh/access/src/access_reliable.c.obj
 .data          0x00000000        0x0 examples/pb_remote/client/CMakeFiles/pb_remote_client_nrf52840_xxAA_s140_5.0.0-3.alpha.dir/__/__/__/mesh/access/src/access_reliable.c.obj
 .bss           0x00000000        0x0 examples/pb_remote/client/CMakeFiles/pb_remote_client_nrf52840_xxAA_s140_5.0.0-3.alpha.dir/__/__/__/mesh/access/src/access_reliable.c.obj
 .text.access_reliable_cancel_all
                0x00000000       0x34 examples/pb_remote/client/CMakeFiles/pb_remote_client_nrf52840_xxAA_s140_5.0.0-3.alpha.dir/__/__/__/mesh/access/src/access_reliable.c.obj
 .text          0x00000000        0x0 examples/pb_remote/client/CMakeFiles/pb_remote_client_nrf52840_xxAA_s140_5.0.0-3.alpha.dir/__/__/__/mesh/access/src/device_state_manager.c.obj
 .data          0x00000000        0x0 examples/pb_remote/client/CMakeFiles/pb_remote_client_nrf52840_xxAA_s140_5.0.0-3.alpha.dir/__/__/__/mesh/access/src/device_state_manager.c.obj
 .bss           0x00000000        0x0 examples/pb_remote/client/CMakeFiles/pb_remote_client_nrf52840_xxAA_s140_5.0.0-3.alpha.dir/__/__/__/mesh/access/src/device_state_manager.c.obj
 .text.reset_flash_area
                0x00000000       0x28 examples/pb_remote/client/CMakeFiles/pb_remote_client_nrf52840_xxAA_s140_5.0.0-3.alpha.dir/__/__/__/mesh/access/src/device_state_manager.c.obj
 .text.add_address_virtual
                0x00000000       0x70 examples/pb_remote/client/CMakeFiles/pb_remote_client_nrf52840_xxAA_s140_5.0.0-3.alpha.dir/__/__/__/mesh/access/src/device_state_manager.c.obj
 .text.address_delete_if_unused
                0x00000000       0x78 examples/pb_remote/client/CMakeFiles/pb_remote_client_nrf52840_xxAA_s140_5.0.0-3.alpha.dir/__/__/__/mesh/access/src/device_state_manager.c.obj
 .text.dsm_flash_config_load
                0x00000000      0x134 examples/pb_remote/client/CMakeFiles/pb_remote_client_nrf52840_xxAA_s140_5.0.0-3.alpha.dir/__/__/__/mesh/access/src/device_state_manager.c.obj
 .text.dsm_has_unflashed_data
                0x00000000       0x24 examples/pb_remote/client/CMakeFiles/pb_remote_client_nrf52840_xxAA_s140_5.0.0-3.alpha.dir/__/__/__/mesh/access/src/device_state_manager.c.obj
 .text.dsm_clear
                0x00000000       0x6c examples/pb_remote/client/CMakeFiles/pb_remote_client_nrf52840_xxAA_s140_5.0.0-3.alpha.dir/__/__/__/mesh/access/src/device_state_manager.c.obj
 .text.dsm_address_publish_add_handle
                0x00000000       0x38 examples/pb_remote/client/CMakeFiles/pb_remote_client_nrf52840_xxAA_s140_5.0.0-3.alpha.dir/__/__/__/mesh/access/src/device_state_manager.c.obj
 .text.dsm_address_publish_virtual_add
                0x00000000        0x6 examples/pb_remote/client/CMakeFiles/pb_remote_client_nrf52840_xxAA_s140_5.0.0-3.alpha.dir/__/__/__/mesh/access/src/device_state_manager.c.obj
 .text.dsm_address_publish_remove
                0x00000000       0x40 examples/pb_remote/client/CMakeFiles/pb_remote_client_nrf52840_xxAA_s140_5.0.0-3.alpha.dir/__/__/__/mesh/access/src/device_state_manager.c.obj
 .text.dsm_address_subscription_add
                0x00000000        0xc examples/pb_remote/client/CMakeFiles/pb_remote_client_nrf52840_xxAA_s140_5.0.0-3.alpha.dir/__/__/__/mesh/access/src/device_state_manager.c.obj
 .text.dsm_address_subscription_virtual_add
                0x00000000        0x6 examples/pb_remote/client/CMakeFiles/pb_remote_client_nrf52840_xxAA_s140_5.0.0-3.alpha.dir/__/__/__/mesh/access/src/device_state_manager.c.obj
 .text.dsm_address_subscription_add_handle
                0x00000000       0x38 examples/pb_remote/client/CMakeFiles/pb_remote_client_nrf52840_xxAA_s140_5.0.0-3.alpha.dir/__/__/__/mesh/access/src/device_state_manager.c.obj
 .text.dsm_address_subscription_count_get
                0x00000000       0x58 examples/pb_remote/client/CMakeFiles/pb_remote_client_nrf52840_xxAA_s140_5.0.0-3.alpha.dir/__/__/__/mesh/access/src/device_state_manager.c.obj
 .text.dsm_address_subscription_remove
                0x00000000       0x58 examples/pb_remote/client/CMakeFiles/pb_remote_client_nrf52840_xxAA_s140_5.0.0-3.alpha.dir/__/__/__/mesh/access/src/device_state_manager.c.obj
 .text.dsm_address_get_all
                0x00000000       0x64 examples/pb_remote/client/CMakeFiles/pb_remote_client_nrf52840_xxAA_s140_5.0.0-3.alpha.dir/__/__/__/mesh/access/src/device_state_manager.c.obj
 .text.dsm_net_key_index_to_subnet_handle
                0x00000000       0x1c examples/pb_remote/client/CMakeFiles/pb_remote_client_nrf52840_xxAA_s140_5.0.0-3.alpha.dir/__/__/__/mesh/access/src/device_state_manager.c.obj
 .text.dsm_subnet_handle_get
                0x00000000        0xc examples/pb_remote/client/CMakeFiles/pb_remote_client_nrf52840_xxAA_s140_5.0.0-3.alpha.dir/__/__/__/mesh/access/src/device_state_manager.c.obj
 .text.dsm_subnet_handle_to_netkey_index
                0x00000000       0x30 examples/pb_remote/client/CMakeFiles/pb_remote_client_nrf52840_xxAA_s140_5.0.0-3.alpha.dir/__/__/__/mesh/access/src/device_state_manager.c.obj
 .text.dsm_appkey_index_to_appkey_handle
                0x00000000       0x1c examples/pb_remote/client/CMakeFiles/pb_remote_client_nrf52840_xxAA_s140_5.0.0-3.alpha.dir/__/__/__/mesh/access/src/device_state_manager.c.obj
 .text.dsm_appkey_handle_to_appkey_index
                0x00000000       0x30 examples/pb_remote/client/CMakeFiles/pb_remote_client_nrf52840_xxAA_s140_5.0.0-3.alpha.dir/__/__/__/mesh/access/src/device_state_manager.c.obj
 .text.dsm_subnet_kr_phase_get
                0x00000000       0x2c examples/pb_remote/client/CMakeFiles/pb_remote_client_nrf52840_xxAA_s140_5.0.0-3.alpha.dir/__/__/__/mesh/access/src/device_state_manager.c.obj
 .text.dsm_subnet_update
                0x00000000       0xa4 examples/pb_remote/client/CMakeFiles/pb_remote_client_nrf52840_xxAA_s140_5.0.0-3.alpha.dir/__/__/__/mesh/access/src/device_state_manager.c.obj
 .text.dsm_subnet_get_all
                0x00000000       0x3c examples/pb_remote/client/CMakeFiles/pb_remote_client_nrf52840_xxAA_s140_5.0.0-3.alpha.dir/__/__/__/mesh/access/src/device_state_manager.c.obj
 .text.dsm_devkey_delete
                0x00000000       0x40 examples/pb_remote/client/CMakeFiles/pb_remote_client_nrf52840_xxAA_s140_5.0.0-3.alpha.dir/__/__/__/mesh/access/src/device_state_manager.c.obj
 .text.dsm_devkey_handle_get
                0x00000000       0x34 examples/pb_remote/client/CMakeFiles/pb_remote_client_nrf52840_xxAA_s140_5.0.0-3.alpha.dir/__/__/__/mesh/access/src/device_state_manager.c.obj
 .text.dsm_appkey_update
                0x00000000       0x8c examples/pb_remote/client/CMakeFiles/pb_remote_client_nrf52840_xxAA_s140_5.0.0-3.alpha.dir/__/__/__/mesh/access/src/device_state_manager.c.obj
 .text.dsm_appkey_delete
                0x00000000       0x2c examples/pb_remote/client/CMakeFiles/pb_remote_client_nrf52840_xxAA_s140_5.0.0-3.alpha.dir/__/__/__/mesh/access/src/device_state_manager.c.obj
 .text.dsm_subnet_delete
                0x00000000       0x94 examples/pb_remote/client/CMakeFiles/pb_remote_client_nrf52840_xxAA_s140_5.0.0-3.alpha.dir/__/__/__/mesh/access/src/device_state_manager.c.obj
 .text.dsm_appkey_get_all
                0x00000000       0x58 examples/pb_remote/client/CMakeFiles/pb_remote_client_nrf52840_xxAA_s140_5.0.0-3.alpha.dir/__/__/__/mesh/access/src/device_state_manager.c.obj
 .text.dsm_beacon_secmat_get
                0x00000000       0x2c examples/pb_remote/client/CMakeFiles/pb_remote_client_nrf52840_xxAA_s140_5.0.0-3.alpha.dir/__/__/__/mesh/access/src/device_state_manager.c.obj
 .text.dsm_net_secmat_from_keyindex_get
                0x00000000       0x30 examples/pb_remote/client/CMakeFiles/pb_remote_client_nrf52840_xxAA_s140_5.0.0-3.alpha.dir/__/__/__/mesh/access/src/device_state_manager.c.obj
 .text.dsm_proxy_identity_get
                0x00000000        0x4 examples/pb_remote/client/CMakeFiles/pb_remote_client_nrf52840_xxAA_s140_5.0.0-3.alpha.dir/__/__/__/mesh/access/src/device_state_manager.c.obj
 .data.mem_listener.10730
                0x00000000       0x10 examples/pb_remote/client/CMakeFiles/pb_remote_client_nrf52840_xxAA_s140_5.0.0-3.alpha.dir/__/__/__/mesh/access/src/device_state_manager.c.obj
 .text          0x00000000        0x0 examples/pb_remote/client/CMakeFiles/pb_remote_client_nrf52840_xxAA_s140_5.0.0-3.alpha.dir/__/__/nrf_mesh_weak.c.obj
 .data          0x00000000        0x0 examples/pb_remote/client/CMakeFiles/pb_remote_client_nrf52840_xxAA_s140_5.0.0-3.alpha.dir/__/__/nrf_mesh_weak.c.obj
 .bss           0x00000000        0x0 examples/pb_remote/client/CMakeFiles/pb_remote_client_nrf52840_xxAA_s140_5.0.0-3.alpha.dir/__/__/nrf_mesh_weak.c.obj
 .text._weak_handler_ptr
                0x00000000        0x4 examples/pb_remote/client/CMakeFiles/pb_remote_client_nrf52840_xxAA_s140_5.0.0-3.alpha.dir/__/__/nrf_mesh_weak.c.obj
 .text          0x00000000        0x0 examples/pb_remote/client/CMakeFiles/pb_remote_client_nrf52840_xxAA_s140_5.0.0-3.alpha.dir/__/__/__/external/nRF5_SDK_14.2.0_17b948a/components/toolchain/system_nrf52840.c.obj
 .data          0x00000000        0x0 examples/pb_remote/client/CMakeFiles/pb_remote_client_nrf52840_xxAA_s140_5.0.0-3.alpha.dir/__/__/__/external/nRF5_SDK_14.2.0_17b948a/components/toolchain/system_nrf52840.c.obj
 .bss           0x00000000        0x0 examples/pb_remote/client/CMakeFiles/pb_remote_client_nrf52840_xxAA_s140_5.0.0-3.alpha.dir/__/__/__/external/nRF5_SDK_14.2.0_17b948a/components/toolchain/system_nrf52840.c.obj
 .text.SystemCoreClockUpdate
                0x00000000       0x10 examples/pb_remote/client/CMakeFiles/pb_remote_client_nrf52840_xxAA_s140_5.0.0-3.alpha.dir/__/__/__/external/nRF5_SDK_14.2.0_17b948a/components/toolchain/system_nrf52840.c.obj
 .data          0x00000000        0x0 examples/pb_remote/client/CMakeFiles/pb_remote_client_nrf52840_xxAA_s140_5.0.0-3.alpha.dir/__/__/__/external/nRF5_SDK_14.2.0_17b948a/components/toolchain/gcc/gcc_startup_nrf52840.S.obj
 .bss           0x00000000        0x0 examples/pb_remote/client/CMakeFiles/pb_remote_client_nrf52840_xxAA_s140_5.0.0-3.alpha.dir/__/__/__/external/nRF5_SDK_14.2.0_17b948a/components/toolchain/gcc/gcc_startup_nrf52840.S.obj
 .text          0x00000000        0x0 mesh/core/libmesh_core_nrf52840_xxAA.a(nrf_mesh_configure.c.obj)
 .data          0x00000000        0x0 mesh/core/libmesh_core_nrf52840_xxAA.a(nrf_mesh_configure.c.obj)
 .bss           0x00000000        0x0 mesh/core/libmesh_core_nrf52840_xxAA.a(nrf_mesh_configure.c.obj)
 .text.nrf_mesh_configure_device_uuid_set
                0x00000000       0x10 mesh/core/libmesh_core_nrf52840_xxAA.a(nrf_mesh_configure.c.obj)
 .text          0x00000000        0x0 mesh/core/libmesh_core_nrf52840_xxAA.a(event.c.obj)
 .data          0x00000000        0x0 mesh/core/libmesh_core_nrf52840_xxAA.a(event.c.obj)
 .bss           0x00000000        0x0 mesh/core/libmesh_core_nrf52840_xxAA.a(event.c.obj)
 .text          0x00000000        0x0 mesh/core/libmesh_core_nrf52840_xxAA.a(fifo.c.obj)
 .data          0x00000000        0x0 mesh/core/libmesh_core_nrf52840_xxAA.a(fifo.c.obj)
 .bss           0x00000000        0x0 mesh/core/libmesh_core_nrf52840_xxAA.a(fifo.c.obj)
 .text.fifo_peek_at
                0x00000000       0x50 mesh/core/libmesh_core_nrf52840_xxAA.a(fifo.c.obj)
 .text.fifo_peek
                0x00000000        0x6 mesh/core/libmesh_core_nrf52840_xxAA.a(fifo.c.obj)
 .text.fifo_flush
                0x00000000        0x6 mesh/core/libmesh_core_nrf52840_xxAA.a(fifo.c.obj)
 .text.fifo_get_len
                0x00000000        0x8 mesh/core/libmesh_core_nrf52840_xxAA.a(fifo.c.obj)
 .text.fifo_is_full
                0x00000000       0x10 mesh/core/libmesh_core_nrf52840_xxAA.a(fifo.c.obj)
 .text.fifo_is_empty
                0x00000000        0xc mesh/core/libmesh_core_nrf52840_xxAA.a(fifo.c.obj)
 .text          0x00000000        0x0 mesh/core/libmesh_core_nrf52840_xxAA.a(net_state.c.obj)
 .data          0x00000000        0x0 mesh/core/libmesh_core_nrf52840_xxAA.a(net_state.c.obj)
 .bss           0x00000000        0x0 mesh/core/libmesh_core_nrf52840_xxAA.a(net_state.c.obj)
 .text.net_state_reset
                0x00000000       0x3c mesh/core/libmesh_core_nrf52840_xxAA.a(net_state.c.obj)
 .text.net_state_iv_update_test_mode_set
                0x00000000        0xc mesh/core/libmesh_core_nrf52840_xxAA.a(net_state.c.obj)
 .data.mem_listener.9912
                0x00000000       0x10 mesh/core/libmesh_core_nrf52840_xxAA.a(net_state.c.obj)
 .text          0x00000000        0x0 mesh/core/libmesh_core_nrf52840_xxAA.a(nrf_mesh_utils.c.obj)
 .data          0x00000000        0x0 mesh/core/libmesh_core_nrf52840_xxAA.a(nrf_mesh_utils.c.obj)
 .bss           0x00000000        0x0 mesh/core/libmesh_core_nrf52840_xxAA.a(nrf_mesh_utils.c.obj)
 .text.nrf_mesh_rand_get
                0x00000000       0x10 mesh/core/libmesh_core_nrf52840_xxAA.a(nrf_mesh_utils.c.obj)
 .text.nrf_mesh_gap_address_type_get
                0x00000000       0x3c mesh/core/libmesh_core_nrf52840_xxAA.a(nrf_mesh_utils.c.obj)
 .text          0x00000000        0x0 mesh/core/libmesh_core_nrf52840_xxAA.a(nrf_mesh.c.obj)
 .data          0x00000000        0x0 mesh/core/libmesh_core_nrf52840_xxAA.a(nrf_mesh.c.obj)
 .bss           0x00000000        0x0 mesh/core/libmesh_core_nrf52840_xxAA.a(nrf_mesh.c.obj)
 .text.nrf_mesh_disable
                0x00000000       0x28 mesh/core/libmesh_core_nrf52840_xxAA.a(nrf_mesh.c.obj)
 .text.nrf_mesh_process
                0x00000000        0x4 mesh/core/libmesh_core_nrf52840_xxAA.a(nrf_mesh.c.obj)
 .text.nrf_mesh_evt_handler_remove
                0x00000000        0x4 mesh/core/libmesh_core_nrf52840_xxAA.a(nrf_mesh.c.obj)
 .text.nrf_mesh_rx_cb_set
                0x00000000        0xc mesh/core/libmesh_core_nrf52840_xxAA.a(nrf_mesh.c.obj)
 .text.nrf_mesh_rx_cb_clear
                0x00000000        0xc mesh/core/libmesh_core_nrf52840_xxAA.a(nrf_mesh.c.obj)
 .text          0x00000000        0x0 mesh/core/libmesh_core_nrf52840_xxAA.a(hal.c.obj)
 .data          0x00000000        0x0 mesh/core/libmesh_core_nrf52840_xxAA.a(hal.c.obj)
 .bss           0x00000000        0x0 mesh/core/libmesh_core_nrf52840_xxAA.a(hal.c.obj)
 .text.sd_power_reset_reason_clr
                0x00000000        0x4 mesh/core/libmesh_core_nrf52840_xxAA.a(hal.c.obj)
 .text.hal_device_reset
                0x00000000       0x2c mesh/core/libmesh_core_nrf52840_xxAA.a(hal.c.obj)
 .text          0x00000000        0x0 mesh/core/libmesh_core_nrf52840_xxAA.a(timer_scheduler.c.obj)
 .data          0x00000000        0x0 mesh/core/libmesh_core_nrf52840_xxAA.a(timer_scheduler.c.obj)
 .bss           0x00000000        0x0 mesh/core/libmesh_core_nrf52840_xxAA.a(timer_scheduler.c.obj)
 .text          0x00000000        0x0 mesh/core/libmesh_core_nrf52840_xxAA.a(timer.c.obj)
 .data          0x00000000        0x0 mesh/core/libmesh_core_nrf52840_xxAA.a(timer.c.obj)
 .bss           0x00000000        0x0 mesh/core/libmesh_core_nrf52840_xxAA.a(timer.c.obj)
 .text.timer_order_cb_ppi
                0x00000000       0xc4 mesh/core/libmesh_core_nrf52840_xxAA.a(timer.c.obj)
 .text.timer_order_ppi
                0x00000000       0xc0 mesh/core/libmesh_core_nrf52840_xxAA.a(timer.c.obj)
 .text.timer_abort
                0x00000000       0x78 mesh/core/libmesh_core_nrf52840_xxAA.a(timer.c.obj)
 .text          0x00000000        0x0 mesh/core/libmesh_core_nrf52840_xxAA.a(ticker.c.obj)
 .data          0x00000000        0x0 mesh/core/libmesh_core_nrf52840_xxAA.a(ticker.c.obj)
 .bss           0x00000000        0x0 mesh/core/libmesh_core_nrf52840_xxAA.a(ticker.c.obj)
 .text.ticker_get
                0x00000000        0xc mesh/core/libmesh_core_nrf52840_xxAA.a(ticker.c.obj)
 .text          0x00000000        0x0 mesh/core/libmesh_core_nrf52840_xxAA.a(rand.c.obj)
 .data          0x00000000        0x0 mesh/core/libmesh_core_nrf52840_xxAA.a(rand.c.obj)
 .bss           0x00000000        0x0 mesh/core/libmesh_core_nrf52840_xxAA.a(rand.c.obj)
 .text          0x00000000        0x0 mesh/core/libmesh_core_nrf52840_xxAA.a(timeslot.c.obj)
 .data          0x00000000        0x0 mesh/core/libmesh_core_nrf52840_xxAA.a(timeslot.c.obj)
 .bss           0x00000000        0x0 mesh/core/libmesh_core_nrf52840_xxAA.a(timeslot.c.obj)
 .text.timeslot_end_time_get
                0x00000000       0x10 mesh/core/libmesh_core_nrf52840_xxAA.a(timeslot.c.obj)
 .text.timeslot_is_in_ts
                0x00000000        0xc mesh/core/libmesh_core_nrf52840_xxAA.a(timeslot.c.obj)
 .text.timeslot_restart
                0x00000000       0x10 mesh/core/libmesh_core_nrf52840_xxAA.a(timeslot.c.obj)
 .text          0x00000000        0x0 mesh/core/libmesh_core_nrf52840_xxAA.a(bearer_event.c.obj)
 .data          0x00000000        0x0 mesh/core/libmesh_core_nrf52840_xxAA.a(bearer_event.c.obj)
 .bss           0x00000000        0x0 mesh/core/libmesh_core_nrf52840_xxAA.a(bearer_event.c.obj)
 .text.bearer_event_generic_post
                0x00000000       0x30 mesh/core/libmesh_core_nrf52840_xxAA.a(bearer_event.c.obj)
 .text.bearer_event_timer_sch_post
                0x00000000       0x34 mesh/core/libmesh_core_nrf52840_xxAA.a(bearer_event.c.obj)
 .text.bearer_event_in_correct_irq_priority
                0x00000000       0x48 mesh/core/libmesh_core_nrf52840_xxAA.a(bearer_event.c.obj)
 .text          0x00000000        0x0 mesh/core/libmesh_core_nrf52840_xxAA.a(enc.c.obj)
 .data          0x00000000        0x0 mesh/core/libmesh_core_nrf52840_xxAA.a(enc.c.obj)
 .bss           0x00000000        0x0 mesh/core/libmesh_core_nrf52840_xxAA.a(enc.c.obj)
 .text.enc_key_generate
                0x00000000        0x6 mesh/core/libmesh_core_nrf52840_xxAA.a(enc.c.obj)
 .text          0x00000000        0x0 mesh/core/libmesh_core_nrf52840_xxAA.a(network.c.obj)
 .data          0x00000000        0x0 mesh/core/libmesh_core_nrf52840_xxAA.a(network.c.obj)
 .bss           0x00000000        0x0 mesh/core/libmesh_core_nrf52840_xxAA.a(network.c.obj)
 .text.network_opt_set
                0x00000000       0x68 mesh/core/libmesh_core_nrf52840_xxAA.a(network.c.obj)
 .text.network_packet_discard
                0x00000000       0x3c mesh/core/libmesh_core_nrf52840_xxAA.a(network.c.obj)
 .text          0x00000000        0x0 mesh/core/libmesh_core_nrf52840_xxAA.a(nrf_mesh_keygen.c.obj)
 .data          0x00000000        0x0 mesh/core/libmesh_core_nrf52840_xxAA.a(nrf_mesh_keygen.c.obj)
 .bss           0x00000000        0x0 mesh/core/libmesh_core_nrf52840_xxAA.a(nrf_mesh_keygen.c.obj)
 .text.nrf_mesh_keygen_identitykey
                0x00000000       0x4c mesh/core/libmesh_core_nrf52840_xxAA.a(nrf_mesh_keygen.c.obj)
 .text          0x00000000        0x0 mesh/core/libmesh_core_nrf52840_xxAA.a(list.c.obj)
 .data          0x00000000        0x0 mesh/core/libmesh_core_nrf52840_xxAA.a(list.c.obj)
 .bss           0x00000000        0x0 mesh/core/libmesh_core_nrf52840_xxAA.a(list.c.obj)
 .text.list_size_get
                0x00000000       0x12 mesh/core/libmesh_core_nrf52840_xxAA.a(list.c.obj)
 .text.list_sorted_add
                0x00000000       0x90 mesh/core/libmesh_core_nrf52840_xxAA.a(list.c.obj)
 .text          0x00000000        0x0 mesh/core/libmesh_core_nrf52840_xxAA.a(log.c.obj)
 .data          0x00000000        0x0 mesh/core/libmesh_core_nrf52840_xxAA.a(log.c.obj)
 .bss           0x00000000        0x0 mesh/core/libmesh_core_nrf52840_xxAA.a(log.c.obj)
 .text.log_callback_logview
                0x00000000       0x38 mesh/core/libmesh_core_nrf52840_xxAA.a(log.c.obj)
 .text.log_set_callback
                0x00000000        0xc mesh/core/libmesh_core_nrf52840_xxAA.a(log.c.obj)
 .rodata.log_callback_logview.str1.1
                0x00000000        0xf mesh/core/libmesh_core_nrf52840_xxAA.a(log.c.obj)
 .text          0x00000000        0x0 mesh/core/libmesh_core_nrf52840_xxAA.a(flash_manager.c.obj)
 .data          0x00000000        0x0 mesh/core/libmesh_core_nrf52840_xxAA.a(flash_manager.c.obj)
 .bss           0x00000000        0x0 mesh/core/libmesh_core_nrf52840_xxAA.a(flash_manager.c.obj)
 .text.flash_manager_remove
                0x00000000       0x24 mesh/core/libmesh_core_nrf52840_xxAA.a(flash_manager.c.obj)
 .text.flash_manager_entry_get
                0x00000000       0x48 mesh/core/libmesh_core_nrf52840_xxAA.a(flash_manager.c.obj)
 .text.flash_manager_entry_count_get
                0x00000000       0x5c mesh/core/libmesh_core_nrf52840_xxAA.a(flash_manager.c.obj)
 .text.flash_manager_entry_release
                0x00000000       0x12 mesh/core/libmesh_core_nrf52840_xxAA.a(flash_manager.c.obj)
 .text.flash_manager_action_queue_empty_cb_set
                0x00000000       0x28 mesh/core/libmesh_core_nrf52840_xxAA.a(flash_manager.c.obj)
 .text          0x00000000        0x0 mesh/core/libmesh_core_nrf52840_xxAA.a(ccm_soft.c.obj)
 .data          0x00000000        0x0 mesh/core/libmesh_core_nrf52840_xxAA.a(ccm_soft.c.obj)
 .bss           0x00000000        0x0 mesh/core/libmesh_core_nrf52840_xxAA.a(ccm_soft.c.obj)
 .text          0x00000000        0x0 mesh/core/libmesh_core_nrf52840_xxAA.a(beacon.c.obj)
 .data          0x00000000        0x0 mesh/core/libmesh_core_nrf52840_xxAA.a(beacon.c.obj)
 .bss           0x00000000        0x0 mesh/core/libmesh_core_nrf52840_xxAA.a(beacon.c.obj)
 .text          0x00000000        0x0 mesh/core/libmesh_core_nrf52840_xxAA.a(flash_manager_internal.c.obj)
 .data          0x00000000        0x0 mesh/core/libmesh_core_nrf52840_xxAA.a(flash_manager_internal.c.obj)
 .bss           0x00000000        0x0 mesh/core/libmesh_core_nrf52840_xxAA.a(flash_manager_internal.c.obj)
 .text          0x00000000        0x0 mesh/core/libmesh_core_nrf52840_xxAA.a(core_tx.c.obj)
 .data          0x00000000        0x0 mesh/core/libmesh_core_nrf52840_xxAA.a(core_tx.c.obj)
 .bss           0x00000000        0x0 mesh/core/libmesh_core_nrf52840_xxAA.a(core_tx.c.obj)
 .text          0x00000000        0x0 mesh/core/libmesh_core_nrf52840_xxAA.a(heartbeat.c.obj)
 .data          0x00000000        0x0 mesh/core/libmesh_core_nrf52840_xxAA.a(heartbeat.c.obj)
 .bss           0x00000000        0x0 mesh/core/libmesh_core_nrf52840_xxAA.a(heartbeat.c.obj)
 .text.heartbeat_on_feature_change_trigger
                0x00000000       0x50 mesh/core/libmesh_core_nrf52840_xxAA.a(heartbeat.c.obj)
 .text.heartbeat_subscription_set
                0x00000000       0x90 mesh/core/libmesh_core_nrf52840_xxAA.a(heartbeat.c.obj)
 .text.heartbeat_subscription_get
                0x00000000        0x8 mesh/core/libmesh_core_nrf52840_xxAA.a(heartbeat.c.obj)
 .text.heartbeat_config_server_cb_set
                0x00000000       0x3c mesh/core/libmesh_core_nrf52840_xxAA.a(heartbeat.c.obj)
 .text.heartbeat_publication_state_updated
                0x00000000       0x80 mesh/core/libmesh_core_nrf52840_xxAA.a(heartbeat.c.obj)
 .text          0x00000000        0x0 mesh/core/libmesh_core_nrf52840_xxAA.a(net_beacon.c.obj)
 .data          0x00000000        0x0 mesh/core/libmesh_core_nrf52840_xxAA.a(net_beacon.c.obj)
 .bss           0x00000000        0x0 mesh/core/libmesh_core_nrf52840_xxAA.a(net_beacon.c.obj)
 .text.net_beacon_state_set
                0x00000000       0x34 mesh/core/libmesh_core_nrf52840_xxAA.a(net_beacon.c.obj)
 .text.net_beacon_state_get
                0x00000000        0xc mesh/core/libmesh_core_nrf52840_xxAA.a(net_beacon.c.obj)
 .text          0x00000000        0x0 mesh/core/libmesh_core_nrf52840_xxAA.a(core_tx_adv.c.obj)
 .data          0x00000000        0x0 mesh/core/libmesh_core_nrf52840_xxAA.a(core_tx_adv.c.obj)
 .bss           0x00000000        0x0 mesh/core/libmesh_core_nrf52840_xxAA.a(core_tx_adv.c.obj)
 .text.core_tx_adv_count_set
                0x00000000       0x38 mesh/core/libmesh_core_nrf52840_xxAA.a(core_tx_adv.c.obj)
 .text.core_tx_adv_interval_set
                0x00000000       0x34 mesh/core/libmesh_core_nrf52840_xxAA.a(core_tx_adv.c.obj)
 .text.core_tx_adv_address_set
                0x00000000       0x34 mesh/core/libmesh_core_nrf52840_xxAA.a(core_tx_adv.c.obj)
 .text          0x00000000        0x0 mesh/core/libmesh_core_nrf52840_xxAA.a(ad_listener.c.obj)
 .data          0x00000000        0x0 mesh/core/libmesh_core_nrf52840_xxAA.a(ad_listener.c.obj)
 .bss           0x00000000        0x0 mesh/core/libmesh_core_nrf52840_xxAA.a(ad_listener.c.obj)
 .text.ad_listener_unsubscribe
                0x00000000       0x6c mesh/core/libmesh_core_nrf52840_xxAA.a(ad_listener.c.obj)
 .text          0x00000000        0x0 mesh/core/libmesh_core_nrf52840_xxAA.a(ad_type_filter.c.obj)
 .data          0x00000000        0x0 mesh/core/libmesh_core_nrf52840_xxAA.a(ad_type_filter.c.obj)
 .bss           0x00000000        0x0 mesh/core/libmesh_core_nrf52840_xxAA.a(ad_type_filter.c.obj)
 .text.bearer_adtype_remove
                0x00000000       0x20 mesh/core/libmesh_core_nrf52840_xxAA.a(ad_type_filter.c.obj)
 .text.bearer_adtype_clear
                0x00000000       0x10 mesh/core/libmesh_core_nrf52840_xxAA.a(ad_type_filter.c.obj)
 .text.bearer_invalid_length_amount_get
                0x00000000        0xc mesh/core/libmesh_core_nrf52840_xxAA.a(ad_type_filter.c.obj)
 .text.bearer_adtype_filtered_amount_get
                0x00000000        0xc mesh/core/libmesh_core_nrf52840_xxAA.a(ad_type_filter.c.obj)
 .text          0x00000000        0x0 mesh/core/libmesh_core_nrf52840_xxAA.a(advertiser.c.obj)
 .data          0x00000000        0x0 mesh/core/libmesh_core_nrf52840_xxAA.a(advertiser.c.obj)
 .bss           0x00000000        0x0 mesh/core/libmesh_core_nrf52840_xxAA.a(advertiser.c.obj)
 .text.advertiser_disable
                0x00000000        0xa mesh/core/libmesh_core_nrf52840_xxAA.a(advertiser.c.obj)
 .text.advertiser_channels_set
                0x00000000       0x84 mesh/core/libmesh_core_nrf52840_xxAA.a(advertiser.c.obj)
 .text.advertiser_address_set
                0x00000000       0x50 mesh/core/libmesh_core_nrf52840_xxAA.a(advertiser.c.obj)
 .text.advertiser_config_set
                0x00000000       0x44 mesh/core/libmesh_core_nrf52840_xxAA.a(advertiser.c.obj)
 .text.advertiser_config_get
                0x00000000       0x2c mesh/core/libmesh_core_nrf52840_xxAA.a(advertiser.c.obj)
 .text          0x00000000        0x0 mesh/core/libmesh_core_nrf52840_xxAA.a(bearer_handler.c.obj)
 .data          0x00000000        0x0 mesh/core/libmesh_core_nrf52840_xxAA.a(bearer_handler.c.obj)
 .bss           0x00000000        0x0 mesh/core/libmesh_core_nrf52840_xxAA.a(bearer_handler.c.obj)
 .text.bearer_handler_stop
                0x00000000       0x20 mesh/core/libmesh_core_nrf52840_xxAA.a(bearer_handler.c.obj)
 .text.bearer_handler_action_fire
                0x00000000       0xbc mesh/core/libmesh_core_nrf52840_xxAA.a(bearer_handler.c.obj)
 .text          0x00000000        0x0 mesh/core/libmesh_core_nrf52840_xxAA.a(broadcast.c.obj)
 .data          0x00000000        0x0 mesh/core/libmesh_core_nrf52840_xxAA.a(broadcast.c.obj)
 .bss           0x00000000        0x0 mesh/core/libmesh_core_nrf52840_xxAA.a(broadcast.c.obj)
 .text          0x00000000        0x0 mesh/core/libmesh_core_nrf52840_xxAA.a(filter_engine.c.obj)
 .data          0x00000000        0x0 mesh/core/libmesh_core_nrf52840_xxAA.a(filter_engine.c.obj)
 .bss           0x00000000        0x0 mesh/core/libmesh_core_nrf52840_xxAA.a(filter_engine.c.obj)
 .text.fen_accepted_amount_get
                0x00000000        0xc mesh/core/libmesh_core_nrf52840_xxAA.a(filter_engine.c.obj)
 .text          0x00000000        0x0 mesh/core/libmesh_core_nrf52840_xxAA.a(radio_config.c.obj)
 .data          0x00000000        0x0 mesh/core/libmesh_core_nrf52840_xxAA.a(radio_config.c.obj)
 .bss           0x00000000        0x0 mesh/core/libmesh_core_nrf52840_xxAA.a(radio_config.c.obj)
 .text.radio_config_access_addr_get
                0x00000000       0x64 mesh/core/libmesh_core_nrf52840_xxAA.a(radio_config.c.obj)
 .text          0x00000000        0x0 mesh/core/libmesh_core_nrf52840_xxAA.a(scanner.c.obj)
 .data          0x00000000        0x0 mesh/core/libmesh_core_nrf52840_xxAA.a(scanner.c.obj)
 .bss           0x00000000        0x0 mesh/core/libmesh_core_nrf52840_xxAA.a(scanner.c.obj)
 .text.scanner_rx_callback_set
                0x00000000       0x2c mesh/core/libmesh_core_nrf52840_xxAA.a(scanner.c.obj)
 .text.scanner_disable
                0x00000000       0x48 mesh/core/libmesh_core_nrf52840_xxAA.a(scanner.c.obj)
 .text.scanner_is_enabled
                0x00000000       0x10 mesh/core/libmesh_core_nrf52840_xxAA.a(scanner.c.obj)
 .text.scanner_stats_get
                0x00000000        0x8 mesh/core/libmesh_core_nrf52840_xxAA.a(scanner.c.obj)
 .text.scanner_config_radio_mode_set
                0x00000000       0x10 mesh/core/libmesh_core_nrf52840_xxAA.a(scanner.c.obj)
 .text          0x00000000        0x0 mesh/core/libmesh_core_nrf52840_xxAA.a(internal_event.c.obj)
 .data          0x00000000        0x0 mesh/core/libmesh_core_nrf52840_xxAA.a(internal_event.c.obj)
 .bss           0x00000000        0x0 mesh/core/libmesh_core_nrf52840_xxAA.a(internal_event.c.obj)
 .text.internal_event_init
                0x00000000       0x40 mesh/core/libmesh_core_nrf52840_xxAA.a(internal_event.c.obj)
 .text.internal_event_pop
                0x00000000       0x1c mesh/core/libmesh_core_nrf52840_xxAA.a(internal_event.c.obj)
 .bss.m_internal_event_fifo_buffer
                0x00000000      0x100 mesh/core/libmesh_core_nrf52840_xxAA.a(internal_event.c.obj)
 .text          0x00000000        0x0 mesh/core/libmesh_core_nrf52840_xxAA.a(aes.c.obj)
 .data          0x00000000        0x0 mesh/core/libmesh_core_nrf52840_xxAA.a(aes.c.obj)
 .bss           0x00000000        0x0 mesh/core/libmesh_core_nrf52840_xxAA.a(aes.c.obj)
 .text          0x00000000        0x0 mesh/core/libmesh_core_nrf52840_xxAA.a(msg_cache.c.obj)
 .data          0x00000000        0x0 mesh/core/libmesh_core_nrf52840_xxAA.a(msg_cache.c.obj)
 .bss           0x00000000        0x0 mesh/core/libmesh_core_nrf52840_xxAA.a(msg_cache.c.obj)
 .text.msg_cache_clear
                0x00000000       0x18 mesh/core/libmesh_core_nrf52840_xxAA.a(msg_cache.c.obj)
 .text          0x00000000        0x0 mesh/core/libmesh_core_nrf52840_xxAA.a(transport.c.obj)
 .data          0x00000000        0x0 mesh/core/libmesh_core_nrf52840_xxAA.a(transport.c.obj)
 .bss           0x00000000        0x0 mesh/core/libmesh_core_nrf52840_xxAA.a(transport.c.obj)
 .text.transport_sar_mem_funcs_set
                0x00000000       0x44 mesh/core/libmesh_core_nrf52840_xxAA.a(transport.c.obj)
 .text.transport_opt_set
                0x00000000       0xd0 mesh/core/libmesh_core_nrf52840_xxAA.a(transport.c.obj)
 .text          0x00000000        0x0 mesh/core/libmesh_core_nrf52840_xxAA.a(packet_buffer.c.obj)
 .data          0x00000000        0x0 mesh/core/libmesh_core_nrf52840_xxAA.a(packet_buffer.c.obj)
 .bss           0x00000000        0x0 mesh/core/libmesh_core_nrf52840_xxAA.a(packet_buffer.c.obj)
 .text.packet_buffer_max_packet_len_get
                0x00000000       0x34 mesh/core/libmesh_core_nrf52840_xxAA.a(packet_buffer.c.obj)
 .text          0x00000000        0x0 mesh/core/libmesh_core_nrf52840_xxAA.a(flash_manager_defrag.c.obj)
 .data          0x00000000        0x0 mesh/core/libmesh_core_nrf52840_xxAA.a(flash_manager_defrag.c.obj)
 .bss           0x00000000        0x0 mesh/core/libmesh_core_nrf52840_xxAA.a(flash_manager_defrag.c.obj)
 .text.flash_manager_defragging
                0x00000000       0x44 mesh/core/libmesh_core_nrf52840_xxAA.a(flash_manager_defrag.c.obj)
 .text          0x00000000        0x0 mesh/core/libmesh_core_nrf52840_xxAA.a(packet_mgr.c.obj)
 .data          0x00000000        0x0 mesh/core/libmesh_core_nrf52840_xxAA.a(packet_mgr.c.obj)
 .bss           0x00000000        0x0 mesh/core/libmesh_core_nrf52840_xxAA.a(packet_mgr.c.obj)
 .text.packet_mgr_alloc
                0x00000000      0x19c mesh/core/libmesh_core_nrf52840_xxAA.a(packet_mgr.c.obj)
 .text.packet_mgr_free
                0x00000000       0x6c mesh/core/libmesh_core_nrf52840_xxAA.a(packet_mgr.c.obj)
 .text.packet_mgr_get_free_space
                0x00000000       0x1c mesh/core/libmesh_core_nrf52840_xxAA.a(packet_mgr.c.obj)
 .text.packet_mgr_refcount_get
                0x00000000        0x6 mesh/core/libmesh_core_nrf52840_xxAA.a(packet_mgr.c.obj)
 .text.packet_mgr_size_get
                0x00000000        0x6 mesh/core/libmesh_core_nrf52840_xxAA.a(packet_mgr.c.obj)
 .text          0x00000000        0x0 mesh/core/libmesh_core_nrf52840_xxAA.a(mesh_flash.c.obj)
 .data          0x00000000        0x0 mesh/core/libmesh_core_nrf52840_xxAA.a(mesh_flash.c.obj)
 .bss           0x00000000        0x0 mesh/core/libmesh_core_nrf52840_xxAA.a(mesh_flash.c.obj)
 .text.mesh_flash_op_available_slots
                0x00000000       0x2c mesh/core/libmesh_core_nrf52840_xxAA.a(mesh_flash.c.obj)
 .text.mesh_flash_in_progress
                0x00000000       0x34 mesh/core/libmesh_core_nrf52840_xxAA.a(mesh_flash.c.obj)
 .text.mesh_flash_set_suspended
                0x00000000       0x80 mesh/core/libmesh_core_nrf52840_xxAA.a(mesh_flash.c.obj)
 .bss.suspend_count.10223
                0x00000000        0x4 mesh/core/libmesh_core_nrf52840_xxAA.a(mesh_flash.c.obj)
 .text          0x00000000        0x0 mesh/core/libmesh_core_nrf52840_xxAA.a(queue.c.obj)
 .data          0x00000000        0x0 mesh/core/libmesh_core_nrf52840_xxAA.a(queue.c.obj)
 .bss           0x00000000        0x0 mesh/core/libmesh_core_nrf52840_xxAA.a(queue.c.obj)
 .text          0x00000000        0x0 mesh/core/libmesh_core_nrf52840_xxAA.a(aes_cmac.c.obj)
 .data          0x00000000        0x0 mesh/core/libmesh_core_nrf52840_xxAA.a(aes_cmac.c.obj)
 .bss           0x00000000        0x0 mesh/core/libmesh_core_nrf52840_xxAA.a(aes_cmac.c.obj)
 .text          0x00000000        0x0 mesh/core/libmesh_core_nrf52840_xxAA.a(nrf_mesh_opt.c.obj)
 .data          0x00000000        0x0 mesh/core/libmesh_core_nrf52840_xxAA.a(nrf_mesh_opt.c.obj)
 .bss           0x00000000        0x0 mesh/core/libmesh_core_nrf52840_xxAA.a(nrf_mesh_opt.c.obj)
 .text.nrf_mesh_opt_set
                0x00000000       0x26 mesh/core/libmesh_core_nrf52840_xxAA.a(nrf_mesh_opt.c.obj)
 .text          0x00000000        0x0 mesh/core/libmesh_core_nrf52840_xxAA.a(msqueue.c.obj)
 .data          0x00000000        0x0 mesh/core/libmesh_core_nrf52840_xxAA.a(msqueue.c.obj)
 .bss           0x00000000        0x0 mesh/core/libmesh_core_nrf52840_xxAA.a(msqueue.c.obj)
 .text          0x00000000        0x0 mesh/core/libmesh_core_nrf52840_xxAA.a(replay_cache.c.obj)
 .data          0x00000000        0x0 mesh/core/libmesh_core_nrf52840_xxAA.a(replay_cache.c.obj)
 .bss           0x00000000        0x0 mesh/core/libmesh_core_nrf52840_xxAA.a(replay_cache.c.obj)
 .text.replay_cache_on_iv_update
                0x00000000       0x24 mesh/core/libmesh_core_nrf52840_xxAA.a(replay_cache.c.obj)
 .text          0x00000000        0x0 mesh/core/libmesh_core_nrf52840_xxAA.a(nrf_flash.c.obj)
 .data          0x00000000        0x0 mesh/core/libmesh_core_nrf52840_xxAA.a(nrf_flash.c.obj)
 .bss           0x00000000        0x0 mesh/core/libmesh_core_nrf52840_xxAA.a(nrf_flash.c.obj)
 .text          0x00000000        0x0 external/rtt/librtt_nrf52840_xxAA.a(SEGGER_RTT.c.obj)
 .data          0x00000000        0x0 external/rtt/librtt_nrf52840_xxAA.a(SEGGER_RTT.c.obj)
 .bss           0x00000000        0x0 external/rtt/librtt_nrf52840_xxAA.a(SEGGER_RTT.c.obj)
 .text._PostTerminalSwitch.constprop.0
                0x00000000       0x28 external/rtt/librtt_nrf52840_xxAA.a(SEGGER_RTT.c.obj)
 .text.SEGGER_RTT_WriteSkipNoLock
                0x00000000       0xb4 external/rtt/librtt_nrf52840_xxAA.a(SEGGER_RTT.c.obj)
 .text.SEGGER_RTT_WriteString
                0x00000000       0x1a external/rtt/librtt_nrf52840_xxAA.a(SEGGER_RTT.c.obj)
 .text.SEGGER_RTT_WaitKey
                0x00000000        0xc external/rtt/librtt_nrf52840_xxAA.a(SEGGER_RTT.c.obj)
 .text.SEGGER_RTT_HasKey
                0x00000000       0x1c external/rtt/librtt_nrf52840_xxAA.a(SEGGER_RTT.c.obj)
 .text.SEGGER_RTT_HasData
                0x00000000       0x14 external/rtt/librtt_nrf52840_xxAA.a(SEGGER_RTT.c.obj)
 .text.SEGGER_RTT_AllocDownBuffer
                0x00000000       0x68 external/rtt/librtt_nrf52840_xxAA.a(SEGGER_RTT.c.obj)
 .text.SEGGER_RTT_AllocUpBuffer
                0x00000000       0x70 external/rtt/librtt_nrf52840_xxAA.a(SEGGER_RTT.c.obj)
 .text.SEGGER_RTT_ConfigUpBuffer
                0x00000000       0x68 external/rtt/librtt_nrf52840_xxAA.a(SEGGER_RTT.c.obj)
 .text.SEGGER_RTT_ConfigDownBuffer
                0x00000000       0x60 external/rtt/librtt_nrf52840_xxAA.a(SEGGER_RTT.c.obj)
 .text.SEGGER_RTT_SetNameUpBuffer
                0x00000000       0x3c external/rtt/librtt_nrf52840_xxAA.a(SEGGER_RTT.c.obj)
 .text.SEGGER_RTT_SetNameDownBuffer
                0x00000000       0x3c external/rtt/librtt_nrf52840_xxAA.a(SEGGER_RTT.c.obj)
 .text.SEGGER_RTT_Init
                0x00000000       0x10 external/rtt/librtt_nrf52840_xxAA.a(SEGGER_RTT.c.obj)
 .text.SEGGER_RTT_SetTerminal
                0x00000000       0x84 external/rtt/librtt_nrf52840_xxAA.a(SEGGER_RTT.c.obj)
 .text.SEGGER_RTT_TerminalOut
                0x00000000       0xa0 external/rtt/librtt_nrf52840_xxAA.a(SEGGER_RTT.c.obj)
 .bss._ActiveTerminal
                0x00000000        0x1 external/rtt/librtt_nrf52840_xxAA.a(SEGGER_RTT.c.obj)
 .rodata._aTerminalId
                0x00000000       0x10 external/rtt/librtt_nrf52840_xxAA.a(SEGGER_RTT.c.obj)
 .text          0x00000000        0x0 external/rtt/librtt_nrf52840_xxAA.a(SEGGER_RTT_printf.c.obj)
 .data          0x00000000        0x0 external/rtt/librtt_nrf52840_xxAA.a(SEGGER_RTT_printf.c.obj)
 .bss           0x00000000        0x0 external/rtt/librtt_nrf52840_xxAA.a(SEGGER_RTT_printf.c.obj)
 .text          0x00000000        0x0 external/micro-ecc/libuECC_nrf52840_xxAA.a(uECC.c.obj)
 .data          0x00000000        0x0 external/micro-ecc/libuECC_nrf52840_xxAA.a(uECC.c.obj)
 .bss           0x00000000        0x0 external/micro-ecc/libuECC_nrf52840_xxAA.a(uECC.c.obj)
 .text.uECC_vli_modMult
                0x00000000      0x148 external/micro-ecc/libuECC_nrf52840_xxAA.a(uECC.c.obj)
 .text.HMAC_init
                0x00000000       0x46 external/micro-ecc/libuECC_nrf52840_xxAA.a(uECC.c.obj)
 .text.HMAC_update
                0x00000000        0x4 external/micro-ecc/libuECC_nrf52840_xxAA.a(uECC.c.obj)
 .text.HMAC_finish
                0x00000000       0x62 external/micro-ecc/libuECC_nrf52840_xxAA.a(uECC.c.obj)
 .text.update_V
                0x00000000       0x24 external/micro-ecc/libuECC_nrf52840_xxAA.a(uECC.c.obj)
 .text.bits2int
                0x00000000       0x88 external/micro-ecc/libuECC_nrf52840_xxAA.a(uECC.c.obj)
 .text.uECC_sign_with_k
                0x00000000      0x17c external/micro-ecc/libuECC_nrf52840_xxAA.a(uECC.c.obj)
 .text.uECC_set_rng
                0x00000000        0xc external/micro-ecc/libuECC_nrf52840_xxAA.a(uECC.c.obj)
 .text.uECC_get_rng
                0x00000000        0xc external/micro-ecc/libuECC_nrf52840_xxAA.a(uECC.c.obj)
 .text.uECC_curve_private_key_size
                0x00000000        0xe external/micro-ecc/libuECC_nrf52840_xxAA.a(uECC.c.obj)
 .text.uECC_curve_public_key_size
                0x00000000        0x8 external/micro-ecc/libuECC_nrf52840_xxAA.a(uECC.c.obj)
 .text.uECC_compute_public_key
                0x00000000       0x7e external/micro-ecc/libuECC_nrf52840_xxAA.a(uECC.c.obj)
 .text.uECC_sign
                0x00000000       0x56 external/micro-ecc/libuECC_nrf52840_xxAA.a(uECC.c.obj)
 .text.uECC_sign_deterministic
                0x00000000      0x192 external/micro-ecc/libuECC_nrf52840_xxAA.a(uECC.c.obj)
 .text.uECC_verify
                0x00000000      0x2f0 external/micro-ecc/libuECC_nrf52840_xxAA.a(uECC.c.obj)
 .data          0x00000000        0x0 c:/a/gcc_arm/6/bin/../lib/gcc/arm-none-eabi/6.3.1/thumb/v7e-m/fpv4-sp/hard\libgcc.a(_aeabi_uldivmod.o)
 .bss           0x00000000        0x0 c:/a/gcc_arm/6/bin/../lib/gcc/arm-none-eabi/6.3.1/thumb/v7e-m/fpv4-sp/hard\libgcc.a(_aeabi_uldivmod.o)
 .data          0x00000000        0x0 c:/a/gcc_arm/6/bin/../lib/gcc/arm-none-eabi/6.3.1/thumb/v7e-m/fpv4-sp/hard\libgcc.a(_udivmoddi4.o)
 .bss           0x00000000        0x0 c:/a/gcc_arm/6/bin/../lib/gcc/arm-none-eabi/6.3.1/thumb/v7e-m/fpv4-sp/hard\libgcc.a(_udivmoddi4.o)
 .ARM.extab     0x00000000        0x0 c:/a/gcc_arm/6/bin/../lib/gcc/arm-none-eabi/6.3.1/thumb/v7e-m/fpv4-sp/hard\libgcc.a(_udivmoddi4.o)
 .data          0x00000000        0x0 c:/a/gcc_arm/6/bin/../lib/gcc/arm-none-eabi/6.3.1/thumb/v7e-m/fpv4-sp/hard\libgcc.a(_dvmd_tls.o)
 .bss           0x00000000        0x0 c:/a/gcc_arm/6/bin/../lib/gcc/arm-none-eabi/6.3.1/thumb/v7e-m/fpv4-sp/hard\libgcc.a(_dvmd_tls.o)
 .text          0x00000000        0x0 c:/a/gcc_arm/6/bin/../lib/gcc/arm-none-eabi/6.3.1/../../../../arm-none-eabi/lib/thumb/v7e-m/fpv4-sp/hard\libg_nano.a(lib_a-exit.o)
 .data          0x00000000        0x0 c:/a/gcc_arm/6/bin/../lib/gcc/arm-none-eabi/6.3.1/../../../../arm-none-eabi/lib/thumb/v7e-m/fpv4-sp/hard\libg_nano.a(lib_a-exit.o)
 .bss           0x00000000        0x0 c:/a/gcc_arm/6/bin/../lib/gcc/arm-none-eabi/6.3.1/../../../../arm-none-eabi/lib/thumb/v7e-m/fpv4-sp/hard\libg_nano.a(lib_a-exit.o)
 .text          0x00000000        0x0 c:/a/gcc_arm/6/bin/../lib/gcc/arm-none-eabi/6.3.1/../../../../arm-none-eabi/lib/thumb/v7e-m/fpv4-sp/hard\libg_nano.a(lib_a-impure.o)
 .data          0x00000000        0x0 c:/a/gcc_arm/6/bin/../lib/gcc/arm-none-eabi/6.3.1/../../../../arm-none-eabi/lib/thumb/v7e-m/fpv4-sp/hard\libg_nano.a(lib_a-impure.o)
 .bss           0x00000000        0x0 c:/a/gcc_arm/6/bin/../lib/gcc/arm-none-eabi/6.3.1/../../../../arm-none-eabi/lib/thumb/v7e-m/fpv4-sp/hard\libg_nano.a(lib_a-impure.o)
 .text          0x00000000        0x0 c:/a/gcc_arm/6/bin/../lib/gcc/arm-none-eabi/6.3.1/../../../../arm-none-eabi/lib/thumb/v7e-m/fpv4-sp/hard\libg_nano.a(lib_a-init.o)
 .data          0x00000000        0x0 c:/a/gcc_arm/6/bin/../lib/gcc/arm-none-eabi/6.3.1/../../../../arm-none-eabi/lib/thumb/v7e-m/fpv4-sp/hard\libg_nano.a(lib_a-init.o)
 .bss           0x00000000        0x0 c:/a/gcc_arm/6/bin/../lib/gcc/arm-none-eabi/6.3.1/../../../../arm-none-eabi/lib/thumb/v7e-m/fpv4-sp/hard\libg_nano.a(lib_a-init.o)
 .text          0x00000000        0x0 c:/a/gcc_arm/6/bin/../lib/gcc/arm-none-eabi/6.3.1/../../../../arm-none-eabi/lib/thumb/v7e-m/fpv4-sp/hard\libg_nano.a(lib_a-malloc.o)
 .data          0x00000000        0x0 c:/a/gcc_arm/6/bin/../lib/gcc/arm-none-eabi/6.3.1/../../../../arm-none-eabi/lib/thumb/v7e-m/fpv4-sp/hard\libg_nano.a(lib_a-malloc.o)
 .bss           0x00000000        0x0 c:/a/gcc_arm/6/bin/../lib/gcc/arm-none-eabi/6.3.1/../../../../arm-none-eabi/lib/thumb/v7e-m/fpv4-sp/hard\libg_nano.a(lib_a-malloc.o)
 .text          0x00000000        0x0 c:/a/gcc_arm/6/bin/../lib/gcc/arm-none-eabi/6.3.1/../../../../arm-none-eabi/lib/thumb/v7e-m/fpv4-sp/hard\libg_nano.a(lib_a-memcmp.o)
 .data          0x00000000        0x0 c:/a/gcc_arm/6/bin/../lib/gcc/arm-none-eabi/6.3.1/../../../../arm-none-eabi/lib/thumb/v7e-m/fpv4-sp/hard\libg_nano.a(lib_a-memcmp.o)
 .bss           0x00000000        0x0 c:/a/gcc_arm/6/bin/../lib/gcc/arm-none-eabi/6.3.1/../../../../arm-none-eabi/lib/thumb/v7e-m/fpv4-sp/hard\libg_nano.a(lib_a-memcmp.o)
 .text          0x00000000        0x0 c:/a/gcc_arm/6/bin/../lib/gcc/arm-none-eabi/6.3.1/../../../../arm-none-eabi/lib/thumb/v7e-m/fpv4-sp/hard\libg_nano.a(lib_a-memcpy-stub.o)
 .data          0x00000000        0x0 c:/a/gcc_arm/6/bin/../lib/gcc/arm-none-eabi/6.3.1/../../../../arm-none-eabi/lib/thumb/v7e-m/fpv4-sp/hard\libg_nano.a(lib_a-memcpy-stub.o)
 .bss           0x00000000        0x0 c:/a/gcc_arm/6/bin/../lib/gcc/arm-none-eabi/6.3.1/../../../../arm-none-eabi/lib/thumb/v7e-m/fpv4-sp/hard\libg_nano.a(lib_a-memcpy-stub.o)
 .text          0x00000000        0x0 c:/a/gcc_arm/6/bin/../lib/gcc/arm-none-eabi/6.3.1/../../../../arm-none-eabi/lib/thumb/v7e-m/fpv4-sp/hard\libg_nano.a(lib_a-memset.o)
 .data          0x00000000        0x0 c:/a/gcc_arm/6/bin/../lib/gcc/arm-none-eabi/6.3.1/../../../../arm-none-eabi/lib/thumb/v7e-m/fpv4-sp/hard\libg_nano.a(lib_a-memset.o)
 .bss           0x00000000        0x0 c:/a/gcc_arm/6/bin/../lib/gcc/arm-none-eabi/6.3.1/../../../../arm-none-eabi/lib/thumb/v7e-m/fpv4-sp/hard\libg_nano.a(lib_a-memset.o)
 .text          0x00000000        0x0 c:/a/gcc_arm/6/bin/../lib/gcc/arm-none-eabi/6.3.1/../../../../arm-none-eabi/lib/thumb/v7e-m/fpv4-sp/hard\libg_nano.a(lib_a-nano-freer.o)
 .data          0x00000000        0x0 c:/a/gcc_arm/6/bin/../lib/gcc/arm-none-eabi/6.3.1/../../../../arm-none-eabi/lib/thumb/v7e-m/fpv4-sp/hard\libg_nano.a(lib_a-nano-freer.o)
 .bss           0x00000000        0x0 c:/a/gcc_arm/6/bin/../lib/gcc/arm-none-eabi/6.3.1/../../../../arm-none-eabi/lib/thumb/v7e-m/fpv4-sp/hard\libg_nano.a(lib_a-nano-freer.o)
 .text          0x00000000        0x0 c:/a/gcc_arm/6/bin/../lib/gcc/arm-none-eabi/6.3.1/../../../../arm-none-eabi/lib/thumb/v7e-m/fpv4-sp/hard\libg_nano.a(lib_a-nano-mallocr.o)
 .data          0x00000000        0x0 c:/a/gcc_arm/6/bin/../lib/gcc/arm-none-eabi/6.3.1/../../../../arm-none-eabi/lib/thumb/v7e-m/fpv4-sp/hard\libg_nano.a(lib_a-nano-mallocr.o)
 .bss           0x00000000        0x0 c:/a/gcc_arm/6/bin/../lib/gcc/arm-none-eabi/6.3.1/../../../../arm-none-eabi/lib/thumb/v7e-m/fpv4-sp/hard\libg_nano.a(lib_a-nano-mallocr.o)
 .text          0x00000000        0x0 c:/a/gcc_arm/6/bin/../lib/gcc/arm-none-eabi/6.3.1/../../../../arm-none-eabi/lib/thumb/v7e-m/fpv4-sp/hard\libg_nano.a(lib_a-sbrkr.o)
 .data          0x00000000        0x0 c:/a/gcc_arm/6/bin/../lib/gcc/arm-none-eabi/6.3.1/../../../../arm-none-eabi/lib/thumb/v7e-m/fpv4-sp/hard\libg_nano.a(lib_a-sbrkr.o)
 .bss           0x00000000        0x0 c:/a/gcc_arm/6/bin/../lib/gcc/arm-none-eabi/6.3.1/../../../../arm-none-eabi/lib/thumb/v7e-m/fpv4-sp/hard\libg_nano.a(lib_a-sbrkr.o)
 .text          0x00000000        0x0 c:/a/gcc_arm/6/bin/../lib/gcc/arm-none-eabi/6.3.1/../../../../arm-none-eabi/lib/thumb/v7e-m/fpv4-sp/hard\libg_nano.a(lib_a-strcpy.o)
 .data          0x00000000        0x0 c:/a/gcc_arm/6/bin/../lib/gcc/arm-none-eabi/6.3.1/../../../../arm-none-eabi/lib/thumb/v7e-m/fpv4-sp/hard\libg_nano.a(lib_a-strcpy.o)
 .bss           0x00000000        0x0 c:/a/gcc_arm/6/bin/../lib/gcc/arm-none-eabi/6.3.1/../../../../arm-none-eabi/lib/thumb/v7e-m/fpv4-sp/hard\libg_nano.a(lib_a-strcpy.o)
 .data          0x00000000        0x0 c:/a/gcc_arm/6/bin/../lib/gcc/arm-none-eabi/6.3.1/../../../../arm-none-eabi/lib/thumb/v7e-m/fpv4-sp/hard\libg_nano.a(lib_a-strlen.o)
 .bss           0x00000000        0x0 c:/a/gcc_arm/6/bin/../lib/gcc/arm-none-eabi/6.3.1/../../../../arm-none-eabi/lib/thumb/v7e-m/fpv4-sp/hard\libg_nano.a(lib_a-strlen.o)
 .text          0x00000000        0x0 c:/a/gcc_arm/6/bin/../lib/gcc/arm-none-eabi/6.3.1/../../../../arm-none-eabi/lib/thumb/v7e-m/fpv4-sp/hard\libg_nano.a(lib_a-strrchr.o)
 .data          0x00000000        0x0 c:/a/gcc_arm/6/bin/../lib/gcc/arm-none-eabi/6.3.1/../../../../arm-none-eabi/lib/thumb/v7e-m/fpv4-sp/hard\libg_nano.a(lib_a-strrchr.o)
 .bss           0x00000000        0x0 c:/a/gcc_arm/6/bin/../lib/gcc/arm-none-eabi/6.3.1/../../../../arm-none-eabi/lib/thumb/v7e-m/fpv4-sp/hard\libg_nano.a(lib_a-strrchr.o)
 .text          0x00000000        0x0 c:/a/gcc_arm/6/bin/../lib/gcc/arm-none-eabi/6.3.1/../../../../arm-none-eabi/lib/thumb/v7e-m/fpv4-sp/hard\libg_nano.a(lib_a-mlock.o)
 .data          0x00000000        0x0 c:/a/gcc_arm/6/bin/../lib/gcc/arm-none-eabi/6.3.1/../../../../arm-none-eabi/lib/thumb/v7e-m/fpv4-sp/hard\libg_nano.a(lib_a-mlock.o)
 .bss           0x00000000        0x0 c:/a/gcc_arm/6/bin/../lib/gcc/arm-none-eabi/6.3.1/../../../../arm-none-eabi/lib/thumb/v7e-m/fpv4-sp/hard\libg_nano.a(lib_a-mlock.o)
 .text          0x00000000        0x0 c:/a/gcc_arm/6/bin/../lib/gcc/arm-none-eabi/6.3.1/../../../../arm-none-eabi/lib/thumb/v7e-m/fpv4-sp/hard\libg_nano.a(lib_a-reent.o)
 .data          0x00000000        0x0 c:/a/gcc_arm/6/bin/../lib/gcc/arm-none-eabi/6.3.1/../../../../arm-none-eabi/lib/thumb/v7e-m/fpv4-sp/hard\libg_nano.a(lib_a-reent.o)
 .bss           0x00000000        0x0 c:/a/gcc_arm/6/bin/../lib/gcc/arm-none-eabi/6.3.1/../../../../arm-none-eabi/lib/thumb/v7e-m/fpv4-sp/hard\libg_nano.a(lib_a-reent.o)
 .text.cleanup_glue
                0x00000000       0x1a c:/a/gcc_arm/6/bin/../lib/gcc/arm-none-eabi/6.3.1/../../../../arm-none-eabi/lib/thumb/v7e-m/fpv4-sp/hard\libg_nano.a(lib_a-reent.o)
 .text._reclaim_reent
                0x00000000       0xb8 c:/a/gcc_arm/6/bin/../lib/gcc/arm-none-eabi/6.3.1/../../../../arm-none-eabi/lib/thumb/v7e-m/fpv4-sp/hard\libg_nano.a(lib_a-reent.o)
 .text          0x00000000        0x0 c:/a/gcc_arm/6/bin/../lib/gcc/arm-none-eabi/6.3.1/../../../../arm-none-eabi/lib/thumb/v7e-m/fpv4-sp/hard\libg_nano.a(lib_a-strchr.o)
 .data          0x00000000        0x0 c:/a/gcc_arm/6/bin/../lib/gcc/arm-none-eabi/6.3.1/../../../../arm-none-eabi/lib/thumb/v7e-m/fpv4-sp/hard\libg_nano.a(lib_a-strchr.o)
 .bss           0x00000000        0x0 c:/a/gcc_arm/6/bin/../lib/gcc/arm-none-eabi/6.3.1/../../../../arm-none-eabi/lib/thumb/v7e-m/fpv4-sp/hard\libg_nano.a(lib_a-strchr.o)
 .text          0x00000000        0x0 c:/a/gcc_arm/6/bin/../lib/gcc/arm-none-eabi/6.3.1/thumb/v7e-m/fpv4-sp/hard/crtend.o
 .data          0x00000000        0x0 c:/a/gcc_arm/6/bin/../lib/gcc/arm-none-eabi/6.3.1/thumb/v7e-m/fpv4-sp/hard/crtend.o
 .bss           0x00000000        0x0 c:/a/gcc_arm/6/bin/../lib/gcc/arm-none-eabi/6.3.1/thumb/v7e-m/fpv4-sp/hard/crtend.o
 .text          0x00000000        0x0 c:/a/gcc_arm/6/bin/../lib/gcc/arm-none-eabi/6.3.1/thumb/v7e-m/fpv4-sp/hard/crtn.o
 .data          0x00000000        0x0 c:/a/gcc_arm/6/bin/../lib/gcc/arm-none-eabi/6.3.1/thumb/v7e-m/fpv4-sp/hard/crtn.o
 .bss           0x00000000        0x0 c:/a/gcc_arm/6/bin/../lib/gcc/arm-none-eabi/6.3.1/thumb/v7e-m/fpv4-sp/hard/crtn.o
 .text          0x00000000        0x0 c:/a/gcc_arm/6/bin/../lib/gcc/arm-none-eabi/6.3.1/../../../../arm-none-eabi/lib/thumb/v7e-m/fpv4-sp/hard\libnosys.a(sbrk.o)
 .data          0x00000000        0x0 c:/a/gcc_arm/6/bin/../lib/gcc/arm-none-eabi/6.3.1/../../../../arm-none-eabi/lib/thumb/v7e-m/fpv4-sp/hard\libnosys.a(sbrk.o)
 .bss           0x00000000        0x0 c:/a/gcc_arm/6/bin/../lib/gcc/arm-none-eabi/6.3.1/../../../../arm-none-eabi/lib/thumb/v7e-m/fpv4-sp/hard\libnosys.a(sbrk.o)
 .text          0x00000000        0x0 c:/a/gcc_arm/6/bin/../lib/gcc/arm-none-eabi/6.3.1/../../../../arm-none-eabi/lib/thumb/v7e-m/fpv4-sp/hard\libnosys.a(_exit.o)
 .data          0x00000000        0x0 c:/a/gcc_arm/6/bin/../lib/gcc/arm-none-eabi/6.3.1/../../../../arm-none-eabi/lib/thumb/v7e-m/fpv4-sp/hard\libnosys.a(_exit.o)
 .bss           0x00000000        0x0 c:/a/gcc_arm/6/bin/../lib/gcc/arm-none-eabi/6.3.1/../../../../arm-none-eabi/lib/thumb/v7e-m/fpv4-sp/hard\libnosys.a(_exit.o)

Memory Configuration

Name             Origin             Length             Attributes
FLASH            0x00024000         0x000d4000         xr
RAM              0x200031b8         0x0003cb48         xrw
*default*        0x00000000         0xffffffff

Linker script and memory map


.text           0x00024000    0x11a3c
 *(.isr_vector)
 .isr_vector    0x00024000      0x200 examples/pb_remote/client/CMakeFiles/pb_remote_client_nrf52840_xxAA_s140_5.0.0-3.alpha.dir/__/__/__/external/nRF5_SDK_14.2.0_17b948a/components/toolchain/gcc/gcc_startup_nrf52840.S.obj
                0x00024000                __isr_vector
 *(.text*)
 .text          0x00024200       0x6c c:/a/gcc_arm/6/bin/../lib/gcc/arm-none-eabi/6.3.1/thumb/v7e-m/fpv4-sp/hard/crtbegin.o
 .text          0x0002426c       0x74 c:/a/gcc_arm/6/bin/../lib/gcc/arm-none-eabi/6.3.1/../../../../arm-none-eabi/lib/thumb/v7e-m/fpv4-sp/hard/crt0.o
                0x0002426c                _start
                0x0002426c                _mainCRTStartup
 .text.sd_app_evt_wait
                0x000242e0        0x4 examples/pb_remote/client/CMakeFiles/pb_remote_client_nrf52840_xxAA_s140_5.0.0-3.alpha.dir/src/main.c.obj
 .text.start_provisioning
                0x000242e4       0xa8 examples/pb_remote/client/CMakeFiles/pb_remote_client_nrf52840_xxAA_s140_5.0.0-3.alpha.dir/src/main.c.obj
 .text.user_input_handler
                0x0002438c      0x314 examples/pb_remote/client/CMakeFiles/pb_remote_client_nrf52840_xxAA_s140_5.0.0-3.alpha.dir/src/main.c.obj
 .text.remote_client_event_cb
                0x000246a0      0x20c examples/pb_remote/client/CMakeFiles/pb_remote_client_nrf52840_xxAA_s140_5.0.0-3.alpha.dir/src/main.c.obj
 .text.prov_evt_handler
                0x000248ac      0x2d4 examples/pb_remote/client/CMakeFiles/pb_remote_client_nrf52840_xxAA_s140_5.0.0-3.alpha.dir/src/main.c.obj
 .text.startup.main
                0x00024b80      0x250 examples/pb_remote/client/CMakeFiles/pb_remote_client_nrf52840_xxAA_s140_5.0.0-3.alpha.dir/src/main.c.obj
                0x00024b80                main
 .text.sd_evt_get
                0x00024dd0        0x4 examples/pb_remote/client/CMakeFiles/pb_remote_client_nrf52840_xxAA_s140_5.0.0-3.alpha.dir/__/__/nrf_mesh_sdk.c.obj
 .text.sd_softdevice_enable
                0x00024dd4        0x4 examples/pb_remote/client/CMakeFiles/pb_remote_client_nrf52840_xxAA_s140_5.0.0-3.alpha.dir/__/__/nrf_mesh_sdk.c.obj
 .text.sd_ble_enable
                0x00024dd8        0x4 examples/pb_remote/client/CMakeFiles/pb_remote_client_nrf52840_xxAA_s140_5.0.0-3.alpha.dir/__/__/nrf_mesh_sdk.c.obj
 .text.sd_ble_evt_get
                0x00024ddc        0x4 examples/pb_remote/client/CMakeFiles/pb_remote_client_nrf52840_xxAA_s140_5.0.0-3.alpha.dir/__/__/nrf_mesh_sdk.c.obj
 .text.sleep_forever
                0x00024de0       0x1c examples/pb_remote/client/CMakeFiles/pb_remote_client_nrf52840_xxAA_s140_5.0.0-3.alpha.dir/__/__/nrf_mesh_sdk.c.obj
 .text.mesh_assert_handler
                0x00024dfc       0x70 examples/pb_remote/client/CMakeFiles/pb_remote_client_nrf52840_xxAA_s140_5.0.0-3.alpha.dir/__/__/nrf_mesh_sdk.c.obj
                0x00024dfc                mesh_assert_handler
 .text.softdevice_assert_handler
                0x00024e6c       0x78 examples/pb_remote/client/CMakeFiles/pb_remote_client_nrf52840_xxAA_s140_5.0.0-3.alpha.dir/__/__/nrf_mesh_sdk.c.obj
                0x00024e6c                softdevice_assert_handler
 .text.app_error_handler
                0x00024ee4       0x78 examples/pb_remote/client/CMakeFiles/pb_remote_client_nrf52840_xxAA_s140_5.0.0-3.alpha.dir/__/__/nrf_mesh_sdk.c.obj
                0x00024ee4                app_error_handler
 .text.HardFault_Handler
                0x00024f5c       0x6c examples/pb_remote/client/CMakeFiles/pb_remote_client_nrf52840_xxAA_s140_5.0.0-3.alpha.dir/__/__/nrf_mesh_sdk.c.obj
                0x00024f5c                HardFault_Handler
 .text.SWI2_EGU2_IRQHandler
                0x00024fc8       0x3c examples/pb_remote/client/CMakeFiles/pb_remote_client_nrf52840_xxAA_s140_5.0.0-3.alpha.dir/__/__/nrf_mesh_sdk.c.obj
                0x00024fc8                SWI2_EGU2_IRQHandler
 .text.mesh_softdevice_enable
                0x00025004      0x124 examples/pb_remote/client/CMakeFiles/pb_remote_client_nrf52840_xxAA_s140_5.0.0-3.alpha.dir/__/__/nrf_mesh_sdk.c.obj
                0x00025004                mesh_softdevice_enable
 .text.mesh_softdevice_setup
                0x00025128       0x78 examples/pb_remote/client/CMakeFiles/pb_remote_client_nrf52840_xxAA_s140_5.0.0-3.alpha.dir/__/__/nrf_mesh_sdk.c.obj
                0x00025128                mesh_softdevice_setup
 .text.mesh_core_setup
                0x000251a0      0x15c examples/pb_remote/client/CMakeFiles/pb_remote_client_nrf52840_xxAA_s140_5.0.0-3.alpha.dir/__/__/nrf_mesh_sdk.c.obj
                0x000251a0                mesh_core_setup
 .text.TIMER2_IRQHandler
                0x000252fc       0x30 examples/pb_remote/client/CMakeFiles/pb_remote_client_nrf52840_xxAA_s140_5.0.0-3.alpha.dir/__/__/common/src/rtt_input.c.obj
                0x000252fc                TIMER2_IRQHandler
 .text.rtt_input_enable
                0x0002532c       0x5c examples/pb_remote/client/CMakeFiles/pb_remote_client_nrf52840_xxAA_s140_5.0.0-3.alpha.dir/__/__/common/src/rtt_input.c.obj
                0x0002532c                rtt_input_enable
 .text.pb_remote_client_event_unprov_number_cb
                0x00025388       0x6c examples/pb_remote/client/CMakeFiles/pb_remote_client_nrf52840_xxAA_s140_5.0.0-3.alpha.dir/__/__/__/models/pb_remote/src/pb_remote_client.c.obj
 .text.status_event_push.isra.0
                0x000253f4       0x1a examples/pb_remote/client/CMakeFiles/pb_remote_client_nrf52840_xxAA_s140_5.0.0-3.alpha.dir/__/__/__/models/pb_remote/src/pb_remote_client.c.obj
 *fill*         0x0002540e        0x2 
 .text.pb_remote_client_event_transfer_status_cb
                0x00025410       0x9c examples/pb_remote/client/CMakeFiles/pb_remote_client_nrf52840_xxAA_s140_5.0.0-3.alpha.dir/__/__/__/models/pb_remote/src/pb_remote_client.c.obj
 .text.pb_remote_client_event_link_status_cb
                0x000254ac      0x210 examples/pb_remote/client/CMakeFiles/pb_remote_client_nrf52840_xxAA_s140_5.0.0-3.alpha.dir/__/__/__/models/pb_remote/src/pb_remote_client.c.obj
 .text.pb_remote_client_event_scan_status_cb
                0x000256bc      0x138 examples/pb_remote/client/CMakeFiles/pb_remote_client_nrf52840_xxAA_s140_5.0.0-3.alpha.dir/__/__/__/models/pb_remote/src/pb_remote_client.c.obj
 .text.pb_remote_client_event_tx_failed_cb
                0x000257f4       0x44 examples/pb_remote/client/CMakeFiles/pb_remote_client_nrf52840_xxAA_s140_5.0.0-3.alpha.dir/__/__/__/models/pb_remote/src/pb_remote_client.c.obj
 .text.send_reply.isra.8.part.9
                0x00025838       0x14 examples/pb_remote/client/CMakeFiles/pb_remote_client_nrf52840_xxAA_s140_5.0.0-3.alpha.dir/__/__/__/models/pb_remote/src/pb_remote_client.c.obj
 .text.send_reliable_msg
                0x0002584c       0x2c examples/pb_remote/client/CMakeFiles/pb_remote_client_nrf52840_xxAA_s140_5.0.0-3.alpha.dir/__/__/__/models/pb_remote/src/pb_remote_client.c.obj
 .text.pb_remote_client_event_local_packet_cb
                0x00025878       0xac examples/pb_remote/client/CMakeFiles/pb_remote_client_nrf52840_xxAA_s140_5.0.0-3.alpha.dir/__/__/__/models/pb_remote/src/pb_remote_client.c.obj
 .text.pb_remote_client_event_prov_start_cb
                0x00025924       0x44 examples/pb_remote/client/CMakeFiles/pb_remote_client_nrf52840_xxAA_s140_5.0.0-3.alpha.dir/__/__/__/models/pb_remote/src/pb_remote_client.c.obj
 .text.pb_remote_client_event_link_close_cb
                0x00025968       0x90 examples/pb_remote/client/CMakeFiles/pb_remote_client_nrf52840_xxAA_s140_5.0.0-3.alpha.dir/__/__/__/models/pb_remote/src/pb_remote_client.c.obj
 .text.pb_remote_client_event_scan_cancel_cb
                0x000259f8       0x84 examples/pb_remote/client/CMakeFiles/pb_remote_client_nrf52840_xxAA_s140_5.0.0-3.alpha.dir/__/__/__/models/pb_remote/src/pb_remote_client.c.obj
 .text.pb_remote_client_event_scan_start_cb
                0x00025a7c       0x84 examples/pb_remote/client/CMakeFiles/pb_remote_client_nrf52840_xxAA_s140_5.0.0-3.alpha.dir/__/__/__/models/pb_remote/src/pb_remote_client.c.obj
 .text.send_reply.isra.8
                0x00025b00       0x16 examples/pb_remote/client/CMakeFiles/pb_remote_client_nrf52840_xxAA_s140_5.0.0-3.alpha.dir/__/__/__/models/pb_remote/src/pb_remote_client.c.obj
 *fill*         0x00025b16        0x2 
 .text.pb_remote_client_event_transfer_status_report_cb
                0x00025b18      0x13c examples/pb_remote/client/CMakeFiles/pb_remote_client_nrf52840_xxAA_s140_5.0.0-3.alpha.dir/__/__/__/models/pb_remote/src/pb_remote_client.c.obj
 .text.pb_remote_client_event_packet_transfer_cb
                0x00025c54       0xd8 examples/pb_remote/client/CMakeFiles/pb_remote_client_nrf52840_xxAA_s140_5.0.0-3.alpha.dir/__/__/__/models/pb_remote/src/pb_remote_client.c.obj
 .text.pb_remote_client_event_link_status_report_cb
                0x00025d2c      0x17c examples/pb_remote/client/CMakeFiles/pb_remote_client_nrf52840_xxAA_s140_5.0.0-3.alpha.dir/__/__/__/models/pb_remote/src/pb_remote_client.c.obj
 .text.pb_remote_client_event_unprov_uuid_cb
                0x00025ea8       0xd4 examples/pb_remote/client/CMakeFiles/pb_remote_client_nrf52840_xxAA_s140_5.0.0-3.alpha.dir/__/__/__/models/pb_remote/src/pb_remote_client.c.obj
 .text.pb_remote_client_process
                0x00025f7c      0x10c examples/pb_remote/client/CMakeFiles/pb_remote_client_nrf52840_xxAA_s140_5.0.0-3.alpha.dir/__/__/__/models/pb_remote/src/pb_remote_client.c.obj
 .text.client_reliable_status_cb
                0x00026088      0x11c examples/pb_remote/client/CMakeFiles/pb_remote_client_nrf52840_xxAA_s140_5.0.0-3.alpha.dir/__/__/__/models/pb_remote/src/pb_remote_client.c.obj
 .text.pb_if_link_close_cb
                0x000261a4       0x48 examples/pb_remote/client/CMakeFiles/pb_remote_client_nrf52840_xxAA_s140_5.0.0-3.alpha.dir/__/__/__/models/pb_remote/src/pb_remote_client.c.obj
 .text.pb_if_link_open_cb
                0x000261ec       0x58 examples/pb_remote/client/CMakeFiles/pb_remote_client_nrf52840_xxAA_s140_5.0.0-3.alpha.dir/__/__/__/models/pb_remote/src/pb_remote_client.c.obj
 .text.pb_if_tx_cb
                0x00026244       0x40 examples/pb_remote/client/CMakeFiles/pb_remote_client_nrf52840_xxAA_s140_5.0.0-3.alpha.dir/__/__/__/models/pb_remote/src/pb_remote_client.c.obj
 .text.remote_client_access_rx_cb
                0x00026284      0x170 examples/pb_remote/client/CMakeFiles/pb_remote_client_nrf52840_xxAA_s140_5.0.0-3.alpha.dir/__/__/__/models/pb_remote/src/pb_remote_client.c.obj
 .text.pb_remote_client_init
                0x000263f4       0x8c examples/pb_remote/client/CMakeFiles/pb_remote_client_nrf52840_xxAA_s140_5.0.0-3.alpha.dir/__/__/__/models/pb_remote/src/pb_remote_client.c.obj
                0x000263f4                pb_remote_client_init
 .text.pb_remote_client_remote_scan_start
                0x00026480       0x44 examples/pb_remote/client/CMakeFiles/pb_remote_client_nrf52840_xxAA_s140_5.0.0-3.alpha.dir/__/__/__/models/pb_remote/src/pb_remote_client.c.obj
                0x00026480                pb_remote_client_remote_scan_start
 .text.pb_remote_client_remote_scan_cancel
                0x000264c4       0x44 examples/pb_remote/client/CMakeFiles/pb_remote_client_nrf52840_xxAA_s140_5.0.0-3.alpha.dir/__/__/__/models/pb_remote/src/pb_remote_client.c.obj
                0x000264c4                pb_remote_client_remote_scan_cancel
 .text.pb_remote_client_bearer_interface_get
                0x00026508       0x28 examples/pb_remote/client/CMakeFiles/pb_remote_client_nrf52840_xxAA_s140_5.0.0-3.alpha.dir/__/__/__/models/pb_remote/src/pb_remote_client.c.obj
                0x00026508                pb_remote_client_bearer_interface_get
 .text.prov_provisioner_cb_link_closed
                0x00026530       0x2a examples/pb_remote/client/CMakeFiles/pb_remote_client_nrf52840_xxAA_s140_5.0.0-3.alpha.dir/__/__/__/mesh/prov/src/prov_provisioner.c.obj
 .text.prov_provisioner_cb_link_established
                0x0002655a       0x3e examples/pb_remote/client/CMakeFiles/pb_remote_client_nrf52840_xxAA_s140_5.0.0-3.alpha.dir/__/__/__/mesh/prov/src/prov_provisioner.c.obj
 .text.prov_provisioner_cb_ack_received
                0x00026598       0x48 examples/pb_remote/client/CMakeFiles/pb_remote_client_nrf52840_xxAA_s140_5.0.0-3.alpha.dir/__/__/__/mesh/prov/src/prov_provisioner.c.obj
 .text.send_confirmation
                0x000265e0       0x26 examples/pb_remote/client/CMakeFiles/pb_remote_client_nrf52840_xxAA_s140_5.0.0-3.alpha.dir/__/__/__/mesh/prov/src/prov_provisioner.c.obj
 .text.request_authentication
                0x00026606       0x8a examples/pb_remote/client/CMakeFiles/pb_remote_client_nrf52840_xxAA_s140_5.0.0-3.alpha.dir/__/__/__/mesh/prov/src/prov_provisioner.c.obj
 .text.prov_provisioner_pkt_in
                0x00026690      0x2a4 examples/pb_remote/client/CMakeFiles/pb_remote_client_nrf52840_xxAA_s140_5.0.0-3.alpha.dir/__/__/__/mesh/prov/src/prov_provisioner.c.obj
 .text.prov_provisioner_provision
                0x00026934       0x44 examples/pb_remote/client/CMakeFiles/pb_remote_client_nrf52840_xxAA_s140_5.0.0-3.alpha.dir/__/__/__/mesh/prov/src/prov_provisioner.c.obj
                0x00026934                prov_provisioner_provision
 .text.prov_provisioner_oob_use
                0x00026978       0x7a examples/pb_remote/client/CMakeFiles/pb_remote_client_nrf52840_xxAA_s140_5.0.0-3.alpha.dir/__/__/__/mesh/prov/src/prov_provisioner.c.obj
                0x00026978                prov_provisioner_oob_use
 .text.prov_provisioner_auth_data
                0x000269f2       0x44 examples/pb_remote/client/CMakeFiles/pb_remote_client_nrf52840_xxAA_s140_5.0.0-3.alpha.dir/__/__/__/mesh/prov/src/prov_provisioner.c.obj
                0x000269f2                prov_provisioner_auth_data
 .text.bearer_compare_callback
                0x00026a36        0xc examples/pb_remote/client/CMakeFiles/pb_remote_client_nrf52840_xxAA_s140_5.0.0-3.alpha.dir/__/__/__/mesh/prov/src/nrf_mesh_prov.c.obj
 .text.nrf_mesh_prov_init
                0x00026a42       0x32 examples/pb_remote/client/CMakeFiles/pb_remote_client_nrf52840_xxAA_s140_5.0.0-3.alpha.dir/__/__/__/mesh/prov/src/nrf_mesh_prov.c.obj
                0x00026a42                nrf_mesh_prov_init
 .text.nrf_mesh_prov_bearer_add
                0x00026a74       0x20 examples/pb_remote/client/CMakeFiles/pb_remote_client_nrf52840_xxAA_s140_5.0.0-3.alpha.dir/__/__/__/mesh/prov/src/nrf_mesh_prov.c.obj
                0x00026a74                nrf_mesh_prov_bearer_add
 .text.nrf_mesh_prov_generate_keys
                0x00026a94        0x4 examples/pb_remote/client/CMakeFiles/pb_remote_client_nrf52840_xxAA_s140_5.0.0-3.alpha.dir/__/__/__/mesh/prov/src/nrf_mesh_prov.c.obj
                0x00026a94                nrf_mesh_prov_generate_keys
 .text.nrf_mesh_prov_provision
                0x00026a98       0x4e examples/pb_remote/client/CMakeFiles/pb_remote_client_nrf52840_xxAA_s140_5.0.0-3.alpha.dir/__/__/__/mesh/prov/src/nrf_mesh_prov.c.obj
                0x00026a98                nrf_mesh_prov_provision
 .text.nrf_mesh_prov_oob_use
                0x00026ae6        0xe examples/pb_remote/client/CMakeFiles/pb_remote_client_nrf52840_xxAA_s140_5.0.0-3.alpha.dir/__/__/__/mesh/prov/src/nrf_mesh_prov.c.obj
                0x00026ae6                nrf_mesh_prov_oob_use
 .text.nrf_mesh_prov_auth_data_provide
                0x00026af4        0xe examples/pb_remote/client/CMakeFiles/pb_remote_client_nrf52840_xxAA_s140_5.0.0-3.alpha.dir/__/__/__/mesh/prov/src/nrf_mesh_prov.c.obj
                0x00026af4                nrf_mesh_prov_auth_data_provide
 .text.nrf_mesh_prov_scan_start
                0x00026b02       0x10 examples/pb_remote/client/CMakeFiles/pb_remote_client_nrf52840_xxAA_s140_5.0.0-3.alpha.dir/__/__/__/mesh/prov/src/nrf_mesh_prov.c.obj
                0x00026b02                nrf_mesh_prov_scan_start
 *fill*         0x00026b12        0x2 
 .text.send_data
                0x00026b14       0x3c examples/pb_remote/client/CMakeFiles/pb_remote_client_nrf52840_xxAA_s140_5.0.0-3.alpha.dir/__/__/__/mesh/prov/src/provisioning.c.obj
 .text.prov_packet_length_valid
                0x00026b50       0x1c examples/pb_remote/client/CMakeFiles/pb_remote_client_nrf52840_xxAA_s140_5.0.0-3.alpha.dir/__/__/__/mesh/prov/src/provisioning.c.obj
                0x00026b50                prov_packet_length_valid
 .text.prov_tx_invite
                0x00026b6c       0x28 examples/pb_remote/client/CMakeFiles/pb_remote_client_nrf52840_xxAA_s140_5.0.0-3.alpha.dir/__/__/__/mesh/prov/src/provisioning.c.obj
                0x00026b6c                prov_tx_invite
 .text.prov_tx_start
                0x00026b94       0x20 examples/pb_remote/client/CMakeFiles/pb_remote_client_nrf52840_xxAA_s140_5.0.0-3.alpha.dir/__/__/__/mesh/prov/src/provisioning.c.obj
                0x00026b94                prov_tx_start
 .text.prov_tx_public_key
                0x00026bb4       0x26 examples/pb_remote/client/CMakeFiles/pb_remote_client_nrf52840_xxAA_s140_5.0.0-3.alpha.dir/__/__/__/mesh/prov/src/provisioning.c.obj
                0x00026bb4                prov_tx_public_key
 .text.prov_tx_confirmation
                0x00026bda       0x26 examples/pb_remote/client/CMakeFiles/pb_remote_client_nrf52840_xxAA_s140_5.0.0-3.alpha.dir/__/__/__/mesh/prov/src/provisioning.c.obj
                0x00026bda                prov_tx_confirmation
 .text.prov_tx_random
                0x00026c00       0x26 examples/pb_remote/client/CMakeFiles/pb_remote_client_nrf52840_xxAA_s140_5.0.0-3.alpha.dir/__/__/__/mesh/prov/src/provisioning.c.obj
                0x00026c00                prov_tx_random
 .text.prov_tx_data
                0x00026c26        0x6 examples/pb_remote/client/CMakeFiles/pb_remote_client_nrf52840_xxAA_s140_5.0.0-3.alpha.dir/__/__/__/mesh/prov/src/provisioning.c.obj
                0x00026c26                prov_tx_data
 .text.prov_beacon_unprov_build
                0x00026c2c       0x54 examples/pb_remote/client/CMakeFiles/pb_remote_client_nrf52840_xxAA_s140_5.0.0-3.alpha.dir/__/__/__/mesh/prov/src/prov_beacon.c.obj
                0x00026c2c                prov_beacon_unprov_build
 .text.prov_beacon_unprov_packet_in
                0x00026c80       0x9c examples/pb_remote/client/CMakeFiles/pb_remote_client_nrf52840_xxAA_s140_5.0.0-3.alpha.dir/__/__/__/mesh/prov/src/prov_beacon.c.obj
                0x00026c80                prov_beacon_unprov_packet_in
 .text.prov_beacon_scan_start
                0x00026d1c       0x24 examples/pb_remote/client/CMakeFiles/pb_remote_client_nrf52840_xxAA_s140_5.0.0-3.alpha.dir/__/__/__/mesh/prov/src/prov_beacon.c.obj
                0x00026d1c                prov_beacon_scan_start
 .text.oob_gen_alphanumeric
                0x00026d40       0x34 examples/pb_remote/client/CMakeFiles/pb_remote_client_nrf52840_xxAA_s140_5.0.0-3.alpha.dir/__/__/__/mesh/prov/src/prov_utils.c.obj
 .text.oob_gen_numeric
                0x00026d74       0x3c examples/pb_remote/client/CMakeFiles/pb_remote_client_nrf52840_xxAA_s140_5.0.0-3.alpha.dir/__/__/__/mesh/prov/src/prov_utils.c.obj
 .text.prov_utils_opt_get
                0x00026db0       0x1c examples/pb_remote/client/CMakeFiles/pb_remote_client_nrf52840_xxAA_s140_5.0.0-3.alpha.dir/__/__/__/mesh/prov/src/prov_utils.c.obj
                0x00026db0                prov_utils_opt_get
 .text.prov_utils_use_ecdh_offloading
                0x00026dcc        0xc examples/pb_remote/client/CMakeFiles/pb_remote_client_nrf52840_xxAA_s140_5.0.0-3.alpha.dir/__/__/__/mesh/prov/src/prov_utils.c.obj
                0x00026dcc                prov_utils_use_ecdh_offloading
 .text.prov_utils_authentication_values_derive
                0x00026dd8       0xa0 examples/pb_remote/client/CMakeFiles/pb_remote_client_nrf52840_xxAA_s140_5.0.0-3.alpha.dir/__/__/__/mesh/prov/src/prov_utils.c.obj
                0x00026dd8                prov_utils_authentication_values_derive
 .text.prov_utils_keys_generate
                0x00026e78       0x1e examples/pb_remote/client/CMakeFiles/pb_remote_client_nrf52840_xxAA_s140_5.0.0-3.alpha.dir/__/__/__/mesh/prov/src/prov_utils.c.obj
                0x00026e78                prov_utils_keys_generate
 *fill*         0x00026e96        0x2 
 .text.prov_utils_derive_keys
                0x00026e98       0xac examples/pb_remote/client/CMakeFiles/pb_remote_client_nrf52840_xxAA_s140_5.0.0-3.alpha.dir/__/__/__/mesh/prov/src/prov_utils.c.obj
                0x00026e98                prov_utils_derive_keys
 .text.prov_utils_calculate_shared_secret
                0x00026f44       0x36 examples/pb_remote/client/CMakeFiles/pb_remote_client_nrf52840_xxAA_s140_5.0.0-3.alpha.dir/__/__/__/mesh/prov/src/prov_utils.c.obj
                0x00026f44                prov_utils_calculate_shared_secret
 *fill*         0x00026f7a        0x2 
 .text.prov_utils_generate_oob_data
                0x00026f7c       0x9c examples/pb_remote/client/CMakeFiles/pb_remote_client_nrf52840_xxAA_s140_5.0.0-3.alpha.dir/__/__/__/mesh/prov/src/prov_utils.c.obj
                0x00026f7c                prov_utils_generate_oob_data
 .text.prov_utils_confirmation_check
                0x00027018       0x5c examples/pb_remote/client/CMakeFiles/pb_remote_client_nrf52840_xxAA_s140_5.0.0-3.alpha.dir/__/__/__/mesh/prov/src/prov_utils.c.obj
                0x00027018                prov_utils_confirmation_check
 .text.link_timeout_cb
                0x00027074       0x10 examples/pb_remote/client/CMakeFiles/pb_remote_client_nrf52840_xxAA_s140_5.0.0-3.alpha.dir/__/__/__/mesh/prov/src/prov_bearer_adv.c.obj
 .text.remove_active_bearer
                0x00027084       0x60 examples/pb_remote/client/CMakeFiles/pb_remote_client_nrf52840_xxAA_s140_5.0.0-3.alpha.dir/__/__/__/mesh/prov/src/prov_bearer_adv.c.obj
 .text.close_link
                0x000270e4       0x6c examples/pb_remote/client/CMakeFiles/pb_remote_client_nrf52840_xxAA_s140_5.0.0-3.alpha.dir/__/__/__/mesh/prov/src/prov_bearer_adv.c.obj
 .text.prov_bearer_adv_listen_stop
                0x00027150       0x3c examples/pb_remote/client/CMakeFiles/pb_remote_client_nrf52840_xxAA_s140_5.0.0-3.alpha.dir/__/__/__/mesh/prov/src/prov_bearer_adv.c.obj
 .text.send_packet
                0x0002718c       0x6c examples/pb_remote/client/CMakeFiles/pb_remote_client_nrf52840_xxAA_s140_5.0.0-3.alpha.dir/__/__/__/mesh/prov/src/prov_bearer_adv.c.obj
 .text.prov_buffer_tx
                0x000271f8      0x158 examples/pb_remote/client/CMakeFiles/pb_remote_client_nrf52840_xxAA_s140_5.0.0-3.alpha.dir/__/__/__/mesh/prov/src/prov_bearer_adv.c.obj
 .text.send_link_close
                0x00027350       0x38 examples/pb_remote/client/CMakeFiles/pb_remote_client_nrf52840_xxAA_s140_5.0.0-3.alpha.dir/__/__/__/mesh/prov/src/prov_bearer_adv.c.obj
 .text.prov_bearer_adv_link_close
                0x00027388       0x74 examples/pb_remote/client/CMakeFiles/pb_remote_client_nrf52840_xxAA_s140_5.0.0-3.alpha.dir/__/__/__/mesh/prov/src/prov_bearer_adv.c.obj
 .text.send_transaction_ack
                0x000273fc       0x24 examples/pb_remote/client/CMakeFiles/pb_remote_client_nrf52840_xxAA_s140_5.0.0-3.alpha.dir/__/__/__/mesh/prov/src/prov_bearer_adv.c.obj
 .text.send_link_ack
                0x00027420       0x32 examples/pb_remote/client/CMakeFiles/pb_remote_client_nrf52840_xxAA_s140_5.0.0-3.alpha.dir/__/__/__/mesh/prov/src/prov_bearer_adv.c.obj
 .text.reset_timeout_timer
                0x00027452       0x1a examples/pb_remote/client/CMakeFiles/pb_remote_client_nrf52840_xxAA_s140_5.0.0-3.alpha.dir/__/__/__/mesh/prov/src/prov_bearer_adv.c.obj
 .text.tx_complete_cb
                0x0002746c       0x1c examples/pb_remote/client/CMakeFiles/pb_remote_client_nrf52840_xxAA_s140_5.0.0-3.alpha.dir/__/__/__/mesh/prov/src/prov_bearer_adv.c.obj
 .text.tx_retry_cb
                0x00027488       0xcc examples/pb_remote/client/CMakeFiles/pb_remote_client_nrf52840_xxAA_s140_5.0.0-3.alpha.dir/__/__/__/mesh/prov/src/prov_bearer_adv.c.obj
 .text.add_active_bearer
                0x00027554       0x80 examples/pb_remote/client/CMakeFiles/pb_remote_client_nrf52840_xxAA_s140_5.0.0-3.alpha.dir/__/__/__/mesh/prov/src/prov_bearer_adv.c.obj
 .text.prov_bearer_adv_link_open
                0x000275d4       0xf8 examples/pb_remote/client/CMakeFiles/pb_remote_client_nrf52840_xxAA_s140_5.0.0-3.alpha.dir/__/__/__/mesh/prov/src/prov_bearer_adv.c.obj
 .text.async_process
                0x000276cc       0x50 examples/pb_remote/client/CMakeFiles/pb_remote_client_nrf52840_xxAA_s140_5.0.0-3.alpha.dir/__/__/__/mesh/prov/src/prov_bearer_adv.c.obj
 .text.prov_bearer_adv_listen
                0x0002771c       0xec examples/pb_remote/client/CMakeFiles/pb_remote_client_nrf52840_xxAA_s140_5.0.0-3.alpha.dir/__/__/__/mesh/prov/src/prov_bearer_adv.c.obj
 .text.calculate_3GPP_CRC
                0x00027808       0x24 examples/pb_remote/client/CMakeFiles/pb_remote_client_nrf52840_xxAA_s140_5.0.0-3.alpha.dir/__/__/__/mesh/prov/src/prov_bearer_adv.c.obj
                0x00027808                calculate_3GPP_CRC
 .text.prov_bearer_adv_tx
                0x0002782c       0xb4 examples/pb_remote/client/CMakeFiles/pb_remote_client_nrf52840_xxAA_s140_5.0.0-3.alpha.dir/__/__/__/mesh/prov/src/prov_bearer_adv.c.obj
 .text.prov_buffer_rx
                0x000278e0       0x7c examples/pb_remote/client/CMakeFiles/pb_remote_client_nrf52840_xxAA_s140_5.0.0-3.alpha.dir/__/__/__/mesh/prov/src/prov_bearer_adv.c.obj
 .text.nrf_mesh_prov_bearer_adv_interface_get
                0x0002795c       0x48 examples/pb_remote/client/CMakeFiles/pb_remote_client_nrf52840_xxAA_s140_5.0.0-3.alpha.dir/__/__/__/mesh/prov/src/prov_bearer_adv.c.obj
                0x0002795c                nrf_mesh_prov_bearer_adv_interface_get
 .text.prov_bearer_adv_packet_in
                0x000279a4      0x80c examples/pb_remote/client/CMakeFiles/pb_remote_client_nrf52840_xxAA_s140_5.0.0-3.alpha.dir/__/__/__/mesh/prov/src/prov_bearer_adv.c.obj
                0x000279a4                prov_bearer_adv_packet_in
 .text.add_to_publication_list
                0x000281b0       0x84 examples/pb_remote/client/CMakeFiles/pb_remote_client_nrf52840_xxAA_s140_5.0.0-3.alpha.dir/__/__/__/mesh/access/src/access_publish.c.obj
 .text.step_resolution_to_us
                0x00028234       0x44 examples/pb_remote/client/CMakeFiles/pb_remote_client_nrf52840_xxAA_s140_5.0.0-3.alpha.dir/__/__/__/mesh/access/src/access_publish.c.obj
 .text.schedule_publication_timer
                0x00028278      0x184 examples/pb_remote/client/CMakeFiles/pb_remote_client_nrf52840_xxAA_s140_5.0.0-3.alpha.dir/__/__/__/mesh/access/src/access_publish.c.obj
 .text.publish_timer_tick
                0x000283fc       0xbc examples/pb_remote/client/CMakeFiles/pb_remote_client_nrf52840_xxAA_s140_5.0.0-3.alpha.dir/__/__/__/mesh/access/src/access_publish.c.obj
 .text.access_publish_init
                0x000284b8       0x38 examples/pb_remote/client/CMakeFiles/pb_remote_client_nrf52840_xxAA_s140_5.0.0-3.alpha.dir/__/__/__/mesh/access/src/access_publish.c.obj
                0x000284b8                access_publish_init
 .text.bitfield_get
                0x000284f0       0x1a examples/pb_remote/client/CMakeFiles/pb_remote_client_nrf52840_xxAA_s140_5.0.0-3.alpha.dir/__/__/__/mesh/access/src/access.c.obj
 .text.is_valid_opcode
                0x0002850a       0x42 examples/pb_remote/client/CMakeFiles/pb_remote_client_nrf52840_xxAA_s140_5.0.0-3.alpha.dir/__/__/__/mesh/access/src/access.c.obj
 .text.model_handle_valid_and_allocated
                0x0002854c       0x20 examples/pb_remote/client/CMakeFiles/pb_remote_client_nrf52840_xxAA_s140_5.0.0-3.alpha.dir/__/__/__/mesh/access/src/access.c.obj
 .text.flash_invalidate_complete
                0x0002856c       0x14 examples/pb_remote/client/CMakeFiles/pb_remote_client_nrf52840_xxAA_s140_5.0.0-3.alpha.dir/__/__/__/mesh/access/src/access.c.obj
 .text.flash_manager_mem_available
                0x00028580        0x2 examples/pb_remote/client/CMakeFiles/pb_remote_client_nrf52840_xxAA_s140_5.0.0-3.alpha.dir/__/__/__/mesh/access/src/access.c.obj
 *fill*         0x00028582        0x2 
 .text.access_state_clear
                0x00028584       0x4c examples/pb_remote/client/CMakeFiles/pb_remote_client_nrf52840_xxAA_s140_5.0.0-3.alpha.dir/__/__/__/mesh/access/src/access.c.obj
 .text.add_flash_manager
                0x000285d0       0x58 examples/pb_remote/client/CMakeFiles/pb_remote_client_nrf52840_xxAA_s140_5.0.0-3.alpha.dir/__/__/__/mesh/access/src/access.c.obj
 .text.flash_remove_complete
                0x00028628       0x5c examples/pb_remote/client/CMakeFiles/pb_remote_client_nrf52840_xxAA_s140_5.0.0-3.alpha.dir/__/__/__/mesh/access/src/access.c.obj
 .text.flash_write_complete
                0x00028684       0x54 examples/pb_remote/client/CMakeFiles/pb_remote_client_nrf52840_xxAA_s140_5.0.0-3.alpha.dir/__/__/__/mesh/access/src/access.c.obj
 .text.handle_incoming
                0x000286d8      0x158 examples/pb_remote/client/CMakeFiles/pb_remote_client_nrf52840_xxAA_s140_5.0.0-3.alpha.dir/__/__/__/mesh/access/src/access.c.obj
 .text.mesh_evt_cb
                0x00028830      0x134 examples/pb_remote/client/CMakeFiles/pb_remote_client_nrf52840_xxAA_s140_5.0.0-3.alpha.dir/__/__/__/mesh/access/src/access.c.obj
 .text.packet_tx
                0x00028964      0x2c4 examples/pb_remote/client/CMakeFiles/pb_remote_client_nrf52840_xxAA_s140_5.0.0-3.alpha.dir/__/__/__/mesh/access/src/access.c.obj
 .text.access_init
                0x00028c28       0x28 examples/pb_remote/client/CMakeFiles/pb_remote_client_nrf52840_xxAA_s140_5.0.0-3.alpha.dir/__/__/__/mesh/access/src/access.c.obj
                0x00028c28                access_init
 .text.access_model_add
                0x00028c50      0x1b4 examples/pb_remote/client/CMakeFiles/pb_remote_client_nrf52840_xxAA_s140_5.0.0-3.alpha.dir/__/__/__/mesh/access/src/access.c.obj
                0x00028c50                access_model_add
 .text.access_model_publish
                0x00028e04        0xc examples/pb_remote/client/CMakeFiles/pb_remote_client_nrf52840_xxAA_s140_5.0.0-3.alpha.dir/__/__/__/mesh/access/src/access.c.obj
                0x00028e04                access_model_publish
 .text.access_model_reply
                0x00028e10       0x12 examples/pb_remote/client/CMakeFiles/pb_remote_client_nrf52840_xxAA_s140_5.0.0-3.alpha.dir/__/__/__/mesh/access/src/access.c.obj
                0x00028e10                access_model_reply
 *fill*         0x00028e22        0x2 
 .text.access_model_publish_address_set
                0x00028e24       0x3c examples/pb_remote/client/CMakeFiles/pb_remote_client_nrf52840_xxAA_s140_5.0.0-3.alpha.dir/__/__/__/mesh/access/src/access.c.obj
                0x00028e24                access_model_publish_address_set
 .text.access_model_publish_address_get
                0x00028e60       0x28 examples/pb_remote/client/CMakeFiles/pb_remote_client_nrf52840_xxAA_s140_5.0.0-3.alpha.dir/__/__/__/mesh/access/src/access.c.obj
                0x00028e60                access_model_publish_address_get
 .text.access_model_application_bind
                0x00028e88       0x50 examples/pb_remote/client/CMakeFiles/pb_remote_client_nrf52840_xxAA_s140_5.0.0-3.alpha.dir/__/__/__/mesh/access/src/access.c.obj
                0x00028e88                access_model_application_bind
 .text.access_model_publish_application_set
                0x00028ed8       0x3c examples/pb_remote/client/CMakeFiles/pb_remote_client_nrf52840_xxAA_s140_5.0.0-3.alpha.dir/__/__/__/mesh/access/src/access.c.obj
                0x00028ed8                access_model_publish_application_set
 .text.access_model_publish_ttl_set
                0x00028f14       0x40 examples/pb_remote/client/CMakeFiles/pb_remote_client_nrf52840_xxAA_s140_5.0.0-3.alpha.dir/__/__/__/mesh/access/src/access.c.obj
                0x00028f14                access_model_publish_ttl_set
 .text.access_model_publish_ttl_get
                0x00028f54       0x28 examples/pb_remote/client/CMakeFiles/pb_remote_client_nrf52840_xxAA_s140_5.0.0-3.alpha.dir/__/__/__/mesh/access/src/access.c.obj
                0x00028f54                access_model_publish_ttl_get
 .text.access_model_p_args_get
                0x00028f7c       0x28 examples/pb_remote/client/CMakeFiles/pb_remote_client_nrf52840_xxAA_s140_5.0.0-3.alpha.dir/__/__/__/mesh/access/src/access.c.obj
                0x00028f7c                access_model_p_args_get
 .text.remove_and_reschedule
                0x00028fa4       0xd8 examples/pb_remote/client/CMakeFiles/pb_remote_client_nrf52840_xxAA_s140_5.0.0-3.alpha.dir/__/__/__/mesh/access/src/access_reliable.c.obj
 .text.reliable_timer_cb
                0x0002907c      0x148 examples/pb_remote/client/CMakeFiles/pb_remote_client_nrf52840_xxAA_s140_5.0.0-3.alpha.dir/__/__/__/mesh/access/src/access_reliable.c.obj
 .text.access_reliable_message_rx_cb
                0x000291c4       0x74 examples/pb_remote/client/CMakeFiles/pb_remote_client_nrf52840_xxAA_s140_5.0.0-3.alpha.dir/__/__/__/mesh/access/src/access_reliable.c.obj
                0x000291c4                access_reliable_message_rx_cb
 .text.access_reliable_init
                0x00029238       0x1c examples/pb_remote/client/CMakeFiles/pb_remote_client_nrf52840_xxAA_s140_5.0.0-3.alpha.dir/__/__/__/mesh/access/src/access_reliable.c.obj
                0x00029238                access_reliable_init
 .text.access_model_reliable_cancel
                0x00029254       0x4c examples/pb_remote/client/CMakeFiles/pb_remote_client_nrf52840_xxAA_s140_5.0.0-3.alpha.dir/__/__/__/mesh/access/src/access_reliable.c.obj
                0x00029254                access_model_reliable_cancel
 .text.access_model_reliable_publish
                0x000292a0      0x1ac examples/pb_remote/client/CMakeFiles/pb_remote_client_nrf52840_xxAA_s140_5.0.0-3.alpha.dir/__/__/__/mesh/access/src/access_reliable.c.obj
                0x000292a0                access_model_reliable_publish
 .text.bitfield_get
                0x0002944c       0x1a examples/pb_remote/client/CMakeFiles/pb_remote_client_nrf52840_xxAA_s140_5.0.0-3.alpha.dir/__/__/__/mesh/access/src/device_state_manager.c.obj
 .text.bitfield_set
                0x00029466       0x18 examples/pb_remote/client/CMakeFiles/pb_remote_client_nrf52840_xxAA_s140_5.0.0-3.alpha.dir/__/__/__/mesh/access/src/device_state_manager.c.obj
 .text.bitfield_clear
                0x0002947e       0x1a examples/pb_remote/client/CMakeFiles/pb_remote_client_nrf52840_xxAA_s140_5.0.0-3.alpha.dir/__/__/__/mesh/access/src/device_state_manager.c.obj
 .text.bitfield_is_all_clear
                0x00029498       0x3c examples/pb_remote/client/CMakeFiles/pb_remote_client_nrf52840_xxAA_s140_5.0.0-3.alpha.dir/__/__/__/mesh/access/src/device_state_manager.c.obj
 .text.address_handle_virtual_valid
                0x000294d4       0x14 examples/pb_remote/client/CMakeFiles/pb_remote_client_nrf52840_xxAA_s140_5.0.0-3.alpha.dir/__/__/__/mesh/access/src/device_state_manager.c.obj
 .text.net_key_handle_get
                0x000294e8       0x38 examples/pb_remote/client/CMakeFiles/pb_remote_client_nrf52840_xxAA_s140_5.0.0-3.alpha.dir/__/__/__/mesh/access/src/device_state_manager.c.obj
 .text.dev_key_handle_get
                0x00029520       0x58 examples/pb_remote/client/CMakeFiles/pb_remote_client_nrf52840_xxAA_s140_5.0.0-3.alpha.dir/__/__/__/mesh/access/src/device_state_manager.c.obj
 .text.app_key_handle_get
                0x00029578       0x38 examples/pb_remote/client/CMakeFiles/pb_remote_client_nrf52840_xxAA_s140_5.0.0-3.alpha.dir/__/__/__/mesh/access/src/device_state_manager.c.obj
 .text.get_subnet_handle
                0x000295b0       0x40 examples/pb_remote/client/CMakeFiles/pb_remote_client_nrf52840_xxAA_s140_5.0.0-3.alpha.dir/__/__/__/mesh/access/src/device_state_manager.c.obj
 .text.addr_nonvirtual_to_flash_entry
                0x000295f0       0x10 examples/pb_remote/client/CMakeFiles/pb_remote_client_nrf52840_xxAA_s140_5.0.0-3.alpha.dir/__/__/__/mesh/access/src/device_state_manager.c.obj
 .text.flash_mem_listener_callback
                0x00029600       0x20 examples/pb_remote/client/CMakeFiles/pb_remote_client_nrf52840_xxAA_s140_5.0.0-3.alpha.dir/__/__/__/mesh/access/src/device_state_manager.c.obj
 .text.devkey_set
                0x00029620       0x4c examples/pb_remote/client/CMakeFiles/pb_remote_client_nrf52840_xxAA_s140_5.0.0-3.alpha.dir/__/__/__/mesh/access/src/device_state_manager.c.obj
 .text.devkey_to_dsm_entry
                0x0002966c       0x16 examples/pb_remote/client/CMakeFiles/pb_remote_client_nrf52840_xxAA_s140_5.0.0-3.alpha.dir/__/__/__/mesh/access/src/device_state_manager.c.obj
 *fill*         0x00029682        0x2 
 .text.devkey_to_flash_entry
                0x00029684       0x28 examples/pb_remote/client/CMakeFiles/pb_remote_client_nrf52840_xxAA_s140_5.0.0-3.alpha.dir/__/__/__/mesh/access/src/device_state_manager.c.obj
 .text.addr_virtual_to_flash_entry
                0x000296ac       0x18 examples/pb_remote/client/CMakeFiles/pb_remote_client_nrf52840_xxAA_s140_5.0.0-3.alpha.dir/__/__/__/mesh/access/src/device_state_manager.c.obj
 .text.addr_unicast_to_dsm_entry
                0x000296c4        0xc examples/pb_remote/client/CMakeFiles/pb_remote_client_nrf52840_xxAA_s140_5.0.0-3.alpha.dir/__/__/__/mesh/access/src/device_state_manager.c.obj
 .text.addr_unicast_to_flash_entry
                0x000296d0       0x10 examples/pb_remote/client/CMakeFiles/pb_remote_client_nrf52840_xxAA_s140_5.0.0-3.alpha.dir/__/__/__/mesh/access/src/device_state_manager.c.obj
 .text.appkey_set
                0x000296e0       0x7c examples/pb_remote/client/CMakeFiles/pb_remote_client_nrf52840_xxAA_s140_5.0.0-3.alpha.dir/__/__/__/mesh/access/src/device_state_manager.c.obj
 .text.appkey_to_flash_entry
                0x0002975c       0x54 examples/pb_remote/client/CMakeFiles/pb_remote_client_nrf52840_xxAA_s140_5.0.0-3.alpha.dir/__/__/__/mesh/access/src/device_state_manager.c.obj
 .text.subnet_to_flash_entry
                0x000297b0       0x60 examples/pb_remote/client/CMakeFiles/pb_remote_client_nrf52840_xxAA_s140_5.0.0-3.alpha.dir/__/__/__/mesh/access/src/device_state_manager.c.obj
 .text.subnet_set
                0x00029810       0xb4 examples/pb_remote/client/CMakeFiles/pb_remote_client_nrf52840_xxAA_s140_5.0.0-3.alpha.dir/__/__/__/mesh/access/src/device_state_manager.c.obj
 .text.virtual_address_set
                0x000298c4       0x54 examples/pb_remote/client/CMakeFiles/pb_remote_client_nrf52840_xxAA_s140_5.0.0-3.alpha.dir/__/__/__/mesh/access/src/device_state_manager.c.obj
 .text.addr_virtual_to_dsm_entry
                0x00029918        0xc examples/pb_remote/client/CMakeFiles/pb_remote_client_nrf52840_xxAA_s140_5.0.0-3.alpha.dir/__/__/__/mesh/access/src/device_state_manager.c.obj
 .text.flash_save
                0x00029924       0x88 examples/pb_remote/client/CMakeFiles/pb_remote_client_nrf52840_xxAA_s140_5.0.0-3.alpha.dir/__/__/__/mesh/access/src/device_state_manager.c.obj
 .text.flash_invalidate
                0x000299ac       0x70 examples/pb_remote/client/CMakeFiles/pb_remote_client_nrf52840_xxAA_s140_5.0.0-3.alpha.dir/__/__/__/mesh/access/src/device_state_manager.c.obj
 .text.flash_update_all
                0x00029a1c       0x6c examples/pb_remote/client/CMakeFiles/pb_remote_client_nrf52840_xxAA_s140_5.0.0-3.alpha.dir/__/__/__/mesh/access/src/device_state_manager.c.obj
 .text.virtual_address_uuid_index_get
                0x00029a88       0x3c examples/pb_remote/client/CMakeFiles/pb_remote_client_nrf52840_xxAA_s140_5.0.0-3.alpha.dir/__/__/__/mesh/access/src/device_state_manager.c.obj
 .text.get_subnet_handle_by_beacon_info
                0x00029ac4       0x30 examples/pb_remote/client/CMakeFiles/pb_remote_client_nrf52840_xxAA_s140_5.0.0-3.alpha.dir/__/__/__/mesh/access/src/device_state_manager.c.obj
 .text.get_app_handle
                0x00029af4       0x4c examples/pb_remote/client/CMakeFiles/pb_remote_client_nrf52840_xxAA_s140_5.0.0-3.alpha.dir/__/__/__/mesh/access/src/device_state_manager.c.obj
 .text.appkey_to_dsm_entry
                0x00029b40       0x80 examples/pb_remote/client/CMakeFiles/pb_remote_client_nrf52840_xxAA_s140_5.0.0-3.alpha.dir/__/__/__/mesh/access/src/device_state_manager.c.obj
 .text.subnet_to_dsm_entry
                0x00029bc0       0x7c examples/pb_remote/client/CMakeFiles/pb_remote_client_nrf52840_xxAA_s140_5.0.0-3.alpha.dir/__/__/__/mesh/access/src/device_state_manager.c.obj
 .text.flash_operation_complete
                0x00029c3c       0x58 examples/pb_remote/client/CMakeFiles/pb_remote_client_nrf52840_xxAA_s140_5.0.0-3.alpha.dir/__/__/__/mesh/access/src/device_state_manager.c.obj
 .text.flash_invalidate_complete
                0x00029c94        0x8 examples/pb_remote/client/CMakeFiles/pb_remote_client_nrf52840_xxAA_s140_5.0.0-3.alpha.dir/__/__/__/mesh/access/src/device_state_manager.c.obj
 .text.flash_write_complete
                0x00029c9c        0x8 examples/pb_remote/client/CMakeFiles/pb_remote_client_nrf52840_xxAA_s140_5.0.0-3.alpha.dir/__/__/__/mesh/access/src/device_state_manager.c.obj
 .text.add_address.part.7
                0x00029ca4      0x144 examples/pb_remote/client/CMakeFiles/pb_remote_client_nrf52840_xxAA_s140_5.0.0-3.alpha.dir/__/__/__/mesh/access/src/device_state_manager.c.obj
 .text.address_handle_valid
                0x00029de8       0x28 examples/pb_remote/client/CMakeFiles/pb_remote_client_nrf52840_xxAA_s140_5.0.0-3.alpha.dir/__/__/__/mesh/access/src/device_state_manager.c.obj
 .text.address_handle_nonvirtual_valid
                0x00029e10       0x14 examples/pb_remote/client/CMakeFiles/pb_remote_client_nrf52840_xxAA_s140_5.0.0-3.alpha.dir/__/__/__/mesh/access/src/device_state_manager.c.obj
 .text.addr_nonvirtual_to_dsm_entry
                0x00029e24       0x38 examples/pb_remote/client/CMakeFiles/pb_remote_client_nrf52840_xxAA_s140_5.0.0-3.alpha.dir/__/__/__/mesh/access/src/device_state_manager.c.obj
 .text.dsm_flash_area_get
                0x00029e5c        0xc examples/pb_remote/client/CMakeFiles/pb_remote_client_nrf52840_xxAA_s140_5.0.0-3.alpha.dir/__/__/__/mesh/access/src/device_state_manager.c.obj
                0x00029e5c                dsm_flash_area_get
 .text.build_flash_area
                0x00029e68       0x8c examples/pb_remote/client/CMakeFiles/pb_remote_client_nrf52840_xxAA_s140_5.0.0-3.alpha.dir/__/__/__/mesh/access/src/device_state_manager.c.obj
 .text.flash_remove_complete
                0x00029ef4        0x4 examples/pb_remote/client/CMakeFiles/pb_remote_client_nrf52840_xxAA_s140_5.0.0-3.alpha.dir/__/__/__/mesh/access/src/device_state_manager.c.obj
 .text.dsm_init
                0x00029ef8       0x24 examples/pb_remote/client/CMakeFiles/pb_remote_client_nrf52840_xxAA_s140_5.0.0-3.alpha.dir/__/__/__/mesh/access/src/device_state_manager.c.obj
                0x00029ef8                dsm_init
 .text.dsm_local_unicast_addresses_set
                0x00029f1c       0x84 examples/pb_remote/client/CMakeFiles/pb_remote_client_nrf52840_xxAA_s140_5.0.0-3.alpha.dir/__/__/__/mesh/access/src/device_state_manager.c.obj
                0x00029f1c                dsm_local_unicast_addresses_set
 .text.dsm_local_unicast_addresses_get
                0x00029fa0       0x2c examples/pb_remote/client/CMakeFiles/pb_remote_client_nrf52840_xxAA_s140_5.0.0-3.alpha.dir/__/__/__/mesh/access/src/device_state_manager.c.obj
                0x00029fa0                dsm_local_unicast_addresses_get
 .text.dsm_address_publish_add
                0x00029fcc        0xc examples/pb_remote/client/CMakeFiles/pb_remote_client_nrf52840_xxAA_s140_5.0.0-3.alpha.dir/__/__/__/mesh/access/src/device_state_manager.c.obj
                0x00029fcc                dsm_address_publish_add
 .text.dsm_address_subscription_get
                0x00029fd8       0x34 examples/pb_remote/client/CMakeFiles/pb_remote_client_nrf52840_xxAA_s140_5.0.0-3.alpha.dir/__/__/__/mesh/access/src/device_state_manager.c.obj
                0x00029fd8                dsm_address_subscription_get
 .text.dsm_address_get
                0x0002a00c       0x5c examples/pb_remote/client/CMakeFiles/pb_remote_client_nrf52840_xxAA_s140_5.0.0-3.alpha.dir/__/__/__/mesh/access/src/device_state_manager.c.obj
                0x0002a00c                dsm_address_get
 .text.dsm_address_handle_get
                0x0002a068       0x98 examples/pb_remote/client/CMakeFiles/pb_remote_client_nrf52840_xxAA_s140_5.0.0-3.alpha.dir/__/__/__/mesh/access/src/device_state_manager.c.obj
                0x0002a068                dsm_address_handle_get
 .text.dsm_appkey_handle_get
                0x0002a100        0xc examples/pb_remote/client/CMakeFiles/pb_remote_client_nrf52840_xxAA_s140_5.0.0-3.alpha.dir/__/__/__/mesh/access/src/device_state_manager.c.obj
                0x0002a100                dsm_appkey_handle_get
 .text.dsm_subnet_add
                0x0002a10c       0x58 examples/pb_remote/client/CMakeFiles/pb_remote_client_nrf52840_xxAA_s140_5.0.0-3.alpha.dir/__/__/__/mesh/access/src/device_state_manager.c.obj
                0x0002a10c                dsm_subnet_add
 .text.dsm_subnet_update_swap_keys
                0x0002a164       0x50 examples/pb_remote/client/CMakeFiles/pb_remote_client_nrf52840_xxAA_s140_5.0.0-3.alpha.dir/__/__/__/mesh/access/src/device_state_manager.c.obj
                0x0002a164                dsm_subnet_update_swap_keys
 .text.dsm_subnet_update_commit
                0x0002a1b4       0xb8 examples/pb_remote/client/CMakeFiles/pb_remote_client_nrf52840_xxAA_s140_5.0.0-3.alpha.dir/__/__/__/mesh/access/src/device_state_manager.c.obj
                0x0002a1b4                dsm_subnet_update_commit
 .text.net_beacon_callback
                0x0002a26c       0x74 examples/pb_remote/client/CMakeFiles/pb_remote_client_nrf52840_xxAA_s140_5.0.0-3.alpha.dir/__/__/__/mesh/access/src/device_state_manager.c.obj
 .text.dsm_devkey_add
                0x0002a2e0       0x78 examples/pb_remote/client/CMakeFiles/pb_remote_client_nrf52840_xxAA_s140_5.0.0-3.alpha.dir/__/__/__/mesh/access/src/device_state_manager.c.obj
                0x0002a2e0                dsm_devkey_add
 .text.dsm_appkey_add
                0x0002a358       0x70 examples/pb_remote/client/CMakeFiles/pb_remote_client_nrf52840_xxAA_s140_5.0.0-3.alpha.dir/__/__/__/mesh/access/src/device_state_manager.c.obj
                0x0002a358                dsm_appkey_add
 .text.dsm_tx_secmat_get
                0x0002a3c8      0x104 examples/pb_remote/client/CMakeFiles/pb_remote_client_nrf52840_xxAA_s140_5.0.0-3.alpha.dir/__/__/__/mesh/access/src/device_state_manager.c.obj
                0x0002a3c8                dsm_tx_secmat_get
 .text.nrf_mesh_net_secmat_next_get
                0x0002a4cc       0xa4 examples/pb_remote/client/CMakeFiles/pb_remote_client_nrf52840_xxAA_s140_5.0.0-3.alpha.dir/__/__/__/mesh/access/src/device_state_manager.c.obj
                0x0002a4cc                nrf_mesh_net_secmat_next_get
 .text.nrf_mesh_app_secmat_next_get
                0x0002a570       0x84 examples/pb_remote/client/CMakeFiles/pb_remote_client_nrf52840_xxAA_s140_5.0.0-3.alpha.dir/__/__/__/mesh/access/src/device_state_manager.c.obj
                0x0002a570                nrf_mesh_app_secmat_next_get
 .text.nrf_mesh_devkey_secmat_get
                0x0002a5f4       0x44 examples/pb_remote/client/CMakeFiles/pb_remote_client_nrf52840_xxAA_s140_5.0.0-3.alpha.dir/__/__/__/mesh/access/src/device_state_manager.c.obj
                0x0002a5f4                nrf_mesh_devkey_secmat_get
 .text.nrf_mesh_beacon_info_next_get
                0x0002a638       0xc8 examples/pb_remote/client/CMakeFiles/pb_remote_client_nrf52840_xxAA_s140_5.0.0-3.alpha.dir/__/__/__/mesh/access/src/device_state_manager.c.obj
                0x0002a638                nrf_mesh_beacon_info_next_get
 .text.nrf_mesh_rx_address_get
                0x0002a700       0xfc examples/pb_remote/client/CMakeFiles/pb_remote_client_nrf52840_xxAA_s140_5.0.0-3.alpha.dir/__/__/__/mesh/access/src/device_state_manager.c.obj
                0x0002a700                nrf_mesh_rx_address_get
 .text._weak_handler
                0x0002a7fc        0x4 examples/pb_remote/client/CMakeFiles/pb_remote_client_nrf52840_xxAA_s140_5.0.0-3.alpha.dir/__/__/nrf_mesh_weak.c.obj
                0x0002a7fc                nrf_mesh_dfu_init
                0x0002a7fc                nrf_mesh_dfu_jump_to_bootloader
                0x0002a7fc                nrf_mesh_dfu_rx
                0x0002a7fc                nrf_mesh_dfu_bank_info_get
                0x0002a7fc                nrf_mesh_dfu_request
                0x0002a7fc                nrf_mesh_dfu_bank_flash
                0x0002a7fc                _weak_handler
                0x0002a7fc                prov_provisionee_auth_data
                0x0002a7fc                nrf_mesh_dfu_relay
                0x0002a7fc                prov_provisionee_shared_secret
                0x0002a7fc                nrf_mesh_dfu_abort
                0x0002a7fc                mesh_flash_op_execute
                0x0002a7fc                prov_provisionee_init
                0x0002a7fc                nrf_mesh_dfu_state_get
 .text.errata_136
                0x0002a800       0x20 examples/pb_remote/client/CMakeFiles/pb_remote_client_nrf52840_xxAA_s140_5.0.0-3.alpha.dir/__/__/__/external/nRF5_SDK_14.2.0_17b948a/components/toolchain/system_nrf52840.c.obj
 .text.SystemInit
                0x0002a820      0x1d0 examples/pb_remote/client/CMakeFiles/pb_remote_client_nrf52840_xxAA_s140_5.0.0-3.alpha.dir/__/__/__/external/nRF5_SDK_14.2.0_17b948a/components/toolchain/system_nrf52840.c.obj
                0x0002a820                SystemInit
 .text          0x0002a9f0       0x3c examples/pb_remote/client/CMakeFiles/pb_remote_client_nrf52840_xxAA_s140_5.0.0-3.alpha.dir/__/__/__/external/nRF5_SDK_14.2.0_17b948a/components/toolchain/gcc/gcc_startup_nrf52840.S.obj
                0x0002a9f0                Reset_Handler
                0x0002aa18                NMI_Handler
                0x0002aa1c                MemoryManagement_Handler
                0x0002aa1e                BusFault_Handler
                0x0002aa20                UsageFault_Handler
                0x0002aa22                SVC_Handler
                0x0002aa24                DebugMon_Handler
                0x0002aa26                PendSV_Handler
                0x0002aa28                SysTick_Handler
                0x0002aa2a                RADIO_IRQHandler
                0x0002aa2a                PDM_IRQHandler
                0x0002aa2a                TEMP_IRQHandler
                0x0002aa2a                TIMER3_IRQHandler
                0x0002aa2a                PWM3_IRQHandler
                0x0002aa2a                FPU_IRQHandler
                0x0002aa2a                USBD_IRQHandler
                0x0002aa2a                SPIM0_SPIS0_TWIM0_TWIS0_SPI0_TWI0_IRQHandler
                0x0002aa2a                POWER_CLOCK_IRQHandler
                0x0002aa2a                UARTE0_UART0_IRQHandler
                0x0002aa2a                TIMER4_IRQHandler
                0x0002aa2a                CRYPTOCELL_IRQHandler
                0x0002aa2a                I2S_IRQHandler
                0x0002aa2a                SWI4_EGU4_IRQHandler
                0x0002aa2a                TIMER0_IRQHandler
                0x0002aa2a                RTC0_IRQHandler
                0x0002aa2a                SWI0_EGU0_IRQHandler
                0x0002aa2a                TIMER1_IRQHandler
                0x0002aa2a                SPIM3_IRQHandler
                0x0002aa2a                PWM2_IRQHandler
                0x0002aa2a                ECB_IRQHandler
                0x0002aa2a                SPIM1_SPIS1_TWIM1_TWIS1_SPI1_TWI1_IRQHandler
                0x0002aa2a                Default_Handler
                0x0002aa2a                SAADC_IRQHandler
                0x0002aa2a                CCM_AAR_IRQHandler
                0x0002aa2a                WDT_IRQHandler
                0x0002aa2a                PWM1_IRQHandler
                0x0002aa2a                SWI5_EGU5_IRQHandler
                0x0002aa2a                RNG_IRQHandler
                0x0002aa2a                RTC2_IRQHandler
                0x0002aa2a                PWM0_IRQHandler
                0x0002aa2a                SWI3_EGU3_IRQHandler
                0x0002aa2a                RTC1_IRQHandler
                0x0002aa2a                SWI1_EGU1_IRQHandler
                0x0002aa2a                SPIM2_SPIS2_SPI2_IRQHandler
                0x0002aa2a                NFCT_IRQHandler
                0x0002aa2a                GPIOTE_IRQHandler
                0x0002aa2a                MWU_IRQHandler
                0x0002aa2a                UARTE1_IRQHandler
                0x0002aa2a                QSPI_IRQHandler
                0x0002aa2a                COMP_LPCOMP_IRQHandler
 .text.nrf_mesh_configure_device_uuid_reset
                0x0002aa2c       0x28 mesh/core/libmesh_core_nrf52840_xxAA.a(nrf_mesh_configure.c.obj)
                0x0002aa2c                nrf_mesh_configure_device_uuid_reset
 .text.nrf_mesh_configure_device_uuid_get
                0x0002aa54        0x8 mesh/core/libmesh_core_nrf52840_xxAA.a(nrf_mesh_configure.c.obj)
                0x0002aa54                nrf_mesh_configure_device_uuid_get
 .text.event_handle
                0x0002aa5c       0x30 mesh/core/libmesh_core_nrf52840_xxAA.a(event.c.obj)
                0x0002aa5c                event_handle
 .text.event_handler_add
                0x0002aa8c       0x28 mesh/core/libmesh_core_nrf52840_xxAA.a(event.c.obj)
                0x0002aa8c                event_handler_add
 .text.event_handler_remove
                0x0002aab4       0x28 mesh/core/libmesh_core_nrf52840_xxAA.a(event.c.obj)
                0x0002aab4                event_handler_remove
 .text.fifo_init
                0x0002aadc       0x50 mesh/core/libmesh_core_nrf52840_xxAA.a(fifo.c.obj)
                0x0002aadc                fifo_init
 .text.fifo_push
                0x0002ab2c       0x50 mesh/core/libmesh_core_nrf52840_xxAA.a(fifo.c.obj)
                0x0002ab2c                fifo_push
 .text.fifo_pop
                0x0002ab7c       0x52 mesh/core/libmesh_core_nrf52840_xxAA.a(fifo.c.obj)
                0x0002ab7c                fifo_pop
 *fill*         0x0002abce        0x2 
 .text.flash_mem_available
                0x0002abd0       0x20 mesh/core/libmesh_core_nrf52840_xxAA.a(net_state.c.obj)
 .text.flash_store_iv_index
                0x0002abf0       0x38 mesh/core/libmesh_core_nrf52840_xxAA.a(net_state.c.obj)
 .text.seqnum_block_allocate
                0x0002ac28       0x48 mesh/core/libmesh_core_nrf52840_xxAA.a(net_state.c.obj)
 .text.flash_write_complete
                0x0002ac70       0x78 mesh/core/libmesh_core_nrf52840_xxAA.a(net_state.c.obj)
 .text.net_state_recover_from_flash
                0x0002ace8       0x8c mesh/core/libmesh_core_nrf52840_xxAA.a(net_state.c.obj)
                0x0002ace8                net_state_recover_from_flash
 .text.net_state_flash_area_get
                0x0002ad74        0xc mesh/core/libmesh_core_nrf52840_xxAA.a(net_state.c.obj)
                0x0002ad74                net_state_flash_area_get
 .text.init_flash_storage
                0x0002ad80       0x40 mesh/core/libmesh_core_nrf52840_xxAA.a(net_state.c.obj)
 .text.net_state_init
                0x0002adc0       0x48 mesh/core/libmesh_core_nrf52840_xxAA.a(net_state.c.obj)
                0x0002adc0                net_state_init
 .text.net_state_iv_update_start
                0x0002ae08       0x64 mesh/core/libmesh_core_nrf52840_xxAA.a(net_state.c.obj)
                0x0002ae08                net_state_iv_update_start
 .text.iv_update_trigger_if_pending
                0x0002ae6c       0x8c mesh/core/libmesh_core_nrf52840_xxAA.a(net_state.c.obj)
 .text.iv_update_timer_handler
                0x0002aef8       0x74 mesh/core/libmesh_core_nrf52840_xxAA.a(net_state.c.obj)
 .text.net_state_seqnum_alloc
                0x0002af6c       0x68 mesh/core/libmesh_core_nrf52840_xxAA.a(net_state.c.obj)
                0x0002af6c                net_state_seqnum_alloc
 .text.net_state_iv_index_lock
                0x0002afd4       0x48 mesh/core/libmesh_core_nrf52840_xxAA.a(net_state.c.obj)
                0x0002afd4                net_state_iv_index_lock
 .text.net_state_key_refresh_phase_changed
                0x0002b01c       0x1e mesh/core/libmesh_core_nrf52840_xxAA.a(net_state.c.obj)
                0x0002b01c                net_state_key_refresh_phase_changed
 *fill*         0x0002b03a        0x2 
 .text.net_state_beacon_received
                0x0002b03c       0x94 mesh/core/libmesh_core_nrf52840_xxAA.a(net_state.c.obj)
                0x0002b03c                net_state_beacon_received
 .text.net_state_beacon_iv_index_get
                0x0002b0d0        0xc mesh/core/libmesh_core_nrf52840_xxAA.a(net_state.c.obj)
                0x0002b0d0                net_state_beacon_iv_index_get
 .text.net_state_tx_iv_index_get
                0x0002b0dc       0x14 mesh/core/libmesh_core_nrf52840_xxAA.a(net_state.c.obj)
                0x0002b0dc                net_state_tx_iv_index_get
 .text.net_state_rx_iv_index_get
                0x0002b0f0       0x18 mesh/core/libmesh_core_nrf52840_xxAA.a(net_state.c.obj)
                0x0002b0f0                net_state_rx_iv_index_get
 .text.net_state_iv_update_get
                0x0002b108        0xc mesh/core/libmesh_core_nrf52840_xxAA.a(net_state.c.obj)
                0x0002b108                net_state_iv_update_get
 .text.nrf_mesh_address_type_get
                0x0002b114       0x10 mesh/core/libmesh_core_nrf52840_xxAA.a(nrf_mesh_utils.c.obj)
                0x0002b114                nrf_mesh_address_type_get
 .text.sd_softdevice_is_enabled
                0x0002b124        0x4 mesh/core/libmesh_core_nrf52840_xxAA.a(nrf_mesh.c.obj)
 .text.nrf_mesh_listen
                0x0002b128      0x138 mesh/core/libmesh_core_nrf52840_xxAA.a(nrf_mesh.c.obj)
 .text.scanner_packet_process_cb
                0x0002b260       0x8c mesh/core/libmesh_core_nrf52840_xxAA.a(nrf_mesh.c.obj)
 .text.nrf_mesh_init
                0x0002b2ec       0xd8 mesh/core/libmesh_core_nrf52840_xxAA.a(nrf_mesh.c.obj)
                0x0002b2ec                nrf_mesh_init
 .text.nrf_mesh_enable
                0x0002b3c4       0x48 mesh/core/libmesh_core_nrf52840_xxAA.a(nrf_mesh.c.obj)
                0x0002b3c4                nrf_mesh_enable
 .text.nrf_mesh_packet_send
                0x0002b40c        0x4 mesh/core/libmesh_core_nrf52840_xxAA.a(nrf_mesh.c.obj)
                0x0002b40c                nrf_mesh_packet_send
 .text.nrf_mesh_on_ble_evt
                0x0002b410        0x4 mesh/core/libmesh_core_nrf52840_xxAA.a(nrf_mesh.c.obj)
                0x0002b410                nrf_mesh_on_ble_evt
 .text.nrf_mesh_on_sd_evt
                0x0002b414        0xa mesh/core/libmesh_core_nrf52840_xxAA.a(nrf_mesh.c.obj)
                0x0002b414                nrf_mesh_on_sd_evt
 .text.nrf_mesh_evt_handler_add
                0x0002b41e        0x4 mesh/core/libmesh_core_nrf52840_xxAA.a(nrf_mesh.c.obj)
                0x0002b41e                nrf_mesh_evt_handler_add
 *fill*         0x0002b422        0x2 
 .text.hal_lfclk_ppm_get
                0x0002b424       0x14 mesh/core/libmesh_core_nrf52840_xxAA.a(hal.c.obj)
                0x0002b424                hal_lfclk_ppm_get
 .text.add_to_add_list
                0x0002b438       0x44 mesh/core/libmesh_core_nrf52840_xxAA.a(timer_scheduler.c.obj)
 .text.process_dirty_events
                0x0002b47c       0x6c mesh/core/libmesh_core_nrf52840_xxAA.a(timer_scheduler.c.obj)
 .text.timer_cb
                0x0002b4e8        0xc mesh/core/libmesh_core_nrf52840_xxAA.a(timer_scheduler.c.obj)
 .text.add_evt.constprop.0
                0x0002b4f4       0x68 mesh/core/libmesh_core_nrf52840_xxAA.a(timer_scheduler.c.obj)
 .text.process_add_list
                0x0002b55c       0x48 mesh/core/libmesh_core_nrf52840_xxAA.a(timer_scheduler.c.obj)
 .text.flag_event_cb
                0x0002b5a4      0x100 mesh/core/libmesh_core_nrf52840_xxAA.a(timer_scheduler.c.obj)
 .text.timer_sch_init
                0x0002b6a4       0x24 mesh/core/libmesh_core_nrf52840_xxAA.a(timer_scheduler.c.obj)
                0x0002b6a4                timer_sch_init
 .text.timer_sch_schedule
                0x0002b6c8       0x50 mesh/core/libmesh_core_nrf52840_xxAA.a(timer_scheduler.c.obj)
                0x0002b6c8                timer_sch_schedule
 .text.timer_sch_abort
                0x0002b718       0x64 mesh/core/libmesh_core_nrf52840_xxAA.a(timer_scheduler.c.obj)
                0x0002b718                timer_sch_abort
 .text.timer_sch_reschedule
                0x0002b77c       0x70 mesh/core/libmesh_core_nrf52840_xxAA.a(timer_scheduler.c.obj)
                0x0002b77c                timer_sch_reschedule
 .text.timer_mut_unlock
                0x0002b7ec       0x10 mesh/core/libmesh_core_nrf52840_xxAA.a(timer.c.obj)
 .text.timer_order_cb
                0x0002b7fc       0x94 mesh/core/libmesh_core_nrf52840_xxAA.a(timer.c.obj)
                0x0002b7fc                timer_order_cb
 .text.timer_now
                0x0002b890       0x48 mesh/core/libmesh_core_nrf52840_xxAA.a(timer.c.obj)
                0x0002b890                timer_now
 .text.timer_event_handler
                0x0002b8d8       0x98 mesh/core/libmesh_core_nrf52840_xxAA.a(timer.c.obj)
                0x0002b8d8                timer_event_handler
 .text.timer_on_ts_begin
                0x0002b970       0xfc mesh/core/libmesh_core_nrf52840_xxAA.a(timer.c.obj)
                0x0002b970                timer_on_ts_begin
 .text.timer_on_ts_end
                0x0002ba6c       0x60 mesh/core/libmesh_core_nrf52840_xxAA.a(timer.c.obj)
                0x0002ba6c                timer_on_ts_end
 .text.timer_cb
                0x0002bacc       0x10 mesh/core/libmesh_core_nrf52840_xxAA.a(ticker.c.obj)
 .text.ticker_init
                0x0002badc       0x3c mesh/core/libmesh_core_nrf52840_xxAA.a(ticker.c.obj)
                0x0002badc                ticker_init
 .text.sd_rand_application_bytes_available_get
                0x0002bb18        0x4 mesh/core/libmesh_core_nrf52840_xxAA.a(rand.c.obj)
 .text.sd_rand_application_vector_get
                0x0002bb1c        0x4 mesh/core/libmesh_core_nrf52840_xxAA.a(rand.c.obj)
 .text.rand_prng_get
                0x0002bb20       0x22 mesh/core/libmesh_core_nrf52840_xxAA.a(rand.c.obj)
                0x0002bb20                rand_prng_get
 *fill*         0x0002bb42        0x2 
 .text.rand_hw_rng_get
                0x0002bb44       0x50 mesh/core/libmesh_core_nrf52840_xxAA.a(rand.c.obj)
                0x0002bb44                rand_hw_rng_get
 .text.rand_prng_seed
                0x0002bb94       0x34 mesh/core/libmesh_core_nrf52840_xxAA.a(rand.c.obj)
                0x0002bb94                rand_prng_seed
 .text.sd_radio_session_open
                0x0002bbc8        0x4 mesh/core/libmesh_core_nrf52840_xxAA.a(timeslot.c.obj)
 .text.sd_radio_session_close
                0x0002bbcc        0x4 mesh/core/libmesh_core_nrf52840_xxAA.a(timeslot.c.obj)
 .text.sd_radio_request
                0x0002bbd0        0x4 mesh/core/libmesh_core_nrf52840_xxAA.a(timeslot.c.obj)
 .text.end_timer_handler
                0x0002bbd4       0x24 mesh/core/libmesh_core_nrf52840_xxAA.a(timeslot.c.obj)
 .text.get_end_time.constprop.10
                0x0002bbf8       0x28 mesh/core/libmesh_core_nrf52840_xxAA.a(timeslot.c.obj)
 .text.handle_extend_end.constprop.3
                0x0002bc20       0xc0 mesh/core/libmesh_core_nrf52840_xxAA.a(timeslot.c.obj)
 .text.radio_signal_callback
                0x0002bce0      0x14c mesh/core/libmesh_core_nrf52840_xxAA.a(timeslot.c.obj)
 .text.timeslot_sd_event_handler
                0x0002be2c       0x44 mesh/core/libmesh_core_nrf52840_xxAA.a(timeslot.c.obj)
                0x0002be2c                timeslot_sd_event_handler
 .text.timeslot_init
                0x0002be70       0x48 mesh/core/libmesh_core_nrf52840_xxAA.a(timeslot.c.obj)
                0x0002be70                timeslot_init
 .text.timeslot_start
                0x0002beb8       0x20 mesh/core/libmesh_core_nrf52840_xxAA.a(timeslot.c.obj)
                0x0002beb8                timeslot_start
 .text.timeslot_end_is_pending
                0x0002bed8       0x24 mesh/core/libmesh_core_nrf52840_xxAA.a(timeslot.c.obj)
                0x0002bed8                timeslot_end_is_pending
 .text.timeslot_start_time_get
                0x0002befc        0xc mesh/core/libmesh_core_nrf52840_xxAA.a(timeslot.c.obj)
                0x0002befc                timeslot_start_time_get
 .text.timeslot_remaining_time_get
                0x0002bf08       0x20 mesh/core/libmesh_core_nrf52840_xxAA.a(timeslot.c.obj)
                0x0002bf08                timeslot_remaining_time_get
 .text.timeslot_is_in_cb
                0x0002bf28        0xc mesh/core/libmesh_core_nrf52840_xxAA.a(timeslot.c.obj)
                0x0002bf28                timeslot_is_in_cb
 .text.timeslot_trigger
                0x0002bf34       0x24 mesh/core/libmesh_core_nrf52840_xxAA.a(timeslot.c.obj)
                0x0002bf34                timeslot_trigger
 .text.timeslot_stop
                0x0002bf58       0x10 mesh/core/libmesh_core_nrf52840_xxAA.a(timeslot.c.obj)
                0x0002bf58                timeslot_stop
 .text.timeslot_state_lock
                0x0002bf68       0x28 mesh/core/libmesh_core_nrf52840_xxAA.a(timeslot.c.obj)
                0x0002bf68                timeslot_state_lock
 .text.trigger_event_handler
                0x0002bf90       0x1c mesh/core/libmesh_core_nrf52840_xxAA.a(bearer_event.c.obj)
 .text.evt_push
                0x0002bfac       0x1c mesh/core/libmesh_core_nrf52840_xxAA.a(bearer_event.c.obj)
 .text.bearer_event_init
                0x0002bfc8       0x48 mesh/core/libmesh_core_nrf52840_xxAA.a(bearer_event.c.obj)
                0x0002bfc8                bearer_event_init
 .text.bearer_event_timer_post
                0x0002c010       0x30 mesh/core/libmesh_core_nrf52840_xxAA.a(bearer_event.c.obj)
                0x0002c010                bearer_event_timer_post
 .text.bearer_event_critical_section_begin
                0x0002c040       0x50 mesh/core/libmesh_core_nrf52840_xxAA.a(bearer_event.c.obj)
                0x0002c040                bearer_event_critical_section_begin
 .text.bearer_event_critical_section_end
                0x0002c090       0x4c mesh/core/libmesh_core_nrf52840_xxAA.a(bearer_event.c.obj)
                0x0002c090                bearer_event_critical_section_end
 .text.bearer_event_flag_add
                0x0002c0dc       0x50 mesh/core/libmesh_core_nrf52840_xxAA.a(bearer_event.c.obj)
                0x0002c0dc                bearer_event_flag_add
 .text.bearer_event_flag_set
                0x0002c12c       0x50 mesh/core/libmesh_core_nrf52840_xxAA.a(bearer_event.c.obj)
                0x0002c12c                bearer_event_flag_set
 .text.bearer_event_sequential_add
                0x0002c17c       0x44 mesh/core/libmesh_core_nrf52840_xxAA.a(bearer_event.c.obj)
                0x0002c17c                bearer_event_sequential_add
 .text.bearer_event_sequential_post
                0x0002c1c0       0x58 mesh/core/libmesh_core_nrf52840_xxAA.a(bearer_event.c.obj)
                0x0002c1c0                bearer_event_sequential_post
 .text.bearer_event_sequential_pending
                0x0002c218       0x1c mesh/core/libmesh_core_nrf52840_xxAA.a(bearer_event.c.obj)
                0x0002c218                bearer_event_sequential_pending
 .text.bearer_event_handler
                0x0002c234      0x104 mesh/core/libmesh_core_nrf52840_xxAA.a(bearer_event.c.obj)
                0x0002c234                bearer_event_handler
 .text.QDEC_IRQHandler
                0x0002c338        0x4 mesh/core/libmesh_core_nrf52840_xxAA.a(bearer_event.c.obj)
                0x0002c338                QDEC_IRQHandler
 .text.enc_aes_encrypt
                0x0002c33c        0x4 mesh/core/libmesh_core_nrf52840_xxAA.a(enc.c.obj)
                0x0002c33c                enc_aes_encrypt
 .text.enc_aes_cmac
                0x0002c340        0x4 mesh/core/libmesh_core_nrf52840_xxAA.a(enc.c.obj)
                0x0002c340                enc_aes_cmac
 .text.enc_aes_ccm_encrypt
                0x0002c344        0x4 mesh/core/libmesh_core_nrf52840_xxAA.a(enc.c.obj)
                0x0002c344                enc_aes_ccm_encrypt
 .text.enc_aes_ccm_decrypt
                0x0002c348        0x4 mesh/core/libmesh_core_nrf52840_xxAA.a(enc.c.obj)
                0x0002c348                enc_aes_ccm_decrypt
 .text.enc_nonce_generate
                0x0002c34c       0xb8 mesh/core/libmesh_core_nrf52840_xxAA.a(enc.c.obj)
                0x0002c34c                enc_nonce_generate
 .text.enc_s1   0x0002c404       0x38 mesh/core/libmesh_core_nrf52840_xxAA.a(enc.c.obj)
                0x0002c404                enc_s1
 .text.enc_k1   0x0002c43c       0x48 mesh/core/libmesh_core_nrf52840_xxAA.a(enc.c.obj)
                0x0002c43c                enc_k1
 .text.enc_k2   0x0002c484       0xd8 mesh/core/libmesh_core_nrf52840_xxAA.a(enc.c.obj)
                0x0002c484                enc_k2
 .text.enc_k3   0x0002c55c       0x68 mesh/core/libmesh_core_nrf52840_xxAA.a(enc.c.obj)
                0x0002c55c                enc_k3
 .text.enc_k4   0x0002c5c4       0x60 mesh/core/libmesh_core_nrf52840_xxAA.a(enc.c.obj)
                0x0002c5c4                enc_k4
 .text.header_transfuscate
                0x0002c624       0x54 mesh/core/libmesh_core_nrf52840_xxAA.a(network.c.obj)
 .text.allocate_packet
                0x0002c678      0x14c mesh/core/libmesh_core_nrf52840_xxAA.a(network.c.obj)
 .text.network_init
                0x0002c7c4       0x2c mesh/core/libmesh_core_nrf52840_xxAA.a(network.c.obj)
                0x0002c7c4                network_init
 .text.network_opt_get
                0x0002c7f0       0x4c mesh/core/libmesh_core_nrf52840_xxAA.a(network.c.obj)
                0x0002c7f0                network_opt_get
 .text.network_packet_alloc
                0x0002c83c       0x50 mesh/core/libmesh_core_nrf52840_xxAA.a(network.c.obj)
                0x0002c83c                network_packet_alloc
 .text.network_packet_send
                0x0002c88c      0x140 mesh/core/libmesh_core_nrf52840_xxAA.a(network.c.obj)
                0x0002c88c                network_packet_send
 .text.network_packet_in
                0x0002c9cc      0x460 mesh/core/libmesh_core_nrf52840_xxAA.a(network.c.obj)
                0x0002c9cc                network_packet_in
 .text.nrf_mesh_keygen_aid
                0x0002ce2c       0x12 mesh/core/libmesh_core_nrf52840_xxAA.a(nrf_mesh_keygen.c.obj)
                0x0002ce2c                nrf_mesh_keygen_aid
 .text.nrf_mesh_keygen_network_secmat
                0x0002ce3e       0x20 mesh/core/libmesh_core_nrf52840_xxAA.a(nrf_mesh_keygen.c.obj)
                0x0002ce3e                nrf_mesh_keygen_network_secmat
 *fill*         0x0002ce5e        0x2 
 .text.nrf_mesh_keygen_beacon_secmat
                0x0002ce60       0x50 mesh/core/libmesh_core_nrf52840_xxAA.a(nrf_mesh_keygen.c.obj)
                0x0002ce60                nrf_mesh_keygen_beacon_secmat
 .text.nrf_mesh_keygen_virtual_address
                0x0002ceb0       0x50 mesh/core/libmesh_core_nrf52840_xxAA.a(nrf_mesh_keygen.c.obj)
                0x0002ceb0                nrf_mesh_keygen_virtual_address
 .text.list_insert
                0x0002cf00       0x28 mesh/core/libmesh_core_nrf52840_xxAA.a(list.c.obj)
 .text.list_add
                0x0002cf28       0x60 mesh/core/libmesh_core_nrf52840_xxAA.a(list.c.obj)
                0x0002cf28                list_add
 .text.list_remove
                0x0002cf88       0x48 mesh/core/libmesh_core_nrf52840_xxAA.a(list.c.obj)
                0x0002cf88                list_remove
 .text.list_compare_add
                0x0002cfd0       0x80 mesh/core/libmesh_core_nrf52840_xxAA.a(list.c.obj)
                0x0002cfd0                list_compare_add
 .text.log_callback_rtt
                0x0002d050       0x2c mesh/core/libmesh_core_nrf52840_xxAA.a(log.c.obj)
                0x0002d050                log_callback_rtt
 .text.log_init
                0x0002d07c       0x1c mesh/core/libmesh_core_nrf52840_xxAA.a(log.c.obj)
                0x0002d07c                log_init
 .text.log_vprintf
                0x0002d098       0x18 mesh/core/libmesh_core_nrf52840_xxAA.a(log.c.obj)
                0x0002d098                log_vprintf
 .text.log_printf
                0x0002d0b0       0x18 mesh/core/libmesh_core_nrf52840_xxAA.a(log.c.obj)
                0x0002d0b0                log_printf
 .text.get_area_end
                0x0002d0c8        0xc mesh/core/libmesh_core_nrf52840_xxAA.a(flash_manager.c.obj)
 .text.handle_matches_filter
                0x0002d0d4       0x26 mesh/core/libmesh_core_nrf52840_xxAA.a(flash_manager.c.obj)
 *fill*         0x0002d0fa        0x2 
 .text.get_packet_buffer
                0x0002d0fc       0x2c mesh/core/libmesh_core_nrf52840_xxAA.a(flash_manager.c.obj)
 .text.get_entry_action
                0x0002d128       0x30 mesh/core/libmesh_core_nrf52840_xxAA.a(flash_manager.c.obj)
 .text.flash_area_is_blank
                0x0002d158       0x48 mesh/core/libmesh_core_nrf52840_xxAA.a(flash_manager.c.obj)
 .text.flash    0x0002d1a0       0x1c mesh/core/libmesh_core_nrf52840_xxAA.a(flash_manager.c.obj)
 .text.free_packet_buffer
                0x0002d1bc       0x54 mesh/core/libmesh_core_nrf52840_xxAA.a(flash_manager.c.obj)
 .text.reserve_action_buffer
                0x0002d210       0x24 mesh/core/libmesh_core_nrf52840_xxAA.a(flash_manager.c.obj)
 .text.commit_action_buffer
                0x0002d234       0x18 mesh/core/libmesh_core_nrf52840_xxAA.a(flash_manager.c.obj)
 .text.schedule_processing
                0x0002d24c        0xc mesh/core/libmesh_core_nrf52840_xxAA.a(flash_manager.c.obj)
 .text.get_next_entry
                0x0002d258       0x40 mesh/core/libmesh_core_nrf52840_xxAA.a(flash_manager.c.obj)
 .text.get_last_entry.isra.1
                0x0002d298       0x30 mesh/core/libmesh_core_nrf52840_xxAA.a(flash_manager.c.obj)
 .text.process_action_queue
                0x0002d2c8      0x4e4 mesh/core/libmesh_core_nrf52840_xxAA.a(flash_manager.c.obj)
 .text.flash_op_ended_callback
                0x0002d7ac       0x24 mesh/core/libmesh_core_nrf52840_xxAA.a(flash_manager.c.obj)
 .text.flash_manager_init
                0x0002d7d0       0x68 mesh/core/libmesh_core_nrf52840_xxAA.a(flash_manager.c.obj)
                0x0002d7d0                flash_manager_init
 .text.flash_manager_entry_next_get
                0x0002d838       0x6c mesh/core/libmesh_core_nrf52840_xxAA.a(flash_manager.c.obj)
                0x0002d838                flash_manager_entry_next_get
 .text.flash_manager_entry_alloc
                0x0002d8a4       0x78 mesh/core/libmesh_core_nrf52840_xxAA.a(flash_manager.c.obj)
                0x0002d8a4                flash_manager_entry_alloc
 .text.flash_manager_entry_commit
                0x0002d91c       0x12 mesh/core/libmesh_core_nrf52840_xxAA.a(flash_manager.c.obj)
                0x0002d91c                flash_manager_entry_commit
 *fill*         0x0002d92e        0x2 
 .text.flash_manager_entry_invalidate
                0x0002d930       0x64 mesh/core/libmesh_core_nrf52840_xxAA.a(flash_manager.c.obj)
                0x0002d930                flash_manager_entry_invalidate
 .text.flash_manager_add
                0x0002d994      0x248 mesh/core/libmesh_core_nrf52840_xxAA.a(flash_manager.c.obj)
                0x0002d994                flash_manager_add
 .text.flash_manager_mem_listener_register
                0x0002dbdc       0x44 mesh/core/libmesh_core_nrf52840_xxAA.a(flash_manager.c.obj)
                0x0002dbdc                flash_manager_mem_listener_register
 .text.flash_manager_is_stable
                0x0002dc20       0x24 mesh/core/libmesh_core_nrf52840_xxAA.a(flash_manager.c.obj)
                0x0002dc20                flash_manager_is_stable
 .text.flash_manager_on_defrag_end
                0x0002dc44       0x58 mesh/core/libmesh_core_nrf52840_xxAA.a(flash_manager.c.obj)
                0x0002dc44                flash_manager_on_defrag_end
 .text.flash_manager_recovery_page_get
                0x0002dc9c        0x4 mesh/core/libmesh_core_nrf52840_xxAA.a(flash_manager.c.obj)
                0x0002dc9c                flash_manager_recovery_page_get
 .text.utils_xor
                0x0002dca0       0x14 mesh/core/libmesh_core_nrf52840_xxAA.a(ccm_soft.c.obj)
 .text.ccm_soft_authenticate_blocks
                0x0002dcb4       0x68 mesh/core/libmesh_core_nrf52840_xxAA.a(ccm_soft.c.obj)
 .text.utils_reverse_memcpy.constprop.0
                0x0002dd1c        0xa mesh/core/libmesh_core_nrf52840_xxAA.a(ccm_soft.c.obj)
 .text.ccm_soft_authenticate
                0x0002dd26       0xa0 mesh/core/libmesh_core_nrf52840_xxAA.a(ccm_soft.c.obj)
 .text.ccm_soft_crypt
                0x0002ddc6       0x6c mesh/core/libmesh_core_nrf52840_xxAA.a(ccm_soft.c.obj)
 .text.ccm_soft_encrypt
                0x0002de32       0x70 mesh/core/libmesh_core_nrf52840_xxAA.a(ccm_soft.c.obj)
                0x0002de32                ccm_soft_encrypt
 .text.ccm_soft_decrypt
                0x0002dea2       0xfe mesh/core/libmesh_core_nrf52840_xxAA.a(ccm_soft.c.obj)
                0x0002dea2                ccm_soft_decrypt
 .text.beacon_init
                0x0002dfa0       0x48 mesh/core/libmesh_core_nrf52840_xxAA.a(beacon.c.obj)
                0x0002dfa0                beacon_init
 .text.beacon_create
                0x0002dfe8       0x46 mesh/core/libmesh_core_nrf52840_xxAA.a(beacon.c.obj)
                0x0002dfe8                beacon_create
 *fill*         0x0002e02e        0x2 
 .text.beacon_tx
                0x0002e030       0x3c mesh/core/libmesh_core_nrf52840_xxAA.a(beacon.c.obj)
                0x0002e030                beacon_tx
 .text.beacon_packet_in
                0x0002e06c      0x160 mesh/core/libmesh_core_nrf52840_xxAA.a(beacon.c.obj)
                0x0002e06c                beacon_packet_in
 .text.entry_get
                0x0002e1cc       0x88 mesh/core/libmesh_core_nrf52840_xxAA.a(flash_manager_internal.c.obj)
                0x0002e1cc                entry_get
 .text.is_power_of_two
                0x0002e254        0xe mesh/core/libmesh_core_nrf52840_xxAA.a(core_tx.c.obj)
 *fill*         0x0002e262        0x2 
 .text.bearer_if_get
                0x0002e264       0x44 mesh/core/libmesh_core_nrf52840_xxAA.a(core_tx.c.obj)
 .text.core_tx_complete_cb_set
                0x0002e2a8        0xc mesh/core/libmesh_core_nrf52840_xxAA.a(core_tx.c.obj)
                0x0002e2a8                core_tx_complete_cb_set
 .text.core_tx_packet_alloc
                0x0002e2b4       0x88 mesh/core/libmesh_core_nrf52840_xxAA.a(core_tx.c.obj)
                0x0002e2b4                core_tx_packet_alloc
 .text.core_tx_packet_send
                0x0002e33c       0x80 mesh/core/libmesh_core_nrf52840_xxAA.a(core_tx.c.obj)
                0x0002e33c                core_tx_packet_send
 .text.core_tx_packet_discard
                0x0002e3bc       0x80 mesh/core/libmesh_core_nrf52840_xxAA.a(core_tx.c.obj)
                0x0002e3bc                core_tx_packet_discard
 .text.core_tx_complete
                0x0002e43c       0x10 mesh/core/libmesh_core_nrf52840_xxAA.a(core_tx.c.obj)
                0x0002e43c                core_tx_complete
 .text.core_tx_bearer_register
                0x0002e44c       0x84 mesh/core/libmesh_core_nrf52840_xxAA.a(core_tx.c.obj)
                0x0002e44c                core_tx_bearer_register
 .text.heartbeat_subscription_timer_cb
                0x0002e4d0       0x1c mesh/core/libmesh_core_nrf52840_xxAA.a(heartbeat.c.obj)
 .text.heartbeat_opcode_handle
                0x0002e4ec       0x78 mesh/core/libmesh_core_nrf52840_xxAA.a(heartbeat.c.obj)
 .text.heartbeat_send
                0x0002e564       0xd0 mesh/core/libmesh_core_nrf52840_xxAA.a(heartbeat.c.obj)
 .text.heartbeat_core_evt_cb
                0x0002e634       0x90 mesh/core/libmesh_core_nrf52840_xxAA.a(heartbeat.c.obj)
 .text.heartbeat_publication_timer_cb
                0x0002e6c4       0xc8 mesh/core/libmesh_core_nrf52840_xxAA.a(heartbeat.c.obj)
 .text.heartbeat_init
                0x0002e78c       0x8c mesh/core/libmesh_core_nrf52840_xxAA.a(heartbeat.c.obj)
                0x0002e78c                heartbeat_init
 .text.make_network_beacon_cmac
                0x0002e818       0x22 mesh/core/libmesh_core_nrf52840_xxAA.a(net_beacon.c.obj)
 *fill*         0x0002e83a        0x2 
 .text.network_beacon_tx_cb
                0x0002e83c       0xe8 mesh/core/libmesh_core_nrf52840_xxAA.a(net_beacon.c.obj)
 .text.net_beacon_init
                0x0002e924       0x60 mesh/core/libmesh_core_nrf52840_xxAA.a(net_beacon.c.obj)
                0x0002e924                net_beacon_init
 .text.net_beacon_packet_in
                0x0002e984      0x104 mesh/core/libmesh_core_nrf52840_xxAA.a(net_beacon.c.obj)
                0x0002e984                net_beacon_packet_in
 .text.packet_discard
                0x0002ea88       0x14 mesh/core/libmesh_core_nrf52840_xxAA.a(core_tx_adv.c.obj)
 .text.packet_send
                0x0002ea9c       0x14 mesh/core/libmesh_core_nrf52840_xxAA.a(core_tx_adv.c.obj)
 .text.packet_alloc
                0x0002eab0       0x3c mesh/core/libmesh_core_nrf52840_xxAA.a(core_tx_adv.c.obj)
 .text.adv_tx_complete_callback
                0x0002eaec       0x30 mesh/core/libmesh_core_nrf52840_xxAA.a(core_tx_adv.c.obj)
 .text.core_tx_adv_init
                0x0002eb1c       0x58 mesh/core/libmesh_core_nrf52840_xxAA.a(core_tx_adv.c.obj)
                0x0002eb1c                core_tx_adv_init
 .text.core_tx_adv_count_get
                0x0002eb74       0x28 mesh/core/libmesh_core_nrf52840_xxAA.a(core_tx_adv.c.obj)
                0x0002eb74                core_tx_adv_count_get
 .text.core_tx_adv_interval_get
                0x0002eb9c       0x34 mesh/core/libmesh_core_nrf52840_xxAA.a(core_tx_adv.c.obj)
                0x0002eb9c                core_tx_adv_interval_get
 .text.ad_listener_subscribe
                0x0002ebd0       0x5c mesh/core/libmesh_core_nrf52840_xxAA.a(ad_listener.c.obj)
                0x0002ebd0                ad_listener_subscribe
 .text.ad_listener_process
                0x0002ec2c       0x64 mesh/core/libmesh_core_nrf52840_xxAA.a(ad_listener.c.obj)
                0x0002ec2c                ad_listener_process
 .text.adtype_filter_handle
                0x0002ec90       0x64 mesh/core/libmesh_core_nrf52840_xxAA.a(ad_type_filter.c.obj)
 .text.bearer_adtype_filtering_set
                0x0002ecf4       0x1c mesh/core/libmesh_core_nrf52840_xxAA.a(ad_type_filter.c.obj)
                0x0002ecf4                bearer_adtype_filtering_set
 .text.bearer_adtype_add
                0x0002ed10       0x20 mesh/core/libmesh_core_nrf52840_xxAA.a(ad_type_filter.c.obj)
                0x0002ed10                bearer_adtype_add
 .text.bearer_adtype_mode_set
                0x0002ed30       0x24 mesh/core/libmesh_core_nrf52840_xxAA.a(ad_type_filter.c.obj)
                0x0002ed30                bearer_adtype_mode_set
 .text.set_gap_addr_type
                0x0002ed54       0x34 mesh/core/libmesh_core_nrf52840_xxAA.a(advertiser.c.obj)
 .text.tx_complete_event_callback
                0x0002ed88       0x3c mesh/core/libmesh_core_nrf52840_xxAA.a(advertiser.c.obj)
 .text.broadcast_complete_cb
                0x0002edc4       0x64 mesh/core/libmesh_core_nrf52840_xxAA.a(advertiser.c.obj)
 .text.schedule_first_time
                0x0002ee28       0x28 mesh/core/libmesh_core_nrf52840_xxAA.a(advertiser.c.obj)
 .text.timeout_event
                0x0002ee50      0x130 mesh/core/libmesh_core_nrf52840_xxAA.a(advertiser.c.obj)
 .text.advertiser_init
                0x0002ef80        0xc mesh/core/libmesh_core_nrf52840_xxAA.a(advertiser.c.obj)
                0x0002ef80                advertiser_init
 .text.advertiser_enable
                0x0002ef8c       0x2a mesh/core/libmesh_core_nrf52840_xxAA.a(advertiser.c.obj)
                0x0002ef8c                advertiser_enable
 *fill*         0x0002efb6        0x2 
 .text.advertiser_packet_alloc
                0x0002efb8       0x94 mesh/core/libmesh_core_nrf52840_xxAA.a(advertiser.c.obj)
                0x0002efb8                advertiser_packet_alloc
 .text.advertiser_packet_send
                0x0002f04c       0x78 mesh/core/libmesh_core_nrf52840_xxAA.a(advertiser.c.obj)
                0x0002f04c                advertiser_packet_send
 .text.advertiser_packet_discard
                0x0002f0c4       0x2c mesh/core/libmesh_core_nrf52840_xxAA.a(advertiser.c.obj)
                0x0002f0c4                advertiser_packet_discard
 .text.advertiser_interval_set
                0x0002f0f0       0x68 mesh/core/libmesh_core_nrf52840_xxAA.a(advertiser.c.obj)
                0x0002f0f0                advertiser_interval_set
 .text.advertiser_flush
                0x0002f158       0x1e mesh/core/libmesh_core_nrf52840_xxAA.a(advertiser.c.obj)
                0x0002f158                advertiser_flush
 *fill*         0x0002f176        0x2 
 .text.advertiser_address_default_get
                0x0002f178       0x38 mesh/core/libmesh_core_nrf52840_xxAA.a(advertiser.c.obj)
                0x0002f178                advertiser_address_default_get
 .text.advertiser_instance_init
                0x0002f1b0       0xbc mesh/core/libmesh_core_nrf52840_xxAA.a(advertiser.c.obj)
                0x0002f1b0                advertiser_instance_init
 .text.action_switch
                0x0002f26c       0xc0 mesh/core/libmesh_core_nrf52840_xxAA.a(bearer_handler.c.obj)
 .text.bearer_handler_init
                0x0002f32c       0x2c mesh/core/libmesh_core_nrf52840_xxAA.a(bearer_handler.c.obj)
                0x0002f32c                bearer_handler_init
 .text.bearer_handler_start
                0x0002f358       0x1c mesh/core/libmesh_core_nrf52840_xxAA.a(bearer_handler.c.obj)
                0x0002f358                bearer_handler_start
 .text.bearer_handler_action_enqueue
                0x0002f374       0x94 mesh/core/libmesh_core_nrf52840_xxAA.a(bearer_handler.c.obj)
                0x0002f374                bearer_handler_action_enqueue
 .text.bearer_handler_action_end
                0x0002f408       0x78 mesh/core/libmesh_core_nrf52840_xxAA.a(bearer_handler.c.obj)
                0x0002f408                bearer_handler_action_end
 .text.bearer_handler_radio_irq_handler
                0x0002f480       0x64 mesh/core/libmesh_core_nrf52840_xxAA.a(bearer_handler.c.obj)
                0x0002f480                bearer_handler_radio_irq_handler
 .text.bearer_handler_timer_irq_handler
                0x0002f4e4       0x30 mesh/core/libmesh_core_nrf52840_xxAA.a(bearer_handler.c.obj)
                0x0002f4e4                bearer_handler_timer_irq_handler
 .text.bearer_handler_on_ts_begin
                0x0002f514       0x44 mesh/core/libmesh_core_nrf52840_xxAA.a(bearer_handler.c.obj)
                0x0002f514                bearer_handler_on_ts_begin
 .text.bearer_handler_on_ts_end
                0x0002f558       0x48 mesh/core/libmesh_core_nrf52840_xxAA.a(bearer_handler.c.obj)
                0x0002f558                bearer_handler_on_ts_end
 .text.radio_irq_handler
                0x0002f5a0       0xb0 mesh/core/libmesh_core_nrf52840_xxAA.a(broadcast.c.obj)
 .text.broadcast_start
                0x0002f650       0x8c mesh/core/libmesh_core_nrf52840_xxAA.a(broadcast.c.obj)
 .text.broadcast_send
                0x0002f6dc       0x80 mesh/core/libmesh_core_nrf52840_xxAA.a(broadcast.c.obj)
                0x0002f6dc                broadcast_send
 .text.fen_filter_start
                0x0002f75c       0x3c mesh/core/libmesh_core_nrf52840_xxAA.a(filter_engine.c.obj)
                0x0002f75c                fen_filter_start
 .text.fen_filter_stop
                0x0002f798       0x2c mesh/core/libmesh_core_nrf52840_xxAA.a(filter_engine.c.obj)
                0x0002f798                fen_filter_stop
 .text.fen_filters_apply
                0x0002f7c4       0x34 mesh/core/libmesh_core_nrf52840_xxAA.a(filter_engine.c.obj)
                0x0002f7c4                fen_filters_apply
 .text.radio_config_reset
                0x0002f7f8       0x34 mesh/core/libmesh_core_nrf52840_xxAA.a(radio_config.c.obj)
                0x0002f7f8                radio_config_reset
 .text.radio_config_channel_set
                0x0002f82c       0x34 mesh/core/libmesh_core_nrf52840_xxAA.a(radio_config.c.obj)
                0x0002f82c                radio_config_channel_set
 .text.radio_config_config
                0x0002f860       0xa4 mesh/core/libmesh_core_nrf52840_xxAA.a(radio_config.c.obj)
                0x0002f860                radio_config_config
 .text.radio_config_access_addr_set
                0x0002f904       0x68 mesh/core/libmesh_core_nrf52840_xxAA.a(radio_config.c.obj)
                0x0002f904                radio_config_access_addr_set
 .text.radio_trigger
                0x0002f96c       0x24 mesh/core/libmesh_core_nrf52840_xxAA.a(scanner.c.obj)
 .text.scan_window_end
                0x0002f990       0x10 mesh/core/libmesh_core_nrf52840_xxAA.a(scanner.c.obj)
 .text.scan_window_start
                0x0002f9a0       0x24 mesh/core/libmesh_core_nrf52840_xxAA.a(scanner.c.obj)
 .text.radio_configure
                0x0002f9c4       0x78 mesh/core/libmesh_core_nrf52840_xxAA.a(scanner.c.obj)
 .text.radio_set_packet
                0x0002fa3c       0x50 mesh/core/libmesh_core_nrf52840_xxAA.a(scanner.c.obj)
 .text.radio_start
                0x0002fa8c       0x4c mesh/core/libmesh_core_nrf52840_xxAA.a(scanner.c.obj)
 .text.radio_stop
                0x0002fad8       0x30 mesh/core/libmesh_core_nrf52840_xxAA.a(scanner.c.obj)
 .text.schedule_timers
                0x0002fb08       0x38 mesh/core/libmesh_core_nrf52840_xxAA.a(scanner.c.obj)
 .text.scanner_radio_start
                0x0002fb40       0x28 mesh/core/libmesh_core_nrf52840_xxAA.a(scanner.c.obj)
                0x0002fb40                scanner_radio_start
 .text.scanner_radio_stop
                0x0002fb68       0x10 mesh/core/libmesh_core_nrf52840_xxAA.a(scanner.c.obj)
                0x0002fb68                scanner_radio_stop
 .text.scanner_radio_irq_handler
                0x0002fb78      0x13c mesh/core/libmesh_core_nrf52840_xxAA.a(scanner.c.obj)
                0x0002fb78                scanner_radio_irq_handler
 .text.scanner_enable
                0x0002fcb4       0x30 mesh/core/libmesh_core_nrf52840_xxAA.a(scanner.c.obj)
                0x0002fcb4                scanner_enable
 .text.scanner_packet_release
                0x0002fce4       0x38 mesh/core/libmesh_core_nrf52840_xxAA.a(scanner.c.obj)
                0x0002fce4                scanner_packet_release
 .text.scanner_rx
                0x0002fd1c       0x30 mesh/core/libmesh_core_nrf52840_xxAA.a(scanner.c.obj)
                0x0002fd1c                scanner_rx
 .text.scanner_rx_pending
                0x0002fd4c        0xc mesh/core/libmesh_core_nrf52840_xxAA.a(scanner.c.obj)
                0x0002fd4c                scanner_rx_pending
 .text.scanner_config_scan_time_set
                0x0002fd58       0x68 mesh/core/libmesh_core_nrf52840_xxAA.a(scanner.c.obj)
                0x0002fd58                scanner_config_scan_time_set
 .text.scanner_config_channels_set
                0x0002fdc0       0x64 mesh/core/libmesh_core_nrf52840_xxAA.a(scanner.c.obj)
                0x0002fdc0                scanner_config_channels_set
 .text.scanner_config_access_addresses_set
                0x0002fe24       0x44 mesh/core/libmesh_core_nrf52840_xxAA.a(scanner.c.obj)
                0x0002fe24                scanner_config_access_addresses_set
 .text.scanner_config_reset
                0x0002fe68       0x50 mesh/core/libmesh_core_nrf52840_xxAA.a(scanner.c.obj)
                0x0002fe68                scanner_config_reset
 .text.scanner_init
                0x0002feb8       0x54 mesh/core/libmesh_core_nrf52840_xxAA.a(scanner.c.obj)
                0x0002feb8                scanner_init
 .text.internal_event_push
                0x0002ff0c       0x28 mesh/core/libmesh_core_nrf52840_xxAA.a(internal_event.c.obj)
                0x0002ff0c                internal_event_push
 .text.sd_ecb_block_encrypt
                0x0002ff34        0x4 mesh/core/libmesh_core_nrf52840_xxAA.a(aes.c.obj)
 .text.aes_encrypt
                0x0002ff38       0x32 mesh/core/libmesh_core_nrf52840_xxAA.a(aes.c.obj)
                0x0002ff38                aes_encrypt
 *fill*         0x0002ff6a        0x2 
 .text.msg_cache_init
                0x0002ff6c       0x24 mesh/core/libmesh_core_nrf52840_xxAA.a(msg_cache.c.obj)
                0x0002ff6c                msg_cache_init
 .text.msg_cache_entry_exists
                0x0002ff90       0x3c mesh/core/libmesh_core_nrf52840_xxAA.a(msg_cache.c.obj)
                0x0002ff90                msg_cache_entry_exists
 .text.msg_cache_entry_add
                0x0002ffcc       0x2c mesh/core/libmesh_core_nrf52840_xxAA.a(msg_cache.c.obj)
                0x0002ffcc                msg_cache_entry_add
 .text.block_ack_full
                0x0002fff8       0x28 mesh/core/libmesh_core_nrf52840_xxAA.a(transport.c.obj)
 .text.seqauth_sequence_number_get
                0x00030020       0x12 mesh/core/libmesh_core_nrf52840_xxAA.a(transport.c.obj)
 *fill*         0x00030032        0x2 
 .text.sar_rx_session_mark_as_handled
                0x00030034       0x54 mesh/core/libmesh_core_nrf52840_xxAA.a(transport.c.obj)
 .text.sar_ctx_find
                0x00030088       0x3c mesh/core/libmesh_core_nrf52840_xxAA.a(transport.c.obj)
 .text.control_packet_callback_get
                0x000300c4       0x44 mesh/core/libmesh_core_nrf52840_xxAA.a(transport.c.obj)
 .text.m_send_sar_cancel_event
                0x00030108       0x28 mesh/core/libmesh_core_nrf52840_xxAA.a(transport.c.obj)
 .text.tx_complete
                0x00030130       0x34 mesh/core/libmesh_core_nrf52840_xxAA.a(transport.c.obj)
 .text.upper_trs_packet_encrypt
                0x00030164       0xbc mesh/core/libmesh_core_nrf52840_xxAA.a(transport.c.obj)
 .text.sar_ctx_free
                0x00030220       0x3c mesh/core/libmesh_core_nrf52840_xxAA.a(transport.c.obj)
 .text.sar_ctx_tx_complete
                0x0003025c       0xb8 mesh/core/libmesh_core_nrf52840_xxAA.a(transport.c.obj)
 .text.sar_ctx_cancel
                0x00030314      0x108 mesh/core/libmesh_core_nrf52840_xxAA.a(transport.c.obj)
 .text.abort_timeout
                0x0003041c        0x8 mesh/core/libmesh_core_nrf52840_xxAA.a(transport.c.obj)
 .text.sar_ctx_alloc
                0x00030424       0xbc mesh/core/libmesh_core_nrf52840_xxAA.a(transport.c.obj)
 .text.test_transport_decrypt
                0x000304e0       0x88 mesh/core/libmesh_core_nrf52840_xxAA.a(transport.c.obj)
 .text.upper_transport_access_packet_in
                0x00030568      0x28c mesh/core/libmesh_core_nrf52840_xxAA.a(transport.c.obj)
 .text.trs_packet_header_build
                0x000307f4       0xa6 mesh/core/libmesh_core_nrf52840_xxAA.a(transport.c.obj)
 *fill*         0x0003089a        0x2 
 .text.tx_retry_timer_reset
                0x0003089c       0x50 mesh/core/libmesh_core_nrf52840_xxAA.a(transport.c.obj)
 .text.trs_sar_packet_out
                0x000308ec       0xec mesh/core/libmesh_core_nrf52840_xxAA.a(transport.c.obj)
 .text.retry_timeout
                0x000309d8       0x54 mesh/core/libmesh_core_nrf52840_xxAA.a(transport.c.obj)
 .text.upper_transport_packet_in
                0x00030a2c      0x1b0 mesh/core/libmesh_core_nrf52840_xxAA.a(transport.c.obj)
 .text.upper_transport_tx
                0x00030bdc      0x230 mesh/core/libmesh_core_nrf52840_xxAA.a(transport.c.obj)
 .text.transport_sar_mem_funcs_reset
                0x00030e0c       0x28 mesh/core/libmesh_core_nrf52840_xxAA.a(transport.c.obj)
                0x00030e0c                transport_sar_mem_funcs_reset
 .text.transport_init
                0x00030e34       0x7c mesh/core/libmesh_core_nrf52840_xxAA.a(transport.c.obj)
                0x00030e34                transport_init
 .text.transport_tx
                0x00030eb0       0xa4 mesh/core/libmesh_core_nrf52840_xxAA.a(transport.c.obj)
                0x00030eb0                transport_tx
 .text.transport_control_tx
                0x00030f54       0x8e mesh/core/libmesh_core_nrf52840_xxAA.a(transport.c.obj)
                0x00030f54                transport_control_tx
 *fill*         0x00030fe2        0x2 
 .text.sar_ack_send
                0x00030fe4      0x124 mesh/core/libmesh_core_nrf52840_xxAA.a(transport.c.obj)
 .text.transport_sar_process
                0x00031108       0x74 mesh/core/libmesh_core_nrf52840_xxAA.a(transport.c.obj)
 .text.transport_packet_in
                0x0003117c      0x524 mesh/core/libmesh_core_nrf52840_xxAA.a(transport.c.obj)
                0x0003117c                transport_packet_in
 .text.ack_timeout
                0x000316a0       0x34 mesh/core/libmesh_core_nrf52840_xxAA.a(transport.c.obj)
 .text.transport_opt_get
                0x000316d4       0x68 mesh/core/libmesh_core_nrf52840_xxAA.a(transport.c.obj)
                0x000316d4                transport_opt_get
 .text.transport_control_packet_consumer_add
                0x0003173c       0x5c mesh/core/libmesh_core_nrf52840_xxAA.a(transport.c.obj)
                0x0003173c                transport_control_packet_consumer_add
 .text.m_adjust_desired_packet_length
                0x00031798       0x34 mesh/core/libmesh_core_nrf52840_xxAA.a(packet_buffer.c.obj)
 .text.m_index_increment.part.0
                0x000317cc       0x14 mesh/core/libmesh_core_nrf52840_xxAA.a(packet_buffer.c.obj)
 .text.m_free_popped_packet
                0x000317e0       0x60 mesh/core/libmesh_core_nrf52840_xxAA.a(packet_buffer.c.obj)
 .text.free_skipped_packets
                0x00031840       0x1c mesh/core/libmesh_core_nrf52840_xxAA.a(packet_buffer.c.obj)
 .text.packet_buffer_init
                0x0003185c       0xe0 mesh/core/libmesh_core_nrf52840_xxAA.a(packet_buffer.c.obj)
                0x0003185c                packet_buffer_init
 .text.packet_buffer_flush
                0x0003193c       0x5e mesh/core/libmesh_core_nrf52840_xxAA.a(packet_buffer.c.obj)
                0x0003193c                packet_buffer_flush
 *fill*         0x0003199a        0x2 
 .text.packet_buffer_reserve
                0x0003199c      0x11c mesh/core/libmesh_core_nrf52840_xxAA.a(packet_buffer.c.obj)
                0x0003199c                packet_buffer_reserve
 .text.packet_buffer_commit
                0x00031ab8      0x104 mesh/core/libmesh_core_nrf52840_xxAA.a(packet_buffer.c.obj)
                0x00031ab8                packet_buffer_commit
 .text.packet_buffer_pop
                0x00031bbc       0x58 mesh/core/libmesh_core_nrf52840_xxAA.a(packet_buffer.c.obj)
                0x00031bbc                packet_buffer_pop
 .text.packet_buffer_can_pop
                0x00031c14       0x28 mesh/core/libmesh_core_nrf52840_xxAA.a(packet_buffer.c.obj)
                0x00031c14                packet_buffer_can_pop
 .text.packet_buffer_packets_ready_to_pop
                0x00031c3c       0x58 mesh/core/libmesh_core_nrf52840_xxAA.a(packet_buffer.c.obj)
                0x00031c3c                packet_buffer_packets_ready_to_pop
 .text.packet_buffer_free
                0x00031c94       0x8c mesh/core/libmesh_core_nrf52840_xxAA.a(packet_buffer.c.obj)
                0x00031c94                packet_buffer_free
 .text.get_last_page
                0x00031d20       0x14 mesh/core/libmesh_core_nrf52840_xxAA.a(flash_manager_defrag.c.obj)
 .text.defrag_on_end
                0x00031d34       0x1c mesh/core/libmesh_core_nrf52840_xxAA.a(flash_manager_defrag.c.obj)
 .text.execute_procedure_step
                0x00031d50       0xa0 mesh/core/libmesh_core_nrf52840_xxAA.a(flash_manager_defrag.c.obj)
 .text.get_next_entry
                0x00031df0       0x40 mesh/core/libmesh_core_nrf52840_xxAA.a(flash_manager_defrag.c.obj)
 .text.get_next_data_entry
                0x00031e30       0x20 mesh/core/libmesh_core_nrf52840_xxAA.a(flash_manager_defrag.c.obj)
 .text.on_flash_op_end
                0x00031e50       0x30 mesh/core/libmesh_core_nrf52840_xxAA.a(flash_manager_defrag.c.obj)
 .text.check_for_invalid_entries
                0x00031e80       0x38 mesh/core/libmesh_core_nrf52840_xxAA.a(flash_manager_defrag.c.obj)
 .text.erase_recovery_area
                0x00031eb8       0x34 mesh/core/libmesh_core_nrf52840_xxAA.a(flash_manager_defrag.c.obj)
 .text.flash.constprop.6
                0x00031eec       0x24 mesh/core/libmesh_core_nrf52840_xxAA.a(flash_manager_defrag.c.obj)
 .text.seal_storage_page
                0x00031f10       0x50 mesh/core/libmesh_core_nrf52840_xxAA.a(flash_manager_defrag.c.obj)
 .text.invalidate_duplicate_entries
                0x00031f60       0x9c mesh/core/libmesh_core_nrf52840_xxAA.a(flash_manager_defrag.c.obj)
 .text.copy_metadata
                0x00031ffc       0x3c mesh/core/libmesh_core_nrf52840_xxAA.a(flash_manager_defrag.c.obj)
 .text.write_defrag_start_pointer
                0x00032038       0x20 mesh/core/libmesh_core_nrf52840_xxAA.a(flash_manager_defrag.c.obj)
 .text.write_back
                0x00032058       0x28 mesh/core/libmesh_core_nrf52840_xxAA.a(flash_manager_defrag.c.obj)
 .text.post_process
                0x00032080       0x40 mesh/core/libmesh_core_nrf52840_xxAA.a(flash_manager_defrag.c.obj)
 .text.backup_entries
                0x000320c0      0x118 mesh/core/libmesh_core_nrf52840_xxAA.a(flash_manager_defrag.c.obj)
 .text.erase_source
                0x000321d8       0x34 mesh/core/libmesh_core_nrf52840_xxAA.a(flash_manager_defrag.c.obj)
 .text.flash_manager_defrag_init
                0x0003220c       0x98 mesh/core/libmesh_core_nrf52840_xxAA.a(flash_manager_defrag.c.obj)
                0x0003220c                flash_manager_defrag_init
 .text.flash_manager_defrag_is_running
                0x000322a4       0x10 mesh/core/libmesh_core_nrf52840_xxAA.a(flash_manager_defrag.c.obj)
                0x000322a4                flash_manager_defrag_is_running
 .text.flash_manager_defrag
                0x000322b4       0xd8 mesh/core/libmesh_core_nrf52840_xxAA.a(flash_manager_defrag.c.obj)
                0x000322b4                flash_manager_defrag
 .text.flash_manager_defrag_recovery_page_get
                0x0003238c        0xc mesh/core/libmesh_core_nrf52840_xxAA.a(flash_manager_defrag.c.obj)
                0x0003238c                flash_manager_defrag_recovery_page_get
 .text.packet_mgr_init
                0x00032398       0x4c mesh/core/libmesh_core_nrf52840_xxAA.a(packet_mgr.c.obj)
                0x00032398                packet_mgr_init
 .text.send_end_events
                0x000323e4       0x84 mesh/core/libmesh_core_nrf52840_xxAA.a(mesh_flash.c.obj)
 .text.flash_op_schedule
                0x00032468       0x9c mesh/core/libmesh_core_nrf52840_xxAA.a(mesh_flash.c.obj)
 .text.flash_op_start
                0x00032504      0x170 mesh/core/libmesh_core_nrf52840_xxAA.a(mesh_flash.c.obj)
 .text.mesh_flash_init
                0x00032674       0x88 mesh/core/libmesh_core_nrf52840_xxAA.a(mesh_flash.c.obj)
                0x00032674                mesh_flash_init
 .text.mesh_flash_user_callback_set
                0x000326fc       0x2c mesh/core/libmesh_core_nrf52840_xxAA.a(mesh_flash.c.obj)
                0x000326fc                mesh_flash_user_callback_set
 .text.mesh_flash_op_push
                0x00032728      0x128 mesh/core/libmesh_core_nrf52840_xxAA.a(mesh_flash.c.obj)
                0x00032728                mesh_flash_op_push
 .text.queue_init
                0x00032850       0x20 mesh/core/libmesh_core_nrf52840_xxAA.a(queue.c.obj)
                0x00032850                queue_init
 .text.queue_push
                0x00032870       0x48 mesh/core/libmesh_core_nrf52840_xxAA.a(queue.c.obj)
                0x00032870                queue_push
 .text.queue_pop
                0x000328b8       0x34 mesh/core/libmesh_core_nrf52840_xxAA.a(queue.c.obj)
                0x000328b8                queue_pop
 .text.queue_peek
                0x000328ec       0x1c mesh/core/libmesh_core_nrf52840_xxAA.a(queue.c.obj)
                0x000328ec                queue_peek
 .text.my_xor.constprop.1
                0x00032908       0x20 mesh/core/libmesh_core_nrf52840_xxAA.a(aes_cmac.c.obj)
 .text.utils_lshift.constprop.2
                0x00032928       0x24 mesh/core/libmesh_core_nrf52840_xxAA.a(aes_cmac.c.obj)
 .text.aes_cmac_subkey_generate
                0x0003294c       0x6c mesh/core/libmesh_core_nrf52840_xxAA.a(aes_cmac.c.obj)
                0x0003294c                aes_cmac_subkey_generate
 .text.aes_cmac
                0x000329b8       0xbc mesh/core/libmesh_core_nrf52840_xxAA.a(aes_cmac.c.obj)
                0x000329b8                aes_cmac
 .text.nrf_mesh_opt_get
                0x00032a74       0x26 mesh/core/libmesh_core_nrf52840_xxAA.a(nrf_mesh_opt.c.obj)
                0x00032a74                nrf_mesh_opt_get
 .text.stage_get_available
                0x00032a9a       0x24 mesh/core/libmesh_core_nrf52840_xxAA.a(msqueue.c.obj)
 *fill*         0x00032abe        0x2 
 .text.msq_get  0x00032ac0       0x4c mesh/core/libmesh_core_nrf52840_xxAA.a(msqueue.c.obj)
                0x00032ac0                msq_get
 .text.msq_move
                0x00032b0c       0x44 mesh/core/libmesh_core_nrf52840_xxAA.a(msqueue.c.obj)
                0x00032b0c                msq_move
 .text.msq_reset
                0x00032b50       0x2c mesh/core/libmesh_core_nrf52840_xxAA.a(msqueue.c.obj)
                0x00032b50                msq_reset
 .text.msq_init
                0x00032b7c       0x78 mesh/core/libmesh_core_nrf52840_xxAA.a(msqueue.c.obj)
                0x00032b7c                msq_init
 .text.msq_available
                0x00032bf4       0x3c mesh/core/libmesh_core_nrf52840_xxAA.a(msqueue.c.obj)
                0x00032bf4                msq_available
 .text.replay_cache_add
                0x00032c30       0x60 mesh/core/libmesh_core_nrf52840_xxAA.a(replay_cache.c.obj)
                0x00032c30                replay_cache_add
 .text.replay_cache_has_room
                0x00032c90       0x38 mesh/core/libmesh_core_nrf52840_xxAA.a(replay_cache.c.obj)
                0x00032c90                replay_cache_has_room
 .text.replay_cache_has_elem
                0x00032cc8       0x38 mesh/core/libmesh_core_nrf52840_xxAA.a(replay_cache.c.obj)
                0x00032cc8                replay_cache_has_elem
 .text.replay_cache_clear
                0x00032d00       0x28 mesh/core/libmesh_core_nrf52840_xxAA.a(replay_cache.c.obj)
                0x00032d00                replay_cache_clear
 .text.replay_cache_init
                0x00032d28        0x4 mesh/core/libmesh_core_nrf52840_xxAA.a(replay_cache.c.obj)
                0x00032d28                replay_cache_init
 .text.wait_for_ready
                0x00032d2c       0x10 mesh/core/libmesh_core_nrf52840_xxAA.a(nrf_flash.c.obj)
 .text.nrf_flash_erase
                0x00032d3c       0x50 mesh/core/libmesh_core_nrf52840_xxAA.a(nrf_flash.c.obj)
                0x00032d3c                nrf_flash_erase
 .text.nrf_flash_write
                0x00032d8c       0x50 mesh/core/libmesh_core_nrf52840_xxAA.a(nrf_flash.c.obj)
                0x00032d8c                nrf_flash_write
 .text._GetAvailWriteSpace
                0x00032ddc       0x1c external/rtt/librtt_nrf52840_xxAA.a(SEGGER_RTT.c.obj)
 .text._WriteNoCheck
                0x00032df8       0x3c external/rtt/librtt_nrf52840_xxAA.a(SEGGER_RTT.c.obj)
 .text._WriteBlocking
                0x00032e34       0x52 external/rtt/librtt_nrf52840_xxAA.a(SEGGER_RTT.c.obj)
 *fill*         0x00032e86        0x2 
 .text._DoInit  0x00032e88       0x60 external/rtt/librtt_nrf52840_xxAA.a(SEGGER_RTT.c.obj)
 .text.SEGGER_RTT_ReadNoLock
                0x00032ee8       0x88 external/rtt/librtt_nrf52840_xxAA.a(SEGGER_RTT.c.obj)
                0x00032ee8                SEGGER_RTT_ReadNoLock
 .text.SEGGER_RTT_Read
                0x00032f70       0x1c external/rtt/librtt_nrf52840_xxAA.a(SEGGER_RTT.c.obj)
                0x00032f70                SEGGER_RTT_Read
 .text.SEGGER_RTT_WriteNoLock
                0x00032f8c       0x68 external/rtt/librtt_nrf52840_xxAA.a(SEGGER_RTT.c.obj)
                0x00032f8c                SEGGER_RTT_WriteNoLock
 .text.SEGGER_RTT_Write
                0x00032ff4       0x34 external/rtt/librtt_nrf52840_xxAA.a(SEGGER_RTT.c.obj)
                0x00032ff4                SEGGER_RTT_Write
 .text.SEGGER_RTT_GetKey
                0x00033028       0x20 external/rtt/librtt_nrf52840_xxAA.a(SEGGER_RTT.c.obj)
                0x00033028                SEGGER_RTT_GetKey
 .text._StoreChar
                0x00033048       0x3e external/rtt/librtt_nrf52840_xxAA.a(SEGGER_RTT_printf.c.obj)
 *fill*         0x00033086        0x2 
 .text._PrintUnsigned
                0x00033088       0xd0 external/rtt/librtt_nrf52840_xxAA.a(SEGGER_RTT_printf.c.obj)
 .text.SEGGER_RTT_vprintf
                0x00033158      0x246 external/rtt/librtt_nrf52840_xxAA.a(SEGGER_RTT_printf.c.obj)
                0x00033158                SEGGER_RTT_vprintf
 .text.SEGGER_RTT_printf
                0x0003339e       0x1e external/rtt/librtt_nrf52840_xxAA.a(SEGGER_RTT_printf.c.obj)
                0x0003339e                SEGGER_RTT_printf
 .text.uECC_vli_mult
                0x000333bc       0x64 external/micro-ecc/libuECC_nrf52840_xxAA.a(uECC.c.obj)
 .text.uECC_vli_clear
                0x00033420       0x16 external/micro-ecc/libuECC_nrf52840_xxAA.a(uECC.c.obj)
 .text.uECC_vli_isZero
                0x00033436       0x1e external/micro-ecc/libuECC_nrf52840_xxAA.a(uECC.c.obj)
 .text.uECC_vli_testBit
                0x00033454       0x14 external/micro-ecc/libuECC_nrf52840_xxAA.a(uECC.c.obj)
 .text.uECC_vli_numBits
                0x00033468       0x3a external/micro-ecc/libuECC_nrf52840_xxAA.a(uECC.c.obj)
 .text.uECC_vli_set
                0x000334a2       0x18 external/micro-ecc/libuECC_nrf52840_xxAA.a(uECC.c.obj)
 .text.uECC_vli_cmp_unsafe
                0x000334ba       0x28 external/micro-ecc/libuECC_nrf52840_xxAA.a(uECC.c.obj)
 .text.uECC_vli_rshift1
                0x000334e2       0x1c external/micro-ecc/libuECC_nrf52840_xxAA.a(uECC.c.obj)
 .text.uECC_vli_modMult_fast
                0x000334fe       0x20 external/micro-ecc/libuECC_nrf52840_xxAA.a(uECC.c.obj)
 .text.uECC_vli_modSquare_fast
                0x0003351e        0x8 external/micro-ecc/libuECC_nrf52840_xxAA.a(uECC.c.obj)
 .text.apply_z  0x00033526       0x3e external/micro-ecc/libuECC_nrf52840_xxAA.a(uECC.c.obj)
 .text.uECC_vli_nativeToBytes
                0x00033564       0x28 external/micro-ecc/libuECC_nrf52840_xxAA.a(uECC.c.obj)
 .text.uECC_vli_bytesToNative
                0x0003358c       0x40 external/micro-ecc/libuECC_nrf52840_xxAA.a(uECC.c.obj)
 .text.default_RNG
                0x000335cc        0xc external/micro-ecc/libuECC_nrf52840_xxAA.a(uECC.c.obj)
 .text.uECC_vli_add.isra.0
                0x000335d8       0x4a external/micro-ecc/libuECC_nrf52840_xxAA.a(uECC.c.obj)
 .text.regularize_k
                0x00033622       0x50 external/micro-ecc/libuECC_nrf52840_xxAA.a(uECC.c.obj)
 .text.uECC_vli_sub.isra.1
                0x00033672       0x4e external/micro-ecc/libuECC_nrf52840_xxAA.a(uECC.c.obj)
 .text.uECC_vli_cmp
                0x000336c0       0x30 external/micro-ecc/libuECC_nrf52840_xxAA.a(uECC.c.obj)
 .text.uECC_generate_random_int
                0x000336f0       0x78 external/micro-ecc/libuECC_nrf52840_xxAA.a(uECC.c.obj)
 .text.uECC_vli_modAdd
                0x00033768       0x2e external/micro-ecc/libuECC_nrf52840_xxAA.a(uECC.c.obj)
 *fill*         0x00033796        0x2 
 .text.vli_mmod_fast_secp256r1
                0x00033798      0x194 external/micro-ecc/libuECC_nrf52840_xxAA.a(uECC.c.obj)
 .text.uECC_vli_modSub.isra.2
                0x0003392c       0x1c external/micro-ecc/libuECC_nrf52840_xxAA.a(uECC.c.obj)
 .text.double_jacobian_default
                0x00033948      0x14a external/micro-ecc/libuECC_nrf52840_xxAA.a(uECC.c.obj)
 .text.x_side_default
                0x00033a92       0x5a external/micro-ecc/libuECC_nrf52840_xxAA.a(uECC.c.obj)
 .text.XYcZ_add
                0x00033aec       0xbc external/micro-ecc/libuECC_nrf52840_xxAA.a(uECC.c.obj)
 .text.XYcZ_addC
                0x00033ba8      0x10a external/micro-ecc/libuECC_nrf52840_xxAA.a(uECC.c.obj)
 .text.vli_modInv_update
                0x00033cb2       0x36 external/micro-ecc/libuECC_nrf52840_xxAA.a(uECC.c.obj)
 .text.uECC_vli_modInv
                0x00033ce8      0x102 external/micro-ecc/libuECC_nrf52840_xxAA.a(uECC.c.obj)
 .text.EccPoint_mult
                0x00033dea      0x19e external/micro-ecc/libuECC_nrf52840_xxAA.a(uECC.c.obj)
 .text.EccPoint_compute_public_key
                0x00033f88       0x54 external/micro-ecc/libuECC_nrf52840_xxAA.a(uECC.c.obj)
 .text.uECC_secp256r1
                0x00033fdc        0x8 external/micro-ecc/libuECC_nrf52840_xxAA.a(uECC.c.obj)
                0x00033fdc                uECC_secp256r1
 .text.uECC_make_key
                0x00033fe4       0x7e external/micro-ecc/libuECC_nrf52840_xxAA.a(uECC.c.obj)
                0x00033fe4                uECC_make_key
 *fill*         0x00034062        0x2 
 .text.uECC_shared_secret
                0x00034064       0xbc external/micro-ecc/libuECC_nrf52840_xxAA.a(uECC.c.obj)
                0x00034064                uECC_shared_secret
 .text.uECC_valid_point
                0x00034120       0x86 external/micro-ecc/libuECC_nrf52840_xxAA.a(uECC.c.obj)
                0x00034120                uECC_valid_point
 .text.uECC_valid_public_key
                0x000341a6       0x32 external/micro-ecc/libuECC_nrf52840_xxAA.a(uECC.c.obj)
                0x000341a6                uECC_valid_public_key
 .text          0x000341d8       0x30 c:/a/gcc_arm/6/bin/../lib/gcc/arm-none-eabi/6.3.1/thumb/v7e-m/fpv4-sp/hard\libgcc.a(_aeabi_uldivmod.o)
                0x000341d8                __aeabi_uldivmod
 .text          0x00034208      0x2dc c:/a/gcc_arm/6/bin/../lib/gcc/arm-none-eabi/6.3.1/thumb/v7e-m/fpv4-sp/hard\libgcc.a(_udivmoddi4.o)
                0x00034208                __udivmoddi4
 .text          0x000344e4        0x4 c:/a/gcc_arm/6/bin/../lib/gcc/arm-none-eabi/6.3.1/thumb/v7e-m/fpv4-sp/hard\libgcc.a(_dvmd_tls.o)
                0x000344e4                __aeabi_idiv0
                0x000344e4                __aeabi_ldiv0
 .text.exit     0x000344e8       0x28 c:/a/gcc_arm/6/bin/../lib/gcc/arm-none-eabi/6.3.1/../../../../arm-none-eabi/lib/thumb/v7e-m/fpv4-sp/hard\libg_nano.a(lib_a-exit.o)
                0x000344e8                exit
 .text.__libc_init_array
                0x00034510       0x48 c:/a/gcc_arm/6/bin/../lib/gcc/arm-none-eabi/6.3.1/../../../../arm-none-eabi/lib/thumb/v7e-m/fpv4-sp/hard\libg_nano.a(lib_a-init.o)
                0x00034510                __libc_init_array
 .text.malloc   0x00034558       0x10 c:/a/gcc_arm/6/bin/../lib/gcc/arm-none-eabi/6.3.1/../../../../arm-none-eabi/lib/thumb/v7e-m/fpv4-sp/hard\libg_nano.a(lib_a-malloc.o)
                0x00034558                malloc
 .text.free     0x00034568       0x10 c:/a/gcc_arm/6/bin/../lib/gcc/arm-none-eabi/6.3.1/../../../../arm-none-eabi/lib/thumb/v7e-m/fpv4-sp/hard\libg_nano.a(lib_a-malloc.o)
                0x00034568                free
 .text.memcmp   0x00034578       0x1e c:/a/gcc_arm/6/bin/../lib/gcc/arm-none-eabi/6.3.1/../../../../arm-none-eabi/lib/thumb/v7e-m/fpv4-sp/hard\libg_nano.a(lib_a-memcmp.o)
                0x00034578                memcmp
 .text.memcpy   0x00034596       0x16 c:/a/gcc_arm/6/bin/../lib/gcc/arm-none-eabi/6.3.1/../../../../arm-none-eabi/lib/thumb/v7e-m/fpv4-sp/hard\libg_nano.a(lib_a-memcpy-stub.o)
                0x00034596                memcpy
 .text.memset   0x000345ac       0x10 c:/a/gcc_arm/6/bin/../lib/gcc/arm-none-eabi/6.3.1/../../../../arm-none-eabi/lib/thumb/v7e-m/fpv4-sp/hard\libg_nano.a(lib_a-memset.o)
                0x000345ac                memset
 .text._free_r  0x000345bc       0x9c c:/a/gcc_arm/6/bin/../lib/gcc/arm-none-eabi/6.3.1/../../../../arm-none-eabi/lib/thumb/v7e-m/fpv4-sp/hard\libg_nano.a(lib_a-nano-freer.o)
                0x000345bc                _free_r
 .text._malloc_r
                0x00034658       0xbc c:/a/gcc_arm/6/bin/../lib/gcc/arm-none-eabi/6.3.1/../../../../arm-none-eabi/lib/thumb/v7e-m/fpv4-sp/hard\libg_nano.a(lib_a-nano-mallocr.o)
                0x00034658                _malloc_r
 .text._sbrk_r  0x00034714       0x20 c:/a/gcc_arm/6/bin/../lib/gcc/arm-none-eabi/6.3.1/../../../../arm-none-eabi/lib/thumb/v7e-m/fpv4-sp/hard\libg_nano.a(lib_a-sbrkr.o)
                0x00034714                _sbrk_r
 .text.strcpy   0x00034734       0x10 c:/a/gcc_arm/6/bin/../lib/gcc/arm-none-eabi/6.3.1/../../../../arm-none-eabi/lib/thumb/v7e-m/fpv4-sp/hard\libg_nano.a(lib_a-strcpy.o)
                0x00034734                strcpy
 .text          0x00034744       0x10 c:/a/gcc_arm/6/bin/../lib/gcc/arm-none-eabi/6.3.1/../../../../arm-none-eabi/lib/thumb/v7e-m/fpv4-sp/hard\libg_nano.a(lib_a-strlen.o)
                0x00034744                strlen
 .text.strrchr  0x00034754       0x26 c:/a/gcc_arm/6/bin/../lib/gcc/arm-none-eabi/6.3.1/../../../../arm-none-eabi/lib/thumb/v7e-m/fpv4-sp/hard\libg_nano.a(lib_a-strrchr.o)
                0x00034754                strrchr
 .text.__malloc_lock
                0x0003477a        0x2 c:/a/gcc_arm/6/bin/../lib/gcc/arm-none-eabi/6.3.1/../../../../arm-none-eabi/lib/thumb/v7e-m/fpv4-sp/hard\libg_nano.a(lib_a-mlock.o)
                0x0003477a                __malloc_lock
 .text.__malloc_unlock
                0x0003477c        0x2 c:/a/gcc_arm/6/bin/../lib/gcc/arm-none-eabi/6.3.1/../../../../arm-none-eabi/lib/thumb/v7e-m/fpv4-sp/hard\libg_nano.a(lib_a-mlock.o)
                0x0003477c                __malloc_unlock
 .text.strchr   0x0003477e       0x1c c:/a/gcc_arm/6/bin/../lib/gcc/arm-none-eabi/6.3.1/../../../../arm-none-eabi/lib/thumb/v7e-m/fpv4-sp/hard\libg_nano.a(lib_a-strchr.o)
                0x0003477e                strchr
 *fill*         0x0003479a        0x2 
 .text._sbrk    0x0003479c       0x1c c:/a/gcc_arm/6/bin/../lib/gcc/arm-none-eabi/6.3.1/../../../../arm-none-eabi/lib/thumb/v7e-m/fpv4-sp/hard\libnosys.a(sbrk.o)
                0x0003479c                _sbrk
 .text._exit    0x000347b8        0x4 c:/a/gcc_arm/6/bin/../lib/gcc/arm-none-eabi/6.3.1/../../../../arm-none-eabi/lib/thumb/v7e-m/fpv4-sp/hard\libnosys.a(_exit.o)
                0x000347b8                _exit
 *(.init)
 .init          0x000347bc        0x4 c:/a/gcc_arm/6/bin/../lib/gcc/arm-none-eabi/6.3.1/thumb/v7e-m/fpv4-sp/hard/crti.o
                0x000347bc                _init
 .init          0x000347c0        0x8 c:/a/gcc_arm/6/bin/../lib/gcc/arm-none-eabi/6.3.1/thumb/v7e-m/fpv4-sp/hard/crtn.o
 *(.fini)
 .fini          0x000347c8        0x4 c:/a/gcc_arm/6/bin/../lib/gcc/arm-none-eabi/6.3.1/thumb/v7e-m/fpv4-sp/hard/crti.o
                0x000347c8                _fini
 .fini          0x000347cc        0x8 c:/a/gcc_arm/6/bin/../lib/gcc/arm-none-eabi/6.3.1/thumb/v7e-m/fpv4-sp/hard/crtn.o
 *crtbegin.o(.ctors)
 *crtbegin?.o(.ctors)
 *(EXCLUDE_FILE(*crtend.o *crtend?.o) .ctors)
 *(SORT(.ctors.*))
 *(.ctors)
 *crtbegin.o(.dtors)
 *crtbegin?.o(.dtors)
 *(EXCLUDE_FILE(*crtend.o *crtend?.o) .dtors)
 *(SORT(.dtors.*))
 *(.dtors)
 *(.rodata*)
 .rodata        0x000347d4       0x1f examples/pb_remote/client/CMakeFiles/pb_remote_client_nrf52840_xxAA_s140_5.0.0-3.alpha.dir/src/main.c.obj
 .rodata.USAGE_STRING
                0x000347f3      0x11b examples/pb_remote/client/CMakeFiles/pb_remote_client_nrf52840_xxAA_s140_5.0.0-3.alpha.dir/src/main.c.obj
                0x000347f3                USAGE_STRING
 .rodata.m_netkey
                0x0003490e       0x10 examples/pb_remote/client/CMakeFiles/pb_remote_client_nrf52840_xxAA_s140_5.0.0-3.alpha.dir/src/main.c.obj
 .rodata.main.str1.1
                0x0003491e       0x44 examples/pb_remote/client/CMakeFiles/pb_remote_client_nrf52840_xxAA_s140_5.0.0-3.alpha.dir/src/main.c.obj
 .rodata.prov_evt_handler.str1.1
                0x00034962       0xeb examples/pb_remote/client/CMakeFiles/pb_remote_client_nrf52840_xxAA_s140_5.0.0-3.alpha.dir/src/main.c.obj
 .rodata.remote_client_event_cb.str1.1
                0x00034a4d       0x73 examples/pb_remote/client/CMakeFiles/pb_remote_client_nrf52840_xxAA_s140_5.0.0-3.alpha.dir/src/main.c.obj
 .rodata.start_provisioning.str1.1
                0x00034ac0       0x28 examples/pb_remote/client/CMakeFiles/pb_remote_client_nrf52840_xxAA_s140_5.0.0-3.alpha.dir/src/main.c.obj
 .rodata.user_input_handler.str1.1
                0x00034ae8       0xda examples/pb_remote/client/CMakeFiles/pb_remote_client_nrf52840_xxAA_s140_5.0.0-3.alpha.dir/src/main.c.obj
 .rodata.HardFault_Handler.str1.1
                0x00034bc2        0xe examples/pb_remote/client/CMakeFiles/pb_remote_client_nrf52840_xxAA_s140_5.0.0-3.alpha.dir/__/__/nrf_mesh_sdk.c.obj
 .rodata.app_error_handler.str1.1
                0x00034bd0       0x1d examples/pb_remote/client/CMakeFiles/pb_remote_client_nrf52840_xxAA_s140_5.0.0-3.alpha.dir/__/__/nrf_mesh_sdk.c.obj
 .rodata.mesh_assert_handler.str1.1
                0x00034bed       0x34 examples/pb_remote/client/CMakeFiles/pb_remote_client_nrf52840_xxAA_s140_5.0.0-3.alpha.dir/__/__/nrf_mesh_sdk.c.obj
 .rodata.mesh_core_setup.str1.1
                0x00034c21       0x47 examples/pb_remote/client/CMakeFiles/pb_remote_client_nrf52840_xxAA_s140_5.0.0-3.alpha.dir/__/__/nrf_mesh_sdk.c.obj
 .rodata.mesh_softdevice_enable.str1.1
                0x00034c68       0x65 examples/pb_remote/client/CMakeFiles/pb_remote_client_nrf52840_xxAA_s140_5.0.0-3.alpha.dir/__/__/nrf_mesh_sdk.c.obj
 .rodata.softdevice_assert_handler.str1.1
                0x00034ccd       0x1d examples/pb_remote/client/CMakeFiles/pb_remote_client_nrf52840_xxAA_s140_5.0.0-3.alpha.dir/__/__/nrf_mesh_sdk.c.obj
 .rodata        0x00034cea       0x2a examples/pb_remote/client/CMakeFiles/pb_remote_client_nrf52840_xxAA_s140_5.0.0-3.alpha.dir/__/__/__/models/pb_remote/src/pb_remote_client.c.obj
 .rodata.client_reliable_status_cb.str1.1
                0x00034d14       0x3f examples/pb_remote/client/CMakeFiles/pb_remote_client_nrf52840_xxAA_s140_5.0.0-3.alpha.dir/__/__/__/models/pb_remote/src/pb_remote_client.c.obj
 *fill*         0x00034d53        0x1 
 .rodata.interface.11852
                0x00034d54       0x14 examples/pb_remote/client/CMakeFiles/pb_remote_client_nrf52840_xxAA_s140_5.0.0-3.alpha.dir/__/__/__/models/pb_remote/src/pb_remote_client.c.obj
 .rodata.m_opcode_handlers
                0x00034d68       0x38 examples/pb_remote/client/CMakeFiles/pb_remote_client_nrf52840_xxAA_s140_5.0.0-3.alpha.dir/__/__/__/models/pb_remote/src/pb_remote_client.c.obj
 .rodata.m_pb_remote_client_event_handler_callbacks
                0x00034da0       0x38 examples/pb_remote/client/CMakeFiles/pb_remote_client_nrf52840_xxAA_s140_5.0.0-3.alpha.dir/__/__/__/models/pb_remote/src/pb_remote_client.c.obj
                0x00034da0                m_pb_remote_client_event_handler_callbacks
 .rodata.pb_remote_client_event_link_close_cb.str1.1
                0x00034dd8       0x2a examples/pb_remote/client/CMakeFiles/pb_remote_client_nrf52840_xxAA_s140_5.0.0-3.alpha.dir/__/__/__/models/pb_remote/src/pb_remote_client.c.obj
 .rodata.pb_remote_client_event_link_status_cb.str1.1
                0x00034e02       0x62 examples/pb_remote/client/CMakeFiles/pb_remote_client_nrf52840_xxAA_s140_5.0.0-3.alpha.dir/__/__/__/models/pb_remote/src/pb_remote_client.c.obj
 .rodata.pb_remote_client_event_link_status_report_cb.str1.1
                0x00034e64       0x4f examples/pb_remote/client/CMakeFiles/pb_remote_client_nrf52840_xxAA_s140_5.0.0-3.alpha.dir/__/__/__/models/pb_remote/src/pb_remote_client.c.obj
 .rodata.pb_remote_client_event_local_packet_cb.str1.1
                0x00034eb3       0x1c examples/pb_remote/client/CMakeFiles/pb_remote_client_nrf52840_xxAA_s140_5.0.0-3.alpha.dir/__/__/__/models/pb_remote/src/pb_remote_client.c.obj
 .rodata.pb_remote_client_event_packet_transfer_cb.str1.1
                0x00034ecf       0x2d examples/pb_remote/client/CMakeFiles/pb_remote_client_nrf52840_xxAA_s140_5.0.0-3.alpha.dir/__/__/__/models/pb_remote/src/pb_remote_client.c.obj
 .rodata.pb_remote_client_event_scan_cancel_cb.str1.1
                0x00034efc       0x1e examples/pb_remote/client/CMakeFiles/pb_remote_client_nrf52840_xxAA_s140_5.0.0-3.alpha.dir/__/__/__/models/pb_remote/src/pb_remote_client.c.obj
 .rodata.pb_remote_client_event_scan_start_cb.str1.1
                0x00034f1a       0x1d examples/pb_remote/client/CMakeFiles/pb_remote_client_nrf52840_xxAA_s140_5.0.0-3.alpha.dir/__/__/__/models/pb_remote/src/pb_remote_client.c.obj
 .rodata.pb_remote_client_event_scan_status_cb.str1.1
                0x00034f37       0x62 examples/pb_remote/client/CMakeFiles/pb_remote_client_nrf52840_xxAA_s140_5.0.0-3.alpha.dir/__/__/__/models/pb_remote/src/pb_remote_client.c.obj
 .rodata.pb_remote_client_event_transfer_status_cb.str1.1
                0x00034f99       0x25 examples/pb_remote/client/CMakeFiles/pb_remote_client_nrf52840_xxAA_s140_5.0.0-3.alpha.dir/__/__/__/models/pb_remote/src/pb_remote_client.c.obj
 .rodata.pb_remote_client_event_transfer_status_report_cb.str1.1
                0x00034fbe       0x41 examples/pb_remote/client/CMakeFiles/pb_remote_client_nrf52840_xxAA_s140_5.0.0-3.alpha.dir/__/__/__/models/pb_remote/src/pb_remote_client.c.obj
 .rodata.pb_remote_client_event_unprov_number_cb.str1.1
                0x00034fff       0x56 examples/pb_remote/client/CMakeFiles/pb_remote_client_nrf52840_xxAA_s140_5.0.0-3.alpha.dir/__/__/__/models/pb_remote/src/pb_remote_client.c.obj
 .rodata.pb_remote_client_event_unprov_uuid_cb.str1.1
                0x00035055       0x24 examples/pb_remote/client/CMakeFiles/pb_remote_client_nrf52840_xxAA_s140_5.0.0-3.alpha.dir/__/__/__/models/pb_remote/src/pb_remote_client.c.obj
 .rodata.pb_remote_client_process.str1.1
                0x00035079       0x23 examples/pb_remote/client/CMakeFiles/pb_remote_client_nrf52840_xxAA_s140_5.0.0-3.alpha.dir/__/__/__/models/pb_remote/src/pb_remote_client.c.obj
 .rodata.m_prov_callbacks
                0x0003509c       0x10 examples/pb_remote/client/CMakeFiles/pb_remote_client_nrf52840_xxAA_s140_5.0.0-3.alpha.dir/__/__/__/mesh/prov/src/prov_provisioner.c.obj
 .rodata.pdu_sizes.11136
                0x000350ac        0xa examples/pb_remote/client/CMakeFiles/pb_remote_client_nrf52840_xxAA_s140_5.0.0-3.alpha.dir/__/__/__/mesh/prov/src/provisioning.c.obj
 .rodata.alphanumeric.11241
                0x000350b6       0x25 examples/pb_remote/client/CMakeFiles/pb_remote_client_nrf52840_xxAA_s140_5.0.0-3.alpha.dir/__/__/__/mesh/prov/src/prov_utils.c.obj
 *fill*         0x000350db        0x1 
 .rodata.numeric_max.11235
                0x000350dc       0x24 examples/pb_remote/client/CMakeFiles/pb_remote_client_nrf52840_xxAA_s140_5.0.0-3.alpha.dir/__/__/__/mesh/prov/src/prov_utils.c.obj
 .rodata.prov_utils_authentication_values_derive.str1.1
                0x00035100        0x5 examples/pb_remote/client/CMakeFiles/pb_remote_client_nrf52840_xxAA_s140_5.0.0-3.alpha.dir/__/__/__/mesh/prov/src/prov_utils.c.obj
 .rodata.prov_utils_derive_keys.str1.1
                0x00035105        0xf examples/pb_remote/client/CMakeFiles/pb_remote_client_nrf52840_xxAA_s140_5.0.0-3.alpha.dir/__/__/__/mesh/prov/src/prov_utils.c.obj
 .rodata.add_active_bearer.str1.1
                0x00035114       0x2c examples/pb_remote/client/CMakeFiles/pb_remote_client_nrf52840_xxAA_s140_5.0.0-3.alpha.dir/__/__/__/mesh/prov/src/prov_bearer_adv.c.obj
 .rodata.crctable.10994
                0x00035140      0x100 examples/pb_remote/client/CMakeFiles/pb_remote_client_nrf52840_xxAA_s140_5.0.0-3.alpha.dir/__/__/__/mesh/prov/src/prov_bearer_adv.c.obj
 .rodata.interface.11224
                0x00035240       0x14 examples/pb_remote/client/CMakeFiles/pb_remote_client_nrf52840_xxAA_s140_5.0.0-3.alpha.dir/__/__/__/mesh/prov/src/prov_bearer_adv.c.obj
 .rodata.prov_bearer_adv_packet_in.str1.1
                0x00035254      0x26e examples/pb_remote/client/CMakeFiles/pb_remote_client_nrf52840_xxAA_s140_5.0.0-3.alpha.dir/__/__/__/mesh/prov/src/prov_bearer_adv.c.obj
 .rodata.tx_retry_cb.str1.1
                0x000354c2       0x37 examples/pb_remote/client/CMakeFiles/pb_remote_client_nrf52840_xxAA_s140_5.0.0-3.alpha.dir/__/__/__/mesh/prov/src/prov_bearer_adv.c.obj
 .rodata.mesh_evt_cb.str1.1
                0x000354f9       0x2f examples/pb_remote/client/CMakeFiles/pb_remote_client_nrf52840_xxAA_s140_5.0.0-3.alpha.dir/__/__/__/mesh/access/src/access.c.obj
 .rodata.packet_tx.str1.1
                0x00035528       0x13 examples/pb_remote/client/CMakeFiles/pb_remote_client_nrf52840_xxAA_s140_5.0.0-3.alpha.dir/__/__/__/mesh/access/src/access.c.obj
 *fill*         0x0003553b        0x1 
 .rodata.m_flash_groups
                0x0003553c       0xa8 examples/pb_remote/client/CMakeFiles/pb_remote_client_nrf52840_xxAA_s140_5.0.0-3.alpha.dir/__/__/__/mesh/access/src/device_state_manager.c.obj
 .rodata.types_lookup.9155
                0x000355e4        0x4 mesh/core/libmesh_core_nrf52840_xxAA.a(nrf_mesh_utils.c.obj)
 .rodata.nrf_mesh_listen.str1.1
                0x000355e8       0x70 mesh/core/libmesh_core_nrf52840_xxAA.a(nrf_mesh.c.obj)
 .rodata.CSWTCH.8
                0x00035658       0x10 mesh/core/libmesh_core_nrf52840_xxAA.a(hal.c.obj)
 .rodata        0x00035668       0x15 mesh/core/libmesh_core_nrf52840_xxAA.a(enc.c.obj)
 .rodata.network_packet_in.str1.1
                0x0003567d       0x40 mesh/core/libmesh_core_nrf52840_xxAA.a(network.c.obj)
                                 0x48 (size before relaxing)
 .rodata.network_packet_send.str1.1
                0x000356bd       0x49 mesh/core/libmesh_core_nrf52840_xxAA.a(network.c.obj)
 .rodata        0x00035706        0x7 mesh/core/libmesh_core_nrf52840_xxAA.a(nrf_mesh_keygen.c.obj)
 .rodata.log_callback_rtt.str1.1
                0x0003570d       0x15 mesh/core/libmesh_core_nrf52840_xxAA.a(log.c.obj)
 .rodata.str1.1
                0x00035722       0x11 mesh/core/libmesh_core_nrf52840_xxAA.a(log.c.obj)
 *fill*         0x00035733        0x1 
 .rodata.INVALID_HEADER
                0x00035734        0x4 mesh/core/libmesh_core_nrf52840_xxAA.a(flash_manager.c.obj)
                0x00035734                INVALID_HEADER
 .rodata.PADDING_HEADER
                0x00035738        0x4 mesh/core/libmesh_core_nrf52840_xxAA.a(flash_manager.c.obj)
                0x00035738                PADDING_HEADER
 .rodata.SEAL_HEADER
                0x0003573c        0x4 mesh/core/libmesh_core_nrf52840_xxAA.a(flash_manager.c.obj)
                0x0003573c                SEAL_HEADER
 .rodata.process_action_queue.str1.1
                0x00035740       0x21 mesh/core/libmesh_core_nrf52840_xxAA.a(flash_manager.c.obj)
                                 0x4f (size before relaxing)
 .rodata.beacon_packet_in.str1.1
                0x00035761       0x51 mesh/core/libmesh_core_nrf52840_xxAA.a(beacon.c.obj)
                                 0x59 (size before relaxing)
 *fill*         0x000357b2        0x2 
 .rodata.cp_handler
                0x000357b4        0x8 mesh/core/libmesh_core_nrf52840_xxAA.a(heartbeat.c.obj)
 .rodata.net_beacon_init.str1.1
                0x000357bc        0x5 mesh/core/libmesh_core_nrf52840_xxAA.a(net_beacon.c.obj)
 *fill*         0x000357c1        0x3 
 .rodata.m_interface
                0x000357c4        0xc mesh/core/libmesh_core_nrf52840_xxAA.a(core_tx_adv.c.obj)
 .rodata.radio_mode_to_us_per_byte.9552
                0x000357d0        0x6 mesh/core/libmesh_core_nrf52840_xxAA.a(broadcast.c.obj)
 .rodata.channel_rf_offsets.8793
                0x000357d6       0x28 mesh/core/libmesh_core_nrf52840_xxAA.a(radio_config.c.obj)
 .rodata        0x000357fe        0x3 mesh/core/libmesh_core_nrf52840_xxAA.a(scanner.c.obj)
 .rodata.sar_ctx_cancel.str1.1
                0x00035801       0x18 mesh/core/libmesh_core_nrf52840_xxAA.a(transport.c.obj)
 .rodata.sar_ctx_tx_complete.str1.1
                0x00035819       0x1d mesh/core/libmesh_core_nrf52840_xxAA.a(transport.c.obj)
                                 0x4b (size before relaxing)
 .rodata.test_transport_decrypt.str1.1
                0x00035836       0x13 mesh/core/libmesh_core_nrf52840_xxAA.a(transport.c.obj)
 .rodata.transport_packet_in.str1.1
                0x00035849       0x24 mesh/core/libmesh_core_nrf52840_xxAA.a(transport.c.obj)
 .rodata.upper_transport_access_packet_in.str1.1
                0x0003586d       0x29 mesh/core/libmesh_core_nrf52840_xxAA.a(transport.c.obj)
 .rodata.upper_transport_packet_in.str1.1
                0x00035896       0x2e mesh/core/libmesh_core_nrf52840_xxAA.a(transport.c.obj)
 .rodata.upper_transport_tx.str1.1
                0x000358c4       0x2c mesh/core/libmesh_core_nrf52840_xxAA.a(transport.c.obj)
                                 0x34 (size before relaxing)
 .rodata.flash_manager_defrag.str1.1
                0x000358f0       0x28 mesh/core/libmesh_core_nrf52840_xxAA.a(flash_manager_defrag.c.obj)
                                 0x56 (size before relaxing)
 .rodata.m_procedure_steps
                0x00035918       0x28 mesh/core/libmesh_core_nrf52840_xxAA.a(flash_manager_defrag.c.obj)
 .rodata.m_all_operations
                0x00035940       0x10 mesh/core/libmesh_core_nrf52840_xxAA.a(mesh_flash.c.obj)
 .rodata.Rb.7578
                0x00035950       0x10 mesh/core/libmesh_core_nrf52840_xxAA.a(aes_cmac.c.obj)
 .rodata._DoInit.str1.1
                0x00035960       0x14 external/rtt/librtt_nrf52840_xxAA.a(SEGGER_RTT.c.obj)
 .rodata._aV2C.5497
                0x00035974       0x10 external/rtt/librtt_nrf52840_xxAA.a(SEGGER_RTT_printf.c.obj)
 .rodata.curve_secp256r1
                0x00035984       0xb0 external/micro-ecc/libuECC_nrf52840_xxAA.a(uECC.c.obj)
 .rodata._global_impure_ptr
                0x00035a34        0x4 c:/a/gcc_arm/6/bin/../lib/gcc/arm-none-eabi/6.3.1/../../../../arm-none-eabi/lib/thumb/v7e-m/fpv4-sp/hard\libg_nano.a(lib_a-impure.o)
                0x00035a34                _global_impure_ptr
 *(.eh_frame*)
 .eh_frame      0x00035a38        0x0 c:/a/gcc_arm/6/bin/../lib/gcc/arm-none-eabi/6.3.1/thumb/v7e-m/fpv4-sp/hard/crtbegin.o
 .eh_frame      0x00035a38        0x4 c:/a/gcc_arm/6/bin/../lib/gcc/arm-none-eabi/6.3.1/thumb/v7e-m/fpv4-sp/hard/crtend.o

.glue_7         0x00035a3c        0x0
 .glue_7        0x00035a3c        0x0 linker stubs

.glue_7t        0x00035a3c        0x0
 .glue_7t       0x00035a3c        0x0 linker stubs

.vfp11_veneer   0x00035a3c        0x0
 .vfp11_veneer  0x00035a3c        0x0 linker stubs

.v4_bx          0x00035a3c        0x0
 .v4_bx         0x00035a3c        0x0 linker stubs

.iplt           0x00035a3c        0x0
 .iplt          0x00035a3c        0x0 c:/a/gcc_arm/6/bin/../lib/gcc/arm-none-eabi/6.3.1/thumb/v7e-m/fpv4-sp/hard/crtbegin.o

.pwr_mgmt_data  0x00035a3c        0x0
                [!provide]                PROVIDE (__start_pwr_mgmt_data, .)
 *(SORT(.pwr_mgmt_data*))
                [!provide]                PROVIDE (__stop_pwr_mgmt_data, .)

.log_const_data
                0x00035a3c        0x0
                [!provide]                PROVIDE (__start_log_const_data, .)
 *(.log_const_data)
                [!provide]                PROVIDE (__stop_log_const_data, .)

.cli_command    0x00035a3c        0x0
                [!provide]                PROVIDE (__start_cli_command, .)
 *(.cli_command)
                [!provide]                PROVIDE (__stop_cli_command, .)

.sdh_stack_observers
                0x00035a3c        0x0
                [!provide]                PROVIDE (__start_sdh_stack_observers, .)
 *(SORT(.sdh_stack_observers*))
                [!provide]                PROVIDE (__stop_sdh_stack_observers, .)

.sdh_req_observers
                0x00035a3c        0x0
                [!provide]                PROVIDE (__start_sdh_req_observers, .)
 *(SORT(.sdh_req_observers*))
                [!provide]                PROVIDE (__stop_sdh_req_observers, .)

.sdh_state_observers
                0x00035a3c        0x0
                [!provide]                PROVIDE (__start_sdh_state_observers, .)
 *(SORT(.sdh_state_observers*))
                [!provide]                PROVIDE (__stop_sdh_state_observers, .)

.sdh_ant_observers
                0x00035a3c        0x0
                [!provide]                PROVIDE (__start_sdh_ant_observers, .)
 *(SORT(.sdh_ant_observers*))
                [!provide]                PROVIDE (__stop_sdh_ant_observers, .)

.sdh_ble_observers
                0x00035a3c        0x0
                [!provide]                PROVIDE (__start_sdh_ble_observers, .)
 *(SORT(.sdh_ble_observers*))
                [!provide]                PROVIDE (__stop_sdh_ble_observers, .)

.sdh_soc_observers
                0x00035a3c        0x0
                [!provide]                PROVIDE (__start_sdh_soc_observers, .)
 *(SORT(.sdh_soc_observers*))
                [!provide]                PROVIDE (__stop_sdh_soc_observers, .)

.ARM.extab
 *(.ARM.extab* .gnu.linkonce.armextab.*)
                0x00035a3c                __exidx_start = .

.ARM.exidx      0x00035a3c        0x8
 *(.ARM.exidx* .gnu.linkonce.armexidx.*)
 .ARM.exidx     0x00035a3c        0x8 c:/a/gcc_arm/6/bin/../lib/gcc/arm-none-eabi/6.3.1/../../../../arm-none-eabi/lib/thumb/v7e-m/fpv4-sp/hard/crt0.o
 .ARM.exidx     0x00035a44        0x0 c:/a/gcc_arm/6/bin/../lib/gcc/arm-none-eabi/6.3.1/thumb/v7e-m/fpv4-sp/hard\libgcc.a(_udivmoddi4.o)
                                  0x8 (size before relaxing)
                0x00035a44                __exidx_end = .
                0x00035a44                __etext = .

.rel.dyn        0x00035a44        0x0
 .rel.iplt      0x00035a44        0x0 c:/a/gcc_arm/6/bin/../lib/gcc/arm-none-eabi/6.3.1/thumb/v7e-m/fpv4-sp/hard/crtbegin.o

.data           0x200031b8       0xf0 load address 0x00035a44
                0x200031b8                __data_start__ = .
 *(vtable)
 *(.data*)
 .data.m_next_unprov_address
                0x200031b8        0x2 examples/pb_remote/client/CMakeFiles/pb_remote_client_nrf52840_xxAA_s140_5.0.0-3.alpha.dir/src/main.c.obj
 *fill*         0x200031ba        0x2 
 .data.m_async_process_flag
                0x200031bc        0x4 examples/pb_remote/client/CMakeFiles/pb_remote_client_nrf52840_xxAA_s140_5.0.0-3.alpha.dir/__/__/__/mesh/prov/src/prov_bearer_adv.c.obj
 .data.flash_add_mem_available_struct.10422
                0x200031c0       0x10 examples/pb_remote/client/CMakeFiles/pb_remote_client_nrf52840_xxAA_s140_5.0.0-3.alpha.dir/__/__/__/mesh/access/src/access.c.obj
 .data.m_default_ttl
                0x200031d0        0x1 examples/pb_remote/client/CMakeFiles/pb_remote_client_nrf52840_xxAA_s140_5.0.0-3.alpha.dir/__/__/__/mesh/access/src/access.c.obj
 *fill*         0x200031d1        0x3 
 .data.mem_listener.10756
                0x200031d4       0x10 examples/pb_remote/client/CMakeFiles/pb_remote_client_nrf52840_xxAA_s140_5.0.0-3.alpha.dir/__/__/__/mesh/access/src/device_state_manager.c.obj
 .data.SystemCoreClock
                0x200031e4        0x4 examples/pb_remote/client/CMakeFiles/pb_remote_client_nrf52840_xxAA_s140_5.0.0-3.alpha.dir/__/__/__/external/nRF5_SDK_14.2.0_17b948a/components/toolchain/system_nrf52840.c.obj
                0x200031e4                SystemCoreClock
 .data.mem_listener.9876
                0x200031e8       0x10 mesh/core/libmesh_core_nrf52840_xxAA.a(net_state.c.obj)
 .data.mem_listener.9881
                0x200031f8       0x10 mesh/core/libmesh_core_nrf52840_xxAA.a(net_state.c.obj)
 .data.mem_listener.9895
                0x20003208       0x10 mesh/core/libmesh_core_nrf52840_xxAA.a(net_state.c.obj)
 .data.m_nrf_mesh_listener
                0x20003218        0xc mesh/core/libmesh_core_nrf52840_xxAA.a(nrf_mesh.c.obj)
 .data.g_log_dbg_lvl
                0x20003224        0x4 mesh/core/libmesh_core_nrf52840_xxAA.a(log.c.obj)
                0x20003224                g_log_dbg_lvl
 .data.g_log_dbg_msk
                0x20003228        0x4 mesh/core/libmesh_core_nrf52840_xxAA.a(log.c.obj)
                0x20003228                g_log_dbg_msk
 .data.g_log_hex_digits
                0x2000322c        0x4 mesh/core/libmesh_core_nrf52840_xxAA.a(log.c.obj)
                0x2000322c                g_log_hex_digits
 .data.m_log_callback
                0x20003230        0x4 mesh/core/libmesh_core_nrf52840_xxAA.a(log.c.obj)
                0x20003230                m_log_callback
 .data.g_rng_function
                0x20003234        0x4 external/micro-ecc/libuECC_nrf52840_xxAA.a(uECC.c.obj)
 .data._impure_ptr
                0x20003238        0x4 c:/a/gcc_arm/6/bin/../lib/gcc/arm-none-eabi/6.3.1/../../../../arm-none-eabi/lib/thumb/v7e-m/fpv4-sp/hard\libg_nano.a(lib_a-impure.o)
                0x20003238                _impure_ptr
 .data.impure_data
                0x2000323c       0x60 c:/a/gcc_arm/6/bin/../lib/gcc/arm-none-eabi/6.3.1/../../../../arm-none-eabi/lib/thumb/v7e-m/fpv4-sp/hard\libg_nano.a(lib_a-impure.o)
                0x2000329c                . = ALIGN (0x4)
                0x2000329c                PROVIDE (__preinit_array_start, .)
 *(.preinit_array)
                0x2000329c                PROVIDE (__preinit_array_end, .)
                0x2000329c                . = ALIGN (0x4)
                0x2000329c                PROVIDE (__init_array_start, .)
 *(SORT(.init_array.*))
 *(.init_array)
 .init_array    0x2000329c        0x4 c:/a/gcc_arm/6/bin/../lib/gcc/arm-none-eabi/6.3.1/thumb/v7e-m/fpv4-sp/hard/crtbegin.o
                0x200032a0                PROVIDE (__init_array_end, .)
                0x200032a0                . = ALIGN (0x4)
                [!provide]                PROVIDE (__fini_array_start, .)
 *(SORT(.fini_array.*))
 *(.fini_array)
 .fini_array    0x200032a0        0x4 c:/a/gcc_arm/6/bin/../lib/gcc/arm-none-eabi/6.3.1/thumb/v7e-m/fpv4-sp/hard/crtbegin.o
                [!provide]                PROVIDE (__fini_array_end, .)
 *(.jcr*)
 .jcr           0x200032a4        0x0 c:/a/gcc_arm/6/bin/../lib/gcc/arm-none-eabi/6.3.1/thumb/v7e-m/fpv4-sp/hard/crtbegin.o
 .jcr           0x200032a4        0x4 c:/a/gcc_arm/6/bin/../lib/gcc/arm-none-eabi/6.3.1/thumb/v7e-m/fpv4-sp/hard/crtend.o
                0x200032a8                . = ALIGN (0x4)
                0x200032a8                __data_end__ = .
LOAD c:/a/gcc_arm/6/bin/../lib/gcc/arm-none-eabi/6.3.1/thumb/v7e-m/fpv4-sp/hard/crti.o
LOAD c:/a/gcc_arm/6/bin/../lib/gcc/arm-none-eabi/6.3.1/thumb/v7e-m/fpv4-sp/hard/crtbegin.o
LOAD c:/a/gcc_arm/6/bin/../lib/gcc/arm-none-eabi/6.3.1/../../../../arm-none-eabi/lib/thumb/v7e-m/fpv4-sp/hard/crt0.o
LOAD examples/pb_remote/client/CMakeFiles/pb_remote_client_nrf52840_xxAA_s140_5.0.0-3.alpha.dir/src/main.c.obj
LOAD examples/pb_remote/client/CMakeFiles/pb_remote_client_nrf52840_xxAA_s140_5.0.0-3.alpha.dir/__/__/nrf_mesh_sdk.c.obj
LOAD examples/pb_remote/client/CMakeFiles/pb_remote_client_nrf52840_xxAA_s140_5.0.0-3.alpha.dir/__/__/common/src/rtt_input.c.obj
LOAD examples/pb_remote/client/CMakeFiles/pb_remote_client_nrf52840_xxAA_s140_5.0.0-3.alpha.dir/__/__/__/models/pb_remote/src/pb_remote_client.c.obj
LOAD examples/pb_remote/client/CMakeFiles/pb_remote_client_nrf52840_xxAA_s140_5.0.0-3.alpha.dir/__/__/__/mesh/prov/src/prov_provisioner.c.obj
LOAD examples/pb_remote/client/CMakeFiles/pb_remote_client_nrf52840_xxAA_s140_5.0.0-3.alpha.dir/__/__/__/mesh/prov/src/nrf_mesh_prov.c.obj
LOAD examples/pb_remote/client/CMakeFiles/pb_remote_client_nrf52840_xxAA_s140_5.0.0-3.alpha.dir/__/__/__/mesh/prov/src/provisioning.c.obj
LOAD examples/pb_remote/client/CMakeFiles/pb_remote_client_nrf52840_xxAA_s140_5.0.0-3.alpha.dir/__/__/__/mesh/prov/src/prov_beacon.c.obj
LOAD examples/pb_remote/client/CMakeFiles/pb_remote_client_nrf52840_xxAA_s140_5.0.0-3.alpha.dir/__/__/__/mesh/prov/src/prov_utils.c.obj
LOAD examples/pb_remote/client/CMakeFiles/pb_remote_client_nrf52840_xxAA_s140_5.0.0-3.alpha.dir/__/__/__/mesh/prov/src/prov_bearer_adv.c.obj
LOAD examples/pb_remote/client/CMakeFiles/pb_remote_client_nrf52840_xxAA_s140_5.0.0-3.alpha.dir/__/__/__/mesh/access/src/access_publish.c.obj
LOAD examples/pb_remote/client/CMakeFiles/pb_remote_client_nrf52840_xxAA_s140_5.0.0-3.alpha.dir/__/__/__/mesh/access/src/access.c.obj
LOAD examples/pb_remote/client/CMakeFiles/pb_remote_client_nrf52840_xxAA_s140_5.0.0-3.alpha.dir/__/__/__/mesh/access/src/access_reliable.c.obj
LOAD examples/pb_remote/client/CMakeFiles/pb_remote_client_nrf52840_xxAA_s140_5.0.0-3.alpha.dir/__/__/__/mesh/access/src/device_state_manager.c.obj
LOAD examples/pb_remote/client/CMakeFiles/pb_remote_client_nrf52840_xxAA_s140_5.0.0-3.alpha.dir/__/__/nrf_mesh_weak.c.obj
LOAD examples/pb_remote/client/CMakeFiles/pb_remote_client_nrf52840_xxAA_s140_5.0.0-3.alpha.dir/__/__/__/external/nRF5_SDK_14.2.0_17b948a/components/toolchain/system_nrf52840.c.obj
LOAD examples/pb_remote/client/CMakeFiles/pb_remote_client_nrf52840_xxAA_s140_5.0.0-3.alpha.dir/__/__/__/external/nRF5_SDK_14.2.0_17b948a/components/toolchain/gcc/gcc_startup_nrf52840.S.obj
LOAD mesh/core/libmesh_core_nrf52840_xxAA.a
LOAD external/rtt/librtt_nrf52840_xxAA.a
LOAD external/micro-ecc/libuECC_nrf52840_xxAA.a
START GROUP
LOAD c:/a/gcc_arm/6/bin/../lib/gcc/arm-none-eabi/6.3.1/thumb/v7e-m/fpv4-sp/hard\libgcc.a
LOAD c:/a/gcc_arm/6/bin/../lib/gcc/arm-none-eabi/6.3.1/../../../../arm-none-eabi/lib/thumb/v7e-m/fpv4-sp/hard\libg_nano.a
LOAD c:/a/gcc_arm/6/bin/../lib/gcc/arm-none-eabi/6.3.1/../../../../arm-none-eabi/lib/thumb/v7e-m/fpv4-sp/hard\libc_nano.a
END GROUP
START GROUP
LOAD c:/a/gcc_arm/6/bin/../lib/gcc/arm-none-eabi/6.3.1/thumb/v7e-m/fpv4-sp/hard\libgcc.a
LOAD c:/a/gcc_arm/6/bin/../lib/gcc/arm-none-eabi/6.3.1/../../../../arm-none-eabi/lib/thumb/v7e-m/fpv4-sp/hard\libc_nano.a
END GROUP
LOAD c:/a/gcc_arm/6/bin/../lib/gcc/arm-none-eabi/6.3.1/thumb/v7e-m/fpv4-sp/hard/crtend.o
LOAD c:/a/gcc_arm/6/bin/../lib/gcc/arm-none-eabi/6.3.1/thumb/v7e-m/fpv4-sp/hard/crtn.o
START GROUP
LOAD c:/a/gcc_arm/6/bin/../lib/gcc/arm-none-eabi/6.3.1/thumb/v7e-m/fpv4-sp/hard\libgcc.a
LOAD c:/a/gcc_arm/6/bin/../lib/gcc/arm-none-eabi/6.3.1/../../../../arm-none-eabi/lib/thumb/v7e-m/fpv4-sp/hard\libc.a
LOAD c:/a/gcc_arm/6/bin/../lib/gcc/arm-none-eabi/6.3.1/../../../../arm-none-eabi/lib/thumb/v7e-m/fpv4-sp/hard\libnosys.a
END GROUP

.igot.plt       0x200032a8        0x0 load address 0x00035b34
 .igot.plt      0x200032a8        0x0 c:/a/gcc_arm/6/bin/../lib/gcc/arm-none-eabi/6.3.1/thumb/v7e-m/fpv4-sp/hard/crtbegin.o
                0x200032a8                . = ALIGN (0x4)

.svc_data       0x200032a8        0x0
                [!provide]                PROVIDE (__start_svc_data, .)
 *(.svc_data)
                [!provide]                PROVIDE (__stop_svc_data, .)

.fs_data        0x200032a8        0x0
                [!provide]                PROVIDE (__start_fs_data, .)
 *(.fs_data)
                [!provide]                PROVIDE (__stop_fs_data, .)

.log_dynamic_data
                0x200032a8        0x0
                [!provide]                PROVIDE (__start_log_dynamic_data, .)
 *(.log_dynamic_data)
                [!provide]                PROVIDE (__stop_log_dynamic_data, .)

.cli_sorted_cmd_ptrs
                0x200032a8        0x0
                [!provide]                PROVIDE (__start_cli_sorted_cmd_ptrs, .)
 *(.cli_sorted_cmd_ptrs)
                [!provide]                PROVIDE (__stop_cli_sorted_cmd_ptrs, .)

.bss            0x200032a8     0x3024 load address 0x00035b38
                0x200032a8                . = ALIGN (0x4)
                0x200032a8                __bss_start__ = .
 *(.bss*)
 .bss           0x200032a8       0x1c c:/a/gcc_arm/6/bin/../lib/gcc/arm-none-eabi/6.3.1/thumb/v7e-m/fpv4-sp/hard/crtbegin.o
 .bss.m_appkey_handles
                0x200032c4        0x2 examples/pb_remote/client/CMakeFiles/pb_remote_client_nrf52840_xxAA_s140_5.0.0-3.alpha.dir/src/main.c.obj
 .bss.m_device_address_handles
                0x200032c6        0x8 examples/pb_remote/client/CMakeFiles/pb_remote_client_nrf52840_xxAA_s140_5.0.0-3.alpha.dir/src/main.c.obj
 .bss.m_device_state
                0x200032ce        0x1 examples/pb_remote/client/CMakeFiles/pb_remote_client_nrf52840_xxAA_s140_5.0.0-3.alpha.dir/src/main.c.obj
 *fill*         0x200032cf        0x1 
 .bss.m_devkey_handles
                0x200032d0        0xa examples/pb_remote/client/CMakeFiles/pb_remote_client_nrf52840_xxAA_s140_5.0.0-3.alpha.dir/src/main.c.obj
 .bss.m_netkey_handles
                0x200032da        0x2 examples/pb_remote/client/CMakeFiles/pb_remote_client_nrf52840_xxAA_s140_5.0.0-3.alpha.dir/src/main.c.obj
 .bss.m_next_unprov_index
                0x200032dc        0x1 examples/pb_remote/client/CMakeFiles/pb_remote_client_nrf52840_xxAA_s140_5.0.0-3.alpha.dir/src/main.c.obj
 *fill*         0x200032dd        0x1 
 .bss.m_num_elements_of_last_guy
                0x200032de        0x2 examples/pb_remote/client/CMakeFiles/pb_remote_client_nrf52840_xxAA_s140_5.0.0-3.alpha.dir/src/main.c.obj
 .bss.m_private_key
                0x200032e0       0x20 examples/pb_remote/client/CMakeFiles/pb_remote_client_nrf52840_xxAA_s140_5.0.0-3.alpha.dir/src/main.c.obj
 .bss.m_prov_bearer_adv
                0x20003300      0x1c0 examples/pb_remote/client/CMakeFiles/pb_remote_client_nrf52840_xxAA_s140_5.0.0-3.alpha.dir/src/main.c.obj
 .bss.m_prov_ctx
                0x200034c0      0x130 examples/pb_remote/client/CMakeFiles/pb_remote_client_nrf52840_xxAA_s140_5.0.0-3.alpha.dir/src/main.c.obj
 .bss.m_public_key
                0x200035f0       0x40 examples/pb_remote/client/CMakeFiles/pb_remote_client_nrf52840_xxAA_s140_5.0.0-3.alpha.dir/src/main.c.obj
 .bss.m_remote_client
                0x20003630       0x40 examples/pb_remote/client/CMakeFiles/pb_remote_client_nrf52840_xxAA_s140_5.0.0-3.alpha.dir/src/main.c.obj
 .bss.m_uuid_list
                0x20003670       0x30 examples/pb_remote/client/CMakeFiles/pb_remote_client_nrf52840_xxAA_s140_5.0.0-3.alpha.dir/src/main.c.obj
 .bss.s_state.12524
                0x200036a0        0x1 examples/pb_remote/client/CMakeFiles/pb_remote_client_nrf52840_xxAA_s140_5.0.0-3.alpha.dir/src/main.c.obj
 .bss.m_ble_evt_buffer
                0x200036a1       0x57 examples/pb_remote/client/CMakeFiles/pb_remote_client_nrf52840_xxAA_s140_5.0.0-3.alpha.dir/__/__/nrf_mesh_sdk.c.obj
 .bss.m_rtt_input_handler
                0x200036f8        0x4 examples/pb_remote/client/CMakeFiles/pb_remote_client_nrf52840_xxAA_s140_5.0.0-3.alpha.dir/__/__/common/src/rtt_input.c.obj
 .bss.m_is_interrupting
                0x200036fc        0x1 examples/pb_remote/client/CMakeFiles/pb_remote_client_nrf52840_xxAA_s140_5.0.0-3.alpha.dir/__/__/__/models/pb_remote/src/pb_remote_client.c.obj
 .bss.m_packet  0x200036fd       0x41 examples/pb_remote/client/CMakeFiles/pb_remote_client_nrf52840_xxAA_s140_5.0.0-3.alpha.dir/__/__/__/models/pb_remote/src/pb_remote_client.c.obj
 *fill*         0x2000373e        0x2 
 .bss.m_pbr_client_event_queue
                0x20003740       0x14 examples/pb_remote/client/CMakeFiles/pb_remote_client_nrf52840_xxAA_s140_5.0.0-3.alpha.dir/__/__/__/models/pb_remote/src/pb_remote_client.c.obj
 .bss.m_pbr_client_event_queue_buffer
                0x20003754       0x90 examples/pb_remote/client/CMakeFiles/pb_remote_client_nrf52840_xxAA_s140_5.0.0-3.alpha.dir/__/__/__/models/pb_remote/src/pb_remote_client.c.obj
 .bss.mp_pb_remote_client_model
                0x200037e4        0x4 examples/pb_remote/client/CMakeFiles/pb_remote_client_nrf52840_xxAA_s140_5.0.0-3.alpha.dir/__/__/__/models/pb_remote/src/pb_remote_client.c.obj
 .bss.m_event_handler
                0x200037e8        0x4 examples/pb_remote/client/CMakeFiles/pb_remote_client_nrf52840_xxAA_s140_5.0.0-3.alpha.dir/__/__/__/mesh/prov/src/prov_beacon.c.obj
 .bss.m_offload_ecdh
                0x200037ec        0x1 examples/pb_remote/client/CMakeFiles/pb_remote_client_nrf52840_xxAA_s140_5.0.0-3.alpha.dir/__/__/__/mesh/prov/src/prov_utils.c.obj
 *fill*         0x200037ed        0x3 
 .bss.mp_bearer_head
                0x200037f0        0x4 examples/pb_remote/client/CMakeFiles/pb_remote_client_nrf52840_xxAA_s140_5.0.0-3.alpha.dir/__/__/__/mesh/prov/src/prov_bearer_adv.c.obj
 .bss.m_publish_timer
                0x200037f4       0x18 examples/pb_remote/client/CMakeFiles/pb_remote_client_nrf52840_xxAA_s140_5.0.0-3.alpha.dir/__/__/__/mesh/access/src/access_publish.c.obj
 .bss.m_publish_timer_counter
                0x2000380c        0x4 examples/pb_remote/client/CMakeFiles/pb_remote_client_nrf52840_xxAA_s140_5.0.0-3.alpha.dir/__/__/__/mesh/access/src/access_publish.c.obj
 .bss.m_publish_timer_running
                0x20003810        0x1 examples/pb_remote/client/CMakeFiles/pb_remote_client_nrf52840_xxAA_s140_5.0.0-3.alpha.dir/__/__/__/mesh/access/src/access_publish.c.obj
 .bss.m_timer_resolution
                0x20003811        0x1 examples/pb_remote/client/CMakeFiles/pb_remote_client_nrf52840_xxAA_s140_5.0.0-3.alpha.dir/__/__/__/mesh/access/src/access_publish.c.obj
 *fill*         0x20003812        0x2 
 .bss.mp_publication_list
                0x20003814        0x4 examples/pb_remote/client/CMakeFiles/pb_remote_client_nrf52840_xxAA_s140_5.0.0-3.alpha.dir/__/__/__/mesh/access/src/access_publish.c.obj
 .bss.m_element_pool
                0x20003818        0x6 examples/pb_remote/client/CMakeFiles/pb_remote_client_nrf52840_xxAA_s140_5.0.0-3.alpha.dir/__/__/__/mesh/access/src/access.c.obj
 *fill*         0x2000381e        0x2 
 .bss.m_evt_handler
                0x20003820        0x8 examples/pb_remote/client/CMakeFiles/pb_remote_client_nrf52840_xxAA_s140_5.0.0-3.alpha.dir/__/__/__/mesh/access/src/access.c.obj
 .bss.m_flash_manager
                0x20003828       0x24 examples/pb_remote/client/CMakeFiles/pb_remote_client_nrf52840_xxAA_s140_5.0.0-3.alpha.dir/__/__/__/mesh/access/src/access.c.obj
 .bss.m_flash_not_ready
                0x2000384c        0x1 examples/pb_remote/client/CMakeFiles/pb_remote_client_nrf52840_xxAA_s140_5.0.0-3.alpha.dir/__/__/__/mesh/access/src/access.c.obj
 *fill*         0x2000384d        0x3 
 .bss.m_model_pool
                0x20003850       0x68 examples/pb_remote/client/CMakeFiles/pb_remote_client_nrf52840_xxAA_s140_5.0.0-3.alpha.dir/__/__/__/mesh/access/src/access.c.obj
 .bss.m_subscription_list_pool
                0x200038b8       0x10 examples/pb_remote/client/CMakeFiles/pb_remote_client_nrf52840_xxAA_s140_5.0.0-3.alpha.dir/__/__/__/mesh/access/src/access.c.obj
 .bss.m_reliable
                0x200038c8       0x74 examples/pb_remote/client/CMakeFiles/pb_remote_client_nrf52840_xxAA_s140_5.0.0-3.alpha.dir/__/__/__/mesh/access/src/access_reliable.c.obj
 .bss.m_addr_nonvirtual_allocated
                0x2000393c        0x4 examples/pb_remote/client/CMakeFiles/pb_remote_client_nrf52840_xxAA_s140_5.0.0-3.alpha.dir/__/__/__/mesh/access/src/device_state_manager.c.obj
 .bss.m_addr_nonvirtual_needs_flashing
                0x20003940        0x4 examples/pb_remote/client/CMakeFiles/pb_remote_client_nrf52840_xxAA_s140_5.0.0-3.alpha.dir/__/__/__/mesh/access/src/device_state_manager.c.obj
 .bss.m_addr_unicast_allocated
                0x20003944        0x4 examples/pb_remote/client/CMakeFiles/pb_remote_client_nrf52840_xxAA_s140_5.0.0-3.alpha.dir/__/__/__/mesh/access/src/device_state_manager.c.obj
 .bss.m_addr_unicast_needs_flashing
                0x20003948        0x4 examples/pb_remote/client/CMakeFiles/pb_remote_client_nrf52840_xxAA_s140_5.0.0-3.alpha.dir/__/__/__/mesh/access/src/device_state_manager.c.obj
 .bss.m_addr_virtual_allocated
                0x2000394c        0x4 examples/pb_remote/client/CMakeFiles/pb_remote_client_nrf52840_xxAA_s140_5.0.0-3.alpha.dir/__/__/__/mesh/access/src/device_state_manager.c.obj
 .bss.m_addr_virtual_needs_flashing
                0x20003950        0x4 examples/pb_remote/client/CMakeFiles/pb_remote_client_nrf52840_xxAA_s140_5.0.0-3.alpha.dir/__/__/__/mesh/access/src/device_state_manager.c.obj
 .bss.m_addresses
                0x20003954       0x10 examples/pb_remote/client/CMakeFiles/pb_remote_client_nrf52840_xxAA_s140_5.0.0-3.alpha.dir/__/__/__/mesh/access/src/device_state_manager.c.obj
 .bss.m_appkey_allocated
                0x20003964        0x4 examples/pb_remote/client/CMakeFiles/pb_remote_client_nrf52840_xxAA_s140_5.0.0-3.alpha.dir/__/__/__/mesh/access/src/device_state_manager.c.obj
 .bss.m_appkey_needs_flashing
                0x20003968        0x4 examples/pb_remote/client/CMakeFiles/pb_remote_client_nrf52840_xxAA_s140_5.0.0-3.alpha.dir/__/__/__/mesh/access/src/device_state_manager.c.obj
 .bss.m_appkeys
                0x2000396c       0x2a examples/pb_remote/client/CMakeFiles/pb_remote_client_nrf52840_xxAA_s140_5.0.0-3.alpha.dir/__/__/__/mesh/access/src/device_state_manager.c.obj
 *fill*         0x20003996        0x2 
 .bss.m_devkey_allocated
                0x20003998        0x4 examples/pb_remote/client/CMakeFiles/pb_remote_client_nrf52840_xxAA_s140_5.0.0-3.alpha.dir/__/__/__/mesh/access/src/device_state_manager.c.obj
 .bss.m_devkey_needs_flashing
                0x2000399c        0x4 examples/pb_remote/client/CMakeFiles/pb_remote_client_nrf52840_xxAA_s140_5.0.0-3.alpha.dir/__/__/__/mesh/access/src/device_state_manager.c.obj
 .bss.m_devkeys
                0x200039a0       0x6e examples/pb_remote/client/CMakeFiles/pb_remote_client_nrf52840_xxAA_s140_5.0.0-3.alpha.dir/__/__/__/mesh/access/src/device_state_manager.c.obj
 .bss.m_flash_is_available
                0x20003a0e        0x1 examples/pb_remote/client/CMakeFiles/pb_remote_client_nrf52840_xxAA_s140_5.0.0-3.alpha.dir/__/__/__/mesh/access/src/device_state_manager.c.obj
 *fill*         0x20003a0f        0x1 
 .bss.m_flash_manager
                0x20003a10       0x24 examples/pb_remote/client/CMakeFiles/pb_remote_client_nrf52840_xxAA_s140_5.0.0-3.alpha.dir/__/__/__/mesh/access/src/device_state_manager.c.obj
 .bss.m_flash_mem_listener_update_all
                0x20003a34       0x10 examples/pb_remote/client/CMakeFiles/pb_remote_client_nrf52840_xxAA_s140_5.0.0-3.alpha.dir/__/__/__/mesh/access/src/device_state_manager.c.obj
 .bss.m_has_primary_subnet
                0x20003a44        0x1 examples/pb_remote/client/CMakeFiles/pb_remote_client_nrf52840_xxAA_s140_5.0.0-3.alpha.dir/__/__/__/mesh/access/src/device_state_manager.c.obj
 *fill*         0x20003a45        0x1 
 .bss.m_local_unicast_addr
                0x20003a46        0x4 examples/pb_remote/client/CMakeFiles/pb_remote_client_nrf52840_xxAA_s140_5.0.0-3.alpha.dir/__/__/__/mesh/access/src/device_state_manager.c.obj
 *fill*         0x20003a4a        0x2 
 .bss.m_subnet_allocated
                0x20003a4c        0x4 examples/pb_remote/client/CMakeFiles/pb_remote_client_nrf52840_xxAA_s140_5.0.0-3.alpha.dir/__/__/__/mesh/access/src/device_state_manager.c.obj
 .bss.m_subnet_needs_flashing
                0x20003a50        0x4 examples/pb_remote/client/CMakeFiles/pb_remote_client_nrf52840_xxAA_s140_5.0.0-3.alpha.dir/__/__/__/mesh/access/src/device_state_manager.c.obj
 .bss.m_subnets
                0x20003a54       0xac examples/pb_remote/client/CMakeFiles/pb_remote_client_nrf52840_xxAA_s140_5.0.0-3.alpha.dir/__/__/__/mesh/access/src/device_state_manager.c.obj
 .bss.m_virtual_addresses
                0x20003b00       0x14 examples/pb_remote/client/CMakeFiles/pb_remote_client_nrf52840_xxAA_s140_5.0.0-3.alpha.dir/__/__/__/mesh/access/src/device_state_manager.c.obj
 .bss.m_uuid    0x20003b14       0x10 mesh/core/libmesh_core_nrf52840_xxAA.a(nrf_mesh_configure.c.obj)
 .bss.mp_evt_handlers_head
                0x20003b24        0x4 mesh/core/libmesh_core_nrf52840_xxAA.a(event.c.obj)
 .bss.lock_count.9935
                0x20003b28        0x4 mesh/core/libmesh_core_nrf52840_xxAA.a(net_state.c.obj)
 .bss.m_flash_manager
                0x20003b2c       0x24 mesh/core/libmesh_core_nrf52840_xxAA.a(net_state.c.obj)
 .bss.m_iv_update_timer
                0x20003b50       0x18 mesh/core/libmesh_core_nrf52840_xxAA.a(net_state.c.obj)
 .bss.m_net_state
                0x20003b68       0x14 mesh/core/libmesh_core_nrf52840_xxAA.a(net_state.c.obj)
 .bss.m_seqnum_allocation_in_progress
                0x20003b7c        0x1 mesh/core/libmesh_core_nrf52840_xxAA.a(net_state.c.obj)
 .bss.m_test_mode
                0x20003b7d        0x1 mesh/core/libmesh_core_nrf52840_xxAA.a(net_state.c.obj)
 .bss.m_is_enabled
                0x20003b7e        0x1 mesh/core/libmesh_core_nrf52840_xxAA.a(nrf_mesh.c.obj)
 .bss.m_is_initialized
                0x20003b7f        0x1 mesh/core/libmesh_core_nrf52840_xxAA.a(nrf_mesh.c.obj)
 .bss.m_rx_cb   0x20003b80        0x4 mesh/core/libmesh_core_nrf52840_xxAA.a(nrf_mesh.c.obj)
 .bss.m_event_flag
                0x20003b84        0x4 mesh/core/libmesh_core_nrf52840_xxAA.a(timer_scheduler.c.obj)
 .bss.m_scheduler
                0x20003b88       0x10 mesh/core/libmesh_core_nrf52840_xxAA.a(timer_scheduler.c.obj)
 .bss.m_attributes
                0x20003b98        0x3 mesh/core/libmesh_core_nrf52840_xxAA.a(timer.c.obj)
 *fill*         0x20003b9b        0x1 
 .bss.m_callbacks
                0x20003b9c        0xc mesh/core/libmesh_core_nrf52840_xxAA.a(timer.c.obj)
 .bss.m_is_in_ts
                0x20003ba8        0x1 mesh/core/libmesh_core_nrf52840_xxAA.a(timer.c.obj)
 *fill*         0x20003ba9        0x3 
 .bss.m_reference_time
                0x20003bac        0x4 mesh/core/libmesh_core_nrf52840_xxAA.a(timer.c.obj)
 .bss.m_timeouts
                0x20003bb0        0xc mesh/core/libmesh_core_nrf52840_xxAA.a(timer.c.obj)
 .bss.m_timer_mut
                0x20003bbc        0x4 mesh/core/libmesh_core_nrf52840_xxAA.a(timer.c.obj)
 .bss.m_ts_end_time
                0x20003bc0        0x4 mesh/core/libmesh_core_nrf52840_xxAA.a(timer.c.obj)
 .bss.mp_ppi_tasks
                0x20003bc4        0xc mesh/core/libmesh_core_nrf52840_xxAA.a(timer.c.obj)
 .bss.m_current_time
                0x20003bd0        0x4 mesh/core/libmesh_core_nrf52840_xxAA.a(ticker.c.obj)
 .bss.m_timer   0x20003bd4       0x18 mesh/core/libmesh_core_nrf52840_xxAA.a(ticker.c.obj)
 .bss.m_current_timeslot
                0x20003bec       0x1c mesh/core/libmesh_core_nrf52840_xxAA.a(timeslot.c.obj)
 .bss.m_lfclk_ppm
                0x20003c08        0x4 mesh/core/libmesh_core_nrf52840_xxAA.a(timeslot.c.obj)
 .bss.m_radio_request_earliest
                0x20003c0c       0x10 mesh/core/libmesh_core_nrf52840_xxAA.a(timeslot.c.obj)
 .bss.m_state_lock
                0x20003c1c        0x1 mesh/core/libmesh_core_nrf52840_xxAA.a(timeslot.c.obj)
 .bss.m_timeslot_forced_command
                0x20003c1d        0x1 mesh/core/libmesh_core_nrf52840_xxAA.a(timeslot.c.obj)
 *fill*         0x20003c1e        0x2 
 .bss.s_last_rtc_value.9399
                0x20003c20        0x8 mesh/core/libmesh_core_nrf52840_xxAA.a(timeslot.c.obj)
 .bss.m_bearer_event_fifo
                0x20003c28       0x14 mesh/core/libmesh_core_nrf52840_xxAA.a(bearer_event.c.obj)
 .bss.m_bearer_event_fifo_buffer
                0x20003c3c      0x100 mesh/core/libmesh_core_nrf52840_xxAA.a(bearer_event.c.obj)
 .bss.m_critical
                0x20003d3c        0x4 mesh/core/libmesh_core_nrf52840_xxAA.a(bearer_event.c.obj)
 .bss.m_flag_count
                0x20003d40        0x4 mesh/core/libmesh_core_nrf52840_xxAA.a(bearer_event.c.obj)
 .bss.m_flag_event_callbacks
                0x20003d44       0x20 mesh/core/libmesh_core_nrf52840_xxAA.a(bearer_event.c.obj)
 .bss.m_flags   0x20003d64        0x4 mesh/core/libmesh_core_nrf52840_xxAA.a(bearer_event.c.obj)
 .bss.m_irq_priority
                0x20003d68        0x1 mesh/core/libmesh_core_nrf52840_xxAA.a(bearer_event.c.obj)
 *fill*         0x20003d69        0x3 
 .bss.m_sequential_event_queue
                0x20003d6c        0x8 mesh/core/libmesh_core_nrf52840_xxAA.a(bearer_event.c.obj)
 .bss.s_recursion_guard.9521
                0x20003d74        0x1 mesh/core/libmesh_core_nrf52840_xxAA.a(bearer_event.c.obj)
 *fill*         0x20003d75        0x3 
 .bss.m_relay_check_cb
                0x20003d78        0x4 mesh/core/libmesh_core_nrf52840_xxAA.a(network.c.obj)
 .bss.m_relay_enable
                0x20003d7c        0x1 mesh/core/libmesh_core_nrf52840_xxAA.a(network.c.obj)
 *fill*         0x20003d7d        0x3 
 .bss.m_action_queue
                0x20003d80        0xc mesh/core/libmesh_core_nrf52840_xxAA.a(flash_manager.c.obj)
 .bss.m_action_queue_buffer
                0x20003d8c      0x104 mesh/core/libmesh_core_nrf52840_xxAA.a(flash_manager.c.obj)
 .bss.m_action_state
                0x20003e90        0x1 mesh/core/libmesh_core_nrf52840_xxAA.a(flash_manager.c.obj)
 *fill*         0x20003e91        0x3 
 .bss.m_memory_listener_queue
                0x20003e94        0x8 mesh/core/libmesh_core_nrf52840_xxAA.a(flash_manager.c.obj)
 .bss.m_processing_flag
                0x20003e9c        0x4 mesh/core/libmesh_core_nrf52840_xxAA.a(flash_manager.c.obj)
 .bss.m_queue_empty_cb
                0x20003ea0        0x4 mesh/core/libmesh_core_nrf52840_xxAA.a(flash_manager.c.obj)
 .bss.m_state   0x20003ea4        0x1 mesh/core/libmesh_core_nrf52840_xxAA.a(flash_manager.c.obj)
 *fill*         0x20003ea5        0x1 
 .bss.m_token   0x20003ea6        0x2 mesh/core/libmesh_core_nrf52840_xxAA.a(flash_manager.c.obj)
 .bss.p_current.11249
                0x20003ea8        0x4 mesh/core/libmesh_core_nrf52840_xxAA.a(flash_manager.c.obj)
 .bss.result.11250
                0x20003eac        0x1 mesh/core/libmesh_core_nrf52840_xxAA.a(flash_manager.c.obj)
 *fill*         0x20003ead        0x3 
 .bss.m_adv_buffer
                0x20003eb0       0x68 mesh/core/libmesh_core_nrf52840_xxAA.a(beacon.c.obj)
 .bss.m_advertiser
                0x20003f18       0x94 mesh/core/libmesh_core_nrf52840_xxAA.a(beacon.c.obj)
 .bss.m_bearers
                0x20003fac        0x4 mesh/core/libmesh_core_nrf52840_xxAA.a(core_tx.c.obj)
 .bss.m_tx_complete_callback
                0x20003fb0        0x4 mesh/core/libmesh_core_nrf52840_xxAA.a(core_tx.c.obj)
 .bss.m_hb_core_evt_handler
                0x20003fb4        0x8 mesh/core/libmesh_core_nrf52840_xxAA.a(heartbeat.c.obj)
 .bss.m_hb_pending_feat_msg
                0x20003fbc        0x1 mesh/core/libmesh_core_nrf52840_xxAA.a(heartbeat.c.obj)
 .bss.m_hb_pending_pub_msg
                0x20003fbd        0x1 mesh/core/libmesh_core_nrf52840_xxAA.a(heartbeat.c.obj)
 .bss.m_heartbeat_init_done
                0x20003fbe        0x1 mesh/core/libmesh_core_nrf52840_xxAA.a(heartbeat.c.obj)
 *fill*         0x20003fbf        0x1 
 .bss.m_heartbeat_subscription
                0x20003fc0       0x10 mesh/core/libmesh_core_nrf52840_xxAA.a(heartbeat.c.obj)
 .bss.m_publication_count_decrement_cb
                0x20003fd0        0x4 mesh/core/libmesh_core_nrf52840_xxAA.a(heartbeat.c.obj)
 .bss.m_publication_get_cb
                0x20003fd4        0x4 mesh/core/libmesh_core_nrf52840_xxAA.a(heartbeat.c.obj)
 .bss.m_publication_timer
                0x20003fd8       0x1c mesh/core/libmesh_core_nrf52840_xxAA.a(heartbeat.c.obj)
 .bss.m_subscription_timer
                0x20003ff4       0x18 mesh/core/libmesh_core_nrf52840_xxAA.a(heartbeat.c.obj)
 .bss.m_beacon_salt
                0x2000400c       0x10 mesh/core/libmesh_core_nrf52840_xxAA.a(net_beacon.c.obj)
 .bss.m_enabled
                0x2000401c        0x1 mesh/core/libmesh_core_nrf52840_xxAA.a(net_beacon.c.obj)
 *fill*         0x2000401d        0x3 
 .bss.m_tx_event
                0x20004020       0x18 mesh/core/libmesh_core_nrf52840_xxAA.a(net_beacon.c.obj)
 .bss.m_adv_tx_count
                0x20004038        0x8 mesh/core/libmesh_core_nrf52840_xxAA.a(core_tx_adv.c.obj)
 .bss.m_advertisers
                0x20004040      0x128 mesh/core/libmesh_core_nrf52840_xxAA.a(core_tx_adv.c.obj)
 .bss.m_originator_adv_packet_buffer
                0x20004168      0x100 mesh/core/libmesh_core_nrf52840_xxAA.a(core_tx_adv.c.obj)
 .bss.m_relay_adv_packet_buffer
                0x20004268       0x80 mesh/core/libmesh_core_nrf52840_xxAA.a(core_tx_adv.c.obj)
 .bss.m_subscribers
                0x200042e8        0x4 mesh/core/libmesh_core_nrf52840_xxAA.a(ad_listener.c.obj)
 .bss.m_adtype_filter
                0x200042ec       0x38 mesh/core/libmesh_core_nrf52840_xxAA.a(ad_type_filter.c.obj)
 .bss.m_adv_prng
                0x20004324       0x10 mesh/core/libmesh_core_nrf52840_xxAA.a(advertiser.c.obj)
 .bss.m_action_queue
                0x20004334        0x8 mesh/core/libmesh_core_nrf52840_xxAA.a(bearer_handler.c.obj)
 .bss.m_end_time
                0x2000433c        0x4 mesh/core/libmesh_core_nrf52840_xxAA.a(bearer_handler.c.obj)
 .bss.m_scanner_is_active
                0x20004340        0x1 mesh/core/libmesh_core_nrf52840_xxAA.a(bearer_handler.c.obj)
 .bss.m_stopped
                0x20004341        0x1 mesh/core/libmesh_core_nrf52840_xxAA.a(bearer_handler.c.obj)
 *fill*         0x20004342        0x2 
 .bss.mp_action
                0x20004344        0x4 mesh/core/libmesh_core_nrf52840_xxAA.a(bearer_handler.c.obj)
 .bss.m_next_channel_index
                0x20004348        0x1 mesh/core/libmesh_core_nrf52840_xxAA.a(broadcast.c.obj)
 *fill*         0x20004349        0x3 
 .bss.m_accepted_amount
                0x2000434c        0x4 mesh/core/libmesh_core_nrf52840_xxAA.a(filter_engine.c.obj)
 .bss.m_filter_list_head
                0x20004350        0x4 mesh/core/libmesh_core_nrf52840_xxAA.a(filter_engine.c.obj)
 .bss.m_scanner
                0x20004354      0x28c mesh/core/libmesh_core_nrf52840_xxAA.a(scanner.c.obj)
 .bss.m_internal_event_fifo
                0x200045e0       0x14 mesh/core/libmesh_core_nrf52840_xxAA.a(internal_event.c.obj)
 .bss.m_internal_event_initialized
                0x200045f4        0x1 mesh/core/libmesh_core_nrf52840_xxAA.a(internal_event.c.obj)
 *fill*         0x200045f5        0x3 
 .bss.m_report_cb
                0x200045f8        0x4 mesh/core/libmesh_core_nrf52840_xxAA.a(internal_event.c.obj)
 .bss.m_msg_cache
                0x200045fc      0x100 mesh/core/libmesh_core_nrf52840_xxAA.a(msg_cache.c.obj)
 .bss.m_msg_cache_head
                0x200046fc        0x4 mesh/core/libmesh_core_nrf52840_xxAA.a(msg_cache.c.obj)
 .bss.m_control_packet_consumer_count
                0x20004700        0x4 mesh/core/libmesh_core_nrf52840_xxAA.a(transport.c.obj)
 .bss.m_control_packet_consumers
                0x20004704        0x8 mesh/core/libmesh_core_nrf52840_xxAA.a(transport.c.obj)
 .bss.m_sar_alloc
                0x2000470c        0x4 mesh/core/libmesh_core_nrf52840_xxAA.a(transport.c.obj)
 .bss.m_sar_process_flag
                0x20004710        0x4 mesh/core/libmesh_core_nrf52840_xxAA.a(transport.c.obj)
 .bss.m_sar_release
                0x20004714        0x4 mesh/core/libmesh_core_nrf52840_xxAA.a(transport.c.obj)
 .bss.m_sar_session_cache
                0x20004718       0x40 mesh/core/libmesh_core_nrf52840_xxAA.a(transport.c.obj)
 .bss.m_sar_session_cache_head
                0x20004758        0x4 mesh/core/libmesh_core_nrf52840_xxAA.a(transport.c.obj)
 .bss.m_trs_config
                0x2000475c       0x18 mesh/core/libmesh_core_nrf52840_xxAA.a(transport.c.obj)
 .bss.m_trs_sar_sessions
                0x20004774      0x1b0 mesh/core/libmesh_core_nrf52840_xxAA.a(transport.c.obj)
 .bss.m_defrag  0x20004924       0x1c mesh/core/libmesh_core_nrf52840_xxAA.a(flash_manager_defrag.c.obj)
 .bss.m_token   0x20004940        0x2 mesh/core/libmesh_core_nrf52840_xxAA.a(flash_manager_defrag.c.obj)
 *fill*         0x20004942        0x2 
 .bss.mp_recovery_area
                0x20004944        0x4 mesh/core/libmesh_core_nrf52840_xxAA.a(flash_manager_defrag.c.obj)
 .bss.p_null_ptr.10340
                0x20004948        0x4 mesh/core/libmesh_core_nrf52840_xxAA.a(flash_manager_defrag.c.obj)
 .bss.m_pool    0x2000494c     0x1000 mesh/core/libmesh_core_nrf52840_xxAA.a(packet_mgr.c.obj)
 .bss.mp_free_head
                0x2000594c        0x4 mesh/core/libmesh_core_nrf52840_xxAA.a(packet_mgr.c.obj)
 .bss.m_event_flag
                0x20005950        0x4 mesh/core/libmesh_core_nrf52840_xxAA.a(mesh_flash.c.obj)
 .bss.m_suspended
                0x20005954        0x1 mesh/core/libmesh_core_nrf52840_xxAA.a(mesh_flash.c.obj)
 *fill*         0x20005955        0x3 
 .bss.m_users   0x20005958      0x228 mesh/core/libmesh_core_nrf52840_xxAA.a(mesh_flash.c.obj)
 .bss.m_128buf  0x20005b80       0x10 mesh/core/libmesh_core_nrf52840_xxAA.a(aes_cmac.c.obj)
 .bss.m_subkey1
                0x20005b90       0x10 mesh/core/libmesh_core_nrf52840_xxAA.a(aes_cmac.c.obj)
 .bss.m_subkey2
                0x20005ba0       0x10 mesh/core/libmesh_core_nrf52840_xxAA.a(aes_cmac.c.obj)
 .bss.m_cache_full
                0x20005bb0        0x1 mesh/core/libmesh_core_nrf52840_xxAA.a(replay_cache.c.obj)
 .bss.m_cache_index
                0x20005bb1        0x1 mesh/core/libmesh_core_nrf52840_xxAA.a(replay_cache.c.obj)
 *fill*         0x20005bb2        0x2 
 .bss.m_replay_cache
                0x20005bb4      0x200 mesh/core/libmesh_core_nrf52840_xxAA.a(replay_cache.c.obj)
 .bss._acDownBuffer
                0x20005db4       0x80 external/rtt/librtt_nrf52840_xxAA.a(SEGGER_RTT.c.obj)
 .bss._acUpBuffer
                0x20005e34      0x400 external/rtt/librtt_nrf52840_xxAA.a(SEGGER_RTT.c.obj)
 .bss.__malloc_free_list
                0x20006234        0x4 c:/a/gcc_arm/6/bin/../lib/gcc/arm-none-eabi/6.3.1/../../../../arm-none-eabi/lib/thumb/v7e-m/fpv4-sp/hard\libg_nano.a(lib_a-nano-mallocr.o)
                0x20006234                __malloc_free_list
 .bss.__malloc_sbrk_start
                0x20006238        0x4 c:/a/gcc_arm/6/bin/../lib/gcc/arm-none-eabi/6.3.1/../../../../arm-none-eabi/lib/thumb/v7e-m/fpv4-sp/hard\libg_nano.a(lib_a-nano-mallocr.o)
                0x20006238                __malloc_sbrk_start
 .bss.heap_end.5239
                0x2000623c        0x4 c:/a/gcc_arm/6/bin/../lib/gcc/arm-none-eabi/6.3.1/../../../../arm-none-eabi/lib/thumb/v7e-m/fpv4-sp/hard\libnosys.a(sbrk.o)
 *(COMMON)
 COMMON         0x20006240        0xc examples/pb_remote/client/CMakeFiles/pb_remote_client_nrf52840_xxAA_s140_5.0.0-3.alpha.dir/__/__/nrf_mesh_sdk.c.obj
                0x20006240                nrf_nvic_state
 COMMON         0x2000624c        0x4 mesh/core/libmesh_core_nrf52840_xxAA.a(nrf_mesh.c.obj)
                0x2000624c                m_assertion_handler
 COMMON         0x20006250       0x78 external/rtt/librtt_nrf52840_xxAA.a(SEGGER_RTT.c.obj)
                0x20006250                _SEGGER_RTT
 COMMON         0x200062c8        0x4 c:/a/gcc_arm/6/bin/../lib/gcc/arm-none-eabi/6.3.1/../../../../arm-none-eabi/lib/thumb/v7e-m/fpv4-sp/hard\libg_nano.a(lib_a-reent.o)
                0x200062c8                errno
                0x200062cc                . = ALIGN (0x4)
                0x200062cc                __bss_end__ = .

.heap           0x200062d0     0x2000
                0x200062d0                __HeapBase = .
                0x200062d0                __end__ = .
                0x200062d0                PROVIDE (end, .)
 *(.heap*)
 .heap          0x200062d0     0x2000 examples/pb_remote/client/CMakeFiles/pb_remote_client_nrf52840_xxAA_s140_5.0.0-3.alpha.dir/__/__/__/external/nRF5_SDK_14.2.0_17b948a/components/toolchain/gcc/gcc_startup_nrf52840.S.obj
                0x200082d0                __HeapLimit = .

.stack_dummy    0x200062d0     0x2000
 *(.stack*)
 .stack         0x200062d0     0x2000 examples/pb_remote/client/CMakeFiles/pb_remote_client_nrf52840_xxAA_s140_5.0.0-3.alpha.dir/__/__/__/external/nRF5_SDK_14.2.0_17b948a/components/toolchain/gcc/gcc_startup_nrf52840.S.obj
                0x2003fd00                __StackTop = (ORIGIN (RAM) + LENGTH (RAM))
                0x2003dd00                __StackLimit = (__StackTop - SIZEOF (.stack_dummy))
                0x2003fd00                PROVIDE (__stack, __StackTop)
                0x00000001                ASSERT ((__StackLimit >= __HeapLimit), region RAM overflowed with stack)
                0x000000f0                DataInitFlashUsed = (__bss_start__ - __data_start__)
                0x00011a44                CodeFlashUsed = (__etext - ORIGIN (FLASH))
                0x00011b34                TotalFlashUsed = (CodeFlashUsed + DataInitFlashUsed)
                0x00000001                ASSERT ((TotalFlashUsed <= LENGTH (FLASH)), region FLASH overflowed with .data and user data)
OUTPUT(examples\pb_remote\client\pb_remote_client_nrf52840_xxAA_s140_5.0.0-3.alpha.elf elf32-littlearm)

.ARM.attributes
                0x00000000       0x30
 .ARM.attributes
                0x00000000       0x22 c:/a/gcc_arm/6/bin/../lib/gcc/arm-none-eabi/6.3.1/thumb/v7e-m/fpv4-sp/hard/crti.o
 .ARM.attributes
                0x00000022       0x34 c:/a/gcc_arm/6/bin/../lib/gcc/arm-none-eabi/6.3.1/thumb/v7e-m/fpv4-sp/hard/crtbegin.o
 .ARM.attributes
                0x00000056       0x20 c:/a/gcc_arm/6/bin/../lib/gcc/arm-none-eabi/6.3.1/../../../../arm-none-eabi/lib/thumb/v7e-m/fpv4-sp/hard/crt0.o
 .ARM.attributes
                0x00000076       0x39 examples/pb_remote/client/CMakeFiles/pb_remote_client_nrf52840_xxAA_s140_5.0.0-3.alpha.dir/src/main.c.obj
 .ARM.attributes
                0x000000af       0x39 examples/pb_remote/client/CMakeFiles/pb_remote_client_nrf52840_xxAA_s140_5.0.0-3.alpha.dir/__/__/nrf_mesh_sdk.c.obj
 .ARM.attributes
                0x000000e8       0x39 examples/pb_remote/client/CMakeFiles/pb_remote_client_nrf52840_xxAA_s140_5.0.0-3.alpha.dir/__/__/common/src/rtt_input.c.obj
 .ARM.attributes
                0x00000121       0x39 examples/pb_remote/client/CMakeFiles/pb_remote_client_nrf52840_xxAA_s140_5.0.0-3.alpha.dir/__/__/__/models/pb_remote/src/pb_remote_client.c.obj
 .ARM.attributes
                0x0000015a       0x39 examples/pb_remote/client/CMakeFiles/pb_remote_client_nrf52840_xxAA_s140_5.0.0-3.alpha.dir/__/__/__/mesh/prov/src/prov_provisioner.c.obj
 .ARM.attributes
                0x00000193       0x39 examples/pb_remote/client/CMakeFiles/pb_remote_client_nrf52840_xxAA_s140_5.0.0-3.alpha.dir/__/__/__/mesh/prov/src/nrf_mesh_prov.c.obj
 .ARM.attributes
                0x000001cc       0x39 examples/pb_remote/client/CMakeFiles/pb_remote_client_nrf52840_xxAA_s140_5.0.0-3.alpha.dir/__/__/__/mesh/prov/src/provisioning.c.obj
 .ARM.attributes
                0x00000205       0x39 examples/pb_remote/client/CMakeFiles/pb_remote_client_nrf52840_xxAA_s140_5.0.0-3.alpha.dir/__/__/__/mesh/prov/src/prov_beacon.c.obj
 .ARM.attributes
                0x0000023e       0x39 examples/pb_remote/client/CMakeFiles/pb_remote_client_nrf52840_xxAA_s140_5.0.0-3.alpha.dir/__/__/__/mesh/prov/src/prov_utils.c.obj
 .ARM.attributes
                0x00000277       0x39 examples/pb_remote/client/CMakeFiles/pb_remote_client_nrf52840_xxAA_s140_5.0.0-3.alpha.dir/__/__/__/mesh/prov/src/prov_bearer_adv.c.obj
 .ARM.attributes
                0x000002b0       0x39 examples/pb_remote/client/CMakeFiles/pb_remote_client_nrf52840_xxAA_s140_5.0.0-3.alpha.dir/__/__/__/mesh/access/src/access_publish.c.obj
 .ARM.attributes
                0x000002e9       0x39 examples/pb_remote/client/CMakeFiles/pb_remote_client_nrf52840_xxAA_s140_5.0.0-3.alpha.dir/__/__/__/mesh/access/src/access.c.obj
 .ARM.attributes
                0x00000322       0x39 examples/pb_remote/client/CMakeFiles/pb_remote_client_nrf52840_xxAA_s140_5.0.0-3.alpha.dir/__/__/__/mesh/access/src/access_reliable.c.obj
 .ARM.attributes
                0x0000035b       0x39 examples/pb_remote/client/CMakeFiles/pb_remote_client_nrf52840_xxAA_s140_5.0.0-3.alpha.dir/__/__/__/mesh/access/src/device_state_manager.c.obj
 .ARM.attributes
                0x00000394       0x39 examples/pb_remote/client/CMakeFiles/pb_remote_client_nrf52840_xxAA_s140_5.0.0-3.alpha.dir/__/__/nrf_mesh_weak.c.obj
 .ARM.attributes
                0x000003cd       0x39 examples/pb_remote/client/CMakeFiles/pb_remote_client_nrf52840_xxAA_s140_5.0.0-3.alpha.dir/__/__/__/external/nRF5_SDK_14.2.0_17b948a/components/toolchain/system_nrf52840.c.obj
 .ARM.attributes
                0x00000406       0x20 examples/pb_remote/client/CMakeFiles/pb_remote_client_nrf52840_xxAA_s140_5.0.0-3.alpha.dir/__/__/__/external/nRF5_SDK_14.2.0_17b948a/components/toolchain/gcc/gcc_startup_nrf52840.S.obj
 .ARM.attributes
                0x00000426       0x39 mesh/core/libmesh_core_nrf52840_xxAA.a(nrf_mesh_configure.c.obj)
 .ARM.attributes
                0x0000045f       0x39 mesh/core/libmesh_core_nrf52840_xxAA.a(event.c.obj)
 .ARM.attributes
                0x00000498       0x39 mesh/core/libmesh_core_nrf52840_xxAA.a(fifo.c.obj)
 .ARM.attributes
                0x000004d1       0x39 mesh/core/libmesh_core_nrf52840_xxAA.a(net_state.c.obj)
 .ARM.attributes
                0x0000050a       0x39 mesh/core/libmesh_core_nrf52840_xxAA.a(nrf_mesh_utils.c.obj)
 .ARM.attributes
                0x00000543       0x39 mesh/core/libmesh_core_nrf52840_xxAA.a(nrf_mesh.c.obj)
 .ARM.attributes
                0x0000057c       0x39 mesh/core/libmesh_core_nrf52840_xxAA.a(hal.c.obj)
 .ARM.attributes
                0x000005b5       0x39 mesh/core/libmesh_core_nrf52840_xxAA.a(timer_scheduler.c.obj)
 .ARM.attributes
                0x000005ee       0x39 mesh/core/libmesh_core_nrf52840_xxAA.a(timer.c.obj)
 .ARM.attributes
                0x00000627       0x39 mesh/core/libmesh_core_nrf52840_xxAA.a(ticker.c.obj)
 .ARM.attributes
                0x00000660       0x39 mesh/core/libmesh_core_nrf52840_xxAA.a(rand.c.obj)
 .ARM.attributes
                0x00000699       0x39 mesh/core/libmesh_core_nrf52840_xxAA.a(timeslot.c.obj)
 .ARM.attributes
                0x000006d2       0x39 mesh/core/libmesh_core_nrf52840_xxAA.a(bearer_event.c.obj)
 .ARM.attributes
                0x0000070b       0x39 mesh/core/libmesh_core_nrf52840_xxAA.a(enc.c.obj)
 .ARM.attributes
                0x00000744       0x39 mesh/core/libmesh_core_nrf52840_xxAA.a(network.c.obj)
 .ARM.attributes
                0x0000077d       0x39 mesh/core/libmesh_core_nrf52840_xxAA.a(nrf_mesh_keygen.c.obj)
 .ARM.attributes
                0x000007b6       0x39 mesh/core/libmesh_core_nrf52840_xxAA.a(list.c.obj)
 .ARM.attributes
                0x000007ef       0x39 mesh/core/libmesh_core_nrf52840_xxAA.a(log.c.obj)
 .ARM.attributes
                0x00000828       0x39 mesh/core/libmesh_core_nrf52840_xxAA.a(flash_manager.c.obj)
 .ARM.attributes
                0x00000861       0x39 mesh/core/libmesh_core_nrf52840_xxAA.a(ccm_soft.c.obj)
 .ARM.attributes
                0x0000089a       0x39 mesh/core/libmesh_core_nrf52840_xxAA.a(beacon.c.obj)
 .ARM.attributes
                0x000008d3       0x39 mesh/core/libmesh_core_nrf52840_xxAA.a(flash_manager_internal.c.obj)
 .ARM.attributes
                0x0000090c       0x39 mesh/core/libmesh_core_nrf52840_xxAA.a(core_tx.c.obj)
 .ARM.attributes
                0x00000945       0x39 mesh/core/libmesh_core_nrf52840_xxAA.a(heartbeat.c.obj)
 .ARM.attributes
                0x0000097e       0x39 mesh/core/libmesh_core_nrf52840_xxAA.a(net_beacon.c.obj)
 .ARM.attributes
                0x000009b7       0x39 mesh/core/libmesh_core_nrf52840_xxAA.a(core_tx_adv.c.obj)
 .ARM.attributes
                0x000009f0       0x39 mesh/core/libmesh_core_nrf52840_xxAA.a(ad_listener.c.obj)
 .ARM.attributes
                0x00000a29       0x39 mesh/core/libmesh_core_nrf52840_xxAA.a(ad_type_filter.c.obj)
 .ARM.attributes
                0x00000a62       0x39 mesh/core/libmesh_core_nrf52840_xxAA.a(advertiser.c.obj)
 .ARM.attributes
                0x00000a9b       0x39 mesh/core/libmesh_core_nrf52840_xxAA.a(bearer_handler.c.obj)
 .ARM.attributes
                0x00000ad4       0x39 mesh/core/libmesh_core_nrf52840_xxAA.a(broadcast.c.obj)
 .ARM.attributes
                0x00000b0d       0x39 mesh/core/libmesh_core_nrf52840_xxAA.a(filter_engine.c.obj)
 .ARM.attributes
                0x00000b46       0x39 mesh/core/libmesh_core_nrf52840_xxAA.a(radio_config.c.obj)
 .ARM.attributes
                0x00000b7f       0x39 mesh/core/libmesh_core_nrf52840_xxAA.a(scanner.c.obj)
 .ARM.attributes
                0x00000bb8       0x39 mesh/core/libmesh_core_nrf52840_xxAA.a(internal_event.c.obj)
 .ARM.attributes
                0x00000bf1       0x39 mesh/core/libmesh_core_nrf52840_xxAA.a(aes.c.obj)
 .ARM.attributes
                0x00000c2a       0x39 mesh/core/libmesh_core_nrf52840_xxAA.a(msg_cache.c.obj)
 .ARM.attributes
                0x00000c63       0x39 mesh/core/libmesh_core_nrf52840_xxAA.a(transport.c.obj)
 .ARM.attributes
                0x00000c9c       0x39 mesh/core/libmesh_core_nrf52840_xxAA.a(packet_buffer.c.obj)
 .ARM.attributes
                0x00000cd5       0x39 mesh/core/libmesh_core_nrf52840_xxAA.a(flash_manager_defrag.c.obj)
 .ARM.attributes
                0x00000d0e       0x39 mesh/core/libmesh_core_nrf52840_xxAA.a(packet_mgr.c.obj)
 .ARM.attributes
                0x00000d47       0x39 mesh/core/libmesh_core_nrf52840_xxAA.a(mesh_flash.c.obj)
 .ARM.attributes
                0x00000d80       0x39 mesh/core/libmesh_core_nrf52840_xxAA.a(queue.c.obj)
 .ARM.attributes
                0x00000db9       0x39 mesh/core/libmesh_core_nrf52840_xxAA.a(aes_cmac.c.obj)
 .ARM.attributes
                0x00000df2       0x39 mesh/core/libmesh_core_nrf52840_xxAA.a(nrf_mesh_opt.c.obj)
 .ARM.attributes
                0x00000e2b       0x39 mesh/core/libmesh_core_nrf52840_xxAA.a(msqueue.c.obj)
 .ARM.attributes
                0x00000e64       0x39 mesh/core/libmesh_core_nrf52840_xxAA.a(replay_cache.c.obj)
 .ARM.attributes
                0x00000e9d       0x39 mesh/core/libmesh_core_nrf52840_xxAA.a(nrf_flash.c.obj)
 .ARM.attributes
                0x00000ed6       0x39 external/rtt/librtt_nrf52840_xxAA.a(SEGGER_RTT.c.obj)
 .ARM.attributes
                0x00000f0f       0x39 external/rtt/librtt_nrf52840_xxAA.a(SEGGER_RTT_printf.c.obj)
 .ARM.attributes
                0x00000f48       0x39 external/micro-ecc/libuECC_nrf52840_xxAA.a(uECC.c.obj)
 .ARM.attributes
                0x00000f81       0x22 c:/a/gcc_arm/6/bin/../lib/gcc/arm-none-eabi/6.3.1/thumb/v7e-m/fpv4-sp/hard\libgcc.a(_aeabi_uldivmod.o)
 .ARM.attributes
                0x00000fa3       0x34 c:/a/gcc_arm/6/bin/../lib/gcc/arm-none-eabi/6.3.1/thumb/v7e-m/fpv4-sp/hard\libgcc.a(_udivmoddi4.o)
 .ARM.attributes
                0x00000fd7       0x22 c:/a/gcc_arm/6/bin/../lib/gcc/arm-none-eabi/6.3.1/thumb/v7e-m/fpv4-sp/hard\libgcc.a(_dvmd_tls.o)
 .ARM.attributes
                0x00000ff9       0x34 c:/a/gcc_arm/6/bin/../lib/gcc/arm-none-eabi/6.3.1/../../../../arm-none-eabi/lib/thumb/v7e-m/fpv4-sp/hard\libg_nano.a(lib_a-exit.o)
 .ARM.attributes
                0x0000102d       0x34 c:/a/gcc_arm/6/bin/../lib/gcc/arm-none-eabi/6.3.1/../../../../arm-none-eabi/lib/thumb/v7e-m/fpv4-sp/hard\libg_nano.a(lib_a-impure.o)
 .ARM.attributes
                0x00001061       0x34 c:/a/gcc_arm/6/bin/../lib/gcc/arm-none-eabi/6.3.1/../../../../arm-none-eabi/lib/thumb/v7e-m/fpv4-sp/hard\libg_nano.a(lib_a-init.o)
 .ARM.attributes
                0x00001095       0x34 c:/a/gcc_arm/6/bin/../lib/gcc/arm-none-eabi/6.3.1/../../../../arm-none-eabi/lib/thumb/v7e-m/fpv4-sp/hard\libg_nano.a(lib_a-malloc.o)
 .ARM.attributes
                0x000010c9       0x34 c:/a/gcc_arm/6/bin/../lib/gcc/arm-none-eabi/6.3.1/../../../../arm-none-eabi/lib/thumb/v7e-m/fpv4-sp/hard\libg_nano.a(lib_a-memcmp.o)
 .ARM.attributes
                0x000010fd       0x34 c:/a/gcc_arm/6/bin/../lib/gcc/arm-none-eabi/6.3.1/../../../../arm-none-eabi/lib/thumb/v7e-m/fpv4-sp/hard\libg_nano.a(lib_a-memcpy-stub.o)
 .ARM.attributes
                0x00001131       0x34 c:/a/gcc_arm/6/bin/../lib/gcc/arm-none-eabi/6.3.1/../../../../arm-none-eabi/lib/thumb/v7e-m/fpv4-sp/hard\libg_nano.a(lib_a-memset.o)
 .ARM.attributes
                0x00001165       0x34 c:/a/gcc_arm/6/bin/../lib/gcc/arm-none-eabi/6.3.1/../../../../arm-none-eabi/lib/thumb/v7e-m/fpv4-sp/hard\libg_nano.a(lib_a-nano-freer.o)
 .ARM.attributes
                0x00001199       0x34 c:/a/gcc_arm/6/bin/../lib/gcc/arm-none-eabi/6.3.1/../../../../arm-none-eabi/lib/thumb/v7e-m/fpv4-sp/hard\libg_nano.a(lib_a-nano-mallocr.o)
 .ARM.attributes
                0x000011cd       0x34 c:/a/gcc_arm/6/bin/../lib/gcc/arm-none-eabi/6.3.1/../../../../arm-none-eabi/lib/thumb/v7e-m/fpv4-sp/hard\libg_nano.a(lib_a-sbrkr.o)
 .ARM.attributes
                0x00001201       0x34 c:/a/gcc_arm/6/bin/../lib/gcc/arm-none-eabi/6.3.1/../../../../arm-none-eabi/lib/thumb/v7e-m/fpv4-sp/hard\libg_nano.a(lib_a-strcpy.o)
 .ARM.attributes
                0x00001235       0x1b c:/a/gcc_arm/6/bin/../lib/gcc/arm-none-eabi/6.3.1/../../../../arm-none-eabi/lib/thumb/v7e-m/fpv4-sp/hard\libg_nano.a(lib_a-strlen.o)
 .ARM.attributes
                0x00001250       0x34 c:/a/gcc_arm/6/bin/../lib/gcc/arm-none-eabi/6.3.1/../../../../arm-none-eabi/lib/thumb/v7e-m/fpv4-sp/hard\libg_nano.a(lib_a-strrchr.o)
 .ARM.attributes
                0x00001284       0x34 c:/a/gcc_arm/6/bin/../lib/gcc/arm-none-eabi/6.3.1/../../../../arm-none-eabi/lib/thumb/v7e-m/fpv4-sp/hard\libg_nano.a(lib_a-mlock.o)
 .ARM.attributes
                0x000012b8       0x34 c:/a/gcc_arm/6/bin/../lib/gcc/arm-none-eabi/6.3.1/../../../../arm-none-eabi/lib/thumb/v7e-m/fpv4-sp/hard\libg_nano.a(lib_a-reent.o)
 .ARM.attributes
                0x000012ec       0x34 c:/a/gcc_arm/6/bin/../lib/gcc/arm-none-eabi/6.3.1/../../../../arm-none-eabi/lib/thumb/v7e-m/fpv4-sp/hard\libg_nano.a(lib_a-strchr.o)
 .ARM.attributes
                0x00001320       0x34 c:/a/gcc_arm/6/bin/../lib/gcc/arm-none-eabi/6.3.1/thumb/v7e-m/fpv4-sp/hard/crtend.o
 .ARM.attributes
                0x00001354       0x22 c:/a/gcc_arm/6/bin/../lib/gcc/arm-none-eabi/6.3.1/thumb/v7e-m/fpv4-sp/hard/crtn.o
 .ARM.attributes
                0x00001376       0x34 c:/a/gcc_arm/6/bin/../lib/gcc/arm-none-eabi/6.3.1/../../../../arm-none-eabi/lib/thumb/v7e-m/fpv4-sp/hard\libnosys.a(sbrk.o)
 .ARM.attributes
                0x000013aa       0x34 c:/a/gcc_arm/6/bin/../lib/gcc/arm-none-eabi/6.3.1/../../../../arm-none-eabi/lib/thumb/v7e-m/fpv4-sp/hard\libnosys.a(_exit.o)

.comment        0x00000000       0x7f
 .comment       0x00000000       0x7f examples/pb_remote/client/CMakeFiles/pb_remote_client_nrf52840_xxAA_s140_5.0.0-3.alpha.dir/src/main.c.obj
                                 0x80 (size before relaxing)
 .comment       0x0000007f       0x80 examples/pb_remote/client/CMakeFiles/pb_remote_client_nrf52840_xxAA_s140_5.0.0-3.alpha.dir/__/__/nrf_mesh_sdk.c.obj
 .comment       0x0000007f       0x80 examples/pb_remote/client/CMakeFiles/pb_remote_client_nrf52840_xxAA_s140_5.0.0-3.alpha.dir/__/__/common/src/rtt_input.c.obj
 .comment       0x0000007f       0x80 examples/pb_remote/client/CMakeFiles/pb_remote_client_nrf52840_xxAA_s140_5.0.0-3.alpha.dir/__/__/__/models/pb_remote/src/pb_remote_client.c.obj
 .comment       0x0000007f       0x80 examples/pb_remote/client/CMakeFiles/pb_remote_client_nrf52840_xxAA_s140_5.0.0-3.alpha.dir/__/__/__/mesh/prov/src/prov_provisioner.c.obj
 .comment       0x0000007f       0x80 examples/pb_remote/client/CMakeFiles/pb_remote_client_nrf52840_xxAA_s140_5.0.0-3.alpha.dir/__/__/__/mesh/prov/src/nrf_mesh_prov.c.obj
 .comment       0x0000007f       0x80 examples/pb_remote/client/CMakeFiles/pb_remote_client_nrf52840_xxAA_s140_5.0.0-3.alpha.dir/__/__/__/mesh/prov/src/provisioning.c.obj
 .comment       0x0000007f       0x80 examples/pb_remote/client/CMakeFiles/pb_remote_client_nrf52840_xxAA_s140_5.0.0-3.alpha.dir/__/__/__/mesh/prov/src/prov_beacon.c.obj
 .comment       0x0000007f       0x80 examples/pb_remote/client/CMakeFiles/pb_remote_client_nrf52840_xxAA_s140_5.0.0-3.alpha.dir/__/__/__/mesh/prov/src/prov_utils.c.obj
 .comment       0x0000007f       0x80 examples/pb_remote/client/CMakeFiles/pb_remote_client_nrf52840_xxAA_s140_5.0.0-3.alpha.dir/__/__/__/mesh/prov/src/prov_bearer_adv.c.obj
 .comment       0x0000007f       0x80 examples/pb_remote/client/CMakeFiles/pb_remote_client_nrf52840_xxAA_s140_5.0.0-3.alpha.dir/__/__/__/mesh/access/src/access_publish.c.obj
 .comment       0x0000007f       0x80 examples/pb_remote/client/CMakeFiles/pb_remote_client_nrf52840_xxAA_s140_5.0.0-3.alpha.dir/__/__/__/mesh/access/src/access.c.obj
 .comment       0x0000007f       0x80 examples/pb_remote/client/CMakeFiles/pb_remote_client_nrf52840_xxAA_s140_5.0.0-3.alpha.dir/__/__/__/mesh/access/src/access_reliable.c.obj
 .comment       0x0000007f       0x80 examples/pb_remote/client/CMakeFiles/pb_remote_client_nrf52840_xxAA_s140_5.0.0-3.alpha.dir/__/__/__/mesh/access/src/device_state_manager.c.obj
 .comment       0x0000007f       0x80 examples/pb_remote/client/CMakeFiles/pb_remote_client_nrf52840_xxAA_s140_5.0.0-3.alpha.dir/__/__/nrf_mesh_weak.c.obj
 .comment       0x0000007f       0x80 examples/pb_remote/client/CMakeFiles/pb_remote_client_nrf52840_xxAA_s140_5.0.0-3.alpha.dir/__/__/__/external/nRF5_SDK_14.2.0_17b948a/components/toolchain/system_nrf52840.c.obj
 .comment       0x0000007f       0x80 mesh/core/libmesh_core_nrf52840_xxAA.a(nrf_mesh_configure.c.obj)
 .comment       0x0000007f       0x80 mesh/core/libmesh_core_nrf52840_xxAA.a(event.c.obj)
 .comment       0x0000007f       0x80 mesh/core/libmesh_core_nrf52840_xxAA.a(fifo.c.obj)
 .comment       0x0000007f       0x80 mesh/core/libmesh_core_nrf52840_xxAA.a(net_state.c.obj)
 .comment       0x0000007f       0x80 mesh/core/libmesh_core_nrf52840_xxAA.a(nrf_mesh_utils.c.obj)
 .comment       0x0000007f       0x80 mesh/core/libmesh_core_nrf52840_xxAA.a(nrf_mesh.c.obj)
 .comment       0x0000007f       0x80 mesh/core/libmesh_core_nrf52840_xxAA.a(hal.c.obj)
 .comment       0x0000007f       0x80 mesh/core/libmesh_core_nrf52840_xxAA.a(timer_scheduler.c.obj)
 .comment       0x0000007f       0x80 mesh/core/libmesh_core_nrf52840_xxAA.a(timer.c.obj)
 .comment       0x0000007f       0x80 mesh/core/libmesh_core_nrf52840_xxAA.a(ticker.c.obj)
 .comment       0x0000007f       0x80 mesh/core/libmesh_core_nrf52840_xxAA.a(rand.c.obj)
 .comment       0x0000007f       0x80 mesh/core/libmesh_core_nrf52840_xxAA.a(timeslot.c.obj)
 .comment       0x0000007f       0x80 mesh/core/libmesh_core_nrf52840_xxAA.a(bearer_event.c.obj)
 .comment       0x0000007f       0x80 mesh/core/libmesh_core_nrf52840_xxAA.a(enc.c.obj)
 .comment       0x0000007f       0x80 mesh/core/libmesh_core_nrf52840_xxAA.a(network.c.obj)
 .comment       0x0000007f       0x80 mesh/core/libmesh_core_nrf52840_xxAA.a(nrf_mesh_keygen.c.obj)
 .comment       0x0000007f       0x80 mesh/core/libmesh_core_nrf52840_xxAA.a(list.c.obj)
 .comment       0x0000007f       0x80 mesh/core/libmesh_core_nrf52840_xxAA.a(log.c.obj)
 .comment       0x0000007f       0x80 mesh/core/libmesh_core_nrf52840_xxAA.a(flash_manager.c.obj)
 .comment       0x0000007f       0x80 mesh/core/libmesh_core_nrf52840_xxAA.a(ccm_soft.c.obj)
 .comment       0x0000007f       0x80 mesh/core/libmesh_core_nrf52840_xxAA.a(beacon.c.obj)
 .comment       0x0000007f       0x80 mesh/core/libmesh_core_nrf52840_xxAA.a(flash_manager_internal.c.obj)
 .comment       0x0000007f       0x80 mesh/core/libmesh_core_nrf52840_xxAA.a(core_tx.c.obj)
 .comment       0x0000007f       0x80 mesh/core/libmesh_core_nrf52840_xxAA.a(heartbeat.c.obj)
 .comment       0x0000007f       0x80 mesh/core/libmesh_core_nrf52840_xxAA.a(net_beacon.c.obj)
 .comment       0x0000007f       0x80 mesh/core/libmesh_core_nrf52840_xxAA.a(core_tx_adv.c.obj)
 .comment       0x0000007f       0x80 mesh/core/libmesh_core_nrf52840_xxAA.a(ad_listener.c.obj)
 .comment       0x0000007f       0x80 mesh/core/libmesh_core_nrf52840_xxAA.a(ad_type_filter.c.obj)
 .comment       0x0000007f       0x80 mesh/core/libmesh_core_nrf52840_xxAA.a(advertiser.c.obj)
 .comment       0x0000007f       0x80 mesh/core/libmesh_core_nrf52840_xxAA.a(bearer_handler.c.obj)
 .comment       0x0000007f       0x80 mesh/core/libmesh_core_nrf52840_xxAA.a(broadcast.c.obj)
 .comment       0x0000007f       0x80 mesh/core/libmesh_core_nrf52840_xxAA.a(filter_engine.c.obj)
 .comment       0x0000007f       0x80 mesh/core/libmesh_core_nrf52840_xxAA.a(radio_config.c.obj)
 .comment       0x0000007f       0x80 mesh/core/libmesh_core_nrf52840_xxAA.a(scanner.c.obj)
 .comment       0x0000007f       0x80 mesh/core/libmesh_core_nrf52840_xxAA.a(internal_event.c.obj)
 .comment       0x0000007f       0x80 mesh/core/libmesh_core_nrf52840_xxAA.a(aes.c.obj)
 .comment       0x0000007f       0x80 mesh/core/libmesh_core_nrf52840_xxAA.a(msg_cache.c.obj)
 .comment       0x0000007f       0x80 mesh/core/libmesh_core_nrf52840_xxAA.a(transport.c.obj)
 .comment       0x0000007f       0x80 mesh/core/libmesh_core_nrf52840_xxAA.a(packet_buffer.c.obj)
 .comment       0x0000007f       0x80 mesh/core/libmesh_core_nrf52840_xxAA.a(flash_manager_defrag.c.obj)
 .comment       0x0000007f       0x80 mesh/core/libmesh_core_nrf52840_xxAA.a(packet_mgr.c.obj)
 .comment       0x0000007f       0x80 mesh/core/libmesh_core_nrf52840_xxAA.a(mesh_flash.c.obj)
 .comment       0x0000007f       0x80 mesh/core/libmesh_core_nrf52840_xxAA.a(queue.c.obj)
 .comment       0x0000007f       0x80 mesh/core/libmesh_core_nrf52840_xxAA.a(aes_cmac.c.obj)
 .comment       0x0000007f       0x80 mesh/core/libmesh_core_nrf52840_xxAA.a(nrf_mesh_opt.c.obj)
 .comment       0x0000007f       0x80 mesh/core/libmesh_core_nrf52840_xxAA.a(msqueue.c.obj)
 .comment       0x0000007f       0x80 mesh/core/libmesh_core_nrf52840_xxAA.a(replay_cache.c.obj)
 .comment       0x0000007f       0x80 mesh/core/libmesh_core_nrf52840_xxAA.a(nrf_flash.c.obj)
 .comment       0x0000007f       0x80 external/rtt/librtt_nrf52840_xxAA.a(SEGGER_RTT.c.obj)
 .comment       0x0000007f       0x80 external/rtt/librtt_nrf52840_xxAA.a(SEGGER_RTT_printf.c.obj)
 .comment       0x0000007f       0x80 external/micro-ecc/libuECC_nrf52840_xxAA.a(uECC.c.obj)

.debug_info     0x00000000    0x6c6e8
 .debug_info    0x00000000     0x3e18 examples/pb_remote/client/CMakeFiles/pb_remote_client_nrf52840_xxAA_s140_5.0.0-3.alpha.dir/src/main.c.obj
 .debug_info    0x00003e18     0x327b examples/pb_remote/client/CMakeFiles/pb_remote_client_nrf52840_xxAA_s140_5.0.0-3.alpha.dir/__/__/nrf_mesh_sdk.c.obj
 .debug_info    0x00007093     0x1193 examples/pb_remote/client/CMakeFiles/pb_remote_client_nrf52840_xxAA_s140_5.0.0-3.alpha.dir/__/__/common/src/rtt_input.c.obj
 .debug_info    0x00008226     0x3c47 examples/pb_remote/client/CMakeFiles/pb_remote_client_nrf52840_xxAA_s140_5.0.0-3.alpha.dir/__/__/__/models/pb_remote/src/pb_remote_client.c.obj
 .debug_info    0x0000be6d     0x2348 examples/pb_remote/client/CMakeFiles/pb_remote_client_nrf52840_xxAA_s140_5.0.0-3.alpha.dir/__/__/__/mesh/prov/src/prov_provisioner.c.obj
 .debug_info    0x0000e1b5     0x1be9 examples/pb_remote/client/CMakeFiles/pb_remote_client_nrf52840_xxAA_s140_5.0.0-3.alpha.dir/__/__/__/mesh/prov/src/nrf_mesh_prov.c.obj
 .debug_info    0x0000fd9e     0x1588 examples/pb_remote/client/CMakeFiles/pb_remote_client_nrf52840_xxAA_s140_5.0.0-3.alpha.dir/__/__/__/mesh/prov/src/provisioning.c.obj
 .debug_info    0x00011326     0x19a2 examples/pb_remote/client/CMakeFiles/pb_remote_client_nrf52840_xxAA_s140_5.0.0-3.alpha.dir/__/__/__/mesh/prov/src/prov_beacon.c.obj
 .debug_info    0x00012cc8     0x2029 examples/pb_remote/client/CMakeFiles/pb_remote_client_nrf52840_xxAA_s140_5.0.0-3.alpha.dir/__/__/__/mesh/prov/src/prov_utils.c.obj
 .debug_info    0x00014cf1     0x3963 examples/pb_remote/client/CMakeFiles/pb_remote_client_nrf52840_xxAA_s140_5.0.0-3.alpha.dir/__/__/__/mesh/prov/src/prov_bearer_adv.c.obj
 .debug_info    0x00018654     0x112b examples/pb_remote/client/CMakeFiles/pb_remote_client_nrf52840_xxAA_s140_5.0.0-3.alpha.dir/__/__/__/mesh/access/src/access_publish.c.obj
 .debug_info    0x0001977f     0x447d examples/pb_remote/client/CMakeFiles/pb_remote_client_nrf52840_xxAA_s140_5.0.0-3.alpha.dir/__/__/__/mesh/access/src/access.c.obj
 .debug_info    0x0001dbfc     0x1537 examples/pb_remote/client/CMakeFiles/pb_remote_client_nrf52840_xxAA_s140_5.0.0-3.alpha.dir/__/__/__/mesh/access/src/access_reliable.c.obj
 .debug_info    0x0001f133     0x5f01 examples/pb_remote/client/CMakeFiles/pb_remote_client_nrf52840_xxAA_s140_5.0.0-3.alpha.dir/__/__/__/mesh/access/src/device_state_manager.c.obj
 .debug_info    0x00025034      0x94b examples/pb_remote/client/CMakeFiles/pb_remote_client_nrf52840_xxAA_s140_5.0.0-3.alpha.dir/__/__/nrf_mesh_weak.c.obj
 .debug_info    0x0002597f     0x12ef examples/pb_remote/client/CMakeFiles/pb_remote_client_nrf52840_xxAA_s140_5.0.0-3.alpha.dir/__/__/__/external/nRF5_SDK_14.2.0_17b948a/components/toolchain/system_nrf52840.c.obj
 .debug_info    0x00026c6e      0xd04 mesh/core/libmesh_core_nrf52840_xxAA.a(nrf_mesh_configure.c.obj)
 .debug_info    0x00027972     0x1509 mesh/core/libmesh_core_nrf52840_xxAA.a(event.c.obj)
 .debug_info    0x00028e7b      0xd0e mesh/core/libmesh_core_nrf52840_xxAA.a(fifo.c.obj)
 .debug_info    0x00029b89     0x23d7 mesh/core/libmesh_core_nrf52840_xxAA.a(net_state.c.obj)
 .debug_info    0x0002bf60      0xa87 mesh/core/libmesh_core_nrf52840_xxAA.a(nrf_mesh_utils.c.obj)
 .debug_info    0x0002c9e7     0x34e6 mesh/core/libmesh_core_nrf52840_xxAA.a(nrf_mesh.c.obj)
 .debug_info    0x0002fecd      0x51d mesh/core/libmesh_core_nrf52840_xxAA.a(hal.c.obj)
 .debug_info    0x000303ea     0x102a mesh/core/libmesh_core_nrf52840_xxAA.a(timer_scheduler.c.obj)
 .debug_info    0x00031414      0xd9d mesh/core/libmesh_core_nrf52840_xxAA.a(timer.c.obj)
 .debug_info    0x000321b1      0x20b mesh/core/libmesh_core_nrf52840_xxAA.a(ticker.c.obj)
 .debug_info    0x000323bc      0x40f mesh/core/libmesh_core_nrf52840_xxAA.a(rand.c.obj)
 .debug_info    0x000327cb     0x1a2c mesh/core/libmesh_core_nrf52840_xxAA.a(timeslot.c.obj)
 .debug_info    0x000341f7     0x19fb mesh/core/libmesh_core_nrf52840_xxAA.a(bearer_event.c.obj)
 .debug_info    0x00035bf2     0x164f mesh/core/libmesh_core_nrf52840_xxAA.a(enc.c.obj)
 .debug_info    0x00037241     0x2aee mesh/core/libmesh_core_nrf52840_xxAA.a(network.c.obj)
 .debug_info    0x00039d2f      0x4c8 mesh/core/libmesh_core_nrf52840_xxAA.a(nrf_mesh_keygen.c.obj)
 .debug_info    0x0003a1f7      0x48b mesh/core/libmesh_core_nrf52840_xxAA.a(list.c.obj)
 .debug_info    0x0003a682      0xe28 mesh/core/libmesh_core_nrf52840_xxAA.a(log.c.obj)
 .debug_info    0x0003b4aa     0x320c mesh/core/libmesh_core_nrf52840_xxAA.a(flash_manager.c.obj)
 .debug_info    0x0003e6b6     0x10a3 mesh/core/libmesh_core_nrf52840_xxAA.a(ccm_soft.c.obj)
 .debug_info    0x0003f759     0x193b mesh/core/libmesh_core_nrf52840_xxAA.a(beacon.c.obj)
 .debug_info    0x00041094      0xb99 mesh/core/libmesh_core_nrf52840_xxAA.a(flash_manager_internal.c.obj)
 .debug_info    0x00041c2d      0xfb3 mesh/core/libmesh_core_nrf52840_xxAA.a(core_tx.c.obj)
 .debug_info    0x00042be0     0x219a mesh/core/libmesh_core_nrf52840_xxAA.a(heartbeat.c.obj)
 .debug_info    0x00044d7a     0x1511 mesh/core/libmesh_core_nrf52840_xxAA.a(net_beacon.c.obj)
 .debug_info    0x0004628b     0x160b mesh/core/libmesh_core_nrf52840_xxAA.a(core_tx_adv.c.obj)
 .debug_info    0x00047896     0x1118 mesh/core/libmesh_core_nrf52840_xxAA.a(ad_listener.c.obj)
 .debug_info    0x000489ae      0xfcd mesh/core/libmesh_core_nrf52840_xxAA.a(ad_type_filter.c.obj)
 .debug_info    0x0004997b     0x2448 mesh/core/libmesh_core_nrf52840_xxAA.a(advertiser.c.obj)
 .debug_info    0x0004bdc3     0x1a6d mesh/core/libmesh_core_nrf52840_xxAA.a(bearer_handler.c.obj)
 .debug_info    0x0004d830     0x1ab4 mesh/core/libmesh_core_nrf52840_xxAA.a(broadcast.c.obj)
 .debug_info    0x0004f2e4      0xcf4 mesh/core/libmesh_core_nrf52840_xxAA.a(filter_engine.c.obj)
 .debug_info    0x0004ffd8      0x9c2 mesh/core/libmesh_core_nrf52840_xxAA.a(radio_config.c.obj)
 .debug_info    0x0005099a     0x271f mesh/core/libmesh_core_nrf52840_xxAA.a(scanner.c.obj)
 .debug_info    0x000530b9      0xc4e mesh/core/libmesh_core_nrf52840_xxAA.a(internal_event.c.obj)
 .debug_info    0x00053d07      0xbcc mesh/core/libmesh_core_nrf52840_xxAA.a(aes.c.obj)
 .debug_info    0x000548d3      0xa81 mesh/core/libmesh_core_nrf52840_xxAA.a(msg_cache.c.obj)
 .debug_info    0x00055354     0x54fa mesh/core/libmesh_core_nrf52840_xxAA.a(transport.c.obj)
 .debug_info    0x0005a84e     0x1d81 mesh/core/libmesh_core_nrf52840_xxAA.a(packet_buffer.c.obj)
 .debug_info    0x0005c5cf     0x23a1 mesh/core/libmesh_core_nrf52840_xxAA.a(flash_manager_defrag.c.obj)
 .debug_info    0x0005e970     0x115b mesh/core/libmesh_core_nrf52840_xxAA.a(packet_mgr.c.obj)
 .debug_info    0x0005facb     0x1887 mesh/core/libmesh_core_nrf52840_xxAA.a(mesh_flash.c.obj)
 .debug_info    0x00061352      0xaf2 mesh/core/libmesh_core_nrf52840_xxAA.a(queue.c.obj)
 .debug_info    0x00061e44      0xe48 mesh/core/libmesh_core_nrf52840_xxAA.a(aes_cmac.c.obj)
 .debug_info    0x00062c8c      0xb1c mesh/core/libmesh_core_nrf52840_xxAA.a(nrf_mesh_opt.c.obj)
 .debug_info    0x000637a8      0xd08 mesh/core/libmesh_core_nrf52840_xxAA.a(msqueue.c.obj)
 .debug_info    0x000644b0      0xaeb mesh/core/libmesh_core_nrf52840_xxAA.a(replay_cache.c.obj)
 .debug_info    0x00064f9b      0xb63 mesh/core/libmesh_core_nrf52840_xxAA.a(nrf_flash.c.obj)
 .debug_info    0x00065afe     0x1818 external/rtt/librtt_nrf52840_xxAA.a(SEGGER_RTT.c.obj)
 .debug_info    0x00067316      0xec1 external/rtt/librtt_nrf52840_xxAA.a(SEGGER_RTT_printf.c.obj)
 .debug_info    0x000681d7     0x4511 external/micro-ecc/libuECC_nrf52840_xxAA.a(uECC.c.obj)

.debug_abbrev   0x00000000     0xeba6
 .debug_abbrev  0x00000000      0x483 examples/pb_remote/client/CMakeFiles/pb_remote_client_nrf52840_xxAA_s140_5.0.0-3.alpha.dir/src/main.c.obj
 .debug_abbrev  0x00000483      0x486 examples/pb_remote/client/CMakeFiles/pb_remote_client_nrf52840_xxAA_s140_5.0.0-3.alpha.dir/__/__/nrf_mesh_sdk.c.obj
 .debug_abbrev  0x00000909      0x2b8 examples/pb_remote/client/CMakeFiles/pb_remote_client_nrf52840_xxAA_s140_5.0.0-3.alpha.dir/__/__/common/src/rtt_input.c.obj
 .debug_abbrev  0x00000bc1      0x52e examples/pb_remote/client/CMakeFiles/pb_remote_client_nrf52840_xxAA_s140_5.0.0-3.alpha.dir/__/__/__/models/pb_remote/src/pb_remote_client.c.obj
 .debug_abbrev  0x000010ef      0x3dd examples/pb_remote/client/CMakeFiles/pb_remote_client_nrf52840_xxAA_s140_5.0.0-3.alpha.dir/__/__/__/mesh/prov/src/prov_provisioner.c.obj
 .debug_abbrev  0x000014cc      0x335 examples/pb_remote/client/CMakeFiles/pb_remote_client_nrf52840_xxAA_s140_5.0.0-3.alpha.dir/__/__/__/mesh/prov/src/nrf_mesh_prov.c.obj
 .debug_abbrev  0x00001801      0x29c examples/pb_remote/client/CMakeFiles/pb_remote_client_nrf52840_xxAA_s140_5.0.0-3.alpha.dir/__/__/__/mesh/prov/src/provisioning.c.obj
 .debug_abbrev  0x00001a9d      0x2c8 examples/pb_remote/client/CMakeFiles/pb_remote_client_nrf52840_xxAA_s140_5.0.0-3.alpha.dir/__/__/__/mesh/prov/src/prov_beacon.c.obj
 .debug_abbrev  0x00001d65      0x3d4 examples/pb_remote/client/CMakeFiles/pb_remote_client_nrf52840_xxAA_s140_5.0.0-3.alpha.dir/__/__/__/mesh/prov/src/prov_utils.c.obj
 .debug_abbrev  0x00002139      0x50e examples/pb_remote/client/CMakeFiles/pb_remote_client_nrf52840_xxAA_s140_5.0.0-3.alpha.dir/__/__/__/mesh/prov/src/prov_bearer_adv.c.obj
 .debug_abbrev  0x00002647      0x460 examples/pb_remote/client/CMakeFiles/pb_remote_client_nrf52840_xxAA_s140_5.0.0-3.alpha.dir/__/__/__/mesh/access/src/access_publish.c.obj
 .debug_abbrev  0x00002aa7      0x68e examples/pb_remote/client/CMakeFiles/pb_remote_client_nrf52840_xxAA_s140_5.0.0-3.alpha.dir/__/__/__/mesh/access/src/access.c.obj
 .debug_abbrev  0x00003135      0x433 examples/pb_remote/client/CMakeFiles/pb_remote_client_nrf52840_xxAA_s140_5.0.0-3.alpha.dir/__/__/__/mesh/access/src/access_reliable.c.obj
 .debug_abbrev  0x00003568      0x647 examples/pb_remote/client/CMakeFiles/pb_remote_client_nrf52840_xxAA_s140_5.0.0-3.alpha.dir/__/__/__/mesh/access/src/device_state_manager.c.obj
 .debug_abbrev  0x00003baf      0x1ae examples/pb_remote/client/CMakeFiles/pb_remote_client_nrf52840_xxAA_s140_5.0.0-3.alpha.dir/__/__/nrf_mesh_weak.c.obj
 .debug_abbrev  0x00003d5d      0x1e2 examples/pb_remote/client/CMakeFiles/pb_remote_client_nrf52840_xxAA_s140_5.0.0-3.alpha.dir/__/__/__/external/nRF5_SDK_14.2.0_17b948a/components/toolchain/system_nrf52840.c.obj
 .debug_abbrev  0x00003f3f      0x24b mesh/core/libmesh_core_nrf52840_xxAA.a(nrf_mesh_configure.c.obj)
 .debug_abbrev  0x0000418a      0x2a2 mesh/core/libmesh_core_nrf52840_xxAA.a(event.c.obj)
 .debug_abbrev  0x0000442c      0x301 mesh/core/libmesh_core_nrf52840_xxAA.a(fifo.c.obj)
 .debug_abbrev  0x0000472d      0x55b mesh/core/libmesh_core_nrf52840_xxAA.a(net_state.c.obj)
 .debug_abbrev  0x00004c88      0x25a mesh/core/libmesh_core_nrf52840_xxAA.a(nrf_mesh_utils.c.obj)
 .debug_abbrev  0x00004ee2      0x467 mesh/core/libmesh_core_nrf52840_xxAA.a(nrf_mesh.c.obj)
 .debug_abbrev  0x00005349      0x1e8 mesh/core/libmesh_core_nrf52840_xxAA.a(hal.c.obj)
 .debug_abbrev  0x00005531      0x3bf mesh/core/libmesh_core_nrf52840_xxAA.a(timer_scheduler.c.obj)
 .debug_abbrev  0x000058f0      0x346 mesh/core/libmesh_core_nrf52840_xxAA.a(timer.c.obj)
 .debug_abbrev  0x00005c36      0x152 mesh/core/libmesh_core_nrf52840_xxAA.a(ticker.c.obj)
 .debug_abbrev  0x00005d88      0x1d2 mesh/core/libmesh_core_nrf52840_xxAA.a(rand.c.obj)
 .debug_abbrev  0x00005f5a      0x4db mesh/core/libmesh_core_nrf52840_xxAA.a(timeslot.c.obj)
 .debug_abbrev  0x00006435      0x4b3 mesh/core/libmesh_core_nrf52840_xxAA.a(bearer_event.c.obj)
 .debug_abbrev  0x000068e8      0x37e mesh/core/libmesh_core_nrf52840_xxAA.a(enc.c.obj)
 .debug_abbrev  0x00006c66      0x52c mesh/core/libmesh_core_nrf52840_xxAA.a(network.c.obj)
 .debug_abbrev  0x00007192      0x163 mesh/core/libmesh_core_nrf52840_xxAA.a(nrf_mesh_keygen.c.obj)
 .debug_abbrev  0x000072f5      0x18e mesh/core/libmesh_core_nrf52840_xxAA.a(list.c.obj)
 .debug_abbrev  0x00007483      0x24e mesh/core/libmesh_core_nrf52840_xxAA.a(log.c.obj)
 .debug_abbrev  0x000076d1      0x5c2 mesh/core/libmesh_core_nrf52840_xxAA.a(flash_manager.c.obj)
 .debug_abbrev  0x00007c93      0x2b3 mesh/core/libmesh_core_nrf52840_xxAA.a(ccm_soft.c.obj)
 .debug_abbrev  0x00007f46      0x38c mesh/core/libmesh_core_nrf52840_xxAA.a(beacon.c.obj)
 .debug_abbrev  0x000082d2      0x28a mesh/core/libmesh_core_nrf52840_xxAA.a(flash_manager_internal.c.obj)
 .debug_abbrev  0x0000855c      0x32c mesh/core/libmesh_core_nrf52840_xxAA.a(core_tx.c.obj)
 .debug_abbrev  0x00008888      0x4c9 mesh/core/libmesh_core_nrf52840_xxAA.a(heartbeat.c.obj)
 .debug_abbrev  0x00008d51      0x3cc mesh/core/libmesh_core_nrf52840_xxAA.a(net_beacon.c.obj)
 .debug_abbrev  0x0000911d      0x32c mesh/core/libmesh_core_nrf52840_xxAA.a(core_tx_adv.c.obj)
 .debug_abbrev  0x00009449      0x341 mesh/core/libmesh_core_nrf52840_xxAA.a(ad_listener.c.obj)
 .debug_abbrev  0x0000978a      0x377 mesh/core/libmesh_core_nrf52840_xxAA.a(ad_type_filter.c.obj)
 .debug_abbrev  0x00009b01      0x4fe mesh/core/libmesh_core_nrf52840_xxAA.a(advertiser.c.obj)
 .debug_abbrev  0x00009fff      0x40d mesh/core/libmesh_core_nrf52840_xxAA.a(bearer_handler.c.obj)
 .debug_abbrev  0x0000a40c      0x3b4 mesh/core/libmesh_core_nrf52840_xxAA.a(broadcast.c.obj)
 .debug_abbrev  0x0000a7c0      0x299 mesh/core/libmesh_core_nrf52840_xxAA.a(filter_engine.c.obj)
 .debug_abbrev  0x0000aa59      0x1d9 mesh/core/libmesh_core_nrf52840_xxAA.a(radio_config.c.obj)
 .debug_abbrev  0x0000ac32      0x582 mesh/core/libmesh_core_nrf52840_xxAA.a(scanner.c.obj)
 .debug_abbrev  0x0000b1b4      0x26d mesh/core/libmesh_core_nrf52840_xxAA.a(internal_event.c.obj)
 .debug_abbrev  0x0000b421      0x264 mesh/core/libmesh_core_nrf52840_xxAA.a(aes.c.obj)
 .debug_abbrev  0x0000b685      0x25d mesh/core/libmesh_core_nrf52840_xxAA.a(msg_cache.c.obj)
 .debug_abbrev  0x0000b8e2      0x629 mesh/core/libmesh_core_nrf52840_xxAA.a(transport.c.obj)
 .debug_abbrev  0x0000bf0b      0x49a mesh/core/libmesh_core_nrf52840_xxAA.a(packet_buffer.c.obj)
 .debug_abbrev  0x0000c3a5      0x558 mesh/core/libmesh_core_nrf52840_xxAA.a(flash_manager_defrag.c.obj)
 .debug_abbrev  0x0000c8fd      0x3d1 mesh/core/libmesh_core_nrf52840_xxAA.a(packet_mgr.c.obj)
 .debug_abbrev  0x0000ccce      0x478 mesh/core/libmesh_core_nrf52840_xxAA.a(mesh_flash.c.obj)
 .debug_abbrev  0x0000d146      0x227 mesh/core/libmesh_core_nrf52840_xxAA.a(queue.c.obj)
 .debug_abbrev  0x0000d36d      0x332 mesh/core/libmesh_core_nrf52840_xxAA.a(aes_cmac.c.obj)
 .debug_abbrev  0x0000d69f      0x24a mesh/core/libmesh_core_nrf52840_xxAA.a(nrf_mesh_opt.c.obj)
 .debug_abbrev  0x0000d8e9      0x29c mesh/core/libmesh_core_nrf52840_xxAA.a(msqueue.c.obj)
 .debug_abbrev  0x0000db85      0x277 mesh/core/libmesh_core_nrf52840_xxAA.a(replay_cache.c.obj)
 .debug_abbrev  0x0000ddfc      0x21f mesh/core/libmesh_core_nrf52840_xxAA.a(nrf_flash.c.obj)
 .debug_abbrev  0x0000e01b      0x3a9 external/rtt/librtt_nrf52840_xxAA.a(SEGGER_RTT.c.obj)
 .debug_abbrev  0x0000e3c4      0x32e external/rtt/librtt_nrf52840_xxAA.a(SEGGER_RTT_printf.c.obj)
 .debug_abbrev  0x0000e6f2      0x4b4 external/micro-ecc/libuECC_nrf52840_xxAA.a(uECC.c.obj)

.debug_loc      0x00000000    0x2049c
 .debug_loc     0x00000000      0x5cb examples/pb_remote/client/CMakeFiles/pb_remote_client_nrf52840_xxAA_s140_5.0.0-3.alpha.dir/src/main.c.obj
 .debug_loc     0x000005cb      0x30c examples/pb_remote/client/CMakeFiles/pb_remote_client_nrf52840_xxAA_s140_5.0.0-3.alpha.dir/__/__/nrf_mesh_sdk.c.obj
 .debug_loc     0x000008d7       0xa5 examples/pb_remote/client/CMakeFiles/pb_remote_client_nrf52840_xxAA_s140_5.0.0-3.alpha.dir/__/__/common/src/rtt_input.c.obj
 .debug_loc     0x0000097c     0x1313 examples/pb_remote/client/CMakeFiles/pb_remote_client_nrf52840_xxAA_s140_5.0.0-3.alpha.dir/__/__/__/models/pb_remote/src/pb_remote_client.c.obj
 .debug_loc     0x00001c8f      0x6a4 examples/pb_remote/client/CMakeFiles/pb_remote_client_nrf52840_xxAA_s140_5.0.0-3.alpha.dir/__/__/__/mesh/prov/src/prov_provisioner.c.obj
 .debug_loc     0x00002333      0x7c0 examples/pb_remote/client/CMakeFiles/pb_remote_client_nrf52840_xxAA_s140_5.0.0-3.alpha.dir/__/__/__/mesh/prov/src/nrf_mesh_prov.c.obj
 .debug_loc     0x00002af3      0x4e0 examples/pb_remote/client/CMakeFiles/pb_remote_client_nrf52840_xxAA_s140_5.0.0-3.alpha.dir/__/__/__/mesh/prov/src/provisioning.c.obj
 .debug_loc     0x00002fd3      0x1cd examples/pb_remote/client/CMakeFiles/pb_remote_client_nrf52840_xxAA_s140_5.0.0-3.alpha.dir/__/__/__/mesh/prov/src/prov_beacon.c.obj
 .debug_loc     0x000031a0      0x42c examples/pb_remote/client/CMakeFiles/pb_remote_client_nrf52840_xxAA_s140_5.0.0-3.alpha.dir/__/__/__/mesh/prov/src/prov_utils.c.obj
 .debug_loc     0x000035cc     0x175a examples/pb_remote/client/CMakeFiles/pb_remote_client_nrf52840_xxAA_s140_5.0.0-3.alpha.dir/__/__/__/mesh/prov/src/prov_bearer_adv.c.obj
 .debug_loc     0x00004d26      0x577 examples/pb_remote/client/CMakeFiles/pb_remote_client_nrf52840_xxAA_s140_5.0.0-3.alpha.dir/__/__/__/mesh/access/src/access_publish.c.obj
 .debug_loc     0x0000529d     0x220f examples/pb_remote/client/CMakeFiles/pb_remote_client_nrf52840_xxAA_s140_5.0.0-3.alpha.dir/__/__/__/mesh/access/src/access.c.obj
 .debug_loc     0x000074ac      0x8c4 examples/pb_remote/client/CMakeFiles/pb_remote_client_nrf52840_xxAA_s140_5.0.0-3.alpha.dir/__/__/__/mesh/access/src/access_reliable.c.obj
 .debug_loc     0x00007d70     0x3bec examples/pb_remote/client/CMakeFiles/pb_remote_client_nrf52840_xxAA_s140_5.0.0-3.alpha.dir/__/__/__/mesh/access/src/device_state_manager.c.obj
 .debug_loc     0x0000b95c       0x2c mesh/core/libmesh_core_nrf52840_xxAA.a(nrf_mesh_configure.c.obj)
 .debug_loc     0x0000b988      0x136 mesh/core/libmesh_core_nrf52840_xxAA.a(event.c.obj)
 .debug_loc     0x0000babe      0x517 mesh/core/libmesh_core_nrf52840_xxAA.a(fifo.c.obj)
 .debug_loc     0x0000bfd5      0x758 mesh/core/libmesh_core_nrf52840_xxAA.a(net_state.c.obj)
 .debug_loc     0x0000c72d      0x11c mesh/core/libmesh_core_nrf52840_xxAA.a(nrf_mesh_utils.c.obj)
 .debug_loc     0x0000c849      0x4d7 mesh/core/libmesh_core_nrf52840_xxAA.a(nrf_mesh.c.obj)
 .debug_loc     0x0000cd20       0x63 mesh/core/libmesh_core_nrf52840_xxAA.a(hal.c.obj)
 .debug_loc     0x0000cd83      0x3b9 mesh/core/libmesh_core_nrf52840_xxAA.a(timer_scheduler.c.obj)
 .debug_loc     0x0000d13c      0x60f mesh/core/libmesh_core_nrf52840_xxAA.a(timer.c.obj)
 .debug_loc     0x0000d74b      0x190 mesh/core/libmesh_core_nrf52840_xxAA.a(rand.c.obj)
 .debug_loc     0x0000d8db      0x370 mesh/core/libmesh_core_nrf52840_xxAA.a(timeslot.c.obj)
 .debug_loc     0x0000dc4b      0x647 mesh/core/libmesh_core_nrf52840_xxAA.a(bearer_event.c.obj)
 .debug_loc     0x0000e292      0x960 mesh/core/libmesh_core_nrf52840_xxAA.a(enc.c.obj)
 .debug_loc     0x0000ebf2     0x10e7 mesh/core/libmesh_core_nrf52840_xxAA.a(network.c.obj)
 .debug_loc     0x0000fcd9      0x1ee mesh/core/libmesh_core_nrf52840_xxAA.a(nrf_mesh_keygen.c.obj)
 .debug_loc     0x0000fec7      0x541 mesh/core/libmesh_core_nrf52840_xxAA.a(list.c.obj)
 .debug_loc     0x00010408      0x348 mesh/core/libmesh_core_nrf52840_xxAA.a(log.c.obj)
 .debug_loc     0x00010750     0x1784 mesh/core/libmesh_core_nrf52840_xxAA.a(flash_manager.c.obj)
 .debug_loc     0x00011ed4      0x371 mesh/core/libmesh_core_nrf52840_xxAA.a(ccm_soft.c.obj)
 .debug_loc     0x00012245      0x527 mesh/core/libmesh_core_nrf52840_xxAA.a(beacon.c.obj)
 .debug_loc     0x0001276c      0x130 mesh/core/libmesh_core_nrf52840_xxAA.a(flash_manager_internal.c.obj)
 .debug_loc     0x0001289c      0x639 mesh/core/libmesh_core_nrf52840_xxAA.a(core_tx.c.obj)
 .debug_loc     0x00012ed5      0x644 mesh/core/libmesh_core_nrf52840_xxAA.a(heartbeat.c.obj)
 .debug_loc     0x00013519      0x3fe mesh/core/libmesh_core_nrf52840_xxAA.a(net_beacon.c.obj)
 .debug_loc     0x00013917      0x3fa mesh/core/libmesh_core_nrf52840_xxAA.a(core_tx_adv.c.obj)
 .debug_loc     0x00013d11      0x42e mesh/core/libmesh_core_nrf52840_xxAA.a(ad_listener.c.obj)
 .debug_loc     0x0001413f      0x3b9 mesh/core/libmesh_core_nrf52840_xxAA.a(ad_type_filter.c.obj)
 .debug_loc     0x000144f8      0xedd mesh/core/libmesh_core_nrf52840_xxAA.a(advertiser.c.obj)
 .debug_loc     0x000153d5      0x42d mesh/core/libmesh_core_nrf52840_xxAA.a(bearer_handler.c.obj)
 .debug_loc     0x00015802      0x377 mesh/core/libmesh_core_nrf52840_xxAA.a(broadcast.c.obj)
 .debug_loc     0x00015b79      0x115 mesh/core/libmesh_core_nrf52840_xxAA.a(filter_engine.c.obj)
 .debug_loc     0x00015c8e      0x28c mesh/core/libmesh_core_nrf52840_xxAA.a(radio_config.c.obj)
 .debug_loc     0x00015f1a      0x4f6 mesh/core/libmesh_core_nrf52840_xxAA.a(scanner.c.obj)
 .debug_loc     0x00016410       0xc9 mesh/core/libmesh_core_nrf52840_xxAA.a(internal_event.c.obj)
 .debug_loc     0x000164d9       0x89 mesh/core/libmesh_core_nrf52840_xxAA.a(aes.c.obj)
 .debug_loc     0x00016562      0x10d mesh/core/libmesh_core_nrf52840_xxAA.a(msg_cache.c.obj)
 .debug_loc     0x0001666f     0x28ef mesh/core/libmesh_core_nrf52840_xxAA.a(transport.c.obj)
 .debug_loc     0x00018f5e      0xf93 mesh/core/libmesh_core_nrf52840_xxAA.a(packet_buffer.c.obj)
 .debug_loc     0x00019ef1      0x8ee mesh/core/libmesh_core_nrf52840_xxAA.a(flash_manager_defrag.c.obj)
 .debug_loc     0x0001a7df      0x6d7 mesh/core/libmesh_core_nrf52840_xxAA.a(packet_mgr.c.obj)
 .debug_loc     0x0001aeb6      0xa35 mesh/core/libmesh_core_nrf52840_xxAA.a(mesh_flash.c.obj)
 .debug_loc     0x0001b8eb      0x186 mesh/core/libmesh_core_nrf52840_xxAA.a(queue.c.obj)
 .debug_loc     0x0001ba71      0x3f8 mesh/core/libmesh_core_nrf52840_xxAA.a(aes_cmac.c.obj)
 .debug_loc     0x0001be69      0x194 mesh/core/libmesh_core_nrf52840_xxAA.a(nrf_mesh_opt.c.obj)
 .debug_loc     0x0001bffd      0x3e5 mesh/core/libmesh_core_nrf52840_xxAA.a(msqueue.c.obj)
 .debug_loc     0x0001c3e2      0x1c6 mesh/core/libmesh_core_nrf52840_xxAA.a(replay_cache.c.obj)
 .debug_loc     0x0001c5a8      0x17a mesh/core/libmesh_core_nrf52840_xxAA.a(nrf_flash.c.obj)
 .debug_loc     0x0001c722     0x1222 external/rtt/librtt_nrf52840_xxAA.a(SEGGER_RTT.c.obj)
 .debug_loc     0x0001d944      0x70f external/rtt/librtt_nrf52840_xxAA.a(SEGGER_RTT_printf.c.obj)
 .debug_loc     0x0001e053     0x2449 external/micro-ecc/libuECC_nrf52840_xxAA.a(uECC.c.obj)

.debug_aranges  0x00000000     0x1f00
 .debug_aranges
                0x00000000       0x48 examples/pb_remote/client/CMakeFiles/pb_remote_client_nrf52840_xxAA_s140_5.0.0-3.alpha.dir/src/main.c.obj
 .debug_aranges
                0x00000048       0x80 examples/pb_remote/client/CMakeFiles/pb_remote_client_nrf52840_xxAA_s140_5.0.0-3.alpha.dir/__/__/nrf_mesh_sdk.c.obj
 .debug_aranges
                0x000000c8       0x30 examples/pb_remote/client/CMakeFiles/pb_remote_client_nrf52840_xxAA_s140_5.0.0-3.alpha.dir/__/__/common/src/rtt_input.c.obj
 .debug_aranges
                0x000000f8       0xf8 examples/pb_remote/client/CMakeFiles/pb_remote_client_nrf52840_xxAA_s140_5.0.0-3.alpha.dir/__/__/__/models/pb_remote/src/pb_remote_client.c.obj
 .debug_aranges
                0x000001f0       0x70 examples/pb_remote/client/CMakeFiles/pb_remote_client_nrf52840_xxAA_s140_5.0.0-3.alpha.dir/__/__/__/mesh/prov/src/prov_provisioner.c.obj
 .debug_aranges
                0x00000260       0x78 examples/pb_remote/client/CMakeFiles/pb_remote_client_nrf52840_xxAA_s140_5.0.0-3.alpha.dir/__/__/__/mesh/prov/src/nrf_mesh_prov.c.obj
 .debug_aranges
                0x000002d8       0x80 examples/pb_remote/client/CMakeFiles/pb_remote_client_nrf52840_xxAA_s140_5.0.0-3.alpha.dir/__/__/__/mesh/prov/src/provisioning.c.obj
 .debug_aranges
                0x00000358       0x38 examples/pb_remote/client/CMakeFiles/pb_remote_client_nrf52840_xxAA_s140_5.0.0-3.alpha.dir/__/__/__/mesh/prov/src/prov_beacon.c.obj
 .debug_aranges
                0x00000390       0x70 examples/pb_remote/client/CMakeFiles/pb_remote_client_nrf52840_xxAA_s140_5.0.0-3.alpha.dir/__/__/__/mesh/prov/src/prov_utils.c.obj
 .debug_aranges
                0x00000400       0xc8 examples/pb_remote/client/CMakeFiles/pb_remote_client_nrf52840_xxAA_s140_5.0.0-3.alpha.dir/__/__/__/mesh/prov/src/prov_bearer_adv.c.obj
 .debug_aranges
                0x000004c8       0x50 examples/pb_remote/client/CMakeFiles/pb_remote_client_nrf52840_xxAA_s140_5.0.0-3.alpha.dir/__/__/__/mesh/access/src/access_publish.c.obj
 .debug_aranges
                0x00000518      0x1b0 examples/pb_remote/client/CMakeFiles/pb_remote_client_nrf52840_xxAA_s140_5.0.0-3.alpha.dir/__/__/__/mesh/access/src/access.c.obj
 .debug_aranges
                0x000006c8       0x50 examples/pb_remote/client/CMakeFiles/pb_remote_client_nrf52840_xxAA_s140_5.0.0-3.alpha.dir/__/__/__/mesh/access/src/access_reliable.c.obj
 .debug_aranges
                0x00000718      0x300 examples/pb_remote/client/CMakeFiles/pb_remote_client_nrf52840_xxAA_s140_5.0.0-3.alpha.dir/__/__/__/mesh/access/src/device_state_manager.c.obj
 .debug_aranges
                0x00000a18       0x28 examples/pb_remote/client/CMakeFiles/pb_remote_client_nrf52840_xxAA_s140_5.0.0-3.alpha.dir/__/__/nrf_mesh_weak.c.obj
 .debug_aranges
                0x00000a40       0x30 examples/pb_remote/client/CMakeFiles/pb_remote_client_nrf52840_xxAA_s140_5.0.0-3.alpha.dir/__/__/__/external/nRF5_SDK_14.2.0_17b948a/components/toolchain/system_nrf52840.c.obj
 .debug_aranges
                0x00000a70       0x30 mesh/core/libmesh_core_nrf52840_xxAA.a(nrf_mesh_configure.c.obj)
 .debug_aranges
                0x00000aa0       0x30 mesh/core/libmesh_core_nrf52840_xxAA.a(event.c.obj)
 .debug_aranges
                0x00000ad0       0x60 mesh/core/libmesh_core_nrf52840_xxAA.a(fifo.c.obj)
 .debug_aranges
                0x00000b30       0xc0 mesh/core/libmesh_core_nrf52840_xxAA.a(net_state.c.obj)
 .debug_aranges
                0x00000bf0       0x30 mesh/core/libmesh_core_nrf52840_xxAA.a(nrf_mesh_utils.c.obj)
 .debug_aranges
                0x00000c20       0x88 mesh/core/libmesh_core_nrf52840_xxAA.a(nrf_mesh.c.obj)
 .debug_aranges
                0x00000ca8       0x30 mesh/core/libmesh_core_nrf52840_xxAA.a(hal.c.obj)
 .debug_aranges
                0x00000cd8       0x68 mesh/core/libmesh_core_nrf52840_xxAA.a(timer_scheduler.c.obj)
 .debug_aranges
                0x00000d40       0x60 mesh/core/libmesh_core_nrf52840_xxAA.a(timer.c.obj)
 .debug_aranges
                0x00000da0       0x30 mesh/core/libmesh_core_nrf52840_xxAA.a(ticker.c.obj)
 .debug_aranges
                0x00000dd0       0x40 mesh/core/libmesh_core_nrf52840_xxAA.a(rand.c.obj)
 .debug_aranges
                0x00000e10       0xb8 mesh/core/libmesh_core_nrf52840_xxAA.a(timeslot.c.obj)
 .debug_aranges
                0x00000ec8       0x98 mesh/core/libmesh_core_nrf52840_xxAA.a(bearer_event.c.obj)
 .debug_aranges
                0x00000f60       0x70 mesh/core/libmesh_core_nrf52840_xxAA.a(enc.c.obj)
 .debug_aranges
                0x00000fd0       0x60 mesh/core/libmesh_core_nrf52840_xxAA.a(network.c.obj)
 .debug_aranges
                0x00001030       0x40 mesh/core/libmesh_core_nrf52840_xxAA.a(nrf_mesh_keygen.c.obj)
 .debug_aranges
                0x00001070       0x48 mesh/core/libmesh_core_nrf52840_xxAA.a(list.c.obj)
 .debug_aranges
                0x000010b8       0x48 mesh/core/libmesh_core_nrf52840_xxAA.a(log.c.obj)
 .debug_aranges
                0x00001100      0x100 mesh/core/libmesh_core_nrf52840_xxAA.a(flash_manager.c.obj)
 .debug_aranges
                0x00001200       0x50 mesh/core/libmesh_core_nrf52840_xxAA.a(ccm_soft.c.obj)
 .debug_aranges
                0x00001250       0x38 mesh/core/libmesh_core_nrf52840_xxAA.a(beacon.c.obj)
 .debug_aranges
                0x00001288       0x20 mesh/core/libmesh_core_nrf52840_xxAA.a(flash_manager_internal.c.obj)
 .debug_aranges
                0x000012a8       0x58 mesh/core/libmesh_core_nrf52840_xxAA.a(core_tx.c.obj)
 .debug_aranges
                0x00001300       0x70 mesh/core/libmesh_core_nrf52840_xxAA.a(heartbeat.c.obj)
 .debug_aranges
                0x00001370       0x48 mesh/core/libmesh_core_nrf52840_xxAA.a(net_beacon.c.obj)
 .debug_aranges
                0x000013b8       0x68 mesh/core/libmesh_core_nrf52840_xxAA.a(core_tx_adv.c.obj)
 .debug_aranges
                0x00001420       0x30 mesh/core/libmesh_core_nrf52840_xxAA.a(ad_listener.c.obj)
 .debug_aranges
                0x00001450       0x58 mesh/core/libmesh_core_nrf52840_xxAA.a(ad_type_filter.c.obj)
 .debug_aranges
                0x000014a8       0xb0 mesh/core/libmesh_core_nrf52840_xxAA.a(advertiser.c.obj)
 .debug_aranges
                0x00001558       0x70 mesh/core/libmesh_core_nrf52840_xxAA.a(bearer_handler.c.obj)
 .debug_aranges
                0x000015c8       0x30 mesh/core/libmesh_core_nrf52840_xxAA.a(broadcast.c.obj)
 .debug_aranges
                0x000015f8       0x38 mesh/core/libmesh_core_nrf52840_xxAA.a(filter_engine.c.obj)
 .debug_aranges
                0x00001630       0x40 mesh/core/libmesh_core_nrf52840_xxAA.a(radio_config.c.obj)
 .debug_aranges
                0x00001670       0xe0 mesh/core/libmesh_core_nrf52840_xxAA.a(scanner.c.obj)
 .debug_aranges
                0x00001750       0x30 mesh/core/libmesh_core_nrf52840_xxAA.a(internal_event.c.obj)
 .debug_aranges
                0x00001780       0x28 mesh/core/libmesh_core_nrf52840_xxAA.a(aes.c.obj)
 .debug_aranges
                0x000017a8       0x38 mesh/core/libmesh_core_nrf52840_xxAA.a(msg_cache.c.obj)
 .debug_aranges
                0x000017e0      0x120 mesh/core/libmesh_core_nrf52840_xxAA.a(transport.c.obj)
 .debug_aranges
                0x00001900       0x80 mesh/core/libmesh_core_nrf52840_xxAA.a(packet_buffer.c.obj)
 .debug_aranges
                0x00001980       0xc8 mesh/core/libmesh_core_nrf52840_xxAA.a(flash_manager_defrag.c.obj)
 .debug_aranges
                0x00001a48       0x48 mesh/core/libmesh_core_nrf52840_xxAA.a(packet_mgr.c.obj)
 .debug_aranges
                0x00001a90       0x60 mesh/core/libmesh_core_nrf52840_xxAA.a(mesh_flash.c.obj)
 .debug_aranges
                0x00001af0       0x38 mesh/core/libmesh_core_nrf52840_xxAA.a(queue.c.obj)
 .debug_aranges
                0x00001b28       0x38 mesh/core/libmesh_core_nrf52840_xxAA.a(aes_cmac.c.obj)
 .debug_aranges
                0x00001b60       0x28 mesh/core/libmesh_core_nrf52840_xxAA.a(nrf_mesh_opt.c.obj)
 .debug_aranges
                0x00001b88       0x48 mesh/core/libmesh_core_nrf52840_xxAA.a(msqueue.c.obj)
 .debug_aranges
                0x00001bd0       0x48 mesh/core/libmesh_core_nrf52840_xxAA.a(replay_cache.c.obj)
 .debug_aranges
                0x00001c18       0x30 mesh/core/libmesh_core_nrf52840_xxAA.a(nrf_flash.c.obj)
 .debug_aranges
                0x00001c48       0xd8 external/rtt/librtt_nrf52840_xxAA.a(SEGGER_RTT.c.obj)
 .debug_aranges
                0x00001d20       0x38 external/rtt/librtt_nrf52840_xxAA.a(SEGGER_RTT_printf.c.obj)
 .debug_aranges
                0x00001d58      0x1a8 external/micro-ecc/libuECC_nrf52840_xxAA.a(uECC.c.obj)

.debug_ranges   0x00000000     0x7ad0
 .debug_ranges  0x00000000      0x320 examples/pb_remote/client/CMakeFiles/pb_remote_client_nrf52840_xxAA_s140_5.0.0-3.alpha.dir/src/main.c.obj
 .debug_ranges  0x00000320      0x1a8 examples/pb_remote/client/CMakeFiles/pb_remote_client_nrf52840_xxAA_s140_5.0.0-3.alpha.dir/__/__/nrf_mesh_sdk.c.obj
 .debug_ranges  0x000004c8       0x20 examples/pb_remote/client/CMakeFiles/pb_remote_client_nrf52840_xxAA_s140_5.0.0-3.alpha.dir/__/__/common/src/rtt_input.c.obj
 .debug_ranges  0x000004e8      0x530 examples/pb_remote/client/CMakeFiles/pb_remote_client_nrf52840_xxAA_s140_5.0.0-3.alpha.dir/__/__/__/models/pb_remote/src/pb_remote_client.c.obj
 .debug_ranges  0x00000a18      0x128 examples/pb_remote/client/CMakeFiles/pb_remote_client_nrf52840_xxAA_s140_5.0.0-3.alpha.dir/__/__/__/mesh/prov/src/prov_provisioner.c.obj
 .debug_ranges  0x00000b40       0xb0 examples/pb_remote/client/CMakeFiles/pb_remote_client_nrf52840_xxAA_s140_5.0.0-3.alpha.dir/__/__/__/mesh/prov/src/nrf_mesh_prov.c.obj
 .debug_ranges  0x00000bf0       0xa0 examples/pb_remote/client/CMakeFiles/pb_remote_client_nrf52840_xxAA_s140_5.0.0-3.alpha.dir/__/__/__/mesh/prov/src/provisioning.c.obj
 .debug_ranges  0x00000c90       0x88 examples/pb_remote/client/CMakeFiles/pb_remote_client_nrf52840_xxAA_s140_5.0.0-3.alpha.dir/__/__/__/mesh/prov/src/prov_beacon.c.obj
 .debug_ranges  0x00000d18       0xb8 examples/pb_remote/client/CMakeFiles/pb_remote_client_nrf52840_xxAA_s140_5.0.0-3.alpha.dir/__/__/__/mesh/prov/src/prov_utils.c.obj
 .debug_ranges  0x00000dd0      0x6c8 examples/pb_remote/client/CMakeFiles/pb_remote_client_nrf52840_xxAA_s140_5.0.0-3.alpha.dir/__/__/__/mesh/prov/src/prov_bearer_adv.c.obj
 .debug_ranges  0x00001498      0x178 examples/pb_remote/client/CMakeFiles/pb_remote_client_nrf52840_xxAA_s140_5.0.0-3.alpha.dir/__/__/__/mesh/access/src/access_publish.c.obj
 .debug_ranges  0x00001610      0x778 examples/pb_remote/client/CMakeFiles/pb_remote_client_nrf52840_xxAA_s140_5.0.0-3.alpha.dir/__/__/__/mesh/access/src/access.c.obj
 .debug_ranges  0x00001d88      0x278 examples/pb_remote/client/CMakeFiles/pb_remote_client_nrf52840_xxAA_s140_5.0.0-3.alpha.dir/__/__/__/mesh/access/src/access_reliable.c.obj
 .debug_ranges  0x00002000      0xad0 examples/pb_remote/client/CMakeFiles/pb_remote_client_nrf52840_xxAA_s140_5.0.0-3.alpha.dir/__/__/__/mesh/access/src/device_state_manager.c.obj
 .debug_ranges  0x00002ad0       0x18 examples/pb_remote/client/CMakeFiles/pb_remote_client_nrf52840_xxAA_s140_5.0.0-3.alpha.dir/__/__/nrf_mesh_weak.c.obj
 .debug_ranges  0x00002ae8       0x20 examples/pb_remote/client/CMakeFiles/pb_remote_client_nrf52840_xxAA_s140_5.0.0-3.alpha.dir/__/__/__/external/nRF5_SDK_14.2.0_17b948a/components/toolchain/system_nrf52840.c.obj
 .debug_ranges  0x00002b08       0x20 mesh/core/libmesh_core_nrf52840_xxAA.a(nrf_mesh_configure.c.obj)
 .debug_ranges  0x00002b28       0x68 mesh/core/libmesh_core_nrf52840_xxAA.a(event.c.obj)
 .debug_ranges  0x00002b90       0xb0 mesh/core/libmesh_core_nrf52840_xxAA.a(fifo.c.obj)
 .debug_ranges  0x00002c40      0x248 mesh/core/libmesh_core_nrf52840_xxAA.a(net_state.c.obj)
 .debug_ranges  0x00002e88       0x38 mesh/core/libmesh_core_nrf52840_xxAA.a(nrf_mesh_utils.c.obj)
 .debug_ranges  0x00002ec0       0xf0 mesh/core/libmesh_core_nrf52840_xxAA.a(nrf_mesh.c.obj)
 .debug_ranges  0x00002fb0       0x20 mesh/core/libmesh_core_nrf52840_xxAA.a(hal.c.obj)
 .debug_ranges  0x00002fd0      0x260 mesh/core/libmesh_core_nrf52840_xxAA.a(timer_scheduler.c.obj)
 .debug_ranges  0x00003230      0x108 mesh/core/libmesh_core_nrf52840_xxAA.a(timer.c.obj)
 .debug_ranges  0x00003338       0x20 mesh/core/libmesh_core_nrf52840_xxAA.a(ticker.c.obj)
 .debug_ranges  0x00003358       0x48 mesh/core/libmesh_core_nrf52840_xxAA.a(rand.c.obj)
 .debug_ranges  0x000033a0      0x188 mesh/core/libmesh_core_nrf52840_xxAA.a(timeslot.c.obj)
 .debug_ranges  0x00003528      0x250 mesh/core/libmesh_core_nrf52840_xxAA.a(bearer_event.c.obj)
 .debug_ranges  0x00003778      0x120 mesh/core/libmesh_core_nrf52840_xxAA.a(enc.c.obj)
 .debug_ranges  0x00003898      0x518 mesh/core/libmesh_core_nrf52840_xxAA.a(network.c.obj)
 .debug_ranges  0x00003db0       0x30 mesh/core/libmesh_core_nrf52840_xxAA.a(nrf_mesh_keygen.c.obj)
 .debug_ranges  0x00003de0      0x1b0 mesh/core/libmesh_core_nrf52840_xxAA.a(list.c.obj)
 .debug_ranges  0x00003f90       0x38 mesh/core/libmesh_core_nrf52840_xxAA.a(log.c.obj)
 .debug_ranges  0x00003fc8      0x748 mesh/core/libmesh_core_nrf52840_xxAA.a(flash_manager.c.obj)
 .debug_ranges  0x00004710       0x40 mesh/core/libmesh_core_nrf52840_xxAA.a(ccm_soft.c.obj)
 .debug_ranges  0x00004750       0xd0 mesh/core/libmesh_core_nrf52840_xxAA.a(beacon.c.obj)
 .debug_ranges  0x00004820       0x68 mesh/core/libmesh_core_nrf52840_xxAA.a(flash_manager_internal.c.obj)
 .debug_ranges  0x00004888      0x270 mesh/core/libmesh_core_nrf52840_xxAA.a(core_tx.c.obj)
 .debug_ranges  0x00004af8      0x240 mesh/core/libmesh_core_nrf52840_xxAA.a(heartbeat.c.obj)
 .debug_ranges  0x00004d38       0xf0 mesh/core/libmesh_core_nrf52840_xxAA.a(net_beacon.c.obj)
 .debug_ranges  0x00004e28       0xe8 mesh/core/libmesh_core_nrf52840_xxAA.a(core_tx_adv.c.obj)
 .debug_ranges  0x00004f10       0xf8 mesh/core/libmesh_core_nrf52840_xxAA.a(ad_listener.c.obj)
 .debug_ranges  0x00005008       0xe8 mesh/core/libmesh_core_nrf52840_xxAA.a(ad_type_filter.c.obj)
 .debug_ranges  0x000050f0      0x4a8 mesh/core/libmesh_core_nrf52840_xxAA.a(advertiser.c.obj)
 .debug_ranges  0x00005598      0x290 mesh/core/libmesh_core_nrf52840_xxAA.a(bearer_handler.c.obj)
 .debug_ranges  0x00005828      0x130 mesh/core/libmesh_core_nrf52840_xxAA.a(broadcast.c.obj)
 .debug_ranges  0x00005958       0x90 mesh/core/libmesh_core_nrf52840_xxAA.a(filter_engine.c.obj)
 .debug_ranges  0x000059e8      0x100 mesh/core/libmesh_core_nrf52840_xxAA.a(radio_config.c.obj)
 .debug_ranges  0x00005ae8      0x2c0 mesh/core/libmesh_core_nrf52840_xxAA.a(scanner.c.obj)
 .debug_ranges  0x00005da8       0x20 mesh/core/libmesh_core_nrf52840_xxAA.a(internal_event.c.obj)
 .debug_ranges  0x00005dc8       0x18 mesh/core/libmesh_core_nrf52840_xxAA.a(aes.c.obj)
 .debug_ranges  0x00005de0       0x48 mesh/core/libmesh_core_nrf52840_xxAA.a(msg_cache.c.obj)
 .debug_ranges  0x00005e28      0x918 mesh/core/libmesh_core_nrf52840_xxAA.a(transport.c.obj)
 .debug_ranges  0x00006740      0x3b8 mesh/core/libmesh_core_nrf52840_xxAA.a(packet_buffer.c.obj)
 .debug_ranges  0x00006af8      0x368 mesh/core/libmesh_core_nrf52840_xxAA.a(flash_manager_defrag.c.obj)
 .debug_ranges  0x00006e60      0x160 mesh/core/libmesh_core_nrf52840_xxAA.a(packet_mgr.c.obj)
 .debug_ranges  0x00006fc0      0x368 mesh/core/libmesh_core_nrf52840_xxAA.a(mesh_flash.c.obj)
 .debug_ranges  0x00007328       0xa0 mesh/core/libmesh_core_nrf52840_xxAA.a(queue.c.obj)
 .debug_ranges  0x000073c8       0x98 mesh/core/libmesh_core_nrf52840_xxAA.a(aes_cmac.c.obj)
 .debug_ranges  0x00007460       0x18 mesh/core/libmesh_core_nrf52840_xxAA.a(nrf_mesh_opt.c.obj)
 .debug_ranges  0x00007478      0x158 mesh/core/libmesh_core_nrf52840_xxAA.a(msqueue.c.obj)
 .debug_ranges  0x000075d0       0x68 mesh/core/libmesh_core_nrf52840_xxAA.a(replay_cache.c.obj)
 .debug_ranges  0x00007638       0x38 mesh/core/libmesh_core_nrf52840_xxAA.a(nrf_flash.c.obj)
 .debug_ranges  0x00007670      0x130 external/rtt/librtt_nrf52840_xxAA.a(SEGGER_RTT.c.obj)
 .debug_ranges  0x000077a0       0x48 external/rtt/librtt_nrf52840_xxAA.a(SEGGER_RTT_printf.c.obj)
 .debug_ranges  0x000077e8      0x2e8 external/micro-ecc/libuECC_nrf52840_xxAA.a(uECC.c.obj)

.debug_line     0x00000000    0x16702
 .debug_line    0x00000000      0xd4c examples/pb_remote/client/CMakeFiles/pb_remote_client_nrf52840_xxAA_s140_5.0.0-3.alpha.dir/src/main.c.obj
 .debug_line    0x00000d4c      0x788 examples/pb_remote/client/CMakeFiles/pb_remote_client_nrf52840_xxAA_s140_5.0.0-3.alpha.dir/__/__/nrf_mesh_sdk.c.obj
 .debug_line    0x000014d4      0x2e4 examples/pb_remote/client/CMakeFiles/pb_remote_client_nrf52840_xxAA_s140_5.0.0-3.alpha.dir/__/__/common/src/rtt_input.c.obj
 .debug_line    0x000017b8      0xe2b examples/pb_remote/client/CMakeFiles/pb_remote_client_nrf52840_xxAA_s140_5.0.0-3.alpha.dir/__/__/__/models/pb_remote/src/pb_remote_client.c.obj
 .debug_line    0x000025e3      0x589 examples/pb_remote/client/CMakeFiles/pb_remote_client_nrf52840_xxAA_s140_5.0.0-3.alpha.dir/__/__/__/mesh/prov/src/prov_provisioner.c.obj
 .debug_line    0x00002b6c      0x4f9 examples/pb_remote/client/CMakeFiles/pb_remote_client_nrf52840_xxAA_s140_5.0.0-3.alpha.dir/__/__/__/mesh/prov/src/nrf_mesh_prov.c.obj
 .debug_line    0x00003065      0x3e1 examples/pb_remote/client/CMakeFiles/pb_remote_client_nrf52840_xxAA_s140_5.0.0-3.alpha.dir/__/__/__/mesh/prov/src/provisioning.c.obj
 .debug_line    0x00003446      0x4a3 examples/pb_remote/client/CMakeFiles/pb_remote_client_nrf52840_xxAA_s140_5.0.0-3.alpha.dir/__/__/__/mesh/prov/src/prov_beacon.c.obj
 .debug_line    0x000038e9      0x4b8 examples/pb_remote/client/CMakeFiles/pb_remote_client_nrf52840_xxAA_s140_5.0.0-3.alpha.dir/__/__/__/mesh/prov/src/prov_utils.c.obj
 .debug_line    0x00003da1      0xc3d examples/pb_remote/client/CMakeFiles/pb_remote_client_nrf52840_xxAA_s140_5.0.0-3.alpha.dir/__/__/__/mesh/prov/src/prov_bearer_adv.c.obj
 .debug_line    0x000049de      0x44c examples/pb_remote/client/CMakeFiles/pb_remote_client_nrf52840_xxAA_s140_5.0.0-3.alpha.dir/__/__/__/mesh/access/src/access_publish.c.obj
 .debug_line    0x00004e2a      0xe65 examples/pb_remote/client/CMakeFiles/pb_remote_client_nrf52840_xxAA_s140_5.0.0-3.alpha.dir/__/__/__/mesh/access/src/access.c.obj
 .debug_line    0x00005c8f      0x50b examples/pb_remote/client/CMakeFiles/pb_remote_client_nrf52840_xxAA_s140_5.0.0-3.alpha.dir/__/__/__/mesh/access/src/access_reliable.c.obj
 .debug_line    0x0000619a     0x1442 examples/pb_remote/client/CMakeFiles/pb_remote_client_nrf52840_xxAA_s140_5.0.0-3.alpha.dir/__/__/__/mesh/access/src/device_state_manager.c.obj
 .debug_line    0x000075dc      0x228 examples/pb_remote/client/CMakeFiles/pb_remote_client_nrf52840_xxAA_s140_5.0.0-3.alpha.dir/__/__/nrf_mesh_weak.c.obj
 .debug_line    0x00007804      0x247 examples/pb_remote/client/CMakeFiles/pb_remote_client_nrf52840_xxAA_s140_5.0.0-3.alpha.dir/__/__/__/external/nRF5_SDK_14.2.0_17b948a/components/toolchain/system_nrf52840.c.obj
 .debug_line    0x00007a4b      0x269 mesh/core/libmesh_core_nrf52840_xxAA.a(nrf_mesh_configure.c.obj)
 .debug_line    0x00007cb4      0x321 mesh/core/libmesh_core_nrf52840_xxAA.a(event.c.obj)
 .debug_line    0x00007fd5      0x3a9 mesh/core/libmesh_core_nrf52840_xxAA.a(fifo.c.obj)
 .debug_line    0x0000837e      0x6be mesh/core/libmesh_core_nrf52840_xxAA.a(net_state.c.obj)
 .debug_line    0x00008a3c      0x265 mesh/core/libmesh_core_nrf52840_xxAA.a(nrf_mesh_utils.c.obj)
 .debug_line    0x00008ca1      0x7b1 mesh/core/libmesh_core_nrf52840_xxAA.a(nrf_mesh.c.obj)
 .debug_line    0x00009452      0x253 mesh/core/libmesh_core_nrf52840_xxAA.a(hal.c.obj)
 .debug_line    0x000096a5      0x4a6 mesh/core/libmesh_core_nrf52840_xxAA.a(timer_scheduler.c.obj)
 .debug_line    0x00009b4b      0x41b mesh/core/libmesh_core_nrf52840_xxAA.a(timer.c.obj)
 .debug_line    0x00009f66      0x122 mesh/core/libmesh_core_nrf52840_xxAA.a(ticker.c.obj)
 .debug_line    0x0000a088      0x2a3 mesh/core/libmesh_core_nrf52840_xxAA.a(rand.c.obj)
 .debug_line    0x0000a32b      0x5cf mesh/core/libmesh_core_nrf52840_xxAA.a(timeslot.c.obj)
 .debug_line    0x0000a8fa      0x60e mesh/core/libmesh_core_nrf52840_xxAA.a(bearer_event.c.obj)
 .debug_line    0x0000af08      0x45d mesh/core/libmesh_core_nrf52840_xxAA.a(enc.c.obj)
 .debug_line    0x0000b365      0x84f mesh/core/libmesh_core_nrf52840_xxAA.a(network.c.obj)
 .debug_line    0x0000bbb4      0x239 mesh/core/libmesh_core_nrf52840_xxAA.a(nrf_mesh_keygen.c.obj)
 .debug_line    0x0000bded      0x376 mesh/core/libmesh_core_nrf52840_xxAA.a(list.c.obj)
 .debug_line    0x0000c163      0x287 mesh/core/libmesh_core_nrf52840_xxAA.a(log.c.obj)
 .debug_line    0x0000c3ea      0xaa0 mesh/core/libmesh_core_nrf52840_xxAA.a(flash_manager.c.obj)
 .debug_line    0x0000ce8a      0x34e mesh/core/libmesh_core_nrf52840_xxAA.a(ccm_soft.c.obj)
 .debug_line    0x0000d1d8      0x546 mesh/core/libmesh_core_nrf52840_xxAA.a(beacon.c.obj)
 .debug_line    0x0000d71e      0x29c mesh/core/libmesh_core_nrf52840_xxAA.a(flash_manager_internal.c.obj)
 .debug_line    0x0000d9ba      0x474 mesh/core/libmesh_core_nrf52840_xxAA.a(core_tx.c.obj)
 .debug_line    0x0000de2e      0x632 mesh/core/libmesh_core_nrf52840_xxAA.a(heartbeat.c.obj)
 .debug_line    0x0000e460      0x441 mesh/core/libmesh_core_nrf52840_xxAA.a(net_beacon.c.obj)
 .debug_line    0x0000e8a1      0x49f mesh/core/libmesh_core_nrf52840_xxAA.a(core_tx_adv.c.obj)
 .debug_line    0x0000ed40      0x368 mesh/core/libmesh_core_nrf52840_xxAA.a(ad_listener.c.obj)
 .debug_line    0x0000f0a8      0x419 mesh/core/libmesh_core_nrf52840_xxAA.a(ad_type_filter.c.obj)
 .debug_line    0x0000f4c1      0x835 mesh/core/libmesh_core_nrf52840_xxAA.a(advertiser.c.obj)
 .debug_line    0x0000fcf6      0x5c7 mesh/core/libmesh_core_nrf52840_xxAA.a(bearer_handler.c.obj)
 .debug_line    0x000102bd      0x3ce mesh/core/libmesh_core_nrf52840_xxAA.a(broadcast.c.obj)
 .debug_line    0x0001068b      0x36c mesh/core/libmesh_core_nrf52840_xxAA.a(filter_engine.c.obj)
 .debug_line    0x000109f7      0x326 mesh/core/libmesh_core_nrf52840_xxAA.a(radio_config.c.obj)
 .debug_line    0x00010d1d      0x76a mesh/core/libmesh_core_nrf52840_xxAA.a(scanner.c.obj)
 .debug_line    0x00011487      0x2a5 mesh/core/libmesh_core_nrf52840_xxAA.a(internal_event.c.obj)
 .debug_line    0x0001172c      0x26a mesh/core/libmesh_core_nrf52840_xxAA.a(aes.c.obj)
 .debug_line    0x00011996      0x29b mesh/core/libmesh_core_nrf52840_xxAA.a(msg_cache.c.obj)
 .debug_line    0x00011c31     0x1042 mesh/core/libmesh_core_nrf52840_xxAA.a(transport.c.obj)
 .debug_line    0x00012c73      0x6f3 mesh/core/libmesh_core_nrf52840_xxAA.a(packet_buffer.c.obj)
 .debug_line    0x00013366      0x7ed mesh/core/libmesh_core_nrf52840_xxAA.a(flash_manager_defrag.c.obj)
 .debug_line    0x00013b53      0x45b mesh/core/libmesh_core_nrf52840_xxAA.a(packet_mgr.c.obj)
 .debug_line    0x00013fae      0x5ac mesh/core/libmesh_core_nrf52840_xxAA.a(mesh_flash.c.obj)
 .debug_line    0x0001455a      0x2d5 mesh/core/libmesh_core_nrf52840_xxAA.a(queue.c.obj)
 .debug_line    0x0001482f      0x2d7 mesh/core/libmesh_core_nrf52840_xxAA.a(aes_cmac.c.obj)
 .debug_line    0x00014b06      0x294 mesh/core/libmesh_core_nrf52840_xxAA.a(nrf_mesh_opt.c.obj)
 .debug_line    0x00014d9a      0x38b mesh/core/libmesh_core_nrf52840_xxAA.a(msqueue.c.obj)
 .debug_line    0x00015125      0x1f1 mesh/core/libmesh_core_nrf52840_xxAA.a(replay_cache.c.obj)
 .debug_line    0x00015316      0x2af mesh/core/libmesh_core_nrf52840_xxAA.a(nrf_flash.c.obj)
 .debug_line    0x000155c5      0x4c0 external/rtt/librtt_nrf52840_xxAA.a(SEGGER_RTT.c.obj)
 .debug_line    0x00015a85      0x282 external/rtt/librtt_nrf52840_xxAA.a(SEGGER_RTT_printf.c.obj)
 .debug_line    0x00015d07      0x9fb external/micro-ecc/libuECC_nrf52840_xxAA.a(uECC.c.obj)

.debug_str      0x00000000    0x118c4
 .debug_str     0x00000000     0x2f21 examples/pb_remote/client/CMakeFiles/pb_remote_client_nrf52840_xxAA_s140_5.0.0-3.alpha.dir/src/main.c.obj
                               0x3336 (size before relaxing)
 .debug_str     0x00002f21     0x1469 examples/pb_remote/client/CMakeFiles/pb_remote_client_nrf52840_xxAA_s140_5.0.0-3.alpha.dir/__/__/nrf_mesh_sdk.c.obj
                               0x2183 (size before relaxing)
 .debug_str     0x0000438a       0xf1 examples/pb_remote/client/CMakeFiles/pb_remote_client_nrf52840_xxAA_s140_5.0.0-3.alpha.dir/__/__/common/src/rtt_input.c.obj
                                0xbae (size before relaxing)
 .debug_str     0x0000447b     0x13a4 examples/pb_remote/client/CMakeFiles/pb_remote_client_nrf52840_xxAA_s140_5.0.0-3.alpha.dir/__/__/__/models/pb_remote/src/pb_remote_client.c.obj
                               0x2408 (size before relaxing)
 .debug_str     0x0000581f      0x550 examples/pb_remote/client/CMakeFiles/pb_remote_client_nrf52840_xxAA_s140_5.0.0-3.alpha.dir/__/__/__/mesh/prov/src/prov_provisioner.c.obj
                               0x1eb9 (size before relaxing)
 .debug_str     0x00005d6f      0x1ea examples/pb_remote/client/CMakeFiles/pb_remote_client_nrf52840_xxAA_s140_5.0.0-3.alpha.dir/__/__/__/mesh/prov/src/nrf_mesh_prov.c.obj
                               0x1c8f (size before relaxing)
 .debug_str     0x00005f59      0x10f examples/pb_remote/client/CMakeFiles/pb_remote_client_nrf52840_xxAA_s140_5.0.0-3.alpha.dir/__/__/__/mesh/prov/src/provisioning.c.obj
                                0xf45 (size before relaxing)
 .debug_str     0x00006068      0x113 examples/pb_remote/client/CMakeFiles/pb_remote_client_nrf52840_xxAA_s140_5.0.0-3.alpha.dir/__/__/__/mesh/prov/src/prov_beacon.c.obj
                               0x18cc (size before relaxing)
 .debug_str     0x0000617b      0x438 examples/pb_remote/client/CMakeFiles/pb_remote_client_nrf52840_xxAA_s140_5.0.0-3.alpha.dir/__/__/__/mesh/prov/src/prov_utils.c.obj
                               0x1e53 (size before relaxing)
 .debug_str     0x000065b3      0x566 examples/pb_remote/client/CMakeFiles/pb_remote_client_nrf52840_xxAA_s140_5.0.0-3.alpha.dir/__/__/__/mesh/prov/src/prov_bearer_adv.c.obj
                               0x1b5a (size before relaxing)
 .debug_str     0x00006b19      0x3bc examples/pb_remote/client/CMakeFiles/pb_remote_client_nrf52840_xxAA_s140_5.0.0-3.alpha.dir/__/__/__/mesh/access/src/access_publish.c.obj
                                0xbe6 (size before relaxing)
 .debug_str     0x00006ed5     0x1a70 examples/pb_remote/client/CMakeFiles/pb_remote_client_nrf52840_xxAA_s140_5.0.0-3.alpha.dir/__/__/__/mesh/access/src/access.c.obj
                               0x2b46 (size before relaxing)
 .debug_str     0x00008945      0x135 examples/pb_remote/client/CMakeFiles/pb_remote_client_nrf52840_xxAA_s140_5.0.0-3.alpha.dir/__/__/__/mesh/access/src/access_reliable.c.obj
                                0xcb4 (size before relaxing)
 .debug_str     0x00008a7a     0x118c examples/pb_remote/client/CMakeFiles/pb_remote_client_nrf52840_xxAA_s140_5.0.0-3.alpha.dir/__/__/__/mesh/access/src/device_state_manager.c.obj
                               0x2e6b (size before relaxing)
 .debug_str     0x00009c06       0x3c examples/pb_remote/client/CMakeFiles/pb_remote_client_nrf52840_xxAA_s140_5.0.0-3.alpha.dir/__/__/nrf_mesh_weak.c.obj
                                0x64d (size before relaxing)
 .debug_str     0x00009c42      0x5c0 examples/pb_remote/client/CMakeFiles/pb_remote_client_nrf52840_xxAA_s140_5.0.0-3.alpha.dir/__/__/__/external/nRF5_SDK_14.2.0_17b948a/components/toolchain/system_nrf52840.c.obj
                                0x8b6 (size before relaxing)
 .debug_str     0x0000a202       0x75 mesh/core/libmesh_core_nrf52840_xxAA.a(nrf_mesh_configure.c.obj)
                                0x77e (size before relaxing)
 .debug_str     0x0000a277       0x82 mesh/core/libmesh_core_nrf52840_xxAA.a(event.c.obj)
                               0x14d3 (size before relaxing)
 .debug_str     0x0000a2f9       0x76 mesh/core/libmesh_core_nrf52840_xxAA.a(fifo.c.obj)
                                0x6f5 (size before relaxing)
 .debug_str     0x0000a36f      0x367 mesh/core/libmesh_core_nrf52840_xxAA.a(net_state.c.obj)
                               0x1e46 (size before relaxing)
 .debug_str     0x0000a6d6       0x8b mesh/core/libmesh_core_nrf52840_xxAA.a(nrf_mesh_utils.c.obj)
                                0x76b (size before relaxing)
 .debug_str     0x0000a761      0x5c2 mesh/core/libmesh_core_nrf52840_xxAA.a(nrf_mesh.c.obj)
                               0x2bc5 (size before relaxing)
 .debug_str     0x0000ad23       0x7a mesh/core/libmesh_core_nrf52840_xxAA.a(hal.c.obj)
                                0x72f (size before relaxing)
 .debug_str     0x0000ad9d      0x14a mesh/core/libmesh_core_nrf52840_xxAA.a(timer_scheduler.c.obj)
                                0x94e (size before relaxing)
 .debug_str     0x0000aee7      0x1e5 mesh/core/libmesh_core_nrf52840_xxAA.a(timer.c.obj)
                                0x8c8 (size before relaxing)
 .debug_str     0x0000b0cc       0x3c mesh/core/libmesh_core_nrf52840_xxAA.a(ticker.c.obj)
                                0x34c (size before relaxing)
 .debug_str     0x0000b108       0xac mesh/core/libmesh_core_nrf52840_xxAA.a(rand.c.obj)
                                0x6db (size before relaxing)
 .debug_str     0x0000b1b4      0x8ba mesh/core/libmesh_core_nrf52840_xxAA.a(timeslot.c.obj)
                               0x1839 (size before relaxing)
 .debug_str     0x0000ba6e      0x2c9 mesh/core/libmesh_core_nrf52840_xxAA.a(bearer_event.c.obj)
                                0xf18 (size before relaxing)
 .debug_str     0x0000bd37      0x1c1 mesh/core/libmesh_core_nrf52840_xxAA.a(enc.c.obj)
                                0x9d4 (size before relaxing)
 .debug_str     0x0000bef8      0x9b6 mesh/core/libmesh_core_nrf52840_xxAA.a(network.c.obj)
                               0x19c2 (size before relaxing)
 .debug_str     0x0000c8ae       0x57 mesh/core/libmesh_core_nrf52840_xxAA.a(nrf_mesh_keygen.c.obj)
                                0x397 (size before relaxing)
 .debug_str     0x0000c905       0x65 mesh/core/libmesh_core_nrf52840_xxAA.a(list.c.obj)
                                0x2d8 (size before relaxing)
 .debug_str     0x0000c96a       0xf0 mesh/core/libmesh_core_nrf52840_xxAA.a(log.c.obj)
                                0x7d0 (size before relaxing)
 .debug_str     0x0000ca5a      0x8cb mesh/core/libmesh_core_nrf52840_xxAA.a(flash_manager.c.obj)
                               0x19d1 (size before relaxing)
 .debug_str     0x0000d325       0x85 mesh/core/libmesh_core_nrf52840_xxAA.a(ccm_soft.c.obj)
                                0x75d (size before relaxing)
 .debug_str     0x0000d3aa       0xb2 mesh/core/libmesh_core_nrf52840_xxAA.a(beacon.c.obj)
                               0x1133 (size before relaxing)
 .debug_str     0x0000d45c       0x38 mesh/core/libmesh_core_nrf52840_xxAA.a(flash_manager_internal.c.obj)
                                0x7be (size before relaxing)
 .debug_str     0x0000d494      0x142 mesh/core/libmesh_core_nrf52840_xxAA.a(core_tx.c.obj)
                                0x8bd (size before relaxing)
 .debug_str     0x0000d5d6      0x74b mesh/core/libmesh_core_nrf52840_xxAA.a(heartbeat.c.obj)
                               0x203b (size before relaxing)
 .debug_str     0x0000dd21      0x1d1 mesh/core/libmesh_core_nrf52840_xxAA.a(net_beacon.c.obj)
                                0xe84 (size before relaxing)
 .debug_str     0x0000def2      0x102 mesh/core/libmesh_core_nrf52840_xxAA.a(core_tx_adv.c.obj)
                               0x104b (size before relaxing)
 .debug_str     0x0000dff4      0x189 mesh/core/libmesh_core_nrf52840_xxAA.a(ad_listener.c.obj)
                                0xb7f (size before relaxing)
 .debug_str     0x0000e17d      0x14f mesh/core/libmesh_core_nrf52840_xxAA.a(ad_type_filter.c.obj)
                                0x9b9 (size before relaxing)
 .debug_str     0x0000e2cc      0x339 mesh/core/libmesh_core_nrf52840_xxAA.a(advertiser.c.obj)
                               0x150c (size before relaxing)
 .debug_str     0x0000e605      0x474 mesh/core/libmesh_core_nrf52840_xxAA.a(bearer_handler.c.obj)
                               0x110a (size before relaxing)
 .debug_str     0x0000ea79      0x1ac mesh/core/libmesh_core_nrf52840_xxAA.a(broadcast.c.obj)
                               0x1068 (size before relaxing)
 .debug_str     0x0000ec25       0x72 mesh/core/libmesh_core_nrf52840_xxAA.a(filter_engine.c.obj)
                                0x826 (size before relaxing)
 .debug_str     0x0000ec97       0x79 mesh/core/libmesh_core_nrf52840_xxAA.a(radio_config.c.obj)
                                0x8b6 (size before relaxing)
 .debug_str     0x0000ed10      0x45d mesh/core/libmesh_core_nrf52840_xxAA.a(scanner.c.obj)
                               0x1a53 (size before relaxing)
 .debug_str     0x0000f16d       0xc0 mesh/core/libmesh_core_nrf52840_xxAA.a(internal_event.c.obj)
                                0xa93 (size before relaxing)
 .debug_str     0x0000f22d       0xc1 mesh/core/libmesh_core_nrf52840_xxAA.a(aes.c.obj)
                                0xa6d (size before relaxing)
 .debug_str     0x0000f2ee       0x71 mesh/core/libmesh_core_nrf52840_xxAA.a(msg_cache.c.obj)
                                0x6ea (size before relaxing)
 .debug_str     0x0000f35f      0xd41 mesh/core/libmesh_core_nrf52840_xxAA.a(transport.c.obj)
                               0x31e5 (size before relaxing)
 .debug_str     0x000100a0      0x2cd mesh/core/libmesh_core_nrf52840_xxAA.a(packet_buffer.c.obj)
                                0xc2f (size before relaxing)
 .debug_str     0x0001036d      0x36b mesh/core/libmesh_core_nrf52840_xxAA.a(flash_manager_defrag.c.obj)
                               0x1545 (size before relaxing)
 .debug_str     0x000106d8      0x266 mesh/core/libmesh_core_nrf52840_xxAA.a(packet_mgr.c.obj)
                                0x9ca (size before relaxing)
 .debug_str     0x0001093e      0x343 mesh/core/libmesh_core_nrf52840_xxAA.a(mesh_flash.c.obj)
                                0xcf6 (size before relaxing)
 .debug_str     0x00010c81       0x19 mesh/core/libmesh_core_nrf52840_xxAA.a(queue.c.obj)
                                0x69d (size before relaxing)
 .debug_str     0x00010c9a       0xb2 mesh/core/libmesh_core_nrf52840_xxAA.a(aes_cmac.c.obj)
                                0x715 (size before relaxing)
 .debug_str     0x00010d4c       0x31 mesh/core/libmesh_core_nrf52840_xxAA.a(nrf_mesh_opt.c.obj)
                                0x921 (size before relaxing)
 .debug_str     0x00010d7d       0x43 mesh/core/libmesh_core_nrf52840_xxAA.a(msqueue.c.obj)
                                0x6d9 (size before relaxing)
 .debug_str     0x00010dc0       0x9f mesh/core/libmesh_core_nrf52840_xxAA.a(replay_cache.c.obj)
                                0x6b0 (size before relaxing)
 .debug_str     0x00010e5f       0x36 mesh/core/libmesh_core_nrf52840_xxAA.a(nrf_flash.c.obj)
                                0x700 (size before relaxing)
 .debug_str     0x00010e95      0x2bf external/rtt/librtt_nrf52840_xxAA.a(SEGGER_RTT.c.obj)
                                0x922 (size before relaxing)
 .debug_str     0x00011154       0xdf external/rtt/librtt_nrf52840_xxAA.a(SEGGER_RTT_printf.c.obj)
                                0x792 (size before relaxing)
 .debug_str     0x00011233      0x691 external/micro-ecc/libuECC_nrf52840_xxAA.a(uECC.c.obj)
                                0x880 (size before relaxing)

.debug_frame    0x00000000     0x6084
 .debug_frame   0x00000000       0xe0 examples/pb_remote/client/CMakeFiles/pb_remote_client_nrf52840_xxAA_s140_5.0.0-3.alpha.dir/src/main.c.obj
 .debug_frame   0x000000e0      0x17c examples/pb_remote/client/CMakeFiles/pb_remote_client_nrf52840_xxAA_s140_5.0.0-3.alpha.dir/__/__/nrf_mesh_sdk.c.obj
 .debug_frame   0x0000025c       0x54 examples/pb_remote/client/CMakeFiles/pb_remote_client_nrf52840_xxAA_s140_5.0.0-3.alpha.dir/__/__/common/src/rtt_input.c.obj
 .debug_frame   0x000002b0      0x3a4 examples/pb_remote/client/CMakeFiles/pb_remote_client_nrf52840_xxAA_s140_5.0.0-3.alpha.dir/__/__/__/models/pb_remote/src/pb_remote_client.c.obj
 .debug_frame   0x00000654      0x170 examples/pb_remote/client/CMakeFiles/pb_remote_client_nrf52840_xxAA_s140_5.0.0-3.alpha.dir/__/__/__/mesh/prov/src/prov_provisioner.c.obj
 .debug_frame   0x000007c4      0x124 examples/pb_remote/client/CMakeFiles/pb_remote_client_nrf52840_xxAA_s140_5.0.0-3.alpha.dir/__/__/__/mesh/prov/src/nrf_mesh_prov.c.obj
 .debug_frame   0x000008e8      0x174 examples/pb_remote/client/CMakeFiles/pb_remote_client_nrf52840_xxAA_s140_5.0.0-3.alpha.dir/__/__/__/mesh/prov/src/provisioning.c.obj
 .debug_frame   0x00000a5c       0x84 examples/pb_remote/client/CMakeFiles/pb_remote_client_nrf52840_xxAA_s140_5.0.0-3.alpha.dir/__/__/__/mesh/prov/src/prov_beacon.c.obj
 .debug_frame   0x00000ae0      0x150 examples/pb_remote/client/CMakeFiles/pb_remote_client_nrf52840_xxAA_s140_5.0.0-3.alpha.dir/__/__/__/mesh/prov/src/prov_utils.c.obj
 .debug_frame   0x00000c30      0x328 examples/pb_remote/client/CMakeFiles/pb_remote_client_nrf52840_xxAA_s140_5.0.0-3.alpha.dir/__/__/__/mesh/prov/src/prov_bearer_adv.c.obj
 .debug_frame   0x00000f58      0x114 examples/pb_remote/client/CMakeFiles/pb_remote_client_nrf52840_xxAA_s140_5.0.0-3.alpha.dir/__/__/__/mesh/access/src/access_publish.c.obj
 .debug_frame   0x0000106c      0x544 examples/pb_remote/client/CMakeFiles/pb_remote_client_nrf52840_xxAA_s140_5.0.0-3.alpha.dir/__/__/__/mesh/access/src/access.c.obj
 .debug_frame   0x000015b0      0x10c examples/pb_remote/client/CMakeFiles/pb_remote_client_nrf52840_xxAA_s140_5.0.0-3.alpha.dir/__/__/__/mesh/access/src/access_reliable.c.obj
 .debug_frame   0x000016bc      0xa88 examples/pb_remote/client/CMakeFiles/pb_remote_client_nrf52840_xxAA_s140_5.0.0-3.alpha.dir/__/__/__/mesh/access/src/device_state_manager.c.obj
 .debug_frame   0x00002144       0x30 examples/pb_remote/client/CMakeFiles/pb_remote_client_nrf52840_xxAA_s140_5.0.0-3.alpha.dir/__/__/nrf_mesh_weak.c.obj
 .debug_frame   0x00002174       0x48 examples/pb_remote/client/CMakeFiles/pb_remote_client_nrf52840_xxAA_s140_5.0.0-3.alpha.dir/__/__/__/external/nRF5_SDK_14.2.0_17b948a/components/toolchain/system_nrf52840.c.obj
 .debug_frame   0x000021bc       0x4c mesh/core/libmesh_core_nrf52840_xxAA.a(nrf_mesh_configure.c.obj)
 .debug_frame   0x00002208       0x6c mesh/core/libmesh_core_nrf52840_xxAA.a(event.c.obj)
 .debug_frame   0x00002274       0xd0 mesh/core/libmesh_core_nrf52840_xxAA.a(fifo.c.obj)
 .debug_frame   0x00002344      0x264 mesh/core/libmesh_core_nrf52840_xxAA.a(net_state.c.obj)
 .debug_frame   0x000025a8       0x50 mesh/core/libmesh_core_nrf52840_xxAA.a(nrf_mesh_utils.c.obj)
 .debug_frame   0x000025f8      0x15c mesh/core/libmesh_core_nrf52840_xxAA.a(nrf_mesh.c.obj)
 .debug_frame   0x00002754       0x48 mesh/core/libmesh_core_nrf52840_xxAA.a(hal.c.obj)
 .debug_frame   0x0000279c      0x13c mesh/core/libmesh_core_nrf52840_xxAA.a(timer_scheduler.c.obj)
 .debug_frame   0x000028d8      0x10c mesh/core/libmesh_core_nrf52840_xxAA.a(timer.c.obj)
 .debug_frame   0x000029e4       0x4c mesh/core/libmesh_core_nrf52840_xxAA.a(ticker.c.obj)
 .debug_frame   0x00002a30       0x84 mesh/core/libmesh_core_nrf52840_xxAA.a(rand.c.obj)
 .debug_frame   0x00002ab4      0x1a0 mesh/core/libmesh_core_nrf52840_xxAA.a(timeslot.c.obj)
 .debug_frame   0x00002c54      0x1c8 mesh/core/libmesh_core_nrf52840_xxAA.a(bearer_event.c.obj)
 .debug_frame   0x00002e1c      0x150 mesh/core/libmesh_core_nrf52840_xxAA.a(enc.c.obj)
 .debug_frame   0x00002f6c      0x14c mesh/core/libmesh_core_nrf52840_xxAA.a(network.c.obj)
 .debug_frame   0x000030b8       0xb4 mesh/core/libmesh_core_nrf52840_xxAA.a(nrf_mesh_keygen.c.obj)
 .debug_frame   0x0000316c       0xd4 mesh/core/libmesh_core_nrf52840_xxAA.a(list.c.obj)
 .debug_frame   0x00003240       0xb0 mesh/core/libmesh_core_nrf52840_xxAA.a(log.c.obj)
 .debug_frame   0x000032f0      0x33c mesh/core/libmesh_core_nrf52840_xxAA.a(flash_manager.c.obj)
 .debug_frame   0x0000362c      0x10c mesh/core/libmesh_core_nrf52840_xxAA.a(ccm_soft.c.obj)
 .debug_frame   0x00003738       0x98 mesh/core/libmesh_core_nrf52840_xxAA.a(beacon.c.obj)
 .debug_frame   0x000037d0       0x34 mesh/core/libmesh_core_nrf52840_xxAA.a(flash_manager_internal.c.obj)
 .debug_frame   0x00003804       0xe8 mesh/core/libmesh_core_nrf52840_xxAA.a(core_tx.c.obj)
 .debug_frame   0x000038ec      0x164 mesh/core/libmesh_core_nrf52840_xxAA.a(heartbeat.c.obj)
 .debug_frame   0x00003a50       0xd0 mesh/core/libmesh_core_nrf52840_xxAA.a(net_beacon.c.obj)
 .debug_frame   0x00003b20      0x128 mesh/core/libmesh_core_nrf52840_xxAA.a(core_tx_adv.c.obj)
 .debug_frame   0x00003c48       0x6c mesh/core/libmesh_core_nrf52840_xxAA.a(ad_listener.c.obj)
 .debug_frame   0x00003cb4       0xa8 mesh/core/libmesh_core_nrf52840_xxAA.a(ad_type_filter.c.obj)
 .debug_frame   0x00003d5c      0x284 mesh/core/libmesh_core_nrf52840_xxAA.a(advertiser.c.obj)
 .debug_frame   0x00003fe0      0x160 mesh/core/libmesh_core_nrf52840_xxAA.a(bearer_handler.c.obj)
 .debug_frame   0x00004140       0x70 mesh/core/libmesh_core_nrf52840_xxAA.a(broadcast.c.obj)
 .debug_frame   0x000041b0       0x7c mesh/core/libmesh_core_nrf52840_xxAA.a(filter_engine.c.obj)
 .debug_frame   0x0000422c       0x90 mesh/core/libmesh_core_nrf52840_xxAA.a(radio_config.c.obj)
 .debug_frame   0x000042bc      0x2a4 mesh/core/libmesh_core_nrf52840_xxAA.a(scanner.c.obj)
 .debug_frame   0x00004560       0x48 mesh/core/libmesh_core_nrf52840_xxAA.a(internal_event.c.obj)
 .debug_frame   0x000045a8       0x40 mesh/core/libmesh_core_nrf52840_xxAA.a(aes.c.obj)
 .debug_frame   0x000045e8       0x6c mesh/core/libmesh_core_nrf52840_xxAA.a(msg_cache.c.obj)
 .debug_frame   0x00004654      0x44c mesh/core/libmesh_core_nrf52840_xxAA.a(transport.c.obj)
 .debug_frame   0x00004aa0      0x184 mesh/core/libmesh_core_nrf52840_xxAA.a(packet_buffer.c.obj)
 .debug_frame   0x00004c24      0x250 mesh/core/libmesh_core_nrf52840_xxAA.a(flash_manager_defrag.c.obj)
 .debug_frame   0x00004e74       0xa0 mesh/core/libmesh_core_nrf52840_xxAA.a(packet_mgr.c.obj)
 .debug_frame   0x00004f14      0x150 mesh/core/libmesh_core_nrf52840_xxAA.a(mesh_flash.c.obj)
 .debug_frame   0x00005064       0x74 mesh/core/libmesh_core_nrf52840_xxAA.a(queue.c.obj)
 .debug_frame   0x000050d8       0xa4 mesh/core/libmesh_core_nrf52840_xxAA.a(aes_cmac.c.obj)
 .debug_frame   0x0000517c       0x30 mesh/core/libmesh_core_nrf52840_xxAA.a(nrf_mesh_opt.c.obj)
 .debug_frame   0x000051ac       0xb8 mesh/core/libmesh_core_nrf52840_xxAA.a(msqueue.c.obj)
 .debug_frame   0x00005264       0xa0 mesh/core/libmesh_core_nrf52840_xxAA.a(replay_cache.c.obj)
 .debug_frame   0x00005304       0x54 mesh/core/libmesh_core_nrf52840_xxAA.a(nrf_flash.c.obj)
 .debug_frame   0x00005358      0x2d8 external/rtt/librtt_nrf52840_xxAA.a(SEGGER_RTT.c.obj)
 .debug_frame   0x00005630       0xac external/rtt/librtt_nrf52840_xxAA.a(SEGGER_RTT_printf.c.obj)
 .debug_frame   0x000056dc      0x684 external/micro-ecc/libuECC_nrf52840_xxAA.a(uECC.c.obj)
 .debug_frame   0x00005d60       0x2c c:/a/gcc_arm/6/bin/../lib/gcc/arm-none-eabi/6.3.1/thumb/v7e-m/fpv4-sp/hard\libgcc.a(_aeabi_uldivmod.o)
 .debug_frame   0x00005d8c       0x34 c:/a/gcc_arm/6/bin/../lib/gcc/arm-none-eabi/6.3.1/thumb/v7e-m/fpv4-sp/hard\libgcc.a(_udivmoddi4.o)
 .debug_frame   0x00005dc0       0x28 c:/a/gcc_arm/6/bin/../lib/gcc/arm-none-eabi/6.3.1/../../../../arm-none-eabi/lib/thumb/v7e-m/fpv4-sp/hard\libg_nano.a(lib_a-exit.o)
 .debug_frame   0x00005de8       0x2c c:/a/gcc_arm/6/bin/../lib/gcc/arm-none-eabi/6.3.1/../../../../arm-none-eabi/lib/thumb/v7e-m/fpv4-sp/hard\libg_nano.a(lib_a-init.o)
 .debug_frame   0x00005e14       0x30 c:/a/gcc_arm/6/bin/../lib/gcc/arm-none-eabi/6.3.1/../../../../arm-none-eabi/lib/thumb/v7e-m/fpv4-sp/hard\libg_nano.a(lib_a-malloc.o)
 .debug_frame   0x00005e44       0x28 c:/a/gcc_arm/6/bin/../lib/gcc/arm-none-eabi/6.3.1/../../../../arm-none-eabi/lib/thumb/v7e-m/fpv4-sp/hard\libg_nano.a(lib_a-memcmp.o)
 .debug_frame   0x00005e6c       0x28 c:/a/gcc_arm/6/bin/../lib/gcc/arm-none-eabi/6.3.1/../../../../arm-none-eabi/lib/thumb/v7e-m/fpv4-sp/hard\libg_nano.a(lib_a-memcpy-stub.o)
 .debug_frame   0x00005e94       0x20 c:/a/gcc_arm/6/bin/../lib/gcc/arm-none-eabi/6.3.1/../../../../arm-none-eabi/lib/thumb/v7e-m/fpv4-sp/hard\libg_nano.a(lib_a-memset.o)
 .debug_frame   0x00005eb4       0x38 c:/a/gcc_arm/6/bin/../lib/gcc/arm-none-eabi/6.3.1/../../../../arm-none-eabi/lib/thumb/v7e-m/fpv4-sp/hard\libg_nano.a(lib_a-nano-freer.o)
 .debug_frame   0x00005eec       0x2c c:/a/gcc_arm/6/bin/../lib/gcc/arm-none-eabi/6.3.1/../../../../arm-none-eabi/lib/thumb/v7e-m/fpv4-sp/hard\libg_nano.a(lib_a-nano-mallocr.o)
 .debug_frame   0x00005f18       0x2c c:/a/gcc_arm/6/bin/../lib/gcc/arm-none-eabi/6.3.1/../../../../arm-none-eabi/lib/thumb/v7e-m/fpv4-sp/hard\libg_nano.a(lib_a-sbrkr.o)
 .debug_frame   0x00005f44       0x20 c:/a/gcc_arm/6/bin/../lib/gcc/arm-none-eabi/6.3.1/../../../../arm-none-eabi/lib/thumb/v7e-m/fpv4-sp/hard\libg_nano.a(lib_a-strcpy.o)
 .debug_frame   0x00005f64       0x34 c:/a/gcc_arm/6/bin/../lib/gcc/arm-none-eabi/6.3.1/../../../../arm-none-eabi/lib/thumb/v7e-m/fpv4-sp/hard\libg_nano.a(lib_a-strrchr.o)
 .debug_frame   0x00005f98       0x30 c:/a/gcc_arm/6/bin/../lib/gcc/arm-none-eabi/6.3.1/../../../../arm-none-eabi/lib/thumb/v7e-m/fpv4-sp/hard\libg_nano.a(lib_a-mlock.o)
 .debug_frame   0x00005fc8       0x5c c:/a/gcc_arm/6/bin/../lib/gcc/arm-none-eabi/6.3.1/../../../../arm-none-eabi/lib/thumb/v7e-m/fpv4-sp/hard\libg_nano.a(lib_a-reent.o)
 .debug_frame   0x00006024       0x20 c:/a/gcc_arm/6/bin/../lib/gcc/arm-none-eabi/6.3.1/../../../../arm-none-eabi/lib/thumb/v7e-m/fpv4-sp/hard\libg_nano.a(lib_a-strchr.o)
 .debug_frame   0x00006044       0x20 c:/a/gcc_arm/6/bin/../lib/gcc/arm-none-eabi/6.3.1/../../../../arm-none-eabi/lib/thumb/v7e-m/fpv4-sp/hard\libnosys.a(sbrk.o)
 .debug_frame   0x00006064       0x20 c:/a/gcc_arm/6/bin/../lib/gcc/arm-none-eabi/6.3.1/../../../../arm-none-eabi/lib/thumb/v7e-m/fpv4-sp/hard\libnosys.a(_exit.o)
