Archive member included to satisfy reference by file (symbol)

mesh/core/libmesh_core_nrf51422_xxAC.a(internal_event.c.obj)
                              examples/serial/CMakeFiles/serial_nrf51422_xxAC_s130_2.0.1.dir/__/__/mesh/serial/src/serial_handler_device.c.obj (internal_event_init)
mesh/core/libmesh_core_nrf51422_xxAC.a(nrf_mesh_configure.c.obj)
                              examples/serial/CMakeFiles/serial_nrf51422_xxAC_s130_2.0.1.dir/__/__/mesh/serial/src/serial_handler_config.c.obj (nrf_mesh_configure_device_uuid_set)
mesh/core/libmesh_core_nrf51422_xxAC.a(event.c.obj)
                              examples/serial/CMakeFiles/serial_nrf51422_xxAC_s130_2.0.1.dir/__/__/mesh/access/src/access.c.obj (event_handle)
mesh/core/libmesh_core_nrf51422_xxAC.a(packet_buffer.c.obj)
                              examples/serial/CMakeFiles/serial_nrf51422_xxAC_s130_2.0.1.dir/__/__/mesh/serial/src/serial_bearer.c.obj (packet_buffer_max_packet_len_get)
mesh/core/libmesh_core_nrf51422_xxAC.a(fifo.c.obj)
                              mesh/core/libmesh_core_nrf51422_xxAC.a(internal_event.c.obj) (fifo_init)
mesh/core/libmesh_core_nrf51422_xxAC.a(net_state.c.obj)
                              examples/serial/CMakeFiles/serial_nrf51422_xxAC_s130_2.0.1.dir/__/__/mesh/serial/src/serial_handler_mesh.c.obj (net_state_reset)
mesh/core/libmesh_core_nrf51422_xxAC.a(nrf_mesh_utils.c.obj)
                              examples/serial/CMakeFiles/serial_nrf51422_xxAC_s130_2.0.1.dir/__/__/mesh/prov/src/prov_provisionee.c.obj (nrf_mesh_address_type_get)
mesh/core/libmesh_core_nrf51422_xxAC.a(nrf_mesh.c.obj)
                              examples/serial/CMakeFiles/serial_nrf51422_xxAC_s130_2.0.1.dir/__/nrf_mesh_sdk.c.obj (nrf_mesh_init)
mesh/core/libmesh_core_nrf51422_xxAC.a(hal.c.obj)
                              examples/serial/CMakeFiles/serial_nrf51422_xxAC_s130_2.0.1.dir/__/__/mesh/serial/src/serial_handler_device.c.obj (hal_device_reset)
mesh/core/libmesh_core_nrf51422_xxAC.a(timer_scheduler.c.obj)
                              mesh/core/libmesh_core_nrf51422_xxAC.a(nrf_mesh.c.obj) (timer_sch_init)
mesh/core/libmesh_core_nrf51422_xxAC.a(timer.c.obj)
                              mesh/core/libmesh_core_nrf51422_xxAC.a(timer_scheduler.c.obj) (timer_order_cb)
mesh/core/libmesh_core_nrf51422_xxAC.a(ticker.c.obj)
                              mesh/core/libmesh_core_nrf51422_xxAC.a(nrf_mesh.c.obj) (ticker_init)
mesh/core/libmesh_core_nrf51422_xxAC.a(rand.c.obj)
                              examples/serial/CMakeFiles/serial_nrf51422_xxAC_s130_2.0.1.dir/__/__/mesh/prov/src/prov_utils.c.obj (rand_hw_rng_get)
mesh/core/libmesh_core_nrf51422_xxAC.a(nrf_mesh_opt.c.obj)
                              examples/serial/CMakeFiles/serial_nrf51422_xxAC_s130_2.0.1.dir/src/main.c.obj (nrf_mesh_opt_set)
mesh/core/libmesh_core_nrf51422_xxAC.a(timeslot.c.obj)
                              mesh/core/libmesh_core_nrf51422_xxAC.a(nrf_mesh.c.obj) (timeslot_sd_event_handler)
mesh/core/libmesh_core_nrf51422_xxAC.a(bearer_event.c.obj)
                              mesh/core/libmesh_core_nrf51422_xxAC.a(nrf_mesh.c.obj) (bearer_event_init)
mesh/core/libmesh_core_nrf51422_xxAC.a(enc.c.obj)
                              examples/serial/CMakeFiles/serial_nrf51422_xxAC_s130_2.0.1.dir/__/__/mesh/prov/src/prov_utils.c.obj (enc_aes_cmac)
mesh/core/libmesh_core_nrf51422_xxAC.a(network.c.obj)
                              mesh/core/libmesh_core_nrf51422_xxAC.a(nrf_mesh.c.obj) (network_init)
mesh/core/libmesh_core_nrf51422_xxAC.a(nrf_mesh_keygen.c.obj)
                              examples/serial/CMakeFiles/serial_nrf51422_xxAC_s130_2.0.1.dir/__/__/mesh/access/src/device_state_manager.c.obj (nrf_mesh_keygen_aid)
mesh/core/libmesh_core_nrf51422_xxAC.a(list.c.obj)
                              mesh/core/libmesh_core_nrf51422_xxAC.a(event.c.obj) (list_add)
mesh/core/libmesh_core_nrf51422_xxAC.a(log.c.obj)
                              examples/serial/CMakeFiles/serial_nrf51422_xxAC_s130_2.0.1.dir/src/main.c.obj (log_callback_rtt)
mesh/core/libmesh_core_nrf51422_xxAC.a(flash_manager.c.obj)
                              mesh/core/libmesh_core_nrf51422_xxAC.a(nrf_mesh.c.obj) (flash_manager_init)
mesh/core/libmesh_core_nrf51422_xxAC.a(ccm_soft.c.obj)
                              mesh/core/libmesh_core_nrf51422_xxAC.a(enc.c.obj) (ccm_soft_encrypt)
mesh/core/libmesh_core_nrf51422_xxAC.a(beacon.c.obj)
                              mesh/core/libmesh_core_nrf51422_xxAC.a(nrf_mesh.c.obj) (beacon_init)
mesh/core/libmesh_core_nrf51422_xxAC.a(flash_manager_internal.c.obj)
                              mesh/core/libmesh_core_nrf51422_xxAC.a(flash_manager.c.obj) (entry_get)
mesh/core/libmesh_core_nrf51422_xxAC.a(core_tx.c.obj)
                              mesh/core/libmesh_core_nrf51422_xxAC.a(network.c.obj) (core_tx_packet_alloc)
mesh/core/libmesh_core_nrf51422_xxAC.a(heartbeat.c.obj)
                              mesh/core/libmesh_core_nrf51422_xxAC.a(network.c.obj) (heartbeat_on_feature_change_trigger)
mesh/core/libmesh_core_nrf51422_xxAC.a(net_beacon.c.obj)
                              mesh/core/libmesh_core_nrf51422_xxAC.a(network.c.obj) (net_beacon_init)
mesh/core/libmesh_core_nrf51422_xxAC.a(core_tx_adv.c.obj)
                              mesh/core/libmesh_core_nrf51422_xxAC.a(nrf_mesh.c.obj) (core_tx_adv_init)
mesh/core/libmesh_core_nrf51422_xxAC.a(ad_listener.c.obj)
                              mesh/core/libmesh_core_nrf51422_xxAC.a(nrf_mesh.c.obj) (ad_listener_subscribe)
mesh/core/libmesh_core_nrf51422_xxAC.a(ad_type_filter.c.obj)
                              mesh/core/libmesh_core_nrf51422_xxAC.a(ad_listener.c.obj) (bearer_adtype_filtering_set)
mesh/core/libmesh_core_nrf51422_xxAC.a(advertiser.c.obj)
                              mesh/core/libmesh_core_nrf51422_xxAC.a(nrf_mesh.c.obj) (advertiser_init)
mesh/core/libmesh_core_nrf51422_xxAC.a(bearer_handler.c.obj)
                              mesh/core/libmesh_core_nrf51422_xxAC.a(nrf_mesh.c.obj) (bearer_handler_init)
mesh/core/libmesh_core_nrf51422_xxAC.a(broadcast.c.obj)
                              mesh/core/libmesh_core_nrf51422_xxAC.a(advertiser.c.obj) (broadcast_send)
mesh/core/libmesh_core_nrf51422_xxAC.a(filter_engine.c.obj)
                              mesh/core/libmesh_core_nrf51422_xxAC.a(ad_type_filter.c.obj) (fen_filter_start)
mesh/core/libmesh_core_nrf51422_xxAC.a(radio_config.c.obj)
                              mesh/core/libmesh_core_nrf51422_xxAC.a(broadcast.c.obj) (radio_config_reset)
mesh/core/libmesh_core_nrf51422_xxAC.a(scanner.c.obj)
                              mesh/core/libmesh_core_nrf51422_xxAC.a(bearer_handler.c.obj) (scanner_radio_start)
mesh/core/libmesh_core_nrf51422_xxAC.a(aes.c.obj)
                              mesh/core/libmesh_core_nrf51422_xxAC.a(enc.c.obj) (aes_encrypt)
mesh/core/libmesh_core_nrf51422_xxAC.a(msg_cache.c.obj)
                              mesh/core/libmesh_core_nrf51422_xxAC.a(nrf_mesh.c.obj) (msg_cache_init)
mesh/core/libmesh_core_nrf51422_xxAC.a(transport.c.obj)
                              mesh/core/libmesh_core_nrf51422_xxAC.a(nrf_mesh.c.obj) (transport_init)
mesh/core/libmesh_core_nrf51422_xxAC.a(flash_manager_defrag.c.obj)
                              mesh/core/libmesh_core_nrf51422_xxAC.a(flash_manager.c.obj) (flash_manager_defrag_init)
mesh/core/libmesh_core_nrf51422_xxAC.a(packet_mgr.c.obj)
                              mesh/core/libmesh_core_nrf51422_xxAC.a(nrf_mesh.c.obj) (packet_mgr_init)
mesh/core/libmesh_core_nrf51422_xxAC.a(mesh_flash.c.obj)
                              mesh/core/libmesh_core_nrf51422_xxAC.a(flash_manager.c.obj) (mesh_flash_user_callback_set)
mesh/core/libmesh_core_nrf51422_xxAC.a(queue.c.obj)
                              mesh/core/libmesh_core_nrf51422_xxAC.a(bearer_event.c.obj) (queue_init)
mesh/core/libmesh_core_nrf51422_xxAC.a(aes_cmac.c.obj)
                              mesh/core/libmesh_core_nrf51422_xxAC.a(enc.c.obj) (aes_cmac)
mesh/core/libmesh_core_nrf51422_xxAC.a(msqueue.c.obj)
                              mesh/core/libmesh_core_nrf51422_xxAC.a(mesh_flash.c.obj) (msq_get)
mesh/core/libmesh_core_nrf51422_xxAC.a(replay_cache.c.obj)
                              mesh/core/libmesh_core_nrf51422_xxAC.a(transport.c.obj) (replay_cache_add)
mesh/core/libmesh_core_nrf51422_xxAC.a(nrf_flash.c.obj)
                              mesh/core/libmesh_core_nrf51422_xxAC.a(mesh_flash.c.obj) (nrf_flash_erase)
external/micro-ecc/libuECC_nrf51422_xxAC.a(uECC.c.obj)
                              examples/serial/CMakeFiles/serial_nrf51422_xxAC_s130_2.0.1.dir/__/__/mesh/prov/src/prov_utils.c.obj (uECC_secp256r1)
external/rtt/librtt_nrf51422_xxAC.a(SEGGER_RTT.c.obj)
                              mesh/core/libmesh_core_nrf51422_xxAC.a(log.c.obj) (SEGGER_RTT_Write)
external/rtt/librtt_nrf51422_xxAC.a(SEGGER_RTT_printf.c.obj)
                              mesh/core/libmesh_core_nrf51422_xxAC.a(log.c.obj) (SEGGER_RTT_vprintf)
c:/a/gcc_arm/6/bin/../lib/gcc/arm-none-eabi/6.3.1/thumb/v6-m\libgcc.a(_thumb1_case_uqi.o)
                              examples/serial/CMakeFiles/serial_nrf51422_xxAC_s130_2.0.1.dir/__/__/mesh/prov/src/prov_provisioner.c.obj (__gnu_thumb1_case_uqi)
c:/a/gcc_arm/6/bin/../lib/gcc/arm-none-eabi/6.3.1/thumb/v6-m\libgcc.a(_thumb1_case_shi.o)
                              examples/serial/CMakeFiles/serial_nrf51422_xxAC_s130_2.0.1.dir/__/__/mesh/prov/src/prov_provisioner.c.obj (__gnu_thumb1_case_shi)
c:/a/gcc_arm/6/bin/../lib/gcc/arm-none-eabi/6.3.1/thumb/v6-m\libgcc.a(_thumb1_case_uhi.o)
                              examples/serial/CMakeFiles/serial_nrf51422_xxAC_s130_2.0.1.dir/__/__/mesh/prov/src/prov_provisionee.c.obj (__gnu_thumb1_case_uhi)
c:/a/gcc_arm/6/bin/../lib/gcc/arm-none-eabi/6.3.1/thumb/v6-m\libgcc.a(_udivsi3.o)
                              examples/serial/CMakeFiles/serial_nrf51422_xxAC_s130_2.0.1.dir/__/__/mesh/prov/src/prov_bearer_adv.c.obj (__aeabi_uidiv)
c:/a/gcc_arm/6/bin/../lib/gcc/arm-none-eabi/6.3.1/thumb/v6-m\libgcc.a(_divsi3.o)
                              examples/serial/CMakeFiles/serial_nrf51422_xxAC_s130_2.0.1.dir/__/__/mesh/access/src/access_reliable.c.obj (__aeabi_idiv)
c:/a/gcc_arm/6/bin/../lib/gcc/arm-none-eabi/6.3.1/thumb/v6-m\libgcc.a(_dvmd_tls.o)
                              c:/a/gcc_arm/6/bin/../lib/gcc/arm-none-eabi/6.3.1/thumb/v6-m\libgcc.a(_udivsi3.o) (__aeabi_idiv0)
c:/a/gcc_arm/6/bin/../lib/gcc/arm-none-eabi/6.3.1/thumb/v6-m\libgcc.a(_muldi3.o)
                              mesh/core/libmesh_core_nrf51422_xxAC.a(timeslot.c.obj) (__aeabi_lmul)
c:/a/gcc_arm/6/bin/../lib/gcc/arm-none-eabi/6.3.1/../../../../arm-none-eabi/lib/thumb/v6-m\libg_nano.a(lib_a-exit.o)
                              c:/a/gcc_arm/6/bin/../lib/gcc/arm-none-eabi/6.3.1/../../../../arm-none-eabi/lib/thumb/v6-m/crt0.o (exit)
c:/a/gcc_arm/6/bin/../lib/gcc/arm-none-eabi/6.3.1/../../../../arm-none-eabi/lib/thumb/v6-m\libg_nano.a(lib_a-impure.o)
                              c:/a/gcc_arm/6/bin/../lib/gcc/arm-none-eabi/6.3.1/../../../../arm-none-eabi/lib/thumb/v6-m\libg_nano.a(lib_a-exit.o) (_global_impure_ptr)
c:/a/gcc_arm/6/bin/../lib/gcc/arm-none-eabi/6.3.1/../../../../arm-none-eabi/lib/thumb/v6-m\libg_nano.a(lib_a-init.o)
                              c:/a/gcc_arm/6/bin/../lib/gcc/arm-none-eabi/6.3.1/../../../../arm-none-eabi/lib/thumb/v6-m/crt0.o (__libc_init_array)
c:/a/gcc_arm/6/bin/../lib/gcc/arm-none-eabi/6.3.1/../../../../arm-none-eabi/lib/thumb/v6-m\libg_nano.a(lib_a-malloc.o)
                              mesh/core/libmesh_core_nrf51422_xxAC.a(transport.c.obj) (malloc)
c:/a/gcc_arm/6/bin/../lib/gcc/arm-none-eabi/6.3.1/../../../../arm-none-eabi/lib/thumb/v6-m\libg_nano.a(lib_a-memcmp.o)
                              examples/serial/CMakeFiles/serial_nrf51422_xxAC_s130_2.0.1.dir/__/__/mesh/prov/src/prov_utils.c.obj (memcmp)
c:/a/gcc_arm/6/bin/../lib/gcc/arm-none-eabi/6.3.1/../../../../arm-none-eabi/lib/thumb/v6-m\libg_nano.a(lib_a-memcpy-stub.o)
                              examples/serial/CMakeFiles/serial_nrf51422_xxAC_s130_2.0.1.dir/__/__/mesh/prov/src/prov_provisioner.c.obj (memcpy)
c:/a/gcc_arm/6/bin/../lib/gcc/arm-none-eabi/6.3.1/../../../../arm-none-eabi/lib/thumb/v6-m\libg_nano.a(lib_a-memset.o)
                              c:/a/gcc_arm/6/bin/../lib/gcc/arm-none-eabi/6.3.1/../../../../arm-none-eabi/lib/thumb/v6-m/crt0.o (memset)
c:/a/gcc_arm/6/bin/../lib/gcc/arm-none-eabi/6.3.1/../../../../arm-none-eabi/lib/thumb/v6-m\libg_nano.a(lib_a-nano-freer.o)
                              c:/a/gcc_arm/6/bin/../lib/gcc/arm-none-eabi/6.3.1/../../../../arm-none-eabi/lib/thumb/v6-m\libg_nano.a(lib_a-malloc.o) (_free_r)
c:/a/gcc_arm/6/bin/../lib/gcc/arm-none-eabi/6.3.1/../../../../arm-none-eabi/lib/thumb/v6-m\libg_nano.a(lib_a-nano-mallocr.o)
                              c:/a/gcc_arm/6/bin/../lib/gcc/arm-none-eabi/6.3.1/../../../../arm-none-eabi/lib/thumb/v6-m\libg_nano.a(lib_a-malloc.o) (_malloc_r)
c:/a/gcc_arm/6/bin/../lib/gcc/arm-none-eabi/6.3.1/../../../../arm-none-eabi/lib/thumb/v6-m\libg_nano.a(lib_a-sbrkr.o)
                              c:/a/gcc_arm/6/bin/../lib/gcc/arm-none-eabi/6.3.1/../../../../arm-none-eabi/lib/thumb/v6-m\libg_nano.a(lib_a-nano-mallocr.o) (_sbrk_r)
c:/a/gcc_arm/6/bin/../lib/gcc/arm-none-eabi/6.3.1/../../../../arm-none-eabi/lib/thumb/v6-m\libg_nano.a(lib_a-strcpy.o)
                              external/rtt/librtt_nrf51422_xxAC.a(SEGGER_RTT.c.obj) (strcpy)
c:/a/gcc_arm/6/bin/../lib/gcc/arm-none-eabi/6.3.1/../../../../arm-none-eabi/lib/thumb/v6-m\libg_nano.a(lib_a-strlen.o)
                              examples/serial/CMakeFiles/serial_nrf51422_xxAC_s130_2.0.1.dir/__/__/mesh/prov/src/prov_beacon.c.obj (strlen)
c:/a/gcc_arm/6/bin/../lib/gcc/arm-none-eabi/6.3.1/../../../../arm-none-eabi/lib/thumb/v6-m\libg_nano.a(lib_a-strrchr.o)
                              examples/serial/CMakeFiles/serial_nrf51422_xxAC_s130_2.0.1.dir/src/main.c.obj (strrchr)
c:/a/gcc_arm/6/bin/../lib/gcc/arm-none-eabi/6.3.1/../../../../arm-none-eabi/lib/thumb/v6-m\libg_nano.a(lib_a-mlock.o)
                              c:/a/gcc_arm/6/bin/../lib/gcc/arm-none-eabi/6.3.1/../../../../arm-none-eabi/lib/thumb/v6-m\libg_nano.a(lib_a-nano-freer.o) (__malloc_lock)
c:/a/gcc_arm/6/bin/../lib/gcc/arm-none-eabi/6.3.1/../../../../arm-none-eabi/lib/thumb/v6-m\libg_nano.a(lib_a-reent.o)
                              c:/a/gcc_arm/6/bin/../lib/gcc/arm-none-eabi/6.3.1/../../../../arm-none-eabi/lib/thumb/v6-m\libg_nano.a(lib_a-sbrkr.o) (errno)
c:/a/gcc_arm/6/bin/../lib/gcc/arm-none-eabi/6.3.1/../../../../arm-none-eabi/lib/thumb/v6-m\libg_nano.a(lib_a-strchr.o)
                              c:/a/gcc_arm/6/bin/../lib/gcc/arm-none-eabi/6.3.1/../../../../arm-none-eabi/lib/thumb/v6-m\libg_nano.a(lib_a-strrchr.o) (strchr)
c:/a/gcc_arm/6/bin/../lib/gcc/arm-none-eabi/6.3.1/../../../../arm-none-eabi/lib/thumb/v6-m\libnosys.a(sbrk.o)
                              c:/a/gcc_arm/6/bin/../lib/gcc/arm-none-eabi/6.3.1/../../../../arm-none-eabi/lib/thumb/v6-m\libg_nano.a(lib_a-sbrkr.o) (_sbrk)
c:/a/gcc_arm/6/bin/../lib/gcc/arm-none-eabi/6.3.1/../../../../arm-none-eabi/lib/thumb/v6-m\libnosys.a(_exit.o)
                              c:/a/gcc_arm/6/bin/../lib/gcc/arm-none-eabi/6.3.1/../../../../arm-none-eabi/lib/thumb/v6-m\libg_nano.a(lib_a-exit.o) (_exit)

Allocating common symbols
Common symbol       size              file

nrf_nvic_state      0x8               examples/serial/CMakeFiles/serial_nrf51422_xxAC_s130_2.0.1.dir/__/nrf_mesh_sdk.c.obj
errno               0x4               c:/a/gcc_arm/6/bin/../lib/gcc/arm-none-eabi/6.3.1/../../../../arm-none-eabi/lib/thumb/v6-m\libg_nano.a(lib_a-reent.o)
m_assertion_handler
                    0x4               mesh/core/libmesh_core_nrf51422_xxAC.a(nrf_mesh.c.obj)
_SEGGER_RTT         0x78              external/rtt/librtt_nrf51422_xxAC.a(SEGGER_RTT.c.obj)

Discarded input sections

 .text          0x00000000        0x0 c:/a/gcc_arm/6/bin/../lib/gcc/arm-none-eabi/6.3.1/thumb/v6-m/crti.o
 .data          0x00000000        0x0 c:/a/gcc_arm/6/bin/../lib/gcc/arm-none-eabi/6.3.1/thumb/v6-m/crti.o
 .bss           0x00000000        0x0 c:/a/gcc_arm/6/bin/../lib/gcc/arm-none-eabi/6.3.1/thumb/v6-m/crti.o
 .data          0x00000000        0x4 c:/a/gcc_arm/6/bin/../lib/gcc/arm-none-eabi/6.3.1/thumb/v6-m/crtbegin.o
 .data          0x00000000        0x0 c:/a/gcc_arm/6/bin/../lib/gcc/arm-none-eabi/6.3.1/../../../../arm-none-eabi/lib/thumb/v6-m/crt0.o
 .bss           0x00000000        0x0 c:/a/gcc_arm/6/bin/../lib/gcc/arm-none-eabi/6.3.1/../../../../arm-none-eabi/lib/thumb/v6-m/crt0.o
 .ARM.extab     0x00000000        0x0 c:/a/gcc_arm/6/bin/../lib/gcc/arm-none-eabi/6.3.1/../../../../arm-none-eabi/lib/thumb/v6-m/crt0.o
 .text          0x00000000        0x0 examples/serial/CMakeFiles/serial_nrf51422_xxAC_s130_2.0.1.dir/src/main.c.obj
 .data          0x00000000        0x0 examples/serial/CMakeFiles/serial_nrf51422_xxAC_s130_2.0.1.dir/src/main.c.obj
 .bss           0x00000000        0x0 examples/serial/CMakeFiles/serial_nrf51422_xxAC_s130_2.0.1.dir/src/main.c.obj
 .text          0x00000000        0x0 examples/serial/CMakeFiles/serial_nrf51422_xxAC_s130_2.0.1.dir/__/nrf_mesh_sdk.c.obj
 .data          0x00000000        0x0 examples/serial/CMakeFiles/serial_nrf51422_xxAC_s130_2.0.1.dir/__/nrf_mesh_sdk.c.obj
 .bss           0x00000000        0x0 examples/serial/CMakeFiles/serial_nrf51422_xxAC_s130_2.0.1.dir/__/nrf_mesh_sdk.c.obj
 .text          0x00000000        0x0 examples/serial/CMakeFiles/serial_nrf51422_xxAC_s130_2.0.1.dir/__/__/mesh/prov/src/prov_provisioner.c.obj
 .data          0x00000000        0x0 examples/serial/CMakeFiles/serial_nrf51422_xxAC_s130_2.0.1.dir/__/__/mesh/prov/src/prov_provisioner.c.obj
 .bss           0x00000000        0x0 examples/serial/CMakeFiles/serial_nrf51422_xxAC_s130_2.0.1.dir/__/__/mesh/prov/src/prov_provisioner.c.obj
 .text.prov_provisioner_oob_pubkey
                0x00000000       0x32 examples/serial/CMakeFiles/serial_nrf51422_xxAC_s130_2.0.1.dir/__/__/mesh/prov/src/prov_provisioner.c.obj
 .text          0x00000000        0x0 examples/serial/CMakeFiles/serial_nrf51422_xxAC_s130_2.0.1.dir/__/__/mesh/prov/src/prov_provisionee.c.obj
 .data          0x00000000        0x0 examples/serial/CMakeFiles/serial_nrf51422_xxAC_s130_2.0.1.dir/__/__/mesh/prov/src/prov_provisionee.c.obj
 .bss           0x00000000        0x0 examples/serial/CMakeFiles/serial_nrf51422_xxAC_s130_2.0.1.dir/__/__/mesh/prov/src/prov_provisionee.c.obj
 .text          0x00000000        0x0 examples/serial/CMakeFiles/serial_nrf51422_xxAC_s130_2.0.1.dir/__/__/mesh/prov/src/nrf_mesh_prov.c.obj
 .data          0x00000000        0x0 examples/serial/CMakeFiles/serial_nrf51422_xxAC_s130_2.0.1.dir/__/__/mesh/prov/src/nrf_mesh_prov.c.obj
 .bss           0x00000000        0x0 examples/serial/CMakeFiles/serial_nrf51422_xxAC_s130_2.0.1.dir/__/__/mesh/prov/src/nrf_mesh_prov.c.obj
 .text.nrf_mesh_prov_pubkey_provide
                0x00000000       0x18 examples/serial/CMakeFiles/serial_nrf51422_xxAC_s130_2.0.1.dir/__/__/mesh/prov/src/nrf_mesh_prov.c.obj
 .text          0x00000000        0x0 examples/serial/CMakeFiles/serial_nrf51422_xxAC_s130_2.0.1.dir/__/__/mesh/prov/src/provisioning.c.obj
 .data          0x00000000        0x0 examples/serial/CMakeFiles/serial_nrf51422_xxAC_s130_2.0.1.dir/__/__/mesh/prov/src/provisioning.c.obj
 .bss           0x00000000        0x0 examples/serial/CMakeFiles/serial_nrf51422_xxAC_s130_2.0.1.dir/__/__/mesh/prov/src/provisioning.c.obj
 .text.prov_tx  0x00000000        0x8 examples/serial/CMakeFiles/serial_nrf51422_xxAC_s130_2.0.1.dir/__/__/mesh/prov/src/provisioning.c.obj
 .text          0x00000000        0x0 examples/serial/CMakeFiles/serial_nrf51422_xxAC_s130_2.0.1.dir/__/__/mesh/prov/src/prov_beacon.c.obj
 .data          0x00000000        0x0 examples/serial/CMakeFiles/serial_nrf51422_xxAC_s130_2.0.1.dir/__/__/mesh/prov/src/prov_beacon.c.obj
 .bss           0x00000000        0x0 examples/serial/CMakeFiles/serial_nrf51422_xxAC_s130_2.0.1.dir/__/__/mesh/prov/src/prov_beacon.c.obj
 .text          0x00000000        0x0 examples/serial/CMakeFiles/serial_nrf51422_xxAC_s130_2.0.1.dir/__/__/mesh/prov/src/prov_utils.c.obj
 .data          0x00000000        0x0 examples/serial/CMakeFiles/serial_nrf51422_xxAC_s130_2.0.1.dir/__/__/mesh/prov/src/prov_utils.c.obj
 .bss           0x00000000        0x0 examples/serial/CMakeFiles/serial_nrf51422_xxAC_s130_2.0.1.dir/__/__/mesh/prov/src/prov_utils.c.obj
 .text          0x00000000        0x0 examples/serial/CMakeFiles/serial_nrf51422_xxAC_s130_2.0.1.dir/__/__/mesh/prov/src/prov_bearer_adv.c.obj
 .data          0x00000000        0x0 examples/serial/CMakeFiles/serial_nrf51422_xxAC_s130_2.0.1.dir/__/__/mesh/prov/src/prov_bearer_adv.c.obj
 .bss           0x00000000        0x0 examples/serial/CMakeFiles/serial_nrf51422_xxAC_s130_2.0.1.dir/__/__/mesh/prov/src/prov_bearer_adv.c.obj
 .text          0x00000000        0x0 examples/serial/CMakeFiles/serial_nrf51422_xxAC_s130_2.0.1.dir/__/__/mesh/access/src/access_publish.c.obj
 .data          0x00000000        0x0 examples/serial/CMakeFiles/serial_nrf51422_xxAC_s130_2.0.1.dir/__/__/mesh/access/src/access_publish.c.obj
 .bss           0x00000000        0x0 examples/serial/CMakeFiles/serial_nrf51422_xxAC_s130_2.0.1.dir/__/__/mesh/access/src/access_publish.c.obj
 .text          0x00000000        0x0 examples/serial/CMakeFiles/serial_nrf51422_xxAC_s130_2.0.1.dir/__/__/mesh/access/src/access.c.obj
 .data          0x00000000        0x0 examples/serial/CMakeFiles/serial_nrf51422_xxAC_s130_2.0.1.dir/__/__/mesh/access/src/access.c.obj
 .bss           0x00000000        0x0 examples/serial/CMakeFiles/serial_nrf51422_xxAC_s130_2.0.1.dir/__/__/mesh/access/src/access.c.obj
 .text.restore_acquired_subscription
                0x00000000       0x24 examples/serial/CMakeFiles/serial_nrf51422_xxAC_s130_2.0.1.dir/__/__/mesh/access/src/access.c.obj
 .text.restore_acquired_element
                0x00000000       0x20 examples/serial/CMakeFiles/serial_nrf51422_xxAC_s130_2.0.1.dir/__/__/mesh/access/src/access.c.obj
 .text.restore_flash_data
                0x00000000       0x5c examples/serial/CMakeFiles/serial_nrf51422_xxAC_s130_2.0.1.dir/__/__/mesh/access/src/access.c.obj
 .text.unlikely.bitfield_next_get.part.0.constprop.3
                0x00000000       0x34 examples/serial/CMakeFiles/serial_nrf51422_xxAC_s130_2.0.1.dir/__/__/mesh/access/src/access.c.obj
 .text.restore_acquired_model
                0x00000000       0x78 examples/serial/CMakeFiles/serial_nrf51422_xxAC_s130_2.0.1.dir/__/__/mesh/access/src/access.c.obj
 .text.access_flash_config_load
                0x00000000      0x12c examples/serial/CMakeFiles/serial_nrf51422_xxAC_s130_2.0.1.dir/__/__/mesh/access/src/access.c.obj
 .text.access_model_add
                0x00000000      0x17c examples/serial/CMakeFiles/serial_nrf51422_xxAC_s130_2.0.1.dir/__/__/mesh/access/src/access.c.obj
 .text.access_model_reply
                0x00000000       0x1c examples/serial/CMakeFiles/serial_nrf51422_xxAC_s130_2.0.1.dir/__/__/mesh/access/src/access.c.obj
 .text.access_model_subscription_list_alloc
                0x00000000       0x40 examples/serial/CMakeFiles/serial_nrf51422_xxAC_s130_2.0.1.dir/__/__/mesh/access/src/access.c.obj
 .text.access_model_subscription_lists_share
                0x00000000       0x54 examples/serial/CMakeFiles/serial_nrf51422_xxAC_s130_2.0.1.dir/__/__/mesh/access/src/access.c.obj
 .text.access_default_ttl_set
                0x00000000       0x10 examples/serial/CMakeFiles/serial_nrf51422_xxAC_s130_2.0.1.dir/__/__/mesh/access/src/access.c.obj
 .text.access_default_ttl_get
                0x00000000        0xc examples/serial/CMakeFiles/serial_nrf51422_xxAC_s130_2.0.1.dir/__/__/mesh/access/src/access.c.obj
 .rodata.multiply_de_bruijn_bit_position.6642
                0x00000000       0x20 examples/serial/CMakeFiles/serial_nrf51422_xxAC_s130_2.0.1.dir/__/__/mesh/access/src/access.c.obj
 .text          0x00000000        0x0 examples/serial/CMakeFiles/serial_nrf51422_xxAC_s130_2.0.1.dir/__/__/mesh/access/src/access_reliable.c.obj
 .data          0x00000000        0x0 examples/serial/CMakeFiles/serial_nrf51422_xxAC_s130_2.0.1.dir/__/__/mesh/access/src/access_reliable.c.obj
 .bss           0x00000000        0x0 examples/serial/CMakeFiles/serial_nrf51422_xxAC_s130_2.0.1.dir/__/__/mesh/access/src/access_reliable.c.obj
 .text.access_model_reliable_cancel
                0x00000000       0x34 examples/serial/CMakeFiles/serial_nrf51422_xxAC_s130_2.0.1.dir/__/__/mesh/access/src/access_reliable.c.obj
 .text.access_model_reliable_publish
                0x00000000      0x1a8 examples/serial/CMakeFiles/serial_nrf51422_xxAC_s130_2.0.1.dir/__/__/mesh/access/src/access_reliable.c.obj
 .text          0x00000000        0x0 examples/serial/CMakeFiles/serial_nrf51422_xxAC_s130_2.0.1.dir/__/__/mesh/access/src/device_state_manager.c.obj
 .data          0x00000000        0x0 examples/serial/CMakeFiles/serial_nrf51422_xxAC_s130_2.0.1.dir/__/__/mesh/access/src/device_state_manager.c.obj
 .bss           0x00000000        0x0 examples/serial/CMakeFiles/serial_nrf51422_xxAC_s130_2.0.1.dir/__/__/mesh/access/src/device_state_manager.c.obj
 .text.dsm_flash_config_load
                0x00000000      0x124 examples/serial/CMakeFiles/serial_nrf51422_xxAC_s130_2.0.1.dir/__/__/mesh/access/src/device_state_manager.c.obj
 .text.dsm_has_unflashed_data
                0x00000000       0x28 examples/serial/CMakeFiles/serial_nrf51422_xxAC_s130_2.0.1.dir/__/__/mesh/access/src/device_state_manager.c.obj
 .text.dsm_address_publish_add_handle
                0x00000000       0x38 examples/serial/CMakeFiles/serial_nrf51422_xxAC_s130_2.0.1.dir/__/__/mesh/access/src/device_state_manager.c.obj
 .text.dsm_address_subscription_add_handle
                0x00000000       0x38 examples/serial/CMakeFiles/serial_nrf51422_xxAC_s130_2.0.1.dir/__/__/mesh/access/src/device_state_manager.c.obj
 .text.dsm_address_subscription_count_get
                0x00000000       0x58 examples/serial/CMakeFiles/serial_nrf51422_xxAC_s130_2.0.1.dir/__/__/mesh/access/src/device_state_manager.c.obj
 .text.dsm_net_key_index_to_subnet_handle
                0x00000000       0x1c examples/serial/CMakeFiles/serial_nrf51422_xxAC_s130_2.0.1.dir/__/__/mesh/access/src/device_state_manager.c.obj
 .text.dsm_subnet_handle_to_netkey_index
                0x00000000       0x38 examples/serial/CMakeFiles/serial_nrf51422_xxAC_s130_2.0.1.dir/__/__/mesh/access/src/device_state_manager.c.obj
 .text.dsm_appkey_index_to_appkey_handle
                0x00000000       0x1c examples/serial/CMakeFiles/serial_nrf51422_xxAC_s130_2.0.1.dir/__/__/mesh/access/src/device_state_manager.c.obj
 .text.dsm_appkey_handle_to_appkey_index
                0x00000000       0x38 examples/serial/CMakeFiles/serial_nrf51422_xxAC_s130_2.0.1.dir/__/__/mesh/access/src/device_state_manager.c.obj
 .text.dsm_subnet_kr_phase_get
                0x00000000       0x34 examples/serial/CMakeFiles/serial_nrf51422_xxAC_s130_2.0.1.dir/__/__/mesh/access/src/device_state_manager.c.obj
 .text.dsm_devkey_handle_get
                0x00000000       0x30 examples/serial/CMakeFiles/serial_nrf51422_xxAC_s130_2.0.1.dir/__/__/mesh/access/src/device_state_manager.c.obj
 .text.dsm_beacon_secmat_get
                0x00000000       0x38 examples/serial/CMakeFiles/serial_nrf51422_xxAC_s130_2.0.1.dir/__/__/mesh/access/src/device_state_manager.c.obj
 .text.dsm_net_secmat_from_keyindex_get
                0x00000000       0x3c examples/serial/CMakeFiles/serial_nrf51422_xxAC_s130_2.0.1.dir/__/__/mesh/access/src/device_state_manager.c.obj
 .text.dsm_proxy_identity_get
                0x00000000        0x4 examples/serial/CMakeFiles/serial_nrf51422_xxAC_s130_2.0.1.dir/__/__/mesh/access/src/device_state_manager.c.obj
 .text          0x00000000        0x0 examples/serial/CMakeFiles/serial_nrf51422_xxAC_s130_2.0.1.dir/__/__/mesh/serial/src/serial_uart.c.obj
 .data          0x00000000        0x0 examples/serial/CMakeFiles/serial_nrf51422_xxAC_s130_2.0.1.dir/__/__/mesh/serial/src/serial_uart.c.obj
 .bss           0x00000000        0x0 examples/serial/CMakeFiles/serial_nrf51422_xxAC_s130_2.0.1.dir/__/__/mesh/serial/src/serial_uart.c.obj
 .text          0x00000000        0x0 examples/serial/CMakeFiles/serial_nrf51422_xxAC_s130_2.0.1.dir/__/__/mesh/serial/src/serial_bearer.c.obj
 .data          0x00000000        0x0 examples/serial/CMakeFiles/serial_nrf51422_xxAC_s130_2.0.1.dir/__/__/mesh/serial/src/serial_bearer.c.obj
 .bss           0x00000000        0x0 examples/serial/CMakeFiles/serial_nrf51422_xxAC_s130_2.0.1.dir/__/__/mesh/serial/src/serial_bearer.c.obj
 .text.serial_bearer_rx_pending
                0x00000000       0x10 examples/serial/CMakeFiles/serial_nrf51422_xxAC_s130_2.0.1.dir/__/__/mesh/serial/src/serial_bearer.c.obj
 .text          0x00000000        0x0 examples/serial/CMakeFiles/serial_nrf51422_xxAC_s130_2.0.1.dir/__/__/mesh/serial/src/serial_handler_common.c.obj
 .data          0x00000000        0x0 examples/serial/CMakeFiles/serial_nrf51422_xxAC_s130_2.0.1.dir/__/__/mesh/serial/src/serial_handler_common.c.obj
 .bss           0x00000000        0x0 examples/serial/CMakeFiles/serial_nrf51422_xxAC_s130_2.0.1.dir/__/__/mesh/serial/src/serial_handler_common.c.obj
 .text          0x00000000        0x0 examples/serial/CMakeFiles/serial_nrf51422_xxAC_s130_2.0.1.dir/__/__/mesh/serial/src/serial_handler_access.c.obj
 .data          0x00000000        0x0 examples/serial/CMakeFiles/serial_nrf51422_xxAC_s130_2.0.1.dir/__/__/mesh/serial/src/serial_handler_access.c.obj
 .bss           0x00000000        0x0 examples/serial/CMakeFiles/serial_nrf51422_xxAC_s130_2.0.1.dir/__/__/mesh/serial/src/serial_handler_access.c.obj
 .text          0x00000000        0x0 examples/serial/CMakeFiles/serial_nrf51422_xxAC_s130_2.0.1.dir/__/__/mesh/serial/src/serial_handler_config.c.obj
 .data          0x00000000        0x0 examples/serial/CMakeFiles/serial_nrf51422_xxAC_s130_2.0.1.dir/__/__/mesh/serial/src/serial_handler_config.c.obj
 .bss           0x00000000        0x0 examples/serial/CMakeFiles/serial_nrf51422_xxAC_s130_2.0.1.dir/__/__/mesh/serial/src/serial_handler_config.c.obj
 .text          0x00000000        0x0 examples/serial/CMakeFiles/serial_nrf51422_xxAC_s130_2.0.1.dir/__/__/mesh/serial/src/serial_handler_openmesh.c.obj
 .data          0x00000000        0x0 examples/serial/CMakeFiles/serial_nrf51422_xxAC_s130_2.0.1.dir/__/__/mesh/serial/src/serial_handler_openmesh.c.obj
 .bss           0x00000000        0x0 examples/serial/CMakeFiles/serial_nrf51422_xxAC_s130_2.0.1.dir/__/__/mesh/serial/src/serial_handler_openmesh.c.obj
 .text          0x00000000        0x0 examples/serial/CMakeFiles/serial_nrf51422_xxAC_s130_2.0.1.dir/__/__/mesh/serial/src/serial.c.obj
 .data          0x00000000        0x0 examples/serial/CMakeFiles/serial_nrf51422_xxAC_s130_2.0.1.dir/__/__/mesh/serial/src/serial.c.obj
 .bss           0x00000000        0x0 examples/serial/CMakeFiles/serial_nrf51422_xxAC_s130_2.0.1.dir/__/__/mesh/serial/src/serial.c.obj
 .text          0x00000000        0x0 examples/serial/CMakeFiles/serial_nrf51422_xxAC_s130_2.0.1.dir/__/__/mesh/serial/src/serial_handler_prov.c.obj
 .data          0x00000000        0x0 examples/serial/CMakeFiles/serial_nrf51422_xxAC_s130_2.0.1.dir/__/__/mesh/serial/src/serial_handler_prov.c.obj
 .bss           0x00000000        0x0 examples/serial/CMakeFiles/serial_nrf51422_xxAC_s130_2.0.1.dir/__/__/mesh/serial/src/serial_handler_prov.c.obj
 .text.serial_handler_prov_context_get
                0x00000000       0x1c examples/serial/CMakeFiles/serial_nrf51422_xxAC_s130_2.0.1.dir/__/__/mesh/serial/src/serial_handler_prov.c.obj
 .text.serial_handler_prov_keys_get
                0x00000000       0x14 examples/serial/CMakeFiles/serial_nrf51422_xxAC_s130_2.0.1.dir/__/__/mesh/serial/src/serial_handler_prov.c.obj
 .text.serial_handler_prov_oob_caps_get
                0x00000000        0xc examples/serial/CMakeFiles/serial_nrf51422_xxAC_s130_2.0.1.dir/__/__/mesh/serial/src/serial_handler_prov.c.obj
 .text          0x00000000        0x0 examples/serial/CMakeFiles/serial_nrf51422_xxAC_s130_2.0.1.dir/__/__/mesh/serial/src/serial_handler_dfu.c.obj
 .data          0x00000000        0x0 examples/serial/CMakeFiles/serial_nrf51422_xxAC_s130_2.0.1.dir/__/__/mesh/serial/src/serial_handler_dfu.c.obj
 .bss           0x00000000        0x0 examples/serial/CMakeFiles/serial_nrf51422_xxAC_s130_2.0.1.dir/__/__/mesh/serial/src/serial_handler_dfu.c.obj
 .text          0x00000000        0x0 examples/serial/CMakeFiles/serial_nrf51422_xxAC_s130_2.0.1.dir/__/__/mesh/serial/src/serial_handler_mesh.c.obj
 .data          0x00000000        0x0 examples/serial/CMakeFiles/serial_nrf51422_xxAC_s130_2.0.1.dir/__/__/mesh/serial/src/serial_handler_mesh.c.obj
 .bss           0x00000000        0x0 examples/serial/CMakeFiles/serial_nrf51422_xxAC_s130_2.0.1.dir/__/__/mesh/serial/src/serial_handler_mesh.c.obj
 .text          0x00000000        0x0 examples/serial/CMakeFiles/serial_nrf51422_xxAC_s130_2.0.1.dir/__/__/mesh/serial/src/serial_handler_models.c.obj
 .data          0x00000000        0x0 examples/serial/CMakeFiles/serial_nrf51422_xxAC_s130_2.0.1.dir/__/__/mesh/serial/src/serial_handler_models.c.obj
 .bss           0x00000000        0x0 examples/serial/CMakeFiles/serial_nrf51422_xxAC_s130_2.0.1.dir/__/__/mesh/serial/src/serial_handler_models.c.obj
 .text.serial_handler_models_register
                0x00000000       0x30 examples/serial/CMakeFiles/serial_nrf51422_xxAC_s130_2.0.1.dir/__/__/mesh/serial/src/serial_handler_models.c.obj
 .text          0x00000000        0x0 examples/serial/CMakeFiles/serial_nrf51422_xxAC_s130_2.0.1.dir/__/__/mesh/serial/src/serial_handler_device.c.obj
 .data          0x00000000        0x0 examples/serial/CMakeFiles/serial_nrf51422_xxAC_s130_2.0.1.dir/__/__/mesh/serial/src/serial_handler_device.c.obj
 .bss           0x00000000        0x0 examples/serial/CMakeFiles/serial_nrf51422_xxAC_s130_2.0.1.dir/__/__/mesh/serial/src/serial_handler_device.c.obj
 .text          0x00000000        0x0 examples/serial/CMakeFiles/serial_nrf51422_xxAC_s130_2.0.1.dir/__/__/mesh/serial/src/nrf_mesh_serial.c.obj
 .data          0x00000000        0x0 examples/serial/CMakeFiles/serial_nrf51422_xxAC_s130_2.0.1.dir/__/__/mesh/serial/src/nrf_mesh_serial.c.obj
 .bss           0x00000000        0x0 examples/serial/CMakeFiles/serial_nrf51422_xxAC_s130_2.0.1.dir/__/__/mesh/serial/src/nrf_mesh_serial.c.obj
 .text.nrf_mesh_serial_state_get
                0x00000000        0x8 examples/serial/CMakeFiles/serial_nrf51422_xxAC_s130_2.0.1.dir/__/__/mesh/serial/src/nrf_mesh_serial.c.obj
 .text.nrf_mesh_serial_tx
                0x00000000       0x60 examples/serial/CMakeFiles/serial_nrf51422_xxAC_s130_2.0.1.dir/__/__/mesh/serial/src/nrf_mesh_serial.c.obj
 .text          0x00000000        0x0 examples/serial/CMakeFiles/serial_nrf51422_xxAC_s130_2.0.1.dir/__/__/mesh/serial/src/serial_handler_app.c.obj
 .data          0x00000000        0x0 examples/serial/CMakeFiles/serial_nrf51422_xxAC_s130_2.0.1.dir/__/__/mesh/serial/src/serial_handler_app.c.obj
 .bss           0x00000000        0x0 examples/serial/CMakeFiles/serial_nrf51422_xxAC_s130_2.0.1.dir/__/__/mesh/serial/src/serial_handler_app.c.obj
 .text          0x00000000        0x0 examples/serial/CMakeFiles/serial_nrf51422_xxAC_s130_2.0.1.dir/__/nrf_mesh_weak.c.obj
 .data          0x00000000        0x0 examples/serial/CMakeFiles/serial_nrf51422_xxAC_s130_2.0.1.dir/__/nrf_mesh_weak.c.obj
 .bss           0x00000000        0x0 examples/serial/CMakeFiles/serial_nrf51422_xxAC_s130_2.0.1.dir/__/nrf_mesh_weak.c.obj
 .text._weak_handler_ptr
                0x00000000        0x4 examples/serial/CMakeFiles/serial_nrf51422_xxAC_s130_2.0.1.dir/__/nrf_mesh_weak.c.obj
 .text          0x00000000        0x0 examples/serial/CMakeFiles/serial_nrf51422_xxAC_s130_2.0.1.dir/__/__/external/nRF5_SDK_14.2.0_17b948a/components/toolchain/system_nrf51.c.obj
 .data          0x00000000        0x0 examples/serial/CMakeFiles/serial_nrf51422_xxAC_s130_2.0.1.dir/__/__/external/nRF5_SDK_14.2.0_17b948a/components/toolchain/system_nrf51.c.obj
 .bss           0x00000000        0x0 examples/serial/CMakeFiles/serial_nrf51422_xxAC_s130_2.0.1.dir/__/__/external/nRF5_SDK_14.2.0_17b948a/components/toolchain/system_nrf51.c.obj
 .text.SystemCoreClockUpdate
                0x00000000       0x10 examples/serial/CMakeFiles/serial_nrf51422_xxAC_s130_2.0.1.dir/__/__/external/nRF5_SDK_14.2.0_17b948a/components/toolchain/system_nrf51.c.obj
 .data          0x00000000        0x0 examples/serial/CMakeFiles/serial_nrf51422_xxAC_s130_2.0.1.dir/__/__/external/nRF5_SDK_14.2.0_17b948a/components/toolchain/gcc/gcc_startup_nrf51.S.obj
 .bss           0x00000000        0x0 examples/serial/CMakeFiles/serial_nrf51422_xxAC_s130_2.0.1.dir/__/__/external/nRF5_SDK_14.2.0_17b948a/components/toolchain/gcc/gcc_startup_nrf51.S.obj
 .text          0x00000000        0x0 mesh/core/libmesh_core_nrf51422_xxAC.a(internal_event.c.obj)
 .data          0x00000000        0x0 mesh/core/libmesh_core_nrf51422_xxAC.a(internal_event.c.obj)
 .bss           0x00000000        0x0 mesh/core/libmesh_core_nrf51422_xxAC.a(internal_event.c.obj)
 .text.internal_event_pop
                0x00000000       0x20 mesh/core/libmesh_core_nrf51422_xxAC.a(internal_event.c.obj)
 .text          0x00000000        0x0 mesh/core/libmesh_core_nrf51422_xxAC.a(nrf_mesh_configure.c.obj)
 .data          0x00000000        0x0 mesh/core/libmesh_core_nrf51422_xxAC.a(nrf_mesh_configure.c.obj)
 .bss           0x00000000        0x0 mesh/core/libmesh_core_nrf51422_xxAC.a(nrf_mesh_configure.c.obj)
 .text          0x00000000        0x0 mesh/core/libmesh_core_nrf51422_xxAC.a(event.c.obj)
 .data          0x00000000        0x0 mesh/core/libmesh_core_nrf51422_xxAC.a(event.c.obj)
 .bss           0x00000000        0x0 mesh/core/libmesh_core_nrf51422_xxAC.a(event.c.obj)
 .text          0x00000000        0x0 mesh/core/libmesh_core_nrf51422_xxAC.a(packet_buffer.c.obj)
 .data          0x00000000        0x0 mesh/core/libmesh_core_nrf51422_xxAC.a(packet_buffer.c.obj)
 .bss           0x00000000        0x0 mesh/core/libmesh_core_nrf51422_xxAC.a(packet_buffer.c.obj)
 .text          0x00000000        0x0 mesh/core/libmesh_core_nrf51422_xxAC.a(fifo.c.obj)
 .data          0x00000000        0x0 mesh/core/libmesh_core_nrf51422_xxAC.a(fifo.c.obj)
 .bss           0x00000000        0x0 mesh/core/libmesh_core_nrf51422_xxAC.a(fifo.c.obj)
 .text.fifo_peek_at
                0x00000000       0x5a mesh/core/libmesh_core_nrf51422_xxAC.a(fifo.c.obj)
 .text.fifo_peek
                0x00000000        0xa mesh/core/libmesh_core_nrf51422_xxAC.a(fifo.c.obj)
 .text.fifo_flush
                0x00000000        0x6 mesh/core/libmesh_core_nrf51422_xxAC.a(fifo.c.obj)
 .text.fifo_get_len
                0x00000000        0x8 mesh/core/libmesh_core_nrf51422_xxAC.a(fifo.c.obj)
 .text.fifo_is_full
                0x00000000       0x12 mesh/core/libmesh_core_nrf51422_xxAC.a(fifo.c.obj)
 .text.fifo_is_empty
                0x00000000        0xe mesh/core/libmesh_core_nrf51422_xxAC.a(fifo.c.obj)
 .text          0x00000000        0x0 mesh/core/libmesh_core_nrf51422_xxAC.a(net_state.c.obj)
 .data          0x00000000        0x0 mesh/core/libmesh_core_nrf51422_xxAC.a(net_state.c.obj)
 .bss           0x00000000        0x0 mesh/core/libmesh_core_nrf51422_xxAC.a(net_state.c.obj)
 .text.net_state_iv_update_test_mode_set
                0x00000000        0xc mesh/core/libmesh_core_nrf51422_xxAC.a(net_state.c.obj)
 .text          0x00000000        0x0 mesh/core/libmesh_core_nrf51422_xxAC.a(nrf_mesh_utils.c.obj)
 .data          0x00000000        0x0 mesh/core/libmesh_core_nrf51422_xxAC.a(nrf_mesh_utils.c.obj)
 .bss           0x00000000        0x0 mesh/core/libmesh_core_nrf51422_xxAC.a(nrf_mesh_utils.c.obj)
 .text.nrf_mesh_rand_get
                0x00000000       0x14 mesh/core/libmesh_core_nrf51422_xxAC.a(nrf_mesh_utils.c.obj)
 .text.nrf_mesh_gap_address_type_get
                0x00000000       0x40 mesh/core/libmesh_core_nrf51422_xxAC.a(nrf_mesh_utils.c.obj)
 .text          0x00000000        0x0 mesh/core/libmesh_core_nrf51422_xxAC.a(nrf_mesh.c.obj)
 .data          0x00000000        0x0 mesh/core/libmesh_core_nrf51422_xxAC.a(nrf_mesh.c.obj)
 .bss           0x00000000        0x0 mesh/core/libmesh_core_nrf51422_xxAC.a(nrf_mesh.c.obj)
 .text.nrf_mesh_process
                0x00000000        0x8 mesh/core/libmesh_core_nrf51422_xxAC.a(nrf_mesh.c.obj)
 .text.nrf_mesh_evt_handler_remove
                0x00000000        0x8 mesh/core/libmesh_core_nrf51422_xxAC.a(nrf_mesh.c.obj)
 .text.nrf_mesh_rx_cb_set
                0x00000000        0xc mesh/core/libmesh_core_nrf51422_xxAC.a(nrf_mesh.c.obj)
 .text.nrf_mesh_rx_cb_clear
                0x00000000        0xc mesh/core/libmesh_core_nrf51422_xxAC.a(nrf_mesh.c.obj)
 .text          0x00000000        0x0 mesh/core/libmesh_core_nrf51422_xxAC.a(hal.c.obj)
 .data          0x00000000        0x0 mesh/core/libmesh_core_nrf51422_xxAC.a(hal.c.obj)
 .bss           0x00000000        0x0 mesh/core/libmesh_core_nrf51422_xxAC.a(hal.c.obj)
 .text          0x00000000        0x0 mesh/core/libmesh_core_nrf51422_xxAC.a(timer_scheduler.c.obj)
 .data          0x00000000        0x0 mesh/core/libmesh_core_nrf51422_xxAC.a(timer_scheduler.c.obj)
 .bss           0x00000000        0x0 mesh/core/libmesh_core_nrf51422_xxAC.a(timer_scheduler.c.obj)
 .text          0x00000000        0x0 mesh/core/libmesh_core_nrf51422_xxAC.a(timer.c.obj)
 .data          0x00000000        0x0 mesh/core/libmesh_core_nrf51422_xxAC.a(timer.c.obj)
 .bss           0x00000000        0x0 mesh/core/libmesh_core_nrf51422_xxAC.a(timer.c.obj)
 .text.timer_order_cb_ppi
                0x00000000       0xc8 mesh/core/libmesh_core_nrf51422_xxAC.a(timer.c.obj)
 .text.timer_order_ppi
                0x00000000       0xc4 mesh/core/libmesh_core_nrf51422_xxAC.a(timer.c.obj)
 .text.timer_abort
                0x00000000       0x7c mesh/core/libmesh_core_nrf51422_xxAC.a(timer.c.obj)
 .text          0x00000000        0x0 mesh/core/libmesh_core_nrf51422_xxAC.a(ticker.c.obj)
 .data          0x00000000        0x0 mesh/core/libmesh_core_nrf51422_xxAC.a(ticker.c.obj)
 .bss           0x00000000        0x0 mesh/core/libmesh_core_nrf51422_xxAC.a(ticker.c.obj)
 .text.ticker_get
                0x00000000        0xc mesh/core/libmesh_core_nrf51422_xxAC.a(ticker.c.obj)
 .text          0x00000000        0x0 mesh/core/libmesh_core_nrf51422_xxAC.a(rand.c.obj)
 .data          0x00000000        0x0 mesh/core/libmesh_core_nrf51422_xxAC.a(rand.c.obj)
 .bss           0x00000000        0x0 mesh/core/libmesh_core_nrf51422_xxAC.a(rand.c.obj)
 .text          0x00000000        0x0 mesh/core/libmesh_core_nrf51422_xxAC.a(nrf_mesh_opt.c.obj)
 .data          0x00000000        0x0 mesh/core/libmesh_core_nrf51422_xxAC.a(nrf_mesh_opt.c.obj)
 .bss           0x00000000        0x0 mesh/core/libmesh_core_nrf51422_xxAC.a(nrf_mesh_opt.c.obj)
 .text          0x00000000        0x0 mesh/core/libmesh_core_nrf51422_xxAC.a(timeslot.c.obj)
 .data          0x00000000        0x0 mesh/core/libmesh_core_nrf51422_xxAC.a(timeslot.c.obj)
 .bss           0x00000000        0x0 mesh/core/libmesh_core_nrf51422_xxAC.a(timeslot.c.obj)
 .text.timeslot_end_time_get
                0x00000000       0x18 mesh/core/libmesh_core_nrf51422_xxAC.a(timeslot.c.obj)
 .text.timeslot_is_in_ts
                0x00000000        0xc mesh/core/libmesh_core_nrf51422_xxAC.a(timeslot.c.obj)
 .text.timeslot_restart
                0x00000000       0x14 mesh/core/libmesh_core_nrf51422_xxAC.a(timeslot.c.obj)
 .text          0x00000000        0x0 mesh/core/libmesh_core_nrf51422_xxAC.a(bearer_event.c.obj)
 .data          0x00000000        0x0 mesh/core/libmesh_core_nrf51422_xxAC.a(bearer_event.c.obj)
 .bss           0x00000000        0x0 mesh/core/libmesh_core_nrf51422_xxAC.a(bearer_event.c.obj)
 .text.bearer_event_timer_sch_post
                0x00000000       0x38 mesh/core/libmesh_core_nrf51422_xxAC.a(bearer_event.c.obj)
 .text.bearer_event_in_correct_irq_priority
                0x00000000       0x60 mesh/core/libmesh_core_nrf51422_xxAC.a(bearer_event.c.obj)
 .text          0x00000000        0x0 mesh/core/libmesh_core_nrf51422_xxAC.a(enc.c.obj)
 .data          0x00000000        0x0 mesh/core/libmesh_core_nrf51422_xxAC.a(enc.c.obj)
 .bss           0x00000000        0x0 mesh/core/libmesh_core_nrf51422_xxAC.a(enc.c.obj)
 .text.enc_key_generate
                0x00000000        0xa mesh/core/libmesh_core_nrf51422_xxAC.a(enc.c.obj)
 .text          0x00000000        0x0 mesh/core/libmesh_core_nrf51422_xxAC.a(network.c.obj)
 .data          0x00000000        0x0 mesh/core/libmesh_core_nrf51422_xxAC.a(network.c.obj)
 .bss           0x00000000        0x0 mesh/core/libmesh_core_nrf51422_xxAC.a(network.c.obj)
 .text.network_packet_discard
                0x00000000       0x40 mesh/core/libmesh_core_nrf51422_xxAC.a(network.c.obj)
 .text          0x00000000        0x0 mesh/core/libmesh_core_nrf51422_xxAC.a(nrf_mesh_keygen.c.obj)
 .data          0x00000000        0x0 mesh/core/libmesh_core_nrf51422_xxAC.a(nrf_mesh_keygen.c.obj)
 .bss           0x00000000        0x0 mesh/core/libmesh_core_nrf51422_xxAC.a(nrf_mesh_keygen.c.obj)
 .text.nrf_mesh_keygen_identitykey
                0x00000000       0x4c mesh/core/libmesh_core_nrf51422_xxAC.a(nrf_mesh_keygen.c.obj)
 .text          0x00000000        0x0 mesh/core/libmesh_core_nrf51422_xxAC.a(list.c.obj)
 .data          0x00000000        0x0 mesh/core/libmesh_core_nrf51422_xxAC.a(list.c.obj)
 .bss           0x00000000        0x0 mesh/core/libmesh_core_nrf51422_xxAC.a(list.c.obj)
 .text.list_size_get
                0x00000000       0x12 mesh/core/libmesh_core_nrf51422_xxAC.a(list.c.obj)
 .text.list_sorted_add
                0x00000000       0x94 mesh/core/libmesh_core_nrf51422_xxAC.a(list.c.obj)
 .text          0x00000000        0x0 mesh/core/libmesh_core_nrf51422_xxAC.a(log.c.obj)
 .data          0x00000000        0x0 mesh/core/libmesh_core_nrf51422_xxAC.a(log.c.obj)
 .bss           0x00000000        0x0 mesh/core/libmesh_core_nrf51422_xxAC.a(log.c.obj)
 .text.log_callback_logview
                0x00000000       0x34 mesh/core/libmesh_core_nrf51422_xxAC.a(log.c.obj)
 .text.log_set_callback
                0x00000000        0xc mesh/core/libmesh_core_nrf51422_xxAC.a(log.c.obj)
 .rodata.log_callback_logview.str1.1
                0x00000000        0xf mesh/core/libmesh_core_nrf51422_xxAC.a(log.c.obj)
 .text          0x00000000        0x0 mesh/core/libmesh_core_nrf51422_xxAC.a(flash_manager.c.obj)
 .data          0x00000000        0x0 mesh/core/libmesh_core_nrf51422_xxAC.a(flash_manager.c.obj)
 .bss           0x00000000        0x0 mesh/core/libmesh_core_nrf51422_xxAC.a(flash_manager.c.obj)
 .text.flash_manager_entry_get
                0x00000000       0x4c mesh/core/libmesh_core_nrf51422_xxAC.a(flash_manager.c.obj)
 .text.flash_manager_entry_count_get
                0x00000000       0x5c mesh/core/libmesh_core_nrf51422_xxAC.a(flash_manager.c.obj)
 .text.flash_manager_entry_release
                0x00000000       0x10 mesh/core/libmesh_core_nrf51422_xxAC.a(flash_manager.c.obj)
 .text.flash_manager_action_queue_empty_cb_set
                0x00000000       0x2c mesh/core/libmesh_core_nrf51422_xxAC.a(flash_manager.c.obj)
 .text          0x00000000        0x0 mesh/core/libmesh_core_nrf51422_xxAC.a(ccm_soft.c.obj)
 .data          0x00000000        0x0 mesh/core/libmesh_core_nrf51422_xxAC.a(ccm_soft.c.obj)
 .bss           0x00000000        0x0 mesh/core/libmesh_core_nrf51422_xxAC.a(ccm_soft.c.obj)
 .text          0x00000000        0x0 mesh/core/libmesh_core_nrf51422_xxAC.a(beacon.c.obj)
 .data          0x00000000        0x0 mesh/core/libmesh_core_nrf51422_xxAC.a(beacon.c.obj)
 .bss           0x00000000        0x0 mesh/core/libmesh_core_nrf51422_xxAC.a(beacon.c.obj)
 .text          0x00000000        0x0 mesh/core/libmesh_core_nrf51422_xxAC.a(flash_manager_internal.c.obj)
 .data          0x00000000        0x0 mesh/core/libmesh_core_nrf51422_xxAC.a(flash_manager_internal.c.obj)
 .bss           0x00000000        0x0 mesh/core/libmesh_core_nrf51422_xxAC.a(flash_manager_internal.c.obj)
 .text          0x00000000        0x0 mesh/core/libmesh_core_nrf51422_xxAC.a(core_tx.c.obj)
 .data          0x00000000        0x0 mesh/core/libmesh_core_nrf51422_xxAC.a(core_tx.c.obj)
 .bss           0x00000000        0x0 mesh/core/libmesh_core_nrf51422_xxAC.a(core_tx.c.obj)
 .text          0x00000000        0x0 mesh/core/libmesh_core_nrf51422_xxAC.a(heartbeat.c.obj)
 .data          0x00000000        0x0 mesh/core/libmesh_core_nrf51422_xxAC.a(heartbeat.c.obj)
 .bss           0x00000000        0x0 mesh/core/libmesh_core_nrf51422_xxAC.a(heartbeat.c.obj)
 .text.heartbeat_subscription_set
                0x00000000       0x98 mesh/core/libmesh_core_nrf51422_xxAC.a(heartbeat.c.obj)
 .text.heartbeat_subscription_get
                0x00000000        0x8 mesh/core/libmesh_core_nrf51422_xxAC.a(heartbeat.c.obj)
 .text.heartbeat_config_server_cb_set
                0x00000000       0x44 mesh/core/libmesh_core_nrf51422_xxAC.a(heartbeat.c.obj)
 .text.heartbeat_publication_state_updated
                0x00000000       0x88 mesh/core/libmesh_core_nrf51422_xxAC.a(heartbeat.c.obj)
 .text          0x00000000        0x0 mesh/core/libmesh_core_nrf51422_xxAC.a(net_beacon.c.obj)
 .data          0x00000000        0x0 mesh/core/libmesh_core_nrf51422_xxAC.a(net_beacon.c.obj)
 .bss           0x00000000        0x0 mesh/core/libmesh_core_nrf51422_xxAC.a(net_beacon.c.obj)
 .text.net_beacon_state_set
                0x00000000       0x38 mesh/core/libmesh_core_nrf51422_xxAC.a(net_beacon.c.obj)
 .text.net_beacon_state_get
                0x00000000        0xc mesh/core/libmesh_core_nrf51422_xxAC.a(net_beacon.c.obj)
 .text          0x00000000        0x0 mesh/core/libmesh_core_nrf51422_xxAC.a(core_tx_adv.c.obj)
 .data          0x00000000        0x0 mesh/core/libmesh_core_nrf51422_xxAC.a(core_tx_adv.c.obj)
 .bss           0x00000000        0x0 mesh/core/libmesh_core_nrf51422_xxAC.a(core_tx_adv.c.obj)
 .text.core_tx_adv_address_set
                0x00000000       0x34 mesh/core/libmesh_core_nrf51422_xxAC.a(core_tx_adv.c.obj)
 .text          0x00000000        0x0 mesh/core/libmesh_core_nrf51422_xxAC.a(ad_listener.c.obj)
 .data          0x00000000        0x0 mesh/core/libmesh_core_nrf51422_xxAC.a(ad_listener.c.obj)
 .bss           0x00000000        0x0 mesh/core/libmesh_core_nrf51422_xxAC.a(ad_listener.c.obj)
 .text.ad_listener_unsubscribe
                0x00000000       0x7c mesh/core/libmesh_core_nrf51422_xxAC.a(ad_listener.c.obj)
 .text          0x00000000        0x0 mesh/core/libmesh_core_nrf51422_xxAC.a(ad_type_filter.c.obj)
 .data          0x00000000        0x0 mesh/core/libmesh_core_nrf51422_xxAC.a(ad_type_filter.c.obj)
 .bss           0x00000000        0x0 mesh/core/libmesh_core_nrf51422_xxAC.a(ad_type_filter.c.obj)
 .text.bearer_adtype_remove
                0x00000000       0x20 mesh/core/libmesh_core_nrf51422_xxAC.a(ad_type_filter.c.obj)
 .text.bearer_adtype_clear
                0x00000000       0x14 mesh/core/libmesh_core_nrf51422_xxAC.a(ad_type_filter.c.obj)
 .text.bearer_invalid_length_amount_get
                0x00000000        0xc mesh/core/libmesh_core_nrf51422_xxAC.a(ad_type_filter.c.obj)
 .text.bearer_adtype_filtered_amount_get
                0x00000000        0xc mesh/core/libmesh_core_nrf51422_xxAC.a(ad_type_filter.c.obj)
 .text          0x00000000        0x0 mesh/core/libmesh_core_nrf51422_xxAC.a(advertiser.c.obj)
 .data          0x00000000        0x0 mesh/core/libmesh_core_nrf51422_xxAC.a(advertiser.c.obj)
 .bss           0x00000000        0x0 mesh/core/libmesh_core_nrf51422_xxAC.a(advertiser.c.obj)
 .text.advertiser_address_set
                0x00000000       0x58 mesh/core/libmesh_core_nrf51422_xxAC.a(advertiser.c.obj)
 .text.advertiser_config_set
                0x00000000       0x48 mesh/core/libmesh_core_nrf51422_xxAC.a(advertiser.c.obj)
 .text.advertiser_config_get
                0x00000000       0x30 mesh/core/libmesh_core_nrf51422_xxAC.a(advertiser.c.obj)
 .text          0x00000000        0x0 mesh/core/libmesh_core_nrf51422_xxAC.a(bearer_handler.c.obj)
 .data          0x00000000        0x0 mesh/core/libmesh_core_nrf51422_xxAC.a(bearer_handler.c.obj)
 .bss           0x00000000        0x0 mesh/core/libmesh_core_nrf51422_xxAC.a(bearer_handler.c.obj)
 .text.bearer_handler_action_fire
                0x00000000       0xcc mesh/core/libmesh_core_nrf51422_xxAC.a(bearer_handler.c.obj)
 .text          0x00000000        0x0 mesh/core/libmesh_core_nrf51422_xxAC.a(broadcast.c.obj)
 .data          0x00000000        0x0 mesh/core/libmesh_core_nrf51422_xxAC.a(broadcast.c.obj)
 .bss           0x00000000        0x0 mesh/core/libmesh_core_nrf51422_xxAC.a(broadcast.c.obj)
 .text          0x00000000        0x0 mesh/core/libmesh_core_nrf51422_xxAC.a(filter_engine.c.obj)
 .data          0x00000000        0x0 mesh/core/libmesh_core_nrf51422_xxAC.a(filter_engine.c.obj)
 .bss           0x00000000        0x0 mesh/core/libmesh_core_nrf51422_xxAC.a(filter_engine.c.obj)
 .text.fen_accepted_amount_get
                0x00000000        0xc mesh/core/libmesh_core_nrf51422_xxAC.a(filter_engine.c.obj)
 .text          0x00000000        0x0 mesh/core/libmesh_core_nrf51422_xxAC.a(radio_config.c.obj)
 .data          0x00000000        0x0 mesh/core/libmesh_core_nrf51422_xxAC.a(radio_config.c.obj)
 .bss           0x00000000        0x0 mesh/core/libmesh_core_nrf51422_xxAC.a(radio_config.c.obj)
 .text.radio_config_access_addr_get
                0x00000000       0x78 mesh/core/libmesh_core_nrf51422_xxAC.a(radio_config.c.obj)
 .text          0x00000000        0x0 mesh/core/libmesh_core_nrf51422_xxAC.a(scanner.c.obj)
 .data          0x00000000        0x0 mesh/core/libmesh_core_nrf51422_xxAC.a(scanner.c.obj)
 .bss           0x00000000        0x0 mesh/core/libmesh_core_nrf51422_xxAC.a(scanner.c.obj)
 .text.scanner_rx_callback_set
                0x00000000       0x30 mesh/core/libmesh_core_nrf51422_xxAC.a(scanner.c.obj)
 .text.scanner_is_enabled
                0x00000000       0x14 mesh/core/libmesh_core_nrf51422_xxAC.a(scanner.c.obj)
 .text.scanner_stats_get
                0x00000000        0xc mesh/core/libmesh_core_nrf51422_xxAC.a(scanner.c.obj)
 .text.scanner_config_radio_mode_set
                0x00000000       0x10 mesh/core/libmesh_core_nrf51422_xxAC.a(scanner.c.obj)
 .text          0x00000000        0x0 mesh/core/libmesh_core_nrf51422_xxAC.a(aes.c.obj)
 .data          0x00000000        0x0 mesh/core/libmesh_core_nrf51422_xxAC.a(aes.c.obj)
 .bss           0x00000000        0x0 mesh/core/libmesh_core_nrf51422_xxAC.a(aes.c.obj)
 .text          0x00000000        0x0 mesh/core/libmesh_core_nrf51422_xxAC.a(msg_cache.c.obj)
 .data          0x00000000        0x0 mesh/core/libmesh_core_nrf51422_xxAC.a(msg_cache.c.obj)
 .bss           0x00000000        0x0 mesh/core/libmesh_core_nrf51422_xxAC.a(msg_cache.c.obj)
 .text.msg_cache_clear
                0x00000000       0x18 mesh/core/libmesh_core_nrf51422_xxAC.a(msg_cache.c.obj)
 .text          0x00000000        0x0 mesh/core/libmesh_core_nrf51422_xxAC.a(transport.c.obj)
 .data          0x00000000        0x0 mesh/core/libmesh_core_nrf51422_xxAC.a(transport.c.obj)
 .bss           0x00000000        0x0 mesh/core/libmesh_core_nrf51422_xxAC.a(transport.c.obj)
 .text.transport_sar_mem_funcs_set
                0x00000000       0x3c mesh/core/libmesh_core_nrf51422_xxAC.a(transport.c.obj)
 .text          0x00000000        0x0 mesh/core/libmesh_core_nrf51422_xxAC.a(flash_manager_defrag.c.obj)
 .data          0x00000000        0x0 mesh/core/libmesh_core_nrf51422_xxAC.a(flash_manager_defrag.c.obj)
 .bss           0x00000000        0x0 mesh/core/libmesh_core_nrf51422_xxAC.a(flash_manager_defrag.c.obj)
 .text.flash_manager_defragging
                0x00000000       0x44 mesh/core/libmesh_core_nrf51422_xxAC.a(flash_manager_defrag.c.obj)
 .text          0x00000000        0x0 mesh/core/libmesh_core_nrf51422_xxAC.a(packet_mgr.c.obj)
 .data          0x00000000        0x0 mesh/core/libmesh_core_nrf51422_xxAC.a(packet_mgr.c.obj)
 .bss           0x00000000        0x0 mesh/core/libmesh_core_nrf51422_xxAC.a(packet_mgr.c.obj)
 .text.packet_mgr_alloc
                0x00000000      0x18c mesh/core/libmesh_core_nrf51422_xxAC.a(packet_mgr.c.obj)
 .text.packet_mgr_free
                0x00000000       0x6c mesh/core/libmesh_core_nrf51422_xxAC.a(packet_mgr.c.obj)
 .text.packet_mgr_get_free_space
                0x00000000       0x1c mesh/core/libmesh_core_nrf51422_xxAC.a(packet_mgr.c.obj)
 .text.packet_mgr_refcount_get
                0x00000000        0x6 mesh/core/libmesh_core_nrf51422_xxAC.a(packet_mgr.c.obj)
 .text.packet_mgr_size_get
                0x00000000        0x6 mesh/core/libmesh_core_nrf51422_xxAC.a(packet_mgr.c.obj)
 .text          0x00000000        0x0 mesh/core/libmesh_core_nrf51422_xxAC.a(mesh_flash.c.obj)
 .data          0x00000000        0x0 mesh/core/libmesh_core_nrf51422_xxAC.a(mesh_flash.c.obj)
 .bss           0x00000000        0x0 mesh/core/libmesh_core_nrf51422_xxAC.a(mesh_flash.c.obj)
 .text.mesh_flash_op_available_slots
                0x00000000       0x2c mesh/core/libmesh_core_nrf51422_xxAC.a(mesh_flash.c.obj)
 .text.mesh_flash_in_progress
                0x00000000       0x38 mesh/core/libmesh_core_nrf51422_xxAC.a(mesh_flash.c.obj)
 .text.mesh_flash_set_suspended
                0x00000000       0x90 mesh/core/libmesh_core_nrf51422_xxAC.a(mesh_flash.c.obj)
 .bss.suspend_count.7515
                0x00000000        0x4 mesh/core/libmesh_core_nrf51422_xxAC.a(mesh_flash.c.obj)
 .text          0x00000000        0x0 mesh/core/libmesh_core_nrf51422_xxAC.a(queue.c.obj)
 .data          0x00000000        0x0 mesh/core/libmesh_core_nrf51422_xxAC.a(queue.c.obj)
 .bss           0x00000000        0x0 mesh/core/libmesh_core_nrf51422_xxAC.a(queue.c.obj)
 .text          0x00000000        0x0 mesh/core/libmesh_core_nrf51422_xxAC.a(aes_cmac.c.obj)
 .data          0x00000000        0x0 mesh/core/libmesh_core_nrf51422_xxAC.a(aes_cmac.c.obj)
 .bss           0x00000000        0x0 mesh/core/libmesh_core_nrf51422_xxAC.a(aes_cmac.c.obj)
 .text          0x00000000        0x0 mesh/core/libmesh_core_nrf51422_xxAC.a(msqueue.c.obj)
 .data          0x00000000        0x0 mesh/core/libmesh_core_nrf51422_xxAC.a(msqueue.c.obj)
 .bss           0x00000000        0x0 mesh/core/libmesh_core_nrf51422_xxAC.a(msqueue.c.obj)
 .text          0x00000000        0x0 mesh/core/libmesh_core_nrf51422_xxAC.a(replay_cache.c.obj)
 .data          0x00000000        0x0 mesh/core/libmesh_core_nrf51422_xxAC.a(replay_cache.c.obj)
 .bss           0x00000000        0x0 mesh/core/libmesh_core_nrf51422_xxAC.a(replay_cache.c.obj)
 .text.replay_cache_on_iv_update
                0x00000000       0x28 mesh/core/libmesh_core_nrf51422_xxAC.a(replay_cache.c.obj)
 .text          0x00000000        0x0 mesh/core/libmesh_core_nrf51422_xxAC.a(nrf_flash.c.obj)
 .data          0x00000000        0x0 mesh/core/libmesh_core_nrf51422_xxAC.a(nrf_flash.c.obj)
 .bss           0x00000000        0x0 mesh/core/libmesh_core_nrf51422_xxAC.a(nrf_flash.c.obj)
 .text          0x00000000        0x0 external/micro-ecc/libuECC_nrf51422_xxAC.a(uECC.c.obj)
 .data          0x00000000        0x0 external/micro-ecc/libuECC_nrf51422_xxAC.a(uECC.c.obj)
 .bss           0x00000000        0x0 external/micro-ecc/libuECC_nrf51422_xxAC.a(uECC.c.obj)
 .text.uECC_vli_modMult
                0x00000000      0x128 external/micro-ecc/libuECC_nrf51422_xxAC.a(uECC.c.obj)
 .text.HMAC_init
                0x00000000       0x40 external/micro-ecc/libuECC_nrf51422_xxAC.a(uECC.c.obj)
 .text.HMAC_update
                0x00000000        0x8 external/micro-ecc/libuECC_nrf51422_xxAC.a(uECC.c.obj)
 .text.HMAC_finish
                0x00000000       0x5c external/micro-ecc/libuECC_nrf51422_xxAC.a(uECC.c.obj)
 .text.update_V
                0x00000000       0x22 external/micro-ecc/libuECC_nrf51422_xxAC.a(uECC.c.obj)
 .text.bits2int
                0x00000000       0x8c external/micro-ecc/libuECC_nrf51422_xxAC.a(uECC.c.obj)
 .text.uECC_sign_with_k
                0x00000000      0x184 external/micro-ecc/libuECC_nrf51422_xxAC.a(uECC.c.obj)
 .text.uECC_set_rng
                0x00000000        0xc external/micro-ecc/libuECC_nrf51422_xxAC.a(uECC.c.obj)
 .text.uECC_get_rng
                0x00000000        0xc external/micro-ecc/libuECC_nrf51422_xxAC.a(uECC.c.obj)
 .text.uECC_curve_private_key_size
                0x00000000       0x12 external/micro-ecc/libuECC_nrf51422_xxAC.a(uECC.c.obj)
 .text.uECC_curve_public_key_size
                0x00000000        0x8 external/micro-ecc/libuECC_nrf51422_xxAC.a(uECC.c.obj)
 .text.uECC_compute_public_key
                0x00000000       0x88 external/micro-ecc/libuECC_nrf51422_xxAC.a(uECC.c.obj)
 .text.uECC_sign
                0x00000000       0x5a external/micro-ecc/libuECC_nrf51422_xxAC.a(uECC.c.obj)
 .text.uECC_sign_deterministic
                0x00000000      0x19c external/micro-ecc/libuECC_nrf51422_xxAC.a(uECC.c.obj)
 .text.uECC_verify
                0x00000000      0x2e4 external/micro-ecc/libuECC_nrf51422_xxAC.a(uECC.c.obj)
 .text          0x00000000        0x0 external/rtt/librtt_nrf51422_xxAC.a(SEGGER_RTT.c.obj)
 .data          0x00000000        0x0 external/rtt/librtt_nrf51422_xxAC.a(SEGGER_RTT.c.obj)
 .bss           0x00000000        0x0 external/rtt/librtt_nrf51422_xxAC.a(SEGGER_RTT.c.obj)
 .text._PostTerminalSwitch.constprop.0
                0x00000000       0x20 external/rtt/librtt_nrf51422_xxAC.a(SEGGER_RTT.c.obj)
 .text.SEGGER_RTT_ReadNoLock
                0x00000000       0xa4 external/rtt/librtt_nrf51422_xxAC.a(SEGGER_RTT.c.obj)
 .text.SEGGER_RTT_Read
                0x00000000       0x1a external/rtt/librtt_nrf51422_xxAC.a(SEGGER_RTT.c.obj)
 .text.SEGGER_RTT_WriteSkipNoLock
                0x00000000       0xb0 external/rtt/librtt_nrf51422_xxAC.a(SEGGER_RTT.c.obj)
 .text.SEGGER_RTT_WriteString
                0x00000000       0x18 external/rtt/librtt_nrf51422_xxAC.a(SEGGER_RTT.c.obj)
 .text.SEGGER_RTT_GetKey
                0x00000000       0x1e external/rtt/librtt_nrf51422_xxAC.a(SEGGER_RTT.c.obj)
 .text.SEGGER_RTT_WaitKey
                0x00000000        0xc external/rtt/librtt_nrf51422_xxAC.a(SEGGER_RTT.c.obj)
 .text.SEGGER_RTT_HasKey
                0x00000000       0x20 external/rtt/librtt_nrf51422_xxAC.a(SEGGER_RTT.c.obj)
 .text.SEGGER_RTT_HasData
                0x00000000       0x14 external/rtt/librtt_nrf51422_xxAC.a(SEGGER_RTT.c.obj)
 .text.SEGGER_RTT_AllocDownBuffer
                0x00000000       0x64 external/rtt/librtt_nrf51422_xxAC.a(SEGGER_RTT.c.obj)
 .text.SEGGER_RTT_AllocUpBuffer
                0x00000000       0x68 external/rtt/librtt_nrf51422_xxAC.a(SEGGER_RTT.c.obj)
 .text.SEGGER_RTT_ConfigUpBuffer
                0x00000000       0x60 external/rtt/librtt_nrf51422_xxAC.a(SEGGER_RTT.c.obj)
 .text.SEGGER_RTT_ConfigDownBuffer
                0x00000000       0x5c external/rtt/librtt_nrf51422_xxAC.a(SEGGER_RTT.c.obj)
 .text.SEGGER_RTT_SetNameUpBuffer
                0x00000000       0x3c external/rtt/librtt_nrf51422_xxAC.a(SEGGER_RTT.c.obj)
 .text.SEGGER_RTT_SetNameDownBuffer
                0x00000000       0x3c external/rtt/librtt_nrf51422_xxAC.a(SEGGER_RTT.c.obj)
 .text.SEGGER_RTT_Init
                0x00000000       0x14 external/rtt/librtt_nrf51422_xxAC.a(SEGGER_RTT.c.obj)
 .text.SEGGER_RTT_SetTerminal
                0x00000000       0x80 external/rtt/librtt_nrf51422_xxAC.a(SEGGER_RTT.c.obj)
 .text.SEGGER_RTT_TerminalOut
                0x00000000       0xa0 external/rtt/librtt_nrf51422_xxAC.a(SEGGER_RTT.c.obj)
 .bss._ActiveTerminal
                0x00000000        0x1 external/rtt/librtt_nrf51422_xxAC.a(SEGGER_RTT.c.obj)
 .rodata._aTerminalId
                0x00000000       0x10 external/rtt/librtt_nrf51422_xxAC.a(SEGGER_RTT.c.obj)
 .text          0x00000000        0x0 external/rtt/librtt_nrf51422_xxAC.a(SEGGER_RTT_printf.c.obj)
 .data          0x00000000        0x0 external/rtt/librtt_nrf51422_xxAC.a(SEGGER_RTT_printf.c.obj)
 .bss           0x00000000        0x0 external/rtt/librtt_nrf51422_xxAC.a(SEGGER_RTT_printf.c.obj)
 .data          0x00000000        0x0 c:/a/gcc_arm/6/bin/../lib/gcc/arm-none-eabi/6.3.1/thumb/v6-m\libgcc.a(_thumb1_case_uqi.o)
 .bss           0x00000000        0x0 c:/a/gcc_arm/6/bin/../lib/gcc/arm-none-eabi/6.3.1/thumb/v6-m\libgcc.a(_thumb1_case_uqi.o)
 .data          0x00000000        0x0 c:/a/gcc_arm/6/bin/../lib/gcc/arm-none-eabi/6.3.1/thumb/v6-m\libgcc.a(_thumb1_case_shi.o)
 .bss           0x00000000        0x0 c:/a/gcc_arm/6/bin/../lib/gcc/arm-none-eabi/6.3.1/thumb/v6-m\libgcc.a(_thumb1_case_shi.o)
 .data          0x00000000        0x0 c:/a/gcc_arm/6/bin/../lib/gcc/arm-none-eabi/6.3.1/thumb/v6-m\libgcc.a(_thumb1_case_uhi.o)
 .bss           0x00000000        0x0 c:/a/gcc_arm/6/bin/../lib/gcc/arm-none-eabi/6.3.1/thumb/v6-m\libgcc.a(_thumb1_case_uhi.o)
 .data          0x00000000        0x0 c:/a/gcc_arm/6/bin/../lib/gcc/arm-none-eabi/6.3.1/thumb/v6-m\libgcc.a(_udivsi3.o)
 .bss           0x00000000        0x0 c:/a/gcc_arm/6/bin/../lib/gcc/arm-none-eabi/6.3.1/thumb/v6-m\libgcc.a(_udivsi3.o)
 .data          0x00000000        0x0 c:/a/gcc_arm/6/bin/../lib/gcc/arm-none-eabi/6.3.1/thumb/v6-m\libgcc.a(_divsi3.o)
 .bss           0x00000000        0x0 c:/a/gcc_arm/6/bin/../lib/gcc/arm-none-eabi/6.3.1/thumb/v6-m\libgcc.a(_divsi3.o)
 .data          0x00000000        0x0 c:/a/gcc_arm/6/bin/../lib/gcc/arm-none-eabi/6.3.1/thumb/v6-m\libgcc.a(_dvmd_tls.o)
 .bss           0x00000000        0x0 c:/a/gcc_arm/6/bin/../lib/gcc/arm-none-eabi/6.3.1/thumb/v6-m\libgcc.a(_dvmd_tls.o)
 .data          0x00000000        0x0 c:/a/gcc_arm/6/bin/../lib/gcc/arm-none-eabi/6.3.1/thumb/v6-m\libgcc.a(_muldi3.o)
 .bss           0x00000000        0x0 c:/a/gcc_arm/6/bin/../lib/gcc/arm-none-eabi/6.3.1/thumb/v6-m\libgcc.a(_muldi3.o)
 .text          0x00000000        0x0 c:/a/gcc_arm/6/bin/../lib/gcc/arm-none-eabi/6.3.1/../../../../arm-none-eabi/lib/thumb/v6-m\libg_nano.a(lib_a-exit.o)
 .data          0x00000000        0x0 c:/a/gcc_arm/6/bin/../lib/gcc/arm-none-eabi/6.3.1/../../../../arm-none-eabi/lib/thumb/v6-m\libg_nano.a(lib_a-exit.o)
 .bss           0x00000000        0x0 c:/a/gcc_arm/6/bin/../lib/gcc/arm-none-eabi/6.3.1/../../../../arm-none-eabi/lib/thumb/v6-m\libg_nano.a(lib_a-exit.o)
 .text          0x00000000        0x0 c:/a/gcc_arm/6/bin/../lib/gcc/arm-none-eabi/6.3.1/../../../../arm-none-eabi/lib/thumb/v6-m\libg_nano.a(lib_a-impure.o)
 .data          0x00000000        0x0 c:/a/gcc_arm/6/bin/../lib/gcc/arm-none-eabi/6.3.1/../../../../arm-none-eabi/lib/thumb/v6-m\libg_nano.a(lib_a-impure.o)
 .bss           0x00000000        0x0 c:/a/gcc_arm/6/bin/../lib/gcc/arm-none-eabi/6.3.1/../../../../arm-none-eabi/lib/thumb/v6-m\libg_nano.a(lib_a-impure.o)
 .text          0x00000000        0x0 c:/a/gcc_arm/6/bin/../lib/gcc/arm-none-eabi/6.3.1/../../../../arm-none-eabi/lib/thumb/v6-m\libg_nano.a(lib_a-init.o)
 .data          0x00000000        0x0 c:/a/gcc_arm/6/bin/../lib/gcc/arm-none-eabi/6.3.1/../../../../arm-none-eabi/lib/thumb/v6-m\libg_nano.a(lib_a-init.o)
 .bss           0x00000000        0x0 c:/a/gcc_arm/6/bin/../lib/gcc/arm-none-eabi/6.3.1/../../../../arm-none-eabi/lib/thumb/v6-m\libg_nano.a(lib_a-init.o)
 .text          0x00000000        0x0 c:/a/gcc_arm/6/bin/../lib/gcc/arm-none-eabi/6.3.1/../../../../arm-none-eabi/lib/thumb/v6-m\libg_nano.a(lib_a-malloc.o)
 .data          0x00000000        0x0 c:/a/gcc_arm/6/bin/../lib/gcc/arm-none-eabi/6.3.1/../../../../arm-none-eabi/lib/thumb/v6-m\libg_nano.a(lib_a-malloc.o)
 .bss           0x00000000        0x0 c:/a/gcc_arm/6/bin/../lib/gcc/arm-none-eabi/6.3.1/../../../../arm-none-eabi/lib/thumb/v6-m\libg_nano.a(lib_a-malloc.o)
 .text          0x00000000        0x0 c:/a/gcc_arm/6/bin/../lib/gcc/arm-none-eabi/6.3.1/../../../../arm-none-eabi/lib/thumb/v6-m\libg_nano.a(lib_a-memcmp.o)
 .data          0x00000000        0x0 c:/a/gcc_arm/6/bin/../lib/gcc/arm-none-eabi/6.3.1/../../../../arm-none-eabi/lib/thumb/v6-m\libg_nano.a(lib_a-memcmp.o)
 .bss           0x00000000        0x0 c:/a/gcc_arm/6/bin/../lib/gcc/arm-none-eabi/6.3.1/../../../../arm-none-eabi/lib/thumb/v6-m\libg_nano.a(lib_a-memcmp.o)
 .text          0x00000000        0x0 c:/a/gcc_arm/6/bin/../lib/gcc/arm-none-eabi/6.3.1/../../../../arm-none-eabi/lib/thumb/v6-m\libg_nano.a(lib_a-memcpy-stub.o)
 .data          0x00000000        0x0 c:/a/gcc_arm/6/bin/../lib/gcc/arm-none-eabi/6.3.1/../../../../arm-none-eabi/lib/thumb/v6-m\libg_nano.a(lib_a-memcpy-stub.o)
 .bss           0x00000000        0x0 c:/a/gcc_arm/6/bin/../lib/gcc/arm-none-eabi/6.3.1/../../../../arm-none-eabi/lib/thumb/v6-m\libg_nano.a(lib_a-memcpy-stub.o)
 .text          0x00000000        0x0 c:/a/gcc_arm/6/bin/../lib/gcc/arm-none-eabi/6.3.1/../../../../arm-none-eabi/lib/thumb/v6-m\libg_nano.a(lib_a-memset.o)
 .data          0x00000000        0x0 c:/a/gcc_arm/6/bin/../lib/gcc/arm-none-eabi/6.3.1/../../../../arm-none-eabi/lib/thumb/v6-m\libg_nano.a(lib_a-memset.o)
 .bss           0x00000000        0x0 c:/a/gcc_arm/6/bin/../lib/gcc/arm-none-eabi/6.3.1/../../../../arm-none-eabi/lib/thumb/v6-m\libg_nano.a(lib_a-memset.o)
 .text          0x00000000        0x0 c:/a/gcc_arm/6/bin/../lib/gcc/arm-none-eabi/6.3.1/../../../../arm-none-eabi/lib/thumb/v6-m\libg_nano.a(lib_a-nano-freer.o)
 .data          0x00000000        0x0 c:/a/gcc_arm/6/bin/../lib/gcc/arm-none-eabi/6.3.1/../../../../arm-none-eabi/lib/thumb/v6-m\libg_nano.a(lib_a-nano-freer.o)
 .bss           0x00000000        0x0 c:/a/gcc_arm/6/bin/../lib/gcc/arm-none-eabi/6.3.1/../../../../arm-none-eabi/lib/thumb/v6-m\libg_nano.a(lib_a-nano-freer.o)
 .text          0x00000000        0x0 c:/a/gcc_arm/6/bin/../lib/gcc/arm-none-eabi/6.3.1/../../../../arm-none-eabi/lib/thumb/v6-m\libg_nano.a(lib_a-nano-mallocr.o)
 .data          0x00000000        0x0 c:/a/gcc_arm/6/bin/../lib/gcc/arm-none-eabi/6.3.1/../../../../arm-none-eabi/lib/thumb/v6-m\libg_nano.a(lib_a-nano-mallocr.o)
 .bss           0x00000000        0x0 c:/a/gcc_arm/6/bin/../lib/gcc/arm-none-eabi/6.3.1/../../../../arm-none-eabi/lib/thumb/v6-m\libg_nano.a(lib_a-nano-mallocr.o)
 .text          0x00000000        0x0 c:/a/gcc_arm/6/bin/../lib/gcc/arm-none-eabi/6.3.1/../../../../arm-none-eabi/lib/thumb/v6-m\libg_nano.a(lib_a-sbrkr.o)
 .data          0x00000000        0x0 c:/a/gcc_arm/6/bin/../lib/gcc/arm-none-eabi/6.3.1/../../../../arm-none-eabi/lib/thumb/v6-m\libg_nano.a(lib_a-sbrkr.o)
 .bss           0x00000000        0x0 c:/a/gcc_arm/6/bin/../lib/gcc/arm-none-eabi/6.3.1/../../../../arm-none-eabi/lib/thumb/v6-m\libg_nano.a(lib_a-sbrkr.o)
 .text          0x00000000        0x0 c:/a/gcc_arm/6/bin/../lib/gcc/arm-none-eabi/6.3.1/../../../../arm-none-eabi/lib/thumb/v6-m\libg_nano.a(lib_a-strcpy.o)
 .data          0x00000000        0x0 c:/a/gcc_arm/6/bin/../lib/gcc/arm-none-eabi/6.3.1/../../../../arm-none-eabi/lib/thumb/v6-m\libg_nano.a(lib_a-strcpy.o)
 .bss           0x00000000        0x0 c:/a/gcc_arm/6/bin/../lib/gcc/arm-none-eabi/6.3.1/../../../../arm-none-eabi/lib/thumb/v6-m\libg_nano.a(lib_a-strcpy.o)
 .data          0x00000000        0x0 c:/a/gcc_arm/6/bin/../lib/gcc/arm-none-eabi/6.3.1/../../../../arm-none-eabi/lib/thumb/v6-m\libg_nano.a(lib_a-strlen.o)
 .bss           0x00000000        0x0 c:/a/gcc_arm/6/bin/../lib/gcc/arm-none-eabi/6.3.1/../../../../arm-none-eabi/lib/thumb/v6-m\libg_nano.a(lib_a-strlen.o)
 .text          0x00000000        0x0 c:/a/gcc_arm/6/bin/../lib/gcc/arm-none-eabi/6.3.1/../../../../arm-none-eabi/lib/thumb/v6-m\libg_nano.a(lib_a-strrchr.o)
 .data          0x00000000        0x0 c:/a/gcc_arm/6/bin/../lib/gcc/arm-none-eabi/6.3.1/../../../../arm-none-eabi/lib/thumb/v6-m\libg_nano.a(lib_a-strrchr.o)
 .bss           0x00000000        0x0 c:/a/gcc_arm/6/bin/../lib/gcc/arm-none-eabi/6.3.1/../../../../arm-none-eabi/lib/thumb/v6-m\libg_nano.a(lib_a-strrchr.o)
 .text          0x00000000        0x0 c:/a/gcc_arm/6/bin/../lib/gcc/arm-none-eabi/6.3.1/../../../../arm-none-eabi/lib/thumb/v6-m\libg_nano.a(lib_a-mlock.o)
 .data          0x00000000        0x0 c:/a/gcc_arm/6/bin/../lib/gcc/arm-none-eabi/6.3.1/../../../../arm-none-eabi/lib/thumb/v6-m\libg_nano.a(lib_a-mlock.o)
 .bss           0x00000000        0x0 c:/a/gcc_arm/6/bin/../lib/gcc/arm-none-eabi/6.3.1/../../../../arm-none-eabi/lib/thumb/v6-m\libg_nano.a(lib_a-mlock.o)
 .text          0x00000000        0x0 c:/a/gcc_arm/6/bin/../lib/gcc/arm-none-eabi/6.3.1/../../../../arm-none-eabi/lib/thumb/v6-m\libg_nano.a(lib_a-reent.o)
 .data          0x00000000        0x0 c:/a/gcc_arm/6/bin/../lib/gcc/arm-none-eabi/6.3.1/../../../../arm-none-eabi/lib/thumb/v6-m\libg_nano.a(lib_a-reent.o)
 .bss           0x00000000        0x0 c:/a/gcc_arm/6/bin/../lib/gcc/arm-none-eabi/6.3.1/../../../../arm-none-eabi/lib/thumb/v6-m\libg_nano.a(lib_a-reent.o)
 .text.cleanup_glue
                0x00000000       0x1a c:/a/gcc_arm/6/bin/../lib/gcc/arm-none-eabi/6.3.1/../../../../arm-none-eabi/lib/thumb/v6-m\libg_nano.a(lib_a-reent.o)
 .text._reclaim_reent
                0x00000000       0xcc c:/a/gcc_arm/6/bin/../lib/gcc/arm-none-eabi/6.3.1/../../../../arm-none-eabi/lib/thumb/v6-m\libg_nano.a(lib_a-reent.o)
 .text          0x00000000        0x0 c:/a/gcc_arm/6/bin/../lib/gcc/arm-none-eabi/6.3.1/../../../../arm-none-eabi/lib/thumb/v6-m\libg_nano.a(lib_a-strchr.o)
 .data          0x00000000        0x0 c:/a/gcc_arm/6/bin/../lib/gcc/arm-none-eabi/6.3.1/../../../../arm-none-eabi/lib/thumb/v6-m\libg_nano.a(lib_a-strchr.o)
 .bss           0x00000000        0x0 c:/a/gcc_arm/6/bin/../lib/gcc/arm-none-eabi/6.3.1/../../../../arm-none-eabi/lib/thumb/v6-m\libg_nano.a(lib_a-strchr.o)
 .text          0x00000000        0x0 c:/a/gcc_arm/6/bin/../lib/gcc/arm-none-eabi/6.3.1/thumb/v6-m/crtend.o
 .data          0x00000000        0x0 c:/a/gcc_arm/6/bin/../lib/gcc/arm-none-eabi/6.3.1/thumb/v6-m/crtend.o
 .bss           0x00000000        0x0 c:/a/gcc_arm/6/bin/../lib/gcc/arm-none-eabi/6.3.1/thumb/v6-m/crtend.o
 .text          0x00000000        0x0 c:/a/gcc_arm/6/bin/../lib/gcc/arm-none-eabi/6.3.1/thumb/v6-m/crtn.o
 .data          0x00000000        0x0 c:/a/gcc_arm/6/bin/../lib/gcc/arm-none-eabi/6.3.1/thumb/v6-m/crtn.o
 .bss           0x00000000        0x0 c:/a/gcc_arm/6/bin/../lib/gcc/arm-none-eabi/6.3.1/thumb/v6-m/crtn.o
 .text          0x00000000        0x0 c:/a/gcc_arm/6/bin/../lib/gcc/arm-none-eabi/6.3.1/../../../../arm-none-eabi/lib/thumb/v6-m\libnosys.a(sbrk.o)
 .data          0x00000000        0x0 c:/a/gcc_arm/6/bin/../lib/gcc/arm-none-eabi/6.3.1/../../../../arm-none-eabi/lib/thumb/v6-m\libnosys.a(sbrk.o)
 .bss           0x00000000        0x0 c:/a/gcc_arm/6/bin/../lib/gcc/arm-none-eabi/6.3.1/../../../../arm-none-eabi/lib/thumb/v6-m\libnosys.a(sbrk.o)
 .text          0x00000000        0x0 c:/a/gcc_arm/6/bin/../lib/gcc/arm-none-eabi/6.3.1/../../../../arm-none-eabi/lib/thumb/v6-m\libnosys.a(_exit.o)
 .data          0x00000000        0x0 c:/a/gcc_arm/6/bin/../lib/gcc/arm-none-eabi/6.3.1/../../../../arm-none-eabi/lib/thumb/v6-m\libnosys.a(_exit.o)
 .bss           0x00000000        0x0 c:/a/gcc_arm/6/bin/../lib/gcc/arm-none-eabi/6.3.1/../../../../arm-none-eabi/lib/thumb/v6-m\libnosys.a(_exit.o)

Memory Configuration

Name             Origin             Length             Attributes
FLASH            0x0001b000         0x0001f000         xr
RAM              0x200022d8         0x00005a28         xrw
*default*        0x00000000         0xffffffff

Linker script and memory map


.text           0x0001b000    0x1379c
 *(.isr_vector)
 .isr_vector    0x0001b000       0xc0 examples/serial/CMakeFiles/serial_nrf51422_xxAC_s130_2.0.1.dir/__/__/external/nRF5_SDK_14.2.0_17b948a/components/toolchain/gcc/gcc_startup_nrf51.S.obj
                0x0001b000                __isr_vector
 *(.text*)
 .text          0x0001b0c0       0x60 c:/a/gcc_arm/6/bin/../lib/gcc/arm-none-eabi/6.3.1/thumb/v6-m/crtbegin.o
 .text          0x0001b120       0x78 c:/a/gcc_arm/6/bin/../lib/gcc/arm-none-eabi/6.3.1/../../../../arm-none-eabi/lib/thumb/v6-m/crt0.o
                0x0001b120                _start
                0x0001b120                _mainCRTStartup
 .text.sd_app_evt_wait
                0x0001b198        0x4 examples/serial/CMakeFiles/serial_nrf51422_xxAC_s130_2.0.1.dir/src/main.c.obj
 .text.startup.main
                0x0001b19c      0x214 examples/serial/CMakeFiles/serial_nrf51422_xxAC_s130_2.0.1.dir/src/main.c.obj
                0x0001b19c                main
 .text.sd_evt_get
                0x0001b3b0        0x4 examples/serial/CMakeFiles/serial_nrf51422_xxAC_s130_2.0.1.dir/__/nrf_mesh_sdk.c.obj
 .text.sd_softdevice_enable
                0x0001b3b4        0x4 examples/serial/CMakeFiles/serial_nrf51422_xxAC_s130_2.0.1.dir/__/nrf_mesh_sdk.c.obj
 .text.sd_ble_enable
                0x0001b3b8        0x4 examples/serial/CMakeFiles/serial_nrf51422_xxAC_s130_2.0.1.dir/__/nrf_mesh_sdk.c.obj
 .text.sd_ble_evt_get
                0x0001b3bc        0x4 examples/serial/CMakeFiles/serial_nrf51422_xxAC_s130_2.0.1.dir/__/nrf_mesh_sdk.c.obj
 .text.sleep_forever
                0x0001b3c0       0x24 examples/serial/CMakeFiles/serial_nrf51422_xxAC_s130_2.0.1.dir/__/nrf_mesh_sdk.c.obj
 .text.mesh_assert_handler
                0x0001b3e4       0x70 examples/serial/CMakeFiles/serial_nrf51422_xxAC_s130_2.0.1.dir/__/nrf_mesh_sdk.c.obj
                0x0001b3e4                mesh_assert_handler
 .text.softdevice_assert_handler
                0x0001b454       0x7c examples/serial/CMakeFiles/serial_nrf51422_xxAC_s130_2.0.1.dir/__/nrf_mesh_sdk.c.obj
                0x0001b454                softdevice_assert_handler
 .text.app_error_handler
                0x0001b4d0       0x7c examples/serial/CMakeFiles/serial_nrf51422_xxAC_s130_2.0.1.dir/__/nrf_mesh_sdk.c.obj
                0x0001b4d0                app_error_handler
 .text.HardFault_Handler
                0x0001b54c       0x6c examples/serial/CMakeFiles/serial_nrf51422_xxAC_s130_2.0.1.dir/__/nrf_mesh_sdk.c.obj
                0x0001b54c                HardFault_Handler
 .text.SWI2_IRQHandler
                0x0001b5b8       0x38 examples/serial/CMakeFiles/serial_nrf51422_xxAC_s130_2.0.1.dir/__/nrf_mesh_sdk.c.obj
                0x0001b5b8                SWI2_IRQHandler
 .text.mesh_softdevice_enable
                0x0001b5f0      0x12c examples/serial/CMakeFiles/serial_nrf51422_xxAC_s130_2.0.1.dir/__/nrf_mesh_sdk.c.obj
                0x0001b5f0                mesh_softdevice_enable
 .text.mesh_softdevice_setup
                0x0001b71c       0x90 examples/serial/CMakeFiles/serial_nrf51422_xxAC_s130_2.0.1.dir/__/nrf_mesh_sdk.c.obj
                0x0001b71c                mesh_softdevice_setup
 .text.mesh_core_setup
                0x0001b7ac      0x15c examples/serial/CMakeFiles/serial_nrf51422_xxAC_s130_2.0.1.dir/__/nrf_mesh_sdk.c.obj
                0x0001b7ac                mesh_core_setup
 .text.prov_provisioner_cb_link_closed
                0x0001b908       0x26 examples/serial/CMakeFiles/serial_nrf51422_xxAC_s130_2.0.1.dir/__/__/mesh/prov/src/prov_provisioner.c.obj
 .text.prov_provisioner_cb_link_established
                0x0001b92e       0x40 examples/serial/CMakeFiles/serial_nrf51422_xxAC_s130_2.0.1.dir/__/__/mesh/prov/src/prov_provisioner.c.obj
 .text.prov_provisioner_cb_ack_received
                0x0001b96e       0x48 examples/serial/CMakeFiles/serial_nrf51422_xxAC_s130_2.0.1.dir/__/__/mesh/prov/src/prov_provisioner.c.obj
 .text.send_confirmation
                0x0001b9b6       0x28 examples/serial/CMakeFiles/serial_nrf51422_xxAC_s130_2.0.1.dir/__/__/mesh/prov/src/prov_provisioner.c.obj
 .text.request_authentication
                0x0001b9de       0x7e examples/serial/CMakeFiles/serial_nrf51422_xxAC_s130_2.0.1.dir/__/__/mesh/prov/src/prov_provisioner.c.obj
 .text.prov_provisioner_pkt_in
                0x0001ba5c      0x2d6 examples/serial/CMakeFiles/serial_nrf51422_xxAC_s130_2.0.1.dir/__/__/mesh/prov/src/prov_provisioner.c.obj
 *fill*         0x0001bd32        0x2 
 .text.prov_provisioner_provision
                0x0001bd34       0x48 examples/serial/CMakeFiles/serial_nrf51422_xxAC_s130_2.0.1.dir/__/__/mesh/prov/src/prov_provisioner.c.obj
                0x0001bd34                prov_provisioner_provision
 .text.prov_provisioner_oob_use
                0x0001bd7c       0x70 examples/serial/CMakeFiles/serial_nrf51422_xxAC_s130_2.0.1.dir/__/__/mesh/prov/src/prov_provisioner.c.obj
                0x0001bd7c                prov_provisioner_oob_use
 .text.prov_provisioner_auth_data
                0x0001bdec       0x40 examples/serial/CMakeFiles/serial_nrf51422_xxAC_s130_2.0.1.dir/__/__/mesh/prov/src/prov_provisioner.c.obj
                0x0001bdec                prov_provisioner_auth_data
 .text.prov_provisioner_shared_secret
                0x0001be2c       0x28 examples/serial/CMakeFiles/serial_nrf51422_xxAC_s130_2.0.1.dir/__/__/mesh/prov/src/prov_provisioner.c.obj
                0x0001be2c                prov_provisioner_shared_secret
 .text.complete_provisioning
                0x0001be54       0x5c examples/serial/CMakeFiles/serial_nrf51422_xxAC_s130_2.0.1.dir/__/__/mesh/prov/src/prov_provisionee.c.obj
 .text.prov_provisionee_cb_link_established
                0x0001beb0       0x20 examples/serial/CMakeFiles/serial_nrf51422_xxAC_s130_2.0.1.dir/__/__/mesh/prov/src/prov_provisionee.c.obj
 .text.prov_provisionee_cb_link_closed
                0x0001bed0       0x34 examples/serial/CMakeFiles/serial_nrf51422_xxAC_s130_2.0.1.dir/__/__/mesh/prov/src/prov_provisionee.c.obj
 .text.request_authentication
                0x0001bf04       0x7c examples/serial/CMakeFiles/serial_nrf51422_xxAC_s130_2.0.1.dir/__/__/mesh/prov/src/prov_provisionee.c.obj
 .text.send_failed
                0x0001bf80       0x3a examples/serial/CMakeFiles/serial_nrf51422_xxAC_s130_2.0.1.dir/__/__/mesh/prov/src/prov_provisionee.c.obj
 .text.start_authentication
                0x0001bfba       0x56 examples/serial/CMakeFiles/serial_nrf51422_xxAC_s130_2.0.1.dir/__/__/mesh/prov/src/prov_provisionee.c.obj
 .text.prov_provisionee_cb_ack_received
                0x0001c010       0xb8 examples/serial/CMakeFiles/serial_nrf51422_xxAC_s130_2.0.1.dir/__/__/mesh/prov/src/prov_provisionee.c.obj
 .text.prov_provisionee_pkt_in
                0x0001c0c8      0x294 examples/serial/CMakeFiles/serial_nrf51422_xxAC_s130_2.0.1.dir/__/__/mesh/prov/src/prov_provisionee.c.obj
 .text.prov_provisionee_init
                0x0001c35c       0x30 examples/serial/CMakeFiles/serial_nrf51422_xxAC_s130_2.0.1.dir/__/__/mesh/prov/src/prov_provisionee.c.obj
                0x0001c35c                prov_provisionee_init
 .text.prov_provisionee_auth_data
                0x0001c38c       0x74 examples/serial/CMakeFiles/serial_nrf51422_xxAC_s130_2.0.1.dir/__/__/mesh/prov/src/prov_provisionee.c.obj
                0x0001c38c                prov_provisionee_auth_data
 .text.prov_provisionee_shared_secret
                0x0001c400       0x28 examples/serial/CMakeFiles/serial_nrf51422_xxAC_s130_2.0.1.dir/__/__/mesh/prov/src/prov_provisionee.c.obj
                0x0001c400                prov_provisionee_shared_secret
 .text.bearer_compare_callback
                0x0001c428        0xe examples/serial/CMakeFiles/serial_nrf51422_xxAC_s130_2.0.1.dir/__/__/mesh/prov/src/nrf_mesh_prov.c.obj
 .text.nrf_mesh_prov_init
                0x0001c436       0x3e examples/serial/CMakeFiles/serial_nrf51422_xxAC_s130_2.0.1.dir/__/__/mesh/prov/src/nrf_mesh_prov.c.obj
                0x0001c436                nrf_mesh_prov_init
 .text.nrf_mesh_prov_bearer_add
                0x0001c474       0x24 examples/serial/CMakeFiles/serial_nrf51422_xxAC_s130_2.0.1.dir/__/__/mesh/prov/src/nrf_mesh_prov.c.obj
                0x0001c474                nrf_mesh_prov_bearer_add
 .text.nrf_mesh_prov_generate_keys
                0x0001c498        0x8 examples/serial/CMakeFiles/serial_nrf51422_xxAC_s130_2.0.1.dir/__/__/mesh/prov/src/nrf_mesh_prov.c.obj
                0x0001c498                nrf_mesh_prov_generate_keys
 .text.nrf_mesh_prov_listen
                0x0001c4a0       0x36 examples/serial/CMakeFiles/serial_nrf51422_xxAC_s130_2.0.1.dir/__/__/mesh/prov/src/nrf_mesh_prov.c.obj
                0x0001c4a0                nrf_mesh_prov_listen
 *fill*         0x0001c4d6        0x2 
 .text.nrf_mesh_prov_provision
                0x0001c4d8       0x64 examples/serial/CMakeFiles/serial_nrf51422_xxAC_s130_2.0.1.dir/__/__/mesh/prov/src/nrf_mesh_prov.c.obj
                0x0001c4d8                nrf_mesh_prov_provision
 .text.nrf_mesh_prov_oob_use
                0x0001c53c       0x18 examples/serial/CMakeFiles/serial_nrf51422_xxAC_s130_2.0.1.dir/__/__/mesh/prov/src/nrf_mesh_prov.c.obj
                0x0001c53c                nrf_mesh_prov_oob_use
 .text.nrf_mesh_prov_auth_data_provide
                0x0001c554       0x18 examples/serial/CMakeFiles/serial_nrf51422_xxAC_s130_2.0.1.dir/__/__/mesh/prov/src/nrf_mesh_prov.c.obj
                0x0001c554                nrf_mesh_prov_auth_data_provide
 .text.nrf_mesh_prov_shared_secret_provide
                0x0001c56c       0x18 examples/serial/CMakeFiles/serial_nrf51422_xxAC_s130_2.0.1.dir/__/__/mesh/prov/src/nrf_mesh_prov.c.obj
                0x0001c56c                nrf_mesh_prov_shared_secret_provide
 .text.nrf_mesh_prov_scan_start
                0x0001c584       0x12 examples/serial/CMakeFiles/serial_nrf51422_xxAC_s130_2.0.1.dir/__/__/mesh/prov/src/nrf_mesh_prov.c.obj
                0x0001c584                nrf_mesh_prov_scan_start
 .text.nrf_mesh_prov_scan_stop
                0x0001c596        0x8 examples/serial/CMakeFiles/serial_nrf51422_xxAC_s130_2.0.1.dir/__/__/mesh/prov/src/nrf_mesh_prov.c.obj
                0x0001c596                nrf_mesh_prov_scan_stop
 *fill*         0x0001c59e        0x2 
 .text.send_data
                0x0001c5a0       0x44 examples/serial/CMakeFiles/serial_nrf51422_xxAC_s130_2.0.1.dir/__/__/mesh/prov/src/provisioning.c.obj
 .text.prov_packet_length_valid
                0x0001c5e4       0x20 examples/serial/CMakeFiles/serial_nrf51422_xxAC_s130_2.0.1.dir/__/__/mesh/prov/src/provisioning.c.obj
                0x0001c5e4                prov_packet_length_valid
 .text.prov_tx_invite
                0x0001c604       0x24 examples/serial/CMakeFiles/serial_nrf51422_xxAC_s130_2.0.1.dir/__/__/mesh/prov/src/provisioning.c.obj
                0x0001c604                prov_tx_invite
 .text.prov_tx_capabilities
                0x0001c628       0x1c examples/serial/CMakeFiles/serial_nrf51422_xxAC_s130_2.0.1.dir/__/__/mesh/prov/src/provisioning.c.obj
                0x0001c628                prov_tx_capabilities
 .text.prov_tx_start
                0x0001c644       0x1e examples/serial/CMakeFiles/serial_nrf51422_xxAC_s130_2.0.1.dir/__/__/mesh/prov/src/provisioning.c.obj
                0x0001c644                prov_tx_start
 .text.prov_tx_public_key
                0x0001c662       0x24 examples/serial/CMakeFiles/serial_nrf51422_xxAC_s130_2.0.1.dir/__/__/mesh/prov/src/provisioning.c.obj
                0x0001c662                prov_tx_public_key
 .text.prov_tx_input_complete
                0x0001c686       0x10 examples/serial/CMakeFiles/serial_nrf51422_xxAC_s130_2.0.1.dir/__/__/mesh/prov/src/provisioning.c.obj
                0x0001c686                prov_tx_input_complete
 .text.prov_tx_confirmation
                0x0001c696       0x24 examples/serial/CMakeFiles/serial_nrf51422_xxAC_s130_2.0.1.dir/__/__/mesh/prov/src/provisioning.c.obj
                0x0001c696                prov_tx_confirmation
 .text.prov_tx_random
                0x0001c6ba       0x24 examples/serial/CMakeFiles/serial_nrf51422_xxAC_s130_2.0.1.dir/__/__/mesh/prov/src/provisioning.c.obj
                0x0001c6ba                prov_tx_random
 .text.prov_tx_complete
                0x0001c6de       0x10 examples/serial/CMakeFiles/serial_nrf51422_xxAC_s130_2.0.1.dir/__/__/mesh/prov/src/provisioning.c.obj
                0x0001c6de                prov_tx_complete
 .text.prov_tx_failed
                0x0001c6ee       0x14 examples/serial/CMakeFiles/serial_nrf51422_xxAC_s130_2.0.1.dir/__/__/mesh/prov/src/provisioning.c.obj
                0x0001c6ee                prov_tx_failed
 .text.prov_tx_data
                0x0001c702        0xa examples/serial/CMakeFiles/serial_nrf51422_xxAC_s130_2.0.1.dir/__/__/mesh/prov/src/provisioning.c.obj
                0x0001c702                prov_tx_data
 .text.prov_beacon_unprov_build
                0x0001c70c       0x52 examples/serial/CMakeFiles/serial_nrf51422_xxAC_s130_2.0.1.dir/__/__/mesh/prov/src/prov_beacon.c.obj
                0x0001c70c                prov_beacon_unprov_build
 *fill*         0x0001c75e        0x2 
 .text.prov_beacon_unprov_packet_in
                0x0001c760       0xb0 examples/serial/CMakeFiles/serial_nrf51422_xxAC_s130_2.0.1.dir/__/__/mesh/prov/src/prov_beacon.c.obj
                0x0001c760                prov_beacon_unprov_packet_in
 .text.prov_beacon_scan_start
                0x0001c810       0x24 examples/serial/CMakeFiles/serial_nrf51422_xxAC_s130_2.0.1.dir/__/__/mesh/prov/src/prov_beacon.c.obj
                0x0001c810                prov_beacon_scan_start
 .text.prov_beacon_scan_stop
                0x0001c834        0xc examples/serial/CMakeFiles/serial_nrf51422_xxAC_s130_2.0.1.dir/__/__/mesh/prov/src/prov_beacon.c.obj
                0x0001c834                prov_beacon_scan_stop
 .text.oob_gen_alphanumeric
                0x0001c840       0x34 examples/serial/CMakeFiles/serial_nrf51422_xxAC_s130_2.0.1.dir/__/__/mesh/prov/src/prov_utils.c.obj
 .text.oob_gen_numeric
                0x0001c874       0x30 examples/serial/CMakeFiles/serial_nrf51422_xxAC_s130_2.0.1.dir/__/__/mesh/prov/src/prov_utils.c.obj
 .text.prov_utils_opt_set
                0x0001c8a4       0x20 examples/serial/CMakeFiles/serial_nrf51422_xxAC_s130_2.0.1.dir/__/__/mesh/prov/src/prov_utils.c.obj
                0x0001c8a4                prov_utils_opt_set
 .text.prov_utils_opt_get
                0x0001c8c4       0x1c examples/serial/CMakeFiles/serial_nrf51422_xxAC_s130_2.0.1.dir/__/__/mesh/prov/src/prov_utils.c.obj
                0x0001c8c4                prov_utils_opt_get
 .text.prov_utils_use_ecdh_offloading
                0x0001c8e0        0xc examples/serial/CMakeFiles/serial_nrf51422_xxAC_s130_2.0.1.dir/__/__/mesh/prov/src/prov_utils.c.obj
                0x0001c8e0                prov_utils_use_ecdh_offloading
 .text.prov_utils_authentication_values_derive
                0x0001c8ec       0xac examples/serial/CMakeFiles/serial_nrf51422_xxAC_s130_2.0.1.dir/__/__/mesh/prov/src/prov_utils.c.obj
                0x0001c8ec                prov_utils_authentication_values_derive
 .text.prov_utils_keys_generate
                0x0001c998       0x20 examples/serial/CMakeFiles/serial_nrf51422_xxAC_s130_2.0.1.dir/__/__/mesh/prov/src/prov_utils.c.obj
                0x0001c998                prov_utils_keys_generate
 .text.prov_utils_derive_keys
                0x0001c9b8       0xac examples/serial/CMakeFiles/serial_nrf51422_xxAC_s130_2.0.1.dir/__/__/mesh/prov/src/prov_utils.c.obj
                0x0001c9b8                prov_utils_derive_keys
 .text.prov_utils_calculate_shared_secret
                0x0001ca64       0x38 examples/serial/CMakeFiles/serial_nrf51422_xxAC_s130_2.0.1.dir/__/__/mesh/prov/src/prov_utils.c.obj
                0x0001ca64                prov_utils_calculate_shared_secret
 .text.prov_utils_generate_oob_data
                0x0001ca9c       0x8c examples/serial/CMakeFiles/serial_nrf51422_xxAC_s130_2.0.1.dir/__/__/mesh/prov/src/prov_utils.c.obj
                0x0001ca9c                prov_utils_generate_oob_data
 .text.prov_utils_confirmation_check
                0x0001cb28       0x5c examples/serial/CMakeFiles/serial_nrf51422_xxAC_s130_2.0.1.dir/__/__/mesh/prov/src/prov_utils.c.obj
                0x0001cb28                prov_utils_confirmation_check
 .text.link_timeout_cb
                0x0001cb84       0x12 examples/serial/CMakeFiles/serial_nrf51422_xxAC_s130_2.0.1.dir/__/__/mesh/prov/src/prov_bearer_adv.c.obj
 *fill*         0x0001cb96        0x2 
 .text.remove_active_bearer
                0x0001cb98       0x68 examples/serial/CMakeFiles/serial_nrf51422_xxAC_s130_2.0.1.dir/__/__/mesh/prov/src/prov_bearer_adv.c.obj
 .text.close_link
                0x0001cc00       0x74 examples/serial/CMakeFiles/serial_nrf51422_xxAC_s130_2.0.1.dir/__/__/mesh/prov/src/prov_bearer_adv.c.obj
 .text.prov_bearer_adv_listen_stop
                0x0001cc74       0x40 examples/serial/CMakeFiles/serial_nrf51422_xxAC_s130_2.0.1.dir/__/__/mesh/prov/src/prov_bearer_adv.c.obj
 .text.send_packet
                0x0001ccb4       0x70 examples/serial/CMakeFiles/serial_nrf51422_xxAC_s130_2.0.1.dir/__/__/mesh/prov/src/prov_bearer_adv.c.obj
 .text.prov_buffer_tx
                0x0001cd24      0x168 examples/serial/CMakeFiles/serial_nrf51422_xxAC_s130_2.0.1.dir/__/__/mesh/prov/src/prov_bearer_adv.c.obj
 .text.send_link_close
                0x0001ce8c       0x28 examples/serial/CMakeFiles/serial_nrf51422_xxAC_s130_2.0.1.dir/__/__/mesh/prov/src/prov_bearer_adv.c.obj
 .text.prov_bearer_adv_link_close
                0x0001ceb4       0x80 examples/serial/CMakeFiles/serial_nrf51422_xxAC_s130_2.0.1.dir/__/__/mesh/prov/src/prov_bearer_adv.c.obj
 .text.send_transaction_ack
                0x0001cf34       0x24 examples/serial/CMakeFiles/serial_nrf51422_xxAC_s130_2.0.1.dir/__/__/mesh/prov/src/prov_bearer_adv.c.obj
 .text.send_link_ack
                0x0001cf58       0x26 examples/serial/CMakeFiles/serial_nrf51422_xxAC_s130_2.0.1.dir/__/__/mesh/prov/src/prov_bearer_adv.c.obj
 .text.reset_timeout_timer
                0x0001cf7e       0x1a examples/serial/CMakeFiles/serial_nrf51422_xxAC_s130_2.0.1.dir/__/__/mesh/prov/src/prov_bearer_adv.c.obj
 .text.tx_complete_cb
                0x0001cf98       0x24 examples/serial/CMakeFiles/serial_nrf51422_xxAC_s130_2.0.1.dir/__/__/mesh/prov/src/prov_bearer_adv.c.obj
 .text.tx_retry_cb
                0x0001cfbc       0xd4 examples/serial/CMakeFiles/serial_nrf51422_xxAC_s130_2.0.1.dir/__/__/mesh/prov/src/prov_bearer_adv.c.obj
 .text.add_active_bearer
                0x0001d090       0x88 examples/serial/CMakeFiles/serial_nrf51422_xxAC_s130_2.0.1.dir/__/__/mesh/prov/src/prov_bearer_adv.c.obj
 .text.prov_bearer_adv_link_open
                0x0001d118      0x100 examples/serial/CMakeFiles/serial_nrf51422_xxAC_s130_2.0.1.dir/__/__/mesh/prov/src/prov_bearer_adv.c.obj
 .text.async_process
                0x0001d218       0x5c examples/serial/CMakeFiles/serial_nrf51422_xxAC_s130_2.0.1.dir/__/__/mesh/prov/src/prov_bearer_adv.c.obj
 .text.prov_bearer_adv_listen
                0x0001d274      0x100 examples/serial/CMakeFiles/serial_nrf51422_xxAC_s130_2.0.1.dir/__/__/mesh/prov/src/prov_bearer_adv.c.obj
 .text.calculate_3GPP_CRC
                0x0001d374       0x24 examples/serial/CMakeFiles/serial_nrf51422_xxAC_s130_2.0.1.dir/__/__/mesh/prov/src/prov_bearer_adv.c.obj
                0x0001d374                calculate_3GPP_CRC
 .text.prov_bearer_adv_tx
                0x0001d398       0xc4 examples/serial/CMakeFiles/serial_nrf51422_xxAC_s130_2.0.1.dir/__/__/mesh/prov/src/prov_bearer_adv.c.obj
 .text.prov_buffer_rx
                0x0001d45c       0x80 examples/serial/CMakeFiles/serial_nrf51422_xxAC_s130_2.0.1.dir/__/__/mesh/prov/src/prov_bearer_adv.c.obj
 .text.nrf_mesh_prov_bearer_adv_interface_get
                0x0001d4dc       0x4c examples/serial/CMakeFiles/serial_nrf51422_xxAC_s130_2.0.1.dir/__/__/mesh/prov/src/prov_bearer_adv.c.obj
                0x0001d4dc                nrf_mesh_prov_bearer_adv_interface_get
 .text.prov_bearer_adv_packet_in
                0x0001d528      0x8b4 examples/serial/CMakeFiles/serial_nrf51422_xxAC_s130_2.0.1.dir/__/__/mesh/prov/src/prov_bearer_adv.c.obj
                0x0001d528                prov_bearer_adv_packet_in
 .text.add_to_publication_list
                0x0001dddc       0x60 examples/serial/CMakeFiles/serial_nrf51422_xxAC_s130_2.0.1.dir/__/__/mesh/access/src/access_publish.c.obj
 .text.step_resolution_to_us
                0x0001de3c       0x48 examples/serial/CMakeFiles/serial_nrf51422_xxAC_s130_2.0.1.dir/__/__/mesh/access/src/access_publish.c.obj
 .text.schedule_publication_timer
                0x0001de84      0x16c examples/serial/CMakeFiles/serial_nrf51422_xxAC_s130_2.0.1.dir/__/__/mesh/access/src/access_publish.c.obj
 .text.publish_timer_tick
                0x0001dff0       0xac examples/serial/CMakeFiles/serial_nrf51422_xxAC_s130_2.0.1.dir/__/__/mesh/access/src/access_publish.c.obj
 .text.access_publish_init
                0x0001e09c       0x38 examples/serial/CMakeFiles/serial_nrf51422_xxAC_s130_2.0.1.dir/__/__/mesh/access/src/access_publish.c.obj
                0x0001e09c                access_publish_init
 .text.access_publish_period_set
                0x0001e0d4       0x84 examples/serial/CMakeFiles/serial_nrf51422_xxAC_s130_2.0.1.dir/__/__/mesh/access/src/access_publish.c.obj
                0x0001e0d4                access_publish_period_set
 .text.access_publish_period_get
                0x0001e158       0x30 examples/serial/CMakeFiles/serial_nrf51422_xxAC_s130_2.0.1.dir/__/__/mesh/access/src/access_publish.c.obj
                0x0001e158                access_publish_period_get
 .text.bitfield_get
                0x0001e188       0x18 examples/serial/CMakeFiles/serial_nrf51422_xxAC_s130_2.0.1.dir/__/__/mesh/access/src/access.c.obj
 .text.is_valid_opcode
                0x0001e1a0       0x4c examples/serial/CMakeFiles/serial_nrf51422_xxAC_s130_2.0.1.dir/__/__/mesh/access/src/access.c.obj
 .text.model_handle_valid_and_allocated
                0x0001e1ec       0x18 examples/serial/CMakeFiles/serial_nrf51422_xxAC_s130_2.0.1.dir/__/__/mesh/access/src/access.c.obj
 .text.flash_invalidate_complete
                0x0001e204       0x18 examples/serial/CMakeFiles/serial_nrf51422_xxAC_s130_2.0.1.dir/__/__/mesh/access/src/access.c.obj
 .text.flash_manager_mem_available
                0x0001e21c        0x6 examples/serial/CMakeFiles/serial_nrf51422_xxAC_s130_2.0.1.dir/__/__/mesh/access/src/access.c.obj
 *fill*         0x0001e222        0x2 
 .text.access_flash_config_clear
                0x0001e224       0x28 examples/serial/CMakeFiles/serial_nrf51422_xxAC_s130_2.0.1.dir/__/__/mesh/access/src/access.c.obj
 .text.access_flash_config_store
                0x0001e24c      0x10c examples/serial/CMakeFiles/serial_nrf51422_xxAC_s130_2.0.1.dir/__/__/mesh/access/src/access.c.obj
                0x0001e24c                access_flash_config_store
 .text.access_state_clear
                0x0001e358       0x40 examples/serial/CMakeFiles/serial_nrf51422_xxAC_s130_2.0.1.dir/__/__/mesh/access/src/access.c.obj
 .text.add_flash_manager
                0x0001e398       0x5c examples/serial/CMakeFiles/serial_nrf51422_xxAC_s130_2.0.1.dir/__/__/mesh/access/src/access.c.obj
 .text.flash_remove_complete
                0x0001e3f4       0x50 examples/serial/CMakeFiles/serial_nrf51422_xxAC_s130_2.0.1.dir/__/__/mesh/access/src/access.c.obj
 .text.flash_write_complete
                0x0001e444       0x54 examples/serial/CMakeFiles/serial_nrf51422_xxAC_s130_2.0.1.dir/__/__/mesh/access/src/access.c.obj
 .text.handle_incoming
                0x0001e498      0x120 examples/serial/CMakeFiles/serial_nrf51422_xxAC_s130_2.0.1.dir/__/__/mesh/access/src/access.c.obj
 .text.mesh_evt_cb
                0x0001e5b8      0x130 examples/serial/CMakeFiles/serial_nrf51422_xxAC_s130_2.0.1.dir/__/__/mesh/access/src/access.c.obj
 .text.packet_tx
                0x0001e6e8      0x2fc examples/serial/CMakeFiles/serial_nrf51422_xxAC_s130_2.0.1.dir/__/__/mesh/access/src/access.c.obj
 .text.access_clear
                0x0001e9e4       0x10 examples/serial/CMakeFiles/serial_nrf51422_xxAC_s130_2.0.1.dir/__/__/mesh/access/src/access.c.obj
                0x0001e9e4                access_clear
 .text.access_init
                0x0001e9f4       0x28 examples/serial/CMakeFiles/serial_nrf51422_xxAC_s130_2.0.1.dir/__/__/mesh/access/src/access.c.obj
                0x0001e9f4                access_init
 .text.access_model_publish
                0x0001ea1c       0x14 examples/serial/CMakeFiles/serial_nrf51422_xxAC_s130_2.0.1.dir/__/__/mesh/access/src/access.c.obj
                0x0001ea1c                access_model_publish
 .text.access_model_publish_address_set
                0x0001ea30       0x3c examples/serial/CMakeFiles/serial_nrf51422_xxAC_s130_2.0.1.dir/__/__/mesh/access/src/access.c.obj
                0x0001ea30                access_model_publish_address_set
 .text.access_model_publish_address_get
                0x0001ea6c       0x2c examples/serial/CMakeFiles/serial_nrf51422_xxAC_s130_2.0.1.dir/__/__/mesh/access/src/access.c.obj
                0x0001ea6c                access_model_publish_address_get
 .text.access_model_publish_period_set
                0x0001ea98       0x6c examples/serial/CMakeFiles/serial_nrf51422_xxAC_s130_2.0.1.dir/__/__/mesh/access/src/access.c.obj
                0x0001ea98                access_model_publish_period_set
 .text.access_model_publish_period_get
                0x0001eb04       0x44 examples/serial/CMakeFiles/serial_nrf51422_xxAC_s130_2.0.1.dir/__/__/mesh/access/src/access.c.obj
                0x0001eb04                access_model_publish_period_get
 .text.access_model_subscription_add
                0x0001eb48       0x5c examples/serial/CMakeFiles/serial_nrf51422_xxAC_s130_2.0.1.dir/__/__/mesh/access/src/access.c.obj
                0x0001eb48                access_model_subscription_add
 .text.access_model_subscription_remove
                0x0001eba4       0x5c examples/serial/CMakeFiles/serial_nrf51422_xxAC_s130_2.0.1.dir/__/__/mesh/access/src/access.c.obj
                0x0001eba4                access_model_subscription_remove
 .text.access_model_subscriptions_get
                0x0001ec00       0x7c examples/serial/CMakeFiles/serial_nrf51422_xxAC_s130_2.0.1.dir/__/__/mesh/access/src/access.c.obj
                0x0001ec00                access_model_subscriptions_get
 .text.access_model_application_bind
                0x0001ec7c       0x50 examples/serial/CMakeFiles/serial_nrf51422_xxAC_s130_2.0.1.dir/__/__/mesh/access/src/access.c.obj
                0x0001ec7c                access_model_application_bind
 .text.access_model_application_unbind
                0x0001eccc       0x50 examples/serial/CMakeFiles/serial_nrf51422_xxAC_s130_2.0.1.dir/__/__/mesh/access/src/access.c.obj
                0x0001eccc                access_model_application_unbind
 .text.access_model_applications_get
                0x0001ed1c       0x60 examples/serial/CMakeFiles/serial_nrf51422_xxAC_s130_2.0.1.dir/__/__/mesh/access/src/access.c.obj
                0x0001ed1c                access_model_applications_get
 .text.access_model_publish_application_set
                0x0001ed7c       0x3c examples/serial/CMakeFiles/serial_nrf51422_xxAC_s130_2.0.1.dir/__/__/mesh/access/src/access.c.obj
                0x0001ed7c                access_model_publish_application_set
 .text.access_model_publish_application_get
                0x0001edb8       0x2c examples/serial/CMakeFiles/serial_nrf51422_xxAC_s130_2.0.1.dir/__/__/mesh/access/src/access.c.obj
                0x0001edb8                access_model_publish_application_get
 .text.access_model_publish_ttl_set
                0x0001ede4       0x44 examples/serial/CMakeFiles/serial_nrf51422_xxAC_s130_2.0.1.dir/__/__/mesh/access/src/access.c.obj
                0x0001ede4                access_model_publish_ttl_set
 .text.access_model_publish_ttl_get
                0x0001ee28       0x2c examples/serial/CMakeFiles/serial_nrf51422_xxAC_s130_2.0.1.dir/__/__/mesh/access/src/access.c.obj
                0x0001ee28                access_model_publish_ttl_get
 .text.access_element_location_set
                0x0001ee54       0x2c examples/serial/CMakeFiles/serial_nrf51422_xxAC_s130_2.0.1.dir/__/__/mesh/access/src/access.c.obj
                0x0001ee54                access_element_location_set
 .text.access_element_location_get
                0x0001ee80       0x20 examples/serial/CMakeFiles/serial_nrf51422_xxAC_s130_2.0.1.dir/__/__/mesh/access/src/access.c.obj
                0x0001ee80                access_element_location_get
 .text.access_element_sig_model_count_get
                0x0001eea0       0x24 examples/serial/CMakeFiles/serial_nrf51422_xxAC_s130_2.0.1.dir/__/__/mesh/access/src/access.c.obj
                0x0001eea0                access_element_sig_model_count_get
 .text.access_element_vendor_model_count_get
                0x0001eec4       0x24 examples/serial/CMakeFiles/serial_nrf51422_xxAC_s130_2.0.1.dir/__/__/mesh/access/src/access.c.obj
                0x0001eec4                access_element_vendor_model_count_get
 .text.access_model_id_get
                0x0001eee8       0x38 examples/serial/CMakeFiles/serial_nrf51422_xxAC_s130_2.0.1.dir/__/__/mesh/access/src/access.c.obj
                0x0001eee8                access_model_id_get
 .text.access_handle_get
                0x0001ef20       0x40 examples/serial/CMakeFiles/serial_nrf51422_xxAC_s130_2.0.1.dir/__/__/mesh/access/src/access.c.obj
                0x0001ef20                access_handle_get
 .text.access_element_models_get
                0x0001ef60       0x44 examples/serial/CMakeFiles/serial_nrf51422_xxAC_s130_2.0.1.dir/__/__/mesh/access/src/access.c.obj
                0x0001ef60                access_element_models_get
 .text.access_model_p_args_get
                0x0001efa4       0x2c examples/serial/CMakeFiles/serial_nrf51422_xxAC_s130_2.0.1.dir/__/__/mesh/access/src/access.c.obj
                0x0001efa4                access_model_p_args_get
 .text.remove_and_reschedule
                0x0001efd0       0xc8 examples/serial/CMakeFiles/serial_nrf51422_xxAC_s130_2.0.1.dir/__/__/mesh/access/src/access_reliable.c.obj
 .text.reliable_timer_cb
                0x0001f098      0x10c examples/serial/CMakeFiles/serial_nrf51422_xxAC_s130_2.0.1.dir/__/__/mesh/access/src/access_reliable.c.obj
 .text.access_reliable_message_rx_cb
                0x0001f1a4       0x60 examples/serial/CMakeFiles/serial_nrf51422_xxAC_s130_2.0.1.dir/__/__/mesh/access/src/access_reliable.c.obj
                0x0001f1a4                access_reliable_message_rx_cb
 .text.access_reliable_init
                0x0001f204       0x1c examples/serial/CMakeFiles/serial_nrf51422_xxAC_s130_2.0.1.dir/__/__/mesh/access/src/access_reliable.c.obj
                0x0001f204                access_reliable_init
 .text.access_reliable_cancel_all
                0x0001f220       0x30 examples/serial/CMakeFiles/serial_nrf51422_xxAC_s130_2.0.1.dir/__/__/mesh/access/src/access_reliable.c.obj
                0x0001f220                access_reliable_cancel_all
 .text.bitfield_get
                0x0001f250       0x18 examples/serial/CMakeFiles/serial_nrf51422_xxAC_s130_2.0.1.dir/__/__/mesh/access/src/device_state_manager.c.obj
 .text.bitfield_set
                0x0001f268       0x16 examples/serial/CMakeFiles/serial_nrf51422_xxAC_s130_2.0.1.dir/__/__/mesh/access/src/device_state_manager.c.obj
 .text.bitfield_clear
                0x0001f27e       0x16 examples/serial/CMakeFiles/serial_nrf51422_xxAC_s130_2.0.1.dir/__/__/mesh/access/src/device_state_manager.c.obj
 .text.bitfield_is_all_clear
                0x0001f294       0x3a examples/serial/CMakeFiles/serial_nrf51422_xxAC_s130_2.0.1.dir/__/__/mesh/access/src/device_state_manager.c.obj
 *fill*         0x0001f2ce        0x2 
 .text.address_handle_virtual_valid
                0x0001f2d0       0x1c examples/serial/CMakeFiles/serial_nrf51422_xxAC_s130_2.0.1.dir/__/__/mesh/access/src/device_state_manager.c.obj
 .text.net_key_handle_get
                0x0001f2ec       0x4c examples/serial/CMakeFiles/serial_nrf51422_xxAC_s130_2.0.1.dir/__/__/mesh/access/src/device_state_manager.c.obj
 .text.dev_key_handle_get
                0x0001f338       0x54 examples/serial/CMakeFiles/serial_nrf51422_xxAC_s130_2.0.1.dir/__/__/mesh/access/src/device_state_manager.c.obj
 .text.app_key_handle_get
                0x0001f38c       0x4c examples/serial/CMakeFiles/serial_nrf51422_xxAC_s130_2.0.1.dir/__/__/mesh/access/src/device_state_manager.c.obj
 .text.get_subnet_handle
                0x0001f3d8       0x54 examples/serial/CMakeFiles/serial_nrf51422_xxAC_s130_2.0.1.dir/__/__/mesh/access/src/device_state_manager.c.obj
 .text.addr_nonvirtual_to_flash_entry
                0x0001f42c       0x10 examples/serial/CMakeFiles/serial_nrf51422_xxAC_s130_2.0.1.dir/__/__/mesh/access/src/device_state_manager.c.obj
 .text.flash_mem_listener_callback
                0x0001f43c       0x20 examples/serial/CMakeFiles/serial_nrf51422_xxAC_s130_2.0.1.dir/__/__/mesh/access/src/device_state_manager.c.obj
 .text.devkey_set
                0x0001f45c       0x4c examples/serial/CMakeFiles/serial_nrf51422_xxAC_s130_2.0.1.dir/__/__/mesh/access/src/device_state_manager.c.obj
 .text.devkey_to_dsm_entry
                0x0001f4a8       0x14 examples/serial/CMakeFiles/serial_nrf51422_xxAC_s130_2.0.1.dir/__/__/mesh/access/src/device_state_manager.c.obj
 .text.devkey_to_flash_entry
                0x0001f4bc       0x28 examples/serial/CMakeFiles/serial_nrf51422_xxAC_s130_2.0.1.dir/__/__/mesh/access/src/device_state_manager.c.obj
 .text.addr_virtual_to_flash_entry
                0x0001f4e4       0x1c examples/serial/CMakeFiles/serial_nrf51422_xxAC_s130_2.0.1.dir/__/__/mesh/access/src/device_state_manager.c.obj
 .text.addr_unicast_to_dsm_entry
                0x0001f500       0x10 examples/serial/CMakeFiles/serial_nrf51422_xxAC_s130_2.0.1.dir/__/__/mesh/access/src/device_state_manager.c.obj
 .text.addr_unicast_to_flash_entry
                0x0001f510       0x14 examples/serial/CMakeFiles/serial_nrf51422_xxAC_s130_2.0.1.dir/__/__/mesh/access/src/device_state_manager.c.obj
 .text.appkey_set
                0x0001f524       0x84 examples/serial/CMakeFiles/serial_nrf51422_xxAC_s130_2.0.1.dir/__/__/mesh/access/src/device_state_manager.c.obj
 .text.appkey_to_flash_entry
                0x0001f5a8       0x54 examples/serial/CMakeFiles/serial_nrf51422_xxAC_s130_2.0.1.dir/__/__/mesh/access/src/device_state_manager.c.obj
 .text.subnet_to_flash_entry
                0x0001f5fc       0x58 examples/serial/CMakeFiles/serial_nrf51422_xxAC_s130_2.0.1.dir/__/__/mesh/access/src/device_state_manager.c.obj
 .text.subnet_set
                0x0001f654       0xc0 examples/serial/CMakeFiles/serial_nrf51422_xxAC_s130_2.0.1.dir/__/__/mesh/access/src/device_state_manager.c.obj
 .text.virtual_address_set
                0x0001f714       0x58 examples/serial/CMakeFiles/serial_nrf51422_xxAC_s130_2.0.1.dir/__/__/mesh/access/src/device_state_manager.c.obj
 .text.addr_virtual_to_dsm_entry
                0x0001f76c       0x10 examples/serial/CMakeFiles/serial_nrf51422_xxAC_s130_2.0.1.dir/__/__/mesh/access/src/device_state_manager.c.obj
 .text.reset_flash_area
                0x0001f77c       0x28 examples/serial/CMakeFiles/serial_nrf51422_xxAC_s130_2.0.1.dir/__/__/mesh/access/src/device_state_manager.c.obj
 .text.flash_save
                0x0001f7a4       0x8c examples/serial/CMakeFiles/serial_nrf51422_xxAC_s130_2.0.1.dir/__/__/mesh/access/src/device_state_manager.c.obj
 .text.flash_invalidate
                0x0001f830       0x74 examples/serial/CMakeFiles/serial_nrf51422_xxAC_s130_2.0.1.dir/__/__/mesh/access/src/device_state_manager.c.obj
 .text.flash_update_all
                0x0001f8a4       0x74 examples/serial/CMakeFiles/serial_nrf51422_xxAC_s130_2.0.1.dir/__/__/mesh/access/src/device_state_manager.c.obj
 .text.virtual_address_uuid_index_get
                0x0001f918       0x58 examples/serial/CMakeFiles/serial_nrf51422_xxAC_s130_2.0.1.dir/__/__/mesh/access/src/device_state_manager.c.obj
 .text.add_address_virtual
                0x0001f970       0x80 examples/serial/CMakeFiles/serial_nrf51422_xxAC_s130_2.0.1.dir/__/__/mesh/access/src/device_state_manager.c.obj
 .text.get_subnet_handle_by_beacon_info
                0x0001f9f0       0x48 examples/serial/CMakeFiles/serial_nrf51422_xxAC_s130_2.0.1.dir/__/__/mesh/access/src/device_state_manager.c.obj
 .text.get_app_handle
                0x0001fa38       0x60 examples/serial/CMakeFiles/serial_nrf51422_xxAC_s130_2.0.1.dir/__/__/mesh/access/src/device_state_manager.c.obj
 .text.appkey_to_dsm_entry
                0x0001fa98       0x80 examples/serial/CMakeFiles/serial_nrf51422_xxAC_s130_2.0.1.dir/__/__/mesh/access/src/device_state_manager.c.obj
 .text.subnet_to_dsm_entry
                0x0001fb18       0x7c examples/serial/CMakeFiles/serial_nrf51422_xxAC_s130_2.0.1.dir/__/__/mesh/access/src/device_state_manager.c.obj
 .text.flash_operation_complete
                0x0001fb94       0x58 examples/serial/CMakeFiles/serial_nrf51422_xxAC_s130_2.0.1.dir/__/__/mesh/access/src/device_state_manager.c.obj
 .text.flash_invalidate_complete
                0x0001fbec        0xc examples/serial/CMakeFiles/serial_nrf51422_xxAC_s130_2.0.1.dir/__/__/mesh/access/src/device_state_manager.c.obj
 .text.flash_write_complete
                0x0001fbf8        0xc examples/serial/CMakeFiles/serial_nrf51422_xxAC_s130_2.0.1.dir/__/__/mesh/access/src/device_state_manager.c.obj
 .text.add_address.part.7
                0x0001fc04      0x150 examples/serial/CMakeFiles/serial_nrf51422_xxAC_s130_2.0.1.dir/__/__/mesh/access/src/device_state_manager.c.obj
 .text.address_handle_valid
                0x0001fd54       0x28 examples/serial/CMakeFiles/serial_nrf51422_xxAC_s130_2.0.1.dir/__/__/mesh/access/src/device_state_manager.c.obj
 .text.address_handle_nonvirtual_valid
                0x0001fd7c       0x18 examples/serial/CMakeFiles/serial_nrf51422_xxAC_s130_2.0.1.dir/__/__/mesh/access/src/device_state_manager.c.obj
 .text.address_delete_if_unused
                0x0001fd94       0x7c examples/serial/CMakeFiles/serial_nrf51422_xxAC_s130_2.0.1.dir/__/__/mesh/access/src/device_state_manager.c.obj
 .text.addr_nonvirtual_to_dsm_entry
                0x0001fe10       0x34 examples/serial/CMakeFiles/serial_nrf51422_xxAC_s130_2.0.1.dir/__/__/mesh/access/src/device_state_manager.c.obj
 .text.dsm_flash_area_get
                0x0001fe44       0x10 examples/serial/CMakeFiles/serial_nrf51422_xxAC_s130_2.0.1.dir/__/__/mesh/access/src/device_state_manager.c.obj
                0x0001fe44                dsm_flash_area_get
 .text.build_flash_area
                0x0001fe54       0x90 examples/serial/CMakeFiles/serial_nrf51422_xxAC_s130_2.0.1.dir/__/__/mesh/access/src/device_state_manager.c.obj
 .text.flash_remove_complete
                0x0001fee4        0x8 examples/serial/CMakeFiles/serial_nrf51422_xxAC_s130_2.0.1.dir/__/__/mesh/access/src/device_state_manager.c.obj
 .text.dsm_clear
                0x0001feec       0x74 examples/serial/CMakeFiles/serial_nrf51422_xxAC_s130_2.0.1.dir/__/__/mesh/access/src/device_state_manager.c.obj
                0x0001feec                dsm_clear
 .text.dsm_init
                0x0001ff60       0x28 examples/serial/CMakeFiles/serial_nrf51422_xxAC_s130_2.0.1.dir/__/__/mesh/access/src/device_state_manager.c.obj
                0x0001ff60                dsm_init
 .text.dsm_local_unicast_addresses_set
                0x0001ff88       0x80 examples/serial/CMakeFiles/serial_nrf51422_xxAC_s130_2.0.1.dir/__/__/mesh/access/src/device_state_manager.c.obj
                0x0001ff88                dsm_local_unicast_addresses_set
 .text.dsm_local_unicast_addresses_get
                0x00020008       0x2c examples/serial/CMakeFiles/serial_nrf51422_xxAC_s130_2.0.1.dir/__/__/mesh/access/src/device_state_manager.c.obj
                0x00020008                dsm_local_unicast_addresses_get
 .text.dsm_address_publish_add
                0x00020034       0x14 examples/serial/CMakeFiles/serial_nrf51422_xxAC_s130_2.0.1.dir/__/__/mesh/access/src/device_state_manager.c.obj
                0x00020034                dsm_address_publish_add
 .text.dsm_address_publish_virtual_add
                0x00020048        0xa examples/serial/CMakeFiles/serial_nrf51422_xxAC_s130_2.0.1.dir/__/__/mesh/access/src/device_state_manager.c.obj
                0x00020048                dsm_address_publish_virtual_add
 *fill*         0x00020052        0x2 
 .text.dsm_address_publish_remove
                0x00020054       0x44 examples/serial/CMakeFiles/serial_nrf51422_xxAC_s130_2.0.1.dir/__/__/mesh/access/src/device_state_manager.c.obj
                0x00020054                dsm_address_publish_remove
 .text.dsm_address_subscription_add
                0x00020098       0x14 examples/serial/CMakeFiles/serial_nrf51422_xxAC_s130_2.0.1.dir/__/__/mesh/access/src/device_state_manager.c.obj
                0x00020098                dsm_address_subscription_add
 .text.dsm_address_subscription_virtual_add
                0x000200ac        0xa examples/serial/CMakeFiles/serial_nrf51422_xxAC_s130_2.0.1.dir/__/__/mesh/access/src/device_state_manager.c.obj
                0x000200ac                dsm_address_subscription_virtual_add
 *fill*         0x000200b6        0x2 
 .text.dsm_address_subscription_get
                0x000200b8       0x34 examples/serial/CMakeFiles/serial_nrf51422_xxAC_s130_2.0.1.dir/__/__/mesh/access/src/device_state_manager.c.obj
                0x000200b8                dsm_address_subscription_get
 .text.dsm_address_get
                0x000200ec       0x60 examples/serial/CMakeFiles/serial_nrf51422_xxAC_s130_2.0.1.dir/__/__/mesh/access/src/device_state_manager.c.obj
                0x000200ec                dsm_address_get
 .text.dsm_address_subscription_remove
                0x0002014c       0x64 examples/serial/CMakeFiles/serial_nrf51422_xxAC_s130_2.0.1.dir/__/__/mesh/access/src/device_state_manager.c.obj
                0x0002014c                dsm_address_subscription_remove
 .text.dsm_address_get_all
                0x000201b0       0x68 examples/serial/CMakeFiles/serial_nrf51422_xxAC_s130_2.0.1.dir/__/__/mesh/access/src/device_state_manager.c.obj
                0x000201b0                dsm_address_get_all
 .text.dsm_address_handle_get
                0x00020218       0x98 examples/serial/CMakeFiles/serial_nrf51422_xxAC_s130_2.0.1.dir/__/__/mesh/access/src/device_state_manager.c.obj
                0x00020218                dsm_address_handle_get
 .text.dsm_subnet_handle_get
                0x000202b0       0x14 examples/serial/CMakeFiles/serial_nrf51422_xxAC_s130_2.0.1.dir/__/__/mesh/access/src/device_state_manager.c.obj
                0x000202b0                dsm_subnet_handle_get
 .text.dsm_appkey_handle_get
                0x000202c4       0x14 examples/serial/CMakeFiles/serial_nrf51422_xxAC_s130_2.0.1.dir/__/__/mesh/access/src/device_state_manager.c.obj
                0x000202c4                dsm_appkey_handle_get
 .text.dsm_subnet_add
                0x000202d8       0x60 examples/serial/CMakeFiles/serial_nrf51422_xxAC_s130_2.0.1.dir/__/__/mesh/access/src/device_state_manager.c.obj
                0x000202d8                dsm_subnet_add
 .text.dsm_subnet_update
                0x00020338       0xb8 examples/serial/CMakeFiles/serial_nrf51422_xxAC_s130_2.0.1.dir/__/__/mesh/access/src/device_state_manager.c.obj
                0x00020338                dsm_subnet_update
 .text.dsm_subnet_update_swap_keys
                0x000203f0       0x54 examples/serial/CMakeFiles/serial_nrf51422_xxAC_s130_2.0.1.dir/__/__/mesh/access/src/device_state_manager.c.obj
                0x000203f0                dsm_subnet_update_swap_keys
 .text.dsm_subnet_update_commit
                0x00020444       0xe0 examples/serial/CMakeFiles/serial_nrf51422_xxAC_s130_2.0.1.dir/__/__/mesh/access/src/device_state_manager.c.obj
                0x00020444                dsm_subnet_update_commit
 .text.net_beacon_callback
                0x00020524       0x74 examples/serial/CMakeFiles/serial_nrf51422_xxAC_s130_2.0.1.dir/__/__/mesh/access/src/device_state_manager.c.obj
 .text.dsm_subnet_get_all
                0x00020598       0x58 examples/serial/CMakeFiles/serial_nrf51422_xxAC_s130_2.0.1.dir/__/__/mesh/access/src/device_state_manager.c.obj
                0x00020598                dsm_subnet_get_all
 .text.dsm_devkey_add
                0x000205f0       0x7c examples/serial/CMakeFiles/serial_nrf51422_xxAC_s130_2.0.1.dir/__/__/mesh/access/src/device_state_manager.c.obj
                0x000205f0                dsm_devkey_add
 .text.dsm_devkey_delete
                0x0002066c       0x44 examples/serial/CMakeFiles/serial_nrf51422_xxAC_s130_2.0.1.dir/__/__/mesh/access/src/device_state_manager.c.obj
                0x0002066c                dsm_devkey_delete
 .text.dsm_appkey_add
                0x000206b0       0x7c examples/serial/CMakeFiles/serial_nrf51422_xxAC_s130_2.0.1.dir/__/__/mesh/access/src/device_state_manager.c.obj
                0x000206b0                dsm_appkey_add
 .text.dsm_appkey_update
                0x0002072c       0xa0 examples/serial/CMakeFiles/serial_nrf51422_xxAC_s130_2.0.1.dir/__/__/mesh/access/src/device_state_manager.c.obj
                0x0002072c                dsm_appkey_update
 .text.dsm_appkey_delete
                0x000207cc       0x34 examples/serial/CMakeFiles/serial_nrf51422_xxAC_s130_2.0.1.dir/__/__/mesh/access/src/device_state_manager.c.obj
                0x000207cc                dsm_appkey_delete
 .text.dsm_subnet_delete
                0x00020800       0xc0 examples/serial/CMakeFiles/serial_nrf51422_xxAC_s130_2.0.1.dir/__/__/mesh/access/src/device_state_manager.c.obj
                0x00020800                dsm_subnet_delete
 .text.dsm_appkey_get_all
                0x000208c0       0x78 examples/serial/CMakeFiles/serial_nrf51422_xxAC_s130_2.0.1.dir/__/__/mesh/access/src/device_state_manager.c.obj
                0x000208c0                dsm_appkey_get_all
 .text.dsm_tx_secmat_get
                0x00020938      0x134 examples/serial/CMakeFiles/serial_nrf51422_xxAC_s130_2.0.1.dir/__/__/mesh/access/src/device_state_manager.c.obj
                0x00020938                dsm_tx_secmat_get
 .text.nrf_mesh_net_secmat_next_get
                0x00020a6c       0xd0 examples/serial/CMakeFiles/serial_nrf51422_xxAC_s130_2.0.1.dir/__/__/mesh/access/src/device_state_manager.c.obj
                0x00020a6c                nrf_mesh_net_secmat_next_get
 .text.nrf_mesh_app_secmat_next_get
                0x00020b3c       0xa0 examples/serial/CMakeFiles/serial_nrf51422_xxAC_s130_2.0.1.dir/__/__/mesh/access/src/device_state_manager.c.obj
                0x00020b3c                nrf_mesh_app_secmat_next_get
 .text.nrf_mesh_devkey_secmat_get
                0x00020bdc       0x50 examples/serial/CMakeFiles/serial_nrf51422_xxAC_s130_2.0.1.dir/__/__/mesh/access/src/device_state_manager.c.obj
                0x00020bdc                nrf_mesh_devkey_secmat_get
 .text.nrf_mesh_beacon_info_next_get
                0x00020c2c       0xec examples/serial/CMakeFiles/serial_nrf51422_xxAC_s130_2.0.1.dir/__/__/mesh/access/src/device_state_manager.c.obj
                0x00020c2c                nrf_mesh_beacon_info_next_get
 .text.nrf_mesh_rx_address_get
                0x00020d18      0x108 examples/serial/CMakeFiles/serial_nrf51422_xxAC_s130_2.0.1.dir/__/__/mesh/access/src/device_state_manager.c.obj
                0x00020d18                nrf_mesh_rx_address_get
 .text.serial_uart_init
                0x00020e20       0xd0 examples/serial/CMakeFiles/serial_nrf51422_xxAC_s130_2.0.1.dir/__/__/mesh/serial/src/serial_uart.c.obj
                0x00020e20                serial_uart_init
 .text.serial_uart_process
                0x00020ef0       0x5c examples/serial/CMakeFiles/serial_nrf51422_xxAC_s130_2.0.1.dir/__/__/mesh/serial/src/serial_uart.c.obj
                0x00020ef0                serial_uart_process
 .text.UART0_IRQHandler
                0x00020f4c        0x8 examples/serial/CMakeFiles/serial_nrf51422_xxAC_s130_2.0.1.dir/__/__/mesh/serial/src/serial_uart.c.obj
                0x00020f4c                UART0_IRQHandler
 .text.serial_uart_receive_set
                0x00020f54        0xc examples/serial/CMakeFiles/serial_nrf51422_xxAC_s130_2.0.1.dir/__/__/mesh/serial/src/serial_uart.c.obj
                0x00020f54                serial_uart_receive_set
 .text.do_transmit
                0x00020f60       0x50 examples/serial/CMakeFiles/serial_nrf51422_xxAC_s130_2.0.1.dir/__/__/mesh/serial/src/serial_bearer.c.obj
 .text.char_tx  0x00020fb0       0x8c examples/serial/CMakeFiles/serial_nrf51422_xxAC_s130_2.0.1.dir/__/__/mesh/serial/src/serial_bearer.c.obj
 .text.serial_bearer_init
                0x0002103c       0x84 examples/serial/CMakeFiles/serial_nrf51422_xxAC_s130_2.0.1.dir/__/__/mesh/serial/src/serial_bearer.c.obj
                0x0002103c                serial_bearer_init
 .text.serial_bearer_packet_buffer_get
                0x000210c0       0x24 examples/serial/CMakeFiles/serial_nrf51422_xxAC_s130_2.0.1.dir/__/__/mesh/serial/src/serial_bearer.c.obj
                0x000210c0                serial_bearer_packet_buffer_get
 .text.serial_bearer_blocking_buffer_get
                0x000210e4       0x3c examples/serial/CMakeFiles/serial_nrf51422_xxAC_s130_2.0.1.dir/__/__/mesh/serial/src/serial_bearer.c.obj
                0x000210e4                serial_bearer_blocking_buffer_get
 .text.serial_bearer_tx
                0x00021120       0x70 examples/serial/CMakeFiles/serial_nrf51422_xxAC_s130_2.0.1.dir/__/__/mesh/serial/src/serial_bearer.c.obj
                0x00021120                serial_bearer_tx
 .text.send_cmd_response.constprop.5
                0x00021190       0x26 examples/serial/CMakeFiles/serial_nrf51422_xxAC_s130_2.0.1.dir/__/__/mesh/serial/src/serial_bearer.c.obj
 *fill*         0x000211b6        0x2 
 .text.char_rx  0x000211b8       0xbc examples/serial/CMakeFiles/serial_nrf51422_xxAC_s130_2.0.1.dir/__/__/mesh/serial/src/serial_bearer.c.obj
 .text.serial_bearer_rx_get
                0x00021274       0x38 examples/serial/CMakeFiles/serial_nrf51422_xxAC_s130_2.0.1.dir/__/__/mesh/serial/src/serial_bearer.c.obj
                0x00021274                serial_bearer_rx_get
 .text.serial_handler_common_cmd_rsp_nodata_on_error
                0x000212ac       0x2c examples/serial/CMakeFiles/serial_nrf51422_xxAC_s130_2.0.1.dir/__/__/mesh/serial/src/serial_handler_common.c.obj
                0x000212ac                serial_handler_common_cmd_rsp_nodata_on_error
 .text.serial_handler_common_rx
                0x000212d8       0x4c examples/serial/CMakeFiles/serial_nrf51422_xxAC_s130_2.0.1.dir/__/__/mesh/serial/src/serial_handler_common.c.obj
                0x000212d8                serial_handler_common_rx
 .text.access_flash_store
                0x00021324       0x16 examples/serial/CMakeFiles/serial_nrf51422_xxAC_s130_2.0.1.dir/__/__/mesh/serial/src/serial_handler_access.c.obj
 .text.elem_models_get
                0x0002133a       0x44 examples/serial/CMakeFiles/serial_nrf51422_xxAC_s130_2.0.1.dir/__/__/mesh/serial/src/serial_handler_access.c.obj
 .text.handle_get
                0x0002137e       0x36 examples/serial/CMakeFiles/serial_nrf51422_xxAC_s130_2.0.1.dir/__/__/mesh/serial/src/serial_handler_access.c.obj
 .text.model_id_get
                0x000213b4       0x20 examples/serial/CMakeFiles/serial_nrf51422_xxAC_s130_2.0.1.dir/__/__/mesh/serial/src/serial_handler_access.c.obj
 .text.elem_vendor_model_cnt_get
                0x000213d4       0x20 examples/serial/CMakeFiles/serial_nrf51422_xxAC_s130_2.0.1.dir/__/__/mesh/serial/src/serial_handler_access.c.obj
 .text.elem_sig_model_cnt_get
                0x000213f4       0x20 examples/serial/CMakeFiles/serial_nrf51422_xxAC_s130_2.0.1.dir/__/__/mesh/serial/src/serial_handler_access.c.obj
 .text.elem_loc_get
                0x00021414       0x20 examples/serial/CMakeFiles/serial_nrf51422_xxAC_s130_2.0.1.dir/__/__/mesh/serial/src/serial_handler_access.c.obj
 .text.elem_loc_set
                0x00021434       0x2c examples/serial/CMakeFiles/serial_nrf51422_xxAC_s130_2.0.1.dir/__/__/mesh/serial/src/serial_handler_access.c.obj
 .text.model_pub_ttl_get
                0x00021460       0x20 examples/serial/CMakeFiles/serial_nrf51422_xxAC_s130_2.0.1.dir/__/__/mesh/serial/src/serial_handler_access.c.obj
 .text.model_pub_ttl_set
                0x00021480       0x26 examples/serial/CMakeFiles/serial_nrf51422_xxAC_s130_2.0.1.dir/__/__/mesh/serial/src/serial_handler_access.c.obj
 .text.model_pub_app_get
                0x000214a6       0x20 examples/serial/CMakeFiles/serial_nrf51422_xxAC_s130_2.0.1.dir/__/__/mesh/serial/src/serial_handler_access.c.obj
 .text.model_pub_app_set
                0x000214c6       0x2c examples/serial/CMakeFiles/serial_nrf51422_xxAC_s130_2.0.1.dir/__/__/mesh/serial/src/serial_handler_access.c.obj
 .text.model_app_get
                0x000214f2       0x44 examples/serial/CMakeFiles/serial_nrf51422_xxAC_s130_2.0.1.dir/__/__/mesh/serial/src/serial_handler_access.c.obj
 .text.model_app_unbind
                0x00021536       0x2c examples/serial/CMakeFiles/serial_nrf51422_xxAC_s130_2.0.1.dir/__/__/mesh/serial/src/serial_handler_access.c.obj
 .text.model_app_bind
                0x00021562       0x2c examples/serial/CMakeFiles/serial_nrf51422_xxAC_s130_2.0.1.dir/__/__/mesh/serial/src/serial_handler_access.c.obj
 .text.model_subs_get
                0x0002158e       0x44 examples/serial/CMakeFiles/serial_nrf51422_xxAC_s130_2.0.1.dir/__/__/mesh/serial/src/serial_handler_access.c.obj
 .text.model_subs_remove
                0x000215d2       0x2c examples/serial/CMakeFiles/serial_nrf51422_xxAC_s130_2.0.1.dir/__/__/mesh/serial/src/serial_handler_access.c.obj
 .text.model_subs_add
                0x000215fe       0x2c examples/serial/CMakeFiles/serial_nrf51422_xxAC_s130_2.0.1.dir/__/__/mesh/serial/src/serial_handler_access.c.obj
 .text.model_pub_period_get
                0x0002162a       0x24 examples/serial/CMakeFiles/serial_nrf51422_xxAC_s130_2.0.1.dir/__/__/mesh/serial/src/serial_handler_access.c.obj
 .text.model_pub_period_set
                0x0002164e       0x28 examples/serial/CMakeFiles/serial_nrf51422_xxAC_s130_2.0.1.dir/__/__/mesh/serial/src/serial_handler_access.c.obj
 .text.model_pub_addr_get
                0x00021676       0x20 examples/serial/CMakeFiles/serial_nrf51422_xxAC_s130_2.0.1.dir/__/__/mesh/serial/src/serial_handler_access.c.obj
 .text.model_pub_addr_set
                0x00021696       0x2c examples/serial/CMakeFiles/serial_nrf51422_xxAC_s130_2.0.1.dir/__/__/mesh/serial/src/serial_handler_access.c.obj
 *fill*         0x000216c2        0x2 
 .text.serial_handler_access_rx
                0x000216c4       0x30 examples/serial/CMakeFiles/serial_nrf51422_xxAC_s130_2.0.1.dir/__/__/mesh/serial/src/serial_handler_access.c.obj
                0x000216c4                serial_handler_access_rx
 .text.serial_handler_config_rx
                0x000216f4       0xb0 examples/serial/CMakeFiles/serial_nrf51422_xxAC_s130_2.0.1.dir/__/__/mesh/serial/src/serial_handler_config.c.obj
                0x000216f4                serial_handler_config_rx
 .text.serial_handler_openmesh_rx
                0x000217a4       0x32 examples/serial/CMakeFiles/serial_nrf51422_xxAC_s130_2.0.1.dir/__/__/mesh/serial/src/serial_handler_openmesh.c.obj
                0x000217a4                serial_handler_openmesh_rx
 *fill*         0x000217d6        0x2 
 .text.serial_init
                0x000217d8       0x1c examples/serial/CMakeFiles/serial_nrf51422_xxAC_s130_2.0.1.dir/__/__/mesh/serial/src/serial.c.obj
                0x000217d8                serial_init
 .text.serial_packet_buffer_get
                0x000217f4       0x1c examples/serial/CMakeFiles/serial_nrf51422_xxAC_s130_2.0.1.dir/__/__/mesh/serial/src/serial.c.obj
                0x000217f4                serial_packet_buffer_get
 .text.serial_tx
                0x00021810       0x2c examples/serial/CMakeFiles/serial_nrf51422_xxAC_s130_2.0.1.dir/__/__/mesh/serial/src/serial.c.obj
                0x00021810                serial_tx
 .text.serial_start
                0x0002183c      0x10c examples/serial/CMakeFiles/serial_nrf51422_xxAC_s130_2.0.1.dir/__/__/mesh/serial/src/serial.c.obj
                0x0002183c                serial_start
 .text.serial_process_cmd
                0x00021948      0x128 examples/serial/CMakeFiles/serial_nrf51422_xxAC_s130_2.0.1.dir/__/__/mesh/serial/src/serial.c.obj
 .text.serial_process
                0x00021a70       0x34 examples/serial/CMakeFiles/serial_nrf51422_xxAC_s130_2.0.1.dir/__/__/mesh/serial/src/serial.c.obj
                0x00021a70                serial_process
 .text.serial_translate_error
                0x00021aa4       0x74 examples/serial/CMakeFiles/serial_nrf51422_xxAC_s130_2.0.1.dir/__/__/mesh/serial/src/serial.c.obj
                0x00021aa4                serial_translate_error
 .text.serial_state_get
                0x00021b18        0xc examples/serial/CMakeFiles/serial_nrf51422_xxAC_s130_2.0.1.dir/__/__/mesh/serial/src/serial.c.obj
                0x00021b18                serial_state_get
 .text.serial_cmd_rsp_send
                0x00021b24       0x6c examples/serial/CMakeFiles/serial_nrf51422_xxAC_s130_2.0.1.dir/__/__/mesh/serial/src/serial.c.obj
                0x00021b24                serial_cmd_rsp_send
 .text.find_context_id
                0x00021b90       0x20 examples/serial/CMakeFiles/serial_nrf51422_xxAC_s130_2.0.1.dir/__/__/mesh/serial/src/serial_handler_prov.c.obj
 .text.serial_handler_prov_evt_in
                0x00021bb0      0x2bc examples/serial/CMakeFiles/serial_nrf51422_xxAC_s130_2.0.1.dir/__/__/mesh/serial/src/serial_handler_prov.c.obj
 .text.serial_handler_prov_init
                0x00021e6c       0xec examples/serial/CMakeFiles/serial_nrf51422_xxAC_s130_2.0.1.dir/__/__/mesh/serial/src/serial_handler_prov.c.obj
                0x00021e6c                serial_handler_prov_init
 .text.serial_handler_prov_pkt_in
                0x00021f58      0x25c examples/serial/CMakeFiles/serial_nrf51422_xxAC_s130_2.0.1.dir/__/__/mesh/serial/src/serial_handler_prov.c.obj
                0x00021f58                serial_handler_prov_pkt_in
 .text.serial_handler_mesh_evt_handle
                0x000221b4      0x1b8 examples/serial/CMakeFiles/serial_nrf51422_xxAC_s130_2.0.1.dir/__/__/mesh/serial/src/serial_handler_dfu.c.obj
 .text.serial_handler_dfu_init
                0x0002236c       0x18 examples/serial/CMakeFiles/serial_nrf51422_xxAC_s130_2.0.1.dir/__/__/mesh/serial/src/serial_handler_dfu.c.obj
                0x0002236c                serial_handler_dfu_init
 .text.serial_handler_dfu_rx
                0x00022384      0x158 examples/serial/CMakeFiles/serial_nrf51422_xxAC_s130_2.0.1.dir/__/__/mesh/serial/src/serial_handler_dfu.c.obj
                0x00022384                serial_handler_dfu_rx
 .text.serial_handler_mesh_evt_handle
                0x000224dc      0x158 examples/serial/CMakeFiles/serial_nrf51422_xxAC_s130_2.0.1.dir/__/__/mesh/serial/src/serial_handler_mesh.c.obj
 .text.handle_cmd_clear
                0x00022634       0x1e examples/serial/CMakeFiles/serial_nrf51422_xxAC_s130_2.0.1.dir/__/__/mesh/serial/src/serial_handler_mesh.c.obj
 .text.handle_cmd_packet_send
                0x00022652       0x92 examples/serial/CMakeFiles/serial_nrf51422_xxAC_s130_2.0.1.dir/__/__/mesh/serial/src/serial_handler_mesh.c.obj
 .text.handle_cmd_addr_virtual_count_max_get
                0x000226e4       0x14 examples/serial/CMakeFiles/serial_nrf51422_xxAC_s130_2.0.1.dir/__/__/mesh/serial/src/serial_handler_mesh.c.obj
 .text.handle_cmd_appkey_count_max_get
                0x000226f8        0x8 examples/serial/CMakeFiles/serial_nrf51422_xxAC_s130_2.0.1.dir/__/__/mesh/serial/src/serial_handler_mesh.c.obj
 .text.handle_cmd_addr_nonvirtual_count_max_get
                0x00022700       0x14 examples/serial/CMakeFiles/serial_nrf51422_xxAC_s130_2.0.1.dir/__/__/mesh/serial/src/serial_handler_mesh.c.obj
 .text.handle_cmd_addr_local_unicast_get
                0x00022714       0x24 examples/serial/CMakeFiles/serial_nrf51422_xxAC_s130_2.0.1.dir/__/__/mesh/serial/src/serial_handler_mesh.c.obj
 .text.handle_cmd_devkey_count_max_get
                0x00022738       0x14 examples/serial/CMakeFiles/serial_nrf51422_xxAC_s130_2.0.1.dir/__/__/mesh/serial/src/serial_handler_mesh.c.obj
 .text.handle_cmd_subnet_count_max_get
                0x0002274c       0x14 examples/serial/CMakeFiles/serial_nrf51422_xxAC_s130_2.0.1.dir/__/__/mesh/serial/src/serial_handler_mesh.c.obj
 .text.handle_cmd_addr_get_all
                0x00022760       0x26 examples/serial/CMakeFiles/serial_nrf51422_xxAC_s130_2.0.1.dir/__/__/mesh/serial/src/serial_handler_mesh.c.obj
 .text.handle_cmd_addr_get
                0x00022786       0x68 examples/serial/CMakeFiles/serial_nrf51422_xxAC_s130_2.0.1.dir/__/__/mesh/serial/src/serial_handler_mesh.c.obj
 .text.handle_cmd_addr_publication_remove
                0x000227ee       0x28 examples/serial/CMakeFiles/serial_nrf51422_xxAC_s130_2.0.1.dir/__/__/mesh/serial/src/serial_handler_mesh.c.obj
 .text.handle_cmd_addr_publication_add_virtual
                0x00022816       0x22 examples/serial/CMakeFiles/serial_nrf51422_xxAC_s130_2.0.1.dir/__/__/mesh/serial/src/serial_handler_mesh.c.obj
 .text.handle_cmd_addr_publication_add
                0x00022838       0x28 examples/serial/CMakeFiles/serial_nrf51422_xxAC_s130_2.0.1.dir/__/__/mesh/serial/src/serial_handler_mesh.c.obj
 .text.handle_cmd_addr_subscription_remove
                0x00022860       0x28 examples/serial/CMakeFiles/serial_nrf51422_xxAC_s130_2.0.1.dir/__/__/mesh/serial/src/serial_handler_mesh.c.obj
 .text.handle_cmd_addr_subscription_add_virtual
                0x00022888       0x22 examples/serial/CMakeFiles/serial_nrf51422_xxAC_s130_2.0.1.dir/__/__/mesh/serial/src/serial_handler_mesh.c.obj
 .text.handle_cmd_addr_subscription_add
                0x000228aa       0x28 examples/serial/CMakeFiles/serial_nrf51422_xxAC_s130_2.0.1.dir/__/__/mesh/serial/src/serial_handler_mesh.c.obj
 .text.handle_cmd_addr_local_unicast_set
                0x000228d2       0x2c examples/serial/CMakeFiles/serial_nrf51422_xxAC_s130_2.0.1.dir/__/__/mesh/serial/src/serial_handler_mesh.c.obj
 .text.handle_cmd_devkey_delete
                0x000228fe       0x28 examples/serial/CMakeFiles/serial_nrf51422_xxAC_s130_2.0.1.dir/__/__/mesh/serial/src/serial_handler_mesh.c.obj
 .text.handle_cmd_devkey_add
                0x00022926       0x2a examples/serial/CMakeFiles/serial_nrf51422_xxAC_s130_2.0.1.dir/__/__/mesh/serial/src/serial_handler_mesh.c.obj
 .text.handle_cmd_appkey_get_all
                0x00022950       0x3c examples/serial/CMakeFiles/serial_nrf51422_xxAC_s130_2.0.1.dir/__/__/mesh/serial/src/serial_handler_mesh.c.obj
 .text.handle_cmd_appkey_delete
                0x0002298c       0x28 examples/serial/CMakeFiles/serial_nrf51422_xxAC_s130_2.0.1.dir/__/__/mesh/serial/src/serial_handler_mesh.c.obj
 .text.handle_cmd_appkey_update
                0x000229b4       0x2a examples/serial/CMakeFiles/serial_nrf51422_xxAC_s130_2.0.1.dir/__/__/mesh/serial/src/serial_handler_mesh.c.obj
 .text.handle_cmd_appkey_add
                0x000229de       0x32 examples/serial/CMakeFiles/serial_nrf51422_xxAC_s130_2.0.1.dir/__/__/mesh/serial/src/serial_handler_mesh.c.obj
 .text.handle_cmd_subnet_get_all
                0x00022a10       0x2c examples/serial/CMakeFiles/serial_nrf51422_xxAC_s130_2.0.1.dir/__/__/mesh/serial/src/serial_handler_mesh.c.obj
 .text.handle_cmd_subnet_delete
                0x00022a3c       0x28 examples/serial/CMakeFiles/serial_nrf51422_xxAC_s130_2.0.1.dir/__/__/mesh/serial/src/serial_handler_mesh.c.obj
 .text.handle_cmd_subnet_update
                0x00022a64       0x2a examples/serial/CMakeFiles/serial_nrf51422_xxAC_s130_2.0.1.dir/__/__/mesh/serial/src/serial_handler_mesh.c.obj
 .text.handle_cmd_subnet_add
                0x00022a8e       0x2a examples/serial/CMakeFiles/serial_nrf51422_xxAC_s130_2.0.1.dir/__/__/mesh/serial/src/serial_handler_mesh.c.obj
 .text.handle_cmd_disable
                0x00022ab8       0x16 examples/serial/CMakeFiles/serial_nrf51422_xxAC_s130_2.0.1.dir/__/__/mesh/serial/src/serial_handler_mesh.c.obj
 .text.handle_cmd_enable
                0x00022ace       0x16 examples/serial/CMakeFiles/serial_nrf51422_xxAC_s130_2.0.1.dir/__/__/mesh/serial/src/serial_handler_mesh.c.obj
 .text.serial_handler_mesh_init
                0x00022ae4       0x18 examples/serial/CMakeFiles/serial_nrf51422_xxAC_s130_2.0.1.dir/__/__/mesh/serial/src/serial_handler_mesh.c.obj
                0x00022ae4                serial_handler_mesh_init
 .text.serial_handler_mesh_rx
                0x00022afc       0x7c examples/serial/CMakeFiles/serial_nrf51422_xxAC_s130_2.0.1.dir/__/__/mesh/serial/src/serial_handler_mesh.c.obj
                0x00022afc                serial_handler_mesh_rx
 .text.registered_model_get
                0x00022b78       0x24 examples/serial/CMakeFiles/serial_nrf51422_xxAC_s130_2.0.1.dir/__/__/mesh/serial/src/serial_handler_models.c.obj
 .text.model_command
                0x00022b9c       0x64 examples/serial/CMakeFiles/serial_nrf51422_xxAC_s130_2.0.1.dir/__/__/mesh/serial/src/serial_handler_models.c.obj
 .text.model_init
                0x00022c00       0x36 examples/serial/CMakeFiles/serial_nrf51422_xxAC_s130_2.0.1.dir/__/__/mesh/serial/src/serial_handler_models.c.obj
 *fill*         0x00022c36        0x2 
 .text.models_get
                0x00022c38       0x48 examples/serial/CMakeFiles/serial_nrf51422_xxAC_s130_2.0.1.dir/__/__/mesh/serial/src/serial_handler_models.c.obj
 .text.serial_handler_models_rx
                0x00022c80       0x30 examples/serial/CMakeFiles/serial_nrf51422_xxAC_s130_2.0.1.dir/__/__/mesh/serial/src/serial_handler_models.c.obj
                0x00022c80                serial_handler_models_rx
 .text.handle_cmd_device_beacon_params_get
                0x00022cb0       0x94 examples/serial/CMakeFiles/serial_nrf51422_xxAC_s130_2.0.1.dir/__/__/mesh/serial/src/serial_handler_device.c.obj
 .text.handle_cmd_device_fw_info_get
                0x00022d44       0x10 examples/serial/CMakeFiles/serial_nrf51422_xxAC_s130_2.0.1.dir/__/__/mesh/serial/src/serial_handler_device.c.obj
 .text.handle_cmd_device_serial_version_get
                0x00022d54       0x14 examples/serial/CMakeFiles/serial_nrf51422_xxAC_s130_2.0.1.dir/__/__/mesh/serial/src/serial_handler_device.c.obj
 .text.handle_cmd_device_beacon_params_set
                0x00022d68       0x88 examples/serial/CMakeFiles/serial_nrf51422_xxAC_s130_2.0.1.dir/__/__/mesh/serial/src/serial_handler_device.c.obj
 .text.handle_cmd_device_beacon_stop
                0x00022df0       0x40 examples/serial/CMakeFiles/serial_nrf51422_xxAC_s130_2.0.1.dir/__/__/mesh/serial/src/serial_handler_device.c.obj
 .text.handle_cmd_device_beacon_start
                0x00022e30       0x68 examples/serial/CMakeFiles/serial_nrf51422_xxAC_s130_2.0.1.dir/__/__/mesh/serial/src/serial_handler_device.c.obj
 .text.handle_cmd_device_radio_reset
                0x00022e98       0x18 examples/serial/CMakeFiles/serial_nrf51422_xxAC_s130_2.0.1.dir/__/__/mesh/serial/src/serial_handler_device.c.obj
 .text.handle_cmd_device_internal_events_report
                0x00022eb0       0x1c examples/serial/CMakeFiles/serial_nrf51422_xxAC_s130_2.0.1.dir/__/__/mesh/serial/src/serial_handler_device.c.obj
 .text.event_report_cb
                0x00022ecc       0x5c examples/serial/CMakeFiles/serial_nrf51422_xxAC_s130_2.0.1.dir/__/__/mesh/serial/src/serial_handler_device.c.obj
 .text.handle_cmd_device_echo
                0x00022f28       0x40 examples/serial/CMakeFiles/serial_nrf51422_xxAC_s130_2.0.1.dir/__/__/mesh/serial/src/serial_handler_device.c.obj
 .text.serial_handler_device_init
                0x00022f68       0x18 examples/serial/CMakeFiles/serial_nrf51422_xxAC_s130_2.0.1.dir/__/__/mesh/serial/src/serial_handler_device.c.obj
                0x00022f68                serial_handler_device_init
 .text.serial_handler_device_rx
                0x00022f80       0x30 examples/serial/CMakeFiles/serial_nrf51422_xxAC_s130_2.0.1.dir/__/__/mesh/serial/src/serial_handler_device.c.obj
                0x00022f80                serial_handler_device_rx
 .text.nrf_mesh_serial_init
                0x00022fb0       0x38 examples/serial/CMakeFiles/serial_nrf51422_xxAC_s130_2.0.1.dir/__/__/mesh/serial/src/nrf_mesh_serial.c.obj
                0x00022fb0                nrf_mesh_serial_init
 .text.nrf_mesh_serial_enable
                0x00022fe8        0x8 examples/serial/CMakeFiles/serial_nrf51422_xxAC_s130_2.0.1.dir/__/__/mesh/serial/src/nrf_mesh_serial.c.obj
                0x00022fe8                nrf_mesh_serial_enable
 .text.serial_handler_app_cb_set
                0x00022ff0        0xc examples/serial/CMakeFiles/serial_nrf51422_xxAC_s130_2.0.1.dir/__/__/mesh/serial/src/serial_handler_app.c.obj
                0x00022ff0                serial_handler_app_cb_set
 .text.serial_handler_app_rx
                0x00022ffc       0x30 examples/serial/CMakeFiles/serial_nrf51422_xxAC_s130_2.0.1.dir/__/__/mesh/serial/src/serial_handler_app.c.obj
                0x00022ffc                serial_handler_app_rx
 .text._weak_handler
                0x0002302c        0x4 examples/serial/CMakeFiles/serial_nrf51422_xxAC_s130_2.0.1.dir/__/nrf_mesh_weak.c.obj
                0x0002302c                nrf_mesh_dfu_init
                0x0002302c                nrf_mesh_dfu_jump_to_bootloader
                0x0002302c                nrf_mesh_dfu_rx
                0x0002302c                nrf_mesh_dfu_bank_info_get
                0x0002302c                nrf_mesh_dfu_request
                0x0002302c                nrf_mesh_dfu_bank_flash
                0x0002302c                _weak_handler
                0x0002302c                nrf_mesh_dfu_relay
                0x0002302c                nrf_mesh_dfu_abort
                0x0002302c                mesh_flash_op_execute
                0x0002302c                nrf_mesh_dfu_state_get
 .text.SystemInit
                0x00023030       0xe0 examples/serial/CMakeFiles/serial_nrf51422_xxAC_s130_2.0.1.dir/__/__/external/nRF5_SDK_14.2.0_17b948a/components/toolchain/system_nrf51.c.obj
                0x00023030                SystemInit
 .text          0x00023110       0x4c examples/serial/CMakeFiles/serial_nrf51422_xxAC_s130_2.0.1.dir/__/__/external/nRF5_SDK_14.2.0_17b948a/components/toolchain/gcc/gcc_startup_nrf51.S.obj
                0x00023110                Reset_Handler
                0x00023150                NMI_Handler
                0x00023154                SVC_Handler
                0x00023156                PendSV_Handler
                0x00023158                SysTick_Handler
                0x0002315a                GPIOTE_IRQHandler
                0x0002315a                RTC0_IRQHandler
                0x0002315a                POWER_CLOCK_IRQHandler
                0x0002315a                RADIO_IRQHandler
                0x0002315a                LPCOMP_IRQHandler
                0x0002315a                SWI4_IRQHandler
                0x0002315a                TEMP_IRQHandler
                0x0002315a                SPI0_TWI0_IRQHandler
                0x0002315a                TIMER0_IRQHandler
                0x0002315a                TIMER2_IRQHandler
                0x0002315a                SWI0_IRQHandler
                0x0002315a                TIMER1_IRQHandler
                0x0002315a                ECB_IRQHandler
                0x0002315a                Default_Handler
                0x0002315a                ADC_IRQHandler
                0x0002315a                SWI3_IRQHandler
                0x0002315a                CCM_AAR_IRQHandler
                0x0002315a                WDT_IRQHandler
                0x0002315a                SWI5_IRQHandler
                0x0002315a                RNG_IRQHandler
                0x0002315a                SPI1_TWI1_IRQHandler
                0x0002315a                RTC1_IRQHandler
                0x0002315a                SWI1_IRQHandler
 .text.internal_event_init
                0x0002315c       0x40 mesh/core/libmesh_core_nrf51422_xxAC.a(internal_event.c.obj)
                0x0002315c                internal_event_init
 .text.internal_event_push
                0x0002319c       0x30 mesh/core/libmesh_core_nrf51422_xxAC.a(internal_event.c.obj)
                0x0002319c                internal_event_push
 .text.nrf_mesh_configure_device_uuid_set
                0x000231cc       0x14 mesh/core/libmesh_core_nrf51422_xxAC.a(nrf_mesh_configure.c.obj)
                0x000231cc                nrf_mesh_configure_device_uuid_set
 .text.nrf_mesh_configure_device_uuid_reset
                0x000231e0       0x28 mesh/core/libmesh_core_nrf51422_xxAC.a(nrf_mesh_configure.c.obj)
                0x000231e0                nrf_mesh_configure_device_uuid_reset
 .text.nrf_mesh_configure_device_uuid_get
                0x00023208        0x8 mesh/core/libmesh_core_nrf51422_xxAC.a(nrf_mesh_configure.c.obj)
                0x00023208                nrf_mesh_configure_device_uuid_get
 .text.event_handle
                0x00023210       0x34 mesh/core/libmesh_core_nrf51422_xxAC.a(event.c.obj)
                0x00023210                event_handle
 .text.event_handler_add
                0x00023244       0x28 mesh/core/libmesh_core_nrf51422_xxAC.a(event.c.obj)
                0x00023244                event_handler_add
 .text.event_handler_remove
                0x0002326c       0x28 mesh/core/libmesh_core_nrf51422_xxAC.a(event.c.obj)
                0x0002326c                event_handler_remove
 .text.m_adjust_desired_packet_length
                0x00023294       0x34 mesh/core/libmesh_core_nrf51422_xxAC.a(packet_buffer.c.obj)
 .text.m_index_increment.part.0
                0x000232c8       0x18 mesh/core/libmesh_core_nrf51422_xxAC.a(packet_buffer.c.obj)
 .text.m_free_popped_packet
                0x000232e0       0x64 mesh/core/libmesh_core_nrf51422_xxAC.a(packet_buffer.c.obj)
 .text.free_skipped_packets
                0x00023344       0x1c mesh/core/libmesh_core_nrf51422_xxAC.a(packet_buffer.c.obj)
 .text.packet_buffer_max_packet_len_get
                0x00023360       0x38 mesh/core/libmesh_core_nrf51422_xxAC.a(packet_buffer.c.obj)
                0x00023360                packet_buffer_max_packet_len_get
 .text.packet_buffer_init
                0x00023398       0xe0 mesh/core/libmesh_core_nrf51422_xxAC.a(packet_buffer.c.obj)
                0x00023398                packet_buffer_init
 .text.packet_buffer_flush
                0x00023478       0x60 mesh/core/libmesh_core_nrf51422_xxAC.a(packet_buffer.c.obj)
                0x00023478                packet_buffer_flush
 .text.packet_buffer_reserve
                0x000234d8      0x11c mesh/core/libmesh_core_nrf51422_xxAC.a(packet_buffer.c.obj)
                0x000234d8                packet_buffer_reserve
 .text.packet_buffer_commit
                0x000235f4      0x10c mesh/core/libmesh_core_nrf51422_xxAC.a(packet_buffer.c.obj)
                0x000235f4                packet_buffer_commit
 .text.packet_buffer_pop
                0x00023700       0x64 mesh/core/libmesh_core_nrf51422_xxAC.a(packet_buffer.c.obj)
                0x00023700                packet_buffer_pop
 .text.packet_buffer_can_pop
                0x00023764       0x2c mesh/core/libmesh_core_nrf51422_xxAC.a(packet_buffer.c.obj)
                0x00023764                packet_buffer_can_pop
 .text.packet_buffer_packets_ready_to_pop
                0x00023790       0x58 mesh/core/libmesh_core_nrf51422_xxAC.a(packet_buffer.c.obj)
                0x00023790                packet_buffer_packets_ready_to_pop
 .text.packet_buffer_free
                0x000237e8       0x94 mesh/core/libmesh_core_nrf51422_xxAC.a(packet_buffer.c.obj)
                0x000237e8                packet_buffer_free
 .text.fifo_init
                0x0002387c       0x5c mesh/core/libmesh_core_nrf51422_xxAC.a(fifo.c.obj)
                0x0002387c                fifo_init
 .text.fifo_push
                0x000238d8       0x5c mesh/core/libmesh_core_nrf51422_xxAC.a(fifo.c.obj)
                0x000238d8                fifo_push
 .text.fifo_pop
                0x00023934       0x5c mesh/core/libmesh_core_nrf51422_xxAC.a(fifo.c.obj)
                0x00023934                fifo_pop
 .text.flash_mem_available
                0x00023990       0x20 mesh/core/libmesh_core_nrf51422_xxAC.a(net_state.c.obj)
 .text.flash_store_iv_index
                0x000239b0       0x34 mesh/core/libmesh_core_nrf51422_xxAC.a(net_state.c.obj)
 .text.seqnum_block_allocate
                0x000239e4       0x50 mesh/core/libmesh_core_nrf51422_xxAC.a(net_state.c.obj)
 .text.net_state_reset
                0x00023a34       0x3c mesh/core/libmesh_core_nrf51422_xxAC.a(net_state.c.obj)
                0x00023a34                net_state_reset
 .text.flash_write_complete
                0x00023a70       0x80 mesh/core/libmesh_core_nrf51422_xxAC.a(net_state.c.obj)
 .text.net_state_recover_from_flash
                0x00023af0       0x94 mesh/core/libmesh_core_nrf51422_xxAC.a(net_state.c.obj)
                0x00023af0                net_state_recover_from_flash
 .text.net_state_flash_area_get
                0x00023b84       0x10 mesh/core/libmesh_core_nrf51422_xxAC.a(net_state.c.obj)
                0x00023b84                net_state_flash_area_get
 .text.init_flash_storage
                0x00023b94       0x40 mesh/core/libmesh_core_nrf51422_xxAC.a(net_state.c.obj)
 .text.net_state_init
                0x00023bd4       0x48 mesh/core/libmesh_core_nrf51422_xxAC.a(net_state.c.obj)
                0x00023bd4                net_state_init
 .text.net_state_iv_update_start
                0x00023c1c       0x64 mesh/core/libmesh_core_nrf51422_xxAC.a(net_state.c.obj)
                0x00023c1c                net_state_iv_update_start
 .text.iv_update_trigger_if_pending
                0x00023c80       0x94 mesh/core/libmesh_core_nrf51422_xxAC.a(net_state.c.obj)
 .text.iv_update_timer_handler
                0x00023d14       0x80 mesh/core/libmesh_core_nrf51422_xxAC.a(net_state.c.obj)
 .text.net_state_seqnum_alloc
                0x00023d94       0x68 mesh/core/libmesh_core_nrf51422_xxAC.a(net_state.c.obj)
                0x00023d94                net_state_seqnum_alloc
 .text.net_state_iv_index_lock
                0x00023dfc       0x4c mesh/core/libmesh_core_nrf51422_xxAC.a(net_state.c.obj)
                0x00023dfc                net_state_iv_index_lock
 .text.net_state_key_refresh_phase_changed
                0x00023e48       0x18 mesh/core/libmesh_core_nrf51422_xxAC.a(net_state.c.obj)
                0x00023e48                net_state_key_refresh_phase_changed
 .text.net_state_beacon_received
                0x00023e60       0x98 mesh/core/libmesh_core_nrf51422_xxAC.a(net_state.c.obj)
                0x00023e60                net_state_beacon_received
 .text.net_state_beacon_iv_index_get
                0x00023ef8        0xc mesh/core/libmesh_core_nrf51422_xxAC.a(net_state.c.obj)
                0x00023ef8                net_state_beacon_iv_index_get
 .text.net_state_tx_iv_index_get
                0x00023f04       0x14 mesh/core/libmesh_core_nrf51422_xxAC.a(net_state.c.obj)
                0x00023f04                net_state_tx_iv_index_get
 .text.net_state_rx_iv_index_get
                0x00023f18       0x14 mesh/core/libmesh_core_nrf51422_xxAC.a(net_state.c.obj)
                0x00023f18                net_state_rx_iv_index_get
 .text.net_state_iv_update_get
                0x00023f2c        0xc mesh/core/libmesh_core_nrf51422_xxAC.a(net_state.c.obj)
                0x00023f2c                net_state_iv_update_get
 .text.nrf_mesh_address_type_get
                0x00023f38       0x14 mesh/core/libmesh_core_nrf51422_xxAC.a(nrf_mesh_utils.c.obj)
                0x00023f38                nrf_mesh_address_type_get
 .text.sd_softdevice_is_enabled
                0x00023f4c        0x4 mesh/core/libmesh_core_nrf51422_xxAC.a(nrf_mesh.c.obj)
 .text.nrf_mesh_listen
                0x00023f50      0x138 mesh/core/libmesh_core_nrf51422_xxAC.a(nrf_mesh.c.obj)
 .text.scanner_packet_process_cb
                0x00024088       0x84 mesh/core/libmesh_core_nrf51422_xxAC.a(nrf_mesh.c.obj)
 .text.nrf_mesh_init
                0x0002410c       0xd8 mesh/core/libmesh_core_nrf51422_xxAC.a(nrf_mesh.c.obj)
                0x0002410c                nrf_mesh_init
 .text.nrf_mesh_enable
                0x000241e4       0x4c mesh/core/libmesh_core_nrf51422_xxAC.a(nrf_mesh.c.obj)
                0x000241e4                nrf_mesh_enable
 .text.nrf_mesh_disable
                0x00024230       0x28 mesh/core/libmesh_core_nrf51422_xxAC.a(nrf_mesh.c.obj)
                0x00024230                nrf_mesh_disable
 .text.nrf_mesh_packet_send
                0x00024258        0x8 mesh/core/libmesh_core_nrf51422_xxAC.a(nrf_mesh.c.obj)
                0x00024258                nrf_mesh_packet_send
 .text.nrf_mesh_on_ble_evt
                0x00024260        0x4 mesh/core/libmesh_core_nrf51422_xxAC.a(nrf_mesh.c.obj)
                0x00024260                nrf_mesh_on_ble_evt
 .text.nrf_mesh_on_sd_evt
                0x00024264        0xa mesh/core/libmesh_core_nrf51422_xxAC.a(nrf_mesh.c.obj)
                0x00024264                nrf_mesh_on_sd_evt
 .text.nrf_mesh_evt_handler_add
                0x0002426e        0x8 mesh/core/libmesh_core_nrf51422_xxAC.a(nrf_mesh.c.obj)
                0x0002426e                nrf_mesh_evt_handler_add
 .text.sd_power_reset_reason_clr
                0x00024276        0x4 mesh/core/libmesh_core_nrf51422_xxAC.a(hal.c.obj)
 .text.sd_power_gpregret_set
                0x0002427a        0x4 mesh/core/libmesh_core_nrf51422_xxAC.a(hal.c.obj)
 *fill*         0x0002427e        0x2 
 .text.hal_device_reset
                0x00024280       0x2c mesh/core/libmesh_core_nrf51422_xxAC.a(hal.c.obj)
                0x00024280                hal_device_reset
 .text.hal_lfclk_ppm_get
                0x000242ac       0x14 mesh/core/libmesh_core_nrf51422_xxAC.a(hal.c.obj)
                0x000242ac                hal_lfclk_ppm_get
 .text.add_to_add_list
                0x000242c0       0x4c mesh/core/libmesh_core_nrf51422_xxAC.a(timer_scheduler.c.obj)
 .text.process_dirty_events
                0x0002430c       0x64 mesh/core/libmesh_core_nrf51422_xxAC.a(timer_scheduler.c.obj)
 .text.timer_cb
                0x00024370       0x10 mesh/core/libmesh_core_nrf51422_xxAC.a(timer_scheduler.c.obj)
 .text.add_evt.constprop.0
                0x00024380       0x70 mesh/core/libmesh_core_nrf51422_xxAC.a(timer_scheduler.c.obj)
 .text.process_add_list
                0x000243f0       0x4c mesh/core/libmesh_core_nrf51422_xxAC.a(timer_scheduler.c.obj)
 .text.flag_event_cb
                0x0002443c      0x108 mesh/core/libmesh_core_nrf51422_xxAC.a(timer_scheduler.c.obj)
 .text.timer_sch_init
                0x00024544       0x24 mesh/core/libmesh_core_nrf51422_xxAC.a(timer_scheduler.c.obj)
                0x00024544                timer_sch_init
 .text.timer_sch_schedule
                0x00024568       0x54 mesh/core/libmesh_core_nrf51422_xxAC.a(timer_scheduler.c.obj)
                0x00024568                timer_sch_schedule
 .text.timer_sch_abort
                0x000245bc       0x68 mesh/core/libmesh_core_nrf51422_xxAC.a(timer_scheduler.c.obj)
                0x000245bc                timer_sch_abort
 .text.timer_sch_reschedule
                0x00024624       0x78 mesh/core/libmesh_core_nrf51422_xxAC.a(timer_scheduler.c.obj)
                0x00024624                timer_sch_reschedule
 .text.timer_mut_unlock
                0x0002469c       0x10 mesh/core/libmesh_core_nrf51422_xxAC.a(timer.c.obj)
 .text.timer_order_cb
                0x000246ac       0x90 mesh/core/libmesh_core_nrf51422_xxAC.a(timer.c.obj)
                0x000246ac                timer_order_cb
 .text.timer_now
                0x0002473c       0x54 mesh/core/libmesh_core_nrf51422_xxAC.a(timer.c.obj)
                0x0002473c                timer_now
 .text.timer_event_handler
                0x00024790       0xa4 mesh/core/libmesh_core_nrf51422_xxAC.a(timer.c.obj)
                0x00024790                timer_event_handler
 .text.timer_on_ts_begin
                0x00024834      0x104 mesh/core/libmesh_core_nrf51422_xxAC.a(timer.c.obj)
                0x00024834                timer_on_ts_begin
 .text.timer_on_ts_end
                0x00024938       0x64 mesh/core/libmesh_core_nrf51422_xxAC.a(timer.c.obj)
                0x00024938                timer_on_ts_end
 .text.timer_cb
                0x0002499c       0x10 mesh/core/libmesh_core_nrf51422_xxAC.a(ticker.c.obj)
 .text.ticker_init
                0x000249ac       0x38 mesh/core/libmesh_core_nrf51422_xxAC.a(ticker.c.obj)
                0x000249ac                ticker_init
 .text.sd_rand_application_bytes_available_get
                0x000249e4        0x4 mesh/core/libmesh_core_nrf51422_xxAC.a(rand.c.obj)
 .text.sd_rand_application_vector_get
                0x000249e8        0x4 mesh/core/libmesh_core_nrf51422_xxAC.a(rand.c.obj)
 .text.rand_prng_get
                0x000249ec       0x2e mesh/core/libmesh_core_nrf51422_xxAC.a(rand.c.obj)
                0x000249ec                rand_prng_get
 *fill*         0x00024a1a        0x2 
 .text.rand_hw_rng_get
                0x00024a1c       0x4c mesh/core/libmesh_core_nrf51422_xxAC.a(rand.c.obj)
                0x00024a1c                rand_hw_rng_get
 .text.rand_prng_seed
                0x00024a68       0x30 mesh/core/libmesh_core_nrf51422_xxAC.a(rand.c.obj)
                0x00024a68                rand_prng_seed
 .text.nrf_mesh_opt_set
                0x00024a98       0x34 mesh/core/libmesh_core_nrf51422_xxAC.a(nrf_mesh_opt.c.obj)
                0x00024a98                nrf_mesh_opt_set
 .text.nrf_mesh_opt_get
                0x00024acc       0x34 mesh/core/libmesh_core_nrf51422_xxAC.a(nrf_mesh_opt.c.obj)
                0x00024acc                nrf_mesh_opt_get
 .text.sd_radio_session_open
                0x00024b00        0x4 mesh/core/libmesh_core_nrf51422_xxAC.a(timeslot.c.obj)
 .text.sd_radio_session_close
                0x00024b04        0x4 mesh/core/libmesh_core_nrf51422_xxAC.a(timeslot.c.obj)
 .text.sd_radio_request
                0x00024b08        0x4 mesh/core/libmesh_core_nrf51422_xxAC.a(timeslot.c.obj)
 .text.end_timer_handler
                0x00024b0c       0x2c mesh/core/libmesh_core_nrf51422_xxAC.a(timeslot.c.obj)
 .text.get_end_time.constprop.10
                0x00024b38       0x28 mesh/core/libmesh_core_nrf51422_xxAC.a(timeslot.c.obj)
 .text.handle_extend_end.constprop.3
                0x00024b60       0xc4 mesh/core/libmesh_core_nrf51422_xxAC.a(timeslot.c.obj)
 .text.radio_signal_callback
                0x00024c24      0x160 mesh/core/libmesh_core_nrf51422_xxAC.a(timeslot.c.obj)
 .text.timeslot_sd_event_handler
                0x00024d84       0x48 mesh/core/libmesh_core_nrf51422_xxAC.a(timeslot.c.obj)
                0x00024d84                timeslot_sd_event_handler
 .text.timeslot_init
                0x00024dcc       0x4c mesh/core/libmesh_core_nrf51422_xxAC.a(timeslot.c.obj)
                0x00024dcc                timeslot_init
 .text.timeslot_start
                0x00024e18       0x1c mesh/core/libmesh_core_nrf51422_xxAC.a(timeslot.c.obj)
                0x00024e18                timeslot_start
 .text.timeslot_end_is_pending
                0x00024e34       0x2c mesh/core/libmesh_core_nrf51422_xxAC.a(timeslot.c.obj)
                0x00024e34                timeslot_end_is_pending
 .text.timeslot_start_time_get
                0x00024e60        0xc mesh/core/libmesh_core_nrf51422_xxAC.a(timeslot.c.obj)
                0x00024e60                timeslot_start_time_get
 .text.timeslot_remaining_time_get
                0x00024e6c       0x24 mesh/core/libmesh_core_nrf51422_xxAC.a(timeslot.c.obj)
                0x00024e6c                timeslot_remaining_time_get
 .text.timeslot_is_in_cb
                0x00024e90        0xc mesh/core/libmesh_core_nrf51422_xxAC.a(timeslot.c.obj)
                0x00024e90                timeslot_is_in_cb
 .text.timeslot_trigger
                0x00024e9c       0x28 mesh/core/libmesh_core_nrf51422_xxAC.a(timeslot.c.obj)
                0x00024e9c                timeslot_trigger
 .text.timeslot_stop
                0x00024ec4       0x14 mesh/core/libmesh_core_nrf51422_xxAC.a(timeslot.c.obj)
                0x00024ec4                timeslot_stop
 .text.timeslot_state_lock
                0x00024ed8       0x2c mesh/core/libmesh_core_nrf51422_xxAC.a(timeslot.c.obj)
                0x00024ed8                timeslot_state_lock
 .text.trigger_event_handler
                0x00024f04       0x1c mesh/core/libmesh_core_nrf51422_xxAC.a(bearer_event.c.obj)
 .text.evt_push
                0x00024f20       0x20 mesh/core/libmesh_core_nrf51422_xxAC.a(bearer_event.c.obj)
 .text.bearer_event_init
                0x00024f40       0x5c mesh/core/libmesh_core_nrf51422_xxAC.a(bearer_event.c.obj)
                0x00024f40                bearer_event_init
 .text.bearer_event_generic_post
                0x00024f9c       0x34 mesh/core/libmesh_core_nrf51422_xxAC.a(bearer_event.c.obj)
                0x00024f9c                bearer_event_generic_post
 .text.bearer_event_timer_post
                0x00024fd0       0x34 mesh/core/libmesh_core_nrf51422_xxAC.a(bearer_event.c.obj)
                0x00024fd0                bearer_event_timer_post
 .text.bearer_event_critical_section_begin
                0x00025004       0x54 mesh/core/libmesh_core_nrf51422_xxAC.a(bearer_event.c.obj)
                0x00025004                bearer_event_critical_section_begin
 .text.bearer_event_critical_section_end
                0x00025058       0x54 mesh/core/libmesh_core_nrf51422_xxAC.a(bearer_event.c.obj)
                0x00025058                bearer_event_critical_section_end
 .text.bearer_event_flag_add
                0x000250ac       0x54 mesh/core/libmesh_core_nrf51422_xxAC.a(bearer_event.c.obj)
                0x000250ac                bearer_event_flag_add
 .text.bearer_event_flag_set
                0x00025100       0x50 mesh/core/libmesh_core_nrf51422_xxAC.a(bearer_event.c.obj)
                0x00025100                bearer_event_flag_set
 .text.bearer_event_sequential_add
                0x00025150       0x4c mesh/core/libmesh_core_nrf51422_xxAC.a(bearer_event.c.obj)
                0x00025150                bearer_event_sequential_add
 .text.bearer_event_sequential_post
                0x0002519c       0x60 mesh/core/libmesh_core_nrf51422_xxAC.a(bearer_event.c.obj)
                0x0002519c                bearer_event_sequential_post
 .text.bearer_event_sequential_pending
                0x000251fc       0x20 mesh/core/libmesh_core_nrf51422_xxAC.a(bearer_event.c.obj)
                0x000251fc                bearer_event_sequential_pending
 .text.bearer_event_handler
                0x0002521c       0xf8 mesh/core/libmesh_core_nrf51422_xxAC.a(bearer_event.c.obj)
                0x0002521c                bearer_event_handler
 .text.QDEC_IRQHandler
                0x00025314        0x8 mesh/core/libmesh_core_nrf51422_xxAC.a(bearer_event.c.obj)
                0x00025314                QDEC_IRQHandler
 .text.enc_aes_encrypt
                0x0002531c        0x8 mesh/core/libmesh_core_nrf51422_xxAC.a(enc.c.obj)
                0x0002531c                enc_aes_encrypt
 .text.enc_aes_cmac
                0x00025324        0x8 mesh/core/libmesh_core_nrf51422_xxAC.a(enc.c.obj)
                0x00025324                enc_aes_cmac
 .text.enc_aes_ccm_encrypt
                0x0002532c        0x8 mesh/core/libmesh_core_nrf51422_xxAC.a(enc.c.obj)
                0x0002532c                enc_aes_ccm_encrypt
 .text.enc_aes_ccm_decrypt
                0x00025334        0x8 mesh/core/libmesh_core_nrf51422_xxAC.a(enc.c.obj)
                0x00025334                enc_aes_ccm_decrypt
 .text.enc_nonce_generate
                0x0002533c       0xd8 mesh/core/libmesh_core_nrf51422_xxAC.a(enc.c.obj)
                0x0002533c                enc_nonce_generate
 .text.enc_s1   0x00025414       0x3c mesh/core/libmesh_core_nrf51422_xxAC.a(enc.c.obj)
                0x00025414                enc_s1
 .text.enc_k1   0x00025450       0x58 mesh/core/libmesh_core_nrf51422_xxAC.a(enc.c.obj)
                0x00025450                enc_k1
 .text.enc_k2   0x000254a8      0x110 mesh/core/libmesh_core_nrf51422_xxAC.a(enc.c.obj)
                0x000254a8                enc_k2
 .text.enc_k3   0x000255b8       0x70 mesh/core/libmesh_core_nrf51422_xxAC.a(enc.c.obj)
                0x000255b8                enc_k3
 .text.enc_k4   0x00025628       0x74 mesh/core/libmesh_core_nrf51422_xxAC.a(enc.c.obj)
                0x00025628                enc_k4
 .text.header_transfuscate
                0x0002569c       0x58 mesh/core/libmesh_core_nrf51422_xxAC.a(network.c.obj)
 .text.allocate_packet
                0x000256f4      0x140 mesh/core/libmesh_core_nrf51422_xxAC.a(network.c.obj)
 .text.network_init
                0x00025834       0x2c mesh/core/libmesh_core_nrf51422_xxAC.a(network.c.obj)
                0x00025834                network_init
 .text.network_opt_set
                0x00025860       0x68 mesh/core/libmesh_core_nrf51422_xxAC.a(network.c.obj)
                0x00025860                network_opt_set
 .text.network_opt_get
                0x000258c8       0x4c mesh/core/libmesh_core_nrf51422_xxAC.a(network.c.obj)
                0x000258c8                network_opt_get
 .text.network_packet_alloc
                0x00025914       0x58 mesh/core/libmesh_core_nrf51422_xxAC.a(network.c.obj)
                0x00025914                network_packet_alloc
 .text.network_packet_send
                0x0002596c      0x154 mesh/core/libmesh_core_nrf51422_xxAC.a(network.c.obj)
                0x0002596c                network_packet_send
 .text.network_packet_in
                0x00025ac0      0x4e0 mesh/core/libmesh_core_nrf51422_xxAC.a(network.c.obj)
                0x00025ac0                network_packet_in
 .text.nrf_mesh_keygen_aid
                0x00025fa0       0x16 mesh/core/libmesh_core_nrf51422_xxAC.a(nrf_mesh_keygen.c.obj)
                0x00025fa0                nrf_mesh_keygen_aid
 .text.nrf_mesh_keygen_network_secmat
                0x00025fb6       0x20 mesh/core/libmesh_core_nrf51422_xxAC.a(nrf_mesh_keygen.c.obj)
                0x00025fb6                nrf_mesh_keygen_network_secmat
 *fill*         0x00025fd6        0x2 
 .text.nrf_mesh_keygen_beacon_secmat
                0x00025fd8       0x54 mesh/core/libmesh_core_nrf51422_xxAC.a(nrf_mesh_keygen.c.obj)
                0x00025fd8                nrf_mesh_keygen_beacon_secmat
 .text.nrf_mesh_keygen_virtual_address
                0x0002602c       0x50 mesh/core/libmesh_core_nrf51422_xxAC.a(nrf_mesh_keygen.c.obj)
                0x0002602c                nrf_mesh_keygen_virtual_address
 .text.list_insert
                0x0002607c       0x30 mesh/core/libmesh_core_nrf51422_xxAC.a(list.c.obj)
 .text.list_add
                0x000260ac       0x68 mesh/core/libmesh_core_nrf51422_xxAC.a(list.c.obj)
                0x000260ac                list_add
 .text.list_remove
                0x00026114       0x50 mesh/core/libmesh_core_nrf51422_xxAC.a(list.c.obj)
                0x00026114                list_remove
 .text.list_compare_add
                0x00026164       0x84 mesh/core/libmesh_core_nrf51422_xxAC.a(list.c.obj)
                0x00026164                list_compare_add
 .text.log_callback_rtt
                0x000261e8       0x28 mesh/core/libmesh_core_nrf51422_xxAC.a(log.c.obj)
                0x000261e8                log_callback_rtt
 .text.log_init
                0x00026210       0x1c mesh/core/libmesh_core_nrf51422_xxAC.a(log.c.obj)
                0x00026210                log_init
 .text.log_vprintf
                0x0002622c       0x1c mesh/core/libmesh_core_nrf51422_xxAC.a(log.c.obj)
                0x0002622c                log_vprintf
 .text.log_printf
                0x00026248       0x16 mesh/core/libmesh_core_nrf51422_xxAC.a(log.c.obj)
                0x00026248                log_printf
 .text.get_area_end
                0x0002625e        0xc mesh/core/libmesh_core_nrf51422_xxAC.a(flash_manager.c.obj)
 *fill*         0x0002626a        0x2 
 .text.handle_matches_filter
                0x0002626c       0x28 mesh/core/libmesh_core_nrf51422_xxAC.a(flash_manager.c.obj)
 .text.get_packet_buffer
                0x00026294       0x30 mesh/core/libmesh_core_nrf51422_xxAC.a(flash_manager.c.obj)
 .text.get_entry_action
                0x000262c4       0x30 mesh/core/libmesh_core_nrf51422_xxAC.a(flash_manager.c.obj)
 .text.flash_area_is_blank
                0x000262f4       0x50 mesh/core/libmesh_core_nrf51422_xxAC.a(flash_manager.c.obj)
 .text.flash    0x00026344       0x1e mesh/core/libmesh_core_nrf51422_xxAC.a(flash_manager.c.obj)
 *fill*         0x00026362        0x2 
 .text.free_packet_buffer
                0x00026364       0x4c mesh/core/libmesh_core_nrf51422_xxAC.a(flash_manager.c.obj)
 .text.reserve_action_buffer
                0x000263b0       0x20 mesh/core/libmesh_core_nrf51422_xxAC.a(flash_manager.c.obj)
 .text.commit_action_buffer
                0x000263d0       0x18 mesh/core/libmesh_core_nrf51422_xxAC.a(flash_manager.c.obj)
 .text.schedule_processing
                0x000263e8       0x10 mesh/core/libmesh_core_nrf51422_xxAC.a(flash_manager.c.obj)
 .text.get_next_entry
                0x000263f8       0x44 mesh/core/libmesh_core_nrf51422_xxAC.a(flash_manager.c.obj)
 .text.get_last_entry.isra.1
                0x0002643c       0x34 mesh/core/libmesh_core_nrf51422_xxAC.a(flash_manager.c.obj)
 .text.process_action_queue
                0x00026470      0x4b0 mesh/core/libmesh_core_nrf51422_xxAC.a(flash_manager.c.obj)
 .text.flash_op_ended_callback
                0x00026920       0x24 mesh/core/libmesh_core_nrf51422_xxAC.a(flash_manager.c.obj)
 .text.flash_manager_init
                0x00026944       0x68 mesh/core/libmesh_core_nrf51422_xxAC.a(flash_manager.c.obj)
                0x00026944                flash_manager_init
 .text.flash_manager_remove
                0x000269ac       0x24 mesh/core/libmesh_core_nrf51422_xxAC.a(flash_manager.c.obj)
                0x000269ac                flash_manager_remove
 .text.flash_manager_entry_next_get
                0x000269d0       0x74 mesh/core/libmesh_core_nrf51422_xxAC.a(flash_manager.c.obj)
                0x000269d0                flash_manager_entry_next_get
 .text.flash_manager_entry_alloc
                0x00026a44       0x88 mesh/core/libmesh_core_nrf51422_xxAC.a(flash_manager.c.obj)
                0x00026a44                flash_manager_entry_alloc
 .text.flash_manager_entry_commit
                0x00026acc       0x10 mesh/core/libmesh_core_nrf51422_xxAC.a(flash_manager.c.obj)
                0x00026acc                flash_manager_entry_commit
 .text.flash_manager_entry_invalidate
                0x00026adc       0x70 mesh/core/libmesh_core_nrf51422_xxAC.a(flash_manager.c.obj)
                0x00026adc                flash_manager_entry_invalidate
 .text.flash_manager_add
                0x00026b4c      0x250 mesh/core/libmesh_core_nrf51422_xxAC.a(flash_manager.c.obj)
                0x00026b4c                flash_manager_add
 .text.flash_manager_mem_listener_register
                0x00026d9c       0x48 mesh/core/libmesh_core_nrf51422_xxAC.a(flash_manager.c.obj)
                0x00026d9c                flash_manager_mem_listener_register
 .text.flash_manager_is_stable
                0x00026de4       0x24 mesh/core/libmesh_core_nrf51422_xxAC.a(flash_manager.c.obj)
                0x00026de4                flash_manager_is_stable
 .text.flash_manager_on_defrag_end
                0x00026e08       0x5c mesh/core/libmesh_core_nrf51422_xxAC.a(flash_manager.c.obj)
                0x00026e08                flash_manager_on_defrag_end
 .text.flash_manager_recovery_page_get
                0x00026e64        0x8 mesh/core/libmesh_core_nrf51422_xxAC.a(flash_manager.c.obj)
                0x00026e64                flash_manager_recovery_page_get
 .text.utils_xor
                0x00026e6c       0x16 mesh/core/libmesh_core_nrf51422_xxAC.a(ccm_soft.c.obj)
 .text.ccm_soft_authenticate_blocks
                0x00026e82       0x66 mesh/core/libmesh_core_nrf51422_xxAC.a(ccm_soft.c.obj)
 .text.utils_reverse_memcpy.constprop.0
                0x00026ee8        0xa mesh/core/libmesh_core_nrf51422_xxAC.a(ccm_soft.c.obj)
 .text.ccm_soft_authenticate
                0x00026ef2       0x94 mesh/core/libmesh_core_nrf51422_xxAC.a(ccm_soft.c.obj)
 .text.ccm_soft_crypt
                0x00026f86       0x58 mesh/core/libmesh_core_nrf51422_xxAC.a(ccm_soft.c.obj)
 .text.ccm_soft_encrypt
                0x00026fde       0x6e mesh/core/libmesh_core_nrf51422_xxAC.a(ccm_soft.c.obj)
                0x00026fde                ccm_soft_encrypt
 .text.ccm_soft_decrypt
                0x0002704c      0x10c mesh/core/libmesh_core_nrf51422_xxAC.a(ccm_soft.c.obj)
                0x0002704c                ccm_soft_decrypt
 .text.beacon_init
                0x00027158       0x4c mesh/core/libmesh_core_nrf51422_xxAC.a(beacon.c.obj)
                0x00027158                beacon_init
 .text.beacon_create
                0x000271a4       0x46 mesh/core/libmesh_core_nrf51422_xxAC.a(beacon.c.obj)
                0x000271a4                beacon_create
 *fill*         0x000271ea        0x2 
 .text.beacon_tx
                0x000271ec       0x40 mesh/core/libmesh_core_nrf51422_xxAC.a(beacon.c.obj)
                0x000271ec                beacon_tx
 .text.beacon_packet_in
                0x0002722c      0x164 mesh/core/libmesh_core_nrf51422_xxAC.a(beacon.c.obj)
                0x0002722c                beacon_packet_in
 .text.entry_get
                0x00027390       0x80 mesh/core/libmesh_core_nrf51422_xxAC.a(flash_manager_internal.c.obj)
                0x00027390                entry_get
 .text.is_power_of_two
                0x00027410       0x14 mesh/core/libmesh_core_nrf51422_xxAC.a(core_tx.c.obj)
 .text.bearer_if_get
                0x00027424       0x4c mesh/core/libmesh_core_nrf51422_xxAC.a(core_tx.c.obj)
 .text.core_tx_complete_cb_set
                0x00027470        0xc mesh/core/libmesh_core_nrf51422_xxAC.a(core_tx.c.obj)
                0x00027470                core_tx_complete_cb_set
 .text.core_tx_packet_alloc
                0x0002747c       0x98 mesh/core/libmesh_core_nrf51422_xxAC.a(core_tx.c.obj)
                0x0002747c                core_tx_packet_alloc
 .text.core_tx_packet_send
                0x00027514       0x88 mesh/core/libmesh_core_nrf51422_xxAC.a(core_tx.c.obj)
                0x00027514                core_tx_packet_send
 .text.core_tx_packet_discard
                0x0002759c       0x88 mesh/core/libmesh_core_nrf51422_xxAC.a(core_tx.c.obj)
                0x0002759c                core_tx_packet_discard
 .text.core_tx_complete
                0x00027624       0x14 mesh/core/libmesh_core_nrf51422_xxAC.a(core_tx.c.obj)
                0x00027624                core_tx_complete
 .text.core_tx_bearer_register
                0x00027638       0x90 mesh/core/libmesh_core_nrf51422_xxAC.a(core_tx.c.obj)
                0x00027638                core_tx_bearer_register
 .text.heartbeat_subscription_timer_cb
                0x000276c8       0x1c mesh/core/libmesh_core_nrf51422_xxAC.a(heartbeat.c.obj)
 .text.heartbeat_opcode_handle
                0x000276e4       0x74 mesh/core/libmesh_core_nrf51422_xxAC.a(heartbeat.c.obj)
 .text.heartbeat_send
                0x00027758       0xcc mesh/core/libmesh_core_nrf51422_xxAC.a(heartbeat.c.obj)
 .text.heartbeat_core_evt_cb
                0x00027824       0xa4 mesh/core/libmesh_core_nrf51422_xxAC.a(heartbeat.c.obj)
 .text.heartbeat_publication_timer_cb
                0x000278c8       0xd4 mesh/core/libmesh_core_nrf51422_xxAC.a(heartbeat.c.obj)
 .text.heartbeat_on_feature_change_trigger
                0x0002799c       0x58 mesh/core/libmesh_core_nrf51422_xxAC.a(heartbeat.c.obj)
                0x0002799c                heartbeat_on_feature_change_trigger
 .text.heartbeat_init
                0x000279f4       0x98 mesh/core/libmesh_core_nrf51422_xxAC.a(heartbeat.c.obj)
                0x000279f4                heartbeat_init
 .text.make_network_beacon_cmac
                0x00027a8c       0x22 mesh/core/libmesh_core_nrf51422_xxAC.a(net_beacon.c.obj)
 *fill*         0x00027aae        0x2 
 .text.network_beacon_tx_cb
                0x00027ab0      0x100 mesh/core/libmesh_core_nrf51422_xxAC.a(net_beacon.c.obj)
 .text.net_beacon_init
                0x00027bb0       0x5c mesh/core/libmesh_core_nrf51422_xxAC.a(net_beacon.c.obj)
                0x00027bb0                net_beacon_init
 .text.net_beacon_packet_in
                0x00027c0c      0x12c mesh/core/libmesh_core_nrf51422_xxAC.a(net_beacon.c.obj)
                0x00027c0c                net_beacon_packet_in
 .text.packet_discard
                0x00027d38       0x18 mesh/core/libmesh_core_nrf51422_xxAC.a(core_tx_adv.c.obj)
 .text.packet_send
                0x00027d50       0x18 mesh/core/libmesh_core_nrf51422_xxAC.a(core_tx_adv.c.obj)
 .text.packet_alloc
                0x00027d68       0x40 mesh/core/libmesh_core_nrf51422_xxAC.a(core_tx_adv.c.obj)
 .text.adv_tx_complete_callback
                0x00027da8       0x2c mesh/core/libmesh_core_nrf51422_xxAC.a(core_tx_adv.c.obj)
 .text.core_tx_adv_init
                0x00027dd4       0x58 mesh/core/libmesh_core_nrf51422_xxAC.a(core_tx_adv.c.obj)
                0x00027dd4                core_tx_adv_init
 .text.core_tx_adv_count_set
                0x00027e2c       0x40 mesh/core/libmesh_core_nrf51422_xxAC.a(core_tx_adv.c.obj)
                0x00027e2c                core_tx_adv_count_set
 .text.core_tx_adv_count_get
                0x00027e6c       0x2c mesh/core/libmesh_core_nrf51422_xxAC.a(core_tx_adv.c.obj)
                0x00027e6c                core_tx_adv_count_get
 .text.core_tx_adv_interval_set
                0x00027e98       0x34 mesh/core/libmesh_core_nrf51422_xxAC.a(core_tx_adv.c.obj)
                0x00027e98                core_tx_adv_interval_set
 .text.core_tx_adv_interval_get
                0x00027ecc       0x34 mesh/core/libmesh_core_nrf51422_xxAC.a(core_tx_adv.c.obj)
                0x00027ecc                core_tx_adv_interval_get
 .text.ad_listener_subscribe
                0x00027f00       0x68 mesh/core/libmesh_core_nrf51422_xxAC.a(ad_listener.c.obj)
                0x00027f00                ad_listener_subscribe
 .text.ad_listener_process
                0x00027f68       0x60 mesh/core/libmesh_core_nrf51422_xxAC.a(ad_listener.c.obj)
                0x00027f68                ad_listener_process
 .text.adtype_filter_handle
                0x00027fc8       0x6c mesh/core/libmesh_core_nrf51422_xxAC.a(ad_type_filter.c.obj)
 .text.bearer_adtype_filtering_set
                0x00028034       0x24 mesh/core/libmesh_core_nrf51422_xxAC.a(ad_type_filter.c.obj)
                0x00028034                bearer_adtype_filtering_set
 .text.bearer_adtype_add
                0x00028058       0x20 mesh/core/libmesh_core_nrf51422_xxAC.a(ad_type_filter.c.obj)
                0x00028058                bearer_adtype_add
 .text.bearer_adtype_mode_set
                0x00028078       0x28 mesh/core/libmesh_core_nrf51422_xxAC.a(ad_type_filter.c.obj)
                0x00028078                bearer_adtype_mode_set
 .text.set_gap_addr_type
                0x000280a0       0x30 mesh/core/libmesh_core_nrf51422_xxAC.a(advertiser.c.obj)
 .text.tx_complete_event_callback
                0x000280d0       0x44 mesh/core/libmesh_core_nrf51422_xxAC.a(advertiser.c.obj)
 .text.broadcast_complete_cb
                0x00028114       0x68 mesh/core/libmesh_core_nrf51422_xxAC.a(advertiser.c.obj)
 .text.schedule_first_time
                0x0002817c       0x28 mesh/core/libmesh_core_nrf51422_xxAC.a(advertiser.c.obj)
 .text.timeout_event
                0x000281a4      0x12c mesh/core/libmesh_core_nrf51422_xxAC.a(advertiser.c.obj)
 .text.advertiser_init
                0x000282d0       0x10 mesh/core/libmesh_core_nrf51422_xxAC.a(advertiser.c.obj)
                0x000282d0                advertiser_init
 .text.advertiser_enable
                0x000282e0       0x2c mesh/core/libmesh_core_nrf51422_xxAC.a(advertiser.c.obj)
                0x000282e0                advertiser_enable
 .text.advertiser_disable
                0x0002830c        0xe mesh/core/libmesh_core_nrf51422_xxAC.a(advertiser.c.obj)
                0x0002830c                advertiser_disable
 *fill*         0x0002831a        0x2 
 .text.advertiser_packet_alloc
                0x0002831c       0xac mesh/core/libmesh_core_nrf51422_xxAC.a(advertiser.c.obj)
                0x0002831c                advertiser_packet_alloc
 .text.advertiser_packet_send
                0x000283c8       0x74 mesh/core/libmesh_core_nrf51422_xxAC.a(advertiser.c.obj)
                0x000283c8                advertiser_packet_send
 .text.advertiser_packet_discard
                0x0002843c       0x2c mesh/core/libmesh_core_nrf51422_xxAC.a(advertiser.c.obj)
                0x0002843c                advertiser_packet_discard
 .text.advertiser_channels_set
                0x00028468       0x94 mesh/core/libmesh_core_nrf51422_xxAC.a(advertiser.c.obj)
                0x00028468                advertiser_channels_set
 .text.advertiser_interval_set
                0x000284fc       0x68 mesh/core/libmesh_core_nrf51422_xxAC.a(advertiser.c.obj)
                0x000284fc                advertiser_interval_set
 .text.advertiser_flush
                0x00028564       0x22 mesh/core/libmesh_core_nrf51422_xxAC.a(advertiser.c.obj)
                0x00028564                advertiser_flush
 *fill*         0x00028586        0x2 
 .text.advertiser_address_default_get
                0x00028588       0x30 mesh/core/libmesh_core_nrf51422_xxAC.a(advertiser.c.obj)
                0x00028588                advertiser_address_default_get
 .text.advertiser_instance_init
                0x000285b8       0xb4 mesh/core/libmesh_core_nrf51422_xxAC.a(advertiser.c.obj)
                0x000285b8                advertiser_instance_init
 .text.action_switch
                0x0002866c       0xc4 mesh/core/libmesh_core_nrf51422_xxAC.a(bearer_handler.c.obj)
 .text.bearer_handler_init
                0x00028730       0x2c mesh/core/libmesh_core_nrf51422_xxAC.a(bearer_handler.c.obj)
                0x00028730                bearer_handler_init
 .text.bearer_handler_start
                0x0002875c       0x1c mesh/core/libmesh_core_nrf51422_xxAC.a(bearer_handler.c.obj)
                0x0002875c                bearer_handler_start
 .text.bearer_handler_stop
                0x00028778       0x20 mesh/core/libmesh_core_nrf51422_xxAC.a(bearer_handler.c.obj)
                0x00028778                bearer_handler_stop
 .text.bearer_handler_action_enqueue
                0x00028798       0x9c mesh/core/libmesh_core_nrf51422_xxAC.a(bearer_handler.c.obj)
                0x00028798                bearer_handler_action_enqueue
 .text.bearer_handler_action_end
                0x00028834       0x7c mesh/core/libmesh_core_nrf51422_xxAC.a(bearer_handler.c.obj)
                0x00028834                bearer_handler_action_end
 .text.bearer_handler_radio_irq_handler
                0x000288b0       0x6c mesh/core/libmesh_core_nrf51422_xxAC.a(bearer_handler.c.obj)
                0x000288b0                bearer_handler_radio_irq_handler
 .text.bearer_handler_timer_irq_handler
                0x0002891c       0x30 mesh/core/libmesh_core_nrf51422_xxAC.a(bearer_handler.c.obj)
                0x0002891c                bearer_handler_timer_irq_handler
 .text.bearer_handler_on_ts_begin
                0x0002894c       0x4c mesh/core/libmesh_core_nrf51422_xxAC.a(bearer_handler.c.obj)
                0x0002894c                bearer_handler_on_ts_begin
 .text.bearer_handler_on_ts_end
                0x00028998       0x50 mesh/core/libmesh_core_nrf51422_xxAC.a(bearer_handler.c.obj)
                0x00028998                bearer_handler_on_ts_end
 .text.radio_irq_handler
                0x000289e8       0xbc mesh/core/libmesh_core_nrf51422_xxAC.a(broadcast.c.obj)
 .text.broadcast_start
                0x00028aa4       0x98 mesh/core/libmesh_core_nrf51422_xxAC.a(broadcast.c.obj)
 .text.broadcast_send
                0x00028b3c       0x80 mesh/core/libmesh_core_nrf51422_xxAC.a(broadcast.c.obj)
                0x00028b3c                broadcast_send
 .text.fen_filter_start
                0x00028bbc       0x40 mesh/core/libmesh_core_nrf51422_xxAC.a(filter_engine.c.obj)
                0x00028bbc                fen_filter_start
 .text.fen_filter_stop
                0x00028bfc       0x2c mesh/core/libmesh_core_nrf51422_xxAC.a(filter_engine.c.obj)
                0x00028bfc                fen_filter_stop
 .text.fen_filters_apply
                0x00028c28       0x34 mesh/core/libmesh_core_nrf51422_xxAC.a(filter_engine.c.obj)
                0x00028c28                fen_filters_apply
 .text.radio_config_reset
                0x00028c5c       0x48 mesh/core/libmesh_core_nrf51422_xxAC.a(radio_config.c.obj)
                0x00028c5c                radio_config_reset
 .text.radio_config_channel_set
                0x00028ca4       0x3c mesh/core/libmesh_core_nrf51422_xxAC.a(radio_config.c.obj)
                0x00028ca4                radio_config_channel_set
 .text.radio_config_config
                0x00028ce0       0xb0 mesh/core/libmesh_core_nrf51422_xxAC.a(radio_config.c.obj)
                0x00028ce0                radio_config_config
 .text.radio_config_access_addr_set
                0x00028d90       0x74 mesh/core/libmesh_core_nrf51422_xxAC.a(radio_config.c.obj)
                0x00028d90                radio_config_access_addr_set
 .text.radio_trigger
                0x00028e04       0x24 mesh/core/libmesh_core_nrf51422_xxAC.a(scanner.c.obj)
 .text.scan_window_end
                0x00028e28       0x14 mesh/core/libmesh_core_nrf51422_xxAC.a(scanner.c.obj)
 .text.scan_window_start
                0x00028e3c       0x28 mesh/core/libmesh_core_nrf51422_xxAC.a(scanner.c.obj)
 .text.radio_configure
                0x00028e64       0x88 mesh/core/libmesh_core_nrf51422_xxAC.a(scanner.c.obj)
 .text.radio_set_packet
                0x00028eec       0x58 mesh/core/libmesh_core_nrf51422_xxAC.a(scanner.c.obj)
 .text.radio_start
                0x00028f44       0x54 mesh/core/libmesh_core_nrf51422_xxAC.a(scanner.c.obj)
 .text.radio_stop
                0x00028f98       0x38 mesh/core/libmesh_core_nrf51422_xxAC.a(scanner.c.obj)
 .text.schedule_timers
                0x00028fd0       0x34 mesh/core/libmesh_core_nrf51422_xxAC.a(scanner.c.obj)
 .text.scanner_radio_start
                0x00029004       0x28 mesh/core/libmesh_core_nrf51422_xxAC.a(scanner.c.obj)
                0x00029004                scanner_radio_start
 .text.scanner_radio_stop
                0x0002902c       0x14 mesh/core/libmesh_core_nrf51422_xxAC.a(scanner.c.obj)
                0x0002902c                scanner_radio_stop
 .text.scanner_radio_irq_handler
                0x00029040      0x144 mesh/core/libmesh_core_nrf51422_xxAC.a(scanner.c.obj)
                0x00029040                scanner_radio_irq_handler
 .text.scanner_enable
                0x00029184       0x34 mesh/core/libmesh_core_nrf51422_xxAC.a(scanner.c.obj)
                0x00029184                scanner_enable
 .text.scanner_disable
                0x000291b8       0x44 mesh/core/libmesh_core_nrf51422_xxAC.a(scanner.c.obj)
                0x000291b8                scanner_disable
 .text.scanner_packet_release
                0x000291fc       0x38 mesh/core/libmesh_core_nrf51422_xxAC.a(scanner.c.obj)
                0x000291fc                scanner_packet_release
 .text.scanner_rx
                0x00029234       0x34 mesh/core/libmesh_core_nrf51422_xxAC.a(scanner.c.obj)
                0x00029234                scanner_rx
 .text.scanner_rx_pending
                0x00029268       0x10 mesh/core/libmesh_core_nrf51422_xxAC.a(scanner.c.obj)
                0x00029268                scanner_rx_pending
 .text.scanner_config_scan_time_set
                0x00029278       0x6c mesh/core/libmesh_core_nrf51422_xxAC.a(scanner.c.obj)
                0x00029278                scanner_config_scan_time_set
 .text.scanner_config_channels_set
                0x000292e4       0x68 mesh/core/libmesh_core_nrf51422_xxAC.a(scanner.c.obj)
                0x000292e4                scanner_config_channels_set
 .text.scanner_config_access_addresses_set
                0x0002934c       0x44 mesh/core/libmesh_core_nrf51422_xxAC.a(scanner.c.obj)
                0x0002934c                scanner_config_access_addresses_set
 .text.scanner_config_reset
                0x00029390       0x44 mesh/core/libmesh_core_nrf51422_xxAC.a(scanner.c.obj)
                0x00029390                scanner_config_reset
 .text.scanner_init
                0x000293d4       0x54 mesh/core/libmesh_core_nrf51422_xxAC.a(scanner.c.obj)
                0x000293d4                scanner_init
 .text.sd_ecb_block_encrypt
                0x00029428        0x4 mesh/core/libmesh_core_nrf51422_xxAC.a(aes.c.obj)
 .text.aes_encrypt
                0x0002942c       0x30 mesh/core/libmesh_core_nrf51422_xxAC.a(aes.c.obj)
                0x0002942c                aes_encrypt
 .text.msg_cache_init
                0x0002945c       0x28 mesh/core/libmesh_core_nrf51422_xxAC.a(msg_cache.c.obj)
                0x0002945c                msg_cache_init
 .text.msg_cache_entry_exists
                0x00029484       0x40 mesh/core/libmesh_core_nrf51422_xxAC.a(msg_cache.c.obj)
                0x00029484                msg_cache_entry_exists
 .text.msg_cache_entry_add
                0x000294c4       0x2c mesh/core/libmesh_core_nrf51422_xxAC.a(msg_cache.c.obj)
                0x000294c4                msg_cache_entry_add
 .text.block_ack_full
                0x000294f0       0x2c mesh/core/libmesh_core_nrf51422_xxAC.a(transport.c.obj)
 .text.seqauth_sequence_number_get
                0x0002951c       0x18 mesh/core/libmesh_core_nrf51422_xxAC.a(transport.c.obj)
 .text.sar_rx_session_mark_as_handled
                0x00029534       0x54 mesh/core/libmesh_core_nrf51422_xxAC.a(transport.c.obj)
 .text.sar_ctx_find
                0x00029588       0x40 mesh/core/libmesh_core_nrf51422_xxAC.a(transport.c.obj)
 .text.control_packet_callback_get
                0x000295c8       0x44 mesh/core/libmesh_core_nrf51422_xxAC.a(transport.c.obj)
 .text.m_send_sar_cancel_event
                0x0002960c       0x26 mesh/core/libmesh_core_nrf51422_xxAC.a(transport.c.obj)
 *fill*         0x00029632        0x2 
 .text.tx_complete
                0x00029634       0x30 mesh/core/libmesh_core_nrf51422_xxAC.a(transport.c.obj)
 .text.upper_trs_packet_encrypt
                0x00029664       0xc4 mesh/core/libmesh_core_nrf51422_xxAC.a(transport.c.obj)
 .text.sar_ctx_free
                0x00029728       0x38 mesh/core/libmesh_core_nrf51422_xxAC.a(transport.c.obj)
 .text.sar_ctx_tx_complete
                0x00029760       0xb8 mesh/core/libmesh_core_nrf51422_xxAC.a(transport.c.obj)
 .text.sar_ctx_cancel
                0x00029818      0x110 mesh/core/libmesh_core_nrf51422_xxAC.a(transport.c.obj)
 .text.abort_timeout
                0x00029928        0xc mesh/core/libmesh_core_nrf51422_xxAC.a(transport.c.obj)
 .text.sar_ctx_alloc
                0x00029934       0xc8 mesh/core/libmesh_core_nrf51422_xxAC.a(transport.c.obj)
 .text.test_transport_decrypt
                0x000299fc       0x90 mesh/core/libmesh_core_nrf51422_xxAC.a(transport.c.obj)
 .text.upper_transport_access_packet_in
                0x00029a8c      0x290 mesh/core/libmesh_core_nrf51422_xxAC.a(transport.c.obj)
 .text.trs_packet_header_build
                0x00029d1c       0x96 mesh/core/libmesh_core_nrf51422_xxAC.a(transport.c.obj)
 *fill*         0x00029db2        0x2 
 .text.tx_retry_timer_reset
                0x00029db4       0x50 mesh/core/libmesh_core_nrf51422_xxAC.a(transport.c.obj)
 .text.trs_sar_packet_out
                0x00029e04      0x100 mesh/core/libmesh_core_nrf51422_xxAC.a(transport.c.obj)
 .text.retry_timeout
                0x00029f04       0x54 mesh/core/libmesh_core_nrf51422_xxAC.a(transport.c.obj)
 .text.upper_transport_packet_in
                0x00029f58      0x1b0 mesh/core/libmesh_core_nrf51422_xxAC.a(transport.c.obj)
 .text.upper_transport_tx
                0x0002a108      0x23c mesh/core/libmesh_core_nrf51422_xxAC.a(transport.c.obj)
 .text.transport_sar_mem_funcs_reset
                0x0002a344       0x2c mesh/core/libmesh_core_nrf51422_xxAC.a(transport.c.obj)
                0x0002a344                transport_sar_mem_funcs_reset
 .text.transport_init
                0x0002a370       0x7c mesh/core/libmesh_core_nrf51422_xxAC.a(transport.c.obj)
                0x0002a370                transport_init
 .text.transport_tx
                0x0002a3ec       0x94 mesh/core/libmesh_core_nrf51422_xxAC.a(transport.c.obj)
                0x0002a3ec                transport_tx
 .text.transport_control_tx
                0x0002a480       0x7c mesh/core/libmesh_core_nrf51422_xxAC.a(transport.c.obj)
                0x0002a480                transport_control_tx
 .text.sar_ack_send
                0x0002a4fc      0x10c mesh/core/libmesh_core_nrf51422_xxAC.a(transport.c.obj)
 .text.transport_sar_process
                0x0002a608       0x78 mesh/core/libmesh_core_nrf51422_xxAC.a(transport.c.obj)
 .text.transport_packet_in
                0x0002a680      0x518 mesh/core/libmesh_core_nrf51422_xxAC.a(transport.c.obj)
                0x0002a680                transport_packet_in
 .text.ack_timeout
                0x0002ab98       0x3c mesh/core/libmesh_core_nrf51422_xxAC.a(transport.c.obj)
 .text.transport_opt_set
                0x0002abd4       0xcc mesh/core/libmesh_core_nrf51422_xxAC.a(transport.c.obj)
                0x0002abd4                transport_opt_set
 .text.transport_opt_get
                0x0002aca0       0x58 mesh/core/libmesh_core_nrf51422_xxAC.a(transport.c.obj)
                0x0002aca0                transport_opt_get
 .text.transport_control_packet_consumer_add
                0x0002acf8       0x64 mesh/core/libmesh_core_nrf51422_xxAC.a(transport.c.obj)
                0x0002acf8                transport_control_packet_consumer_add
 .text.get_last_page
                0x0002ad5c       0x14 mesh/core/libmesh_core_nrf51422_xxAC.a(flash_manager_defrag.c.obj)
 .text.defrag_on_end
                0x0002ad70       0x1c mesh/core/libmesh_core_nrf51422_xxAC.a(flash_manager_defrag.c.obj)
 .text.execute_procedure_step
                0x0002ad8c       0xac mesh/core/libmesh_core_nrf51422_xxAC.a(flash_manager_defrag.c.obj)
 .text.get_next_entry
                0x0002ae38       0x44 mesh/core/libmesh_core_nrf51422_xxAC.a(flash_manager_defrag.c.obj)
 .text.get_next_data_entry
                0x0002ae7c       0x24 mesh/core/libmesh_core_nrf51422_xxAC.a(flash_manager_defrag.c.obj)
 .text.on_flash_op_end
                0x0002aea0       0x34 mesh/core/libmesh_core_nrf51422_xxAC.a(flash_manager_defrag.c.obj)
 .text.check_for_invalid_entries
                0x0002aed4       0x3c mesh/core/libmesh_core_nrf51422_xxAC.a(flash_manager_defrag.c.obj)
 .text.erase_recovery_area
                0x0002af10       0x30 mesh/core/libmesh_core_nrf51422_xxAC.a(flash_manager_defrag.c.obj)
 .text.flash.constprop.6
                0x0002af40       0x20 mesh/core/libmesh_core_nrf51422_xxAC.a(flash_manager_defrag.c.obj)
 .text.seal_storage_page
                0x0002af60       0x58 mesh/core/libmesh_core_nrf51422_xxAC.a(flash_manager_defrag.c.obj)
 .text.invalidate_duplicate_entries
                0x0002afb8       0x88 mesh/core/libmesh_core_nrf51422_xxAC.a(flash_manager_defrag.c.obj)
 .text.copy_metadata
                0x0002b040       0x40 mesh/core/libmesh_core_nrf51422_xxAC.a(flash_manager_defrag.c.obj)
 .text.write_defrag_start_pointer
                0x0002b080       0x20 mesh/core/libmesh_core_nrf51422_xxAC.a(flash_manager_defrag.c.obj)
 .text.write_back
                0x0002b0a0       0x2c mesh/core/libmesh_core_nrf51422_xxAC.a(flash_manager_defrag.c.obj)
 .text.post_process
                0x0002b0cc       0x44 mesh/core/libmesh_core_nrf51422_xxAC.a(flash_manager_defrag.c.obj)
 .text.backup_entries
                0x0002b110      0x128 mesh/core/libmesh_core_nrf51422_xxAC.a(flash_manager_defrag.c.obj)
 .text.erase_source
                0x0002b238       0x30 mesh/core/libmesh_core_nrf51422_xxAC.a(flash_manager_defrag.c.obj)
 .text.flash_manager_defrag_init
                0x0002b268       0xa0 mesh/core/libmesh_core_nrf51422_xxAC.a(flash_manager_defrag.c.obj)
                0x0002b268                flash_manager_defrag_init
 .text.flash_manager_defrag_is_running
                0x0002b308       0x10 mesh/core/libmesh_core_nrf51422_xxAC.a(flash_manager_defrag.c.obj)
                0x0002b308                flash_manager_defrag_is_running
 .text.flash_manager_defrag
                0x0002b318       0xdc mesh/core/libmesh_core_nrf51422_xxAC.a(flash_manager_defrag.c.obj)
                0x0002b318                flash_manager_defrag
 .text.flash_manager_defrag_recovery_page_get
                0x0002b3f4        0xc mesh/core/libmesh_core_nrf51422_xxAC.a(flash_manager_defrag.c.obj)
                0x0002b3f4                flash_manager_defrag_recovery_page_get
 .text.packet_mgr_init
                0x0002b400       0x54 mesh/core/libmesh_core_nrf51422_xxAC.a(packet_mgr.c.obj)
                0x0002b400                packet_mgr_init
 .text.send_end_events
                0x0002b454       0x80 mesh/core/libmesh_core_nrf51422_xxAC.a(mesh_flash.c.obj)
 .text.flash_op_schedule
                0x0002b4d4       0xa0 mesh/core/libmesh_core_nrf51422_xxAC.a(mesh_flash.c.obj)
 .text.flash_op_start
                0x0002b574      0x178 mesh/core/libmesh_core_nrf51422_xxAC.a(mesh_flash.c.obj)
 .text.mesh_flash_init
                0x0002b6ec       0x94 mesh/core/libmesh_core_nrf51422_xxAC.a(mesh_flash.c.obj)
                0x0002b6ec                mesh_flash_init
 .text.mesh_flash_user_callback_set
                0x0002b780       0x30 mesh/core/libmesh_core_nrf51422_xxAC.a(mesh_flash.c.obj)
                0x0002b780                mesh_flash_user_callback_set
 .text.mesh_flash_op_push
                0x0002b7b0      0x140 mesh/core/libmesh_core_nrf51422_xxAC.a(mesh_flash.c.obj)
                0x0002b7b0                mesh_flash_op_push
 .text.queue_init
                0x0002b8f0       0x24 mesh/core/libmesh_core_nrf51422_xxAC.a(queue.c.obj)
                0x0002b8f0                queue_init
 .text.queue_push
                0x0002b914       0x54 mesh/core/libmesh_core_nrf51422_xxAC.a(queue.c.obj)
                0x0002b914                queue_push
 .text.queue_pop
                0x0002b968       0x3c mesh/core/libmesh_core_nrf51422_xxAC.a(queue.c.obj)
                0x0002b968                queue_pop
 .text.queue_peek
                0x0002b9a4       0x20 mesh/core/libmesh_core_nrf51422_xxAC.a(queue.c.obj)
                0x0002b9a4                queue_peek
 .text.my_xor.constprop.1
                0x0002b9c4       0x12 mesh/core/libmesh_core_nrf51422_xxAC.a(aes_cmac.c.obj)
 .text.utils_lshift.constprop.2
                0x0002b9d6       0x18 mesh/core/libmesh_core_nrf51422_xxAC.a(aes_cmac.c.obj)
 *fill*         0x0002b9ee        0x2 
 .text.aes_cmac_subkey_generate
                0x0002b9f0       0x64 mesh/core/libmesh_core_nrf51422_xxAC.a(aes_cmac.c.obj)
                0x0002b9f0                aes_cmac_subkey_generate
 .text.aes_cmac
                0x0002ba54       0xc0 mesh/core/libmesh_core_nrf51422_xxAC.a(aes_cmac.c.obj)
                0x0002ba54                aes_cmac
 .text.stage_get_available
                0x0002bb14       0x26 mesh/core/libmesh_core_nrf51422_xxAC.a(msqueue.c.obj)
 *fill*         0x0002bb3a        0x2 
 .text.msq_get  0x0002bb3c       0x54 mesh/core/libmesh_core_nrf51422_xxAC.a(msqueue.c.obj)
                0x0002bb3c                msq_get
 .text.msq_move
                0x0002bb90       0x4c mesh/core/libmesh_core_nrf51422_xxAC.a(msqueue.c.obj)
                0x0002bb90                msq_move
 .text.msq_reset
                0x0002bbdc       0x30 mesh/core/libmesh_core_nrf51422_xxAC.a(msqueue.c.obj)
                0x0002bbdc                msq_reset
 .text.msq_init
                0x0002bc0c       0x88 mesh/core/libmesh_core_nrf51422_xxAC.a(msqueue.c.obj)
                0x0002bc0c                msq_init
 .text.msq_available
                0x0002bc94       0x40 mesh/core/libmesh_core_nrf51422_xxAC.a(msqueue.c.obj)
                0x0002bc94                msq_available
 .text.replay_cache_add
                0x0002bcd4       0x68 mesh/core/libmesh_core_nrf51422_xxAC.a(replay_cache.c.obj)
                0x0002bcd4                replay_cache_add
 .text.replay_cache_has_room
                0x0002bd3c       0x38 mesh/core/libmesh_core_nrf51422_xxAC.a(replay_cache.c.obj)
                0x0002bd3c                replay_cache_has_room
 .text.replay_cache_has_elem
                0x0002bd74       0x38 mesh/core/libmesh_core_nrf51422_xxAC.a(replay_cache.c.obj)
                0x0002bd74                replay_cache_has_elem
 .text.replay_cache_clear
                0x0002bdac       0x28 mesh/core/libmesh_core_nrf51422_xxAC.a(replay_cache.c.obj)
                0x0002bdac                replay_cache_clear
 .text.replay_cache_init
                0x0002bdd4        0x8 mesh/core/libmesh_core_nrf51422_xxAC.a(replay_cache.c.obj)
                0x0002bdd4                replay_cache_init
 .text.wait_for_ready
                0x0002bddc       0x14 mesh/core/libmesh_core_nrf51422_xxAC.a(nrf_flash.c.obj)
 .text.nrf_flash_erase
                0x0002bdf0       0x58 mesh/core/libmesh_core_nrf51422_xxAC.a(nrf_flash.c.obj)
                0x0002bdf0                nrf_flash_erase
 .text.nrf_flash_write
                0x0002be48       0x5c mesh/core/libmesh_core_nrf51422_xxAC.a(nrf_flash.c.obj)
                0x0002be48                nrf_flash_write
 .text.uECC_vli_mult
                0x0002bea4       0x90 external/micro-ecc/libuECC_nrf51422_xxAC.a(uECC.c.obj)
 .text.uECC_vli_clear
                0x0002bf34       0x16 external/micro-ecc/libuECC_nrf51422_xxAC.a(uECC.c.obj)
 .text.uECC_vli_isZero
                0x0002bf4a       0x1c external/micro-ecc/libuECC_nrf51422_xxAC.a(uECC.c.obj)
 .text.uECC_vli_testBit
                0x0002bf66       0x12 external/micro-ecc/libuECC_nrf51422_xxAC.a(uECC.c.obj)
 .text.uECC_vli_numBits
                0x0002bf78       0x40 external/micro-ecc/libuECC_nrf51422_xxAC.a(uECC.c.obj)
 .text.uECC_vli_set
                0x0002bfb8       0x16 external/micro-ecc/libuECC_nrf51422_xxAC.a(uECC.c.obj)
 .text.uECC_vli_cmp_unsafe
                0x0002bfce       0x24 external/micro-ecc/libuECC_nrf51422_xxAC.a(uECC.c.obj)
 .text.uECC_vli_rshift1
                0x0002bff2       0x1e external/micro-ecc/libuECC_nrf51422_xxAC.a(uECC.c.obj)
 .text.uECC_vli_modMult_fast
                0x0002c010       0x20 external/micro-ecc/libuECC_nrf51422_xxAC.a(uECC.c.obj)
 .text.uECC_vli_modSquare_fast
                0x0002c030        0xc external/micro-ecc/libuECC_nrf51422_xxAC.a(uECC.c.obj)
 .text.apply_z  0x0002c03c       0x3e external/micro-ecc/libuECC_nrf51422_xxAC.a(uECC.c.obj)
 .text.uECC_vli_nativeToBytes
                0x0002c07a       0x24 external/micro-ecc/libuECC_nrf51422_xxAC.a(uECC.c.obj)
 .text.uECC_vli_bytesToNative
                0x0002c09e       0x44 external/micro-ecc/libuECC_nrf51422_xxAC.a(uECC.c.obj)
 .text.default_RNG
                0x0002c0e2        0xc external/micro-ecc/libuECC_nrf51422_xxAC.a(uECC.c.obj)
 .text.uECC_vli_add.isra.0
                0x0002c0ee       0x4a external/micro-ecc/libuECC_nrf51422_xxAC.a(uECC.c.obj)
 .text.regularize_k
                0x0002c138       0x52 external/micro-ecc/libuECC_nrf51422_xxAC.a(uECC.c.obj)
 .text.uECC_vli_sub.isra.1
                0x0002c18a       0x4c external/micro-ecc/libuECC_nrf51422_xxAC.a(uECC.c.obj)
 .text.uECC_vli_cmp
                0x0002c1d6       0x2a external/micro-ecc/libuECC_nrf51422_xxAC.a(uECC.c.obj)
 .text.uECC_generate_random_int
                0x0002c200       0x78 external/micro-ecc/libuECC_nrf51422_xxAC.a(uECC.c.obj)
 .text.uECC_vli_modAdd
                0x0002c278       0x2e external/micro-ecc/libuECC_nrf51422_xxAC.a(uECC.c.obj)
 *fill*         0x0002c2a6        0x2 
 .text.vli_mmod_fast_secp256r1
                0x0002c2a8      0x19c external/micro-ecc/libuECC_nrf51422_xxAC.a(uECC.c.obj)
 .text.uECC_vli_modSub.isra.2
                0x0002c444       0x1a external/micro-ecc/libuECC_nrf51422_xxAC.a(uECC.c.obj)
 *fill*         0x0002c45e        0x2 
 .text.double_jacobian_default
                0x0002c460      0x14c external/micro-ecc/libuECC_nrf51422_xxAC.a(uECC.c.obj)
 .text.x_side_default
                0x0002c5ac       0x58 external/micro-ecc/libuECC_nrf51422_xxAC.a(uECC.c.obj)
 .text.XYcZ_add
                0x0002c604       0xbe external/micro-ecc/libuECC_nrf51422_xxAC.a(uECC.c.obj)
 .text.XYcZ_addC
                0x0002c6c2      0x10c external/micro-ecc/libuECC_nrf51422_xxAC.a(uECC.c.obj)
 *fill*         0x0002c7ce        0x2 
 .text.vli_modInv_update
                0x0002c7d0       0x3c external/micro-ecc/libuECC_nrf51422_xxAC.a(uECC.c.obj)
 .text.uECC_vli_modInv
                0x0002c80c      0x10a external/micro-ecc/libuECC_nrf51422_xxAC.a(uECC.c.obj)
 .text.EccPoint_mult
                0x0002c916      0x19c external/micro-ecc/libuECC_nrf51422_xxAC.a(uECC.c.obj)
 .text.EccPoint_compute_public_key
                0x0002cab2       0x4c external/micro-ecc/libuECC_nrf51422_xxAC.a(uECC.c.obj)
 *fill*         0x0002cafe        0x2 
 .text.uECC_secp256r1
                0x0002cb00        0x8 external/micro-ecc/libuECC_nrf51422_xxAC.a(uECC.c.obj)
                0x0002cb00                uECC_secp256r1
 .text.uECC_make_key
                0x0002cb08       0x84 external/micro-ecc/libuECC_nrf51422_xxAC.a(uECC.c.obj)
                0x0002cb08                uECC_make_key
 .text.uECC_shared_secret
                0x0002cb8c       0xc0 external/micro-ecc/libuECC_nrf51422_xxAC.a(uECC.c.obj)
                0x0002cb8c                uECC_shared_secret
 .text.uECC_valid_point
                0x0002cc4c       0x86 external/micro-ecc/libuECC_nrf51422_xxAC.a(uECC.c.obj)
                0x0002cc4c                uECC_valid_point
 .text.uECC_valid_public_key
                0x0002ccd2       0x32 external/micro-ecc/libuECC_nrf51422_xxAC.a(uECC.c.obj)
                0x0002ccd2                uECC_valid_public_key
 .text._GetAvailWriteSpace
                0x0002cd04       0x12 external/rtt/librtt_nrf51422_xxAC.a(SEGGER_RTT.c.obj)
 .text._WriteNoCheck
                0x0002cd16       0x38 external/rtt/librtt_nrf51422_xxAC.a(SEGGER_RTT.c.obj)
 .text._WriteBlocking
                0x0002cd4e       0x5a external/rtt/librtt_nrf51422_xxAC.a(SEGGER_RTT.c.obj)
 .text._DoInit  0x0002cda8       0x64 external/rtt/librtt_nrf51422_xxAC.a(SEGGER_RTT.c.obj)
 .text.SEGGER_RTT_WriteNoLock
                0x0002ce0c       0x6c external/rtt/librtt_nrf51422_xxAC.a(SEGGER_RTT.c.obj)
                0x0002ce0c                SEGGER_RTT_WriteNoLock
 .text.SEGGER_RTT_Write
                0x0002ce78       0x34 external/rtt/librtt_nrf51422_xxAC.a(SEGGER_RTT.c.obj)
                0x0002ce78                SEGGER_RTT_Write
 .text._StoreChar
                0x0002ceac       0x3e external/rtt/librtt_nrf51422_xxAC.a(SEGGER_RTT_printf.c.obj)
 *fill*         0x0002ceea        0x2 
 .text._PrintUnsigned
                0x0002ceec       0xe0 external/rtt/librtt_nrf51422_xxAC.a(SEGGER_RTT_printf.c.obj)
 .text.SEGGER_RTT_vprintf
                0x0002cfcc      0x25c external/rtt/librtt_nrf51422_xxAC.a(SEGGER_RTT_printf.c.obj)
                0x0002cfcc                SEGGER_RTT_vprintf
 .text.SEGGER_RTT_printf
                0x0002d228       0x18 external/rtt/librtt_nrf51422_xxAC.a(SEGGER_RTT_printf.c.obj)
                0x0002d228                SEGGER_RTT_printf
 .text          0x0002d240       0x14 c:/a/gcc_arm/6/bin/../lib/gcc/arm-none-eabi/6.3.1/thumb/v6-m\libgcc.a(_thumb1_case_uqi.o)
                0x0002d240                __gnu_thumb1_case_uqi
 .text          0x0002d254       0x14 c:/a/gcc_arm/6/bin/../lib/gcc/arm-none-eabi/6.3.1/thumb/v6-m\libgcc.a(_thumb1_case_shi.o)
                0x0002d254                __gnu_thumb1_case_shi
 .text          0x0002d268       0x14 c:/a/gcc_arm/6/bin/../lib/gcc/arm-none-eabi/6.3.1/thumb/v6-m\libgcc.a(_thumb1_case_uhi.o)
                0x0002d268                __gnu_thumb1_case_uhi
 .text          0x0002d27c      0x114 c:/a/gcc_arm/6/bin/../lib/gcc/arm-none-eabi/6.3.1/thumb/v6-m\libgcc.a(_udivsi3.o)
                0x0002d27c                __aeabi_uidiv
                0x0002d27c                __udivsi3
                0x0002d388                __aeabi_uidivmod
 .text          0x0002d390      0x1d4 c:/a/gcc_arm/6/bin/../lib/gcc/arm-none-eabi/6.3.1/thumb/v6-m\libgcc.a(_divsi3.o)
                0x0002d390                __divsi3
                0x0002d390                __aeabi_idiv
                0x0002d55c                __aeabi_idivmod
 .text          0x0002d564        0x4 c:/a/gcc_arm/6/bin/../lib/gcc/arm-none-eabi/6.3.1/thumb/v6-m\libgcc.a(_dvmd_tls.o)
                0x0002d564                __aeabi_idiv0
                0x0002d564                __aeabi_ldiv0
 .text          0x0002d568       0x54 c:/a/gcc_arm/6/bin/../lib/gcc/arm-none-eabi/6.3.1/thumb/v6-m\libgcc.a(_muldi3.o)
                0x0002d568                __muldi3
                0x0002d568                __aeabi_lmul
 .text.exit     0x0002d5bc       0x2c c:/a/gcc_arm/6/bin/../lib/gcc/arm-none-eabi/6.3.1/../../../../arm-none-eabi/lib/thumb/v6-m\libg_nano.a(lib_a-exit.o)
                0x0002d5bc                exit
 .text.__libc_init_array
                0x0002d5e8       0x48 c:/a/gcc_arm/6/bin/../lib/gcc/arm-none-eabi/6.3.1/../../../../arm-none-eabi/lib/thumb/v6-m\libg_nano.a(lib_a-init.o)
                0x0002d5e8                __libc_init_array
 .text.malloc   0x0002d630       0x14 c:/a/gcc_arm/6/bin/../lib/gcc/arm-none-eabi/6.3.1/../../../../arm-none-eabi/lib/thumb/v6-m\libg_nano.a(lib_a-malloc.o)
                0x0002d630                malloc
 .text.free     0x0002d644       0x14 c:/a/gcc_arm/6/bin/../lib/gcc/arm-none-eabi/6.3.1/../../../../arm-none-eabi/lib/thumb/v6-m\libg_nano.a(lib_a-malloc.o)
                0x0002d644                free
 .text.memcmp   0x0002d658       0x1e c:/a/gcc_arm/6/bin/../lib/gcc/arm-none-eabi/6.3.1/../../../../arm-none-eabi/lib/thumb/v6-m\libg_nano.a(lib_a-memcmp.o)
                0x0002d658                memcmp
 .text.memcpy   0x0002d676       0x12 c:/a/gcc_arm/6/bin/../lib/gcc/arm-none-eabi/6.3.1/../../../../arm-none-eabi/lib/thumb/v6-m\libg_nano.a(lib_a-memcpy-stub.o)
                0x0002d676                memcpy
 .text.memset   0x0002d688       0x10 c:/a/gcc_arm/6/bin/../lib/gcc/arm-none-eabi/6.3.1/../../../../arm-none-eabi/lib/thumb/v6-m\libg_nano.a(lib_a-memset.o)
                0x0002d688                memset
 .text._free_r  0x0002d698       0x94 c:/a/gcc_arm/6/bin/../lib/gcc/arm-none-eabi/6.3.1/../../../../arm-none-eabi/lib/thumb/v6-m\libg_nano.a(lib_a-nano-freer.o)
                0x0002d698                _free_r
 .text._malloc_r
                0x0002d72c       0xbc c:/a/gcc_arm/6/bin/../lib/gcc/arm-none-eabi/6.3.1/../../../../arm-none-eabi/lib/thumb/v6-m\libg_nano.a(lib_a-nano-mallocr.o)
                0x0002d72c                _malloc_r
 .text._sbrk_r  0x0002d7e8       0x24 c:/a/gcc_arm/6/bin/../lib/gcc/arm-none-eabi/6.3.1/../../../../arm-none-eabi/lib/thumb/v6-m\libg_nano.a(lib_a-sbrkr.o)
                0x0002d7e8                _sbrk_r
 .text.strcpy   0x0002d80c       0x10 c:/a/gcc_arm/6/bin/../lib/gcc/arm-none-eabi/6.3.1/../../../../arm-none-eabi/lib/thumb/v6-m\libg_nano.a(lib_a-strcpy.o)
                0x0002d80c                strcpy
 .text          0x0002d81c        0xe c:/a/gcc_arm/6/bin/../lib/gcc/arm-none-eabi/6.3.1/../../../../arm-none-eabi/lib/thumb/v6-m\libg_nano.a(lib_a-strlen.o)
                0x0002d81c                strlen
 .text.strrchr  0x0002d82a       0x24 c:/a/gcc_arm/6/bin/../lib/gcc/arm-none-eabi/6.3.1/../../../../arm-none-eabi/lib/thumb/v6-m\libg_nano.a(lib_a-strrchr.o)
                0x0002d82a                strrchr
 .text.__malloc_lock
                0x0002d84e        0x2 c:/a/gcc_arm/6/bin/../lib/gcc/arm-none-eabi/6.3.1/../../../../arm-none-eabi/lib/thumb/v6-m\libg_nano.a(lib_a-mlock.o)
                0x0002d84e                __malloc_lock
 .text.__malloc_unlock
                0x0002d850        0x2 c:/a/gcc_arm/6/bin/../lib/gcc/arm-none-eabi/6.3.1/../../../../arm-none-eabi/lib/thumb/v6-m\libg_nano.a(lib_a-mlock.o)
                0x0002d850                __malloc_unlock
 .text.strchr   0x0002d852       0x1c c:/a/gcc_arm/6/bin/../lib/gcc/arm-none-eabi/6.3.1/../../../../arm-none-eabi/lib/thumb/v6-m\libg_nano.a(lib_a-strchr.o)
                0x0002d852                strchr
 *fill*         0x0002d86e        0x2 
 .text._sbrk    0x0002d870       0x1c c:/a/gcc_arm/6/bin/../lib/gcc/arm-none-eabi/6.3.1/../../../../arm-none-eabi/lib/thumb/v6-m\libnosys.a(sbrk.o)
                0x0002d870                _sbrk
 .text._exit    0x0002d88c        0x4 c:/a/gcc_arm/6/bin/../lib/gcc/arm-none-eabi/6.3.1/../../../../arm-none-eabi/lib/thumb/v6-m\libnosys.a(_exit.o)
                0x0002d88c                _exit
 *(.init)
 .init          0x0002d890        0x4 c:/a/gcc_arm/6/bin/../lib/gcc/arm-none-eabi/6.3.1/thumb/v6-m/crti.o
                0x0002d890                _init
 .init          0x0002d894        0x8 c:/a/gcc_arm/6/bin/../lib/gcc/arm-none-eabi/6.3.1/thumb/v6-m/crtn.o
 *(.fini)
 .fini          0x0002d89c        0x4 c:/a/gcc_arm/6/bin/../lib/gcc/arm-none-eabi/6.3.1/thumb/v6-m/crti.o
                0x0002d89c                _fini
 .fini          0x0002d8a0        0x8 c:/a/gcc_arm/6/bin/../lib/gcc/arm-none-eabi/6.3.1/thumb/v6-m/crtn.o
 *crtbegin.o(.ctors)
 *crtbegin?.o(.ctors)
 *(EXCLUDE_FILE(*crtend.o *crtend?.o) .ctors)
 *(SORT(.ctors.*))
 *(.ctors)
 *crtbegin.o(.dtors)
 *crtbegin?.o(.dtors)
 *(EXCLUDE_FILE(*crtend.o *crtend?.o) .dtors)
 *(SORT(.dtors.*))
 *(.dtors)
 *(.rodata*)
 .rodata        0x0002d8a8        0x8 examples/serial/CMakeFiles/serial_nrf51422_xxAC_s130_2.0.1.dir/src/main.c.obj
 .rodata.main.str1.1
                0x0002d8b0       0xac examples/serial/CMakeFiles/serial_nrf51422_xxAC_s130_2.0.1.dir/src/main.c.obj
 .rodata.HardFault_Handler.str1.1
                0x0002d95c        0xe examples/serial/CMakeFiles/serial_nrf51422_xxAC_s130_2.0.1.dir/__/nrf_mesh_sdk.c.obj
 .rodata.app_error_handler.str1.1
                0x0002d96a       0x1d examples/serial/CMakeFiles/serial_nrf51422_xxAC_s130_2.0.1.dir/__/nrf_mesh_sdk.c.obj
 .rodata.mesh_assert_handler.str1.1
                0x0002d987       0x34 examples/serial/CMakeFiles/serial_nrf51422_xxAC_s130_2.0.1.dir/__/nrf_mesh_sdk.c.obj
 .rodata.mesh_core_setup.str1.1
                0x0002d9bb       0x47 examples/serial/CMakeFiles/serial_nrf51422_xxAC_s130_2.0.1.dir/__/nrf_mesh_sdk.c.obj
 .rodata.mesh_softdevice_enable.str1.1
                0x0002da02       0x65 examples/serial/CMakeFiles/serial_nrf51422_xxAC_s130_2.0.1.dir/__/nrf_mesh_sdk.c.obj
 .rodata.softdevice_assert_handler.str1.1
                0x0002da67       0x1d examples/serial/CMakeFiles/serial_nrf51422_xxAC_s130_2.0.1.dir/__/nrf_mesh_sdk.c.obj
 .rodata.m_prov_callbacks
                0x0002da84       0x10 examples/serial/CMakeFiles/serial_nrf51422_xxAC_s130_2.0.1.dir/__/__/mesh/prov/src/prov_provisioner.c.obj
 .rodata.m_prov_callbacks
                0x0002da94       0x10 examples/serial/CMakeFiles/serial_nrf51422_xxAC_s130_2.0.1.dir/__/__/mesh/prov/src/prov_provisionee.c.obj
 .rodata.prov_provisionee_cb_ack_received.str1.1
                0x0002daa4       0x53 examples/serial/CMakeFiles/serial_nrf51422_xxAC_s130_2.0.1.dir/__/__/mesh/prov/src/prov_provisionee.c.obj
 .rodata.pdu_sizes.8424
                0x0002daf7        0xa examples/serial/CMakeFiles/serial_nrf51422_xxAC_s130_2.0.1.dir/__/__/mesh/prov/src/provisioning.c.obj
 .rodata.alphanumeric.8529
                0x0002db01       0x25 examples/serial/CMakeFiles/serial_nrf51422_xxAC_s130_2.0.1.dir/__/__/mesh/prov/src/prov_utils.c.obj
 *fill*         0x0002db26        0x2 
 .rodata.numeric_max.8523
                0x0002db28       0x24 examples/serial/CMakeFiles/serial_nrf51422_xxAC_s130_2.0.1.dir/__/__/mesh/prov/src/prov_utils.c.obj
 .rodata.prov_utils_authentication_values_derive.str1.1
                0x0002db4c        0x5 examples/serial/CMakeFiles/serial_nrf51422_xxAC_s130_2.0.1.dir/__/__/mesh/prov/src/prov_utils.c.obj
 .rodata.prov_utils_derive_keys.str1.1
                0x0002db51        0xf examples/serial/CMakeFiles/serial_nrf51422_xxAC_s130_2.0.1.dir/__/__/mesh/prov/src/prov_utils.c.obj
 .rodata.add_active_bearer.str1.1
                0x0002db60       0x2c examples/serial/CMakeFiles/serial_nrf51422_xxAC_s130_2.0.1.dir/__/__/mesh/prov/src/prov_bearer_adv.c.obj
 .rodata.crctable.8282
                0x0002db8c      0x100 examples/serial/CMakeFiles/serial_nrf51422_xxAC_s130_2.0.1.dir/__/__/mesh/prov/src/prov_bearer_adv.c.obj
 .rodata.interface.8512
                0x0002dc8c       0x14 examples/serial/CMakeFiles/serial_nrf51422_xxAC_s130_2.0.1.dir/__/__/mesh/prov/src/prov_bearer_adv.c.obj
 .rodata.prov_bearer_adv_packet_in.str1.1
                0x0002dca0      0x26e examples/serial/CMakeFiles/serial_nrf51422_xxAC_s130_2.0.1.dir/__/__/mesh/prov/src/prov_bearer_adv.c.obj
 .rodata.tx_retry_cb.str1.1
                0x0002df0e       0x37 examples/serial/CMakeFiles/serial_nrf51422_xxAC_s130_2.0.1.dir/__/__/mesh/prov/src/prov_bearer_adv.c.obj
 .rodata.mesh_evt_cb.str1.1
                0x0002df45       0x2f examples/serial/CMakeFiles/serial_nrf51422_xxAC_s130_2.0.1.dir/__/__/mesh/access/src/access.c.obj
 .rodata.packet_tx.str1.1
                0x0002df74       0x13 examples/serial/CMakeFiles/serial_nrf51422_xxAC_s130_2.0.1.dir/__/__/mesh/access/src/access.c.obj
 *fill*         0x0002df87        0x1 
 .rodata.m_flash_groups
                0x0002df88       0xa8 examples/serial/CMakeFiles/serial_nrf51422_xxAC_s130_2.0.1.dir/__/__/mesh/access/src/device_state_manager.c.obj
 .rodata.m_cmd_handlers
                0x0002e030       0xb0 examples/serial/CMakeFiles/serial_nrf51422_xxAC_s130_2.0.1.dir/__/__/mesh/serial/src/serial_handler_access.c.obj
 .rodata.m_cmd_handlers
                0x0002e0e0       0x48 examples/serial/CMakeFiles/serial_nrf51422_xxAC_s130_2.0.1.dir/__/__/mesh/serial/src/serial.c.obj
 .rodata.serial_process_cmd.str1.1
                0x0002e128       0x17 examples/serial/CMakeFiles/serial_nrf51422_xxAC_s130_2.0.1.dir/__/__/mesh/serial/src/serial.c.obj
 .rodata.serial_start.str1.1
                0x0002e13f       0x63 examples/serial/CMakeFiles/serial_nrf51422_xxAC_s130_2.0.1.dir/__/__/mesh/serial/src/serial.c.obj
 .rodata.serial_handler_prov_init.str1.1
                0x0002e1a2       0x4b examples/serial/CMakeFiles/serial_nrf51422_xxAC_s130_2.0.1.dir/__/__/mesh/serial/src/serial_handler_prov.c.obj
 .rodata.lengths.8599
                0x0002e1ed        0x7 examples/serial/CMakeFiles/serial_nrf51422_xxAC_s130_2.0.1.dir/__/__/mesh/serial/src/serial_handler_dfu.c.obj
 .rodata.m_handlers
                0x0002e1f4       0xe8 examples/serial/CMakeFiles/serial_nrf51422_xxAC_s130_2.0.1.dir/__/__/mesh/serial/src/serial_handler_mesh.c.obj
 .rodata.m_cmd_handlers
                0x0002e2dc       0x18 examples/serial/CMakeFiles/serial_nrf51422_xxAC_s130_2.0.1.dir/__/__/mesh/serial/src/serial_handler_models.c.obj
 .rodata.m_cmd_handlers
                0x0002e2f4       0x48 examples/serial/CMakeFiles/serial_nrf51422_xxAC_s130_2.0.1.dir/__/__/mesh/serial/src/serial_handler_device.c.obj
 .rodata.types_lookup.6447
                0x0002e33c        0x4 mesh/core/libmesh_core_nrf51422_xxAC.a(nrf_mesh_utils.c.obj)
 .rodata.nrf_mesh_listen.str1.1
                0x0002e340       0x70 mesh/core/libmesh_core_nrf51422_xxAC.a(nrf_mesh.c.obj)
 .rodata.CSWTCH.9
                0x0002e3b0       0x10 mesh/core/libmesh_core_nrf51422_xxAC.a(hal.c.obj)
 .rodata        0x0002e3c0       0x15 mesh/core/libmesh_core_nrf51422_xxAC.a(enc.c.obj)
 .rodata.network_packet_in.str1.1
                0x0002e3d5       0x48 mesh/core/libmesh_core_nrf51422_xxAC.a(network.c.obj)
 .rodata.network_packet_send.str1.1
                0x0002e41d       0x49 mesh/core/libmesh_core_nrf51422_xxAC.a(network.c.obj)
 .rodata        0x0002e466        0x7 mesh/core/libmesh_core_nrf51422_xxAC.a(nrf_mesh_keygen.c.obj)
 .rodata.log_callback_rtt.str1.1
                0x0002e46d       0x15 mesh/core/libmesh_core_nrf51422_xxAC.a(log.c.obj)
 .rodata.str1.1
                0x0002e482       0x11 mesh/core/libmesh_core_nrf51422_xxAC.a(log.c.obj)
 *fill*         0x0002e493        0x1 
 .rodata.INVALID_HEADER
                0x0002e494        0x4 mesh/core/libmesh_core_nrf51422_xxAC.a(flash_manager.c.obj)
                0x0002e494                INVALID_HEADER
 .rodata.PADDING_HEADER
                0x0002e498        0x4 mesh/core/libmesh_core_nrf51422_xxAC.a(flash_manager.c.obj)
                0x0002e498                PADDING_HEADER
 .rodata.SEAL_HEADER
                0x0002e49c        0x4 mesh/core/libmesh_core_nrf51422_xxAC.a(flash_manager.c.obj)
                0x0002e49c                SEAL_HEADER
 .rodata.process_action_queue.str1.1
                0x0002e4a0       0x21 mesh/core/libmesh_core_nrf51422_xxAC.a(flash_manager.c.obj)
                                 0x4f (size before relaxing)
 .rodata.beacon_packet_in.str1.1
                0x0002e4c1       0x51 mesh/core/libmesh_core_nrf51422_xxAC.a(beacon.c.obj)
                                 0x59 (size before relaxing)
 *fill*         0x0002e512        0x2 
 .rodata.cp_handler
                0x0002e514        0x8 mesh/core/libmesh_core_nrf51422_xxAC.a(heartbeat.c.obj)
 .rodata.net_beacon_init.str1.1
                0x0002e51c        0x5 mesh/core/libmesh_core_nrf51422_xxAC.a(net_beacon.c.obj)
 *fill*         0x0002e521        0x3 
 .rodata.m_interface
                0x0002e524        0xc mesh/core/libmesh_core_nrf51422_xxAC.a(core_tx_adv.c.obj)
 .rodata.radio_mode_to_us_per_byte.6840
                0x0002e530        0x4 mesh/core/libmesh_core_nrf51422_xxAC.a(broadcast.c.obj)
 .rodata.channel_rf_offsets.6081
                0x0002e534       0x28 mesh/core/libmesh_core_nrf51422_xxAC.a(radio_config.c.obj)
 .rodata        0x0002e55c        0x3 mesh/core/libmesh_core_nrf51422_xxAC.a(scanner.c.obj)
 .rodata.sar_ctx_cancel.str1.1
                0x0002e55f       0x18 mesh/core/libmesh_core_nrf51422_xxAC.a(transport.c.obj)
 .rodata.sar_ctx_tx_complete.str1.1
                0x0002e577       0x1d mesh/core/libmesh_core_nrf51422_xxAC.a(transport.c.obj)
                                 0x4b (size before relaxing)
 .rodata.test_transport_decrypt.str1.1
                0x0002e594       0x13 mesh/core/libmesh_core_nrf51422_xxAC.a(transport.c.obj)
 .rodata.transport_packet_in.str1.1
                0x0002e5a7       0x24 mesh/core/libmesh_core_nrf51422_xxAC.a(transport.c.obj)
 .rodata.upper_transport_access_packet_in.str1.1
                0x0002e5cb       0x29 mesh/core/libmesh_core_nrf51422_xxAC.a(transport.c.obj)
 .rodata.upper_transport_packet_in.str1.1
                0x0002e5f4       0x2e mesh/core/libmesh_core_nrf51422_xxAC.a(transport.c.obj)
 .rodata.upper_transport_tx.str1.1
                0x0002e622       0x2c mesh/core/libmesh_core_nrf51422_xxAC.a(transport.c.obj)
                                 0x34 (size before relaxing)
 .rodata.flash_manager_defrag.str1.1
                0x0002e64e       0x28 mesh/core/libmesh_core_nrf51422_xxAC.a(flash_manager_defrag.c.obj)
                                 0x56 (size before relaxing)
 *fill*         0x0002e676        0x2 
 .rodata.m_procedure_steps
                0x0002e678       0x28 mesh/core/libmesh_core_nrf51422_xxAC.a(flash_manager_defrag.c.obj)
 .rodata.m_all_operations
                0x0002e6a0       0x10 mesh/core/libmesh_core_nrf51422_xxAC.a(mesh_flash.c.obj)
 .rodata.Rb.5046
                0x0002e6b0       0x10 mesh/core/libmesh_core_nrf51422_xxAC.a(aes_cmac.c.obj)
 .rodata.curve_secp256r1
                0x0002e6c0       0xb0 external/micro-ecc/libuECC_nrf51422_xxAC.a(uECC.c.obj)
 .rodata._DoInit.str1.1
                0x0002e770       0x14 external/rtt/librtt_nrf51422_xxAC.a(SEGGER_RTT.c.obj)
 .rodata._aV2C.4374
                0x0002e784       0x10 external/rtt/librtt_nrf51422_xxAC.a(SEGGER_RTT_printf.c.obj)
 .rodata._global_impure_ptr
                0x0002e794        0x4 c:/a/gcc_arm/6/bin/../lib/gcc/arm-none-eabi/6.3.1/../../../../arm-none-eabi/lib/thumb/v6-m\libg_nano.a(lib_a-impure.o)
                0x0002e794                _global_impure_ptr
 *(.eh_frame*)
 .eh_frame      0x0002e798        0x0 c:/a/gcc_arm/6/bin/../lib/gcc/arm-none-eabi/6.3.1/thumb/v6-m/crtbegin.o
 .eh_frame      0x0002e798        0x4 c:/a/gcc_arm/6/bin/../lib/gcc/arm-none-eabi/6.3.1/thumb/v6-m/crtend.o

.glue_7         0x0002e79c        0x0
 .glue_7        0x0002e79c        0x0 linker stubs

.glue_7t        0x0002e79c        0x0
 .glue_7t       0x0002e79c        0x0 linker stubs

.vfp11_veneer   0x0002e79c        0x0
 .vfp11_veneer  0x0002e79c        0x0 linker stubs

.v4_bx          0x0002e79c        0x0
 .v4_bx         0x0002e79c        0x0 linker stubs

.iplt           0x0002e79c        0x0
 .iplt          0x0002e79c        0x0 c:/a/gcc_arm/6/bin/../lib/gcc/arm-none-eabi/6.3.1/thumb/v6-m/crtbegin.o

.pwr_mgmt_data  0x0002e79c        0x0
                [!provide]                PROVIDE (__start_pwr_mgmt_data, .)
 *(SORT(.pwr_mgmt_data*))
                [!provide]                PROVIDE (__stop_pwr_mgmt_data, .)

.log_const_data
                0x0002e79c        0x0
                [!provide]                PROVIDE (__start_log_const_data, .)
 *(.log_const_data)
                [!provide]                PROVIDE (__stop_log_const_data, .)

.cli_command    0x0002e79c        0x0
                [!provide]                PROVIDE (__start_cli_command, .)
 *(.cli_command)
                [!provide]                PROVIDE (__stop_cli_command, .)

.sdh_stack_observers
                0x0002e79c        0x0
                [!provide]                PROVIDE (__start_sdh_stack_observers, .)
 *(SORT(.sdh_stack_observers*))
                [!provide]                PROVIDE (__stop_sdh_stack_observers, .)

.sdh_req_observers
                0x0002e79c        0x0
                [!provide]                PROVIDE (__start_sdh_req_observers, .)
 *(SORT(.sdh_req_observers*))
                [!provide]                PROVIDE (__stop_sdh_req_observers, .)

.sdh_state_observers
                0x0002e79c        0x0
                [!provide]                PROVIDE (__start_sdh_state_observers, .)
 *(SORT(.sdh_state_observers*))
                [!provide]                PROVIDE (__stop_sdh_state_observers, .)

.sdh_ant_observers
                0x0002e79c        0x0
                [!provide]                PROVIDE (__start_sdh_ant_observers, .)
 *(SORT(.sdh_ant_observers*))
                [!provide]                PROVIDE (__stop_sdh_ant_observers, .)

.sdh_ble_observers
                0x0002e79c        0x0
                [!provide]                PROVIDE (__start_sdh_ble_observers, .)
 *(SORT(.sdh_ble_observers*))
                [!provide]                PROVIDE (__stop_sdh_ble_observers, .)

.sdh_soc_observers
                0x0002e79c        0x0
                [!provide]                PROVIDE (__start_sdh_soc_observers, .)
 *(SORT(.sdh_soc_observers*))
                [!provide]                PROVIDE (__stop_sdh_soc_observers, .)

.ARM.extab
 *(.ARM.extab* .gnu.linkonce.armextab.*)
                0x0002e79c                __exidx_start = .

.ARM.exidx      0x0002e79c        0x8
 *(.ARM.exidx* .gnu.linkonce.armexidx.*)
 .ARM.exidx     0x0002e79c        0x8 c:/a/gcc_arm/6/bin/../lib/gcc/arm-none-eabi/6.3.1/../../../../arm-none-eabi/lib/thumb/v6-m/crt0.o
                0x0002e7a4                __exidx_end = .
                0x0002e7a4                __etext = .

.rel.dyn        0x0002e7a4        0x0
 .rel.iplt      0x0002e7a4        0x0 c:/a/gcc_arm/6/bin/../lib/gcc/arm-none-eabi/6.3.1/thumb/v6-m/crtbegin.o

.data           0x200022d8      0x12c load address 0x0002e7a4
                0x200022d8                __data_start__ = .
 *(vtable)
 *(.data*)
 .data.m_async_process_flag
                0x200022d8        0x4 examples/serial/CMakeFiles/serial_nrf51422_xxAC_s130_2.0.1.dir/__/__/mesh/prov/src/prov_bearer_adv.c.obj
 .data.flash_add_mem_available_struct.7714
                0x200022dc       0x10 examples/serial/CMakeFiles/serial_nrf51422_xxAC_s130_2.0.1.dir/__/__/mesh/access/src/access.c.obj
 .data.flash_clear_mem_available_struct.7803
                0x200022ec       0x10 examples/serial/CMakeFiles/serial_nrf51422_xxAC_s130_2.0.1.dir/__/__/mesh/access/src/access.c.obj
 .data.flash_store_mem_available_struct.7827
                0x200022fc       0x10 examples/serial/CMakeFiles/serial_nrf51422_xxAC_s130_2.0.1.dir/__/__/mesh/access/src/access.c.obj
 .data.m_default_ttl
                0x2000230c        0x1 examples/serial/CMakeFiles/serial_nrf51422_xxAC_s130_2.0.1.dir/__/__/mesh/access/src/access.c.obj
 *fill*         0x2000230d        0x3 
 .data.mem_listener.8022
                0x20002310       0x10 examples/serial/CMakeFiles/serial_nrf51422_xxAC_s130_2.0.1.dir/__/__/mesh/access/src/device_state_manager.c.obj
 .data.mem_listener.8048
                0x20002320       0x10 examples/serial/CMakeFiles/serial_nrf51422_xxAC_s130_2.0.1.dir/__/__/mesh/access/src/device_state_manager.c.obj
 .data.SystemCoreClock
                0x20002330        0x4 examples/serial/CMakeFiles/serial_nrf51422_xxAC_s130_2.0.1.dir/__/__/external/nRF5_SDK_14.2.0_17b948a/components/toolchain/system_nrf51.c.obj
                0x20002330                SystemCoreClock
 .data.mem_listener.7168
                0x20002334       0x10 mesh/core/libmesh_core_nrf51422_xxAC.a(net_state.c.obj)
 .data.mem_listener.7173
                0x20002344       0x10 mesh/core/libmesh_core_nrf51422_xxAC.a(net_state.c.obj)
 .data.mem_listener.7187
                0x20002354       0x10 mesh/core/libmesh_core_nrf51422_xxAC.a(net_state.c.obj)
 .data.mem_listener.7204
                0x20002364       0x10 mesh/core/libmesh_core_nrf51422_xxAC.a(net_state.c.obj)
 .data.m_nrf_mesh_listener
                0x20002374        0xc mesh/core/libmesh_core_nrf51422_xxAC.a(nrf_mesh.c.obj)
 .data.g_log_dbg_lvl
                0x20002380        0x4 mesh/core/libmesh_core_nrf51422_xxAC.a(log.c.obj)
                0x20002380                g_log_dbg_lvl
 .data.g_log_dbg_msk
                0x20002384        0x4 mesh/core/libmesh_core_nrf51422_xxAC.a(log.c.obj)
                0x20002384                g_log_dbg_msk
 .data.g_log_hex_digits
                0x20002388        0x4 mesh/core/libmesh_core_nrf51422_xxAC.a(log.c.obj)
                0x20002388                g_log_hex_digits
 .data.m_log_callback
                0x2000238c        0x4 mesh/core/libmesh_core_nrf51422_xxAC.a(log.c.obj)
                0x2000238c                m_log_callback
 .data.g_rng_function
                0x20002390        0x4 external/micro-ecc/libuECC_nrf51422_xxAC.a(uECC.c.obj)
 .data._impure_ptr
                0x20002394        0x4 c:/a/gcc_arm/6/bin/../lib/gcc/arm-none-eabi/6.3.1/../../../../arm-none-eabi/lib/thumb/v6-m\libg_nano.a(lib_a-impure.o)
                0x20002394                _impure_ptr
 .data.impure_data
                0x20002398       0x60 c:/a/gcc_arm/6/bin/../lib/gcc/arm-none-eabi/6.3.1/../../../../arm-none-eabi/lib/thumb/v6-m\libg_nano.a(lib_a-impure.o)
                0x200023f8                . = ALIGN (0x4)
                0x200023f8                PROVIDE (__preinit_array_start, .)
 *(.preinit_array)
                0x200023f8                PROVIDE (__preinit_array_end, .)
                0x200023f8                . = ALIGN (0x4)
                0x200023f8                PROVIDE (__init_array_start, .)
 *(SORT(.init_array.*))
 *(.init_array)
 .init_array    0x200023f8        0x4 c:/a/gcc_arm/6/bin/../lib/gcc/arm-none-eabi/6.3.1/thumb/v6-m/crtbegin.o
                0x200023fc                PROVIDE (__init_array_end, .)
                0x200023fc                . = ALIGN (0x4)
                [!provide]                PROVIDE (__fini_array_start, .)
 *(SORT(.fini_array.*))
 *(.fini_array)
 .fini_array    0x200023fc        0x4 c:/a/gcc_arm/6/bin/../lib/gcc/arm-none-eabi/6.3.1/thumb/v6-m/crtbegin.o
                [!provide]                PROVIDE (__fini_array_end, .)
 *(.jcr*)
 .jcr           0x20002400        0x0 c:/a/gcc_arm/6/bin/../lib/gcc/arm-none-eabi/6.3.1/thumb/v6-m/crtbegin.o
 .jcr           0x20002400        0x4 c:/a/gcc_arm/6/bin/../lib/gcc/arm-none-eabi/6.3.1/thumb/v6-m/crtend.o
                0x20002404                . = ALIGN (0x4)
                0x20002404                __data_end__ = .
LOAD c:/a/gcc_arm/6/bin/../lib/gcc/arm-none-eabi/6.3.1/thumb/v6-m/crti.o
LOAD c:/a/gcc_arm/6/bin/../lib/gcc/arm-none-eabi/6.3.1/thumb/v6-m/crtbegin.o
LOAD c:/a/gcc_arm/6/bin/../lib/gcc/arm-none-eabi/6.3.1/../../../../arm-none-eabi/lib/thumb/v6-m/crt0.o
LOAD examples/serial/CMakeFiles/serial_nrf51422_xxAC_s130_2.0.1.dir/src/main.c.obj
LOAD examples/serial/CMakeFiles/serial_nrf51422_xxAC_s130_2.0.1.dir/__/nrf_mesh_sdk.c.obj
LOAD examples/serial/CMakeFiles/serial_nrf51422_xxAC_s130_2.0.1.dir/__/__/mesh/prov/src/prov_provisioner.c.obj
LOAD examples/serial/CMakeFiles/serial_nrf51422_xxAC_s130_2.0.1.dir/__/__/mesh/prov/src/prov_provisionee.c.obj
LOAD examples/serial/CMakeFiles/serial_nrf51422_xxAC_s130_2.0.1.dir/__/__/mesh/prov/src/nrf_mesh_prov.c.obj
LOAD examples/serial/CMakeFiles/serial_nrf51422_xxAC_s130_2.0.1.dir/__/__/mesh/prov/src/provisioning.c.obj
LOAD examples/serial/CMakeFiles/serial_nrf51422_xxAC_s130_2.0.1.dir/__/__/mesh/prov/src/prov_beacon.c.obj
LOAD examples/serial/CMakeFiles/serial_nrf51422_xxAC_s130_2.0.1.dir/__/__/mesh/prov/src/prov_utils.c.obj
LOAD examples/serial/CMakeFiles/serial_nrf51422_xxAC_s130_2.0.1.dir/__/__/mesh/prov/src/prov_bearer_adv.c.obj
LOAD examples/serial/CMakeFiles/serial_nrf51422_xxAC_s130_2.0.1.dir/__/__/mesh/access/src/access_publish.c.obj
LOAD examples/serial/CMakeFiles/serial_nrf51422_xxAC_s130_2.0.1.dir/__/__/mesh/access/src/access.c.obj
LOAD examples/serial/CMakeFiles/serial_nrf51422_xxAC_s130_2.0.1.dir/__/__/mesh/access/src/access_reliable.c.obj
LOAD examples/serial/CMakeFiles/serial_nrf51422_xxAC_s130_2.0.1.dir/__/__/mesh/access/src/device_state_manager.c.obj
LOAD examples/serial/CMakeFiles/serial_nrf51422_xxAC_s130_2.0.1.dir/__/__/mesh/serial/src/serial_uart.c.obj
LOAD examples/serial/CMakeFiles/serial_nrf51422_xxAC_s130_2.0.1.dir/__/__/mesh/serial/src/serial_bearer.c.obj
LOAD examples/serial/CMakeFiles/serial_nrf51422_xxAC_s130_2.0.1.dir/__/__/mesh/serial/src/serial_handler_common.c.obj
LOAD examples/serial/CMakeFiles/serial_nrf51422_xxAC_s130_2.0.1.dir/__/__/mesh/serial/src/serial_handler_access.c.obj
LOAD examples/serial/CMakeFiles/serial_nrf51422_xxAC_s130_2.0.1.dir/__/__/mesh/serial/src/serial_handler_config.c.obj
LOAD examples/serial/CMakeFiles/serial_nrf51422_xxAC_s130_2.0.1.dir/__/__/mesh/serial/src/serial_handler_openmesh.c.obj
LOAD examples/serial/CMakeFiles/serial_nrf51422_xxAC_s130_2.0.1.dir/__/__/mesh/serial/src/serial.c.obj
LOAD examples/serial/CMakeFiles/serial_nrf51422_xxAC_s130_2.0.1.dir/__/__/mesh/serial/src/serial_handler_prov.c.obj
LOAD examples/serial/CMakeFiles/serial_nrf51422_xxAC_s130_2.0.1.dir/__/__/mesh/serial/src/serial_handler_dfu.c.obj
LOAD examples/serial/CMakeFiles/serial_nrf51422_xxAC_s130_2.0.1.dir/__/__/mesh/serial/src/serial_handler_mesh.c.obj
LOAD examples/serial/CMakeFiles/serial_nrf51422_xxAC_s130_2.0.1.dir/__/__/mesh/serial/src/serial_handler_models.c.obj
LOAD examples/serial/CMakeFiles/serial_nrf51422_xxAC_s130_2.0.1.dir/__/__/mesh/serial/src/serial_handler_device.c.obj
LOAD examples/serial/CMakeFiles/serial_nrf51422_xxAC_s130_2.0.1.dir/__/__/mesh/serial/src/nrf_mesh_serial.c.obj
LOAD examples/serial/CMakeFiles/serial_nrf51422_xxAC_s130_2.0.1.dir/__/__/mesh/serial/src/serial_handler_app.c.obj
LOAD examples/serial/CMakeFiles/serial_nrf51422_xxAC_s130_2.0.1.dir/__/nrf_mesh_weak.c.obj
LOAD examples/serial/CMakeFiles/serial_nrf51422_xxAC_s130_2.0.1.dir/__/__/external/nRF5_SDK_14.2.0_17b948a/components/toolchain/system_nrf51.c.obj
LOAD examples/serial/CMakeFiles/serial_nrf51422_xxAC_s130_2.0.1.dir/__/__/external/nRF5_SDK_14.2.0_17b948a/components/toolchain/gcc/gcc_startup_nrf51.S.obj
LOAD mesh/core/libmesh_core_nrf51422_xxAC.a
LOAD external/micro-ecc/libuECC_nrf51422_xxAC.a
LOAD external/rtt/librtt_nrf51422_xxAC.a
START GROUP
LOAD c:/a/gcc_arm/6/bin/../lib/gcc/arm-none-eabi/6.3.1/thumb/v6-m\libgcc.a
LOAD c:/a/gcc_arm/6/bin/../lib/gcc/arm-none-eabi/6.3.1/../../../../arm-none-eabi/lib/thumb/v6-m\libg_nano.a
LOAD c:/a/gcc_arm/6/bin/../lib/gcc/arm-none-eabi/6.3.1/../../../../arm-none-eabi/lib/thumb/v6-m\libc_nano.a
END GROUP
START GROUP
LOAD c:/a/gcc_arm/6/bin/../lib/gcc/arm-none-eabi/6.3.1/thumb/v6-m\libgcc.a
LOAD c:/a/gcc_arm/6/bin/../lib/gcc/arm-none-eabi/6.3.1/../../../../arm-none-eabi/lib/thumb/v6-m\libc_nano.a
END GROUP
LOAD c:/a/gcc_arm/6/bin/../lib/gcc/arm-none-eabi/6.3.1/thumb/v6-m/crtend.o
LOAD c:/a/gcc_arm/6/bin/../lib/gcc/arm-none-eabi/6.3.1/thumb/v6-m/crtn.o
START GROUP
LOAD c:/a/gcc_arm/6/bin/../lib/gcc/arm-none-eabi/6.3.1/thumb/v6-m\libgcc.a
LOAD c:/a/gcc_arm/6/bin/../lib/gcc/arm-none-eabi/6.3.1/../../../../arm-none-eabi/lib/thumb/v6-m\libc.a
LOAD c:/a/gcc_arm/6/bin/../lib/gcc/arm-none-eabi/6.3.1/../../../../arm-none-eabi/lib/thumb/v6-m\libnosys.a
END GROUP

.igot.plt       0x20002404        0x0 load address 0x0002e8d0
 .igot.plt      0x20002404        0x0 c:/a/gcc_arm/6/bin/../lib/gcc/arm-none-eabi/6.3.1/thumb/v6-m/crtbegin.o
                0x20002404                . = ALIGN (0x4)

.svc_data       0x20002404        0x0
                [!provide]                PROVIDE (__start_svc_data, .)
 *(.svc_data)
                [!provide]                PROVIDE (__stop_svc_data, .)

.fs_data        0x20002404        0x0
                [!provide]                PROVIDE (__start_fs_data, .)
 *(.fs_data)
                [!provide]                PROVIDE (__stop_fs_data, .)

.log_dynamic_data
                0x20002404        0x0
                [!provide]                PROVIDE (__start_log_dynamic_data, .)
 *(.log_dynamic_data)
                [!provide]                PROVIDE (__stop_log_dynamic_data, .)

.cli_sorted_cmd_ptrs
                0x20002404        0x0
                [!provide]                PROVIDE (__start_cli_sorted_cmd_ptrs, .)
 *(.cli_sorted_cmd_ptrs)
                [!provide]                PROVIDE (__stop_cli_sorted_cmd_ptrs, .)

.bss            0x20002408     0x391c load address 0x0002e8d8
                0x20002408                . = ALIGN (0x4)
                0x20002408                __bss_start__ = .
 *(.bss*)
 .bss           0x20002408       0x1c c:/a/gcc_arm/6/bin/../lib/gcc/arm-none-eabi/6.3.1/thumb/v6-m/crtbegin.o
 .bss.m_ble_evt_buffer
                0x20002424       0x47 examples/serial/CMakeFiles/serial_nrf51422_xxAC_s130_2.0.1.dir/__/nrf_mesh_sdk.c.obj
 *fill*         0x2000246b        0x1 
 .bss.m_event_handler
                0x2000246c        0x4 examples/serial/CMakeFiles/serial_nrf51422_xxAC_s130_2.0.1.dir/__/__/mesh/prov/src/prov_beacon.c.obj
 .bss.m_offload_ecdh
                0x20002470        0x1 examples/serial/CMakeFiles/serial_nrf51422_xxAC_s130_2.0.1.dir/__/__/mesh/prov/src/prov_utils.c.obj
 *fill*         0x20002471        0x3 
 .bss.mp_bearer_head
                0x20002474        0x4 examples/serial/CMakeFiles/serial_nrf51422_xxAC_s130_2.0.1.dir/__/__/mesh/prov/src/prov_bearer_adv.c.obj
 .bss.m_publish_timer
                0x20002478       0x18 examples/serial/CMakeFiles/serial_nrf51422_xxAC_s130_2.0.1.dir/__/__/mesh/access/src/access_publish.c.obj
 .bss.m_publish_timer_counter
                0x20002490        0x4 examples/serial/CMakeFiles/serial_nrf51422_xxAC_s130_2.0.1.dir/__/__/mesh/access/src/access_publish.c.obj
 .bss.m_publish_timer_running
                0x20002494        0x1 examples/serial/CMakeFiles/serial_nrf51422_xxAC_s130_2.0.1.dir/__/__/mesh/access/src/access_publish.c.obj
 .bss.m_timer_resolution
                0x20002495        0x1 examples/serial/CMakeFiles/serial_nrf51422_xxAC_s130_2.0.1.dir/__/__/mesh/access/src/access_publish.c.obj
 *fill*         0x20002496        0x2 
 .bss.mp_publication_list
                0x20002498        0x4 examples/serial/CMakeFiles/serial_nrf51422_xxAC_s130_2.0.1.dir/__/__/mesh/access/src/access_publish.c.obj
 .bss.m_element_pool
                0x2000249c        0xc examples/serial/CMakeFiles/serial_nrf51422_xxAC_s130_2.0.1.dir/__/__/mesh/access/src/access.c.obj
 .bss.m_evt_handler
                0x200024a8        0x8 examples/serial/CMakeFiles/serial_nrf51422_xxAC_s130_2.0.1.dir/__/__/mesh/access/src/access.c.obj
 .bss.m_flash_manager
                0x200024b0       0x24 examples/serial/CMakeFiles/serial_nrf51422_xxAC_s130_2.0.1.dir/__/__/mesh/access/src/access.c.obj
 .bss.m_flash_not_ready
                0x200024d4        0x1 examples/serial/CMakeFiles/serial_nrf51422_xxAC_s130_2.0.1.dir/__/__/mesh/access/src/access.c.obj
 .bss.m_metadata_stored
                0x200024d5        0x1 examples/serial/CMakeFiles/serial_nrf51422_xxAC_s130_2.0.1.dir/__/__/mesh/access/src/access.c.obj
 *fill*         0x200024d6        0x2 
 .bss.m_model_pool
                0x200024d8       0x34 examples/serial/CMakeFiles/serial_nrf51422_xxAC_s130_2.0.1.dir/__/__/mesh/access/src/access.c.obj
 .bss.m_subscription_list_pool
                0x2000250c        0x8 examples/serial/CMakeFiles/serial_nrf51422_xxAC_s130_2.0.1.dir/__/__/mesh/access/src/access.c.obj
 .bss.m_reliable
                0x20002514       0x48 examples/serial/CMakeFiles/serial_nrf51422_xxAC_s130_2.0.1.dir/__/__/mesh/access/src/access_reliable.c.obj
 .bss.m_addr_nonvirtual_allocated
                0x2000255c        0x4 examples/serial/CMakeFiles/serial_nrf51422_xxAC_s130_2.0.1.dir/__/__/mesh/access/src/device_state_manager.c.obj
 .bss.m_addr_nonvirtual_needs_flashing
                0x20002560        0x4 examples/serial/CMakeFiles/serial_nrf51422_xxAC_s130_2.0.1.dir/__/__/mesh/access/src/device_state_manager.c.obj
 .bss.m_addr_unicast_allocated
                0x20002564        0x4 examples/serial/CMakeFiles/serial_nrf51422_xxAC_s130_2.0.1.dir/__/__/mesh/access/src/device_state_manager.c.obj
 .bss.m_addr_unicast_needs_flashing
                0x20002568        0x4 examples/serial/CMakeFiles/serial_nrf51422_xxAC_s130_2.0.1.dir/__/__/mesh/access/src/device_state_manager.c.obj
 .bss.m_addr_virtual_allocated
                0x2000256c        0x4 examples/serial/CMakeFiles/serial_nrf51422_xxAC_s130_2.0.1.dir/__/__/mesh/access/src/device_state_manager.c.obj
 .bss.m_addr_virtual_needs_flashing
                0x20002570        0x4 examples/serial/CMakeFiles/serial_nrf51422_xxAC_s130_2.0.1.dir/__/__/mesh/access/src/device_state_manager.c.obj
 .bss.m_addresses
                0x20002574       0x40 examples/serial/CMakeFiles/serial_nrf51422_xxAC_s130_2.0.1.dir/__/__/mesh/access/src/device_state_manager.c.obj
 .bss.m_appkey_allocated
                0x200025b4        0x4 examples/serial/CMakeFiles/serial_nrf51422_xxAC_s130_2.0.1.dir/__/__/mesh/access/src/device_state_manager.c.obj
 .bss.m_appkey_needs_flashing
                0x200025b8        0x4 examples/serial/CMakeFiles/serial_nrf51422_xxAC_s130_2.0.1.dir/__/__/mesh/access/src/device_state_manager.c.obj
 .bss.m_appkeys
                0x200025bc      0x150 examples/serial/CMakeFiles/serial_nrf51422_xxAC_s130_2.0.1.dir/__/__/mesh/access/src/device_state_manager.c.obj
 .bss.m_devkey_allocated
                0x2000270c        0x4 examples/serial/CMakeFiles/serial_nrf51422_xxAC_s130_2.0.1.dir/__/__/mesh/access/src/device_state_manager.c.obj
 .bss.m_devkey_needs_flashing
                0x20002710        0x4 examples/serial/CMakeFiles/serial_nrf51422_xxAC_s130_2.0.1.dir/__/__/mesh/access/src/device_state_manager.c.obj
 .bss.m_devkeys
                0x20002714       0x42 examples/serial/CMakeFiles/serial_nrf51422_xxAC_s130_2.0.1.dir/__/__/mesh/access/src/device_state_manager.c.obj
 .bss.m_flash_is_available
                0x20002756        0x1 examples/serial/CMakeFiles/serial_nrf51422_xxAC_s130_2.0.1.dir/__/__/mesh/access/src/device_state_manager.c.obj
 *fill*         0x20002757        0x1 
 .bss.m_flash_manager
                0x20002758       0x24 examples/serial/CMakeFiles/serial_nrf51422_xxAC_s130_2.0.1.dir/__/__/mesh/access/src/device_state_manager.c.obj
 .bss.m_flash_mem_listener_update_all
                0x2000277c       0x10 examples/serial/CMakeFiles/serial_nrf51422_xxAC_s130_2.0.1.dir/__/__/mesh/access/src/device_state_manager.c.obj
 .bss.m_has_primary_subnet
                0x2000278c        0x1 examples/serial/CMakeFiles/serial_nrf51422_xxAC_s130_2.0.1.dir/__/__/mesh/access/src/device_state_manager.c.obj
 *fill*         0x2000278d        0x1 
 .bss.m_local_unicast_addr
                0x2000278e        0x4 examples/serial/CMakeFiles/serial_nrf51422_xxAC_s130_2.0.1.dir/__/__/mesh/access/src/device_state_manager.c.obj
 *fill*         0x20002792        0x2 
 .bss.m_subnet_allocated
                0x20002794        0x4 examples/serial/CMakeFiles/serial_nrf51422_xxAC_s130_2.0.1.dir/__/__/mesh/access/src/device_state_manager.c.obj
 .bss.m_subnet_needs_flashing
                0x20002798        0x4 examples/serial/CMakeFiles/serial_nrf51422_xxAC_s130_2.0.1.dir/__/__/mesh/access/src/device_state_manager.c.obj
 .bss.m_subnets
                0x2000279c      0x2b0 examples/serial/CMakeFiles/serial_nrf51422_xxAC_s130_2.0.1.dir/__/__/mesh/access/src/device_state_manager.c.obj
 .bss.m_virtual_addresses
                0x20002a4c       0xa0 examples/serial/CMakeFiles/serial_nrf51422_xxAC_s130_2.0.1.dir/__/__/mesh/access/src/device_state_manager.c.obj
 .bss.m_can_receive
                0x20002aec        0x1 examples/serial/CMakeFiles/serial_nrf51422_xxAC_s130_2.0.1.dir/__/__/mesh/serial/src/serial_uart.c.obj
 *fill*         0x20002aed        0x3 
 .bss.m_char_rx_cb
                0x20002af0        0x4 examples/serial/CMakeFiles/serial_nrf51422_xxAC_s130_2.0.1.dir/__/__/mesh/serial/src/serial_uart.c.obj
 .bss.m_char_tx_cb
                0x20002af4        0x4 examples/serial/CMakeFiles/serial_nrf51422_xxAC_s130_2.0.1.dir/__/__/mesh/serial/src/serial_uart.c.obj
 .bss.m_cur_tx_packet_index
                0x20002af8        0x2 examples/serial/CMakeFiles/serial_nrf51422_xxAC_s130_2.0.1.dir/__/__/mesh/serial/src/serial_bearer.c.obj
 *fill*         0x20002afa        0x2 
 .bss.m_event_flag
                0x20002afc        0x4 examples/serial/CMakeFiles/serial_nrf51422_xxAC_s130_2.0.1.dir/__/__/mesh/serial/src/serial_bearer.c.obj
 .bss.m_ignore_rx_count
                0x20002b00        0x2 examples/serial/CMakeFiles/serial_nrf51422_xxAC_s130_2.0.1.dir/__/__/mesh/serial/src/serial_bearer.c.obj
 .bss.m_rx_buffer
                0x20002b02       0xd0 examples/serial/CMakeFiles/serial_nrf51422_xxAC_s130_2.0.1.dir/__/__/mesh/serial/src/serial_bearer.c.obj
 *fill*         0x20002bd2        0x2 
 .bss.m_rx_packet_buf
                0x20002bd4        0xc examples/serial/CMakeFiles/serial_nrf51422_xxAC_s130_2.0.1.dir/__/__/mesh/serial/src/serial_bearer.c.obj
 .bss.m_serial_state
                0x20002be0        0x1 examples/serial/CMakeFiles/serial_nrf51422_xxAC_s130_2.0.1.dir/__/__/mesh/serial/src/serial_bearer.c.obj
 *fill*         0x20002be1        0x1 
 .bss.m_stored_pac_len
                0x20002be2        0x2 examples/serial/CMakeFiles/serial_nrf51422_xxAC_s130_2.0.1.dir/__/__/mesh/serial/src/serial_bearer.c.obj
 .bss.m_tx_buffer
                0x20002be4       0xd0 examples/serial/CMakeFiles/serial_nrf51422_xxAC_s130_2.0.1.dir/__/__/mesh/serial/src/serial_bearer.c.obj
 .bss.m_tx_packet_buf
                0x20002cb4        0xc examples/serial/CMakeFiles/serial_nrf51422_xxAC_s130_2.0.1.dir/__/__/mesh/serial/src/serial_bearer.c.obj
 .bss.mp_current_rx_packet
                0x20002cc0        0x4 examples/serial/CMakeFiles/serial_nrf51422_xxAC_s130_2.0.1.dir/__/__/mesh/serial/src/serial_bearer.c.obj
 .bss.mp_current_tx_packet
                0x20002cc4        0x4 examples/serial/CMakeFiles/serial_nrf51422_xxAC_s130_2.0.1.dir/__/__/mesh/serial/src/serial_bearer.c.obj
 .bss.rx_index.8629
                0x20002cc8        0x2 examples/serial/CMakeFiles/serial_nrf51422_xxAC_s130_2.0.1.dir/__/__/mesh/serial/src/serial_bearer.c.obj
 .bss.m_cmd_handler_scheduled
                0x20002cca        0x1 examples/serial/CMakeFiles/serial_nrf51422_xxAC_s130_2.0.1.dir/__/__/mesh/serial/src/serial.c.obj
 .bss.m_state   0x20002ccb        0x1 examples/serial/CMakeFiles/serial_nrf51422_xxAC_s130_2.0.1.dir/__/__/mesh/serial/src/serial.c.obj
 .bss.m_pb_adv_contexts
                0x20002ccc      0x380 examples/serial/CMakeFiles/serial_nrf51422_xxAC_s130_2.0.1.dir/__/__/mesh/serial/src/serial_handler_prov.c.obj
 .bss.m_private_key
                0x2000304c       0x20 examples/serial/CMakeFiles/serial_nrf51422_xxAC_s130_2.0.1.dir/__/__/mesh/serial/src/serial_handler_prov.c.obj
 .bss.m_prov_contexts
                0x2000306c      0x260 examples/serial/CMakeFiles/serial_nrf51422_xxAC_s130_2.0.1.dir/__/__/mesh/serial/src/serial_handler_prov.c.obj
 .bss.m_provisioning_caps
                0x200032cc        0xb examples/serial/CMakeFiles/serial_nrf51422_xxAC_s130_2.0.1.dir/__/__/mesh/serial/src/serial_handler_prov.c.obj
 .bss.m_public_key
                0x200032d7       0x40 examples/serial/CMakeFiles/serial_nrf51422_xxAC_s130_2.0.1.dir/__/__/mesh/serial/src/serial_handler_prov.c.obj
 .bss.m_scanning_running
                0x20003317        0x1 examples/serial/CMakeFiles/serial_nrf51422_xxAC_s130_2.0.1.dir/__/__/mesh/serial/src/serial_handler_prov.c.obj
 .bss.m_evt_handler
                0x20003318        0x8 examples/serial/CMakeFiles/serial_nrf51422_xxAC_s130_2.0.1.dir/__/__/mesh/serial/src/serial_handler_dfu.c.obj
 .bss.m_evt_handler
                0x20003320        0x8 examples/serial/CMakeFiles/serial_nrf51422_xxAC_s130_2.0.1.dir/__/__/mesh/serial/src/serial_handler_mesh.c.obj
 .bss.p_serial_evt.8788
                0x20003328        0x4 examples/serial/CMakeFiles/serial_nrf51422_xxAC_s130_2.0.1.dir/__/__/mesh/serial/src/serial_handler_mesh.c.obj
 .bss.m_models_list
                0x2000332c        0xc examples/serial/CMakeFiles/serial_nrf51422_xxAC_s130_2.0.1.dir/__/__/mesh/serial/src/serial_handler_models.c.obj
 .bss.m_beacons
                0x20003338      0x134 examples/serial/CMakeFiles/serial_nrf51422_xxAC_s130_2.0.1.dir/__/__/mesh/serial/src/serial_handler_device.c.obj
 .bss.m_app_rx_cb
                0x2000346c        0x4 examples/serial/CMakeFiles/serial_nrf51422_xxAC_s130_2.0.1.dir/__/__/mesh/serial/src/serial_handler_app.c.obj
 .bss.m_internal_event_fifo
                0x20003470       0x14 mesh/core/libmesh_core_nrf51422_xxAC.a(internal_event.c.obj)
 .bss.m_internal_event_fifo_buffer
                0x20003484      0x100 mesh/core/libmesh_core_nrf51422_xxAC.a(internal_event.c.obj)
 .bss.m_internal_event_initialized
                0x20003584        0x1 mesh/core/libmesh_core_nrf51422_xxAC.a(internal_event.c.obj)
 *fill*         0x20003585        0x3 
 .bss.m_report_cb
                0x20003588        0x4 mesh/core/libmesh_core_nrf51422_xxAC.a(internal_event.c.obj)
 .bss.m_uuid    0x2000358c       0x10 mesh/core/libmesh_core_nrf51422_xxAC.a(nrf_mesh_configure.c.obj)
 .bss.mp_evt_handlers_head
                0x2000359c        0x4 mesh/core/libmesh_core_nrf51422_xxAC.a(event.c.obj)
 .bss.lock_count.7227
                0x200035a0        0x4 mesh/core/libmesh_core_nrf51422_xxAC.a(net_state.c.obj)
 .bss.m_flash_manager
                0x200035a4       0x24 mesh/core/libmesh_core_nrf51422_xxAC.a(net_state.c.obj)
 .bss.m_iv_update_timer
                0x200035c8       0x18 mesh/core/libmesh_core_nrf51422_xxAC.a(net_state.c.obj)
 .bss.m_net_state
                0x200035e0       0x14 mesh/core/libmesh_core_nrf51422_xxAC.a(net_state.c.obj)
 .bss.m_seqnum_allocation_in_progress
                0x200035f4        0x1 mesh/core/libmesh_core_nrf51422_xxAC.a(net_state.c.obj)
 .bss.m_test_mode
                0x200035f5        0x1 mesh/core/libmesh_core_nrf51422_xxAC.a(net_state.c.obj)
 .bss.m_is_enabled
                0x200035f6        0x1 mesh/core/libmesh_core_nrf51422_xxAC.a(nrf_mesh.c.obj)
 .bss.m_is_initialized
                0x200035f7        0x1 mesh/core/libmesh_core_nrf51422_xxAC.a(nrf_mesh.c.obj)
 .bss.m_rx_cb   0x200035f8        0x4 mesh/core/libmesh_core_nrf51422_xxAC.a(nrf_mesh.c.obj)
 .bss.m_event_flag
                0x200035fc        0x4 mesh/core/libmesh_core_nrf51422_xxAC.a(timer_scheduler.c.obj)
 .bss.m_scheduler
                0x20003600       0x10 mesh/core/libmesh_core_nrf51422_xxAC.a(timer_scheduler.c.obj)
 .bss.m_attributes
                0x20003610        0x3 mesh/core/libmesh_core_nrf51422_xxAC.a(timer.c.obj)
 *fill*         0x20003613        0x1 
 .bss.m_callbacks
                0x20003614        0xc mesh/core/libmesh_core_nrf51422_xxAC.a(timer.c.obj)
 .bss.m_is_in_ts
                0x20003620        0x1 mesh/core/libmesh_core_nrf51422_xxAC.a(timer.c.obj)
 *fill*         0x20003621        0x3 
 .bss.m_reference_time
                0x20003624        0x4 mesh/core/libmesh_core_nrf51422_xxAC.a(timer.c.obj)
 .bss.m_timeouts
                0x20003628        0xc mesh/core/libmesh_core_nrf51422_xxAC.a(timer.c.obj)
 .bss.m_timer_mut
                0x20003634        0x4 mesh/core/libmesh_core_nrf51422_xxAC.a(timer.c.obj)
 .bss.m_ts_end_time
                0x20003638        0x4 mesh/core/libmesh_core_nrf51422_xxAC.a(timer.c.obj)
 .bss.mp_ppi_tasks
                0x2000363c        0xc mesh/core/libmesh_core_nrf51422_xxAC.a(timer.c.obj)
 .bss.m_current_time
                0x20003648        0x4 mesh/core/libmesh_core_nrf51422_xxAC.a(ticker.c.obj)
 .bss.m_timer   0x2000364c       0x18 mesh/core/libmesh_core_nrf51422_xxAC.a(ticker.c.obj)
 .bss.m_current_timeslot
                0x20003664       0x1c mesh/core/libmesh_core_nrf51422_xxAC.a(timeslot.c.obj)
 .bss.m_lfclk_ppm
                0x20003680        0x4 mesh/core/libmesh_core_nrf51422_xxAC.a(timeslot.c.obj)
 .bss.m_radio_request_earliest
                0x20003684       0x10 mesh/core/libmesh_core_nrf51422_xxAC.a(timeslot.c.obj)
 .bss.m_state_lock
                0x20003694        0x1 mesh/core/libmesh_core_nrf51422_xxAC.a(timeslot.c.obj)
 .bss.m_timeslot_forced_command
                0x20003695        0x1 mesh/core/libmesh_core_nrf51422_xxAC.a(timeslot.c.obj)
 *fill*         0x20003696        0x2 
 .bss.s_last_rtc_value.6691
                0x20003698        0x8 mesh/core/libmesh_core_nrf51422_xxAC.a(timeslot.c.obj)
 .bss.m_bearer_event_fifo
                0x200036a0       0x14 mesh/core/libmesh_core_nrf51422_xxAC.a(bearer_event.c.obj)
 .bss.m_bearer_event_fifo_buffer
                0x200036b4      0x100 mesh/core/libmesh_core_nrf51422_xxAC.a(bearer_event.c.obj)
 .bss.m_critical
                0x200037b4        0x4 mesh/core/libmesh_core_nrf51422_xxAC.a(bearer_event.c.obj)
 .bss.m_flag_count
                0x200037b8        0x4 mesh/core/libmesh_core_nrf51422_xxAC.a(bearer_event.c.obj)
 .bss.m_flag_event_callbacks
                0x200037bc       0x20 mesh/core/libmesh_core_nrf51422_xxAC.a(bearer_event.c.obj)
 .bss.m_flags   0x200037dc        0x4 mesh/core/libmesh_core_nrf51422_xxAC.a(bearer_event.c.obj)
 .bss.m_irq_priority
                0x200037e0        0x1 mesh/core/libmesh_core_nrf51422_xxAC.a(bearer_event.c.obj)
 *fill*         0x200037e1        0x3 
 .bss.m_sequential_event_queue
                0x200037e4        0x8 mesh/core/libmesh_core_nrf51422_xxAC.a(bearer_event.c.obj)
 .bss.s_recursion_guard.6813
                0x200037ec        0x1 mesh/core/libmesh_core_nrf51422_xxAC.a(bearer_event.c.obj)
 *fill*         0x200037ed        0x3 
 .bss.m_relay_check_cb
                0x200037f0        0x4 mesh/core/libmesh_core_nrf51422_xxAC.a(network.c.obj)
 .bss.m_relay_enable
                0x200037f4        0x1 mesh/core/libmesh_core_nrf51422_xxAC.a(network.c.obj)
 *fill*         0x200037f5        0x3 
 .bss.m_action_queue
                0x200037f8        0xc mesh/core/libmesh_core_nrf51422_xxAC.a(flash_manager.c.obj)
 .bss.m_action_queue_buffer
                0x20003804      0x104 mesh/core/libmesh_core_nrf51422_xxAC.a(flash_manager.c.obj)
 .bss.m_action_state
                0x20003908        0x1 mesh/core/libmesh_core_nrf51422_xxAC.a(flash_manager.c.obj)
 *fill*         0x20003909        0x3 
 .bss.m_memory_listener_queue
                0x2000390c        0x8 mesh/core/libmesh_core_nrf51422_xxAC.a(flash_manager.c.obj)
 .bss.m_processing_flag
                0x20003914        0x4 mesh/core/libmesh_core_nrf51422_xxAC.a(flash_manager.c.obj)
 .bss.m_queue_empty_cb
                0x20003918        0x4 mesh/core/libmesh_core_nrf51422_xxAC.a(flash_manager.c.obj)
 .bss.m_state   0x2000391c        0x1 mesh/core/libmesh_core_nrf51422_xxAC.a(flash_manager.c.obj)
 *fill*         0x2000391d        0x1 
 .bss.m_token   0x2000391e        0x2 mesh/core/libmesh_core_nrf51422_xxAC.a(flash_manager.c.obj)
 .bss.p_current.8541
                0x20003920        0x4 mesh/core/libmesh_core_nrf51422_xxAC.a(flash_manager.c.obj)
 .bss.result.8542
                0x20003924        0x1 mesh/core/libmesh_core_nrf51422_xxAC.a(flash_manager.c.obj)
 *fill*         0x20003925        0x3 
 .bss.m_adv_buffer
                0x20003928       0x68 mesh/core/libmesh_core_nrf51422_xxAC.a(beacon.c.obj)
 .bss.m_advertiser
                0x20003990       0x94 mesh/core/libmesh_core_nrf51422_xxAC.a(beacon.c.obj)
 .bss.m_bearers
                0x20003a24        0x4 mesh/core/libmesh_core_nrf51422_xxAC.a(core_tx.c.obj)
 .bss.m_tx_complete_callback
                0x20003a28        0x4 mesh/core/libmesh_core_nrf51422_xxAC.a(core_tx.c.obj)
 .bss.m_hb_core_evt_handler
                0x20003a2c        0x8 mesh/core/libmesh_core_nrf51422_xxAC.a(heartbeat.c.obj)
 .bss.m_hb_pending_feat_msg
                0x20003a34        0x1 mesh/core/libmesh_core_nrf51422_xxAC.a(heartbeat.c.obj)
 .bss.m_hb_pending_pub_msg
                0x20003a35        0x1 mesh/core/libmesh_core_nrf51422_xxAC.a(heartbeat.c.obj)
 .bss.m_heartbeat_init_done
                0x20003a36        0x1 mesh/core/libmesh_core_nrf51422_xxAC.a(heartbeat.c.obj)
 *fill*         0x20003a37        0x1 
 .bss.m_heartbeat_subscription
                0x20003a38       0x10 mesh/core/libmesh_core_nrf51422_xxAC.a(heartbeat.c.obj)
 .bss.m_publication_count_decrement_cb
                0x20003a48        0x4 mesh/core/libmesh_core_nrf51422_xxAC.a(heartbeat.c.obj)
 .bss.m_publication_get_cb
                0x20003a4c        0x4 mesh/core/libmesh_core_nrf51422_xxAC.a(heartbeat.c.obj)
 .bss.m_publication_timer
                0x20003a50       0x1c mesh/core/libmesh_core_nrf51422_xxAC.a(heartbeat.c.obj)
 .bss.m_subscription_timer
                0x20003a6c       0x18 mesh/core/libmesh_core_nrf51422_xxAC.a(heartbeat.c.obj)
 .bss.m_beacon_salt
                0x20003a84       0x10 mesh/core/libmesh_core_nrf51422_xxAC.a(net_beacon.c.obj)
 .bss.m_enabled
                0x20003a94        0x1 mesh/core/libmesh_core_nrf51422_xxAC.a(net_beacon.c.obj)
 *fill*         0x20003a95        0x3 
 .bss.m_tx_event
                0x20003a98       0x18 mesh/core/libmesh_core_nrf51422_xxAC.a(net_beacon.c.obj)
 .bss.m_adv_tx_count
                0x20003ab0        0x8 mesh/core/libmesh_core_nrf51422_xxAC.a(core_tx_adv.c.obj)
 .bss.m_advertisers
                0x20003ab8      0x128 mesh/core/libmesh_core_nrf51422_xxAC.a(core_tx_adv.c.obj)
 .bss.m_originator_adv_packet_buffer
                0x20003be0      0x100 mesh/core/libmesh_core_nrf51422_xxAC.a(core_tx_adv.c.obj)
 .bss.m_relay_adv_packet_buffer
                0x20003ce0       0x80 mesh/core/libmesh_core_nrf51422_xxAC.a(core_tx_adv.c.obj)
 .bss.m_subscribers
                0x20003d60        0x4 mesh/core/libmesh_core_nrf51422_xxAC.a(ad_listener.c.obj)
 .bss.m_adtype_filter
                0x20003d64       0x38 mesh/core/libmesh_core_nrf51422_xxAC.a(ad_type_filter.c.obj)
 .bss.m_adv_prng
                0x20003d9c       0x10 mesh/core/libmesh_core_nrf51422_xxAC.a(advertiser.c.obj)
 .bss.m_action_queue
                0x20003dac        0x8 mesh/core/libmesh_core_nrf51422_xxAC.a(bearer_handler.c.obj)
 .bss.m_end_time
                0x20003db4        0x4 mesh/core/libmesh_core_nrf51422_xxAC.a(bearer_handler.c.obj)
 .bss.m_scanner_is_active
                0x20003db8        0x1 mesh/core/libmesh_core_nrf51422_xxAC.a(bearer_handler.c.obj)
 .bss.m_stopped
                0x20003db9        0x1 mesh/core/libmesh_core_nrf51422_xxAC.a(bearer_handler.c.obj)
 *fill*         0x20003dba        0x2 
 .bss.mp_action
                0x20003dbc        0x4 mesh/core/libmesh_core_nrf51422_xxAC.a(bearer_handler.c.obj)
 .bss.m_next_channel_index
                0x20003dc0        0x1 mesh/core/libmesh_core_nrf51422_xxAC.a(broadcast.c.obj)
 *fill*         0x20003dc1        0x3 
 .bss.m_accepted_amount
                0x20003dc4        0x4 mesh/core/libmesh_core_nrf51422_xxAC.a(filter_engine.c.obj)
 .bss.m_filter_list_head
                0x20003dc8        0x4 mesh/core/libmesh_core_nrf51422_xxAC.a(filter_engine.c.obj)
 .bss.m_scanner
                0x20003dcc      0x28c mesh/core/libmesh_core_nrf51422_xxAC.a(scanner.c.obj)
 .bss.m_msg_cache
                0x20004058      0x100 mesh/core/libmesh_core_nrf51422_xxAC.a(msg_cache.c.obj)
 .bss.m_msg_cache_head
                0x20004158        0x4 mesh/core/libmesh_core_nrf51422_xxAC.a(msg_cache.c.obj)
 .bss.m_control_packet_consumer_count
                0x2000415c        0x4 mesh/core/libmesh_core_nrf51422_xxAC.a(transport.c.obj)
 .bss.m_control_packet_consumers
                0x20004160        0x8 mesh/core/libmesh_core_nrf51422_xxAC.a(transport.c.obj)
 .bss.m_sar_alloc
                0x20004168        0x4 mesh/core/libmesh_core_nrf51422_xxAC.a(transport.c.obj)
 .bss.m_sar_process_flag
                0x2000416c        0x4 mesh/core/libmesh_core_nrf51422_xxAC.a(transport.c.obj)
 .bss.m_sar_release
                0x20004170        0x4 mesh/core/libmesh_core_nrf51422_xxAC.a(transport.c.obj)
 .bss.m_sar_session_cache
                0x20004174       0x40 mesh/core/libmesh_core_nrf51422_xxAC.a(transport.c.obj)
 .bss.m_sar_session_cache_head
                0x200041b4        0x4 mesh/core/libmesh_core_nrf51422_xxAC.a(transport.c.obj)
 .bss.m_trs_config
                0x200041b8       0x18 mesh/core/libmesh_core_nrf51422_xxAC.a(transport.c.obj)
 .bss.m_trs_sar_sessions
                0x200041d0      0x1b0 mesh/core/libmesh_core_nrf51422_xxAC.a(transport.c.obj)
 .bss.m_defrag  0x20004380       0x1c mesh/core/libmesh_core_nrf51422_xxAC.a(flash_manager_defrag.c.obj)
 .bss.m_token   0x2000439c        0x2 mesh/core/libmesh_core_nrf51422_xxAC.a(flash_manager_defrag.c.obj)
 *fill*         0x2000439e        0x2 
 .bss.mp_recovery_area
                0x200043a0        0x4 mesh/core/libmesh_core_nrf51422_xxAC.a(flash_manager_defrag.c.obj)
 .bss.p_null_ptr.7632
                0x200043a4        0x4 mesh/core/libmesh_core_nrf51422_xxAC.a(flash_manager_defrag.c.obj)
 .bss.m_pool    0x200043a8     0x1000 mesh/core/libmesh_core_nrf51422_xxAC.a(packet_mgr.c.obj)
 .bss.mp_free_head
                0x200053a8        0x4 mesh/core/libmesh_core_nrf51422_xxAC.a(packet_mgr.c.obj)
 .bss.m_event_flag
                0x200053ac        0x4 mesh/core/libmesh_core_nrf51422_xxAC.a(mesh_flash.c.obj)
 .bss.m_suspended
                0x200053b0        0x1 mesh/core/libmesh_core_nrf51422_xxAC.a(mesh_flash.c.obj)
 *fill*         0x200053b1        0x3 
 .bss.m_users   0x200053b4      0x228 mesh/core/libmesh_core_nrf51422_xxAC.a(mesh_flash.c.obj)
 .bss.m_128buf  0x200055dc       0x10 mesh/core/libmesh_core_nrf51422_xxAC.a(aes_cmac.c.obj)
 .bss.m_subkey1
                0x200055ec       0x10 mesh/core/libmesh_core_nrf51422_xxAC.a(aes_cmac.c.obj)
 .bss.m_subkey2
                0x200055fc       0x10 mesh/core/libmesh_core_nrf51422_xxAC.a(aes_cmac.c.obj)
 .bss.m_cache_full
                0x2000560c        0x1 mesh/core/libmesh_core_nrf51422_xxAC.a(replay_cache.c.obj)
 .bss.m_cache_index
                0x2000560d        0x1 mesh/core/libmesh_core_nrf51422_xxAC.a(replay_cache.c.obj)
 *fill*         0x2000560e        0x2 
 .bss.m_replay_cache
                0x20005610      0x200 mesh/core/libmesh_core_nrf51422_xxAC.a(replay_cache.c.obj)
 .bss._acDownBuffer
                0x20005810       0x80 external/rtt/librtt_nrf51422_xxAC.a(SEGGER_RTT.c.obj)
 .bss._acUpBuffer
                0x20005890      0x400 external/rtt/librtt_nrf51422_xxAC.a(SEGGER_RTT.c.obj)
 .bss.__malloc_free_list
                0x20005c90        0x4 c:/a/gcc_arm/6/bin/../lib/gcc/arm-none-eabi/6.3.1/../../../../arm-none-eabi/lib/thumb/v6-m\libg_nano.a(lib_a-nano-mallocr.o)
                0x20005c90                __malloc_free_list
 .bss.__malloc_sbrk_start
                0x20005c94        0x4 c:/a/gcc_arm/6/bin/../lib/gcc/arm-none-eabi/6.3.1/../../../../arm-none-eabi/lib/thumb/v6-m\libg_nano.a(lib_a-nano-mallocr.o)
                0x20005c94                __malloc_sbrk_start
 .bss.heap_end.4116
                0x20005c98        0x4 c:/a/gcc_arm/6/bin/../lib/gcc/arm-none-eabi/6.3.1/../../../../arm-none-eabi/lib/thumb/v6-m\libnosys.a(sbrk.o)
 *(COMMON)
 COMMON         0x20005c9c        0x8 examples/serial/CMakeFiles/serial_nrf51422_xxAC_s130_2.0.1.dir/__/nrf_mesh_sdk.c.obj
                0x20005c9c                nrf_nvic_state
 COMMON         0x20005ca4        0x4 mesh/core/libmesh_core_nrf51422_xxAC.a(nrf_mesh.c.obj)
                0x20005ca4                m_assertion_handler
 COMMON         0x20005ca8       0x78 external/rtt/librtt_nrf51422_xxAC.a(SEGGER_RTT.c.obj)
                0x20005ca8                _SEGGER_RTT
 COMMON         0x20005d20        0x4 c:/a/gcc_arm/6/bin/../lib/gcc/arm-none-eabi/6.3.1/../../../../arm-none-eabi/lib/thumb/v6-m\libg_nano.a(lib_a-reent.o)
                0x20005d20                errno
                0x20005d24                . = ALIGN (0x4)
                0x20005d24                __bss_end__ = .

.heap           0x20005d28      0x800
                0x20005d28                __HeapBase = .
                0x20005d28                __end__ = .
                0x20005d28                PROVIDE (end, .)
 *(.heap*)
 .heap          0x20005d28      0x800 examples/serial/CMakeFiles/serial_nrf51422_xxAC_s130_2.0.1.dir/__/__/external/nRF5_SDK_14.2.0_17b948a/components/toolchain/gcc/gcc_startup_nrf51.S.obj
                0x20006528                __HeapLimit = .

.stack_dummy    0x20005d28      0x800
 *(.stack*)
 .stack         0x20005d28      0x800 examples/serial/CMakeFiles/serial_nrf51422_xxAC_s130_2.0.1.dir/__/__/external/nRF5_SDK_14.2.0_17b948a/components/toolchain/gcc/gcc_startup_nrf51.S.obj
                0x20007d00                __StackTop = (ORIGIN (RAM) + LENGTH (RAM))
                0x20007500                __StackLimit = (__StackTop - SIZEOF (.stack_dummy))
                0x20007d00                PROVIDE (__stack, __StackTop)
                0x00000001                ASSERT ((__StackLimit >= __HeapLimit), region RAM overflowed with stack)
                0x00000130                DataInitFlashUsed = (__bss_start__ - __data_start__)
                0x000137a4                CodeFlashUsed = (__etext - ORIGIN (FLASH))
                0x000138d4                TotalFlashUsed = (CodeFlashUsed + DataInitFlashUsed)
                0x00000001                ASSERT ((TotalFlashUsed <= LENGTH (FLASH)), region FLASH overflowed with .data and user data)
OUTPUT(examples\serial\serial_nrf51422_xxAC_s130_2.0.1.elf elf32-littlearm)

.ARM.attributes
                0x00000000       0x28
 .ARM.attributes
                0x00000000       0x1e c:/a/gcc_arm/6/bin/../lib/gcc/arm-none-eabi/6.3.1/thumb/v6-m/crti.o
 .ARM.attributes
                0x0000001e       0x2c c:/a/gcc_arm/6/bin/../lib/gcc/arm-none-eabi/6.3.1/thumb/v6-m/crtbegin.o
 .ARM.attributes
                0x0000004a       0x1b c:/a/gcc_arm/6/bin/../lib/gcc/arm-none-eabi/6.3.1/../../../../arm-none-eabi/lib/thumb/v6-m/crt0.o
 .ARM.attributes
                0x00000065       0x31 examples/serial/CMakeFiles/serial_nrf51422_xxAC_s130_2.0.1.dir/src/main.c.obj
 .ARM.attributes
                0x00000096       0x31 examples/serial/CMakeFiles/serial_nrf51422_xxAC_s130_2.0.1.dir/__/nrf_mesh_sdk.c.obj
 .ARM.attributes
                0x000000c7       0x31 examples/serial/CMakeFiles/serial_nrf51422_xxAC_s130_2.0.1.dir/__/__/mesh/prov/src/prov_provisioner.c.obj
 .ARM.attributes
                0x000000f8       0x31 examples/serial/CMakeFiles/serial_nrf51422_xxAC_s130_2.0.1.dir/__/__/mesh/prov/src/prov_provisionee.c.obj
 .ARM.attributes
                0x00000129       0x31 examples/serial/CMakeFiles/serial_nrf51422_xxAC_s130_2.0.1.dir/__/__/mesh/prov/src/nrf_mesh_prov.c.obj
 .ARM.attributes
                0x0000015a       0x31 examples/serial/CMakeFiles/serial_nrf51422_xxAC_s130_2.0.1.dir/__/__/mesh/prov/src/provisioning.c.obj
 .ARM.attributes
                0x0000018b       0x31 examples/serial/CMakeFiles/serial_nrf51422_xxAC_s130_2.0.1.dir/__/__/mesh/prov/src/prov_beacon.c.obj
 .ARM.attributes
                0x000001bc       0x31 examples/serial/CMakeFiles/serial_nrf51422_xxAC_s130_2.0.1.dir/__/__/mesh/prov/src/prov_utils.c.obj
 .ARM.attributes
                0x000001ed       0x31 examples/serial/CMakeFiles/serial_nrf51422_xxAC_s130_2.0.1.dir/__/__/mesh/prov/src/prov_bearer_adv.c.obj
 .ARM.attributes
                0x0000021e       0x31 examples/serial/CMakeFiles/serial_nrf51422_xxAC_s130_2.0.1.dir/__/__/mesh/access/src/access_publish.c.obj
 .ARM.attributes
                0x0000024f       0x31 examples/serial/CMakeFiles/serial_nrf51422_xxAC_s130_2.0.1.dir/__/__/mesh/access/src/access.c.obj
 .ARM.attributes
                0x00000280       0x31 examples/serial/CMakeFiles/serial_nrf51422_xxAC_s130_2.0.1.dir/__/__/mesh/access/src/access_reliable.c.obj
 .ARM.attributes
                0x000002b1       0x31 examples/serial/CMakeFiles/serial_nrf51422_xxAC_s130_2.0.1.dir/__/__/mesh/access/src/device_state_manager.c.obj
 .ARM.attributes
                0x000002e2       0x31 examples/serial/CMakeFiles/serial_nrf51422_xxAC_s130_2.0.1.dir/__/__/mesh/serial/src/serial_uart.c.obj
 .ARM.attributes
                0x00000313       0x31 examples/serial/CMakeFiles/serial_nrf51422_xxAC_s130_2.0.1.dir/__/__/mesh/serial/src/serial_bearer.c.obj
 .ARM.attributes
                0x00000344       0x31 examples/serial/CMakeFiles/serial_nrf51422_xxAC_s130_2.0.1.dir/__/__/mesh/serial/src/serial_handler_common.c.obj
 .ARM.attributes
                0x00000375       0x31 examples/serial/CMakeFiles/serial_nrf51422_xxAC_s130_2.0.1.dir/__/__/mesh/serial/src/serial_handler_access.c.obj
 .ARM.attributes
                0x000003a6       0x31 examples/serial/CMakeFiles/serial_nrf51422_xxAC_s130_2.0.1.dir/__/__/mesh/serial/src/serial_handler_config.c.obj
 .ARM.attributes
                0x000003d7       0x31 examples/serial/CMakeFiles/serial_nrf51422_xxAC_s130_2.0.1.dir/__/__/mesh/serial/src/serial_handler_openmesh.c.obj
 .ARM.attributes
                0x00000408       0x31 examples/serial/CMakeFiles/serial_nrf51422_xxAC_s130_2.0.1.dir/__/__/mesh/serial/src/serial.c.obj
 .ARM.attributes
                0x00000439       0x31 examples/serial/CMakeFiles/serial_nrf51422_xxAC_s130_2.0.1.dir/__/__/mesh/serial/src/serial_handler_prov.c.obj
 .ARM.attributes
                0x0000046a       0x31 examples/serial/CMakeFiles/serial_nrf51422_xxAC_s130_2.0.1.dir/__/__/mesh/serial/src/serial_handler_dfu.c.obj
 .ARM.attributes
                0x0000049b       0x31 examples/serial/CMakeFiles/serial_nrf51422_xxAC_s130_2.0.1.dir/__/__/mesh/serial/src/serial_handler_mesh.c.obj
 .ARM.attributes
                0x000004cc       0x31 examples/serial/CMakeFiles/serial_nrf51422_xxAC_s130_2.0.1.dir/__/__/mesh/serial/src/serial_handler_models.c.obj
 .ARM.attributes
                0x000004fd       0x31 examples/serial/CMakeFiles/serial_nrf51422_xxAC_s130_2.0.1.dir/__/__/mesh/serial/src/serial_handler_device.c.obj
 .ARM.attributes
                0x0000052e       0x31 examples/serial/CMakeFiles/serial_nrf51422_xxAC_s130_2.0.1.dir/__/__/mesh/serial/src/nrf_mesh_serial.c.obj
 .ARM.attributes
                0x0000055f       0x31 examples/serial/CMakeFiles/serial_nrf51422_xxAC_s130_2.0.1.dir/__/__/mesh/serial/src/serial_handler_app.c.obj
 .ARM.attributes
                0x00000590       0x31 examples/serial/CMakeFiles/serial_nrf51422_xxAC_s130_2.0.1.dir/__/nrf_mesh_weak.c.obj
 .ARM.attributes
                0x000005c1       0x31 examples/serial/CMakeFiles/serial_nrf51422_xxAC_s130_2.0.1.dir/__/__/external/nRF5_SDK_14.2.0_17b948a/components/toolchain/system_nrf51.c.obj
 .ARM.attributes
                0x000005f2       0x1b examples/serial/CMakeFiles/serial_nrf51422_xxAC_s130_2.0.1.dir/__/__/external/nRF5_SDK_14.2.0_17b948a/components/toolchain/gcc/gcc_startup_nrf51.S.obj
 .ARM.attributes
                0x0000060d       0x31 mesh/core/libmesh_core_nrf51422_xxAC.a(internal_event.c.obj)
 .ARM.attributes
                0x0000063e       0x31 mesh/core/libmesh_core_nrf51422_xxAC.a(nrf_mesh_configure.c.obj)
 .ARM.attributes
                0x0000066f       0x31 mesh/core/libmesh_core_nrf51422_xxAC.a(event.c.obj)
 .ARM.attributes
                0x000006a0       0x31 mesh/core/libmesh_core_nrf51422_xxAC.a(packet_buffer.c.obj)
 .ARM.attributes
                0x000006d1       0x31 mesh/core/libmesh_core_nrf51422_xxAC.a(fifo.c.obj)
 .ARM.attributes
                0x00000702       0x31 mesh/core/libmesh_core_nrf51422_xxAC.a(net_state.c.obj)
 .ARM.attributes
                0x00000733       0x31 mesh/core/libmesh_core_nrf51422_xxAC.a(nrf_mesh_utils.c.obj)
 .ARM.attributes
                0x00000764       0x31 mesh/core/libmesh_core_nrf51422_xxAC.a(nrf_mesh.c.obj)
 .ARM.attributes
                0x00000795       0x31 mesh/core/libmesh_core_nrf51422_xxAC.a(hal.c.obj)
 .ARM.attributes
                0x000007c6       0x31 mesh/core/libmesh_core_nrf51422_xxAC.a(timer_scheduler.c.obj)
 .ARM.attributes
                0x000007f7       0x31 mesh/core/libmesh_core_nrf51422_xxAC.a(timer.c.obj)
 .ARM.attributes
                0x00000828       0x31 mesh/core/libmesh_core_nrf51422_xxAC.a(ticker.c.obj)
 .ARM.attributes
                0x00000859       0x31 mesh/core/libmesh_core_nrf51422_xxAC.a(rand.c.obj)
 .ARM.attributes
                0x0000088a       0x31 mesh/core/libmesh_core_nrf51422_xxAC.a(nrf_mesh_opt.c.obj)
 .ARM.attributes
                0x000008bb       0x31 mesh/core/libmesh_core_nrf51422_xxAC.a(timeslot.c.obj)
 .ARM.attributes
                0x000008ec       0x31 mesh/core/libmesh_core_nrf51422_xxAC.a(bearer_event.c.obj)
 .ARM.attributes
                0x0000091d       0x31 mesh/core/libmesh_core_nrf51422_xxAC.a(enc.c.obj)
 .ARM.attributes
                0x0000094e       0x31 mesh/core/libmesh_core_nrf51422_xxAC.a(network.c.obj)
 .ARM.attributes
                0x0000097f       0x31 mesh/core/libmesh_core_nrf51422_xxAC.a(nrf_mesh_keygen.c.obj)
 .ARM.attributes
                0x000009b0       0x31 mesh/core/libmesh_core_nrf51422_xxAC.a(list.c.obj)
 .ARM.attributes
                0x000009e1       0x31 mesh/core/libmesh_core_nrf51422_xxAC.a(log.c.obj)
 .ARM.attributes
                0x00000a12       0x31 mesh/core/libmesh_core_nrf51422_xxAC.a(flash_manager.c.obj)
 .ARM.attributes
                0x00000a43       0x31 mesh/core/libmesh_core_nrf51422_xxAC.a(ccm_soft.c.obj)
 .ARM.attributes
                0x00000a74       0x31 mesh/core/libmesh_core_nrf51422_xxAC.a(beacon.c.obj)
 .ARM.attributes
                0x00000aa5       0x31 mesh/core/libmesh_core_nrf51422_xxAC.a(flash_manager_internal.c.obj)
 .ARM.attributes
                0x00000ad6       0x31 mesh/core/libmesh_core_nrf51422_xxAC.a(core_tx.c.obj)
 .ARM.attributes
                0x00000b07       0x31 mesh/core/libmesh_core_nrf51422_xxAC.a(heartbeat.c.obj)
 .ARM.attributes
                0x00000b38       0x31 mesh/core/libmesh_core_nrf51422_xxAC.a(net_beacon.c.obj)
 .ARM.attributes
                0x00000b69       0x31 mesh/core/libmesh_core_nrf51422_xxAC.a(core_tx_adv.c.obj)
 .ARM.attributes
                0x00000b9a       0x31 mesh/core/libmesh_core_nrf51422_xxAC.a(ad_listener.c.obj)
 .ARM.attributes
                0x00000bcb       0x31 mesh/core/libmesh_core_nrf51422_xxAC.a(ad_type_filter.c.obj)
 .ARM.attributes
                0x00000bfc       0x31 mesh/core/libmesh_core_nrf51422_xxAC.a(advertiser.c.obj)
 .ARM.attributes
                0x00000c2d       0x31 mesh/core/libmesh_core_nrf51422_xxAC.a(bearer_handler.c.obj)
 .ARM.attributes
                0x00000c5e       0x31 mesh/core/libmesh_core_nrf51422_xxAC.a(broadcast.c.obj)
 .ARM.attributes
                0x00000c8f       0x31 mesh/core/libmesh_core_nrf51422_xxAC.a(filter_engine.c.obj)
 .ARM.attributes
                0x00000cc0       0x31 mesh/core/libmesh_core_nrf51422_xxAC.a(radio_config.c.obj)
 .ARM.attributes
                0x00000cf1       0x31 mesh/core/libmesh_core_nrf51422_xxAC.a(scanner.c.obj)
 .ARM.attributes
                0x00000d22       0x31 mesh/core/libmesh_core_nrf51422_xxAC.a(aes.c.obj)
 .ARM.attributes
                0x00000d53       0x31 mesh/core/libmesh_core_nrf51422_xxAC.a(msg_cache.c.obj)
 .ARM.attributes
                0x00000d84       0x31 mesh/core/libmesh_core_nrf51422_xxAC.a(transport.c.obj)
 .ARM.attributes
                0x00000db5       0x31 mesh/core/libmesh_core_nrf51422_xxAC.a(flash_manager_defrag.c.obj)
 .ARM.attributes
                0x00000de6       0x31 mesh/core/libmesh_core_nrf51422_xxAC.a(packet_mgr.c.obj)
 .ARM.attributes
                0x00000e17       0x31 mesh/core/libmesh_core_nrf51422_xxAC.a(mesh_flash.c.obj)
 .ARM.attributes
                0x00000e48       0x31 mesh/core/libmesh_core_nrf51422_xxAC.a(queue.c.obj)
 .ARM.attributes
                0x00000e79       0x31 mesh/core/libmesh_core_nrf51422_xxAC.a(aes_cmac.c.obj)
 .ARM.attributes
                0x00000eaa       0x31 mesh/core/libmesh_core_nrf51422_xxAC.a(msqueue.c.obj)
 .ARM.attributes
                0x00000edb       0x31 mesh/core/libmesh_core_nrf51422_xxAC.a(replay_cache.c.obj)
 .ARM.attributes
                0x00000f0c       0x31 mesh/core/libmesh_core_nrf51422_xxAC.a(nrf_flash.c.obj)
 .ARM.attributes
                0x00000f3d       0x31 external/micro-ecc/libuECC_nrf51422_xxAC.a(uECC.c.obj)
 .ARM.attributes
                0x00000f6e       0x31 external/rtt/librtt_nrf51422_xxAC.a(SEGGER_RTT.c.obj)
 .ARM.attributes
                0x00000f9f       0x31 external/rtt/librtt_nrf51422_xxAC.a(SEGGER_RTT_printf.c.obj)
 .ARM.attributes
                0x00000fd0       0x1e c:/a/gcc_arm/6/bin/../lib/gcc/arm-none-eabi/6.3.1/thumb/v6-m\libgcc.a(_thumb1_case_uqi.o)
 .ARM.attributes
                0x00000fee       0x1e c:/a/gcc_arm/6/bin/../lib/gcc/arm-none-eabi/6.3.1/thumb/v6-m\libgcc.a(_thumb1_case_shi.o)
 .ARM.attributes
                0x0000100c       0x1e c:/a/gcc_arm/6/bin/../lib/gcc/arm-none-eabi/6.3.1/thumb/v6-m\libgcc.a(_thumb1_case_uhi.o)
 .ARM.attributes
                0x0000102a       0x1e c:/a/gcc_arm/6/bin/../lib/gcc/arm-none-eabi/6.3.1/thumb/v6-m\libgcc.a(_udivsi3.o)
 .ARM.attributes
                0x00001048       0x1e c:/a/gcc_arm/6/bin/../lib/gcc/arm-none-eabi/6.3.1/thumb/v6-m\libgcc.a(_divsi3.o)
 .ARM.attributes
                0x00001066       0x1e c:/a/gcc_arm/6/bin/../lib/gcc/arm-none-eabi/6.3.1/thumb/v6-m\libgcc.a(_dvmd_tls.o)
 .ARM.attributes
                0x00001084       0x2c c:/a/gcc_arm/6/bin/../lib/gcc/arm-none-eabi/6.3.1/thumb/v6-m\libgcc.a(_muldi3.o)
 .ARM.attributes
                0x000010b0       0x2c c:/a/gcc_arm/6/bin/../lib/gcc/arm-none-eabi/6.3.1/../../../../arm-none-eabi/lib/thumb/v6-m\libg_nano.a(lib_a-exit.o)
 .ARM.attributes
                0x000010dc       0x2c c:/a/gcc_arm/6/bin/../lib/gcc/arm-none-eabi/6.3.1/../../../../arm-none-eabi/lib/thumb/v6-m\libg_nano.a(lib_a-impure.o)
 .ARM.attributes
                0x00001108       0x2c c:/a/gcc_arm/6/bin/../lib/gcc/arm-none-eabi/6.3.1/../../../../arm-none-eabi/lib/thumb/v6-m\libg_nano.a(lib_a-init.o)
 .ARM.attributes
                0x00001134       0x2c c:/a/gcc_arm/6/bin/../lib/gcc/arm-none-eabi/6.3.1/../../../../arm-none-eabi/lib/thumb/v6-m\libg_nano.a(lib_a-malloc.o)
 .ARM.attributes
                0x00001160       0x2c c:/a/gcc_arm/6/bin/../lib/gcc/arm-none-eabi/6.3.1/../../../../arm-none-eabi/lib/thumb/v6-m\libg_nano.a(lib_a-memcmp.o)
 .ARM.attributes
                0x0000118c       0x2c c:/a/gcc_arm/6/bin/../lib/gcc/arm-none-eabi/6.3.1/../../../../arm-none-eabi/lib/thumb/v6-m\libg_nano.a(lib_a-memcpy-stub.o)
 .ARM.attributes
                0x000011b8       0x2c c:/a/gcc_arm/6/bin/../lib/gcc/arm-none-eabi/6.3.1/../../../../arm-none-eabi/lib/thumb/v6-m\libg_nano.a(lib_a-memset.o)
 .ARM.attributes
                0x000011e4       0x2c c:/a/gcc_arm/6/bin/../lib/gcc/arm-none-eabi/6.3.1/../../../../arm-none-eabi/lib/thumb/v6-m\libg_nano.a(lib_a-nano-freer.o)
 .ARM.attributes
                0x00001210       0x2c c:/a/gcc_arm/6/bin/../lib/gcc/arm-none-eabi/6.3.1/../../../../arm-none-eabi/lib/thumb/v6-m\libg_nano.a(lib_a-nano-mallocr.o)
 .ARM.attributes
                0x0000123c       0x2c c:/a/gcc_arm/6/bin/../lib/gcc/arm-none-eabi/6.3.1/../../../../arm-none-eabi/lib/thumb/v6-m\libg_nano.a(lib_a-sbrkr.o)
 .ARM.attributes
                0x00001268       0x2c c:/a/gcc_arm/6/bin/../lib/gcc/arm-none-eabi/6.3.1/../../../../arm-none-eabi/lib/thumb/v6-m\libg_nano.a(lib_a-strcpy.o)
 .ARM.attributes
                0x00001294       0x1c c:/a/gcc_arm/6/bin/../lib/gcc/arm-none-eabi/6.3.1/../../../../arm-none-eabi/lib/thumb/v6-m\libg_nano.a(lib_a-strlen.o)
 .ARM.attributes
                0x000012b0       0x2c c:/a/gcc_arm/6/bin/../lib/gcc/arm-none-eabi/6.3.1/../../../../arm-none-eabi/lib/thumb/v6-m\libg_nano.a(lib_a-strrchr.o)
 .ARM.attributes
                0x000012dc       0x2c c:/a/gcc_arm/6/bin/../lib/gcc/arm-none-eabi/6.3.1/../../../../arm-none-eabi/lib/thumb/v6-m\libg_nano.a(lib_a-mlock.o)
 .ARM.attributes
                0x00001308       0x2c c:/a/gcc_arm/6/bin/../lib/gcc/arm-none-eabi/6.3.1/../../../../arm-none-eabi/lib/thumb/v6-m\libg_nano.a(lib_a-reent.o)
 .ARM.attributes
                0x00001334       0x2c c:/a/gcc_arm/6/bin/../lib/gcc/arm-none-eabi/6.3.1/../../../../arm-none-eabi/lib/thumb/v6-m\libg_nano.a(lib_a-strchr.o)
 .ARM.attributes
                0x00001360       0x2c c:/a/gcc_arm/6/bin/../lib/gcc/arm-none-eabi/6.3.1/thumb/v6-m/crtend.o
 .ARM.attributes
                0x0000138c       0x1e c:/a/gcc_arm/6/bin/../lib/gcc/arm-none-eabi/6.3.1/thumb/v6-m/crtn.o
 .ARM.attributes
                0x000013aa       0x2c c:/a/gcc_arm/6/bin/../lib/gcc/arm-none-eabi/6.3.1/../../../../arm-none-eabi/lib/thumb/v6-m\libnosys.a(sbrk.o)
 .ARM.attributes
                0x000013d6       0x2c c:/a/gcc_arm/6/bin/../lib/gcc/arm-none-eabi/6.3.1/../../../../arm-none-eabi/lib/thumb/v6-m\libnosys.a(_exit.o)

.comment        0x00000000       0x7f
 .comment       0x00000000       0x7f examples/serial/CMakeFiles/serial_nrf51422_xxAC_s130_2.0.1.dir/src/main.c.obj
                                 0x80 (size before relaxing)
 .comment       0x0000007f       0x80 examples/serial/CMakeFiles/serial_nrf51422_xxAC_s130_2.0.1.dir/__/nrf_mesh_sdk.c.obj
 .comment       0x0000007f       0x80 examples/serial/CMakeFiles/serial_nrf51422_xxAC_s130_2.0.1.dir/__/__/mesh/prov/src/prov_provisioner.c.obj
 .comment       0x0000007f       0x80 examples/serial/CMakeFiles/serial_nrf51422_xxAC_s130_2.0.1.dir/__/__/mesh/prov/src/prov_provisionee.c.obj
 .comment       0x0000007f       0x80 examples/serial/CMakeFiles/serial_nrf51422_xxAC_s130_2.0.1.dir/__/__/mesh/prov/src/nrf_mesh_prov.c.obj
 .comment       0x0000007f       0x80 examples/serial/CMakeFiles/serial_nrf51422_xxAC_s130_2.0.1.dir/__/__/mesh/prov/src/provisioning.c.obj
 .comment       0x0000007f       0x80 examples/serial/CMakeFiles/serial_nrf51422_xxAC_s130_2.0.1.dir/__/__/mesh/prov/src/prov_beacon.c.obj
 .comment       0x0000007f       0x80 examples/serial/CMakeFiles/serial_nrf51422_xxAC_s130_2.0.1.dir/__/__/mesh/prov/src/prov_utils.c.obj
 .comment       0x0000007f       0x80 examples/serial/CMakeFiles/serial_nrf51422_xxAC_s130_2.0.1.dir/__/__/mesh/prov/src/prov_bearer_adv.c.obj
 .comment       0x0000007f       0x80 examples/serial/CMakeFiles/serial_nrf51422_xxAC_s130_2.0.1.dir/__/__/mesh/access/src/access_publish.c.obj
 .comment       0x0000007f       0x80 examples/serial/CMakeFiles/serial_nrf51422_xxAC_s130_2.0.1.dir/__/__/mesh/access/src/access.c.obj
 .comment       0x0000007f       0x80 examples/serial/CMakeFiles/serial_nrf51422_xxAC_s130_2.0.1.dir/__/__/mesh/access/src/access_reliable.c.obj
 .comment       0x0000007f       0x80 examples/serial/CMakeFiles/serial_nrf51422_xxAC_s130_2.0.1.dir/__/__/mesh/access/src/device_state_manager.c.obj
 .comment       0x0000007f       0x80 examples/serial/CMakeFiles/serial_nrf51422_xxAC_s130_2.0.1.dir/__/__/mesh/serial/src/serial_uart.c.obj
 .comment       0x0000007f       0x80 examples/serial/CMakeFiles/serial_nrf51422_xxAC_s130_2.0.1.dir/__/__/mesh/serial/src/serial_bearer.c.obj
 .comment       0x0000007f       0x80 examples/serial/CMakeFiles/serial_nrf51422_xxAC_s130_2.0.1.dir/__/__/mesh/serial/src/serial_handler_common.c.obj
 .comment       0x0000007f       0x80 examples/serial/CMakeFiles/serial_nrf51422_xxAC_s130_2.0.1.dir/__/__/mesh/serial/src/serial_handler_access.c.obj
 .comment       0x0000007f       0x80 examples/serial/CMakeFiles/serial_nrf51422_xxAC_s130_2.0.1.dir/__/__/mesh/serial/src/serial_handler_config.c.obj
 .comment       0x0000007f       0x80 examples/serial/CMakeFiles/serial_nrf51422_xxAC_s130_2.0.1.dir/__/__/mesh/serial/src/serial_handler_openmesh.c.obj
 .comment       0x0000007f       0x80 examples/serial/CMakeFiles/serial_nrf51422_xxAC_s130_2.0.1.dir/__/__/mesh/serial/src/serial.c.obj
 .comment       0x0000007f       0x80 examples/serial/CMakeFiles/serial_nrf51422_xxAC_s130_2.0.1.dir/__/__/mesh/serial/src/serial_handler_prov.c.obj
 .comment       0x0000007f       0x80 examples/serial/CMakeFiles/serial_nrf51422_xxAC_s130_2.0.1.dir/__/__/mesh/serial/src/serial_handler_dfu.c.obj
 .comment       0x0000007f       0x80 examples/serial/CMakeFiles/serial_nrf51422_xxAC_s130_2.0.1.dir/__/__/mesh/serial/src/serial_handler_mesh.c.obj
 .comment       0x0000007f       0x80 examples/serial/CMakeFiles/serial_nrf51422_xxAC_s130_2.0.1.dir/__/__/mesh/serial/src/serial_handler_models.c.obj
 .comment       0x0000007f       0x80 examples/serial/CMakeFiles/serial_nrf51422_xxAC_s130_2.0.1.dir/__/__/mesh/serial/src/serial_handler_device.c.obj
 .comment       0x0000007f       0x80 examples/serial/CMakeFiles/serial_nrf51422_xxAC_s130_2.0.1.dir/__/__/mesh/serial/src/nrf_mesh_serial.c.obj
 .comment       0x0000007f       0x80 examples/serial/CMakeFiles/serial_nrf51422_xxAC_s130_2.0.1.dir/__/__/mesh/serial/src/serial_handler_app.c.obj
 .comment       0x0000007f       0x80 examples/serial/CMakeFiles/serial_nrf51422_xxAC_s130_2.0.1.dir/__/nrf_mesh_weak.c.obj
 .comment       0x0000007f       0x80 examples/serial/CMakeFiles/serial_nrf51422_xxAC_s130_2.0.1.dir/__/__/external/nRF5_SDK_14.2.0_17b948a/components/toolchain/system_nrf51.c.obj
 .comment       0x0000007f       0x80 mesh/core/libmesh_core_nrf51422_xxAC.a(internal_event.c.obj)
 .comment       0x0000007f       0x80 mesh/core/libmesh_core_nrf51422_xxAC.a(nrf_mesh_configure.c.obj)
 .comment       0x0000007f       0x80 mesh/core/libmesh_core_nrf51422_xxAC.a(event.c.obj)
 .comment       0x0000007f       0x80 mesh/core/libmesh_core_nrf51422_xxAC.a(packet_buffer.c.obj)
 .comment       0x0000007f       0x80 mesh/core/libmesh_core_nrf51422_xxAC.a(fifo.c.obj)
 .comment       0x0000007f       0x80 mesh/core/libmesh_core_nrf51422_xxAC.a(net_state.c.obj)
 .comment       0x0000007f       0x80 mesh/core/libmesh_core_nrf51422_xxAC.a(nrf_mesh_utils.c.obj)
 .comment       0x0000007f       0x80 mesh/core/libmesh_core_nrf51422_xxAC.a(nrf_mesh.c.obj)
 .comment       0x0000007f       0x80 mesh/core/libmesh_core_nrf51422_xxAC.a(hal.c.obj)
 .comment       0x0000007f       0x80 mesh/core/libmesh_core_nrf51422_xxAC.a(timer_scheduler.c.obj)
 .comment       0x0000007f       0x80 mesh/core/libmesh_core_nrf51422_xxAC.a(timer.c.obj)
 .comment       0x0000007f       0x80 mesh/core/libmesh_core_nrf51422_xxAC.a(ticker.c.obj)
 .comment       0x0000007f       0x80 mesh/core/libmesh_core_nrf51422_xxAC.a(rand.c.obj)
 .comment       0x0000007f       0x80 mesh/core/libmesh_core_nrf51422_xxAC.a(nrf_mesh_opt.c.obj)
 .comment       0x0000007f       0x80 mesh/core/libmesh_core_nrf51422_xxAC.a(timeslot.c.obj)
 .comment       0x0000007f       0x80 mesh/core/libmesh_core_nrf51422_xxAC.a(bearer_event.c.obj)
 .comment       0x0000007f       0x80 mesh/core/libmesh_core_nrf51422_xxAC.a(enc.c.obj)
 .comment       0x0000007f       0x80 mesh/core/libmesh_core_nrf51422_xxAC.a(network.c.obj)
 .comment       0x0000007f       0x80 mesh/core/libmesh_core_nrf51422_xxAC.a(nrf_mesh_keygen.c.obj)
 .comment       0x0000007f       0x80 mesh/core/libmesh_core_nrf51422_xxAC.a(list.c.obj)
 .comment       0x0000007f       0x80 mesh/core/libmesh_core_nrf51422_xxAC.a(log.c.obj)
 .comment       0x0000007f       0x80 mesh/core/libmesh_core_nrf51422_xxAC.a(flash_manager.c.obj)
 .comment       0x0000007f       0x80 mesh/core/libmesh_core_nrf51422_xxAC.a(ccm_soft.c.obj)
 .comment       0x0000007f       0x80 mesh/core/libmesh_core_nrf51422_xxAC.a(beacon.c.obj)
 .comment       0x0000007f       0x80 mesh/core/libmesh_core_nrf51422_xxAC.a(flash_manager_internal.c.obj)
 .comment       0x0000007f       0x80 mesh/core/libmesh_core_nrf51422_xxAC.a(core_tx.c.obj)
 .comment       0x0000007f       0x80 mesh/core/libmesh_core_nrf51422_xxAC.a(heartbeat.c.obj)
 .comment       0x0000007f       0x80 mesh/core/libmesh_core_nrf51422_xxAC.a(net_beacon.c.obj)
 .comment       0x0000007f       0x80 mesh/core/libmesh_core_nrf51422_xxAC.a(core_tx_adv.c.obj)
 .comment       0x0000007f       0x80 mesh/core/libmesh_core_nrf51422_xxAC.a(ad_listener.c.obj)
 .comment       0x0000007f       0x80 mesh/core/libmesh_core_nrf51422_xxAC.a(ad_type_filter.c.obj)
 .comment       0x0000007f       0x80 mesh/core/libmesh_core_nrf51422_xxAC.a(advertiser.c.obj)
 .comment       0x0000007f       0x80 mesh/core/libmesh_core_nrf51422_xxAC.a(bearer_handler.c.obj)
 .comment       0x0000007f       0x80 mesh/core/libmesh_core_nrf51422_xxAC.a(broadcast.c.obj)
 .comment       0x0000007f       0x80 mesh/core/libmesh_core_nrf51422_xxAC.a(filter_engine.c.obj)
 .comment       0x0000007f       0x80 mesh/core/libmesh_core_nrf51422_xxAC.a(radio_config.c.obj)
 .comment       0x0000007f       0x80 mesh/core/libmesh_core_nrf51422_xxAC.a(scanner.c.obj)
 .comment       0x0000007f       0x80 mesh/core/libmesh_core_nrf51422_xxAC.a(aes.c.obj)
 .comment       0x0000007f       0x80 mesh/core/libmesh_core_nrf51422_xxAC.a(msg_cache.c.obj)
 .comment       0x0000007f       0x80 mesh/core/libmesh_core_nrf51422_xxAC.a(transport.c.obj)
 .comment       0x0000007f       0x80 mesh/core/libmesh_core_nrf51422_xxAC.a(flash_manager_defrag.c.obj)
 .comment       0x0000007f       0x80 mesh/core/libmesh_core_nrf51422_xxAC.a(packet_mgr.c.obj)
 .comment       0x0000007f       0x80 mesh/core/libmesh_core_nrf51422_xxAC.a(mesh_flash.c.obj)
 .comment       0x0000007f       0x80 mesh/core/libmesh_core_nrf51422_xxAC.a(queue.c.obj)
 .comment       0x0000007f       0x80 mesh/core/libmesh_core_nrf51422_xxAC.a(aes_cmac.c.obj)
 .comment       0x0000007f       0x80 mesh/core/libmesh_core_nrf51422_xxAC.a(msqueue.c.obj)
 .comment       0x0000007f       0x80 mesh/core/libmesh_core_nrf51422_xxAC.a(replay_cache.c.obj)
 .comment       0x0000007f       0x80 mesh/core/libmesh_core_nrf51422_xxAC.a(nrf_flash.c.obj)
 .comment       0x0000007f       0x80 external/micro-ecc/libuECC_nrf51422_xxAC.a(uECC.c.obj)
 .comment       0x0000007f       0x80 external/rtt/librtt_nrf51422_xxAC.a(SEGGER_RTT.c.obj)
 .comment       0x0000007f       0x80 external/rtt/librtt_nrf51422_xxAC.a(SEGGER_RTT_printf.c.obj)

.debug_info     0x00000000    0x8e6e5
 .debug_info    0x00000000     0x12b5 examples/serial/CMakeFiles/serial_nrf51422_xxAC_s130_2.0.1.dir/src/main.c.obj
 .debug_info    0x000012b5     0x30bf examples/serial/CMakeFiles/serial_nrf51422_xxAC_s130_2.0.1.dir/__/nrf_mesh_sdk.c.obj
 .debug_info    0x00004374     0x2323 examples/serial/CMakeFiles/serial_nrf51422_xxAC_s130_2.0.1.dir/__/__/mesh/prov/src/prov_provisioner.c.obj
 .debug_info    0x00006697     0x26e4 examples/serial/CMakeFiles/serial_nrf51422_xxAC_s130_2.0.1.dir/__/__/mesh/prov/src/prov_provisionee.c.obj
 .debug_info    0x00008d7b     0x1bc1 examples/serial/CMakeFiles/serial_nrf51422_xxAC_s130_2.0.1.dir/__/__/mesh/prov/src/nrf_mesh_prov.c.obj
 .debug_info    0x0000a93c     0x1578 examples/serial/CMakeFiles/serial_nrf51422_xxAC_s130_2.0.1.dir/__/__/mesh/prov/src/provisioning.c.obj
 .debug_info    0x0000beb4     0x196f examples/serial/CMakeFiles/serial_nrf51422_xxAC_s130_2.0.1.dir/__/__/mesh/prov/src/prov_beacon.c.obj
 .debug_info    0x0000d823     0x1ff9 examples/serial/CMakeFiles/serial_nrf51422_xxAC_s130_2.0.1.dir/__/__/mesh/prov/src/prov_utils.c.obj
 .debug_info    0x0000f81c     0x3928 examples/serial/CMakeFiles/serial_nrf51422_xxAC_s130_2.0.1.dir/__/__/mesh/prov/src/prov_bearer_adv.c.obj
 .debug_info    0x00013144     0x10f5 examples/serial/CMakeFiles/serial_nrf51422_xxAC_s130_2.0.1.dir/__/__/mesh/access/src/access_publish.c.obj
 .debug_info    0x00014239     0x4438 examples/serial/CMakeFiles/serial_nrf51422_xxAC_s130_2.0.1.dir/__/__/mesh/access/src/access.c.obj
 .debug_info    0x00018671     0x1526 examples/serial/CMakeFiles/serial_nrf51422_xxAC_s130_2.0.1.dir/__/__/mesh/access/src/access_reliable.c.obj
 .debug_info    0x00019b97     0x5fad examples/serial/CMakeFiles/serial_nrf51422_xxAC_s130_2.0.1.dir/__/__/mesh/access/src/device_state_manager.c.obj
 .debug_info    0x0001fb44     0x1103 examples/serial/CMakeFiles/serial_nrf51422_xxAC_s130_2.0.1.dir/__/__/mesh/serial/src/serial_uart.c.obj
 .debug_info    0x00020c47     0x36b7 examples/serial/CMakeFiles/serial_nrf51422_xxAC_s130_2.0.1.dir/__/__/mesh/serial/src/serial_bearer.c.obj
 .debug_info    0x000242fe     0x28bb examples/serial/CMakeFiles/serial_nrf51422_xxAC_s130_2.0.1.dir/__/__/mesh/serial/src/serial_handler_common.c.obj
 .debug_info    0x00026bb9     0x3302 examples/serial/CMakeFiles/serial_nrf51422_xxAC_s130_2.0.1.dir/__/__/mesh/serial/src/serial_handler_access.c.obj
 .debug_info    0x00029ebb     0x288d examples/serial/CMakeFiles/serial_nrf51422_xxAC_s130_2.0.1.dir/__/__/mesh/serial/src/serial_handler_config.c.obj
 .debug_info    0x0002c748     0x27ca examples/serial/CMakeFiles/serial_nrf51422_xxAC_s130_2.0.1.dir/__/__/mesh/serial/src/serial_handler_openmesh.c.obj
 .debug_info    0x0002ef12     0x326d examples/serial/CMakeFiles/serial_nrf51422_xxAC_s130_2.0.1.dir/__/__/mesh/serial/src/serial.c.obj
 .debug_info    0x0003217f     0x47e5 examples/serial/CMakeFiles/serial_nrf51422_xxAC_s130_2.0.1.dir/__/__/mesh/serial/src/serial_handler_prov.c.obj
 .debug_info    0x00036964     0x367f examples/serial/CMakeFiles/serial_nrf51422_xxAC_s130_2.0.1.dir/__/__/mesh/serial/src/serial_handler_dfu.c.obj
 .debug_info    0x00039fe3     0x4299 examples/serial/CMakeFiles/serial_nrf51422_xxAC_s130_2.0.1.dir/__/__/mesh/serial/src/serial_handler_mesh.c.obj
 .debug_info    0x0003e27c     0x2ca0 examples/serial/CMakeFiles/serial_nrf51422_xxAC_s130_2.0.1.dir/__/__/mesh/serial/src/serial_handler_models.c.obj
 .debug_info    0x00040f1c     0x35c4 examples/serial/CMakeFiles/serial_nrf51422_xxAC_s130_2.0.1.dir/__/__/mesh/serial/src/serial_handler_device.c.obj
 .debug_info    0x000444e0     0x2974 examples/serial/CMakeFiles/serial_nrf51422_xxAC_s130_2.0.1.dir/__/__/mesh/serial/src/nrf_mesh_serial.c.obj
 .debug_info    0x00046e54     0x27e5 examples/serial/CMakeFiles/serial_nrf51422_xxAC_s130_2.0.1.dir/__/__/mesh/serial/src/serial_handler_app.c.obj
 .debug_info    0x00049639      0x93a examples/serial/CMakeFiles/serial_nrf51422_xxAC_s130_2.0.1.dir/__/nrf_mesh_weak.c.obj
 .debug_info    0x00049f73      0x1e5 examples/serial/CMakeFiles/serial_nrf51422_xxAC_s130_2.0.1.dir/__/__/external/nRF5_SDK_14.2.0_17b948a/components/toolchain/system_nrf51.c.obj
 .debug_info    0x0004a158      0xc54 mesh/core/libmesh_core_nrf51422_xxAC.a(internal_event.c.obj)
 .debug_info    0x0004adac      0xba2 mesh/core/libmesh_core_nrf51422_xxAC.a(nrf_mesh_configure.c.obj)
 .debug_info    0x0004b94e     0x14c9 mesh/core/libmesh_core_nrf51422_xxAC.a(event.c.obj)
 .debug_info    0x0004ce17     0x1c1e mesh/core/libmesh_core_nrf51422_xxAC.a(packet_buffer.c.obj)
 .debug_info    0x0004ea35      0xce0 mesh/core/libmesh_core_nrf51422_xxAC.a(fifo.c.obj)
 .debug_info    0x0004f715     0x23be mesh/core/libmesh_core_nrf51422_xxAC.a(net_state.c.obj)
 .debug_info    0x00051ad3      0xa60 mesh/core/libmesh_core_nrf51422_xxAC.a(nrf_mesh_utils.c.obj)
 .debug_info    0x00052533     0x3341 mesh/core/libmesh_core_nrf51422_xxAC.a(nrf_mesh.c.obj)
 .debug_info    0x00055874      0x472 mesh/core/libmesh_core_nrf51422_xxAC.a(hal.c.obj)
 .debug_info    0x00055ce6     0x100b mesh/core/libmesh_core_nrf51422_xxAC.a(timer_scheduler.c.obj)
 .debug_info    0x00056cf1      0xc94 mesh/core/libmesh_core_nrf51422_xxAC.a(timer.c.obj)
 .debug_info    0x00057985      0x208 mesh/core/libmesh_core_nrf51422_xxAC.a(ticker.c.obj)
 .debug_info    0x00057b8d      0x41e mesh/core/libmesh_core_nrf51422_xxAC.a(rand.c.obj)
 .debug_info    0x00057fab      0xb0b mesh/core/libmesh_core_nrf51422_xxAC.a(nrf_mesh_opt.c.obj)
 .debug_info    0x00058ab6     0x19c1 mesh/core/libmesh_core_nrf51422_xxAC.a(timeslot.c.obj)
 .debug_info    0x0005a477     0x1817 mesh/core/libmesh_core_nrf51422_xxAC.a(bearer_event.c.obj)
 .debug_info    0x0005bc8e     0x1702 mesh/core/libmesh_core_nrf51422_xxAC.a(enc.c.obj)
 .debug_info    0x0005d390     0x2afd mesh/core/libmesh_core_nrf51422_xxAC.a(network.c.obj)
 .debug_info    0x0005fe8d      0x4f2 mesh/core/libmesh_core_nrf51422_xxAC.a(nrf_mesh_keygen.c.obj)
 .debug_info    0x0006037f      0x46a mesh/core/libmesh_core_nrf51422_xxAC.a(list.c.obj)
 .debug_info    0x000607e9      0xe28 mesh/core/libmesh_core_nrf51422_xxAC.a(log.c.obj)
 .debug_info    0x00061611     0x3233 mesh/core/libmesh_core_nrf51422_xxAC.a(flash_manager.c.obj)
 .debug_info    0x00064844     0x107b mesh/core/libmesh_core_nrf51422_xxAC.a(ccm_soft.c.obj)
 .debug_info    0x000658bf     0x1929 mesh/core/libmesh_core_nrf51422_xxAC.a(beacon.c.obj)
 .debug_info    0x000671e8      0xb88 mesh/core/libmesh_core_nrf51422_xxAC.a(flash_manager_internal.c.obj)
 .debug_info    0x00067d70      0xf80 mesh/core/libmesh_core_nrf51422_xxAC.a(core_tx.c.obj)
 .debug_info    0x00068cf0     0x2156 mesh/core/libmesh_core_nrf51422_xxAC.a(heartbeat.c.obj)
 .debug_info    0x0006ae46     0x14bf mesh/core/libmesh_core_nrf51422_xxAC.a(net_beacon.c.obj)
 .debug_info    0x0006c305     0x1618 mesh/core/libmesh_core_nrf51422_xxAC.a(core_tx_adv.c.obj)
 .debug_info    0x0006d91d     0x10f8 mesh/core/libmesh_core_nrf51422_xxAC.a(ad_listener.c.obj)
 .debug_info    0x0006ea15      0xf9e mesh/core/libmesh_core_nrf51422_xxAC.a(ad_type_filter.c.obj)
 .debug_info    0x0006f9b3     0x22fc mesh/core/libmesh_core_nrf51422_xxAC.a(advertiser.c.obj)
 .debug_info    0x00071caf     0x1833 mesh/core/libmesh_core_nrf51422_xxAC.a(bearer_handler.c.obj)
 .debug_info    0x000734e2     0x18f3 mesh/core/libmesh_core_nrf51422_xxAC.a(broadcast.c.obj)
 .debug_info    0x00074dd5      0xccc mesh/core/libmesh_core_nrf51422_xxAC.a(filter_engine.c.obj)
 .debug_info    0x00075aa1      0x848 mesh/core/libmesh_core_nrf51422_xxAC.a(radio_config.c.obj)
 .debug_info    0x000762e9     0x24af mesh/core/libmesh_core_nrf51422_xxAC.a(scanner.c.obj)
 .debug_info    0x00078798      0xbe1 mesh/core/libmesh_core_nrf51422_xxAC.a(aes.c.obj)
 .debug_info    0x00079379      0xa70 mesh/core/libmesh_core_nrf51422_xxAC.a(msg_cache.c.obj)
 .debug_info    0x00079de9     0x54ce mesh/core/libmesh_core_nrf51422_xxAC.a(transport.c.obj)
 .debug_info    0x0007f2b7     0x21d4 mesh/core/libmesh_core_nrf51422_xxAC.a(flash_manager_defrag.c.obj)
 .debug_info    0x0008148b     0x1164 mesh/core/libmesh_core_nrf51422_xxAC.a(packet_mgr.c.obj)
 .debug_info    0x000825ef     0x1860 mesh/core/libmesh_core_nrf51422_xxAC.a(mesh_flash.c.obj)
 .debug_info    0x00083e4f      0xacb mesh/core/libmesh_core_nrf51422_xxAC.a(queue.c.obj)
 .debug_info    0x0008491a      0xe2a mesh/core/libmesh_core_nrf51422_xxAC.a(aes_cmac.c.obj)
 .debug_info    0x00085744      0xcdf mesh/core/libmesh_core_nrf51422_xxAC.a(msqueue.c.obj)
 .debug_info    0x00086423      0xae9 mesh/core/libmesh_core_nrf51422_xxAC.a(replay_cache.c.obj)
 .debug_info    0x00086f0c      0xac0 mesh/core/libmesh_core_nrf51422_xxAC.a(nrf_flash.c.obj)
 .debug_info    0x000879cc     0x4618 external/micro-ecc/libuECC_nrf51422_xxAC.a(uECC.c.obj)
 .debug_info    0x0008bfe4     0x1831 external/rtt/librtt_nrf51422_xxAC.a(SEGGER_RTT.c.obj)
 .debug_info    0x0008d815      0xed0 external/rtt/librtt_nrf51422_xxAC.a(SEGGER_RTT_printf.c.obj)

.debug_abbrev   0x00000000    0x10acc
 .debug_abbrev  0x00000000      0x360 examples/serial/CMakeFiles/serial_nrf51422_xxAC_s130_2.0.1.dir/src/main.c.obj
 .debug_abbrev  0x00000360      0x4ae examples/serial/CMakeFiles/serial_nrf51422_xxAC_s130_2.0.1.dir/__/nrf_mesh_sdk.c.obj
 .debug_abbrev  0x0000080e      0x3d9 examples/serial/CMakeFiles/serial_nrf51422_xxAC_s130_2.0.1.dir/__/__/mesh/prov/src/prov_provisioner.c.obj
 .debug_abbrev  0x00000be7      0x463 examples/serial/CMakeFiles/serial_nrf51422_xxAC_s130_2.0.1.dir/__/__/mesh/prov/src/prov_provisionee.c.obj
 .debug_abbrev  0x0000104a      0x30f examples/serial/CMakeFiles/serial_nrf51422_xxAC_s130_2.0.1.dir/__/__/mesh/prov/src/nrf_mesh_prov.c.obj
 .debug_abbrev  0x00001359      0x275 examples/serial/CMakeFiles/serial_nrf51422_xxAC_s130_2.0.1.dir/__/__/mesh/prov/src/provisioning.c.obj
 .debug_abbrev  0x000015ce      0x2b3 examples/serial/CMakeFiles/serial_nrf51422_xxAC_s130_2.0.1.dir/__/__/mesh/prov/src/prov_beacon.c.obj
 .debug_abbrev  0x00001881      0x3c4 examples/serial/CMakeFiles/serial_nrf51422_xxAC_s130_2.0.1.dir/__/__/mesh/prov/src/prov_utils.c.obj
 .debug_abbrev  0x00001c45      0x4cd examples/serial/CMakeFiles/serial_nrf51422_xxAC_s130_2.0.1.dir/__/__/mesh/prov/src/prov_bearer_adv.c.obj
 .debug_abbrev  0x00002112      0x422 examples/serial/CMakeFiles/serial_nrf51422_xxAC_s130_2.0.1.dir/__/__/mesh/access/src/access_publish.c.obj
 .debug_abbrev  0x00002534      0x686 examples/serial/CMakeFiles/serial_nrf51422_xxAC_s130_2.0.1.dir/__/__/mesh/access/src/access.c.obj
 .debug_abbrev  0x00002bba      0x419 examples/serial/CMakeFiles/serial_nrf51422_xxAC_s130_2.0.1.dir/__/__/mesh/access/src/access_reliable.c.obj
 .debug_abbrev  0x00002fd3      0x5fa examples/serial/CMakeFiles/serial_nrf51422_xxAC_s130_2.0.1.dir/__/__/mesh/access/src/device_state_manager.c.obj
 .debug_abbrev  0x000035cd      0x2c1 examples/serial/CMakeFiles/serial_nrf51422_xxAC_s130_2.0.1.dir/__/__/mesh/serial/src/serial_uart.c.obj
 .debug_abbrev  0x0000388e      0x4a4 examples/serial/CMakeFiles/serial_nrf51422_xxAC_s130_2.0.1.dir/__/__/mesh/serial/src/serial_bearer.c.obj
 .debug_abbrev  0x00003d32      0x237 examples/serial/CMakeFiles/serial_nrf51422_xxAC_s130_2.0.1.dir/__/__/mesh/serial/src/serial_handler_common.c.obj
 .debug_abbrev  0x00003f69      0x2b6 examples/serial/CMakeFiles/serial_nrf51422_xxAC_s130_2.0.1.dir/__/__/mesh/serial/src/serial_handler_access.c.obj
 .debug_abbrev  0x0000421f      0x273 examples/serial/CMakeFiles/serial_nrf51422_xxAC_s130_2.0.1.dir/__/__/mesh/serial/src/serial_handler_config.c.obj
 .debug_abbrev  0x00004492      0x230 examples/serial/CMakeFiles/serial_nrf51422_xxAC_s130_2.0.1.dir/__/__/mesh/serial/src/serial_handler_openmesh.c.obj
 .debug_abbrev  0x000046c2      0x3a1 examples/serial/CMakeFiles/serial_nrf51422_xxAC_s130_2.0.1.dir/__/__/mesh/serial/src/serial.c.obj
 .debug_abbrev  0x00004a63      0x3e0 examples/serial/CMakeFiles/serial_nrf51422_xxAC_s130_2.0.1.dir/__/__/mesh/serial/src/serial_handler_prov.c.obj
 .debug_abbrev  0x00004e43      0x30f examples/serial/CMakeFiles/serial_nrf51422_xxAC_s130_2.0.1.dir/__/__/mesh/serial/src/serial_handler_dfu.c.obj
 .debug_abbrev  0x00005152      0x3aa examples/serial/CMakeFiles/serial_nrf51422_xxAC_s130_2.0.1.dir/__/__/mesh/serial/src/serial_handler_mesh.c.obj
 .debug_abbrev  0x000054fc      0x307 examples/serial/CMakeFiles/serial_nrf51422_xxAC_s130_2.0.1.dir/__/__/mesh/serial/src/serial_handler_models.c.obj
 .debug_abbrev  0x00005803      0x368 examples/serial/CMakeFiles/serial_nrf51422_xxAC_s130_2.0.1.dir/__/__/mesh/serial/src/serial_handler_device.c.obj
 .debug_abbrev  0x00005b6b      0x28d examples/serial/CMakeFiles/serial_nrf51422_xxAC_s130_2.0.1.dir/__/__/mesh/serial/src/nrf_mesh_serial.c.obj
 .debug_abbrev  0x00005df8      0x232 examples/serial/CMakeFiles/serial_nrf51422_xxAC_s130_2.0.1.dir/__/__/mesh/serial/src/serial_handler_app.c.obj
 .debug_abbrev  0x0000602a      0x1a7 examples/serial/CMakeFiles/serial_nrf51422_xxAC_s130_2.0.1.dir/__/nrf_mesh_weak.c.obj
 .debug_abbrev  0x000061d1      0x117 examples/serial/CMakeFiles/serial_nrf51422_xxAC_s130_2.0.1.dir/__/__/external/nRF5_SDK_14.2.0_17b948a/components/toolchain/system_nrf51.c.obj
 .debug_abbrev  0x000062e8      0x248 mesh/core/libmesh_core_nrf51422_xxAC.a(internal_event.c.obj)
 .debug_abbrev  0x00006530      0x242 mesh/core/libmesh_core_nrf51422_xxAC.a(nrf_mesh_configure.c.obj)
 .debug_abbrev  0x00006772      0x283 mesh/core/libmesh_core_nrf51422_xxAC.a(event.c.obj)
 .debug_abbrev  0x000069f5      0x472 mesh/core/libmesh_core_nrf51422_xxAC.a(packet_buffer.c.obj)
 .debug_abbrev  0x00006e67      0x2ec mesh/core/libmesh_core_nrf51422_xxAC.a(fifo.c.obj)
 .debug_abbrev  0x00007153      0x527 mesh/core/libmesh_core_nrf51422_xxAC.a(net_state.c.obj)
 .debug_abbrev  0x0000767a      0x253 mesh/core/libmesh_core_nrf51422_xxAC.a(nrf_mesh_utils.c.obj)
 .debug_abbrev  0x000078cd      0x42a mesh/core/libmesh_core_nrf51422_xxAC.a(nrf_mesh.c.obj)
 .debug_abbrev  0x00007cf7      0x1e4 mesh/core/libmesh_core_nrf51422_xxAC.a(hal.c.obj)
 .debug_abbrev  0x00007edb      0x3bd mesh/core/libmesh_core_nrf51422_xxAC.a(timer_scheduler.c.obj)
 .debug_abbrev  0x00008298      0x326 mesh/core/libmesh_core_nrf51422_xxAC.a(timer.c.obj)
 .debug_abbrev  0x000085be      0x14f mesh/core/libmesh_core_nrf51422_xxAC.a(ticker.c.obj)
 .debug_abbrev  0x0000870d      0x1ba mesh/core/libmesh_core_nrf51422_xxAC.a(rand.c.obj)
 .debug_abbrev  0x000088c7      0x23d mesh/core/libmesh_core_nrf51422_xxAC.a(nrf_mesh_opt.c.obj)
 .debug_abbrev  0x00008b04      0x4ba mesh/core/libmesh_core_nrf51422_xxAC.a(timeslot.c.obj)
 .debug_abbrev  0x00008fbe      0x493 mesh/core/libmesh_core_nrf51422_xxAC.a(bearer_event.c.obj)
 .debug_abbrev  0x00009451      0x35c mesh/core/libmesh_core_nrf51422_xxAC.a(enc.c.obj)
 .debug_abbrev  0x000097ad      0x513 mesh/core/libmesh_core_nrf51422_xxAC.a(network.c.obj)
 .debug_abbrev  0x00009cc0      0x158 mesh/core/libmesh_core_nrf51422_xxAC.a(nrf_mesh_keygen.c.obj)
 .debug_abbrev  0x00009e18      0x186 mesh/core/libmesh_core_nrf51422_xxAC.a(list.c.obj)
 .debug_abbrev  0x00009f9e      0x24e mesh/core/libmesh_core_nrf51422_xxAC.a(log.c.obj)
 .debug_abbrev  0x0000a1ec      0x5a4 mesh/core/libmesh_core_nrf51422_xxAC.a(flash_manager.c.obj)
 .debug_abbrev  0x0000a790      0x2ac mesh/core/libmesh_core_nrf51422_xxAC.a(ccm_soft.c.obj)
 .debug_abbrev  0x0000aa3c      0x37f mesh/core/libmesh_core_nrf51422_xxAC.a(beacon.c.obj)
 .debug_abbrev  0x0000adbb      0x283 mesh/core/libmesh_core_nrf51422_xxAC.a(flash_manager_internal.c.obj)
 .debug_abbrev  0x0000b03e      0x30c mesh/core/libmesh_core_nrf51422_xxAC.a(core_tx.c.obj)
 .debug_abbrev  0x0000b34a      0x4ad mesh/core/libmesh_core_nrf51422_xxAC.a(heartbeat.c.obj)
 .debug_abbrev  0x0000b7f7      0x3dc mesh/core/libmesh_core_nrf51422_xxAC.a(net_beacon.c.obj)
 .debug_abbrev  0x0000bbd3      0x321 mesh/core/libmesh_core_nrf51422_xxAC.a(core_tx_adv.c.obj)
 .debug_abbrev  0x0000bef4      0x325 mesh/core/libmesh_core_nrf51422_xxAC.a(ad_listener.c.obj)
 .debug_abbrev  0x0000c219      0x33d mesh/core/libmesh_core_nrf51422_xxAC.a(ad_type_filter.c.obj)
 .debug_abbrev  0x0000c556      0x4bb mesh/core/libmesh_core_nrf51422_xxAC.a(advertiser.c.obj)
 .debug_abbrev  0x0000ca11      0x40b mesh/core/libmesh_core_nrf51422_xxAC.a(bearer_handler.c.obj)
 .debug_abbrev  0x0000ce1c      0x3b5 mesh/core/libmesh_core_nrf51422_xxAC.a(broadcast.c.obj)
 .debug_abbrev  0x0000d1d1      0x27a mesh/core/libmesh_core_nrf51422_xxAC.a(filter_engine.c.obj)
 .debug_abbrev  0x0000d44b      0x19f mesh/core/libmesh_core_nrf51422_xxAC.a(radio_config.c.obj)
 .debug_abbrev  0x0000d5ea      0x510 mesh/core/libmesh_core_nrf51422_xxAC.a(scanner.c.obj)
 .debug_abbrev  0x0000dafa      0x25d mesh/core/libmesh_core_nrf51422_xxAC.a(aes.c.obj)
 .debug_abbrev  0x0000dd57      0x256 mesh/core/libmesh_core_nrf51422_xxAC.a(msg_cache.c.obj)
 .debug_abbrev  0x0000dfad      0x5d9 mesh/core/libmesh_core_nrf51422_xxAC.a(transport.c.obj)
 .debug_abbrev  0x0000e586      0x553 mesh/core/libmesh_core_nrf51422_xxAC.a(flash_manager_defrag.c.obj)
 .debug_abbrev  0x0000ead9      0x3ca mesh/core/libmesh_core_nrf51422_xxAC.a(packet_mgr.c.obj)
 .debug_abbrev  0x0000eea3      0x45e mesh/core/libmesh_core_nrf51422_xxAC.a(mesh_flash.c.obj)
 .debug_abbrev  0x0000f301      0x220 mesh/core/libmesh_core_nrf51422_xxAC.a(queue.c.obj)
 .debug_abbrev  0x0000f521      0x31a mesh/core/libmesh_core_nrf51422_xxAC.a(aes_cmac.c.obj)
 .debug_abbrev  0x0000f83b      0x287 mesh/core/libmesh_core_nrf51422_xxAC.a(msqueue.c.obj)
 .debug_abbrev  0x0000fac2      0x264 mesh/core/libmesh_core_nrf51422_xxAC.a(replay_cache.c.obj)
 .debug_abbrev  0x0000fd26      0x21f mesh/core/libmesh_core_nrf51422_xxAC.a(nrf_flash.c.obj)
 .debug_abbrev  0x0000ff45      0x489 external/micro-ecc/libuECC_nrf51422_xxAC.a(uECC.c.obj)
 .debug_abbrev  0x000103ce      0x39c external/rtt/librtt_nrf51422_xxAC.a(SEGGER_RTT.c.obj)
 .debug_abbrev  0x0001076a      0x362 external/rtt/librtt_nrf51422_xxAC.a(SEGGER_RTT_printf.c.obj)

.debug_loc      0x00000000    0x210bf
 .debug_loc     0x00000000       0xa7 examples/serial/CMakeFiles/serial_nrf51422_xxAC_s130_2.0.1.dir/src/main.c.obj
 .debug_loc     0x000000a7      0x2fc examples/serial/CMakeFiles/serial_nrf51422_xxAC_s130_2.0.1.dir/__/nrf_mesh_sdk.c.obj
 .debug_loc     0x000003a3      0x618 examples/serial/CMakeFiles/serial_nrf51422_xxAC_s130_2.0.1.dir/__/__/mesh/prov/src/prov_provisioner.c.obj
 .debug_loc     0x000009bb      0x5e2 examples/serial/CMakeFiles/serial_nrf51422_xxAC_s130_2.0.1.dir/__/__/mesh/prov/src/prov_provisionee.c.obj
 .debug_loc     0x00000f9d      0x5ac examples/serial/CMakeFiles/serial_nrf51422_xxAC_s130_2.0.1.dir/__/__/mesh/prov/src/nrf_mesh_prov.c.obj
 .debug_loc     0x00001549      0x4eb examples/serial/CMakeFiles/serial_nrf51422_xxAC_s130_2.0.1.dir/__/__/mesh/prov/src/provisioning.c.obj
 .debug_loc     0x00001a34      0x1fb examples/serial/CMakeFiles/serial_nrf51422_xxAC_s130_2.0.1.dir/__/__/mesh/prov/src/prov_beacon.c.obj
 .debug_loc     0x00001c2f      0x50f examples/serial/CMakeFiles/serial_nrf51422_xxAC_s130_2.0.1.dir/__/__/mesh/prov/src/prov_utils.c.obj
 .debug_loc     0x0000213e     0x178c examples/serial/CMakeFiles/serial_nrf51422_xxAC_s130_2.0.1.dir/__/__/mesh/prov/src/prov_bearer_adv.c.obj
 .debug_loc     0x000038ca      0x55e examples/serial/CMakeFiles/serial_nrf51422_xxAC_s130_2.0.1.dir/__/__/mesh/access/src/access_publish.c.obj
 .debug_loc     0x00003e28     0x1daf examples/serial/CMakeFiles/serial_nrf51422_xxAC_s130_2.0.1.dir/__/__/mesh/access/src/access.c.obj
 .debug_loc     0x00005bd7      0x699 examples/serial/CMakeFiles/serial_nrf51422_xxAC_s130_2.0.1.dir/__/__/mesh/access/src/access_reliable.c.obj
 .debug_loc     0x00006270     0x361b examples/serial/CMakeFiles/serial_nrf51422_xxAC_s130_2.0.1.dir/__/__/mesh/access/src/device_state_manager.c.obj
 .debug_loc     0x0000988b       0xa7 examples/serial/CMakeFiles/serial_nrf51422_xxAC_s130_2.0.1.dir/__/__/mesh/serial/src/serial_uart.c.obj
 .debug_loc     0x00009932      0x39d examples/serial/CMakeFiles/serial_nrf51422_xxAC_s130_2.0.1.dir/__/__/mesh/serial/src/serial_bearer.c.obj
 .debug_loc     0x00009ccf      0x1a9 examples/serial/CMakeFiles/serial_nrf51422_xxAC_s130_2.0.1.dir/__/__/mesh/serial/src/serial_handler_common.c.obj
 .debug_loc     0x00009e78      0x7c0 examples/serial/CMakeFiles/serial_nrf51422_xxAC_s130_2.0.1.dir/__/__/mesh/serial/src/serial_handler_access.c.obj
 .debug_loc     0x0000a638       0x55 examples/serial/CMakeFiles/serial_nrf51422_xxAC_s130_2.0.1.dir/__/__/mesh/serial/src/serial_handler_config.c.obj
 .debug_loc     0x0000a68d       0x4a examples/serial/CMakeFiles/serial_nrf51422_xxAC_s130_2.0.1.dir/__/__/mesh/serial/src/serial_handler_openmesh.c.obj
 .debug_loc     0x0000a6d7      0x2b3 examples/serial/CMakeFiles/serial_nrf51422_xxAC_s130_2.0.1.dir/__/__/mesh/serial/src/serial.c.obj
 .debug_loc     0x0000a98a      0x484 examples/serial/CMakeFiles/serial_nrf51422_xxAC_s130_2.0.1.dir/__/__/mesh/serial/src/serial_handler_prov.c.obj
 .debug_loc     0x0000ae0e      0x218 examples/serial/CMakeFiles/serial_nrf51422_xxAC_s130_2.0.1.dir/__/__/mesh/serial/src/serial_handler_dfu.c.obj
 .debug_loc     0x0000b026      0x941 examples/serial/CMakeFiles/serial_nrf51422_xxAC_s130_2.0.1.dir/__/__/mesh/serial/src/serial_handler_mesh.c.obj
 .debug_loc     0x0000b967      0x278 examples/serial/CMakeFiles/serial_nrf51422_xxAC_s130_2.0.1.dir/__/__/mesh/serial/src/serial_handler_models.c.obj
 .debug_loc     0x0000bbdf      0x361 examples/serial/CMakeFiles/serial_nrf51422_xxAC_s130_2.0.1.dir/__/__/mesh/serial/src/serial_handler_device.c.obj
 .debug_loc     0x0000bf40       0xec examples/serial/CMakeFiles/serial_nrf51422_xxAC_s130_2.0.1.dir/__/__/mesh/serial/src/nrf_mesh_serial.c.obj
 .debug_loc     0x0000c02c       0x42 examples/serial/CMakeFiles/serial_nrf51422_xxAC_s130_2.0.1.dir/__/__/mesh/serial/src/serial_handler_app.c.obj
 .debug_loc     0x0000c06e       0xc4 mesh/core/libmesh_core_nrf51422_xxAC.a(internal_event.c.obj)
 .debug_loc     0x0000c132       0x2c mesh/core/libmesh_core_nrf51422_xxAC.a(nrf_mesh_configure.c.obj)
 .debug_loc     0x0000c15e      0x134 mesh/core/libmesh_core_nrf51422_xxAC.a(event.c.obj)
 .debug_loc     0x0000c292     0x108b mesh/core/libmesh_core_nrf51422_xxAC.a(packet_buffer.c.obj)
 .debug_loc     0x0000d31d      0x5b7 mesh/core/libmesh_core_nrf51422_xxAC.a(fifo.c.obj)
 .debug_loc     0x0000d8d4      0x77f mesh/core/libmesh_core_nrf51422_xxAC.a(net_state.c.obj)
 .debug_loc     0x0000e053      0x103 mesh/core/libmesh_core_nrf51422_xxAC.a(nrf_mesh_utils.c.obj)
 .debug_loc     0x0000e156      0x4b5 mesh/core/libmesh_core_nrf51422_xxAC.a(nrf_mesh.c.obj)
 .debug_loc     0x0000e60b       0x84 mesh/core/libmesh_core_nrf51422_xxAC.a(hal.c.obj)
 .debug_loc     0x0000e68f      0x41b mesh/core/libmesh_core_nrf51422_xxAC.a(timer_scheduler.c.obj)
 .debug_loc     0x0000eaaa      0x5db mesh/core/libmesh_core_nrf51422_xxAC.a(timer.c.obj)
 .debug_loc     0x0000f085      0x172 mesh/core/libmesh_core_nrf51422_xxAC.a(rand.c.obj)
 .debug_loc     0x0000f1f7      0x14c mesh/core/libmesh_core_nrf51422_xxAC.a(nrf_mesh_opt.c.obj)
 .debug_loc     0x0000f343      0x3ad mesh/core/libmesh_core_nrf51422_xxAC.a(timeslot.c.obj)
 .debug_loc     0x0000f6f0      0x7a7 mesh/core/libmesh_core_nrf51422_xxAC.a(bearer_event.c.obj)
 .debug_loc     0x0000fe97      0xb0d mesh/core/libmesh_core_nrf51422_xxAC.a(enc.c.obj)
 .debug_loc     0x000109a4      0xe27 mesh/core/libmesh_core_nrf51422_xxAC.a(network.c.obj)
 .debug_loc     0x000117cb      0x197 mesh/core/libmesh_core_nrf51422_xxAC.a(nrf_mesh_keygen.c.obj)
 .debug_loc     0x00011962      0x598 mesh/core/libmesh_core_nrf51422_xxAC.a(list.c.obj)
 .debug_loc     0x00011efa      0x2e5 mesh/core/libmesh_core_nrf51422_xxAC.a(log.c.obj)
 .debug_loc     0x000121df     0x17c2 mesh/core/libmesh_core_nrf51422_xxAC.a(flash_manager.c.obj)
 .debug_loc     0x000139a1      0x4a0 mesh/core/libmesh_core_nrf51422_xxAC.a(ccm_soft.c.obj)
 .debug_loc     0x00013e41      0x521 mesh/core/libmesh_core_nrf51422_xxAC.a(beacon.c.obj)
 .debug_loc     0x00014362      0x149 mesh/core/libmesh_core_nrf51422_xxAC.a(flash_manager_internal.c.obj)
 .debug_loc     0x000144ab      0x632 mesh/core/libmesh_core_nrf51422_xxAC.a(core_tx.c.obj)
 .debug_loc     0x00014add      0x706 mesh/core/libmesh_core_nrf51422_xxAC.a(heartbeat.c.obj)
 .debug_loc     0x000151e3      0x4a3 mesh/core/libmesh_core_nrf51422_xxAC.a(net_beacon.c.obj)
 .debug_loc     0x00015686      0x3e4 mesh/core/libmesh_core_nrf51422_xxAC.a(core_tx_adv.c.obj)
 .debug_loc     0x00015a6a      0x394 mesh/core/libmesh_core_nrf51422_xxAC.a(ad_listener.c.obj)
 .debug_loc     0x00015dfe      0x434 mesh/core/libmesh_core_nrf51422_xxAC.a(ad_type_filter.c.obj)
 .debug_loc     0x00016232      0xdf8 mesh/core/libmesh_core_nrf51422_xxAC.a(advertiser.c.obj)
 .debug_loc     0x0001702a      0x3e1 mesh/core/libmesh_core_nrf51422_xxAC.a(bearer_handler.c.obj)
 .debug_loc     0x0001740b      0x301 mesh/core/libmesh_core_nrf51422_xxAC.a(broadcast.c.obj)
 .debug_loc     0x0001770c      0x14a mesh/core/libmesh_core_nrf51422_xxAC.a(filter_engine.c.obj)
 .debug_loc     0x00017856      0x2b2 mesh/core/libmesh_core_nrf51422_xxAC.a(radio_config.c.obj)
 .debug_loc     0x00017b08      0x57f mesh/core/libmesh_core_nrf51422_xxAC.a(scanner.c.obj)
 .debug_loc     0x00018087       0xa5 mesh/core/libmesh_core_nrf51422_xxAC.a(aes.c.obj)
 .debug_loc     0x0001812c       0xeb mesh/core/libmesh_core_nrf51422_xxAC.a(msg_cache.c.obj)
 .debug_loc     0x00018217     0x2719 mesh/core/libmesh_core_nrf51422_xxAC.a(transport.c.obj)
 .debug_loc     0x0001a930      0x838 mesh/core/libmesh_core_nrf51422_xxAC.a(flash_manager_defrag.c.obj)
 .debug_loc     0x0001b168      0x67d mesh/core/libmesh_core_nrf51422_xxAC.a(packet_mgr.c.obj)
 .debug_loc     0x0001b7e5      0xa7c mesh/core/libmesh_core_nrf51422_xxAC.a(mesh_flash.c.obj)
 .debug_loc     0x0001c261      0x1f9 mesh/core/libmesh_core_nrf51422_xxAC.a(queue.c.obj)
 .debug_loc     0x0001c45a      0x339 mesh/core/libmesh_core_nrf51422_xxAC.a(aes_cmac.c.obj)
 .debug_loc     0x0001c793      0x41a mesh/core/libmesh_core_nrf51422_xxAC.a(msqueue.c.obj)
 .debug_loc     0x0001cbad      0x1fb mesh/core/libmesh_core_nrf51422_xxAC.a(replay_cache.c.obj)
 .debug_loc     0x0001cda8      0x1af mesh/core/libmesh_core_nrf51422_xxAC.a(nrf_flash.c.obj)
 .debug_loc     0x0001cf57     0x2673 external/micro-ecc/libuECC_nrf51422_xxAC.a(uECC.c.obj)
 .debug_loc     0x0001f5ca     0x135a external/rtt/librtt_nrf51422_xxAC.a(SEGGER_RTT.c.obj)
 .debug_loc     0x00020924      0x79b external/rtt/librtt_nrf51422_xxAC.a(SEGGER_RTT_printf.c.obj)

.debug_aranges  0x00000000     0x2310
 .debug_aranges
                0x00000000       0x28 examples/serial/CMakeFiles/serial_nrf51422_xxAC_s130_2.0.1.dir/src/main.c.obj
 .debug_aranges
                0x00000028       0x80 examples/serial/CMakeFiles/serial_nrf51422_xxAC_s130_2.0.1.dir/__/nrf_mesh_sdk.c.obj
 .debug_aranges
                0x000000a8       0x70 examples/serial/CMakeFiles/serial_nrf51422_xxAC_s130_2.0.1.dir/__/__/mesh/prov/src/prov_provisioner.c.obj
 .debug_aranges
                0x00000118       0x70 examples/serial/CMakeFiles/serial_nrf51422_xxAC_s130_2.0.1.dir/__/__/mesh/prov/src/prov_provisionee.c.obj
 .debug_aranges
                0x00000188       0x78 examples/serial/CMakeFiles/serial_nrf51422_xxAC_s130_2.0.1.dir/__/__/mesh/prov/src/nrf_mesh_prov.c.obj
 .debug_aranges
                0x00000200       0x80 examples/serial/CMakeFiles/serial_nrf51422_xxAC_s130_2.0.1.dir/__/__/mesh/prov/src/provisioning.c.obj
 .debug_aranges
                0x00000280       0x38 examples/serial/CMakeFiles/serial_nrf51422_xxAC_s130_2.0.1.dir/__/__/mesh/prov/src/prov_beacon.c.obj
 .debug_aranges
                0x000002b8       0x70 examples/serial/CMakeFiles/serial_nrf51422_xxAC_s130_2.0.1.dir/__/__/mesh/prov/src/prov_utils.c.obj
 .debug_aranges
                0x00000328       0xc8 examples/serial/CMakeFiles/serial_nrf51422_xxAC_s130_2.0.1.dir/__/__/mesh/prov/src/prov_bearer_adv.c.obj
 .debug_aranges
                0x000003f0       0x50 examples/serial/CMakeFiles/serial_nrf51422_xxAC_s130_2.0.1.dir/__/__/mesh/access/src/access_publish.c.obj
 .debug_aranges
                0x00000440      0x1b0 examples/serial/CMakeFiles/serial_nrf51422_xxAC_s130_2.0.1.dir/__/__/mesh/access/src/access.c.obj
 .debug_aranges
                0x000005f0       0x50 examples/serial/CMakeFiles/serial_nrf51422_xxAC_s130_2.0.1.dir/__/__/mesh/access/src/access_reliable.c.obj
 .debug_aranges
                0x00000640      0x300 examples/serial/CMakeFiles/serial_nrf51422_xxAC_s130_2.0.1.dir/__/__/mesh/access/src/device_state_manager.c.obj
 .debug_aranges
                0x00000940       0x38 examples/serial/CMakeFiles/serial_nrf51422_xxAC_s130_2.0.1.dir/__/__/mesh/serial/src/serial_uart.c.obj
 .debug_aranges
                0x00000978       0x68 examples/serial/CMakeFiles/serial_nrf51422_xxAC_s130_2.0.1.dir/__/__/mesh/serial/src/serial_bearer.c.obj
 .debug_aranges
                0x000009e0       0x28 examples/serial/CMakeFiles/serial_nrf51422_xxAC_s130_2.0.1.dir/__/__/mesh/serial/src/serial_handler_common.c.obj
 .debug_aranges
                0x00000a08       0xd0 examples/serial/CMakeFiles/serial_nrf51422_xxAC_s130_2.0.1.dir/__/__/mesh/serial/src/serial_handler_access.c.obj
 .debug_aranges
                0x00000ad8       0x20 examples/serial/CMakeFiles/serial_nrf51422_xxAC_s130_2.0.1.dir/__/__/mesh/serial/src/serial_handler_config.c.obj
 .debug_aranges
                0x00000af8       0x20 examples/serial/CMakeFiles/serial_nrf51422_xxAC_s130_2.0.1.dir/__/__/mesh/serial/src/serial_handler_openmesh.c.obj
 .debug_aranges
                0x00000b18       0x60 examples/serial/CMakeFiles/serial_nrf51422_xxAC_s130_2.0.1.dir/__/__/mesh/serial/src/serial.c.obj
 .debug_aranges
                0x00000b78       0x50 examples/serial/CMakeFiles/serial_nrf51422_xxAC_s130_2.0.1.dir/__/__/mesh/serial/src/serial_handler_prov.c.obj
 .debug_aranges
                0x00000bc8       0x30 examples/serial/CMakeFiles/serial_nrf51422_xxAC_s130_2.0.1.dir/__/__/mesh/serial/src/serial_handler_dfu.c.obj
 .debug_aranges
                0x00000bf8      0x110 examples/serial/CMakeFiles/serial_nrf51422_xxAC_s130_2.0.1.dir/__/__/mesh/serial/src/serial_handler_mesh.c.obj
 .debug_aranges
                0x00000d08       0x48 examples/serial/CMakeFiles/serial_nrf51422_xxAC_s130_2.0.1.dir/__/__/mesh/serial/src/serial_handler_models.c.obj
 .debug_aranges
                0x00000d50       0x78 examples/serial/CMakeFiles/serial_nrf51422_xxAC_s130_2.0.1.dir/__/__/mesh/serial/src/serial_handler_device.c.obj
 .debug_aranges
                0x00000dc8       0x38 examples/serial/CMakeFiles/serial_nrf51422_xxAC_s130_2.0.1.dir/__/__/mesh/serial/src/nrf_mesh_serial.c.obj
 .debug_aranges
                0x00000e00       0x28 examples/serial/CMakeFiles/serial_nrf51422_xxAC_s130_2.0.1.dir/__/__/mesh/serial/src/serial_handler_app.c.obj
 .debug_aranges
                0x00000e28       0x28 examples/serial/CMakeFiles/serial_nrf51422_xxAC_s130_2.0.1.dir/__/nrf_mesh_weak.c.obj
 .debug_aranges
                0x00000e50       0x28 examples/serial/CMakeFiles/serial_nrf51422_xxAC_s130_2.0.1.dir/__/__/external/nRF5_SDK_14.2.0_17b948a/components/toolchain/system_nrf51.c.obj
 .debug_aranges
                0x00000e78       0x30 mesh/core/libmesh_core_nrf51422_xxAC.a(internal_event.c.obj)
 .debug_aranges
                0x00000ea8       0x30 mesh/core/libmesh_core_nrf51422_xxAC.a(nrf_mesh_configure.c.obj)
 .debug_aranges
                0x00000ed8       0x30 mesh/core/libmesh_core_nrf51422_xxAC.a(event.c.obj)
 .debug_aranges
                0x00000f08       0x80 mesh/core/libmesh_core_nrf51422_xxAC.a(packet_buffer.c.obj)
 .debug_aranges
                0x00000f88       0x60 mesh/core/libmesh_core_nrf51422_xxAC.a(fifo.c.obj)
 .debug_aranges
                0x00000fe8       0xc0 mesh/core/libmesh_core_nrf51422_xxAC.a(net_state.c.obj)
 .debug_aranges
                0x000010a8       0x30 mesh/core/libmesh_core_nrf51422_xxAC.a(nrf_mesh_utils.c.obj)
 .debug_aranges
                0x000010d8       0x88 mesh/core/libmesh_core_nrf51422_xxAC.a(nrf_mesh.c.obj)
 .debug_aranges
                0x00001160       0x38 mesh/core/libmesh_core_nrf51422_xxAC.a(hal.c.obj)
 .debug_aranges
                0x00001198       0x68 mesh/core/libmesh_core_nrf51422_xxAC.a(timer_scheduler.c.obj)
 .debug_aranges
                0x00001200       0x60 mesh/core/libmesh_core_nrf51422_xxAC.a(timer.c.obj)
 .debug_aranges
                0x00001260       0x30 mesh/core/libmesh_core_nrf51422_xxAC.a(ticker.c.obj)
 .debug_aranges
                0x00001290       0x40 mesh/core/libmesh_core_nrf51422_xxAC.a(rand.c.obj)
 .debug_aranges
                0x000012d0       0x28 mesh/core/libmesh_core_nrf51422_xxAC.a(nrf_mesh_opt.c.obj)
 .debug_aranges
                0x000012f8       0xb8 mesh/core/libmesh_core_nrf51422_xxAC.a(timeslot.c.obj)
 .debug_aranges
                0x000013b0       0x98 mesh/core/libmesh_core_nrf51422_xxAC.a(bearer_event.c.obj)
 .debug_aranges
                0x00001448       0x70 mesh/core/libmesh_core_nrf51422_xxAC.a(enc.c.obj)
 .debug_aranges
                0x000014b8       0x60 mesh/core/libmesh_core_nrf51422_xxAC.a(network.c.obj)
 .debug_aranges
                0x00001518       0x40 mesh/core/libmesh_core_nrf51422_xxAC.a(nrf_mesh_keygen.c.obj)
 .debug_aranges
                0x00001558       0x48 mesh/core/libmesh_core_nrf51422_xxAC.a(list.c.obj)
 .debug_aranges
                0x000015a0       0x48 mesh/core/libmesh_core_nrf51422_xxAC.a(log.c.obj)
 .debug_aranges
                0x000015e8      0x100 mesh/core/libmesh_core_nrf51422_xxAC.a(flash_manager.c.obj)
 .debug_aranges
                0x000016e8       0x50 mesh/core/libmesh_core_nrf51422_xxAC.a(ccm_soft.c.obj)
 .debug_aranges
                0x00001738       0x38 mesh/core/libmesh_core_nrf51422_xxAC.a(beacon.c.obj)
 .debug_aranges
                0x00001770       0x20 mesh/core/libmesh_core_nrf51422_xxAC.a(flash_manager_internal.c.obj)
 .debug_aranges
                0x00001790       0x58 mesh/core/libmesh_core_nrf51422_xxAC.a(core_tx.c.obj)
 .debug_aranges
                0x000017e8       0x70 mesh/core/libmesh_core_nrf51422_xxAC.a(heartbeat.c.obj)
 .debug_aranges
                0x00001858       0x48 mesh/core/libmesh_core_nrf51422_xxAC.a(net_beacon.c.obj)
 .debug_aranges
                0x000018a0       0x68 mesh/core/libmesh_core_nrf51422_xxAC.a(core_tx_adv.c.obj)
 .debug_aranges
                0x00001908       0x30 mesh/core/libmesh_core_nrf51422_xxAC.a(ad_listener.c.obj)
 .debug_aranges
                0x00001938       0x58 mesh/core/libmesh_core_nrf51422_xxAC.a(ad_type_filter.c.obj)
 .debug_aranges
                0x00001990       0xb0 mesh/core/libmesh_core_nrf51422_xxAC.a(advertiser.c.obj)
 .debug_aranges
                0x00001a40       0x70 mesh/core/libmesh_core_nrf51422_xxAC.a(bearer_handler.c.obj)
 .debug_aranges
                0x00001ab0       0x30 mesh/core/libmesh_core_nrf51422_xxAC.a(broadcast.c.obj)
 .debug_aranges
                0x00001ae0       0x38 mesh/core/libmesh_core_nrf51422_xxAC.a(filter_engine.c.obj)
 .debug_aranges
                0x00001b18       0x40 mesh/core/libmesh_core_nrf51422_xxAC.a(radio_config.c.obj)
 .debug_aranges
                0x00001b58       0xe0 mesh/core/libmesh_core_nrf51422_xxAC.a(scanner.c.obj)
 .debug_aranges
                0x00001c38       0x28 mesh/core/libmesh_core_nrf51422_xxAC.a(aes.c.obj)
 .debug_aranges
                0x00001c60       0x38 mesh/core/libmesh_core_nrf51422_xxAC.a(msg_cache.c.obj)
 .debug_aranges
                0x00001c98      0x120 mesh/core/libmesh_core_nrf51422_xxAC.a(transport.c.obj)
 .debug_aranges
                0x00001db8       0xc8 mesh/core/libmesh_core_nrf51422_xxAC.a(flash_manager_defrag.c.obj)
 .debug_aranges
                0x00001e80       0x48 mesh/core/libmesh_core_nrf51422_xxAC.a(packet_mgr.c.obj)
 .debug_aranges
                0x00001ec8       0x60 mesh/core/libmesh_core_nrf51422_xxAC.a(mesh_flash.c.obj)
 .debug_aranges
                0x00001f28       0x38 mesh/core/libmesh_core_nrf51422_xxAC.a(queue.c.obj)
 .debug_aranges
                0x00001f60       0x38 mesh/core/libmesh_core_nrf51422_xxAC.a(aes_cmac.c.obj)
 .debug_aranges
                0x00001f98       0x48 mesh/core/libmesh_core_nrf51422_xxAC.a(msqueue.c.obj)
 .debug_aranges
                0x00001fe0       0x48 mesh/core/libmesh_core_nrf51422_xxAC.a(replay_cache.c.obj)
 .debug_aranges
                0x00002028       0x30 mesh/core/libmesh_core_nrf51422_xxAC.a(nrf_flash.c.obj)
 .debug_aranges
                0x00002058      0x1a8 external/micro-ecc/libuECC_nrf51422_xxAC.a(uECC.c.obj)
 .debug_aranges
                0x00002200       0xd8 external/rtt/librtt_nrf51422_xxAC.a(SEGGER_RTT.c.obj)
 .debug_aranges
                0x000022d8       0x38 external/rtt/librtt_nrf51422_xxAC.a(SEGGER_RTT_printf.c.obj)

.debug_ranges   0x00000000     0x7b18
 .debug_ranges  0x00000000       0xb8 examples/serial/CMakeFiles/serial_nrf51422_xxAC_s130_2.0.1.dir/src/main.c.obj
 .debug_ranges  0x000000b8      0x1b0 examples/serial/CMakeFiles/serial_nrf51422_xxAC_s130_2.0.1.dir/__/nrf_mesh_sdk.c.obj
 .debug_ranges  0x00000268       0xd8 examples/serial/CMakeFiles/serial_nrf51422_xxAC_s130_2.0.1.dir/__/__/mesh/prov/src/prov_provisioner.c.obj
 .debug_ranges  0x00000340      0x120 examples/serial/CMakeFiles/serial_nrf51422_xxAC_s130_2.0.1.dir/__/__/mesh/prov/src/prov_provisionee.c.obj
 .debug_ranges  0x00000460       0xb0 examples/serial/CMakeFiles/serial_nrf51422_xxAC_s130_2.0.1.dir/__/__/mesh/prov/src/nrf_mesh_prov.c.obj
 .debug_ranges  0x00000510       0xa0 examples/serial/CMakeFiles/serial_nrf51422_xxAC_s130_2.0.1.dir/__/__/mesh/prov/src/provisioning.c.obj
 .debug_ranges  0x000005b0       0x88 examples/serial/CMakeFiles/serial_nrf51422_xxAC_s130_2.0.1.dir/__/__/mesh/prov/src/prov_beacon.c.obj
 .debug_ranges  0x00000638       0xd0 examples/serial/CMakeFiles/serial_nrf51422_xxAC_s130_2.0.1.dir/__/__/mesh/prov/src/prov_utils.c.obj
 .debug_ranges  0x00000708      0x5d0 examples/serial/CMakeFiles/serial_nrf51422_xxAC_s130_2.0.1.dir/__/__/mesh/prov/src/prov_bearer_adv.c.obj
 .debug_ranges  0x00000cd8      0x158 examples/serial/CMakeFiles/serial_nrf51422_xxAC_s130_2.0.1.dir/__/__/mesh/access/src/access_publish.c.obj
 .debug_ranges  0x00000e30      0x610 examples/serial/CMakeFiles/serial_nrf51422_xxAC_s130_2.0.1.dir/__/__/mesh/access/src/access.c.obj
 .debug_ranges  0x00001440      0x1d8 examples/serial/CMakeFiles/serial_nrf51422_xxAC_s130_2.0.1.dir/__/__/mesh/access/src/access_reliable.c.obj
 .debug_ranges  0x00001618      0xae0 examples/serial/CMakeFiles/serial_nrf51422_xxAC_s130_2.0.1.dir/__/__/mesh/access/src/device_state_manager.c.obj
 .debug_ranges  0x000020f8       0x48 examples/serial/CMakeFiles/serial_nrf51422_xxAC_s130_2.0.1.dir/__/__/mesh/serial/src/serial_uart.c.obj
 .debug_ranges  0x00002140      0x170 examples/serial/CMakeFiles/serial_nrf51422_xxAC_s130_2.0.1.dir/__/__/mesh/serial/src/serial_bearer.c.obj
 .debug_ranges  0x000022b0       0x48 examples/serial/CMakeFiles/serial_nrf51422_xxAC_s130_2.0.1.dir/__/__/mesh/serial/src/serial_handler_common.c.obj
 .debug_ranges  0x000022f8       0xd8 examples/serial/CMakeFiles/serial_nrf51422_xxAC_s130_2.0.1.dir/__/__/mesh/serial/src/serial_handler_access.c.obj
 .debug_ranges  0x000023d0       0x40 examples/serial/CMakeFiles/serial_nrf51422_xxAC_s130_2.0.1.dir/__/__/mesh/serial/src/serial_handler_config.c.obj
 .debug_ranges  0x00002410       0x10 examples/serial/CMakeFiles/serial_nrf51422_xxAC_s130_2.0.1.dir/__/__/mesh/serial/src/serial_handler_openmesh.c.obj
 .debug_ranges  0x00002420      0x108 examples/serial/CMakeFiles/serial_nrf51422_xxAC_s130_2.0.1.dir/__/__/mesh/serial/src/serial.c.obj
 .debug_ranges  0x00002528      0x2a8 examples/serial/CMakeFiles/serial_nrf51422_xxAC_s130_2.0.1.dir/__/__/mesh/serial/src/serial_handler_prov.c.obj
 .debug_ranges  0x000027d0      0x130 examples/serial/CMakeFiles/serial_nrf51422_xxAC_s130_2.0.1.dir/__/__/mesh/serial/src/serial_handler_dfu.c.obj
 .debug_ranges  0x00002900      0x1c0 examples/serial/CMakeFiles/serial_nrf51422_xxAC_s130_2.0.1.dir/__/__/mesh/serial/src/serial_handler_mesh.c.obj
 .debug_ranges  0x00002ac0       0x98 examples/serial/CMakeFiles/serial_nrf51422_xxAC_s130_2.0.1.dir/__/__/mesh/serial/src/serial_handler_models.c.obj
 .debug_ranges  0x00002b58      0x118 examples/serial/CMakeFiles/serial_nrf51422_xxAC_s130_2.0.1.dir/__/__/mesh/serial/src/serial_handler_device.c.obj
 .debug_ranges  0x00002c70       0x40 examples/serial/CMakeFiles/serial_nrf51422_xxAC_s130_2.0.1.dir/__/__/mesh/serial/src/nrf_mesh_serial.c.obj
 .debug_ranges  0x00002cb0       0x18 examples/serial/CMakeFiles/serial_nrf51422_xxAC_s130_2.0.1.dir/__/__/mesh/serial/src/serial_handler_app.c.obj
 .debug_ranges  0x00002cc8       0x18 examples/serial/CMakeFiles/serial_nrf51422_xxAC_s130_2.0.1.dir/__/nrf_mesh_weak.c.obj
 .debug_ranges  0x00002ce0       0x48 examples/serial/CMakeFiles/serial_nrf51422_xxAC_s130_2.0.1.dir/__/__/external/nRF5_SDK_14.2.0_17b948a/components/toolchain/system_nrf51.c.obj
 .debug_ranges  0x00002d28       0x20 mesh/core/libmesh_core_nrf51422_xxAC.a(internal_event.c.obj)
 .debug_ranges  0x00002d48       0x20 mesh/core/libmesh_core_nrf51422_xxAC.a(nrf_mesh_configure.c.obj)
 .debug_ranges  0x00002d68       0x68 mesh/core/libmesh_core_nrf51422_xxAC.a(event.c.obj)
 .debug_ranges  0x00002dd0      0x458 mesh/core/libmesh_core_nrf51422_xxAC.a(packet_buffer.c.obj)
 .debug_ranges  0x00003228       0xb0 mesh/core/libmesh_core_nrf51422_xxAC.a(fifo.c.obj)
 .debug_ranges  0x000032d8      0x1e8 mesh/core/libmesh_core_nrf51422_xxAC.a(net_state.c.obj)
 .debug_ranges  0x000034c0       0x38 mesh/core/libmesh_core_nrf51422_xxAC.a(nrf_mesh_utils.c.obj)
 .debug_ranges  0x000034f8       0xd8 mesh/core/libmesh_core_nrf51422_xxAC.a(nrf_mesh.c.obj)
 .debug_ranges  0x000035d0       0x28 mesh/core/libmesh_core_nrf51422_xxAC.a(hal.c.obj)
 .debug_ranges  0x000035f8      0x210 mesh/core/libmesh_core_nrf51422_xxAC.a(timer_scheduler.c.obj)
 .debug_ranges  0x00003808      0x118 mesh/core/libmesh_core_nrf51422_xxAC.a(timer.c.obj)
 .debug_ranges  0x00003920       0x20 mesh/core/libmesh_core_nrf51422_xxAC.a(ticker.c.obj)
 .debug_ranges  0x00003940       0x48 mesh/core/libmesh_core_nrf51422_xxAC.a(rand.c.obj)
 .debug_ranges  0x00003988       0x18 mesh/core/libmesh_core_nrf51422_xxAC.a(nrf_mesh_opt.c.obj)
 .debug_ranges  0x000039a0      0x178 mesh/core/libmesh_core_nrf51422_xxAC.a(timeslot.c.obj)
 .debug_ranges  0x00003b18      0x228 mesh/core/libmesh_core_nrf51422_xxAC.a(bearer_event.c.obj)
 .debug_ranges  0x00003d40      0x170 mesh/core/libmesh_core_nrf51422_xxAC.a(enc.c.obj)
 .debug_ranges  0x00003eb0      0x4c8 mesh/core/libmesh_core_nrf51422_xxAC.a(network.c.obj)
 .debug_ranges  0x00004378       0x30 mesh/core/libmesh_core_nrf51422_xxAC.a(nrf_mesh_keygen.c.obj)
 .debug_ranges  0x000043a8      0x178 mesh/core/libmesh_core_nrf51422_xxAC.a(list.c.obj)
 .debug_ranges  0x00004520       0x38 mesh/core/libmesh_core_nrf51422_xxAC.a(log.c.obj)
 .debug_ranges  0x00004558      0x740 mesh/core/libmesh_core_nrf51422_xxAC.a(flash_manager.c.obj)
 .debug_ranges  0x00004c98       0x40 mesh/core/libmesh_core_nrf51422_xxAC.a(ccm_soft.c.obj)
 .debug_ranges  0x00004cd8       0xd8 mesh/core/libmesh_core_nrf51422_xxAC.a(beacon.c.obj)
 .debug_ranges  0x00004db0       0x58 mesh/core/libmesh_core_nrf51422_xxAC.a(flash_manager_internal.c.obj)
 .debug_ranges  0x00004e08      0x288 mesh/core/libmesh_core_nrf51422_xxAC.a(core_tx.c.obj)
 .debug_ranges  0x00005090      0x250 mesh/core/libmesh_core_nrf51422_xxAC.a(heartbeat.c.obj)
 .debug_ranges  0x000052e0       0xb8 mesh/core/libmesh_core_nrf51422_xxAC.a(net_beacon.c.obj)
 .debug_ranges  0x00005398       0xe8 mesh/core/libmesh_core_nrf51422_xxAC.a(core_tx_adv.c.obj)
 .debug_ranges  0x00005480       0xa0 mesh/core/libmesh_core_nrf51422_xxAC.a(ad_listener.c.obj)
 .debug_ranges  0x00005520      0x130 mesh/core/libmesh_core_nrf51422_xxAC.a(ad_type_filter.c.obj)
 .debug_ranges  0x00005650      0x460 mesh/core/libmesh_core_nrf51422_xxAC.a(advertiser.c.obj)
 .debug_ranges  0x00005ab0      0x288 mesh/core/libmesh_core_nrf51422_xxAC.a(bearer_handler.c.obj)
 .debug_ranges  0x00005d38       0xf0 mesh/core/libmesh_core_nrf51422_xxAC.a(broadcast.c.obj)
 .debug_ranges  0x00005e28       0x88 mesh/core/libmesh_core_nrf51422_xxAC.a(filter_engine.c.obj)
 .debug_ranges  0x00005eb0      0x110 mesh/core/libmesh_core_nrf51422_xxAC.a(radio_config.c.obj)
 .debug_ranges  0x00005fc0      0x2c8 mesh/core/libmesh_core_nrf51422_xxAC.a(scanner.c.obj)
 .debug_ranges  0x00006288       0x18 mesh/core/libmesh_core_nrf51422_xxAC.a(aes.c.obj)
 .debug_ranges  0x000062a0       0x48 mesh/core/libmesh_core_nrf51422_xxAC.a(msg_cache.c.obj)
 .debug_ranges  0x000062e8      0x848 mesh/core/libmesh_core_nrf51422_xxAC.a(transport.c.obj)
 .debug_ranges  0x00006b30      0x388 mesh/core/libmesh_core_nrf51422_xxAC.a(flash_manager_defrag.c.obj)
 .debug_ranges  0x00006eb8      0x1b8 mesh/core/libmesh_core_nrf51422_xxAC.a(packet_mgr.c.obj)
 .debug_ranges  0x00007070      0x318 mesh/core/libmesh_core_nrf51422_xxAC.a(mesh_flash.c.obj)
 .debug_ranges  0x00007388       0xa0 mesh/core/libmesh_core_nrf51422_xxAC.a(queue.c.obj)
 .debug_ranges  0x00007428       0x78 mesh/core/libmesh_core_nrf51422_xxAC.a(aes_cmac.c.obj)
 .debug_ranges  0x000074a0      0x158 mesh/core/libmesh_core_nrf51422_xxAC.a(msqueue.c.obj)
 .debug_ranges  0x000075f8       0x78 mesh/core/libmesh_core_nrf51422_xxAC.a(replay_cache.c.obj)
 .debug_ranges  0x00007670       0x38 mesh/core/libmesh_core_nrf51422_xxAC.a(nrf_flash.c.obj)
 .debug_ranges  0x000076a8      0x308 external/micro-ecc/libuECC_nrf51422_xxAC.a(uECC.c.obj)
 .debug_ranges  0x000079b0      0x118 external/rtt/librtt_nrf51422_xxAC.a(SEGGER_RTT.c.obj)
 .debug_ranges  0x00007ac8       0x50 external/rtt/librtt_nrf51422_xxAC.a(SEGGER_RTT_printf.c.obj)

.debug_line     0x00000000    0x18984
 .debug_line    0x00000000      0x4e1 examples/serial/CMakeFiles/serial_nrf51422_xxAC_s130_2.0.1.dir/src/main.c.obj
 .debug_line    0x000004e1      0x711 examples/serial/CMakeFiles/serial_nrf51422_xxAC_s130_2.0.1.dir/__/nrf_mesh_sdk.c.obj
 .debug_line    0x00000bf2      0x53e examples/serial/CMakeFiles/serial_nrf51422_xxAC_s130_2.0.1.dir/__/__/mesh/prov/src/prov_provisioner.c.obj
 .debug_line    0x00001130      0x5f7 examples/serial/CMakeFiles/serial_nrf51422_xxAC_s130_2.0.1.dir/__/__/mesh/prov/src/prov_provisionee.c.obj
 .debug_line    0x00001727      0x492 examples/serial/CMakeFiles/serial_nrf51422_xxAC_s130_2.0.1.dir/__/__/mesh/prov/src/nrf_mesh_prov.c.obj
 .debug_line    0x00001bb9      0x3a6 examples/serial/CMakeFiles/serial_nrf51422_xxAC_s130_2.0.1.dir/__/__/mesh/prov/src/provisioning.c.obj
 .debug_line    0x00001f5f      0x438 examples/serial/CMakeFiles/serial_nrf51422_xxAC_s130_2.0.1.dir/__/__/mesh/prov/src/prov_beacon.c.obj
 .debug_line    0x00002397      0x471 examples/serial/CMakeFiles/serial_nrf51422_xxAC_s130_2.0.1.dir/__/__/mesh/prov/src/prov_utils.c.obj
 .debug_line    0x00002808      0xbef examples/serial/CMakeFiles/serial_nrf51422_xxAC_s130_2.0.1.dir/__/__/mesh/prov/src/prov_bearer_adv.c.obj
 .debug_line    0x000033f7      0x3fc examples/serial/CMakeFiles/serial_nrf51422_xxAC_s130_2.0.1.dir/__/__/mesh/access/src/access_publish.c.obj
 .debug_line    0x000037f3      0xe1d examples/serial/CMakeFiles/serial_nrf51422_xxAC_s130_2.0.1.dir/__/__/mesh/access/src/access.c.obj
 .debug_line    0x00004610      0x471 examples/serial/CMakeFiles/serial_nrf51422_xxAC_s130_2.0.1.dir/__/__/mesh/access/src/access_reliable.c.obj
 .debug_line    0x00004a81     0x14f1 examples/serial/CMakeFiles/serial_nrf51422_xxAC_s130_2.0.1.dir/__/__/mesh/access/src/device_state_manager.c.obj
 .debug_line    0x00005f72      0x33d examples/serial/CMakeFiles/serial_nrf51422_xxAC_s130_2.0.1.dir/__/__/mesh/serial/src/serial_uart.c.obj
 .debug_line    0x000062af      0x5d4 examples/serial/CMakeFiles/serial_nrf51422_xxAC_s130_2.0.1.dir/__/__/mesh/serial/src/serial_bearer.c.obj
 .debug_line    0x00006883      0x31d examples/serial/CMakeFiles/serial_nrf51422_xxAC_s130_2.0.1.dir/__/__/mesh/serial/src/serial_handler_common.c.obj
 .debug_line    0x00006ba0      0x50d examples/serial/CMakeFiles/serial_nrf51422_xxAC_s130_2.0.1.dir/__/__/mesh/serial/src/serial_handler_access.c.obj
 .debug_line    0x000070ad      0x3be examples/serial/CMakeFiles/serial_nrf51422_xxAC_s130_2.0.1.dir/__/__/mesh/serial/src/serial_handler_config.c.obj
 .debug_line    0x0000746b      0x2e4 examples/serial/CMakeFiles/serial_nrf51422_xxAC_s130_2.0.1.dir/__/__/mesh/serial/src/serial_handler_openmesh.c.obj
 .debug_line    0x0000774f      0x5cb examples/serial/CMakeFiles/serial_nrf51422_xxAC_s130_2.0.1.dir/__/__/mesh/serial/src/serial.c.obj
 .debug_line    0x00007d1a      0x7e4 examples/serial/CMakeFiles/serial_nrf51422_xxAC_s130_2.0.1.dir/__/__/mesh/serial/src/serial_handler_prov.c.obj
 .debug_line    0x000084fe      0x4b7 examples/serial/CMakeFiles/serial_nrf51422_xxAC_s130_2.0.1.dir/__/__/mesh/serial/src/serial_handler_dfu.c.obj
 .debug_line    0x000089b5      0x731 examples/serial/CMakeFiles/serial_nrf51422_xxAC_s130_2.0.1.dir/__/__/mesh/serial/src/serial_handler_mesh.c.obj
 .debug_line    0x000090e6      0x400 examples/serial/CMakeFiles/serial_nrf51422_xxAC_s130_2.0.1.dir/__/__/mesh/serial/src/serial_handler_models.c.obj
 .debug_line    0x000094e6      0x5ed examples/serial/CMakeFiles/serial_nrf51422_xxAC_s130_2.0.1.dir/__/__/mesh/serial/src/serial_handler_device.c.obj
 .debug_line    0x00009ad3      0x3e9 examples/serial/CMakeFiles/serial_nrf51422_xxAC_s130_2.0.1.dir/__/__/mesh/serial/src/nrf_mesh_serial.c.obj
 .debug_line    0x00009ebc      0x2f6 examples/serial/CMakeFiles/serial_nrf51422_xxAC_s130_2.0.1.dir/__/__/mesh/serial/src/serial_handler_app.c.obj
 .debug_line    0x0000a1b2      0x1d0 examples/serial/CMakeFiles/serial_nrf51422_xxAC_s130_2.0.1.dir/__/nrf_mesh_weak.c.obj
 .debug_line    0x0000a382      0x17b examples/serial/CMakeFiles/serial_nrf51422_xxAC_s130_2.0.1.dir/__/__/external/nRF5_SDK_14.2.0_17b948a/components/toolchain/system_nrf51.c.obj
 .debug_line    0x0000a4fd      0x255 mesh/core/libmesh_core_nrf51422_xxAC.a(internal_event.c.obj)
 .debug_line    0x0000a752      0x20f mesh/core/libmesh_core_nrf51422_xxAC.a(nrf_mesh_configure.c.obj)
 .debug_line    0x0000a961      0x2ba mesh/core/libmesh_core_nrf51422_xxAC.a(event.c.obj)
 .debug_line    0x0000ac1b      0x728 mesh/core/libmesh_core_nrf51422_xxAC.a(packet_buffer.c.obj)
 .debug_line    0x0000b343      0x3b8 mesh/core/libmesh_core_nrf51422_xxAC.a(fifo.c.obj)
 .debug_line    0x0000b6fb      0x6ab mesh/core/libmesh_core_nrf51422_xxAC.a(net_state.c.obj)
 .debug_line    0x0000bda6      0x217 mesh/core/libmesh_core_nrf51422_xxAC.a(nrf_mesh_utils.c.obj)
 .debug_line    0x0000bfbd      0x725 mesh/core/libmesh_core_nrf51422_xxAC.a(nrf_mesh.c.obj)
 .debug_line    0x0000c6e2      0x24d mesh/core/libmesh_core_nrf51422_xxAC.a(hal.c.obj)
 .debug_line    0x0000c92f      0x4a3 mesh/core/libmesh_core_nrf51422_xxAC.a(timer_scheduler.c.obj)
 .debug_line    0x0000cdd2      0x433 mesh/core/libmesh_core_nrf51422_xxAC.a(timer.c.obj)
 .debug_line    0x0000d205      0x129 mesh/core/libmesh_core_nrf51422_xxAC.a(ticker.c.obj)
 .debug_line    0x0000d32e      0x243 mesh/core/libmesh_core_nrf51422_xxAC.a(rand.c.obj)
 .debug_line    0x0000d571      0x252 mesh/core/libmesh_core_nrf51422_xxAC.a(nrf_mesh_opt.c.obj)
 .debug_line    0x0000d7c3      0x5fb mesh/core/libmesh_core_nrf51422_xxAC.a(timeslot.c.obj)
 .debug_line    0x0000ddbe      0x621 mesh/core/libmesh_core_nrf51422_xxAC.a(bearer_event.c.obj)
 .debug_line    0x0000e3df      0x44b mesh/core/libmesh_core_nrf51422_xxAC.a(enc.c.obj)
 .debug_line    0x0000e82a      0x7f4 mesh/core/libmesh_core_nrf51422_xxAC.a(network.c.obj)
 .debug_line    0x0000f01e      0x1e8 mesh/core/libmesh_core_nrf51422_xxAC.a(nrf_mesh_keygen.c.obj)
 .debug_line    0x0000f206      0x31b mesh/core/libmesh_core_nrf51422_xxAC.a(list.c.obj)
 .debug_line    0x0000f521      0x233 mesh/core/libmesh_core_nrf51422_xxAC.a(log.c.obj)
 .debug_line    0x0000f754      0xa80 mesh/core/libmesh_core_nrf51422_xxAC.a(flash_manager.c.obj)
 .debug_line    0x000101d4      0x2e7 mesh/core/libmesh_core_nrf51422_xxAC.a(ccm_soft.c.obj)
 .debug_line    0x000104bb      0x4d3 mesh/core/libmesh_core_nrf51422_xxAC.a(beacon.c.obj)
 .debug_line    0x0001098e      0x239 mesh/core/libmesh_core_nrf51422_xxAC.a(flash_manager_internal.c.obj)
 .debug_line    0x00010bc7      0x432 mesh/core/libmesh_core_nrf51422_xxAC.a(core_tx.c.obj)
 .debug_line    0x00010ff9      0x5eb mesh/core/libmesh_core_nrf51422_xxAC.a(heartbeat.c.obj)
 .debug_line    0x000115e4      0x400 mesh/core/libmesh_core_nrf51422_xxAC.a(net_beacon.c.obj)
 .debug_line    0x000119e4      0x440 mesh/core/libmesh_core_nrf51422_xxAC.a(core_tx_adv.c.obj)
 .debug_line    0x00011e24      0x305 mesh/core/libmesh_core_nrf51422_xxAC.a(ad_listener.c.obj)
 .debug_line    0x00012129      0x3e9 mesh/core/libmesh_core_nrf51422_xxAC.a(ad_type_filter.c.obj)
 .debug_line    0x00012512      0x83d mesh/core/libmesh_core_nrf51422_xxAC.a(advertiser.c.obj)
 .debug_line    0x00012d4f      0x5de mesh/core/libmesh_core_nrf51422_xxAC.a(bearer_handler.c.obj)
 .debug_line    0x0001332d      0x37c mesh/core/libmesh_core_nrf51422_xxAC.a(broadcast.c.obj)
 .debug_line    0x000136a9      0x306 mesh/core/libmesh_core_nrf51422_xxAC.a(filter_engine.c.obj)
 .debug_line    0x000139af      0x303 mesh/core/libmesh_core_nrf51422_xxAC.a(radio_config.c.obj)
 .debug_line    0x00013cb2      0x798 mesh/core/libmesh_core_nrf51422_xxAC.a(scanner.c.obj)
 .debug_line    0x0001444a      0x1fe mesh/core/libmesh_core_nrf51422_xxAC.a(aes.c.obj)
 .debug_line    0x00014648      0x245 mesh/core/libmesh_core_nrf51422_xxAC.a(msg_cache.c.obj)
 .debug_line    0x0001488d     0x1040 mesh/core/libmesh_core_nrf51422_xxAC.a(transport.c.obj)
 .debug_line    0x000158cd      0x7e4 mesh/core/libmesh_core_nrf51422_xxAC.a(flash_manager_defrag.c.obj)
 .debug_line    0x000160b1      0x477 mesh/core/libmesh_core_nrf51422_xxAC.a(packet_mgr.c.obj)
 .debug_line    0x00016528      0x5a6 mesh/core/libmesh_core_nrf51422_xxAC.a(mesh_flash.c.obj)
 .debug_line    0x00016ace      0x2d0 mesh/core/libmesh_core_nrf51422_xxAC.a(queue.c.obj)
 .debug_line    0x00016d9e      0x27e mesh/core/libmesh_core_nrf51422_xxAC.a(aes_cmac.c.obj)
 .debug_line    0x0001701c      0x335 mesh/core/libmesh_core_nrf51422_xxAC.a(msqueue.c.obj)
 .debug_line    0x00017351      0x1fb mesh/core/libmesh_core_nrf51422_xxAC.a(replay_cache.c.obj)
 .debug_line    0x0001754c      0x252 mesh/core/libmesh_core_nrf51422_xxAC.a(nrf_flash.c.obj)
 .debug_line    0x0001779e      0xa52 external/micro-ecc/libuECC_nrf51422_xxAC.a(uECC.c.obj)
 .debug_line    0x000181f0      0x4ea external/rtt/librtt_nrf51422_xxAC.a(SEGGER_RTT.c.obj)
 .debug_line    0x000186da      0x2aa external/rtt/librtt_nrf51422_xxAC.a(SEGGER_RTT_printf.c.obj)

.debug_str      0x00000000    0x124e6
 .debug_str     0x00000000      0xdd2 examples/serial/CMakeFiles/serial_nrf51422_xxAC_s130_2.0.1.dir/src/main.c.obj
                                0xeaa (size before relaxing)
 .debug_str     0x00000dd2     0x12b1 examples/serial/CMakeFiles/serial_nrf51422_xxAC_s130_2.0.1.dir/__/nrf_mesh_sdk.c.obj
                               0x1f86 (size before relaxing)
 .debug_str     0x00002083     0x161f examples/serial/CMakeFiles/serial_nrf51422_xxAC_s130_2.0.1.dir/__/__/mesh/prov/src/prov_provisioner.c.obj
                               0x1e8d (size before relaxing)
 .debug_str     0x000036a2      0x268 examples/serial/CMakeFiles/serial_nrf51422_xxAC_s130_2.0.1.dir/__/__/mesh/prov/src/prov_provisionee.c.obj
                               0x2045 (size before relaxing)
 .debug_str     0x0000390a      0x204 examples/serial/CMakeFiles/serial_nrf51422_xxAC_s130_2.0.1.dir/__/__/mesh/prov/src/nrf_mesh_prov.c.obj
                               0x1c63 (size before relaxing)
 .debug_str     0x00003b0e       0xc3 examples/serial/CMakeFiles/serial_nrf51422_xxAC_s130_2.0.1.dir/__/__/mesh/prov/src/provisioning.c.obj
                                0xf26 (size before relaxing)
 .debug_str     0x00003bd1      0x5c6 examples/serial/CMakeFiles/serial_nrf51422_xxAC_s130_2.0.1.dir/__/__/mesh/prov/src/prov_beacon.c.obj
                               0x1843 (size before relaxing)
 .debug_str     0x00004197      0x1fe examples/serial/CMakeFiles/serial_nrf51422_xxAC_s130_2.0.1.dir/__/__/mesh/prov/src/prov_utils.c.obj
                               0x1e27 (size before relaxing)
 .debug_str     0x00004395      0x813 examples/serial/CMakeFiles/serial_nrf51422_xxAC_s130_2.0.1.dir/__/__/mesh/prov/src/prov_bearer_adv.c.obj
                               0x1ae1 (size before relaxing)
 .debug_str     0x00004ba8      0x3eb examples/serial/CMakeFiles/serial_nrf51422_xxAC_s130_2.0.1.dir/__/__/mesh/access/src/access_publish.c.obj
                                0xbb5 (size before relaxing)
 .debug_str     0x00004f93     0x1cbf examples/serial/CMakeFiles/serial_nrf51422_xxAC_s130_2.0.1.dir/__/__/mesh/access/src/access.c.obj
                               0x2b2a (size before relaxing)
 .debug_str     0x00006c52      0x209 examples/serial/CMakeFiles/serial_nrf51422_xxAC_s130_2.0.1.dir/__/__/mesh/access/src/access_reliable.c.obj
                                0xc83 (size before relaxing)
 .debug_str     0x00006e5b     0x11da examples/serial/CMakeFiles/serial_nrf51422_xxAC_s130_2.0.1.dir/__/__/mesh/access/src/device_state_manager.c.obj
                               0x2e3f (size before relaxing)
 .debug_str     0x00008035      0x1e6 examples/serial/CMakeFiles/serial_nrf51422_xxAC_s130_2.0.1.dir/__/__/mesh/serial/src/serial_uart.c.obj
                                0xa75 (size before relaxing)
 .debug_str     0x0000821b     0x1852 examples/serial/CMakeFiles/serial_nrf51422_xxAC_s130_2.0.1.dir/__/__/mesh/serial/src/serial_bearer.c.obj
                               0x28d9 (size before relaxing)
 .debug_str     0x00009a6d      0x132 examples/serial/CMakeFiles/serial_nrf51422_xxAC_s130_2.0.1.dir/__/__/mesh/serial/src/serial_handler_common.c.obj
                               0x213f (size before relaxing)
 .debug_str     0x00009b9f      0x1c4 examples/serial/CMakeFiles/serial_nrf51422_xxAC_s130_2.0.1.dir/__/__/mesh/serial/src/serial_handler_access.c.obj
                               0x261c (size before relaxing)
 .debug_str     0x00009d63       0x86 examples/serial/CMakeFiles/serial_nrf51422_xxAC_s130_2.0.1.dir/__/__/mesh/serial/src/serial_handler_config.c.obj
                               0x20d6 (size before relaxing)
 .debug_str     0x00009de9       0x58 examples/serial/CMakeFiles/serial_nrf51422_xxAC_s130_2.0.1.dir/__/__/mesh/serial/src/serial_handler_openmesh.c.obj
                               0x2086 (size before relaxing)
 .debug_str     0x00009e41      0x265 examples/serial/CMakeFiles/serial_nrf51422_xxAC_s130_2.0.1.dir/__/__/mesh/serial/src/serial.c.obj
                               0x2505 (size before relaxing)
 .debug_str     0x0000a0a6      0x1f3 examples/serial/CMakeFiles/serial_nrf51422_xxAC_s130_2.0.1.dir/__/__/mesh/serial/src/serial_handler_prov.c.obj
                               0x3e0c (size before relaxing)
 .debug_str     0x0000a299      0x2b4 examples/serial/CMakeFiles/serial_nrf51422_xxAC_s130_2.0.1.dir/__/__/mesh/serial/src/serial_handler_dfu.c.obj
                               0x2ff9 (size before relaxing)
 .debug_str     0x0000a54d      0x49b examples/serial/CMakeFiles/serial_nrf51422_xxAC_s130_2.0.1.dir/__/__/mesh/serial/src/serial_handler_mesh.c.obj
                               0x3535 (size before relaxing)
 .debug_str     0x0000a9e8      0x17d examples/serial/CMakeFiles/serial_nrf51422_xxAC_s130_2.0.1.dir/__/__/mesh/serial/src/serial_handler_models.c.obj
                               0x22cd (size before relaxing)
 .debug_str     0x0000ab65      0x526 examples/serial/CMakeFiles/serial_nrf51422_xxAC_s130_2.0.1.dir/__/__/mesh/serial/src/serial_handler_device.c.obj
                               0x2c6b (size before relaxing)
 .debug_str     0x0000b08b       0x88 examples/serial/CMakeFiles/serial_nrf51422_xxAC_s130_2.0.1.dir/__/__/mesh/serial/src/nrf_mesh_serial.c.obj
                               0x21fd (size before relaxing)
 .debug_str     0x0000b113       0x4a examples/serial/CMakeFiles/serial_nrf51422_xxAC_s130_2.0.1.dir/__/__/mesh/serial/src/serial_handler_app.c.obj
                               0x209d (size before relaxing)
 .debug_str     0x0000b15d       0x3c examples/serial/CMakeFiles/serial_nrf51422_xxAC_s130_2.0.1.dir/__/nrf_mesh_weak.c.obj
                                0x62e (size before relaxing)
 .debug_str     0x0000b199      0x116 examples/serial/CMakeFiles/serial_nrf51422_xxAC_s130_2.0.1.dir/__/__/external/nRF5_SDK_14.2.0_17b948a/components/toolchain/system_nrf51.c.obj
                                0x2dc (size before relaxing)
 .debug_str     0x0000b2af       0xee mesh/core/libmesh_core_nrf51422_xxAC.a(internal_event.c.obj)
                                0xa74 (size before relaxing)
 .debug_str     0x0000b39d       0xe0 mesh/core/libmesh_core_nrf51422_xxAC.a(nrf_mesh_configure.c.obj)
                                0x723 (size before relaxing)
 .debug_str     0x0000b47d       0x82 mesh/core/libmesh_core_nrf51422_xxAC.a(event.c.obj)
                               0x1495 (size before relaxing)
 .debug_str     0x0000b4ff      0x2d4 mesh/core/libmesh_core_nrf51422_xxAC.a(packet_buffer.c.obj)
                                0xbe6 (size before relaxing)
 .debug_str     0x0000b7d3       0x76 mesh/core/libmesh_core_nrf51422_xxAC.a(fifo.c.obj)
                                0x6c4 (size before relaxing)
 .debug_str     0x0000b849      0x357 mesh/core/libmesh_core_nrf51422_xxAC.a(net_state.c.obj)
                               0x1e1a (size before relaxing)
 .debug_str     0x0000bba0       0x8b mesh/core/libmesh_core_nrf51422_xxAC.a(nrf_mesh_utils.c.obj)
                                0x73a (size before relaxing)
 .debug_str     0x0000bc2b      0x593 mesh/core/libmesh_core_nrf51422_xxAC.a(nrf_mesh.c.obj)
                               0x298a (size before relaxing)
 .debug_str     0x0000c1be       0xa9 mesh/core/libmesh_core_nrf51422_xxAC.a(hal.c.obj)
                                0x746 (size before relaxing)
 .debug_str     0x0000c267      0x13d mesh/core/libmesh_core_nrf51422_xxAC.a(timer_scheduler.c.obj)
                                0x91d (size before relaxing)
 .debug_str     0x0000c3a4      0x212 mesh/core/libmesh_core_nrf51422_xxAC.a(timer.c.obj)
                                0x743 (size before relaxing)
 .debug_str     0x0000c5b6       0x3c mesh/core/libmesh_core_nrf51422_xxAC.a(ticker.c.obj)
                                0x33a (size before relaxing)
 .debug_str     0x0000c5f2       0xac mesh/core/libmesh_core_nrf51422_xxAC.a(rand.c.obj)
                                0x6f9 (size before relaxing)
 .debug_str     0x0000c69e       0x75 mesh/core/libmesh_core_nrf51422_xxAC.a(nrf_mesh_opt.c.obj)
                                0x902 (size before relaxing)
 .debug_str     0x0000c713      0x8ba mesh/core/libmesh_core_nrf51422_xxAC.a(timeslot.c.obj)
                               0x1716 (size before relaxing)
 .debug_str     0x0000cfcd      0x2af mesh/core/libmesh_core_nrf51422_xxAC.a(bearer_event.c.obj)
                                0xd62 (size before relaxing)
 .debug_str     0x0000d27c      0x1ad mesh/core/libmesh_core_nrf51422_xxAC.a(enc.c.obj)
                                0x9a3 (size before relaxing)
 .debug_str     0x0000d429      0x6ac mesh/core/libmesh_core_nrf51422_xxAC.a(network.c.obj)
                               0x19ab (size before relaxing)
 .debug_str     0x0000dad5       0x57 mesh/core/libmesh_core_nrf51422_xxAC.a(nrf_mesh_keygen.c.obj)
                                0x36d (size before relaxing)
 .debug_str     0x0000db2c       0x65 mesh/core/libmesh_core_nrf51422_xxAC.a(list.c.obj)
                                0x2a7 (size before relaxing)
 .debug_str     0x0000db91      0x182 mesh/core/libmesh_core_nrf51422_xxAC.a(log.c.obj)
                                0x7b1 (size before relaxing)
 .debug_str     0x0000dd13      0x782 mesh/core/libmesh_core_nrf51422_xxAC.a(flash_manager.c.obj)
                               0x19c2 (size before relaxing)
 .debug_str     0x0000e495       0x85 mesh/core/libmesh_core_nrf51422_xxAC.a(ccm_soft.c.obj)
                                0x73e (size before relaxing)
 .debug_str     0x0000e51a       0xa6 mesh/core/libmesh_core_nrf51422_xxAC.a(beacon.c.obj)
                               0x10ba (size before relaxing)
 .debug_str     0x0000e5c0       0x38 mesh/core/libmesh_core_nrf51422_xxAC.a(flash_manager_internal.c.obj)
                                0x79f (size before relaxing)
 .debug_str     0x0000e5f8      0x138 mesh/core/libmesh_core_nrf51422_xxAC.a(core_tx.c.obj)
                                0x88c (size before relaxing)
 .debug_str     0x0000e730      0x748 mesh/core/libmesh_core_nrf51422_xxAC.a(heartbeat.c.obj)
                               0x200f (size before relaxing)
 .debug_str     0x0000ee78      0x1c2 mesh/core/libmesh_core_nrf51422_xxAC.a(net_beacon.c.obj)
                                0xe58 (size before relaxing)
 .debug_str     0x0000f03a      0x102 mesh/core/libmesh_core_nrf51422_xxAC.a(core_tx_adv.c.obj)
                                0xfc2 (size before relaxing)
 .debug_str     0x0000f13c      0x189 mesh/core/libmesh_core_nrf51422_xxAC.a(ad_listener.c.obj)
                                0xb53 (size before relaxing)
 .debug_str     0x0000f2c5      0x14f mesh/core/libmesh_core_nrf51422_xxAC.a(ad_type_filter.c.obj)
                                0x98d (size before relaxing)
 .debug_str     0x0000f414      0x2ab mesh/core/libmesh_core_nrf51422_xxAC.a(advertiser.c.obj)
                               0x1459 (size before relaxing)
 .debug_str     0x0000f6bf      0x34d mesh/core/libmesh_core_nrf51422_xxAC.a(bearer_handler.c.obj)
                                0xe3e (size before relaxing)
 .debug_str     0x0000fa0c      0x1ac mesh/core/libmesh_core_nrf51422_xxAC.a(broadcast.c.obj)
                                0xea1 (size before relaxing)
 .debug_str     0x0000fbb8       0x72 mesh/core/libmesh_core_nrf51422_xxAC.a(filter_engine.c.obj)
                                0x7fa (size before relaxing)
 .debug_str     0x0000fc2a       0x79 mesh/core/libmesh_core_nrf51422_xxAC.a(radio_config.c.obj)
                                0x6f0 (size before relaxing)
 .debug_str     0x0000fca3      0x45d mesh/core/libmesh_core_nrf51422_xxAC.a(scanner.c.obj)
                               0x171c (size before relaxing)
 .debug_str     0x00010100       0xc1 mesh/core/libmesh_core_nrf51422_xxAC.a(aes.c.obj)
                                0xa8b (size before relaxing)
 .debug_str     0x000101c1       0x68 mesh/core/libmesh_core_nrf51422_xxAC.a(msg_cache.c.obj)
                                0x6cb (size before relaxing)
 .debug_str     0x00010229      0xd0f mesh/core/libmesh_core_nrf51422_xxAC.a(transport.c.obj)
                               0x31ce (size before relaxing)
 .debug_str     0x00010f38      0x3ae mesh/core/libmesh_core_nrf51422_xxAC.a(flash_manager_defrag.c.obj)
                               0x14e0 (size before relaxing)
 .debug_str     0x000112e6      0x266 mesh/core/libmesh_core_nrf51422_xxAC.a(packet_mgr.c.obj)
                                0x9b0 (size before relaxing)
 .debug_str     0x0001154c      0x343 mesh/core/libmesh_core_nrf51422_xxAC.a(mesh_flash.c.obj)
                                0xcd7 (size before relaxing)
 .debug_str     0x0001188f       0x19 mesh/core/libmesh_core_nrf51422_xxAC.a(queue.c.obj)
                                0x66c (size before relaxing)
 .debug_str     0x000118a8       0xb8 mesh/core/libmesh_core_nrf51422_xxAC.a(aes_cmac.c.obj)
                                0x6f6 (size before relaxing)
 .debug_str     0x00011960       0x43 mesh/core/libmesh_core_nrf51422_xxAC.a(msqueue.c.obj)
                                0x6a8 (size before relaxing)
 .debug_str     0x000119a3       0x9f mesh/core/libmesh_core_nrf51422_xxAC.a(replay_cache.c.obj)
                                0x69e (size before relaxing)
 .debug_str     0x00011a42       0x75 mesh/core/libmesh_core_nrf51422_xxAC.a(nrf_flash.c.obj)
                                0x692 (size before relaxing)
 .debug_str     0x00011ab7      0x67f external/micro-ecc/libuECC_nrf51422_xxAC.a(uECC.c.obj)
                                0x86e (size before relaxing)
 .debug_str     0x00012136      0x2d1 external/rtt/librtt_nrf51422_xxAC.a(SEGGER_RTT.c.obj)
                                0x910 (size before relaxing)
 .debug_str     0x00012407       0xdf external/rtt/librtt_nrf51422_xxAC.a(SEGGER_RTT_printf.c.obj)
                                0x780 (size before relaxing)

.debug_frame    0x00000000     0x6504
 .debug_frame   0x00000000       0x40 examples/serial/CMakeFiles/serial_nrf51422_xxAC_s130_2.0.1.dir/src/main.c.obj
 .debug_frame   0x00000040      0x154 examples/serial/CMakeFiles/serial_nrf51422_xxAC_s130_2.0.1.dir/__/nrf_mesh_sdk.c.obj
 .debug_frame   0x00000194      0x150 examples/serial/CMakeFiles/serial_nrf51422_xxAC_s130_2.0.1.dir/__/__/mesh/prov/src/prov_provisioner.c.obj
 .debug_frame   0x000002e4      0x150 examples/serial/CMakeFiles/serial_nrf51422_xxAC_s130_2.0.1.dir/__/__/mesh/prov/src/prov_provisionee.c.obj
 .debug_frame   0x00000434      0x13c examples/serial/CMakeFiles/serial_nrf51422_xxAC_s130_2.0.1.dir/__/__/mesh/prov/src/nrf_mesh_prov.c.obj
 .debug_frame   0x00000570      0x16c examples/serial/CMakeFiles/serial_nrf51422_xxAC_s130_2.0.1.dir/__/__/mesh/prov/src/provisioning.c.obj
 .debug_frame   0x000006dc       0x78 examples/serial/CMakeFiles/serial_nrf51422_xxAC_s130_2.0.1.dir/__/__/mesh/prov/src/prov_beacon.c.obj
 .debug_frame   0x00000754      0x13c examples/serial/CMakeFiles/serial_nrf51422_xxAC_s130_2.0.1.dir/__/__/mesh/prov/src/prov_utils.c.obj
 .debug_frame   0x00000890      0x298 examples/serial/CMakeFiles/serial_nrf51422_xxAC_s130_2.0.1.dir/__/__/mesh/prov/src/prov_bearer_adv.c.obj
 .debug_frame   0x00000b28       0xd8 examples/serial/CMakeFiles/serial_nrf51422_xxAC_s130_2.0.1.dir/__/__/mesh/access/src/access_publish.c.obj
 .debug_frame   0x00000c00      0x55c examples/serial/CMakeFiles/serial_nrf51422_xxAC_s130_2.0.1.dir/__/__/mesh/access/src/access.c.obj
 .debug_frame   0x0000115c       0xdc examples/serial/CMakeFiles/serial_nrf51422_xxAC_s130_2.0.1.dir/__/__/mesh/access/src/access_reliable.c.obj
 .debug_frame   0x00001238      0xa6c examples/serial/CMakeFiles/serial_nrf51422_xxAC_s130_2.0.1.dir/__/__/mesh/access/src/device_state_manager.c.obj
 .debug_frame   0x00001ca4       0x70 examples/serial/CMakeFiles/serial_nrf51422_xxAC_s130_2.0.1.dir/__/__/mesh/serial/src/serial_uart.c.obj
 .debug_frame   0x00001d14      0x130 examples/serial/CMakeFiles/serial_nrf51422_xxAC_s130_2.0.1.dir/__/__/mesh/serial/src/serial_bearer.c.obj
 .debug_frame   0x00001e44       0x48 examples/serial/CMakeFiles/serial_nrf51422_xxAC_s130_2.0.1.dir/__/__/mesh/serial/src/serial_handler_common.c.obj
 .debug_frame   0x00001e8c      0x268 examples/serial/CMakeFiles/serial_nrf51422_xxAC_s130_2.0.1.dir/__/__/mesh/serial/src/serial_handler_access.c.obj
 .debug_frame   0x000020f4       0x2c examples/serial/CMakeFiles/serial_nrf51422_xxAC_s130_2.0.1.dir/__/__/mesh/serial/src/serial_handler_config.c.obj
 .debug_frame   0x00002120       0x28 examples/serial/CMakeFiles/serial_nrf51422_xxAC_s130_2.0.1.dir/__/__/mesh/serial/src/serial_handler_openmesh.c.obj
 .debug_frame   0x00002148      0x104 examples/serial/CMakeFiles/serial_nrf51422_xxAC_s130_2.0.1.dir/__/__/mesh/serial/src/serial.c.obj
 .debug_frame   0x0000224c       0xb0 examples/serial/CMakeFiles/serial_nrf51422_xxAC_s130_2.0.1.dir/__/__/mesh/serial/src/serial_handler_prov.c.obj
 .debug_frame   0x000022fc       0x68 examples/serial/CMakeFiles/serial_nrf51422_xxAC_s130_2.0.1.dir/__/__/mesh/serial/src/serial_handler_dfu.c.obj
 .debug_frame   0x00002364      0x3a0 examples/serial/CMakeFiles/serial_nrf51422_xxAC_s130_2.0.1.dir/__/__/mesh/serial/src/serial_handler_mesh.c.obj
 .debug_frame   0x00002704       0xbc examples/serial/CMakeFiles/serial_nrf51422_xxAC_s130_2.0.1.dir/__/__/mesh/serial/src/serial_handler_models.c.obj
 .debug_frame   0x000027c0      0x164 examples/serial/CMakeFiles/serial_nrf51422_xxAC_s130_2.0.1.dir/__/__/mesh/serial/src/serial_handler_device.c.obj
 .debug_frame   0x00002924       0x7c examples/serial/CMakeFiles/serial_nrf51422_xxAC_s130_2.0.1.dir/__/__/mesh/serial/src/nrf_mesh_serial.c.obj
 .debug_frame   0x000029a0       0x38 examples/serial/CMakeFiles/serial_nrf51422_xxAC_s130_2.0.1.dir/__/__/mesh/serial/src/serial_handler_app.c.obj
 .debug_frame   0x000029d8       0x30 examples/serial/CMakeFiles/serial_nrf51422_xxAC_s130_2.0.1.dir/__/nrf_mesh_weak.c.obj
 .debug_frame   0x00002a08       0x38 examples/serial/CMakeFiles/serial_nrf51422_xxAC_s130_2.0.1.dir/__/__/external/nRF5_SDK_14.2.0_17b948a/components/toolchain/system_nrf51.c.obj
 .debug_frame   0x00002a40       0x58 mesh/core/libmesh_core_nrf51422_xxAC.a(internal_event.c.obj)
 .debug_frame   0x00002a98       0x50 mesh/core/libmesh_core_nrf51422_xxAC.a(nrf_mesh_configure.c.obj)
 .debug_frame   0x00002ae8       0x5c mesh/core/libmesh_core_nrf51422_xxAC.a(event.c.obj)
 .debug_frame   0x00002b44      0x178 mesh/core/libmesh_core_nrf51422_xxAC.a(packet_buffer.c.obj)
 .debug_frame   0x00002cbc       0xd4 mesh/core/libmesh_core_nrf51422_xxAC.a(fifo.c.obj)
 .debug_frame   0x00002d90      0x210 mesh/core/libmesh_core_nrf51422_xxAC.a(net_state.c.obj)
 .debug_frame   0x00002fa0       0x50 mesh/core/libmesh_core_nrf51422_xxAC.a(nrf_mesh_utils.c.obj)
 .debug_frame   0x00002ff0      0x164 mesh/core/libmesh_core_nrf51422_xxAC.a(nrf_mesh.c.obj)
 .debug_frame   0x00003154       0x58 mesh/core/libmesh_core_nrf51422_xxAC.a(hal.c.obj)
 .debug_frame   0x000031ac      0x124 mesh/core/libmesh_core_nrf51422_xxAC.a(timer_scheduler.c.obj)
 .debug_frame   0x000032d0      0x110 mesh/core/libmesh_core_nrf51422_xxAC.a(timer.c.obj)
 .debug_frame   0x000033e0       0x48 mesh/core/libmesh_core_nrf51422_xxAC.a(ticker.c.obj)
 .debug_frame   0x00003428       0x90 mesh/core/libmesh_core_nrf51422_xxAC.a(rand.c.obj)
 .debug_frame   0x000034b8       0x40 mesh/core/libmesh_core_nrf51422_xxAC.a(nrf_mesh_opt.c.obj)
 .debug_frame   0x000034f8      0x1b0 mesh/core/libmesh_core_nrf51422_xxAC.a(timeslot.c.obj)
 .debug_frame   0x000036a8      0x1b0 mesh/core/libmesh_core_nrf51422_xxAC.a(bearer_event.c.obj)
 .debug_frame   0x00003858      0x14c mesh/core/libmesh_core_nrf51422_xxAC.a(enc.c.obj)
 .debug_frame   0x000039a4      0x110 mesh/core/libmesh_core_nrf51422_xxAC.a(network.c.obj)
 .debug_frame   0x00003ab4       0xa4 mesh/core/libmesh_core_nrf51422_xxAC.a(nrf_mesh_keygen.c.obj)
 .debug_frame   0x00003b58       0xb8 mesh/core/libmesh_core_nrf51422_xxAC.a(list.c.obj)
 .debug_frame   0x00003c10       0xac mesh/core/libmesh_core_nrf51422_xxAC.a(log.c.obj)
 .debug_frame   0x00003cbc      0x308 mesh/core/libmesh_core_nrf51422_xxAC.a(flash_manager.c.obj)
 .debug_frame   0x00003fc4       0xec mesh/core/libmesh_core_nrf51422_xxAC.a(ccm_soft.c.obj)
 .debug_frame   0x000040b0       0x90 mesh/core/libmesh_core_nrf51422_xxAC.a(beacon.c.obj)
 .debug_frame   0x00004140       0x34 mesh/core/libmesh_core_nrf51422_xxAC.a(flash_manager_internal.c.obj)
 .debug_frame   0x00004174       0xd8 mesh/core/libmesh_core_nrf51422_xxAC.a(core_tx.c.obj)
 .debug_frame   0x0000424c      0x14c mesh/core/libmesh_core_nrf51422_xxAC.a(heartbeat.c.obj)
 .debug_frame   0x00004398       0xb8 mesh/core/libmesh_core_nrf51422_xxAC.a(net_beacon.c.obj)
 .debug_frame   0x00004450      0x11c mesh/core/libmesh_core_nrf51422_xxAC.a(core_tx_adv.c.obj)
 .debug_frame   0x0000456c       0x74 mesh/core/libmesh_core_nrf51422_xxAC.a(ad_listener.c.obj)
 .debug_frame   0x000045e0       0xbc mesh/core/libmesh_core_nrf51422_xxAC.a(ad_type_filter.c.obj)
 .debug_frame   0x0000469c      0x214 mesh/core/libmesh_core_nrf51422_xxAC.a(advertiser.c.obj)
 .debug_frame   0x000048b0      0x12c mesh/core/libmesh_core_nrf51422_xxAC.a(bearer_handler.c.obj)
 .debug_frame   0x000049dc       0x64 mesh/core/libmesh_core_nrf51422_xxAC.a(broadcast.c.obj)
 .debug_frame   0x00004a40       0x6c mesh/core/libmesh_core_nrf51422_xxAC.a(filter_engine.c.obj)
 .debug_frame   0x00004aac       0x88 mesh/core/libmesh_core_nrf51422_xxAC.a(radio_config.c.obj)
 .debug_frame   0x00004b34      0x288 mesh/core/libmesh_core_nrf51422_xxAC.a(scanner.c.obj)
 .debug_frame   0x00004dbc       0x3c mesh/core/libmesh_core_nrf51422_xxAC.a(aes.c.obj)
 .debug_frame   0x00004df8       0x74 mesh/core/libmesh_core_nrf51422_xxAC.a(msg_cache.c.obj)
 .debug_frame   0x00004e6c      0x3cc mesh/core/libmesh_core_nrf51422_xxAC.a(transport.c.obj)
 .debug_frame   0x00005238      0x24c mesh/core/libmesh_core_nrf51422_xxAC.a(flash_manager_defrag.c.obj)
 .debug_frame   0x00005484       0x98 mesh/core/libmesh_core_nrf51422_xxAC.a(packet_mgr.c.obj)
 .debug_frame   0x0000551c      0x11c mesh/core/libmesh_core_nrf51422_xxAC.a(mesh_flash.c.obj)
 .debug_frame   0x00005638       0x74 mesh/core/libmesh_core_nrf51422_xxAC.a(queue.c.obj)
 .debug_frame   0x000056ac       0x84 mesh/core/libmesh_core_nrf51422_xxAC.a(aes_cmac.c.obj)
 .debug_frame   0x00005730       0xa4 mesh/core/libmesh_core_nrf51422_xxAC.a(msqueue.c.obj)
 .debug_frame   0x000057d4       0xa8 mesh/core/libmesh_core_nrf51422_xxAC.a(replay_cache.c.obj)
 .debug_frame   0x0000587c       0x64 mesh/core/libmesh_core_nrf51422_xxAC.a(nrf_flash.c.obj)
 .debug_frame   0x000058e0      0x5a0 external/micro-ecc/libuECC_nrf51422_xxAC.a(uECC.c.obj)
 .debug_frame   0x00005e80      0x2d8 external/rtt/librtt_nrf51422_xxAC.a(SEGGER_RTT.c.obj)
 .debug_frame   0x00006158       0x88 external/rtt/librtt_nrf51422_xxAC.a(SEGGER_RTT_printf.c.obj)
 .debug_frame   0x000061e0       0x20 c:/a/gcc_arm/6/bin/../lib/gcc/arm-none-eabi/6.3.1/thumb/v6-m\libgcc.a(_udivsi3.o)
 .debug_frame   0x00006200       0x20 c:/a/gcc_arm/6/bin/../lib/gcc/arm-none-eabi/6.3.1/thumb/v6-m\libgcc.a(_divsi3.o)
 .debug_frame   0x00006220       0x34 c:/a/gcc_arm/6/bin/../lib/gcc/arm-none-eabi/6.3.1/thumb/v6-m\libgcc.a(_muldi3.o)
 .debug_frame   0x00006254       0x28 c:/a/gcc_arm/6/bin/../lib/gcc/arm-none-eabi/6.3.1/../../../../arm-none-eabi/lib/thumb/v6-m\libg_nano.a(lib_a-exit.o)
 .debug_frame   0x0000627c       0x2c c:/a/gcc_arm/6/bin/../lib/gcc/arm-none-eabi/6.3.1/../../../../arm-none-eabi/lib/thumb/v6-m\libg_nano.a(lib_a-init.o)
 .debug_frame   0x000062a8       0x40 c:/a/gcc_arm/6/bin/../lib/gcc/arm-none-eabi/6.3.1/../../../../arm-none-eabi/lib/thumb/v6-m\libg_nano.a(lib_a-malloc.o)
 .debug_frame   0x000062e8       0x2c c:/a/gcc_arm/6/bin/../lib/gcc/arm-none-eabi/6.3.1/../../../../arm-none-eabi/lib/thumb/v6-m\libg_nano.a(lib_a-memcmp.o)
 .debug_frame   0x00006314       0x28 c:/a/gcc_arm/6/bin/../lib/gcc/arm-none-eabi/6.3.1/../../../../arm-none-eabi/lib/thumb/v6-m\libg_nano.a(lib_a-memcpy-stub.o)
 .debug_frame   0x0000633c       0x20 c:/a/gcc_arm/6/bin/../lib/gcc/arm-none-eabi/6.3.1/../../../../arm-none-eabi/lib/thumb/v6-m\libg_nano.a(lib_a-memset.o)
 .debug_frame   0x0000635c       0x2c c:/a/gcc_arm/6/bin/../lib/gcc/arm-none-eabi/6.3.1/../../../../arm-none-eabi/lib/thumb/v6-m\libg_nano.a(lib_a-nano-freer.o)
 .debug_frame   0x00006388       0x2c c:/a/gcc_arm/6/bin/../lib/gcc/arm-none-eabi/6.3.1/../../../../arm-none-eabi/lib/thumb/v6-m\libg_nano.a(lib_a-nano-mallocr.o)
 .debug_frame   0x000063b4       0x2c c:/a/gcc_arm/6/bin/../lib/gcc/arm-none-eabi/6.3.1/../../../../arm-none-eabi/lib/thumb/v6-m\libg_nano.a(lib_a-sbrkr.o)
 .debug_frame   0x000063e0       0x20 c:/a/gcc_arm/6/bin/../lib/gcc/arm-none-eabi/6.3.1/../../../../arm-none-eabi/lib/thumb/v6-m\libg_nano.a(lib_a-strcpy.o)
 .debug_frame   0x00006400       0x2c c:/a/gcc_arm/6/bin/../lib/gcc/arm-none-eabi/6.3.1/../../../../arm-none-eabi/lib/thumb/v6-m\libg_nano.a(lib_a-strrchr.o)
 .debug_frame   0x0000642c       0x30 c:/a/gcc_arm/6/bin/../lib/gcc/arm-none-eabi/6.3.1/../../../../arm-none-eabi/lib/thumb/v6-m\libg_nano.a(lib_a-mlock.o)
 .debug_frame   0x0000645c       0x48 c:/a/gcc_arm/6/bin/../lib/gcc/arm-none-eabi/6.3.1/../../../../arm-none-eabi/lib/thumb/v6-m\libg_nano.a(lib_a-reent.o)
 .debug_frame   0x000064a4       0x20 c:/a/gcc_arm/6/bin/../lib/gcc/arm-none-eabi/6.3.1/../../../../arm-none-eabi/lib/thumb/v6-m\libg_nano.a(lib_a-strchr.o)
 .debug_frame   0x000064c4       0x20 c:/a/gcc_arm/6/bin/../lib/gcc/arm-none-eabi/6.3.1/../../../../arm-none-eabi/lib/thumb/v6-m\libnosys.a(sbrk.o)
 .debug_frame   0x000064e4       0x20 c:/a/gcc_arm/6/bin/../lib/gcc/arm-none-eabi/6.3.1/../../../../arm-none-eabi/lib/thumb/v6-m\libnosys.a(_exit.o)
