Archive member included to satisfy reference by file (symbol)

mesh/core/libmesh_core_nrf52832_xxAA.a(internal_event.c.obj)
                              examples/serial/CMakeFiles/serial_nrf52832_xxAA_s132_3.1.0.dir/__/__/mesh/serial/src/serial_handler_device.c.obj (internal_event_init)
mesh/core/libmesh_core_nrf52832_xxAA.a(nrf_mesh_configure.c.obj)
                              examples/serial/CMakeFiles/serial_nrf52832_xxAA_s132_3.1.0.dir/__/__/mesh/serial/src/serial_handler_config.c.obj (nrf_mesh_configure_device_uuid_set)
mesh/core/libmesh_core_nrf52832_xxAA.a(event.c.obj)
                              examples/serial/CMakeFiles/serial_nrf52832_xxAA_s132_3.1.0.dir/__/__/mesh/access/src/access.c.obj (event_handle)
mesh/core/libmesh_core_nrf52832_xxAA.a(packet_buffer.c.obj)
                              examples/serial/CMakeFiles/serial_nrf52832_xxAA_s132_3.1.0.dir/__/__/mesh/serial/src/serial_bearer.c.obj (packet_buffer_max_packet_len_get)
mesh/core/libmesh_core_nrf52832_xxAA.a(fifo.c.obj)
                              mesh/core/libmesh_core_nrf52832_xxAA.a(internal_event.c.obj) (fifo_init)
mesh/core/libmesh_core_nrf52832_xxAA.a(net_state.c.obj)
                              examples/serial/CMakeFiles/serial_nrf52832_xxAA_s132_3.1.0.dir/__/__/mesh/serial/src/serial_handler_mesh.c.obj (net_state_reset)
mesh/core/libmesh_core_nrf52832_xxAA.a(nrf_mesh_utils.c.obj)
                              examples/serial/CMakeFiles/serial_nrf52832_xxAA_s132_3.1.0.dir/__/__/mesh/prov/src/prov_provisionee.c.obj (nrf_mesh_address_type_get)
mesh/core/libmesh_core_nrf52832_xxAA.a(nrf_mesh.c.obj)
                              examples/serial/CMakeFiles/serial_nrf52832_xxAA_s132_3.1.0.dir/__/nrf_mesh_sdk.c.obj (nrf_mesh_init)
mesh/core/libmesh_core_nrf52832_xxAA.a(hal.c.obj)
                              examples/serial/CMakeFiles/serial_nrf52832_xxAA_s132_3.1.0.dir/__/__/mesh/serial/src/serial_handler_device.c.obj (hal_device_reset)
mesh/core/libmesh_core_nrf52832_xxAA.a(timer_scheduler.c.obj)
                              mesh/core/libmesh_core_nrf52832_xxAA.a(nrf_mesh.c.obj) (timer_sch_init)
mesh/core/libmesh_core_nrf52832_xxAA.a(timer.c.obj)
                              mesh/core/libmesh_core_nrf52832_xxAA.a(timer_scheduler.c.obj) (timer_order_cb)
mesh/core/libmesh_core_nrf52832_xxAA.a(ticker.c.obj)
                              mesh/core/libmesh_core_nrf52832_xxAA.a(nrf_mesh.c.obj) (ticker_init)
mesh/core/libmesh_core_nrf52832_xxAA.a(rand.c.obj)
                              examples/serial/CMakeFiles/serial_nrf52832_xxAA_s132_3.1.0.dir/__/__/mesh/prov/src/prov_utils.c.obj (rand_hw_rng_get)
mesh/core/libmesh_core_nrf52832_xxAA.a(nrf_mesh_opt.c.obj)
                              examples/serial/CMakeFiles/serial_nrf52832_xxAA_s132_3.1.0.dir/src/main.c.obj (nrf_mesh_opt_set)
mesh/core/libmesh_core_nrf52832_xxAA.a(timeslot.c.obj)
                              mesh/core/libmesh_core_nrf52832_xxAA.a(nrf_mesh.c.obj) (timeslot_sd_event_handler)
mesh/core/libmesh_core_nrf52832_xxAA.a(bearer_event.c.obj)
                              mesh/core/libmesh_core_nrf52832_xxAA.a(nrf_mesh.c.obj) (bearer_event_init)
mesh/core/libmesh_core_nrf52832_xxAA.a(enc.c.obj)
                              examples/serial/CMakeFiles/serial_nrf52832_xxAA_s132_3.1.0.dir/__/__/mesh/prov/src/prov_utils.c.obj (enc_aes_cmac)
mesh/core/libmesh_core_nrf52832_xxAA.a(network.c.obj)
                              mesh/core/libmesh_core_nrf52832_xxAA.a(nrf_mesh.c.obj) (network_init)
mesh/core/libmesh_core_nrf52832_xxAA.a(nrf_mesh_keygen.c.obj)
                              examples/serial/CMakeFiles/serial_nrf52832_xxAA_s132_3.1.0.dir/__/__/mesh/access/src/device_state_manager.c.obj (nrf_mesh_keygen_aid)
mesh/core/libmesh_core_nrf52832_xxAA.a(list.c.obj)
                              mesh/core/libmesh_core_nrf52832_xxAA.a(event.c.obj) (list_add)
mesh/core/libmesh_core_nrf52832_xxAA.a(log.c.obj)
                              examples/serial/CMakeFiles/serial_nrf52832_xxAA_s132_3.1.0.dir/src/main.c.obj (log_callback_rtt)
mesh/core/libmesh_core_nrf52832_xxAA.a(flash_manager.c.obj)
                              mesh/core/libmesh_core_nrf52832_xxAA.a(nrf_mesh.c.obj) (flash_manager_init)
mesh/core/libmesh_core_nrf52832_xxAA.a(ccm_soft.c.obj)
                              mesh/core/libmesh_core_nrf52832_xxAA.a(enc.c.obj) (ccm_soft_encrypt)
mesh/core/libmesh_core_nrf52832_xxAA.a(beacon.c.obj)
                              mesh/core/libmesh_core_nrf52832_xxAA.a(nrf_mesh.c.obj) (beacon_init)
mesh/core/libmesh_core_nrf52832_xxAA.a(flash_manager_internal.c.obj)
                              mesh/core/libmesh_core_nrf52832_xxAA.a(flash_manager.c.obj) (entry_get)
mesh/core/libmesh_core_nrf52832_xxAA.a(core_tx.c.obj)
                              mesh/core/libmesh_core_nrf52832_xxAA.a(network.c.obj) (core_tx_packet_alloc)
mesh/core/libmesh_core_nrf52832_xxAA.a(heartbeat.c.obj)
                              mesh/core/libmesh_core_nrf52832_xxAA.a(network.c.obj) (heartbeat_on_feature_change_trigger)
mesh/core/libmesh_core_nrf52832_xxAA.a(net_beacon.c.obj)
                              mesh/core/libmesh_core_nrf52832_xxAA.a(network.c.obj) (net_beacon_init)
mesh/core/libmesh_core_nrf52832_xxAA.a(core_tx_adv.c.obj)
                              mesh/core/libmesh_core_nrf52832_xxAA.a(nrf_mesh.c.obj) (core_tx_adv_init)
mesh/core/libmesh_core_nrf52832_xxAA.a(ad_listener.c.obj)
                              mesh/core/libmesh_core_nrf52832_xxAA.a(nrf_mesh.c.obj) (ad_listener_subscribe)
mesh/core/libmesh_core_nrf52832_xxAA.a(ad_type_filter.c.obj)
                              mesh/core/libmesh_core_nrf52832_xxAA.a(ad_listener.c.obj) (bearer_adtype_filtering_set)
mesh/core/libmesh_core_nrf52832_xxAA.a(advertiser.c.obj)
                              mesh/core/libmesh_core_nrf52832_xxAA.a(nrf_mesh.c.obj) (advertiser_init)
mesh/core/libmesh_core_nrf52832_xxAA.a(bearer_handler.c.obj)
                              mesh/core/libmesh_core_nrf52832_xxAA.a(nrf_mesh.c.obj) (bearer_handler_init)
mesh/core/libmesh_core_nrf52832_xxAA.a(broadcast.c.obj)
                              mesh/core/libmesh_core_nrf52832_xxAA.a(advertiser.c.obj) (broadcast_send)
mesh/core/libmesh_core_nrf52832_xxAA.a(filter_engine.c.obj)
                              mesh/core/libmesh_core_nrf52832_xxAA.a(ad_type_filter.c.obj) (fen_filter_start)
mesh/core/libmesh_core_nrf52832_xxAA.a(radio_config.c.obj)
                              mesh/core/libmesh_core_nrf52832_xxAA.a(broadcast.c.obj) (radio_config_reset)
mesh/core/libmesh_core_nrf52832_xxAA.a(scanner.c.obj)
                              mesh/core/libmesh_core_nrf52832_xxAA.a(bearer_handler.c.obj) (scanner_radio_start)
mesh/core/libmesh_core_nrf52832_xxAA.a(aes.c.obj)
                              mesh/core/libmesh_core_nrf52832_xxAA.a(enc.c.obj) (aes_encrypt)
mesh/core/libmesh_core_nrf52832_xxAA.a(msg_cache.c.obj)
                              mesh/core/libmesh_core_nrf52832_xxAA.a(nrf_mesh.c.obj) (msg_cache_init)
mesh/core/libmesh_core_nrf52832_xxAA.a(transport.c.obj)
                              mesh/core/libmesh_core_nrf52832_xxAA.a(nrf_mesh.c.obj) (transport_init)
mesh/core/libmesh_core_nrf52832_xxAA.a(flash_manager_defrag.c.obj)
                              mesh/core/libmesh_core_nrf52832_xxAA.a(flash_manager.c.obj) (flash_manager_defrag_init)
mesh/core/libmesh_core_nrf52832_xxAA.a(packet_mgr.c.obj)
                              mesh/core/libmesh_core_nrf52832_xxAA.a(nrf_mesh.c.obj) (packet_mgr_init)
mesh/core/libmesh_core_nrf52832_xxAA.a(mesh_flash.c.obj)
                              mesh/core/libmesh_core_nrf52832_xxAA.a(flash_manager.c.obj) (mesh_flash_user_callback_set)
mesh/core/libmesh_core_nrf52832_xxAA.a(queue.c.obj)
                              mesh/core/libmesh_core_nrf52832_xxAA.a(bearer_event.c.obj) (queue_init)
mesh/core/libmesh_core_nrf52832_xxAA.a(aes_cmac.c.obj)
                              mesh/core/libmesh_core_nrf52832_xxAA.a(enc.c.obj) (aes_cmac)
mesh/core/libmesh_core_nrf52832_xxAA.a(msqueue.c.obj)
                              mesh/core/libmesh_core_nrf52832_xxAA.a(mesh_flash.c.obj) (msq_get)
mesh/core/libmesh_core_nrf52832_xxAA.a(replay_cache.c.obj)
                              mesh/core/libmesh_core_nrf52832_xxAA.a(transport.c.obj) (replay_cache_add)
mesh/core/libmesh_core_nrf52832_xxAA.a(nrf_flash.c.obj)
                              mesh/core/libmesh_core_nrf52832_xxAA.a(mesh_flash.c.obj) (nrf_flash_erase)
external/micro-ecc/libuECC_nrf52832_xxAA.a(uECC.c.obj)
                              examples/serial/CMakeFiles/serial_nrf52832_xxAA_s132_3.1.0.dir/__/__/mesh/prov/src/prov_utils.c.obj (uECC_secp256r1)
external/rtt/librtt_nrf52832_xxAA.a(SEGGER_RTT.c.obj)
                              mesh/core/libmesh_core_nrf52832_xxAA.a(log.c.obj) (SEGGER_RTT_Write)
external/rtt/librtt_nrf52832_xxAA.a(SEGGER_RTT_printf.c.obj)
                              mesh/core/libmesh_core_nrf52832_xxAA.a(log.c.obj) (SEGGER_RTT_vprintf)
c:/a/gcc_arm/6/bin/../lib/gcc/arm-none-eabi/6.3.1/../../../../arm-none-eabi/lib/thumb/v7e-m/fpv4-sp/hard\libg_nano.a(lib_a-exit.o)
                              c:/a/gcc_arm/6/bin/../lib/gcc/arm-none-eabi/6.3.1/../../../../arm-none-eabi/lib/thumb/v7e-m/fpv4-sp/hard/crt0.o (exit)
c:/a/gcc_arm/6/bin/../lib/gcc/arm-none-eabi/6.3.1/../../../../arm-none-eabi/lib/thumb/v7e-m/fpv4-sp/hard\libg_nano.a(lib_a-impure.o)
                              c:/a/gcc_arm/6/bin/../lib/gcc/arm-none-eabi/6.3.1/../../../../arm-none-eabi/lib/thumb/v7e-m/fpv4-sp/hard\libg_nano.a(lib_a-exit.o) (_global_impure_ptr)
c:/a/gcc_arm/6/bin/../lib/gcc/arm-none-eabi/6.3.1/../../../../arm-none-eabi/lib/thumb/v7e-m/fpv4-sp/hard\libg_nano.a(lib_a-init.o)
                              c:/a/gcc_arm/6/bin/../lib/gcc/arm-none-eabi/6.3.1/../../../../arm-none-eabi/lib/thumb/v7e-m/fpv4-sp/hard/crt0.o (__libc_init_array)
c:/a/gcc_arm/6/bin/../lib/gcc/arm-none-eabi/6.3.1/../../../../arm-none-eabi/lib/thumb/v7e-m/fpv4-sp/hard\libg_nano.a(lib_a-malloc.o)
                              mesh/core/libmesh_core_nrf52832_xxAA.a(transport.c.obj) (malloc)
c:/a/gcc_arm/6/bin/../lib/gcc/arm-none-eabi/6.3.1/../../../../arm-none-eabi/lib/thumb/v7e-m/fpv4-sp/hard\libg_nano.a(lib_a-memcmp.o)
                              examples/serial/CMakeFiles/serial_nrf52832_xxAA_s132_3.1.0.dir/__/__/mesh/prov/src/prov_utils.c.obj (memcmp)
c:/a/gcc_arm/6/bin/../lib/gcc/arm-none-eabi/6.3.1/../../../../arm-none-eabi/lib/thumb/v7e-m/fpv4-sp/hard\libg_nano.a(lib_a-memcpy-stub.o)
                              examples/serial/CMakeFiles/serial_nrf52832_xxAA_s132_3.1.0.dir/__/__/mesh/prov/src/prov_provisioner.c.obj (memcpy)
c:/a/gcc_arm/6/bin/../lib/gcc/arm-none-eabi/6.3.1/../../../../arm-none-eabi/lib/thumb/v7e-m/fpv4-sp/hard\libg_nano.a(lib_a-memset.o)
                              c:/a/gcc_arm/6/bin/../lib/gcc/arm-none-eabi/6.3.1/../../../../arm-none-eabi/lib/thumb/v7e-m/fpv4-sp/hard/crt0.o (memset)
c:/a/gcc_arm/6/bin/../lib/gcc/arm-none-eabi/6.3.1/../../../../arm-none-eabi/lib/thumb/v7e-m/fpv4-sp/hard\libg_nano.a(lib_a-nano-freer.o)
                              c:/a/gcc_arm/6/bin/../lib/gcc/arm-none-eabi/6.3.1/../../../../arm-none-eabi/lib/thumb/v7e-m/fpv4-sp/hard\libg_nano.a(lib_a-malloc.o) (_free_r)
c:/a/gcc_arm/6/bin/../lib/gcc/arm-none-eabi/6.3.1/../../../../arm-none-eabi/lib/thumb/v7e-m/fpv4-sp/hard\libg_nano.a(lib_a-nano-mallocr.o)
                              c:/a/gcc_arm/6/bin/../lib/gcc/arm-none-eabi/6.3.1/../../../../arm-none-eabi/lib/thumb/v7e-m/fpv4-sp/hard\libg_nano.a(lib_a-malloc.o) (_malloc_r)
c:/a/gcc_arm/6/bin/../lib/gcc/arm-none-eabi/6.3.1/../../../../arm-none-eabi/lib/thumb/v7e-m/fpv4-sp/hard\libg_nano.a(lib_a-sbrkr.o)
                              c:/a/gcc_arm/6/bin/../lib/gcc/arm-none-eabi/6.3.1/../../../../arm-none-eabi/lib/thumb/v7e-m/fpv4-sp/hard\libg_nano.a(lib_a-nano-mallocr.o) (_sbrk_r)
c:/a/gcc_arm/6/bin/../lib/gcc/arm-none-eabi/6.3.1/../../../../arm-none-eabi/lib/thumb/v7e-m/fpv4-sp/hard\libg_nano.a(lib_a-strcpy.o)
                              external/rtt/librtt_nrf52832_xxAA.a(SEGGER_RTT.c.obj) (strcpy)
c:/a/gcc_arm/6/bin/../lib/gcc/arm-none-eabi/6.3.1/../../../../arm-none-eabi/lib/thumb/v7e-m/fpv4-sp/hard\libg_nano.a(lib_a-strlen.o)
                              examples/serial/CMakeFiles/serial_nrf52832_xxAA_s132_3.1.0.dir/__/__/mesh/prov/src/prov_beacon.c.obj (strlen)
c:/a/gcc_arm/6/bin/../lib/gcc/arm-none-eabi/6.3.1/../../../../arm-none-eabi/lib/thumb/v7e-m/fpv4-sp/hard\libg_nano.a(lib_a-strrchr.o)
                              examples/serial/CMakeFiles/serial_nrf52832_xxAA_s132_3.1.0.dir/src/main.c.obj (strrchr)
c:/a/gcc_arm/6/bin/../lib/gcc/arm-none-eabi/6.3.1/../../../../arm-none-eabi/lib/thumb/v7e-m/fpv4-sp/hard\libg_nano.a(lib_a-mlock.o)
                              c:/a/gcc_arm/6/bin/../lib/gcc/arm-none-eabi/6.3.1/../../../../arm-none-eabi/lib/thumb/v7e-m/fpv4-sp/hard\libg_nano.a(lib_a-nano-freer.o) (__malloc_lock)
c:/a/gcc_arm/6/bin/../lib/gcc/arm-none-eabi/6.3.1/../../../../arm-none-eabi/lib/thumb/v7e-m/fpv4-sp/hard\libg_nano.a(lib_a-reent.o)
                              c:/a/gcc_arm/6/bin/../lib/gcc/arm-none-eabi/6.3.1/../../../../arm-none-eabi/lib/thumb/v7e-m/fpv4-sp/hard\libg_nano.a(lib_a-sbrkr.o) (errno)
c:/a/gcc_arm/6/bin/../lib/gcc/arm-none-eabi/6.3.1/../../../../arm-none-eabi/lib/thumb/v7e-m/fpv4-sp/hard\libg_nano.a(lib_a-strchr.o)
                              c:/a/gcc_arm/6/bin/../lib/gcc/arm-none-eabi/6.3.1/../../../../arm-none-eabi/lib/thumb/v7e-m/fpv4-sp/hard\libg_nano.a(lib_a-strrchr.o) (strchr)
c:/a/gcc_arm/6/bin/../lib/gcc/arm-none-eabi/6.3.1/../../../../arm-none-eabi/lib/thumb/v7e-m/fpv4-sp/hard\libnosys.a(sbrk.o)
                              c:/a/gcc_arm/6/bin/../lib/gcc/arm-none-eabi/6.3.1/../../../../arm-none-eabi/lib/thumb/v7e-m/fpv4-sp/hard\libg_nano.a(lib_a-sbrkr.o) (_sbrk)
c:/a/gcc_arm/6/bin/../lib/gcc/arm-none-eabi/6.3.1/../../../../arm-none-eabi/lib/thumb/v7e-m/fpv4-sp/hard\libnosys.a(_exit.o)
                              c:/a/gcc_arm/6/bin/../lib/gcc/arm-none-eabi/6.3.1/../../../../arm-none-eabi/lib/thumb/v7e-m/fpv4-sp/hard\libg_nano.a(lib_a-exit.o) (_exit)

Allocating common symbols
Common symbol       size              file

nrf_nvic_state      0xc               examples/serial/CMakeFiles/serial_nrf52832_xxAA_s132_3.1.0.dir/__/nrf_mesh_sdk.c.obj
errno               0x4               c:/a/gcc_arm/6/bin/../lib/gcc/arm-none-eabi/6.3.1/../../../../arm-none-eabi/lib/thumb/v7e-m/fpv4-sp/hard\libg_nano.a(lib_a-reent.o)
m_assertion_handler
                    0x4               mesh/core/libmesh_core_nrf52832_xxAA.a(nrf_mesh.c.obj)
_SEGGER_RTT         0x78              external/rtt/librtt_nrf52832_xxAA.a(SEGGER_RTT.c.obj)

Discarded input sections

 .text          0x00000000        0x0 c:/a/gcc_arm/6/bin/../lib/gcc/arm-none-eabi/6.3.1/thumb/v7e-m/fpv4-sp/hard/crti.o
 .data          0x00000000        0x0 c:/a/gcc_arm/6/bin/../lib/gcc/arm-none-eabi/6.3.1/thumb/v7e-m/fpv4-sp/hard/crti.o
 .bss           0x00000000        0x0 c:/a/gcc_arm/6/bin/../lib/gcc/arm-none-eabi/6.3.1/thumb/v7e-m/fpv4-sp/hard/crti.o
 .data          0x00000000        0x4 c:/a/gcc_arm/6/bin/../lib/gcc/arm-none-eabi/6.3.1/thumb/v7e-m/fpv4-sp/hard/crtbegin.o
 .data          0x00000000        0x0 c:/a/gcc_arm/6/bin/../lib/gcc/arm-none-eabi/6.3.1/../../../../arm-none-eabi/lib/thumb/v7e-m/fpv4-sp/hard/crt0.o
 .bss           0x00000000        0x0 c:/a/gcc_arm/6/bin/../lib/gcc/arm-none-eabi/6.3.1/../../../../arm-none-eabi/lib/thumb/v7e-m/fpv4-sp/hard/crt0.o
 .ARM.extab     0x00000000        0x0 c:/a/gcc_arm/6/bin/../lib/gcc/arm-none-eabi/6.3.1/../../../../arm-none-eabi/lib/thumb/v7e-m/fpv4-sp/hard/crt0.o
 .text          0x00000000        0x0 examples/serial/CMakeFiles/serial_nrf52832_xxAA_s132_3.1.0.dir/src/main.c.obj
 .data          0x00000000        0x0 examples/serial/CMakeFiles/serial_nrf52832_xxAA_s132_3.1.0.dir/src/main.c.obj
 .bss           0x00000000        0x0 examples/serial/CMakeFiles/serial_nrf52832_xxAA_s132_3.1.0.dir/src/main.c.obj
 .text          0x00000000        0x0 examples/serial/CMakeFiles/serial_nrf52832_xxAA_s132_3.1.0.dir/__/nrf_mesh_sdk.c.obj
 .data          0x00000000        0x0 examples/serial/CMakeFiles/serial_nrf52832_xxAA_s132_3.1.0.dir/__/nrf_mesh_sdk.c.obj
 .bss           0x00000000        0x0 examples/serial/CMakeFiles/serial_nrf52832_xxAA_s132_3.1.0.dir/__/nrf_mesh_sdk.c.obj
 .text          0x00000000        0x0 examples/serial/CMakeFiles/serial_nrf52832_xxAA_s132_3.1.0.dir/__/__/mesh/prov/src/prov_provisioner.c.obj
 .data          0x00000000        0x0 examples/serial/CMakeFiles/serial_nrf52832_xxAA_s132_3.1.0.dir/__/__/mesh/prov/src/prov_provisioner.c.obj
 .bss           0x00000000        0x0 examples/serial/CMakeFiles/serial_nrf52832_xxAA_s132_3.1.0.dir/__/__/mesh/prov/src/prov_provisioner.c.obj
 .text.prov_provisioner_oob_pubkey
                0x00000000       0x30 examples/serial/CMakeFiles/serial_nrf52832_xxAA_s132_3.1.0.dir/__/__/mesh/prov/src/prov_provisioner.c.obj
 .text          0x00000000        0x0 examples/serial/CMakeFiles/serial_nrf52832_xxAA_s132_3.1.0.dir/__/__/mesh/prov/src/prov_provisionee.c.obj
 .data          0x00000000        0x0 examples/serial/CMakeFiles/serial_nrf52832_xxAA_s132_3.1.0.dir/__/__/mesh/prov/src/prov_provisionee.c.obj
 .bss           0x00000000        0x0 examples/serial/CMakeFiles/serial_nrf52832_xxAA_s132_3.1.0.dir/__/__/mesh/prov/src/prov_provisionee.c.obj
 .text          0x00000000        0x0 examples/serial/CMakeFiles/serial_nrf52832_xxAA_s132_3.1.0.dir/__/__/mesh/prov/src/nrf_mesh_prov.c.obj
 .data          0x00000000        0x0 examples/serial/CMakeFiles/serial_nrf52832_xxAA_s132_3.1.0.dir/__/__/mesh/prov/src/nrf_mesh_prov.c.obj
 .bss           0x00000000        0x0 examples/serial/CMakeFiles/serial_nrf52832_xxAA_s132_3.1.0.dir/__/__/mesh/prov/src/nrf_mesh_prov.c.obj
 .text.nrf_mesh_prov_pubkey_provide
                0x00000000       0x10 examples/serial/CMakeFiles/serial_nrf52832_xxAA_s132_3.1.0.dir/__/__/mesh/prov/src/nrf_mesh_prov.c.obj
 .text          0x00000000        0x0 examples/serial/CMakeFiles/serial_nrf52832_xxAA_s132_3.1.0.dir/__/__/mesh/prov/src/provisioning.c.obj
 .data          0x00000000        0x0 examples/serial/CMakeFiles/serial_nrf52832_xxAA_s132_3.1.0.dir/__/__/mesh/prov/src/provisioning.c.obj
 .bss           0x00000000        0x0 examples/serial/CMakeFiles/serial_nrf52832_xxAA_s132_3.1.0.dir/__/__/mesh/prov/src/provisioning.c.obj
 .text.prov_tx  0x00000000        0x4 examples/serial/CMakeFiles/serial_nrf52832_xxAA_s132_3.1.0.dir/__/__/mesh/prov/src/provisioning.c.obj
 .text          0x00000000        0x0 examples/serial/CMakeFiles/serial_nrf52832_xxAA_s132_3.1.0.dir/__/__/mesh/prov/src/prov_beacon.c.obj
 .data          0x00000000        0x0 examples/serial/CMakeFiles/serial_nrf52832_xxAA_s132_3.1.0.dir/__/__/mesh/prov/src/prov_beacon.c.obj
 .bss           0x00000000        0x0 examples/serial/CMakeFiles/serial_nrf52832_xxAA_s132_3.1.0.dir/__/__/mesh/prov/src/prov_beacon.c.obj
 .text          0x00000000        0x0 examples/serial/CMakeFiles/serial_nrf52832_xxAA_s132_3.1.0.dir/__/__/mesh/prov/src/prov_utils.c.obj
 .data          0x00000000        0x0 examples/serial/CMakeFiles/serial_nrf52832_xxAA_s132_3.1.0.dir/__/__/mesh/prov/src/prov_utils.c.obj
 .bss           0x00000000        0x0 examples/serial/CMakeFiles/serial_nrf52832_xxAA_s132_3.1.0.dir/__/__/mesh/prov/src/prov_utils.c.obj
 .text          0x00000000        0x0 examples/serial/CMakeFiles/serial_nrf52832_xxAA_s132_3.1.0.dir/__/__/mesh/prov/src/prov_bearer_adv.c.obj
 .data          0x00000000        0x0 examples/serial/CMakeFiles/serial_nrf52832_xxAA_s132_3.1.0.dir/__/__/mesh/prov/src/prov_bearer_adv.c.obj
 .bss           0x00000000        0x0 examples/serial/CMakeFiles/serial_nrf52832_xxAA_s132_3.1.0.dir/__/__/mesh/prov/src/prov_bearer_adv.c.obj
 .text          0x00000000        0x0 examples/serial/CMakeFiles/serial_nrf52832_xxAA_s132_3.1.0.dir/__/__/mesh/access/src/access_publish.c.obj
 .data          0x00000000        0x0 examples/serial/CMakeFiles/serial_nrf52832_xxAA_s132_3.1.0.dir/__/__/mesh/access/src/access_publish.c.obj
 .bss           0x00000000        0x0 examples/serial/CMakeFiles/serial_nrf52832_xxAA_s132_3.1.0.dir/__/__/mesh/access/src/access_publish.c.obj
 .text          0x00000000        0x0 examples/serial/CMakeFiles/serial_nrf52832_xxAA_s132_3.1.0.dir/__/__/mesh/access/src/access.c.obj
 .data          0x00000000        0x0 examples/serial/CMakeFiles/serial_nrf52832_xxAA_s132_3.1.0.dir/__/__/mesh/access/src/access.c.obj
 .bss           0x00000000        0x0 examples/serial/CMakeFiles/serial_nrf52832_xxAA_s132_3.1.0.dir/__/__/mesh/access/src/access.c.obj
 .text.restore_acquired_subscription
                0x00000000       0x24 examples/serial/CMakeFiles/serial_nrf52832_xxAA_s132_3.1.0.dir/__/__/mesh/access/src/access.c.obj
 .text.restore_acquired_element
                0x00000000       0x20 examples/serial/CMakeFiles/serial_nrf52832_xxAA_s132_3.1.0.dir/__/__/mesh/access/src/access.c.obj
 .text.restore_flash_data
                0x00000000       0x5c examples/serial/CMakeFiles/serial_nrf52832_xxAA_s132_3.1.0.dir/__/__/mesh/access/src/access.c.obj
 .text.unlikely.bitfield_next_get.part.0.constprop.3
                0x00000000       0x34 examples/serial/CMakeFiles/serial_nrf52832_xxAA_s132_3.1.0.dir/__/__/mesh/access/src/access.c.obj
 .text.restore_acquired_model
                0x00000000       0x7c examples/serial/CMakeFiles/serial_nrf52832_xxAA_s132_3.1.0.dir/__/__/mesh/access/src/access.c.obj
 .text.access_flash_config_load
                0x00000000      0x138 examples/serial/CMakeFiles/serial_nrf52832_xxAA_s132_3.1.0.dir/__/__/mesh/access/src/access.c.obj
 .text.access_model_add
                0x00000000      0x17c examples/serial/CMakeFiles/serial_nrf52832_xxAA_s132_3.1.0.dir/__/__/mesh/access/src/access.c.obj
 .text.access_model_reply
                0x00000000       0x12 examples/serial/CMakeFiles/serial_nrf52832_xxAA_s132_3.1.0.dir/__/__/mesh/access/src/access.c.obj
 .text.access_model_subscription_list_alloc
                0x00000000       0x40 examples/serial/CMakeFiles/serial_nrf52832_xxAA_s132_3.1.0.dir/__/__/mesh/access/src/access.c.obj
 .text.access_model_subscription_lists_share
                0x00000000       0x48 examples/serial/CMakeFiles/serial_nrf52832_xxAA_s132_3.1.0.dir/__/__/mesh/access/src/access.c.obj
 .text.access_default_ttl_set
                0x00000000       0x10 examples/serial/CMakeFiles/serial_nrf52832_xxAA_s132_3.1.0.dir/__/__/mesh/access/src/access.c.obj
 .text.access_default_ttl_get
                0x00000000        0xc examples/serial/CMakeFiles/serial_nrf52832_xxAA_s132_3.1.0.dir/__/__/mesh/access/src/access.c.obj
 .rodata.multiply_de_bruijn_bit_position.9032
                0x00000000       0x20 examples/serial/CMakeFiles/serial_nrf52832_xxAA_s132_3.1.0.dir/__/__/mesh/access/src/access.c.obj
 .text          0x00000000        0x0 examples/serial/CMakeFiles/serial_nrf52832_xxAA_s132_3.1.0.dir/__/__/mesh/access/src/access_reliable.c.obj
 .data          0x00000000        0x0 examples/serial/CMakeFiles/serial_nrf52832_xxAA_s132_3.1.0.dir/__/__/mesh/access/src/access_reliable.c.obj
 .bss           0x00000000        0x0 examples/serial/CMakeFiles/serial_nrf52832_xxAA_s132_3.1.0.dir/__/__/mesh/access/src/access_reliable.c.obj
 .text.access_model_reliable_cancel
                0x00000000       0x30 examples/serial/CMakeFiles/serial_nrf52832_xxAA_s132_3.1.0.dir/__/__/mesh/access/src/access_reliable.c.obj
 .text.access_model_reliable_publish
                0x00000000      0x18c examples/serial/CMakeFiles/serial_nrf52832_xxAA_s132_3.1.0.dir/__/__/mesh/access/src/access_reliable.c.obj
 .text          0x00000000        0x0 examples/serial/CMakeFiles/serial_nrf52832_xxAA_s132_3.1.0.dir/__/__/mesh/access/src/device_state_manager.c.obj
 .data          0x00000000        0x0 examples/serial/CMakeFiles/serial_nrf52832_xxAA_s132_3.1.0.dir/__/__/mesh/access/src/device_state_manager.c.obj
 .bss           0x00000000        0x0 examples/serial/CMakeFiles/serial_nrf52832_xxAA_s132_3.1.0.dir/__/__/mesh/access/src/device_state_manager.c.obj
 .text.dsm_flash_config_load
                0x00000000      0x134 examples/serial/CMakeFiles/serial_nrf52832_xxAA_s132_3.1.0.dir/__/__/mesh/access/src/device_state_manager.c.obj
 .text.dsm_has_unflashed_data
                0x00000000       0x24 examples/serial/CMakeFiles/serial_nrf52832_xxAA_s132_3.1.0.dir/__/__/mesh/access/src/device_state_manager.c.obj
 .text.dsm_address_publish_add_handle
                0x00000000       0x38 examples/serial/CMakeFiles/serial_nrf52832_xxAA_s132_3.1.0.dir/__/__/mesh/access/src/device_state_manager.c.obj
 .text.dsm_address_subscription_add_handle
                0x00000000       0x38 examples/serial/CMakeFiles/serial_nrf52832_xxAA_s132_3.1.0.dir/__/__/mesh/access/src/device_state_manager.c.obj
 .text.dsm_address_subscription_count_get
                0x00000000       0x58 examples/serial/CMakeFiles/serial_nrf52832_xxAA_s132_3.1.0.dir/__/__/mesh/access/src/device_state_manager.c.obj
 .text.dsm_net_key_index_to_subnet_handle
                0x00000000       0x1c examples/serial/CMakeFiles/serial_nrf52832_xxAA_s132_3.1.0.dir/__/__/mesh/access/src/device_state_manager.c.obj
 .text.dsm_subnet_handle_to_netkey_index
                0x00000000       0x34 examples/serial/CMakeFiles/serial_nrf52832_xxAA_s132_3.1.0.dir/__/__/mesh/access/src/device_state_manager.c.obj
 .text.dsm_appkey_index_to_appkey_handle
                0x00000000       0x1c examples/serial/CMakeFiles/serial_nrf52832_xxAA_s132_3.1.0.dir/__/__/mesh/access/src/device_state_manager.c.obj
 .text.dsm_appkey_handle_to_appkey_index
                0x00000000       0x34 examples/serial/CMakeFiles/serial_nrf52832_xxAA_s132_3.1.0.dir/__/__/mesh/access/src/device_state_manager.c.obj
 .text.dsm_subnet_kr_phase_get
                0x00000000       0x34 examples/serial/CMakeFiles/serial_nrf52832_xxAA_s132_3.1.0.dir/__/__/mesh/access/src/device_state_manager.c.obj
 .text.dsm_devkey_handle_get
                0x00000000       0x34 examples/serial/CMakeFiles/serial_nrf52832_xxAA_s132_3.1.0.dir/__/__/mesh/access/src/device_state_manager.c.obj
 .text.dsm_beacon_secmat_get
                0x00000000       0x38 examples/serial/CMakeFiles/serial_nrf52832_xxAA_s132_3.1.0.dir/__/__/mesh/access/src/device_state_manager.c.obj
 .text.dsm_net_secmat_from_keyindex_get
                0x00000000       0x3c examples/serial/CMakeFiles/serial_nrf52832_xxAA_s132_3.1.0.dir/__/__/mesh/access/src/device_state_manager.c.obj
 .text.dsm_proxy_identity_get
                0x00000000        0x4 examples/serial/CMakeFiles/serial_nrf52832_xxAA_s132_3.1.0.dir/__/__/mesh/access/src/device_state_manager.c.obj
 .text          0x00000000        0x0 examples/serial/CMakeFiles/serial_nrf52832_xxAA_s132_3.1.0.dir/__/__/mesh/serial/src/serial_uart.c.obj
 .data          0x00000000        0x0 examples/serial/CMakeFiles/serial_nrf52832_xxAA_s132_3.1.0.dir/__/__/mesh/serial/src/serial_uart.c.obj
 .bss           0x00000000        0x0 examples/serial/CMakeFiles/serial_nrf52832_xxAA_s132_3.1.0.dir/__/__/mesh/serial/src/serial_uart.c.obj
 .text          0x00000000        0x0 examples/serial/CMakeFiles/serial_nrf52832_xxAA_s132_3.1.0.dir/__/__/mesh/serial/src/serial_bearer.c.obj
 .data          0x00000000        0x0 examples/serial/CMakeFiles/serial_nrf52832_xxAA_s132_3.1.0.dir/__/__/mesh/serial/src/serial_bearer.c.obj
 .bss           0x00000000        0x0 examples/serial/CMakeFiles/serial_nrf52832_xxAA_s132_3.1.0.dir/__/__/mesh/serial/src/serial_bearer.c.obj
 .text.serial_bearer_rx_pending
                0x00000000        0xc examples/serial/CMakeFiles/serial_nrf52832_xxAA_s132_3.1.0.dir/__/__/mesh/serial/src/serial_bearer.c.obj
 .text          0x00000000        0x0 examples/serial/CMakeFiles/serial_nrf52832_xxAA_s132_3.1.0.dir/__/__/mesh/serial/src/serial_handler_common.c.obj
 .data          0x00000000        0x0 examples/serial/CMakeFiles/serial_nrf52832_xxAA_s132_3.1.0.dir/__/__/mesh/serial/src/serial_handler_common.c.obj
 .bss           0x00000000        0x0 examples/serial/CMakeFiles/serial_nrf52832_xxAA_s132_3.1.0.dir/__/__/mesh/serial/src/serial_handler_common.c.obj
 .text          0x00000000        0x0 examples/serial/CMakeFiles/serial_nrf52832_xxAA_s132_3.1.0.dir/__/__/mesh/serial/src/serial_handler_access.c.obj
 .data          0x00000000        0x0 examples/serial/CMakeFiles/serial_nrf52832_xxAA_s132_3.1.0.dir/__/__/mesh/serial/src/serial_handler_access.c.obj
 .bss           0x00000000        0x0 examples/serial/CMakeFiles/serial_nrf52832_xxAA_s132_3.1.0.dir/__/__/mesh/serial/src/serial_handler_access.c.obj
 .text          0x00000000        0x0 examples/serial/CMakeFiles/serial_nrf52832_xxAA_s132_3.1.0.dir/__/__/mesh/serial/src/serial_handler_config.c.obj
 .data          0x00000000        0x0 examples/serial/CMakeFiles/serial_nrf52832_xxAA_s132_3.1.0.dir/__/__/mesh/serial/src/serial_handler_config.c.obj
 .bss           0x00000000        0x0 examples/serial/CMakeFiles/serial_nrf52832_xxAA_s132_3.1.0.dir/__/__/mesh/serial/src/serial_handler_config.c.obj
 .text          0x00000000        0x0 examples/serial/CMakeFiles/serial_nrf52832_xxAA_s132_3.1.0.dir/__/__/mesh/serial/src/serial_handler_openmesh.c.obj
 .data          0x00000000        0x0 examples/serial/CMakeFiles/serial_nrf52832_xxAA_s132_3.1.0.dir/__/__/mesh/serial/src/serial_handler_openmesh.c.obj
 .bss           0x00000000        0x0 examples/serial/CMakeFiles/serial_nrf52832_xxAA_s132_3.1.0.dir/__/__/mesh/serial/src/serial_handler_openmesh.c.obj
 .text          0x00000000        0x0 examples/serial/CMakeFiles/serial_nrf52832_xxAA_s132_3.1.0.dir/__/__/mesh/serial/src/serial.c.obj
 .data          0x00000000        0x0 examples/serial/CMakeFiles/serial_nrf52832_xxAA_s132_3.1.0.dir/__/__/mesh/serial/src/serial.c.obj
 .bss           0x00000000        0x0 examples/serial/CMakeFiles/serial_nrf52832_xxAA_s132_3.1.0.dir/__/__/mesh/serial/src/serial.c.obj
 .text          0x00000000        0x0 examples/serial/CMakeFiles/serial_nrf52832_xxAA_s132_3.1.0.dir/__/__/mesh/serial/src/serial_handler_prov.c.obj
 .data          0x00000000        0x0 examples/serial/CMakeFiles/serial_nrf52832_xxAA_s132_3.1.0.dir/__/__/mesh/serial/src/serial_handler_prov.c.obj
 .bss           0x00000000        0x0 examples/serial/CMakeFiles/serial_nrf52832_xxAA_s132_3.1.0.dir/__/__/mesh/serial/src/serial_handler_prov.c.obj
 .text.serial_handler_prov_context_get
                0x00000000       0x1c examples/serial/CMakeFiles/serial_nrf52832_xxAA_s132_3.1.0.dir/__/__/mesh/serial/src/serial_handler_prov.c.obj
 .text.serial_handler_prov_keys_get
                0x00000000       0x14 examples/serial/CMakeFiles/serial_nrf52832_xxAA_s132_3.1.0.dir/__/__/mesh/serial/src/serial_handler_prov.c.obj
 .text.serial_handler_prov_oob_caps_get
                0x00000000        0xc examples/serial/CMakeFiles/serial_nrf52832_xxAA_s132_3.1.0.dir/__/__/mesh/serial/src/serial_handler_prov.c.obj
 .text          0x00000000        0x0 examples/serial/CMakeFiles/serial_nrf52832_xxAA_s132_3.1.0.dir/__/__/mesh/serial/src/serial_handler_dfu.c.obj
 .data          0x00000000        0x0 examples/serial/CMakeFiles/serial_nrf52832_xxAA_s132_3.1.0.dir/__/__/mesh/serial/src/serial_handler_dfu.c.obj
 .bss           0x00000000        0x0 examples/serial/CMakeFiles/serial_nrf52832_xxAA_s132_3.1.0.dir/__/__/mesh/serial/src/serial_handler_dfu.c.obj
 .text          0x00000000        0x0 examples/serial/CMakeFiles/serial_nrf52832_xxAA_s132_3.1.0.dir/__/__/mesh/serial/src/serial_handler_mesh.c.obj
 .data          0x00000000        0x0 examples/serial/CMakeFiles/serial_nrf52832_xxAA_s132_3.1.0.dir/__/__/mesh/serial/src/serial_handler_mesh.c.obj
 .bss           0x00000000        0x0 examples/serial/CMakeFiles/serial_nrf52832_xxAA_s132_3.1.0.dir/__/__/mesh/serial/src/serial_handler_mesh.c.obj
 .text          0x00000000        0x0 examples/serial/CMakeFiles/serial_nrf52832_xxAA_s132_3.1.0.dir/__/__/mesh/serial/src/serial_handler_models.c.obj
 .data          0x00000000        0x0 examples/serial/CMakeFiles/serial_nrf52832_xxAA_s132_3.1.0.dir/__/__/mesh/serial/src/serial_handler_models.c.obj
 .bss           0x00000000        0x0 examples/serial/CMakeFiles/serial_nrf52832_xxAA_s132_3.1.0.dir/__/__/mesh/serial/src/serial_handler_models.c.obj
 .text.serial_handler_models_register
                0x00000000       0x2c examples/serial/CMakeFiles/serial_nrf52832_xxAA_s132_3.1.0.dir/__/__/mesh/serial/src/serial_handler_models.c.obj
 .text          0x00000000        0x0 examples/serial/CMakeFiles/serial_nrf52832_xxAA_s132_3.1.0.dir/__/__/mesh/serial/src/serial_handler_device.c.obj
 .data          0x00000000        0x0 examples/serial/CMakeFiles/serial_nrf52832_xxAA_s132_3.1.0.dir/__/__/mesh/serial/src/serial_handler_device.c.obj
 .bss           0x00000000        0x0 examples/serial/CMakeFiles/serial_nrf52832_xxAA_s132_3.1.0.dir/__/__/mesh/serial/src/serial_handler_device.c.obj
 .text          0x00000000        0x0 examples/serial/CMakeFiles/serial_nrf52832_xxAA_s132_3.1.0.dir/__/__/mesh/serial/src/nrf_mesh_serial.c.obj
 .data          0x00000000        0x0 examples/serial/CMakeFiles/serial_nrf52832_xxAA_s132_3.1.0.dir/__/__/mesh/serial/src/nrf_mesh_serial.c.obj
 .bss           0x00000000        0x0 examples/serial/CMakeFiles/serial_nrf52832_xxAA_s132_3.1.0.dir/__/__/mesh/serial/src/nrf_mesh_serial.c.obj
 .text.nrf_mesh_serial_state_get
                0x00000000        0x4 examples/serial/CMakeFiles/serial_nrf52832_xxAA_s132_3.1.0.dir/__/__/mesh/serial/src/nrf_mesh_serial.c.obj
 .text.nrf_mesh_serial_tx
                0x00000000       0x60 examples/serial/CMakeFiles/serial_nrf52832_xxAA_s132_3.1.0.dir/__/__/mesh/serial/src/nrf_mesh_serial.c.obj
 .text          0x00000000        0x0 examples/serial/CMakeFiles/serial_nrf52832_xxAA_s132_3.1.0.dir/__/__/mesh/serial/src/serial_handler_app.c.obj
 .data          0x00000000        0x0 examples/serial/CMakeFiles/serial_nrf52832_xxAA_s132_3.1.0.dir/__/__/mesh/serial/src/serial_handler_app.c.obj
 .bss           0x00000000        0x0 examples/serial/CMakeFiles/serial_nrf52832_xxAA_s132_3.1.0.dir/__/__/mesh/serial/src/serial_handler_app.c.obj
 .text          0x00000000        0x0 examples/serial/CMakeFiles/serial_nrf52832_xxAA_s132_3.1.0.dir/__/nrf_mesh_weak.c.obj
 .data          0x00000000        0x0 examples/serial/CMakeFiles/serial_nrf52832_xxAA_s132_3.1.0.dir/__/nrf_mesh_weak.c.obj
 .bss           0x00000000        0x0 examples/serial/CMakeFiles/serial_nrf52832_xxAA_s132_3.1.0.dir/__/nrf_mesh_weak.c.obj
 .text._weak_handler_ptr
                0x00000000        0x4 examples/serial/CMakeFiles/serial_nrf52832_xxAA_s132_3.1.0.dir/__/nrf_mesh_weak.c.obj
 .text          0x00000000        0x0 examples/serial/CMakeFiles/serial_nrf52832_xxAA_s132_3.1.0.dir/__/__/external/nRF5_SDK_14.2.0_17b948a/components/toolchain/system_nrf52.c.obj
 .data          0x00000000        0x0 examples/serial/CMakeFiles/serial_nrf52832_xxAA_s132_3.1.0.dir/__/__/external/nRF5_SDK_14.2.0_17b948a/components/toolchain/system_nrf52.c.obj
 .bss           0x00000000        0x0 examples/serial/CMakeFiles/serial_nrf52832_xxAA_s132_3.1.0.dir/__/__/external/nRF5_SDK_14.2.0_17b948a/components/toolchain/system_nrf52.c.obj
 .text.SystemCoreClockUpdate
                0x00000000       0x10 examples/serial/CMakeFiles/serial_nrf52832_xxAA_s132_3.1.0.dir/__/__/external/nRF5_SDK_14.2.0_17b948a/components/toolchain/system_nrf52.c.obj
 .data          0x00000000        0x0 examples/serial/CMakeFiles/serial_nrf52832_xxAA_s132_3.1.0.dir/__/__/external/nRF5_SDK_14.2.0_17b948a/components/toolchain/gcc/gcc_startup_nrf52.S.obj
 .bss           0x00000000        0x0 examples/serial/CMakeFiles/serial_nrf52832_xxAA_s132_3.1.0.dir/__/__/external/nRF5_SDK_14.2.0_17b948a/components/toolchain/gcc/gcc_startup_nrf52.S.obj
 .text          0x00000000        0x0 mesh/core/libmesh_core_nrf52832_xxAA.a(internal_event.c.obj)
 .data          0x00000000        0x0 mesh/core/libmesh_core_nrf52832_xxAA.a(internal_event.c.obj)
 .bss           0x00000000        0x0 mesh/core/libmesh_core_nrf52832_xxAA.a(internal_event.c.obj)
 .text.internal_event_pop
                0x00000000       0x1c mesh/core/libmesh_core_nrf52832_xxAA.a(internal_event.c.obj)
 .text          0x00000000        0x0 mesh/core/libmesh_core_nrf52832_xxAA.a(nrf_mesh_configure.c.obj)
 .data          0x00000000        0x0 mesh/core/libmesh_core_nrf52832_xxAA.a(nrf_mesh_configure.c.obj)
 .bss           0x00000000        0x0 mesh/core/libmesh_core_nrf52832_xxAA.a(nrf_mesh_configure.c.obj)
 .text          0x00000000        0x0 mesh/core/libmesh_core_nrf52832_xxAA.a(event.c.obj)
 .data          0x00000000        0x0 mesh/core/libmesh_core_nrf52832_xxAA.a(event.c.obj)
 .bss           0x00000000        0x0 mesh/core/libmesh_core_nrf52832_xxAA.a(event.c.obj)
 .text          0x00000000        0x0 mesh/core/libmesh_core_nrf52832_xxAA.a(packet_buffer.c.obj)
 .data          0x00000000        0x0 mesh/core/libmesh_core_nrf52832_xxAA.a(packet_buffer.c.obj)
 .bss           0x00000000        0x0 mesh/core/libmesh_core_nrf52832_xxAA.a(packet_buffer.c.obj)
 .text          0x00000000        0x0 mesh/core/libmesh_core_nrf52832_xxAA.a(fifo.c.obj)
 .data          0x00000000        0x0 mesh/core/libmesh_core_nrf52832_xxAA.a(fifo.c.obj)
 .bss           0x00000000        0x0 mesh/core/libmesh_core_nrf52832_xxAA.a(fifo.c.obj)
 .text.fifo_peek_at
                0x00000000       0x50 mesh/core/libmesh_core_nrf52832_xxAA.a(fifo.c.obj)
 .text.fifo_peek
                0x00000000        0x6 mesh/core/libmesh_core_nrf52832_xxAA.a(fifo.c.obj)
 .text.fifo_flush
                0x00000000        0x6 mesh/core/libmesh_core_nrf52832_xxAA.a(fifo.c.obj)
 .text.fifo_get_len
                0x00000000        0x8 mesh/core/libmesh_core_nrf52832_xxAA.a(fifo.c.obj)
 .text.fifo_is_full
                0x00000000       0x10 mesh/core/libmesh_core_nrf52832_xxAA.a(fifo.c.obj)
 .text.fifo_is_empty
                0x00000000        0xc mesh/core/libmesh_core_nrf52832_xxAA.a(fifo.c.obj)
 .text          0x00000000        0x0 mesh/core/libmesh_core_nrf52832_xxAA.a(net_state.c.obj)
 .data          0x00000000        0x0 mesh/core/libmesh_core_nrf52832_xxAA.a(net_state.c.obj)
 .bss           0x00000000        0x0 mesh/core/libmesh_core_nrf52832_xxAA.a(net_state.c.obj)
 .text.net_state_iv_update_test_mode_set
                0x00000000        0xc mesh/core/libmesh_core_nrf52832_xxAA.a(net_state.c.obj)
 .text          0x00000000        0x0 mesh/core/libmesh_core_nrf52832_xxAA.a(nrf_mesh_utils.c.obj)
 .data          0x00000000        0x0 mesh/core/libmesh_core_nrf52832_xxAA.a(nrf_mesh_utils.c.obj)
 .bss           0x00000000        0x0 mesh/core/libmesh_core_nrf52832_xxAA.a(nrf_mesh_utils.c.obj)
 .text.nrf_mesh_rand_get
                0x00000000       0x10 mesh/core/libmesh_core_nrf52832_xxAA.a(nrf_mesh_utils.c.obj)
 .text.nrf_mesh_gap_address_type_get
                0x00000000       0x3c mesh/core/libmesh_core_nrf52832_xxAA.a(nrf_mesh_utils.c.obj)
 .text          0x00000000        0x0 mesh/core/libmesh_core_nrf52832_xxAA.a(nrf_mesh.c.obj)
 .data          0x00000000        0x0 mesh/core/libmesh_core_nrf52832_xxAA.a(nrf_mesh.c.obj)
 .bss           0x00000000        0x0 mesh/core/libmesh_core_nrf52832_xxAA.a(nrf_mesh.c.obj)
 .text.nrf_mesh_process
                0x00000000        0x4 mesh/core/libmesh_core_nrf52832_xxAA.a(nrf_mesh.c.obj)
 .text.nrf_mesh_evt_handler_remove
                0x00000000        0x4 mesh/core/libmesh_core_nrf52832_xxAA.a(nrf_mesh.c.obj)
 .text.nrf_mesh_rx_cb_set
                0x00000000        0xc mesh/core/libmesh_core_nrf52832_xxAA.a(nrf_mesh.c.obj)
 .text.nrf_mesh_rx_cb_clear
                0x00000000        0xc mesh/core/libmesh_core_nrf52832_xxAA.a(nrf_mesh.c.obj)
 .text          0x00000000        0x0 mesh/core/libmesh_core_nrf52832_xxAA.a(hal.c.obj)
 .data          0x00000000        0x0 mesh/core/libmesh_core_nrf52832_xxAA.a(hal.c.obj)
 .bss           0x00000000        0x0 mesh/core/libmesh_core_nrf52832_xxAA.a(hal.c.obj)
 .text          0x00000000        0x0 mesh/core/libmesh_core_nrf52832_xxAA.a(timer_scheduler.c.obj)
 .data          0x00000000        0x0 mesh/core/libmesh_core_nrf52832_xxAA.a(timer_scheduler.c.obj)
 .bss           0x00000000        0x0 mesh/core/libmesh_core_nrf52832_xxAA.a(timer_scheduler.c.obj)
 .text          0x00000000        0x0 mesh/core/libmesh_core_nrf52832_xxAA.a(timer.c.obj)
 .data          0x00000000        0x0 mesh/core/libmesh_core_nrf52832_xxAA.a(timer.c.obj)
 .bss           0x00000000        0x0 mesh/core/libmesh_core_nrf52832_xxAA.a(timer.c.obj)
 .text.timer_order_cb_ppi
                0x00000000       0xc4 mesh/core/libmesh_core_nrf52832_xxAA.a(timer.c.obj)
 .text.timer_order_ppi
                0x00000000       0xc0 mesh/core/libmesh_core_nrf52832_xxAA.a(timer.c.obj)
 .text.timer_abort
                0x00000000       0x78 mesh/core/libmesh_core_nrf52832_xxAA.a(timer.c.obj)
 .text          0x00000000        0x0 mesh/core/libmesh_core_nrf52832_xxAA.a(ticker.c.obj)
 .data          0x00000000        0x0 mesh/core/libmesh_core_nrf52832_xxAA.a(ticker.c.obj)
 .bss           0x00000000        0x0 mesh/core/libmesh_core_nrf52832_xxAA.a(ticker.c.obj)
 .text.ticker_get
                0x00000000        0xc mesh/core/libmesh_core_nrf52832_xxAA.a(ticker.c.obj)
 .text          0x00000000        0x0 mesh/core/libmesh_core_nrf52832_xxAA.a(rand.c.obj)
 .data          0x00000000        0x0 mesh/core/libmesh_core_nrf52832_xxAA.a(rand.c.obj)
 .bss           0x00000000        0x0 mesh/core/libmesh_core_nrf52832_xxAA.a(rand.c.obj)
 .text          0x00000000        0x0 mesh/core/libmesh_core_nrf52832_xxAA.a(nrf_mesh_opt.c.obj)
 .data          0x00000000        0x0 mesh/core/libmesh_core_nrf52832_xxAA.a(nrf_mesh_opt.c.obj)
 .bss           0x00000000        0x0 mesh/core/libmesh_core_nrf52832_xxAA.a(nrf_mesh_opt.c.obj)
 .text          0x00000000        0x0 mesh/core/libmesh_core_nrf52832_xxAA.a(timeslot.c.obj)
 .data          0x00000000        0x0 mesh/core/libmesh_core_nrf52832_xxAA.a(timeslot.c.obj)
 .bss           0x00000000        0x0 mesh/core/libmesh_core_nrf52832_xxAA.a(timeslot.c.obj)
 .text.timeslot_end_time_get
                0x00000000       0x10 mesh/core/libmesh_core_nrf52832_xxAA.a(timeslot.c.obj)
 .text.timeslot_is_in_ts
                0x00000000        0xc mesh/core/libmesh_core_nrf52832_xxAA.a(timeslot.c.obj)
 .text.timeslot_restart
                0x00000000       0x10 mesh/core/libmesh_core_nrf52832_xxAA.a(timeslot.c.obj)
 .text          0x00000000        0x0 mesh/core/libmesh_core_nrf52832_xxAA.a(bearer_event.c.obj)
 .data          0x00000000        0x0 mesh/core/libmesh_core_nrf52832_xxAA.a(bearer_event.c.obj)
 .bss           0x00000000        0x0 mesh/core/libmesh_core_nrf52832_xxAA.a(bearer_event.c.obj)
 .text.bearer_event_timer_sch_post
                0x00000000       0x34 mesh/core/libmesh_core_nrf52832_xxAA.a(bearer_event.c.obj)
 .text.bearer_event_in_correct_irq_priority
                0x00000000       0x48 mesh/core/libmesh_core_nrf52832_xxAA.a(bearer_event.c.obj)
 .text          0x00000000        0x0 mesh/core/libmesh_core_nrf52832_xxAA.a(enc.c.obj)
 .data          0x00000000        0x0 mesh/core/libmesh_core_nrf52832_xxAA.a(enc.c.obj)
 .bss           0x00000000        0x0 mesh/core/libmesh_core_nrf52832_xxAA.a(enc.c.obj)
 .text.enc_key_generate
                0x00000000        0x6 mesh/core/libmesh_core_nrf52832_xxAA.a(enc.c.obj)
 .text          0x00000000        0x0 mesh/core/libmesh_core_nrf52832_xxAA.a(network.c.obj)
 .data          0x00000000        0x0 mesh/core/libmesh_core_nrf52832_xxAA.a(network.c.obj)
 .bss           0x00000000        0x0 mesh/core/libmesh_core_nrf52832_xxAA.a(network.c.obj)
 .text.network_packet_discard
                0x00000000       0x3c mesh/core/libmesh_core_nrf52832_xxAA.a(network.c.obj)
 .text          0x00000000        0x0 mesh/core/libmesh_core_nrf52832_xxAA.a(nrf_mesh_keygen.c.obj)
 .data          0x00000000        0x0 mesh/core/libmesh_core_nrf52832_xxAA.a(nrf_mesh_keygen.c.obj)
 .bss           0x00000000        0x0 mesh/core/libmesh_core_nrf52832_xxAA.a(nrf_mesh_keygen.c.obj)
 .text.nrf_mesh_keygen_identitykey
                0x00000000       0x4c mesh/core/libmesh_core_nrf52832_xxAA.a(nrf_mesh_keygen.c.obj)
 .text          0x00000000        0x0 mesh/core/libmesh_core_nrf52832_xxAA.a(list.c.obj)
 .data          0x00000000        0x0 mesh/core/libmesh_core_nrf52832_xxAA.a(list.c.obj)
 .bss           0x00000000        0x0 mesh/core/libmesh_core_nrf52832_xxAA.a(list.c.obj)
 .text.list_size_get
                0x00000000       0x12 mesh/core/libmesh_core_nrf52832_xxAA.a(list.c.obj)
 .text.list_sorted_add
                0x00000000       0x90 mesh/core/libmesh_core_nrf52832_xxAA.a(list.c.obj)
 .text          0x00000000        0x0 mesh/core/libmesh_core_nrf52832_xxAA.a(log.c.obj)
 .data          0x00000000        0x0 mesh/core/libmesh_core_nrf52832_xxAA.a(log.c.obj)
 .bss           0x00000000        0x0 mesh/core/libmesh_core_nrf52832_xxAA.a(log.c.obj)
 .text.log_callback_logview
                0x00000000       0x38 mesh/core/libmesh_core_nrf52832_xxAA.a(log.c.obj)
 .text.log_set_callback
                0x00000000        0xc mesh/core/libmesh_core_nrf52832_xxAA.a(log.c.obj)
 .rodata.log_callback_logview.str1.1
                0x00000000        0xf mesh/core/libmesh_core_nrf52832_xxAA.a(log.c.obj)
 .text          0x00000000        0x0 mesh/core/libmesh_core_nrf52832_xxAA.a(flash_manager.c.obj)
 .data          0x00000000        0x0 mesh/core/libmesh_core_nrf52832_xxAA.a(flash_manager.c.obj)
 .bss           0x00000000        0x0 mesh/core/libmesh_core_nrf52832_xxAA.a(flash_manager.c.obj)
 .text.flash_manager_entry_get
                0x00000000       0x48 mesh/core/libmesh_core_nrf52832_xxAA.a(flash_manager.c.obj)
 .text.flash_manager_entry_count_get
                0x00000000       0x5c mesh/core/libmesh_core_nrf52832_xxAA.a(flash_manager.c.obj)
 .text.flash_manager_entry_release
                0x00000000       0x12 mesh/core/libmesh_core_nrf52832_xxAA.a(flash_manager.c.obj)
 .text.flash_manager_action_queue_empty_cb_set
                0x00000000       0x28 mesh/core/libmesh_core_nrf52832_xxAA.a(flash_manager.c.obj)
 .text          0x00000000        0x0 mesh/core/libmesh_core_nrf52832_xxAA.a(ccm_soft.c.obj)
 .data          0x00000000        0x0 mesh/core/libmesh_core_nrf52832_xxAA.a(ccm_soft.c.obj)
 .bss           0x00000000        0x0 mesh/core/libmesh_core_nrf52832_xxAA.a(ccm_soft.c.obj)
 .text          0x00000000        0x0 mesh/core/libmesh_core_nrf52832_xxAA.a(beacon.c.obj)
 .data          0x00000000        0x0 mesh/core/libmesh_core_nrf52832_xxAA.a(beacon.c.obj)
 .bss           0x00000000        0x0 mesh/core/libmesh_core_nrf52832_xxAA.a(beacon.c.obj)
 .text          0x00000000        0x0 mesh/core/libmesh_core_nrf52832_xxAA.a(flash_manager_internal.c.obj)
 .data          0x00000000        0x0 mesh/core/libmesh_core_nrf52832_xxAA.a(flash_manager_internal.c.obj)
 .bss           0x00000000        0x0 mesh/core/libmesh_core_nrf52832_xxAA.a(flash_manager_internal.c.obj)
 .text          0x00000000        0x0 mesh/core/libmesh_core_nrf52832_xxAA.a(core_tx.c.obj)
 .data          0x00000000        0x0 mesh/core/libmesh_core_nrf52832_xxAA.a(core_tx.c.obj)
 .bss           0x00000000        0x0 mesh/core/libmesh_core_nrf52832_xxAA.a(core_tx.c.obj)
 .text          0x00000000        0x0 mesh/core/libmesh_core_nrf52832_xxAA.a(heartbeat.c.obj)
 .data          0x00000000        0x0 mesh/core/libmesh_core_nrf52832_xxAA.a(heartbeat.c.obj)
 .bss           0x00000000        0x0 mesh/core/libmesh_core_nrf52832_xxAA.a(heartbeat.c.obj)
 .text.heartbeat_subscription_set
                0x00000000       0x90 mesh/core/libmesh_core_nrf52832_xxAA.a(heartbeat.c.obj)
 .text.heartbeat_subscription_get
                0x00000000        0x8 mesh/core/libmesh_core_nrf52832_xxAA.a(heartbeat.c.obj)
 .text.heartbeat_config_server_cb_set
                0x00000000       0x3c mesh/core/libmesh_core_nrf52832_xxAA.a(heartbeat.c.obj)
 .text.heartbeat_publication_state_updated
                0x00000000       0x80 mesh/core/libmesh_core_nrf52832_xxAA.a(heartbeat.c.obj)
 .text          0x00000000        0x0 mesh/core/libmesh_core_nrf52832_xxAA.a(net_beacon.c.obj)
 .data          0x00000000        0x0 mesh/core/libmesh_core_nrf52832_xxAA.a(net_beacon.c.obj)
 .bss           0x00000000        0x0 mesh/core/libmesh_core_nrf52832_xxAA.a(net_beacon.c.obj)
 .text.net_beacon_state_set
                0x00000000       0x34 mesh/core/libmesh_core_nrf52832_xxAA.a(net_beacon.c.obj)
 .text.net_beacon_state_get
                0x00000000        0xc mesh/core/libmesh_core_nrf52832_xxAA.a(net_beacon.c.obj)
 .text          0x00000000        0x0 mesh/core/libmesh_core_nrf52832_xxAA.a(core_tx_adv.c.obj)
 .data          0x00000000        0x0 mesh/core/libmesh_core_nrf52832_xxAA.a(core_tx_adv.c.obj)
 .bss           0x00000000        0x0 mesh/core/libmesh_core_nrf52832_xxAA.a(core_tx_adv.c.obj)
 .text.core_tx_adv_address_set
                0x00000000       0x34 mesh/core/libmesh_core_nrf52832_xxAA.a(core_tx_adv.c.obj)
 .text          0x00000000        0x0 mesh/core/libmesh_core_nrf52832_xxAA.a(ad_listener.c.obj)
 .data          0x00000000        0x0 mesh/core/libmesh_core_nrf52832_xxAA.a(ad_listener.c.obj)
 .bss           0x00000000        0x0 mesh/core/libmesh_core_nrf52832_xxAA.a(ad_listener.c.obj)
 .text.ad_listener_unsubscribe
                0x00000000       0x6c mesh/core/libmesh_core_nrf52832_xxAA.a(ad_listener.c.obj)
 .text          0x00000000        0x0 mesh/core/libmesh_core_nrf52832_xxAA.a(ad_type_filter.c.obj)
 .data          0x00000000        0x0 mesh/core/libmesh_core_nrf52832_xxAA.a(ad_type_filter.c.obj)
 .bss           0x00000000        0x0 mesh/core/libmesh_core_nrf52832_xxAA.a(ad_type_filter.c.obj)
 .text.bearer_adtype_remove
                0x00000000       0x20 mesh/core/libmesh_core_nrf52832_xxAA.a(ad_type_filter.c.obj)
 .text.bearer_adtype_clear
                0x00000000       0x10 mesh/core/libmesh_core_nrf52832_xxAA.a(ad_type_filter.c.obj)
 .text.bearer_invalid_length_amount_get
                0x00000000        0xc mesh/core/libmesh_core_nrf52832_xxAA.a(ad_type_filter.c.obj)
 .text.bearer_adtype_filtered_amount_get
                0x00000000        0xc mesh/core/libmesh_core_nrf52832_xxAA.a(ad_type_filter.c.obj)
 .text          0x00000000        0x0 mesh/core/libmesh_core_nrf52832_xxAA.a(advertiser.c.obj)
 .data          0x00000000        0x0 mesh/core/libmesh_core_nrf52832_xxAA.a(advertiser.c.obj)
 .bss           0x00000000        0x0 mesh/core/libmesh_core_nrf52832_xxAA.a(advertiser.c.obj)
 .text.advertiser_address_set
                0x00000000       0x50 mesh/core/libmesh_core_nrf52832_xxAA.a(advertiser.c.obj)
 .text.advertiser_config_set
                0x00000000       0x44 mesh/core/libmesh_core_nrf52832_xxAA.a(advertiser.c.obj)
 .text.advertiser_config_get
                0x00000000       0x2c mesh/core/libmesh_core_nrf52832_xxAA.a(advertiser.c.obj)
 .text          0x00000000        0x0 mesh/core/libmesh_core_nrf52832_xxAA.a(bearer_handler.c.obj)
 .data          0x00000000        0x0 mesh/core/libmesh_core_nrf52832_xxAA.a(bearer_handler.c.obj)
 .bss           0x00000000        0x0 mesh/core/libmesh_core_nrf52832_xxAA.a(bearer_handler.c.obj)
 .text.bearer_handler_action_fire
                0x00000000       0xbc mesh/core/libmesh_core_nrf52832_xxAA.a(bearer_handler.c.obj)
 .text          0x00000000        0x0 mesh/core/libmesh_core_nrf52832_xxAA.a(broadcast.c.obj)
 .data          0x00000000        0x0 mesh/core/libmesh_core_nrf52832_xxAA.a(broadcast.c.obj)
 .bss           0x00000000        0x0 mesh/core/libmesh_core_nrf52832_xxAA.a(broadcast.c.obj)
 .text          0x00000000        0x0 mesh/core/libmesh_core_nrf52832_xxAA.a(filter_engine.c.obj)
 .data          0x00000000        0x0 mesh/core/libmesh_core_nrf52832_xxAA.a(filter_engine.c.obj)
 .bss           0x00000000        0x0 mesh/core/libmesh_core_nrf52832_xxAA.a(filter_engine.c.obj)
 .text.fen_accepted_amount_get
                0x00000000        0xc mesh/core/libmesh_core_nrf52832_xxAA.a(filter_engine.c.obj)
 .text          0x00000000        0x0 mesh/core/libmesh_core_nrf52832_xxAA.a(radio_config.c.obj)
 .data          0x00000000        0x0 mesh/core/libmesh_core_nrf52832_xxAA.a(radio_config.c.obj)
 .bss           0x00000000        0x0 mesh/core/libmesh_core_nrf52832_xxAA.a(radio_config.c.obj)
 .text.radio_config_access_addr_get
                0x00000000       0x64 mesh/core/libmesh_core_nrf52832_xxAA.a(radio_config.c.obj)
 .text          0x00000000        0x0 mesh/core/libmesh_core_nrf52832_xxAA.a(scanner.c.obj)
 .data          0x00000000        0x0 mesh/core/libmesh_core_nrf52832_xxAA.a(scanner.c.obj)
 .bss           0x00000000        0x0 mesh/core/libmesh_core_nrf52832_xxAA.a(scanner.c.obj)
 .text.scanner_rx_callback_set
                0x00000000       0x2c mesh/core/libmesh_core_nrf52832_xxAA.a(scanner.c.obj)
 .text.scanner_is_enabled
                0x00000000       0x10 mesh/core/libmesh_core_nrf52832_xxAA.a(scanner.c.obj)
 .text.scanner_stats_get
                0x00000000        0x8 mesh/core/libmesh_core_nrf52832_xxAA.a(scanner.c.obj)
 .text.scanner_config_radio_mode_set
                0x00000000       0x10 mesh/core/libmesh_core_nrf52832_xxAA.a(scanner.c.obj)
 .text          0x00000000        0x0 mesh/core/libmesh_core_nrf52832_xxAA.a(aes.c.obj)
 .data          0x00000000        0x0 mesh/core/libmesh_core_nrf52832_xxAA.a(aes.c.obj)
 .bss           0x00000000        0x0 mesh/core/libmesh_core_nrf52832_xxAA.a(aes.c.obj)
 .text          0x00000000        0x0 mesh/core/libmesh_core_nrf52832_xxAA.a(msg_cache.c.obj)
 .data          0x00000000        0x0 mesh/core/libmesh_core_nrf52832_xxAA.a(msg_cache.c.obj)
 .bss           0x00000000        0x0 mesh/core/libmesh_core_nrf52832_xxAA.a(msg_cache.c.obj)
 .text.msg_cache_clear
                0x00000000       0x18 mesh/core/libmesh_core_nrf52832_xxAA.a(msg_cache.c.obj)
 .text          0x00000000        0x0 mesh/core/libmesh_core_nrf52832_xxAA.a(transport.c.obj)
 .data          0x00000000        0x0 mesh/core/libmesh_core_nrf52832_xxAA.a(transport.c.obj)
 .bss           0x00000000        0x0 mesh/core/libmesh_core_nrf52832_xxAA.a(transport.c.obj)
 .text.transport_sar_mem_funcs_set
                0x00000000       0x44 mesh/core/libmesh_core_nrf52832_xxAA.a(transport.c.obj)
 .text          0x00000000        0x0 mesh/core/libmesh_core_nrf52832_xxAA.a(flash_manager_defrag.c.obj)
 .data          0x00000000        0x0 mesh/core/libmesh_core_nrf52832_xxAA.a(flash_manager_defrag.c.obj)
 .bss           0x00000000        0x0 mesh/core/libmesh_core_nrf52832_xxAA.a(flash_manager_defrag.c.obj)
 .text.flash_manager_defragging
                0x00000000       0x44 mesh/core/libmesh_core_nrf52832_xxAA.a(flash_manager_defrag.c.obj)
 .text          0x00000000        0x0 mesh/core/libmesh_core_nrf52832_xxAA.a(packet_mgr.c.obj)
 .data          0x00000000        0x0 mesh/core/libmesh_core_nrf52832_xxAA.a(packet_mgr.c.obj)
 .bss           0x00000000        0x0 mesh/core/libmesh_core_nrf52832_xxAA.a(packet_mgr.c.obj)
 .text.packet_mgr_alloc
                0x00000000      0x19c mesh/core/libmesh_core_nrf52832_xxAA.a(packet_mgr.c.obj)
 .text.packet_mgr_free
                0x00000000       0x6c mesh/core/libmesh_core_nrf52832_xxAA.a(packet_mgr.c.obj)
 .text.packet_mgr_get_free_space
                0x00000000       0x1c mesh/core/libmesh_core_nrf52832_xxAA.a(packet_mgr.c.obj)
 .text.packet_mgr_refcount_get
                0x00000000        0x6 mesh/core/libmesh_core_nrf52832_xxAA.a(packet_mgr.c.obj)
 .text.packet_mgr_size_get
                0x00000000        0x6 mesh/core/libmesh_core_nrf52832_xxAA.a(packet_mgr.c.obj)
 .text          0x00000000        0x0 mesh/core/libmesh_core_nrf52832_xxAA.a(mesh_flash.c.obj)
 .data          0x00000000        0x0 mesh/core/libmesh_core_nrf52832_xxAA.a(mesh_flash.c.obj)
 .bss           0x00000000        0x0 mesh/core/libmesh_core_nrf52832_xxAA.a(mesh_flash.c.obj)
 .text.mesh_flash_op_available_slots
                0x00000000       0x2c mesh/core/libmesh_core_nrf52832_xxAA.a(mesh_flash.c.obj)
 .text.mesh_flash_in_progress
                0x00000000       0x34 mesh/core/libmesh_core_nrf52832_xxAA.a(mesh_flash.c.obj)
 .text.mesh_flash_set_suspended
                0x00000000       0x80 mesh/core/libmesh_core_nrf52832_xxAA.a(mesh_flash.c.obj)
 .bss.suspend_count.9905
                0x00000000        0x4 mesh/core/libmesh_core_nrf52832_xxAA.a(mesh_flash.c.obj)
 .text          0x00000000        0x0 mesh/core/libmesh_core_nrf52832_xxAA.a(queue.c.obj)
 .data          0x00000000        0x0 mesh/core/libmesh_core_nrf52832_xxAA.a(queue.c.obj)
 .bss           0x00000000        0x0 mesh/core/libmesh_core_nrf52832_xxAA.a(queue.c.obj)
 .text          0x00000000        0x0 mesh/core/libmesh_core_nrf52832_xxAA.a(aes_cmac.c.obj)
 .data          0x00000000        0x0 mesh/core/libmesh_core_nrf52832_xxAA.a(aes_cmac.c.obj)
 .bss           0x00000000        0x0 mesh/core/libmesh_core_nrf52832_xxAA.a(aes_cmac.c.obj)
 .text          0x00000000        0x0 mesh/core/libmesh_core_nrf52832_xxAA.a(msqueue.c.obj)
 .data          0x00000000        0x0 mesh/core/libmesh_core_nrf52832_xxAA.a(msqueue.c.obj)
 .bss           0x00000000        0x0 mesh/core/libmesh_core_nrf52832_xxAA.a(msqueue.c.obj)
 .text          0x00000000        0x0 mesh/core/libmesh_core_nrf52832_xxAA.a(replay_cache.c.obj)
 .data          0x00000000        0x0 mesh/core/libmesh_core_nrf52832_xxAA.a(replay_cache.c.obj)
 .bss           0x00000000        0x0 mesh/core/libmesh_core_nrf52832_xxAA.a(replay_cache.c.obj)
 .text.replay_cache_on_iv_update
                0x00000000       0x24 mesh/core/libmesh_core_nrf52832_xxAA.a(replay_cache.c.obj)
 .text          0x00000000        0x0 mesh/core/libmesh_core_nrf52832_xxAA.a(nrf_flash.c.obj)
 .data          0x00000000        0x0 mesh/core/libmesh_core_nrf52832_xxAA.a(nrf_flash.c.obj)
 .bss           0x00000000        0x0 mesh/core/libmesh_core_nrf52832_xxAA.a(nrf_flash.c.obj)
 .text          0x00000000        0x0 external/micro-ecc/libuECC_nrf52832_xxAA.a(uECC.c.obj)
 .data          0x00000000        0x0 external/micro-ecc/libuECC_nrf52832_xxAA.a(uECC.c.obj)
 .bss           0x00000000        0x0 external/micro-ecc/libuECC_nrf52832_xxAA.a(uECC.c.obj)
 .text.uECC_vli_modMult
                0x00000000      0x148 external/micro-ecc/libuECC_nrf52832_xxAA.a(uECC.c.obj)
 .text.HMAC_init
                0x00000000       0x46 external/micro-ecc/libuECC_nrf52832_xxAA.a(uECC.c.obj)
 .text.HMAC_update
                0x00000000        0x4 external/micro-ecc/libuECC_nrf52832_xxAA.a(uECC.c.obj)
 .text.HMAC_finish
                0x00000000       0x62 external/micro-ecc/libuECC_nrf52832_xxAA.a(uECC.c.obj)
 .text.update_V
                0x00000000       0x24 external/micro-ecc/libuECC_nrf52832_xxAA.a(uECC.c.obj)
 .text.bits2int
                0x00000000       0x88 external/micro-ecc/libuECC_nrf52832_xxAA.a(uECC.c.obj)
 .text.uECC_sign_with_k
                0x00000000      0x17c external/micro-ecc/libuECC_nrf52832_xxAA.a(uECC.c.obj)
 .text.uECC_set_rng
                0x00000000        0xc external/micro-ecc/libuECC_nrf52832_xxAA.a(uECC.c.obj)
 .text.uECC_get_rng
                0x00000000        0xc external/micro-ecc/libuECC_nrf52832_xxAA.a(uECC.c.obj)
 .text.uECC_curve_private_key_size
                0x00000000        0xe external/micro-ecc/libuECC_nrf52832_xxAA.a(uECC.c.obj)
 .text.uECC_curve_public_key_size
                0x00000000        0x8 external/micro-ecc/libuECC_nrf52832_xxAA.a(uECC.c.obj)
 .text.uECC_compute_public_key
                0x00000000       0x7e external/micro-ecc/libuECC_nrf52832_xxAA.a(uECC.c.obj)
 .text.uECC_sign
                0x00000000       0x56 external/micro-ecc/libuECC_nrf52832_xxAA.a(uECC.c.obj)
 .text.uECC_sign_deterministic
                0x00000000      0x192 external/micro-ecc/libuECC_nrf52832_xxAA.a(uECC.c.obj)
 .text.uECC_verify
                0x00000000      0x2f0 external/micro-ecc/libuECC_nrf52832_xxAA.a(uECC.c.obj)
 .text          0x00000000        0x0 external/rtt/librtt_nrf52832_xxAA.a(SEGGER_RTT.c.obj)
 .data          0x00000000        0x0 external/rtt/librtt_nrf52832_xxAA.a(SEGGER_RTT.c.obj)
 .bss           0x00000000        0x0 external/rtt/librtt_nrf52832_xxAA.a(SEGGER_RTT.c.obj)
 .text._PostTerminalSwitch.constprop.0
                0x00000000       0x28 external/rtt/librtt_nrf52832_xxAA.a(SEGGER_RTT.c.obj)
 .text.SEGGER_RTT_ReadNoLock
                0x00000000       0x88 external/rtt/librtt_nrf52832_xxAA.a(SEGGER_RTT.c.obj)
 .text.SEGGER_RTT_Read
                0x00000000       0x1c external/rtt/librtt_nrf52832_xxAA.a(SEGGER_RTT.c.obj)
 .text.SEGGER_RTT_WriteSkipNoLock
                0x00000000       0xb4 external/rtt/librtt_nrf52832_xxAA.a(SEGGER_RTT.c.obj)
 .text.SEGGER_RTT_WriteString
                0x00000000       0x1a external/rtt/librtt_nrf52832_xxAA.a(SEGGER_RTT.c.obj)
 .text.SEGGER_RTT_GetKey
                0x00000000       0x20 external/rtt/librtt_nrf52832_xxAA.a(SEGGER_RTT.c.obj)
 .text.SEGGER_RTT_WaitKey
                0x00000000        0xc external/rtt/librtt_nrf52832_xxAA.a(SEGGER_RTT.c.obj)
 .text.SEGGER_RTT_HasKey
                0x00000000       0x1c external/rtt/librtt_nrf52832_xxAA.a(SEGGER_RTT.c.obj)
 .text.SEGGER_RTT_HasData
                0x00000000       0x14 external/rtt/librtt_nrf52832_xxAA.a(SEGGER_RTT.c.obj)
 .text.SEGGER_RTT_AllocDownBuffer
                0x00000000       0x68 external/rtt/librtt_nrf52832_xxAA.a(SEGGER_RTT.c.obj)
 .text.SEGGER_RTT_AllocUpBuffer
                0x00000000       0x70 external/rtt/librtt_nrf52832_xxAA.a(SEGGER_RTT.c.obj)
 .text.SEGGER_RTT_ConfigUpBuffer
                0x00000000       0x68 external/rtt/librtt_nrf52832_xxAA.a(SEGGER_RTT.c.obj)
 .text.SEGGER_RTT_ConfigDownBuffer
                0x00000000       0x60 external/rtt/librtt_nrf52832_xxAA.a(SEGGER_RTT.c.obj)
 .text.SEGGER_RTT_SetNameUpBuffer
                0x00000000       0x3c external/rtt/librtt_nrf52832_xxAA.a(SEGGER_RTT.c.obj)
 .text.SEGGER_RTT_SetNameDownBuffer
                0x00000000       0x3c external/rtt/librtt_nrf52832_xxAA.a(SEGGER_RTT.c.obj)
 .text.SEGGER_RTT_Init
                0x00000000       0x10 external/rtt/librtt_nrf52832_xxAA.a(SEGGER_RTT.c.obj)
 .text.SEGGER_RTT_SetTerminal
                0x00000000       0x84 external/rtt/librtt_nrf52832_xxAA.a(SEGGER_RTT.c.obj)
 .text.SEGGER_RTT_TerminalOut
                0x00000000       0xa0 external/rtt/librtt_nrf52832_xxAA.a(SEGGER_RTT.c.obj)
 .bss._ActiveTerminal
                0x00000000        0x1 external/rtt/librtt_nrf52832_xxAA.a(SEGGER_RTT.c.obj)
 .rodata._aTerminalId
                0x00000000       0x10 external/rtt/librtt_nrf52832_xxAA.a(SEGGER_RTT.c.obj)
 .text          0x00000000        0x0 external/rtt/librtt_nrf52832_xxAA.a(SEGGER_RTT_printf.c.obj)
 .data          0x00000000        0x0 external/rtt/librtt_nrf52832_xxAA.a(SEGGER_RTT_printf.c.obj)
 .bss           0x00000000        0x0 external/rtt/librtt_nrf52832_xxAA.a(SEGGER_RTT_printf.c.obj)
 .text          0x00000000        0x0 c:/a/gcc_arm/6/bin/../lib/gcc/arm-none-eabi/6.3.1/../../../../arm-none-eabi/lib/thumb/v7e-m/fpv4-sp/hard\libg_nano.a(lib_a-exit.o)
 .data          0x00000000        0x0 c:/a/gcc_arm/6/bin/../lib/gcc/arm-none-eabi/6.3.1/../../../../arm-none-eabi/lib/thumb/v7e-m/fpv4-sp/hard\libg_nano.a(lib_a-exit.o)
 .bss           0x00000000        0x0 c:/a/gcc_arm/6/bin/../lib/gcc/arm-none-eabi/6.3.1/../../../../arm-none-eabi/lib/thumb/v7e-m/fpv4-sp/hard\libg_nano.a(lib_a-exit.o)
 .text          0x00000000        0x0 c:/a/gcc_arm/6/bin/../lib/gcc/arm-none-eabi/6.3.1/../../../../arm-none-eabi/lib/thumb/v7e-m/fpv4-sp/hard\libg_nano.a(lib_a-impure.o)
 .data          0x00000000        0x0 c:/a/gcc_arm/6/bin/../lib/gcc/arm-none-eabi/6.3.1/../../../../arm-none-eabi/lib/thumb/v7e-m/fpv4-sp/hard\libg_nano.a(lib_a-impure.o)
 .bss           0x00000000        0x0 c:/a/gcc_arm/6/bin/../lib/gcc/arm-none-eabi/6.3.1/../../../../arm-none-eabi/lib/thumb/v7e-m/fpv4-sp/hard\libg_nano.a(lib_a-impure.o)
 .text          0x00000000        0x0 c:/a/gcc_arm/6/bin/../lib/gcc/arm-none-eabi/6.3.1/../../../../arm-none-eabi/lib/thumb/v7e-m/fpv4-sp/hard\libg_nano.a(lib_a-init.o)
 .data          0x00000000        0x0 c:/a/gcc_arm/6/bin/../lib/gcc/arm-none-eabi/6.3.1/../../../../arm-none-eabi/lib/thumb/v7e-m/fpv4-sp/hard\libg_nano.a(lib_a-init.o)
 .bss           0x00000000        0x0 c:/a/gcc_arm/6/bin/../lib/gcc/arm-none-eabi/6.3.1/../../../../arm-none-eabi/lib/thumb/v7e-m/fpv4-sp/hard\libg_nano.a(lib_a-init.o)
 .text          0x00000000        0x0 c:/a/gcc_arm/6/bin/../lib/gcc/arm-none-eabi/6.3.1/../../../../arm-none-eabi/lib/thumb/v7e-m/fpv4-sp/hard\libg_nano.a(lib_a-malloc.o)
 .data          0x00000000        0x0 c:/a/gcc_arm/6/bin/../lib/gcc/arm-none-eabi/6.3.1/../../../../arm-none-eabi/lib/thumb/v7e-m/fpv4-sp/hard\libg_nano.a(lib_a-malloc.o)
 .bss           0x00000000        0x0 c:/a/gcc_arm/6/bin/../lib/gcc/arm-none-eabi/6.3.1/../../../../arm-none-eabi/lib/thumb/v7e-m/fpv4-sp/hard\libg_nano.a(lib_a-malloc.o)
 .text          0x00000000        0x0 c:/a/gcc_arm/6/bin/../lib/gcc/arm-none-eabi/6.3.1/../../../../arm-none-eabi/lib/thumb/v7e-m/fpv4-sp/hard\libg_nano.a(lib_a-memcmp.o)
 .data          0x00000000        0x0 c:/a/gcc_arm/6/bin/../lib/gcc/arm-none-eabi/6.3.1/../../../../arm-none-eabi/lib/thumb/v7e-m/fpv4-sp/hard\libg_nano.a(lib_a-memcmp.o)
 .bss           0x00000000        0x0 c:/a/gcc_arm/6/bin/../lib/gcc/arm-none-eabi/6.3.1/../../../../arm-none-eabi/lib/thumb/v7e-m/fpv4-sp/hard\libg_nano.a(lib_a-memcmp.o)
 .text          0x00000000        0x0 c:/a/gcc_arm/6/bin/../lib/gcc/arm-none-eabi/6.3.1/../../../../arm-none-eabi/lib/thumb/v7e-m/fpv4-sp/hard\libg_nano.a(lib_a-memcpy-stub.o)
 .data          0x00000000        0x0 c:/a/gcc_arm/6/bin/../lib/gcc/arm-none-eabi/6.3.1/../../../../arm-none-eabi/lib/thumb/v7e-m/fpv4-sp/hard\libg_nano.a(lib_a-memcpy-stub.o)
 .bss           0x00000000        0x0 c:/a/gcc_arm/6/bin/../lib/gcc/arm-none-eabi/6.3.1/../../../../arm-none-eabi/lib/thumb/v7e-m/fpv4-sp/hard\libg_nano.a(lib_a-memcpy-stub.o)
 .text          0x00000000        0x0 c:/a/gcc_arm/6/bin/../lib/gcc/arm-none-eabi/6.3.1/../../../../arm-none-eabi/lib/thumb/v7e-m/fpv4-sp/hard\libg_nano.a(lib_a-memset.o)
 .data          0x00000000        0x0 c:/a/gcc_arm/6/bin/../lib/gcc/arm-none-eabi/6.3.1/../../../../arm-none-eabi/lib/thumb/v7e-m/fpv4-sp/hard\libg_nano.a(lib_a-memset.o)
 .bss           0x00000000        0x0 c:/a/gcc_arm/6/bin/../lib/gcc/arm-none-eabi/6.3.1/../../../../arm-none-eabi/lib/thumb/v7e-m/fpv4-sp/hard\libg_nano.a(lib_a-memset.o)
 .text          0x00000000        0x0 c:/a/gcc_arm/6/bin/../lib/gcc/arm-none-eabi/6.3.1/../../../../arm-none-eabi/lib/thumb/v7e-m/fpv4-sp/hard\libg_nano.a(lib_a-nano-freer.o)
 .data          0x00000000        0x0 c:/a/gcc_arm/6/bin/../lib/gcc/arm-none-eabi/6.3.1/../../../../arm-none-eabi/lib/thumb/v7e-m/fpv4-sp/hard\libg_nano.a(lib_a-nano-freer.o)
 .bss           0x00000000        0x0 c:/a/gcc_arm/6/bin/../lib/gcc/arm-none-eabi/6.3.1/../../../../arm-none-eabi/lib/thumb/v7e-m/fpv4-sp/hard\libg_nano.a(lib_a-nano-freer.o)
 .text          0x00000000        0x0 c:/a/gcc_arm/6/bin/../lib/gcc/arm-none-eabi/6.3.1/../../../../arm-none-eabi/lib/thumb/v7e-m/fpv4-sp/hard\libg_nano.a(lib_a-nano-mallocr.o)
 .data          0x00000000        0x0 c:/a/gcc_arm/6/bin/../lib/gcc/arm-none-eabi/6.3.1/../../../../arm-none-eabi/lib/thumb/v7e-m/fpv4-sp/hard\libg_nano.a(lib_a-nano-mallocr.o)
 .bss           0x00000000        0x0 c:/a/gcc_arm/6/bin/../lib/gcc/arm-none-eabi/6.3.1/../../../../arm-none-eabi/lib/thumb/v7e-m/fpv4-sp/hard\libg_nano.a(lib_a-nano-mallocr.o)
 .text          0x00000000        0x0 c:/a/gcc_arm/6/bin/../lib/gcc/arm-none-eabi/6.3.1/../../../../arm-none-eabi/lib/thumb/v7e-m/fpv4-sp/hard\libg_nano.a(lib_a-sbrkr.o)
 .data          0x00000000        0x0 c:/a/gcc_arm/6/bin/../lib/gcc/arm-none-eabi/6.3.1/../../../../arm-none-eabi/lib/thumb/v7e-m/fpv4-sp/hard\libg_nano.a(lib_a-sbrkr.o)
 .bss           0x00000000        0x0 c:/a/gcc_arm/6/bin/../lib/gcc/arm-none-eabi/6.3.1/../../../../arm-none-eabi/lib/thumb/v7e-m/fpv4-sp/hard\libg_nano.a(lib_a-sbrkr.o)
 .text          0x00000000        0x0 c:/a/gcc_arm/6/bin/../lib/gcc/arm-none-eabi/6.3.1/../../../../arm-none-eabi/lib/thumb/v7e-m/fpv4-sp/hard\libg_nano.a(lib_a-strcpy.o)
 .data          0x00000000        0x0 c:/a/gcc_arm/6/bin/../lib/gcc/arm-none-eabi/6.3.1/../../../../arm-none-eabi/lib/thumb/v7e-m/fpv4-sp/hard\libg_nano.a(lib_a-strcpy.o)
 .bss           0x00000000        0x0 c:/a/gcc_arm/6/bin/../lib/gcc/arm-none-eabi/6.3.1/../../../../arm-none-eabi/lib/thumb/v7e-m/fpv4-sp/hard\libg_nano.a(lib_a-strcpy.o)
 .data          0x00000000        0x0 c:/a/gcc_arm/6/bin/../lib/gcc/arm-none-eabi/6.3.1/../../../../arm-none-eabi/lib/thumb/v7e-m/fpv4-sp/hard\libg_nano.a(lib_a-strlen.o)
 .bss           0x00000000        0x0 c:/a/gcc_arm/6/bin/../lib/gcc/arm-none-eabi/6.3.1/../../../../arm-none-eabi/lib/thumb/v7e-m/fpv4-sp/hard\libg_nano.a(lib_a-strlen.o)
 .text          0x00000000        0x0 c:/a/gcc_arm/6/bin/../lib/gcc/arm-none-eabi/6.3.1/../../../../arm-none-eabi/lib/thumb/v7e-m/fpv4-sp/hard\libg_nano.a(lib_a-strrchr.o)
 .data          0x00000000        0x0 c:/a/gcc_arm/6/bin/../lib/gcc/arm-none-eabi/6.3.1/../../../../arm-none-eabi/lib/thumb/v7e-m/fpv4-sp/hard\libg_nano.a(lib_a-strrchr.o)
 .bss           0x00000000        0x0 c:/a/gcc_arm/6/bin/../lib/gcc/arm-none-eabi/6.3.1/../../../../arm-none-eabi/lib/thumb/v7e-m/fpv4-sp/hard\libg_nano.a(lib_a-strrchr.o)
 .text          0x00000000        0x0 c:/a/gcc_arm/6/bin/../lib/gcc/arm-none-eabi/6.3.1/../../../../arm-none-eabi/lib/thumb/v7e-m/fpv4-sp/hard\libg_nano.a(lib_a-mlock.o)
 .data          0x00000000        0x0 c:/a/gcc_arm/6/bin/../lib/gcc/arm-none-eabi/6.3.1/../../../../arm-none-eabi/lib/thumb/v7e-m/fpv4-sp/hard\libg_nano.a(lib_a-mlock.o)
 .bss           0x00000000        0x0 c:/a/gcc_arm/6/bin/../lib/gcc/arm-none-eabi/6.3.1/../../../../arm-none-eabi/lib/thumb/v7e-m/fpv4-sp/hard\libg_nano.a(lib_a-mlock.o)
 .text          0x00000000        0x0 c:/a/gcc_arm/6/bin/../lib/gcc/arm-none-eabi/6.3.1/../../../../arm-none-eabi/lib/thumb/v7e-m/fpv4-sp/hard\libg_nano.a(lib_a-reent.o)
 .data          0x00000000        0x0 c:/a/gcc_arm/6/bin/../lib/gcc/arm-none-eabi/6.3.1/../../../../arm-none-eabi/lib/thumb/v7e-m/fpv4-sp/hard\libg_nano.a(lib_a-reent.o)
 .bss           0x00000000        0x0 c:/a/gcc_arm/6/bin/../lib/gcc/arm-none-eabi/6.3.1/../../../../arm-none-eabi/lib/thumb/v7e-m/fpv4-sp/hard\libg_nano.a(lib_a-reent.o)
 .text.cleanup_glue
                0x00000000       0x1a c:/a/gcc_arm/6/bin/../lib/gcc/arm-none-eabi/6.3.1/../../../../arm-none-eabi/lib/thumb/v7e-m/fpv4-sp/hard\libg_nano.a(lib_a-reent.o)
 .text._reclaim_reent
                0x00000000       0xb8 c:/a/gcc_arm/6/bin/../lib/gcc/arm-none-eabi/6.3.1/../../../../arm-none-eabi/lib/thumb/v7e-m/fpv4-sp/hard\libg_nano.a(lib_a-reent.o)
 .text          0x00000000        0x0 c:/a/gcc_arm/6/bin/../lib/gcc/arm-none-eabi/6.3.1/../../../../arm-none-eabi/lib/thumb/v7e-m/fpv4-sp/hard\libg_nano.a(lib_a-strchr.o)
 .data          0x00000000        0x0 c:/a/gcc_arm/6/bin/../lib/gcc/arm-none-eabi/6.3.1/../../../../arm-none-eabi/lib/thumb/v7e-m/fpv4-sp/hard\libg_nano.a(lib_a-strchr.o)
 .bss           0x00000000        0x0 c:/a/gcc_arm/6/bin/../lib/gcc/arm-none-eabi/6.3.1/../../../../arm-none-eabi/lib/thumb/v7e-m/fpv4-sp/hard\libg_nano.a(lib_a-strchr.o)
 .text          0x00000000        0x0 c:/a/gcc_arm/6/bin/../lib/gcc/arm-none-eabi/6.3.1/thumb/v7e-m/fpv4-sp/hard/crtend.o
 .data          0x00000000        0x0 c:/a/gcc_arm/6/bin/../lib/gcc/arm-none-eabi/6.3.1/thumb/v7e-m/fpv4-sp/hard/crtend.o
 .bss           0x00000000        0x0 c:/a/gcc_arm/6/bin/../lib/gcc/arm-none-eabi/6.3.1/thumb/v7e-m/fpv4-sp/hard/crtend.o
 .text          0x00000000        0x0 c:/a/gcc_arm/6/bin/../lib/gcc/arm-none-eabi/6.3.1/thumb/v7e-m/fpv4-sp/hard/crtn.o
 .data          0x00000000        0x0 c:/a/gcc_arm/6/bin/../lib/gcc/arm-none-eabi/6.3.1/thumb/v7e-m/fpv4-sp/hard/crtn.o
 .bss           0x00000000        0x0 c:/a/gcc_arm/6/bin/../lib/gcc/arm-none-eabi/6.3.1/thumb/v7e-m/fpv4-sp/hard/crtn.o
 .text          0x00000000        0x0 c:/a/gcc_arm/6/bin/../lib/gcc/arm-none-eabi/6.3.1/../../../../arm-none-eabi/lib/thumb/v7e-m/fpv4-sp/hard\libnosys.a(sbrk.o)
 .data          0x00000000        0x0 c:/a/gcc_arm/6/bin/../lib/gcc/arm-none-eabi/6.3.1/../../../../arm-none-eabi/lib/thumb/v7e-m/fpv4-sp/hard\libnosys.a(sbrk.o)
 .bss           0x00000000        0x0 c:/a/gcc_arm/6/bin/../lib/gcc/arm-none-eabi/6.3.1/../../../../arm-none-eabi/lib/thumb/v7e-m/fpv4-sp/hard\libnosys.a(sbrk.o)
 .text          0x00000000        0x0 c:/a/gcc_arm/6/bin/../lib/gcc/arm-none-eabi/6.3.1/../../../../arm-none-eabi/lib/thumb/v7e-m/fpv4-sp/hard\libnosys.a(_exit.o)
 .data          0x00000000        0x0 c:/a/gcc_arm/6/bin/../lib/gcc/arm-none-eabi/6.3.1/../../../../arm-none-eabi/lib/thumb/v7e-m/fpv4-sp/hard\libnosys.a(_exit.o)
 .bss           0x00000000        0x0 c:/a/gcc_arm/6/bin/../lib/gcc/arm-none-eabi/6.3.1/../../../../arm-none-eabi/lib/thumb/v7e-m/fpv4-sp/hard\libnosys.a(_exit.o)

Memory Configuration

Name             Origin             Length             Attributes
FLASH            0x0001f000         0x00059000         xr
RAM              0x200019c0         0x0000e340         xrw
*default*        0x00000000         0xffffffff

Linker script and memory map


.text           0x0001f000    0x12e60
 *(.isr_vector)
 .isr_vector    0x0001f000      0x200 examples/serial/CMakeFiles/serial_nrf52832_xxAA_s132_3.1.0.dir/__/__/external/nRF5_SDK_14.2.0_17b948a/components/toolchain/gcc/gcc_startup_nrf52.S.obj
                0x0001f000                __isr_vector
 *(.text*)
 .text          0x0001f200       0x6c c:/a/gcc_arm/6/bin/../lib/gcc/arm-none-eabi/6.3.1/thumb/v7e-m/fpv4-sp/hard/crtbegin.o
 .text          0x0001f26c       0x74 c:/a/gcc_arm/6/bin/../lib/gcc/arm-none-eabi/6.3.1/../../../../arm-none-eabi/lib/thumb/v7e-m/fpv4-sp/hard/crt0.o
                0x0001f26c                _start
                0x0001f26c                _mainCRTStartup
 .text.sd_app_evt_wait
                0x0001f2e0        0x4 examples/serial/CMakeFiles/serial_nrf52832_xxAA_s132_3.1.0.dir/src/main.c.obj
 .text.startup.main
                0x0001f2e4      0x268 examples/serial/CMakeFiles/serial_nrf52832_xxAA_s132_3.1.0.dir/src/main.c.obj
                0x0001f2e4                main
 .text.sd_evt_get
                0x0001f54c        0x4 examples/serial/CMakeFiles/serial_nrf52832_xxAA_s132_3.1.0.dir/__/nrf_mesh_sdk.c.obj
 .text.sd_softdevice_enable
                0x0001f550        0x4 examples/serial/CMakeFiles/serial_nrf52832_xxAA_s132_3.1.0.dir/__/nrf_mesh_sdk.c.obj
 .text.sd_ble_enable
                0x0001f554        0x4 examples/serial/CMakeFiles/serial_nrf52832_xxAA_s132_3.1.0.dir/__/nrf_mesh_sdk.c.obj
 .text.sd_ble_evt_get
                0x0001f558        0x4 examples/serial/CMakeFiles/serial_nrf52832_xxAA_s132_3.1.0.dir/__/nrf_mesh_sdk.c.obj
 .text.sleep_forever
                0x0001f55c       0x1c examples/serial/CMakeFiles/serial_nrf52832_xxAA_s132_3.1.0.dir/__/nrf_mesh_sdk.c.obj
 .text.mesh_assert_handler
                0x0001f578       0x70 examples/serial/CMakeFiles/serial_nrf52832_xxAA_s132_3.1.0.dir/__/nrf_mesh_sdk.c.obj
                0x0001f578                mesh_assert_handler
 .text.softdevice_assert_handler
                0x0001f5e8       0x78 examples/serial/CMakeFiles/serial_nrf52832_xxAA_s132_3.1.0.dir/__/nrf_mesh_sdk.c.obj
                0x0001f5e8                softdevice_assert_handler
 .text.app_error_handler
                0x0001f660       0x78 examples/serial/CMakeFiles/serial_nrf52832_xxAA_s132_3.1.0.dir/__/nrf_mesh_sdk.c.obj
                0x0001f660                app_error_handler
 .text.HardFault_Handler
                0x0001f6d8       0x6c examples/serial/CMakeFiles/serial_nrf52832_xxAA_s132_3.1.0.dir/__/nrf_mesh_sdk.c.obj
                0x0001f6d8                HardFault_Handler
 .text.SWI2_EGU2_IRQHandler
                0x0001f744       0x3c examples/serial/CMakeFiles/serial_nrf52832_xxAA_s132_3.1.0.dir/__/nrf_mesh_sdk.c.obj
                0x0001f744                SWI2_EGU2_IRQHandler
 .text.mesh_softdevice_enable
                0x0001f780      0x128 examples/serial/CMakeFiles/serial_nrf52832_xxAA_s132_3.1.0.dir/__/nrf_mesh_sdk.c.obj
                0x0001f780                mesh_softdevice_enable
 .text.mesh_softdevice_setup
                0x0001f8a8       0x88 examples/serial/CMakeFiles/serial_nrf52832_xxAA_s132_3.1.0.dir/__/nrf_mesh_sdk.c.obj
                0x0001f8a8                mesh_softdevice_setup
 .text.mesh_core_setup
                0x0001f930      0x15c examples/serial/CMakeFiles/serial_nrf52832_xxAA_s132_3.1.0.dir/__/nrf_mesh_sdk.c.obj
                0x0001f930                mesh_core_setup
 .text.prov_provisioner_cb_link_closed
                0x0001fa8c       0x2a examples/serial/CMakeFiles/serial_nrf52832_xxAA_s132_3.1.0.dir/__/__/mesh/prov/src/prov_provisioner.c.obj
 .text.prov_provisioner_cb_link_established
                0x0001fab6       0x3e examples/serial/CMakeFiles/serial_nrf52832_xxAA_s132_3.1.0.dir/__/__/mesh/prov/src/prov_provisioner.c.obj
 .text.prov_provisioner_cb_ack_received
                0x0001faf4       0x48 examples/serial/CMakeFiles/serial_nrf52832_xxAA_s132_3.1.0.dir/__/__/mesh/prov/src/prov_provisioner.c.obj
 .text.send_confirmation
                0x0001fb3c       0x26 examples/serial/CMakeFiles/serial_nrf52832_xxAA_s132_3.1.0.dir/__/__/mesh/prov/src/prov_provisioner.c.obj
 .text.request_authentication
                0x0001fb62       0x8a examples/serial/CMakeFiles/serial_nrf52832_xxAA_s132_3.1.0.dir/__/__/mesh/prov/src/prov_provisioner.c.obj
 .text.prov_provisioner_pkt_in
                0x0001fbec      0x2a4 examples/serial/CMakeFiles/serial_nrf52832_xxAA_s132_3.1.0.dir/__/__/mesh/prov/src/prov_provisioner.c.obj
 .text.prov_provisioner_provision
                0x0001fe90       0x44 examples/serial/CMakeFiles/serial_nrf52832_xxAA_s132_3.1.0.dir/__/__/mesh/prov/src/prov_provisioner.c.obj
                0x0001fe90                prov_provisioner_provision
 .text.prov_provisioner_oob_use
                0x0001fed4       0x7a examples/serial/CMakeFiles/serial_nrf52832_xxAA_s132_3.1.0.dir/__/__/mesh/prov/src/prov_provisioner.c.obj
                0x0001fed4                prov_provisioner_oob_use
 .text.prov_provisioner_auth_data
                0x0001ff4e       0x44 examples/serial/CMakeFiles/serial_nrf52832_xxAA_s132_3.1.0.dir/__/__/mesh/prov/src/prov_provisioner.c.obj
                0x0001ff4e                prov_provisioner_auth_data
 .text.prov_provisioner_shared_secret
                0x0001ff92       0x28 examples/serial/CMakeFiles/serial_nrf52832_xxAA_s132_3.1.0.dir/__/__/mesh/prov/src/prov_provisioner.c.obj
                0x0001ff92                prov_provisioner_shared_secret
 .text.complete_provisioning
                0x0001ffba       0x52 examples/serial/CMakeFiles/serial_nrf52832_xxAA_s132_3.1.0.dir/__/__/mesh/prov/src/prov_provisionee.c.obj
 .text.prov_provisionee_cb_link_established
                0x0002000c       0x20 examples/serial/CMakeFiles/serial_nrf52832_xxAA_s132_3.1.0.dir/__/__/mesh/prov/src/prov_provisionee.c.obj
 .text.prov_provisionee_cb_link_closed
                0x0002002c       0x34 examples/serial/CMakeFiles/serial_nrf52832_xxAA_s132_3.1.0.dir/__/__/mesh/prov/src/prov_provisionee.c.obj
 .text.request_authentication
                0x00020060       0x8a examples/serial/CMakeFiles/serial_nrf52832_xxAA_s132_3.1.0.dir/__/__/mesh/prov/src/prov_provisionee.c.obj
 .text.send_failed
                0x000200ea       0x3a examples/serial/CMakeFiles/serial_nrf52832_xxAA_s132_3.1.0.dir/__/__/mesh/prov/src/prov_provisionee.c.obj
 .text.start_authentication
                0x00020124       0x52 examples/serial/CMakeFiles/serial_nrf52832_xxAA_s132_3.1.0.dir/__/__/mesh/prov/src/prov_provisionee.c.obj
 *fill*         0x00020176        0x2 
 .text.prov_provisionee_cb_ack_received
                0x00020178       0xb8 examples/serial/CMakeFiles/serial_nrf52832_xxAA_s132_3.1.0.dir/__/__/mesh/prov/src/prov_provisionee.c.obj
 .text.prov_provisionee_pkt_in
                0x00020230      0x2a0 examples/serial/CMakeFiles/serial_nrf52832_xxAA_s132_3.1.0.dir/__/__/mesh/prov/src/prov_provisionee.c.obj
 .text.prov_provisionee_init
                0x000204d0       0x38 examples/serial/CMakeFiles/serial_nrf52832_xxAA_s132_3.1.0.dir/__/__/mesh/prov/src/prov_provisionee.c.obj
                0x000204d0                prov_provisionee_init
 .text.prov_provisionee_auth_data
                0x00020508       0x7a examples/serial/CMakeFiles/serial_nrf52832_xxAA_s132_3.1.0.dir/__/__/mesh/prov/src/prov_provisionee.c.obj
                0x00020508                prov_provisionee_auth_data
 .text.prov_provisionee_shared_secret
                0x00020582       0x28 examples/serial/CMakeFiles/serial_nrf52832_xxAA_s132_3.1.0.dir/__/__/mesh/prov/src/prov_provisionee.c.obj
                0x00020582                prov_provisionee_shared_secret
 .text.bearer_compare_callback
                0x000205aa        0xc examples/serial/CMakeFiles/serial_nrf52832_xxAA_s132_3.1.0.dir/__/__/mesh/prov/src/nrf_mesh_prov.c.obj
 .text.nrf_mesh_prov_init
                0x000205b6       0x32 examples/serial/CMakeFiles/serial_nrf52832_xxAA_s132_3.1.0.dir/__/__/mesh/prov/src/nrf_mesh_prov.c.obj
                0x000205b6                nrf_mesh_prov_init
 .text.nrf_mesh_prov_bearer_add
                0x000205e8       0x20 examples/serial/CMakeFiles/serial_nrf52832_xxAA_s132_3.1.0.dir/__/__/mesh/prov/src/nrf_mesh_prov.c.obj
                0x000205e8                nrf_mesh_prov_bearer_add
 .text.nrf_mesh_prov_generate_keys
                0x00020608        0x4 examples/serial/CMakeFiles/serial_nrf52832_xxAA_s132_3.1.0.dir/__/__/mesh/prov/src/nrf_mesh_prov.c.obj
                0x00020608                nrf_mesh_prov_generate_keys
 .text.nrf_mesh_prov_listen
                0x0002060c       0x30 examples/serial/CMakeFiles/serial_nrf52832_xxAA_s132_3.1.0.dir/__/__/mesh/prov/src/nrf_mesh_prov.c.obj
                0x0002060c                nrf_mesh_prov_listen
 .text.nrf_mesh_prov_provision
                0x0002063c       0x4e examples/serial/CMakeFiles/serial_nrf52832_xxAA_s132_3.1.0.dir/__/__/mesh/prov/src/nrf_mesh_prov.c.obj
                0x0002063c                nrf_mesh_prov_provision
 .text.nrf_mesh_prov_oob_use
                0x0002068a        0xe examples/serial/CMakeFiles/serial_nrf52832_xxAA_s132_3.1.0.dir/__/__/mesh/prov/src/nrf_mesh_prov.c.obj
                0x0002068a                nrf_mesh_prov_oob_use
 .text.nrf_mesh_prov_auth_data_provide
                0x00020698        0xe examples/serial/CMakeFiles/serial_nrf52832_xxAA_s132_3.1.0.dir/__/__/mesh/prov/src/nrf_mesh_prov.c.obj
                0x00020698                nrf_mesh_prov_auth_data_provide
 .text.nrf_mesh_prov_shared_secret_provide
                0x000206a6        0xe examples/serial/CMakeFiles/serial_nrf52832_xxAA_s132_3.1.0.dir/__/__/mesh/prov/src/nrf_mesh_prov.c.obj
                0x000206a6                nrf_mesh_prov_shared_secret_provide
 .text.nrf_mesh_prov_scan_start
                0x000206b4       0x10 examples/serial/CMakeFiles/serial_nrf52832_xxAA_s132_3.1.0.dir/__/__/mesh/prov/src/nrf_mesh_prov.c.obj
                0x000206b4                nrf_mesh_prov_scan_start
 .text.nrf_mesh_prov_scan_stop
                0x000206c4        0x4 examples/serial/CMakeFiles/serial_nrf52832_xxAA_s132_3.1.0.dir/__/__/mesh/prov/src/nrf_mesh_prov.c.obj
                0x000206c4                nrf_mesh_prov_scan_stop
 .text.send_data
                0x000206c8       0x3c examples/serial/CMakeFiles/serial_nrf52832_xxAA_s132_3.1.0.dir/__/__/mesh/prov/src/provisioning.c.obj
 .text.prov_packet_length_valid
                0x00020704       0x1c examples/serial/CMakeFiles/serial_nrf52832_xxAA_s132_3.1.0.dir/__/__/mesh/prov/src/provisioning.c.obj
                0x00020704                prov_packet_length_valid
 .text.prov_tx_invite
                0x00020720       0x28 examples/serial/CMakeFiles/serial_nrf52832_xxAA_s132_3.1.0.dir/__/__/mesh/prov/src/provisioning.c.obj
                0x00020720                prov_tx_invite
 .text.prov_tx_capabilities
                0x00020748       0x1e examples/serial/CMakeFiles/serial_nrf52832_xxAA_s132_3.1.0.dir/__/__/mesh/prov/src/provisioning.c.obj
                0x00020748                prov_tx_capabilities
 .text.prov_tx_start
                0x00020766       0x20 examples/serial/CMakeFiles/serial_nrf52832_xxAA_s132_3.1.0.dir/__/__/mesh/prov/src/provisioning.c.obj
                0x00020766                prov_tx_start
 .text.prov_tx_public_key
                0x00020786       0x26 examples/serial/CMakeFiles/serial_nrf52832_xxAA_s132_3.1.0.dir/__/__/mesh/prov/src/provisioning.c.obj
                0x00020786                prov_tx_public_key
 .text.prov_tx_input_complete
                0x000207ac       0x16 examples/serial/CMakeFiles/serial_nrf52832_xxAA_s132_3.1.0.dir/__/__/mesh/prov/src/provisioning.c.obj
                0x000207ac                prov_tx_input_complete
 .text.prov_tx_confirmation
                0x000207c2       0x26 examples/serial/CMakeFiles/serial_nrf52832_xxAA_s132_3.1.0.dir/__/__/mesh/prov/src/provisioning.c.obj
                0x000207c2                prov_tx_confirmation
 .text.prov_tx_random
                0x000207e8       0x26 examples/serial/CMakeFiles/serial_nrf52832_xxAA_s132_3.1.0.dir/__/__/mesh/prov/src/provisioning.c.obj
                0x000207e8                prov_tx_random
 .text.prov_tx_complete
                0x0002080e       0x16 examples/serial/CMakeFiles/serial_nrf52832_xxAA_s132_3.1.0.dir/__/__/mesh/prov/src/provisioning.c.obj
                0x0002080e                prov_tx_complete
 .text.prov_tx_failed
                0x00020824       0x1a examples/serial/CMakeFiles/serial_nrf52832_xxAA_s132_3.1.0.dir/__/__/mesh/prov/src/provisioning.c.obj
                0x00020824                prov_tx_failed
 .text.prov_tx_data
                0x0002083e        0x6 examples/serial/CMakeFiles/serial_nrf52832_xxAA_s132_3.1.0.dir/__/__/mesh/prov/src/provisioning.c.obj
                0x0002083e                prov_tx_data
 .text.prov_beacon_unprov_build
                0x00020844       0x54 examples/serial/CMakeFiles/serial_nrf52832_xxAA_s132_3.1.0.dir/__/__/mesh/prov/src/prov_beacon.c.obj
                0x00020844                prov_beacon_unprov_build
 .text.prov_beacon_unprov_packet_in
                0x00020898       0x9c examples/serial/CMakeFiles/serial_nrf52832_xxAA_s132_3.1.0.dir/__/__/mesh/prov/src/prov_beacon.c.obj
                0x00020898                prov_beacon_unprov_packet_in
 .text.prov_beacon_scan_start
                0x00020934       0x24 examples/serial/CMakeFiles/serial_nrf52832_xxAA_s132_3.1.0.dir/__/__/mesh/prov/src/prov_beacon.c.obj
                0x00020934                prov_beacon_scan_start
 .text.prov_beacon_scan_stop
                0x00020958        0xc examples/serial/CMakeFiles/serial_nrf52832_xxAA_s132_3.1.0.dir/__/__/mesh/prov/src/prov_beacon.c.obj
                0x00020958                prov_beacon_scan_stop
 .text.oob_gen_alphanumeric
                0x00020964       0x34 examples/serial/CMakeFiles/serial_nrf52832_xxAA_s132_3.1.0.dir/__/__/mesh/prov/src/prov_utils.c.obj
 .text.oob_gen_numeric
                0x00020998       0x3c examples/serial/CMakeFiles/serial_nrf52832_xxAA_s132_3.1.0.dir/__/__/mesh/prov/src/prov_utils.c.obj
 .text.prov_utils_opt_set
                0x000209d4       0x20 examples/serial/CMakeFiles/serial_nrf52832_xxAA_s132_3.1.0.dir/__/__/mesh/prov/src/prov_utils.c.obj
                0x000209d4                prov_utils_opt_set
 .text.prov_utils_opt_get
                0x000209f4       0x1c examples/serial/CMakeFiles/serial_nrf52832_xxAA_s132_3.1.0.dir/__/__/mesh/prov/src/prov_utils.c.obj
                0x000209f4                prov_utils_opt_get
 .text.prov_utils_use_ecdh_offloading
                0x00020a10        0xc examples/serial/CMakeFiles/serial_nrf52832_xxAA_s132_3.1.0.dir/__/__/mesh/prov/src/prov_utils.c.obj
                0x00020a10                prov_utils_use_ecdh_offloading
 .text.prov_utils_authentication_values_derive
                0x00020a1c       0xa0 examples/serial/CMakeFiles/serial_nrf52832_xxAA_s132_3.1.0.dir/__/__/mesh/prov/src/prov_utils.c.obj
                0x00020a1c                prov_utils_authentication_values_derive
 .text.prov_utils_keys_generate
                0x00020abc       0x1e examples/serial/CMakeFiles/serial_nrf52832_xxAA_s132_3.1.0.dir/__/__/mesh/prov/src/prov_utils.c.obj
                0x00020abc                prov_utils_keys_generate
 *fill*         0x00020ada        0x2 
 .text.prov_utils_derive_keys
                0x00020adc       0xac examples/serial/CMakeFiles/serial_nrf52832_xxAA_s132_3.1.0.dir/__/__/mesh/prov/src/prov_utils.c.obj
                0x00020adc                prov_utils_derive_keys
 .text.prov_utils_calculate_shared_secret
                0x00020b88       0x36 examples/serial/CMakeFiles/serial_nrf52832_xxAA_s132_3.1.0.dir/__/__/mesh/prov/src/prov_utils.c.obj
                0x00020b88                prov_utils_calculate_shared_secret
 *fill*         0x00020bbe        0x2 
 .text.prov_utils_generate_oob_data
                0x00020bc0       0x9c examples/serial/CMakeFiles/serial_nrf52832_xxAA_s132_3.1.0.dir/__/__/mesh/prov/src/prov_utils.c.obj
                0x00020bc0                prov_utils_generate_oob_data
 .text.prov_utils_confirmation_check
                0x00020c5c       0x5c examples/serial/CMakeFiles/serial_nrf52832_xxAA_s132_3.1.0.dir/__/__/mesh/prov/src/prov_utils.c.obj
                0x00020c5c                prov_utils_confirmation_check
 .text.link_timeout_cb
                0x00020cb8       0x10 examples/serial/CMakeFiles/serial_nrf52832_xxAA_s132_3.1.0.dir/__/__/mesh/prov/src/prov_bearer_adv.c.obj
 .text.remove_active_bearer
                0x00020cc8       0x60 examples/serial/CMakeFiles/serial_nrf52832_xxAA_s132_3.1.0.dir/__/__/mesh/prov/src/prov_bearer_adv.c.obj
 .text.close_link
                0x00020d28       0x6c examples/serial/CMakeFiles/serial_nrf52832_xxAA_s132_3.1.0.dir/__/__/mesh/prov/src/prov_bearer_adv.c.obj
 .text.prov_bearer_adv_listen_stop
                0x00020d94       0x3c examples/serial/CMakeFiles/serial_nrf52832_xxAA_s132_3.1.0.dir/__/__/mesh/prov/src/prov_bearer_adv.c.obj
 .text.send_packet
                0x00020dd0       0x6c examples/serial/CMakeFiles/serial_nrf52832_xxAA_s132_3.1.0.dir/__/__/mesh/prov/src/prov_bearer_adv.c.obj
 .text.prov_buffer_tx
                0x00020e3c      0x158 examples/serial/CMakeFiles/serial_nrf52832_xxAA_s132_3.1.0.dir/__/__/mesh/prov/src/prov_bearer_adv.c.obj
 .text.send_link_close
                0x00020f94       0x38 examples/serial/CMakeFiles/serial_nrf52832_xxAA_s132_3.1.0.dir/__/__/mesh/prov/src/prov_bearer_adv.c.obj
 .text.prov_bearer_adv_link_close
                0x00020fcc       0x74 examples/serial/CMakeFiles/serial_nrf52832_xxAA_s132_3.1.0.dir/__/__/mesh/prov/src/prov_bearer_adv.c.obj
 .text.send_transaction_ack
                0x00021040       0x24 examples/serial/CMakeFiles/serial_nrf52832_xxAA_s132_3.1.0.dir/__/__/mesh/prov/src/prov_bearer_adv.c.obj
 .text.send_link_ack
                0x00021064       0x32 examples/serial/CMakeFiles/serial_nrf52832_xxAA_s132_3.1.0.dir/__/__/mesh/prov/src/prov_bearer_adv.c.obj
 .text.reset_timeout_timer
                0x00021096       0x1a examples/serial/CMakeFiles/serial_nrf52832_xxAA_s132_3.1.0.dir/__/__/mesh/prov/src/prov_bearer_adv.c.obj
 .text.tx_complete_cb
                0x000210b0       0x1c examples/serial/CMakeFiles/serial_nrf52832_xxAA_s132_3.1.0.dir/__/__/mesh/prov/src/prov_bearer_adv.c.obj
 .text.tx_retry_cb
                0x000210cc       0xcc examples/serial/CMakeFiles/serial_nrf52832_xxAA_s132_3.1.0.dir/__/__/mesh/prov/src/prov_bearer_adv.c.obj
 .text.add_active_bearer
                0x00021198       0x80 examples/serial/CMakeFiles/serial_nrf52832_xxAA_s132_3.1.0.dir/__/__/mesh/prov/src/prov_bearer_adv.c.obj
 .text.prov_bearer_adv_link_open
                0x00021218       0xf8 examples/serial/CMakeFiles/serial_nrf52832_xxAA_s132_3.1.0.dir/__/__/mesh/prov/src/prov_bearer_adv.c.obj
 .text.async_process
                0x00021310       0x50 examples/serial/CMakeFiles/serial_nrf52832_xxAA_s132_3.1.0.dir/__/__/mesh/prov/src/prov_bearer_adv.c.obj
 .text.prov_bearer_adv_listen
                0x00021360       0xec examples/serial/CMakeFiles/serial_nrf52832_xxAA_s132_3.1.0.dir/__/__/mesh/prov/src/prov_bearer_adv.c.obj
 .text.calculate_3GPP_CRC
                0x0002144c       0x24 examples/serial/CMakeFiles/serial_nrf52832_xxAA_s132_3.1.0.dir/__/__/mesh/prov/src/prov_bearer_adv.c.obj
                0x0002144c                calculate_3GPP_CRC
 .text.prov_bearer_adv_tx
                0x00021470       0xb4 examples/serial/CMakeFiles/serial_nrf52832_xxAA_s132_3.1.0.dir/__/__/mesh/prov/src/prov_bearer_adv.c.obj
 .text.prov_buffer_rx
                0x00021524       0x7c examples/serial/CMakeFiles/serial_nrf52832_xxAA_s132_3.1.0.dir/__/__/mesh/prov/src/prov_bearer_adv.c.obj
 .text.nrf_mesh_prov_bearer_adv_interface_get
                0x000215a0       0x48 examples/serial/CMakeFiles/serial_nrf52832_xxAA_s132_3.1.0.dir/__/__/mesh/prov/src/prov_bearer_adv.c.obj
                0x000215a0                nrf_mesh_prov_bearer_adv_interface_get
 .text.prov_bearer_adv_packet_in
                0x000215e8      0x80c examples/serial/CMakeFiles/serial_nrf52832_xxAA_s132_3.1.0.dir/__/__/mesh/prov/src/prov_bearer_adv.c.obj
                0x000215e8                prov_bearer_adv_packet_in
 .text.add_to_publication_list
                0x00021df4       0x84 examples/serial/CMakeFiles/serial_nrf52832_xxAA_s132_3.1.0.dir/__/__/mesh/access/src/access_publish.c.obj
 .text.step_resolution_to_us
                0x00021e78       0x44 examples/serial/CMakeFiles/serial_nrf52832_xxAA_s132_3.1.0.dir/__/__/mesh/access/src/access_publish.c.obj
 .text.schedule_publication_timer
                0x00021ebc      0x184 examples/serial/CMakeFiles/serial_nrf52832_xxAA_s132_3.1.0.dir/__/__/mesh/access/src/access_publish.c.obj
 .text.publish_timer_tick
                0x00022040       0xbc examples/serial/CMakeFiles/serial_nrf52832_xxAA_s132_3.1.0.dir/__/__/mesh/access/src/access_publish.c.obj
 .text.access_publish_init
                0x000220fc       0x38 examples/serial/CMakeFiles/serial_nrf52832_xxAA_s132_3.1.0.dir/__/__/mesh/access/src/access_publish.c.obj
                0x000220fc                access_publish_init
 .text.access_publish_period_set
                0x00022134       0x6c examples/serial/CMakeFiles/serial_nrf52832_xxAA_s132_3.1.0.dir/__/__/mesh/access/src/access_publish.c.obj
                0x00022134                access_publish_period_set
 .text.access_publish_period_get
                0x000221a0       0x30 examples/serial/CMakeFiles/serial_nrf52832_xxAA_s132_3.1.0.dir/__/__/mesh/access/src/access_publish.c.obj
                0x000221a0                access_publish_period_get
 .text.bitfield_get
                0x000221d0       0x1a examples/serial/CMakeFiles/serial_nrf52832_xxAA_s132_3.1.0.dir/__/__/mesh/access/src/access.c.obj
 .text.is_valid_opcode
                0x000221ea       0x42 examples/serial/CMakeFiles/serial_nrf52832_xxAA_s132_3.1.0.dir/__/__/mesh/access/src/access.c.obj
 .text.model_handle_valid_and_allocated
                0x0002222c       0x18 examples/serial/CMakeFiles/serial_nrf52832_xxAA_s132_3.1.0.dir/__/__/mesh/access/src/access.c.obj
 .text.flash_invalidate_complete
                0x00022244       0x14 examples/serial/CMakeFiles/serial_nrf52832_xxAA_s132_3.1.0.dir/__/__/mesh/access/src/access.c.obj
 .text.flash_manager_mem_available
                0x00022258        0x2 examples/serial/CMakeFiles/serial_nrf52832_xxAA_s132_3.1.0.dir/__/__/mesh/access/src/access.c.obj
 *fill*         0x0002225a        0x2 
 .text.access_flash_config_clear
                0x0002225c       0x28 examples/serial/CMakeFiles/serial_nrf52832_xxAA_s132_3.1.0.dir/__/__/mesh/access/src/access.c.obj
 .text.access_flash_config_store
                0x00022284      0x110 examples/serial/CMakeFiles/serial_nrf52832_xxAA_s132_3.1.0.dir/__/__/mesh/access/src/access.c.obj
                0x00022284                access_flash_config_store
 .text.access_state_clear
                0x00022394       0x40 examples/serial/CMakeFiles/serial_nrf52832_xxAA_s132_3.1.0.dir/__/__/mesh/access/src/access.c.obj
 .text.add_flash_manager
                0x000223d4       0x58 examples/serial/CMakeFiles/serial_nrf52832_xxAA_s132_3.1.0.dir/__/__/mesh/access/src/access.c.obj
 .text.flash_remove_complete
                0x0002242c       0x4c examples/serial/CMakeFiles/serial_nrf52832_xxAA_s132_3.1.0.dir/__/__/mesh/access/src/access.c.obj
 .text.flash_write_complete
                0x00022478       0x54 examples/serial/CMakeFiles/serial_nrf52832_xxAA_s132_3.1.0.dir/__/__/mesh/access/src/access.c.obj
 .text.handle_incoming
                0x000224cc      0x124 examples/serial/CMakeFiles/serial_nrf52832_xxAA_s132_3.1.0.dir/__/__/mesh/access/src/access.c.obj
 .text.mesh_evt_cb
                0x000225f0      0x134 examples/serial/CMakeFiles/serial_nrf52832_xxAA_s132_3.1.0.dir/__/__/mesh/access/src/access.c.obj
 .text.packet_tx
                0x00022724      0x2c4 examples/serial/CMakeFiles/serial_nrf52832_xxAA_s132_3.1.0.dir/__/__/mesh/access/src/access.c.obj
 .text.access_clear
                0x000229e8       0x12 examples/serial/CMakeFiles/serial_nrf52832_xxAA_s132_3.1.0.dir/__/__/mesh/access/src/access.c.obj
                0x000229e8                access_clear
 *fill*         0x000229fa        0x2 
 .text.access_init
                0x000229fc       0x28 examples/serial/CMakeFiles/serial_nrf52832_xxAA_s132_3.1.0.dir/__/__/mesh/access/src/access.c.obj
                0x000229fc                access_init
 .text.access_model_publish
                0x00022a24        0xc examples/serial/CMakeFiles/serial_nrf52832_xxAA_s132_3.1.0.dir/__/__/mesh/access/src/access.c.obj
                0x00022a24                access_model_publish
 .text.access_model_publish_address_set
                0x00022a30       0x3c examples/serial/CMakeFiles/serial_nrf52832_xxAA_s132_3.1.0.dir/__/__/mesh/access/src/access.c.obj
                0x00022a30                access_model_publish_address_set
 .text.access_model_publish_address_get
                0x00022a6c       0x28 examples/serial/CMakeFiles/serial_nrf52832_xxAA_s132_3.1.0.dir/__/__/mesh/access/src/access.c.obj
                0x00022a6c                access_model_publish_address_get
 .text.access_model_publish_period_set
                0x00022a94       0x64 examples/serial/CMakeFiles/serial_nrf52832_xxAA_s132_3.1.0.dir/__/__/mesh/access/src/access.c.obj
                0x00022a94                access_model_publish_period_set
 .text.access_model_publish_period_get
                0x00022af8       0x38 examples/serial/CMakeFiles/serial_nrf52832_xxAA_s132_3.1.0.dir/__/__/mesh/access/src/access.c.obj
                0x00022af8                access_model_publish_period_get
 .text.access_model_subscription_add
                0x00022b30       0x60 examples/serial/CMakeFiles/serial_nrf52832_xxAA_s132_3.1.0.dir/__/__/mesh/access/src/access.c.obj
                0x00022b30                access_model_subscription_add
 .text.access_model_subscription_remove
                0x00022b90       0x60 examples/serial/CMakeFiles/serial_nrf52832_xxAA_s132_3.1.0.dir/__/__/mesh/access/src/access.c.obj
                0x00022b90                access_model_subscription_remove
 .text.access_model_subscriptions_get
                0x00022bf0       0x7c examples/serial/CMakeFiles/serial_nrf52832_xxAA_s132_3.1.0.dir/__/__/mesh/access/src/access.c.obj
                0x00022bf0                access_model_subscriptions_get
 .text.access_model_application_bind
                0x00022c6c       0x50 examples/serial/CMakeFiles/serial_nrf52832_xxAA_s132_3.1.0.dir/__/__/mesh/access/src/access.c.obj
                0x00022c6c                access_model_application_bind
 .text.access_model_application_unbind
                0x00022cbc       0x50 examples/serial/CMakeFiles/serial_nrf52832_xxAA_s132_3.1.0.dir/__/__/mesh/access/src/access.c.obj
                0x00022cbc                access_model_application_unbind
 .text.access_model_applications_get
                0x00022d0c       0x64 examples/serial/CMakeFiles/serial_nrf52832_xxAA_s132_3.1.0.dir/__/__/mesh/access/src/access.c.obj
                0x00022d0c                access_model_applications_get
 .text.access_model_publish_application_set
                0x00022d70       0x3c examples/serial/CMakeFiles/serial_nrf52832_xxAA_s132_3.1.0.dir/__/__/mesh/access/src/access.c.obj
                0x00022d70                access_model_publish_application_set
 .text.access_model_publish_application_get
                0x00022dac       0x28 examples/serial/CMakeFiles/serial_nrf52832_xxAA_s132_3.1.0.dir/__/__/mesh/access/src/access.c.obj
                0x00022dac                access_model_publish_application_get
 .text.access_model_publish_ttl_set
                0x00022dd4       0x40 examples/serial/CMakeFiles/serial_nrf52832_xxAA_s132_3.1.0.dir/__/__/mesh/access/src/access.c.obj
                0x00022dd4                access_model_publish_ttl_set
 .text.access_model_publish_ttl_get
                0x00022e14       0x28 examples/serial/CMakeFiles/serial_nrf52832_xxAA_s132_3.1.0.dir/__/__/mesh/access/src/access.c.obj
                0x00022e14                access_model_publish_ttl_get
 .text.access_element_location_set
                0x00022e3c       0x2c examples/serial/CMakeFiles/serial_nrf52832_xxAA_s132_3.1.0.dir/__/__/mesh/access/src/access.c.obj
                0x00022e3c                access_element_location_set
 .text.access_element_location_get
                0x00022e68       0x20 examples/serial/CMakeFiles/serial_nrf52832_xxAA_s132_3.1.0.dir/__/__/mesh/access/src/access.c.obj
                0x00022e68                access_element_location_get
 .text.access_element_sig_model_count_get
                0x00022e88       0x24 examples/serial/CMakeFiles/serial_nrf52832_xxAA_s132_3.1.0.dir/__/__/mesh/access/src/access.c.obj
                0x00022e88                access_element_sig_model_count_get
 .text.access_element_vendor_model_count_get
                0x00022eac       0x24 examples/serial/CMakeFiles/serial_nrf52832_xxAA_s132_3.1.0.dir/__/__/mesh/access/src/access.c.obj
                0x00022eac                access_element_vendor_model_count_get
 .text.access_model_id_get
                0x00022ed0       0x2c examples/serial/CMakeFiles/serial_nrf52832_xxAA_s132_3.1.0.dir/__/__/mesh/access/src/access.c.obj
                0x00022ed0                access_model_id_get
 .text.access_handle_get
                0x00022efc       0x40 examples/serial/CMakeFiles/serial_nrf52832_xxAA_s132_3.1.0.dir/__/__/mesh/access/src/access.c.obj
                0x00022efc                access_handle_get
 .text.access_element_models_get
                0x00022f3c       0x44 examples/serial/CMakeFiles/serial_nrf52832_xxAA_s132_3.1.0.dir/__/__/mesh/access/src/access.c.obj
                0x00022f3c                access_element_models_get
 .text.access_model_p_args_get
                0x00022f80       0x28 examples/serial/CMakeFiles/serial_nrf52832_xxAA_s132_3.1.0.dir/__/__/mesh/access/src/access.c.obj
                0x00022f80                access_model_p_args_get
 .text.remove_and_reschedule
                0x00022fa8       0xc4 examples/serial/CMakeFiles/serial_nrf52832_xxAA_s132_3.1.0.dir/__/__/mesh/access/src/access_reliable.c.obj
 .text.reliable_timer_cb
                0x0002306c      0x108 examples/serial/CMakeFiles/serial_nrf52832_xxAA_s132_3.1.0.dir/__/__/mesh/access/src/access_reliable.c.obj
 .text.access_reliable_message_rx_cb
                0x00023174       0x5c examples/serial/CMakeFiles/serial_nrf52832_xxAA_s132_3.1.0.dir/__/__/mesh/access/src/access_reliable.c.obj
                0x00023174                access_reliable_message_rx_cb
 .text.access_reliable_init
                0x000231d0       0x1c examples/serial/CMakeFiles/serial_nrf52832_xxAA_s132_3.1.0.dir/__/__/mesh/access/src/access_reliable.c.obj
                0x000231d0                access_reliable_init
 .text.access_reliable_cancel_all
                0x000231ec       0x34 examples/serial/CMakeFiles/serial_nrf52832_xxAA_s132_3.1.0.dir/__/__/mesh/access/src/access_reliable.c.obj
                0x000231ec                access_reliable_cancel_all
 .text.bitfield_get
                0x00023220       0x1a examples/serial/CMakeFiles/serial_nrf52832_xxAA_s132_3.1.0.dir/__/__/mesh/access/src/device_state_manager.c.obj
 .text.bitfield_set
                0x0002323a       0x18 examples/serial/CMakeFiles/serial_nrf52832_xxAA_s132_3.1.0.dir/__/__/mesh/access/src/device_state_manager.c.obj
 .text.bitfield_clear
                0x00023252       0x1a examples/serial/CMakeFiles/serial_nrf52832_xxAA_s132_3.1.0.dir/__/__/mesh/access/src/device_state_manager.c.obj
 .text.bitfield_is_all_clear
                0x0002326c       0x3c examples/serial/CMakeFiles/serial_nrf52832_xxAA_s132_3.1.0.dir/__/__/mesh/access/src/device_state_manager.c.obj
 .text.address_handle_virtual_valid
                0x000232a8       0x18 examples/serial/CMakeFiles/serial_nrf52832_xxAA_s132_3.1.0.dir/__/__/mesh/access/src/device_state_manager.c.obj
 .text.net_key_handle_get
                0x000232c0       0x58 examples/serial/CMakeFiles/serial_nrf52832_xxAA_s132_3.1.0.dir/__/__/mesh/access/src/device_state_manager.c.obj
 .text.dev_key_handle_get
                0x00023318       0x5c examples/serial/CMakeFiles/serial_nrf52832_xxAA_s132_3.1.0.dir/__/__/mesh/access/src/device_state_manager.c.obj
 .text.app_key_handle_get
                0x00023374       0x58 examples/serial/CMakeFiles/serial_nrf52832_xxAA_s132_3.1.0.dir/__/__/mesh/access/src/device_state_manager.c.obj
 .text.get_subnet_handle
                0x000233cc       0x4c examples/serial/CMakeFiles/serial_nrf52832_xxAA_s132_3.1.0.dir/__/__/mesh/access/src/device_state_manager.c.obj
 .text.addr_nonvirtual_to_flash_entry
                0x00023418       0x10 examples/serial/CMakeFiles/serial_nrf52832_xxAA_s132_3.1.0.dir/__/__/mesh/access/src/device_state_manager.c.obj
 .text.flash_mem_listener_callback
                0x00023428       0x20 examples/serial/CMakeFiles/serial_nrf52832_xxAA_s132_3.1.0.dir/__/__/mesh/access/src/device_state_manager.c.obj
 .text.devkey_set
                0x00023448       0x50 examples/serial/CMakeFiles/serial_nrf52832_xxAA_s132_3.1.0.dir/__/__/mesh/access/src/device_state_manager.c.obj
 .text.devkey_to_dsm_entry
                0x00023498       0x18 examples/serial/CMakeFiles/serial_nrf52832_xxAA_s132_3.1.0.dir/__/__/mesh/access/src/device_state_manager.c.obj
 .text.devkey_to_flash_entry
                0x000234b0       0x28 examples/serial/CMakeFiles/serial_nrf52832_xxAA_s132_3.1.0.dir/__/__/mesh/access/src/device_state_manager.c.obj
 .text.addr_virtual_to_flash_entry
                0x000234d8       0x18 examples/serial/CMakeFiles/serial_nrf52832_xxAA_s132_3.1.0.dir/__/__/mesh/access/src/device_state_manager.c.obj
 .text.addr_unicast_to_dsm_entry
                0x000234f0        0xc examples/serial/CMakeFiles/serial_nrf52832_xxAA_s132_3.1.0.dir/__/__/mesh/access/src/device_state_manager.c.obj
 .text.addr_unicast_to_flash_entry
                0x000234fc       0x10 examples/serial/CMakeFiles/serial_nrf52832_xxAA_s132_3.1.0.dir/__/__/mesh/access/src/device_state_manager.c.obj
 .text.appkey_set
                0x0002350c       0x7c examples/serial/CMakeFiles/serial_nrf52832_xxAA_s132_3.1.0.dir/__/__/mesh/access/src/device_state_manager.c.obj
 .text.appkey_to_flash_entry
                0x00023588       0x54 examples/serial/CMakeFiles/serial_nrf52832_xxAA_s132_3.1.0.dir/__/__/mesh/access/src/device_state_manager.c.obj
 .text.subnet_to_flash_entry
                0x000235dc       0x60 examples/serial/CMakeFiles/serial_nrf52832_xxAA_s132_3.1.0.dir/__/__/mesh/access/src/device_state_manager.c.obj
 .text.subnet_set
                0x0002363c       0xb4 examples/serial/CMakeFiles/serial_nrf52832_xxAA_s132_3.1.0.dir/__/__/mesh/access/src/device_state_manager.c.obj
 .text.virtual_address_set
                0x000236f0       0x58 examples/serial/CMakeFiles/serial_nrf52832_xxAA_s132_3.1.0.dir/__/__/mesh/access/src/device_state_manager.c.obj
 .text.addr_virtual_to_dsm_entry
                0x00023748        0xe examples/serial/CMakeFiles/serial_nrf52832_xxAA_s132_3.1.0.dir/__/__/mesh/access/src/device_state_manager.c.obj
 *fill*         0x00023756        0x2 
 .text.reset_flash_area
                0x00023758       0x28 examples/serial/CMakeFiles/serial_nrf52832_xxAA_s132_3.1.0.dir/__/__/mesh/access/src/device_state_manager.c.obj
 .text.flash_save
                0x00023780       0x88 examples/serial/CMakeFiles/serial_nrf52832_xxAA_s132_3.1.0.dir/__/__/mesh/access/src/device_state_manager.c.obj
 .text.flash_invalidate
                0x00023808       0x70 examples/serial/CMakeFiles/serial_nrf52832_xxAA_s132_3.1.0.dir/__/__/mesh/access/src/device_state_manager.c.obj
 .text.flash_update_all
                0x00023878       0x6c examples/serial/CMakeFiles/serial_nrf52832_xxAA_s132_3.1.0.dir/__/__/mesh/access/src/device_state_manager.c.obj
 .text.virtual_address_uuid_index_get
                0x000238e4       0x60 examples/serial/CMakeFiles/serial_nrf52832_xxAA_s132_3.1.0.dir/__/__/mesh/access/src/device_state_manager.c.obj
 .text.add_address_virtual
                0x00023944       0x74 examples/serial/CMakeFiles/serial_nrf52832_xxAA_s132_3.1.0.dir/__/__/mesh/access/src/device_state_manager.c.obj
 .text.get_subnet_handle_by_beacon_info
                0x000239b8       0x3c examples/serial/CMakeFiles/serial_nrf52832_xxAA_s132_3.1.0.dir/__/__/mesh/access/src/device_state_manager.c.obj
 .text.get_app_handle
                0x000239f4       0x58 examples/serial/CMakeFiles/serial_nrf52832_xxAA_s132_3.1.0.dir/__/__/mesh/access/src/device_state_manager.c.obj
 .text.appkey_to_dsm_entry
                0x00023a4c       0x80 examples/serial/CMakeFiles/serial_nrf52832_xxAA_s132_3.1.0.dir/__/__/mesh/access/src/device_state_manager.c.obj
 .text.subnet_to_dsm_entry
                0x00023acc       0x7c examples/serial/CMakeFiles/serial_nrf52832_xxAA_s132_3.1.0.dir/__/__/mesh/access/src/device_state_manager.c.obj
 .text.flash_operation_complete
                0x00023b48       0x58 examples/serial/CMakeFiles/serial_nrf52832_xxAA_s132_3.1.0.dir/__/__/mesh/access/src/device_state_manager.c.obj
 .text.flash_invalidate_complete
                0x00023ba0        0x8 examples/serial/CMakeFiles/serial_nrf52832_xxAA_s132_3.1.0.dir/__/__/mesh/access/src/device_state_manager.c.obj
 .text.flash_write_complete
                0x00023ba8        0x8 examples/serial/CMakeFiles/serial_nrf52832_xxAA_s132_3.1.0.dir/__/__/mesh/access/src/device_state_manager.c.obj
 .text.add_address.part.7
                0x00023bb0      0x164 examples/serial/CMakeFiles/serial_nrf52832_xxAA_s132_3.1.0.dir/__/__/mesh/access/src/device_state_manager.c.obj
 .text.address_handle_valid
                0x00023d14       0x28 examples/serial/CMakeFiles/serial_nrf52832_xxAA_s132_3.1.0.dir/__/__/mesh/access/src/device_state_manager.c.obj
 .text.address_handle_nonvirtual_valid
                0x00023d3c       0x14 examples/serial/CMakeFiles/serial_nrf52832_xxAA_s132_3.1.0.dir/__/__/mesh/access/src/device_state_manager.c.obj
 .text.address_delete_if_unused
                0x00023d50       0x78 examples/serial/CMakeFiles/serial_nrf52832_xxAA_s132_3.1.0.dir/__/__/mesh/access/src/device_state_manager.c.obj
 .text.addr_nonvirtual_to_dsm_entry
                0x00023dc8       0x38 examples/serial/CMakeFiles/serial_nrf52832_xxAA_s132_3.1.0.dir/__/__/mesh/access/src/device_state_manager.c.obj
 .text.dsm_flash_area_get
                0x00023e00        0xc examples/serial/CMakeFiles/serial_nrf52832_xxAA_s132_3.1.0.dir/__/__/mesh/access/src/device_state_manager.c.obj
                0x00023e00                dsm_flash_area_get
 .text.build_flash_area
                0x00023e0c       0x90 examples/serial/CMakeFiles/serial_nrf52832_xxAA_s132_3.1.0.dir/__/__/mesh/access/src/device_state_manager.c.obj
 .text.flash_remove_complete
                0x00023e9c        0x4 examples/serial/CMakeFiles/serial_nrf52832_xxAA_s132_3.1.0.dir/__/__/mesh/access/src/device_state_manager.c.obj
 .text.dsm_clear
                0x00023ea0       0x74 examples/serial/CMakeFiles/serial_nrf52832_xxAA_s132_3.1.0.dir/__/__/mesh/access/src/device_state_manager.c.obj
                0x00023ea0                dsm_clear
 .text.dsm_init
                0x00023f14       0x24 examples/serial/CMakeFiles/serial_nrf52832_xxAA_s132_3.1.0.dir/__/__/mesh/access/src/device_state_manager.c.obj
                0x00023f14                dsm_init
 .text.dsm_local_unicast_addresses_set
                0x00023f38       0x84 examples/serial/CMakeFiles/serial_nrf52832_xxAA_s132_3.1.0.dir/__/__/mesh/access/src/device_state_manager.c.obj
                0x00023f38                dsm_local_unicast_addresses_set
 .text.dsm_local_unicast_addresses_get
                0x00023fbc       0x2c examples/serial/CMakeFiles/serial_nrf52832_xxAA_s132_3.1.0.dir/__/__/mesh/access/src/device_state_manager.c.obj
                0x00023fbc                dsm_local_unicast_addresses_get
 .text.dsm_address_publish_add
                0x00023fe8        0xc examples/serial/CMakeFiles/serial_nrf52832_xxAA_s132_3.1.0.dir/__/__/mesh/access/src/device_state_manager.c.obj
                0x00023fe8                dsm_address_publish_add
 .text.dsm_address_publish_virtual_add
                0x00023ff4        0x6 examples/serial/CMakeFiles/serial_nrf52832_xxAA_s132_3.1.0.dir/__/__/mesh/access/src/device_state_manager.c.obj
                0x00023ff4                dsm_address_publish_virtual_add
 *fill*         0x00023ffa        0x2 
 .text.dsm_address_publish_remove
                0x00023ffc       0x44 examples/serial/CMakeFiles/serial_nrf52832_xxAA_s132_3.1.0.dir/__/__/mesh/access/src/device_state_manager.c.obj
                0x00023ffc                dsm_address_publish_remove
 .text.dsm_address_subscription_add
                0x00024040        0xc examples/serial/CMakeFiles/serial_nrf52832_xxAA_s132_3.1.0.dir/__/__/mesh/access/src/device_state_manager.c.obj
                0x00024040                dsm_address_subscription_add
 .text.dsm_address_subscription_virtual_add
                0x0002404c        0x6 examples/serial/CMakeFiles/serial_nrf52832_xxAA_s132_3.1.0.dir/__/__/mesh/access/src/device_state_manager.c.obj
                0x0002404c                dsm_address_subscription_virtual_add
 *fill*         0x00024052        0x2 
 .text.dsm_address_subscription_get
                0x00024054       0x34 examples/serial/CMakeFiles/serial_nrf52832_xxAA_s132_3.1.0.dir/__/__/mesh/access/src/device_state_manager.c.obj
                0x00024054                dsm_address_subscription_get
 .text.dsm_address_get
                0x00024088       0x5c examples/serial/CMakeFiles/serial_nrf52832_xxAA_s132_3.1.0.dir/__/__/mesh/access/src/device_state_manager.c.obj
                0x00024088                dsm_address_get
 .text.dsm_address_subscription_remove
                0x000240e4       0x5c examples/serial/CMakeFiles/serial_nrf52832_xxAA_s132_3.1.0.dir/__/__/mesh/access/src/device_state_manager.c.obj
                0x000240e4                dsm_address_subscription_remove
 .text.dsm_address_get_all
                0x00024140       0x74 examples/serial/CMakeFiles/serial_nrf52832_xxAA_s132_3.1.0.dir/__/__/mesh/access/src/device_state_manager.c.obj
                0x00024140                dsm_address_get_all
 .text.dsm_address_handle_get
                0x000241b4       0x98 examples/serial/CMakeFiles/serial_nrf52832_xxAA_s132_3.1.0.dir/__/__/mesh/access/src/device_state_manager.c.obj
                0x000241b4                dsm_address_handle_get
 .text.dsm_subnet_handle_get
                0x0002424c        0xc examples/serial/CMakeFiles/serial_nrf52832_xxAA_s132_3.1.0.dir/__/__/mesh/access/src/device_state_manager.c.obj
                0x0002424c                dsm_subnet_handle_get
 .text.dsm_appkey_handle_get
                0x00024258        0xc examples/serial/CMakeFiles/serial_nrf52832_xxAA_s132_3.1.0.dir/__/__/mesh/access/src/device_state_manager.c.obj
                0x00024258                dsm_appkey_handle_get
 .text.dsm_subnet_add
                0x00024264       0x58 examples/serial/CMakeFiles/serial_nrf52832_xxAA_s132_3.1.0.dir/__/__/mesh/access/src/device_state_manager.c.obj
                0x00024264                dsm_subnet_add
 .text.dsm_subnet_update
                0x000242bc       0xc0 examples/serial/CMakeFiles/serial_nrf52832_xxAA_s132_3.1.0.dir/__/__/mesh/access/src/device_state_manager.c.obj
                0x000242bc                dsm_subnet_update
 .text.dsm_subnet_update_swap_keys
                0x0002437c       0x58 examples/serial/CMakeFiles/serial_nrf52832_xxAA_s132_3.1.0.dir/__/__/mesh/access/src/device_state_manager.c.obj
                0x0002437c                dsm_subnet_update_swap_keys
 .text.dsm_subnet_update_commit
                0x000243d4       0xec examples/serial/CMakeFiles/serial_nrf52832_xxAA_s132_3.1.0.dir/__/__/mesh/access/src/device_state_manager.c.obj
                0x000243d4                dsm_subnet_update_commit
 .text.net_beacon_callback
                0x000244c0       0x74 examples/serial/CMakeFiles/serial_nrf52832_xxAA_s132_3.1.0.dir/__/__/mesh/access/src/device_state_manager.c.obj
 .text.dsm_subnet_get_all
                0x00024534       0x60 examples/serial/CMakeFiles/serial_nrf52832_xxAA_s132_3.1.0.dir/__/__/mesh/access/src/device_state_manager.c.obj
                0x00024534                dsm_subnet_get_all
 .text.dsm_devkey_add
                0x00024594       0x7c examples/serial/CMakeFiles/serial_nrf52832_xxAA_s132_3.1.0.dir/__/__/mesh/access/src/device_state_manager.c.obj
                0x00024594                dsm_devkey_add
 .text.dsm_devkey_delete
                0x00024610       0x40 examples/serial/CMakeFiles/serial_nrf52832_xxAA_s132_3.1.0.dir/__/__/mesh/access/src/device_state_manager.c.obj
                0x00024610                dsm_devkey_delete
 .text.dsm_appkey_add
                0x00024650       0x78 examples/serial/CMakeFiles/serial_nrf52832_xxAA_s132_3.1.0.dir/__/__/mesh/access/src/device_state_manager.c.obj
                0x00024650                dsm_appkey_add
 .text.dsm_appkey_update
                0x000246c8       0xa0 examples/serial/CMakeFiles/serial_nrf52832_xxAA_s132_3.1.0.dir/__/__/mesh/access/src/device_state_manager.c.obj
                0x000246c8                dsm_appkey_update
 .text.dsm_appkey_delete
                0x00024768       0x30 examples/serial/CMakeFiles/serial_nrf52832_xxAA_s132_3.1.0.dir/__/__/mesh/access/src/device_state_manager.c.obj
                0x00024768                dsm_appkey_delete
 .text.dsm_subnet_delete
                0x00024798       0xb4 examples/serial/CMakeFiles/serial_nrf52832_xxAA_s132_3.1.0.dir/__/__/mesh/access/src/device_state_manager.c.obj
                0x00024798                dsm_subnet_delete
 .text.dsm_appkey_get_all
                0x0002484c       0x88 examples/serial/CMakeFiles/serial_nrf52832_xxAA_s132_3.1.0.dir/__/__/mesh/access/src/device_state_manager.c.obj
                0x0002484c                dsm_appkey_get_all
 .text.dsm_tx_secmat_get
                0x000248d4      0x120 examples/serial/CMakeFiles/serial_nrf52832_xxAA_s132_3.1.0.dir/__/__/mesh/access/src/device_state_manager.c.obj
                0x000248d4                dsm_tx_secmat_get
 .text.nrf_mesh_net_secmat_next_get
                0x000249f4       0xc8 examples/serial/CMakeFiles/serial_nrf52832_xxAA_s132_3.1.0.dir/__/__/mesh/access/src/device_state_manager.c.obj
                0x000249f4                nrf_mesh_net_secmat_next_get
 .text.nrf_mesh_app_secmat_next_get
                0x00024abc       0x9c examples/serial/CMakeFiles/serial_nrf52832_xxAA_s132_3.1.0.dir/__/__/mesh/access/src/device_state_manager.c.obj
                0x00024abc                nrf_mesh_app_secmat_next_get
 .text.nrf_mesh_devkey_secmat_get
                0x00024b58       0x50 examples/serial/CMakeFiles/serial_nrf52832_xxAA_s132_3.1.0.dir/__/__/mesh/access/src/device_state_manager.c.obj
                0x00024b58                nrf_mesh_devkey_secmat_get
 .text.nrf_mesh_beacon_info_next_get
                0x00024ba8       0xe8 examples/serial/CMakeFiles/serial_nrf52832_xxAA_s132_3.1.0.dir/__/__/mesh/access/src/device_state_manager.c.obj
                0x00024ba8                nrf_mesh_beacon_info_next_get
 .text.nrf_mesh_rx_address_get
                0x00024c90      0x118 examples/serial/CMakeFiles/serial_nrf52832_xxAA_s132_3.1.0.dir/__/__/mesh/access/src/device_state_manager.c.obj
                0x00024c90                nrf_mesh_rx_address_get
 .text.serial_uart_init
                0x00024da8       0xa0 examples/serial/CMakeFiles/serial_nrf52832_xxAA_s132_3.1.0.dir/__/__/mesh/serial/src/serial_uart.c.obj
                0x00024da8                serial_uart_init
 .text.serial_uart_process
                0x00024e48       0x5c examples/serial/CMakeFiles/serial_nrf52832_xxAA_s132_3.1.0.dir/__/__/mesh/serial/src/serial_uart.c.obj
                0x00024e48                serial_uart_process
 .text.UARTE0_UART0_IRQHandler
                0x00024ea4        0x4 examples/serial/CMakeFiles/serial_nrf52832_xxAA_s132_3.1.0.dir/__/__/mesh/serial/src/serial_uart.c.obj
                0x00024ea4                UARTE0_UART0_IRQHandler
 .text.serial_uart_receive_set
                0x00024ea8        0xc examples/serial/CMakeFiles/serial_nrf52832_xxAA_s132_3.1.0.dir/__/__/mesh/serial/src/serial_uart.c.obj
                0x00024ea8                serial_uart_receive_set
 .text.do_transmit
                0x00024eb4       0x44 examples/serial/CMakeFiles/serial_nrf52832_xxAA_s132_3.1.0.dir/__/__/mesh/serial/src/serial_bearer.c.obj
 .text.char_tx  0x00024ef8       0x84 examples/serial/CMakeFiles/serial_nrf52832_xxAA_s132_3.1.0.dir/__/__/mesh/serial/src/serial_bearer.c.obj
 .text.serial_bearer_init
                0x00024f7c       0x80 examples/serial/CMakeFiles/serial_nrf52832_xxAA_s132_3.1.0.dir/__/__/mesh/serial/src/serial_bearer.c.obj
                0x00024f7c                serial_bearer_init
 .text.serial_bearer_packet_buffer_get
                0x00024ffc       0x24 examples/serial/CMakeFiles/serial_nrf52832_xxAA_s132_3.1.0.dir/__/__/mesh/serial/src/serial_bearer.c.obj
                0x00024ffc                serial_bearer_packet_buffer_get
 .text.serial_bearer_blocking_buffer_get
                0x00025020       0x38 examples/serial/CMakeFiles/serial_nrf52832_xxAA_s132_3.1.0.dir/__/__/mesh/serial/src/serial_bearer.c.obj
                0x00025020                serial_bearer_blocking_buffer_get
 .text.serial_bearer_tx
                0x00025058       0x70 examples/serial/CMakeFiles/serial_nrf52832_xxAA_s132_3.1.0.dir/__/__/mesh/serial/src/serial_bearer.c.obj
                0x00025058                serial_bearer_tx
 .text.send_cmd_response.constprop.5
                0x000250c8       0x26 examples/serial/CMakeFiles/serial_nrf52832_xxAA_s132_3.1.0.dir/__/__/mesh/serial/src/serial_bearer.c.obj
 *fill*         0x000250ee        0x2 
 .text.char_rx  0x000250f0       0xc0 examples/serial/CMakeFiles/serial_nrf52832_xxAA_s132_3.1.0.dir/__/__/mesh/serial/src/serial_bearer.c.obj
 .text.serial_bearer_rx_get
                0x000251b0       0x38 examples/serial/CMakeFiles/serial_nrf52832_xxAA_s132_3.1.0.dir/__/__/mesh/serial/src/serial_bearer.c.obj
                0x000251b0                serial_bearer_rx_get
 .text.serial_handler_common_cmd_rsp_nodata_on_error
                0x000251e8       0x2a examples/serial/CMakeFiles/serial_nrf52832_xxAA_s132_3.1.0.dir/__/__/mesh/serial/src/serial_handler_common.c.obj
                0x000251e8                serial_handler_common_cmd_rsp_nodata_on_error
 .text.serial_handler_common_rx
                0x00025212       0x4a examples/serial/CMakeFiles/serial_nrf52832_xxAA_s132_3.1.0.dir/__/__/mesh/serial/src/serial_handler_common.c.obj
                0x00025212                serial_handler_common_rx
 .text.access_flash_store
                0x0002525c       0x18 examples/serial/CMakeFiles/serial_nrf52832_xxAA_s132_3.1.0.dir/__/__/mesh/serial/src/serial_handler_access.c.obj
 .text.elem_models_get
                0x00025274       0x44 examples/serial/CMakeFiles/serial_nrf52832_xxAA_s132_3.1.0.dir/__/__/mesh/serial/src/serial_handler_access.c.obj
 .text.handle_get
                0x000252b8       0x1e examples/serial/CMakeFiles/serial_nrf52832_xxAA_s132_3.1.0.dir/__/__/mesh/serial/src/serial_handler_access.c.obj
 .text.model_id_get
                0x000252d6       0x1e examples/serial/CMakeFiles/serial_nrf52832_xxAA_s132_3.1.0.dir/__/__/mesh/serial/src/serial_handler_access.c.obj
 .text.elem_vendor_model_cnt_get
                0x000252f4       0x1c examples/serial/CMakeFiles/serial_nrf52832_xxAA_s132_3.1.0.dir/__/__/mesh/serial/src/serial_handler_access.c.obj
 .text.elem_sig_model_cnt_get
                0x00025310       0x1c examples/serial/CMakeFiles/serial_nrf52832_xxAA_s132_3.1.0.dir/__/__/mesh/serial/src/serial_handler_access.c.obj
 .text.elem_loc_get
                0x0002532c       0x1c examples/serial/CMakeFiles/serial_nrf52832_xxAA_s132_3.1.0.dir/__/__/mesh/serial/src/serial_handler_access.c.obj
 .text.elem_loc_set
                0x00025348       0x22 examples/serial/CMakeFiles/serial_nrf52832_xxAA_s132_3.1.0.dir/__/__/mesh/serial/src/serial_handler_access.c.obj
 .text.model_pub_ttl_get
                0x0002536a       0x1c examples/serial/CMakeFiles/serial_nrf52832_xxAA_s132_3.1.0.dir/__/__/mesh/serial/src/serial_handler_access.c.obj
 .text.model_pub_ttl_set
                0x00025386       0x22 examples/serial/CMakeFiles/serial_nrf52832_xxAA_s132_3.1.0.dir/__/__/mesh/serial/src/serial_handler_access.c.obj
 .text.model_pub_app_get
                0x000253a8       0x1c examples/serial/CMakeFiles/serial_nrf52832_xxAA_s132_3.1.0.dir/__/__/mesh/serial/src/serial_handler_access.c.obj
 .text.model_pub_app_set
                0x000253c4       0x22 examples/serial/CMakeFiles/serial_nrf52832_xxAA_s132_3.1.0.dir/__/__/mesh/serial/src/serial_handler_access.c.obj
 .text.model_app_get
                0x000253e6       0x44 examples/serial/CMakeFiles/serial_nrf52832_xxAA_s132_3.1.0.dir/__/__/mesh/serial/src/serial_handler_access.c.obj
 .text.model_app_unbind
                0x0002542a       0x22 examples/serial/CMakeFiles/serial_nrf52832_xxAA_s132_3.1.0.dir/__/__/mesh/serial/src/serial_handler_access.c.obj
 .text.model_app_bind
                0x0002544c       0x22 examples/serial/CMakeFiles/serial_nrf52832_xxAA_s132_3.1.0.dir/__/__/mesh/serial/src/serial_handler_access.c.obj
 .text.model_subs_get
                0x0002546e       0x44 examples/serial/CMakeFiles/serial_nrf52832_xxAA_s132_3.1.0.dir/__/__/mesh/serial/src/serial_handler_access.c.obj
 .text.model_subs_remove
                0x000254b2       0x22 examples/serial/CMakeFiles/serial_nrf52832_xxAA_s132_3.1.0.dir/__/__/mesh/serial/src/serial_handler_access.c.obj
 .text.model_subs_add
                0x000254d4       0x22 examples/serial/CMakeFiles/serial_nrf52832_xxAA_s132_3.1.0.dir/__/__/mesh/serial/src/serial_handler_access.c.obj
 .text.model_pub_period_get
                0x000254f6       0x20 examples/serial/CMakeFiles/serial_nrf52832_xxAA_s132_3.1.0.dir/__/__/mesh/serial/src/serial_handler_access.c.obj
 .text.model_pub_period_set
                0x00025516       0x24 examples/serial/CMakeFiles/serial_nrf52832_xxAA_s132_3.1.0.dir/__/__/mesh/serial/src/serial_handler_access.c.obj
 .text.model_pub_addr_get
                0x0002553a       0x1c examples/serial/CMakeFiles/serial_nrf52832_xxAA_s132_3.1.0.dir/__/__/mesh/serial/src/serial_handler_access.c.obj
 .text.model_pub_addr_set
                0x00025556       0x22 examples/serial/CMakeFiles/serial_nrf52832_xxAA_s132_3.1.0.dir/__/__/mesh/serial/src/serial_handler_access.c.obj
 .text.serial_handler_access_rx
                0x00025578       0x30 examples/serial/CMakeFiles/serial_nrf52832_xxAA_s132_3.1.0.dir/__/__/mesh/serial/src/serial_handler_access.c.obj
                0x00025578                serial_handler_access_rx
 .text.serial_handler_config_rx
                0x000255a8       0xb4 examples/serial/CMakeFiles/serial_nrf52832_xxAA_s132_3.1.0.dir/__/__/mesh/serial/src/serial_handler_config.c.obj
                0x000255a8                serial_handler_config_rx
 .text.serial_handler_openmesh_rx
                0x0002565c       0x36 examples/serial/CMakeFiles/serial_nrf52832_xxAA_s132_3.1.0.dir/__/__/mesh/serial/src/serial_handler_openmesh.c.obj
                0x0002565c                serial_handler_openmesh_rx
 *fill*         0x00025692        0x2 
 .text.serial_init
                0x00025694       0x1c examples/serial/CMakeFiles/serial_nrf52832_xxAA_s132_3.1.0.dir/__/__/mesh/serial/src/serial.c.obj
                0x00025694                serial_init
 .text.serial_packet_buffer_get
                0x000256b0       0x14 examples/serial/CMakeFiles/serial_nrf52832_xxAA_s132_3.1.0.dir/__/__/mesh/serial/src/serial.c.obj
                0x000256b0                serial_packet_buffer_get
 .text.serial_tx
                0x000256c4       0x2c examples/serial/CMakeFiles/serial_nrf52832_xxAA_s132_3.1.0.dir/__/__/mesh/serial/src/serial.c.obj
                0x000256c4                serial_tx
 .text.serial_start
                0x000256f0       0xfc examples/serial/CMakeFiles/serial_nrf52832_xxAA_s132_3.1.0.dir/__/__/mesh/serial/src/serial.c.obj
                0x000256f0                serial_start
 .text.serial_process_cmd
                0x000257ec      0x124 examples/serial/CMakeFiles/serial_nrf52832_xxAA_s132_3.1.0.dir/__/__/mesh/serial/src/serial.c.obj
 .text.serial_process
                0x00025910       0x30 examples/serial/CMakeFiles/serial_nrf52832_xxAA_s132_3.1.0.dir/__/__/mesh/serial/src/serial.c.obj
                0x00025910                serial_process
 .text.serial_translate_error
                0x00025940       0x6e examples/serial/CMakeFiles/serial_nrf52832_xxAA_s132_3.1.0.dir/__/__/mesh/serial/src/serial.c.obj
                0x00025940                serial_translate_error
 *fill*         0x000259ae        0x2 
 .text.serial_state_get
                0x000259b0        0xc examples/serial/CMakeFiles/serial_nrf52832_xxAA_s132_3.1.0.dir/__/__/mesh/serial/src/serial.c.obj
                0x000259b0                serial_state_get
 .text.serial_cmd_rsp_send
                0x000259bc       0x64 examples/serial/CMakeFiles/serial_nrf52832_xxAA_s132_3.1.0.dir/__/__/mesh/serial/src/serial.c.obj
                0x000259bc                serial_cmd_rsp_send
 .text.find_context_id
                0x00025a20       0x20 examples/serial/CMakeFiles/serial_nrf52832_xxAA_s132_3.1.0.dir/__/__/mesh/serial/src/serial_handler_prov.c.obj
 .text.serial_handler_prov_evt_in
                0x00025a40      0x288 examples/serial/CMakeFiles/serial_nrf52832_xxAA_s132_3.1.0.dir/__/__/mesh/serial/src/serial_handler_prov.c.obj
 .text.serial_handler_prov_init
                0x00025cc8       0xdc examples/serial/CMakeFiles/serial_nrf52832_xxAA_s132_3.1.0.dir/__/__/mesh/serial/src/serial_handler_prov.c.obj
                0x00025cc8                serial_handler_prov_init
 .text.serial_handler_prov_pkt_in
                0x00025da4      0x230 examples/serial/CMakeFiles/serial_nrf52832_xxAA_s132_3.1.0.dir/__/__/mesh/serial/src/serial_handler_prov.c.obj
                0x00025da4                serial_handler_prov_pkt_in
 .text.serial_handler_mesh_evt_handle
                0x00025fd4      0x1d4 examples/serial/CMakeFiles/serial_nrf52832_xxAA_s132_3.1.0.dir/__/__/mesh/serial/src/serial_handler_dfu.c.obj
 .text.serial_handler_dfu_init
                0x000261a8       0x14 examples/serial/CMakeFiles/serial_nrf52832_xxAA_s132_3.1.0.dir/__/__/mesh/serial/src/serial_handler_dfu.c.obj
                0x000261a8                serial_handler_dfu_init
 .text.serial_handler_dfu_rx
                0x000261bc      0x15c examples/serial/CMakeFiles/serial_nrf52832_xxAA_s132_3.1.0.dir/__/__/mesh/serial/src/serial_handler_dfu.c.obj
                0x000261bc                serial_handler_dfu_rx
 .text.serial_handler_mesh_evt_handle
                0x00026318      0x12c examples/serial/CMakeFiles/serial_nrf52832_xxAA_s132_3.1.0.dir/__/__/mesh/serial/src/serial_handler_mesh.c.obj
 .text.handle_cmd_clear
                0x00026444       0x20 examples/serial/CMakeFiles/serial_nrf52832_xxAA_s132_3.1.0.dir/__/__/mesh/serial/src/serial_handler_mesh.c.obj
 .text.handle_cmd_packet_send
                0x00026464       0x8c examples/serial/CMakeFiles/serial_nrf52832_xxAA_s132_3.1.0.dir/__/__/mesh/serial/src/serial_handler_mesh.c.obj
 .text.handle_cmd_addr_virtual_count_max_get
                0x000264f0       0x1a examples/serial/CMakeFiles/serial_nrf52832_xxAA_s132_3.1.0.dir/__/__/mesh/serial/src/serial_handler_mesh.c.obj
 .text.handle_cmd_appkey_count_max_get
                0x0002650a        0x4 examples/serial/CMakeFiles/serial_nrf52832_xxAA_s132_3.1.0.dir/__/__/mesh/serial/src/serial_handler_mesh.c.obj
 .text.handle_cmd_addr_nonvirtual_count_max_get
                0x0002650e       0x1a examples/serial/CMakeFiles/serial_nrf52832_xxAA_s132_3.1.0.dir/__/__/mesh/serial/src/serial_handler_mesh.c.obj
 .text.handle_cmd_addr_local_unicast_get
                0x00026528       0x2c examples/serial/CMakeFiles/serial_nrf52832_xxAA_s132_3.1.0.dir/__/__/mesh/serial/src/serial_handler_mesh.c.obj
 .text.handle_cmd_devkey_count_max_get
                0x00026554       0x1a examples/serial/CMakeFiles/serial_nrf52832_xxAA_s132_3.1.0.dir/__/__/mesh/serial/src/serial_handler_mesh.c.obj
 .text.handle_cmd_subnet_count_max_get
                0x0002656e       0x1a examples/serial/CMakeFiles/serial_nrf52832_xxAA_s132_3.1.0.dir/__/__/mesh/serial/src/serial_handler_mesh.c.obj
 .text.handle_cmd_addr_get_all
                0x00026588       0x28 examples/serial/CMakeFiles/serial_nrf52832_xxAA_s132_3.1.0.dir/__/__/mesh/serial/src/serial_handler_mesh.c.obj
 .text.handle_cmd_addr_get
                0x000265b0       0x60 examples/serial/CMakeFiles/serial_nrf52832_xxAA_s132_3.1.0.dir/__/__/mesh/serial/src/serial_handler_mesh.c.obj
 .text.handle_cmd_addr_publication_remove
                0x00026610       0x26 examples/serial/CMakeFiles/serial_nrf52832_xxAA_s132_3.1.0.dir/__/__/mesh/serial/src/serial_handler_mesh.c.obj
 .text.handle_cmd_addr_publication_add_virtual
                0x00026636       0x26 examples/serial/CMakeFiles/serial_nrf52832_xxAA_s132_3.1.0.dir/__/__/mesh/serial/src/serial_handler_mesh.c.obj
 .text.handle_cmd_addr_publication_add
                0x0002665c       0x26 examples/serial/CMakeFiles/serial_nrf52832_xxAA_s132_3.1.0.dir/__/__/mesh/serial/src/serial_handler_mesh.c.obj
 .text.handle_cmd_addr_subscription_remove
                0x00026682       0x26 examples/serial/CMakeFiles/serial_nrf52832_xxAA_s132_3.1.0.dir/__/__/mesh/serial/src/serial_handler_mesh.c.obj
 .text.handle_cmd_addr_subscription_add_virtual
                0x000266a8       0x26 examples/serial/CMakeFiles/serial_nrf52832_xxAA_s132_3.1.0.dir/__/__/mesh/serial/src/serial_handler_mesh.c.obj
 .text.handle_cmd_addr_subscription_add
                0x000266ce       0x26 examples/serial/CMakeFiles/serial_nrf52832_xxAA_s132_3.1.0.dir/__/__/mesh/serial/src/serial_handler_mesh.c.obj
 .text.handle_cmd_addr_local_unicast_set
                0x000266f4       0x32 examples/serial/CMakeFiles/serial_nrf52832_xxAA_s132_3.1.0.dir/__/__/mesh/serial/src/serial_handler_mesh.c.obj
 .text.handle_cmd_devkey_delete
                0x00026726       0x26 examples/serial/CMakeFiles/serial_nrf52832_xxAA_s132_3.1.0.dir/__/__/mesh/serial/src/serial_handler_mesh.c.obj
 .text.handle_cmd_devkey_add
                0x0002674c       0x20 examples/serial/CMakeFiles/serial_nrf52832_xxAA_s132_3.1.0.dir/__/__/mesh/serial/src/serial_handler_mesh.c.obj
 .text.handle_cmd_appkey_get_all
                0x0002676c       0x36 examples/serial/CMakeFiles/serial_nrf52832_xxAA_s132_3.1.0.dir/__/__/mesh/serial/src/serial_handler_mesh.c.obj
 .text.handle_cmd_appkey_delete
                0x000267a2       0x26 examples/serial/CMakeFiles/serial_nrf52832_xxAA_s132_3.1.0.dir/__/__/mesh/serial/src/serial_handler_mesh.c.obj
 .text.handle_cmd_appkey_update
                0x000267c8       0x28 examples/serial/CMakeFiles/serial_nrf52832_xxAA_s132_3.1.0.dir/__/__/mesh/serial/src/serial_handler_mesh.c.obj
 .text.handle_cmd_appkey_add
                0x000267f0       0x2a examples/serial/CMakeFiles/serial_nrf52832_xxAA_s132_3.1.0.dir/__/__/mesh/serial/src/serial_handler_mesh.c.obj
 .text.handle_cmd_subnet_get_all
                0x0002681a       0x2e examples/serial/CMakeFiles/serial_nrf52832_xxAA_s132_3.1.0.dir/__/__/mesh/serial/src/serial_handler_mesh.c.obj
 .text.handle_cmd_subnet_delete
                0x00026848       0x26 examples/serial/CMakeFiles/serial_nrf52832_xxAA_s132_3.1.0.dir/__/__/mesh/serial/src/serial_handler_mesh.c.obj
 .text.handle_cmd_subnet_update
                0x0002686e       0x28 examples/serial/CMakeFiles/serial_nrf52832_xxAA_s132_3.1.0.dir/__/__/mesh/serial/src/serial_handler_mesh.c.obj
 .text.handle_cmd_subnet_add
                0x00026896       0x28 examples/serial/CMakeFiles/serial_nrf52832_xxAA_s132_3.1.0.dir/__/__/mesh/serial/src/serial_handler_mesh.c.obj
 .text.handle_cmd_disable
                0x000268be       0x18 examples/serial/CMakeFiles/serial_nrf52832_xxAA_s132_3.1.0.dir/__/__/mesh/serial/src/serial_handler_mesh.c.obj
 .text.handle_cmd_enable
                0x000268d6       0x18 examples/serial/CMakeFiles/serial_nrf52832_xxAA_s132_3.1.0.dir/__/__/mesh/serial/src/serial_handler_mesh.c.obj
 *fill*         0x000268ee        0x2 
 .text.serial_handler_mesh_init
                0x000268f0       0x14 examples/serial/CMakeFiles/serial_nrf52832_xxAA_s132_3.1.0.dir/__/__/mesh/serial/src/serial_handler_mesh.c.obj
                0x000268f0                serial_handler_mesh_init
 .text.serial_handler_mesh_rx
                0x00026904       0x80 examples/serial/CMakeFiles/serial_nrf52832_xxAA_s132_3.1.0.dir/__/__/mesh/serial/src/serial_handler_mesh.c.obj
                0x00026904                serial_handler_mesh_rx
 .text.registered_model_get
                0x00026984       0x20 examples/serial/CMakeFiles/serial_nrf52832_xxAA_s132_3.1.0.dir/__/__/mesh/serial/src/serial_handler_models.c.obj
 .text.model_command
                0x000269a4       0x5e examples/serial/CMakeFiles/serial_nrf52832_xxAA_s132_3.1.0.dir/__/__/mesh/serial/src/serial_handler_models.c.obj
 .text.model_init
                0x00026a02       0x3a examples/serial/CMakeFiles/serial_nrf52832_xxAA_s132_3.1.0.dir/__/__/mesh/serial/src/serial_handler_models.c.obj
 .text.models_get
                0x00026a3c       0x48 examples/serial/CMakeFiles/serial_nrf52832_xxAA_s132_3.1.0.dir/__/__/mesh/serial/src/serial_handler_models.c.obj
 .text.serial_handler_models_rx
                0x00026a84       0x30 examples/serial/CMakeFiles/serial_nrf52832_xxAA_s132_3.1.0.dir/__/__/mesh/serial/src/serial_handler_models.c.obj
                0x00026a84                serial_handler_models_rx
 .text.handle_cmd_device_beacon_params_get
                0x00026ab4       0x90 examples/serial/CMakeFiles/serial_nrf52832_xxAA_s132_3.1.0.dir/__/__/mesh/serial/src/serial_handler_device.c.obj
 .text.handle_cmd_device_fw_info_get
                0x00026b44        0xc examples/serial/CMakeFiles/serial_nrf52832_xxAA_s132_3.1.0.dir/__/__/mesh/serial/src/serial_handler_device.c.obj
 .text.handle_cmd_device_serial_version_get
                0x00026b50       0x1a examples/serial/CMakeFiles/serial_nrf52832_xxAA_s132_3.1.0.dir/__/__/mesh/serial/src/serial_handler_device.c.obj
 *fill*         0x00026b6a        0x2 
 .text.handle_cmd_device_beacon_params_set
                0x00026b6c       0x6c examples/serial/CMakeFiles/serial_nrf52832_xxAA_s132_3.1.0.dir/__/__/mesh/serial/src/serial_handler_device.c.obj
 .text.handle_cmd_device_beacon_stop
                0x00026bd8       0x44 examples/serial/CMakeFiles/serial_nrf52832_xxAA_s132_3.1.0.dir/__/__/mesh/serial/src/serial_handler_device.c.obj
 .text.handle_cmd_device_beacon_start
                0x00026c1c       0x70 examples/serial/CMakeFiles/serial_nrf52832_xxAA_s132_3.1.0.dir/__/__/mesh/serial/src/serial_handler_device.c.obj
 .text.handle_cmd_device_radio_reset
                0x00026c8c       0x1a examples/serial/CMakeFiles/serial_nrf52832_xxAA_s132_3.1.0.dir/__/__/mesh/serial/src/serial_handler_device.c.obj
 *fill*         0x00026ca6        0x2 
 .text.handle_cmd_device_internal_events_report
                0x00026ca8       0x20 examples/serial/CMakeFiles/serial_nrf52832_xxAA_s132_3.1.0.dir/__/__/mesh/serial/src/serial_handler_device.c.obj
 .text.event_report_cb
                0x00026cc8       0x58 examples/serial/CMakeFiles/serial_nrf52832_xxAA_s132_3.1.0.dir/__/__/mesh/serial/src/serial_handler_device.c.obj
 .text.handle_cmd_device_echo
                0x00026d20       0x40 examples/serial/CMakeFiles/serial_nrf52832_xxAA_s132_3.1.0.dir/__/__/mesh/serial/src/serial_handler_device.c.obj
 .text.serial_handler_device_init
                0x00026d60       0x14 examples/serial/CMakeFiles/serial_nrf52832_xxAA_s132_3.1.0.dir/__/__/mesh/serial/src/serial_handler_device.c.obj
                0x00026d60                serial_handler_device_init
 .text.serial_handler_device_rx
                0x00026d74       0x30 examples/serial/CMakeFiles/serial_nrf52832_xxAA_s132_3.1.0.dir/__/__/mesh/serial/src/serial_handler_device.c.obj
                0x00026d74                serial_handler_device_rx
 .text.nrf_mesh_serial_init
                0x00026da4       0x36 examples/serial/CMakeFiles/serial_nrf52832_xxAA_s132_3.1.0.dir/__/__/mesh/serial/src/nrf_mesh_serial.c.obj
                0x00026da4                nrf_mesh_serial_init
 .text.nrf_mesh_serial_enable
                0x00026dda        0x4 examples/serial/CMakeFiles/serial_nrf52832_xxAA_s132_3.1.0.dir/__/__/mesh/serial/src/nrf_mesh_serial.c.obj
                0x00026dda                nrf_mesh_serial_enable
 *fill*         0x00026dde        0x2 
 .text.serial_handler_app_cb_set
                0x00026de0        0xc examples/serial/CMakeFiles/serial_nrf52832_xxAA_s132_3.1.0.dir/__/__/mesh/serial/src/serial_handler_app.c.obj
                0x00026de0                serial_handler_app_cb_set
 .text.serial_handler_app_rx
                0x00026dec       0x2c examples/serial/CMakeFiles/serial_nrf52832_xxAA_s132_3.1.0.dir/__/__/mesh/serial/src/serial_handler_app.c.obj
                0x00026dec                serial_handler_app_rx
 .text._weak_handler
                0x00026e18        0x4 examples/serial/CMakeFiles/serial_nrf52832_xxAA_s132_3.1.0.dir/__/nrf_mesh_weak.c.obj
                0x00026e18                nrf_mesh_dfu_init
                0x00026e18                nrf_mesh_dfu_jump_to_bootloader
                0x00026e18                nrf_mesh_dfu_rx
                0x00026e18                nrf_mesh_dfu_bank_info_get
                0x00026e18                nrf_mesh_dfu_request
                0x00026e18                nrf_mesh_dfu_bank_flash
                0x00026e18                _weak_handler
                0x00026e18                nrf_mesh_dfu_relay
                0x00026e18                nrf_mesh_dfu_abort
                0x00026e18                mesh_flash_op_execute
                0x00026e18                nrf_mesh_dfu_state_get
 .text.errata_57
                0x00026e1c       0x34 examples/serial/CMakeFiles/serial_nrf52832_xxAA_s132_3.1.0.dir/__/__/external/nRF5_SDK_14.2.0_17b948a/components/toolchain/system_nrf52.c.obj
 .text.errata_136
                0x00026e50       0x40 examples/serial/CMakeFiles/serial_nrf52832_xxAA_s132_3.1.0.dir/__/__/external/nRF5_SDK_14.2.0_17b948a/components/toolchain/system_nrf52.c.obj
 .text.SystemInit
                0x00026e90      0x238 examples/serial/CMakeFiles/serial_nrf52832_xxAA_s132_3.1.0.dir/__/__/external/nRF5_SDK_14.2.0_17b948a/components/toolchain/system_nrf52.c.obj
                0x00026e90                SystemInit
 .text          0x000270c8       0x3c examples/serial/CMakeFiles/serial_nrf52832_xxAA_s132_3.1.0.dir/__/__/external/nRF5_SDK_14.2.0_17b948a/components/toolchain/gcc/gcc_startup_nrf52.S.obj
                0x000270c8                Reset_Handler
                0x000270f0                NMI_Handler
                0x000270f4                MemoryManagement_Handler
                0x000270f6                BusFault_Handler
                0x000270f8                UsageFault_Handler
                0x000270fa                SVC_Handler
                0x000270fc                DebugMon_Handler
                0x000270fe                PendSV_Handler
                0x00027100                SysTick_Handler
                0x00027102                POWER_CLOCK_IRQHandler
                0x00027102                RADIO_IRQHandler
                0x00027102                PDM_IRQHandler
                0x00027102                RTC0_IRQHandler
                0x00027102                TIMER3_IRQHandler
                0x00027102                FPU_IRQHandler
                0x00027102                SPIM0_SPIS0_TWIM0_TWIS0_SPI0_TWI0_IRQHandler
                0x00027102                GPIOTE_IRQHandler
                0x00027102                TEMP_IRQHandler
                0x00027102                I2S_IRQHandler
                0x00027102                SWI4_EGU4_IRQHandler
                0x00027102                TIMER0_IRQHandler
                0x00027102                PWM1_IRQHandler
                0x00027102                TIMER1_IRQHandler
                0x00027102                PWM2_IRQHandler
                0x00027102                ECB_IRQHandler
                0x00027102                SPIM1_SPIS1_TWIM1_TWIS1_SPI1_TWI1_IRQHandler
                0x00027102                Default_Handler
                0x00027102                SAADC_IRQHandler
                0x00027102                CCM_AAR_IRQHandler
                0x00027102                WDT_IRQHandler
                0x00027102                TIMER4_IRQHandler
                0x00027102                SWI5_EGU5_IRQHandler
                0x00027102                RNG_IRQHandler
                0x00027102                RTC2_IRQHandler
                0x00027102                PWM0_IRQHandler
                0x00027102                SWI3_EGU3_IRQHandler
                0x00027102                RTC1_IRQHandler
                0x00027102                SWI1_EGU1_IRQHandler
                0x00027102                SPIM2_SPIS2_SPI2_IRQHandler
                0x00027102                NFCT_IRQHandler
                0x00027102                SWI0_EGU0_IRQHandler
                0x00027102                MWU_IRQHandler
                0x00027102                TIMER2_IRQHandler
                0x00027102                COMP_LPCOMP_IRQHandler
 .text.internal_event_init
                0x00027104       0x40 mesh/core/libmesh_core_nrf52832_xxAA.a(internal_event.c.obj)
                0x00027104                internal_event_init
 .text.internal_event_push
                0x00027144       0x28 mesh/core/libmesh_core_nrf52832_xxAA.a(internal_event.c.obj)
                0x00027144                internal_event_push
 .text.nrf_mesh_configure_device_uuid_set
                0x0002716c       0x10 mesh/core/libmesh_core_nrf52832_xxAA.a(nrf_mesh_configure.c.obj)
                0x0002716c                nrf_mesh_configure_device_uuid_set
 .text.nrf_mesh_configure_device_uuid_reset
                0x0002717c       0x28 mesh/core/libmesh_core_nrf52832_xxAA.a(nrf_mesh_configure.c.obj)
                0x0002717c                nrf_mesh_configure_device_uuid_reset
 .text.nrf_mesh_configure_device_uuid_get
                0x000271a4        0x8 mesh/core/libmesh_core_nrf52832_xxAA.a(nrf_mesh_configure.c.obj)
                0x000271a4                nrf_mesh_configure_device_uuid_get
 .text.event_handle
                0x000271ac       0x30 mesh/core/libmesh_core_nrf52832_xxAA.a(event.c.obj)
                0x000271ac                event_handle
 .text.event_handler_add
                0x000271dc       0x28 mesh/core/libmesh_core_nrf52832_xxAA.a(event.c.obj)
                0x000271dc                event_handler_add
 .text.event_handler_remove
                0x00027204       0x28 mesh/core/libmesh_core_nrf52832_xxAA.a(event.c.obj)
                0x00027204                event_handler_remove
 .text.m_adjust_desired_packet_length
                0x0002722c       0x34 mesh/core/libmesh_core_nrf52832_xxAA.a(packet_buffer.c.obj)
 .text.m_index_increment.part.0
                0x00027260       0x14 mesh/core/libmesh_core_nrf52832_xxAA.a(packet_buffer.c.obj)
 .text.m_free_popped_packet
                0x00027274       0x60 mesh/core/libmesh_core_nrf52832_xxAA.a(packet_buffer.c.obj)
 .text.free_skipped_packets
                0x000272d4       0x1c mesh/core/libmesh_core_nrf52832_xxAA.a(packet_buffer.c.obj)
 .text.packet_buffer_max_packet_len_get
                0x000272f0       0x34 mesh/core/libmesh_core_nrf52832_xxAA.a(packet_buffer.c.obj)
                0x000272f0                packet_buffer_max_packet_len_get
 .text.packet_buffer_init
                0x00027324       0xe0 mesh/core/libmesh_core_nrf52832_xxAA.a(packet_buffer.c.obj)
                0x00027324                packet_buffer_init
 .text.packet_buffer_flush
                0x00027404       0x5e mesh/core/libmesh_core_nrf52832_xxAA.a(packet_buffer.c.obj)
                0x00027404                packet_buffer_flush
 *fill*         0x00027462        0x2 
 .text.packet_buffer_reserve
                0x00027464      0x11c mesh/core/libmesh_core_nrf52832_xxAA.a(packet_buffer.c.obj)
                0x00027464                packet_buffer_reserve
 .text.packet_buffer_commit
                0x00027580      0x104 mesh/core/libmesh_core_nrf52832_xxAA.a(packet_buffer.c.obj)
                0x00027580                packet_buffer_commit
 .text.packet_buffer_pop
                0x00027684       0x58 mesh/core/libmesh_core_nrf52832_xxAA.a(packet_buffer.c.obj)
                0x00027684                packet_buffer_pop
 .text.packet_buffer_can_pop
                0x000276dc       0x28 mesh/core/libmesh_core_nrf52832_xxAA.a(packet_buffer.c.obj)
                0x000276dc                packet_buffer_can_pop
 .text.packet_buffer_packets_ready_to_pop
                0x00027704       0x58 mesh/core/libmesh_core_nrf52832_xxAA.a(packet_buffer.c.obj)
                0x00027704                packet_buffer_packets_ready_to_pop
 .text.packet_buffer_free
                0x0002775c       0x8c mesh/core/libmesh_core_nrf52832_xxAA.a(packet_buffer.c.obj)
                0x0002775c                packet_buffer_free
 .text.fifo_init
                0x000277e8       0x50 mesh/core/libmesh_core_nrf52832_xxAA.a(fifo.c.obj)
                0x000277e8                fifo_init
 .text.fifo_push
                0x00027838       0x50 mesh/core/libmesh_core_nrf52832_xxAA.a(fifo.c.obj)
                0x00027838                fifo_push
 .text.fifo_pop
                0x00027888       0x52 mesh/core/libmesh_core_nrf52832_xxAA.a(fifo.c.obj)
                0x00027888                fifo_pop
 *fill*         0x000278da        0x2 
 .text.flash_mem_available
                0x000278dc       0x20 mesh/core/libmesh_core_nrf52832_xxAA.a(net_state.c.obj)
 .text.flash_store_iv_index
                0x000278fc       0x38 mesh/core/libmesh_core_nrf52832_xxAA.a(net_state.c.obj)
 .text.seqnum_block_allocate
                0x00027934       0x48 mesh/core/libmesh_core_nrf52832_xxAA.a(net_state.c.obj)
 .text.net_state_reset
                0x0002797c       0x3c mesh/core/libmesh_core_nrf52832_xxAA.a(net_state.c.obj)
                0x0002797c                net_state_reset
 .text.flash_write_complete
                0x000279b8       0x78 mesh/core/libmesh_core_nrf52832_xxAA.a(net_state.c.obj)
 .text.net_state_recover_from_flash
                0x00027a30       0x8c mesh/core/libmesh_core_nrf52832_xxAA.a(net_state.c.obj)
                0x00027a30                net_state_recover_from_flash
 .text.net_state_flash_area_get
                0x00027abc        0xc mesh/core/libmesh_core_nrf52832_xxAA.a(net_state.c.obj)
                0x00027abc                net_state_flash_area_get
 .text.init_flash_storage
                0x00027ac8       0x40 mesh/core/libmesh_core_nrf52832_xxAA.a(net_state.c.obj)
 .text.net_state_init
                0x00027b08       0x48 mesh/core/libmesh_core_nrf52832_xxAA.a(net_state.c.obj)
                0x00027b08                net_state_init
 .text.net_state_iv_update_start
                0x00027b50       0x64 mesh/core/libmesh_core_nrf52832_xxAA.a(net_state.c.obj)
                0x00027b50                net_state_iv_update_start
 .text.iv_update_trigger_if_pending
                0x00027bb4       0x8c mesh/core/libmesh_core_nrf52832_xxAA.a(net_state.c.obj)
 .text.iv_update_timer_handler
                0x00027c40       0x74 mesh/core/libmesh_core_nrf52832_xxAA.a(net_state.c.obj)
 .text.net_state_seqnum_alloc
                0x00027cb4       0x68 mesh/core/libmesh_core_nrf52832_xxAA.a(net_state.c.obj)
                0x00027cb4                net_state_seqnum_alloc
 .text.net_state_iv_index_lock
                0x00027d1c       0x48 mesh/core/libmesh_core_nrf52832_xxAA.a(net_state.c.obj)
                0x00027d1c                net_state_iv_index_lock
 .text.net_state_key_refresh_phase_changed
                0x00027d64       0x1e mesh/core/libmesh_core_nrf52832_xxAA.a(net_state.c.obj)
                0x00027d64                net_state_key_refresh_phase_changed
 *fill*         0x00027d82        0x2 
 .text.net_state_beacon_received
                0x00027d84       0x94 mesh/core/libmesh_core_nrf52832_xxAA.a(net_state.c.obj)
                0x00027d84                net_state_beacon_received
 .text.net_state_beacon_iv_index_get
                0x00027e18        0xc mesh/core/libmesh_core_nrf52832_xxAA.a(net_state.c.obj)
                0x00027e18                net_state_beacon_iv_index_get
 .text.net_state_tx_iv_index_get
                0x00027e24       0x14 mesh/core/libmesh_core_nrf52832_xxAA.a(net_state.c.obj)
                0x00027e24                net_state_tx_iv_index_get
 .text.net_state_rx_iv_index_get
                0x00027e38       0x18 mesh/core/libmesh_core_nrf52832_xxAA.a(net_state.c.obj)
                0x00027e38                net_state_rx_iv_index_get
 .text.net_state_iv_update_get
                0x00027e50        0xc mesh/core/libmesh_core_nrf52832_xxAA.a(net_state.c.obj)
                0x00027e50                net_state_iv_update_get
 .text.nrf_mesh_address_type_get
                0x00027e5c       0x10 mesh/core/libmesh_core_nrf52832_xxAA.a(nrf_mesh_utils.c.obj)
                0x00027e5c                nrf_mesh_address_type_get
 .text.sd_softdevice_is_enabled
                0x00027e6c        0x4 mesh/core/libmesh_core_nrf52832_xxAA.a(nrf_mesh.c.obj)
 .text.nrf_mesh_listen
                0x00027e70      0x138 mesh/core/libmesh_core_nrf52832_xxAA.a(nrf_mesh.c.obj)
 .text.scanner_packet_process_cb
                0x00027fa8       0x8c mesh/core/libmesh_core_nrf52832_xxAA.a(nrf_mesh.c.obj)
 .text.nrf_mesh_init
                0x00028034       0xe4 mesh/core/libmesh_core_nrf52832_xxAA.a(nrf_mesh.c.obj)
                0x00028034                nrf_mesh_init
 .text.nrf_mesh_enable
                0x00028118       0x48 mesh/core/libmesh_core_nrf52832_xxAA.a(nrf_mesh.c.obj)
                0x00028118                nrf_mesh_enable
 .text.nrf_mesh_disable
                0x00028160       0x28 mesh/core/libmesh_core_nrf52832_xxAA.a(nrf_mesh.c.obj)
                0x00028160                nrf_mesh_disable
 .text.nrf_mesh_packet_send
                0x00028188        0x4 mesh/core/libmesh_core_nrf52832_xxAA.a(nrf_mesh.c.obj)
                0x00028188                nrf_mesh_packet_send
 .text.nrf_mesh_on_ble_evt
                0x0002818c        0x4 mesh/core/libmesh_core_nrf52832_xxAA.a(nrf_mesh.c.obj)
                0x0002818c                nrf_mesh_on_ble_evt
 .text.nrf_mesh_on_sd_evt
                0x00028190        0xa mesh/core/libmesh_core_nrf52832_xxAA.a(nrf_mesh.c.obj)
                0x00028190                nrf_mesh_on_sd_evt
 .text.nrf_mesh_evt_handler_add
                0x0002819a        0x4 mesh/core/libmesh_core_nrf52832_xxAA.a(nrf_mesh.c.obj)
                0x0002819a                nrf_mesh_evt_handler_add
 .text.sd_power_reset_reason_clr
                0x0002819e        0x4 mesh/core/libmesh_core_nrf52832_xxAA.a(hal.c.obj)
 .text.sd_power_gpregret_set
                0x000281a2        0x4 mesh/core/libmesh_core_nrf52832_xxAA.a(hal.c.obj)
 *fill*         0x000281a6        0x2 
 .text.hal_device_reset
                0x000281a8       0x38 mesh/core/libmesh_core_nrf52832_xxAA.a(hal.c.obj)
                0x000281a8                hal_device_reset
 .text.hal_lfclk_ppm_get
                0x000281e0       0x14 mesh/core/libmesh_core_nrf52832_xxAA.a(hal.c.obj)
                0x000281e0                hal_lfclk_ppm_get
 .text.add_to_add_list
                0x000281f4       0x44 mesh/core/libmesh_core_nrf52832_xxAA.a(timer_scheduler.c.obj)
 .text.process_dirty_events
                0x00028238       0x6c mesh/core/libmesh_core_nrf52832_xxAA.a(timer_scheduler.c.obj)
 .text.timer_cb
                0x000282a4        0xc mesh/core/libmesh_core_nrf52832_xxAA.a(timer_scheduler.c.obj)
 .text.add_evt.constprop.0
                0x000282b0       0x68 mesh/core/libmesh_core_nrf52832_xxAA.a(timer_scheduler.c.obj)
 .text.process_add_list
                0x00028318       0x48 mesh/core/libmesh_core_nrf52832_xxAA.a(timer_scheduler.c.obj)
 .text.flag_event_cb
                0x00028360      0x100 mesh/core/libmesh_core_nrf52832_xxAA.a(timer_scheduler.c.obj)
 .text.timer_sch_init
                0x00028460       0x24 mesh/core/libmesh_core_nrf52832_xxAA.a(timer_scheduler.c.obj)
                0x00028460                timer_sch_init
 .text.timer_sch_schedule
                0x00028484       0x50 mesh/core/libmesh_core_nrf52832_xxAA.a(timer_scheduler.c.obj)
                0x00028484                timer_sch_schedule
 .text.timer_sch_abort
                0x000284d4       0x64 mesh/core/libmesh_core_nrf52832_xxAA.a(timer_scheduler.c.obj)
                0x000284d4                timer_sch_abort
 .text.timer_sch_reschedule
                0x00028538       0x70 mesh/core/libmesh_core_nrf52832_xxAA.a(timer_scheduler.c.obj)
                0x00028538                timer_sch_reschedule
 .text.timer_mut_unlock
                0x000285a8       0x10 mesh/core/libmesh_core_nrf52832_xxAA.a(timer.c.obj)
 .text.timer_order_cb
                0x000285b8       0x94 mesh/core/libmesh_core_nrf52832_xxAA.a(timer.c.obj)
                0x000285b8                timer_order_cb
 .text.timer_now
                0x0002864c       0x48 mesh/core/libmesh_core_nrf52832_xxAA.a(timer.c.obj)
                0x0002864c                timer_now
 .text.timer_event_handler
                0x00028694       0x98 mesh/core/libmesh_core_nrf52832_xxAA.a(timer.c.obj)
                0x00028694                timer_event_handler
 .text.timer_on_ts_begin
                0x0002872c       0xfc mesh/core/libmesh_core_nrf52832_xxAA.a(timer.c.obj)
                0x0002872c                timer_on_ts_begin
 .text.timer_on_ts_end
                0x00028828       0x60 mesh/core/libmesh_core_nrf52832_xxAA.a(timer.c.obj)
                0x00028828                timer_on_ts_end
 .text.timer_cb
                0x00028888       0x10 mesh/core/libmesh_core_nrf52832_xxAA.a(ticker.c.obj)
 .text.ticker_init
                0x00028898       0x3c mesh/core/libmesh_core_nrf52832_xxAA.a(ticker.c.obj)
                0x00028898                ticker_init
 .text.sd_rand_application_bytes_available_get
                0x000288d4        0x4 mesh/core/libmesh_core_nrf52832_xxAA.a(rand.c.obj)
 .text.sd_rand_application_vector_get
                0x000288d8        0x4 mesh/core/libmesh_core_nrf52832_xxAA.a(rand.c.obj)
 .text.rand_prng_get
                0x000288dc       0x22 mesh/core/libmesh_core_nrf52832_xxAA.a(rand.c.obj)
                0x000288dc                rand_prng_get
 *fill*         0x000288fe        0x2 
 .text.rand_hw_rng_get
                0x00028900       0x50 mesh/core/libmesh_core_nrf52832_xxAA.a(rand.c.obj)
                0x00028900                rand_hw_rng_get
 .text.rand_prng_seed
                0x00028950       0x34 mesh/core/libmesh_core_nrf52832_xxAA.a(rand.c.obj)
                0x00028950                rand_prng_seed
 .text.nrf_mesh_opt_set
                0x00028984       0x26 mesh/core/libmesh_core_nrf52832_xxAA.a(nrf_mesh_opt.c.obj)
                0x00028984                nrf_mesh_opt_set
 .text.nrf_mesh_opt_get
                0x000289aa       0x26 mesh/core/libmesh_core_nrf52832_xxAA.a(nrf_mesh_opt.c.obj)
                0x000289aa                nrf_mesh_opt_get
 .text.sd_radio_session_open
                0x000289d0        0x4 mesh/core/libmesh_core_nrf52832_xxAA.a(timeslot.c.obj)
 .text.sd_radio_session_close
                0x000289d4        0x4 mesh/core/libmesh_core_nrf52832_xxAA.a(timeslot.c.obj)
 .text.sd_radio_request
                0x000289d8        0x4 mesh/core/libmesh_core_nrf52832_xxAA.a(timeslot.c.obj)
 .text.end_timer_handler
                0x000289dc       0x24 mesh/core/libmesh_core_nrf52832_xxAA.a(timeslot.c.obj)
 .text.get_end_time.constprop.10
                0x00028a00       0x28 mesh/core/libmesh_core_nrf52832_xxAA.a(timeslot.c.obj)
 .text.handle_extend_end.constprop.3
                0x00028a28       0xc0 mesh/core/libmesh_core_nrf52832_xxAA.a(timeslot.c.obj)
 .text.radio_signal_callback
                0x00028ae8      0x14c mesh/core/libmesh_core_nrf52832_xxAA.a(timeslot.c.obj)
 .text.timeslot_sd_event_handler
                0x00028c34       0x44 mesh/core/libmesh_core_nrf52832_xxAA.a(timeslot.c.obj)
                0x00028c34                timeslot_sd_event_handler
 .text.timeslot_init
                0x00028c78       0x48 mesh/core/libmesh_core_nrf52832_xxAA.a(timeslot.c.obj)
                0x00028c78                timeslot_init
 .text.timeslot_start
                0x00028cc0       0x20 mesh/core/libmesh_core_nrf52832_xxAA.a(timeslot.c.obj)
                0x00028cc0                timeslot_start
 .text.timeslot_end_is_pending
                0x00028ce0       0x24 mesh/core/libmesh_core_nrf52832_xxAA.a(timeslot.c.obj)
                0x00028ce0                timeslot_end_is_pending
 .text.timeslot_start_time_get
                0x00028d04        0xc mesh/core/libmesh_core_nrf52832_xxAA.a(timeslot.c.obj)
                0x00028d04                timeslot_start_time_get
 .text.timeslot_remaining_time_get
                0x00028d10       0x20 mesh/core/libmesh_core_nrf52832_xxAA.a(timeslot.c.obj)
                0x00028d10                timeslot_remaining_time_get
 .text.timeslot_is_in_cb
                0x00028d30        0xc mesh/core/libmesh_core_nrf52832_xxAA.a(timeslot.c.obj)
                0x00028d30                timeslot_is_in_cb
 .text.timeslot_trigger
                0x00028d3c       0x24 mesh/core/libmesh_core_nrf52832_xxAA.a(timeslot.c.obj)
                0x00028d3c                timeslot_trigger
 .text.timeslot_stop
                0x00028d60       0x10 mesh/core/libmesh_core_nrf52832_xxAA.a(timeslot.c.obj)
                0x00028d60                timeslot_stop
 .text.timeslot_state_lock
                0x00028d70       0x28 mesh/core/libmesh_core_nrf52832_xxAA.a(timeslot.c.obj)
                0x00028d70                timeslot_state_lock
 .text.trigger_event_handler
                0x00028d98       0x1c mesh/core/libmesh_core_nrf52832_xxAA.a(bearer_event.c.obj)
 .text.evt_push
                0x00028db4       0x1c mesh/core/libmesh_core_nrf52832_xxAA.a(bearer_event.c.obj)
 .text.bearer_event_init
                0x00028dd0       0x48 mesh/core/libmesh_core_nrf52832_xxAA.a(bearer_event.c.obj)
                0x00028dd0                bearer_event_init
 .text.bearer_event_generic_post
                0x00028e18       0x30 mesh/core/libmesh_core_nrf52832_xxAA.a(bearer_event.c.obj)
                0x00028e18                bearer_event_generic_post
 .text.bearer_event_timer_post
                0x00028e48       0x30 mesh/core/libmesh_core_nrf52832_xxAA.a(bearer_event.c.obj)
                0x00028e48                bearer_event_timer_post
 .text.bearer_event_critical_section_begin
                0x00028e78       0x50 mesh/core/libmesh_core_nrf52832_xxAA.a(bearer_event.c.obj)
                0x00028e78                bearer_event_critical_section_begin
 .text.bearer_event_critical_section_end
                0x00028ec8       0x4c mesh/core/libmesh_core_nrf52832_xxAA.a(bearer_event.c.obj)
                0x00028ec8                bearer_event_critical_section_end
 .text.bearer_event_flag_add
                0x00028f14       0x50 mesh/core/libmesh_core_nrf52832_xxAA.a(bearer_event.c.obj)
                0x00028f14                bearer_event_flag_add
 .text.bearer_event_flag_set
                0x00028f64       0x50 mesh/core/libmesh_core_nrf52832_xxAA.a(bearer_event.c.obj)
                0x00028f64                bearer_event_flag_set
 .text.bearer_event_sequential_add
                0x00028fb4       0x44 mesh/core/libmesh_core_nrf52832_xxAA.a(bearer_event.c.obj)
                0x00028fb4                bearer_event_sequential_add
 .text.bearer_event_sequential_post
                0x00028ff8       0x58 mesh/core/libmesh_core_nrf52832_xxAA.a(bearer_event.c.obj)
                0x00028ff8                bearer_event_sequential_post
 .text.bearer_event_sequential_pending
                0x00029050       0x1c mesh/core/libmesh_core_nrf52832_xxAA.a(bearer_event.c.obj)
                0x00029050                bearer_event_sequential_pending
 .text.bearer_event_handler
                0x0002906c      0x104 mesh/core/libmesh_core_nrf52832_xxAA.a(bearer_event.c.obj)
                0x0002906c                bearer_event_handler
 .text.QDEC_IRQHandler
                0x00029170        0x4 mesh/core/libmesh_core_nrf52832_xxAA.a(bearer_event.c.obj)
                0x00029170                QDEC_IRQHandler
 .text.enc_aes_encrypt
                0x00029174        0x4 mesh/core/libmesh_core_nrf52832_xxAA.a(enc.c.obj)
                0x00029174                enc_aes_encrypt
 .text.enc_aes_cmac
                0x00029178        0x4 mesh/core/libmesh_core_nrf52832_xxAA.a(enc.c.obj)
                0x00029178                enc_aes_cmac
 .text.enc_aes_ccm_encrypt
                0x0002917c        0x4 mesh/core/libmesh_core_nrf52832_xxAA.a(enc.c.obj)
                0x0002917c                enc_aes_ccm_encrypt
 .text.enc_aes_ccm_decrypt
                0x00029180        0x4 mesh/core/libmesh_core_nrf52832_xxAA.a(enc.c.obj)
                0x00029180                enc_aes_ccm_decrypt
 .text.enc_nonce_generate
                0x00029184       0xb8 mesh/core/libmesh_core_nrf52832_xxAA.a(enc.c.obj)
                0x00029184                enc_nonce_generate
 .text.enc_s1   0x0002923c       0x38 mesh/core/libmesh_core_nrf52832_xxAA.a(enc.c.obj)
                0x0002923c                enc_s1
 .text.enc_k1   0x00029274       0x48 mesh/core/libmesh_core_nrf52832_xxAA.a(enc.c.obj)
                0x00029274                enc_k1
 .text.enc_k2   0x000292bc       0xd8 mesh/core/libmesh_core_nrf52832_xxAA.a(enc.c.obj)
                0x000292bc                enc_k2
 .text.enc_k3   0x00029394       0x68 mesh/core/libmesh_core_nrf52832_xxAA.a(enc.c.obj)
                0x00029394                enc_k3
 .text.enc_k4   0x000293fc       0x60 mesh/core/libmesh_core_nrf52832_xxAA.a(enc.c.obj)
                0x000293fc                enc_k4
 .text.header_transfuscate
                0x0002945c       0x54 mesh/core/libmesh_core_nrf52832_xxAA.a(network.c.obj)
 .text.allocate_packet
                0x000294b0      0x14c mesh/core/libmesh_core_nrf52832_xxAA.a(network.c.obj)
 .text.network_init
                0x000295fc       0x2c mesh/core/libmesh_core_nrf52832_xxAA.a(network.c.obj)
                0x000295fc                network_init
 .text.network_opt_set
                0x00029628       0x68 mesh/core/libmesh_core_nrf52832_xxAA.a(network.c.obj)
                0x00029628                network_opt_set
 .text.network_opt_get
                0x00029690       0x4c mesh/core/libmesh_core_nrf52832_xxAA.a(network.c.obj)
                0x00029690                network_opt_get
 .text.network_packet_alloc
                0x000296dc       0x50 mesh/core/libmesh_core_nrf52832_xxAA.a(network.c.obj)
                0x000296dc                network_packet_alloc
 .text.network_packet_send
                0x0002972c      0x140 mesh/core/libmesh_core_nrf52832_xxAA.a(network.c.obj)
                0x0002972c                network_packet_send
 .text.network_packet_in
                0x0002986c      0x460 mesh/core/libmesh_core_nrf52832_xxAA.a(network.c.obj)
                0x0002986c                network_packet_in
 .text.nrf_mesh_keygen_aid
                0x00029ccc       0x12 mesh/core/libmesh_core_nrf52832_xxAA.a(nrf_mesh_keygen.c.obj)
                0x00029ccc                nrf_mesh_keygen_aid
 .text.nrf_mesh_keygen_network_secmat
                0x00029cde       0x20 mesh/core/libmesh_core_nrf52832_xxAA.a(nrf_mesh_keygen.c.obj)
                0x00029cde                nrf_mesh_keygen_network_secmat
 *fill*         0x00029cfe        0x2 
 .text.nrf_mesh_keygen_beacon_secmat
                0x00029d00       0x50 mesh/core/libmesh_core_nrf52832_xxAA.a(nrf_mesh_keygen.c.obj)
                0x00029d00                nrf_mesh_keygen_beacon_secmat
 .text.nrf_mesh_keygen_virtual_address
                0x00029d50       0x50 mesh/core/libmesh_core_nrf52832_xxAA.a(nrf_mesh_keygen.c.obj)
                0x00029d50                nrf_mesh_keygen_virtual_address
 .text.list_insert
                0x00029da0       0x28 mesh/core/libmesh_core_nrf52832_xxAA.a(list.c.obj)
 .text.list_add
                0x00029dc8       0x60 mesh/core/libmesh_core_nrf52832_xxAA.a(list.c.obj)
                0x00029dc8                list_add
 .text.list_remove
                0x00029e28       0x48 mesh/core/libmesh_core_nrf52832_xxAA.a(list.c.obj)
                0x00029e28                list_remove
 .text.list_compare_add
                0x00029e70       0x80 mesh/core/libmesh_core_nrf52832_xxAA.a(list.c.obj)
                0x00029e70                list_compare_add
 .text.log_callback_rtt
                0x00029ef0       0x2c mesh/core/libmesh_core_nrf52832_xxAA.a(log.c.obj)
                0x00029ef0                log_callback_rtt
 .text.log_init
                0x00029f1c       0x1c mesh/core/libmesh_core_nrf52832_xxAA.a(log.c.obj)
                0x00029f1c                log_init
 .text.log_vprintf
                0x00029f38       0x18 mesh/core/libmesh_core_nrf52832_xxAA.a(log.c.obj)
                0x00029f38                log_vprintf
 .text.log_printf
                0x00029f50       0x18 mesh/core/libmesh_core_nrf52832_xxAA.a(log.c.obj)
                0x00029f50                log_printf
 .text.get_area_end
                0x00029f68        0xc mesh/core/libmesh_core_nrf52832_xxAA.a(flash_manager.c.obj)
 .text.handle_matches_filter
                0x00029f74       0x26 mesh/core/libmesh_core_nrf52832_xxAA.a(flash_manager.c.obj)
 *fill*         0x00029f9a        0x2 
 .text.get_packet_buffer
                0x00029f9c       0x2c mesh/core/libmesh_core_nrf52832_xxAA.a(flash_manager.c.obj)
 .text.get_entry_action
                0x00029fc8       0x30 mesh/core/libmesh_core_nrf52832_xxAA.a(flash_manager.c.obj)
 .text.flash_area_is_blank
                0x00029ff8       0x48 mesh/core/libmesh_core_nrf52832_xxAA.a(flash_manager.c.obj)
 .text.flash    0x0002a040       0x1c mesh/core/libmesh_core_nrf52832_xxAA.a(flash_manager.c.obj)
 .text.free_packet_buffer
                0x0002a05c       0x54 mesh/core/libmesh_core_nrf52832_xxAA.a(flash_manager.c.obj)
 .text.reserve_action_buffer
                0x0002a0b0       0x24 mesh/core/libmesh_core_nrf52832_xxAA.a(flash_manager.c.obj)
 .text.commit_action_buffer
                0x0002a0d4       0x18 mesh/core/libmesh_core_nrf52832_xxAA.a(flash_manager.c.obj)
 .text.schedule_processing
                0x0002a0ec        0xc mesh/core/libmesh_core_nrf52832_xxAA.a(flash_manager.c.obj)
 .text.get_next_entry
                0x0002a0f8       0x40 mesh/core/libmesh_core_nrf52832_xxAA.a(flash_manager.c.obj)
 .text.get_last_entry.isra.1
                0x0002a138       0x30 mesh/core/libmesh_core_nrf52832_xxAA.a(flash_manager.c.obj)
 .text.process_action_queue
                0x0002a168      0x4e4 mesh/core/libmesh_core_nrf52832_xxAA.a(flash_manager.c.obj)
 .text.flash_op_ended_callback
                0x0002a64c       0x24 mesh/core/libmesh_core_nrf52832_xxAA.a(flash_manager.c.obj)
 .text.flash_manager_init
                0x0002a670       0x68 mesh/core/libmesh_core_nrf52832_xxAA.a(flash_manager.c.obj)
                0x0002a670                flash_manager_init
 .text.flash_manager_remove
                0x0002a6d8       0x24 mesh/core/libmesh_core_nrf52832_xxAA.a(flash_manager.c.obj)
                0x0002a6d8                flash_manager_remove
 .text.flash_manager_entry_next_get
                0x0002a6fc       0x6c mesh/core/libmesh_core_nrf52832_xxAA.a(flash_manager.c.obj)
                0x0002a6fc                flash_manager_entry_next_get
 .text.flash_manager_entry_alloc
                0x0002a768       0x78 mesh/core/libmesh_core_nrf52832_xxAA.a(flash_manager.c.obj)
                0x0002a768                flash_manager_entry_alloc
 .text.flash_manager_entry_commit
                0x0002a7e0       0x12 mesh/core/libmesh_core_nrf52832_xxAA.a(flash_manager.c.obj)
                0x0002a7e0                flash_manager_entry_commit
 *fill*         0x0002a7f2        0x2 
 .text.flash_manager_entry_invalidate
                0x0002a7f4       0x64 mesh/core/libmesh_core_nrf52832_xxAA.a(flash_manager.c.obj)
                0x0002a7f4                flash_manager_entry_invalidate
 .text.flash_manager_add
                0x0002a858      0x248 mesh/core/libmesh_core_nrf52832_xxAA.a(flash_manager.c.obj)
                0x0002a858                flash_manager_add
 .text.flash_manager_mem_listener_register
                0x0002aaa0       0x44 mesh/core/libmesh_core_nrf52832_xxAA.a(flash_manager.c.obj)
                0x0002aaa0                flash_manager_mem_listener_register
 .text.flash_manager_is_stable
                0x0002aae4       0x24 mesh/core/libmesh_core_nrf52832_xxAA.a(flash_manager.c.obj)
                0x0002aae4                flash_manager_is_stable
 .text.flash_manager_on_defrag_end
                0x0002ab08       0x58 mesh/core/libmesh_core_nrf52832_xxAA.a(flash_manager.c.obj)
                0x0002ab08                flash_manager_on_defrag_end
 .text.flash_manager_recovery_page_get
                0x0002ab60        0x4 mesh/core/libmesh_core_nrf52832_xxAA.a(flash_manager.c.obj)
                0x0002ab60                flash_manager_recovery_page_get
 .text.utils_xor
                0x0002ab64       0x14 mesh/core/libmesh_core_nrf52832_xxAA.a(ccm_soft.c.obj)
 .text.ccm_soft_authenticate_blocks
                0x0002ab78       0x68 mesh/core/libmesh_core_nrf52832_xxAA.a(ccm_soft.c.obj)
 .text.utils_reverse_memcpy.constprop.0
                0x0002abe0        0xa mesh/core/libmesh_core_nrf52832_xxAA.a(ccm_soft.c.obj)
 .text.ccm_soft_authenticate
                0x0002abea       0xa0 mesh/core/libmesh_core_nrf52832_xxAA.a(ccm_soft.c.obj)
 .text.ccm_soft_crypt
                0x0002ac8a       0x6c mesh/core/libmesh_core_nrf52832_xxAA.a(ccm_soft.c.obj)
 .text.ccm_soft_encrypt
                0x0002acf6       0x70 mesh/core/libmesh_core_nrf52832_xxAA.a(ccm_soft.c.obj)
                0x0002acf6                ccm_soft_encrypt
 .text.ccm_soft_decrypt
                0x0002ad66       0xfe mesh/core/libmesh_core_nrf52832_xxAA.a(ccm_soft.c.obj)
                0x0002ad66                ccm_soft_decrypt
 .text.beacon_init
                0x0002ae64       0x48 mesh/core/libmesh_core_nrf52832_xxAA.a(beacon.c.obj)
                0x0002ae64                beacon_init
 .text.beacon_create
                0x0002aeac       0x46 mesh/core/libmesh_core_nrf52832_xxAA.a(beacon.c.obj)
                0x0002aeac                beacon_create
 *fill*         0x0002aef2        0x2 
 .text.beacon_tx
                0x0002aef4       0x3c mesh/core/libmesh_core_nrf52832_xxAA.a(beacon.c.obj)
                0x0002aef4                beacon_tx
 .text.beacon_packet_in
                0x0002af30      0x160 mesh/core/libmesh_core_nrf52832_xxAA.a(beacon.c.obj)
                0x0002af30                beacon_packet_in
 .text.entry_get
                0x0002b090       0x88 mesh/core/libmesh_core_nrf52832_xxAA.a(flash_manager_internal.c.obj)
                0x0002b090                entry_get
 .text.is_power_of_two
                0x0002b118        0xe mesh/core/libmesh_core_nrf52832_xxAA.a(core_tx.c.obj)
 *fill*         0x0002b126        0x2 
 .text.bearer_if_get
                0x0002b128       0x44 mesh/core/libmesh_core_nrf52832_xxAA.a(core_tx.c.obj)
 .text.core_tx_complete_cb_set
                0x0002b16c        0xc mesh/core/libmesh_core_nrf52832_xxAA.a(core_tx.c.obj)
                0x0002b16c                core_tx_complete_cb_set
 .text.core_tx_packet_alloc
                0x0002b178       0x88 mesh/core/libmesh_core_nrf52832_xxAA.a(core_tx.c.obj)
                0x0002b178                core_tx_packet_alloc
 .text.core_tx_packet_send
                0x0002b200       0x80 mesh/core/libmesh_core_nrf52832_xxAA.a(core_tx.c.obj)
                0x0002b200                core_tx_packet_send
 .text.core_tx_packet_discard
                0x0002b280       0x80 mesh/core/libmesh_core_nrf52832_xxAA.a(core_tx.c.obj)
                0x0002b280                core_tx_packet_discard
 .text.core_tx_complete
                0x0002b300       0x10 mesh/core/libmesh_core_nrf52832_xxAA.a(core_tx.c.obj)
                0x0002b300                core_tx_complete
 .text.core_tx_bearer_register
                0x0002b310       0x84 mesh/core/libmesh_core_nrf52832_xxAA.a(core_tx.c.obj)
                0x0002b310                core_tx_bearer_register
 .text.heartbeat_subscription_timer_cb
                0x0002b394       0x1c mesh/core/libmesh_core_nrf52832_xxAA.a(heartbeat.c.obj)
 .text.heartbeat_opcode_handle
                0x0002b3b0       0x78 mesh/core/libmesh_core_nrf52832_xxAA.a(heartbeat.c.obj)
 .text.heartbeat_send
                0x0002b428       0xd0 mesh/core/libmesh_core_nrf52832_xxAA.a(heartbeat.c.obj)
 .text.heartbeat_core_evt_cb
                0x0002b4f8       0x90 mesh/core/libmesh_core_nrf52832_xxAA.a(heartbeat.c.obj)
 .text.heartbeat_publication_timer_cb
                0x0002b588       0xc8 mesh/core/libmesh_core_nrf52832_xxAA.a(heartbeat.c.obj)
 .text.heartbeat_on_feature_change_trigger
                0x0002b650       0x50 mesh/core/libmesh_core_nrf52832_xxAA.a(heartbeat.c.obj)
                0x0002b650                heartbeat_on_feature_change_trigger
 .text.heartbeat_init
                0x0002b6a0       0x8c mesh/core/libmesh_core_nrf52832_xxAA.a(heartbeat.c.obj)
                0x0002b6a0                heartbeat_init
 .text.make_network_beacon_cmac
                0x0002b72c       0x22 mesh/core/libmesh_core_nrf52832_xxAA.a(net_beacon.c.obj)
 *fill*         0x0002b74e        0x2 
 .text.network_beacon_tx_cb
                0x0002b750       0xe8 mesh/core/libmesh_core_nrf52832_xxAA.a(net_beacon.c.obj)
 .text.net_beacon_init
                0x0002b838       0x60 mesh/core/libmesh_core_nrf52832_xxAA.a(net_beacon.c.obj)
                0x0002b838                net_beacon_init
 .text.net_beacon_packet_in
                0x0002b898      0x104 mesh/core/libmesh_core_nrf52832_xxAA.a(net_beacon.c.obj)
                0x0002b898                net_beacon_packet_in
 .text.packet_discard
                0x0002b99c       0x14 mesh/core/libmesh_core_nrf52832_xxAA.a(core_tx_adv.c.obj)
 .text.packet_send
                0x0002b9b0       0x14 mesh/core/libmesh_core_nrf52832_xxAA.a(core_tx_adv.c.obj)
 .text.packet_alloc
                0x0002b9c4       0x3c mesh/core/libmesh_core_nrf52832_xxAA.a(core_tx_adv.c.obj)
 .text.adv_tx_complete_callback
                0x0002ba00       0x30 mesh/core/libmesh_core_nrf52832_xxAA.a(core_tx_adv.c.obj)
 .text.core_tx_adv_init
                0x0002ba30       0x58 mesh/core/libmesh_core_nrf52832_xxAA.a(core_tx_adv.c.obj)
                0x0002ba30                core_tx_adv_init
 .text.core_tx_adv_count_set
                0x0002ba88       0x38 mesh/core/libmesh_core_nrf52832_xxAA.a(core_tx_adv.c.obj)
                0x0002ba88                core_tx_adv_count_set
 .text.core_tx_adv_count_get
                0x0002bac0       0x28 mesh/core/libmesh_core_nrf52832_xxAA.a(core_tx_adv.c.obj)
                0x0002bac0                core_tx_adv_count_get
 .text.core_tx_adv_interval_set
                0x0002bae8       0x34 mesh/core/libmesh_core_nrf52832_xxAA.a(core_tx_adv.c.obj)
                0x0002bae8                core_tx_adv_interval_set
 .text.core_tx_adv_interval_get
                0x0002bb1c       0x34 mesh/core/libmesh_core_nrf52832_xxAA.a(core_tx_adv.c.obj)
                0x0002bb1c                core_tx_adv_interval_get
 .text.ad_listener_subscribe
                0x0002bb50       0x5c mesh/core/libmesh_core_nrf52832_xxAA.a(ad_listener.c.obj)
                0x0002bb50                ad_listener_subscribe
 .text.ad_listener_process
                0x0002bbac       0x64 mesh/core/libmesh_core_nrf52832_xxAA.a(ad_listener.c.obj)
                0x0002bbac                ad_listener_process
 .text.adtype_filter_handle
                0x0002bc10       0x64 mesh/core/libmesh_core_nrf52832_xxAA.a(ad_type_filter.c.obj)
 .text.bearer_adtype_filtering_set
                0x0002bc74       0x1c mesh/core/libmesh_core_nrf52832_xxAA.a(ad_type_filter.c.obj)
                0x0002bc74                bearer_adtype_filtering_set
 .text.bearer_adtype_add
                0x0002bc90       0x20 mesh/core/libmesh_core_nrf52832_xxAA.a(ad_type_filter.c.obj)
                0x0002bc90                bearer_adtype_add
 .text.bearer_adtype_mode_set
                0x0002bcb0       0x24 mesh/core/libmesh_core_nrf52832_xxAA.a(ad_type_filter.c.obj)
                0x0002bcb0                bearer_adtype_mode_set
 .text.set_gap_addr_type
                0x0002bcd4       0x34 mesh/core/libmesh_core_nrf52832_xxAA.a(advertiser.c.obj)
 .text.tx_complete_event_callback
                0x0002bd08       0x3c mesh/core/libmesh_core_nrf52832_xxAA.a(advertiser.c.obj)
 .text.broadcast_complete_cb
                0x0002bd44       0x64 mesh/core/libmesh_core_nrf52832_xxAA.a(advertiser.c.obj)
 .text.schedule_first_time
                0x0002bda8       0x28 mesh/core/libmesh_core_nrf52832_xxAA.a(advertiser.c.obj)
 .text.timeout_event
                0x0002bdd0      0x130 mesh/core/libmesh_core_nrf52832_xxAA.a(advertiser.c.obj)
 .text.advertiser_init
                0x0002bf00        0xc mesh/core/libmesh_core_nrf52832_xxAA.a(advertiser.c.obj)
                0x0002bf00                advertiser_init
 .text.advertiser_enable
                0x0002bf0c       0x2a mesh/core/libmesh_core_nrf52832_xxAA.a(advertiser.c.obj)
                0x0002bf0c                advertiser_enable
 .text.advertiser_disable
                0x0002bf36        0xa mesh/core/libmesh_core_nrf52832_xxAA.a(advertiser.c.obj)
                0x0002bf36                advertiser_disable
 .text.advertiser_packet_alloc
                0x0002bf40       0x94 mesh/core/libmesh_core_nrf52832_xxAA.a(advertiser.c.obj)
                0x0002bf40                advertiser_packet_alloc
 .text.advertiser_packet_send
                0x0002bfd4       0x78 mesh/core/libmesh_core_nrf52832_xxAA.a(advertiser.c.obj)
                0x0002bfd4                advertiser_packet_send
 .text.advertiser_packet_discard
                0x0002c04c       0x2c mesh/core/libmesh_core_nrf52832_xxAA.a(advertiser.c.obj)
                0x0002c04c                advertiser_packet_discard
 .text.advertiser_channels_set
                0x0002c078       0x84 mesh/core/libmesh_core_nrf52832_xxAA.a(advertiser.c.obj)
                0x0002c078                advertiser_channels_set
 .text.advertiser_interval_set
                0x0002c0fc       0x68 mesh/core/libmesh_core_nrf52832_xxAA.a(advertiser.c.obj)
                0x0002c0fc                advertiser_interval_set
 .text.advertiser_flush
                0x0002c164       0x1e mesh/core/libmesh_core_nrf52832_xxAA.a(advertiser.c.obj)
                0x0002c164                advertiser_flush
 *fill*         0x0002c182        0x2 
 .text.advertiser_address_default_get
                0x0002c184       0x38 mesh/core/libmesh_core_nrf52832_xxAA.a(advertiser.c.obj)
                0x0002c184                advertiser_address_default_get
 .text.advertiser_instance_init
                0x0002c1bc       0xbc mesh/core/libmesh_core_nrf52832_xxAA.a(advertiser.c.obj)
                0x0002c1bc                advertiser_instance_init
 .text.action_switch
                0x0002c278       0xc0 mesh/core/libmesh_core_nrf52832_xxAA.a(bearer_handler.c.obj)
 .text.bearer_handler_init
                0x0002c338       0x2c mesh/core/libmesh_core_nrf52832_xxAA.a(bearer_handler.c.obj)
                0x0002c338                bearer_handler_init
 .text.bearer_handler_start
                0x0002c364       0x1c mesh/core/libmesh_core_nrf52832_xxAA.a(bearer_handler.c.obj)
                0x0002c364                bearer_handler_start
 .text.bearer_handler_stop
                0x0002c380       0x20 mesh/core/libmesh_core_nrf52832_xxAA.a(bearer_handler.c.obj)
                0x0002c380                bearer_handler_stop
 .text.bearer_handler_action_enqueue
                0x0002c3a0       0x94 mesh/core/libmesh_core_nrf52832_xxAA.a(bearer_handler.c.obj)
                0x0002c3a0                bearer_handler_action_enqueue
 .text.bearer_handler_action_end
                0x0002c434       0x78 mesh/core/libmesh_core_nrf52832_xxAA.a(bearer_handler.c.obj)
                0x0002c434                bearer_handler_action_end
 .text.bearer_handler_radio_irq_handler
                0x0002c4ac       0x64 mesh/core/libmesh_core_nrf52832_xxAA.a(bearer_handler.c.obj)
                0x0002c4ac                bearer_handler_radio_irq_handler
 .text.bearer_handler_timer_irq_handler
                0x0002c510       0x30 mesh/core/libmesh_core_nrf52832_xxAA.a(bearer_handler.c.obj)
                0x0002c510                bearer_handler_timer_irq_handler
 .text.bearer_handler_on_ts_begin
                0x0002c540       0x44 mesh/core/libmesh_core_nrf52832_xxAA.a(bearer_handler.c.obj)
                0x0002c540                bearer_handler_on_ts_begin
 .text.bearer_handler_on_ts_end
                0x0002c584       0x48 mesh/core/libmesh_core_nrf52832_xxAA.a(bearer_handler.c.obj)
                0x0002c584                bearer_handler_on_ts_end
 .text.radio_irq_handler
                0x0002c5cc       0xb0 mesh/core/libmesh_core_nrf52832_xxAA.a(broadcast.c.obj)
 .text.broadcast_start
                0x0002c67c       0x8c mesh/core/libmesh_core_nrf52832_xxAA.a(broadcast.c.obj)
 .text.broadcast_send
                0x0002c708       0x80 mesh/core/libmesh_core_nrf52832_xxAA.a(broadcast.c.obj)
                0x0002c708                broadcast_send
 .text.fen_filter_start
                0x0002c788       0x3c mesh/core/libmesh_core_nrf52832_xxAA.a(filter_engine.c.obj)
                0x0002c788                fen_filter_start
 .text.fen_filter_stop
                0x0002c7c4       0x2c mesh/core/libmesh_core_nrf52832_xxAA.a(filter_engine.c.obj)
                0x0002c7c4                fen_filter_stop
 .text.fen_filters_apply
                0x0002c7f0       0x34 mesh/core/libmesh_core_nrf52832_xxAA.a(filter_engine.c.obj)
                0x0002c7f0                fen_filters_apply
 .text.radio_config_reset
                0x0002c824       0x34 mesh/core/libmesh_core_nrf52832_xxAA.a(radio_config.c.obj)
                0x0002c824                radio_config_reset
 .text.radio_config_channel_set
                0x0002c858       0x34 mesh/core/libmesh_core_nrf52832_xxAA.a(radio_config.c.obj)
                0x0002c858                radio_config_channel_set
 .text.radio_config_config
                0x0002c88c       0xa4 mesh/core/libmesh_core_nrf52832_xxAA.a(radio_config.c.obj)
                0x0002c88c                radio_config_config
 .text.radio_config_access_addr_set
                0x0002c930       0x68 mesh/core/libmesh_core_nrf52832_xxAA.a(radio_config.c.obj)
                0x0002c930                radio_config_access_addr_set
 .text.radio_trigger
                0x0002c998       0x24 mesh/core/libmesh_core_nrf52832_xxAA.a(scanner.c.obj)
 .text.scan_window_end
                0x0002c9bc       0x10 mesh/core/libmesh_core_nrf52832_xxAA.a(scanner.c.obj)
 .text.scan_window_start
                0x0002c9cc       0x24 mesh/core/libmesh_core_nrf52832_xxAA.a(scanner.c.obj)
 .text.radio_configure
                0x0002c9f0       0x78 mesh/core/libmesh_core_nrf52832_xxAA.a(scanner.c.obj)
 .text.radio_set_packet
                0x0002ca68       0x50 mesh/core/libmesh_core_nrf52832_xxAA.a(scanner.c.obj)
 .text.radio_start
                0x0002cab8       0x4c mesh/core/libmesh_core_nrf52832_xxAA.a(scanner.c.obj)
 .text.radio_stop
                0x0002cb04       0x30 mesh/core/libmesh_core_nrf52832_xxAA.a(scanner.c.obj)
 .text.schedule_timers
                0x0002cb34       0x38 mesh/core/libmesh_core_nrf52832_xxAA.a(scanner.c.obj)
 .text.scanner_radio_start
                0x0002cb6c       0x28 mesh/core/libmesh_core_nrf52832_xxAA.a(scanner.c.obj)
                0x0002cb6c                scanner_radio_start
 .text.scanner_radio_stop
                0x0002cb94       0x10 mesh/core/libmesh_core_nrf52832_xxAA.a(scanner.c.obj)
                0x0002cb94                scanner_radio_stop
 .text.scanner_radio_irq_handler
                0x0002cba4      0x13c mesh/core/libmesh_core_nrf52832_xxAA.a(scanner.c.obj)
                0x0002cba4                scanner_radio_irq_handler
 .text.scanner_enable
                0x0002cce0       0x30 mesh/core/libmesh_core_nrf52832_xxAA.a(scanner.c.obj)
                0x0002cce0                scanner_enable
 .text.scanner_disable
                0x0002cd10       0x48 mesh/core/libmesh_core_nrf52832_xxAA.a(scanner.c.obj)
                0x0002cd10                scanner_disable
 .text.scanner_packet_release
                0x0002cd58       0x38 mesh/core/libmesh_core_nrf52832_xxAA.a(scanner.c.obj)
                0x0002cd58                scanner_packet_release
 .text.scanner_rx
                0x0002cd90       0x30 mesh/core/libmesh_core_nrf52832_xxAA.a(scanner.c.obj)
                0x0002cd90                scanner_rx
 .text.scanner_rx_pending
                0x0002cdc0        0xc mesh/core/libmesh_core_nrf52832_xxAA.a(scanner.c.obj)
                0x0002cdc0                scanner_rx_pending
 .text.scanner_config_scan_time_set
                0x0002cdcc       0x68 mesh/core/libmesh_core_nrf52832_xxAA.a(scanner.c.obj)
                0x0002cdcc                scanner_config_scan_time_set
 .text.scanner_config_channels_set
                0x0002ce34       0x64 mesh/core/libmesh_core_nrf52832_xxAA.a(scanner.c.obj)
                0x0002ce34                scanner_config_channels_set
 .text.scanner_config_access_addresses_set
                0x0002ce98       0x44 mesh/core/libmesh_core_nrf52832_xxAA.a(scanner.c.obj)
                0x0002ce98                scanner_config_access_addresses_set
 .text.scanner_config_reset
                0x0002cedc       0x50 mesh/core/libmesh_core_nrf52832_xxAA.a(scanner.c.obj)
                0x0002cedc                scanner_config_reset
 .text.scanner_init
                0x0002cf2c       0x54 mesh/core/libmesh_core_nrf52832_xxAA.a(scanner.c.obj)
                0x0002cf2c                scanner_init
 .text.sd_ecb_block_encrypt
                0x0002cf80        0x4 mesh/core/libmesh_core_nrf52832_xxAA.a(aes.c.obj)
 .text.aes_encrypt
                0x0002cf84       0x32 mesh/core/libmesh_core_nrf52832_xxAA.a(aes.c.obj)
                0x0002cf84                aes_encrypt
 *fill*         0x0002cfb6        0x2 
 .text.msg_cache_init
                0x0002cfb8       0x24 mesh/core/libmesh_core_nrf52832_xxAA.a(msg_cache.c.obj)
                0x0002cfb8                msg_cache_init
 .text.msg_cache_entry_exists
                0x0002cfdc       0x3c mesh/core/libmesh_core_nrf52832_xxAA.a(msg_cache.c.obj)
                0x0002cfdc                msg_cache_entry_exists
 .text.msg_cache_entry_add
                0x0002d018       0x2c mesh/core/libmesh_core_nrf52832_xxAA.a(msg_cache.c.obj)
                0x0002d018                msg_cache_entry_add
 .text.block_ack_full
                0x0002d044       0x28 mesh/core/libmesh_core_nrf52832_xxAA.a(transport.c.obj)
 .text.seqauth_sequence_number_get
                0x0002d06c       0x12 mesh/core/libmesh_core_nrf52832_xxAA.a(transport.c.obj)
 *fill*         0x0002d07e        0x2 
 .text.sar_rx_session_mark_as_handled
                0x0002d080       0x54 mesh/core/libmesh_core_nrf52832_xxAA.a(transport.c.obj)
 .text.sar_ctx_find
                0x0002d0d4       0x3c mesh/core/libmesh_core_nrf52832_xxAA.a(transport.c.obj)
 .text.control_packet_callback_get
                0x0002d110       0x44 mesh/core/libmesh_core_nrf52832_xxAA.a(transport.c.obj)
 .text.m_send_sar_cancel_event
                0x0002d154       0x28 mesh/core/libmesh_core_nrf52832_xxAA.a(transport.c.obj)
 .text.tx_complete
                0x0002d17c       0x34 mesh/core/libmesh_core_nrf52832_xxAA.a(transport.c.obj)
 .text.upper_trs_packet_encrypt
                0x0002d1b0       0xbc mesh/core/libmesh_core_nrf52832_xxAA.a(transport.c.obj)
 .text.sar_ctx_free
                0x0002d26c       0x3c mesh/core/libmesh_core_nrf52832_xxAA.a(transport.c.obj)
 .text.sar_ctx_tx_complete
                0x0002d2a8       0xb8 mesh/core/libmesh_core_nrf52832_xxAA.a(transport.c.obj)
 .text.sar_ctx_cancel
                0x0002d360      0x108 mesh/core/libmesh_core_nrf52832_xxAA.a(transport.c.obj)
 .text.abort_timeout
                0x0002d468        0x8 mesh/core/libmesh_core_nrf52832_xxAA.a(transport.c.obj)
 .text.sar_ctx_alloc
                0x0002d470       0xbc mesh/core/libmesh_core_nrf52832_xxAA.a(transport.c.obj)
 .text.test_transport_decrypt
                0x0002d52c       0x88 mesh/core/libmesh_core_nrf52832_xxAA.a(transport.c.obj)
 .text.upper_transport_access_packet_in
                0x0002d5b4      0x28c mesh/core/libmesh_core_nrf52832_xxAA.a(transport.c.obj)
 .text.trs_packet_header_build
                0x0002d840       0xa6 mesh/core/libmesh_core_nrf52832_xxAA.a(transport.c.obj)
 *fill*         0x0002d8e6        0x2 
 .text.tx_retry_timer_reset
                0x0002d8e8       0x50 mesh/core/libmesh_core_nrf52832_xxAA.a(transport.c.obj)
 .text.trs_sar_packet_out
                0x0002d938       0xec mesh/core/libmesh_core_nrf52832_xxAA.a(transport.c.obj)
 .text.retry_timeout
                0x0002da24       0x54 mesh/core/libmesh_core_nrf52832_xxAA.a(transport.c.obj)
 .text.upper_transport_packet_in
                0x0002da78      0x1b0 mesh/core/libmesh_core_nrf52832_xxAA.a(transport.c.obj)
 .text.upper_transport_tx
                0x0002dc28      0x230 mesh/core/libmesh_core_nrf52832_xxAA.a(transport.c.obj)
 .text.transport_sar_mem_funcs_reset
                0x0002de58       0x28 mesh/core/libmesh_core_nrf52832_xxAA.a(transport.c.obj)
                0x0002de58                transport_sar_mem_funcs_reset
 .text.transport_init
                0x0002de80       0x7c mesh/core/libmesh_core_nrf52832_xxAA.a(transport.c.obj)
                0x0002de80                transport_init
 .text.transport_tx
                0x0002defc       0xa4 mesh/core/libmesh_core_nrf52832_xxAA.a(transport.c.obj)
                0x0002defc                transport_tx
 .text.transport_control_tx
                0x0002dfa0       0x8e mesh/core/libmesh_core_nrf52832_xxAA.a(transport.c.obj)
                0x0002dfa0                transport_control_tx
 *fill*         0x0002e02e        0x2 
 .text.sar_ack_send
                0x0002e030      0x124 mesh/core/libmesh_core_nrf52832_xxAA.a(transport.c.obj)
 .text.transport_sar_process
                0x0002e154       0x74 mesh/core/libmesh_core_nrf52832_xxAA.a(transport.c.obj)
 .text.transport_packet_in
                0x0002e1c8      0x524 mesh/core/libmesh_core_nrf52832_xxAA.a(transport.c.obj)
                0x0002e1c8                transport_packet_in
 .text.ack_timeout
                0x0002e6ec       0x34 mesh/core/libmesh_core_nrf52832_xxAA.a(transport.c.obj)
 .text.transport_opt_set
                0x0002e720       0xd0 mesh/core/libmesh_core_nrf52832_xxAA.a(transport.c.obj)
                0x0002e720                transport_opt_set
 .text.transport_opt_get
                0x0002e7f0       0x68 mesh/core/libmesh_core_nrf52832_xxAA.a(transport.c.obj)
                0x0002e7f0                transport_opt_get
 .text.transport_control_packet_consumer_add
                0x0002e858       0x5c mesh/core/libmesh_core_nrf52832_xxAA.a(transport.c.obj)
                0x0002e858                transport_control_packet_consumer_add
 .text.get_last_page
                0x0002e8b4       0x14 mesh/core/libmesh_core_nrf52832_xxAA.a(flash_manager_defrag.c.obj)
 .text.defrag_on_end
                0x0002e8c8       0x1c mesh/core/libmesh_core_nrf52832_xxAA.a(flash_manager_defrag.c.obj)
 .text.execute_procedure_step
                0x0002e8e4       0xa0 mesh/core/libmesh_core_nrf52832_xxAA.a(flash_manager_defrag.c.obj)
 .text.get_next_entry
                0x0002e984       0x40 mesh/core/libmesh_core_nrf52832_xxAA.a(flash_manager_defrag.c.obj)
 .text.get_next_data_entry
                0x0002e9c4       0x20 mesh/core/libmesh_core_nrf52832_xxAA.a(flash_manager_defrag.c.obj)
 .text.on_flash_op_end
                0x0002e9e4       0x30 mesh/core/libmesh_core_nrf52832_xxAA.a(flash_manager_defrag.c.obj)
 .text.check_for_invalid_entries
                0x0002ea14       0x38 mesh/core/libmesh_core_nrf52832_xxAA.a(flash_manager_defrag.c.obj)
 .text.erase_recovery_area
                0x0002ea4c       0x34 mesh/core/libmesh_core_nrf52832_xxAA.a(flash_manager_defrag.c.obj)
 .text.flash.constprop.6
                0x0002ea80       0x24 mesh/core/libmesh_core_nrf52832_xxAA.a(flash_manager_defrag.c.obj)
 .text.seal_storage_page
                0x0002eaa4       0x50 mesh/core/libmesh_core_nrf52832_xxAA.a(flash_manager_defrag.c.obj)
 .text.invalidate_duplicate_entries
                0x0002eaf4       0x9c mesh/core/libmesh_core_nrf52832_xxAA.a(flash_manager_defrag.c.obj)
 .text.copy_metadata
                0x0002eb90       0x3c mesh/core/libmesh_core_nrf52832_xxAA.a(flash_manager_defrag.c.obj)
 .text.write_defrag_start_pointer
                0x0002ebcc       0x20 mesh/core/libmesh_core_nrf52832_xxAA.a(flash_manager_defrag.c.obj)
 .text.write_back
                0x0002ebec       0x28 mesh/core/libmesh_core_nrf52832_xxAA.a(flash_manager_defrag.c.obj)
 .text.post_process
                0x0002ec14       0x40 mesh/core/libmesh_core_nrf52832_xxAA.a(flash_manager_defrag.c.obj)
 .text.backup_entries
                0x0002ec54      0x118 mesh/core/libmesh_core_nrf52832_xxAA.a(flash_manager_defrag.c.obj)
 .text.erase_source
                0x0002ed6c       0x34 mesh/core/libmesh_core_nrf52832_xxAA.a(flash_manager_defrag.c.obj)
 .text.flash_manager_defrag_init
                0x0002eda0       0x98 mesh/core/libmesh_core_nrf52832_xxAA.a(flash_manager_defrag.c.obj)
                0x0002eda0                flash_manager_defrag_init
 .text.flash_manager_defrag_is_running
                0x0002ee38       0x10 mesh/core/libmesh_core_nrf52832_xxAA.a(flash_manager_defrag.c.obj)
                0x0002ee38                flash_manager_defrag_is_running
 .text.flash_manager_defrag
                0x0002ee48       0xd8 mesh/core/libmesh_core_nrf52832_xxAA.a(flash_manager_defrag.c.obj)
                0x0002ee48                flash_manager_defrag
 .text.flash_manager_defrag_recovery_page_get
                0x0002ef20        0xc mesh/core/libmesh_core_nrf52832_xxAA.a(flash_manager_defrag.c.obj)
                0x0002ef20                flash_manager_defrag_recovery_page_get
 .text.packet_mgr_init
                0x0002ef2c       0x4c mesh/core/libmesh_core_nrf52832_xxAA.a(packet_mgr.c.obj)
                0x0002ef2c                packet_mgr_init
 .text.send_end_events
                0x0002ef78       0x84 mesh/core/libmesh_core_nrf52832_xxAA.a(mesh_flash.c.obj)
 .text.flash_op_schedule
                0x0002effc       0x9c mesh/core/libmesh_core_nrf52832_xxAA.a(mesh_flash.c.obj)
 .text.flash_op_start
                0x0002f098      0x170 mesh/core/libmesh_core_nrf52832_xxAA.a(mesh_flash.c.obj)
 .text.mesh_flash_init
                0x0002f208       0x88 mesh/core/libmesh_core_nrf52832_xxAA.a(mesh_flash.c.obj)
                0x0002f208                mesh_flash_init
 .text.mesh_flash_user_callback_set
                0x0002f290       0x2c mesh/core/libmesh_core_nrf52832_xxAA.a(mesh_flash.c.obj)
                0x0002f290                mesh_flash_user_callback_set
 .text.mesh_flash_op_push
                0x0002f2bc      0x128 mesh/core/libmesh_core_nrf52832_xxAA.a(mesh_flash.c.obj)
                0x0002f2bc                mesh_flash_op_push
 .text.queue_init
                0x0002f3e4       0x20 mesh/core/libmesh_core_nrf52832_xxAA.a(queue.c.obj)
                0x0002f3e4                queue_init
 .text.queue_push
                0x0002f404       0x48 mesh/core/libmesh_core_nrf52832_xxAA.a(queue.c.obj)
                0x0002f404                queue_push
 .text.queue_pop
                0x0002f44c       0x34 mesh/core/libmesh_core_nrf52832_xxAA.a(queue.c.obj)
                0x0002f44c                queue_pop
 .text.queue_peek
                0x0002f480       0x1c mesh/core/libmesh_core_nrf52832_xxAA.a(queue.c.obj)
                0x0002f480                queue_peek
 .text.my_xor.constprop.1
                0x0002f49c       0x20 mesh/core/libmesh_core_nrf52832_xxAA.a(aes_cmac.c.obj)
 .text.utils_lshift.constprop.2
                0x0002f4bc       0x24 mesh/core/libmesh_core_nrf52832_xxAA.a(aes_cmac.c.obj)
 .text.aes_cmac_subkey_generate
                0x0002f4e0       0x6c mesh/core/libmesh_core_nrf52832_xxAA.a(aes_cmac.c.obj)
                0x0002f4e0                aes_cmac_subkey_generate
 .text.aes_cmac
                0x0002f54c       0xbc mesh/core/libmesh_core_nrf52832_xxAA.a(aes_cmac.c.obj)
                0x0002f54c                aes_cmac
 .text.stage_get_available
                0x0002f608       0x24 mesh/core/libmesh_core_nrf52832_xxAA.a(msqueue.c.obj)
 .text.msq_get  0x0002f62c       0x4c mesh/core/libmesh_core_nrf52832_xxAA.a(msqueue.c.obj)
                0x0002f62c                msq_get
 .text.msq_move
                0x0002f678       0x44 mesh/core/libmesh_core_nrf52832_xxAA.a(msqueue.c.obj)
                0x0002f678                msq_move
 .text.msq_reset
                0x0002f6bc       0x2c mesh/core/libmesh_core_nrf52832_xxAA.a(msqueue.c.obj)
                0x0002f6bc                msq_reset
 .text.msq_init
                0x0002f6e8       0x78 mesh/core/libmesh_core_nrf52832_xxAA.a(msqueue.c.obj)
                0x0002f6e8                msq_init
 .text.msq_available
                0x0002f760       0x3c mesh/core/libmesh_core_nrf52832_xxAA.a(msqueue.c.obj)
                0x0002f760                msq_available
 .text.replay_cache_add
                0x0002f79c       0x60 mesh/core/libmesh_core_nrf52832_xxAA.a(replay_cache.c.obj)
                0x0002f79c                replay_cache_add
 .text.replay_cache_has_room
                0x0002f7fc       0x38 mesh/core/libmesh_core_nrf52832_xxAA.a(replay_cache.c.obj)
                0x0002f7fc                replay_cache_has_room
 .text.replay_cache_has_elem
                0x0002f834       0x38 mesh/core/libmesh_core_nrf52832_xxAA.a(replay_cache.c.obj)
                0x0002f834                replay_cache_has_elem
 .text.replay_cache_clear
                0x0002f86c       0x28 mesh/core/libmesh_core_nrf52832_xxAA.a(replay_cache.c.obj)
                0x0002f86c                replay_cache_clear
 .text.replay_cache_init
                0x0002f894        0x4 mesh/core/libmesh_core_nrf52832_xxAA.a(replay_cache.c.obj)
                0x0002f894                replay_cache_init
 .text.wait_for_ready
                0x0002f898       0x10 mesh/core/libmesh_core_nrf52832_xxAA.a(nrf_flash.c.obj)
 .text.nrf_flash_erase
                0x0002f8a8       0x50 mesh/core/libmesh_core_nrf52832_xxAA.a(nrf_flash.c.obj)
                0x0002f8a8                nrf_flash_erase
 .text.nrf_flash_write
                0x0002f8f8       0x50 mesh/core/libmesh_core_nrf52832_xxAA.a(nrf_flash.c.obj)
                0x0002f8f8                nrf_flash_write
 .text.uECC_vli_mult
                0x0002f948       0x64 external/micro-ecc/libuECC_nrf52832_xxAA.a(uECC.c.obj)
 .text.uECC_vli_clear
                0x0002f9ac       0x16 external/micro-ecc/libuECC_nrf52832_xxAA.a(uECC.c.obj)
 .text.uECC_vli_isZero
                0x0002f9c2       0x1e external/micro-ecc/libuECC_nrf52832_xxAA.a(uECC.c.obj)
 .text.uECC_vli_testBit
                0x0002f9e0       0x14 external/micro-ecc/libuECC_nrf52832_xxAA.a(uECC.c.obj)
 .text.uECC_vli_numBits
                0x0002f9f4       0x3a external/micro-ecc/libuECC_nrf52832_xxAA.a(uECC.c.obj)
 .text.uECC_vli_set
                0x0002fa2e       0x18 external/micro-ecc/libuECC_nrf52832_xxAA.a(uECC.c.obj)
 .text.uECC_vli_cmp_unsafe
                0x0002fa46       0x28 external/micro-ecc/libuECC_nrf52832_xxAA.a(uECC.c.obj)
 .text.uECC_vli_rshift1
                0x0002fa6e       0x1c external/micro-ecc/libuECC_nrf52832_xxAA.a(uECC.c.obj)
 .text.uECC_vli_modMult_fast
                0x0002fa8a       0x20 external/micro-ecc/libuECC_nrf52832_xxAA.a(uECC.c.obj)
 .text.uECC_vli_modSquare_fast
                0x0002faaa        0x8 external/micro-ecc/libuECC_nrf52832_xxAA.a(uECC.c.obj)
 .text.apply_z  0x0002fab2       0x3e external/micro-ecc/libuECC_nrf52832_xxAA.a(uECC.c.obj)
 .text.uECC_vli_nativeToBytes
                0x0002faf0       0x28 external/micro-ecc/libuECC_nrf52832_xxAA.a(uECC.c.obj)
 .text.uECC_vli_bytesToNative
                0x0002fb18       0x40 external/micro-ecc/libuECC_nrf52832_xxAA.a(uECC.c.obj)
 .text.default_RNG
                0x0002fb58        0xc external/micro-ecc/libuECC_nrf52832_xxAA.a(uECC.c.obj)
 .text.uECC_vli_add.isra.0
                0x0002fb64       0x4a external/micro-ecc/libuECC_nrf52832_xxAA.a(uECC.c.obj)
 .text.regularize_k
                0x0002fbae       0x50 external/micro-ecc/libuECC_nrf52832_xxAA.a(uECC.c.obj)
 .text.uECC_vli_sub.isra.1
                0x0002fbfe       0x4e external/micro-ecc/libuECC_nrf52832_xxAA.a(uECC.c.obj)
 .text.uECC_vli_cmp
                0x0002fc4c       0x30 external/micro-ecc/libuECC_nrf52832_xxAA.a(uECC.c.obj)
 .text.uECC_generate_random_int
                0x0002fc7c       0x78 external/micro-ecc/libuECC_nrf52832_xxAA.a(uECC.c.obj)
 .text.uECC_vli_modAdd
                0x0002fcf4       0x2e external/micro-ecc/libuECC_nrf52832_xxAA.a(uECC.c.obj)
 *fill*         0x0002fd22        0x2 
 .text.vli_mmod_fast_secp256r1
                0x0002fd24      0x194 external/micro-ecc/libuECC_nrf52832_xxAA.a(uECC.c.obj)
 .text.uECC_vli_modSub.isra.2
                0x0002feb8       0x1c external/micro-ecc/libuECC_nrf52832_xxAA.a(uECC.c.obj)
 .text.double_jacobian_default
                0x0002fed4      0x14a external/micro-ecc/libuECC_nrf52832_xxAA.a(uECC.c.obj)
 .text.x_side_default
                0x0003001e       0x5a external/micro-ecc/libuECC_nrf52832_xxAA.a(uECC.c.obj)
 .text.XYcZ_add
                0x00030078       0xbc external/micro-ecc/libuECC_nrf52832_xxAA.a(uECC.c.obj)
 .text.XYcZ_addC
                0x00030134      0x10a external/micro-ecc/libuECC_nrf52832_xxAA.a(uECC.c.obj)
 .text.vli_modInv_update
                0x0003023e       0x36 external/micro-ecc/libuECC_nrf52832_xxAA.a(uECC.c.obj)
 .text.uECC_vli_modInv
                0x00030274      0x102 external/micro-ecc/libuECC_nrf52832_xxAA.a(uECC.c.obj)
 .text.EccPoint_mult
                0x00030376      0x19e external/micro-ecc/libuECC_nrf52832_xxAA.a(uECC.c.obj)
 .text.EccPoint_compute_public_key
                0x00030514       0x54 external/micro-ecc/libuECC_nrf52832_xxAA.a(uECC.c.obj)
 .text.uECC_secp256r1
                0x00030568        0x8 external/micro-ecc/libuECC_nrf52832_xxAA.a(uECC.c.obj)
                0x00030568                uECC_secp256r1
 .text.uECC_make_key
                0x00030570       0x7e external/micro-ecc/libuECC_nrf52832_xxAA.a(uECC.c.obj)
                0x00030570                uECC_make_key
 *fill*         0x000305ee        0x2 
 .text.uECC_shared_secret
                0x000305f0       0xbc external/micro-ecc/libuECC_nrf52832_xxAA.a(uECC.c.obj)
                0x000305f0                uECC_shared_secret
 .text.uECC_valid_point
                0x000306ac       0x86 external/micro-ecc/libuECC_nrf52832_xxAA.a(uECC.c.obj)
                0x000306ac                uECC_valid_point
 .text.uECC_valid_public_key
                0x00030732       0x32 external/micro-ecc/libuECC_nrf52832_xxAA.a(uECC.c.obj)
                0x00030732                uECC_valid_public_key
 .text._GetAvailWriteSpace
                0x00030764       0x1c external/rtt/librtt_nrf52832_xxAA.a(SEGGER_RTT.c.obj)
 .text._WriteNoCheck
                0x00030780       0x3c external/rtt/librtt_nrf52832_xxAA.a(SEGGER_RTT.c.obj)
 .text._WriteBlocking
                0x000307bc       0x52 external/rtt/librtt_nrf52832_xxAA.a(SEGGER_RTT.c.obj)
 *fill*         0x0003080e        0x2 
 .text._DoInit  0x00030810       0x60 external/rtt/librtt_nrf52832_xxAA.a(SEGGER_RTT.c.obj)
 .text.SEGGER_RTT_WriteNoLock
                0x00030870       0x68 external/rtt/librtt_nrf52832_xxAA.a(SEGGER_RTT.c.obj)
                0x00030870                SEGGER_RTT_WriteNoLock
 .text.SEGGER_RTT_Write
                0x000308d8       0x34 external/rtt/librtt_nrf52832_xxAA.a(SEGGER_RTT.c.obj)
                0x000308d8                SEGGER_RTT_Write
 .text._StoreChar
                0x0003090c       0x3e external/rtt/librtt_nrf52832_xxAA.a(SEGGER_RTT_printf.c.obj)
 *fill*         0x0003094a        0x2 
 .text._PrintUnsigned
                0x0003094c       0xd0 external/rtt/librtt_nrf52832_xxAA.a(SEGGER_RTT_printf.c.obj)
 .text.SEGGER_RTT_vprintf
                0x00030a1c      0x246 external/rtt/librtt_nrf52832_xxAA.a(SEGGER_RTT_printf.c.obj)
                0x00030a1c                SEGGER_RTT_vprintf
 .text.SEGGER_RTT_printf
                0x00030c62       0x1e external/rtt/librtt_nrf52832_xxAA.a(SEGGER_RTT_printf.c.obj)
                0x00030c62                SEGGER_RTT_printf
 .text.exit     0x00030c80       0x28 c:/a/gcc_arm/6/bin/../lib/gcc/arm-none-eabi/6.3.1/../../../../arm-none-eabi/lib/thumb/v7e-m/fpv4-sp/hard\libg_nano.a(lib_a-exit.o)
                0x00030c80                exit
 .text.__libc_init_array
                0x00030ca8       0x48 c:/a/gcc_arm/6/bin/../lib/gcc/arm-none-eabi/6.3.1/../../../../arm-none-eabi/lib/thumb/v7e-m/fpv4-sp/hard\libg_nano.a(lib_a-init.o)
                0x00030ca8                __libc_init_array
 .text.malloc   0x00030cf0       0x10 c:/a/gcc_arm/6/bin/../lib/gcc/arm-none-eabi/6.3.1/../../../../arm-none-eabi/lib/thumb/v7e-m/fpv4-sp/hard\libg_nano.a(lib_a-malloc.o)
                0x00030cf0                malloc
 .text.free     0x00030d00       0x10 c:/a/gcc_arm/6/bin/../lib/gcc/arm-none-eabi/6.3.1/../../../../arm-none-eabi/lib/thumb/v7e-m/fpv4-sp/hard\libg_nano.a(lib_a-malloc.o)
                0x00030d00                free
 .text.memcmp   0x00030d10       0x1e c:/a/gcc_arm/6/bin/../lib/gcc/arm-none-eabi/6.3.1/../../../../arm-none-eabi/lib/thumb/v7e-m/fpv4-sp/hard\libg_nano.a(lib_a-memcmp.o)
                0x00030d10                memcmp
 .text.memcpy   0x00030d2e       0x16 c:/a/gcc_arm/6/bin/../lib/gcc/arm-none-eabi/6.3.1/../../../../arm-none-eabi/lib/thumb/v7e-m/fpv4-sp/hard\libg_nano.a(lib_a-memcpy-stub.o)
                0x00030d2e                memcpy
 .text.memset   0x00030d44       0x10 c:/a/gcc_arm/6/bin/../lib/gcc/arm-none-eabi/6.3.1/../../../../arm-none-eabi/lib/thumb/v7e-m/fpv4-sp/hard\libg_nano.a(lib_a-memset.o)
                0x00030d44                memset
 .text._free_r  0x00030d54       0x9c c:/a/gcc_arm/6/bin/../lib/gcc/arm-none-eabi/6.3.1/../../../../arm-none-eabi/lib/thumb/v7e-m/fpv4-sp/hard\libg_nano.a(lib_a-nano-freer.o)
                0x00030d54                _free_r
 .text._malloc_r
                0x00030df0       0xbc c:/a/gcc_arm/6/bin/../lib/gcc/arm-none-eabi/6.3.1/../../../../arm-none-eabi/lib/thumb/v7e-m/fpv4-sp/hard\libg_nano.a(lib_a-nano-mallocr.o)
                0x00030df0                _malloc_r
 .text._sbrk_r  0x00030eac       0x20 c:/a/gcc_arm/6/bin/../lib/gcc/arm-none-eabi/6.3.1/../../../../arm-none-eabi/lib/thumb/v7e-m/fpv4-sp/hard\libg_nano.a(lib_a-sbrkr.o)
                0x00030eac                _sbrk_r
 .text.strcpy   0x00030ecc       0x10 c:/a/gcc_arm/6/bin/../lib/gcc/arm-none-eabi/6.3.1/../../../../arm-none-eabi/lib/thumb/v7e-m/fpv4-sp/hard\libg_nano.a(lib_a-strcpy.o)
                0x00030ecc                strcpy
 .text          0x00030edc       0x10 c:/a/gcc_arm/6/bin/../lib/gcc/arm-none-eabi/6.3.1/../../../../arm-none-eabi/lib/thumb/v7e-m/fpv4-sp/hard\libg_nano.a(lib_a-strlen.o)
                0x00030edc                strlen
 .text.strrchr  0x00030eec       0x26 c:/a/gcc_arm/6/bin/../lib/gcc/arm-none-eabi/6.3.1/../../../../arm-none-eabi/lib/thumb/v7e-m/fpv4-sp/hard\libg_nano.a(lib_a-strrchr.o)
                0x00030eec                strrchr
 .text.__malloc_lock
                0x00030f12        0x2 c:/a/gcc_arm/6/bin/../lib/gcc/arm-none-eabi/6.3.1/../../../../arm-none-eabi/lib/thumb/v7e-m/fpv4-sp/hard\libg_nano.a(lib_a-mlock.o)
                0x00030f12                __malloc_lock
 .text.__malloc_unlock
                0x00030f14        0x2 c:/a/gcc_arm/6/bin/../lib/gcc/arm-none-eabi/6.3.1/../../../../arm-none-eabi/lib/thumb/v7e-m/fpv4-sp/hard\libg_nano.a(lib_a-mlock.o)
                0x00030f14                __malloc_unlock
 .text.strchr   0x00030f16       0x1c c:/a/gcc_arm/6/bin/../lib/gcc/arm-none-eabi/6.3.1/../../../../arm-none-eabi/lib/thumb/v7e-m/fpv4-sp/hard\libg_nano.a(lib_a-strchr.o)
                0x00030f16                strchr
 *fill*         0x00030f32        0x2 
 .text._sbrk    0x00030f34       0x1c c:/a/gcc_arm/6/bin/../lib/gcc/arm-none-eabi/6.3.1/../../../../arm-none-eabi/lib/thumb/v7e-m/fpv4-sp/hard\libnosys.a(sbrk.o)
                0x00030f34                _sbrk
 .text._exit    0x00030f50        0x4 c:/a/gcc_arm/6/bin/../lib/gcc/arm-none-eabi/6.3.1/../../../../arm-none-eabi/lib/thumb/v7e-m/fpv4-sp/hard\libnosys.a(_exit.o)
                0x00030f50                _exit
 *(.init)
 .init          0x00030f54        0x4 c:/a/gcc_arm/6/bin/../lib/gcc/arm-none-eabi/6.3.1/thumb/v7e-m/fpv4-sp/hard/crti.o
                0x00030f54                _init
 .init          0x00030f58        0x8 c:/a/gcc_arm/6/bin/../lib/gcc/arm-none-eabi/6.3.1/thumb/v7e-m/fpv4-sp/hard/crtn.o
 *(.fini)
 .fini          0x00030f60        0x4 c:/a/gcc_arm/6/bin/../lib/gcc/arm-none-eabi/6.3.1/thumb/v7e-m/fpv4-sp/hard/crti.o
                0x00030f60                _fini
 .fini          0x00030f64        0x8 c:/a/gcc_arm/6/bin/../lib/gcc/arm-none-eabi/6.3.1/thumb/v7e-m/fpv4-sp/hard/crtn.o
 *crtbegin.o(.ctors)
 *crtbegin?.o(.ctors)
 *(EXCLUDE_FILE(*crtend.o *crtend?.o) .ctors)
 *(SORT(.ctors.*))
 *(.ctors)
 *crtbegin.o(.dtors)
 *crtbegin?.o(.dtors)
 *(EXCLUDE_FILE(*crtend.o *crtend?.o) .dtors)
 *(SORT(.dtors.*))
 *(.dtors)
 *(.rodata*)
 .rodata        0x00030f6c        0x8 examples/serial/CMakeFiles/serial_nrf52832_xxAA_s132_3.1.0.dir/src/main.c.obj
 .rodata.main.str1.1
                0x00030f74       0xac examples/serial/CMakeFiles/serial_nrf52832_xxAA_s132_3.1.0.dir/src/main.c.obj
 .rodata.HardFault_Handler.str1.1
                0x00031020        0xe examples/serial/CMakeFiles/serial_nrf52832_xxAA_s132_3.1.0.dir/__/nrf_mesh_sdk.c.obj
 .rodata.app_error_handler.str1.1
                0x0003102e       0x1d examples/serial/CMakeFiles/serial_nrf52832_xxAA_s132_3.1.0.dir/__/nrf_mesh_sdk.c.obj
 .rodata.mesh_assert_handler.str1.1
                0x0003104b       0x34 examples/serial/CMakeFiles/serial_nrf52832_xxAA_s132_3.1.0.dir/__/nrf_mesh_sdk.c.obj
 .rodata.mesh_core_setup.str1.1
                0x0003107f       0x47 examples/serial/CMakeFiles/serial_nrf52832_xxAA_s132_3.1.0.dir/__/nrf_mesh_sdk.c.obj
 .rodata.mesh_softdevice_enable.str1.1
                0x000310c6       0x65 examples/serial/CMakeFiles/serial_nrf52832_xxAA_s132_3.1.0.dir/__/nrf_mesh_sdk.c.obj
 .rodata.softdevice_assert_handler.str1.1
                0x0003112b       0x1d examples/serial/CMakeFiles/serial_nrf52832_xxAA_s132_3.1.0.dir/__/nrf_mesh_sdk.c.obj
 .rodata.m_prov_callbacks
                0x00031148       0x10 examples/serial/CMakeFiles/serial_nrf52832_xxAA_s132_3.1.0.dir/__/__/mesh/prov/src/prov_provisioner.c.obj
 .rodata.m_prov_callbacks
                0x00031158       0x10 examples/serial/CMakeFiles/serial_nrf52832_xxAA_s132_3.1.0.dir/__/__/mesh/prov/src/prov_provisionee.c.obj
 .rodata.prov_provisionee_cb_ack_received.str1.1
                0x00031168       0x53 examples/serial/CMakeFiles/serial_nrf52832_xxAA_s132_3.1.0.dir/__/__/mesh/prov/src/prov_provisionee.c.obj
 .rodata.pdu_sizes.10818
                0x000311bb        0xa examples/serial/CMakeFiles/serial_nrf52832_xxAA_s132_3.1.0.dir/__/__/mesh/prov/src/provisioning.c.obj
 .rodata.alphanumeric.10923
                0x000311c5       0x25 examples/serial/CMakeFiles/serial_nrf52832_xxAA_s132_3.1.0.dir/__/__/mesh/prov/src/prov_utils.c.obj
 *fill*         0x000311ea        0x2 
 .rodata.numeric_max.10917
                0x000311ec       0x24 examples/serial/CMakeFiles/serial_nrf52832_xxAA_s132_3.1.0.dir/__/__/mesh/prov/src/prov_utils.c.obj
 .rodata.prov_utils_authentication_values_derive.str1.1
                0x00031210        0x5 examples/serial/CMakeFiles/serial_nrf52832_xxAA_s132_3.1.0.dir/__/__/mesh/prov/src/prov_utils.c.obj
 .rodata.prov_utils_derive_keys.str1.1
                0x00031215        0xf examples/serial/CMakeFiles/serial_nrf52832_xxAA_s132_3.1.0.dir/__/__/mesh/prov/src/prov_utils.c.obj
 .rodata.add_active_bearer.str1.1
                0x00031224       0x2c examples/serial/CMakeFiles/serial_nrf52832_xxAA_s132_3.1.0.dir/__/__/mesh/prov/src/prov_bearer_adv.c.obj
 .rodata.crctable.10676
                0x00031250      0x100 examples/serial/CMakeFiles/serial_nrf52832_xxAA_s132_3.1.0.dir/__/__/mesh/prov/src/prov_bearer_adv.c.obj
 .rodata.interface.10906
                0x00031350       0x14 examples/serial/CMakeFiles/serial_nrf52832_xxAA_s132_3.1.0.dir/__/__/mesh/prov/src/prov_bearer_adv.c.obj
 .rodata.prov_bearer_adv_packet_in.str1.1
                0x00031364      0x26e examples/serial/CMakeFiles/serial_nrf52832_xxAA_s132_3.1.0.dir/__/__/mesh/prov/src/prov_bearer_adv.c.obj
 .rodata.tx_retry_cb.str1.1
                0x000315d2       0x37 examples/serial/CMakeFiles/serial_nrf52832_xxAA_s132_3.1.0.dir/__/__/mesh/prov/src/prov_bearer_adv.c.obj
 .rodata.mesh_evt_cb.str1.1
                0x00031609       0x2f examples/serial/CMakeFiles/serial_nrf52832_xxAA_s132_3.1.0.dir/__/__/mesh/access/src/access.c.obj
 .rodata.packet_tx.str1.1
                0x00031638       0x13 examples/serial/CMakeFiles/serial_nrf52832_xxAA_s132_3.1.0.dir/__/__/mesh/access/src/access.c.obj
 *fill*         0x0003164b        0x1 
 .rodata.m_flash_groups
                0x0003164c       0xa8 examples/serial/CMakeFiles/serial_nrf52832_xxAA_s132_3.1.0.dir/__/__/mesh/access/src/device_state_manager.c.obj
 .rodata.m_cmd_handlers
                0x000316f4       0xb0 examples/serial/CMakeFiles/serial_nrf52832_xxAA_s132_3.1.0.dir/__/__/mesh/serial/src/serial_handler_access.c.obj
 .rodata.m_cmd_handlers
                0x000317a4       0x48 examples/serial/CMakeFiles/serial_nrf52832_xxAA_s132_3.1.0.dir/__/__/mesh/serial/src/serial.c.obj
 .rodata.serial_process_cmd.str1.1
                0x000317ec       0x17 examples/serial/CMakeFiles/serial_nrf52832_xxAA_s132_3.1.0.dir/__/__/mesh/serial/src/serial.c.obj
 .rodata.serial_start.str1.1
                0x00031803       0x63 examples/serial/CMakeFiles/serial_nrf52832_xxAA_s132_3.1.0.dir/__/__/mesh/serial/src/serial.c.obj
 .rodata.serial_handler_prov_init.str1.1
                0x00031866       0x4b examples/serial/CMakeFiles/serial_nrf52832_xxAA_s132_3.1.0.dir/__/__/mesh/serial/src/serial_handler_prov.c.obj
 .rodata.lengths.10989
                0x000318b1        0x7 examples/serial/CMakeFiles/serial_nrf52832_xxAA_s132_3.1.0.dir/__/__/mesh/serial/src/serial_handler_dfu.c.obj
 .rodata.m_handlers
                0x000318b8       0xe8 examples/serial/CMakeFiles/serial_nrf52832_xxAA_s132_3.1.0.dir/__/__/mesh/serial/src/serial_handler_mesh.c.obj
 .rodata.m_cmd_handlers
                0x000319a0       0x18 examples/serial/CMakeFiles/serial_nrf52832_xxAA_s132_3.1.0.dir/__/__/mesh/serial/src/serial_handler_models.c.obj
 .rodata.m_cmd_handlers
                0x000319b8       0x48 examples/serial/CMakeFiles/serial_nrf52832_xxAA_s132_3.1.0.dir/__/__/mesh/serial/src/serial_handler_device.c.obj
 .rodata.types_lookup.8837
                0x00031a00        0x4 mesh/core/libmesh_core_nrf52832_xxAA.a(nrf_mesh_utils.c.obj)
 .rodata.nrf_mesh_listen.str1.1
                0x00031a04       0x70 mesh/core/libmesh_core_nrf52832_xxAA.a(nrf_mesh.c.obj)
 .rodata.CSWTCH.9
                0x00031a74       0x10 mesh/core/libmesh_core_nrf52832_xxAA.a(hal.c.obj)
 .rodata        0x00031a84       0x15 mesh/core/libmesh_core_nrf52832_xxAA.a(enc.c.obj)
 .rodata.network_packet_in.str1.1
                0x00031a99       0x48 mesh/core/libmesh_core_nrf52832_xxAA.a(network.c.obj)
 .rodata.network_packet_send.str1.1
                0x00031ae1       0x49 mesh/core/libmesh_core_nrf52832_xxAA.a(network.c.obj)
 .rodata        0x00031b2a        0x7 mesh/core/libmesh_core_nrf52832_xxAA.a(nrf_mesh_keygen.c.obj)
 .rodata.log_callback_rtt.str1.1
                0x00031b31       0x15 mesh/core/libmesh_core_nrf52832_xxAA.a(log.c.obj)
 .rodata.str1.1
                0x00031b46       0x11 mesh/core/libmesh_core_nrf52832_xxAA.a(log.c.obj)
 *fill*         0x00031b57        0x1 
 .rodata.INVALID_HEADER
                0x00031b58        0x4 mesh/core/libmesh_core_nrf52832_xxAA.a(flash_manager.c.obj)
                0x00031b58                INVALID_HEADER
 .rodata.PADDING_HEADER
                0x00031b5c        0x4 mesh/core/libmesh_core_nrf52832_xxAA.a(flash_manager.c.obj)
                0x00031b5c                PADDING_HEADER
 .rodata.SEAL_HEADER
                0x00031b60        0x4 mesh/core/libmesh_core_nrf52832_xxAA.a(flash_manager.c.obj)
                0x00031b60                SEAL_HEADER
 .rodata.process_action_queue.str1.1
                0x00031b64       0x21 mesh/core/libmesh_core_nrf52832_xxAA.a(flash_manager.c.obj)
                                 0x4f (size before relaxing)
 .rodata.beacon_packet_in.str1.1
                0x00031b85       0x51 mesh/core/libmesh_core_nrf52832_xxAA.a(beacon.c.obj)
                                 0x59 (size before relaxing)
 *fill*         0x00031bd6        0x2 
 .rodata.cp_handler
                0x00031bd8        0x8 mesh/core/libmesh_core_nrf52832_xxAA.a(heartbeat.c.obj)
 .rodata.net_beacon_init.str1.1
                0x00031be0        0x5 mesh/core/libmesh_core_nrf52832_xxAA.a(net_beacon.c.obj)
 *fill*         0x00031be5        0x3 
 .rodata.m_interface
                0x00031be8        0xc mesh/core/libmesh_core_nrf52832_xxAA.a(core_tx_adv.c.obj)
 .rodata.radio_mode_to_us_per_byte.9234
                0x00031bf4        0x6 mesh/core/libmesh_core_nrf52832_xxAA.a(broadcast.c.obj)
 .rodata.channel_rf_offsets.8475
                0x00031bfa       0x28 mesh/core/libmesh_core_nrf52832_xxAA.a(radio_config.c.obj)
 .rodata        0x00031c22        0x3 mesh/core/libmesh_core_nrf52832_xxAA.a(scanner.c.obj)
 .rodata.sar_ctx_cancel.str1.1
                0x00031c25       0x18 mesh/core/libmesh_core_nrf52832_xxAA.a(transport.c.obj)
 .rodata.sar_ctx_tx_complete.str1.1
                0x00031c3d       0x1d mesh/core/libmesh_core_nrf52832_xxAA.a(transport.c.obj)
                                 0x4b (size before relaxing)
 .rodata.test_transport_decrypt.str1.1
                0x00031c5a       0x13 mesh/core/libmesh_core_nrf52832_xxAA.a(transport.c.obj)
 .rodata.transport_packet_in.str1.1
                0x00031c6d       0x24 mesh/core/libmesh_core_nrf52832_xxAA.a(transport.c.obj)
 .rodata.upper_transport_access_packet_in.str1.1
                0x00031c91       0x29 mesh/core/libmesh_core_nrf52832_xxAA.a(transport.c.obj)
 .rodata.upper_transport_packet_in.str1.1
                0x00031cba       0x2e mesh/core/libmesh_core_nrf52832_xxAA.a(transport.c.obj)
 .rodata.upper_transport_tx.str1.1
                0x00031ce8       0x2c mesh/core/libmesh_core_nrf52832_xxAA.a(transport.c.obj)
                                 0x34 (size before relaxing)
 .rodata.flash_manager_defrag.str1.1
                0x00031d14       0x28 mesh/core/libmesh_core_nrf52832_xxAA.a(flash_manager_defrag.c.obj)
                                 0x56 (size before relaxing)
 .rodata.m_procedure_steps
                0x00031d3c       0x28 mesh/core/libmesh_core_nrf52832_xxAA.a(flash_manager_defrag.c.obj)
 .rodata.m_all_operations
                0x00031d64       0x10 mesh/core/libmesh_core_nrf52832_xxAA.a(mesh_flash.c.obj)
 .rodata.Rb.7348
                0x00031d74       0x10 mesh/core/libmesh_core_nrf52832_xxAA.a(aes_cmac.c.obj)
 .rodata.curve_secp256r1
                0x00031d84       0xb0 external/micro-ecc/libuECC_nrf52832_xxAA.a(uECC.c.obj)
 .rodata._DoInit.str1.1
                0x00031e34       0x14 external/rtt/librtt_nrf52832_xxAA.a(SEGGER_RTT.c.obj)
 .rodata._aV2C.5497
                0x00031e48       0x10 external/rtt/librtt_nrf52832_xxAA.a(SEGGER_RTT_printf.c.obj)
 .rodata._global_impure_ptr
                0x00031e58        0x4 c:/a/gcc_arm/6/bin/../lib/gcc/arm-none-eabi/6.3.1/../../../../arm-none-eabi/lib/thumb/v7e-m/fpv4-sp/hard\libg_nano.a(lib_a-impure.o)
                0x00031e58                _global_impure_ptr
 *(.eh_frame*)
 .eh_frame      0x00031e5c        0x0 c:/a/gcc_arm/6/bin/../lib/gcc/arm-none-eabi/6.3.1/thumb/v7e-m/fpv4-sp/hard/crtbegin.o
 .eh_frame      0x00031e5c        0x4 c:/a/gcc_arm/6/bin/../lib/gcc/arm-none-eabi/6.3.1/thumb/v7e-m/fpv4-sp/hard/crtend.o

.glue_7         0x00031e60        0x0
 .glue_7        0x00031e60        0x0 linker stubs

.glue_7t        0x00031e60        0x0
 .glue_7t       0x00031e60        0x0 linker stubs

.vfp11_veneer   0x00031e60        0x0
 .vfp11_veneer  0x00031e60        0x0 linker stubs

.v4_bx          0x00031e60        0x0
 .v4_bx         0x00031e60        0x0 linker stubs

.iplt           0x00031e60        0x0
 .iplt          0x00031e60        0x0 c:/a/gcc_arm/6/bin/../lib/gcc/arm-none-eabi/6.3.1/thumb/v7e-m/fpv4-sp/hard/crtbegin.o

.pwr_mgmt_data  0x00031e60        0x0
                [!provide]                PROVIDE (__start_pwr_mgmt_data, .)
 *(SORT(.pwr_mgmt_data*))
                [!provide]                PROVIDE (__stop_pwr_mgmt_data, .)

.log_const_data
                0x00031e60        0x0
                [!provide]                PROVIDE (__start_log_const_data, .)
 *(.log_const_data)
                [!provide]                PROVIDE (__stop_log_const_data, .)

.cli_command    0x00031e60        0x0
                [!provide]                PROVIDE (__start_cli_command, .)
 *(.cli_command)
                [!provide]                PROVIDE (__stop_cli_command, .)

.sdh_stack_observers
                0x00031e60        0x0
                [!provide]                PROVIDE (__start_sdh_stack_observers, .)
 *(SORT(.sdh_stack_observers*))
                [!provide]                PROVIDE (__stop_sdh_stack_observers, .)

.sdh_req_observers
                0x00031e60        0x0
                [!provide]                PROVIDE (__start_sdh_req_observers, .)
 *(SORT(.sdh_req_observers*))
                [!provide]                PROVIDE (__stop_sdh_req_observers, .)

.sdh_state_observers
                0x00031e60        0x0
                [!provide]                PROVIDE (__start_sdh_state_observers, .)
 *(SORT(.sdh_state_observers*))
                [!provide]                PROVIDE (__stop_sdh_state_observers, .)

.sdh_ant_observers
                0x00031e60        0x0
                [!provide]                PROVIDE (__start_sdh_ant_observers, .)
 *(SORT(.sdh_ant_observers*))
                [!provide]                PROVIDE (__stop_sdh_ant_observers, .)

.sdh_ble_observers
                0x00031e60        0x0
                [!provide]                PROVIDE (__start_sdh_ble_observers, .)
 *(SORT(.sdh_ble_observers*))
                [!provide]                PROVIDE (__stop_sdh_ble_observers, .)

.sdh_soc_observers
                0x00031e60        0x0
                [!provide]                PROVIDE (__start_sdh_soc_observers, .)
 *(SORT(.sdh_soc_observers*))
                [!provide]                PROVIDE (__stop_sdh_soc_observers, .)

.ARM.extab
 *(.ARM.extab* .gnu.linkonce.armextab.*)
                0x00031e60                __exidx_start = .

.ARM.exidx      0x00031e60        0x8
 *(.ARM.exidx* .gnu.linkonce.armexidx.*)
 .ARM.exidx     0x00031e60        0x8 c:/a/gcc_arm/6/bin/../lib/gcc/arm-none-eabi/6.3.1/../../../../arm-none-eabi/lib/thumb/v7e-m/fpv4-sp/hard/crt0.o
                0x00031e68                __exidx_end = .
                0x00031e68                __etext = .

.rel.dyn        0x00031e68        0x0
 .rel.iplt      0x00031e68        0x0 c:/a/gcc_arm/6/bin/../lib/gcc/arm-none-eabi/6.3.1/thumb/v7e-m/fpv4-sp/hard/crtbegin.o

.data           0x200019c0      0x12c load address 0x00031e68
                0x200019c0                __data_start__ = .
 *(vtable)
 *(.data*)
 .data.m_async_process_flag
                0x200019c0        0x4 examples/serial/CMakeFiles/serial_nrf52832_xxAA_s132_3.1.0.dir/__/__/mesh/prov/src/prov_bearer_adv.c.obj
 .data.flash_add_mem_available_struct.10104
                0x200019c4       0x10 examples/serial/CMakeFiles/serial_nrf52832_xxAA_s132_3.1.0.dir/__/__/mesh/access/src/access.c.obj
 .data.flash_clear_mem_available_struct.10193
                0x200019d4       0x10 examples/serial/CMakeFiles/serial_nrf52832_xxAA_s132_3.1.0.dir/__/__/mesh/access/src/access.c.obj
 .data.flash_store_mem_available_struct.10217
                0x200019e4       0x10 examples/serial/CMakeFiles/serial_nrf52832_xxAA_s132_3.1.0.dir/__/__/mesh/access/src/access.c.obj
 .data.m_default_ttl
                0x200019f4        0x1 examples/serial/CMakeFiles/serial_nrf52832_xxAA_s132_3.1.0.dir/__/__/mesh/access/src/access.c.obj
 *fill*         0x200019f5        0x3 
 .data.mem_listener.10412
                0x200019f8       0x10 examples/serial/CMakeFiles/serial_nrf52832_xxAA_s132_3.1.0.dir/__/__/mesh/access/src/device_state_manager.c.obj
 .data.mem_listener.10438
                0x20001a08       0x10 examples/serial/CMakeFiles/serial_nrf52832_xxAA_s132_3.1.0.dir/__/__/mesh/access/src/device_state_manager.c.obj
 .data.SystemCoreClock
                0x20001a18        0x4 examples/serial/CMakeFiles/serial_nrf52832_xxAA_s132_3.1.0.dir/__/__/external/nRF5_SDK_14.2.0_17b948a/components/toolchain/system_nrf52.c.obj
                0x20001a18                SystemCoreClock
 .data.mem_listener.9558
                0x20001a1c       0x10 mesh/core/libmesh_core_nrf52832_xxAA.a(net_state.c.obj)
 .data.mem_listener.9563
                0x20001a2c       0x10 mesh/core/libmesh_core_nrf52832_xxAA.a(net_state.c.obj)
 .data.mem_listener.9577
                0x20001a3c       0x10 mesh/core/libmesh_core_nrf52832_xxAA.a(net_state.c.obj)
 .data.mem_listener.9594
                0x20001a4c       0x10 mesh/core/libmesh_core_nrf52832_xxAA.a(net_state.c.obj)
 .data.m_nrf_mesh_listener
                0x20001a5c        0xc mesh/core/libmesh_core_nrf52832_xxAA.a(nrf_mesh.c.obj)
 .data.g_log_dbg_lvl
                0x20001a68        0x4 mesh/core/libmesh_core_nrf52832_xxAA.a(log.c.obj)
                0x20001a68                g_log_dbg_lvl
 .data.g_log_dbg_msk
                0x20001a6c        0x4 mesh/core/libmesh_core_nrf52832_xxAA.a(log.c.obj)
                0x20001a6c                g_log_dbg_msk
 .data.g_log_hex_digits
                0x20001a70        0x4 mesh/core/libmesh_core_nrf52832_xxAA.a(log.c.obj)
                0x20001a70                g_log_hex_digits
 .data.m_log_callback
                0x20001a74        0x4 mesh/core/libmesh_core_nrf52832_xxAA.a(log.c.obj)
                0x20001a74                m_log_callback
 .data.g_rng_function
                0x20001a78        0x4 external/micro-ecc/libuECC_nrf52832_xxAA.a(uECC.c.obj)
 .data._impure_ptr
                0x20001a7c        0x4 c:/a/gcc_arm/6/bin/../lib/gcc/arm-none-eabi/6.3.1/../../../../arm-none-eabi/lib/thumb/v7e-m/fpv4-sp/hard\libg_nano.a(lib_a-impure.o)
                0x20001a7c                _impure_ptr
 .data.impure_data
                0x20001a80       0x60 c:/a/gcc_arm/6/bin/../lib/gcc/arm-none-eabi/6.3.1/../../../../arm-none-eabi/lib/thumb/v7e-m/fpv4-sp/hard\libg_nano.a(lib_a-impure.o)
                0x20001ae0                . = ALIGN (0x4)
                0x20001ae0                PROVIDE (__preinit_array_start, .)
 *(.preinit_array)
                0x20001ae0                PROVIDE (__preinit_array_end, .)
                0x20001ae0                . = ALIGN (0x4)
                0x20001ae0                PROVIDE (__init_array_start, .)
 *(SORT(.init_array.*))
 *(.init_array)
 .init_array    0x20001ae0        0x4 c:/a/gcc_arm/6/bin/../lib/gcc/arm-none-eabi/6.3.1/thumb/v7e-m/fpv4-sp/hard/crtbegin.o
                0x20001ae4                PROVIDE (__init_array_end, .)
                0x20001ae4                . = ALIGN (0x4)
                [!provide]                PROVIDE (__fini_array_start, .)
 *(SORT(.fini_array.*))
 *(.fini_array)
 .fini_array    0x20001ae4        0x4 c:/a/gcc_arm/6/bin/../lib/gcc/arm-none-eabi/6.3.1/thumb/v7e-m/fpv4-sp/hard/crtbegin.o
                [!provide]                PROVIDE (__fini_array_end, .)
 *(.jcr*)
 .jcr           0x20001ae8        0x0 c:/a/gcc_arm/6/bin/../lib/gcc/arm-none-eabi/6.3.1/thumb/v7e-m/fpv4-sp/hard/crtbegin.o
 .jcr           0x20001ae8        0x4 c:/a/gcc_arm/6/bin/../lib/gcc/arm-none-eabi/6.3.1/thumb/v7e-m/fpv4-sp/hard/crtend.o
                0x20001aec                . = ALIGN (0x4)
                0x20001aec                __data_end__ = .
LOAD c:/a/gcc_arm/6/bin/../lib/gcc/arm-none-eabi/6.3.1/thumb/v7e-m/fpv4-sp/hard/crti.o
LOAD c:/a/gcc_arm/6/bin/../lib/gcc/arm-none-eabi/6.3.1/thumb/v7e-m/fpv4-sp/hard/crtbegin.o
LOAD c:/a/gcc_arm/6/bin/../lib/gcc/arm-none-eabi/6.3.1/../../../../arm-none-eabi/lib/thumb/v7e-m/fpv4-sp/hard/crt0.o
LOAD examples/serial/CMakeFiles/serial_nrf52832_xxAA_s132_3.1.0.dir/src/main.c.obj
LOAD examples/serial/CMakeFiles/serial_nrf52832_xxAA_s132_3.1.0.dir/__/nrf_mesh_sdk.c.obj
LOAD examples/serial/CMakeFiles/serial_nrf52832_xxAA_s132_3.1.0.dir/__/__/mesh/prov/src/prov_provisioner.c.obj
LOAD examples/serial/CMakeFiles/serial_nrf52832_xxAA_s132_3.1.0.dir/__/__/mesh/prov/src/prov_provisionee.c.obj
LOAD examples/serial/CMakeFiles/serial_nrf52832_xxAA_s132_3.1.0.dir/__/__/mesh/prov/src/nrf_mesh_prov.c.obj
LOAD examples/serial/CMakeFiles/serial_nrf52832_xxAA_s132_3.1.0.dir/__/__/mesh/prov/src/provisioning.c.obj
LOAD examples/serial/CMakeFiles/serial_nrf52832_xxAA_s132_3.1.0.dir/__/__/mesh/prov/src/prov_beacon.c.obj
LOAD examples/serial/CMakeFiles/serial_nrf52832_xxAA_s132_3.1.0.dir/__/__/mesh/prov/src/prov_utils.c.obj
LOAD examples/serial/CMakeFiles/serial_nrf52832_xxAA_s132_3.1.0.dir/__/__/mesh/prov/src/prov_bearer_adv.c.obj
LOAD examples/serial/CMakeFiles/serial_nrf52832_xxAA_s132_3.1.0.dir/__/__/mesh/access/src/access_publish.c.obj
LOAD examples/serial/CMakeFiles/serial_nrf52832_xxAA_s132_3.1.0.dir/__/__/mesh/access/src/access.c.obj
LOAD examples/serial/CMakeFiles/serial_nrf52832_xxAA_s132_3.1.0.dir/__/__/mesh/access/src/access_reliable.c.obj
LOAD examples/serial/CMakeFiles/serial_nrf52832_xxAA_s132_3.1.0.dir/__/__/mesh/access/src/device_state_manager.c.obj
LOAD examples/serial/CMakeFiles/serial_nrf52832_xxAA_s132_3.1.0.dir/__/__/mesh/serial/src/serial_uart.c.obj
LOAD examples/serial/CMakeFiles/serial_nrf52832_xxAA_s132_3.1.0.dir/__/__/mesh/serial/src/serial_bearer.c.obj
LOAD examples/serial/CMakeFiles/serial_nrf52832_xxAA_s132_3.1.0.dir/__/__/mesh/serial/src/serial_handler_common.c.obj
LOAD examples/serial/CMakeFiles/serial_nrf52832_xxAA_s132_3.1.0.dir/__/__/mesh/serial/src/serial_handler_access.c.obj
LOAD examples/serial/CMakeFiles/serial_nrf52832_xxAA_s132_3.1.0.dir/__/__/mesh/serial/src/serial_handler_config.c.obj
LOAD examples/serial/CMakeFiles/serial_nrf52832_xxAA_s132_3.1.0.dir/__/__/mesh/serial/src/serial_handler_openmesh.c.obj
LOAD examples/serial/CMakeFiles/serial_nrf52832_xxAA_s132_3.1.0.dir/__/__/mesh/serial/src/serial.c.obj
LOAD examples/serial/CMakeFiles/serial_nrf52832_xxAA_s132_3.1.0.dir/__/__/mesh/serial/src/serial_handler_prov.c.obj
LOAD examples/serial/CMakeFiles/serial_nrf52832_xxAA_s132_3.1.0.dir/__/__/mesh/serial/src/serial_handler_dfu.c.obj
LOAD examples/serial/CMakeFiles/serial_nrf52832_xxAA_s132_3.1.0.dir/__/__/mesh/serial/src/serial_handler_mesh.c.obj
LOAD examples/serial/CMakeFiles/serial_nrf52832_xxAA_s132_3.1.0.dir/__/__/mesh/serial/src/serial_handler_models.c.obj
LOAD examples/serial/CMakeFiles/serial_nrf52832_xxAA_s132_3.1.0.dir/__/__/mesh/serial/src/serial_handler_device.c.obj
LOAD examples/serial/CMakeFiles/serial_nrf52832_xxAA_s132_3.1.0.dir/__/__/mesh/serial/src/nrf_mesh_serial.c.obj
LOAD examples/serial/CMakeFiles/serial_nrf52832_xxAA_s132_3.1.0.dir/__/__/mesh/serial/src/serial_handler_app.c.obj
LOAD examples/serial/CMakeFiles/serial_nrf52832_xxAA_s132_3.1.0.dir/__/nrf_mesh_weak.c.obj
LOAD examples/serial/CMakeFiles/serial_nrf52832_xxAA_s132_3.1.0.dir/__/__/external/nRF5_SDK_14.2.0_17b948a/components/toolchain/system_nrf52.c.obj
LOAD examples/serial/CMakeFiles/serial_nrf52832_xxAA_s132_3.1.0.dir/__/__/external/nRF5_SDK_14.2.0_17b948a/components/toolchain/gcc/gcc_startup_nrf52.S.obj
LOAD mesh/core/libmesh_core_nrf52832_xxAA.a
LOAD external/micro-ecc/libuECC_nrf52832_xxAA.a
LOAD external/rtt/librtt_nrf52832_xxAA.a
START GROUP
LOAD c:/a/gcc_arm/6/bin/../lib/gcc/arm-none-eabi/6.3.1/thumb/v7e-m/fpv4-sp/hard\libgcc.a
LOAD c:/a/gcc_arm/6/bin/../lib/gcc/arm-none-eabi/6.3.1/../../../../arm-none-eabi/lib/thumb/v7e-m/fpv4-sp/hard\libg_nano.a
LOAD c:/a/gcc_arm/6/bin/../lib/gcc/arm-none-eabi/6.3.1/../../../../arm-none-eabi/lib/thumb/v7e-m/fpv4-sp/hard\libc_nano.a
END GROUP
START GROUP
LOAD c:/a/gcc_arm/6/bin/../lib/gcc/arm-none-eabi/6.3.1/thumb/v7e-m/fpv4-sp/hard\libgcc.a
LOAD c:/a/gcc_arm/6/bin/../lib/gcc/arm-none-eabi/6.3.1/../../../../arm-none-eabi/lib/thumb/v7e-m/fpv4-sp/hard\libc_nano.a
END GROUP
LOAD c:/a/gcc_arm/6/bin/../lib/gcc/arm-none-eabi/6.3.1/thumb/v7e-m/fpv4-sp/hard/crtend.o
LOAD c:/a/gcc_arm/6/bin/../lib/gcc/arm-none-eabi/6.3.1/thumb/v7e-m/fpv4-sp/hard/crtn.o
START GROUP
LOAD c:/a/gcc_arm/6/bin/../lib/gcc/arm-none-eabi/6.3.1/thumb/v7e-m/fpv4-sp/hard\libgcc.a
LOAD c:/a/gcc_arm/6/bin/../lib/gcc/arm-none-eabi/6.3.1/../../../../arm-none-eabi/lib/thumb/v7e-m/fpv4-sp/hard\libc.a
LOAD c:/a/gcc_arm/6/bin/../lib/gcc/arm-none-eabi/6.3.1/../../../../arm-none-eabi/lib/thumb/v7e-m/fpv4-sp/hard\libnosys.a
END GROUP

.igot.plt       0x20001aec        0x0 load address 0x00031f94
 .igot.plt      0x20001aec        0x0 c:/a/gcc_arm/6/bin/../lib/gcc/arm-none-eabi/6.3.1/thumb/v7e-m/fpv4-sp/hard/crtbegin.o
                0x20001aec                . = ALIGN (0x4)

.svc_data       0x20001aec        0x0
                [!provide]                PROVIDE (__start_svc_data, .)
 *(.svc_data)
                [!provide]                PROVIDE (__stop_svc_data, .)

.fs_data        0x20001aec        0x0
                [!provide]                PROVIDE (__start_fs_data, .)
 *(.fs_data)
                [!provide]                PROVIDE (__stop_fs_data, .)

.log_dynamic_data
                0x20001aec        0x0
                [!provide]                PROVIDE (__start_log_dynamic_data, .)
 *(.log_dynamic_data)
                [!provide]                PROVIDE (__stop_log_dynamic_data, .)

.cli_sorted_cmd_ptrs
                0x20001aec        0x0
                [!provide]                PROVIDE (__start_cli_sorted_cmd_ptrs, .)
 *(.cli_sorted_cmd_ptrs)
                [!provide]                PROVIDE (__stop_cli_sorted_cmd_ptrs, .)

.bss            0x20001af0     0x3928 load address 0x00031f98
                0x20001af0                . = ALIGN (0x4)
                0x20001af0                __bss_start__ = .
 *(.bss*)
 .bss           0x20001af0       0x1c c:/a/gcc_arm/6/bin/../lib/gcc/arm-none-eabi/6.3.1/thumb/v7e-m/fpv4-sp/hard/crtbegin.o
 .bss.m_ble_evt_buffer
                0x20001b0c       0x4f examples/serial/CMakeFiles/serial_nrf52832_xxAA_s132_3.1.0.dir/__/nrf_mesh_sdk.c.obj
 *fill*         0x20001b5b        0x1 
 .bss.m_event_handler
                0x20001b5c        0x4 examples/serial/CMakeFiles/serial_nrf52832_xxAA_s132_3.1.0.dir/__/__/mesh/prov/src/prov_beacon.c.obj
 .bss.m_offload_ecdh
                0x20001b60        0x1 examples/serial/CMakeFiles/serial_nrf52832_xxAA_s132_3.1.0.dir/__/__/mesh/prov/src/prov_utils.c.obj
 *fill*         0x20001b61        0x3 
 .bss.mp_bearer_head
                0x20001b64        0x4 examples/serial/CMakeFiles/serial_nrf52832_xxAA_s132_3.1.0.dir/__/__/mesh/prov/src/prov_bearer_adv.c.obj
 .bss.m_publish_timer
                0x20001b68       0x18 examples/serial/CMakeFiles/serial_nrf52832_xxAA_s132_3.1.0.dir/__/__/mesh/access/src/access_publish.c.obj
 .bss.m_publish_timer_counter
                0x20001b80        0x4 examples/serial/CMakeFiles/serial_nrf52832_xxAA_s132_3.1.0.dir/__/__/mesh/access/src/access_publish.c.obj
 .bss.m_publish_timer_running
                0x20001b84        0x1 examples/serial/CMakeFiles/serial_nrf52832_xxAA_s132_3.1.0.dir/__/__/mesh/access/src/access_publish.c.obj
 .bss.m_timer_resolution
                0x20001b85        0x1 examples/serial/CMakeFiles/serial_nrf52832_xxAA_s132_3.1.0.dir/__/__/mesh/access/src/access_publish.c.obj
 *fill*         0x20001b86        0x2 
 .bss.mp_publication_list
                0x20001b88        0x4 examples/serial/CMakeFiles/serial_nrf52832_xxAA_s132_3.1.0.dir/__/__/mesh/access/src/access_publish.c.obj
 .bss.m_element_pool
                0x20001b8c        0xc examples/serial/CMakeFiles/serial_nrf52832_xxAA_s132_3.1.0.dir/__/__/mesh/access/src/access.c.obj
 .bss.m_evt_handler
                0x20001b98        0x8 examples/serial/CMakeFiles/serial_nrf52832_xxAA_s132_3.1.0.dir/__/__/mesh/access/src/access.c.obj
 .bss.m_flash_manager
                0x20001ba0       0x24 examples/serial/CMakeFiles/serial_nrf52832_xxAA_s132_3.1.0.dir/__/__/mesh/access/src/access.c.obj
 .bss.m_flash_not_ready
                0x20001bc4        0x1 examples/serial/CMakeFiles/serial_nrf52832_xxAA_s132_3.1.0.dir/__/__/mesh/access/src/access.c.obj
 .bss.m_metadata_stored
                0x20001bc5        0x1 examples/serial/CMakeFiles/serial_nrf52832_xxAA_s132_3.1.0.dir/__/__/mesh/access/src/access.c.obj
 *fill*         0x20001bc6        0x2 
 .bss.m_model_pool
                0x20001bc8       0x34 examples/serial/CMakeFiles/serial_nrf52832_xxAA_s132_3.1.0.dir/__/__/mesh/access/src/access.c.obj
 .bss.m_subscription_list_pool
                0x20001bfc        0x8 examples/serial/CMakeFiles/serial_nrf52832_xxAA_s132_3.1.0.dir/__/__/mesh/access/src/access.c.obj
 .bss.m_reliable
                0x20001c04       0x48 examples/serial/CMakeFiles/serial_nrf52832_xxAA_s132_3.1.0.dir/__/__/mesh/access/src/access_reliable.c.obj
 .bss.m_addr_nonvirtual_allocated
                0x20001c4c        0x4 examples/serial/CMakeFiles/serial_nrf52832_xxAA_s132_3.1.0.dir/__/__/mesh/access/src/device_state_manager.c.obj
 .bss.m_addr_nonvirtual_needs_flashing
                0x20001c50        0x4 examples/serial/CMakeFiles/serial_nrf52832_xxAA_s132_3.1.0.dir/__/__/mesh/access/src/device_state_manager.c.obj
 .bss.m_addr_unicast_allocated
                0x20001c54        0x4 examples/serial/CMakeFiles/serial_nrf52832_xxAA_s132_3.1.0.dir/__/__/mesh/access/src/device_state_manager.c.obj
 .bss.m_addr_unicast_needs_flashing
                0x20001c58        0x4 examples/serial/CMakeFiles/serial_nrf52832_xxAA_s132_3.1.0.dir/__/__/mesh/access/src/device_state_manager.c.obj
 .bss.m_addr_virtual_allocated
                0x20001c5c        0x4 examples/serial/CMakeFiles/serial_nrf52832_xxAA_s132_3.1.0.dir/__/__/mesh/access/src/device_state_manager.c.obj
 .bss.m_addr_virtual_needs_flashing
                0x20001c60        0x4 examples/serial/CMakeFiles/serial_nrf52832_xxAA_s132_3.1.0.dir/__/__/mesh/access/src/device_state_manager.c.obj
 .bss.m_addresses
                0x20001c64       0x40 examples/serial/CMakeFiles/serial_nrf52832_xxAA_s132_3.1.0.dir/__/__/mesh/access/src/device_state_manager.c.obj
 .bss.m_appkey_allocated
                0x20001ca4        0x4 examples/serial/CMakeFiles/serial_nrf52832_xxAA_s132_3.1.0.dir/__/__/mesh/access/src/device_state_manager.c.obj
 .bss.m_appkey_needs_flashing
                0x20001ca8        0x4 examples/serial/CMakeFiles/serial_nrf52832_xxAA_s132_3.1.0.dir/__/__/mesh/access/src/device_state_manager.c.obj
 .bss.m_appkeys
                0x20001cac      0x150 examples/serial/CMakeFiles/serial_nrf52832_xxAA_s132_3.1.0.dir/__/__/mesh/access/src/device_state_manager.c.obj
 .bss.m_devkey_allocated
                0x20001dfc        0x4 examples/serial/CMakeFiles/serial_nrf52832_xxAA_s132_3.1.0.dir/__/__/mesh/access/src/device_state_manager.c.obj
 .bss.m_devkey_needs_flashing
                0x20001e00        0x4 examples/serial/CMakeFiles/serial_nrf52832_xxAA_s132_3.1.0.dir/__/__/mesh/access/src/device_state_manager.c.obj
 .bss.m_devkeys
                0x20001e04       0x42 examples/serial/CMakeFiles/serial_nrf52832_xxAA_s132_3.1.0.dir/__/__/mesh/access/src/device_state_manager.c.obj
 .bss.m_flash_is_available
                0x20001e46        0x1 examples/serial/CMakeFiles/serial_nrf52832_xxAA_s132_3.1.0.dir/__/__/mesh/access/src/device_state_manager.c.obj
 *fill*         0x20001e47        0x1 
 .bss.m_flash_manager
                0x20001e48       0x24 examples/serial/CMakeFiles/serial_nrf52832_xxAA_s132_3.1.0.dir/__/__/mesh/access/src/device_state_manager.c.obj
 .bss.m_flash_mem_listener_update_all
                0x20001e6c       0x10 examples/serial/CMakeFiles/serial_nrf52832_xxAA_s132_3.1.0.dir/__/__/mesh/access/src/device_state_manager.c.obj
 .bss.m_has_primary_subnet
                0x20001e7c        0x1 examples/serial/CMakeFiles/serial_nrf52832_xxAA_s132_3.1.0.dir/__/__/mesh/access/src/device_state_manager.c.obj
 *fill*         0x20001e7d        0x1 
 .bss.m_local_unicast_addr
                0x20001e7e        0x4 examples/serial/CMakeFiles/serial_nrf52832_xxAA_s132_3.1.0.dir/__/__/mesh/access/src/device_state_manager.c.obj
 *fill*         0x20001e82        0x2 
 .bss.m_subnet_allocated
                0x20001e84        0x4 examples/serial/CMakeFiles/serial_nrf52832_xxAA_s132_3.1.0.dir/__/__/mesh/access/src/device_state_manager.c.obj
 .bss.m_subnet_needs_flashing
                0x20001e88        0x4 examples/serial/CMakeFiles/serial_nrf52832_xxAA_s132_3.1.0.dir/__/__/mesh/access/src/device_state_manager.c.obj
 .bss.m_subnets
                0x20001e8c      0x2b0 examples/serial/CMakeFiles/serial_nrf52832_xxAA_s132_3.1.0.dir/__/__/mesh/access/src/device_state_manager.c.obj
 .bss.m_virtual_addresses
                0x2000213c       0xa0 examples/serial/CMakeFiles/serial_nrf52832_xxAA_s132_3.1.0.dir/__/__/mesh/access/src/device_state_manager.c.obj
 .bss.m_can_receive
                0x200021dc        0x1 examples/serial/CMakeFiles/serial_nrf52832_xxAA_s132_3.1.0.dir/__/__/mesh/serial/src/serial_uart.c.obj
 *fill*         0x200021dd        0x3 
 .bss.m_char_rx_cb
                0x200021e0        0x4 examples/serial/CMakeFiles/serial_nrf52832_xxAA_s132_3.1.0.dir/__/__/mesh/serial/src/serial_uart.c.obj
 .bss.m_char_tx_cb
                0x200021e4        0x4 examples/serial/CMakeFiles/serial_nrf52832_xxAA_s132_3.1.0.dir/__/__/mesh/serial/src/serial_uart.c.obj
 .bss.m_cur_tx_packet_index
                0x200021e8        0x2 examples/serial/CMakeFiles/serial_nrf52832_xxAA_s132_3.1.0.dir/__/__/mesh/serial/src/serial_bearer.c.obj
 *fill*         0x200021ea        0x2 
 .bss.m_event_flag
                0x200021ec        0x4 examples/serial/CMakeFiles/serial_nrf52832_xxAA_s132_3.1.0.dir/__/__/mesh/serial/src/serial_bearer.c.obj
 .bss.m_ignore_rx_count
                0x200021f0        0x2 examples/serial/CMakeFiles/serial_nrf52832_xxAA_s132_3.1.0.dir/__/__/mesh/serial/src/serial_bearer.c.obj
 .bss.m_rx_buffer
                0x200021f2       0xd0 examples/serial/CMakeFiles/serial_nrf52832_xxAA_s132_3.1.0.dir/__/__/mesh/serial/src/serial_bearer.c.obj
 *fill*         0x200022c2        0x2 
 .bss.m_rx_packet_buf
                0x200022c4        0xc examples/serial/CMakeFiles/serial_nrf52832_xxAA_s132_3.1.0.dir/__/__/mesh/serial/src/serial_bearer.c.obj
 .bss.m_serial_state
                0x200022d0        0x1 examples/serial/CMakeFiles/serial_nrf52832_xxAA_s132_3.1.0.dir/__/__/mesh/serial/src/serial_bearer.c.obj
 *fill*         0x200022d1        0x1 
 .bss.m_stored_pac_len
                0x200022d2        0x2 examples/serial/CMakeFiles/serial_nrf52832_xxAA_s132_3.1.0.dir/__/__/mesh/serial/src/serial_bearer.c.obj
 .bss.m_tx_buffer
                0x200022d4       0xd0 examples/serial/CMakeFiles/serial_nrf52832_xxAA_s132_3.1.0.dir/__/__/mesh/serial/src/serial_bearer.c.obj
 .bss.m_tx_packet_buf
                0x200023a4        0xc examples/serial/CMakeFiles/serial_nrf52832_xxAA_s132_3.1.0.dir/__/__/mesh/serial/src/serial_bearer.c.obj
 .bss.mp_current_rx_packet
                0x200023b0        0x4 examples/serial/CMakeFiles/serial_nrf52832_xxAA_s132_3.1.0.dir/__/__/mesh/serial/src/serial_bearer.c.obj
 .bss.mp_current_tx_packet
                0x200023b4        0x4 examples/serial/CMakeFiles/serial_nrf52832_xxAA_s132_3.1.0.dir/__/__/mesh/serial/src/serial_bearer.c.obj
 .bss.rx_index.11019
                0x200023b8        0x2 examples/serial/CMakeFiles/serial_nrf52832_xxAA_s132_3.1.0.dir/__/__/mesh/serial/src/serial_bearer.c.obj
 .bss.m_cmd_handler_scheduled
                0x200023ba        0x1 examples/serial/CMakeFiles/serial_nrf52832_xxAA_s132_3.1.0.dir/__/__/mesh/serial/src/serial.c.obj
 .bss.m_state   0x200023bb        0x1 examples/serial/CMakeFiles/serial_nrf52832_xxAA_s132_3.1.0.dir/__/__/mesh/serial/src/serial.c.obj
 .bss.m_pb_adv_contexts
                0x200023bc      0x380 examples/serial/CMakeFiles/serial_nrf52832_xxAA_s132_3.1.0.dir/__/__/mesh/serial/src/serial_handler_prov.c.obj
 .bss.m_private_key
                0x2000273c       0x20 examples/serial/CMakeFiles/serial_nrf52832_xxAA_s132_3.1.0.dir/__/__/mesh/serial/src/serial_handler_prov.c.obj
 .bss.m_prov_contexts
                0x2000275c      0x260 examples/serial/CMakeFiles/serial_nrf52832_xxAA_s132_3.1.0.dir/__/__/mesh/serial/src/serial_handler_prov.c.obj
 .bss.m_provisioning_caps
                0x200029bc        0xb examples/serial/CMakeFiles/serial_nrf52832_xxAA_s132_3.1.0.dir/__/__/mesh/serial/src/serial_handler_prov.c.obj
 .bss.m_public_key
                0x200029c7       0x40 examples/serial/CMakeFiles/serial_nrf52832_xxAA_s132_3.1.0.dir/__/__/mesh/serial/src/serial_handler_prov.c.obj
 .bss.m_scanning_running
                0x20002a07        0x1 examples/serial/CMakeFiles/serial_nrf52832_xxAA_s132_3.1.0.dir/__/__/mesh/serial/src/serial_handler_prov.c.obj
 .bss.m_evt_handler
                0x20002a08        0x8 examples/serial/CMakeFiles/serial_nrf52832_xxAA_s132_3.1.0.dir/__/__/mesh/serial/src/serial_handler_dfu.c.obj
 .bss.m_evt_handler
                0x20002a10        0x8 examples/serial/CMakeFiles/serial_nrf52832_xxAA_s132_3.1.0.dir/__/__/mesh/serial/src/serial_handler_mesh.c.obj
 .bss.p_serial_evt.11178
                0x20002a18        0x4 examples/serial/CMakeFiles/serial_nrf52832_xxAA_s132_3.1.0.dir/__/__/mesh/serial/src/serial_handler_mesh.c.obj
 .bss.m_models_list
                0x20002a1c        0xc examples/serial/CMakeFiles/serial_nrf52832_xxAA_s132_3.1.0.dir/__/__/mesh/serial/src/serial_handler_models.c.obj
 .bss.m_beacons
                0x20002a28      0x134 examples/serial/CMakeFiles/serial_nrf52832_xxAA_s132_3.1.0.dir/__/__/mesh/serial/src/serial_handler_device.c.obj
 .bss.m_app_rx_cb
                0x20002b5c        0x4 examples/serial/CMakeFiles/serial_nrf52832_xxAA_s132_3.1.0.dir/__/__/mesh/serial/src/serial_handler_app.c.obj
 .bss.m_internal_event_fifo
                0x20002b60       0x14 mesh/core/libmesh_core_nrf52832_xxAA.a(internal_event.c.obj)
 .bss.m_internal_event_fifo_buffer
                0x20002b74      0x100 mesh/core/libmesh_core_nrf52832_xxAA.a(internal_event.c.obj)
 .bss.m_internal_event_initialized
                0x20002c74        0x1 mesh/core/libmesh_core_nrf52832_xxAA.a(internal_event.c.obj)
 *fill*         0x20002c75        0x3 
 .bss.m_report_cb
                0x20002c78        0x4 mesh/core/libmesh_core_nrf52832_xxAA.a(internal_event.c.obj)
 .bss.m_uuid    0x20002c7c       0x10 mesh/core/libmesh_core_nrf52832_xxAA.a(nrf_mesh_configure.c.obj)
 .bss.mp_evt_handlers_head
                0x20002c8c        0x4 mesh/core/libmesh_core_nrf52832_xxAA.a(event.c.obj)
 .bss.lock_count.9617
                0x20002c90        0x4 mesh/core/libmesh_core_nrf52832_xxAA.a(net_state.c.obj)
 .bss.m_flash_manager
                0x20002c94       0x24 mesh/core/libmesh_core_nrf52832_xxAA.a(net_state.c.obj)
 .bss.m_iv_update_timer
                0x20002cb8       0x18 mesh/core/libmesh_core_nrf52832_xxAA.a(net_state.c.obj)
 .bss.m_net_state
                0x20002cd0       0x14 mesh/core/libmesh_core_nrf52832_xxAA.a(net_state.c.obj)
 .bss.m_seqnum_allocation_in_progress
                0x20002ce4        0x1 mesh/core/libmesh_core_nrf52832_xxAA.a(net_state.c.obj)
 .bss.m_test_mode
                0x20002ce5        0x1 mesh/core/libmesh_core_nrf52832_xxAA.a(net_state.c.obj)
 .bss.m_is_enabled
                0x20002ce6        0x1 mesh/core/libmesh_core_nrf52832_xxAA.a(nrf_mesh.c.obj)
 .bss.m_is_initialized
                0x20002ce7        0x1 mesh/core/libmesh_core_nrf52832_xxAA.a(nrf_mesh.c.obj)
 .bss.m_rx_cb   0x20002ce8        0x4 mesh/core/libmesh_core_nrf52832_xxAA.a(nrf_mesh.c.obj)
 .bss.m_event_flag
                0x20002cec        0x4 mesh/core/libmesh_core_nrf52832_xxAA.a(timer_scheduler.c.obj)
 .bss.m_scheduler
                0x20002cf0       0x10 mesh/core/libmesh_core_nrf52832_xxAA.a(timer_scheduler.c.obj)
 .bss.m_attributes
                0x20002d00        0x3 mesh/core/libmesh_core_nrf52832_xxAA.a(timer.c.obj)
 *fill*         0x20002d03        0x1 
 .bss.m_callbacks
                0x20002d04        0xc mesh/core/libmesh_core_nrf52832_xxAA.a(timer.c.obj)
 .bss.m_is_in_ts
                0x20002d10        0x1 mesh/core/libmesh_core_nrf52832_xxAA.a(timer.c.obj)
 *fill*         0x20002d11        0x3 
 .bss.m_reference_time
                0x20002d14        0x4 mesh/core/libmesh_core_nrf52832_xxAA.a(timer.c.obj)
 .bss.m_timeouts
                0x20002d18        0xc mesh/core/libmesh_core_nrf52832_xxAA.a(timer.c.obj)
 .bss.m_timer_mut
                0x20002d24        0x4 mesh/core/libmesh_core_nrf52832_xxAA.a(timer.c.obj)
 .bss.m_ts_end_time
                0x20002d28        0x4 mesh/core/libmesh_core_nrf52832_xxAA.a(timer.c.obj)
 .bss.mp_ppi_tasks
                0x20002d2c        0xc mesh/core/libmesh_core_nrf52832_xxAA.a(timer.c.obj)
 .bss.m_current_time
                0x20002d38        0x4 mesh/core/libmesh_core_nrf52832_xxAA.a(ticker.c.obj)
 .bss.m_timer   0x20002d3c       0x18 mesh/core/libmesh_core_nrf52832_xxAA.a(ticker.c.obj)
 .bss.m_current_timeslot
                0x20002d54       0x1c mesh/core/libmesh_core_nrf52832_xxAA.a(timeslot.c.obj)
 .bss.m_lfclk_ppm
                0x20002d70        0x4 mesh/core/libmesh_core_nrf52832_xxAA.a(timeslot.c.obj)
 .bss.m_radio_request_earliest
                0x20002d74       0x10 mesh/core/libmesh_core_nrf52832_xxAA.a(timeslot.c.obj)
 .bss.m_state_lock
                0x20002d84        0x1 mesh/core/libmesh_core_nrf52832_xxAA.a(timeslot.c.obj)
 .bss.m_timeslot_forced_command
                0x20002d85        0x1 mesh/core/libmesh_core_nrf52832_xxAA.a(timeslot.c.obj)
 *fill*         0x20002d86        0x2 
 .bss.s_last_rtc_value.9081
                0x20002d88        0x8 mesh/core/libmesh_core_nrf52832_xxAA.a(timeslot.c.obj)
 .bss.m_bearer_event_fifo
                0x20002d90       0x14 mesh/core/libmesh_core_nrf52832_xxAA.a(bearer_event.c.obj)
 .bss.m_bearer_event_fifo_buffer
                0x20002da4      0x100 mesh/core/libmesh_core_nrf52832_xxAA.a(bearer_event.c.obj)
 .bss.m_critical
                0x20002ea4        0x4 mesh/core/libmesh_core_nrf52832_xxAA.a(bearer_event.c.obj)
 .bss.m_flag_count
                0x20002ea8        0x4 mesh/core/libmesh_core_nrf52832_xxAA.a(bearer_event.c.obj)
 .bss.m_flag_event_callbacks
                0x20002eac       0x20 mesh/core/libmesh_core_nrf52832_xxAA.a(bearer_event.c.obj)
 .bss.m_flags   0x20002ecc        0x4 mesh/core/libmesh_core_nrf52832_xxAA.a(bearer_event.c.obj)
 .bss.m_irq_priority
                0x20002ed0        0x1 mesh/core/libmesh_core_nrf52832_xxAA.a(bearer_event.c.obj)
 *fill*         0x20002ed1        0x3 
 .bss.m_sequential_event_queue
                0x20002ed4        0x8 mesh/core/libmesh_core_nrf52832_xxAA.a(bearer_event.c.obj)
 .bss.s_recursion_guard.9203
                0x20002edc        0x1 mesh/core/libmesh_core_nrf52832_xxAA.a(bearer_event.c.obj)
 *fill*         0x20002edd        0x3 
 .bss.m_relay_check_cb
                0x20002ee0        0x4 mesh/core/libmesh_core_nrf52832_xxAA.a(network.c.obj)
 .bss.m_relay_enable
                0x20002ee4        0x1 mesh/core/libmesh_core_nrf52832_xxAA.a(network.c.obj)
 *fill*         0x20002ee5        0x3 
 .bss.m_action_queue
                0x20002ee8        0xc mesh/core/libmesh_core_nrf52832_xxAA.a(flash_manager.c.obj)
 .bss.m_action_queue_buffer
                0x20002ef4      0x104 mesh/core/libmesh_core_nrf52832_xxAA.a(flash_manager.c.obj)
 .bss.m_action_state
                0x20002ff8        0x1 mesh/core/libmesh_core_nrf52832_xxAA.a(flash_manager.c.obj)
 *fill*         0x20002ff9        0x3 
 .bss.m_memory_listener_queue
                0x20002ffc        0x8 mesh/core/libmesh_core_nrf52832_xxAA.a(flash_manager.c.obj)
 .bss.m_processing_flag
                0x20003004        0x4 mesh/core/libmesh_core_nrf52832_xxAA.a(flash_manager.c.obj)
 .bss.m_queue_empty_cb
                0x20003008        0x4 mesh/core/libmesh_core_nrf52832_xxAA.a(flash_manager.c.obj)
 .bss.m_state   0x2000300c        0x1 mesh/core/libmesh_core_nrf52832_xxAA.a(flash_manager.c.obj)
 *fill*         0x2000300d        0x1 
 .bss.m_token   0x2000300e        0x2 mesh/core/libmesh_core_nrf52832_xxAA.a(flash_manager.c.obj)
 .bss.p_current.10931
                0x20003010        0x4 mesh/core/libmesh_core_nrf52832_xxAA.a(flash_manager.c.obj)
 .bss.result.10932
                0x20003014        0x1 mesh/core/libmesh_core_nrf52832_xxAA.a(flash_manager.c.obj)
 *fill*         0x20003015        0x3 
 .bss.m_adv_buffer
                0x20003018       0x68 mesh/core/libmesh_core_nrf52832_xxAA.a(beacon.c.obj)
 .bss.m_advertiser
                0x20003080       0x94 mesh/core/libmesh_core_nrf52832_xxAA.a(beacon.c.obj)
 .bss.m_bearers
                0x20003114        0x4 mesh/core/libmesh_core_nrf52832_xxAA.a(core_tx.c.obj)
 .bss.m_tx_complete_callback
                0x20003118        0x4 mesh/core/libmesh_core_nrf52832_xxAA.a(core_tx.c.obj)
 .bss.m_hb_core_evt_handler
                0x2000311c        0x8 mesh/core/libmesh_core_nrf52832_xxAA.a(heartbeat.c.obj)
 .bss.m_hb_pending_feat_msg
                0x20003124        0x1 mesh/core/libmesh_core_nrf52832_xxAA.a(heartbeat.c.obj)
 .bss.m_hb_pending_pub_msg
                0x20003125        0x1 mesh/core/libmesh_core_nrf52832_xxAA.a(heartbeat.c.obj)
 .bss.m_heartbeat_init_done
                0x20003126        0x1 mesh/core/libmesh_core_nrf52832_xxAA.a(heartbeat.c.obj)
 *fill*         0x20003127        0x1 
 .bss.m_heartbeat_subscription
                0x20003128       0x10 mesh/core/libmesh_core_nrf52832_xxAA.a(heartbeat.c.obj)
 .bss.m_publication_count_decrement_cb
                0x20003138        0x4 mesh/core/libmesh_core_nrf52832_xxAA.a(heartbeat.c.obj)
 .bss.m_publication_get_cb
                0x2000313c        0x4 mesh/core/libmesh_core_nrf52832_xxAA.a(heartbeat.c.obj)
 .bss.m_publication_timer
                0x20003140       0x1c mesh/core/libmesh_core_nrf52832_xxAA.a(heartbeat.c.obj)
 .bss.m_subscription_timer
                0x2000315c       0x18 mesh/core/libmesh_core_nrf52832_xxAA.a(heartbeat.c.obj)
 .bss.m_beacon_salt
                0x20003174       0x10 mesh/core/libmesh_core_nrf52832_xxAA.a(net_beacon.c.obj)
 .bss.m_enabled
                0x20003184        0x1 mesh/core/libmesh_core_nrf52832_xxAA.a(net_beacon.c.obj)
 *fill*         0x20003185        0x3 
 .bss.m_tx_event
                0x20003188       0x18 mesh/core/libmesh_core_nrf52832_xxAA.a(net_beacon.c.obj)
 .bss.m_adv_tx_count
                0x200031a0        0x8 mesh/core/libmesh_core_nrf52832_xxAA.a(core_tx_adv.c.obj)
 .bss.m_advertisers
                0x200031a8      0x128 mesh/core/libmesh_core_nrf52832_xxAA.a(core_tx_adv.c.obj)
 .bss.m_originator_adv_packet_buffer
                0x200032d0      0x100 mesh/core/libmesh_core_nrf52832_xxAA.a(core_tx_adv.c.obj)
 .bss.m_relay_adv_packet_buffer
                0x200033d0       0x80 mesh/core/libmesh_core_nrf52832_xxAA.a(core_tx_adv.c.obj)
 .bss.m_subscribers
                0x20003450        0x4 mesh/core/libmesh_core_nrf52832_xxAA.a(ad_listener.c.obj)
 .bss.m_adtype_filter
                0x20003454       0x38 mesh/core/libmesh_core_nrf52832_xxAA.a(ad_type_filter.c.obj)
 .bss.m_adv_prng
                0x2000348c       0x10 mesh/core/libmesh_core_nrf52832_xxAA.a(advertiser.c.obj)
 .bss.m_action_queue
                0x2000349c        0x8 mesh/core/libmesh_core_nrf52832_xxAA.a(bearer_handler.c.obj)
 .bss.m_end_time
                0x200034a4        0x4 mesh/core/libmesh_core_nrf52832_xxAA.a(bearer_handler.c.obj)
 .bss.m_scanner_is_active
                0x200034a8        0x1 mesh/core/libmesh_core_nrf52832_xxAA.a(bearer_handler.c.obj)
 .bss.m_stopped
                0x200034a9        0x1 mesh/core/libmesh_core_nrf52832_xxAA.a(bearer_handler.c.obj)
 *fill*         0x200034aa        0x2 
 .bss.mp_action
                0x200034ac        0x4 mesh/core/libmesh_core_nrf52832_xxAA.a(bearer_handler.c.obj)
 .bss.m_next_channel_index
                0x200034b0        0x1 mesh/core/libmesh_core_nrf52832_xxAA.a(broadcast.c.obj)
 *fill*         0x200034b1        0x3 
 .bss.m_accepted_amount
                0x200034b4        0x4 mesh/core/libmesh_core_nrf52832_xxAA.a(filter_engine.c.obj)
 .bss.m_filter_list_head
                0x200034b8        0x4 mesh/core/libmesh_core_nrf52832_xxAA.a(filter_engine.c.obj)
 .bss.m_scanner
                0x200034bc      0x28c mesh/core/libmesh_core_nrf52832_xxAA.a(scanner.c.obj)
 .bss.m_msg_cache
                0x20003748      0x100 mesh/core/libmesh_core_nrf52832_xxAA.a(msg_cache.c.obj)
 .bss.m_msg_cache_head
                0x20003848        0x4 mesh/core/libmesh_core_nrf52832_xxAA.a(msg_cache.c.obj)
 .bss.m_control_packet_consumer_count
                0x2000384c        0x4 mesh/core/libmesh_core_nrf52832_xxAA.a(transport.c.obj)
 .bss.m_control_packet_consumers
                0x20003850        0x8 mesh/core/libmesh_core_nrf52832_xxAA.a(transport.c.obj)
 .bss.m_sar_alloc
                0x20003858        0x4 mesh/core/libmesh_core_nrf52832_xxAA.a(transport.c.obj)
 .bss.m_sar_process_flag
                0x2000385c        0x4 mesh/core/libmesh_core_nrf52832_xxAA.a(transport.c.obj)
 .bss.m_sar_release
                0x20003860        0x4 mesh/core/libmesh_core_nrf52832_xxAA.a(transport.c.obj)
 .bss.m_sar_session_cache
                0x20003864       0x40 mesh/core/libmesh_core_nrf52832_xxAA.a(transport.c.obj)
 .bss.m_sar_session_cache_head
                0x200038a4        0x4 mesh/core/libmesh_core_nrf52832_xxAA.a(transport.c.obj)
 .bss.m_trs_config
                0x200038a8       0x18 mesh/core/libmesh_core_nrf52832_xxAA.a(transport.c.obj)
 .bss.m_trs_sar_sessions
                0x200038c0      0x1b0 mesh/core/libmesh_core_nrf52832_xxAA.a(transport.c.obj)
 .bss.m_defrag  0x20003a70       0x1c mesh/core/libmesh_core_nrf52832_xxAA.a(flash_manager_defrag.c.obj)
 .bss.m_token   0x20003a8c        0x2 mesh/core/libmesh_core_nrf52832_xxAA.a(flash_manager_defrag.c.obj)
 *fill*         0x20003a8e        0x2 
 .bss.mp_recovery_area
                0x20003a90        0x4 mesh/core/libmesh_core_nrf52832_xxAA.a(flash_manager_defrag.c.obj)
 .bss.p_null_ptr.10022
                0x20003a94        0x4 mesh/core/libmesh_core_nrf52832_xxAA.a(flash_manager_defrag.c.obj)
 .bss.m_pool    0x20003a98     0x1000 mesh/core/libmesh_core_nrf52832_xxAA.a(packet_mgr.c.obj)
 .bss.mp_free_head
                0x20004a98        0x4 mesh/core/libmesh_core_nrf52832_xxAA.a(packet_mgr.c.obj)
 .bss.m_event_flag
                0x20004a9c        0x4 mesh/core/libmesh_core_nrf52832_xxAA.a(mesh_flash.c.obj)
 .bss.m_suspended
                0x20004aa0        0x1 mesh/core/libmesh_core_nrf52832_xxAA.a(mesh_flash.c.obj)
 *fill*         0x20004aa1        0x3 
 .bss.m_users   0x20004aa4      0x228 mesh/core/libmesh_core_nrf52832_xxAA.a(mesh_flash.c.obj)
 .bss.m_128buf  0x20004ccc       0x10 mesh/core/libmesh_core_nrf52832_xxAA.a(aes_cmac.c.obj)
 .bss.m_subkey1
                0x20004cdc       0x10 mesh/core/libmesh_core_nrf52832_xxAA.a(aes_cmac.c.obj)
 .bss.m_subkey2
                0x20004cec       0x10 mesh/core/libmesh_core_nrf52832_xxAA.a(aes_cmac.c.obj)
 .bss.m_cache_full
                0x20004cfc        0x1 mesh/core/libmesh_core_nrf52832_xxAA.a(replay_cache.c.obj)
 .bss.m_cache_index
                0x20004cfd        0x1 mesh/core/libmesh_core_nrf52832_xxAA.a(replay_cache.c.obj)
 *fill*         0x20004cfe        0x2 
 .bss.m_replay_cache
                0x20004d00      0x200 mesh/core/libmesh_core_nrf52832_xxAA.a(replay_cache.c.obj)
 .bss._acDownBuffer
                0x20004f00       0x80 external/rtt/librtt_nrf52832_xxAA.a(SEGGER_RTT.c.obj)
 .bss._acUpBuffer
                0x20004f80      0x400 external/rtt/librtt_nrf52832_xxAA.a(SEGGER_RTT.c.obj)
 .bss.__malloc_free_list
                0x20005380        0x4 c:/a/gcc_arm/6/bin/../lib/gcc/arm-none-eabi/6.3.1/../../../../arm-none-eabi/lib/thumb/v7e-m/fpv4-sp/hard\libg_nano.a(lib_a-nano-mallocr.o)
                0x20005380                __malloc_free_list
 .bss.__malloc_sbrk_start
                0x20005384        0x4 c:/a/gcc_arm/6/bin/../lib/gcc/arm-none-eabi/6.3.1/../../../../arm-none-eabi/lib/thumb/v7e-m/fpv4-sp/hard\libg_nano.a(lib_a-nano-mallocr.o)
                0x20005384                __malloc_sbrk_start
 .bss.heap_end.5239
                0x20005388        0x4 c:/a/gcc_arm/6/bin/../lib/gcc/arm-none-eabi/6.3.1/../../../../arm-none-eabi/lib/thumb/v7e-m/fpv4-sp/hard\libnosys.a(sbrk.o)
 *(COMMON)
 COMMON         0x2000538c        0xc examples/serial/CMakeFiles/serial_nrf52832_xxAA_s132_3.1.0.dir/__/nrf_mesh_sdk.c.obj
                0x2000538c                nrf_nvic_state
 COMMON         0x20005398        0x4 mesh/core/libmesh_core_nrf52832_xxAA.a(nrf_mesh.c.obj)
                0x20005398                m_assertion_handler
 COMMON         0x2000539c       0x78 external/rtt/librtt_nrf52832_xxAA.a(SEGGER_RTT.c.obj)
                0x2000539c                _SEGGER_RTT
 COMMON         0x20005414        0x4 c:/a/gcc_arm/6/bin/../lib/gcc/arm-none-eabi/6.3.1/../../../../arm-none-eabi/lib/thumb/v7e-m/fpv4-sp/hard\libg_nano.a(lib_a-reent.o)
                0x20005414                errno
                0x20005418                . = ALIGN (0x4)
                0x20005418                __bss_end__ = .

.heap           0x20005418     0x2000
                0x20005418                __HeapBase = .
                0x20005418                __end__ = .
                0x20005418                PROVIDE (end, .)
 *(.heap*)
 .heap          0x20005418     0x2000 examples/serial/CMakeFiles/serial_nrf52832_xxAA_s132_3.1.0.dir/__/__/external/nRF5_SDK_14.2.0_17b948a/components/toolchain/gcc/gcc_startup_nrf52.S.obj
                0x20007418                __HeapLimit = .

.stack_dummy    0x20005418     0x2000
 *(.stack*)
 .stack         0x20005418     0x2000 examples/serial/CMakeFiles/serial_nrf52832_xxAA_s132_3.1.0.dir/__/__/external/nRF5_SDK_14.2.0_17b948a/components/toolchain/gcc/gcc_startup_nrf52.S.obj
                0x2000fd00                __StackTop = (ORIGIN (RAM) + LENGTH (RAM))
                0x2000dd00                __StackLimit = (__StackTop - SIZEOF (.stack_dummy))
                0x2000fd00                PROVIDE (__stack, __StackTop)
                0x00000001                ASSERT ((__StackLimit >= __HeapLimit), region RAM overflowed with stack)
                0x00000130                DataInitFlashUsed = (__bss_start__ - __data_start__)
                0x00012e68                CodeFlashUsed = (__etext - ORIGIN (FLASH))
                0x00012f98                TotalFlashUsed = (CodeFlashUsed + DataInitFlashUsed)
                0x00000001                ASSERT ((TotalFlashUsed <= LENGTH (FLASH)), region FLASH overflowed with .data and user data)
OUTPUT(examples\serial\serial_nrf52832_xxAA_s132_3.1.0.elf elf32-littlearm)

.ARM.attributes
                0x00000000       0x30
 .ARM.attributes
                0x00000000       0x22 c:/a/gcc_arm/6/bin/../lib/gcc/arm-none-eabi/6.3.1/thumb/v7e-m/fpv4-sp/hard/crti.o
 .ARM.attributes
                0x00000022       0x34 c:/a/gcc_arm/6/bin/../lib/gcc/arm-none-eabi/6.3.1/thumb/v7e-m/fpv4-sp/hard/crtbegin.o
 .ARM.attributes
                0x00000056       0x20 c:/a/gcc_arm/6/bin/../lib/gcc/arm-none-eabi/6.3.1/../../../../arm-none-eabi/lib/thumb/v7e-m/fpv4-sp/hard/crt0.o
 .ARM.attributes
                0x00000076       0x39 examples/serial/CMakeFiles/serial_nrf52832_xxAA_s132_3.1.0.dir/src/main.c.obj
 .ARM.attributes
                0x000000af       0x39 examples/serial/CMakeFiles/serial_nrf52832_xxAA_s132_3.1.0.dir/__/nrf_mesh_sdk.c.obj
 .ARM.attributes
                0x000000e8       0x39 examples/serial/CMakeFiles/serial_nrf52832_xxAA_s132_3.1.0.dir/__/__/mesh/prov/src/prov_provisioner.c.obj
 .ARM.attributes
                0x00000121       0x39 examples/serial/CMakeFiles/serial_nrf52832_xxAA_s132_3.1.0.dir/__/__/mesh/prov/src/prov_provisionee.c.obj
 .ARM.attributes
                0x0000015a       0x39 examples/serial/CMakeFiles/serial_nrf52832_xxAA_s132_3.1.0.dir/__/__/mesh/prov/src/nrf_mesh_prov.c.obj
 .ARM.attributes
                0x00000193       0x39 examples/serial/CMakeFiles/serial_nrf52832_xxAA_s132_3.1.0.dir/__/__/mesh/prov/src/provisioning.c.obj
 .ARM.attributes
                0x000001cc       0x39 examples/serial/CMakeFiles/serial_nrf52832_xxAA_s132_3.1.0.dir/__/__/mesh/prov/src/prov_beacon.c.obj
 .ARM.attributes
                0x00000205       0x39 examples/serial/CMakeFiles/serial_nrf52832_xxAA_s132_3.1.0.dir/__/__/mesh/prov/src/prov_utils.c.obj
 .ARM.attributes
                0x0000023e       0x39 examples/serial/CMakeFiles/serial_nrf52832_xxAA_s132_3.1.0.dir/__/__/mesh/prov/src/prov_bearer_adv.c.obj
 .ARM.attributes
                0x00000277       0x39 examples/serial/CMakeFiles/serial_nrf52832_xxAA_s132_3.1.0.dir/__/__/mesh/access/src/access_publish.c.obj
 .ARM.attributes
                0x000002b0       0x39 examples/serial/CMakeFiles/serial_nrf52832_xxAA_s132_3.1.0.dir/__/__/mesh/access/src/access.c.obj
 .ARM.attributes
                0x000002e9       0x39 examples/serial/CMakeFiles/serial_nrf52832_xxAA_s132_3.1.0.dir/__/__/mesh/access/src/access_reliable.c.obj
 .ARM.attributes
                0x00000322       0x39 examples/serial/CMakeFiles/serial_nrf52832_xxAA_s132_3.1.0.dir/__/__/mesh/access/src/device_state_manager.c.obj
 .ARM.attributes
                0x0000035b       0x39 examples/serial/CMakeFiles/serial_nrf52832_xxAA_s132_3.1.0.dir/__/__/mesh/serial/src/serial_uart.c.obj
 .ARM.attributes
                0x00000394       0x39 examples/serial/CMakeFiles/serial_nrf52832_xxAA_s132_3.1.0.dir/__/__/mesh/serial/src/serial_bearer.c.obj
 .ARM.attributes
                0x000003cd       0x39 examples/serial/CMakeFiles/serial_nrf52832_xxAA_s132_3.1.0.dir/__/__/mesh/serial/src/serial_handler_common.c.obj
 .ARM.attributes
                0x00000406       0x39 examples/serial/CMakeFiles/serial_nrf52832_xxAA_s132_3.1.0.dir/__/__/mesh/serial/src/serial_handler_access.c.obj
 .ARM.attributes
                0x0000043f       0x39 examples/serial/CMakeFiles/serial_nrf52832_xxAA_s132_3.1.0.dir/__/__/mesh/serial/src/serial_handler_config.c.obj
 .ARM.attributes
                0x00000478       0x39 examples/serial/CMakeFiles/serial_nrf52832_xxAA_s132_3.1.0.dir/__/__/mesh/serial/src/serial_handler_openmesh.c.obj
 .ARM.attributes
                0x000004b1       0x39 examples/serial/CMakeFiles/serial_nrf52832_xxAA_s132_3.1.0.dir/__/__/mesh/serial/src/serial.c.obj
 .ARM.attributes
                0x000004ea       0x39 examples/serial/CMakeFiles/serial_nrf52832_xxAA_s132_3.1.0.dir/__/__/mesh/serial/src/serial_handler_prov.c.obj
 .ARM.attributes
                0x00000523       0x39 examples/serial/CMakeFiles/serial_nrf52832_xxAA_s132_3.1.0.dir/__/__/mesh/serial/src/serial_handler_dfu.c.obj
 .ARM.attributes
                0x0000055c       0x39 examples/serial/CMakeFiles/serial_nrf52832_xxAA_s132_3.1.0.dir/__/__/mesh/serial/src/serial_handler_mesh.c.obj
 .ARM.attributes
                0x00000595       0x39 examples/serial/CMakeFiles/serial_nrf52832_xxAA_s132_3.1.0.dir/__/__/mesh/serial/src/serial_handler_models.c.obj
 .ARM.attributes
                0x000005ce       0x39 examples/serial/CMakeFiles/serial_nrf52832_xxAA_s132_3.1.0.dir/__/__/mesh/serial/src/serial_handler_device.c.obj
 .ARM.attributes
                0x00000607       0x39 examples/serial/CMakeFiles/serial_nrf52832_xxAA_s132_3.1.0.dir/__/__/mesh/serial/src/nrf_mesh_serial.c.obj
 .ARM.attributes
                0x00000640       0x39 examples/serial/CMakeFiles/serial_nrf52832_xxAA_s132_3.1.0.dir/__/__/mesh/serial/src/serial_handler_app.c.obj
 .ARM.attributes
                0x00000679       0x39 examples/serial/CMakeFiles/serial_nrf52832_xxAA_s132_3.1.0.dir/__/nrf_mesh_weak.c.obj
 .ARM.attributes
                0x000006b2       0x39 examples/serial/CMakeFiles/serial_nrf52832_xxAA_s132_3.1.0.dir/__/__/external/nRF5_SDK_14.2.0_17b948a/components/toolchain/system_nrf52.c.obj
 .ARM.attributes
                0x000006eb       0x20 examples/serial/CMakeFiles/serial_nrf52832_xxAA_s132_3.1.0.dir/__/__/external/nRF5_SDK_14.2.0_17b948a/components/toolchain/gcc/gcc_startup_nrf52.S.obj
 .ARM.attributes
                0x0000070b       0x39 mesh/core/libmesh_core_nrf52832_xxAA.a(internal_event.c.obj)
 .ARM.attributes
                0x00000744       0x39 mesh/core/libmesh_core_nrf52832_xxAA.a(nrf_mesh_configure.c.obj)
 .ARM.attributes
                0x0000077d       0x39 mesh/core/libmesh_core_nrf52832_xxAA.a(event.c.obj)
 .ARM.attributes
                0x000007b6       0x39 mesh/core/libmesh_core_nrf52832_xxAA.a(packet_buffer.c.obj)
 .ARM.attributes
                0x000007ef       0x39 mesh/core/libmesh_core_nrf52832_xxAA.a(fifo.c.obj)
 .ARM.attributes
                0x00000828       0x39 mesh/core/libmesh_core_nrf52832_xxAA.a(net_state.c.obj)
 .ARM.attributes
                0x00000861       0x39 mesh/core/libmesh_core_nrf52832_xxAA.a(nrf_mesh_utils.c.obj)
 .ARM.attributes
                0x0000089a       0x39 mesh/core/libmesh_core_nrf52832_xxAA.a(nrf_mesh.c.obj)
 .ARM.attributes
                0x000008d3       0x39 mesh/core/libmesh_core_nrf52832_xxAA.a(hal.c.obj)
 .ARM.attributes
                0x0000090c       0x39 mesh/core/libmesh_core_nrf52832_xxAA.a(timer_scheduler.c.obj)
 .ARM.attributes
                0x00000945       0x39 mesh/core/libmesh_core_nrf52832_xxAA.a(timer.c.obj)
 .ARM.attributes
                0x0000097e       0x39 mesh/core/libmesh_core_nrf52832_xxAA.a(ticker.c.obj)
 .ARM.attributes
                0x000009b7       0x39 mesh/core/libmesh_core_nrf52832_xxAA.a(rand.c.obj)
 .ARM.attributes
                0x000009f0       0x39 mesh/core/libmesh_core_nrf52832_xxAA.a(nrf_mesh_opt.c.obj)
 .ARM.attributes
                0x00000a29       0x39 mesh/core/libmesh_core_nrf52832_xxAA.a(timeslot.c.obj)
 .ARM.attributes
                0x00000a62       0x39 mesh/core/libmesh_core_nrf52832_xxAA.a(bearer_event.c.obj)
 .ARM.attributes
                0x00000a9b       0x39 mesh/core/libmesh_core_nrf52832_xxAA.a(enc.c.obj)
 .ARM.attributes
                0x00000ad4       0x39 mesh/core/libmesh_core_nrf52832_xxAA.a(network.c.obj)
 .ARM.attributes
                0x00000b0d       0x39 mesh/core/libmesh_core_nrf52832_xxAA.a(nrf_mesh_keygen.c.obj)
 .ARM.attributes
                0x00000b46       0x39 mesh/core/libmesh_core_nrf52832_xxAA.a(list.c.obj)
 .ARM.attributes
                0x00000b7f       0x39 mesh/core/libmesh_core_nrf52832_xxAA.a(log.c.obj)
 .ARM.attributes
                0x00000bb8       0x39 mesh/core/libmesh_core_nrf52832_xxAA.a(flash_manager.c.obj)
 .ARM.attributes
                0x00000bf1       0x39 mesh/core/libmesh_core_nrf52832_xxAA.a(ccm_soft.c.obj)
 .ARM.attributes
                0x00000c2a       0x39 mesh/core/libmesh_core_nrf52832_xxAA.a(beacon.c.obj)
 .ARM.attributes
                0x00000c63       0x39 mesh/core/libmesh_core_nrf52832_xxAA.a(flash_manager_internal.c.obj)
 .ARM.attributes
                0x00000c9c       0x39 mesh/core/libmesh_core_nrf52832_xxAA.a(core_tx.c.obj)
 .ARM.attributes
                0x00000cd5       0x39 mesh/core/libmesh_core_nrf52832_xxAA.a(heartbeat.c.obj)
 .ARM.attributes
                0x00000d0e       0x39 mesh/core/libmesh_core_nrf52832_xxAA.a(net_beacon.c.obj)
 .ARM.attributes
                0x00000d47       0x39 mesh/core/libmesh_core_nrf52832_xxAA.a(core_tx_adv.c.obj)
 .ARM.attributes
                0x00000d80       0x39 mesh/core/libmesh_core_nrf52832_xxAA.a(ad_listener.c.obj)
 .ARM.attributes
                0x00000db9       0x39 mesh/core/libmesh_core_nrf52832_xxAA.a(ad_type_filter.c.obj)
 .ARM.attributes
                0x00000df2       0x39 mesh/core/libmesh_core_nrf52832_xxAA.a(advertiser.c.obj)
 .ARM.attributes
                0x00000e2b       0x39 mesh/core/libmesh_core_nrf52832_xxAA.a(bearer_handler.c.obj)
 .ARM.attributes
                0x00000e64       0x39 mesh/core/libmesh_core_nrf52832_xxAA.a(broadcast.c.obj)
 .ARM.attributes
                0x00000e9d       0x39 mesh/core/libmesh_core_nrf52832_xxAA.a(filter_engine.c.obj)
 .ARM.attributes
                0x00000ed6       0x39 mesh/core/libmesh_core_nrf52832_xxAA.a(radio_config.c.obj)
 .ARM.attributes
                0x00000f0f       0x39 mesh/core/libmesh_core_nrf52832_xxAA.a(scanner.c.obj)
 .ARM.attributes
                0x00000f48       0x39 mesh/core/libmesh_core_nrf52832_xxAA.a(aes.c.obj)
 .ARM.attributes
                0x00000f81       0x39 mesh/core/libmesh_core_nrf52832_xxAA.a(msg_cache.c.obj)
 .ARM.attributes
                0x00000fba       0x39 mesh/core/libmesh_core_nrf52832_xxAA.a(transport.c.obj)
 .ARM.attributes
                0x00000ff3       0x39 mesh/core/libmesh_core_nrf52832_xxAA.a(flash_manager_defrag.c.obj)
 .ARM.attributes
                0x0000102c       0x39 mesh/core/libmesh_core_nrf52832_xxAA.a(packet_mgr.c.obj)
 .ARM.attributes
                0x00001065       0x39 mesh/core/libmesh_core_nrf52832_xxAA.a(mesh_flash.c.obj)
 .ARM.attributes
                0x0000109e       0x39 mesh/core/libmesh_core_nrf52832_xxAA.a(queue.c.obj)
 .ARM.attributes
                0x000010d7       0x39 mesh/core/libmesh_core_nrf52832_xxAA.a(aes_cmac.c.obj)
 .ARM.attributes
                0x00001110       0x39 mesh/core/libmesh_core_nrf52832_xxAA.a(msqueue.c.obj)
 .ARM.attributes
                0x00001149       0x39 mesh/core/libmesh_core_nrf52832_xxAA.a(replay_cache.c.obj)
 .ARM.attributes
                0x00001182       0x39 mesh/core/libmesh_core_nrf52832_xxAA.a(nrf_flash.c.obj)
 .ARM.attributes
                0x000011bb       0x39 external/micro-ecc/libuECC_nrf52832_xxAA.a(uECC.c.obj)
 .ARM.attributes
                0x000011f4       0x39 external/rtt/librtt_nrf52832_xxAA.a(SEGGER_RTT.c.obj)
 .ARM.attributes
                0x0000122d       0x39 external/rtt/librtt_nrf52832_xxAA.a(SEGGER_RTT_printf.c.obj)
 .ARM.attributes
                0x00001266       0x34 c:/a/gcc_arm/6/bin/../lib/gcc/arm-none-eabi/6.3.1/../../../../arm-none-eabi/lib/thumb/v7e-m/fpv4-sp/hard\libg_nano.a(lib_a-exit.o)
 .ARM.attributes
                0x0000129a       0x34 c:/a/gcc_arm/6/bin/../lib/gcc/arm-none-eabi/6.3.1/../../../../arm-none-eabi/lib/thumb/v7e-m/fpv4-sp/hard\libg_nano.a(lib_a-impure.o)
 .ARM.attributes
                0x000012ce       0x34 c:/a/gcc_arm/6/bin/../lib/gcc/arm-none-eabi/6.3.1/../../../../arm-none-eabi/lib/thumb/v7e-m/fpv4-sp/hard\libg_nano.a(lib_a-init.o)
 .ARM.attributes
                0x00001302       0x34 c:/a/gcc_arm/6/bin/../lib/gcc/arm-none-eabi/6.3.1/../../../../arm-none-eabi/lib/thumb/v7e-m/fpv4-sp/hard\libg_nano.a(lib_a-malloc.o)
 .ARM.attributes
                0x00001336       0x34 c:/a/gcc_arm/6/bin/../lib/gcc/arm-none-eabi/6.3.1/../../../../arm-none-eabi/lib/thumb/v7e-m/fpv4-sp/hard\libg_nano.a(lib_a-memcmp.o)
 .ARM.attributes
                0x0000136a       0x34 c:/a/gcc_arm/6/bin/../lib/gcc/arm-none-eabi/6.3.1/../../../../arm-none-eabi/lib/thumb/v7e-m/fpv4-sp/hard\libg_nano.a(lib_a-memcpy-stub.o)
 .ARM.attributes
                0x0000139e       0x34 c:/a/gcc_arm/6/bin/../lib/gcc/arm-none-eabi/6.3.1/../../../../arm-none-eabi/lib/thumb/v7e-m/fpv4-sp/hard\libg_nano.a(lib_a-memset.o)
 .ARM.attributes
                0x000013d2       0x34 c:/a/gcc_arm/6/bin/../lib/gcc/arm-none-eabi/6.3.1/../../../../arm-none-eabi/lib/thumb/v7e-m/fpv4-sp/hard\libg_nano.a(lib_a-nano-freer.o)
 .ARM.attributes
                0x00001406       0x34 c:/a/gcc_arm/6/bin/../lib/gcc/arm-none-eabi/6.3.1/../../../../arm-none-eabi/lib/thumb/v7e-m/fpv4-sp/hard\libg_nano.a(lib_a-nano-mallocr.o)
 .ARM.attributes
                0x0000143a       0x34 c:/a/gcc_arm/6/bin/../lib/gcc/arm-none-eabi/6.3.1/../../../../arm-none-eabi/lib/thumb/v7e-m/fpv4-sp/hard\libg_nano.a(lib_a-sbrkr.o)
 .ARM.attributes
                0x0000146e       0x34 c:/a/gcc_arm/6/bin/../lib/gcc/arm-none-eabi/6.3.1/../../../../arm-none-eabi/lib/thumb/v7e-m/fpv4-sp/hard\libg_nano.a(lib_a-strcpy.o)
 .ARM.attributes
                0x000014a2       0x1b c:/a/gcc_arm/6/bin/../lib/gcc/arm-none-eabi/6.3.1/../../../../arm-none-eabi/lib/thumb/v7e-m/fpv4-sp/hard\libg_nano.a(lib_a-strlen.o)
 .ARM.attributes
                0x000014bd       0x34 c:/a/gcc_arm/6/bin/../lib/gcc/arm-none-eabi/6.3.1/../../../../arm-none-eabi/lib/thumb/v7e-m/fpv4-sp/hard\libg_nano.a(lib_a-strrchr.o)
 .ARM.attributes
                0x000014f1       0x34 c:/a/gcc_arm/6/bin/../lib/gcc/arm-none-eabi/6.3.1/../../../../arm-none-eabi/lib/thumb/v7e-m/fpv4-sp/hard\libg_nano.a(lib_a-mlock.o)
 .ARM.attributes
                0x00001525       0x34 c:/a/gcc_arm/6/bin/../lib/gcc/arm-none-eabi/6.3.1/../../../../arm-none-eabi/lib/thumb/v7e-m/fpv4-sp/hard\libg_nano.a(lib_a-reent.o)
 .ARM.attributes
                0x00001559       0x34 c:/a/gcc_arm/6/bin/../lib/gcc/arm-none-eabi/6.3.1/../../../../arm-none-eabi/lib/thumb/v7e-m/fpv4-sp/hard\libg_nano.a(lib_a-strchr.o)
 .ARM.attributes
                0x0000158d       0x34 c:/a/gcc_arm/6/bin/../lib/gcc/arm-none-eabi/6.3.1/thumb/v7e-m/fpv4-sp/hard/crtend.o
 .ARM.attributes
                0x000015c1       0x22 c:/a/gcc_arm/6/bin/../lib/gcc/arm-none-eabi/6.3.1/thumb/v7e-m/fpv4-sp/hard/crtn.o
 .ARM.attributes
                0x000015e3       0x34 c:/a/gcc_arm/6/bin/../lib/gcc/arm-none-eabi/6.3.1/../../../../arm-none-eabi/lib/thumb/v7e-m/fpv4-sp/hard\libnosys.a(sbrk.o)
 .ARM.attributes
                0x00001617       0x34 c:/a/gcc_arm/6/bin/../lib/gcc/arm-none-eabi/6.3.1/../../../../arm-none-eabi/lib/thumb/v7e-m/fpv4-sp/hard\libnosys.a(_exit.o)

.comment        0x00000000       0x7f
 .comment       0x00000000       0x7f examples/serial/CMakeFiles/serial_nrf52832_xxAA_s132_3.1.0.dir/src/main.c.obj
                                 0x80 (size before relaxing)
 .comment       0x0000007f       0x80 examples/serial/CMakeFiles/serial_nrf52832_xxAA_s132_3.1.0.dir/__/nrf_mesh_sdk.c.obj
 .comment       0x0000007f       0x80 examples/serial/CMakeFiles/serial_nrf52832_xxAA_s132_3.1.0.dir/__/__/mesh/prov/src/prov_provisioner.c.obj
 .comment       0x0000007f       0x80 examples/serial/CMakeFiles/serial_nrf52832_xxAA_s132_3.1.0.dir/__/__/mesh/prov/src/prov_provisionee.c.obj
 .comment       0x0000007f       0x80 examples/serial/CMakeFiles/serial_nrf52832_xxAA_s132_3.1.0.dir/__/__/mesh/prov/src/nrf_mesh_prov.c.obj
 .comment       0x0000007f       0x80 examples/serial/CMakeFiles/serial_nrf52832_xxAA_s132_3.1.0.dir/__/__/mesh/prov/src/provisioning.c.obj
 .comment       0x0000007f       0x80 examples/serial/CMakeFiles/serial_nrf52832_xxAA_s132_3.1.0.dir/__/__/mesh/prov/src/prov_beacon.c.obj
 .comment       0x0000007f       0x80 examples/serial/CMakeFiles/serial_nrf52832_xxAA_s132_3.1.0.dir/__/__/mesh/prov/src/prov_utils.c.obj
 .comment       0x0000007f       0x80 examples/serial/CMakeFiles/serial_nrf52832_xxAA_s132_3.1.0.dir/__/__/mesh/prov/src/prov_bearer_adv.c.obj
 .comment       0x0000007f       0x80 examples/serial/CMakeFiles/serial_nrf52832_xxAA_s132_3.1.0.dir/__/__/mesh/access/src/access_publish.c.obj
 .comment       0x0000007f       0x80 examples/serial/CMakeFiles/serial_nrf52832_xxAA_s132_3.1.0.dir/__/__/mesh/access/src/access.c.obj
 .comment       0x0000007f       0x80 examples/serial/CMakeFiles/serial_nrf52832_xxAA_s132_3.1.0.dir/__/__/mesh/access/src/access_reliable.c.obj
 .comment       0x0000007f       0x80 examples/serial/CMakeFiles/serial_nrf52832_xxAA_s132_3.1.0.dir/__/__/mesh/access/src/device_state_manager.c.obj
 .comment       0x0000007f       0x80 examples/serial/CMakeFiles/serial_nrf52832_xxAA_s132_3.1.0.dir/__/__/mesh/serial/src/serial_uart.c.obj
 .comment       0x0000007f       0x80 examples/serial/CMakeFiles/serial_nrf52832_xxAA_s132_3.1.0.dir/__/__/mesh/serial/src/serial_bearer.c.obj
 .comment       0x0000007f       0x80 examples/serial/CMakeFiles/serial_nrf52832_xxAA_s132_3.1.0.dir/__/__/mesh/serial/src/serial_handler_common.c.obj
 .comment       0x0000007f       0x80 examples/serial/CMakeFiles/serial_nrf52832_xxAA_s132_3.1.0.dir/__/__/mesh/serial/src/serial_handler_access.c.obj
 .comment       0x0000007f       0x80 examples/serial/CMakeFiles/serial_nrf52832_xxAA_s132_3.1.0.dir/__/__/mesh/serial/src/serial_handler_config.c.obj
 .comment       0x0000007f       0x80 examples/serial/CMakeFiles/serial_nrf52832_xxAA_s132_3.1.0.dir/__/__/mesh/serial/src/serial_handler_openmesh.c.obj
 .comment       0x0000007f       0x80 examples/serial/CMakeFiles/serial_nrf52832_xxAA_s132_3.1.0.dir/__/__/mesh/serial/src/serial.c.obj
 .comment       0x0000007f       0x80 examples/serial/CMakeFiles/serial_nrf52832_xxAA_s132_3.1.0.dir/__/__/mesh/serial/src/serial_handler_prov.c.obj
 .comment       0x0000007f       0x80 examples/serial/CMakeFiles/serial_nrf52832_xxAA_s132_3.1.0.dir/__/__/mesh/serial/src/serial_handler_dfu.c.obj
 .comment       0x0000007f       0x80 examples/serial/CMakeFiles/serial_nrf52832_xxAA_s132_3.1.0.dir/__/__/mesh/serial/src/serial_handler_mesh.c.obj
 .comment       0x0000007f       0x80 examples/serial/CMakeFiles/serial_nrf52832_xxAA_s132_3.1.0.dir/__/__/mesh/serial/src/serial_handler_models.c.obj
 .comment       0x0000007f       0x80 examples/serial/CMakeFiles/serial_nrf52832_xxAA_s132_3.1.0.dir/__/__/mesh/serial/src/serial_handler_device.c.obj
 .comment       0x0000007f       0x80 examples/serial/CMakeFiles/serial_nrf52832_xxAA_s132_3.1.0.dir/__/__/mesh/serial/src/nrf_mesh_serial.c.obj
 .comment       0x0000007f       0x80 examples/serial/CMakeFiles/serial_nrf52832_xxAA_s132_3.1.0.dir/__/__/mesh/serial/src/serial_handler_app.c.obj
 .comment       0x0000007f       0x80 examples/serial/CMakeFiles/serial_nrf52832_xxAA_s132_3.1.0.dir/__/nrf_mesh_weak.c.obj
 .comment       0x0000007f       0x80 examples/serial/CMakeFiles/serial_nrf52832_xxAA_s132_3.1.0.dir/__/__/external/nRF5_SDK_14.2.0_17b948a/components/toolchain/system_nrf52.c.obj
 .comment       0x0000007f       0x80 mesh/core/libmesh_core_nrf52832_xxAA.a(internal_event.c.obj)
 .comment       0x0000007f       0x80 mesh/core/libmesh_core_nrf52832_xxAA.a(nrf_mesh_configure.c.obj)
 .comment       0x0000007f       0x80 mesh/core/libmesh_core_nrf52832_xxAA.a(event.c.obj)
 .comment       0x0000007f       0x80 mesh/core/libmesh_core_nrf52832_xxAA.a(packet_buffer.c.obj)
 .comment       0x0000007f       0x80 mesh/core/libmesh_core_nrf52832_xxAA.a(fifo.c.obj)
 .comment       0x0000007f       0x80 mesh/core/libmesh_core_nrf52832_xxAA.a(net_state.c.obj)
 .comment       0x0000007f       0x80 mesh/core/libmesh_core_nrf52832_xxAA.a(nrf_mesh_utils.c.obj)
 .comment       0x0000007f       0x80 mesh/core/libmesh_core_nrf52832_xxAA.a(nrf_mesh.c.obj)
 .comment       0x0000007f       0x80 mesh/core/libmesh_core_nrf52832_xxAA.a(hal.c.obj)
 .comment       0x0000007f       0x80 mesh/core/libmesh_core_nrf52832_xxAA.a(timer_scheduler.c.obj)
 .comment       0x0000007f       0x80 mesh/core/libmesh_core_nrf52832_xxAA.a(timer.c.obj)
 .comment       0x0000007f       0x80 mesh/core/libmesh_core_nrf52832_xxAA.a(ticker.c.obj)
 .comment       0x0000007f       0x80 mesh/core/libmesh_core_nrf52832_xxAA.a(rand.c.obj)
 .comment       0x0000007f       0x80 mesh/core/libmesh_core_nrf52832_xxAA.a(nrf_mesh_opt.c.obj)
 .comment       0x0000007f       0x80 mesh/core/libmesh_core_nrf52832_xxAA.a(timeslot.c.obj)
 .comment       0x0000007f       0x80 mesh/core/libmesh_core_nrf52832_xxAA.a(bearer_event.c.obj)
 .comment       0x0000007f       0x80 mesh/core/libmesh_core_nrf52832_xxAA.a(enc.c.obj)
 .comment       0x0000007f       0x80 mesh/core/libmesh_core_nrf52832_xxAA.a(network.c.obj)
 .comment       0x0000007f       0x80 mesh/core/libmesh_core_nrf52832_xxAA.a(nrf_mesh_keygen.c.obj)
 .comment       0x0000007f       0x80 mesh/core/libmesh_core_nrf52832_xxAA.a(list.c.obj)
 .comment       0x0000007f       0x80 mesh/core/libmesh_core_nrf52832_xxAA.a(log.c.obj)
 .comment       0x0000007f       0x80 mesh/core/libmesh_core_nrf52832_xxAA.a(flash_manager.c.obj)
 .comment       0x0000007f       0x80 mesh/core/libmesh_core_nrf52832_xxAA.a(ccm_soft.c.obj)
 .comment       0x0000007f       0x80 mesh/core/libmesh_core_nrf52832_xxAA.a(beacon.c.obj)
 .comment       0x0000007f       0x80 mesh/core/libmesh_core_nrf52832_xxAA.a(flash_manager_internal.c.obj)
 .comment       0x0000007f       0x80 mesh/core/libmesh_core_nrf52832_xxAA.a(core_tx.c.obj)
 .comment       0x0000007f       0x80 mesh/core/libmesh_core_nrf52832_xxAA.a(heartbeat.c.obj)
 .comment       0x0000007f       0x80 mesh/core/libmesh_core_nrf52832_xxAA.a(net_beacon.c.obj)
 .comment       0x0000007f       0x80 mesh/core/libmesh_core_nrf52832_xxAA.a(core_tx_adv.c.obj)
 .comment       0x0000007f       0x80 mesh/core/libmesh_core_nrf52832_xxAA.a(ad_listener.c.obj)
 .comment       0x0000007f       0x80 mesh/core/libmesh_core_nrf52832_xxAA.a(ad_type_filter.c.obj)
 .comment       0x0000007f       0x80 mesh/core/libmesh_core_nrf52832_xxAA.a(advertiser.c.obj)
 .comment       0x0000007f       0x80 mesh/core/libmesh_core_nrf52832_xxAA.a(bearer_handler.c.obj)
 .comment       0x0000007f       0x80 mesh/core/libmesh_core_nrf52832_xxAA.a(broadcast.c.obj)
 .comment       0x0000007f       0x80 mesh/core/libmesh_core_nrf52832_xxAA.a(filter_engine.c.obj)
 .comment       0x0000007f       0x80 mesh/core/libmesh_core_nrf52832_xxAA.a(radio_config.c.obj)
 .comment       0x0000007f       0x80 mesh/core/libmesh_core_nrf52832_xxAA.a(scanner.c.obj)
 .comment       0x0000007f       0x80 mesh/core/libmesh_core_nrf52832_xxAA.a(aes.c.obj)
 .comment       0x0000007f       0x80 mesh/core/libmesh_core_nrf52832_xxAA.a(msg_cache.c.obj)
 .comment       0x0000007f       0x80 mesh/core/libmesh_core_nrf52832_xxAA.a(transport.c.obj)
 .comment       0x0000007f       0x80 mesh/core/libmesh_core_nrf52832_xxAA.a(flash_manager_defrag.c.obj)
 .comment       0x0000007f       0x80 mesh/core/libmesh_core_nrf52832_xxAA.a(packet_mgr.c.obj)
 .comment       0x0000007f       0x80 mesh/core/libmesh_core_nrf52832_xxAA.a(mesh_flash.c.obj)
 .comment       0x0000007f       0x80 mesh/core/libmesh_core_nrf52832_xxAA.a(queue.c.obj)
 .comment       0x0000007f       0x80 mesh/core/libmesh_core_nrf52832_xxAA.a(aes_cmac.c.obj)
 .comment       0x0000007f       0x80 mesh/core/libmesh_core_nrf52832_xxAA.a(msqueue.c.obj)
 .comment       0x0000007f       0x80 mesh/core/libmesh_core_nrf52832_xxAA.a(replay_cache.c.obj)
 .comment       0x0000007f       0x80 mesh/core/libmesh_core_nrf52832_xxAA.a(nrf_flash.c.obj)
 .comment       0x0000007f       0x80 external/micro-ecc/libuECC_nrf52832_xxAA.a(uECC.c.obj)
 .comment       0x0000007f       0x80 external/rtt/librtt_nrf52832_xxAA.a(SEGGER_RTT.c.obj)
 .comment       0x0000007f       0x80 external/rtt/librtt_nrf52832_xxAA.a(SEGGER_RTT_printf.c.obj)

.debug_info     0x00000000    0x909e8
 .debug_info    0x00000000     0x1293 examples/serial/CMakeFiles/serial_nrf52832_xxAA_s132_3.1.0.dir/src/main.c.obj
 .debug_info    0x00001293     0x33aa examples/serial/CMakeFiles/serial_nrf52832_xxAA_s132_3.1.0.dir/__/nrf_mesh_sdk.c.obj
 .debug_info    0x0000463d     0x2348 examples/serial/CMakeFiles/serial_nrf52832_xxAA_s132_3.1.0.dir/__/__/mesh/prov/src/prov_provisioner.c.obj
 .debug_info    0x00006985     0x26c7 examples/serial/CMakeFiles/serial_nrf52832_xxAA_s132_3.1.0.dir/__/__/mesh/prov/src/prov_provisionee.c.obj
 .debug_info    0x0000904c     0x1be9 examples/serial/CMakeFiles/serial_nrf52832_xxAA_s132_3.1.0.dir/__/__/mesh/prov/src/nrf_mesh_prov.c.obj
 .debug_info    0x0000ac35     0x1588 examples/serial/CMakeFiles/serial_nrf52832_xxAA_s132_3.1.0.dir/__/__/mesh/prov/src/provisioning.c.obj
 .debug_info    0x0000c1bd     0x19a2 examples/serial/CMakeFiles/serial_nrf52832_xxAA_s132_3.1.0.dir/__/__/mesh/prov/src/prov_beacon.c.obj
 .debug_info    0x0000db5f     0x2029 examples/serial/CMakeFiles/serial_nrf52832_xxAA_s132_3.1.0.dir/__/__/mesh/prov/src/prov_utils.c.obj
 .debug_info    0x0000fb88     0x3963 examples/serial/CMakeFiles/serial_nrf52832_xxAA_s132_3.1.0.dir/__/__/mesh/prov/src/prov_bearer_adv.c.obj
 .debug_info    0x000134eb     0x112b examples/serial/CMakeFiles/serial_nrf52832_xxAA_s132_3.1.0.dir/__/__/mesh/access/src/access_publish.c.obj
 .debug_info    0x00014616     0x4438 examples/serial/CMakeFiles/serial_nrf52832_xxAA_s132_3.1.0.dir/__/__/mesh/access/src/access.c.obj
 .debug_info    0x00018a4e     0x154f examples/serial/CMakeFiles/serial_nrf52832_xxAA_s132_3.1.0.dir/__/__/mesh/access/src/access_reliable.c.obj
 .debug_info    0x00019f9d     0x5f34 examples/serial/CMakeFiles/serial_nrf52832_xxAA_s132_3.1.0.dir/__/__/mesh/access/src/device_state_manager.c.obj
 .debug_info    0x0001fed1     0x1278 examples/serial/CMakeFiles/serial_nrf52832_xxAA_s132_3.1.0.dir/__/__/mesh/serial/src/serial_uart.c.obj
 .debug_info    0x00021149     0x372b examples/serial/CMakeFiles/serial_nrf52832_xxAA_s132_3.1.0.dir/__/__/mesh/serial/src/serial_bearer.c.obj
 .debug_info    0x00024874     0x28c2 examples/serial/CMakeFiles/serial_nrf52832_xxAA_s132_3.1.0.dir/__/__/mesh/serial/src/serial_handler_common.c.obj
 .debug_info    0x00027136     0x32e1 examples/serial/CMakeFiles/serial_nrf52832_xxAA_s132_3.1.0.dir/__/__/mesh/serial/src/serial_handler_access.c.obj
 .debug_info    0x0002a417     0x28ad examples/serial/CMakeFiles/serial_nrf52832_xxAA_s132_3.1.0.dir/__/__/mesh/serial/src/serial_handler_config.c.obj
 .debug_info    0x0002ccc4     0x27db examples/serial/CMakeFiles/serial_nrf52832_xxAA_s132_3.1.0.dir/__/__/mesh/serial/src/serial_handler_openmesh.c.obj
 .debug_info    0x0002f49f     0x32e9 examples/serial/CMakeFiles/serial_nrf52832_xxAA_s132_3.1.0.dir/__/__/mesh/serial/src/serial.c.obj
 .debug_info    0x00032788     0x480d examples/serial/CMakeFiles/serial_nrf52832_xxAA_s132_3.1.0.dir/__/__/mesh/serial/src/serial_handler_prov.c.obj
 .debug_info    0x00036f95     0x3615 examples/serial/CMakeFiles/serial_nrf52832_xxAA_s132_3.1.0.dir/__/__/mesh/serial/src/serial_handler_dfu.c.obj
 .debug_info    0x0003a5aa     0x42ae examples/serial/CMakeFiles/serial_nrf52832_xxAA_s132_3.1.0.dir/__/__/mesh/serial/src/serial_handler_mesh.c.obj
 .debug_info    0x0003e858     0x2cae examples/serial/CMakeFiles/serial_nrf52832_xxAA_s132_3.1.0.dir/__/__/mesh/serial/src/serial_handler_models.c.obj
 .debug_info    0x00041506     0x35d4 examples/serial/CMakeFiles/serial_nrf52832_xxAA_s132_3.1.0.dir/__/__/mesh/serial/src/serial_handler_device.c.obj
 .debug_info    0x00044ada     0x2985 examples/serial/CMakeFiles/serial_nrf52832_xxAA_s132_3.1.0.dir/__/__/mesh/serial/src/nrf_mesh_serial.c.obj
 .debug_info    0x0004745f     0x27f6 examples/serial/CMakeFiles/serial_nrf52832_xxAA_s132_3.1.0.dir/__/__/mesh/serial/src/serial_handler_app.c.obj
 .debug_info    0x00049c55      0x94b examples/serial/CMakeFiles/serial_nrf52832_xxAA_s132_3.1.0.dir/__/nrf_mesh_weak.c.obj
 .debug_info    0x0004a5a0     0x10da examples/serial/CMakeFiles/serial_nrf52832_xxAA_s132_3.1.0.dir/__/__/external/nRF5_SDK_14.2.0_17b948a/components/toolchain/system_nrf52.c.obj
 .debug_info    0x0004b67a      0xc4e mesh/core/libmesh_core_nrf52832_xxAA.a(internal_event.c.obj)
 .debug_info    0x0004c2c8      0xd04 mesh/core/libmesh_core_nrf52832_xxAA.a(nrf_mesh_configure.c.obj)
 .debug_info    0x0004cfcc     0x1509 mesh/core/libmesh_core_nrf52832_xxAA.a(event.c.obj)
 .debug_info    0x0004e4d5     0x1d81 mesh/core/libmesh_core_nrf52832_xxAA.a(packet_buffer.c.obj)
 .debug_info    0x00050256      0xd0e mesh/core/libmesh_core_nrf52832_xxAA.a(fifo.c.obj)
 .debug_info    0x00050f64     0x23d7 mesh/core/libmesh_core_nrf52832_xxAA.a(net_state.c.obj)
 .debug_info    0x0005333b      0xa87 mesh/core/libmesh_core_nrf52832_xxAA.a(nrf_mesh_utils.c.obj)
 .debug_info    0x00053dc2     0x33f8 mesh/core/libmesh_core_nrf52832_xxAA.a(nrf_mesh.c.obj)
 .debug_info    0x000571ba      0x570 mesh/core/libmesh_core_nrf52832_xxAA.a(hal.c.obj)
 .debug_info    0x0005772a     0x102a mesh/core/libmesh_core_nrf52832_xxAA.a(timer_scheduler.c.obj)
 .debug_info    0x00058754      0xd79 mesh/core/libmesh_core_nrf52832_xxAA.a(timer.c.obj)
 .debug_info    0x000594cd      0x20b mesh/core/libmesh_core_nrf52832_xxAA.a(ticker.c.obj)
 .debug_info    0x000596d8      0x40f mesh/core/libmesh_core_nrf52832_xxAA.a(rand.c.obj)
 .debug_info    0x00059ae7      0xb1c mesh/core/libmesh_core_nrf52832_xxAA.a(nrf_mesh_opt.c.obj)
 .debug_info    0x0005a603     0x19fd mesh/core/libmesh_core_nrf52832_xxAA.a(timeslot.c.obj)
 .debug_info    0x0005c000     0x19d7 mesh/core/libmesh_core_nrf52832_xxAA.a(bearer_event.c.obj)
 .debug_info    0x0005d9d7     0x164f mesh/core/libmesh_core_nrf52832_xxAA.a(enc.c.obj)
 .debug_info    0x0005f026     0x2aee mesh/core/libmesh_core_nrf52832_xxAA.a(network.c.obj)
 .debug_info    0x00061b14      0x4c8 mesh/core/libmesh_core_nrf52832_xxAA.a(nrf_mesh_keygen.c.obj)
 .debug_info    0x00061fdc      0x48b mesh/core/libmesh_core_nrf52832_xxAA.a(list.c.obj)
 .debug_info    0x00062467      0xe28 mesh/core/libmesh_core_nrf52832_xxAA.a(log.c.obj)
 .debug_info    0x0006328f     0x320c mesh/core/libmesh_core_nrf52832_xxAA.a(flash_manager.c.obj)
 .debug_info    0x0006649b     0x10a3 mesh/core/libmesh_core_nrf52832_xxAA.a(ccm_soft.c.obj)
 .debug_info    0x0006753e     0x193b mesh/core/libmesh_core_nrf52832_xxAA.a(beacon.c.obj)
 .debug_info    0x00068e79      0xb99 mesh/core/libmesh_core_nrf52832_xxAA.a(flash_manager_internal.c.obj)
 .debug_info    0x00069a12      0xfb3 mesh/core/libmesh_core_nrf52832_xxAA.a(core_tx.c.obj)
 .debug_info    0x0006a9c5     0x219a mesh/core/libmesh_core_nrf52832_xxAA.a(heartbeat.c.obj)
 .debug_info    0x0006cb5f     0x1511 mesh/core/libmesh_core_nrf52832_xxAA.a(net_beacon.c.obj)
 .debug_info    0x0006e070     0x160b mesh/core/libmesh_core_nrf52832_xxAA.a(core_tx_adv.c.obj)
 .debug_info    0x0006f67b     0x1118 mesh/core/libmesh_core_nrf52832_xxAA.a(ad_listener.c.obj)
 .debug_info    0x00070793      0xfcd mesh/core/libmesh_core_nrf52832_xxAA.a(ad_type_filter.c.obj)
 .debug_info    0x00071760     0x2448 mesh/core/libmesh_core_nrf52832_xxAA.a(advertiser.c.obj)
 .debug_info    0x00073ba8     0x18f8 mesh/core/libmesh_core_nrf52832_xxAA.a(bearer_handler.c.obj)
 .debug_info    0x000754a0     0x1963 mesh/core/libmesh_core_nrf52832_xxAA.a(broadcast.c.obj)
 .debug_info    0x00076e03      0xcf4 mesh/core/libmesh_core_nrf52832_xxAA.a(filter_engine.c.obj)
 .debug_info    0x00077af7      0x871 mesh/core/libmesh_core_nrf52832_xxAA.a(radio_config.c.obj)
 .debug_info    0x00078368     0x25aa mesh/core/libmesh_core_nrf52832_xxAA.a(scanner.c.obj)
 .debug_info    0x0007a912      0xbcc mesh/core/libmesh_core_nrf52832_xxAA.a(aes.c.obj)
 .debug_info    0x0007b4de      0xa81 mesh/core/libmesh_core_nrf52832_xxAA.a(msg_cache.c.obj)
 .debug_info    0x0007bf5f     0x54fa mesh/core/libmesh_core_nrf52832_xxAA.a(transport.c.obj)
 .debug_info    0x00081459     0x234f mesh/core/libmesh_core_nrf52832_xxAA.a(flash_manager_defrag.c.obj)
 .debug_info    0x000837a8     0x115b mesh/core/libmesh_core_nrf52832_xxAA.a(packet_mgr.c.obj)
 .debug_info    0x00084903     0x1887 mesh/core/libmesh_core_nrf52832_xxAA.a(mesh_flash.c.obj)
 .debug_info    0x0008618a      0xaf2 mesh/core/libmesh_core_nrf52832_xxAA.a(queue.c.obj)
 .debug_info    0x00086c7c      0xe48 mesh/core/libmesh_core_nrf52832_xxAA.a(aes_cmac.c.obj)
 .debug_info    0x00087ac4      0xd08 mesh/core/libmesh_core_nrf52832_xxAA.a(msqueue.c.obj)
 .debug_info    0x000887cc      0xaeb mesh/core/libmesh_core_nrf52832_xxAA.a(replay_cache.c.obj)
 .debug_info    0x000892b7      0xb47 mesh/core/libmesh_core_nrf52832_xxAA.a(nrf_flash.c.obj)
 .debug_info    0x00089dfe     0x4511 external/micro-ecc/libuECC_nrf52832_xxAA.a(uECC.c.obj)
 .debug_info    0x0008e30f     0x1818 external/rtt/librtt_nrf52832_xxAA.a(SEGGER_RTT.c.obj)
 .debug_info    0x0008fb27      0xec1 external/rtt/librtt_nrf52832_xxAA.a(SEGGER_RTT_printf.c.obj)

.debug_abbrev   0x00000000    0x11316
 .debug_abbrev  0x00000000      0x357 examples/serial/CMakeFiles/serial_nrf52832_xxAA_s132_3.1.0.dir/src/main.c.obj
 .debug_abbrev  0x00000357      0x4aa examples/serial/CMakeFiles/serial_nrf52832_xxAA_s132_3.1.0.dir/__/nrf_mesh_sdk.c.obj
 .debug_abbrev  0x00000801      0x3dd examples/serial/CMakeFiles/serial_nrf52832_xxAA_s132_3.1.0.dir/__/__/mesh/prov/src/prov_provisioner.c.obj
 .debug_abbrev  0x00000bde      0x476 examples/serial/CMakeFiles/serial_nrf52832_xxAA_s132_3.1.0.dir/__/__/mesh/prov/src/prov_provisionee.c.obj
 .debug_abbrev  0x00001054      0x335 examples/serial/CMakeFiles/serial_nrf52832_xxAA_s132_3.1.0.dir/__/__/mesh/prov/src/nrf_mesh_prov.c.obj
 .debug_abbrev  0x00001389      0x29c examples/serial/CMakeFiles/serial_nrf52832_xxAA_s132_3.1.0.dir/__/__/mesh/prov/src/provisioning.c.obj
 .debug_abbrev  0x00001625      0x2c8 examples/serial/CMakeFiles/serial_nrf52832_xxAA_s132_3.1.0.dir/__/__/mesh/prov/src/prov_beacon.c.obj
 .debug_abbrev  0x000018ed      0x3d4 examples/serial/CMakeFiles/serial_nrf52832_xxAA_s132_3.1.0.dir/__/__/mesh/prov/src/prov_utils.c.obj
 .debug_abbrev  0x00001cc1      0x50e examples/serial/CMakeFiles/serial_nrf52832_xxAA_s132_3.1.0.dir/__/__/mesh/prov/src/prov_bearer_adv.c.obj
 .debug_abbrev  0x000021cf      0x460 examples/serial/CMakeFiles/serial_nrf52832_xxAA_s132_3.1.0.dir/__/__/mesh/access/src/access_publish.c.obj
 .debug_abbrev  0x0000262f      0x699 examples/serial/CMakeFiles/serial_nrf52832_xxAA_s132_3.1.0.dir/__/__/mesh/access/src/access.c.obj
 .debug_abbrev  0x00002cc8      0x445 examples/serial/CMakeFiles/serial_nrf52832_xxAA_s132_3.1.0.dir/__/__/mesh/access/src/access_reliable.c.obj
 .debug_abbrev  0x0000310d      0x638 examples/serial/CMakeFiles/serial_nrf52832_xxAA_s132_3.1.0.dir/__/__/mesh/access/src/device_state_manager.c.obj
 .debug_abbrev  0x00003745      0x2c1 examples/serial/CMakeFiles/serial_nrf52832_xxAA_s132_3.1.0.dir/__/__/mesh/serial/src/serial_uart.c.obj
 .debug_abbrev  0x00003a06      0x4df examples/serial/CMakeFiles/serial_nrf52832_xxAA_s132_3.1.0.dir/__/__/mesh/serial/src/serial_bearer.c.obj
 .debug_abbrev  0x00003ee5      0x24f examples/serial/CMakeFiles/serial_nrf52832_xxAA_s132_3.1.0.dir/__/__/mesh/serial/src/serial_handler_common.c.obj
 .debug_abbrev  0x00004134      0x2cb examples/serial/CMakeFiles/serial_nrf52832_xxAA_s132_3.1.0.dir/__/__/mesh/serial/src/serial_handler_access.c.obj
 .debug_abbrev  0x000043ff      0x28f examples/serial/CMakeFiles/serial_nrf52832_xxAA_s132_3.1.0.dir/__/__/mesh/serial/src/serial_handler_config.c.obj
 .debug_abbrev  0x0000468e      0x245 examples/serial/CMakeFiles/serial_nrf52832_xxAA_s132_3.1.0.dir/__/__/mesh/serial/src/serial_handler_openmesh.c.obj
 .debug_abbrev  0x000048d3      0x399 examples/serial/CMakeFiles/serial_nrf52832_xxAA_s132_3.1.0.dir/__/__/mesh/serial/src/serial.c.obj
 .debug_abbrev  0x00004c6c      0x3d0 examples/serial/CMakeFiles/serial_nrf52832_xxAA_s132_3.1.0.dir/__/__/mesh/serial/src/serial_handler_prov.c.obj
 .debug_abbrev  0x0000503c      0x32c examples/serial/CMakeFiles/serial_nrf52832_xxAA_s132_3.1.0.dir/__/__/mesh/serial/src/serial_handler_dfu.c.obj
 .debug_abbrev  0x00005368      0x3e2 examples/serial/CMakeFiles/serial_nrf52832_xxAA_s132_3.1.0.dir/__/__/mesh/serial/src/serial_handler_mesh.c.obj
 .debug_abbrev  0x0000574a      0x325 examples/serial/CMakeFiles/serial_nrf52832_xxAA_s132_3.1.0.dir/__/__/mesh/serial/src/serial_handler_models.c.obj
 .debug_abbrev  0x00005a6f      0x396 examples/serial/CMakeFiles/serial_nrf52832_xxAA_s132_3.1.0.dir/__/__/mesh/serial/src/serial_handler_device.c.obj
 .debug_abbrev  0x00005e05      0x2a2 examples/serial/CMakeFiles/serial_nrf52832_xxAA_s132_3.1.0.dir/__/__/mesh/serial/src/nrf_mesh_serial.c.obj
 .debug_abbrev  0x000060a7      0x23c examples/serial/CMakeFiles/serial_nrf52832_xxAA_s132_3.1.0.dir/__/__/mesh/serial/src/serial_handler_app.c.obj
 .debug_abbrev  0x000062e3      0x1ae examples/serial/CMakeFiles/serial_nrf52832_xxAA_s132_3.1.0.dir/__/nrf_mesh_weak.c.obj
 .debug_abbrev  0x00006491      0x202 examples/serial/CMakeFiles/serial_nrf52832_xxAA_s132_3.1.0.dir/__/__/external/nRF5_SDK_14.2.0_17b948a/components/toolchain/system_nrf52.c.obj
 .debug_abbrev  0x00006693      0x26d mesh/core/libmesh_core_nrf52832_xxAA.a(internal_event.c.obj)
 .debug_abbrev  0x00006900      0x24b mesh/core/libmesh_core_nrf52832_xxAA.a(nrf_mesh_configure.c.obj)
 .debug_abbrev  0x00006b4b      0x2a2 mesh/core/libmesh_core_nrf52832_xxAA.a(event.c.obj)
 .debug_abbrev  0x00006ded      0x49a mesh/core/libmesh_core_nrf52832_xxAA.a(packet_buffer.c.obj)
 .debug_abbrev  0x00007287      0x301 mesh/core/libmesh_core_nrf52832_xxAA.a(fifo.c.obj)
 .debug_abbrev  0x00007588      0x55b mesh/core/libmesh_core_nrf52832_xxAA.a(net_state.c.obj)
 .debug_abbrev  0x00007ae3      0x25a mesh/core/libmesh_core_nrf52832_xxAA.a(nrf_mesh_utils.c.obj)
 .debug_abbrev  0x00007d3d      0x467 mesh/core/libmesh_core_nrf52832_xxAA.a(nrf_mesh.c.obj)
 .debug_abbrev  0x000081a4      0x204 mesh/core/libmesh_core_nrf52832_xxAA.a(hal.c.obj)
 .debug_abbrev  0x000083a8      0x3bf mesh/core/libmesh_core_nrf52832_xxAA.a(timer_scheduler.c.obj)
 .debug_abbrev  0x00008767      0x346 mesh/core/libmesh_core_nrf52832_xxAA.a(timer.c.obj)
 .debug_abbrev  0x00008aad      0x152 mesh/core/libmesh_core_nrf52832_xxAA.a(ticker.c.obj)
 .debug_abbrev  0x00008bff      0x1d2 mesh/core/libmesh_core_nrf52832_xxAA.a(rand.c.obj)
 .debug_abbrev  0x00008dd1      0x24a mesh/core/libmesh_core_nrf52832_xxAA.a(nrf_mesh_opt.c.obj)
 .debug_abbrev  0x0000901b      0x4db mesh/core/libmesh_core_nrf52832_xxAA.a(timeslot.c.obj)
 .debug_abbrev  0x000094f6      0x4b3 mesh/core/libmesh_core_nrf52832_xxAA.a(bearer_event.c.obj)
 .debug_abbrev  0x000099a9      0x37e mesh/core/libmesh_core_nrf52832_xxAA.a(enc.c.obj)
 .debug_abbrev  0x00009d27      0x52c mesh/core/libmesh_core_nrf52832_xxAA.a(network.c.obj)
 .debug_abbrev  0x0000a253      0x163 mesh/core/libmesh_core_nrf52832_xxAA.a(nrf_mesh_keygen.c.obj)
 .debug_abbrev  0x0000a3b6      0x18e mesh/core/libmesh_core_nrf52832_xxAA.a(list.c.obj)
 .debug_abbrev  0x0000a544      0x24e mesh/core/libmesh_core_nrf52832_xxAA.a(log.c.obj)
 .debug_abbrev  0x0000a792      0x5c2 mesh/core/libmesh_core_nrf52832_xxAA.a(flash_manager.c.obj)
 .debug_abbrev  0x0000ad54      0x2b3 mesh/core/libmesh_core_nrf52832_xxAA.a(ccm_soft.c.obj)
 .debug_abbrev  0x0000b007      0x38c mesh/core/libmesh_core_nrf52832_xxAA.a(beacon.c.obj)
 .debug_abbrev  0x0000b393      0x28a mesh/core/libmesh_core_nrf52832_xxAA.a(flash_manager_internal.c.obj)
 .debug_abbrev  0x0000b61d      0x32c mesh/core/libmesh_core_nrf52832_xxAA.a(core_tx.c.obj)
 .debug_abbrev  0x0000b949      0x4c9 mesh/core/libmesh_core_nrf52832_xxAA.a(heartbeat.c.obj)
 .debug_abbrev  0x0000be12      0x3cc mesh/core/libmesh_core_nrf52832_xxAA.a(net_beacon.c.obj)
 .debug_abbrev  0x0000c1de      0x32c mesh/core/libmesh_core_nrf52832_xxAA.a(core_tx_adv.c.obj)
 .debug_abbrev  0x0000c50a      0x341 mesh/core/libmesh_core_nrf52832_xxAA.a(ad_listener.c.obj)
 .debug_abbrev  0x0000c84b      0x377 mesh/core/libmesh_core_nrf52832_xxAA.a(ad_type_filter.c.obj)
 .debug_abbrev  0x0000cbc2      0x4fe mesh/core/libmesh_core_nrf52832_xxAA.a(advertiser.c.obj)
 .debug_abbrev  0x0000d0c0      0x40d mesh/core/libmesh_core_nrf52832_xxAA.a(bearer_handler.c.obj)
 .debug_abbrev  0x0000d4cd      0x3b4 mesh/core/libmesh_core_nrf52832_xxAA.a(broadcast.c.obj)
 .debug_abbrev  0x0000d881      0x299 mesh/core/libmesh_core_nrf52832_xxAA.a(filter_engine.c.obj)
 .debug_abbrev  0x0000db1a      0x1d9 mesh/core/libmesh_core_nrf52832_xxAA.a(radio_config.c.obj)
 .debug_abbrev  0x0000dcf3      0x582 mesh/core/libmesh_core_nrf52832_xxAA.a(scanner.c.obj)
 .debug_abbrev  0x0000e275      0x264 mesh/core/libmesh_core_nrf52832_xxAA.a(aes.c.obj)
 .debug_abbrev  0x0000e4d9      0x25d mesh/core/libmesh_core_nrf52832_xxAA.a(msg_cache.c.obj)
 .debug_abbrev  0x0000e736      0x629 mesh/core/libmesh_core_nrf52832_xxAA.a(transport.c.obj)
 .debug_abbrev  0x0000ed5f      0x558 mesh/core/libmesh_core_nrf52832_xxAA.a(flash_manager_defrag.c.obj)
 .debug_abbrev  0x0000f2b7      0x3d1 mesh/core/libmesh_core_nrf52832_xxAA.a(packet_mgr.c.obj)
 .debug_abbrev  0x0000f688      0x478 mesh/core/libmesh_core_nrf52832_xxAA.a(mesh_flash.c.obj)
 .debug_abbrev  0x0000fb00      0x227 mesh/core/libmesh_core_nrf52832_xxAA.a(queue.c.obj)
 .debug_abbrev  0x0000fd27      0x332 mesh/core/libmesh_core_nrf52832_xxAA.a(aes_cmac.c.obj)
 .debug_abbrev  0x00010059      0x29c mesh/core/libmesh_core_nrf52832_xxAA.a(msqueue.c.obj)
 .debug_abbrev  0x000102f5      0x277 mesh/core/libmesh_core_nrf52832_xxAA.a(replay_cache.c.obj)
 .debug_abbrev  0x0001056c      0x21f mesh/core/libmesh_core_nrf52832_xxAA.a(nrf_flash.c.obj)
 .debug_abbrev  0x0001078b      0x4b4 external/micro-ecc/libuECC_nrf52832_xxAA.a(uECC.c.obj)
 .debug_abbrev  0x00010c3f      0x3a9 external/rtt/librtt_nrf52832_xxAA.a(SEGGER_RTT.c.obj)
 .debug_abbrev  0x00010fe8      0x32e external/rtt/librtt_nrf52832_xxAA.a(SEGGER_RTT_printf.c.obj)

.debug_loc      0x00000000    0x21aa7
 .debug_loc     0x00000000       0xcf examples/serial/CMakeFiles/serial_nrf52832_xxAA_s132_3.1.0.dir/src/main.c.obj
 .debug_loc     0x000000cf      0x351 examples/serial/CMakeFiles/serial_nrf52832_xxAA_s132_3.1.0.dir/__/nrf_mesh_sdk.c.obj
 .debug_loc     0x00000420      0x6a4 examples/serial/CMakeFiles/serial_nrf52832_xxAA_s132_3.1.0.dir/__/__/mesh/prov/src/prov_provisioner.c.obj
 .debug_loc     0x00000ac4      0x6ad examples/serial/CMakeFiles/serial_nrf52832_xxAA_s132_3.1.0.dir/__/__/mesh/prov/src/prov_provisionee.c.obj
 .debug_loc     0x00001171      0x7c0 examples/serial/CMakeFiles/serial_nrf52832_xxAA_s132_3.1.0.dir/__/__/mesh/prov/src/nrf_mesh_prov.c.obj
 .debug_loc     0x00001931      0x4e0 examples/serial/CMakeFiles/serial_nrf52832_xxAA_s132_3.1.0.dir/__/__/mesh/prov/src/provisioning.c.obj
 .debug_loc     0x00001e11      0x1cd examples/serial/CMakeFiles/serial_nrf52832_xxAA_s132_3.1.0.dir/__/__/mesh/prov/src/prov_beacon.c.obj
 .debug_loc     0x00001fde      0x42c examples/serial/CMakeFiles/serial_nrf52832_xxAA_s132_3.1.0.dir/__/__/mesh/prov/src/prov_utils.c.obj
 .debug_loc     0x0000240a     0x175a examples/serial/CMakeFiles/serial_nrf52832_xxAA_s132_3.1.0.dir/__/__/mesh/prov/src/prov_bearer_adv.c.obj
 .debug_loc     0x00003b64      0x577 examples/serial/CMakeFiles/serial_nrf52832_xxAA_s132_3.1.0.dir/__/__/mesh/access/src/access_publish.c.obj
 .debug_loc     0x000040db     0x20e6 examples/serial/CMakeFiles/serial_nrf52832_xxAA_s132_3.1.0.dir/__/__/mesh/access/src/access.c.obj
 .debug_loc     0x000061c1      0x748 examples/serial/CMakeFiles/serial_nrf52832_xxAA_s132_3.1.0.dir/__/__/mesh/access/src/access_reliable.c.obj
 .debug_loc     0x00006909     0x3bd5 examples/serial/CMakeFiles/serial_nrf52832_xxAA_s132_3.1.0.dir/__/__/mesh/access/src/device_state_manager.c.obj
 .debug_loc     0x0000a4de       0xa2 examples/serial/CMakeFiles/serial_nrf52832_xxAA_s132_3.1.0.dir/__/__/mesh/serial/src/serial_uart.c.obj
 .debug_loc     0x0000a580      0x428 examples/serial/CMakeFiles/serial_nrf52832_xxAA_s132_3.1.0.dir/__/__/mesh/serial/src/serial_bearer.c.obj
 .debug_loc     0x0000a9a8      0x1f1 examples/serial/CMakeFiles/serial_nrf52832_xxAA_s132_3.1.0.dir/__/__/mesh/serial/src/serial_handler_common.c.obj
 .debug_loc     0x0000ab99      0x75e examples/serial/CMakeFiles/serial_nrf52832_xxAA_s132_3.1.0.dir/__/__/mesh/serial/src/serial_handler_access.c.obj
 .debug_loc     0x0000b2f7       0x3c examples/serial/CMakeFiles/serial_nrf52832_xxAA_s132_3.1.0.dir/__/__/mesh/serial/src/serial_handler_config.c.obj
 .debug_loc     0x0000b333       0x4a examples/serial/CMakeFiles/serial_nrf52832_xxAA_s132_3.1.0.dir/__/__/mesh/serial/src/serial_handler_openmesh.c.obj
 .debug_loc     0x0000b37d      0x3ce examples/serial/CMakeFiles/serial_nrf52832_xxAA_s132_3.1.0.dir/__/__/mesh/serial/src/serial.c.obj
 .debug_loc     0x0000b74b      0x621 examples/serial/CMakeFiles/serial_nrf52832_xxAA_s132_3.1.0.dir/__/__/mesh/serial/src/serial_handler_prov.c.obj
 .debug_loc     0x0000bd6c      0x2c4 examples/serial/CMakeFiles/serial_nrf52832_xxAA_s132_3.1.0.dir/__/__/mesh/serial/src/serial_handler_dfu.c.obj
 .debug_loc     0x0000c030      0x7fe examples/serial/CMakeFiles/serial_nrf52832_xxAA_s132_3.1.0.dir/__/__/mesh/serial/src/serial_handler_mesh.c.obj
 .debug_loc     0x0000c82e      0x289 examples/serial/CMakeFiles/serial_nrf52832_xxAA_s132_3.1.0.dir/__/__/mesh/serial/src/serial_handler_models.c.obj
 .debug_loc     0x0000cab7      0x3a3 examples/serial/CMakeFiles/serial_nrf52832_xxAA_s132_3.1.0.dir/__/__/mesh/serial/src/serial_handler_device.c.obj
 .debug_loc     0x0000ce5a       0xac examples/serial/CMakeFiles/serial_nrf52832_xxAA_s132_3.1.0.dir/__/__/mesh/serial/src/nrf_mesh_serial.c.obj
 .debug_loc     0x0000cf06       0x37 examples/serial/CMakeFiles/serial_nrf52832_xxAA_s132_3.1.0.dir/__/__/mesh/serial/src/serial_handler_app.c.obj
 .debug_loc     0x0000cf3d       0xc9 mesh/core/libmesh_core_nrf52832_xxAA.a(internal_event.c.obj)
 .debug_loc     0x0000d006       0x2c mesh/core/libmesh_core_nrf52832_xxAA.a(nrf_mesh_configure.c.obj)
 .debug_loc     0x0000d032      0x136 mesh/core/libmesh_core_nrf52832_xxAA.a(event.c.obj)
 .debug_loc     0x0000d168      0xf93 mesh/core/libmesh_core_nrf52832_xxAA.a(packet_buffer.c.obj)
 .debug_loc     0x0000e0fb      0x517 mesh/core/libmesh_core_nrf52832_xxAA.a(fifo.c.obj)
 .debug_loc     0x0000e612      0x758 mesh/core/libmesh_core_nrf52832_xxAA.a(net_state.c.obj)
 .debug_loc     0x0000ed6a      0x11c mesh/core/libmesh_core_nrf52832_xxAA.a(nrf_mesh_utils.c.obj)
 .debug_loc     0x0000ee86      0x4d3 mesh/core/libmesh_core_nrf52832_xxAA.a(nrf_mesh.c.obj)
 .debug_loc     0x0000f359       0x84 mesh/core/libmesh_core_nrf52832_xxAA.a(hal.c.obj)
 .debug_loc     0x0000f3dd      0x3b9 mesh/core/libmesh_core_nrf52832_xxAA.a(timer_scheduler.c.obj)
 .debug_loc     0x0000f796      0x60f mesh/core/libmesh_core_nrf52832_xxAA.a(timer.c.obj)
 .debug_loc     0x0000fda5      0x190 mesh/core/libmesh_core_nrf52832_xxAA.a(rand.c.obj)
 .debug_loc     0x0000ff35      0x194 mesh/core/libmesh_core_nrf52832_xxAA.a(nrf_mesh_opt.c.obj)
 .debug_loc     0x000100c9      0x370 mesh/core/libmesh_core_nrf52832_xxAA.a(timeslot.c.obj)
 .debug_loc     0x00010439      0x647 mesh/core/libmesh_core_nrf52832_xxAA.a(bearer_event.c.obj)
 .debug_loc     0x00010a80      0x960 mesh/core/libmesh_core_nrf52832_xxAA.a(enc.c.obj)
 .debug_loc     0x000113e0     0x10e7 mesh/core/libmesh_core_nrf52832_xxAA.a(network.c.obj)
 .debug_loc     0x000124c7      0x1ee mesh/core/libmesh_core_nrf52832_xxAA.a(nrf_mesh_keygen.c.obj)
 .debug_loc     0x000126b5      0x541 mesh/core/libmesh_core_nrf52832_xxAA.a(list.c.obj)
 .debug_loc     0x00012bf6      0x348 mesh/core/libmesh_core_nrf52832_xxAA.a(log.c.obj)
 .debug_loc     0x00012f3e     0x1791 mesh/core/libmesh_core_nrf52832_xxAA.a(flash_manager.c.obj)
 .debug_loc     0x000146cf      0x371 mesh/core/libmesh_core_nrf52832_xxAA.a(ccm_soft.c.obj)
 .debug_loc     0x00014a40      0x527 mesh/core/libmesh_core_nrf52832_xxAA.a(beacon.c.obj)
 .debug_loc     0x00014f67      0x130 mesh/core/libmesh_core_nrf52832_xxAA.a(flash_manager_internal.c.obj)
 .debug_loc     0x00015097      0x639 mesh/core/libmesh_core_nrf52832_xxAA.a(core_tx.c.obj)
 .debug_loc     0x000156d0      0x644 mesh/core/libmesh_core_nrf52832_xxAA.a(heartbeat.c.obj)
 .debug_loc     0x00015d14      0x3fe mesh/core/libmesh_core_nrf52832_xxAA.a(net_beacon.c.obj)
 .debug_loc     0x00016112      0x3fa mesh/core/libmesh_core_nrf52832_xxAA.a(core_tx_adv.c.obj)
 .debug_loc     0x0001650c      0x42e mesh/core/libmesh_core_nrf52832_xxAA.a(ad_listener.c.obj)
 .debug_loc     0x0001693a      0x3b9 mesh/core/libmesh_core_nrf52832_xxAA.a(ad_type_filter.c.obj)
 .debug_loc     0x00016cf3      0xedd mesh/core/libmesh_core_nrf52832_xxAA.a(advertiser.c.obj)
 .debug_loc     0x00017bd0      0x42d mesh/core/libmesh_core_nrf52832_xxAA.a(bearer_handler.c.obj)
 .debug_loc     0x00017ffd      0x377 mesh/core/libmesh_core_nrf52832_xxAA.a(broadcast.c.obj)
 .debug_loc     0x00018374      0x115 mesh/core/libmesh_core_nrf52832_xxAA.a(filter_engine.c.obj)
 .debug_loc     0x00018489      0x28c mesh/core/libmesh_core_nrf52832_xxAA.a(radio_config.c.obj)
 .debug_loc     0x00018715      0x4f6 mesh/core/libmesh_core_nrf52832_xxAA.a(scanner.c.obj)
 .debug_loc     0x00018c0b       0x89 mesh/core/libmesh_core_nrf52832_xxAA.a(aes.c.obj)
 .debug_loc     0x00018c94      0x10d mesh/core/libmesh_core_nrf52832_xxAA.a(msg_cache.c.obj)
 .debug_loc     0x00018da1     0x28ef mesh/core/libmesh_core_nrf52832_xxAA.a(transport.c.obj)
 .debug_loc     0x0001b690      0x8ee mesh/core/libmesh_core_nrf52832_xxAA.a(flash_manager_defrag.c.obj)
 .debug_loc     0x0001bf7e      0x6d7 mesh/core/libmesh_core_nrf52832_xxAA.a(packet_mgr.c.obj)
 .debug_loc     0x0001c655      0xa35 mesh/core/libmesh_core_nrf52832_xxAA.a(mesh_flash.c.obj)
 .debug_loc     0x0001d08a      0x186 mesh/core/libmesh_core_nrf52832_xxAA.a(queue.c.obj)
 .debug_loc     0x0001d210      0x3f8 mesh/core/libmesh_core_nrf52832_xxAA.a(aes_cmac.c.obj)
 .debug_loc     0x0001d608      0x3e5 mesh/core/libmesh_core_nrf52832_xxAA.a(msqueue.c.obj)
 .debug_loc     0x0001d9ed      0x1c6 mesh/core/libmesh_core_nrf52832_xxAA.a(replay_cache.c.obj)
 .debug_loc     0x0001dbb3      0x17a mesh/core/libmesh_core_nrf52832_xxAA.a(nrf_flash.c.obj)
 .debug_loc     0x0001dd2d     0x2449 external/micro-ecc/libuECC_nrf52832_xxAA.a(uECC.c.obj)
 .debug_loc     0x00020176     0x1222 external/rtt/librtt_nrf52832_xxAA.a(SEGGER_RTT.c.obj)
 .debug_loc     0x00021398      0x70f external/rtt/librtt_nrf52832_xxAA.a(SEGGER_RTT_printf.c.obj)

.debug_aranges  0x00000000     0x2320
 .debug_aranges
                0x00000000       0x28 examples/serial/CMakeFiles/serial_nrf52832_xxAA_s132_3.1.0.dir/src/main.c.obj
 .debug_aranges
                0x00000028       0x80 examples/serial/CMakeFiles/serial_nrf52832_xxAA_s132_3.1.0.dir/__/nrf_mesh_sdk.c.obj
 .debug_aranges
                0x000000a8       0x70 examples/serial/CMakeFiles/serial_nrf52832_xxAA_s132_3.1.0.dir/__/__/mesh/prov/src/prov_provisioner.c.obj
 .debug_aranges
                0x00000118       0x70 examples/serial/CMakeFiles/serial_nrf52832_xxAA_s132_3.1.0.dir/__/__/mesh/prov/src/prov_provisionee.c.obj
 .debug_aranges
                0x00000188       0x78 examples/serial/CMakeFiles/serial_nrf52832_xxAA_s132_3.1.0.dir/__/__/mesh/prov/src/nrf_mesh_prov.c.obj
 .debug_aranges
                0x00000200       0x80 examples/serial/CMakeFiles/serial_nrf52832_xxAA_s132_3.1.0.dir/__/__/mesh/prov/src/provisioning.c.obj
 .debug_aranges
                0x00000280       0x38 examples/serial/CMakeFiles/serial_nrf52832_xxAA_s132_3.1.0.dir/__/__/mesh/prov/src/prov_beacon.c.obj
 .debug_aranges
                0x000002b8       0x70 examples/serial/CMakeFiles/serial_nrf52832_xxAA_s132_3.1.0.dir/__/__/mesh/prov/src/prov_utils.c.obj
 .debug_aranges
                0x00000328       0xc8 examples/serial/CMakeFiles/serial_nrf52832_xxAA_s132_3.1.0.dir/__/__/mesh/prov/src/prov_bearer_adv.c.obj
 .debug_aranges
                0x000003f0       0x50 examples/serial/CMakeFiles/serial_nrf52832_xxAA_s132_3.1.0.dir/__/__/mesh/access/src/access_publish.c.obj
 .debug_aranges
                0x00000440      0x1b0 examples/serial/CMakeFiles/serial_nrf52832_xxAA_s132_3.1.0.dir/__/__/mesh/access/src/access.c.obj
 .debug_aranges
                0x000005f0       0x50 examples/serial/CMakeFiles/serial_nrf52832_xxAA_s132_3.1.0.dir/__/__/mesh/access/src/access_reliable.c.obj
 .debug_aranges
                0x00000640      0x300 examples/serial/CMakeFiles/serial_nrf52832_xxAA_s132_3.1.0.dir/__/__/mesh/access/src/device_state_manager.c.obj
 .debug_aranges
                0x00000940       0x38 examples/serial/CMakeFiles/serial_nrf52832_xxAA_s132_3.1.0.dir/__/__/mesh/serial/src/serial_uart.c.obj
 .debug_aranges
                0x00000978       0x68 examples/serial/CMakeFiles/serial_nrf52832_xxAA_s132_3.1.0.dir/__/__/mesh/serial/src/serial_bearer.c.obj
 .debug_aranges
                0x000009e0       0x28 examples/serial/CMakeFiles/serial_nrf52832_xxAA_s132_3.1.0.dir/__/__/mesh/serial/src/serial_handler_common.c.obj
 .debug_aranges
                0x00000a08       0xd0 examples/serial/CMakeFiles/serial_nrf52832_xxAA_s132_3.1.0.dir/__/__/mesh/serial/src/serial_handler_access.c.obj
 .debug_aranges
                0x00000ad8       0x20 examples/serial/CMakeFiles/serial_nrf52832_xxAA_s132_3.1.0.dir/__/__/mesh/serial/src/serial_handler_config.c.obj
 .debug_aranges
                0x00000af8       0x20 examples/serial/CMakeFiles/serial_nrf52832_xxAA_s132_3.1.0.dir/__/__/mesh/serial/src/serial_handler_openmesh.c.obj
 .debug_aranges
                0x00000b18       0x60 examples/serial/CMakeFiles/serial_nrf52832_xxAA_s132_3.1.0.dir/__/__/mesh/serial/src/serial.c.obj
 .debug_aranges
                0x00000b78       0x50 examples/serial/CMakeFiles/serial_nrf52832_xxAA_s132_3.1.0.dir/__/__/mesh/serial/src/serial_handler_prov.c.obj
 .debug_aranges
                0x00000bc8       0x30 examples/serial/CMakeFiles/serial_nrf52832_xxAA_s132_3.1.0.dir/__/__/mesh/serial/src/serial_handler_dfu.c.obj
 .debug_aranges
                0x00000bf8      0x110 examples/serial/CMakeFiles/serial_nrf52832_xxAA_s132_3.1.0.dir/__/__/mesh/serial/src/serial_handler_mesh.c.obj
 .debug_aranges
                0x00000d08       0x48 examples/serial/CMakeFiles/serial_nrf52832_xxAA_s132_3.1.0.dir/__/__/mesh/serial/src/serial_handler_models.c.obj
 .debug_aranges
                0x00000d50       0x78 examples/serial/CMakeFiles/serial_nrf52832_xxAA_s132_3.1.0.dir/__/__/mesh/serial/src/serial_handler_device.c.obj
 .debug_aranges
                0x00000dc8       0x38 examples/serial/CMakeFiles/serial_nrf52832_xxAA_s132_3.1.0.dir/__/__/mesh/serial/src/nrf_mesh_serial.c.obj
 .debug_aranges
                0x00000e00       0x28 examples/serial/CMakeFiles/serial_nrf52832_xxAA_s132_3.1.0.dir/__/__/mesh/serial/src/serial_handler_app.c.obj
 .debug_aranges
                0x00000e28       0x28 examples/serial/CMakeFiles/serial_nrf52832_xxAA_s132_3.1.0.dir/__/nrf_mesh_weak.c.obj
 .debug_aranges
                0x00000e50       0x38 examples/serial/CMakeFiles/serial_nrf52832_xxAA_s132_3.1.0.dir/__/__/external/nRF5_SDK_14.2.0_17b948a/components/toolchain/system_nrf52.c.obj
 .debug_aranges
                0x00000e88       0x30 mesh/core/libmesh_core_nrf52832_xxAA.a(internal_event.c.obj)
 .debug_aranges
                0x00000eb8       0x30 mesh/core/libmesh_core_nrf52832_xxAA.a(nrf_mesh_configure.c.obj)
 .debug_aranges
                0x00000ee8       0x30 mesh/core/libmesh_core_nrf52832_xxAA.a(event.c.obj)
 .debug_aranges
                0x00000f18       0x80 mesh/core/libmesh_core_nrf52832_xxAA.a(packet_buffer.c.obj)
 .debug_aranges
                0x00000f98       0x60 mesh/core/libmesh_core_nrf52832_xxAA.a(fifo.c.obj)
 .debug_aranges
                0x00000ff8       0xc0 mesh/core/libmesh_core_nrf52832_xxAA.a(net_state.c.obj)
 .debug_aranges
                0x000010b8       0x30 mesh/core/libmesh_core_nrf52832_xxAA.a(nrf_mesh_utils.c.obj)
 .debug_aranges
                0x000010e8       0x88 mesh/core/libmesh_core_nrf52832_xxAA.a(nrf_mesh.c.obj)
 .debug_aranges
                0x00001170       0x38 mesh/core/libmesh_core_nrf52832_xxAA.a(hal.c.obj)
 .debug_aranges
                0x000011a8       0x68 mesh/core/libmesh_core_nrf52832_xxAA.a(timer_scheduler.c.obj)
 .debug_aranges
                0x00001210       0x60 mesh/core/libmesh_core_nrf52832_xxAA.a(timer.c.obj)
 .debug_aranges
                0x00001270       0x30 mesh/core/libmesh_core_nrf52832_xxAA.a(ticker.c.obj)
 .debug_aranges
                0x000012a0       0x40 mesh/core/libmesh_core_nrf52832_xxAA.a(rand.c.obj)
 .debug_aranges
                0x000012e0       0x28 mesh/core/libmesh_core_nrf52832_xxAA.a(nrf_mesh_opt.c.obj)
 .debug_aranges
                0x00001308       0xb8 mesh/core/libmesh_core_nrf52832_xxAA.a(timeslot.c.obj)
 .debug_aranges
                0x000013c0       0x98 mesh/core/libmesh_core_nrf52832_xxAA.a(bearer_event.c.obj)
 .debug_aranges
                0x00001458       0x70 mesh/core/libmesh_core_nrf52832_xxAA.a(enc.c.obj)
 .debug_aranges
                0x000014c8       0x60 mesh/core/libmesh_core_nrf52832_xxAA.a(network.c.obj)
 .debug_aranges
                0x00001528       0x40 mesh/core/libmesh_core_nrf52832_xxAA.a(nrf_mesh_keygen.c.obj)
 .debug_aranges
                0x00001568       0x48 mesh/core/libmesh_core_nrf52832_xxAA.a(list.c.obj)
 .debug_aranges
                0x000015b0       0x48 mesh/core/libmesh_core_nrf52832_xxAA.a(log.c.obj)
 .debug_aranges
                0x000015f8      0x100 mesh/core/libmesh_core_nrf52832_xxAA.a(flash_manager.c.obj)
 .debug_aranges
                0x000016f8       0x50 mesh/core/libmesh_core_nrf52832_xxAA.a(ccm_soft.c.obj)
 .debug_aranges
                0x00001748       0x38 mesh/core/libmesh_core_nrf52832_xxAA.a(beacon.c.obj)
 .debug_aranges
                0x00001780       0x20 mesh/core/libmesh_core_nrf52832_xxAA.a(flash_manager_internal.c.obj)
 .debug_aranges
                0x000017a0       0x58 mesh/core/libmesh_core_nrf52832_xxAA.a(core_tx.c.obj)
 .debug_aranges
                0x000017f8       0x70 mesh/core/libmesh_core_nrf52832_xxAA.a(heartbeat.c.obj)
 .debug_aranges
                0x00001868       0x48 mesh/core/libmesh_core_nrf52832_xxAA.a(net_beacon.c.obj)
 .debug_aranges
                0x000018b0       0x68 mesh/core/libmesh_core_nrf52832_xxAA.a(core_tx_adv.c.obj)
 .debug_aranges
                0x00001918       0x30 mesh/core/libmesh_core_nrf52832_xxAA.a(ad_listener.c.obj)
 .debug_aranges
                0x00001948       0x58 mesh/core/libmesh_core_nrf52832_xxAA.a(ad_type_filter.c.obj)
 .debug_aranges
                0x000019a0       0xb0 mesh/core/libmesh_core_nrf52832_xxAA.a(advertiser.c.obj)
 .debug_aranges
                0x00001a50       0x70 mesh/core/libmesh_core_nrf52832_xxAA.a(bearer_handler.c.obj)
 .debug_aranges
                0x00001ac0       0x30 mesh/core/libmesh_core_nrf52832_xxAA.a(broadcast.c.obj)
 .debug_aranges
                0x00001af0       0x38 mesh/core/libmesh_core_nrf52832_xxAA.a(filter_engine.c.obj)
 .debug_aranges
                0x00001b28       0x40 mesh/core/libmesh_core_nrf52832_xxAA.a(radio_config.c.obj)
 .debug_aranges
                0x00001b68       0xe0 mesh/core/libmesh_core_nrf52832_xxAA.a(scanner.c.obj)
 .debug_aranges
                0x00001c48       0x28 mesh/core/libmesh_core_nrf52832_xxAA.a(aes.c.obj)
 .debug_aranges
                0x00001c70       0x38 mesh/core/libmesh_core_nrf52832_xxAA.a(msg_cache.c.obj)
 .debug_aranges
                0x00001ca8      0x120 mesh/core/libmesh_core_nrf52832_xxAA.a(transport.c.obj)
 .debug_aranges
                0x00001dc8       0xc8 mesh/core/libmesh_core_nrf52832_xxAA.a(flash_manager_defrag.c.obj)
 .debug_aranges
                0x00001e90       0x48 mesh/core/libmesh_core_nrf52832_xxAA.a(packet_mgr.c.obj)
 .debug_aranges
                0x00001ed8       0x60 mesh/core/libmesh_core_nrf52832_xxAA.a(mesh_flash.c.obj)
 .debug_aranges
                0x00001f38       0x38 mesh/core/libmesh_core_nrf52832_xxAA.a(queue.c.obj)
 .debug_aranges
                0x00001f70       0x38 mesh/core/libmesh_core_nrf52832_xxAA.a(aes_cmac.c.obj)
 .debug_aranges
                0x00001fa8       0x48 mesh/core/libmesh_core_nrf52832_xxAA.a(msqueue.c.obj)
 .debug_aranges
                0x00001ff0       0x48 mesh/core/libmesh_core_nrf52832_xxAA.a(replay_cache.c.obj)
 .debug_aranges
                0x00002038       0x30 mesh/core/libmesh_core_nrf52832_xxAA.a(nrf_flash.c.obj)
 .debug_aranges
                0x00002068      0x1a8 external/micro-ecc/libuECC_nrf52832_xxAA.a(uECC.c.obj)
 .debug_aranges
                0x00002210       0xd8 external/rtt/librtt_nrf52832_xxAA.a(SEGGER_RTT.c.obj)
 .debug_aranges
                0x000022e8       0x38 external/rtt/librtt_nrf52832_xxAA.a(SEGGER_RTT_printf.c.obj)

.debug_ranges   0x00000000     0x7ec8
 .debug_ranges  0x00000000       0x90 examples/serial/CMakeFiles/serial_nrf52832_xxAA_s132_3.1.0.dir/src/main.c.obj
 .debug_ranges  0x00000090      0x1a8 examples/serial/CMakeFiles/serial_nrf52832_xxAA_s132_3.1.0.dir/__/nrf_mesh_sdk.c.obj
 .debug_ranges  0x00000238      0x128 examples/serial/CMakeFiles/serial_nrf52832_xxAA_s132_3.1.0.dir/__/__/mesh/prov/src/prov_provisioner.c.obj
 .debug_ranges  0x00000360      0x158 examples/serial/CMakeFiles/serial_nrf52832_xxAA_s132_3.1.0.dir/__/__/mesh/prov/src/prov_provisionee.c.obj
 .debug_ranges  0x000004b8       0xb0 examples/serial/CMakeFiles/serial_nrf52832_xxAA_s132_3.1.0.dir/__/__/mesh/prov/src/nrf_mesh_prov.c.obj
 .debug_ranges  0x00000568       0xa0 examples/serial/CMakeFiles/serial_nrf52832_xxAA_s132_3.1.0.dir/__/__/mesh/prov/src/provisioning.c.obj
 .debug_ranges  0x00000608       0x88 examples/serial/CMakeFiles/serial_nrf52832_xxAA_s132_3.1.0.dir/__/__/mesh/prov/src/prov_beacon.c.obj
 .debug_ranges  0x00000690       0xb8 examples/serial/CMakeFiles/serial_nrf52832_xxAA_s132_3.1.0.dir/__/__/mesh/prov/src/prov_utils.c.obj
 .debug_ranges  0x00000748      0x6c8 examples/serial/CMakeFiles/serial_nrf52832_xxAA_s132_3.1.0.dir/__/__/mesh/prov/src/prov_bearer_adv.c.obj
 .debug_ranges  0x00000e10      0x178 examples/serial/CMakeFiles/serial_nrf52832_xxAA_s132_3.1.0.dir/__/__/mesh/access/src/access_publish.c.obj
 .debug_ranges  0x00000f88      0x608 examples/serial/CMakeFiles/serial_nrf52832_xxAA_s132_3.1.0.dir/__/__/mesh/access/src/access.c.obj
 .debug_ranges  0x00001590      0x220 examples/serial/CMakeFiles/serial_nrf52832_xxAA_s132_3.1.0.dir/__/__/mesh/access/src/access_reliable.c.obj
 .debug_ranges  0x000017b0      0xb18 examples/serial/CMakeFiles/serial_nrf52832_xxAA_s132_3.1.0.dir/__/__/mesh/access/src/device_state_manager.c.obj
 .debug_ranges  0x000022c8       0x28 examples/serial/CMakeFiles/serial_nrf52832_xxAA_s132_3.1.0.dir/__/__/mesh/serial/src/serial_uart.c.obj
 .debug_ranges  0x000022f0      0x1d0 examples/serial/CMakeFiles/serial_nrf52832_xxAA_s132_3.1.0.dir/__/__/mesh/serial/src/serial_bearer.c.obj
 .debug_ranges  0x000024c0       0x48 examples/serial/CMakeFiles/serial_nrf52832_xxAA_s132_3.1.0.dir/__/__/mesh/serial/src/serial_handler_common.c.obj
 .debug_ranges  0x00002508       0xd8 examples/serial/CMakeFiles/serial_nrf52832_xxAA_s132_3.1.0.dir/__/__/mesh/serial/src/serial_handler_access.c.obj
 .debug_ranges  0x000025e0       0x48 examples/serial/CMakeFiles/serial_nrf52832_xxAA_s132_3.1.0.dir/__/__/mesh/serial/src/serial_handler_config.c.obj
 .debug_ranges  0x00002628       0x10 examples/serial/CMakeFiles/serial_nrf52832_xxAA_s132_3.1.0.dir/__/__/mesh/serial/src/serial_handler_openmesh.c.obj
 .debug_ranges  0x00002638      0x110 examples/serial/CMakeFiles/serial_nrf52832_xxAA_s132_3.1.0.dir/__/__/mesh/serial/src/serial.c.obj
 .debug_ranges  0x00002748      0x280 examples/serial/CMakeFiles/serial_nrf52832_xxAA_s132_3.1.0.dir/__/__/mesh/serial/src/serial_handler_prov.c.obj
 .debug_ranges  0x000029c8      0x118 examples/serial/CMakeFiles/serial_nrf52832_xxAA_s132_3.1.0.dir/__/__/mesh/serial/src/serial_handler_dfu.c.obj
 .debug_ranges  0x00002ae0      0x1c8 examples/serial/CMakeFiles/serial_nrf52832_xxAA_s132_3.1.0.dir/__/__/mesh/serial/src/serial_handler_mesh.c.obj
 .debug_ranges  0x00002ca8       0x80 examples/serial/CMakeFiles/serial_nrf52832_xxAA_s132_3.1.0.dir/__/__/mesh/serial/src/serial_handler_models.c.obj
 .debug_ranges  0x00002d28      0x138 examples/serial/CMakeFiles/serial_nrf52832_xxAA_s132_3.1.0.dir/__/__/mesh/serial/src/serial_handler_device.c.obj
 .debug_ranges  0x00002e60       0x40 examples/serial/CMakeFiles/serial_nrf52832_xxAA_s132_3.1.0.dir/__/__/mesh/serial/src/nrf_mesh_serial.c.obj
 .debug_ranges  0x00002ea0       0x18 examples/serial/CMakeFiles/serial_nrf52832_xxAA_s132_3.1.0.dir/__/__/mesh/serial/src/serial_handler_app.c.obj
 .debug_ranges  0x00002eb8       0x18 examples/serial/CMakeFiles/serial_nrf52832_xxAA_s132_3.1.0.dir/__/nrf_mesh_weak.c.obj
 .debug_ranges  0x00002ed0       0x28 examples/serial/CMakeFiles/serial_nrf52832_xxAA_s132_3.1.0.dir/__/__/external/nRF5_SDK_14.2.0_17b948a/components/toolchain/system_nrf52.c.obj
 .debug_ranges  0x00002ef8       0x20 mesh/core/libmesh_core_nrf52832_xxAA.a(internal_event.c.obj)
 .debug_ranges  0x00002f18       0x20 mesh/core/libmesh_core_nrf52832_xxAA.a(nrf_mesh_configure.c.obj)
 .debug_ranges  0x00002f38       0x68 mesh/core/libmesh_core_nrf52832_xxAA.a(event.c.obj)
 .debug_ranges  0x00002fa0      0x3b8 mesh/core/libmesh_core_nrf52832_xxAA.a(packet_buffer.c.obj)
 .debug_ranges  0x00003358       0xb0 mesh/core/libmesh_core_nrf52832_xxAA.a(fifo.c.obj)
 .debug_ranges  0x00003408      0x248 mesh/core/libmesh_core_nrf52832_xxAA.a(net_state.c.obj)
 .debug_ranges  0x00003650       0x38 mesh/core/libmesh_core_nrf52832_xxAA.a(nrf_mesh_utils.c.obj)
 .debug_ranges  0x00003688       0xf0 mesh/core/libmesh_core_nrf52832_xxAA.a(nrf_mesh.c.obj)
 .debug_ranges  0x00003778       0x28 mesh/core/libmesh_core_nrf52832_xxAA.a(hal.c.obj)
 .debug_ranges  0x000037a0      0x260 mesh/core/libmesh_core_nrf52832_xxAA.a(timer_scheduler.c.obj)
 .debug_ranges  0x00003a00      0x108 mesh/core/libmesh_core_nrf52832_xxAA.a(timer.c.obj)
 .debug_ranges  0x00003b08       0x20 mesh/core/libmesh_core_nrf52832_xxAA.a(ticker.c.obj)
 .debug_ranges  0x00003b28       0x48 mesh/core/libmesh_core_nrf52832_xxAA.a(rand.c.obj)
 .debug_ranges  0x00003b70       0x18 mesh/core/libmesh_core_nrf52832_xxAA.a(nrf_mesh_opt.c.obj)
 .debug_ranges  0x00003b88      0x188 mesh/core/libmesh_core_nrf52832_xxAA.a(timeslot.c.obj)
 .debug_ranges  0x00003d10      0x250 mesh/core/libmesh_core_nrf52832_xxAA.a(bearer_event.c.obj)
 .debug_ranges  0x00003f60      0x120 mesh/core/libmesh_core_nrf52832_xxAA.a(enc.c.obj)
 .debug_ranges  0x00004080      0x518 mesh/core/libmesh_core_nrf52832_xxAA.a(network.c.obj)
 .debug_ranges  0x00004598       0x30 mesh/core/libmesh_core_nrf52832_xxAA.a(nrf_mesh_keygen.c.obj)
 .debug_ranges  0x000045c8      0x1b0 mesh/core/libmesh_core_nrf52832_xxAA.a(list.c.obj)
 .debug_ranges  0x00004778       0x38 mesh/core/libmesh_core_nrf52832_xxAA.a(log.c.obj)
 .debug_ranges  0x000047b0      0x748 mesh/core/libmesh_core_nrf52832_xxAA.a(flash_manager.c.obj)
 .debug_ranges  0x00004ef8       0x40 mesh/core/libmesh_core_nrf52832_xxAA.a(ccm_soft.c.obj)
 .debug_ranges  0x00004f38       0xd0 mesh/core/libmesh_core_nrf52832_xxAA.a(beacon.c.obj)
 .debug_ranges  0x00005008       0x68 mesh/core/libmesh_core_nrf52832_xxAA.a(flash_manager_internal.c.obj)
 .debug_ranges  0x00005070      0x270 mesh/core/libmesh_core_nrf52832_xxAA.a(core_tx.c.obj)
 .debug_ranges  0x000052e0      0x240 mesh/core/libmesh_core_nrf52832_xxAA.a(heartbeat.c.obj)
 .debug_ranges  0x00005520       0xf0 mesh/core/libmesh_core_nrf52832_xxAA.a(net_beacon.c.obj)
 .debug_ranges  0x00005610       0xe8 mesh/core/libmesh_core_nrf52832_xxAA.a(core_tx_adv.c.obj)
 .debug_ranges  0x000056f8       0xf8 mesh/core/libmesh_core_nrf52832_xxAA.a(ad_listener.c.obj)
 .debug_ranges  0x000057f0       0xe8 mesh/core/libmesh_core_nrf52832_xxAA.a(ad_type_filter.c.obj)
 .debug_ranges  0x000058d8      0x4a8 mesh/core/libmesh_core_nrf52832_xxAA.a(advertiser.c.obj)
 .debug_ranges  0x00005d80      0x290 mesh/core/libmesh_core_nrf52832_xxAA.a(bearer_handler.c.obj)
 .debug_ranges  0x00006010      0x130 mesh/core/libmesh_core_nrf52832_xxAA.a(broadcast.c.obj)
 .debug_ranges  0x00006140       0x90 mesh/core/libmesh_core_nrf52832_xxAA.a(filter_engine.c.obj)
 .debug_ranges  0x000061d0      0x100 mesh/core/libmesh_core_nrf52832_xxAA.a(radio_config.c.obj)
 .debug_ranges  0x000062d0      0x2c0 mesh/core/libmesh_core_nrf52832_xxAA.a(scanner.c.obj)
 .debug_ranges  0x00006590       0x18 mesh/core/libmesh_core_nrf52832_xxAA.a(aes.c.obj)
 .debug_ranges  0x000065a8       0x48 mesh/core/libmesh_core_nrf52832_xxAA.a(msg_cache.c.obj)
 .debug_ranges  0x000065f0      0x918 mesh/core/libmesh_core_nrf52832_xxAA.a(transport.c.obj)
 .debug_ranges  0x00006f08      0x368 mesh/core/libmesh_core_nrf52832_xxAA.a(flash_manager_defrag.c.obj)
 .debug_ranges  0x00007270      0x160 mesh/core/libmesh_core_nrf52832_xxAA.a(packet_mgr.c.obj)
 .debug_ranges  0x000073d0      0x368 mesh/core/libmesh_core_nrf52832_xxAA.a(mesh_flash.c.obj)
 .debug_ranges  0x00007738       0xa0 mesh/core/libmesh_core_nrf52832_xxAA.a(queue.c.obj)
 .debug_ranges  0x000077d8       0x98 mesh/core/libmesh_core_nrf52832_xxAA.a(aes_cmac.c.obj)
 .debug_ranges  0x00007870      0x158 mesh/core/libmesh_core_nrf52832_xxAA.a(msqueue.c.obj)
 .debug_ranges  0x000079c8       0x68 mesh/core/libmesh_core_nrf52832_xxAA.a(replay_cache.c.obj)
 .debug_ranges  0x00007a30       0x38 mesh/core/libmesh_core_nrf52832_xxAA.a(nrf_flash.c.obj)
 .debug_ranges  0x00007a68      0x2e8 external/micro-ecc/libuECC_nrf52832_xxAA.a(uECC.c.obj)
 .debug_ranges  0x00007d50      0x130 external/rtt/librtt_nrf52832_xxAA.a(SEGGER_RTT.c.obj)
 .debug_ranges  0x00007e80       0x48 external/rtt/librtt_nrf52832_xxAA.a(SEGGER_RTT_printf.c.obj)

.debug_line     0x00000000    0x19719
 .debug_line    0x00000000      0x53e examples/serial/CMakeFiles/serial_nrf52832_xxAA_s132_3.1.0.dir/src/main.c.obj
 .debug_line    0x0000053e      0x780 examples/serial/CMakeFiles/serial_nrf52832_xxAA_s132_3.1.0.dir/__/nrf_mesh_sdk.c.obj
 .debug_line    0x00000cbe      0x573 examples/serial/CMakeFiles/serial_nrf52832_xxAA_s132_3.1.0.dir/__/__/mesh/prov/src/prov_provisioner.c.obj
 .debug_line    0x00001231      0x634 examples/serial/CMakeFiles/serial_nrf52832_xxAA_s132_3.1.0.dir/__/__/mesh/prov/src/prov_provisionee.c.obj
 .debug_line    0x00001865      0x4e3 examples/serial/CMakeFiles/serial_nrf52832_xxAA_s132_3.1.0.dir/__/__/mesh/prov/src/nrf_mesh_prov.c.obj
 .debug_line    0x00001d48      0x3de examples/serial/CMakeFiles/serial_nrf52832_xxAA_s132_3.1.0.dir/__/__/mesh/prov/src/provisioning.c.obj
 .debug_line    0x00002126      0x48d examples/serial/CMakeFiles/serial_nrf52832_xxAA_s132_3.1.0.dir/__/__/mesh/prov/src/prov_beacon.c.obj
 .debug_line    0x000025b3      0x4a2 examples/serial/CMakeFiles/serial_nrf52832_xxAA_s132_3.1.0.dir/__/__/mesh/prov/src/prov_utils.c.obj
 .debug_line    0x00002a55      0xc24 examples/serial/CMakeFiles/serial_nrf52832_xxAA_s132_3.1.0.dir/__/__/mesh/prov/src/prov_bearer_adv.c.obj
 .debug_line    0x00003679      0x449 examples/serial/CMakeFiles/serial_nrf52832_xxAA_s132_3.1.0.dir/__/__/mesh/access/src/access_publish.c.obj
 .debug_line    0x00003ac2      0xdf0 examples/serial/CMakeFiles/serial_nrf52832_xxAA_s132_3.1.0.dir/__/__/mesh/access/src/access.c.obj
 .debug_line    0x000048b2      0x4dc examples/serial/CMakeFiles/serial_nrf52832_xxAA_s132_3.1.0.dir/__/__/mesh/access/src/access_reliable.c.obj
 .debug_line    0x00004d8e     0x14e0 examples/serial/CMakeFiles/serial_nrf52832_xxAA_s132_3.1.0.dir/__/__/mesh/access/src/device_state_manager.c.obj
 .debug_line    0x0000626e      0x318 examples/serial/CMakeFiles/serial_nrf52832_xxAA_s132_3.1.0.dir/__/__/mesh/serial/src/serial_uart.c.obj
 .debug_line    0x00006586      0x5d4 examples/serial/CMakeFiles/serial_nrf52832_xxAA_s132_3.1.0.dir/__/__/mesh/serial/src/serial_bearer.c.obj
 .debug_line    0x00006b5a      0x376 examples/serial/CMakeFiles/serial_nrf52832_xxAA_s132_3.1.0.dir/__/__/mesh/serial/src/serial_handler_common.c.obj
 .debug_line    0x00006ed0      0x544 examples/serial/CMakeFiles/serial_nrf52832_xxAA_s132_3.1.0.dir/__/__/mesh/serial/src/serial_handler_access.c.obj
 .debug_line    0x00007414      0x41e examples/serial/CMakeFiles/serial_nrf52832_xxAA_s132_3.1.0.dir/__/__/mesh/serial/src/serial_handler_config.c.obj
 .debug_line    0x00007832      0x338 examples/serial/CMakeFiles/serial_nrf52832_xxAA_s132_3.1.0.dir/__/__/mesh/serial/src/serial_handler_openmesh.c.obj
 .debug_line    0x00007b6a      0x608 examples/serial/CMakeFiles/serial_nrf52832_xxAA_s132_3.1.0.dir/__/__/mesh/serial/src/serial.c.obj
 .debug_line    0x00008172      0x810 examples/serial/CMakeFiles/serial_nrf52832_xxAA_s132_3.1.0.dir/__/__/mesh/serial/src/serial_handler_prov.c.obj
 .debug_line    0x00008982      0x4eb examples/serial/CMakeFiles/serial_nrf52832_xxAA_s132_3.1.0.dir/__/__/mesh/serial/src/serial_handler_dfu.c.obj
 .debug_line    0x00008e6d      0x744 examples/serial/CMakeFiles/serial_nrf52832_xxAA_s132_3.1.0.dir/__/__/mesh/serial/src/serial_handler_mesh.c.obj
 .debug_line    0x000095b1      0x45a examples/serial/CMakeFiles/serial_nrf52832_xxAA_s132_3.1.0.dir/__/__/mesh/serial/src/serial_handler_models.c.obj
 .debug_line    0x00009a0b      0x62e examples/serial/CMakeFiles/serial_nrf52832_xxAA_s132_3.1.0.dir/__/__/mesh/serial/src/serial_handler_device.c.obj
 .debug_line    0x0000a039      0x43b examples/serial/CMakeFiles/serial_nrf52832_xxAA_s132_3.1.0.dir/__/__/mesh/serial/src/nrf_mesh_serial.c.obj
 .debug_line    0x0000a474      0x346 examples/serial/CMakeFiles/serial_nrf52832_xxAA_s132_3.1.0.dir/__/__/mesh/serial/src/serial_handler_app.c.obj
 .debug_line    0x0000a7ba      0x225 examples/serial/CMakeFiles/serial_nrf52832_xxAA_s132_3.1.0.dir/__/nrf_mesh_weak.c.obj
 .debug_line    0x0000a9df      0x27e examples/serial/CMakeFiles/serial_nrf52832_xxAA_s132_3.1.0.dir/__/__/external/nRF5_SDK_14.2.0_17b948a/components/toolchain/system_nrf52.c.obj
 .debug_line    0x0000ac5d      0x2a2 mesh/core/libmesh_core_nrf52832_xxAA.a(internal_event.c.obj)
 .debug_line    0x0000aeff      0x263 mesh/core/libmesh_core_nrf52832_xxAA.a(nrf_mesh_configure.c.obj)
 .debug_line    0x0000b162      0x30b mesh/core/libmesh_core_nrf52832_xxAA.a(event.c.obj)
 .debug_line    0x0000b46d      0x6ed mesh/core/libmesh_core_nrf52832_xxAA.a(packet_buffer.c.obj)
 .debug_line    0x0000bb5a      0x3a6 mesh/core/libmesh_core_nrf52832_xxAA.a(fifo.c.obj)
 .debug_line    0x0000bf00      0x6a8 mesh/core/libmesh_core_nrf52832_xxAA.a(net_state.c.obj)
 .debug_line    0x0000c5a8      0x262 mesh/core/libmesh_core_nrf52832_xxAA.a(nrf_mesh_utils.c.obj)
 .debug_line    0x0000c80a      0x7b0 mesh/core/libmesh_core_nrf52832_xxAA.a(nrf_mesh.c.obj)
 .debug_line    0x0000cfba      0x250 mesh/core/libmesh_core_nrf52832_xxAA.a(hal.c.obj)
 .debug_line    0x0000d20a      0x4a3 mesh/core/libmesh_core_nrf52832_xxAA.a(timer_scheduler.c.obj)
 .debug_line    0x0000d6ad      0x415 mesh/core/libmesh_core_nrf52832_xxAA.a(timer.c.obj)
 .debug_line    0x0000dac2      0x122 mesh/core/libmesh_core_nrf52832_xxAA.a(ticker.c.obj)
 .debug_line    0x0000dbe4      0x28d mesh/core/libmesh_core_nrf52832_xxAA.a(rand.c.obj)
 .debug_line    0x0000de71      0x291 mesh/core/libmesh_core_nrf52832_xxAA.a(nrf_mesh_opt.c.obj)
 .debug_line    0x0000e102      0x5b6 mesh/core/libmesh_core_nrf52832_xxAA.a(timeslot.c.obj)
 .debug_line    0x0000e6b8      0x608 mesh/core/libmesh_core_nrf52832_xxAA.a(bearer_event.c.obj)
 .debug_line    0x0000ecc0      0x45a mesh/core/libmesh_core_nrf52832_xxAA.a(enc.c.obj)
 .debug_line    0x0000f11a      0x836 mesh/core/libmesh_core_nrf52832_xxAA.a(network.c.obj)
 .debug_line    0x0000f950      0x236 mesh/core/libmesh_core_nrf52832_xxAA.a(nrf_mesh_keygen.c.obj)
 .debug_line    0x0000fb86      0x373 mesh/core/libmesh_core_nrf52832_xxAA.a(list.c.obj)
 .debug_line    0x0000fef9      0x284 mesh/core/libmesh_core_nrf52832_xxAA.a(log.c.obj)
 .debug_line    0x0001017d      0xa9a mesh/core/libmesh_core_nrf52832_xxAA.a(flash_manager.c.obj)
 .debug_line    0x00010c17      0x34b mesh/core/libmesh_core_nrf52832_xxAA.a(ccm_soft.c.obj)
 .debug_line    0x00010f62      0x52d mesh/core/libmesh_core_nrf52832_xxAA.a(beacon.c.obj)
 .debug_line    0x0001148f      0x299 mesh/core/libmesh_core_nrf52832_xxAA.a(flash_manager_internal.c.obj)
 .debug_line    0x00011728      0x471 mesh/core/libmesh_core_nrf52832_xxAA.a(core_tx.c.obj)
 .debug_line    0x00011b99      0x61c mesh/core/libmesh_core_nrf52832_xxAA.a(heartbeat.c.obj)
 .debug_line    0x000121b5      0x42b mesh/core/libmesh_core_nrf52832_xxAA.a(net_beacon.c.obj)
 .debug_line    0x000125e0      0x489 mesh/core/libmesh_core_nrf52832_xxAA.a(core_tx_adv.c.obj)
 .debug_line    0x00012a69      0x352 mesh/core/libmesh_core_nrf52832_xxAA.a(ad_listener.c.obj)
 .debug_line    0x00012dbb      0x403 mesh/core/libmesh_core_nrf52832_xxAA.a(ad_type_filter.c.obj)
 .debug_line    0x000131be      0x81c mesh/core/libmesh_core_nrf52832_xxAA.a(advertiser.c.obj)
 .debug_line    0x000139da      0x5c1 mesh/core/libmesh_core_nrf52832_xxAA.a(bearer_handler.c.obj)
 .debug_line    0x00013f9b      0x3c8 mesh/core/libmesh_core_nrf52832_xxAA.a(broadcast.c.obj)
 .debug_line    0x00014363      0x356 mesh/core/libmesh_core_nrf52832_xxAA.a(filter_engine.c.obj)
 .debug_line    0x000146b9      0x320 mesh/core/libmesh_core_nrf52832_xxAA.a(radio_config.c.obj)
 .debug_line    0x000149d9      0x751 mesh/core/libmesh_core_nrf52832_xxAA.a(scanner.c.obj)
 .debug_line    0x0001512a      0x254 mesh/core/libmesh_core_nrf52832_xxAA.a(aes.c.obj)
 .debug_line    0x0001537e      0x298 mesh/core/libmesh_core_nrf52832_xxAA.a(msg_cache.c.obj)
 .debug_line    0x00015616     0x1029 mesh/core/libmesh_core_nrf52832_xxAA.a(transport.c.obj)
 .debug_line    0x0001663f      0x7e7 mesh/core/libmesh_core_nrf52832_xxAA.a(flash_manager_defrag.c.obj)
 .debug_line    0x00016e26      0x445 mesh/core/libmesh_core_nrf52832_xxAA.a(packet_mgr.c.obj)
 .debug_line    0x0001726b      0x5a9 mesh/core/libmesh_core_nrf52832_xxAA.a(mesh_flash.c.obj)
 .debug_line    0x00017814      0x2d2 mesh/core/libmesh_core_nrf52832_xxAA.a(queue.c.obj)
 .debug_line    0x00017ae6      0x2d4 mesh/core/libmesh_core_nrf52832_xxAA.a(aes_cmac.c.obj)
 .debug_line    0x00017dba      0x388 mesh/core/libmesh_core_nrf52832_xxAA.a(msqueue.c.obj)
 .debug_line    0x00018142      0x1f1 mesh/core/libmesh_core_nrf52832_xxAA.a(replay_cache.c.obj)
 .debug_line    0x00018333      0x2a9 mesh/core/libmesh_core_nrf52832_xxAA.a(nrf_flash.c.obj)
 .debug_line    0x000185dc      0x9fb external/micro-ecc/libuECC_nrf52832_xxAA.a(uECC.c.obj)
 .debug_line    0x00018fd7      0x4c0 external/rtt/librtt_nrf52832_xxAA.a(SEGGER_RTT.c.obj)
 .debug_line    0x00019497      0x282 external/rtt/librtt_nrf52832_xxAA.a(SEGGER_RTT_printf.c.obj)

.debug_str      0x00000000    0x129a0
 .debug_str     0x00000000      0xd9d examples/serial/CMakeFiles/serial_nrf52832_xxAA_s132_3.1.0.dir/src/main.c.obj
                                0xe6f (size before relaxing)
 .debug_str     0x00000d9d     0x1574 examples/serial/CMakeFiles/serial_nrf52832_xxAA_s132_3.1.0.dir/__/nrf_mesh_sdk.c.obj
                               0x220e (size before relaxing)
 .debug_str     0x00002311     0x161f examples/serial/CMakeFiles/serial_nrf52832_xxAA_s132_3.1.0.dir/__/__/mesh/prov/src/prov_provisioner.c.obj
                               0x1eb9 (size before relaxing)
 .debug_str     0x00003930      0x268 examples/serial/CMakeFiles/serial_nrf52832_xxAA_s132_3.1.0.dir/__/__/mesh/prov/src/prov_provisionee.c.obj
                               0x2061 (size before relaxing)
 .debug_str     0x00003b98      0x204 examples/serial/CMakeFiles/serial_nrf52832_xxAA_s132_3.1.0.dir/__/__/mesh/prov/src/nrf_mesh_prov.c.obj
                               0x1c8f (size before relaxing)
 .debug_str     0x00003d9c       0xc3 examples/serial/CMakeFiles/serial_nrf52832_xxAA_s132_3.1.0.dir/__/__/mesh/prov/src/provisioning.c.obj
                                0xf45 (size before relaxing)
 .debug_str     0x00003e5f      0x623 examples/serial/CMakeFiles/serial_nrf52832_xxAA_s132_3.1.0.dir/__/__/mesh/prov/src/prov_beacon.c.obj
                               0x18cc (size before relaxing)
 .debug_str     0x00004482      0x1fe examples/serial/CMakeFiles/serial_nrf52832_xxAA_s132_3.1.0.dir/__/__/mesh/prov/src/prov_utils.c.obj
                               0x1e53 (size before relaxing)
 .debug_str     0x00004680      0x813 examples/serial/CMakeFiles/serial_nrf52832_xxAA_s132_3.1.0.dir/__/__/mesh/prov/src/prov_bearer_adv.c.obj
                               0x1b5a (size before relaxing)
 .debug_str     0x00004e93      0x3eb examples/serial/CMakeFiles/serial_nrf52832_xxAA_s132_3.1.0.dir/__/__/mesh/access/src/access_publish.c.obj
                                0xbe6 (size before relaxing)
 .debug_str     0x0000527e     0x1cbf examples/serial/CMakeFiles/serial_nrf52832_xxAA_s132_3.1.0.dir/__/__/mesh/access/src/access.c.obj
                               0x2b46 (size before relaxing)
 .debug_str     0x00006f3d      0x209 examples/serial/CMakeFiles/serial_nrf52832_xxAA_s132_3.1.0.dir/__/__/mesh/access/src/access_reliable.c.obj
                                0xcb4 (size before relaxing)
 .debug_str     0x00007146     0x11da examples/serial/CMakeFiles/serial_nrf52832_xxAA_s132_3.1.0.dir/__/__/mesh/access/src/device_state_manager.c.obj
                               0x2e6b (size before relaxing)
 .debug_str     0x00008320      0x1e5 examples/serial/CMakeFiles/serial_nrf52832_xxAA_s132_3.1.0.dir/__/__/mesh/serial/src/serial_uart.c.obj
                                0xbed (size before relaxing)
 .debug_str     0x00008505     0x1852 examples/serial/CMakeFiles/serial_nrf52832_xxAA_s132_3.1.0.dir/__/__/mesh/serial/src/serial_bearer.c.obj
                               0x2a05 (size before relaxing)
 .debug_str     0x00009d57      0x132 examples/serial/CMakeFiles/serial_nrf52832_xxAA_s132_3.1.0.dir/__/__/mesh/serial/src/serial_handler_common.c.obj
                               0x215e (size before relaxing)
 .debug_str     0x00009e89      0x1c4 examples/serial/CMakeFiles/serial_nrf52832_xxAA_s132_3.1.0.dir/__/__/mesh/serial/src/serial_handler_access.c.obj
                               0x263b (size before relaxing)
 .debug_str     0x0000a04d       0x86 examples/serial/CMakeFiles/serial_nrf52832_xxAA_s132_3.1.0.dir/__/__/mesh/serial/src/serial_handler_config.c.obj
                               0x2102 (size before relaxing)
 .debug_str     0x0000a0d3       0x58 examples/serial/CMakeFiles/serial_nrf52832_xxAA_s132_3.1.0.dir/__/__/mesh/serial/src/serial_handler_openmesh.c.obj
                               0x20a5 (size before relaxing)
 .debug_str     0x0000a12b      0x2a3 examples/serial/CMakeFiles/serial_nrf52832_xxAA_s132_3.1.0.dir/__/__/mesh/serial/src/serial.c.obj
                               0x2557 (size before relaxing)
 .debug_str     0x0000a3ce      0x1f3 examples/serial/CMakeFiles/serial_nrf52832_xxAA_s132_3.1.0.dir/__/__/mesh/serial/src/serial_handler_prov.c.obj
                               0x3e85 (size before relaxing)
 .debug_str     0x0000a5c1      0x2b4 examples/serial/CMakeFiles/serial_nrf52832_xxAA_s132_3.1.0.dir/__/__/mesh/serial/src/serial_handler_dfu.c.obj
                               0x301e (size before relaxing)
 .debug_str     0x0000a875      0x49b examples/serial/CMakeFiles/serial_nrf52832_xxAA_s132_3.1.0.dir/__/__/mesh/serial/src/serial_handler_mesh.c.obj
                               0x3561 (size before relaxing)
 .debug_str     0x0000ad10      0x17d examples/serial/CMakeFiles/serial_nrf52832_xxAA_s132_3.1.0.dir/__/__/mesh/serial/src/serial_handler_models.c.obj
                               0x22ec (size before relaxing)
 .debug_str     0x0000ae8d      0x526 examples/serial/CMakeFiles/serial_nrf52832_xxAA_s132_3.1.0.dir/__/__/mesh/serial/src/serial_handler_device.c.obj
                               0x2ced (size before relaxing)
 .debug_str     0x0000b3b3       0x88 examples/serial/CMakeFiles/serial_nrf52832_xxAA_s132_3.1.0.dir/__/__/mesh/serial/src/nrf_mesh_serial.c.obj
                               0x221c (size before relaxing)
 .debug_str     0x0000b43b       0x4a examples/serial/CMakeFiles/serial_nrf52832_xxAA_s132_3.1.0.dir/__/__/mesh/serial/src/serial_handler_app.c.obj
                               0x20bc (size before relaxing)
 .debug_str     0x0000b485       0x3c examples/serial/CMakeFiles/serial_nrf52832_xxAA_s132_3.1.0.dir/__/nrf_mesh_weak.c.obj
                                0x64d (size before relaxing)
 .debug_str     0x0000b4c1      0x3a5 examples/serial/CMakeFiles/serial_nrf52832_xxAA_s132_3.1.0.dir/__/__/external/nRF5_SDK_14.2.0_17b948a/components/toolchain/system_nrf52.c.obj
                                0x779 (size before relaxing)
 .debug_str     0x0000b866       0xee mesh/core/libmesh_core_nrf52832_xxAA.a(internal_event.c.obj)
                                0xa93 (size before relaxing)
 .debug_str     0x0000b954       0x52 mesh/core/libmesh_core_nrf52832_xxAA.a(nrf_mesh_configure.c.obj)
                                0x77e (size before relaxing)
 .debug_str     0x0000b9a6       0x82 mesh/core/libmesh_core_nrf52832_xxAA.a(event.c.obj)
                               0x14d3 (size before relaxing)
 .debug_str     0x0000ba28      0x2d4 mesh/core/libmesh_core_nrf52832_xxAA.a(packet_buffer.c.obj)
                                0xc2f (size before relaxing)
 .debug_str     0x0000bcfc       0x76 mesh/core/libmesh_core_nrf52832_xxAA.a(fifo.c.obj)
                                0x6f5 (size before relaxing)
 .debug_str     0x0000bd72      0x357 mesh/core/libmesh_core_nrf52832_xxAA.a(net_state.c.obj)
                               0x1e46 (size before relaxing)
 .debug_str     0x0000c0c9       0x8b mesh/core/libmesh_core_nrf52832_xxAA.a(nrf_mesh_utils.c.obj)
                                0x76b (size before relaxing)
 .debug_str     0x0000c154      0x593 mesh/core/libmesh_core_nrf52832_xxAA.a(nrf_mesh.c.obj)
                               0x2a81 (size before relaxing)
 .debug_str     0x0000c6e7       0x98 mesh/core/libmesh_core_nrf52832_xxAA.a(hal.c.obj)
                                0x752 (size before relaxing)
 .debug_str     0x0000c77f      0x13d mesh/core/libmesh_core_nrf52832_xxAA.a(timer_scheduler.c.obj)
                                0x94e (size before relaxing)
 .debug_str     0x0000c8bc      0x225 mesh/core/libmesh_core_nrf52832_xxAA.a(timer.c.obj)
                                0x883 (size before relaxing)
 .debug_str     0x0000cae1       0x3c mesh/core/libmesh_core_nrf52832_xxAA.a(ticker.c.obj)
                                0x34c (size before relaxing)
 .debug_str     0x0000cb1d       0xac mesh/core/libmesh_core_nrf52832_xxAA.a(rand.c.obj)
                                0x6cf (size before relaxing)
 .debug_str     0x0000cbc9       0x75 mesh/core/libmesh_core_nrf52832_xxAA.a(nrf_mesh_opt.c.obj)
                                0x921 (size before relaxing)
 .debug_str     0x0000cc3e      0x8ba mesh/core/libmesh_core_nrf52832_xxAA.a(timeslot.c.obj)
                               0x17e8 (size before relaxing)
 .debug_str     0x0000d4f8      0x2af mesh/core/libmesh_core_nrf52832_xxAA.a(bearer_event.c.obj)
                                0xed3 (size before relaxing)
 .debug_str     0x0000d7a7      0x1ad mesh/core/libmesh_core_nrf52832_xxAA.a(enc.c.obj)
                                0x9d4 (size before relaxing)
 .debug_str     0x0000d954      0x6ac mesh/core/libmesh_core_nrf52832_xxAA.a(network.c.obj)
                               0x19c7 (size before relaxing)
 .debug_str     0x0000e000       0x57 mesh/core/libmesh_core_nrf52832_xxAA.a(nrf_mesh_keygen.c.obj)
                                0x397 (size before relaxing)
 .debug_str     0x0000e057       0x65 mesh/core/libmesh_core_nrf52832_xxAA.a(list.c.obj)
                                0x2d8 (size before relaxing)
 .debug_str     0x0000e0bc      0x182 mesh/core/libmesh_core_nrf52832_xxAA.a(log.c.obj)
                                0x7d0 (size before relaxing)
 .debug_str     0x0000e23e      0x782 mesh/core/libmesh_core_nrf52832_xxAA.a(flash_manager.c.obj)
                               0x19d1 (size before relaxing)
 .debug_str     0x0000e9c0       0x85 mesh/core/libmesh_core_nrf52832_xxAA.a(ccm_soft.c.obj)
                                0x75d (size before relaxing)
 .debug_str     0x0000ea45       0xa6 mesh/core/libmesh_core_nrf52832_xxAA.a(beacon.c.obj)
                               0x1133 (size before relaxing)
 .debug_str     0x0000eaeb       0x38 mesh/core/libmesh_core_nrf52832_xxAA.a(flash_manager_internal.c.obj)
                                0x7be (size before relaxing)
 .debug_str     0x0000eb23      0x138 mesh/core/libmesh_core_nrf52832_xxAA.a(core_tx.c.obj)
                                0x8bd (size before relaxing)
 .debug_str     0x0000ec5b      0x748 mesh/core/libmesh_core_nrf52832_xxAA.a(heartbeat.c.obj)
                               0x203b (size before relaxing)
 .debug_str     0x0000f3a3      0x1c2 mesh/core/libmesh_core_nrf52832_xxAA.a(net_beacon.c.obj)
                                0xe84 (size before relaxing)
 .debug_str     0x0000f565      0x102 mesh/core/libmesh_core_nrf52832_xxAA.a(core_tx_adv.c.obj)
                               0x104b (size before relaxing)
 .debug_str     0x0000f667      0x189 mesh/core/libmesh_core_nrf52832_xxAA.a(ad_listener.c.obj)
                                0xb7f (size before relaxing)
 .debug_str     0x0000f7f0      0x14f mesh/core/libmesh_core_nrf52832_xxAA.a(ad_type_filter.c.obj)
                                0x9b9 (size before relaxing)
 .debug_str     0x0000f93f      0x2ab mesh/core/libmesh_core_nrf52832_xxAA.a(advertiser.c.obj)
                               0x150c (size before relaxing)
 .debug_str     0x0000fbea      0x34c mesh/core/libmesh_core_nrf52832_xxAA.a(bearer_handler.c.obj)
                                0xf8f (size before relaxing)
 .debug_str     0x0000ff36      0x1ac mesh/core/libmesh_core_nrf52832_xxAA.a(broadcast.c.obj)
                                0xf32 (size before relaxing)
 .debug_str     0x000100e2       0x72 mesh/core/libmesh_core_nrf52832_xxAA.a(filter_engine.c.obj)
                                0x826 (size before relaxing)
 .debug_str     0x00010154       0x79 mesh/core/libmesh_core_nrf52832_xxAA.a(radio_config.c.obj)
                                0x780 (size before relaxing)
 .debug_str     0x000101cd      0x45d mesh/core/libmesh_core_nrf52832_xxAA.a(scanner.c.obj)
                               0x18d8 (size before relaxing)
 .debug_str     0x0001062a       0xc1 mesh/core/libmesh_core_nrf52832_xxAA.a(aes.c.obj)
                                0xa61 (size before relaxing)
 .debug_str     0x000106eb       0x68 mesh/core/libmesh_core_nrf52832_xxAA.a(msg_cache.c.obj)
                                0x6ea (size before relaxing)
 .debug_str     0x00010753      0xd0f mesh/core/libmesh_core_nrf52832_xxAA.a(transport.c.obj)
                               0x31ea (size before relaxing)
 .debug_str     0x00011462      0x36b mesh/core/libmesh_core_nrf52832_xxAA.a(flash_manager_defrag.c.obj)
                               0x1528 (size before relaxing)
 .debug_str     0x000117cd      0x266 mesh/core/libmesh_core_nrf52832_xxAA.a(packet_mgr.c.obj)
                                0x9cf (size before relaxing)
 .debug_str     0x00011a33      0x343 mesh/core/libmesh_core_nrf52832_xxAA.a(mesh_flash.c.obj)
                                0xcf6 (size before relaxing)
 .debug_str     0x00011d76       0x19 mesh/core/libmesh_core_nrf52832_xxAA.a(queue.c.obj)
                                0x69d (size before relaxing)
 .debug_str     0x00011d8f       0xb8 mesh/core/libmesh_core_nrf52832_xxAA.a(aes_cmac.c.obj)
                                0x715 (size before relaxing)
 .debug_str     0x00011e47       0x43 mesh/core/libmesh_core_nrf52832_xxAA.a(msqueue.c.obj)
                                0x6d9 (size before relaxing)
 .debug_str     0x00011e8a       0x9f mesh/core/libmesh_core_nrf52832_xxAA.a(replay_cache.c.obj)
                                0x6b0 (size before relaxing)
 .debug_str     0x00011f29       0x36 mesh/core/libmesh_core_nrf52832_xxAA.a(nrf_flash.c.obj)
                                0x6ec (size before relaxing)
 .debug_str     0x00011f5f      0x691 external/micro-ecc/libuECC_nrf52832_xxAA.a(uECC.c.obj)
                                0x880 (size before relaxing)
 .debug_str     0x000125f0      0x2d1 external/rtt/librtt_nrf52832_xxAA.a(SEGGER_RTT.c.obj)
                                0x922 (size before relaxing)
 .debug_str     0x000128c1       0xdf external/rtt/librtt_nrf52832_xxAA.a(SEGGER_RTT_printf.c.obj)
                                0x792 (size before relaxing)

.debug_frame    0x00000000     0x6b34
 .debug_frame   0x00000000       0x3c examples/serial/CMakeFiles/serial_nrf52832_xxAA_s132_3.1.0.dir/src/main.c.obj
 .debug_frame   0x0000003c      0x180 examples/serial/CMakeFiles/serial_nrf52832_xxAA_s132_3.1.0.dir/__/nrf_mesh_sdk.c.obj
 .debug_frame   0x000001bc      0x170 examples/serial/CMakeFiles/serial_nrf52832_xxAA_s132_3.1.0.dir/__/__/mesh/prov/src/prov_provisioner.c.obj
 .debug_frame   0x0000032c      0x180 examples/serial/CMakeFiles/serial_nrf52832_xxAA_s132_3.1.0.dir/__/__/mesh/prov/src/prov_provisionee.c.obj
 .debug_frame   0x000004ac      0x124 examples/serial/CMakeFiles/serial_nrf52832_xxAA_s132_3.1.0.dir/__/__/mesh/prov/src/nrf_mesh_prov.c.obj
 .debug_frame   0x000005d0      0x174 examples/serial/CMakeFiles/serial_nrf52832_xxAA_s132_3.1.0.dir/__/__/mesh/prov/src/provisioning.c.obj
 .debug_frame   0x00000744       0x84 examples/serial/CMakeFiles/serial_nrf52832_xxAA_s132_3.1.0.dir/__/__/mesh/prov/src/prov_beacon.c.obj
 .debug_frame   0x000007c8      0x150 examples/serial/CMakeFiles/serial_nrf52832_xxAA_s132_3.1.0.dir/__/__/mesh/prov/src/prov_utils.c.obj
 .debug_frame   0x00000918      0x328 examples/serial/CMakeFiles/serial_nrf52832_xxAA_s132_3.1.0.dir/__/__/mesh/prov/src/prov_bearer_adv.c.obj
 .debug_frame   0x00000c40      0x114 examples/serial/CMakeFiles/serial_nrf52832_xxAA_s132_3.1.0.dir/__/__/mesh/access/src/access_publish.c.obj
 .debug_frame   0x00000d54      0x538 examples/serial/CMakeFiles/serial_nrf52832_xxAA_s132_3.1.0.dir/__/__/mesh/access/src/access.c.obj
 .debug_frame   0x0000128c      0x100 examples/serial/CMakeFiles/serial_nrf52832_xxAA_s132_3.1.0.dir/__/__/mesh/access/src/access_reliable.c.obj
 .debug_frame   0x0000138c      0xad0 examples/serial/CMakeFiles/serial_nrf52832_xxAA_s132_3.1.0.dir/__/__/mesh/access/src/device_state_manager.c.obj
 .debug_frame   0x00001e5c       0x68 examples/serial/CMakeFiles/serial_nrf52832_xxAA_s132_3.1.0.dir/__/__/mesh/serial/src/serial_uart.c.obj
 .debug_frame   0x00001ec4      0x154 examples/serial/CMakeFiles/serial_nrf52832_xxAA_s132_3.1.0.dir/__/__/mesh/serial/src/serial_bearer.c.obj
 .debug_frame   0x00002018       0x64 examples/serial/CMakeFiles/serial_nrf52832_xxAA_s132_3.1.0.dir/__/__/mesh/serial/src/serial_handler_common.c.obj
 .debug_frame   0x0000207c      0x2b0 examples/serial/CMakeFiles/serial_nrf52832_xxAA_s132_3.1.0.dir/__/__/mesh/serial/src/serial_handler_access.c.obj
 .debug_frame   0x0000232c       0x30 examples/serial/CMakeFiles/serial_nrf52832_xxAA_s132_3.1.0.dir/__/__/mesh/serial/src/serial_handler_config.c.obj
 .debug_frame   0x0000235c       0x30 examples/serial/CMakeFiles/serial_nrf52832_xxAA_s132_3.1.0.dir/__/__/mesh/serial/src/serial_handler_openmesh.c.obj
 .debug_frame   0x0000238c      0x104 examples/serial/CMakeFiles/serial_nrf52832_xxAA_s132_3.1.0.dir/__/__/mesh/serial/src/serial.c.obj
 .debug_frame   0x00002490       0xb4 examples/serial/CMakeFiles/serial_nrf52832_xxAA_s132_3.1.0.dir/__/__/mesh/serial/src/serial_handler_prov.c.obj
 .debug_frame   0x00002544       0x60 examples/serial/CMakeFiles/serial_nrf52832_xxAA_s132_3.1.0.dir/__/__/mesh/serial/src/serial_handler_dfu.c.obj
 .debug_frame   0x000025a4      0x3a4 examples/serial/CMakeFiles/serial_nrf52832_xxAA_s132_3.1.0.dir/__/__/mesh/serial/src/serial_handler_mesh.c.obj
 .debug_frame   0x00002948       0xc4 examples/serial/CMakeFiles/serial_nrf52832_xxAA_s132_3.1.0.dir/__/__/mesh/serial/src/serial_handler_models.c.obj
 .debug_frame   0x00002a0c      0x17c examples/serial/CMakeFiles/serial_nrf52832_xxAA_s132_3.1.0.dir/__/__/mesh/serial/src/serial_handler_device.c.obj
 .debug_frame   0x00002b88       0x6c examples/serial/CMakeFiles/serial_nrf52832_xxAA_s132_3.1.0.dir/__/__/mesh/serial/src/nrf_mesh_serial.c.obj
 .debug_frame   0x00002bf4       0x40 examples/serial/CMakeFiles/serial_nrf52832_xxAA_s132_3.1.0.dir/__/__/mesh/serial/src/serial_handler_app.c.obj
 .debug_frame   0x00002c34       0x30 examples/serial/CMakeFiles/serial_nrf52832_xxAA_s132_3.1.0.dir/__/nrf_mesh_weak.c.obj
 .debug_frame   0x00002c64       0x58 examples/serial/CMakeFiles/serial_nrf52832_xxAA_s132_3.1.0.dir/__/__/external/nRF5_SDK_14.2.0_17b948a/components/toolchain/system_nrf52.c.obj
 .debug_frame   0x00002cbc       0x48 mesh/core/libmesh_core_nrf52832_xxAA.a(internal_event.c.obj)
 .debug_frame   0x00002d04       0x4c mesh/core/libmesh_core_nrf52832_xxAA.a(nrf_mesh_configure.c.obj)
 .debug_frame   0x00002d50       0x6c mesh/core/libmesh_core_nrf52832_xxAA.a(event.c.obj)
 .debug_frame   0x00002dbc      0x184 mesh/core/libmesh_core_nrf52832_xxAA.a(packet_buffer.c.obj)
 .debug_frame   0x00002f40       0xd0 mesh/core/libmesh_core_nrf52832_xxAA.a(fifo.c.obj)
 .debug_frame   0x00003010      0x264 mesh/core/libmesh_core_nrf52832_xxAA.a(net_state.c.obj)
 .debug_frame   0x00003274       0x50 mesh/core/libmesh_core_nrf52832_xxAA.a(nrf_mesh_utils.c.obj)
 .debug_frame   0x000032c4      0x15c mesh/core/libmesh_core_nrf52832_xxAA.a(nrf_mesh.c.obj)
 .debug_frame   0x00003420       0x58 mesh/core/libmesh_core_nrf52832_xxAA.a(hal.c.obj)
 .debug_frame   0x00003478      0x13c mesh/core/libmesh_core_nrf52832_xxAA.a(timer_scheduler.c.obj)
 .debug_frame   0x000035b4      0x10c mesh/core/libmesh_core_nrf52832_xxAA.a(timer.c.obj)
 .debug_frame   0x000036c0       0x4c mesh/core/libmesh_core_nrf52832_xxAA.a(ticker.c.obj)
 .debug_frame   0x0000370c       0x84 mesh/core/libmesh_core_nrf52832_xxAA.a(rand.c.obj)
 .debug_frame   0x00003790       0x30 mesh/core/libmesh_core_nrf52832_xxAA.a(nrf_mesh_opt.c.obj)
 .debug_frame   0x000037c0      0x1a0 mesh/core/libmesh_core_nrf52832_xxAA.a(timeslot.c.obj)
 .debug_frame   0x00003960      0x1c8 mesh/core/libmesh_core_nrf52832_xxAA.a(bearer_event.c.obj)
 .debug_frame   0x00003b28      0x150 mesh/core/libmesh_core_nrf52832_xxAA.a(enc.c.obj)
 .debug_frame   0x00003c78      0x14c mesh/core/libmesh_core_nrf52832_xxAA.a(network.c.obj)
 .debug_frame   0x00003dc4       0xb4 mesh/core/libmesh_core_nrf52832_xxAA.a(nrf_mesh_keygen.c.obj)
 .debug_frame   0x00003e78       0xd4 mesh/core/libmesh_core_nrf52832_xxAA.a(list.c.obj)
 .debug_frame   0x00003f4c       0xb0 mesh/core/libmesh_core_nrf52832_xxAA.a(log.c.obj)
 .debug_frame   0x00003ffc      0x33c mesh/core/libmesh_core_nrf52832_xxAA.a(flash_manager.c.obj)
 .debug_frame   0x00004338      0x10c mesh/core/libmesh_core_nrf52832_xxAA.a(ccm_soft.c.obj)
 .debug_frame   0x00004444       0x98 mesh/core/libmesh_core_nrf52832_xxAA.a(beacon.c.obj)
 .debug_frame   0x000044dc       0x34 mesh/core/libmesh_core_nrf52832_xxAA.a(flash_manager_internal.c.obj)
 .debug_frame   0x00004510       0xe8 mesh/core/libmesh_core_nrf52832_xxAA.a(core_tx.c.obj)
 .debug_frame   0x000045f8      0x164 mesh/core/libmesh_core_nrf52832_xxAA.a(heartbeat.c.obj)
 .debug_frame   0x0000475c       0xd0 mesh/core/libmesh_core_nrf52832_xxAA.a(net_beacon.c.obj)
 .debug_frame   0x0000482c      0x128 mesh/core/libmesh_core_nrf52832_xxAA.a(core_tx_adv.c.obj)
 .debug_frame   0x00004954       0x6c mesh/core/libmesh_core_nrf52832_xxAA.a(ad_listener.c.obj)
 .debug_frame   0x000049c0       0xa8 mesh/core/libmesh_core_nrf52832_xxAA.a(ad_type_filter.c.obj)
 .debug_frame   0x00004a68      0x284 mesh/core/libmesh_core_nrf52832_xxAA.a(advertiser.c.obj)
 .debug_frame   0x00004cec      0x160 mesh/core/libmesh_core_nrf52832_xxAA.a(bearer_handler.c.obj)
 .debug_frame   0x00004e4c       0x70 mesh/core/libmesh_core_nrf52832_xxAA.a(broadcast.c.obj)
 .debug_frame   0x00004ebc       0x7c mesh/core/libmesh_core_nrf52832_xxAA.a(filter_engine.c.obj)
 .debug_frame   0x00004f38       0x90 mesh/core/libmesh_core_nrf52832_xxAA.a(radio_config.c.obj)
 .debug_frame   0x00004fc8      0x2a4 mesh/core/libmesh_core_nrf52832_xxAA.a(scanner.c.obj)
 .debug_frame   0x0000526c       0x40 mesh/core/libmesh_core_nrf52832_xxAA.a(aes.c.obj)
 .debug_frame   0x000052ac       0x6c mesh/core/libmesh_core_nrf52832_xxAA.a(msg_cache.c.obj)
 .debug_frame   0x00005318      0x44c mesh/core/libmesh_core_nrf52832_xxAA.a(transport.c.obj)
 .debug_frame   0x00005764      0x250 mesh/core/libmesh_core_nrf52832_xxAA.a(flash_manager_defrag.c.obj)
 .debug_frame   0x000059b4       0xa0 mesh/core/libmesh_core_nrf52832_xxAA.a(packet_mgr.c.obj)
 .debug_frame   0x00005a54      0x150 mesh/core/libmesh_core_nrf52832_xxAA.a(mesh_flash.c.obj)
 .debug_frame   0x00005ba4       0x74 mesh/core/libmesh_core_nrf52832_xxAA.a(queue.c.obj)
 .debug_frame   0x00005c18       0xa4 mesh/core/libmesh_core_nrf52832_xxAA.a(aes_cmac.c.obj)
 .debug_frame   0x00005cbc       0xb8 mesh/core/libmesh_core_nrf52832_xxAA.a(msqueue.c.obj)
 .debug_frame   0x00005d74       0xa0 mesh/core/libmesh_core_nrf52832_xxAA.a(replay_cache.c.obj)
 .debug_frame   0x00005e14       0x54 mesh/core/libmesh_core_nrf52832_xxAA.a(nrf_flash.c.obj)
 .debug_frame   0x00005e68      0x684 external/micro-ecc/libuECC_nrf52832_xxAA.a(uECC.c.obj)
 .debug_frame   0x000064ec      0x2d8 external/rtt/librtt_nrf52832_xxAA.a(SEGGER_RTT.c.obj)
 .debug_frame   0x000067c4       0xac external/rtt/librtt_nrf52832_xxAA.a(SEGGER_RTT_printf.c.obj)
 .debug_frame   0x00006870       0x28 c:/a/gcc_arm/6/bin/../lib/gcc/arm-none-eabi/6.3.1/../../../../arm-none-eabi/lib/thumb/v7e-m/fpv4-sp/hard\libg_nano.a(lib_a-exit.o)
 .debug_frame   0x00006898       0x2c c:/a/gcc_arm/6/bin/../lib/gcc/arm-none-eabi/6.3.1/../../../../arm-none-eabi/lib/thumb/v7e-m/fpv4-sp/hard\libg_nano.a(lib_a-init.o)
 .debug_frame   0x000068c4       0x30 c:/a/gcc_arm/6/bin/../lib/gcc/arm-none-eabi/6.3.1/../../../../arm-none-eabi/lib/thumb/v7e-m/fpv4-sp/hard\libg_nano.a(lib_a-malloc.o)
 .debug_frame   0x000068f4       0x28 c:/a/gcc_arm/6/bin/../lib/gcc/arm-none-eabi/6.3.1/../../../../arm-none-eabi/lib/thumb/v7e-m/fpv4-sp/hard\libg_nano.a(lib_a-memcmp.o)
 .debug_frame   0x0000691c       0x28 c:/a/gcc_arm/6/bin/../lib/gcc/arm-none-eabi/6.3.1/../../../../arm-none-eabi/lib/thumb/v7e-m/fpv4-sp/hard\libg_nano.a(lib_a-memcpy-stub.o)
 .debug_frame   0x00006944       0x20 c:/a/gcc_arm/6/bin/../lib/gcc/arm-none-eabi/6.3.1/../../../../arm-none-eabi/lib/thumb/v7e-m/fpv4-sp/hard\libg_nano.a(lib_a-memset.o)
 .debug_frame   0x00006964       0x38 c:/a/gcc_arm/6/bin/../lib/gcc/arm-none-eabi/6.3.1/../../../../arm-none-eabi/lib/thumb/v7e-m/fpv4-sp/hard\libg_nano.a(lib_a-nano-freer.o)
 .debug_frame   0x0000699c       0x2c c:/a/gcc_arm/6/bin/../lib/gcc/arm-none-eabi/6.3.1/../../../../arm-none-eabi/lib/thumb/v7e-m/fpv4-sp/hard\libg_nano.a(lib_a-nano-mallocr.o)
 .debug_frame   0x000069c8       0x2c c:/a/gcc_arm/6/bin/../lib/gcc/arm-none-eabi/6.3.1/../../../../arm-none-eabi/lib/thumb/v7e-m/fpv4-sp/hard\libg_nano.a(lib_a-sbrkr.o)
 .debug_frame   0x000069f4       0x20 c:/a/gcc_arm/6/bin/../lib/gcc/arm-none-eabi/6.3.1/../../../../arm-none-eabi/lib/thumb/v7e-m/fpv4-sp/hard\libg_nano.a(lib_a-strcpy.o)
 .debug_frame   0x00006a14       0x34 c:/a/gcc_arm/6/bin/../lib/gcc/arm-none-eabi/6.3.1/../../../../arm-none-eabi/lib/thumb/v7e-m/fpv4-sp/hard\libg_nano.a(lib_a-strrchr.o)
 .debug_frame   0x00006a48       0x30 c:/a/gcc_arm/6/bin/../lib/gcc/arm-none-eabi/6.3.1/../../../../arm-none-eabi/lib/thumb/v7e-m/fpv4-sp/hard\libg_nano.a(lib_a-mlock.o)
 .debug_frame   0x00006a78       0x5c c:/a/gcc_arm/6/bin/../lib/gcc/arm-none-eabi/6.3.1/../../../../arm-none-eabi/lib/thumb/v7e-m/fpv4-sp/hard\libg_nano.a(lib_a-reent.o)
 .debug_frame   0x00006ad4       0x20 c:/a/gcc_arm/6/bin/../lib/gcc/arm-none-eabi/6.3.1/../../../../arm-none-eabi/lib/thumb/v7e-m/fpv4-sp/hard\libg_nano.a(lib_a-strchr.o)
 .debug_frame   0x00006af4       0x20 c:/a/gcc_arm/6/bin/../lib/gcc/arm-none-eabi/6.3.1/../../../../arm-none-eabi/lib/thumb/v7e-m/fpv4-sp/hard\libnosys.a(sbrk.o)
 .debug_frame   0x00006b14       0x20 c:/a/gcc_arm/6/bin/../lib/gcc/arm-none-eabi/6.3.1/../../../../arm-none-eabi/lib/thumb/v7e-m/fpv4-sp/hard\libnosys.a(_exit.o)
