Archive member included to satisfy reference by file (symbol)

external/rtt/librtt_nrf52832_xxAA.a(SEGGER_RTT.c.obj)
                              examples/enocean_switch/CMakeFiles/enocean_switch_nrf52832_xxAA_s132_6.0.0.dir/__/__/mesh/core/src/log.c.obj (SEGGER_RTT_Write)
external/rtt/librtt_nrf52832_xxAA.a(SEGGER_RTT_printf.c.obj)
                              examples/enocean_switch/CMakeFiles/enocean_switch_nrf52832_xxAA_s132_6.0.0.dir/__/__/mesh/core/src/log.c.obj (SEGGER_RTT_vprintf)
external/micro-ecc/libuECC_nrf52832_xxAA.a(uECC.c.obj)
                              examples/enocean_switch/CMakeFiles/enocean_switch_nrf52832_xxAA_s132_6.0.0.dir/__/__/mesh/prov/src/prov_utils.c.obj (uECC_secp256r1)
c:/mesh/arm_gcc/bin/../lib/gcc/arm-none-eabi/6.3.1/thumb/v7e-m/fpv4-sp/hard\libgcc.a(_aeabi_uldivmod.o)
                              examples/enocean_switch/CMakeFiles/enocean_switch_nrf52832_xxAA_s132_6.0.0.dir/__/common/src/rtt_input.c.obj (__aeabi_uldivmod)
c:/mesh/arm_gcc/bin/../lib/gcc/arm-none-eabi/6.3.1/thumb/v7e-m/fpv4-sp/hard\libgcc.a(_udivmoddi4.o)
                              c:/mesh/arm_gcc/bin/../lib/gcc/arm-none-eabi/6.3.1/thumb/v7e-m/fpv4-sp/hard\libgcc.a(_aeabi_uldivmod.o) (__udivmoddi4)
c:/mesh/arm_gcc/bin/../lib/gcc/arm-none-eabi/6.3.1/thumb/v7e-m/fpv4-sp/hard\libgcc.a(_dvmd_tls.o)
                              c:/mesh/arm_gcc/bin/../lib/gcc/arm-none-eabi/6.3.1/thumb/v7e-m/fpv4-sp/hard\libgcc.a(_aeabi_uldivmod.o) (__aeabi_ldiv0)
c:/mesh/arm_gcc/bin/../lib/gcc/arm-none-eabi/6.3.1/../../../../arm-none-eabi/lib/thumb/v7e-m/fpv4-sp/hard\libg_nano.a(lib_a-exit.o)
                              c:/mesh/arm_gcc/bin/../lib/gcc/arm-none-eabi/6.3.1/../../../../arm-none-eabi/lib/thumb/v7e-m/fpv4-sp/hard/crt0.o (exit)
c:/mesh/arm_gcc/bin/../lib/gcc/arm-none-eabi/6.3.1/../../../../arm-none-eabi/lib/thumb/v7e-m/fpv4-sp/hard\libg_nano.a(lib_a-impure.o)
                              c:/mesh/arm_gcc/bin/../lib/gcc/arm-none-eabi/6.3.1/../../../../arm-none-eabi/lib/thumb/v7e-m/fpv4-sp/hard\libg_nano.a(lib_a-exit.o) (_global_impure_ptr)
c:/mesh/arm_gcc/bin/../lib/gcc/arm-none-eabi/6.3.1/../../../../arm-none-eabi/lib/thumb/v7e-m/fpv4-sp/hard\libg_nano.a(lib_a-init.o)
                              c:/mesh/arm_gcc/bin/../lib/gcc/arm-none-eabi/6.3.1/../../../../arm-none-eabi/lib/thumb/v7e-m/fpv4-sp/hard/crt0.o (__libc_init_array)
c:/mesh/arm_gcc/bin/../lib/gcc/arm-none-eabi/6.3.1/../../../../arm-none-eabi/lib/thumb/v7e-m/fpv4-sp/hard\libg_nano.a(lib_a-malloc.o)
                              examples/enocean_switch/CMakeFiles/enocean_switch_nrf52832_xxAA_s132_6.0.0.dir/__/__/mesh/core/src/transport.c.obj (malloc)
c:/mesh/arm_gcc/bin/../lib/gcc/arm-none-eabi/6.3.1/../../../../arm-none-eabi/lib/thumb/v7e-m/fpv4-sp/hard\libg_nano.a(lib_a-memcmp.o)
                              examples/enocean_switch/CMakeFiles/enocean_switch_nrf52832_xxAA_s132_6.0.0.dir/src/enocean.c.obj (memcmp)
c:/mesh/arm_gcc/bin/../lib/gcc/arm-none-eabi/6.3.1/../../../../arm-none-eabi/lib/thumb/v7e-m/fpv4-sp/hard\libg_nano.a(lib_a-memcpy-stub.o)
                              examples/enocean_switch/CMakeFiles/enocean_switch_nrf52832_xxAA_s132_6.0.0.dir/src/main.c.obj (memcpy)
c:/mesh/arm_gcc/bin/../lib/gcc/arm-none-eabi/6.3.1/../../../../arm-none-eabi/lib/thumb/v7e-m/fpv4-sp/hard\libg_nano.a(lib_a-memset.o)
                              c:/mesh/arm_gcc/bin/../lib/gcc/arm-none-eabi/6.3.1/../../../../arm-none-eabi/lib/thumb/v7e-m/fpv4-sp/hard/crt0.o (memset)
c:/mesh/arm_gcc/bin/../lib/gcc/arm-none-eabi/6.3.1/../../../../arm-none-eabi/lib/thumb/v7e-m/fpv4-sp/hard\libg_nano.a(lib_a-nano-freer.o)
                              c:/mesh/arm_gcc/bin/../lib/gcc/arm-none-eabi/6.3.1/../../../../arm-none-eabi/lib/thumb/v7e-m/fpv4-sp/hard\libg_nano.a(lib_a-malloc.o) (_free_r)
c:/mesh/arm_gcc/bin/../lib/gcc/arm-none-eabi/6.3.1/../../../../arm-none-eabi/lib/thumb/v7e-m/fpv4-sp/hard\libg_nano.a(lib_a-nano-mallocr.o)
                              c:/mesh/arm_gcc/bin/../lib/gcc/arm-none-eabi/6.3.1/../../../../arm-none-eabi/lib/thumb/v7e-m/fpv4-sp/hard\libg_nano.a(lib_a-malloc.o) (_malloc_r)
c:/mesh/arm_gcc/bin/../lib/gcc/arm-none-eabi/6.3.1/../../../../arm-none-eabi/lib/thumb/v7e-m/fpv4-sp/hard\libg_nano.a(lib_a-sbrkr.o)
                              c:/mesh/arm_gcc/bin/../lib/gcc/arm-none-eabi/6.3.1/../../../../arm-none-eabi/lib/thumb/v7e-m/fpv4-sp/hard\libg_nano.a(lib_a-nano-mallocr.o) (_sbrk_r)
c:/mesh/arm_gcc/bin/../lib/gcc/arm-none-eabi/6.3.1/../../../../arm-none-eabi/lib/thumb/v7e-m/fpv4-sp/hard\libg_nano.a(lib_a-strcpy.o)
                              external/rtt/librtt_nrf52832_xxAA.a(SEGGER_RTT.c.obj) (strcpy)
c:/mesh/arm_gcc/bin/../lib/gcc/arm-none-eabi/6.3.1/../../../../arm-none-eabi/lib/thumb/v7e-m/fpv4-sp/hard\libg_nano.a(lib_a-strlen.o)
                              examples/enocean_switch/CMakeFiles/enocean_switch_nrf52832_xxAA_s132_6.0.0.dir/__/__/mesh/prov/src/prov_beacon.c.obj (strlen)
c:/mesh/arm_gcc/bin/../lib/gcc/arm-none-eabi/6.3.1/../../../../arm-none-eabi/lib/thumb/v7e-m/fpv4-sp/hard\libg_nano.a(lib_a-strrchr.o)
                              examples/enocean_switch/CMakeFiles/enocean_switch_nrf52832_xxAA_s132_6.0.0.dir/src/main.c.obj (strrchr)
c:/mesh/arm_gcc/bin/../lib/gcc/arm-none-eabi/6.3.1/../../../../arm-none-eabi/lib/thumb/v7e-m/fpv4-sp/hard\libg_nano.a(lib_a-mlock.o)
                              c:/mesh/arm_gcc/bin/../lib/gcc/arm-none-eabi/6.3.1/../../../../arm-none-eabi/lib/thumb/v7e-m/fpv4-sp/hard\libg_nano.a(lib_a-nano-freer.o) (__malloc_lock)
c:/mesh/arm_gcc/bin/../lib/gcc/arm-none-eabi/6.3.1/../../../../arm-none-eabi/lib/thumb/v7e-m/fpv4-sp/hard\libg_nano.a(lib_a-reent.o)
                              c:/mesh/arm_gcc/bin/../lib/gcc/arm-none-eabi/6.3.1/../../../../arm-none-eabi/lib/thumb/v7e-m/fpv4-sp/hard\libg_nano.a(lib_a-sbrkr.o) (errno)
c:/mesh/arm_gcc/bin/../lib/gcc/arm-none-eabi/6.3.1/../../../../arm-none-eabi/lib/thumb/v7e-m/fpv4-sp/hard\libg_nano.a(lib_a-strchr.o)
                              c:/mesh/arm_gcc/bin/../lib/gcc/arm-none-eabi/6.3.1/../../../../arm-none-eabi/lib/thumb/v7e-m/fpv4-sp/hard\libg_nano.a(lib_a-strrchr.o) (strchr)
c:/mesh/arm_gcc/bin/../lib/gcc/arm-none-eabi/6.3.1/../../../../arm-none-eabi/lib/thumb/v7e-m/fpv4-sp/hard\libnosys.a(sbrk.o)
                              c:/mesh/arm_gcc/bin/../lib/gcc/arm-none-eabi/6.3.1/../../../../arm-none-eabi/lib/thumb/v7e-m/fpv4-sp/hard\libg_nano.a(lib_a-sbrkr.o) (_sbrk)
c:/mesh/arm_gcc/bin/../lib/gcc/arm-none-eabi/6.3.1/../../../../arm-none-eabi/lib/thumb/v7e-m/fpv4-sp/hard\libnosys.a(_exit.o)
                              c:/mesh/arm_gcc/bin/../lib/gcc/arm-none-eabi/6.3.1/../../../../arm-none-eabi/lib/thumb/v7e-m/fpv4-sp/hard\libg_nano.a(lib_a-exit.o) (_exit)

Allocating common symbols
Common symbol       size              file

nrf_nvic_state      0xc               examples/enocean_switch/CMakeFiles/enocean_switch_nrf52832_xxAA_s132_6.0.0.dir/C_/b/nRF5_SDK_15.0.0_a53641a/components/libraries/util/app_util_platform.c.obj
m_packet            0x24              examples/enocean_switch/CMakeFiles/enocean_switch_nrf52832_xxAA_s132_6.0.0.dir/__/__/mesh/core/src/core_tx.c.obj
errno               0x4               c:/mesh/arm_gcc/bin/../lib/gcc/arm-none-eabi/6.3.1/../../../../arm-none-eabi/lib/thumb/v7e-m/fpv4-sp/hard\libg_nano.a(lib_a-reent.o)
_SEGGER_RTT         0x78              external/rtt/librtt_nrf52832_xxAA.a(SEGGER_RTT.c.obj)

Discarded input sections

 .text          0x00000000        0x0 c:/mesh/arm_gcc/bin/../lib/gcc/arm-none-eabi/6.3.1/thumb/v7e-m/fpv4-sp/hard/crti.o
 .data          0x00000000        0x0 c:/mesh/arm_gcc/bin/../lib/gcc/arm-none-eabi/6.3.1/thumb/v7e-m/fpv4-sp/hard/crti.o
 .bss           0x00000000        0x0 c:/mesh/arm_gcc/bin/../lib/gcc/arm-none-eabi/6.3.1/thumb/v7e-m/fpv4-sp/hard/crti.o
 .data          0x00000000        0x4 c:/mesh/arm_gcc/bin/../lib/gcc/arm-none-eabi/6.3.1/thumb/v7e-m/fpv4-sp/hard/crtbegin.o
 .data          0x00000000        0x0 c:/mesh/arm_gcc/bin/../lib/gcc/arm-none-eabi/6.3.1/../../../../arm-none-eabi/lib/thumb/v7e-m/fpv4-sp/hard/crt0.o
 .bss           0x00000000        0x0 c:/mesh/arm_gcc/bin/../lib/gcc/arm-none-eabi/6.3.1/../../../../arm-none-eabi/lib/thumb/v7e-m/fpv4-sp/hard/crt0.o
 .ARM.extab     0x00000000        0x0 c:/mesh/arm_gcc/bin/../lib/gcc/arm-none-eabi/6.3.1/../../../../arm-none-eabi/lib/thumb/v7e-m/fpv4-sp/hard/crt0.o
 .text          0x00000000        0x0 examples/enocean_switch/CMakeFiles/enocean_switch_nrf52832_xxAA_s132_6.0.0.dir/src/main.c.obj
 .data          0x00000000        0x0 examples/enocean_switch/CMakeFiles/enocean_switch_nrf52832_xxAA_s132_6.0.0.dir/src/main.c.obj
 .bss           0x00000000        0x0 examples/enocean_switch/CMakeFiles/enocean_switch_nrf52832_xxAA_s132_6.0.0.dir/src/main.c.obj
 .text          0x00000000        0x0 examples/enocean_switch/CMakeFiles/enocean_switch_nrf52832_xxAA_s132_6.0.0.dir/src/enocean.c.obj
 .data          0x00000000        0x0 examples/enocean_switch/CMakeFiles/enocean_switch_nrf52832_xxAA_s132_6.0.0.dir/src/enocean.c.obj
 .bss           0x00000000        0x0 examples/enocean_switch/CMakeFiles/enocean_switch_nrf52832_xxAA_s132_6.0.0.dir/src/enocean.c.obj
 .text          0x00000000        0x0 examples/enocean_switch/CMakeFiles/enocean_switch_nrf52832_xxAA_s132_6.0.0.dir/src/flash_helper.c.obj
 .data          0x00000000        0x0 examples/enocean_switch/CMakeFiles/enocean_switch_nrf52832_xxAA_s132_6.0.0.dir/src/flash_helper.c.obj
 .bss           0x00000000        0x0 examples/enocean_switch/CMakeFiles/enocean_switch_nrf52832_xxAA_s132_6.0.0.dir/src/flash_helper.c.obj
 .text          0x00000000        0x0 examples/enocean_switch/CMakeFiles/enocean_switch_nrf52832_xxAA_s132_6.0.0.dir/__/__/mesh/stack/src/mesh_stack.c.obj
 .data          0x00000000        0x0 examples/enocean_switch/CMakeFiles/enocean_switch_nrf52832_xxAA_s132_6.0.0.dir/__/__/mesh/stack/src/mesh_stack.c.obj
 .bss           0x00000000        0x0 examples/enocean_switch/CMakeFiles/enocean_switch_nrf52832_xxAA_s132_6.0.0.dir/__/__/mesh/stack/src/mesh_stack.c.obj
 .text          0x00000000        0x0 examples/enocean_switch/CMakeFiles/enocean_switch_nrf52832_xxAA_s132_6.0.0.dir/__/common/src/mesh_softdevice_init.c.obj
 .data          0x00000000        0x0 examples/enocean_switch/CMakeFiles/enocean_switch_nrf52832_xxAA_s132_6.0.0.dir/__/common/src/mesh_softdevice_init.c.obj
 .bss           0x00000000        0x0 examples/enocean_switch/CMakeFiles/enocean_switch_nrf52832_xxAA_s132_6.0.0.dir/__/common/src/mesh_softdevice_init.c.obj
 .text          0x00000000        0x0 examples/enocean_switch/CMakeFiles/enocean_switch_nrf52832_xxAA_s132_6.0.0.dir/__/common/src/mesh_provisionee.c.obj
 .data          0x00000000        0x0 examples/enocean_switch/CMakeFiles/enocean_switch_nrf52832_xxAA_s132_6.0.0.dir/__/common/src/mesh_provisionee.c.obj
 .bss           0x00000000        0x0 examples/enocean_switch/CMakeFiles/enocean_switch_nrf52832_xxAA_s132_6.0.0.dir/__/common/src/mesh_provisionee.c.obj
 .text          0x00000000        0x0 examples/enocean_switch/CMakeFiles/enocean_switch_nrf52832_xxAA_s132_6.0.0.dir/__/common/src/rtt_input.c.obj
 .data          0x00000000        0x0 examples/enocean_switch/CMakeFiles/enocean_switch_nrf52832_xxAA_s132_6.0.0.dir/__/common/src/rtt_input.c.obj
 .bss           0x00000000        0x0 examples/enocean_switch/CMakeFiles/enocean_switch_nrf52832_xxAA_s132_6.0.0.dir/__/common/src/rtt_input.c.obj
 .text.rtt_input_disable
                0x00000000       0x28 examples/enocean_switch/CMakeFiles/enocean_switch_nrf52832_xxAA_s132_6.0.0.dir/__/common/src/rtt_input.c.obj
 .text          0x00000000        0x0 examples/enocean_switch/CMakeFiles/enocean_switch_nrf52832_xxAA_s132_6.0.0.dir/__/common/src/simple_hal.c.obj
 .data          0x00000000        0x0 examples/enocean_switch/CMakeFiles/enocean_switch_nrf52832_xxAA_s132_6.0.0.dir/__/common/src/simple_hal.c.obj
 .bss           0x00000000        0x0 examples/enocean_switch/CMakeFiles/enocean_switch_nrf52832_xxAA_s132_6.0.0.dir/__/common/src/simple_hal.c.obj
 .text.hal_led_pin_get
                0x00000000       0x18 examples/enocean_switch/CMakeFiles/enocean_switch_nrf52832_xxAA_s132_6.0.0.dir/__/common/src/simple_hal.c.obj
 .text          0x00000000        0x0 examples/enocean_switch/CMakeFiles/enocean_switch_nrf52832_xxAA_s132_6.0.0.dir/__/common/src/mesh_app_utils.c.obj
 .data          0x00000000        0x0 examples/enocean_switch/CMakeFiles/enocean_switch_nrf52832_xxAA_s132_6.0.0.dir/__/common/src/mesh_app_utils.c.obj
 .bss           0x00000000        0x0 examples/enocean_switch/CMakeFiles/enocean_switch_nrf52832_xxAA_s132_6.0.0.dir/__/common/src/mesh_app_utils.c.obj
 .text.mesh_app_uuid_gen
                0x00000000       0x30 examples/enocean_switch/CMakeFiles/enocean_switch_nrf52832_xxAA_s132_6.0.0.dir/__/common/src/mesh_app_utils.c.obj
 .debug_info    0x00000000      0xcec examples/enocean_switch/CMakeFiles/enocean_switch_nrf52832_xxAA_s132_6.0.0.dir/__/common/src/mesh_app_utils.c.obj
 .debug_abbrev  0x00000000      0x221 examples/enocean_switch/CMakeFiles/enocean_switch_nrf52832_xxAA_s132_6.0.0.dir/__/common/src/mesh_app_utils.c.obj
 .debug_loc     0x00000000       0x9a examples/enocean_switch/CMakeFiles/enocean_switch_nrf52832_xxAA_s132_6.0.0.dir/__/common/src/mesh_app_utils.c.obj
 .debug_aranges
                0x00000000       0x20 examples/enocean_switch/CMakeFiles/enocean_switch_nrf52832_xxAA_s132_6.0.0.dir/__/common/src/mesh_app_utils.c.obj
 .debug_ranges  0x00000000       0x10 examples/enocean_switch/CMakeFiles/enocean_switch_nrf52832_xxAA_s132_6.0.0.dir/__/common/src/mesh_app_utils.c.obj
 .debug_line    0x00000000      0x20a examples/enocean_switch/CMakeFiles/enocean_switch_nrf52832_xxAA_s132_6.0.0.dir/__/common/src/mesh_app_utils.c.obj
 .debug_str     0x00000000      0x74a examples/enocean_switch/CMakeFiles/enocean_switch_nrf52832_xxAA_s132_6.0.0.dir/__/common/src/mesh_app_utils.c.obj
 .comment       0x00000000       0x80 examples/enocean_switch/CMakeFiles/enocean_switch_nrf52832_xxAA_s132_6.0.0.dir/__/common/src/mesh_app_utils.c.obj
 .debug_frame   0x00000000       0x2c examples/enocean_switch/CMakeFiles/enocean_switch_nrf52832_xxAA_s132_6.0.0.dir/__/common/src/mesh_app_utils.c.obj
 .ARM.attributes
                0x00000000       0x39 examples/enocean_switch/CMakeFiles/enocean_switch_nrf52832_xxAA_s132_6.0.0.dir/__/common/src/mesh_app_utils.c.obj
 .text          0x00000000        0x0 examples/enocean_switch/CMakeFiles/enocean_switch_nrf52832_xxAA_s132_6.0.0.dir/__/nrf_mesh_weak.c.obj
 .data          0x00000000        0x0 examples/enocean_switch/CMakeFiles/enocean_switch_nrf52832_xxAA_s132_6.0.0.dir/__/nrf_mesh_weak.c.obj
 .bss           0x00000000        0x0 examples/enocean_switch/CMakeFiles/enocean_switch_nrf52832_xxAA_s132_6.0.0.dir/__/nrf_mesh_weak.c.obj
 .text._weak_handler_ptr
                0x00000000        0x4 examples/enocean_switch/CMakeFiles/enocean_switch_nrf52832_xxAA_s132_6.0.0.dir/__/nrf_mesh_weak.c.obj
 .text          0x00000000        0x0 examples/enocean_switch/CMakeFiles/enocean_switch_nrf52832_xxAA_s132_6.0.0.dir/__/common/src/app_error_weak.c.obj
 .data          0x00000000        0x0 examples/enocean_switch/CMakeFiles/enocean_switch_nrf52832_xxAA_s132_6.0.0.dir/__/common/src/app_error_weak.c.obj
 .bss           0x00000000        0x0 examples/enocean_switch/CMakeFiles/enocean_switch_nrf52832_xxAA_s132_6.0.0.dir/__/common/src/app_error_weak.c.obj
 .text          0x00000000        0x0 examples/enocean_switch/CMakeFiles/enocean_switch_nrf52832_xxAA_s132_6.0.0.dir/__/common/src/assertion_handler_weak.c.obj
 .data          0x00000000        0x0 examples/enocean_switch/CMakeFiles/enocean_switch_nrf52832_xxAA_s132_6.0.0.dir/__/common/src/assertion_handler_weak.c.obj
 .bss           0x00000000        0x0 examples/enocean_switch/CMakeFiles/enocean_switch_nrf52832_xxAA_s132_6.0.0.dir/__/common/src/assertion_handler_weak.c.obj
 .text          0x00000000        0x0 examples/enocean_switch/CMakeFiles/enocean_switch_nrf52832_xxAA_s132_6.0.0.dir/__/__/mesh/core/src/internal_event.c.obj
 .data          0x00000000        0x0 examples/enocean_switch/CMakeFiles/enocean_switch_nrf52832_xxAA_s132_6.0.0.dir/__/__/mesh/core/src/internal_event.c.obj
 .bss           0x00000000        0x0 examples/enocean_switch/CMakeFiles/enocean_switch_nrf52832_xxAA_s132_6.0.0.dir/__/__/mesh/core/src/internal_event.c.obj
 .debug_info    0x00000000      0x8f2 examples/enocean_switch/CMakeFiles/enocean_switch_nrf52832_xxAA_s132_6.0.0.dir/__/__/mesh/core/src/internal_event.c.obj
 .debug_abbrev  0x00000000      0x192 examples/enocean_switch/CMakeFiles/enocean_switch_nrf52832_xxAA_s132_6.0.0.dir/__/__/mesh/core/src/internal_event.c.obj
 .debug_aranges
                0x00000000       0x18 examples/enocean_switch/CMakeFiles/enocean_switch_nrf52832_xxAA_s132_6.0.0.dir/__/__/mesh/core/src/internal_event.c.obj
 .debug_line    0x00000000      0x1a3 examples/enocean_switch/CMakeFiles/enocean_switch_nrf52832_xxAA_s132_6.0.0.dir/__/__/mesh/core/src/internal_event.c.obj
 .debug_str     0x00000000      0x602 examples/enocean_switch/CMakeFiles/enocean_switch_nrf52832_xxAA_s132_6.0.0.dir/__/__/mesh/core/src/internal_event.c.obj
 .comment       0x00000000       0x80 examples/enocean_switch/CMakeFiles/enocean_switch_nrf52832_xxAA_s132_6.0.0.dir/__/__/mesh/core/src/internal_event.c.obj
 .ARM.attributes
                0x00000000       0x39 examples/enocean_switch/CMakeFiles/enocean_switch_nrf52832_xxAA_s132_6.0.0.dir/__/__/mesh/core/src/internal_event.c.obj
 .text          0x00000000        0x0 examples/enocean_switch/CMakeFiles/enocean_switch_nrf52832_xxAA_s132_6.0.0.dir/__/__/mesh/core/src/nrf_mesh_configure.c.obj
 .data          0x00000000        0x0 examples/enocean_switch/CMakeFiles/enocean_switch_nrf52832_xxAA_s132_6.0.0.dir/__/__/mesh/core/src/nrf_mesh_configure.c.obj
 .bss           0x00000000        0x0 examples/enocean_switch/CMakeFiles/enocean_switch_nrf52832_xxAA_s132_6.0.0.dir/__/__/mesh/core/src/nrf_mesh_configure.c.obj
 .text          0x00000000        0x0 examples/enocean_switch/CMakeFiles/enocean_switch_nrf52832_xxAA_s132_6.0.0.dir/__/__/mesh/core/src/aes.c.obj
 .data          0x00000000        0x0 examples/enocean_switch/CMakeFiles/enocean_switch_nrf52832_xxAA_s132_6.0.0.dir/__/__/mesh/core/src/aes.c.obj
 .bss           0x00000000        0x0 examples/enocean_switch/CMakeFiles/enocean_switch_nrf52832_xxAA_s132_6.0.0.dir/__/__/mesh/core/src/aes.c.obj
 .debug_info    0x00000000       0xb3 examples/enocean_switch/CMakeFiles/enocean_switch_nrf52832_xxAA_s132_6.0.0.dir/__/__/mesh/core/src/aes.c.obj
 .debug_abbrev  0x00000000       0x5c examples/enocean_switch/CMakeFiles/enocean_switch_nrf52832_xxAA_s132_6.0.0.dir/__/__/mesh/core/src/aes.c.obj
 .debug_aranges
                0x00000000       0x18 examples/enocean_switch/CMakeFiles/enocean_switch_nrf52832_xxAA_s132_6.0.0.dir/__/__/mesh/core/src/aes.c.obj
 .debug_line    0x00000000      0x124 examples/enocean_switch/CMakeFiles/enocean_switch_nrf52832_xxAA_s132_6.0.0.dir/__/__/mesh/core/src/aes.c.obj
 .debug_str     0x00000000      0x1f4 examples/enocean_switch/CMakeFiles/enocean_switch_nrf52832_xxAA_s132_6.0.0.dir/__/__/mesh/core/src/aes.c.obj
 .comment       0x00000000       0x80 examples/enocean_switch/CMakeFiles/enocean_switch_nrf52832_xxAA_s132_6.0.0.dir/__/__/mesh/core/src/aes.c.obj
 .ARM.attributes
                0x00000000       0x39 examples/enocean_switch/CMakeFiles/enocean_switch_nrf52832_xxAA_s132_6.0.0.dir/__/__/mesh/core/src/aes.c.obj
 .text          0x00000000        0x0 examples/enocean_switch/CMakeFiles/enocean_switch_nrf52832_xxAA_s132_6.0.0.dir/__/__/mesh/core/src/msg_cache.c.obj
 .data          0x00000000        0x0 examples/enocean_switch/CMakeFiles/enocean_switch_nrf52832_xxAA_s132_6.0.0.dir/__/__/mesh/core/src/msg_cache.c.obj
 .bss           0x00000000        0x0 examples/enocean_switch/CMakeFiles/enocean_switch_nrf52832_xxAA_s132_6.0.0.dir/__/__/mesh/core/src/msg_cache.c.obj
 .text.msg_cache_clear
                0x00000000       0x18 examples/enocean_switch/CMakeFiles/enocean_switch_nrf52832_xxAA_s132_6.0.0.dir/__/__/mesh/core/src/msg_cache.c.obj
 .text          0x00000000        0x0 examples/enocean_switch/CMakeFiles/enocean_switch_nrf52832_xxAA_s132_6.0.0.dir/__/__/mesh/core/src/transport.c.obj
 .data          0x00000000        0x0 examples/enocean_switch/CMakeFiles/enocean_switch_nrf52832_xxAA_s132_6.0.0.dir/__/__/mesh/core/src/transport.c.obj
 .bss           0x00000000        0x0 examples/enocean_switch/CMakeFiles/enocean_switch_nrf52832_xxAA_s132_6.0.0.dir/__/__/mesh/core/src/transport.c.obj
 .text.transport_sar_mem_funcs_set
                0x00000000       0x44 examples/enocean_switch/CMakeFiles/enocean_switch_nrf52832_xxAA_s132_6.0.0.dir/__/__/mesh/core/src/transport.c.obj
 .text          0x00000000        0x0 examples/enocean_switch/CMakeFiles/enocean_switch_nrf52832_xxAA_s132_6.0.0.dir/__/__/mesh/core/src/event.c.obj
 .data          0x00000000        0x0 examples/enocean_switch/CMakeFiles/enocean_switch_nrf52832_xxAA_s132_6.0.0.dir/__/__/mesh/core/src/event.c.obj
 .bss           0x00000000        0x0 examples/enocean_switch/CMakeFiles/enocean_switch_nrf52832_xxAA_s132_6.0.0.dir/__/__/mesh/core/src/event.c.obj
 .text          0x00000000        0x0 examples/enocean_switch/CMakeFiles/enocean_switch_nrf52832_xxAA_s132_6.0.0.dir/__/__/mesh/core/src/packet_buffer.c.obj
 .data          0x00000000        0x0 examples/enocean_switch/CMakeFiles/enocean_switch_nrf52832_xxAA_s132_6.0.0.dir/__/__/mesh/core/src/packet_buffer.c.obj
 .bss           0x00000000        0x0 examples/enocean_switch/CMakeFiles/enocean_switch_nrf52832_xxAA_s132_6.0.0.dir/__/__/mesh/core/src/packet_buffer.c.obj
 .text.packet_buffer_max_packet_len_get
                0x00000000       0x20 examples/enocean_switch/CMakeFiles/enocean_switch_nrf52832_xxAA_s132_6.0.0.dir/__/__/mesh/core/src/packet_buffer.c.obj
 .text          0x00000000        0x0 examples/enocean_switch/CMakeFiles/enocean_switch_nrf52832_xxAA_s132_6.0.0.dir/__/__/mesh/core/src/flash_manager_defrag.c.obj
 .data          0x00000000        0x0 examples/enocean_switch/CMakeFiles/enocean_switch_nrf52832_xxAA_s132_6.0.0.dir/__/__/mesh/core/src/flash_manager_defrag.c.obj
 .bss           0x00000000        0x0 examples/enocean_switch/CMakeFiles/enocean_switch_nrf52832_xxAA_s132_6.0.0.dir/__/__/mesh/core/src/flash_manager_defrag.c.obj
 .text.flash_manager_defragging
                0x00000000       0x38 examples/enocean_switch/CMakeFiles/enocean_switch_nrf52832_xxAA_s132_6.0.0.dir/__/__/mesh/core/src/flash_manager_defrag.c.obj
 .text          0x00000000        0x0 examples/enocean_switch/CMakeFiles/enocean_switch_nrf52832_xxAA_s132_6.0.0.dir/__/__/mesh/core/src/fifo.c.obj
 .data          0x00000000        0x0 examples/enocean_switch/CMakeFiles/enocean_switch_nrf52832_xxAA_s132_6.0.0.dir/__/__/mesh/core/src/fifo.c.obj
 .bss           0x00000000        0x0 examples/enocean_switch/CMakeFiles/enocean_switch_nrf52832_xxAA_s132_6.0.0.dir/__/__/mesh/core/src/fifo.c.obj
 .text.fifo_peek_at
                0x00000000       0x50 examples/enocean_switch/CMakeFiles/enocean_switch_nrf52832_xxAA_s132_6.0.0.dir/__/__/mesh/core/src/fifo.c.obj
 .text.fifo_peek
                0x00000000        0x6 examples/enocean_switch/CMakeFiles/enocean_switch_nrf52832_xxAA_s132_6.0.0.dir/__/__/mesh/core/src/fifo.c.obj
 .text.fifo_flush
                0x00000000        0x6 examples/enocean_switch/CMakeFiles/enocean_switch_nrf52832_xxAA_s132_6.0.0.dir/__/__/mesh/core/src/fifo.c.obj
 .text.fifo_get_len
                0x00000000        0x8 examples/enocean_switch/CMakeFiles/enocean_switch_nrf52832_xxAA_s132_6.0.0.dir/__/__/mesh/core/src/fifo.c.obj
 .text.fifo_is_full
                0x00000000       0x10 examples/enocean_switch/CMakeFiles/enocean_switch_nrf52832_xxAA_s132_6.0.0.dir/__/__/mesh/core/src/fifo.c.obj
 .text.fifo_is_empty
                0x00000000        0xc examples/enocean_switch/CMakeFiles/enocean_switch_nrf52832_xxAA_s132_6.0.0.dir/__/__/mesh/core/src/fifo.c.obj
 .text          0x00000000        0x0 examples/enocean_switch/CMakeFiles/enocean_switch_nrf52832_xxAA_s132_6.0.0.dir/__/__/mesh/core/src/nrf_flash.c.obj
 .data          0x00000000        0x0 examples/enocean_switch/CMakeFiles/enocean_switch_nrf52832_xxAA_s132_6.0.0.dir/__/__/mesh/core/src/nrf_flash.c.obj
 .bss           0x00000000        0x0 examples/enocean_switch/CMakeFiles/enocean_switch_nrf52832_xxAA_s132_6.0.0.dir/__/__/mesh/core/src/nrf_flash.c.obj
 .text          0x00000000        0x0 examples/enocean_switch/CMakeFiles/enocean_switch_nrf52832_xxAA_s132_6.0.0.dir/__/__/mesh/core/src/packet_mgr.c.obj
 .data          0x00000000        0x0 examples/enocean_switch/CMakeFiles/enocean_switch_nrf52832_xxAA_s132_6.0.0.dir/__/__/mesh/core/src/packet_mgr.c.obj
 .bss           0x00000000        0x0 examples/enocean_switch/CMakeFiles/enocean_switch_nrf52832_xxAA_s132_6.0.0.dir/__/__/mesh/core/src/packet_mgr.c.obj
 .text.packet_mgr_alloc
                0x00000000      0x17c examples/enocean_switch/CMakeFiles/enocean_switch_nrf52832_xxAA_s132_6.0.0.dir/__/__/mesh/core/src/packet_mgr.c.obj
 .text.packet_mgr_free
                0x00000000       0x58 examples/enocean_switch/CMakeFiles/enocean_switch_nrf52832_xxAA_s132_6.0.0.dir/__/__/mesh/core/src/packet_mgr.c.obj
 .text.packet_mgr_get_free_space
                0x00000000       0x1c examples/enocean_switch/CMakeFiles/enocean_switch_nrf52832_xxAA_s132_6.0.0.dir/__/__/mesh/core/src/packet_mgr.c.obj
 .text.packet_mgr_refcount_get
                0x00000000        0x6 examples/enocean_switch/CMakeFiles/enocean_switch_nrf52832_xxAA_s132_6.0.0.dir/__/__/mesh/core/src/packet_mgr.c.obj
 .text.packet_mgr_size_get
                0x00000000        0x6 examples/enocean_switch/CMakeFiles/enocean_switch_nrf52832_xxAA_s132_6.0.0.dir/__/__/mesh/core/src/packet_mgr.c.obj
 .text          0x00000000        0x0 examples/enocean_switch/CMakeFiles/enocean_switch_nrf52832_xxAA_s132_6.0.0.dir/__/__/mesh/core/src/net_state.c.obj
 .data          0x00000000        0x0 examples/enocean_switch/CMakeFiles/enocean_switch_nrf52832_xxAA_s132_6.0.0.dir/__/__/mesh/core/src/net_state.c.obj
 .bss           0x00000000        0x0 examples/enocean_switch/CMakeFiles/enocean_switch_nrf52832_xxAA_s132_6.0.0.dir/__/__/mesh/core/src/net_state.c.obj
 .text.net_state_iv_update_test_mode_set
                0x00000000        0xc examples/enocean_switch/CMakeFiles/enocean_switch_nrf52832_xxAA_s132_6.0.0.dir/__/__/mesh/core/src/net_state.c.obj
 .text.net_state_test_mode_transition_run
                0x00000000       0x2c examples/enocean_switch/CMakeFiles/enocean_switch_nrf52832_xxAA_s132_6.0.0.dir/__/__/mesh/core/src/net_state.c.obj
 .text          0x00000000        0x0 examples/enocean_switch/CMakeFiles/enocean_switch_nrf52832_xxAA_s132_6.0.0.dir/__/__/mesh/core/src/mesh_flash.c.obj
 .data          0x00000000        0x0 examples/enocean_switch/CMakeFiles/enocean_switch_nrf52832_xxAA_s132_6.0.0.dir/__/__/mesh/core/src/mesh_flash.c.obj
 .bss           0x00000000        0x0 examples/enocean_switch/CMakeFiles/enocean_switch_nrf52832_xxAA_s132_6.0.0.dir/__/__/mesh/core/src/mesh_flash.c.obj
 .text.mesh_flash_op_available_slots
                0x00000000       0x2c examples/enocean_switch/CMakeFiles/enocean_switch_nrf52832_xxAA_s132_6.0.0.dir/__/__/mesh/core/src/mesh_flash.c.obj
 .text.mesh_flash_in_progress
                0x00000000       0x34 examples/enocean_switch/CMakeFiles/enocean_switch_nrf52832_xxAA_s132_6.0.0.dir/__/__/mesh/core/src/mesh_flash.c.obj
 .text.mesh_flash_set_suspended
                0x00000000       0x74 examples/enocean_switch/CMakeFiles/enocean_switch_nrf52832_xxAA_s132_6.0.0.dir/__/__/mesh/core/src/mesh_flash.c.obj
 .bss.suspend_count.10128
                0x00000000        0x4 examples/enocean_switch/CMakeFiles/enocean_switch_nrf52832_xxAA_s132_6.0.0.dir/__/__/mesh/core/src/mesh_flash.c.obj
 .text          0x00000000        0x0 examples/enocean_switch/CMakeFiles/enocean_switch_nrf52832_xxAA_s132_6.0.0.dir/__/__/mesh/core/src/nrf_mesh_utils.c.obj
 .data          0x00000000        0x0 examples/enocean_switch/CMakeFiles/enocean_switch_nrf52832_xxAA_s132_6.0.0.dir/__/__/mesh/core/src/nrf_mesh_utils.c.obj
 .bss           0x00000000        0x0 examples/enocean_switch/CMakeFiles/enocean_switch_nrf52832_xxAA_s132_6.0.0.dir/__/__/mesh/core/src/nrf_mesh_utils.c.obj
 .text.nrf_mesh_rand_get
                0x00000000       0x10 examples/enocean_switch/CMakeFiles/enocean_switch_nrf52832_xxAA_s132_6.0.0.dir/__/__/mesh/core/src/nrf_mesh_utils.c.obj
 .text.nrf_mesh_gap_address_type_get
                0x00000000       0x30 examples/enocean_switch/CMakeFiles/enocean_switch_nrf52832_xxAA_s132_6.0.0.dir/__/__/mesh/core/src/nrf_mesh_utils.c.obj
 .text          0x00000000        0x0 examples/enocean_switch/CMakeFiles/enocean_switch_nrf52832_xxAA_s132_6.0.0.dir/__/__/mesh/core/src/nrf_mesh.c.obj
 .data          0x00000000        0x0 examples/enocean_switch/CMakeFiles/enocean_switch_nrf52832_xxAA_s132_6.0.0.dir/__/__/mesh/core/src/nrf_mesh.c.obj
 .bss           0x00000000        0x0 examples/enocean_switch/CMakeFiles/enocean_switch_nrf52832_xxAA_s132_6.0.0.dir/__/__/mesh/core/src/nrf_mesh.c.obj
 .text.nrf_mesh_disable
                0x00000000       0x28 examples/enocean_switch/CMakeFiles/enocean_switch_nrf52832_xxAA_s132_6.0.0.dir/__/__/mesh/core/src/nrf_mesh.c.obj
 .text.nrf_mesh_process
                0x00000000        0x4 examples/enocean_switch/CMakeFiles/enocean_switch_nrf52832_xxAA_s132_6.0.0.dir/__/__/mesh/core/src/nrf_mesh.c.obj
 .text.nrf_mesh_evt_handler_remove
                0x00000000        0x4 examples/enocean_switch/CMakeFiles/enocean_switch_nrf52832_xxAA_s132_6.0.0.dir/__/__/mesh/core/src/nrf_mesh.c.obj
 .text.nrf_mesh_rx_cb_clear
                0x00000000        0xc examples/enocean_switch/CMakeFiles/enocean_switch_nrf52832_xxAA_s132_6.0.0.dir/__/__/mesh/core/src/nrf_mesh.c.obj
 .text          0x00000000        0x0 examples/enocean_switch/CMakeFiles/enocean_switch_nrf52832_xxAA_s132_6.0.0.dir/__/__/mesh/core/src/queue.c.obj
 .data          0x00000000        0x0 examples/enocean_switch/CMakeFiles/enocean_switch_nrf52832_xxAA_s132_6.0.0.dir/__/__/mesh/core/src/queue.c.obj
 .bss           0x00000000        0x0 examples/enocean_switch/CMakeFiles/enocean_switch_nrf52832_xxAA_s132_6.0.0.dir/__/__/mesh/core/src/queue.c.obj
 .text          0x00000000        0x0 examples/enocean_switch/CMakeFiles/enocean_switch_nrf52832_xxAA_s132_6.0.0.dir/__/__/mesh/core/src/hal.c.obj
 .data          0x00000000        0x0 examples/enocean_switch/CMakeFiles/enocean_switch_nrf52832_xxAA_s132_6.0.0.dir/__/__/mesh/core/src/hal.c.obj
 .bss           0x00000000        0x0 examples/enocean_switch/CMakeFiles/enocean_switch_nrf52832_xxAA_s132_6.0.0.dir/__/__/mesh/core/src/hal.c.obj
 .text          0x00000000        0x0 examples/enocean_switch/CMakeFiles/enocean_switch_nrf52832_xxAA_s132_6.0.0.dir/__/__/mesh/core/src/aes_cmac.c.obj
 .data          0x00000000        0x0 examples/enocean_switch/CMakeFiles/enocean_switch_nrf52832_xxAA_s132_6.0.0.dir/__/__/mesh/core/src/aes_cmac.c.obj
 .bss           0x00000000        0x0 examples/enocean_switch/CMakeFiles/enocean_switch_nrf52832_xxAA_s132_6.0.0.dir/__/__/mesh/core/src/aes_cmac.c.obj
 .text          0x00000000        0x0 examples/enocean_switch/CMakeFiles/enocean_switch_nrf52832_xxAA_s132_6.0.0.dir/__/__/mesh/core/src/timer_scheduler.c.obj
 .data          0x00000000        0x0 examples/enocean_switch/CMakeFiles/enocean_switch_nrf52832_xxAA_s132_6.0.0.dir/__/__/mesh/core/src/timer_scheduler.c.obj
 .bss           0x00000000        0x0 examples/enocean_switch/CMakeFiles/enocean_switch_nrf52832_xxAA_s132_6.0.0.dir/__/__/mesh/core/src/timer_scheduler.c.obj
 .text          0x00000000        0x0 examples/enocean_switch/CMakeFiles/enocean_switch_nrf52832_xxAA_s132_6.0.0.dir/__/__/mesh/core/src/timer.c.obj
 .data          0x00000000        0x0 examples/enocean_switch/CMakeFiles/enocean_switch_nrf52832_xxAA_s132_6.0.0.dir/__/__/mesh/core/src/timer.c.obj
 .bss           0x00000000        0x0 examples/enocean_switch/CMakeFiles/enocean_switch_nrf52832_xxAA_s132_6.0.0.dir/__/__/mesh/core/src/timer.c.obj
 .text.timer_order_cb_ppi
                0x00000000       0xc4 examples/enocean_switch/CMakeFiles/enocean_switch_nrf52832_xxAA_s132_6.0.0.dir/__/__/mesh/core/src/timer.c.obj
 .text.timer_order_ppi
                0x00000000       0xc0 examples/enocean_switch/CMakeFiles/enocean_switch_nrf52832_xxAA_s132_6.0.0.dir/__/__/mesh/core/src/timer.c.obj
 .text.timer_abort
                0x00000000       0x78 examples/enocean_switch/CMakeFiles/enocean_switch_nrf52832_xxAA_s132_6.0.0.dir/__/__/mesh/core/src/timer.c.obj
 .text          0x00000000        0x0 examples/enocean_switch/CMakeFiles/enocean_switch_nrf52832_xxAA_s132_6.0.0.dir/__/__/mesh/core/src/ticker.c.obj
 .data          0x00000000        0x0 examples/enocean_switch/CMakeFiles/enocean_switch_nrf52832_xxAA_s132_6.0.0.dir/__/__/mesh/core/src/ticker.c.obj
 .bss           0x00000000        0x0 examples/enocean_switch/CMakeFiles/enocean_switch_nrf52832_xxAA_s132_6.0.0.dir/__/__/mesh/core/src/ticker.c.obj
 .text.ticker_get
                0x00000000        0xc examples/enocean_switch/CMakeFiles/enocean_switch_nrf52832_xxAA_s132_6.0.0.dir/__/__/mesh/core/src/ticker.c.obj
 .text          0x00000000        0x0 examples/enocean_switch/CMakeFiles/enocean_switch_nrf52832_xxAA_s132_6.0.0.dir/__/__/mesh/core/src/rand.c.obj
 .data          0x00000000        0x0 examples/enocean_switch/CMakeFiles/enocean_switch_nrf52832_xxAA_s132_6.0.0.dir/__/__/mesh/core/src/rand.c.obj
 .bss           0x00000000        0x0 examples/enocean_switch/CMakeFiles/enocean_switch_nrf52832_xxAA_s132_6.0.0.dir/__/__/mesh/core/src/rand.c.obj
 .text          0x00000000        0x0 examples/enocean_switch/CMakeFiles/enocean_switch_nrf52832_xxAA_s132_6.0.0.dir/__/__/mesh/core/src/nrf_mesh_opt.c.obj
 .data          0x00000000        0x0 examples/enocean_switch/CMakeFiles/enocean_switch_nrf52832_xxAA_s132_6.0.0.dir/__/__/mesh/core/src/nrf_mesh_opt.c.obj
 .bss           0x00000000        0x0 examples/enocean_switch/CMakeFiles/enocean_switch_nrf52832_xxAA_s132_6.0.0.dir/__/__/mesh/core/src/nrf_mesh_opt.c.obj
 .text          0x00000000        0x0 examples/enocean_switch/CMakeFiles/enocean_switch_nrf52832_xxAA_s132_6.0.0.dir/__/__/mesh/core/src/timeslot.c.obj
 .data          0x00000000        0x0 examples/enocean_switch/CMakeFiles/enocean_switch_nrf52832_xxAA_s132_6.0.0.dir/__/__/mesh/core/src/timeslot.c.obj
 .bss           0x00000000        0x0 examples/enocean_switch/CMakeFiles/enocean_switch_nrf52832_xxAA_s132_6.0.0.dir/__/__/mesh/core/src/timeslot.c.obj
 .text.timeslot_end_time_get
                0x00000000       0x10 examples/enocean_switch/CMakeFiles/enocean_switch_nrf52832_xxAA_s132_6.0.0.dir/__/__/mesh/core/src/timeslot.c.obj
 .text.timeslot_is_in_ts
                0x00000000        0xc examples/enocean_switch/CMakeFiles/enocean_switch_nrf52832_xxAA_s132_6.0.0.dir/__/__/mesh/core/src/timeslot.c.obj
 .text.timeslot_restart
                0x00000000       0x10 examples/enocean_switch/CMakeFiles/enocean_switch_nrf52832_xxAA_s132_6.0.0.dir/__/__/mesh/core/src/timeslot.c.obj
 .text          0x00000000        0x0 examples/enocean_switch/CMakeFiles/enocean_switch_nrf52832_xxAA_s132_6.0.0.dir/__/__/mesh/core/src/bearer_event.c.obj
 .data          0x00000000        0x0 examples/enocean_switch/CMakeFiles/enocean_switch_nrf52832_xxAA_s132_6.0.0.dir/__/__/mesh/core/src/bearer_event.c.obj
 .bss           0x00000000        0x0 examples/enocean_switch/CMakeFiles/enocean_switch_nrf52832_xxAA_s132_6.0.0.dir/__/__/mesh/core/src/bearer_event.c.obj
 .text.bearer_event_generic_post
                0x00000000       0x24 examples/enocean_switch/CMakeFiles/enocean_switch_nrf52832_xxAA_s132_6.0.0.dir/__/__/mesh/core/src/bearer_event.c.obj
 .text.bearer_event_timer_sch_post
                0x00000000       0x26 examples/enocean_switch/CMakeFiles/enocean_switch_nrf52832_xxAA_s132_6.0.0.dir/__/__/mesh/core/src/bearer_event.c.obj
 .text.bearer_event_in_correct_irq_priority
                0x00000000       0x48 examples/enocean_switch/CMakeFiles/enocean_switch_nrf52832_xxAA_s132_6.0.0.dir/__/__/mesh/core/src/bearer_event.c.obj
 .text          0x00000000        0x0 examples/enocean_switch/CMakeFiles/enocean_switch_nrf52832_xxAA_s132_6.0.0.dir/__/__/mesh/core/src/enc.c.obj
 .data          0x00000000        0x0 examples/enocean_switch/CMakeFiles/enocean_switch_nrf52832_xxAA_s132_6.0.0.dir/__/__/mesh/core/src/enc.c.obj
 .bss           0x00000000        0x0 examples/enocean_switch/CMakeFiles/enocean_switch_nrf52832_xxAA_s132_6.0.0.dir/__/__/mesh/core/src/enc.c.obj
 .text.enc_key_generate
                0x00000000        0x6 examples/enocean_switch/CMakeFiles/enocean_switch_nrf52832_xxAA_s132_6.0.0.dir/__/__/mesh/core/src/enc.c.obj
 .text          0x00000000        0x0 examples/enocean_switch/CMakeFiles/enocean_switch_nrf52832_xxAA_s132_6.0.0.dir/__/__/mesh/core/src/network.c.obj
 .data          0x00000000        0x0 examples/enocean_switch/CMakeFiles/enocean_switch_nrf52832_xxAA_s132_6.0.0.dir/__/__/mesh/core/src/network.c.obj
 .bss           0x00000000        0x0 examples/enocean_switch/CMakeFiles/enocean_switch_nrf52832_xxAA_s132_6.0.0.dir/__/__/mesh/core/src/network.c.obj
 .text.network_packet_discard
                0x00000000       0x1e examples/enocean_switch/CMakeFiles/enocean_switch_nrf52832_xxAA_s132_6.0.0.dir/__/__/mesh/core/src/network.c.obj
 .text          0x00000000        0x0 examples/enocean_switch/CMakeFiles/enocean_switch_nrf52832_xxAA_s132_6.0.0.dir/__/__/mesh/core/src/net_packet.c.obj
 .data          0x00000000        0x0 examples/enocean_switch/CMakeFiles/enocean_switch_nrf52832_xxAA_s132_6.0.0.dir/__/__/mesh/core/src/net_packet.c.obj
 .bss           0x00000000        0x0 examples/enocean_switch/CMakeFiles/enocean_switch_nrf52832_xxAA_s132_6.0.0.dir/__/__/mesh/core/src/net_packet.c.obj
 .text.net_packet_enc_start_get
                0x00000000        0x4 examples/enocean_switch/CMakeFiles/enocean_switch_nrf52832_xxAA_s132_6.0.0.dir/__/__/mesh/core/src/net_packet.c.obj
 .text.net_packet_payload_get
                0x00000000        0x4 examples/enocean_switch/CMakeFiles/enocean_switch_nrf52832_xxAA_s132_6.0.0.dir/__/__/mesh/core/src/net_packet.c.obj
 .text          0x00000000        0x0 examples/enocean_switch/CMakeFiles/enocean_switch_nrf52832_xxAA_s132_6.0.0.dir/__/__/mesh/core/src/msqueue.c.obj
 .data          0x00000000        0x0 examples/enocean_switch/CMakeFiles/enocean_switch_nrf52832_xxAA_s132_6.0.0.dir/__/__/mesh/core/src/msqueue.c.obj
 .bss           0x00000000        0x0 examples/enocean_switch/CMakeFiles/enocean_switch_nrf52832_xxAA_s132_6.0.0.dir/__/__/mesh/core/src/msqueue.c.obj
 .text          0x00000000        0x0 examples/enocean_switch/CMakeFiles/enocean_switch_nrf52832_xxAA_s132_6.0.0.dir/__/__/mesh/core/src/nrf_mesh_keygen.c.obj
 .data          0x00000000        0x0 examples/enocean_switch/CMakeFiles/enocean_switch_nrf52832_xxAA_s132_6.0.0.dir/__/__/mesh/core/src/nrf_mesh_keygen.c.obj
 .bss           0x00000000        0x0 examples/enocean_switch/CMakeFiles/enocean_switch_nrf52832_xxAA_s132_6.0.0.dir/__/__/mesh/core/src/nrf_mesh_keygen.c.obj
 .text.nrf_mesh_keygen_identitykey
                0x00000000       0x4c examples/enocean_switch/CMakeFiles/enocean_switch_nrf52832_xxAA_s132_6.0.0.dir/__/__/mesh/core/src/nrf_mesh_keygen.c.obj
 .text          0x00000000        0x0 examples/enocean_switch/CMakeFiles/enocean_switch_nrf52832_xxAA_s132_6.0.0.dir/__/__/mesh/core/src/cache.c.obj
 .data          0x00000000        0x0 examples/enocean_switch/CMakeFiles/enocean_switch_nrf52832_xxAA_s132_6.0.0.dir/__/__/mesh/core/src/cache.c.obj
 .bss           0x00000000        0x0 examples/enocean_switch/CMakeFiles/enocean_switch_nrf52832_xxAA_s132_6.0.0.dir/__/__/mesh/core/src/cache.c.obj
 .text.erase_at
                0x00000000       0x1c examples/enocean_switch/CMakeFiles/enocean_switch_nrf52832_xxAA_s132_6.0.0.dir/__/__/mesh/core/src/cache.c.obj
 .text.cache_init
                0x00000000       0x1e examples/enocean_switch/CMakeFiles/enocean_switch_nrf52832_xxAA_s132_6.0.0.dir/__/__/mesh/core/src/cache.c.obj
 .text.cache_has_elem
                0x00000000       0x3e examples/enocean_switch/CMakeFiles/enocean_switch_nrf52832_xxAA_s132_6.0.0.dir/__/__/mesh/core/src/cache.c.obj
 .text.cache_put
                0x00000000       0x2a examples/enocean_switch/CMakeFiles/enocean_switch_nrf52832_xxAA_s132_6.0.0.dir/__/__/mesh/core/src/cache.c.obj
 .text.cache_erase_elem
                0x00000000       0x4c examples/enocean_switch/CMakeFiles/enocean_switch_nrf52832_xxAA_s132_6.0.0.dir/__/__/mesh/core/src/cache.c.obj
 .debug_info    0x00000000      0xbe1 examples/enocean_switch/CMakeFiles/enocean_switch_nrf52832_xxAA_s132_6.0.0.dir/__/__/mesh/core/src/cache.c.obj
 .debug_abbrev  0x00000000      0x2a3 examples/enocean_switch/CMakeFiles/enocean_switch_nrf52832_xxAA_s132_6.0.0.dir/__/__/mesh/core/src/cache.c.obj
 .debug_loc     0x00000000      0x29b examples/enocean_switch/CMakeFiles/enocean_switch_nrf52832_xxAA_s132_6.0.0.dir/__/__/mesh/core/src/cache.c.obj
 .debug_aranges
                0x00000000       0x40 examples/enocean_switch/CMakeFiles/enocean_switch_nrf52832_xxAA_s132_6.0.0.dir/__/__/mesh/core/src/cache.c.obj
 .debug_ranges  0x00000000       0x80 examples/enocean_switch/CMakeFiles/enocean_switch_nrf52832_xxAA_s132_6.0.0.dir/__/__/mesh/core/src/cache.c.obj
 .debug_line    0x00000000      0x21e examples/enocean_switch/CMakeFiles/enocean_switch_nrf52832_xxAA_s132_6.0.0.dir/__/__/mesh/core/src/cache.c.obj
 .debug_str     0x00000000      0x6af examples/enocean_switch/CMakeFiles/enocean_switch_nrf52832_xxAA_s132_6.0.0.dir/__/__/mesh/core/src/cache.c.obj
 .comment       0x00000000       0x80 examples/enocean_switch/CMakeFiles/enocean_switch_nrf52832_xxAA_s132_6.0.0.dir/__/__/mesh/core/src/cache.c.obj
 .debug_frame   0x00000000       0xb0 examples/enocean_switch/CMakeFiles/enocean_switch_nrf52832_xxAA_s132_6.0.0.dir/__/__/mesh/core/src/cache.c.obj
 .ARM.attributes
                0x00000000       0x39 examples/enocean_switch/CMakeFiles/enocean_switch_nrf52832_xxAA_s132_6.0.0.dir/__/__/mesh/core/src/cache.c.obj
 .text          0x00000000        0x0 examples/enocean_switch/CMakeFiles/enocean_switch_nrf52832_xxAA_s132_6.0.0.dir/__/__/mesh/core/src/list.c.obj
 .data          0x00000000        0x0 examples/enocean_switch/CMakeFiles/enocean_switch_nrf52832_xxAA_s132_6.0.0.dir/__/__/mesh/core/src/list.c.obj
 .bss           0x00000000        0x0 examples/enocean_switch/CMakeFiles/enocean_switch_nrf52832_xxAA_s132_6.0.0.dir/__/__/mesh/core/src/list.c.obj
 .text.list_size_get
                0x00000000       0x12 examples/enocean_switch/CMakeFiles/enocean_switch_nrf52832_xxAA_s132_6.0.0.dir/__/__/mesh/core/src/list.c.obj
 .text.list_sorted_add
                0x00000000       0x6c examples/enocean_switch/CMakeFiles/enocean_switch_nrf52832_xxAA_s132_6.0.0.dir/__/__/mesh/core/src/list.c.obj
 .text          0x00000000        0x0 examples/enocean_switch/CMakeFiles/enocean_switch_nrf52832_xxAA_s132_6.0.0.dir/__/__/mesh/core/src/log.c.obj
 .data          0x00000000        0x0 examples/enocean_switch/CMakeFiles/enocean_switch_nrf52832_xxAA_s132_6.0.0.dir/__/__/mesh/core/src/log.c.obj
 .bss           0x00000000        0x0 examples/enocean_switch/CMakeFiles/enocean_switch_nrf52832_xxAA_s132_6.0.0.dir/__/__/mesh/core/src/log.c.obj
 .text.log_callback_logview
                0x00000000       0x38 examples/enocean_switch/CMakeFiles/enocean_switch_nrf52832_xxAA_s132_6.0.0.dir/__/__/mesh/core/src/log.c.obj
 .text.log_set_callback
                0x00000000        0xc examples/enocean_switch/CMakeFiles/enocean_switch_nrf52832_xxAA_s132_6.0.0.dir/__/__/mesh/core/src/log.c.obj
 .rodata.log_callback_logview.str1.1
                0x00000000        0xf examples/enocean_switch/CMakeFiles/enocean_switch_nrf52832_xxAA_s132_6.0.0.dir/__/__/mesh/core/src/log.c.obj
 .text          0x00000000        0x0 examples/enocean_switch/CMakeFiles/enocean_switch_nrf52832_xxAA_s132_6.0.0.dir/__/__/mesh/core/src/flash_manager.c.obj
 .data          0x00000000        0x0 examples/enocean_switch/CMakeFiles/enocean_switch_nrf52832_xxAA_s132_6.0.0.dir/__/__/mesh/core/src/flash_manager.c.obj
 .bss           0x00000000        0x0 examples/enocean_switch/CMakeFiles/enocean_switch_nrf52832_xxAA_s132_6.0.0.dir/__/__/mesh/core/src/flash_manager.c.obj
 .text.flash_manager_entry_count_get
                0x00000000       0x50 examples/enocean_switch/CMakeFiles/enocean_switch_nrf52832_xxAA_s132_6.0.0.dir/__/__/mesh/core/src/flash_manager.c.obj
 .text.flash_manager_entry_release
                0x00000000       0x2c examples/enocean_switch/CMakeFiles/enocean_switch_nrf52832_xxAA_s132_6.0.0.dir/__/__/mesh/core/src/flash_manager.c.obj
 .text          0x00000000        0x0 examples/enocean_switch/CMakeFiles/enocean_switch_nrf52832_xxAA_s132_6.0.0.dir/__/__/mesh/core/src/ccm_soft.c.obj
 .data          0x00000000        0x0 examples/enocean_switch/CMakeFiles/enocean_switch_nrf52832_xxAA_s132_6.0.0.dir/__/__/mesh/core/src/ccm_soft.c.obj
 .bss           0x00000000        0x0 examples/enocean_switch/CMakeFiles/enocean_switch_nrf52832_xxAA_s132_6.0.0.dir/__/__/mesh/core/src/ccm_soft.c.obj
 .text          0x00000000        0x0 examples/enocean_switch/CMakeFiles/enocean_switch_nrf52832_xxAA_s132_6.0.0.dir/__/__/mesh/core/src/toolchain.c.obj
 .data          0x00000000        0x0 examples/enocean_switch/CMakeFiles/enocean_switch_nrf52832_xxAA_s132_6.0.0.dir/__/__/mesh/core/src/toolchain.c.obj
 .bss           0x00000000        0x0 examples/enocean_switch/CMakeFiles/enocean_switch_nrf52832_xxAA_s132_6.0.0.dir/__/__/mesh/core/src/toolchain.c.obj
 .debug_info    0x00000000       0xb3 examples/enocean_switch/CMakeFiles/enocean_switch_nrf52832_xxAA_s132_6.0.0.dir/__/__/mesh/core/src/toolchain.c.obj
 .debug_abbrev  0x00000000       0x5c examples/enocean_switch/CMakeFiles/enocean_switch_nrf52832_xxAA_s132_6.0.0.dir/__/__/mesh/core/src/toolchain.c.obj
 .debug_aranges
                0x00000000       0x18 examples/enocean_switch/CMakeFiles/enocean_switch_nrf52832_xxAA_s132_6.0.0.dir/__/__/mesh/core/src/toolchain.c.obj
 .debug_line    0x00000000      0x124 examples/enocean_switch/CMakeFiles/enocean_switch_nrf52832_xxAA_s132_6.0.0.dir/__/__/mesh/core/src/toolchain.c.obj
 .debug_str     0x00000000      0x1fa examples/enocean_switch/CMakeFiles/enocean_switch_nrf52832_xxAA_s132_6.0.0.dir/__/__/mesh/core/src/toolchain.c.obj
 .comment       0x00000000       0x80 examples/enocean_switch/CMakeFiles/enocean_switch_nrf52832_xxAA_s132_6.0.0.dir/__/__/mesh/core/src/toolchain.c.obj
 .ARM.attributes
                0x00000000       0x39 examples/enocean_switch/CMakeFiles/enocean_switch_nrf52832_xxAA_s132_6.0.0.dir/__/__/mesh/core/src/toolchain.c.obj
 .text          0x00000000        0x0 examples/enocean_switch/CMakeFiles/enocean_switch_nrf52832_xxAA_s132_6.0.0.dir/__/__/mesh/core/src/replay_cache.c.obj
 .data          0x00000000        0x0 examples/enocean_switch/CMakeFiles/enocean_switch_nrf52832_xxAA_s132_6.0.0.dir/__/__/mesh/core/src/replay_cache.c.obj
 .bss           0x00000000        0x0 examples/enocean_switch/CMakeFiles/enocean_switch_nrf52832_xxAA_s132_6.0.0.dir/__/__/mesh/core/src/replay_cache.c.obj
 .text.replay_cache_on_iv_update
                0x00000000       0x24 examples/enocean_switch/CMakeFiles/enocean_switch_nrf52832_xxAA_s132_6.0.0.dir/__/__/mesh/core/src/replay_cache.c.obj
 .text          0x00000000        0x0 examples/enocean_switch/CMakeFiles/enocean_switch_nrf52832_xxAA_s132_6.0.0.dir/__/__/mesh/core/src/beacon.c.obj
 .data          0x00000000        0x0 examples/enocean_switch/CMakeFiles/enocean_switch_nrf52832_xxAA_s132_6.0.0.dir/__/__/mesh/core/src/beacon.c.obj
 .bss           0x00000000        0x0 examples/enocean_switch/CMakeFiles/enocean_switch_nrf52832_xxAA_s132_6.0.0.dir/__/__/mesh/core/src/beacon.c.obj
 .text          0x00000000        0x0 examples/enocean_switch/CMakeFiles/enocean_switch_nrf52832_xxAA_s132_6.0.0.dir/__/__/mesh/core/src/flash_manager_internal.c.obj
 .data          0x00000000        0x0 examples/enocean_switch/CMakeFiles/enocean_switch_nrf52832_xxAA_s132_6.0.0.dir/__/__/mesh/core/src/flash_manager_internal.c.obj
 .bss           0x00000000        0x0 examples/enocean_switch/CMakeFiles/enocean_switch_nrf52832_xxAA_s132_6.0.0.dir/__/__/mesh/core/src/flash_manager_internal.c.obj
 .text          0x00000000        0x0 examples/enocean_switch/CMakeFiles/enocean_switch_nrf52832_xxAA_s132_6.0.0.dir/__/__/mesh/core/src/core_tx.c.obj
 .data          0x00000000        0x0 examples/enocean_switch/CMakeFiles/enocean_switch_nrf52832_xxAA_s132_6.0.0.dir/__/__/mesh/core/src/core_tx.c.obj
 .bss           0x00000000        0x0 examples/enocean_switch/CMakeFiles/enocean_switch_nrf52832_xxAA_s132_6.0.0.dir/__/__/mesh/core/src/core_tx.c.obj
 .text.core_tx_bearer_type_get
                0x00000000       0x1c examples/enocean_switch/CMakeFiles/enocean_switch_nrf52832_xxAA_s132_6.0.0.dir/__/__/mesh/core/src/core_tx.c.obj
 .text.core_tx_bearer_count_get
                0x00000000        0xc examples/enocean_switch/CMakeFiles/enocean_switch_nrf52832_xxAA_s132_6.0.0.dir/__/__/mesh/core/src/core_tx.c.obj
 .text          0x00000000        0x0 examples/enocean_switch/CMakeFiles/enocean_switch_nrf52832_xxAA_s132_6.0.0.dir/__/__/mesh/core/src/heartbeat.c.obj
 .data          0x00000000        0x0 examples/enocean_switch/CMakeFiles/enocean_switch_nrf52832_xxAA_s132_6.0.0.dir/__/__/mesh/core/src/heartbeat.c.obj
 .bss           0x00000000        0x0 examples/enocean_switch/CMakeFiles/enocean_switch_nrf52832_xxAA_s132_6.0.0.dir/__/__/mesh/core/src/heartbeat.c.obj
 .text          0x00000000        0x0 examples/enocean_switch/CMakeFiles/enocean_switch_nrf52832_xxAA_s132_6.0.0.dir/__/__/mesh/core/src/net_beacon.c.obj
 .data          0x00000000        0x0 examples/enocean_switch/CMakeFiles/enocean_switch_nrf52832_xxAA_s132_6.0.0.dir/__/__/mesh/core/src/net_beacon.c.obj
 .bss           0x00000000        0x0 examples/enocean_switch/CMakeFiles/enocean_switch_nrf52832_xxAA_s132_6.0.0.dir/__/__/mesh/core/src/net_beacon.c.obj
 .text.net_beacon_build
                0x00000000       0x24 examples/enocean_switch/CMakeFiles/enocean_switch_nrf52832_xxAA_s132_6.0.0.dir/__/__/mesh/core/src/net_beacon.c.obj
 .text          0x00000000        0x0 examples/enocean_switch/CMakeFiles/enocean_switch_nrf52832_xxAA_s132_6.0.0.dir/__/__/mesh/core/src/fsm.c.obj
 .data          0x00000000        0x0 examples/enocean_switch/CMakeFiles/enocean_switch_nrf52832_xxAA_s132_6.0.0.dir/__/__/mesh/core/src/fsm.c.obj
 .bss           0x00000000        0x0 examples/enocean_switch/CMakeFiles/enocean_switch_nrf52832_xxAA_s132_6.0.0.dir/__/__/mesh/core/src/fsm.c.obj
 .text.fsm_event_post_try
                0x00000000      0x1ec examples/enocean_switch/CMakeFiles/enocean_switch_nrf52832_xxAA_s132_6.0.0.dir/__/__/mesh/core/src/fsm.c.obj
 .text.fsm_init
                0x00000000       0xcc examples/enocean_switch/CMakeFiles/enocean_switch_nrf52832_xxAA_s132_6.0.0.dir/__/__/mesh/core/src/fsm.c.obj
 .text.fsm_event_post
                0x00000000       0xac examples/enocean_switch/CMakeFiles/enocean_switch_nrf52832_xxAA_s132_6.0.0.dir/__/__/mesh/core/src/fsm.c.obj
 .text.fsm_is_processing
                0x00000000        0xa examples/enocean_switch/CMakeFiles/enocean_switch_nrf52832_xxAA_s132_6.0.0.dir/__/__/mesh/core/src/fsm.c.obj
 .rodata.fsm_event_post.str1.1
                0x00000000        0xb examples/enocean_switch/CMakeFiles/enocean_switch_nrf52832_xxAA_s132_6.0.0.dir/__/__/mesh/core/src/fsm.c.obj
 .rodata.fsm_event_post_try.str1.1
                0x00000000       0x41 examples/enocean_switch/CMakeFiles/enocean_switch_nrf52832_xxAA_s132_6.0.0.dir/__/__/mesh/core/src/fsm.c.obj
 .rodata.fsm_init.str1.1
                0x00000000        0xa examples/enocean_switch/CMakeFiles/enocean_switch_nrf52832_xxAA_s132_6.0.0.dir/__/__/mesh/core/src/fsm.c.obj
 .debug_info    0x00000000     0x132d examples/enocean_switch/CMakeFiles/enocean_switch_nrf52832_xxAA_s132_6.0.0.dir/__/__/mesh/core/src/fsm.c.obj
 .debug_abbrev  0x00000000      0x345 examples/enocean_switch/CMakeFiles/enocean_switch_nrf52832_xxAA_s132_6.0.0.dir/__/__/mesh/core/src/fsm.c.obj
 .debug_loc     0x00000000      0x3fd examples/enocean_switch/CMakeFiles/enocean_switch_nrf52832_xxAA_s132_6.0.0.dir/__/__/mesh/core/src/fsm.c.obj
 .debug_aranges
                0x00000000       0x38 examples/enocean_switch/CMakeFiles/enocean_switch_nrf52832_xxAA_s132_6.0.0.dir/__/__/mesh/core/src/fsm.c.obj
 .debug_ranges  0x00000000       0xe0 examples/enocean_switch/CMakeFiles/enocean_switch_nrf52832_xxAA_s132_6.0.0.dir/__/__/mesh/core/src/fsm.c.obj
 .debug_line    0x00000000      0x3d6 examples/enocean_switch/CMakeFiles/enocean_switch_nrf52832_xxAA_s132_6.0.0.dir/__/__/mesh/core/src/fsm.c.obj
 .debug_str     0x00000000      0x984 examples/enocean_switch/CMakeFiles/enocean_switch_nrf52832_xxAA_s132_6.0.0.dir/__/__/mesh/core/src/fsm.c.obj
 .comment       0x00000000       0x80 examples/enocean_switch/CMakeFiles/enocean_switch_nrf52832_xxAA_s132_6.0.0.dir/__/__/mesh/core/src/fsm.c.obj
 .debug_frame   0x00000000       0x9c examples/enocean_switch/CMakeFiles/enocean_switch_nrf52832_xxAA_s132_6.0.0.dir/__/__/mesh/core/src/fsm.c.obj
 .ARM.attributes
                0x00000000       0x39 examples/enocean_switch/CMakeFiles/enocean_switch_nrf52832_xxAA_s132_6.0.0.dir/__/__/mesh/core/src/fsm.c.obj
 .text          0x00000000        0x0 examples/enocean_switch/CMakeFiles/enocean_switch_nrf52832_xxAA_s132_6.0.0.dir/__/__/mesh/core/src/core_tx_adv.c.obj
 .data          0x00000000        0x0 examples/enocean_switch/CMakeFiles/enocean_switch_nrf52832_xxAA_s132_6.0.0.dir/__/__/mesh/core/src/core_tx_adv.c.obj
 .bss           0x00000000        0x0 examples/enocean_switch/CMakeFiles/enocean_switch_nrf52832_xxAA_s132_6.0.0.dir/__/__/mesh/core/src/core_tx_adv.c.obj
 .text.core_tx_adv_address_set
                0x00000000       0x28 examples/enocean_switch/CMakeFiles/enocean_switch_nrf52832_xxAA_s132_6.0.0.dir/__/__/mesh/core/src/core_tx_adv.c.obj
 .text          0x00000000        0x0 examples/enocean_switch/CMakeFiles/enocean_switch_nrf52832_xxAA_s132_6.0.0.dir/__/__/mesh/bearer/src/ad_listener.c.obj
 .data          0x00000000        0x0 examples/enocean_switch/CMakeFiles/enocean_switch_nrf52832_xxAA_s132_6.0.0.dir/__/__/mesh/bearer/src/ad_listener.c.obj
 .bss           0x00000000        0x0 examples/enocean_switch/CMakeFiles/enocean_switch_nrf52832_xxAA_s132_6.0.0.dir/__/__/mesh/bearer/src/ad_listener.c.obj
 .text.ad_listener_unsubscribe
                0x00000000       0x6c examples/enocean_switch/CMakeFiles/enocean_switch_nrf52832_xxAA_s132_6.0.0.dir/__/__/mesh/bearer/src/ad_listener.c.obj
 .text          0x00000000        0x0 examples/enocean_switch/CMakeFiles/enocean_switch_nrf52832_xxAA_s132_6.0.0.dir/__/__/mesh/bearer/src/ad_type_filter.c.obj
 .data          0x00000000        0x0 examples/enocean_switch/CMakeFiles/enocean_switch_nrf52832_xxAA_s132_6.0.0.dir/__/__/mesh/bearer/src/ad_type_filter.c.obj
 .bss           0x00000000        0x0 examples/enocean_switch/CMakeFiles/enocean_switch_nrf52832_xxAA_s132_6.0.0.dir/__/__/mesh/bearer/src/ad_type_filter.c.obj
 .text.bearer_adtype_remove
                0x00000000       0x20 examples/enocean_switch/CMakeFiles/enocean_switch_nrf52832_xxAA_s132_6.0.0.dir/__/__/mesh/bearer/src/ad_type_filter.c.obj
 .text.bearer_adtype_clear
                0x00000000       0x10 examples/enocean_switch/CMakeFiles/enocean_switch_nrf52832_xxAA_s132_6.0.0.dir/__/__/mesh/bearer/src/ad_type_filter.c.obj
 .text.bearer_invalid_length_amount_get
                0x00000000        0xc examples/enocean_switch/CMakeFiles/enocean_switch_nrf52832_xxAA_s132_6.0.0.dir/__/__/mesh/bearer/src/ad_type_filter.c.obj
 .text.bearer_adtype_filtered_amount_get
                0x00000000        0xc examples/enocean_switch/CMakeFiles/enocean_switch_nrf52832_xxAA_s132_6.0.0.dir/__/__/mesh/bearer/src/ad_type_filter.c.obj
 .text          0x00000000        0x0 examples/enocean_switch/CMakeFiles/enocean_switch_nrf52832_xxAA_s132_6.0.0.dir/__/__/mesh/bearer/src/adv_packet_filter.c.obj
 .data          0x00000000        0x0 examples/enocean_switch/CMakeFiles/enocean_switch_nrf52832_xxAA_s132_6.0.0.dir/__/__/mesh/bearer/src/adv_packet_filter.c.obj
 .bss           0x00000000        0x0 examples/enocean_switch/CMakeFiles/enocean_switch_nrf52832_xxAA_s132_6.0.0.dir/__/__/mesh/bearer/src/adv_packet_filter.c.obj
 .text.adv_filter_handle
                0x00000000       0x3c examples/enocean_switch/CMakeFiles/enocean_switch_nrf52832_xxAA_s132_6.0.0.dir/__/__/mesh/bearer/src/adv_packet_filter.c.obj
 .text.bearer_adv_packet_filtering_set
                0x00000000       0x1c examples/enocean_switch/CMakeFiles/enocean_switch_nrf52832_xxAA_s132_6.0.0.dir/__/__/mesh/bearer/src/adv_packet_filter.c.obj
 .text.bearer_adv_packet_remove
                0x00000000       0x18 examples/enocean_switch/CMakeFiles/enocean_switch_nrf52832_xxAA_s132_6.0.0.dir/__/__/mesh/bearer/src/adv_packet_filter.c.obj
 .text.bearer_adv_packet_add
                0x00000000       0x14 examples/enocean_switch/CMakeFiles/enocean_switch_nrf52832_xxAA_s132_6.0.0.dir/__/__/mesh/bearer/src/adv_packet_filter.c.obj
 .text.bearer_adv_packet_clear
                0x00000000        0xc examples/enocean_switch/CMakeFiles/enocean_switch_nrf52832_xxAA_s132_6.0.0.dir/__/__/mesh/bearer/src/adv_packet_filter.c.obj
 .text.bearer_adv_packet_filter_mode_set
                0x00000000       0x18 examples/enocean_switch/CMakeFiles/enocean_switch_nrf52832_xxAA_s132_6.0.0.dir/__/__/mesh/bearer/src/adv_packet_filter.c.obj
 .text.bearer_adv_packet_filtered_amount_get
                0x00000000        0xc examples/enocean_switch/CMakeFiles/enocean_switch_nrf52832_xxAA_s132_6.0.0.dir/__/__/mesh/bearer/src/adv_packet_filter.c.obj
 .bss.m_adv_packet_filter
                0x00000000       0x14 examples/enocean_switch/CMakeFiles/enocean_switch_nrf52832_xxAA_s132_6.0.0.dir/__/__/mesh/bearer/src/adv_packet_filter.c.obj
 .debug_info    0x00000000      0xd97 examples/enocean_switch/CMakeFiles/enocean_switch_nrf52832_xxAA_s132_6.0.0.dir/__/__/mesh/bearer/src/adv_packet_filter.c.obj
 .debug_abbrev  0x00000000      0x2c9 examples/enocean_switch/CMakeFiles/enocean_switch_nrf52832_xxAA_s132_6.0.0.dir/__/__/mesh/bearer/src/adv_packet_filter.c.obj
 .debug_loc     0x00000000      0x1c0 examples/enocean_switch/CMakeFiles/enocean_switch_nrf52832_xxAA_s132_6.0.0.dir/__/__/mesh/bearer/src/adv_packet_filter.c.obj
 .debug_aranges
                0x00000000       0x50 examples/enocean_switch/CMakeFiles/enocean_switch_nrf52832_xxAA_s132_6.0.0.dir/__/__/mesh/bearer/src/adv_packet_filter.c.obj
 .debug_ranges  0x00000000       0x40 examples/enocean_switch/CMakeFiles/enocean_switch_nrf52832_xxAA_s132_6.0.0.dir/__/__/mesh/bearer/src/adv_packet_filter.c.obj
 .debug_line    0x00000000      0x35b examples/enocean_switch/CMakeFiles/enocean_switch_nrf52832_xxAA_s132_6.0.0.dir/__/__/mesh/bearer/src/adv_packet_filter.c.obj
 .debug_str     0x00000000      0xa28 examples/enocean_switch/CMakeFiles/enocean_switch_nrf52832_xxAA_s132_6.0.0.dir/__/__/mesh/bearer/src/adv_packet_filter.c.obj
 .comment       0x00000000       0x80 examples/enocean_switch/CMakeFiles/enocean_switch_nrf52832_xxAA_s132_6.0.0.dir/__/__/mesh/bearer/src/adv_packet_filter.c.obj
 .debug_frame   0x00000000       0x88 examples/enocean_switch/CMakeFiles/enocean_switch_nrf52832_xxAA_s132_6.0.0.dir/__/__/mesh/bearer/src/adv_packet_filter.c.obj
 .ARM.attributes
                0x00000000       0x39 examples/enocean_switch/CMakeFiles/enocean_switch_nrf52832_xxAA_s132_6.0.0.dir/__/__/mesh/bearer/src/adv_packet_filter.c.obj
 .text          0x00000000        0x0 examples/enocean_switch/CMakeFiles/enocean_switch_nrf52832_xxAA_s132_6.0.0.dir/__/__/mesh/bearer/src/advertiser.c.obj
 .data          0x00000000        0x0 examples/enocean_switch/CMakeFiles/enocean_switch_nrf52832_xxAA_s132_6.0.0.dir/__/__/mesh/bearer/src/advertiser.c.obj
 .bss           0x00000000        0x0 examples/enocean_switch/CMakeFiles/enocean_switch_nrf52832_xxAA_s132_6.0.0.dir/__/__/mesh/bearer/src/advertiser.c.obj
 .text.advertiser_disable
                0x00000000        0xa examples/enocean_switch/CMakeFiles/enocean_switch_nrf52832_xxAA_s132_6.0.0.dir/__/__/mesh/bearer/src/advertiser.c.obj
 .text.advertiser_channels_set
                0x00000000       0x60 examples/enocean_switch/CMakeFiles/enocean_switch_nrf52832_xxAA_s132_6.0.0.dir/__/__/mesh/bearer/src/advertiser.c.obj
 .text.advertiser_address_set
                0x00000000       0x3c examples/enocean_switch/CMakeFiles/enocean_switch_nrf52832_xxAA_s132_6.0.0.dir/__/__/mesh/bearer/src/advertiser.c.obj
 .text.advertiser_config_set
                0x00000000       0x36 examples/enocean_switch/CMakeFiles/enocean_switch_nrf52832_xxAA_s132_6.0.0.dir/__/__/mesh/bearer/src/advertiser.c.obj
 .text.advertiser_config_get
                0x00000000       0x20 examples/enocean_switch/CMakeFiles/enocean_switch_nrf52832_xxAA_s132_6.0.0.dir/__/__/mesh/bearer/src/advertiser.c.obj
 .text          0x00000000        0x0 examples/enocean_switch/CMakeFiles/enocean_switch_nrf52832_xxAA_s132_6.0.0.dir/__/__/mesh/bearer/src/bearer_handler.c.obj
 .data          0x00000000        0x0 examples/enocean_switch/CMakeFiles/enocean_switch_nrf52832_xxAA_s132_6.0.0.dir/__/__/mesh/bearer/src/bearer_handler.c.obj
 .bss           0x00000000        0x0 examples/enocean_switch/CMakeFiles/enocean_switch_nrf52832_xxAA_s132_6.0.0.dir/__/__/mesh/bearer/src/bearer_handler.c.obj
 .text.bearer_handler_stop
                0x00000000       0x20 examples/enocean_switch/CMakeFiles/enocean_switch_nrf52832_xxAA_s132_6.0.0.dir/__/__/mesh/bearer/src/bearer_handler.c.obj
 .text.bearer_handler_action_fire
                0x00000000       0x9c examples/enocean_switch/CMakeFiles/enocean_switch_nrf52832_xxAA_s132_6.0.0.dir/__/__/mesh/bearer/src/bearer_handler.c.obj
 .text          0x00000000        0x0 examples/enocean_switch/CMakeFiles/enocean_switch_nrf52832_xxAA_s132_6.0.0.dir/__/__/mesh/bearer/src/broadcast.c.obj
 .data          0x00000000        0x0 examples/enocean_switch/CMakeFiles/enocean_switch_nrf52832_xxAA_s132_6.0.0.dir/__/__/mesh/bearer/src/broadcast.c.obj
 .bss           0x00000000        0x0 examples/enocean_switch/CMakeFiles/enocean_switch_nrf52832_xxAA_s132_6.0.0.dir/__/__/mesh/bearer/src/broadcast.c.obj
 .text          0x00000000        0x0 examples/enocean_switch/CMakeFiles/enocean_switch_nrf52832_xxAA_s132_6.0.0.dir/__/__/mesh/bearer/src/filter_engine.c.obj
 .data          0x00000000        0x0 examples/enocean_switch/CMakeFiles/enocean_switch_nrf52832_xxAA_s132_6.0.0.dir/__/__/mesh/bearer/src/filter_engine.c.obj
 .bss           0x00000000        0x0 examples/enocean_switch/CMakeFiles/enocean_switch_nrf52832_xxAA_s132_6.0.0.dir/__/__/mesh/bearer/src/filter_engine.c.obj
 .text.fen_accepted_amount_get
                0x00000000        0xc examples/enocean_switch/CMakeFiles/enocean_switch_nrf52832_xxAA_s132_6.0.0.dir/__/__/mesh/bearer/src/filter_engine.c.obj
 .text          0x00000000        0x0 examples/enocean_switch/CMakeFiles/enocean_switch_nrf52832_xxAA_s132_6.0.0.dir/__/__/mesh/bearer/src/gap_address_filter.c.obj
 .data          0x00000000        0x0 examples/enocean_switch/CMakeFiles/enocean_switch_nrf52832_xxAA_s132_6.0.0.dir/__/__/mesh/bearer/src/gap_address_filter.c.obj
 .bss           0x00000000        0x0 examples/enocean_switch/CMakeFiles/enocean_switch_nrf52832_xxAA_s132_6.0.0.dir/__/__/mesh/bearer/src/gap_address_filter.c.obj
 .text.gap_address_filter_handle
                0x00000000       0xa6 examples/enocean_switch/CMakeFiles/enocean_switch_nrf52832_xxAA_s132_6.0.0.dir/__/__/mesh/bearer/src/gap_address_filter.c.obj
 .text.gap_addr_filter_set
                0x00000000       0x40 examples/enocean_switch/CMakeFiles/enocean_switch_nrf52832_xxAA_s132_6.0.0.dir/__/__/mesh/bearer/src/gap_address_filter.c.obj
 .text.bearer_filter_gap_addr_whitelist_set
                0x00000000        0x6 examples/enocean_switch/CMakeFiles/enocean_switch_nrf52832_xxAA_s132_6.0.0.dir/__/__/mesh/bearer/src/gap_address_filter.c.obj
 .text.bearer_filter_gap_addr_blacklist_set
                0x00000000        0x6 examples/enocean_switch/CMakeFiles/enocean_switch_nrf52832_xxAA_s132_6.0.0.dir/__/__/mesh/bearer/src/gap_address_filter.c.obj
 .text.bearer_filter_gap_addr_range_set
                0x00000000       0x38 examples/enocean_switch/CMakeFiles/enocean_switch_nrf52832_xxAA_s132_6.0.0.dir/__/__/mesh/bearer/src/gap_address_filter.c.obj
 .text.bearer_filter_gap_addr_clear
                0x00000000       0x20 examples/enocean_switch/CMakeFiles/enocean_switch_nrf52832_xxAA_s132_6.0.0.dir/__/__/mesh/bearer/src/gap_address_filter.c.obj
 .text.bearer_gap_addr_filtered_amount_get
                0x00000000        0xc examples/enocean_switch/CMakeFiles/enocean_switch_nrf52832_xxAA_s132_6.0.0.dir/__/__/mesh/bearer/src/gap_address_filter.c.obj
 .bss.m_addr_filter
                0x00000000       0x18 examples/enocean_switch/CMakeFiles/enocean_switch_nrf52832_xxAA_s132_6.0.0.dir/__/__/mesh/bearer/src/gap_address_filter.c.obj
 .debug_info    0x00000000      0xebb examples/enocean_switch/CMakeFiles/enocean_switch_nrf52832_xxAA_s132_6.0.0.dir/__/__/mesh/bearer/src/gap_address_filter.c.obj
 .debug_abbrev  0x00000000      0x2f4 examples/enocean_switch/CMakeFiles/enocean_switch_nrf52832_xxAA_s132_6.0.0.dir/__/__/mesh/bearer/src/gap_address_filter.c.obj
 .debug_loc     0x00000000      0x3e8 examples/enocean_switch/CMakeFiles/enocean_switch_nrf52832_xxAA_s132_6.0.0.dir/__/__/mesh/bearer/src/gap_address_filter.c.obj
 .debug_aranges
                0x00000000       0x50 examples/enocean_switch/CMakeFiles/enocean_switch_nrf52832_xxAA_s132_6.0.0.dir/__/__/mesh/bearer/src/gap_address_filter.c.obj
 .debug_ranges  0x00000000       0x58 examples/enocean_switch/CMakeFiles/enocean_switch_nrf52832_xxAA_s132_6.0.0.dir/__/__/mesh/bearer/src/gap_address_filter.c.obj
 .debug_line    0x00000000      0x3b3 examples/enocean_switch/CMakeFiles/enocean_switch_nrf52832_xxAA_s132_6.0.0.dir/__/__/mesh/bearer/src/gap_address_filter.c.obj
 .debug_str     0x00000000      0x982 examples/enocean_switch/CMakeFiles/enocean_switch_nrf52832_xxAA_s132_6.0.0.dir/__/__/mesh/bearer/src/gap_address_filter.c.obj
 .comment       0x00000000       0x80 examples/enocean_switch/CMakeFiles/enocean_switch_nrf52832_xxAA_s132_6.0.0.dir/__/__/mesh/bearer/src/gap_address_filter.c.obj
 .debug_frame   0x00000000       0xb4 examples/enocean_switch/CMakeFiles/enocean_switch_nrf52832_xxAA_s132_6.0.0.dir/__/__/mesh/bearer/src/gap_address_filter.c.obj
 .ARM.attributes
                0x00000000       0x39 examples/enocean_switch/CMakeFiles/enocean_switch_nrf52832_xxAA_s132_6.0.0.dir/__/__/mesh/bearer/src/gap_address_filter.c.obj
 .text          0x00000000        0x0 examples/enocean_switch/CMakeFiles/enocean_switch_nrf52832_xxAA_s132_6.0.0.dir/__/__/mesh/bearer/src/radio_config.c.obj
 .data          0x00000000        0x0 examples/enocean_switch/CMakeFiles/enocean_switch_nrf52832_xxAA_s132_6.0.0.dir/__/__/mesh/bearer/src/radio_config.c.obj
 .bss           0x00000000        0x0 examples/enocean_switch/CMakeFiles/enocean_switch_nrf52832_xxAA_s132_6.0.0.dir/__/__/mesh/bearer/src/radio_config.c.obj
 .text.radio_config_access_addr_get
                0x00000000       0x4c examples/enocean_switch/CMakeFiles/enocean_switch_nrf52832_xxAA_s132_6.0.0.dir/__/__/mesh/bearer/src/radio_config.c.obj
 .text          0x00000000        0x0 examples/enocean_switch/CMakeFiles/enocean_switch_nrf52832_xxAA_s132_6.0.0.dir/__/__/mesh/bearer/src/rssi_filter.c.obj
 .data          0x00000000        0x0 examples/enocean_switch/CMakeFiles/enocean_switch_nrf52832_xxAA_s132_6.0.0.dir/__/__/mesh/bearer/src/rssi_filter.c.obj
 .bss           0x00000000        0x0 examples/enocean_switch/CMakeFiles/enocean_switch_nrf52832_xxAA_s132_6.0.0.dir/__/__/mesh/bearer/src/rssi_filter.c.obj
 .text.rssi_filter_handle
                0x00000000       0x20 examples/enocean_switch/CMakeFiles/enocean_switch_nrf52832_xxAA_s132_6.0.0.dir/__/__/mesh/bearer/src/rssi_filter.c.obj
 .text.bearer_rssi_filtering_set
                0x00000000       0x34 examples/enocean_switch/CMakeFiles/enocean_switch_nrf52832_xxAA_s132_6.0.0.dir/__/__/mesh/bearer/src/rssi_filter.c.obj
 .text.bearer_rssi_filtered_amount_get
                0x00000000        0xc examples/enocean_switch/CMakeFiles/enocean_switch_nrf52832_xxAA_s132_6.0.0.dir/__/__/mesh/bearer/src/rssi_filter.c.obj
 .bss.m_rssi_filter
                0x00000000       0x18 examples/enocean_switch/CMakeFiles/enocean_switch_nrf52832_xxAA_s132_6.0.0.dir/__/__/mesh/bearer/src/rssi_filter.c.obj
 .debug_info    0x00000000      0xc73 examples/enocean_switch/CMakeFiles/enocean_switch_nrf52832_xxAA_s132_6.0.0.dir/__/__/mesh/bearer/src/rssi_filter.c.obj
 .debug_abbrev  0x00000000      0x28e examples/enocean_switch/CMakeFiles/enocean_switch_nrf52832_xxAA_s132_6.0.0.dir/__/__/mesh/bearer/src/rssi_filter.c.obj
 .debug_loc     0x00000000       0xb3 examples/enocean_switch/CMakeFiles/enocean_switch_nrf52832_xxAA_s132_6.0.0.dir/__/__/mesh/bearer/src/rssi_filter.c.obj
 .debug_aranges
                0x00000000       0x30 examples/enocean_switch/CMakeFiles/enocean_switch_nrf52832_xxAA_s132_6.0.0.dir/__/__/mesh/bearer/src/rssi_filter.c.obj
 .debug_ranges  0x00000000       0x20 examples/enocean_switch/CMakeFiles/enocean_switch_nrf52832_xxAA_s132_6.0.0.dir/__/__/mesh/bearer/src/rssi_filter.c.obj
 .debug_line    0x00000000      0x2d0 examples/enocean_switch/CMakeFiles/enocean_switch_nrf52832_xxAA_s132_6.0.0.dir/__/__/mesh/bearer/src/rssi_filter.c.obj
 .debug_str     0x00000000      0x83d examples/enocean_switch/CMakeFiles/enocean_switch_nrf52832_xxAA_s132_6.0.0.dir/__/__/mesh/bearer/src/rssi_filter.c.obj
 .comment       0x00000000       0x80 examples/enocean_switch/CMakeFiles/enocean_switch_nrf52832_xxAA_s132_6.0.0.dir/__/__/mesh/bearer/src/rssi_filter.c.obj
 .debug_frame   0x00000000       0x54 examples/enocean_switch/CMakeFiles/enocean_switch_nrf52832_xxAA_s132_6.0.0.dir/__/__/mesh/bearer/src/rssi_filter.c.obj
 .ARM.attributes
                0x00000000       0x39 examples/enocean_switch/CMakeFiles/enocean_switch_nrf52832_xxAA_s132_6.0.0.dir/__/__/mesh/bearer/src/rssi_filter.c.obj
 .text          0x00000000        0x0 examples/enocean_switch/CMakeFiles/enocean_switch_nrf52832_xxAA_s132_6.0.0.dir/__/__/mesh/bearer/src/scanner.c.obj
 .data          0x00000000        0x0 examples/enocean_switch/CMakeFiles/enocean_switch_nrf52832_xxAA_s132_6.0.0.dir/__/__/mesh/bearer/src/scanner.c.obj
 .bss           0x00000000        0x0 examples/enocean_switch/CMakeFiles/enocean_switch_nrf52832_xxAA_s132_6.0.0.dir/__/__/mesh/bearer/src/scanner.c.obj
 .text.scanner_rx_callback_set
                0x00000000       0x20 examples/enocean_switch/CMakeFiles/enocean_switch_nrf52832_xxAA_s132_6.0.0.dir/__/__/mesh/bearer/src/scanner.c.obj
 .text.scanner_disable
                0x00000000       0x3c examples/enocean_switch/CMakeFiles/enocean_switch_nrf52832_xxAA_s132_6.0.0.dir/__/__/mesh/bearer/src/scanner.c.obj
 .text.scanner_is_enabled
                0x00000000       0x10 examples/enocean_switch/CMakeFiles/enocean_switch_nrf52832_xxAA_s132_6.0.0.dir/__/__/mesh/bearer/src/scanner.c.obj
 .text.scanner_stats_get
                0x00000000        0x8 examples/enocean_switch/CMakeFiles/enocean_switch_nrf52832_xxAA_s132_6.0.0.dir/__/__/mesh/bearer/src/scanner.c.obj
 .text.scanner_config_radio_mode_set
                0x00000000       0x10 examples/enocean_switch/CMakeFiles/enocean_switch_nrf52832_xxAA_s132_6.0.0.dir/__/__/mesh/bearer/src/scanner.c.obj
 .text          0x00000000        0x0 examples/enocean_switch/CMakeFiles/enocean_switch_nrf52832_xxAA_s132_6.0.0.dir/__/__/mesh/bearer/src/mesh_pa_lna.c.obj
 .data          0x00000000        0x0 examples/enocean_switch/CMakeFiles/enocean_switch_nrf52832_xxAA_s132_6.0.0.dir/__/__/mesh/bearer/src/mesh_pa_lna.c.obj
 .bss           0x00000000        0x0 examples/enocean_switch/CMakeFiles/enocean_switch_nrf52832_xxAA_s132_6.0.0.dir/__/__/mesh/bearer/src/mesh_pa_lna.c.obj
 .text.unlikely.pin_init
                0x00000000       0x32 examples/enocean_switch/CMakeFiles/enocean_switch_nrf52832_xxAA_s132_6.0.0.dir/__/__/mesh/bearer/src/mesh_pa_lna.c.obj
 .text.mesh_pa_lna_gpiote_enable
                0x00000000       0x68 examples/enocean_switch/CMakeFiles/enocean_switch_nrf52832_xxAA_s132_6.0.0.dir/__/__/mesh/bearer/src/mesh_pa_lna.c.obj
 .text.mesh_pa_lna_gpiote_params_get
                0x00000000       0x10 examples/enocean_switch/CMakeFiles/enocean_switch_nrf52832_xxAA_s132_6.0.0.dir/__/__/mesh/bearer/src/mesh_pa_lna.c.obj
 .text.mesh_pa_lna_gpiote_disable
                0x00000000       0x20 examples/enocean_switch/CMakeFiles/enocean_switch_nrf52832_xxAA_s132_6.0.0.dir/__/__/mesh/bearer/src/mesh_pa_lna.c.obj
 .text          0x00000000        0x0 examples/enocean_switch/CMakeFiles/enocean_switch_nrf52832_xxAA_s132_6.0.0.dir/__/__/models/simple_on_off/src/simple_on_off_client.c.obj
 .data          0x00000000        0x0 examples/enocean_switch/CMakeFiles/enocean_switch_nrf52832_xxAA_s132_6.0.0.dir/__/__/models/simple_on_off/src/simple_on_off_client.c.obj
 .bss           0x00000000        0x0 examples/enocean_switch/CMakeFiles/enocean_switch_nrf52832_xxAA_s132_6.0.0.dir/__/__/models/simple_on_off/src/simple_on_off_client.c.obj
 .text.simple_on_off_client_get
                0x00000000       0x28 examples/enocean_switch/CMakeFiles/enocean_switch_nrf52832_xxAA_s132_6.0.0.dir/__/__/models/simple_on_off/src/simple_on_off_client.c.obj
 .text.simple_on_off_client_pending_msg_cancel
                0x00000000        0x6 examples/enocean_switch/CMakeFiles/enocean_switch_nrf52832_xxAA_s132_6.0.0.dir/__/__/models/simple_on_off/src/simple_on_off_client.c.obj
 .text          0x00000000        0x0 examples/enocean_switch/CMakeFiles/enocean_switch_nrf52832_xxAA_s132_6.0.0.dir/__/__/models/config/src/composition_data.c.obj
 .data          0x00000000        0x0 examples/enocean_switch/CMakeFiles/enocean_switch_nrf52832_xxAA_s132_6.0.0.dir/__/__/models/config/src/composition_data.c.obj
 .bss           0x00000000        0x0 examples/enocean_switch/CMakeFiles/enocean_switch_nrf52832_xxAA_s132_6.0.0.dir/__/__/models/config/src/composition_data.c.obj
 .text          0x00000000        0x0 examples/enocean_switch/CMakeFiles/enocean_switch_nrf52832_xxAA_s132_6.0.0.dir/__/__/models/config/src/config_server.c.obj
 .data          0x00000000        0x0 examples/enocean_switch/CMakeFiles/enocean_switch_nrf52832_xxAA_s132_6.0.0.dir/__/__/models/config/src/config_server.c.obj
 .bss           0x00000000        0x0 examples/enocean_switch/CMakeFiles/enocean_switch_nrf52832_xxAA_s132_6.0.0.dir/__/__/models/config/src/config_server.c.obj
 .text          0x00000000        0x0 examples/enocean_switch/CMakeFiles/enocean_switch_nrf52832_xxAA_s132_6.0.0.dir/__/__/models/config/src/packed_index_list.c.obj
 .data          0x00000000        0x0 examples/enocean_switch/CMakeFiles/enocean_switch_nrf52832_xxAA_s132_6.0.0.dir/__/__/models/config/src/packed_index_list.c.obj
 .bss           0x00000000        0x0 examples/enocean_switch/CMakeFiles/enocean_switch_nrf52832_xxAA_s132_6.0.0.dir/__/__/models/config/src/packed_index_list.c.obj
 .text          0x00000000        0x0 examples/enocean_switch/CMakeFiles/enocean_switch_nrf52832_xxAA_s132_6.0.0.dir/__/__/models/health/src/health_server.c.obj
 .data          0x00000000        0x0 examples/enocean_switch/CMakeFiles/enocean_switch_nrf52832_xxAA_s132_6.0.0.dir/__/__/models/health/src/health_server.c.obj
 .bss           0x00000000        0x0 examples/enocean_switch/CMakeFiles/enocean_switch_nrf52832_xxAA_s132_6.0.0.dir/__/__/models/health/src/health_server.c.obj
 .text.health_server_fault_is_set
                0x00000000       0x1c examples/enocean_switch/CMakeFiles/enocean_switch_nrf52832_xxAA_s132_6.0.0.dir/__/__/models/health/src/health_server.c.obj
 .text.health_server_fault_count_get
                0x00000000        0xc examples/enocean_switch/CMakeFiles/enocean_switch_nrf52832_xxAA_s132_6.0.0.dir/__/__/models/health/src/health_server.c.obj
 .text.health_server_fault_register
                0x00000000       0xca examples/enocean_switch/CMakeFiles/enocean_switch_nrf52832_xxAA_s132_6.0.0.dir/__/__/models/health/src/health_server.c.obj
 .text.health_server_fault_clear
                0x00000000       0x48 examples/enocean_switch/CMakeFiles/enocean_switch_nrf52832_xxAA_s132_6.0.0.dir/__/__/models/health/src/health_server.c.obj
 .text.health_server_attention_get
                0x00000000        0x6 examples/enocean_switch/CMakeFiles/enocean_switch_nrf52832_xxAA_s132_6.0.0.dir/__/__/models/health/src/health_server.c.obj
 .text.health_server_attention_set
                0x00000000        0x4 examples/enocean_switch/CMakeFiles/enocean_switch_nrf52832_xxAA_s132_6.0.0.dir/__/__/models/health/src/health_server.c.obj
 .text          0x00000000        0x0 examples/enocean_switch/CMakeFiles/enocean_switch_nrf52832_xxAA_s132_6.0.0.dir/__/__/mesh/access/src/access_publish.c.obj
 .data          0x00000000        0x0 examples/enocean_switch/CMakeFiles/enocean_switch_nrf52832_xxAA_s132_6.0.0.dir/__/__/mesh/access/src/access_publish.c.obj
 .bss           0x00000000        0x0 examples/enocean_switch/CMakeFiles/enocean_switch_nrf52832_xxAA_s132_6.0.0.dir/__/__/mesh/access/src/access_publish.c.obj
 .text          0x00000000        0x0 examples/enocean_switch/CMakeFiles/enocean_switch_nrf52832_xxAA_s132_6.0.0.dir/__/__/mesh/access/src/access.c.obj
 .data          0x00000000        0x0 examples/enocean_switch/CMakeFiles/enocean_switch_nrf52832_xxAA_s132_6.0.0.dir/__/__/mesh/access/src/access.c.obj
 .bss           0x00000000        0x0 examples/enocean_switch/CMakeFiles/enocean_switch_nrf52832_xxAA_s132_6.0.0.dir/__/__/mesh/access/src/access.c.obj
 .text.access_model_subscription_lists_share
                0x00000000       0x4c examples/enocean_switch/CMakeFiles/enocean_switch_nrf52832_xxAA_s132_6.0.0.dir/__/__/mesh/access/src/access.c.obj
 .text.access_element_location_set
                0x00000000       0x2c examples/enocean_switch/CMakeFiles/enocean_switch_nrf52832_xxAA_s132_6.0.0.dir/__/__/mesh/access/src/access.c.obj
 .text          0x00000000        0x0 examples/enocean_switch/CMakeFiles/enocean_switch_nrf52832_xxAA_s132_6.0.0.dir/__/__/mesh/access/src/access_reliable.c.obj
 .data          0x00000000        0x0 examples/enocean_switch/CMakeFiles/enocean_switch_nrf52832_xxAA_s132_6.0.0.dir/__/__/mesh/access/src/access_reliable.c.obj
 .bss           0x00000000        0x0 examples/enocean_switch/CMakeFiles/enocean_switch_nrf52832_xxAA_s132_6.0.0.dir/__/__/mesh/access/src/access_reliable.c.obj
 .text          0x00000000        0x0 examples/enocean_switch/CMakeFiles/enocean_switch_nrf52832_xxAA_s132_6.0.0.dir/__/__/mesh/access/src/access_loopback.c.obj
 .data          0x00000000        0x0 examples/enocean_switch/CMakeFiles/enocean_switch_nrf52832_xxAA_s132_6.0.0.dir/__/__/mesh/access/src/access_loopback.c.obj
 .bss           0x00000000        0x0 examples/enocean_switch/CMakeFiles/enocean_switch_nrf52832_xxAA_s132_6.0.0.dir/__/__/mesh/access/src/access_loopback.c.obj
 .text          0x00000000        0x0 examples/enocean_switch/CMakeFiles/enocean_switch_nrf52832_xxAA_s132_6.0.0.dir/__/__/mesh/access/src/device_state_manager.c.obj
 .data          0x00000000        0x0 examples/enocean_switch/CMakeFiles/enocean_switch_nrf52832_xxAA_s132_6.0.0.dir/__/__/mesh/access/src/device_state_manager.c.obj
 .bss           0x00000000        0x0 examples/enocean_switch/CMakeFiles/enocean_switch_nrf52832_xxAA_s132_6.0.0.dir/__/__/mesh/access/src/device_state_manager.c.obj
 .text.dsm_has_unflashed_data
                0x00000000       0x24 examples/enocean_switch/CMakeFiles/enocean_switch_nrf52832_xxAA_s132_6.0.0.dir/__/__/mesh/access/src/device_state_manager.c.obj
 .text.dsm_address_subscription_get
                0x00000000       0x34 examples/enocean_switch/CMakeFiles/enocean_switch_nrf52832_xxAA_s132_6.0.0.dir/__/__/mesh/access/src/device_state_manager.c.obj
 .text.dsm_address_subscription_count_get
                0x00000000       0x58 examples/enocean_switch/CMakeFiles/enocean_switch_nrf52832_xxAA_s132_6.0.0.dir/__/__/mesh/access/src/device_state_manager.c.obj
 .text.dsm_address_get_all
                0x00000000       0x74 examples/enocean_switch/CMakeFiles/enocean_switch_nrf52832_xxAA_s132_6.0.0.dir/__/__/mesh/access/src/device_state_manager.c.obj
 .text.dsm_subnet_handle_to_netkey_index
                0x00000000       0x34 examples/enocean_switch/CMakeFiles/enocean_switch_nrf52832_xxAA_s132_6.0.0.dir/__/__/mesh/access/src/device_state_manager.c.obj
 .text.dsm_subnet_key_get
                0x00000000       0x4c examples/enocean_switch/CMakeFiles/enocean_switch_nrf52832_xxAA_s132_6.0.0.dir/__/__/mesh/access/src/device_state_manager.c.obj
 .text.dsm_devkey_delete
                0x00000000       0x38 examples/enocean_switch/CMakeFiles/enocean_switch_nrf52832_xxAA_s132_6.0.0.dir/__/__/mesh/access/src/device_state_manager.c.obj
 .text.dsm_devkey_handle_get
                0x00000000       0x34 examples/enocean_switch/CMakeFiles/enocean_switch_nrf52832_xxAA_s132_6.0.0.dir/__/__/mesh/access/src/device_state_manager.c.obj
 .text.dsm_beacon_info_get
                0x00000000       0x38 examples/enocean_switch/CMakeFiles/enocean_switch_nrf52832_xxAA_s132_6.0.0.dir/__/__/mesh/access/src/device_state_manager.c.obj
 .text          0x00000000        0x0 examples/enocean_switch/CMakeFiles/enocean_switch_nrf52832_xxAA_s132_6.0.0.dir/__/__/mesh/prov/src/prov_provisionee.c.obj
 .data          0x00000000        0x0 examples/enocean_switch/CMakeFiles/enocean_switch_nrf52832_xxAA_s132_6.0.0.dir/__/__/mesh/prov/src/prov_provisionee.c.obj
 .bss           0x00000000        0x0 examples/enocean_switch/CMakeFiles/enocean_switch_nrf52832_xxAA_s132_6.0.0.dir/__/__/mesh/prov/src/prov_provisionee.c.obj
 .text.prov_provisionee_shared_secret
                0x00000000       0x28 examples/enocean_switch/CMakeFiles/enocean_switch_nrf52832_xxAA_s132_6.0.0.dir/__/__/mesh/prov/src/prov_provisionee.c.obj
 .text          0x00000000        0x0 examples/enocean_switch/CMakeFiles/enocean_switch_nrf52832_xxAA_s132_6.0.0.dir/__/__/mesh/prov/src/nrf_mesh_prov.c.obj
 .data          0x00000000        0x0 examples/enocean_switch/CMakeFiles/enocean_switch_nrf52832_xxAA_s132_6.0.0.dir/__/__/mesh/prov/src/nrf_mesh_prov.c.obj
 .bss           0x00000000        0x0 examples/enocean_switch/CMakeFiles/enocean_switch_nrf52832_xxAA_s132_6.0.0.dir/__/__/mesh/prov/src/nrf_mesh_prov.c.obj
 .text.nrf_mesh_prov_provision
                0x00000000       0x4e examples/enocean_switch/CMakeFiles/enocean_switch_nrf52832_xxAA_s132_6.0.0.dir/__/__/mesh/prov/src/nrf_mesh_prov.c.obj
 .text.nrf_mesh_prov_oob_use
                0x00000000       0x18 examples/enocean_switch/CMakeFiles/enocean_switch_nrf52832_xxAA_s132_6.0.0.dir/__/__/mesh/prov/src/nrf_mesh_prov.c.obj
 .text.nrf_mesh_prov_shared_secret_provide
                0x00000000        0xe examples/enocean_switch/CMakeFiles/enocean_switch_nrf52832_xxAA_s132_6.0.0.dir/__/__/mesh/prov/src/nrf_mesh_prov.c.obj
 .text.nrf_mesh_prov_pubkey_provide
                0x00000000       0x10 examples/enocean_switch/CMakeFiles/enocean_switch_nrf52832_xxAA_s132_6.0.0.dir/__/__/mesh/prov/src/nrf_mesh_prov.c.obj
 .text.nrf_mesh_prov_scan_start
                0x00000000       0x10 examples/enocean_switch/CMakeFiles/enocean_switch_nrf52832_xxAA_s132_6.0.0.dir/__/__/mesh/prov/src/nrf_mesh_prov.c.obj
 .text.nrf_mesh_prov_scan_stop
                0x00000000        0x4 examples/enocean_switch/CMakeFiles/enocean_switch_nrf52832_xxAA_s132_6.0.0.dir/__/__/mesh/prov/src/nrf_mesh_prov.c.obj
 .text          0x00000000        0x0 examples/enocean_switch/CMakeFiles/enocean_switch_nrf52832_xxAA_s132_6.0.0.dir/__/__/mesh/prov/src/provisioning.c.obj
 .data          0x00000000        0x0 examples/enocean_switch/CMakeFiles/enocean_switch_nrf52832_xxAA_s132_6.0.0.dir/__/__/mesh/prov/src/provisioning.c.obj
 .bss           0x00000000        0x0 examples/enocean_switch/CMakeFiles/enocean_switch_nrf52832_xxAA_s132_6.0.0.dir/__/__/mesh/prov/src/provisioning.c.obj
 .text.prov_tx_invite
                0x00000000       0x28 examples/enocean_switch/CMakeFiles/enocean_switch_nrf52832_xxAA_s132_6.0.0.dir/__/__/mesh/prov/src/provisioning.c.obj
 .text.prov_tx_start
                0x00000000       0x20 examples/enocean_switch/CMakeFiles/enocean_switch_nrf52832_xxAA_s132_6.0.0.dir/__/__/mesh/prov/src/provisioning.c.obj
 .text.prov_tx_data
                0x00000000        0x6 examples/enocean_switch/CMakeFiles/enocean_switch_nrf52832_xxAA_s132_6.0.0.dir/__/__/mesh/prov/src/provisioning.c.obj
 .text.prov_tx  0x00000000        0x4 examples/enocean_switch/CMakeFiles/enocean_switch_nrf52832_xxAA_s132_6.0.0.dir/__/__/mesh/prov/src/provisioning.c.obj
 .text          0x00000000        0x0 examples/enocean_switch/CMakeFiles/enocean_switch_nrf52832_xxAA_s132_6.0.0.dir/__/__/mesh/prov/src/prov_beacon.c.obj
 .data          0x00000000        0x0 examples/enocean_switch/CMakeFiles/enocean_switch_nrf52832_xxAA_s132_6.0.0.dir/__/__/mesh/prov/src/prov_beacon.c.obj
 .bss           0x00000000        0x0 examples/enocean_switch/CMakeFiles/enocean_switch_nrf52832_xxAA_s132_6.0.0.dir/__/__/mesh/prov/src/prov_beacon.c.obj
 .text.prov_beacon_scan_start
                0x00000000       0x18 examples/enocean_switch/CMakeFiles/enocean_switch_nrf52832_xxAA_s132_6.0.0.dir/__/__/mesh/prov/src/prov_beacon.c.obj
 .text.prov_beacon_scan_stop
                0x00000000        0xc examples/enocean_switch/CMakeFiles/enocean_switch_nrf52832_xxAA_s132_6.0.0.dir/__/__/mesh/prov/src/prov_beacon.c.obj
 .text          0x00000000        0x0 examples/enocean_switch/CMakeFiles/enocean_switch_nrf52832_xxAA_s132_6.0.0.dir/__/__/mesh/prov/src/prov_utils.c.obj
 .data          0x00000000        0x0 examples/enocean_switch/CMakeFiles/enocean_switch_nrf52832_xxAA_s132_6.0.0.dir/__/__/mesh/prov/src/prov_utils.c.obj
 .bss           0x00000000        0x0 examples/enocean_switch/CMakeFiles/enocean_switch_nrf52832_xxAA_s132_6.0.0.dir/__/__/mesh/prov/src/prov_utils.c.obj
 .text          0x00000000        0x0 examples/enocean_switch/CMakeFiles/enocean_switch_nrf52832_xxAA_s132_6.0.0.dir/__/__/mesh/prov/src/prov_bearer_adv.c.obj
 .data          0x00000000        0x0 examples/enocean_switch/CMakeFiles/enocean_switch_nrf52832_xxAA_s132_6.0.0.dir/__/__/mesh/prov/src/prov_bearer_adv.c.obj
 .bss           0x00000000        0x0 examples/enocean_switch/CMakeFiles/enocean_switch_nrf52832_xxAA_s132_6.0.0.dir/__/__/mesh/prov/src/prov_bearer_adv.c.obj
 .text          0x00000000        0x0 examples/enocean_switch/CMakeFiles/enocean_switch_nrf52832_xxAA_s132_6.0.0.dir/C_/b/nRF5_SDK_15.0.0_a53641a/modules/nrfx/mdk/system_nrf52.c.obj
 .data          0x00000000        0x0 examples/enocean_switch/CMakeFiles/enocean_switch_nrf52832_xxAA_s132_6.0.0.dir/C_/b/nRF5_SDK_15.0.0_a53641a/modules/nrfx/mdk/system_nrf52.c.obj
 .bss           0x00000000        0x0 examples/enocean_switch/CMakeFiles/enocean_switch_nrf52832_xxAA_s132_6.0.0.dir/C_/b/nRF5_SDK_15.0.0_a53641a/modules/nrfx/mdk/system_nrf52.c.obj
 .text.SystemCoreClockUpdate
                0x00000000       0x10 examples/enocean_switch/CMakeFiles/enocean_switch_nrf52832_xxAA_s132_6.0.0.dir/C_/b/nRF5_SDK_15.0.0_a53641a/modules/nrfx/mdk/system_nrf52.c.obj
 .data          0x00000000        0x0 examples/enocean_switch/CMakeFiles/enocean_switch_nrf52832_xxAA_s132_6.0.0.dir/C_/b/nRF5_SDK_15.0.0_a53641a/modules/nrfx/mdk/gcc_startup_nrf52.S.obj
 .bss           0x00000000        0x0 examples/enocean_switch/CMakeFiles/enocean_switch_nrf52832_xxAA_s132_6.0.0.dir/C_/b/nRF5_SDK_15.0.0_a53641a/modules/nrfx/mdk/gcc_startup_nrf52.S.obj
 .text          0x00000000        0x0 examples/enocean_switch/CMakeFiles/enocean_switch_nrf52832_xxAA_s132_6.0.0.dir/C_/b/nRF5_SDK_15.0.0_a53641a/components/libraries/util/app_error.c.obj
 .data          0x00000000        0x0 examples/enocean_switch/CMakeFiles/enocean_switch_nrf52832_xxAA_s132_6.0.0.dir/C_/b/nRF5_SDK_15.0.0_a53641a/components/libraries/util/app_error.c.obj
 .bss           0x00000000        0x0 examples/enocean_switch/CMakeFiles/enocean_switch_nrf52832_xxAA_s132_6.0.0.dir/C_/b/nRF5_SDK_15.0.0_a53641a/components/libraries/util/app_error.c.obj
 .text.app_error_save_and_stop
                0x00000000       0x58 examples/enocean_switch/CMakeFiles/enocean_switch_nrf52832_xxAA_s132_6.0.0.dir/C_/b/nRF5_SDK_15.0.0_a53641a/components/libraries/util/app_error.c.obj
 .bss.m_error_data.7863
                0x00000000       0x20 examples/enocean_switch/CMakeFiles/enocean_switch_nrf52832_xxAA_s132_6.0.0.dir/C_/b/nRF5_SDK_15.0.0_a53641a/components/libraries/util/app_error.c.obj
 .text          0x00000000        0x0 examples/enocean_switch/CMakeFiles/enocean_switch_nrf52832_xxAA_s132_6.0.0.dir/C_/b/nRF5_SDK_15.0.0_a53641a/components/libraries/util/app_util_platform.c.obj
 .data          0x00000000        0x0 examples/enocean_switch/CMakeFiles/enocean_switch_nrf52832_xxAA_s132_6.0.0.dir/C_/b/nRF5_SDK_15.0.0_a53641a/components/libraries/util/app_util_platform.c.obj
 .bss           0x00000000        0x0 examples/enocean_switch/CMakeFiles/enocean_switch_nrf52832_xxAA_s132_6.0.0.dir/C_/b/nRF5_SDK_15.0.0_a53641a/components/libraries/util/app_util_platform.c.obj
 .text.app_util_disable_irq
                0x00000000       0x10 examples/enocean_switch/CMakeFiles/enocean_switch_nrf52832_xxAA_s132_6.0.0.dir/C_/b/nRF5_SDK_15.0.0_a53641a/components/libraries/util/app_util_platform.c.obj
 .text.app_util_enable_irq
                0x00000000       0x14 examples/enocean_switch/CMakeFiles/enocean_switch_nrf52832_xxAA_s132_6.0.0.dir/C_/b/nRF5_SDK_15.0.0_a53641a/components/libraries/util/app_util_platform.c.obj
 .text.privilege_level_get
                0x00000000       0x1a examples/enocean_switch/CMakeFiles/enocean_switch_nrf52832_xxAA_s132_6.0.0.dir/C_/b/nRF5_SDK_15.0.0_a53641a/components/libraries/util/app_util_platform.c.obj
 .text.current_int_priority_get
                0x00000000       0x38 examples/enocean_switch/CMakeFiles/enocean_switch_nrf52832_xxAA_s132_6.0.0.dir/C_/b/nRF5_SDK_15.0.0_a53641a/components/libraries/util/app_util_platform.c.obj
 .bss.m_in_critical_region
                0x00000000        0x4 examples/enocean_switch/CMakeFiles/enocean_switch_nrf52832_xxAA_s132_6.0.0.dir/C_/b/nRF5_SDK_15.0.0_a53641a/components/libraries/util/app_util_platform.c.obj
 .text          0x00000000        0x0 examples/enocean_switch/CMakeFiles/enocean_switch_nrf52832_xxAA_s132_6.0.0.dir/C_/b/nRF5_SDK_15.0.0_a53641a/components/libraries/timer/app_timer.c.obj
 .data          0x00000000        0x0 examples/enocean_switch/CMakeFiles/enocean_switch_nrf52832_xxAA_s132_6.0.0.dir/C_/b/nRF5_SDK_15.0.0_a53641a/components/libraries/timer/app_timer.c.obj
 .bss           0x00000000        0x0 examples/enocean_switch/CMakeFiles/enocean_switch_nrf52832_xxAA_s132_6.0.0.dir/C_/b/nRF5_SDK_15.0.0_a53641a/components/libraries/timer/app_timer.c.obj
 .text.app_timer_stop_all
                0x00000000       0x18 examples/enocean_switch/CMakeFiles/enocean_switch_nrf52832_xxAA_s132_6.0.0.dir/C_/b/nRF5_SDK_15.0.0_a53641a/components/libraries/timer/app_timer.c.obj
 .text.app_timer_cnt_get
                0x00000000        0xc examples/enocean_switch/CMakeFiles/enocean_switch_nrf52832_xxAA_s132_6.0.0.dir/C_/b/nRF5_SDK_15.0.0_a53641a/components/libraries/timer/app_timer.c.obj
 .text.app_timer_cnt_diff_compute
                0x00000000        0x8 examples/enocean_switch/CMakeFiles/enocean_switch_nrf52832_xxAA_s132_6.0.0.dir/C_/b/nRF5_SDK_15.0.0_a53641a/components/libraries/timer/app_timer.c.obj
 .text.app_timer_pause
                0x00000000        0xc examples/enocean_switch/CMakeFiles/enocean_switch_nrf52832_xxAA_s132_6.0.0.dir/C_/b/nRF5_SDK_15.0.0_a53641a/components/libraries/timer/app_timer.c.obj
 .text.app_timer_resume
                0x00000000        0xc examples/enocean_switch/CMakeFiles/enocean_switch_nrf52832_xxAA_s132_6.0.0.dir/C_/b/nRF5_SDK_15.0.0_a53641a/components/libraries/timer/app_timer.c.obj
 .text          0x00000000        0x0 examples/enocean_switch/CMakeFiles/enocean_switch_nrf52832_xxAA_s132_6.0.0.dir/C_/b/nRF5_SDK_15.0.0_a53641a/components/libraries/util/app_error_handler_gcc.c.obj
 .data          0x00000000        0x0 examples/enocean_switch/CMakeFiles/enocean_switch_nrf52832_xxAA_s132_6.0.0.dir/C_/b/nRF5_SDK_15.0.0_a53641a/components/libraries/util/app_error_handler_gcc.c.obj
 .bss           0x00000000        0x0 examples/enocean_switch/CMakeFiles/enocean_switch_nrf52832_xxAA_s132_6.0.0.dir/C_/b/nRF5_SDK_15.0.0_a53641a/components/libraries/util/app_error_handler_gcc.c.obj
 .text          0x00000000        0x0 external/rtt/librtt_nrf52832_xxAA.a(SEGGER_RTT.c.obj)
 .data          0x00000000        0x0 external/rtt/librtt_nrf52832_xxAA.a(SEGGER_RTT.c.obj)
 .bss           0x00000000        0x0 external/rtt/librtt_nrf52832_xxAA.a(SEGGER_RTT.c.obj)
 .text._PostTerminalSwitch.constprop.0
                0x00000000       0x28 external/rtt/librtt_nrf52832_xxAA.a(SEGGER_RTT.c.obj)
 .text.SEGGER_RTT_WriteSkipNoLock
                0x00000000       0xb4 external/rtt/librtt_nrf52832_xxAA.a(SEGGER_RTT.c.obj)
 .text.SEGGER_RTT_WriteString
                0x00000000       0x1a external/rtt/librtt_nrf52832_xxAA.a(SEGGER_RTT.c.obj)
 .text.SEGGER_RTT_WaitKey
                0x00000000        0xc external/rtt/librtt_nrf52832_xxAA.a(SEGGER_RTT.c.obj)
 .text.SEGGER_RTT_HasKey
                0x00000000       0x1c external/rtt/librtt_nrf52832_xxAA.a(SEGGER_RTT.c.obj)
 .text.SEGGER_RTT_HasData
                0x00000000       0x14 external/rtt/librtt_nrf52832_xxAA.a(SEGGER_RTT.c.obj)
 .text.SEGGER_RTT_AllocDownBuffer
                0x00000000       0x68 external/rtt/librtt_nrf52832_xxAA.a(SEGGER_RTT.c.obj)
 .text.SEGGER_RTT_AllocUpBuffer
                0x00000000       0x70 external/rtt/librtt_nrf52832_xxAA.a(SEGGER_RTT.c.obj)
 .text.SEGGER_RTT_ConfigUpBuffer
                0x00000000       0x68 external/rtt/librtt_nrf52832_xxAA.a(SEGGER_RTT.c.obj)
 .text.SEGGER_RTT_ConfigDownBuffer
                0x00000000       0x60 external/rtt/librtt_nrf52832_xxAA.a(SEGGER_RTT.c.obj)
 .text.SEGGER_RTT_SetNameUpBuffer
                0x00000000       0x3c external/rtt/librtt_nrf52832_xxAA.a(SEGGER_RTT.c.obj)
 .text.SEGGER_RTT_SetNameDownBuffer
                0x00000000       0x3c external/rtt/librtt_nrf52832_xxAA.a(SEGGER_RTT.c.obj)
 .text.SEGGER_RTT_Init
                0x00000000       0x10 external/rtt/librtt_nrf52832_xxAA.a(SEGGER_RTT.c.obj)
 .text.SEGGER_RTT_SetTerminal
                0x00000000       0x84 external/rtt/librtt_nrf52832_xxAA.a(SEGGER_RTT.c.obj)
 .text.SEGGER_RTT_TerminalOut
                0x00000000       0xa0 external/rtt/librtt_nrf52832_xxAA.a(SEGGER_RTT.c.obj)
 .bss._ActiveTerminal
                0x00000000        0x1 external/rtt/librtt_nrf52832_xxAA.a(SEGGER_RTT.c.obj)
 .rodata._aTerminalId
                0x00000000       0x10 external/rtt/librtt_nrf52832_xxAA.a(SEGGER_RTT.c.obj)
 .text          0x00000000        0x0 external/rtt/librtt_nrf52832_xxAA.a(SEGGER_RTT_printf.c.obj)
 .data          0x00000000        0x0 external/rtt/librtt_nrf52832_xxAA.a(SEGGER_RTT_printf.c.obj)
 .bss           0x00000000        0x0 external/rtt/librtt_nrf52832_xxAA.a(SEGGER_RTT_printf.c.obj)
 .text          0x00000000        0x0 external/micro-ecc/libuECC_nrf52832_xxAA.a(uECC.c.obj)
 .data          0x00000000        0x0 external/micro-ecc/libuECC_nrf52832_xxAA.a(uECC.c.obj)
 .bss           0x00000000        0x0 external/micro-ecc/libuECC_nrf52832_xxAA.a(uECC.c.obj)
 .text.uECC_vli_modMult
                0x00000000      0x148 external/micro-ecc/libuECC_nrf52832_xxAA.a(uECC.c.obj)
 .text.HMAC_init
                0x00000000       0x46 external/micro-ecc/libuECC_nrf52832_xxAA.a(uECC.c.obj)
 .text.HMAC_update
                0x00000000        0x4 external/micro-ecc/libuECC_nrf52832_xxAA.a(uECC.c.obj)
 .text.HMAC_finish
                0x00000000       0x62 external/micro-ecc/libuECC_nrf52832_xxAA.a(uECC.c.obj)
 .text.update_V
                0x00000000       0x24 external/micro-ecc/libuECC_nrf52832_xxAA.a(uECC.c.obj)
 .text.bits2int
                0x00000000       0x88 external/micro-ecc/libuECC_nrf52832_xxAA.a(uECC.c.obj)
 .text.uECC_sign_with_k
                0x00000000      0x17c external/micro-ecc/libuECC_nrf52832_xxAA.a(uECC.c.obj)
 .text.uECC_set_rng
                0x00000000        0xc external/micro-ecc/libuECC_nrf52832_xxAA.a(uECC.c.obj)
 .text.uECC_get_rng
                0x00000000        0xc external/micro-ecc/libuECC_nrf52832_xxAA.a(uECC.c.obj)
 .text.uECC_curve_private_key_size
                0x00000000        0xe external/micro-ecc/libuECC_nrf52832_xxAA.a(uECC.c.obj)
 .text.uECC_curve_public_key_size
                0x00000000        0x8 external/micro-ecc/libuECC_nrf52832_xxAA.a(uECC.c.obj)
 .text.uECC_compute_public_key
                0x00000000       0x7e external/micro-ecc/libuECC_nrf52832_xxAA.a(uECC.c.obj)
 .text.uECC_sign
                0x00000000       0x56 external/micro-ecc/libuECC_nrf52832_xxAA.a(uECC.c.obj)
 .text.uECC_sign_deterministic
                0x00000000      0x192 external/micro-ecc/libuECC_nrf52832_xxAA.a(uECC.c.obj)
 .text.uECC_verify
                0x00000000      0x2f0 external/micro-ecc/libuECC_nrf52832_xxAA.a(uECC.c.obj)
 .data          0x00000000        0x0 c:/mesh/arm_gcc/bin/../lib/gcc/arm-none-eabi/6.3.1/thumb/v7e-m/fpv4-sp/hard\libgcc.a(_aeabi_uldivmod.o)
 .bss           0x00000000        0x0 c:/mesh/arm_gcc/bin/../lib/gcc/arm-none-eabi/6.3.1/thumb/v7e-m/fpv4-sp/hard\libgcc.a(_aeabi_uldivmod.o)
 .data          0x00000000        0x0 c:/mesh/arm_gcc/bin/../lib/gcc/arm-none-eabi/6.3.1/thumb/v7e-m/fpv4-sp/hard\libgcc.a(_udivmoddi4.o)
 .bss           0x00000000        0x0 c:/mesh/arm_gcc/bin/../lib/gcc/arm-none-eabi/6.3.1/thumb/v7e-m/fpv4-sp/hard\libgcc.a(_udivmoddi4.o)
 .ARM.extab     0x00000000        0x0 c:/mesh/arm_gcc/bin/../lib/gcc/arm-none-eabi/6.3.1/thumb/v7e-m/fpv4-sp/hard\libgcc.a(_udivmoddi4.o)
 .data          0x00000000        0x0 c:/mesh/arm_gcc/bin/../lib/gcc/arm-none-eabi/6.3.1/thumb/v7e-m/fpv4-sp/hard\libgcc.a(_dvmd_tls.o)
 .bss           0x00000000        0x0 c:/mesh/arm_gcc/bin/../lib/gcc/arm-none-eabi/6.3.1/thumb/v7e-m/fpv4-sp/hard\libgcc.a(_dvmd_tls.o)
 .text          0x00000000        0x0 c:/mesh/arm_gcc/bin/../lib/gcc/arm-none-eabi/6.3.1/../../../../arm-none-eabi/lib/thumb/v7e-m/fpv4-sp/hard\libg_nano.a(lib_a-exit.o)
 .data          0x00000000        0x0 c:/mesh/arm_gcc/bin/../lib/gcc/arm-none-eabi/6.3.1/../../../../arm-none-eabi/lib/thumb/v7e-m/fpv4-sp/hard\libg_nano.a(lib_a-exit.o)
 .bss           0x00000000        0x0 c:/mesh/arm_gcc/bin/../lib/gcc/arm-none-eabi/6.3.1/../../../../arm-none-eabi/lib/thumb/v7e-m/fpv4-sp/hard\libg_nano.a(lib_a-exit.o)
 .text          0x00000000        0x0 c:/mesh/arm_gcc/bin/../lib/gcc/arm-none-eabi/6.3.1/../../../../arm-none-eabi/lib/thumb/v7e-m/fpv4-sp/hard\libg_nano.a(lib_a-impure.o)
 .data          0x00000000        0x0 c:/mesh/arm_gcc/bin/../lib/gcc/arm-none-eabi/6.3.1/../../../../arm-none-eabi/lib/thumb/v7e-m/fpv4-sp/hard\libg_nano.a(lib_a-impure.o)
 .bss           0x00000000        0x0 c:/mesh/arm_gcc/bin/../lib/gcc/arm-none-eabi/6.3.1/../../../../arm-none-eabi/lib/thumb/v7e-m/fpv4-sp/hard\libg_nano.a(lib_a-impure.o)
 .text          0x00000000        0x0 c:/mesh/arm_gcc/bin/../lib/gcc/arm-none-eabi/6.3.1/../../../../arm-none-eabi/lib/thumb/v7e-m/fpv4-sp/hard\libg_nano.a(lib_a-init.o)
 .data          0x00000000        0x0 c:/mesh/arm_gcc/bin/../lib/gcc/arm-none-eabi/6.3.1/../../../../arm-none-eabi/lib/thumb/v7e-m/fpv4-sp/hard\libg_nano.a(lib_a-init.o)
 .bss           0x00000000        0x0 c:/mesh/arm_gcc/bin/../lib/gcc/arm-none-eabi/6.3.1/../../../../arm-none-eabi/lib/thumb/v7e-m/fpv4-sp/hard\libg_nano.a(lib_a-init.o)
 .text          0x00000000        0x0 c:/mesh/arm_gcc/bin/../lib/gcc/arm-none-eabi/6.3.1/../../../../arm-none-eabi/lib/thumb/v7e-m/fpv4-sp/hard\libg_nano.a(lib_a-malloc.o)
 .data          0x00000000        0x0 c:/mesh/arm_gcc/bin/../lib/gcc/arm-none-eabi/6.3.1/../../../../arm-none-eabi/lib/thumb/v7e-m/fpv4-sp/hard\libg_nano.a(lib_a-malloc.o)
 .bss           0x00000000        0x0 c:/mesh/arm_gcc/bin/../lib/gcc/arm-none-eabi/6.3.1/../../../../arm-none-eabi/lib/thumb/v7e-m/fpv4-sp/hard\libg_nano.a(lib_a-malloc.o)
 .text          0x00000000        0x0 c:/mesh/arm_gcc/bin/../lib/gcc/arm-none-eabi/6.3.1/../../../../arm-none-eabi/lib/thumb/v7e-m/fpv4-sp/hard\libg_nano.a(lib_a-memcmp.o)
 .data          0x00000000        0x0 c:/mesh/arm_gcc/bin/../lib/gcc/arm-none-eabi/6.3.1/../../../../arm-none-eabi/lib/thumb/v7e-m/fpv4-sp/hard\libg_nano.a(lib_a-memcmp.o)
 .bss           0x00000000        0x0 c:/mesh/arm_gcc/bin/../lib/gcc/arm-none-eabi/6.3.1/../../../../arm-none-eabi/lib/thumb/v7e-m/fpv4-sp/hard\libg_nano.a(lib_a-memcmp.o)
 .text          0x00000000        0x0 c:/mesh/arm_gcc/bin/../lib/gcc/arm-none-eabi/6.3.1/../../../../arm-none-eabi/lib/thumb/v7e-m/fpv4-sp/hard\libg_nano.a(lib_a-memcpy-stub.o)
 .data          0x00000000        0x0 c:/mesh/arm_gcc/bin/../lib/gcc/arm-none-eabi/6.3.1/../../../../arm-none-eabi/lib/thumb/v7e-m/fpv4-sp/hard\libg_nano.a(lib_a-memcpy-stub.o)
 .bss           0x00000000        0x0 c:/mesh/arm_gcc/bin/../lib/gcc/arm-none-eabi/6.3.1/../../../../arm-none-eabi/lib/thumb/v7e-m/fpv4-sp/hard\libg_nano.a(lib_a-memcpy-stub.o)
 .text          0x00000000        0x0 c:/mesh/arm_gcc/bin/../lib/gcc/arm-none-eabi/6.3.1/../../../../arm-none-eabi/lib/thumb/v7e-m/fpv4-sp/hard\libg_nano.a(lib_a-memset.o)
 .data          0x00000000        0x0 c:/mesh/arm_gcc/bin/../lib/gcc/arm-none-eabi/6.3.1/../../../../arm-none-eabi/lib/thumb/v7e-m/fpv4-sp/hard\libg_nano.a(lib_a-memset.o)
 .bss           0x00000000        0x0 c:/mesh/arm_gcc/bin/../lib/gcc/arm-none-eabi/6.3.1/../../../../arm-none-eabi/lib/thumb/v7e-m/fpv4-sp/hard\libg_nano.a(lib_a-memset.o)
 .text          0x00000000        0x0 c:/mesh/arm_gcc/bin/../lib/gcc/arm-none-eabi/6.3.1/../../../../arm-none-eabi/lib/thumb/v7e-m/fpv4-sp/hard\libg_nano.a(lib_a-nano-freer.o)
 .data          0x00000000        0x0 c:/mesh/arm_gcc/bin/../lib/gcc/arm-none-eabi/6.3.1/../../../../arm-none-eabi/lib/thumb/v7e-m/fpv4-sp/hard\libg_nano.a(lib_a-nano-freer.o)
 .bss           0x00000000        0x0 c:/mesh/arm_gcc/bin/../lib/gcc/arm-none-eabi/6.3.1/../../../../arm-none-eabi/lib/thumb/v7e-m/fpv4-sp/hard\libg_nano.a(lib_a-nano-freer.o)
 .text          0x00000000        0x0 c:/mesh/arm_gcc/bin/../lib/gcc/arm-none-eabi/6.3.1/../../../../arm-none-eabi/lib/thumb/v7e-m/fpv4-sp/hard\libg_nano.a(lib_a-nano-mallocr.o)
 .data          0x00000000        0x0 c:/mesh/arm_gcc/bin/../lib/gcc/arm-none-eabi/6.3.1/../../../../arm-none-eabi/lib/thumb/v7e-m/fpv4-sp/hard\libg_nano.a(lib_a-nano-mallocr.o)
 .bss           0x00000000        0x0 c:/mesh/arm_gcc/bin/../lib/gcc/arm-none-eabi/6.3.1/../../../../arm-none-eabi/lib/thumb/v7e-m/fpv4-sp/hard\libg_nano.a(lib_a-nano-mallocr.o)
 .text          0x00000000        0x0 c:/mesh/arm_gcc/bin/../lib/gcc/arm-none-eabi/6.3.1/../../../../arm-none-eabi/lib/thumb/v7e-m/fpv4-sp/hard\libg_nano.a(lib_a-sbrkr.o)
 .data          0x00000000        0x0 c:/mesh/arm_gcc/bin/../lib/gcc/arm-none-eabi/6.3.1/../../../../arm-none-eabi/lib/thumb/v7e-m/fpv4-sp/hard\libg_nano.a(lib_a-sbrkr.o)
 .bss           0x00000000        0x0 c:/mesh/arm_gcc/bin/../lib/gcc/arm-none-eabi/6.3.1/../../../../arm-none-eabi/lib/thumb/v7e-m/fpv4-sp/hard\libg_nano.a(lib_a-sbrkr.o)
 .text          0x00000000        0x0 c:/mesh/arm_gcc/bin/../lib/gcc/arm-none-eabi/6.3.1/../../../../arm-none-eabi/lib/thumb/v7e-m/fpv4-sp/hard\libg_nano.a(lib_a-strcpy.o)
 .data          0x00000000        0x0 c:/mesh/arm_gcc/bin/../lib/gcc/arm-none-eabi/6.3.1/../../../../arm-none-eabi/lib/thumb/v7e-m/fpv4-sp/hard\libg_nano.a(lib_a-strcpy.o)
 .bss           0x00000000        0x0 c:/mesh/arm_gcc/bin/../lib/gcc/arm-none-eabi/6.3.1/../../../../arm-none-eabi/lib/thumb/v7e-m/fpv4-sp/hard\libg_nano.a(lib_a-strcpy.o)
 .data          0x00000000        0x0 c:/mesh/arm_gcc/bin/../lib/gcc/arm-none-eabi/6.3.1/../../../../arm-none-eabi/lib/thumb/v7e-m/fpv4-sp/hard\libg_nano.a(lib_a-strlen.o)
 .bss           0x00000000        0x0 c:/mesh/arm_gcc/bin/../lib/gcc/arm-none-eabi/6.3.1/../../../../arm-none-eabi/lib/thumb/v7e-m/fpv4-sp/hard\libg_nano.a(lib_a-strlen.o)
 .text          0x00000000        0x0 c:/mesh/arm_gcc/bin/../lib/gcc/arm-none-eabi/6.3.1/../../../../arm-none-eabi/lib/thumb/v7e-m/fpv4-sp/hard\libg_nano.a(lib_a-strrchr.o)
 .data          0x00000000        0x0 c:/mesh/arm_gcc/bin/../lib/gcc/arm-none-eabi/6.3.1/../../../../arm-none-eabi/lib/thumb/v7e-m/fpv4-sp/hard\libg_nano.a(lib_a-strrchr.o)
 .bss           0x00000000        0x0 c:/mesh/arm_gcc/bin/../lib/gcc/arm-none-eabi/6.3.1/../../../../arm-none-eabi/lib/thumb/v7e-m/fpv4-sp/hard\libg_nano.a(lib_a-strrchr.o)
 .text          0x00000000        0x0 c:/mesh/arm_gcc/bin/../lib/gcc/arm-none-eabi/6.3.1/../../../../arm-none-eabi/lib/thumb/v7e-m/fpv4-sp/hard\libg_nano.a(lib_a-mlock.o)
 .data          0x00000000        0x0 c:/mesh/arm_gcc/bin/../lib/gcc/arm-none-eabi/6.3.1/../../../../arm-none-eabi/lib/thumb/v7e-m/fpv4-sp/hard\libg_nano.a(lib_a-mlock.o)
 .bss           0x00000000        0x0 c:/mesh/arm_gcc/bin/../lib/gcc/arm-none-eabi/6.3.1/../../../../arm-none-eabi/lib/thumb/v7e-m/fpv4-sp/hard\libg_nano.a(lib_a-mlock.o)
 .text          0x00000000        0x0 c:/mesh/arm_gcc/bin/../lib/gcc/arm-none-eabi/6.3.1/../../../../arm-none-eabi/lib/thumb/v7e-m/fpv4-sp/hard\libg_nano.a(lib_a-reent.o)
 .data          0x00000000        0x0 c:/mesh/arm_gcc/bin/../lib/gcc/arm-none-eabi/6.3.1/../../../../arm-none-eabi/lib/thumb/v7e-m/fpv4-sp/hard\libg_nano.a(lib_a-reent.o)
 .bss           0x00000000        0x0 c:/mesh/arm_gcc/bin/../lib/gcc/arm-none-eabi/6.3.1/../../../../arm-none-eabi/lib/thumb/v7e-m/fpv4-sp/hard\libg_nano.a(lib_a-reent.o)
 .text.cleanup_glue
                0x00000000       0x1a c:/mesh/arm_gcc/bin/../lib/gcc/arm-none-eabi/6.3.1/../../../../arm-none-eabi/lib/thumb/v7e-m/fpv4-sp/hard\libg_nano.a(lib_a-reent.o)
 .text._reclaim_reent
                0x00000000       0xb8 c:/mesh/arm_gcc/bin/../lib/gcc/arm-none-eabi/6.3.1/../../../../arm-none-eabi/lib/thumb/v7e-m/fpv4-sp/hard\libg_nano.a(lib_a-reent.o)
 .text          0x00000000        0x0 c:/mesh/arm_gcc/bin/../lib/gcc/arm-none-eabi/6.3.1/../../../../arm-none-eabi/lib/thumb/v7e-m/fpv4-sp/hard\libg_nano.a(lib_a-strchr.o)
 .data          0x00000000        0x0 c:/mesh/arm_gcc/bin/../lib/gcc/arm-none-eabi/6.3.1/../../../../arm-none-eabi/lib/thumb/v7e-m/fpv4-sp/hard\libg_nano.a(lib_a-strchr.o)
 .bss           0x00000000        0x0 c:/mesh/arm_gcc/bin/../lib/gcc/arm-none-eabi/6.3.1/../../../../arm-none-eabi/lib/thumb/v7e-m/fpv4-sp/hard\libg_nano.a(lib_a-strchr.o)
 .text          0x00000000        0x0 c:/mesh/arm_gcc/bin/../lib/gcc/arm-none-eabi/6.3.1/thumb/v7e-m/fpv4-sp/hard/crtend.o
 .data          0x00000000        0x0 c:/mesh/arm_gcc/bin/../lib/gcc/arm-none-eabi/6.3.1/thumb/v7e-m/fpv4-sp/hard/crtend.o
 .bss           0x00000000        0x0 c:/mesh/arm_gcc/bin/../lib/gcc/arm-none-eabi/6.3.1/thumb/v7e-m/fpv4-sp/hard/crtend.o
 .text          0x00000000        0x0 c:/mesh/arm_gcc/bin/../lib/gcc/arm-none-eabi/6.3.1/thumb/v7e-m/fpv4-sp/hard/crtn.o
 .data          0x00000000        0x0 c:/mesh/arm_gcc/bin/../lib/gcc/arm-none-eabi/6.3.1/thumb/v7e-m/fpv4-sp/hard/crtn.o
 .bss           0x00000000        0x0 c:/mesh/arm_gcc/bin/../lib/gcc/arm-none-eabi/6.3.1/thumb/v7e-m/fpv4-sp/hard/crtn.o
 .text          0x00000000        0x0 c:/mesh/arm_gcc/bin/../lib/gcc/arm-none-eabi/6.3.1/../../../../arm-none-eabi/lib/thumb/v7e-m/fpv4-sp/hard\libnosys.a(sbrk.o)
 .data          0x00000000        0x0 c:/mesh/arm_gcc/bin/../lib/gcc/arm-none-eabi/6.3.1/../../../../arm-none-eabi/lib/thumb/v7e-m/fpv4-sp/hard\libnosys.a(sbrk.o)
 .bss           0x00000000        0x0 c:/mesh/arm_gcc/bin/../lib/gcc/arm-none-eabi/6.3.1/../../../../arm-none-eabi/lib/thumb/v7e-m/fpv4-sp/hard\libnosys.a(sbrk.o)
 .text          0x00000000        0x0 c:/mesh/arm_gcc/bin/../lib/gcc/arm-none-eabi/6.3.1/../../../../arm-none-eabi/lib/thumb/v7e-m/fpv4-sp/hard\libnosys.a(_exit.o)
 .data          0x00000000        0x0 c:/mesh/arm_gcc/bin/../lib/gcc/arm-none-eabi/6.3.1/../../../../arm-none-eabi/lib/thumb/v7e-m/fpv4-sp/hard\libnosys.a(_exit.o)
 .bss           0x00000000        0x0 c:/mesh/arm_gcc/bin/../lib/gcc/arm-none-eabi/6.3.1/../../../../arm-none-eabi/lib/thumb/v7e-m/fpv4-sp/hard\libnosys.a(_exit.o)

Memory Configuration

Name             Origin             Length             Attributes
FLASH            0x00026000         0x00051000         xr
RAM              0x20002da0         0x0000cf60         xrw
*default*        0x00000000         0xffffffff

Linker script and memory map


.text           0x00026000    0x14ec4
 *(.isr_vector)
 .isr_vector    0x00026000      0x200 examples/enocean_switch/CMakeFiles/enocean_switch_nrf52832_xxAA_s132_6.0.0.dir/C_/b/nRF5_SDK_15.0.0_a53641a/modules/nrfx/mdk/gcc_startup_nrf52.S.obj
                0x00026000                __isr_vector
 *(.text*)
 .text          0x00026200       0x6c c:/mesh/arm_gcc/bin/../lib/gcc/arm-none-eabi/6.3.1/thumb/v7e-m/fpv4-sp/hard/crtbegin.o
 .text          0x0002626c       0x74 c:/mesh/arm_gcc/bin/../lib/gcc/arm-none-eabi/6.3.1/../../../../arm-none-eabi/lib/thumb/v7e-m/fpv4-sp/hard/crt0.o
                0x0002626c                _start
                0x0002626c                _mainCRTStartup
 .text.sd_app_evt_wait
                0x000262e0        0x4 examples/enocean_switch/CMakeFiles/enocean_switch_nrf52832_xxAA_s132_6.0.0.dir/src/main.c.obj
 .text.provisioning_complete_cb
                0x000262e4       0xd4 examples/enocean_switch/CMakeFiles/enocean_switch_nrf52832_xxAA_s132_6.0.0.dir/src/main.c.obj
 .text.app_data_store_try
                0x000263b8      0x104 examples/enocean_switch/CMakeFiles/enocean_switch_nrf52832_xxAA_s132_6.0.0.dir/src/main.c.obj
 .text.node_reset
                0x000264bc       0x78 examples/enocean_switch/CMakeFiles/enocean_switch_nrf52832_xxAA_s132_6.0.0.dir/src/main.c.obj
 .text.button_event_handler
                0x00026534       0x94 examples/enocean_switch/CMakeFiles/enocean_switch_nrf52832_xxAA_s132_6.0.0.dir/src/main.c.obj
 .text.app_rtt_input_handler
                0x000265c8        0xc examples/enocean_switch/CMakeFiles/enocean_switch_nrf52832_xxAA_s132_6.0.0.dir/src/main.c.obj
 .text.config_server_evt_cb
                0x000265d4        0xc examples/enocean_switch/CMakeFiles/enocean_switch_nrf52832_xxAA_s132_6.0.0.dir/src/main.c.obj
 .text.app_enocean_cb
                0x000265e0      0x388 examples/enocean_switch/CMakeFiles/enocean_switch_nrf52832_xxAA_s132_6.0.0.dir/src/main.c.obj
 .text.rx_callback
                0x00026968        0x4 examples/enocean_switch/CMakeFiles/enocean_switch_nrf52832_xxAA_s132_6.0.0.dir/src/main.c.obj
 .text.models_init_cb
                0x0002696c       0xa8 examples/enocean_switch/CMakeFiles/enocean_switch_nrf52832_xxAA_s132_6.0.0.dir/src/main.c.obj
 .text.client_status_cb
                0x00026a14       0xb8 examples/enocean_switch/CMakeFiles/enocean_switch_nrf52832_xxAA_s132_6.0.0.dir/src/main.c.obj
 .text.app_mesh_core_event_cb
                0x00026acc      0x15c examples/enocean_switch/CMakeFiles/enocean_switch_nrf52832_xxAA_s132_6.0.0.dir/src/main.c.obj
 .text.startup.main
                0x00026c28      0x294 examples/enocean_switch/CMakeFiles/enocean_switch_nrf52832_xxAA_s132_6.0.0.dir/src/main.c.obj
                0x00026c28                main
 .text.enocean_packet_process
                0x00026ebc      0x1f8 examples/enocean_switch/CMakeFiles/enocean_switch_nrf52832_xxAA_s132_6.0.0.dir/src/enocean.c.obj
                0x00026ebc                enocean_packet_process
 .text.enocean_secmat_add
                0x000270b4       0x20 examples/enocean_switch/CMakeFiles/enocean_switch_nrf52832_xxAA_s132_6.0.0.dir/src/enocean.c.obj
                0x000270b4                enocean_secmat_add
 .text.enocean_translator_init
                0x000270d4       0x18 examples/enocean_switch/CMakeFiles/enocean_switch_nrf52832_xxAA_s132_6.0.0.dir/src/enocean.c.obj
                0x000270d4                enocean_translator_init
 .text.flash_manager_mem_available
                0x000270ec       0x6c examples/enocean_switch/CMakeFiles/enocean_switch_nrf52832_xxAA_s132_6.0.0.dir/src/flash_helper.c.obj
 .text.flash_invalidate_complete
                0x00027158       0x10 examples/enocean_switch/CMakeFiles/enocean_switch_nrf52832_xxAA_s132_6.0.0.dir/src/flash_helper.c.obj
 .text.flash_write_complete
                0x00027168       0x8c examples/enocean_switch/CMakeFiles/enocean_switch_nrf52832_xxAA_s132_6.0.0.dir/src/flash_helper.c.obj
 .text.flash_manager_wait
                0x000271f4       0x16 examples/enocean_switch/CMakeFiles/enocean_switch_nrf52832_xxAA_s132_6.0.0.dir/src/flash_helper.c.obj
 *fill*         0x0002720a        0x2 
 .text.flash_reset
                0x0002720c       0x80 examples/enocean_switch/CMakeFiles/enocean_switch_nrf52832_xxAA_s132_6.0.0.dir/src/flash_helper.c.obj
 .text.app_flash_init
                0x0002728c       0xa8 examples/enocean_switch/CMakeFiles/enocean_switch_nrf52832_xxAA_s132_6.0.0.dir/src/flash_helper.c.obj
                0x0002728c                app_flash_init
 .text.flash_remove_complete
                0x00027334       0x64 examples/enocean_switch/CMakeFiles/enocean_switch_nrf52832_xxAA_s132_6.0.0.dir/src/flash_helper.c.obj
 .text.app_flash_data_load
                0x00027398       0x34 examples/enocean_switch/CMakeFiles/enocean_switch_nrf52832_xxAA_s132_6.0.0.dir/src/flash_helper.c.obj
                0x00027398                app_flash_data_load
 .text.app_flash_data_store
                0x000273cc       0x94 examples/enocean_switch/CMakeFiles/enocean_switch_nrf52832_xxAA_s132_6.0.0.dir/src/flash_helper.c.obj
                0x000273cc                app_flash_data_store
 .text.app_flash_clear
                0x00027460       0x12 examples/enocean_switch/CMakeFiles/enocean_switch_nrf52832_xxAA_s132_6.0.0.dir/src/flash_helper.c.obj
                0x00027460                app_flash_clear
 .text.mesh_evt_handler
                0x00027472        0xe examples/enocean_switch/CMakeFiles/enocean_switch_nrf52832_xxAA_s132_6.0.0.dir/__/__/mesh/stack/src/mesh_stack.c.obj
 .text.mesh_stack_start
                0x00027480        0x4 examples/enocean_switch/CMakeFiles/enocean_switch_nrf52832_xxAA_s132_6.0.0.dir/__/__/mesh/stack/src/mesh_stack.c.obj
                0x00027480                mesh_stack_start
 .text.mesh_stack_provisioning_data_store
                0x00027484       0x6c examples/enocean_switch/CMakeFiles/enocean_switch_nrf52832_xxAA_s132_6.0.0.dir/__/__/mesh/stack/src/mesh_stack.c.obj
                0x00027484                mesh_stack_provisioning_data_store
 .text.mesh_stack_config_clear
                0x000274f0       0x12 examples/enocean_switch/CMakeFiles/enocean_switch_nrf52832_xxAA_s132_6.0.0.dir/__/__/mesh/stack/src/mesh_stack.c.obj
                0x000274f0                mesh_stack_config_clear
 .text.mesh_stack_is_device_provisioned
                0x00027502       0x18 examples/enocean_switch/CMakeFiles/enocean_switch_nrf52832_xxAA_s132_6.0.0.dir/__/__/mesh/stack/src/mesh_stack.c.obj
                0x00027502                mesh_stack_is_device_provisioned
 *fill*         0x0002751a        0x2 
 .text.mesh_stack_init
                0x0002751c       0x60 examples/enocean_switch/CMakeFiles/enocean_switch_nrf52832_xxAA_s132_6.0.0.dir/__/__/mesh/stack/src/mesh_stack.c.obj
                0x0002751c                mesh_stack_init
 .text.mesh_stack_device_reset
                0x0002757c       0x20 examples/enocean_switch/CMakeFiles/enocean_switch_nrf52832_xxAA_s132_6.0.0.dir/__/__/mesh/stack/src/mesh_stack.c.obj
                0x0002757c                mesh_stack_device_reset
 .text.sd_evt_get
                0x0002759c        0x4 examples/enocean_switch/CMakeFiles/enocean_switch_nrf52832_xxAA_s132_6.0.0.dir/__/common/src/mesh_softdevice_init.c.obj
 .text.sd_softdevice_enable
                0x000275a0        0x4 examples/enocean_switch/CMakeFiles/enocean_switch_nrf52832_xxAA_s132_6.0.0.dir/__/common/src/mesh_softdevice_init.c.obj
 .text.sd_ble_enable
                0x000275a4        0x4 examples/enocean_switch/CMakeFiles/enocean_switch_nrf52832_xxAA_s132_6.0.0.dir/__/common/src/mesh_softdevice_init.c.obj
 .text.sd_ble_cfg_set
                0x000275a8        0x4 examples/enocean_switch/CMakeFiles/enocean_switch_nrf52832_xxAA_s132_6.0.0.dir/__/common/src/mesh_softdevice_init.c.obj
 .text.SWI2_EGU2_IRQHandler
                0x000275ac       0x18 examples/enocean_switch/CMakeFiles/enocean_switch_nrf52832_xxAA_s132_6.0.0.dir/__/common/src/mesh_softdevice_init.c.obj
                0x000275ac                SWI2_EGU2_IRQHandler
 .text.mesh_softdevice_init
                0x000275c4      0x1ac examples/enocean_switch/CMakeFiles/enocean_switch_nrf52832_xxAA_s132_6.0.0.dir/__/common/src/mesh_softdevice_init.c.obj
                0x000275c4                mesh_softdevice_init
 .text.provisionee_start
                0x00027770       0x18 examples/enocean_switch/CMakeFiles/enocean_switch_nrf52832_xxAA_s132_6.0.0.dir/__/common/src/mesh_provisionee.c.obj
 .text.prov_evt_handler
                0x00027788       0x64 examples/enocean_switch/CMakeFiles/enocean_switch_nrf52832_xxAA_s132_6.0.0.dir/__/common/src/mesh_provisionee.c.obj
 .text.mesh_provisionee_prov_start
                0x000277ec       0x78 examples/enocean_switch/CMakeFiles/enocean_switch_nrf52832_xxAA_s132_6.0.0.dir/__/common/src/mesh_provisionee.c.obj
                0x000277ec                mesh_provisionee_prov_start
 .text.timeout_handler
                0x00027864       0x1c examples/enocean_switch/CMakeFiles/enocean_switch_nrf52832_xxAA_s132_6.0.0.dir/__/common/src/rtt_input.c.obj
                0x00027864                timeout_handler
 .text.rtt_input_enable
                0x00027880       0x6c examples/enocean_switch/CMakeFiles/enocean_switch_nrf52832_xxAA_s132_6.0.0.dir/__/common/src/rtt_input.c.obj
                0x00027880                rtt_input_enable
 .text.led_timeout_handler
                0x000278ec       0x40 examples/enocean_switch/CMakeFiles/enocean_switch_nrf52832_xxAA_s132_6.0.0.dir/__/common/src/simple_hal.c.obj
 .text.hal_led_pin_set
                0x0002792c       0x16 examples/enocean_switch/CMakeFiles/enocean_switch_nrf52832_xxAA_s132_6.0.0.dir/__/common/src/simple_hal.c.obj
                0x0002792c                hal_led_pin_set
 .text.hal_led_mask_set
                0x00027942       0x12 examples/enocean_switch/CMakeFiles/enocean_switch_nrf52832_xxAA_s132_6.0.0.dir/__/common/src/simple_hal.c.obj
                0x00027942                hal_led_mask_set
 .text.hal_led_blink_ms
                0x00027954       0x5c examples/enocean_switch/CMakeFiles/enocean_switch_nrf52832_xxAA_s132_6.0.0.dir/__/common/src/simple_hal.c.obj
                0x00027954                hal_led_blink_ms
 .text.hal_leds_init
                0x000279b0       0x58 examples/enocean_switch/CMakeFiles/enocean_switch_nrf52832_xxAA_s132_6.0.0.dir/__/common/src/simple_hal.c.obj
                0x000279b0                hal_leds_init
 .text.hal_buttons_init
                0x00027a08       0x50 examples/enocean_switch/CMakeFiles/enocean_switch_nrf52832_xxAA_s132_6.0.0.dir/__/common/src/simple_hal.c.obj
                0x00027a08                hal_buttons_init
 .text.GPIOTE_IRQHandler
                0x00027a58       0x60 examples/enocean_switch/CMakeFiles/enocean_switch_nrf52832_xxAA_s132_6.0.0.dir/__/common/src/simple_hal.c.obj
                0x00027a58                GPIOTE_IRQHandler
 .text._weak_handler
                0x00027ab8        0x4 examples/enocean_switch/CMakeFiles/enocean_switch_nrf52832_xxAA_s132_6.0.0.dir/__/nrf_mesh_weak.c.obj
                0x00027ab8                nrf_mesh_dfu_init
                0x00027ab8                nrf_mesh_dfu_jump_to_bootloader
                0x00027ab8                nrf_mesh_dfu_rx
                0x00027ab8                prov_provisioner_provision
                0x00027ab8                nrf_mesh_dfu_bank_info_get
                0x00027ab8                prov_provisioner_oob_pubkey
                0x00027ab8                nrf_mesh_dfu_request
                0x00027ab8                nrf_mesh_dfu_bank_flash
                0x00027ab8                _weak_handler
                0x00027ab8                nrf_mesh_dfu_relay
                0x00027ab8                nrf_mesh_dfu_abort
                0x00027ab8                mesh_flash_op_execute
                0x00027ab8                prov_provisionee_init
                0x00027ab8                nrf_mesh_dfu_state_get
                0x00027ab8                prov_provisioner_shared_secret
                0x00027ab8                prov_provisioner_auth_data
                0x00027ab8                prov_provisioner_oob_use
 .text.app_error_fault_handler
                0x00027abc      0x204 examples/enocean_switch/CMakeFiles/enocean_switch_nrf52832_xxAA_s132_6.0.0.dir/__/common/src/app_error_weak.c.obj
                0x00027abc                app_error_fault_handler
 .text.mesh_assertion_handler
                0x00027cc0       0x24 examples/enocean_switch/CMakeFiles/enocean_switch_nrf52832_xxAA_s132_6.0.0.dir/__/common/src/assertion_handler_weak.c.obj
                0x00027cc0                mesh_assertion_handler
 .text.nrf_mesh_configure_device_uuid_set
                0x00027ce4       0x10 examples/enocean_switch/CMakeFiles/enocean_switch_nrf52832_xxAA_s132_6.0.0.dir/__/__/mesh/core/src/nrf_mesh_configure.c.obj
                0x00027ce4                nrf_mesh_configure_device_uuid_set
 .text.nrf_mesh_configure_device_uuid_reset
                0x00027cf4       0x28 examples/enocean_switch/CMakeFiles/enocean_switch_nrf52832_xxAA_s132_6.0.0.dir/__/__/mesh/core/src/nrf_mesh_configure.c.obj
                0x00027cf4                nrf_mesh_configure_device_uuid_reset
 .text.nrf_mesh_configure_device_uuid_get
                0x00027d1c        0x8 examples/enocean_switch/CMakeFiles/enocean_switch_nrf52832_xxAA_s132_6.0.0.dir/__/__/mesh/core/src/nrf_mesh_configure.c.obj
                0x00027d1c                nrf_mesh_configure_device_uuid_get
 .text.msg_cache_init
                0x00027d24       0x24 examples/enocean_switch/CMakeFiles/enocean_switch_nrf52832_xxAA_s132_6.0.0.dir/__/__/mesh/core/src/msg_cache.c.obj
                0x00027d24                msg_cache_init
 .text.msg_cache_entry_exists
                0x00027d48       0x3c examples/enocean_switch/CMakeFiles/enocean_switch_nrf52832_xxAA_s132_6.0.0.dir/__/__/mesh/core/src/msg_cache.c.obj
                0x00027d48                msg_cache_entry_exists
 .text.msg_cache_entry_add
                0x00027d84       0x2c examples/enocean_switch/CMakeFiles/enocean_switch_nrf52832_xxAA_s132_6.0.0.dir/__/__/mesh/core/src/msg_cache.c.obj
                0x00027d84                msg_cache_entry_add
 .text.seqauth_sequence_number_get
                0x00027db0       0x12 examples/enocean_switch/CMakeFiles/enocean_switch_nrf52832_xxAA_s132_6.0.0.dir/__/__/mesh/core/src/transport.c.obj
 *fill*         0x00027dc2        0x2 
 .text.control_packet_callback_get
                0x00027dc4       0x44 examples/enocean_switch/CMakeFiles/enocean_switch_nrf52832_xxAA_s132_6.0.0.dir/__/__/mesh/core/src/transport.c.obj
 .text.tx_complete
                0x00027e08       0x2c examples/enocean_switch/CMakeFiles/enocean_switch_nrf52832_xxAA_s132_6.0.0.dir/__/__/mesh/core/src/transport.c.obj
 .text.block_ack_full
                0x00027e34       0x1a examples/enocean_switch/CMakeFiles/enocean_switch_nrf52832_xxAA_s132_6.0.0.dir/__/__/mesh/core/src/transport.c.obj
 *fill*         0x00027e4e        0x2 
 .text.sar_rx_session_mark_as_handled
                0x00027e50       0x48 examples/enocean_switch/CMakeFiles/enocean_switch_nrf52832_xxAA_s132_6.0.0.dir/__/__/mesh/core/src/transport.c.obj
 .text.upper_trs_packet_encrypt
                0x00027e98       0x90 examples/enocean_switch/CMakeFiles/enocean_switch_nrf52832_xxAA_s132_6.0.0.dir/__/__/mesh/core/src/transport.c.obj
 .text.sar_ctx_free
                0x00027f28       0x3c examples/enocean_switch/CMakeFiles/enocean_switch_nrf52832_xxAA_s132_6.0.0.dir/__/__/mesh/core/src/transport.c.obj
 .text.sar_ctx_tx_complete
                0x00027f64       0x2e examples/enocean_switch/CMakeFiles/enocean_switch_nrf52832_xxAA_s132_6.0.0.dir/__/__/mesh/core/src/transport.c.obj
 *fill*         0x00027f92        0x2 
 .text.sar_ctx_alloc
                0x00027f94       0xa8 examples/enocean_switch/CMakeFiles/enocean_switch_nrf52832_xxAA_s132_6.0.0.dir/__/__/mesh/core/src/transport.c.obj
 .text.test_transport_decrypt
                0x0002803c       0x88 examples/enocean_switch/CMakeFiles/enocean_switch_nrf52832_xxAA_s132_6.0.0.dir/__/__/mesh/core/src/transport.c.obj
 .text.upper_transport_access_packet_in
                0x000280c4      0x19c examples/enocean_switch/CMakeFiles/enocean_switch_nrf52832_xxAA_s132_6.0.0.dir/__/__/mesh/core/src/transport.c.obj
 .text.trs_packet_header_build
                0x00028260       0xa6 examples/enocean_switch/CMakeFiles/enocean_switch_nrf52832_xxAA_s132_6.0.0.dir/__/__/mesh/core/src/transport.c.obj
 *fill*         0x00028306        0x2 
 .text.tx_retry_timer_reset
                0x00028308       0x44 examples/enocean_switch/CMakeFiles/enocean_switch_nrf52832_xxAA_s132_6.0.0.dir/__/__/mesh/core/src/transport.c.obj
 .text.sar_ctx_cancel
                0x0002834c       0xa8 examples/enocean_switch/CMakeFiles/enocean_switch_nrf52832_xxAA_s132_6.0.0.dir/__/__/mesh/core/src/transport.c.obj
 .text.abort_timeout
                0x000283f4        0x8 examples/enocean_switch/CMakeFiles/enocean_switch_nrf52832_xxAA_s132_6.0.0.dir/__/__/mesh/core/src/transport.c.obj
 .text.trs_sar_packet_out
                0x000283fc       0xda examples/enocean_switch/CMakeFiles/enocean_switch_nrf52832_xxAA_s132_6.0.0.dir/__/__/mesh/core/src/transport.c.obj
 .text.retry_timeout
                0x000284d6       0x46 examples/enocean_switch/CMakeFiles/enocean_switch_nrf52832_xxAA_s132_6.0.0.dir/__/__/mesh/core/src/transport.c.obj
 .text.upper_transport_packet_in
                0x0002851c      0x150 examples/enocean_switch/CMakeFiles/enocean_switch_nrf52832_xxAA_s132_6.0.0.dir/__/__/mesh/core/src/transport.c.obj
 .text.upper_transport_tx
                0x0002866c      0x1e4 examples/enocean_switch/CMakeFiles/enocean_switch_nrf52832_xxAA_s132_6.0.0.dir/__/__/mesh/core/src/transport.c.obj
 .text.transport_sar_mem_funcs_reset
                0x00028850       0x28 examples/enocean_switch/CMakeFiles/enocean_switch_nrf52832_xxAA_s132_6.0.0.dir/__/__/mesh/core/src/transport.c.obj
                0x00028850                transport_sar_mem_funcs_reset
 .text.transport_init
                0x00028878       0x8c examples/enocean_switch/CMakeFiles/enocean_switch_nrf52832_xxAA_s132_6.0.0.dir/__/__/mesh/core/src/transport.c.obj
                0x00028878                transport_init
 .text.transport_tx
                0x00028904       0xb4 examples/enocean_switch/CMakeFiles/enocean_switch_nrf52832_xxAA_s132_6.0.0.dir/__/__/mesh/core/src/transport.c.obj
                0x00028904                transport_tx
 .text.transport_control_tx
                0x000289b8       0x8e examples/enocean_switch/CMakeFiles/enocean_switch_nrf52832_xxAA_s132_6.0.0.dir/__/__/mesh/core/src/transport.c.obj
                0x000289b8                transport_control_tx
 *fill*         0x00028a46        0x2 
 .text.sar_ack_send
                0x00028a48       0xa0 examples/enocean_switch/CMakeFiles/enocean_switch_nrf52832_xxAA_s132_6.0.0.dir/__/__/mesh/core/src/transport.c.obj
 .text.transport_sar_process
                0x00028ae8       0x74 examples/enocean_switch/CMakeFiles/enocean_switch_nrf52832_xxAA_s132_6.0.0.dir/__/__/mesh/core/src/transport.c.obj
 .text.transport_packet_in
                0x00028b5c      0x434 examples/enocean_switch/CMakeFiles/enocean_switch_nrf52832_xxAA_s132_6.0.0.dir/__/__/mesh/core/src/transport.c.obj
                0x00028b5c                transport_packet_in
 .text.ack_timeout
                0x00028f90       0x28 examples/enocean_switch/CMakeFiles/enocean_switch_nrf52832_xxAA_s132_6.0.0.dir/__/__/mesh/core/src/transport.c.obj
 .text.transport_opt_set
                0x00028fb8       0xd0 examples/enocean_switch/CMakeFiles/enocean_switch_nrf52832_xxAA_s132_6.0.0.dir/__/__/mesh/core/src/transport.c.obj
                0x00028fb8                transport_opt_set
 .text.transport_opt_get
                0x00029088       0x68 examples/enocean_switch/CMakeFiles/enocean_switch_nrf52832_xxAA_s132_6.0.0.dir/__/__/mesh/core/src/transport.c.obj
                0x00029088                transport_opt_get
 .text.transport_control_packet_consumer_add
                0x000290f0       0x5c examples/enocean_switch/CMakeFiles/enocean_switch_nrf52832_xxAA_s132_6.0.0.dir/__/__/mesh/core/src/transport.c.obj
                0x000290f0                transport_control_packet_consumer_add
 .text.event_handle
                0x0002914c       0x54 examples/enocean_switch/CMakeFiles/enocean_switch_nrf52832_xxAA_s132_6.0.0.dir/__/__/mesh/core/src/event.c.obj
                0x0002914c                event_handle
 .text.event_handler_add
                0x000291a0       0x20 examples/enocean_switch/CMakeFiles/enocean_switch_nrf52832_xxAA_s132_6.0.0.dir/__/__/mesh/core/src/event.c.obj
                0x000291a0                event_handler_add
 .text.event_handler_remove
                0x000291c0       0x34 examples/enocean_switch/CMakeFiles/enocean_switch_nrf52832_xxAA_s132_6.0.0.dir/__/__/mesh/core/src/event.c.obj
                0x000291c0                event_handler_remove
 .text.m_index_increment
                0x000291f4       0x1e examples/enocean_switch/CMakeFiles/enocean_switch_nrf52832_xxAA_s132_6.0.0.dir/__/__/mesh/core/src/packet_buffer.c.obj
 .text.packet_buffer_init
                0x00029212       0xac examples/enocean_switch/CMakeFiles/enocean_switch_nrf52832_xxAA_s132_6.0.0.dir/__/__/mesh/core/src/packet_buffer.c.obj
                0x00029212                packet_buffer_init
 .text.packet_buffer_flush
                0x000292be       0x60 examples/enocean_switch/CMakeFiles/enocean_switch_nrf52832_xxAA_s132_6.0.0.dir/__/__/mesh/core/src/packet_buffer.c.obj
                0x000292be                packet_buffer_flush
 .text.packet_buffer_reserve
                0x0002931e       0x96 examples/enocean_switch/CMakeFiles/enocean_switch_nrf52832_xxAA_s132_6.0.0.dir/__/__/mesh/core/src/packet_buffer.c.obj
                0x0002931e                packet_buffer_reserve
 .text.packet_buffer_commit
                0x000293b4       0x58 examples/enocean_switch/CMakeFiles/enocean_switch_nrf52832_xxAA_s132_6.0.0.dir/__/__/mesh/core/src/packet_buffer.c.obj
                0x000293b4                packet_buffer_commit
 .text.packet_buffer_pop
                0x0002940c       0x3c examples/enocean_switch/CMakeFiles/enocean_switch_nrf52832_xxAA_s132_6.0.0.dir/__/__/mesh/core/src/packet_buffer.c.obj
                0x0002940c                packet_buffer_pop
 .text.packet_buffer_can_pop
                0x00029448       0x1c examples/enocean_switch/CMakeFiles/enocean_switch_nrf52832_xxAA_s132_6.0.0.dir/__/__/mesh/core/src/packet_buffer.c.obj
                0x00029448                packet_buffer_can_pop
 .text.packet_buffer_packets_ready_to_pop
                0x00029464       0x3a examples/enocean_switch/CMakeFiles/enocean_switch_nrf52832_xxAA_s132_6.0.0.dir/__/__/mesh/core/src/packet_buffer.c.obj
                0x00029464                packet_buffer_packets_ready_to_pop
 .text.packet_buffer_free
                0x0002949e       0x6e examples/enocean_switch/CMakeFiles/enocean_switch_nrf52832_xxAA_s132_6.0.0.dir/__/__/mesh/core/src/packet_buffer.c.obj
                0x0002949e                packet_buffer_free
 .text.get_last_page
                0x0002950c       0x14 examples/enocean_switch/CMakeFiles/enocean_switch_nrf52832_xxAA_s132_6.0.0.dir/__/__/mesh/core/src/flash_manager_defrag.c.obj
 .text.defrag_on_end
                0x00029520       0x1c examples/enocean_switch/CMakeFiles/enocean_switch_nrf52832_xxAA_s132_6.0.0.dir/__/__/mesh/core/src/flash_manager_defrag.c.obj
 .text.execute_procedure_step
                0x0002953c       0x7c examples/enocean_switch/CMakeFiles/enocean_switch_nrf52832_xxAA_s132_6.0.0.dir/__/__/mesh/core/src/flash_manager_defrag.c.obj
 .text.get_next_entry
                0x000295b8       0x34 examples/enocean_switch/CMakeFiles/enocean_switch_nrf52832_xxAA_s132_6.0.0.dir/__/__/mesh/core/src/flash_manager_defrag.c.obj
 .text.get_next_data_entry
                0x000295ec       0x26 examples/enocean_switch/CMakeFiles/enocean_switch_nrf52832_xxAA_s132_6.0.0.dir/__/__/mesh/core/src/flash_manager_defrag.c.obj
 *fill*         0x00029612        0x2 
 .text.on_flash_op_end
                0x00029614       0x30 examples/enocean_switch/CMakeFiles/enocean_switch_nrf52832_xxAA_s132_6.0.0.dir/__/__/mesh/core/src/flash_manager_defrag.c.obj
 .text.check_for_invalid_entries
                0x00029644       0x38 examples/enocean_switch/CMakeFiles/enocean_switch_nrf52832_xxAA_s132_6.0.0.dir/__/__/mesh/core/src/flash_manager_defrag.c.obj
 .text.erase_recovery_area
                0x0002967c       0x34 examples/enocean_switch/CMakeFiles/enocean_switch_nrf52832_xxAA_s132_6.0.0.dir/__/__/mesh/core/src/flash_manager_defrag.c.obj
 .text.flash.constprop.6
                0x000296b0       0x24 examples/enocean_switch/CMakeFiles/enocean_switch_nrf52832_xxAA_s132_6.0.0.dir/__/__/mesh/core/src/flash_manager_defrag.c.obj
 .text.seal_storage_page
                0x000296d4       0x50 examples/enocean_switch/CMakeFiles/enocean_switch_nrf52832_xxAA_s132_6.0.0.dir/__/__/mesh/core/src/flash_manager_defrag.c.obj
 .text.invalidate_duplicate_entries
                0x00029724       0x9c examples/enocean_switch/CMakeFiles/enocean_switch_nrf52832_xxAA_s132_6.0.0.dir/__/__/mesh/core/src/flash_manager_defrag.c.obj
 .text.copy_metadata
                0x000297c0       0x3c examples/enocean_switch/CMakeFiles/enocean_switch_nrf52832_xxAA_s132_6.0.0.dir/__/__/mesh/core/src/flash_manager_defrag.c.obj
 .text.write_defrag_start_pointer
                0x000297fc       0x20 examples/enocean_switch/CMakeFiles/enocean_switch_nrf52832_xxAA_s132_6.0.0.dir/__/__/mesh/core/src/flash_manager_defrag.c.obj
 .text.write_back
                0x0002981c       0x28 examples/enocean_switch/CMakeFiles/enocean_switch_nrf52832_xxAA_s132_6.0.0.dir/__/__/mesh/core/src/flash_manager_defrag.c.obj
 .text.post_process
                0x00029844       0x40 examples/enocean_switch/CMakeFiles/enocean_switch_nrf52832_xxAA_s132_6.0.0.dir/__/__/mesh/core/src/flash_manager_defrag.c.obj
 .text.backup_entries
                0x00029884       0xf8 examples/enocean_switch/CMakeFiles/enocean_switch_nrf52832_xxAA_s132_6.0.0.dir/__/__/mesh/core/src/flash_manager_defrag.c.obj
 .text.erase_source
                0x0002997c       0x34 examples/enocean_switch/CMakeFiles/enocean_switch_nrf52832_xxAA_s132_6.0.0.dir/__/__/mesh/core/src/flash_manager_defrag.c.obj
 .text.flash_manager_defrag_init
                0x000299b0       0x8c examples/enocean_switch/CMakeFiles/enocean_switch_nrf52832_xxAA_s132_6.0.0.dir/__/__/mesh/core/src/flash_manager_defrag.c.obj
                0x000299b0                flash_manager_defrag_init
 .text.flash_manager_defrag_is_running
                0x00029a3c       0x10 examples/enocean_switch/CMakeFiles/enocean_switch_nrf52832_xxAA_s132_6.0.0.dir/__/__/mesh/core/src/flash_manager_defrag.c.obj
                0x00029a3c                flash_manager_defrag_is_running
 .text.flash_manager_defrag
                0x00029a4c       0x44 examples/enocean_switch/CMakeFiles/enocean_switch_nrf52832_xxAA_s132_6.0.0.dir/__/__/mesh/core/src/flash_manager_defrag.c.obj
                0x00029a4c                flash_manager_defrag
 .text.flash_manager_defrag_recovery_page_get
                0x00029a90        0xc examples/enocean_switch/CMakeFiles/enocean_switch_nrf52832_xxAA_s132_6.0.0.dir/__/__/mesh/core/src/flash_manager_defrag.c.obj
                0x00029a90                flash_manager_defrag_recovery_page_get
 .text.fifo_init
                0x00029a9c       0x34 examples/enocean_switch/CMakeFiles/enocean_switch_nrf52832_xxAA_s132_6.0.0.dir/__/__/mesh/core/src/fifo.c.obj
                0x00029a9c                fifo_init
 .text.fifo_push
                0x00029ad0       0x50 examples/enocean_switch/CMakeFiles/enocean_switch_nrf52832_xxAA_s132_6.0.0.dir/__/__/mesh/core/src/fifo.c.obj
                0x00029ad0                fifo_push
 .text.fifo_pop
                0x00029b20       0x52 examples/enocean_switch/CMakeFiles/enocean_switch_nrf52832_xxAA_s132_6.0.0.dir/__/__/mesh/core/src/fifo.c.obj
                0x00029b20                fifo_pop
 *fill*         0x00029b72        0x2 
 .text.wait_for_ready
                0x00029b74       0x10 examples/enocean_switch/CMakeFiles/enocean_switch_nrf52832_xxAA_s132_6.0.0.dir/__/__/mesh/core/src/nrf_flash.c.obj
 .text.nrf_flash_erase
                0x00029b84       0x50 examples/enocean_switch/CMakeFiles/enocean_switch_nrf52832_xxAA_s132_6.0.0.dir/__/__/mesh/core/src/nrf_flash.c.obj
                0x00029b84                nrf_flash_erase
 .text.nrf_flash_write
                0x00029bd4       0x50 examples/enocean_switch/CMakeFiles/enocean_switch_nrf52832_xxAA_s132_6.0.0.dir/__/__/mesh/core/src/nrf_flash.c.obj
                0x00029bd4                nrf_flash_write
 .text.packet_mgr_init
                0x00029c24       0x4c examples/enocean_switch/CMakeFiles/enocean_switch_nrf52832_xxAA_s132_6.0.0.dir/__/__/mesh/core/src/packet_mgr.c.obj
                0x00029c24                packet_mgr_init
 .text.flash_store_iv_index
                0x00029c70       0x38 examples/enocean_switch/CMakeFiles/enocean_switch_nrf52832_xxAA_s132_6.0.0.dir/__/__/mesh/core/src/net_state.c.obj
 .text.flash_mem_available
                0x00029ca8       0x14 examples/enocean_switch/CMakeFiles/enocean_switch_nrf52832_xxAA_s132_6.0.0.dir/__/__/mesh/core/src/net_state.c.obj
 .text.seqnum_block_allocate
                0x00029cbc       0x4c examples/enocean_switch/CMakeFiles/enocean_switch_nrf52832_xxAA_s132_6.0.0.dir/__/__/mesh/core/src/net_state.c.obj
 .text.net_state_reset
                0x00029d08       0x3c examples/enocean_switch/CMakeFiles/enocean_switch_nrf52832_xxAA_s132_6.0.0.dir/__/__/mesh/core/src/net_state.c.obj
                0x00029d08                net_state_reset
 .text.flash_write_complete
                0x00029d44       0x64 examples/enocean_switch/CMakeFiles/enocean_switch_nrf52832_xxAA_s132_6.0.0.dir/__/__/mesh/core/src/net_state.c.obj
 .text.net_state_recover_from_flash
                0x00029da8       0x8c examples/enocean_switch/CMakeFiles/enocean_switch_nrf52832_xxAA_s132_6.0.0.dir/__/__/mesh/core/src/net_state.c.obj
                0x00029da8                net_state_recover_from_flash
 .text.net_state_flash_area_get
                0x00029e34        0xc examples/enocean_switch/CMakeFiles/enocean_switch_nrf52832_xxAA_s132_6.0.0.dir/__/__/mesh/core/src/net_state.c.obj
                0x00029e34                net_state_flash_area_get
 .text.init_flash_storage
                0x00029e40       0x40 examples/enocean_switch/CMakeFiles/enocean_switch_nrf52832_xxAA_s132_6.0.0.dir/__/__/mesh/core/src/net_state.c.obj
 .text.net_state_init
                0x00029e80       0x5c examples/enocean_switch/CMakeFiles/enocean_switch_nrf52832_xxAA_s132_6.0.0.dir/__/__/mesh/core/src/net_state.c.obj
                0x00029e80                net_state_init
 .text.net_state_iv_update_start
                0x00029edc       0x68 examples/enocean_switch/CMakeFiles/enocean_switch_nrf52832_xxAA_s132_6.0.0.dir/__/__/mesh/core/src/net_state.c.obj
                0x00029edc                net_state_iv_update_start
 .text.iv_update_trigger_if_pending
                0x00029f44       0x80 examples/enocean_switch/CMakeFiles/enocean_switch_nrf52832_xxAA_s132_6.0.0.dir/__/__/mesh/core/src/net_state.c.obj
 .text.mesh_evt_handler
                0x00029fc4       0xa0 examples/enocean_switch/CMakeFiles/enocean_switch_nrf52832_xxAA_s132_6.0.0.dir/__/__/mesh/core/src/net_state.c.obj
 .text.iv_update_timer_handler
                0x0002a064       0x68 examples/enocean_switch/CMakeFiles/enocean_switch_nrf52832_xxAA_s132_6.0.0.dir/__/__/mesh/core/src/net_state.c.obj
 .text.net_state_seqnum_alloc
                0x0002a0cc       0x68 examples/enocean_switch/CMakeFiles/enocean_switch_nrf52832_xxAA_s132_6.0.0.dir/__/__/mesh/core/src/net_state.c.obj
                0x0002a0cc                net_state_seqnum_alloc
 .text.net_state_iv_index_lock
                0x0002a134       0x3c examples/enocean_switch/CMakeFiles/enocean_switch_nrf52832_xxAA_s132_6.0.0.dir/__/__/mesh/core/src/net_state.c.obj
                0x0002a134                net_state_iv_index_lock
 .text.net_state_key_refresh_phase_changed
                0x0002a170       0x20 examples/enocean_switch/CMakeFiles/enocean_switch_nrf52832_xxAA_s132_6.0.0.dir/__/__/mesh/core/src/net_state.c.obj
                0x0002a170                net_state_key_refresh_phase_changed
 .text.net_state_beacon_iv_index_get
                0x0002a190        0xc examples/enocean_switch/CMakeFiles/enocean_switch_nrf52832_xxAA_s132_6.0.0.dir/__/__/mesh/core/src/net_state.c.obj
                0x0002a190                net_state_beacon_iv_index_get
 .text.net_state_tx_iv_index_get
                0x0002a19c       0x14 examples/enocean_switch/CMakeFiles/enocean_switch_nrf52832_xxAA_s132_6.0.0.dir/__/__/mesh/core/src/net_state.c.obj
                0x0002a19c                net_state_tx_iv_index_get
 .text.net_state_rx_iv_index_get
                0x0002a1b0       0x18 examples/enocean_switch/CMakeFiles/enocean_switch_nrf52832_xxAA_s132_6.0.0.dir/__/__/mesh/core/src/net_state.c.obj
                0x0002a1b0                net_state_rx_iv_index_get
 .text.net_state_iv_update_get
                0x0002a1c8        0xc examples/enocean_switch/CMakeFiles/enocean_switch_nrf52832_xxAA_s132_6.0.0.dir/__/__/mesh/core/src/net_state.c.obj
                0x0002a1c8                net_state_iv_update_get
 .text.net_state_iv_index_set
                0x0002a1d4       0x30 examples/enocean_switch/CMakeFiles/enocean_switch_nrf52832_xxAA_s132_6.0.0.dir/__/__/mesh/core/src/net_state.c.obj
                0x0002a1d4                net_state_iv_index_set
 .text.send_end_events
                0x0002a204       0x84 examples/enocean_switch/CMakeFiles/enocean_switch_nrf52832_xxAA_s132_6.0.0.dir/__/__/mesh/core/src/mesh_flash.c.obj
 .text.flash_op_schedule
                0x0002a288       0x88 examples/enocean_switch/CMakeFiles/enocean_switch_nrf52832_xxAA_s132_6.0.0.dir/__/__/mesh/core/src/mesh_flash.c.obj
 .text.flash_op_start
                0x0002a310      0x13c examples/enocean_switch/CMakeFiles/enocean_switch_nrf52832_xxAA_s132_6.0.0.dir/__/__/mesh/core/src/mesh_flash.c.obj
 .text.mesh_flash_init
                0x0002a44c       0x88 examples/enocean_switch/CMakeFiles/enocean_switch_nrf52832_xxAA_s132_6.0.0.dir/__/__/mesh/core/src/mesh_flash.c.obj
                0x0002a44c                mesh_flash_init
 .text.mesh_flash_user_callback_set
                0x0002a4d4       0x20 examples/enocean_switch/CMakeFiles/enocean_switch_nrf52832_xxAA_s132_6.0.0.dir/__/__/mesh/core/src/mesh_flash.c.obj
                0x0002a4d4                mesh_flash_user_callback_set
 .text.mesh_flash_op_push
                0x0002a4f4       0xe4 examples/enocean_switch/CMakeFiles/enocean_switch_nrf52832_xxAA_s132_6.0.0.dir/__/__/mesh/core/src/mesh_flash.c.obj
                0x0002a4f4                mesh_flash_op_push
 .text.nrf_mesh_address_type_get
                0x0002a5d8       0x10 examples/enocean_switch/CMakeFiles/enocean_switch_nrf52832_xxAA_s132_6.0.0.dir/__/__/mesh/core/src/nrf_mesh_utils.c.obj
                0x0002a5d8                nrf_mesh_address_type_get
 .text.sd_softdevice_is_enabled
                0x0002a5e8        0x4 examples/enocean_switch/CMakeFiles/enocean_switch_nrf52832_xxAA_s132_6.0.0.dir/__/__/mesh/core/src/nrf_mesh.c.obj
 .text.nrf_mesh_listen
                0x0002a5ec      0x138 examples/enocean_switch/CMakeFiles/enocean_switch_nrf52832_xxAA_s132_6.0.0.dir/__/__/mesh/core/src/nrf_mesh.c.obj
 .text.flash_stable_cb
                0x0002a724       0x20 examples/enocean_switch/CMakeFiles/enocean_switch_nrf52832_xxAA_s132_6.0.0.dir/__/__/mesh/core/src/nrf_mesh.c.obj
 .text.scanner_packet_process_cb
                0x0002a744       0x8c examples/enocean_switch/CMakeFiles/enocean_switch_nrf52832_xxAA_s132_6.0.0.dir/__/__/mesh/core/src/nrf_mesh.c.obj
 .text.nrf_mesh_init
                0x0002a7d0       0xd8 examples/enocean_switch/CMakeFiles/enocean_switch_nrf52832_xxAA_s132_6.0.0.dir/__/__/mesh/core/src/nrf_mesh.c.obj
                0x0002a7d0                nrf_mesh_init
 .text.nrf_mesh_enable
                0x0002a8a8       0x3c examples/enocean_switch/CMakeFiles/enocean_switch_nrf52832_xxAA_s132_6.0.0.dir/__/__/mesh/core/src/nrf_mesh.c.obj
                0x0002a8a8                nrf_mesh_enable
 .text.nrf_mesh_packet_send
                0x0002a8e4       0x7c examples/enocean_switch/CMakeFiles/enocean_switch_nrf52832_xxAA_s132_6.0.0.dir/__/__/mesh/core/src/nrf_mesh.c.obj
                0x0002a8e4                nrf_mesh_packet_send
 .text.nrf_mesh_evt_handler_add
                0x0002a960        0x4 examples/enocean_switch/CMakeFiles/enocean_switch_nrf52832_xxAA_s132_6.0.0.dir/__/__/mesh/core/src/nrf_mesh.c.obj
                0x0002a960                nrf_mesh_evt_handler_add
 .text.nrf_mesh_on_sd_evt
                0x0002a964        0xa examples/enocean_switch/CMakeFiles/enocean_switch_nrf52832_xxAA_s132_6.0.0.dir/__/__/mesh/core/src/nrf_mesh.c.obj
                0x0002a964                nrf_mesh_on_sd_evt
 *fill*         0x0002a96e        0x2 
 .text.nrf_mesh_rx_cb_set
                0x0002a970        0xc examples/enocean_switch/CMakeFiles/enocean_switch_nrf52832_xxAA_s132_6.0.0.dir/__/__/mesh/core/src/nrf_mesh.c.obj
                0x0002a970                nrf_mesh_rx_cb_set
 .text.nrf_mesh_subnet_added
                0x0002a97c        0x2 examples/enocean_switch/CMakeFiles/enocean_switch_nrf52832_xxAA_s132_6.0.0.dir/__/__/mesh/core/src/nrf_mesh.c.obj
                0x0002a97c                nrf_mesh_subnet_added
 *fill*         0x0002a97e        0x2 
 .text.nrf_mesh_unique_token_get
                0x0002a980       0x18 examples/enocean_switch/CMakeFiles/enocean_switch_nrf52832_xxAA_s132_6.0.0.dir/__/__/mesh/core/src/nrf_mesh.c.obj
                0x0002a980                nrf_mesh_unique_token_get
 .text.queue_init
                0x0002a998       0x14 examples/enocean_switch/CMakeFiles/enocean_switch_nrf52832_xxAA_s132_6.0.0.dir/__/__/mesh/core/src/queue.c.obj
                0x0002a998                queue_init
 .text.queue_push
                0x0002a9ac       0x34 examples/enocean_switch/CMakeFiles/enocean_switch_nrf52832_xxAA_s132_6.0.0.dir/__/__/mesh/core/src/queue.c.obj
                0x0002a9ac                queue_push
 .text.queue_pop
                0x0002a9e0       0x26 examples/enocean_switch/CMakeFiles/enocean_switch_nrf52832_xxAA_s132_6.0.0.dir/__/__/mesh/core/src/queue.c.obj
                0x0002a9e0                queue_pop
 .text.queue_peek
                0x0002aa06       0x10 examples/enocean_switch/CMakeFiles/enocean_switch_nrf52832_xxAA_s132_6.0.0.dir/__/__/mesh/core/src/queue.c.obj
                0x0002aa06                queue_peek
 .text.sd_power_reset_reason_clr
                0x0002aa16        0x4 examples/enocean_switch/CMakeFiles/enocean_switch_nrf52832_xxAA_s132_6.0.0.dir/__/__/mesh/core/src/hal.c.obj
 .text.sd_power_gpregret_set
                0x0002aa1a        0x4 examples/enocean_switch/CMakeFiles/enocean_switch_nrf52832_xxAA_s132_6.0.0.dir/__/__/mesh/core/src/hal.c.obj
 *fill*         0x0002aa1e        0x2 
 .text.hal_device_reset
                0x0002aa20       0x38 examples/enocean_switch/CMakeFiles/enocean_switch_nrf52832_xxAA_s132_6.0.0.dir/__/__/mesh/core/src/hal.c.obj
                0x0002aa20                hal_device_reset
 .text.hal_lfclk_ppm_get
                0x0002aa58       0x14 examples/enocean_switch/CMakeFiles/enocean_switch_nrf52832_xxAA_s132_6.0.0.dir/__/__/mesh/core/src/hal.c.obj
                0x0002aa58                hal_lfclk_ppm_get
 .text.sd_ecb_block_encrypt
                0x0002aa6c        0x4 examples/enocean_switch/CMakeFiles/enocean_switch_nrf52832_xxAA_s132_6.0.0.dir/__/__/mesh/core/src/aes_cmac.c.obj
 .text.utils_xor.constprop.1
                0x0002aa70       0x20 examples/enocean_switch/CMakeFiles/enocean_switch_nrf52832_xxAA_s132_6.0.0.dir/__/__/mesh/core/src/aes_cmac.c.obj
 .text.aes_cmac
                0x0002aa90      0x112 examples/enocean_switch/CMakeFiles/enocean_switch_nrf52832_xxAA_s132_6.0.0.dir/__/__/mesh/core/src/aes_cmac.c.obj
                0x0002aa90                aes_cmac
 *fill*         0x0002aba2        0x2 
 .text.add_to_add_list
                0x0002aba4       0x30 examples/enocean_switch/CMakeFiles/enocean_switch_nrf52832_xxAA_s132_6.0.0.dir/__/__/mesh/core/src/timer_scheduler.c.obj
 .text.process_dirty_events
                0x0002abd4       0x5c examples/enocean_switch/CMakeFiles/enocean_switch_nrf52832_xxAA_s132_6.0.0.dir/__/__/mesh/core/src/timer_scheduler.c.obj
 .text.timer_cb
                0x0002ac30        0xc examples/enocean_switch/CMakeFiles/enocean_switch_nrf52832_xxAA_s132_6.0.0.dir/__/__/mesh/core/src/timer_scheduler.c.obj
 .text.add_evt.constprop.1
                0x0002ac3c       0x58 examples/enocean_switch/CMakeFiles/enocean_switch_nrf52832_xxAA_s132_6.0.0.dir/__/__/mesh/core/src/timer_scheduler.c.obj
 .text.process_add_list
                0x0002ac94       0x3c examples/enocean_switch/CMakeFiles/enocean_switch_nrf52832_xxAA_s132_6.0.0.dir/__/__/mesh/core/src/timer_scheduler.c.obj
 .text.flag_event_cb
                0x0002acd0       0xd8 examples/enocean_switch/CMakeFiles/enocean_switch_nrf52832_xxAA_s132_6.0.0.dir/__/__/mesh/core/src/timer_scheduler.c.obj
 .text.timer_sch_init
                0x0002ada8       0x24 examples/enocean_switch/CMakeFiles/enocean_switch_nrf52832_xxAA_s132_6.0.0.dir/__/__/mesh/core/src/timer_scheduler.c.obj
                0x0002ada8                timer_sch_init
 .text.timer_sch_schedule
                0x0002adcc       0x3c examples/enocean_switch/CMakeFiles/enocean_switch_nrf52832_xxAA_s132_6.0.0.dir/__/__/mesh/core/src/timer_scheduler.c.obj
                0x0002adcc                timer_sch_schedule
 .text.timer_sch_abort
                0x0002ae08       0x58 examples/enocean_switch/CMakeFiles/enocean_switch_nrf52832_xxAA_s132_6.0.0.dir/__/__/mesh/core/src/timer_scheduler.c.obj
                0x0002ae08                timer_sch_abort
 .text.timer_sch_reschedule
                0x0002ae60       0x64 examples/enocean_switch/CMakeFiles/enocean_switch_nrf52832_xxAA_s132_6.0.0.dir/__/__/mesh/core/src/timer_scheduler.c.obj
                0x0002ae60                timer_sch_reschedule
 .text.timer_mut_unlock
                0x0002aec4       0x10 examples/enocean_switch/CMakeFiles/enocean_switch_nrf52832_xxAA_s132_6.0.0.dir/__/__/mesh/core/src/timer.c.obj
 .text.timer_order_cb
                0x0002aed4       0x94 examples/enocean_switch/CMakeFiles/enocean_switch_nrf52832_xxAA_s132_6.0.0.dir/__/__/mesh/core/src/timer.c.obj
                0x0002aed4                timer_order_cb
 .text.timer_now
                0x0002af68       0x48 examples/enocean_switch/CMakeFiles/enocean_switch_nrf52832_xxAA_s132_6.0.0.dir/__/__/mesh/core/src/timer.c.obj
                0x0002af68                timer_now
 .text.timer_event_handler
                0x0002afb0       0x84 examples/enocean_switch/CMakeFiles/enocean_switch_nrf52832_xxAA_s132_6.0.0.dir/__/__/mesh/core/src/timer.c.obj
                0x0002afb0                timer_event_handler
 .text.timer_on_ts_begin
                0x0002b034       0xf4 examples/enocean_switch/CMakeFiles/enocean_switch_nrf52832_xxAA_s132_6.0.0.dir/__/__/mesh/core/src/timer.c.obj
                0x0002b034                timer_on_ts_begin
 .text.timer_on_ts_end
                0x0002b128       0x60 examples/enocean_switch/CMakeFiles/enocean_switch_nrf52832_xxAA_s132_6.0.0.dir/__/__/mesh/core/src/timer.c.obj
                0x0002b128                timer_on_ts_end
 .text.timer_cb
                0x0002b188       0x10 examples/enocean_switch/CMakeFiles/enocean_switch_nrf52832_xxAA_s132_6.0.0.dir/__/__/mesh/core/src/ticker.c.obj
 .text.ticker_init
                0x0002b198       0x3c examples/enocean_switch/CMakeFiles/enocean_switch_nrf52832_xxAA_s132_6.0.0.dir/__/__/mesh/core/src/ticker.c.obj
                0x0002b198                ticker_init
 .text.sd_rand_application_bytes_available_get
                0x0002b1d4        0x4 examples/enocean_switch/CMakeFiles/enocean_switch_nrf52832_xxAA_s132_6.0.0.dir/__/__/mesh/core/src/rand.c.obj
 .text.sd_rand_application_vector_get
                0x0002b1d8        0x4 examples/enocean_switch/CMakeFiles/enocean_switch_nrf52832_xxAA_s132_6.0.0.dir/__/__/mesh/core/src/rand.c.obj
 .text.rand_prng_get
                0x0002b1dc       0x22 examples/enocean_switch/CMakeFiles/enocean_switch_nrf52832_xxAA_s132_6.0.0.dir/__/__/mesh/core/src/rand.c.obj
                0x0002b1dc                rand_prng_get
 .text.rand_hw_rng_get
                0x0002b1fe       0x44 examples/enocean_switch/CMakeFiles/enocean_switch_nrf52832_xxAA_s132_6.0.0.dir/__/__/mesh/core/src/rand.c.obj
                0x0002b1fe                rand_hw_rng_get
 *fill*         0x0002b242        0x2 
 .text.rand_prng_seed
                0x0002b244       0x34 examples/enocean_switch/CMakeFiles/enocean_switch_nrf52832_xxAA_s132_6.0.0.dir/__/__/mesh/core/src/rand.c.obj
                0x0002b244                rand_prng_seed
 .text.nrf_mesh_opt_set
                0x0002b278       0x26 examples/enocean_switch/CMakeFiles/enocean_switch_nrf52832_xxAA_s132_6.0.0.dir/__/__/mesh/core/src/nrf_mesh_opt.c.obj
                0x0002b278                nrf_mesh_opt_set
 .text.nrf_mesh_opt_get
                0x0002b29e       0x26 examples/enocean_switch/CMakeFiles/enocean_switch_nrf52832_xxAA_s132_6.0.0.dir/__/__/mesh/core/src/nrf_mesh_opt.c.obj
                0x0002b29e                nrf_mesh_opt_get
 .text.sd_radio_session_open
                0x0002b2c4        0x4 examples/enocean_switch/CMakeFiles/enocean_switch_nrf52832_xxAA_s132_6.0.0.dir/__/__/mesh/core/src/timeslot.c.obj
 .text.sd_radio_session_close
                0x0002b2c8        0x4 examples/enocean_switch/CMakeFiles/enocean_switch_nrf52832_xxAA_s132_6.0.0.dir/__/__/mesh/core/src/timeslot.c.obj
 .text.sd_radio_request
                0x0002b2cc        0x4 examples/enocean_switch/CMakeFiles/enocean_switch_nrf52832_xxAA_s132_6.0.0.dir/__/__/mesh/core/src/timeslot.c.obj
 .text.end_timer_handler
                0x0002b2d0       0x24 examples/enocean_switch/CMakeFiles/enocean_switch_nrf52832_xxAA_s132_6.0.0.dir/__/__/mesh/core/src/timeslot.c.obj
 .text.get_end_time.constprop.10
                0x0002b2f4       0x28 examples/enocean_switch/CMakeFiles/enocean_switch_nrf52832_xxAA_s132_6.0.0.dir/__/__/mesh/core/src/timeslot.c.obj
 .text.handle_extend_end.constprop.3
                0x0002b31c       0xb4 examples/enocean_switch/CMakeFiles/enocean_switch_nrf52832_xxAA_s132_6.0.0.dir/__/__/mesh/core/src/timeslot.c.obj
 .text.radio_signal_callback
                0x0002b3d0      0x138 examples/enocean_switch/CMakeFiles/enocean_switch_nrf52832_xxAA_s132_6.0.0.dir/__/__/mesh/core/src/timeslot.c.obj
 .text.timeslot_sd_event_handler
                0x0002b508       0x38 examples/enocean_switch/CMakeFiles/enocean_switch_nrf52832_xxAA_s132_6.0.0.dir/__/__/mesh/core/src/timeslot.c.obj
                0x0002b508                timeslot_sd_event_handler
 .text.timeslot_init
                0x0002b540       0x48 examples/enocean_switch/CMakeFiles/enocean_switch_nrf52832_xxAA_s132_6.0.0.dir/__/__/mesh/core/src/timeslot.c.obj
                0x0002b540                timeslot_init
 .text.timeslot_start
                0x0002b588       0x20 examples/enocean_switch/CMakeFiles/enocean_switch_nrf52832_xxAA_s132_6.0.0.dir/__/__/mesh/core/src/timeslot.c.obj
                0x0002b588                timeslot_start
 .text.timeslot_end_is_pending
                0x0002b5a8       0x24 examples/enocean_switch/CMakeFiles/enocean_switch_nrf52832_xxAA_s132_6.0.0.dir/__/__/mesh/core/src/timeslot.c.obj
                0x0002b5a8                timeslot_end_is_pending
 .text.timeslot_start_time_get
                0x0002b5cc        0xc examples/enocean_switch/CMakeFiles/enocean_switch_nrf52832_xxAA_s132_6.0.0.dir/__/__/mesh/core/src/timeslot.c.obj
                0x0002b5cc                timeslot_start_time_get
 .text.timeslot_remaining_time_get
                0x0002b5d8       0x20 examples/enocean_switch/CMakeFiles/enocean_switch_nrf52832_xxAA_s132_6.0.0.dir/__/__/mesh/core/src/timeslot.c.obj
                0x0002b5d8                timeslot_remaining_time_get
 .text.timeslot_is_in_cb
                0x0002b5f8        0xc examples/enocean_switch/CMakeFiles/enocean_switch_nrf52832_xxAA_s132_6.0.0.dir/__/__/mesh/core/src/timeslot.c.obj
                0x0002b5f8                timeslot_is_in_cb
 .text.timeslot_trigger
                0x0002b604       0x24 examples/enocean_switch/CMakeFiles/enocean_switch_nrf52832_xxAA_s132_6.0.0.dir/__/__/mesh/core/src/timeslot.c.obj
                0x0002b604                timeslot_trigger
 .text.timeslot_stop
                0x0002b628       0x10 examples/enocean_switch/CMakeFiles/enocean_switch_nrf52832_xxAA_s132_6.0.0.dir/__/__/mesh/core/src/timeslot.c.obj
                0x0002b628                timeslot_stop
 .text.timeslot_state_lock
                0x0002b638       0x28 examples/enocean_switch/CMakeFiles/enocean_switch_nrf52832_xxAA_s132_6.0.0.dir/__/__/mesh/core/src/timeslot.c.obj
                0x0002b638                timeslot_state_lock
 .text.trigger_event_handler
                0x0002b660       0x1c examples/enocean_switch/CMakeFiles/enocean_switch_nrf52832_xxAA_s132_6.0.0.dir/__/__/mesh/core/src/bearer_event.c.obj
 .text.evt_push
                0x0002b67c       0x1c examples/enocean_switch/CMakeFiles/enocean_switch_nrf52832_xxAA_s132_6.0.0.dir/__/__/mesh/core/src/bearer_event.c.obj
 .text.bearer_event_init
                0x0002b698       0x48 examples/enocean_switch/CMakeFiles/enocean_switch_nrf52832_xxAA_s132_6.0.0.dir/__/__/mesh/core/src/bearer_event.c.obj
                0x0002b698                bearer_event_init
 .text.bearer_event_timer_post
                0x0002b6e0       0x24 examples/enocean_switch/CMakeFiles/enocean_switch_nrf52832_xxAA_s132_6.0.0.dir/__/__/mesh/core/src/bearer_event.c.obj
                0x0002b6e0                bearer_event_timer_post
 .text.bearer_event_critical_section_begin
                0x0002b704       0x44 examples/enocean_switch/CMakeFiles/enocean_switch_nrf52832_xxAA_s132_6.0.0.dir/__/__/mesh/core/src/bearer_event.c.obj
                0x0002b704                bearer_event_critical_section_begin
 .text.bearer_event_critical_section_end
                0x0002b748       0x40 examples/enocean_switch/CMakeFiles/enocean_switch_nrf52832_xxAA_s132_6.0.0.dir/__/__/mesh/core/src/bearer_event.c.obj
                0x0002b748                bearer_event_critical_section_end
 .text.bearer_event_flag_add
                0x0002b788       0x3c examples/enocean_switch/CMakeFiles/enocean_switch_nrf52832_xxAA_s132_6.0.0.dir/__/__/mesh/core/src/bearer_event.c.obj
                0x0002b788                bearer_event_flag_add
 .text.bearer_event_flag_set
                0x0002b7c4       0x44 examples/enocean_switch/CMakeFiles/enocean_switch_nrf52832_xxAA_s132_6.0.0.dir/__/__/mesh/core/src/bearer_event.c.obj
                0x0002b7c4                bearer_event_flag_set
 .text.bearer_event_sequential_add
                0x0002b808       0x2e examples/enocean_switch/CMakeFiles/enocean_switch_nrf52832_xxAA_s132_6.0.0.dir/__/__/mesh/core/src/bearer_event.c.obj
                0x0002b808                bearer_event_sequential_add
 *fill*         0x0002b836        0x2 
 .text.bearer_event_sequential_post
                0x0002b838       0x44 examples/enocean_switch/CMakeFiles/enocean_switch_nrf52832_xxAA_s132_6.0.0.dir/__/__/mesh/core/src/bearer_event.c.obj
                0x0002b838                bearer_event_sequential_post
 .text.bearer_event_sequential_pending
                0x0002b87c       0x10 examples/enocean_switch/CMakeFiles/enocean_switch_nrf52832_xxAA_s132_6.0.0.dir/__/__/mesh/core/src/bearer_event.c.obj
                0x0002b87c                bearer_event_sequential_pending
 .text.bearer_event_handler
                0x0002b88c       0xe8 examples/enocean_switch/CMakeFiles/enocean_switch_nrf52832_xxAA_s132_6.0.0.dir/__/__/mesh/core/src/bearer_event.c.obj
                0x0002b88c                bearer_event_handler
 .text.QDEC_IRQHandler
                0x0002b974        0x4 examples/enocean_switch/CMakeFiles/enocean_switch_nrf52832_xxAA_s132_6.0.0.dir/__/__/mesh/core/src/bearer_event.c.obj
                0x0002b974                QDEC_IRQHandler
 .text.sd_ecb_block_encrypt
                0x0002b978        0x4 examples/enocean_switch/CMakeFiles/enocean_switch_nrf52832_xxAA_s132_6.0.0.dir/__/__/mesh/core/src/enc.c.obj
 .text.enc_aes_encrypt
                0x0002b97c       0x32 examples/enocean_switch/CMakeFiles/enocean_switch_nrf52832_xxAA_s132_6.0.0.dir/__/__/mesh/core/src/enc.c.obj
                0x0002b97c                enc_aes_encrypt
 .text.enc_aes_cmac
                0x0002b9ae        0x4 examples/enocean_switch/CMakeFiles/enocean_switch_nrf52832_xxAA_s132_6.0.0.dir/__/__/mesh/core/src/enc.c.obj
                0x0002b9ae                enc_aes_cmac
 .text.enc_aes_ccm_encrypt
                0x0002b9b2        0x4 examples/enocean_switch/CMakeFiles/enocean_switch_nrf52832_xxAA_s132_6.0.0.dir/__/__/mesh/core/src/enc.c.obj
                0x0002b9b2                enc_aes_ccm_encrypt
 .text.enc_aes_ccm_decrypt
                0x0002b9b6        0x4 examples/enocean_switch/CMakeFiles/enocean_switch_nrf52832_xxAA_s132_6.0.0.dir/__/__/mesh/core/src/enc.c.obj
                0x0002b9b6                enc_aes_ccm_decrypt
 .text.enc_nonce_generate
                0x0002b9ba       0xbc examples/enocean_switch/CMakeFiles/enocean_switch_nrf52832_xxAA_s132_6.0.0.dir/__/__/mesh/core/src/enc.c.obj
                0x0002b9ba                enc_nonce_generate
 .text.enc_s1   0x0002ba76       0x2c examples/enocean_switch/CMakeFiles/enocean_switch_nrf52832_xxAA_s132_6.0.0.dir/__/__/mesh/core/src/enc.c.obj
                0x0002ba76                enc_s1
 .text.enc_k1   0x0002baa2       0x3c examples/enocean_switch/CMakeFiles/enocean_switch_nrf52832_xxAA_s132_6.0.0.dir/__/__/mesh/core/src/enc.c.obj
                0x0002baa2                enc_k1
 *fill*         0x0002bade        0x2 
 .text.enc_k2   0x0002bae0       0xc8 examples/enocean_switch/CMakeFiles/enocean_switch_nrf52832_xxAA_s132_6.0.0.dir/__/__/mesh/core/src/enc.c.obj
                0x0002bae0                enc_k2
 .text.enc_k3   0x0002bba8       0x5c examples/enocean_switch/CMakeFiles/enocean_switch_nrf52832_xxAA_s132_6.0.0.dir/__/__/mesh/core/src/enc.c.obj
                0x0002bba8                enc_k3
 .text.enc_k4   0x0002bc04       0x54 examples/enocean_switch/CMakeFiles/enocean_switch_nrf52832_xxAA_s132_6.0.0.dir/__/__/mesh/core/src/enc.c.obj
                0x0002bc04                enc_k4
 .text.allocate_packet
                0x0002bc58       0x6a examples/enocean_switch/CMakeFiles/enocean_switch_nrf52832_xxAA_s132_6.0.0.dir/__/__/mesh/core/src/network.c.obj
 *fill*         0x0002bcc2        0x2 
 .text.network_init
                0x0002bcc4       0x2c examples/enocean_switch/CMakeFiles/enocean_switch_nrf52832_xxAA_s132_6.0.0.dir/__/__/mesh/core/src/network.c.obj
                0x0002bcc4                network_init
 .text.network_opt_set
                0x0002bcf0       0x84 examples/enocean_switch/CMakeFiles/enocean_switch_nrf52832_xxAA_s132_6.0.0.dir/__/__/mesh/core/src/network.c.obj
                0x0002bcf0                network_opt_set
 .text.network_opt_get
                0x0002bd74       0x4c examples/enocean_switch/CMakeFiles/enocean_switch_nrf52832_xxAA_s132_6.0.0.dir/__/__/mesh/core/src/network.c.obj
                0x0002bd74                network_opt_get
 .text.network_packet_alloc
                0x0002bdc0       0x30 examples/enocean_switch/CMakeFiles/enocean_switch_nrf52832_xxAA_s132_6.0.0.dir/__/__/mesh/core/src/network.c.obj
                0x0002bdc0                network_packet_alloc
 .text.network_packet_send
                0x0002bdf0       0x46 examples/enocean_switch/CMakeFiles/enocean_switch_nrf52832_xxAA_s132_6.0.0.dir/__/__/mesh/core/src/network.c.obj
                0x0002bdf0                network_packet_send
 *fill*         0x0002be36        0x2 
 .text.network_packet_in
                0x0002be38      0x168 examples/enocean_switch/CMakeFiles/enocean_switch_nrf52832_xxAA_s132_6.0.0.dir/__/__/mesh/core/src/network.c.obj
                0x0002be38                network_packet_in
 .text.nonce_type_get
                0x0002bfa0       0x16 examples/enocean_switch/CMakeFiles/enocean_switch_nrf52832_xxAA_s132_6.0.0.dir/__/__/mesh/core/src/net_packet.c.obj
 .text.header_transfuscate
                0x0002bfb6       0x54 examples/enocean_switch/CMakeFiles/enocean_switch_nrf52832_xxAA_s132_6.0.0.dir/__/__/mesh/core/src/net_packet.c.obj
 *fill*         0x0002c00a        0x2 
 .text.net_packet_decrypt
                0x0002c00c      0x224 examples/enocean_switch/CMakeFiles/enocean_switch_nrf52832_xxAA_s132_6.0.0.dir/__/__/mesh/core/src/net_packet.c.obj
                0x0002c00c                net_packet_decrypt
 .text.net_packet_encrypt
                0x0002c230       0x7e examples/enocean_switch/CMakeFiles/enocean_switch_nrf52832_xxAA_s132_6.0.0.dir/__/__/mesh/core/src/net_packet.c.obj
                0x0002c230                net_packet_encrypt
 .text.net_packet_header_set
                0x0002c2ae       0xaa examples/enocean_switch/CMakeFiles/enocean_switch_nrf52832_xxAA_s132_6.0.0.dir/__/__/mesh/core/src/net_packet.c.obj
                0x0002c2ae                net_packet_header_set
 .text.net_packet_payload_len_get
                0x0002c358       0x10 examples/enocean_switch/CMakeFiles/enocean_switch_nrf52832_xxAA_s132_6.0.0.dir/__/__/mesh/core/src/net_packet.c.obj
                0x0002c358                net_packet_payload_len_get
 .text.net_packet_from_payload
                0x0002c368        0x4 examples/enocean_switch/CMakeFiles/enocean_switch_nrf52832_xxAA_s132_6.0.0.dir/__/__/mesh/core/src/net_packet.c.obj
                0x0002c368                net_packet_from_payload
 .text.net_packet_obfuscation_start_get
                0x0002c36c        0x4 examples/enocean_switch/CMakeFiles/enocean_switch_nrf52832_xxAA_s132_6.0.0.dir/__/__/mesh/core/src/net_packet.c.obj
                0x0002c36c                net_packet_obfuscation_start_get
 .text.stage_get_available
                0x0002c370       0x24 examples/enocean_switch/CMakeFiles/enocean_switch_nrf52832_xxAA_s132_6.0.0.dir/__/__/mesh/core/src/msqueue.c.obj
 .text.msq_get  0x0002c394       0x38 examples/enocean_switch/CMakeFiles/enocean_switch_nrf52832_xxAA_s132_6.0.0.dir/__/__/mesh/core/src/msqueue.c.obj
                0x0002c394                msq_get
 .text.msq_move
                0x0002c3cc       0x2e examples/enocean_switch/CMakeFiles/enocean_switch_nrf52832_xxAA_s132_6.0.0.dir/__/__/mesh/core/src/msqueue.c.obj
                0x0002c3cc                msq_move
 .text.msq_reset
                0x0002c3fa       0x20 examples/enocean_switch/CMakeFiles/enocean_switch_nrf52832_xxAA_s132_6.0.0.dir/__/__/mesh/core/src/msqueue.c.obj
                0x0002c3fa                msq_reset
 .text.msq_init
                0x0002c41a       0x4a examples/enocean_switch/CMakeFiles/enocean_switch_nrf52832_xxAA_s132_6.0.0.dir/__/__/mesh/core/src/msqueue.c.obj
                0x0002c41a                msq_init
 .text.msq_available
                0x0002c464       0x26 examples/enocean_switch/CMakeFiles/enocean_switch_nrf52832_xxAA_s132_6.0.0.dir/__/__/mesh/core/src/msqueue.c.obj
                0x0002c464                msq_available
 .text.nrf_mesh_keygen_aid
                0x0002c48a       0x12 examples/enocean_switch/CMakeFiles/enocean_switch_nrf52832_xxAA_s132_6.0.0.dir/__/__/mesh/core/src/nrf_mesh_keygen.c.obj
                0x0002c48a                nrf_mesh_keygen_aid
 .text.nrf_mesh_keygen_network_secmat
                0x0002c49c       0x20 examples/enocean_switch/CMakeFiles/enocean_switch_nrf52832_xxAA_s132_6.0.0.dir/__/__/mesh/core/src/nrf_mesh_keygen.c.obj
                0x0002c49c                nrf_mesh_keygen_network_secmat
 .text.nrf_mesh_keygen_beacon_secmat
                0x0002c4bc       0x50 examples/enocean_switch/CMakeFiles/enocean_switch_nrf52832_xxAA_s132_6.0.0.dir/__/__/mesh/core/src/nrf_mesh_keygen.c.obj
                0x0002c4bc                nrf_mesh_keygen_beacon_secmat
 .text.nrf_mesh_keygen_virtual_address
                0x0002c50c       0x50 examples/enocean_switch/CMakeFiles/enocean_switch_nrf52832_xxAA_s132_6.0.0.dir/__/__/mesh/core/src/nrf_mesh_keygen.c.obj
                0x0002c50c                nrf_mesh_keygen_virtual_address
 .text.list_insert
                0x0002c55c       0x1c examples/enocean_switch/CMakeFiles/enocean_switch_nrf52832_xxAA_s132_6.0.0.dir/__/__/mesh/core/src/list.c.obj
 .text.list_add
                0x0002c578       0x42 examples/enocean_switch/CMakeFiles/enocean_switch_nrf52832_xxAA_s132_6.0.0.dir/__/__/mesh/core/src/list.c.obj
                0x0002c578                list_add
 .text.list_remove
                0x0002c5ba       0x3a examples/enocean_switch/CMakeFiles/enocean_switch_nrf52832_xxAA_s132_6.0.0.dir/__/__/mesh/core/src/list.c.obj
                0x0002c5ba                list_remove
 .text.list_compare_add
                0x0002c5f4       0x56 examples/enocean_switch/CMakeFiles/enocean_switch_nrf52832_xxAA_s132_6.0.0.dir/__/__/mesh/core/src/list.c.obj
                0x0002c5f4                list_compare_add
 *fill*         0x0002c64a        0x2 
 .text.log_callback_rtt
                0x0002c64c       0x2c examples/enocean_switch/CMakeFiles/enocean_switch_nrf52832_xxAA_s132_6.0.0.dir/__/__/mesh/core/src/log.c.obj
                0x0002c64c                log_callback_rtt
 .text.log_init
                0x0002c678       0x1c examples/enocean_switch/CMakeFiles/enocean_switch_nrf52832_xxAA_s132_6.0.0.dir/__/__/mesh/core/src/log.c.obj
                0x0002c678                log_init
 .text.log_vprintf
                0x0002c694       0x18 examples/enocean_switch/CMakeFiles/enocean_switch_nrf52832_xxAA_s132_6.0.0.dir/__/__/mesh/core/src/log.c.obj
                0x0002c694                log_vprintf
 .text.log_printf
                0x0002c6ac       0x18 examples/enocean_switch/CMakeFiles/enocean_switch_nrf52832_xxAA_s132_6.0.0.dir/__/__/mesh/core/src/log.c.obj
                0x0002c6ac                log_printf
 .text.get_area_end
                0x0002c6c4        0xc examples/enocean_switch/CMakeFiles/enocean_switch_nrf52832_xxAA_s132_6.0.0.dir/__/__/mesh/core/src/flash_manager.c.obj
 .text.handle_matches_filter
                0x0002c6d0       0x26 examples/enocean_switch/CMakeFiles/enocean_switch_nrf52832_xxAA_s132_6.0.0.dir/__/__/mesh/core/src/flash_manager.c.obj
 .text.flash_area_is_blank
                0x0002c6f6       0x34 examples/enocean_switch/CMakeFiles/enocean_switch_nrf52832_xxAA_s132_6.0.0.dir/__/__/mesh/core/src/flash_manager.c.obj
 *fill*         0x0002c72a        0x2 
 .text.get_packet_buffer
                0x0002c72c       0x20 examples/enocean_switch/CMakeFiles/enocean_switch_nrf52832_xxAA_s132_6.0.0.dir/__/__/mesh/core/src/flash_manager.c.obj
 .text.flash    0x0002c74c       0x1c examples/enocean_switch/CMakeFiles/enocean_switch_nrf52832_xxAA_s132_6.0.0.dir/__/__/mesh/core/src/flash_manager.c.obj
 .text.free_packet_buffer
                0x0002c768       0x3c examples/enocean_switch/CMakeFiles/enocean_switch_nrf52832_xxAA_s132_6.0.0.dir/__/__/mesh/core/src/flash_manager.c.obj
 .text.reserve_action_buffer
                0x0002c7a4       0x24 examples/enocean_switch/CMakeFiles/enocean_switch_nrf52832_xxAA_s132_6.0.0.dir/__/__/mesh/core/src/flash_manager.c.obj
 .text.commit_action_buffer
                0x0002c7c8       0x18 examples/enocean_switch/CMakeFiles/enocean_switch_nrf52832_xxAA_s132_6.0.0.dir/__/__/mesh/core/src/flash_manager.c.obj
 .text.schedule_processing
                0x0002c7e0        0xc examples/enocean_switch/CMakeFiles/enocean_switch_nrf52832_xxAA_s132_6.0.0.dir/__/__/mesh/core/src/flash_manager.c.obj
 .text.get_next_entry
                0x0002c7ec       0x34 examples/enocean_switch/CMakeFiles/enocean_switch_nrf52832_xxAA_s132_6.0.0.dir/__/__/mesh/core/src/flash_manager.c.obj
 .text.get_last_entry.isra.1
                0x0002c820       0x30 examples/enocean_switch/CMakeFiles/enocean_switch_nrf52832_xxAA_s132_6.0.0.dir/__/__/mesh/core/src/flash_manager.c.obj
 .text.process_action_queue
                0x0002c850      0x3b0 examples/enocean_switch/CMakeFiles/enocean_switch_nrf52832_xxAA_s132_6.0.0.dir/__/__/mesh/core/src/flash_manager.c.obj
 .text.flash_op_ended_callback
                0x0002cc00       0x24 examples/enocean_switch/CMakeFiles/enocean_switch_nrf52832_xxAA_s132_6.0.0.dir/__/__/mesh/core/src/flash_manager.c.obj
 .text.flash_manager_init
                0x0002cc24       0x68 examples/enocean_switch/CMakeFiles/enocean_switch_nrf52832_xxAA_s132_6.0.0.dir/__/__/mesh/core/src/flash_manager.c.obj
                0x0002cc24                flash_manager_init
 .text.flash_manager_remove
                0x0002cc8c       0x24 examples/enocean_switch/CMakeFiles/enocean_switch_nrf52832_xxAA_s132_6.0.0.dir/__/__/mesh/core/src/flash_manager.c.obj
                0x0002cc8c                flash_manager_remove
 .text.flash_manager_entry_get
                0x0002ccb0       0x3c examples/enocean_switch/CMakeFiles/enocean_switch_nrf52832_xxAA_s132_6.0.0.dir/__/__/mesh/core/src/flash_manager.c.obj
                0x0002ccb0                flash_manager_entry_get
 .text.flash_manager_entry_next_get
                0x0002ccec       0x60 examples/enocean_switch/CMakeFiles/enocean_switch_nrf52832_xxAA_s132_6.0.0.dir/__/__/mesh/core/src/flash_manager.c.obj
                0x0002ccec                flash_manager_entry_next_get
 .text.flash_manager_entry_alloc
                0x0002cd4c       0x5c examples/enocean_switch/CMakeFiles/enocean_switch_nrf52832_xxAA_s132_6.0.0.dir/__/__/mesh/core/src/flash_manager.c.obj
                0x0002cd4c                flash_manager_entry_alloc
 .text.flash_manager_entry_commit
                0x0002cda8       0x2c examples/enocean_switch/CMakeFiles/enocean_switch_nrf52832_xxAA_s132_6.0.0.dir/__/__/mesh/core/src/flash_manager.c.obj
                0x0002cda8                flash_manager_entry_commit
 .text.flash_manager_entry_invalidate
                0x0002cdd4       0x4e examples/enocean_switch/CMakeFiles/enocean_switch_nrf52832_xxAA_s132_6.0.0.dir/__/__/mesh/core/src/flash_manager.c.obj
                0x0002cdd4                flash_manager_entry_invalidate
 .text.flash_manager_add
                0x0002ce22      0x1f6 examples/enocean_switch/CMakeFiles/enocean_switch_nrf52832_xxAA_s132_6.0.0.dir/__/__/mesh/core/src/flash_manager.c.obj
                0x0002ce22                flash_manager_add
 .text.flash_manager_mem_listener_register
                0x0002d018       0x30 examples/enocean_switch/CMakeFiles/enocean_switch_nrf52832_xxAA_s132_6.0.0.dir/__/__/mesh/core/src/flash_manager.c.obj
                0x0002d018                flash_manager_mem_listener_register
 .text.flash_manager_is_stable
                0x0002d048       0x24 examples/enocean_switch/CMakeFiles/enocean_switch_nrf52832_xxAA_s132_6.0.0.dir/__/__/mesh/core/src/flash_manager.c.obj
                0x0002d048                flash_manager_is_stable
 .text.flash_manager_on_defrag_end
                0x0002d06c       0x4c examples/enocean_switch/CMakeFiles/enocean_switch_nrf52832_xxAA_s132_6.0.0.dir/__/__/mesh/core/src/flash_manager.c.obj
                0x0002d06c                flash_manager_on_defrag_end
 .text.flash_manager_recovery_page_get
                0x0002d0b8        0x4 examples/enocean_switch/CMakeFiles/enocean_switch_nrf52832_xxAA_s132_6.0.0.dir/__/__/mesh/core/src/flash_manager.c.obj
                0x0002d0b8                flash_manager_recovery_page_get
 .text.flash_manager_action_queue_empty_cb_set
                0x0002d0bc       0x1c examples/enocean_switch/CMakeFiles/enocean_switch_nrf52832_xxAA_s132_6.0.0.dir/__/__/mesh/core/src/flash_manager.c.obj
                0x0002d0bc                flash_manager_action_queue_empty_cb_set
 .text.utils_xor
                0x0002d0d8       0x14 examples/enocean_switch/CMakeFiles/enocean_switch_nrf52832_xxAA_s132_6.0.0.dir/__/__/mesh/core/src/ccm_soft.c.obj
 .text.sd_ecb_block_encrypt
                0x0002d0ec        0x4 examples/enocean_switch/CMakeFiles/enocean_switch_nrf52832_xxAA_s132_6.0.0.dir/__/__/mesh/core/src/ccm_soft.c.obj
 .text.ccm_soft_crypt
                0x0002d0f0       0x4c examples/enocean_switch/CMakeFiles/enocean_switch_nrf52832_xxAA_s132_6.0.0.dir/__/__/mesh/core/src/ccm_soft.c.obj
 .text.ccm_soft_authenticate_blocks
                0x0002d13c       0x6c examples/enocean_switch/CMakeFiles/enocean_switch_nrf52832_xxAA_s132_6.0.0.dir/__/__/mesh/core/src/ccm_soft.c.obj
 .text.ccm_soft_authenticate
                0x0002d1a8       0x94 examples/enocean_switch/CMakeFiles/enocean_switch_nrf52832_xxAA_s132_6.0.0.dir/__/__/mesh/core/src/ccm_soft.c.obj
 .text.ccm_soft_encrypt
                0x0002d23c       0x54 examples/enocean_switch/CMakeFiles/enocean_switch_nrf52832_xxAA_s132_6.0.0.dir/__/__/mesh/core/src/ccm_soft.c.obj
                0x0002d23c                ccm_soft_encrypt
 .text.ccm_soft_decrypt
                0x0002d290       0x98 examples/enocean_switch/CMakeFiles/enocean_switch_nrf52832_xxAA_s132_6.0.0.dir/__/__/mesh/core/src/ccm_soft.c.obj
                0x0002d290                ccm_soft_decrypt
 .text.replay_cache_add
                0x0002d328       0x50 examples/enocean_switch/CMakeFiles/enocean_switch_nrf52832_xxAA_s132_6.0.0.dir/__/__/mesh/core/src/replay_cache.c.obj
                0x0002d328                replay_cache_add
 .text.replay_cache_has_elem
                0x0002d378       0x38 examples/enocean_switch/CMakeFiles/enocean_switch_nrf52832_xxAA_s132_6.0.0.dir/__/__/mesh/core/src/replay_cache.c.obj
                0x0002d378                replay_cache_has_elem
 .text.replay_cache_clear
                0x0002d3b0       0x20 examples/enocean_switch/CMakeFiles/enocean_switch_nrf52832_xxAA_s132_6.0.0.dir/__/__/mesh/core/src/replay_cache.c.obj
                0x0002d3b0                replay_cache_clear
 .text.replay_cache_init
                0x0002d3d0        0x4 examples/enocean_switch/CMakeFiles/enocean_switch_nrf52832_xxAA_s132_6.0.0.dir/__/__/mesh/core/src/replay_cache.c.obj
                0x0002d3d0                replay_cache_init
 .text.beacon_create
                0x0002d3d4       0x46 examples/enocean_switch/CMakeFiles/enocean_switch_nrf52832_xxAA_s132_6.0.0.dir/__/__/mesh/core/src/beacon.c.obj
                0x0002d3d4                beacon_create
 *fill*         0x0002d41a        0x2 
 .text.beacon_packet_in
                0x0002d41c      0x154 examples/enocean_switch/CMakeFiles/enocean_switch_nrf52832_xxAA_s132_6.0.0.dir/__/__/mesh/core/src/beacon.c.obj
                0x0002d41c                beacon_packet_in
 .text.entry_get
                0x0002d570       0x78 examples/enocean_switch/CMakeFiles/enocean_switch_nrf52832_xxAA_s132_6.0.0.dir/__/__/mesh/core/src/flash_manager_internal.c.obj
                0x0002d570                entry_get
 .text.core_tx_complete_cb_set
                0x0002d5e8        0xc examples/enocean_switch/CMakeFiles/enocean_switch_nrf52832_xxAA_s132_6.0.0.dir/__/__/mesh/core/src/core_tx.c.obj
                0x0002d5e8                core_tx_complete_cb_set
 .text.core_tx_packet_alloc
                0x0002d5f4       0x98 examples/enocean_switch/CMakeFiles/enocean_switch_nrf52832_xxAA_s132_6.0.0.dir/__/__/mesh/core/src/core_tx.c.obj
                0x0002d5f4                core_tx_packet_alloc
 .text.core_tx_packet_send
                0x0002d68c       0x4c examples/enocean_switch/CMakeFiles/enocean_switch_nrf52832_xxAA_s132_6.0.0.dir/__/__/mesh/core/src/core_tx.c.obj
                0x0002d68c                core_tx_packet_send
 .text.core_tx_packet_discard
                0x0002d6d8       0x40 examples/enocean_switch/CMakeFiles/enocean_switch_nrf52832_xxAA_s132_6.0.0.dir/__/__/mesh/core/src/core_tx.c.obj
                0x0002d6d8                core_tx_packet_discard
 .text.core_tx_complete
                0x0002d718       0x34 examples/enocean_switch/CMakeFiles/enocean_switch_nrf52832_xxAA_s132_6.0.0.dir/__/__/mesh/core/src/core_tx.c.obj
                0x0002d718                core_tx_complete
 .text.core_tx_bearer_add
                0x0002d74c       0x70 examples/enocean_switch/CMakeFiles/enocean_switch_nrf52832_xxAA_s132_6.0.0.dir/__/__/mesh/core/src/core_tx.c.obj
                0x0002d74c                core_tx_bearer_add
 .text.heartbeat_subscription_timer_cb
                0x0002d7bc       0x1c examples/enocean_switch/CMakeFiles/enocean_switch_nrf52832_xxAA_s132_6.0.0.dir/__/__/mesh/core/src/heartbeat.c.obj
 .text.heartbeat_opcode_handle
                0x0002d7d8       0x88 examples/enocean_switch/CMakeFiles/enocean_switch_nrf52832_xxAA_s132_6.0.0.dir/__/__/mesh/core/src/heartbeat.c.obj
 .text.heartbeat_send
                0x0002d860       0xb2 examples/enocean_switch/CMakeFiles/enocean_switch_nrf52832_xxAA_s132_6.0.0.dir/__/__/mesh/core/src/heartbeat.c.obj
 *fill*         0x0002d912        0x2 
 .text.heartbeat_publication_timer_cb
                0x0002d914       0xa8 examples/enocean_switch/CMakeFiles/enocean_switch_nrf52832_xxAA_s132_6.0.0.dir/__/__/mesh/core/src/heartbeat.c.obj
 .text.heartbeat_core_evt_cb
                0x0002d9bc       0x7c examples/enocean_switch/CMakeFiles/enocean_switch_nrf52832_xxAA_s132_6.0.0.dir/__/__/mesh/core/src/heartbeat.c.obj
 .text.heartbeat_on_feature_change_trigger
                0x0002da38       0x44 examples/enocean_switch/CMakeFiles/enocean_switch_nrf52832_xxAA_s132_6.0.0.dir/__/__/mesh/core/src/heartbeat.c.obj
                0x0002da38                heartbeat_on_feature_change_trigger
 .text.heartbeat_init
                0x0002da7c       0x78 examples/enocean_switch/CMakeFiles/enocean_switch_nrf52832_xxAA_s132_6.0.0.dir/__/__/mesh/core/src/heartbeat.c.obj
                0x0002da7c                heartbeat_init
 .text.heartbeat_subscription_set
                0x0002daf4       0xa4 examples/enocean_switch/CMakeFiles/enocean_switch_nrf52832_xxAA_s132_6.0.0.dir/__/__/mesh/core/src/heartbeat.c.obj
                0x0002daf4                heartbeat_subscription_set
 .text.heartbeat_subscription_get
                0x0002db98        0x8 examples/enocean_switch/CMakeFiles/enocean_switch_nrf52832_xxAA_s132_6.0.0.dir/__/__/mesh/core/src/heartbeat.c.obj
                0x0002db98                heartbeat_subscription_get
 .text.heartbeat_config_server_cb_set
                0x0002dba0       0x28 examples/enocean_switch/CMakeFiles/enocean_switch_nrf52832_xxAA_s132_6.0.0.dir/__/__/mesh/core/src/heartbeat.c.obj
                0x0002dba0                heartbeat_config_server_cb_set
 .text.heartbeat_publication_state_updated
                0x0002dbc8       0x74 examples/enocean_switch/CMakeFiles/enocean_switch_nrf52832_xxAA_s132_6.0.0.dir/__/__/mesh/core/src/heartbeat.c.obj
                0x0002dbc8                heartbeat_publication_state_updated
 .text.make_network_beacon_packet
                0x0002dc3c       0x50 examples/enocean_switch/CMakeFiles/enocean_switch_nrf52832_xxAA_s132_6.0.0.dir/__/__/mesh/core/src/net_beacon.c.obj
 .text.beacon_tx
                0x0002dc8c      0x12c examples/enocean_switch/CMakeFiles/enocean_switch_nrf52832_xxAA_s132_6.0.0.dir/__/__/mesh/core/src/net_beacon.c.obj
 .text.tx_complete_cb
                0x0002ddb8        0xe examples/enocean_switch/CMakeFiles/enocean_switch_nrf52832_xxAA_s132_6.0.0.dir/__/__/mesh/core/src/net_beacon.c.obj
 .text.beacon_tx_timeout
                0x0002ddc6        0x4 examples/enocean_switch/CMakeFiles/enocean_switch_nrf52832_xxAA_s132_6.0.0.dir/__/__/mesh/core/src/net_beacon.c.obj
 .text.is_valid_beacon_pkt.part.0
                0x0002ddca       0x30 examples/enocean_switch/CMakeFiles/enocean_switch_nrf52832_xxAA_s132_6.0.0.dir/__/__/mesh/core/src/net_beacon.c.obj
 *fill*         0x0002ddfa        0x2 
 .text.net_beacon_init
                0x0002ddfc       0x94 examples/enocean_switch/CMakeFiles/enocean_switch_nrf52832_xxAA_s132_6.0.0.dir/__/__/mesh/core/src/net_beacon.c.obj
                0x0002ddfc                net_beacon_init
 .text.net_beacon_state_set
                0x0002de90       0x34 examples/enocean_switch/CMakeFiles/enocean_switch_nrf52832_xxAA_s132_6.0.0.dir/__/__/mesh/core/src/net_beacon.c.obj
                0x0002de90                net_beacon_state_set
 .text.net_beacon_state_get
                0x0002dec4        0xc examples/enocean_switch/CMakeFiles/enocean_switch_nrf52832_xxAA_s132_6.0.0.dir/__/__/mesh/core/src/net_beacon.c.obj
                0x0002dec4                net_beacon_state_get
 .text.net_beacon_packet_in
                0x0002ded0       0xf2 examples/enocean_switch/CMakeFiles/enocean_switch_nrf52832_xxAA_s132_6.0.0.dir/__/__/mesh/core/src/net_beacon.c.obj
                0x0002ded0                net_beacon_packet_in
 *fill*         0x0002dfc2        0x2 
 .text.packet_discard
                0x0002dfc4       0x40 examples/enocean_switch/CMakeFiles/enocean_switch_nrf52832_xxAA_s132_6.0.0.dir/__/__/mesh/core/src/core_tx_adv.c.obj
 .text.packet_send
                0x0002e004       0x58 examples/enocean_switch/CMakeFiles/enocean_switch_nrf52832_xxAA_s132_6.0.0.dir/__/__/mesh/core/src/core_tx_adv.c.obj
 .text.packet_alloc
                0x0002e05c       0x58 examples/enocean_switch/CMakeFiles/enocean_switch_nrf52832_xxAA_s132_6.0.0.dir/__/__/mesh/core/src/core_tx_adv.c.obj
 .text.adv_tx_complete_callback
                0x0002e0b4       0x20 examples/enocean_switch/CMakeFiles/enocean_switch_nrf52832_xxAA_s132_6.0.0.dir/__/__/mesh/core/src/core_tx_adv.c.obj
 .text.core_tx_adv_init
                0x0002e0d4       0x60 examples/enocean_switch/CMakeFiles/enocean_switch_nrf52832_xxAA_s132_6.0.0.dir/__/__/mesh/core/src/core_tx_adv.c.obj
                0x0002e0d4                core_tx_adv_init
 .text.core_tx_adv_count_set
                0x0002e134       0x28 examples/enocean_switch/CMakeFiles/enocean_switch_nrf52832_xxAA_s132_6.0.0.dir/__/__/mesh/core/src/core_tx_adv.c.obj
                0x0002e134                core_tx_adv_count_set
 .text.core_tx_adv_count_get
                0x0002e15c       0x1c examples/enocean_switch/CMakeFiles/enocean_switch_nrf52832_xxAA_s132_6.0.0.dir/__/__/mesh/core/src/core_tx_adv.c.obj
                0x0002e15c                core_tx_adv_count_get
 .text.core_tx_adv_interval_set
                0x0002e178       0x28 examples/enocean_switch/CMakeFiles/enocean_switch_nrf52832_xxAA_s132_6.0.0.dir/__/__/mesh/core/src/core_tx_adv.c.obj
                0x0002e178                core_tx_adv_interval_set
 .text.core_tx_adv_interval_get
                0x0002e1a0       0x28 examples/enocean_switch/CMakeFiles/enocean_switch_nrf52832_xxAA_s132_6.0.0.dir/__/__/mesh/core/src/core_tx_adv.c.obj
                0x0002e1a0                core_tx_adv_interval_get
 .text.core_tx_adv_tx_power_set
                0x0002e1c8       0x28 examples/enocean_switch/CMakeFiles/enocean_switch_nrf52832_xxAA_s132_6.0.0.dir/__/__/mesh/core/src/core_tx_adv.c.obj
                0x0002e1c8                core_tx_adv_tx_power_set
 .text.ad_listener_subscribe
                0x0002e1f0       0x5c examples/enocean_switch/CMakeFiles/enocean_switch_nrf52832_xxAA_s132_6.0.0.dir/__/__/mesh/bearer/src/ad_listener.c.obj
                0x0002e1f0                ad_listener_subscribe
 .text.ad_listener_process
                0x0002e24c       0x64 examples/enocean_switch/CMakeFiles/enocean_switch_nrf52832_xxAA_s132_6.0.0.dir/__/__/mesh/bearer/src/ad_listener.c.obj
                0x0002e24c                ad_listener_process
 .text.adtype_filter_handle
                0x0002e2b0       0x64 examples/enocean_switch/CMakeFiles/enocean_switch_nrf52832_xxAA_s132_6.0.0.dir/__/__/mesh/bearer/src/ad_type_filter.c.obj
 .text.bearer_adtype_filtering_set
                0x0002e314       0x1c examples/enocean_switch/CMakeFiles/enocean_switch_nrf52832_xxAA_s132_6.0.0.dir/__/__/mesh/bearer/src/ad_type_filter.c.obj
                0x0002e314                bearer_adtype_filtering_set
 .text.bearer_adtype_add
                0x0002e330       0x20 examples/enocean_switch/CMakeFiles/enocean_switch_nrf52832_xxAA_s132_6.0.0.dir/__/__/mesh/bearer/src/ad_type_filter.c.obj
                0x0002e330                bearer_adtype_add
 .text.bearer_adtype_mode_set
                0x0002e350       0x18 examples/enocean_switch/CMakeFiles/enocean_switch_nrf52832_xxAA_s132_6.0.0.dir/__/__/mesh/bearer/src/ad_type_filter.c.obj
                0x0002e350                bearer_adtype_mode_set
 .text.tx_complete_event_callback
                0x0002e368       0x28 examples/enocean_switch/CMakeFiles/enocean_switch_nrf52832_xxAA_s132_6.0.0.dir/__/__/mesh/bearer/src/advertiser.c.obj
 .text.set_gap_addr_type
                0x0002e390       0x26 examples/enocean_switch/CMakeFiles/enocean_switch_nrf52832_xxAA_s132_6.0.0.dir/__/__/mesh/bearer/src/advertiser.c.obj
 .text.broadcast_complete_cb
                0x0002e3b6       0x46 examples/enocean_switch/CMakeFiles/enocean_switch_nrf52832_xxAA_s132_6.0.0.dir/__/__/mesh/bearer/src/advertiser.c.obj
 .text.schedule_first_time
                0x0002e3fc       0x28 examples/enocean_switch/CMakeFiles/enocean_switch_nrf52832_xxAA_s132_6.0.0.dir/__/__/mesh/bearer/src/advertiser.c.obj
 .text.timeout_event
                0x0002e424      0x10c examples/enocean_switch/CMakeFiles/enocean_switch_nrf52832_xxAA_s132_6.0.0.dir/__/__/mesh/bearer/src/advertiser.c.obj
 .text.advertiser_init
                0x0002e530        0xc examples/enocean_switch/CMakeFiles/enocean_switch_nrf52832_xxAA_s132_6.0.0.dir/__/__/mesh/bearer/src/advertiser.c.obj
                0x0002e530                advertiser_init
 .text.advertiser_enable
                0x0002e53c       0x2a examples/enocean_switch/CMakeFiles/enocean_switch_nrf52832_xxAA_s132_6.0.0.dir/__/__/mesh/bearer/src/advertiser.c.obj
                0x0002e53c                advertiser_enable
 .text.advertiser_packet_alloc
                0x0002e566       0x76 examples/enocean_switch/CMakeFiles/enocean_switch_nrf52832_xxAA_s132_6.0.0.dir/__/__/mesh/bearer/src/advertiser.c.obj
                0x0002e566                advertiser_packet_alloc
 .text.advertiser_packet_send
                0x0002e5dc       0x62 examples/enocean_switch/CMakeFiles/enocean_switch_nrf52832_xxAA_s132_6.0.0.dir/__/__/mesh/bearer/src/advertiser.c.obj
                0x0002e5dc                advertiser_packet_send
 .text.advertiser_packet_discard
                0x0002e63e       0x1e examples/enocean_switch/CMakeFiles/enocean_switch_nrf52832_xxAA_s132_6.0.0.dir/__/__/mesh/bearer/src/advertiser.c.obj
                0x0002e63e                advertiser_packet_discard
 .text.advertiser_interval_set
                0x0002e65c       0x54 examples/enocean_switch/CMakeFiles/enocean_switch_nrf52832_xxAA_s132_6.0.0.dir/__/__/mesh/bearer/src/advertiser.c.obj
                0x0002e65c                advertiser_interval_set
 .text.advertiser_tx_power_set
                0x0002e6b0       0x14 examples/enocean_switch/CMakeFiles/enocean_switch_nrf52832_xxAA_s132_6.0.0.dir/__/__/mesh/bearer/src/advertiser.c.obj
                0x0002e6b0                advertiser_tx_power_set
 .text.advertiser_flush
                0x0002e6c4       0x1e examples/enocean_switch/CMakeFiles/enocean_switch_nrf52832_xxAA_s132_6.0.0.dir/__/__/mesh/bearer/src/advertiser.c.obj
                0x0002e6c4                advertiser_flush
 *fill*         0x0002e6e2        0x2 
 .text.advertiser_address_default_get
                0x0002e6e4       0x38 examples/enocean_switch/CMakeFiles/enocean_switch_nrf52832_xxAA_s132_6.0.0.dir/__/__/mesh/bearer/src/advertiser.c.obj
                0x0002e6e4                advertiser_address_default_get
 .text.advertiser_instance_init
                0x0002e71c       0xa4 examples/enocean_switch/CMakeFiles/enocean_switch_nrf52832_xxAA_s132_6.0.0.dir/__/__/mesh/bearer/src/advertiser.c.obj
                0x0002e71c                advertiser_instance_init
 .text.action_timer_start
                0x0002e7c0       0x90 examples/enocean_switch/CMakeFiles/enocean_switch_nrf52832_xxAA_s132_6.0.0.dir/__/__/mesh/bearer/src/bearer_handler.c.obj
 .text.action_switch
                0x0002e850       0xe8 examples/enocean_switch/CMakeFiles/enocean_switch_nrf52832_xxAA_s132_6.0.0.dir/__/__/mesh/bearer/src/bearer_handler.c.obj
 .text.end_handle
                0x0002e938       0x44 examples/enocean_switch/CMakeFiles/enocean_switch_nrf52832_xxAA_s132_6.0.0.dir/__/__/mesh/bearer/src/bearer_handler.c.obj
 .text.TIMER2_IRQHandler
                0x0002e97c       0x58 examples/enocean_switch/CMakeFiles/enocean_switch_nrf52832_xxAA_s132_6.0.0.dir/__/__/mesh/bearer/src/bearer_handler.c.obj
                0x0002e97c                TIMER2_IRQHandler
 .text.bearer_handler_init
                0x0002e9d4       0x44 examples/enocean_switch/CMakeFiles/enocean_switch_nrf52832_xxAA_s132_6.0.0.dir/__/__/mesh/bearer/src/bearer_handler.c.obj
                0x0002e9d4                bearer_handler_init
 .text.bearer_handler_start
                0x0002ea18       0x1c examples/enocean_switch/CMakeFiles/enocean_switch_nrf52832_xxAA_s132_6.0.0.dir/__/__/mesh/bearer/src/bearer_handler.c.obj
                0x0002ea18                bearer_handler_start
 .text.bearer_handler_action_enqueue
                0x0002ea34       0x6c examples/enocean_switch/CMakeFiles/enocean_switch_nrf52832_xxAA_s132_6.0.0.dir/__/__/mesh/bearer/src/bearer_handler.c.obj
                0x0002ea34                bearer_handler_action_enqueue
 .text.bearer_handler_action_end
                0x0002eaa0       0x48 examples/enocean_switch/CMakeFiles/enocean_switch_nrf52832_xxAA_s132_6.0.0.dir/__/__/mesh/bearer/src/bearer_handler.c.obj
                0x0002eaa0                bearer_handler_action_end
 .text.bearer_handler_radio_irq_handler
                0x0002eae8       0x64 examples/enocean_switch/CMakeFiles/enocean_switch_nrf52832_xxAA_s132_6.0.0.dir/__/__/mesh/bearer/src/bearer_handler.c.obj
                0x0002eae8                bearer_handler_radio_irq_handler
 .text.bearer_handler_timer_irq_handler
                0x0002eb4c       0x24 examples/enocean_switch/CMakeFiles/enocean_switch_nrf52832_xxAA_s132_6.0.0.dir/__/__/mesh/bearer/src/bearer_handler.c.obj
                0x0002eb4c                bearer_handler_timer_irq_handler
 .text.bearer_handler_on_ts_begin
                0x0002eb70       0x38 examples/enocean_switch/CMakeFiles/enocean_switch_nrf52832_xxAA_s132_6.0.0.dir/__/__/mesh/bearer/src/bearer_handler.c.obj
                0x0002eb70                bearer_handler_on_ts_begin
 .text.bearer_handler_on_ts_end
                0x0002eba8       0x70 examples/enocean_switch/CMakeFiles/enocean_switch_nrf52832_xxAA_s132_6.0.0.dir/__/__/mesh/bearer/src/bearer_handler.c.obj
                0x0002eba8                bearer_handler_on_ts_end
 .text.broadcast_start
                0x0002ec18       0xac examples/enocean_switch/CMakeFiles/enocean_switch_nrf52832_xxAA_s132_6.0.0.dir/__/__/mesh/bearer/src/broadcast.c.obj
 .text.radio_irq_handler
                0x0002ecc4       0xa4 examples/enocean_switch/CMakeFiles/enocean_switch_nrf52832_xxAA_s132_6.0.0.dir/__/__/mesh/bearer/src/broadcast.c.obj
 .text.broadcast_send
                0x0002ed68       0x6c examples/enocean_switch/CMakeFiles/enocean_switch_nrf52832_xxAA_s132_6.0.0.dir/__/__/mesh/bearer/src/broadcast.c.obj
                0x0002ed68                broadcast_send
 .text.fen_filter_start
                0x0002edd4       0x28 examples/enocean_switch/CMakeFiles/enocean_switch_nrf52832_xxAA_s132_6.0.0.dir/__/__/mesh/bearer/src/filter_engine.c.obj
                0x0002edd4                fen_filter_start
 .text.fen_filter_stop
                0x0002edfc       0x20 examples/enocean_switch/CMakeFiles/enocean_switch_nrf52832_xxAA_s132_6.0.0.dir/__/__/mesh/bearer/src/filter_engine.c.obj
                0x0002edfc                fen_filter_stop
 .text.fen_filters_apply
                0x0002ee1c       0x34 examples/enocean_switch/CMakeFiles/enocean_switch_nrf52832_xxAA_s132_6.0.0.dir/__/__/mesh/bearer/src/filter_engine.c.obj
                0x0002ee1c                fen_filters_apply
 .text.radio_config_reset
                0x0002ee50       0x40 examples/enocean_switch/CMakeFiles/enocean_switch_nrf52832_xxAA_s132_6.0.0.dir/__/__/mesh/bearer/src/radio_config.c.obj
                0x0002ee50                radio_config_reset
 .text.radio_config_channel_set
                0x0002ee90       0x28 examples/enocean_switch/CMakeFiles/enocean_switch_nrf52832_xxAA_s132_6.0.0.dir/__/__/mesh/bearer/src/radio_config.c.obj
                0x0002ee90                radio_config_channel_set
 .text.radio_config_config
                0x0002eeb8       0x90 examples/enocean_switch/CMakeFiles/enocean_switch_nrf52832_xxAA_s132_6.0.0.dir/__/__/mesh/bearer/src/radio_config.c.obj
                0x0002eeb8                radio_config_config
 .text.radio_config_access_addr_set
                0x0002ef48       0x50 examples/enocean_switch/CMakeFiles/enocean_switch_nrf52832_xxAA_s132_6.0.0.dir/__/__/mesh/bearer/src/radio_config.c.obj
                0x0002ef48                radio_config_access_addr_set
 .text.radio_trigger
                0x0002ef98       0x24 examples/enocean_switch/CMakeFiles/enocean_switch_nrf52832_xxAA_s132_6.0.0.dir/__/__/mesh/bearer/src/scanner.c.obj
 .text.scan_window_end
                0x0002efbc       0x10 examples/enocean_switch/CMakeFiles/enocean_switch_nrf52832_xxAA_s132_6.0.0.dir/__/__/mesh/bearer/src/scanner.c.obj
 .text.scan_window_start
                0x0002efcc       0x24 examples/enocean_switch/CMakeFiles/enocean_switch_nrf52832_xxAA_s132_6.0.0.dir/__/__/mesh/bearer/src/scanner.c.obj
 .text.radio_configure
                0x0002eff0       0x78 examples/enocean_switch/CMakeFiles/enocean_switch_nrf52832_xxAA_s132_6.0.0.dir/__/__/mesh/bearer/src/scanner.c.obj
 .text.radio_set_packet
                0x0002f068       0x4c examples/enocean_switch/CMakeFiles/enocean_switch_nrf52832_xxAA_s132_6.0.0.dir/__/__/mesh/bearer/src/scanner.c.obj
 .text.radio_start
                0x0002f0b4       0x78 examples/enocean_switch/CMakeFiles/enocean_switch_nrf52832_xxAA_s132_6.0.0.dir/__/__/mesh/bearer/src/scanner.c.obj
 .text.radio_stop
                0x0002f12c       0x38 examples/enocean_switch/CMakeFiles/enocean_switch_nrf52832_xxAA_s132_6.0.0.dir/__/__/mesh/bearer/src/scanner.c.obj
 .text.schedule_timers
                0x0002f164       0x38 examples/enocean_switch/CMakeFiles/enocean_switch_nrf52832_xxAA_s132_6.0.0.dir/__/__/mesh/bearer/src/scanner.c.obj
 .text.scanner_radio_start
                0x0002f19c       0x2c examples/enocean_switch/CMakeFiles/enocean_switch_nrf52832_xxAA_s132_6.0.0.dir/__/__/mesh/bearer/src/scanner.c.obj
                0x0002f19c                scanner_radio_start
 .text.scanner_radio_stop
                0x0002f1c8       0x10 examples/enocean_switch/CMakeFiles/enocean_switch_nrf52832_xxAA_s132_6.0.0.dir/__/__/mesh/bearer/src/scanner.c.obj
                0x0002f1c8                scanner_radio_stop
 .text.scanner_radio_irq_handler
                0x0002f1d8      0x13c examples/enocean_switch/CMakeFiles/enocean_switch_nrf52832_xxAA_s132_6.0.0.dir/__/__/mesh/bearer/src/scanner.c.obj
                0x0002f1d8                scanner_radio_irq_handler
 .text.scanner_timer_irq_handler
                0x0002f314       0x30 examples/enocean_switch/CMakeFiles/enocean_switch_nrf52832_xxAA_s132_6.0.0.dir/__/__/mesh/bearer/src/scanner.c.obj
                0x0002f314                scanner_timer_irq_handler
 .text.scanner_enable
                0x0002f344       0x24 examples/enocean_switch/CMakeFiles/enocean_switch_nrf52832_xxAA_s132_6.0.0.dir/__/__/mesh/bearer/src/scanner.c.obj
                0x0002f344                scanner_enable
 .text.scanner_packet_release
                0x0002f368       0x2c examples/enocean_switch/CMakeFiles/enocean_switch_nrf52832_xxAA_s132_6.0.0.dir/__/__/mesh/bearer/src/scanner.c.obj
                0x0002f368                scanner_packet_release
 .text.scanner_rx
                0x0002f394       0x30 examples/enocean_switch/CMakeFiles/enocean_switch_nrf52832_xxAA_s132_6.0.0.dir/__/__/mesh/bearer/src/scanner.c.obj
                0x0002f394                scanner_rx
 .text.scanner_rx_pending
                0x0002f3c4        0xc examples/enocean_switch/CMakeFiles/enocean_switch_nrf52832_xxAA_s132_6.0.0.dir/__/__/mesh/bearer/src/scanner.c.obj
                0x0002f3c4                scanner_rx_pending
 .text.scanner_config_scan_time_set
                0x0002f3d0       0x4c examples/enocean_switch/CMakeFiles/enocean_switch_nrf52832_xxAA_s132_6.0.0.dir/__/__/mesh/bearer/src/scanner.c.obj
                0x0002f3d0                scanner_config_scan_time_set
 .text.scanner_config_channels_set
                0x0002f41c       0x50 examples/enocean_switch/CMakeFiles/enocean_switch_nrf52832_xxAA_s132_6.0.0.dir/__/__/mesh/bearer/src/scanner.c.obj
                0x0002f41c                scanner_config_channels_set
 .text.scanner_config_access_addresses_set
                0x0002f46c       0x38 examples/enocean_switch/CMakeFiles/enocean_switch_nrf52832_xxAA_s132_6.0.0.dir/__/__/mesh/bearer/src/scanner.c.obj
                0x0002f46c                scanner_config_access_addresses_set
 .text.scanner_config_reset
                0x0002f4a4       0x50 examples/enocean_switch/CMakeFiles/enocean_switch_nrf52832_xxAA_s132_6.0.0.dir/__/__/mesh/bearer/src/scanner.c.obj
                0x0002f4a4                scanner_config_reset
 .text.scanner_init
                0x0002f4f4       0x54 examples/enocean_switch/CMakeFiles/enocean_switch_nrf52832_xxAA_s132_6.0.0.dir/__/__/mesh/bearer/src/scanner.c.obj
                0x0002f4f4                scanner_init
 .text.pin_clear
                0x0002f548       0x26 examples/enocean_switch/CMakeFiles/enocean_switch_nrf52832_xxAA_s132_6.0.0.dir/__/__/mesh/bearer/src/mesh_pa_lna.c.obj
 *fill*         0x0002f56e        0x2 
 .text.ppi_setup.isra.0
                0x0002f570       0x3c examples/enocean_switch/CMakeFiles/enocean_switch_nrf52832_xxAA_s132_6.0.0.dir/__/__/mesh/bearer/src/mesh_pa_lna.c.obj
 .text.mesh_pa_setup_start
                0x0002f5ac       0x5c examples/enocean_switch/CMakeFiles/enocean_switch_nrf52832_xxAA_s132_6.0.0.dir/__/__/mesh/bearer/src/mesh_pa_lna.c.obj
                0x0002f5ac                mesh_pa_setup_start
 .text.mesh_lna_setup_start
                0x0002f608       0x5c examples/enocean_switch/CMakeFiles/enocean_switch_nrf52832_xxAA_s132_6.0.0.dir/__/__/mesh/bearer/src/mesh_pa_lna.c.obj
                0x0002f608                mesh_lna_setup_start
 .text.mesh_pa_lna_disable_start
                0x0002f664       0x1c examples/enocean_switch/CMakeFiles/enocean_switch_nrf52832_xxAA_s132_6.0.0.dir/__/__/mesh/bearer/src/mesh_pa_lna.c.obj
                0x0002f664                mesh_pa_lna_disable_start
 .text.mesh_pa_lna_setup_stop
                0x0002f680       0x4c examples/enocean_switch/CMakeFiles/enocean_switch_nrf52832_xxAA_s132_6.0.0.dir/__/__/mesh/bearer/src/mesh_pa_lna.c.obj
                0x0002f680                mesh_pa_lna_setup_stop
 .text.mesh_pa_lna_cleanup
                0x0002f6cc       0x48 examples/enocean_switch/CMakeFiles/enocean_switch_nrf52832_xxAA_s132_6.0.0.dir/__/__/mesh/bearer/src/mesh_pa_lna.c.obj
                0x0002f6cc                mesh_pa_lna_cleanup
 .text.handle_publish_timeout
                0x0002f714        0x8 examples/enocean_switch/CMakeFiles/enocean_switch_nrf52832_xxAA_s132_6.0.0.dir/__/__/models/simple_on_off/src/simple_on_off_client.c.obj
 .text.reliable_status_cb
                0x0002f71c       0x3c examples/enocean_switch/CMakeFiles/enocean_switch_nrf52832_xxAA_s132_6.0.0.dir/__/__/models/simple_on_off/src/simple_on_off_client.c.obj
 .text.handle_status_cb
                0x0002f758       0x50 examples/enocean_switch/CMakeFiles/enocean_switch_nrf52832_xxAA_s132_6.0.0.dir/__/__/models/simple_on_off/src/simple_on_off_client.c.obj
 .text.send_reliable_message.isra.3
                0x0002f7a8       0x50 examples/enocean_switch/CMakeFiles/enocean_switch_nrf52832_xxAA_s132_6.0.0.dir/__/__/models/simple_on_off/src/simple_on_off_client.c.obj
 .text.simple_on_off_client_init
                0x0002f7f8       0x40 examples/enocean_switch/CMakeFiles/enocean_switch_nrf52832_xxAA_s132_6.0.0.dir/__/__/models/simple_on_off/src/simple_on_off_client.c.obj
                0x0002f7f8                simple_on_off_client_init
 .text.simple_on_off_client_set
                0x0002f838       0x3c examples/enocean_switch/CMakeFiles/enocean_switch_nrf52832_xxAA_s132_6.0.0.dir/__/__/models/simple_on_off/src/simple_on_off_client.c.obj
                0x0002f838                simple_on_off_client_set
 .text.simple_on_off_client_set_unreliable
                0x0002f874       0x5c examples/enocean_switch/CMakeFiles/enocean_switch_nrf52832_xxAA_s132_6.0.0.dir/__/__/models/simple_on_off/src/simple_on_off_client.c.obj
                0x0002f874                simple_on_off_client_set_unreliable
 .text.config_composition_data_get
                0x0002f8d0      0x184 examples/enocean_switch/CMakeFiles/enocean_switch_nrf52832_xxAA_s132_6.0.0.dir/__/__/models/config/src/composition_data.c.obj
                0x0002f8d0                config_composition_data_get
 .text.app_evt_send
                0x0002fa54       0x10 examples/enocean_switch/CMakeFiles/enocean_switch_nrf52832_xxAA_s132_6.0.0.dir/__/__/models/config/src/config_server.c.obj
 .text.config_server_heartbeat_publication_count_decrement
                0x0002fa64       0x1c examples/enocean_switch/CMakeFiles/enocean_switch_nrf52832_xxAA_s132_6.0.0.dir/__/__/models/config/src/config_server.c.obj
 .text.get_element_index
                0x0002fa80       0x2a examples/enocean_switch/CMakeFiles/enocean_switch_nrf52832_xxAA_s132_6.0.0.dir/__/__/models/config/src/config_server.c.obj
 *fill*         0x0002faaa        0x2 
 .text.config_server_heartbeat_publication_params_get
                0x0002faac       0x34 examples/enocean_switch/CMakeFiles/enocean_switch_nrf52832_xxAA_s132_6.0.0.dir/__/__/models/config/src/config_server.c.obj
 .text.send_reply
                0x0002fae0       0x34 examples/enocean_switch/CMakeFiles/enocean_switch_nrf52832_xxAA_s132_6.0.0.dir/__/__/models/config/src/config_server.c.obj
 .text.send_network_transmit_status
                0x0002fb14       0x76 examples/enocean_switch/CMakeFiles/enocean_switch_nrf52832_xxAA_s132_6.0.0.dir/__/__/models/config/src/config_server.c.obj
 .text.handle_config_network_transmit_set
                0x0002fb8a       0x82 examples/enocean_switch/CMakeFiles/enocean_switch_nrf52832_xxAA_s132_6.0.0.dir/__/__/models/config/src/config_server.c.obj
 .text.handle_config_network_transmit_get
                0x0002fc0c        0xa examples/enocean_switch/CMakeFiles/enocean_switch_nrf52832_xxAA_s132_6.0.0.dir/__/__/models/config/src/config_server.c.obj
 *fill*         0x0002fc16        0x2 
 .text.handle_node_reset
                0x0002fc18       0x34 examples/enocean_switch/CMakeFiles/enocean_switch_nrf52832_xxAA_s132_6.0.0.dir/__/__/models/config/src/config_server.c.obj
 .text.send_netkey_status
                0x0002fc4c       0x2c examples/enocean_switch/CMakeFiles/enocean_switch_nrf52832_xxAA_s132_6.0.0.dir/__/__/models/config/src/config_server.c.obj
 .text.send_relay_status
                0x0002fc78       0xa8 examples/enocean_switch/CMakeFiles/enocean_switch_nrf52832_xxAA_s132_6.0.0.dir/__/__/models/config/src/config_server.c.obj
 .text.handle_config_relay_set
                0x0002fd20       0xb6 examples/enocean_switch/CMakeFiles/enocean_switch_nrf52832_xxAA_s132_6.0.0.dir/__/__/models/config/src/config_server.c.obj
 .text.handle_config_relay_get
                0x0002fdd6        0xa examples/enocean_switch/CMakeFiles/enocean_switch_nrf52832_xxAA_s132_6.0.0.dir/__/__/models/config/src/config_server.c.obj
 .text.send_subscription_status
                0x0002fde0       0x42 examples/enocean_switch/CMakeFiles/enocean_switch_nrf52832_xxAA_s132_6.0.0.dir/__/__/models/config/src/config_server.c.obj
 .text.send_appkey_status
                0x0002fe22       0x3a examples/enocean_switch/CMakeFiles/enocean_switch_nrf52832_xxAA_s132_6.0.0.dir/__/__/models/config/src/config_server.c.obj
 .text.handle_netkey_get
                0x0002fe5c       0x50 examples/enocean_switch/CMakeFiles/enocean_switch_nrf52832_xxAA_s132_6.0.0.dir/__/__/models/config/src/config_server.c.obj
 .text.handle_netkey_delete
                0x0002feac       0xbc examples/enocean_switch/CMakeFiles/enocean_switch_nrf52832_xxAA_s132_6.0.0.dir/__/__/models/config/src/config_server.c.obj
 .text.handle_netkey_add_update
                0x0002ff68       0x78 examples/enocean_switch/CMakeFiles/enocean_switch_nrf52832_xxAA_s132_6.0.0.dir/__/__/models/config/src/config_server.c.obj
 .text.status_error_sub_send
                0x0002ffe0      0x124 examples/enocean_switch/CMakeFiles/enocean_switch_nrf52832_xxAA_s132_6.0.0.dir/__/__/models/config/src/config_server.c.obj
 .text.delete_all_subscriptions
                0x00030104       0x66 examples/enocean_switch/CMakeFiles/enocean_switch_nrf52832_xxAA_s132_6.0.0.dir/__/__/models/config/src/config_server.c.obj
 .text.send_publication_status
                0x0003016a      0x170 examples/enocean_switch/CMakeFiles/enocean_switch_nrf52832_xxAA_s132_6.0.0.dir/__/__/models/config/src/config_server.c.obj
 .text.handle_config_key_refresh_phase_set
                0x000302da       0xc8 examples/enocean_switch/CMakeFiles/enocean_switch_nrf52832_xxAA_s132_6.0.0.dir/__/__/models/config/src/config_server.c.obj
 .text.handle_config_default_ttl_set
                0x000303a2       0x50 examples/enocean_switch/CMakeFiles/enocean_switch_nrf52832_xxAA_s132_6.0.0.dir/__/__/models/config/src/config_server.c.obj
 .text.send_net_beacon_state
                0x000303f2       0x2c examples/enocean_switch/CMakeFiles/enocean_switch_nrf52832_xxAA_s132_6.0.0.dir/__/__/models/config/src/config_server.c.obj
 .text.handle_config_beacon_get
                0x0003041e        0xa examples/enocean_switch/CMakeFiles/enocean_switch_nrf52832_xxAA_s132_6.0.0.dir/__/__/models/config/src/config_server.c.obj
 .text.handle_heartbeat_publication_set
                0x00030428      0x12c examples/enocean_switch/CMakeFiles/enocean_switch_nrf52832_xxAA_s132_6.0.0.dir/__/__/models/config/src/config_server.c.obj
 .text.mesh_event_cb
                0x00030554       0x70 examples/enocean_switch/CMakeFiles/enocean_switch_nrf52832_xxAA_s132_6.0.0.dir/__/__/models/config/src/config_server.c.obj
 .text.handle_node_identity_set
                0x000305c4       0x3e examples/enocean_switch/CMakeFiles/enocean_switch_nrf52832_xxAA_s132_6.0.0.dir/__/__/models/config/src/config_server.c.obj
 .text.handle_node_identity_get
                0x00030602       0x3c examples/enocean_switch/CMakeFiles/enocean_switch_nrf52832_xxAA_s132_6.0.0.dir/__/__/models/config/src/config_server.c.obj
 .text.handle_config_gatt_proxy_get.part.9
                0x0003063e       0x2a examples/enocean_switch/CMakeFiles/enocean_switch_nrf52832_xxAA_s132_6.0.0.dir/__/__/models/config/src/config_server.c.obj
 .text.handle_config_gatt_proxy_set
                0x00030668       0x14 examples/enocean_switch/CMakeFiles/enocean_switch_nrf52832_xxAA_s132_6.0.0.dir/__/__/models/config/src/config_server.c.obj
 .text.handle_config_gatt_proxy_get
                0x0003067c        0xa examples/enocean_switch/CMakeFiles/enocean_switch_nrf52832_xxAA_s132_6.0.0.dir/__/__/models/config/src/config_server.c.obj
 .text.handle_config_friend_get.part.11
                0x00030686       0x2a examples/enocean_switch/CMakeFiles/enocean_switch_nrf52832_xxAA_s132_6.0.0.dir/__/__/models/config/src/config_server.c.obj
 .text.handle_config_friend_set
                0x000306b0       0x14 examples/enocean_switch/CMakeFiles/enocean_switch_nrf52832_xxAA_s132_6.0.0.dir/__/__/models/config/src/config_server.c.obj
 .text.handle_config_friend_get
                0x000306c4        0xa examples/enocean_switch/CMakeFiles/enocean_switch_nrf52832_xxAA_s132_6.0.0.dir/__/__/models/config/src/config_server.c.obj
 .text.status_error_pub_send
                0x000306ce       0x9c examples/enocean_switch/CMakeFiles/enocean_switch_nrf52832_xxAA_s132_6.0.0.dir/__/__/models/config/src/config_server.c.obj
 .text.handle_config_key_refresh_phase_get
                0x0003076a       0x58 examples/enocean_switch/CMakeFiles/enocean_switch_nrf52832_xxAA_s132_6.0.0.dir/__/__/models/config/src/config_server.c.obj
 .text.handle_config_default_ttl_get
                0x000307c2       0x30 examples/enocean_switch/CMakeFiles/enocean_switch_nrf52832_xxAA_s132_6.0.0.dir/__/__/models/config/src/config_server.c.obj
 .text.handle_config_beacon_set
                0x000307f2       0x42 examples/enocean_switch/CMakeFiles/enocean_switch_nrf52832_xxAA_s132_6.0.0.dir/__/__/models/config/src/config_server.c.obj
 .text.handle_composition_data_get
                0x00030834       0x50 examples/enocean_switch/CMakeFiles/enocean_switch_nrf52832_xxAA_s132_6.0.0.dir/__/__/models/config/src/config_server.c.obj
 .text.handle_appkey_delete
                0x00030884       0xc2 examples/enocean_switch/CMakeFiles/enocean_switch_nrf52832_xxAA_s132_6.0.0.dir/__/__/models/config/src/config_server.c.obj
 .text.get_subscription_list.constprop.25
                0x00030946       0x50 examples/enocean_switch/CMakeFiles/enocean_switch_nrf52832_xxAA_s132_6.0.0.dir/__/__/models/config/src/config_server.c.obj
 .text.handle_appkey_get
                0x00030996       0xb8 examples/enocean_switch/CMakeFiles/enocean_switch_nrf52832_xxAA_s132_6.0.0.dir/__/__/models/config/src/config_server.c.obj
 .text.heartbeat_subscription_count_encode
                0x00030a4e       0x26 examples/enocean_switch/CMakeFiles/enocean_switch_nrf52832_xxAA_s132_6.0.0.dir/__/__/models/config/src/config_server.c.obj
 .text.handle_appkey_add
                0x00030a74       0xba examples/enocean_switch/CMakeFiles/enocean_switch_nrf52832_xxAA_s132_6.0.0.dir/__/__/models/config/src/config_server.c.obj
 .text.handle_appkey_update
                0x00030b2e       0xbc examples/enocean_switch/CMakeFiles/enocean_switch_nrf52832_xxAA_s132_6.0.0.dir/__/__/models/config/src/config_server.c.obj
 .text.heartbeat_pubsub_period_encode
                0x00030bea       0x26 examples/enocean_switch/CMakeFiles/enocean_switch_nrf52832_xxAA_s132_6.0.0.dir/__/__/models/config/src/config_server.c.obj
 .text.handle_heartbeat_publication_get
                0x00030c10       0x80 examples/enocean_switch/CMakeFiles/enocean_switch_nrf52832_xxAA_s132_6.0.0.dir/__/__/models/config/src/config_server.c.obj
 .text.handle_heartbeat_subscription_get
                0x00030c90       0x84 examples/enocean_switch/CMakeFiles/enocean_switch_nrf52832_xxAA_s132_6.0.0.dir/__/__/models/config/src/config_server.c.obj
 .text.handle_heartbeat_subscription_set
                0x00030d14       0xa8 examples/enocean_switch/CMakeFiles/enocean_switch_nrf52832_xxAA_s132_6.0.0.dir/__/__/models/config/src/config_server.c.obj
 .text.handle_config_model_publication_get
                0x00030dbc       0x94 examples/enocean_switch/CMakeFiles/enocean_switch_nrf52832_xxAA_s132_6.0.0.dir/__/__/models/config/src/config_server.c.obj
 .text.handle_config_model_subscription_delete_all
                0x00030e50       0xca examples/enocean_switch/CMakeFiles/enocean_switch_nrf52832_xxAA_s132_6.0.0.dir/__/__/models/config/src/config_server.c.obj
 .text.handle_config_sig_model_subscription_get
                0x00030f1a       0xbe examples/enocean_switch/CMakeFiles/enocean_switch_nrf52832_xxAA_s132_6.0.0.dir/__/__/models/config/src/config_server.c.obj
 .text.handle_config_vendor_model_subscription_get
                0x00030fd8      0x100 examples/enocean_switch/CMakeFiles/enocean_switch_nrf52832_xxAA_s132_6.0.0.dir/__/__/models/config/src/config_server.c.obj
 .text.handle_config_model_subscription_virtual_address_delete
                0x000310d8      0x110 examples/enocean_switch/CMakeFiles/enocean_switch_nrf52832_xxAA_s132_6.0.0.dir/__/__/models/config/src/config_server.c.obj
 .text.handle_config_model_subscription_virtual_address_add
                0x000311e8      0x10e examples/enocean_switch/CMakeFiles/enocean_switch_nrf52832_xxAA_s132_6.0.0.dir/__/__/models/config/src/config_server.c.obj
 .text.handle_config_model_subscription_delete
                0x000312f6      0x116 examples/enocean_switch/CMakeFiles/enocean_switch_nrf52832_xxAA_s132_6.0.0.dir/__/__/models/config/src/config_server.c.obj
 .text.handle_config_model_subscription_add
                0x0003140c      0x114 examples/enocean_switch/CMakeFiles/enocean_switch_nrf52832_xxAA_s132_6.0.0.dir/__/__/models/config/src/config_server.c.obj
 .text.handle_config_model_subscription_virtual_address_overwrite
                0x00031520      0x128 examples/enocean_switch/CMakeFiles/enocean_switch_nrf52832_xxAA_s132_6.0.0.dir/__/__/models/config/src/config_server.c.obj
 .text.handle_model_app_get
                0x00031648      0x1a4 examples/enocean_switch/CMakeFiles/enocean_switch_nrf52832_xxAA_s132_6.0.0.dir/__/__/models/config/src/config_server.c.obj
 .text.handle_config_model_subscription_overwrite
                0x000317ec      0x122 examples/enocean_switch/CMakeFiles/enocean_switch_nrf52832_xxAA_s132_6.0.0.dir/__/__/models/config/src/config_server.c.obj
 .text.handle_model_app_bind_unbind
                0x0003190e      0x17a examples/enocean_switch/CMakeFiles/enocean_switch_nrf52832_xxAA_s132_6.0.0.dir/__/__/models/config/src/config_server.c.obj
 .text.handle_config_model_publication_set
                0x00031a88      0x2ce examples/enocean_switch/CMakeFiles/enocean_switch_nrf52832_xxAA_s132_6.0.0.dir/__/__/models/config/src/config_server.c.obj
 *fill*         0x00031d56        0x2 
 .text.config_server_init
                0x00031d58       0x64 examples/enocean_switch/CMakeFiles/enocean_switch_nrf52832_xxAA_s132_6.0.0.dir/__/__/models/config/src/config_server.c.obj
                0x00031d58                config_server_init
 .text.config_server_bind
                0x00031dbc       0x10 examples/enocean_switch/CMakeFiles/enocean_switch_nrf52832_xxAA_s132_6.0.0.dir/__/__/models/config/src/config_server.c.obj
                0x00031dbc                config_server_bind
 .text.packed_index_list_create
                0x00031dcc       0x32 examples/enocean_switch/CMakeFiles/enocean_switch_nrf52832_xxAA_s132_6.0.0.dir/__/__/models/config/src/packed_index_list.c.obj
                0x00031dcc                packed_index_list_create
 *fill*         0x00031dfe        0x2 
 .text.attention_timer_set
                0x00031e00       0x8c examples/enocean_switch/CMakeFiles/enocean_switch_nrf52832_xxAA_s132_6.0.0.dir/__/__/models/health/src/health_server.c.obj
 .text.attention_timer_handler
                0x00031e8c       0x5c examples/enocean_switch/CMakeFiles/enocean_switch_nrf52832_xxAA_s132_6.0.0.dir/__/__/models/health/src/health_server.c.obj
 .text.send_attention_status
                0x00031ee8       0x4a examples/enocean_switch/CMakeFiles/enocean_switch_nrf52832_xxAA_s132_6.0.0.dir/__/__/models/health/src/health_server.c.obj
 .text.handle_attention_get
                0x00031f32        0xc examples/enocean_switch/CMakeFiles/enocean_switch_nrf52832_xxAA_s132_6.0.0.dir/__/__/models/health/src/health_server.c.obj
 .text.send_period_status
                0x00031f3e       0x48 examples/enocean_switch/CMakeFiles/enocean_switch_nrf52832_xxAA_s132_6.0.0.dir/__/__/models/health/src/health_server.c.obj
 .text.handle_period_get
                0x00031f86        0xc examples/enocean_switch/CMakeFiles/enocean_switch_nrf52832_xxAA_s132_6.0.0.dir/__/__/models/health/src/health_server.c.obj
 .text.handle_attention_set
                0x00031f92       0x2e examples/enocean_switch/CMakeFiles/enocean_switch_nrf52832_xxAA_s132_6.0.0.dir/__/__/models/health/src/health_server.c.obj
 .text.handle_period_set
                0x00031fc0       0x22 examples/enocean_switch/CMakeFiles/enocean_switch_nrf52832_xxAA_s132_6.0.0.dir/__/__/models/health/src/health_server.c.obj
 *fill*         0x00031fe2        0x2 
 .text.bitfield_next_get.part.0.constprop.9
                0x00031fe4       0x44 examples/enocean_switch/CMakeFiles/enocean_switch_nrf52832_xxAA_s132_6.0.0.dir/__/__/models/health/src/health_server.c.obj
 .text.bitfield_popcount.constprop.7
                0x00032028       0x28 examples/enocean_switch/CMakeFiles/enocean_switch_nrf52832_xxAA_s132_6.0.0.dir/__/__/models/health/src/health_server.c.obj
 .text.send_fault_status
                0x00032050       0xa8 examples/enocean_switch/CMakeFiles/enocean_switch_nrf52832_xxAA_s132_6.0.0.dir/__/__/models/health/src/health_server.c.obj
 .text.health_publish_timeout_handler
                0x000320f8        0xa examples/enocean_switch/CMakeFiles/enocean_switch_nrf52832_xxAA_s132_6.0.0.dir/__/__/models/health/src/health_server.c.obj
 .text.handle_fault_test
                0x00032102       0x68 examples/enocean_switch/CMakeFiles/enocean_switch_nrf52832_xxAA_s132_6.0.0.dir/__/__/models/health/src/health_server.c.obj
 .text.handle_fault_get
                0x0003216a       0x32 examples/enocean_switch/CMakeFiles/enocean_switch_nrf52832_xxAA_s132_6.0.0.dir/__/__/models/health/src/health_server.c.obj
 .text.handle_fault_clear
                0x0003219c       0x48 examples/enocean_switch/CMakeFiles/enocean_switch_nrf52832_xxAA_s132_6.0.0.dir/__/__/models/health/src/health_server.c.obj
 .text.health_server_init
                0x000321e4       0x6c examples/enocean_switch/CMakeFiles/enocean_switch_nrf52832_xxAA_s132_6.0.0.dir/__/__/models/health/src/health_server.c.obj
                0x000321e4                health_server_init
 .text.add_to_publication_list
                0x00032250       0x78 examples/enocean_switch/CMakeFiles/enocean_switch_nrf52832_xxAA_s132_6.0.0.dir/__/__/mesh/access/src/access_publish.c.obj
 .text.step_resolution_to_us
                0x000322c8       0x38 examples/enocean_switch/CMakeFiles/enocean_switch_nrf52832_xxAA_s132_6.0.0.dir/__/__/mesh/access/src/access_publish.c.obj
 .text.schedule_publication_timer
                0x00032300      0x184 examples/enocean_switch/CMakeFiles/enocean_switch_nrf52832_xxAA_s132_6.0.0.dir/__/__/mesh/access/src/access_publish.c.obj
 .text.publish_timer_tick
                0x00032484       0xa8 examples/enocean_switch/CMakeFiles/enocean_switch_nrf52832_xxAA_s132_6.0.0.dir/__/__/mesh/access/src/access_publish.c.obj
 .text.access_publish_init
                0x0003252c       0x38 examples/enocean_switch/CMakeFiles/enocean_switch_nrf52832_xxAA_s132_6.0.0.dir/__/__/mesh/access/src/access_publish.c.obj
                0x0003252c                access_publish_init
 .text.access_publish_period_set
                0x00032564       0x60 examples/enocean_switch/CMakeFiles/enocean_switch_nrf52832_xxAA_s132_6.0.0.dir/__/__/mesh/access/src/access_publish.c.obj
                0x00032564                access_publish_period_set
 .text.access_publish_period_get
                0x000325c4       0x22 examples/enocean_switch/CMakeFiles/enocean_switch_nrf52832_xxAA_s132_6.0.0.dir/__/__/mesh/access/src/access_publish.c.obj
                0x000325c4                access_publish_period_get
 .text.bitfield_get
                0x000325e6       0x1a examples/enocean_switch/CMakeFiles/enocean_switch_nrf52832_xxAA_s132_6.0.0.dir/__/__/mesh/access/src/access.c.obj
 .text.is_valid_opcode
                0x00032600       0x42 examples/enocean_switch/CMakeFiles/enocean_switch_nrf52832_xxAA_s132_6.0.0.dir/__/__/mesh/access/src/access.c.obj
 *fill*         0x00032642        0x2 
 .text.model_handle_valid_and_allocated
                0x00032644       0x20 examples/enocean_switch/CMakeFiles/enocean_switch_nrf52832_xxAA_s132_6.0.0.dir/__/__/mesh/access/src/access.c.obj
 .text.flash_manager_mem_available
                0x00032664        0x2 examples/enocean_switch/CMakeFiles/enocean_switch_nrf52832_xxAA_s132_6.0.0.dir/__/__/mesh/access/src/access.c.obj
 *fill*         0x00032666        0x2 
 .text.restore_acquired_subscription
                0x00032668       0x30 examples/enocean_switch/CMakeFiles/enocean_switch_nrf52832_xxAA_s132_6.0.0.dir/__/__/mesh/access/src/access.c.obj
 .text.restore_acquired_element
                0x00032698       0x20 examples/enocean_switch/CMakeFiles/enocean_switch_nrf52832_xxAA_s132_6.0.0.dir/__/__/mesh/access/src/access.c.obj
 .text.restore_flash_data
                0x000326b8       0x50 examples/enocean_switch/CMakeFiles/enocean_switch_nrf52832_xxAA_s132_6.0.0.dir/__/__/mesh/access/src/access.c.obj
 .text.flash_invalidate_complete
                0x00032708        0x6 examples/enocean_switch/CMakeFiles/enocean_switch_nrf52832_xxAA_s132_6.0.0.dir/__/__/mesh/access/src/access.c.obj
 *fill*         0x0003270e        0x2 
 .text.access_flash_config_clear
                0x00032710       0x28 examples/enocean_switch/CMakeFiles/enocean_switch_nrf52832_xxAA_s132_6.0.0.dir/__/__/mesh/access/src/access.c.obj
 .text.access_flash_config_store
                0x00032738      0x150 examples/enocean_switch/CMakeFiles/enocean_switch_nrf52832_xxAA_s132_6.0.0.dir/__/__/mesh/access/src/access.c.obj
                0x00032738                access_flash_config_store
 .text.access_state_clear
                0x00032888       0x4c examples/enocean_switch/CMakeFiles/enocean_switch_nrf52832_xxAA_s132_6.0.0.dir/__/__/mesh/access/src/access.c.obj
 .text.add_flash_manager
                0x000328d4       0x58 examples/enocean_switch/CMakeFiles/enocean_switch_nrf52832_xxAA_s132_6.0.0.dir/__/__/mesh/access/src/access.c.obj
 .text.flash_remove_complete
                0x0003292c       0x64 examples/enocean_switch/CMakeFiles/enocean_switch_nrf52832_xxAA_s132_6.0.0.dir/__/__/mesh/access/src/access.c.obj
 .text.flash_write_complete
                0x00032990       0x46 examples/enocean_switch/CMakeFiles/enocean_switch_nrf52832_xxAA_s132_6.0.0.dir/__/__/mesh/access/src/access.c.obj
 *fill*         0x000329d6        0x2 
 .text.unlikely.bitfield_next_get.part.0.constprop.5
                0x000329d8       0x34 examples/enocean_switch/CMakeFiles/enocean_switch_nrf52832_xxAA_s132_6.0.0.dir/__/__/mesh/access/src/access.c.obj
 .text.packet_tx
                0x00032a0c      0x31c examples/enocean_switch/CMakeFiles/enocean_switch_nrf52832_xxAA_s132_6.0.0.dir/__/__/mesh/access/src/access.c.obj
 .text.restore_acquired_model
                0x00032d28       0x94 examples/enocean_switch/CMakeFiles/enocean_switch_nrf52832_xxAA_s132_6.0.0.dir/__/__/mesh/access/src/access.c.obj
 .text.access_flash_config_load
                0x00032dbc      0x11c examples/enocean_switch/CMakeFiles/enocean_switch_nrf52832_xxAA_s132_6.0.0.dir/__/__/mesh/access/src/access.c.obj
                0x00032dbc                access_flash_config_load
 .text.access_incoming_handle
                0x00032ed8      0x104 examples/enocean_switch/CMakeFiles/enocean_switch_nrf52832_xxAA_s132_6.0.0.dir/__/__/mesh/access/src/access.c.obj
                0x00032ed8                access_incoming_handle
 .text.mesh_evt_cb
                0x00032fdc      0x134 examples/enocean_switch/CMakeFiles/enocean_switch_nrf52832_xxAA_s132_6.0.0.dir/__/__/mesh/access/src/access.c.obj
 .text.access_clear
                0x00033110       0x12 examples/enocean_switch/CMakeFiles/enocean_switch_nrf52832_xxAA_s132_6.0.0.dir/__/__/mesh/access/src/access.c.obj
                0x00033110                access_clear
 *fill*         0x00033122        0x2 
 .text.access_init
                0x00033124       0x2c examples/enocean_switch/CMakeFiles/enocean_switch_nrf52832_xxAA_s132_6.0.0.dir/__/__/mesh/access/src/access.c.obj
                0x00033124                access_init
 .text.access_model_add
                0x00033150      0x1bc examples/enocean_switch/CMakeFiles/enocean_switch_nrf52832_xxAA_s132_6.0.0.dir/__/__/mesh/access/src/access.c.obj
                0x00033150                access_model_add
 .text.access_model_publish
                0x0003330c        0xc examples/enocean_switch/CMakeFiles/enocean_switch_nrf52832_xxAA_s132_6.0.0.dir/__/__/mesh/access/src/access.c.obj
                0x0003330c                access_model_publish
 .text.access_model_reply
                0x00033318       0x12 examples/enocean_switch/CMakeFiles/enocean_switch_nrf52832_xxAA_s132_6.0.0.dir/__/__/mesh/access/src/access.c.obj
                0x00033318                access_model_reply
 *fill*         0x0003332a        0x2 
 .text.access_model_publish_address_set
                0x0003332c       0x3c examples/enocean_switch/CMakeFiles/enocean_switch_nrf52832_xxAA_s132_6.0.0.dir/__/__/mesh/access/src/access.c.obj
                0x0003332c                access_model_publish_address_set
 .text.access_model_publish_address_get
                0x00033368       0x28 examples/enocean_switch/CMakeFiles/enocean_switch_nrf52832_xxAA_s132_6.0.0.dir/__/__/mesh/access/src/access.c.obj
                0x00033368                access_model_publish_address_get
 .text.access_model_publish_retransmit_set
                0x00033390       0x4c examples/enocean_switch/CMakeFiles/enocean_switch_nrf52832_xxAA_s132_6.0.0.dir/__/__/mesh/access/src/access.c.obj
                0x00033390                access_model_publish_retransmit_set
 .text.access_model_publish_retransmit_get
                0x000333dc       0x2c examples/enocean_switch/CMakeFiles/enocean_switch_nrf52832_xxAA_s132_6.0.0.dir/__/__/mesh/access/src/access.c.obj
                0x000333dc                access_model_publish_retransmit_get
 .text.access_model_publish_period_set
                0x00033408       0x6c examples/enocean_switch/CMakeFiles/enocean_switch_nrf52832_xxAA_s132_6.0.0.dir/__/__/mesh/access/src/access.c.obj
                0x00033408                access_model_publish_period_set
 .text.access_model_publish_period_get
                0x00033474       0x3c examples/enocean_switch/CMakeFiles/enocean_switch_nrf52832_xxAA_s132_6.0.0.dir/__/__/mesh/access/src/access.c.obj
                0x00033474                access_model_publish_period_get
 .text.access_model_subscription_list_alloc
                0x000334b0       0x54 examples/enocean_switch/CMakeFiles/enocean_switch_nrf52832_xxAA_s132_6.0.0.dir/__/__/mesh/access/src/access.c.obj
                0x000334b0                access_model_subscription_list_alloc
 .text.access_model_subscription_add
                0x00033504       0x60 examples/enocean_switch/CMakeFiles/enocean_switch_nrf52832_xxAA_s132_6.0.0.dir/__/__/mesh/access/src/access.c.obj
                0x00033504                access_model_subscription_add
 .text.access_model_subscription_remove
                0x00033564       0x60 examples/enocean_switch/CMakeFiles/enocean_switch_nrf52832_xxAA_s132_6.0.0.dir/__/__/mesh/access/src/access.c.obj
                0x00033564                access_model_subscription_remove
 .text.access_model_subscriptions_get
                0x000335c4       0x78 examples/enocean_switch/CMakeFiles/enocean_switch_nrf52832_xxAA_s132_6.0.0.dir/__/__/mesh/access/src/access.c.obj
                0x000335c4                access_model_subscriptions_get
 .text.access_model_application_bind
                0x0003363c       0x50 examples/enocean_switch/CMakeFiles/enocean_switch_nrf52832_xxAA_s132_6.0.0.dir/__/__/mesh/access/src/access.c.obj
                0x0003363c                access_model_application_bind
 .text.access_model_application_unbind
                0x0003368c       0x50 examples/enocean_switch/CMakeFiles/enocean_switch_nrf52832_xxAA_s132_6.0.0.dir/__/__/mesh/access/src/access.c.obj
                0x0003368c                access_model_application_unbind
 .text.access_model_applications_get
                0x000336dc       0x64 examples/enocean_switch/CMakeFiles/enocean_switch_nrf52832_xxAA_s132_6.0.0.dir/__/__/mesh/access/src/access.c.obj
                0x000336dc                access_model_applications_get
 .text.access_model_publish_application_set
                0x00033740       0x3c examples/enocean_switch/CMakeFiles/enocean_switch_nrf52832_xxAA_s132_6.0.0.dir/__/__/mesh/access/src/access.c.obj
                0x00033740                access_model_publish_application_set
 .text.access_model_publish_application_get
                0x0003377c       0x28 examples/enocean_switch/CMakeFiles/enocean_switch_nrf52832_xxAA_s132_6.0.0.dir/__/__/mesh/access/src/access.c.obj
                0x0003377c                access_model_publish_application_get
 .text.access_default_ttl_set
                0x000337a4       0x18 examples/enocean_switch/CMakeFiles/enocean_switch_nrf52832_xxAA_s132_6.0.0.dir/__/__/mesh/access/src/access.c.obj
                0x000337a4                access_default_ttl_set
 .text.access_default_ttl_get
                0x000337bc        0xc examples/enocean_switch/CMakeFiles/enocean_switch_nrf52832_xxAA_s132_6.0.0.dir/__/__/mesh/access/src/access.c.obj
                0x000337bc                access_default_ttl_get
 .text.access_model_publish_ttl_set
                0x000337c8       0x40 examples/enocean_switch/CMakeFiles/enocean_switch_nrf52832_xxAA_s132_6.0.0.dir/__/__/mesh/access/src/access.c.obj
                0x000337c8                access_model_publish_ttl_set
 .text.access_model_publish_ttl_get
                0x00033808       0x28 examples/enocean_switch/CMakeFiles/enocean_switch_nrf52832_xxAA_s132_6.0.0.dir/__/__/mesh/access/src/access.c.obj
                0x00033808                access_model_publish_ttl_get
 .text.access_element_location_get
                0x00033830       0x20 examples/enocean_switch/CMakeFiles/enocean_switch_nrf52832_xxAA_s132_6.0.0.dir/__/__/mesh/access/src/access.c.obj
                0x00033830                access_element_location_get
 .text.access_element_sig_model_count_get
                0x00033850       0x24 examples/enocean_switch/CMakeFiles/enocean_switch_nrf52832_xxAA_s132_6.0.0.dir/__/__/mesh/access/src/access.c.obj
                0x00033850                access_element_sig_model_count_get
 .text.access_element_vendor_model_count_get
                0x00033874       0x24 examples/enocean_switch/CMakeFiles/enocean_switch_nrf52832_xxAA_s132_6.0.0.dir/__/__/mesh/access/src/access.c.obj
                0x00033874                access_element_vendor_model_count_get
 .text.access_model_id_get
                0x00033898       0x2c examples/enocean_switch/CMakeFiles/enocean_switch_nrf52832_xxAA_s132_6.0.0.dir/__/__/mesh/access/src/access.c.obj
                0x00033898                access_model_id_get
 .text.access_handle_get
                0x000338c4       0x50 examples/enocean_switch/CMakeFiles/enocean_switch_nrf52832_xxAA_s132_6.0.0.dir/__/__/mesh/access/src/access.c.obj
                0x000338c4                access_handle_get
 .text.access_element_models_get
                0x00033914       0x50 examples/enocean_switch/CMakeFiles/enocean_switch_nrf52832_xxAA_s132_6.0.0.dir/__/__/mesh/access/src/access.c.obj
                0x00033914                access_element_models_get
 .text.access_model_p_args_get
                0x00033964       0x28 examples/enocean_switch/CMakeFiles/enocean_switch_nrf52832_xxAA_s132_6.0.0.dir/__/__/mesh/access/src/access.c.obj
                0x00033964                access_model_p_args_get
 .text.access_model_publication_stop
                0x0003398c       0x70 examples/enocean_switch/CMakeFiles/enocean_switch_nrf52832_xxAA_s132_6.0.0.dir/__/__/mesh/access/src/access.c.obj
                0x0003398c                access_model_publication_stop
 .text.access_model_publication_by_appkey_stop
                0x000339fc       0x36 examples/enocean_switch/CMakeFiles/enocean_switch_nrf52832_xxAA_s132_6.0.0.dir/__/__/mesh/access/src/access.c.obj
                0x000339fc                access_model_publication_by_appkey_stop
 *fill*         0x00033a32        0x2 
 .text.reliable_timer_cb
                0x00033a34      0x11c examples/enocean_switch/CMakeFiles/enocean_switch_nrf52832_xxAA_s132_6.0.0.dir/__/__/mesh/access/src/access_reliable.c.obj
 .text.remove_and_reschedule
                0x00033b50       0xac examples/enocean_switch/CMakeFiles/enocean_switch_nrf52832_xxAA_s132_6.0.0.dir/__/__/mesh/access/src/access_reliable.c.obj
 .text.access_reliable_message_rx_cb
                0x00033bfc       0x68 examples/enocean_switch/CMakeFiles/enocean_switch_nrf52832_xxAA_s132_6.0.0.dir/__/__/mesh/access/src/access_reliable.c.obj
                0x00033bfc                access_reliable_message_rx_cb
 .text.access_reliable_init
                0x00033c64       0x20 examples/enocean_switch/CMakeFiles/enocean_switch_nrf52832_xxAA_s132_6.0.0.dir/__/__/mesh/access/src/access_reliable.c.obj
                0x00033c64                access_reliable_init
 .text.access_reliable_cancel_all
                0x00033c84       0x60 examples/enocean_switch/CMakeFiles/enocean_switch_nrf52832_xxAA_s132_6.0.0.dir/__/__/mesh/access/src/access_reliable.c.obj
                0x00033c84                access_reliable_cancel_all
 .text.access_model_reliable_cancel
                0x00033ce4       0x68 examples/enocean_switch/CMakeFiles/enocean_switch_nrf52832_xxAA_s132_6.0.0.dir/__/__/mesh/access/src/access_reliable.c.obj
                0x00033ce4                access_model_reliable_cancel
 .text.access_model_reliable_publish
                0x00033d4c      0x1b8 examples/enocean_switch/CMakeFiles/enocean_switch_nrf52832_xxAA_s132_6.0.0.dir/__/__/mesh/access/src/access_reliable.c.obj
                0x00033d4c                access_model_reliable_publish
 .text.access_loopback_process
                0x00033f04       0x28 examples/enocean_switch/CMakeFiles/enocean_switch_nrf52832_xxAA_s132_6.0.0.dir/__/__/mesh/access/src/access_loopback.c.obj
 .text.is_access_loopback
                0x00033f2c        0x4 examples/enocean_switch/CMakeFiles/enocean_switch_nrf52832_xxAA_s132_6.0.0.dir/__/__/mesh/access/src/access_loopback.c.obj
                0x00033f2c                is_access_loopback
 .text.access_loopback_init
                0x00033f30       0x18 examples/enocean_switch/CMakeFiles/enocean_switch_nrf52832_xxAA_s132_6.0.0.dir/__/__/mesh/access/src/access_loopback.c.obj
                0x00033f30                access_loopback_init
 .text.access_loopback_handle
                0x00033f48       0x80 examples/enocean_switch/CMakeFiles/enocean_switch_nrf52832_xxAA_s132_6.0.0.dir/__/__/mesh/access/src/access_loopback.c.obj
                0x00033f48                access_loopback_handle
 .text.bitfield_get
                0x00033fc8       0x1a examples/enocean_switch/CMakeFiles/enocean_switch_nrf52832_xxAA_s132_6.0.0.dir/__/__/mesh/access/src/device_state_manager.c.obj
 .text.bitfield_set
                0x00033fe2       0x18 examples/enocean_switch/CMakeFiles/enocean_switch_nrf52832_xxAA_s132_6.0.0.dir/__/__/mesh/access/src/device_state_manager.c.obj
 .text.bitfield_clear
                0x00033ffa       0x1a examples/enocean_switch/CMakeFiles/enocean_switch_nrf52832_xxAA_s132_6.0.0.dir/__/__/mesh/access/src/device_state_manager.c.obj
 .text.bitfield_is_all_clear
                0x00034014       0x3c examples/enocean_switch/CMakeFiles/enocean_switch_nrf52832_xxAA_s132_6.0.0.dir/__/__/mesh/access/src/device_state_manager.c.obj
 .text.address_handle_virtual_valid
                0x00034050       0x18 examples/enocean_switch/CMakeFiles/enocean_switch_nrf52832_xxAA_s132_6.0.0.dir/__/__/mesh/access/src/device_state_manager.c.obj
 .text.net_key_handle_get
                0x00034068       0x58 examples/enocean_switch/CMakeFiles/enocean_switch_nrf52832_xxAA_s132_6.0.0.dir/__/__/mesh/access/src/device_state_manager.c.obj
 .text.dev_key_handle_get
                0x000340c0       0x30 examples/enocean_switch/CMakeFiles/enocean_switch_nrf52832_xxAA_s132_6.0.0.dir/__/__/mesh/access/src/device_state_manager.c.obj
 .text.app_key_handle_get
                0x000340f0       0x58 examples/enocean_switch/CMakeFiles/enocean_switch_nrf52832_xxAA_s132_6.0.0.dir/__/__/mesh/access/src/device_state_manager.c.obj
 .text.addr_nonvirtual_to_flash_entry
                0x00034148       0x10 examples/enocean_switch/CMakeFiles/enocean_switch_nrf52832_xxAA_s132_6.0.0.dir/__/__/mesh/access/src/device_state_manager.c.obj
 .text.devkey_set
                0x00034158       0x50 examples/enocean_switch/CMakeFiles/enocean_switch_nrf52832_xxAA_s132_6.0.0.dir/__/__/mesh/access/src/device_state_manager.c.obj
 .text.devkey_to_dsm_entry
                0x000341a8       0x18 examples/enocean_switch/CMakeFiles/enocean_switch_nrf52832_xxAA_s132_6.0.0.dir/__/__/mesh/access/src/device_state_manager.c.obj
 .text.devkey_to_flash_entry
                0x000341c0       0x28 examples/enocean_switch/CMakeFiles/enocean_switch_nrf52832_xxAA_s132_6.0.0.dir/__/__/mesh/access/src/device_state_manager.c.obj
 .text.addr_virtual_to_flash_entry
                0x000341e8       0x18 examples/enocean_switch/CMakeFiles/enocean_switch_nrf52832_xxAA_s132_6.0.0.dir/__/__/mesh/access/src/device_state_manager.c.obj
 .text.addr_unicast_to_dsm_entry
                0x00034200        0xc examples/enocean_switch/CMakeFiles/enocean_switch_nrf52832_xxAA_s132_6.0.0.dir/__/__/mesh/access/src/device_state_manager.c.obj
 .text.addr_unicast_to_flash_entry
                0x0003420c       0x10 examples/enocean_switch/CMakeFiles/enocean_switch_nrf52832_xxAA_s132_6.0.0.dir/__/__/mesh/access/src/device_state_manager.c.obj
 .text.flash_mem_listener_callback
                0x0003421c       0x14 examples/enocean_switch/CMakeFiles/enocean_switch_nrf52832_xxAA_s132_6.0.0.dir/__/__/mesh/access/src/device_state_manager.c.obj
 .text.get_subnet_handle
                0x00034230       0x40 examples/enocean_switch/CMakeFiles/enocean_switch_nrf52832_xxAA_s132_6.0.0.dir/__/__/mesh/access/src/device_state_manager.c.obj
 .text.appkey_set
                0x00034270       0x70 examples/enocean_switch/CMakeFiles/enocean_switch_nrf52832_xxAA_s132_6.0.0.dir/__/__/mesh/access/src/device_state_manager.c.obj
 .text.appkey_to_flash_entry
                0x000342e0       0x54 examples/enocean_switch/CMakeFiles/enocean_switch_nrf52832_xxAA_s132_6.0.0.dir/__/__/mesh/access/src/device_state_manager.c.obj
 .text.subnet_to_flash_entry
                0x00034334       0x60 examples/enocean_switch/CMakeFiles/enocean_switch_nrf52832_xxAA_s132_6.0.0.dir/__/__/mesh/access/src/device_state_manager.c.obj
 .text.bitfield_clear_all
                0x00034394        0xe examples/enocean_switch/CMakeFiles/enocean_switch_nrf52832_xxAA_s132_6.0.0.dir/__/__/mesh/access/src/device_state_manager.c.obj
 *fill*         0x000343a2        0x2 
 .text.subnet_set
                0x000343a4       0x98 examples/enocean_switch/CMakeFiles/enocean_switch_nrf52832_xxAA_s132_6.0.0.dir/__/__/mesh/access/src/device_state_manager.c.obj
 .text.virtual_address_set
                0x0003443c       0x4c examples/enocean_switch/CMakeFiles/enocean_switch_nrf52832_xxAA_s132_6.0.0.dir/__/__/mesh/access/src/device_state_manager.c.obj
 .text.addr_virtual_to_dsm_entry
                0x00034488        0xe examples/enocean_switch/CMakeFiles/enocean_switch_nrf52832_xxAA_s132_6.0.0.dir/__/__/mesh/access/src/device_state_manager.c.obj
 *fill*         0x00034496        0x2 
 .text.reset_flash_area
                0x00034498       0x28 examples/enocean_switch/CMakeFiles/enocean_switch_nrf52832_xxAA_s132_6.0.0.dir/__/__/mesh/access/src/device_state_manager.c.obj
 .text.flash_save
                0x000344c0       0x7c examples/enocean_switch/CMakeFiles/enocean_switch_nrf52832_xxAA_s132_6.0.0.dir/__/__/mesh/access/src/device_state_manager.c.obj
 .text.flash_invalidate
                0x0003453c       0x64 examples/enocean_switch/CMakeFiles/enocean_switch_nrf52832_xxAA_s132_6.0.0.dir/__/__/mesh/access/src/device_state_manager.c.obj
 .text.flash_update_all
                0x000345a0       0x6c examples/enocean_switch/CMakeFiles/enocean_switch_nrf52832_xxAA_s132_6.0.0.dir/__/__/mesh/access/src/device_state_manager.c.obj
 .text.virtual_address_uuid_index_get
                0x0003460c       0x60 examples/enocean_switch/CMakeFiles/enocean_switch_nrf52832_xxAA_s132_6.0.0.dir/__/__/mesh/access/src/device_state_manager.c.obj
 .text.add_address_virtual
                0x0003466c       0x74 examples/enocean_switch/CMakeFiles/enocean_switch_nrf52832_xxAA_s132_6.0.0.dir/__/__/mesh/access/src/device_state_manager.c.obj
 .text.get_subnet_handle_by_beacon_info
                0x000346e0       0x30 examples/enocean_switch/CMakeFiles/enocean_switch_nrf52832_xxAA_s132_6.0.0.dir/__/__/mesh/access/src/device_state_manager.c.obj
 .text.get_app_handle
                0x00034710       0x44 examples/enocean_switch/CMakeFiles/enocean_switch_nrf52832_xxAA_s132_6.0.0.dir/__/__/mesh/access/src/device_state_manager.c.obj
 .text.appkey_to_dsm_entry
                0x00034754       0x68 examples/enocean_switch/CMakeFiles/enocean_switch_nrf52832_xxAA_s132_6.0.0.dir/__/__/mesh/access/src/device_state_manager.c.obj
 .text.subnet_to_dsm_entry
                0x000347bc       0x68 examples/enocean_switch/CMakeFiles/enocean_switch_nrf52832_xxAA_s132_6.0.0.dir/__/__/mesh/access/src/device_state_manager.c.obj
 .text.flash_operation_complete
                0x00034824       0x4c examples/enocean_switch/CMakeFiles/enocean_switch_nrf52832_xxAA_s132_6.0.0.dir/__/__/mesh/access/src/device_state_manager.c.obj
 .text.flash_invalidate_complete
                0x00034870        0x8 examples/enocean_switch/CMakeFiles/enocean_switch_nrf52832_xxAA_s132_6.0.0.dir/__/__/mesh/access/src/device_state_manager.c.obj
 .text.flash_write_complete
                0x00034878        0x8 examples/enocean_switch/CMakeFiles/enocean_switch_nrf52832_xxAA_s132_6.0.0.dir/__/__/mesh/access/src/device_state_manager.c.obj
 .text.add_address.part.8
                0x00034880      0x164 examples/enocean_switch/CMakeFiles/enocean_switch_nrf52832_xxAA_s132_6.0.0.dir/__/__/mesh/access/src/device_state_manager.c.obj
 .text.bitfield_next_get.part.0.constprop.17
                0x000349e4       0x3c examples/enocean_switch/CMakeFiles/enocean_switch_nrf52832_xxAA_s132_6.0.0.dir/__/__/mesh/access/src/device_state_manager.c.obj
 .text.address_handle_valid
                0x00034a20       0x28 examples/enocean_switch/CMakeFiles/enocean_switch_nrf52832_xxAA_s132_6.0.0.dir/__/__/mesh/access/src/device_state_manager.c.obj
 .text.address_handle_nonvirtual_valid
                0x00034a48       0x14 examples/enocean_switch/CMakeFiles/enocean_switch_nrf52832_xxAA_s132_6.0.0.dir/__/__/mesh/access/src/device_state_manager.c.obj
 .text.address_delete_if_unused
                0x00034a5c       0x78 examples/enocean_switch/CMakeFiles/enocean_switch_nrf52832_xxAA_s132_6.0.0.dir/__/__/mesh/access/src/device_state_manager.c.obj
 .text.addr_nonvirtual_to_dsm_entry
                0x00034ad4       0x38 examples/enocean_switch/CMakeFiles/enocean_switch_nrf52832_xxAA_s132_6.0.0.dir/__/__/mesh/access/src/device_state_manager.c.obj
 .text.dsm_flash_config_load
                0x00034b0c      0x120 examples/enocean_switch/CMakeFiles/enocean_switch_nrf52832_xxAA_s132_6.0.0.dir/__/__/mesh/access/src/device_state_manager.c.obj
                0x00034b0c                dsm_flash_config_load
 .text.dsm_flash_area_get
                0x00034c2c        0xc examples/enocean_switch/CMakeFiles/enocean_switch_nrf52832_xxAA_s132_6.0.0.dir/__/__/mesh/access/src/device_state_manager.c.obj
                0x00034c2c                dsm_flash_area_get
 .text.build_flash_area
                0x00034c38       0x8c examples/enocean_switch/CMakeFiles/enocean_switch_nrf52832_xxAA_s132_6.0.0.dir/__/__/mesh/access/src/device_state_manager.c.obj
 .text.flash_remove_complete
                0x00034cc4        0x4 examples/enocean_switch/CMakeFiles/enocean_switch_nrf52832_xxAA_s132_6.0.0.dir/__/__/mesh/access/src/device_state_manager.c.obj
 .text.dsm_clear
                0x00034cc8       0xb4 examples/enocean_switch/CMakeFiles/enocean_switch_nrf52832_xxAA_s132_6.0.0.dir/__/__/mesh/access/src/device_state_manager.c.obj
                0x00034cc8                dsm_clear
 .text.dsm_init
                0x00034d7c       0x3c examples/enocean_switch/CMakeFiles/enocean_switch_nrf52832_xxAA_s132_6.0.0.dir/__/__/mesh/access/src/device_state_manager.c.obj
                0x00034d7c                dsm_init
 .text.dsm_local_unicast_addresses_set
                0x00034db8       0x78 examples/enocean_switch/CMakeFiles/enocean_switch_nrf52832_xxAA_s132_6.0.0.dir/__/__/mesh/access/src/device_state_manager.c.obj
                0x00034db8                dsm_local_unicast_addresses_set
 .text.dsm_local_unicast_addresses_get
                0x00034e30       0x20 examples/enocean_switch/CMakeFiles/enocean_switch_nrf52832_xxAA_s132_6.0.0.dir/__/__/mesh/access/src/device_state_manager.c.obj
                0x00034e30                dsm_local_unicast_addresses_get
 .text.dsm_address_publish_add
                0x00034e50        0xc examples/enocean_switch/CMakeFiles/enocean_switch_nrf52832_xxAA_s132_6.0.0.dir/__/__/mesh/access/src/device_state_manager.c.obj
                0x00034e50                dsm_address_publish_add
 .text.dsm_address_publish_add_handle
                0x00034e5c       0x38 examples/enocean_switch/CMakeFiles/enocean_switch_nrf52832_xxAA_s132_6.0.0.dir/__/__/mesh/access/src/device_state_manager.c.obj
                0x00034e5c                dsm_address_publish_add_handle
 .text.dsm_address_publish_virtual_add
                0x00034e94        0x6 examples/enocean_switch/CMakeFiles/enocean_switch_nrf52832_xxAA_s132_6.0.0.dir/__/__/mesh/access/src/device_state_manager.c.obj
                0x00034e94                dsm_address_publish_virtual_add
 *fill*         0x00034e9a        0x2 
 .text.dsm_address_publish_remove
                0x00034e9c       0x44 examples/enocean_switch/CMakeFiles/enocean_switch_nrf52832_xxAA_s132_6.0.0.dir/__/__/mesh/access/src/device_state_manager.c.obj
                0x00034e9c                dsm_address_publish_remove
 .text.dsm_address_subscription_add
                0x00034ee0        0xc examples/enocean_switch/CMakeFiles/enocean_switch_nrf52832_xxAA_s132_6.0.0.dir/__/__/mesh/access/src/device_state_manager.c.obj
                0x00034ee0                dsm_address_subscription_add
 .text.dsm_address_subscription_virtual_add
                0x00034eec        0x6 examples/enocean_switch/CMakeFiles/enocean_switch_nrf52832_xxAA_s132_6.0.0.dir/__/__/mesh/access/src/device_state_manager.c.obj
                0x00034eec                dsm_address_subscription_virtual_add
 *fill*         0x00034ef2        0x2 
 .text.dsm_address_subscription_add_handle
                0x00034ef4       0x38 examples/enocean_switch/CMakeFiles/enocean_switch_nrf52832_xxAA_s132_6.0.0.dir/__/__/mesh/access/src/device_state_manager.c.obj
                0x00034ef4                dsm_address_subscription_add_handle
 .text.dsm_address_get
                0x00034f2c       0x5c examples/enocean_switch/CMakeFiles/enocean_switch_nrf52832_xxAA_s132_6.0.0.dir/__/__/mesh/access/src/device_state_manager.c.obj
                0x00034f2c                dsm_address_get
 .text.dsm_address_subscription_remove
                0x00034f88       0x5c examples/enocean_switch/CMakeFiles/enocean_switch_nrf52832_xxAA_s132_6.0.0.dir/__/__/mesh/access/src/device_state_manager.c.obj
                0x00034f88                dsm_address_subscription_remove
 .text.dsm_address_handle_get
                0x00034fe4       0x98 examples/enocean_switch/CMakeFiles/enocean_switch_nrf52832_xxAA_s132_6.0.0.dir/__/__/mesh/access/src/device_state_manager.c.obj
                0x00034fe4                dsm_address_handle_get
 .text.dsm_net_key_index_to_subnet_handle
                0x0003507c       0x1c examples/enocean_switch/CMakeFiles/enocean_switch_nrf52832_xxAA_s132_6.0.0.dir/__/__/mesh/access/src/device_state_manager.c.obj
                0x0003507c                dsm_net_key_index_to_subnet_handle
 .text.dsm_subnet_handle_get
                0x00035098        0xc examples/enocean_switch/CMakeFiles/enocean_switch_nrf52832_xxAA_s132_6.0.0.dir/__/__/mesh/access/src/device_state_manager.c.obj
                0x00035098                dsm_subnet_handle_get
 .text.dsm_appkey_index_to_appkey_handle
                0x000350a4       0x1c examples/enocean_switch/CMakeFiles/enocean_switch_nrf52832_xxAA_s132_6.0.0.dir/__/__/mesh/access/src/device_state_manager.c.obj
                0x000350a4                dsm_appkey_index_to_appkey_handle
 .text.dsm_appkey_handle_get
                0x000350c0        0xc examples/enocean_switch/CMakeFiles/enocean_switch_nrf52832_xxAA_s132_6.0.0.dir/__/__/mesh/access/src/device_state_manager.c.obj
                0x000350c0                dsm_appkey_handle_get
 .text.dsm_appkey_handle_to_appkey_index
                0x000350cc       0x34 examples/enocean_switch/CMakeFiles/enocean_switch_nrf52832_xxAA_s132_6.0.0.dir/__/__/mesh/access/src/device_state_manager.c.obj
                0x000350cc                dsm_appkey_handle_to_appkey_index
 .text.dsm_appkey_handle_to_subnet_handle
                0x00035100       0xa0 examples/enocean_switch/CMakeFiles/enocean_switch_nrf52832_xxAA_s132_6.0.0.dir/__/__/mesh/access/src/device_state_manager.c.obj
                0x00035100                dsm_appkey_handle_to_subnet_handle
 .text.dsm_subnet_add
                0x000351a0       0x78 examples/enocean_switch/CMakeFiles/enocean_switch_nrf52832_xxAA_s132_6.0.0.dir/__/__/mesh/access/src/device_state_manager.c.obj
                0x000351a0                dsm_subnet_add
 .text.dsm_subnet_kr_phase_get
                0x00035218       0x34 examples/enocean_switch/CMakeFiles/enocean_switch_nrf52832_xxAA_s132_6.0.0.dir/__/__/mesh/access/src/device_state_manager.c.obj
                0x00035218                dsm_subnet_kr_phase_get
 .text.dsm_subnet_update
                0x0003524c       0xc8 examples/enocean_switch/CMakeFiles/enocean_switch_nrf52832_xxAA_s132_6.0.0.dir/__/__/mesh/access/src/device_state_manager.c.obj
                0x0003524c                dsm_subnet_update
 .text.dsm_subnet_update_swap_keys
                0x00035314       0x5c examples/enocean_switch/CMakeFiles/enocean_switch_nrf52832_xxAA_s132_6.0.0.dir/__/__/mesh/access/src/device_state_manager.c.obj
                0x00035314                dsm_subnet_update_swap_keys
 .text.dsm_subnet_update_commit
                0x00035370       0xf4 examples/enocean_switch/CMakeFiles/enocean_switch_nrf52832_xxAA_s132_6.0.0.dir/__/__/mesh/access/src/device_state_manager.c.obj
                0x00035370                dsm_subnet_update_commit
 .text.mesh_evt_handler
                0x00035464       0x4c examples/enocean_switch/CMakeFiles/enocean_switch_nrf52832_xxAA_s132_6.0.0.dir/__/__/mesh/access/src/device_state_manager.c.obj
 .text.dsm_subnet_get_all
                0x000354b0       0x60 examples/enocean_switch/CMakeFiles/enocean_switch_nrf52832_xxAA_s132_6.0.0.dir/__/__/mesh/access/src/device_state_manager.c.obj
                0x000354b0                dsm_subnet_get_all
 .text.dsm_devkey_add
                0x00035510       0x7c examples/enocean_switch/CMakeFiles/enocean_switch_nrf52832_xxAA_s132_6.0.0.dir/__/__/mesh/access/src/device_state_manager.c.obj
                0x00035510                dsm_devkey_add
 .text.dsm_appkey_add
                0x0003558c       0x90 examples/enocean_switch/CMakeFiles/enocean_switch_nrf52832_xxAA_s132_6.0.0.dir/__/__/mesh/access/src/device_state_manager.c.obj
                0x0003558c                dsm_appkey_add
 .text.dsm_appkey_update
                0x0003561c       0xa4 examples/enocean_switch/CMakeFiles/enocean_switch_nrf52832_xxAA_s132_6.0.0.dir/__/__/mesh/access/src/device_state_manager.c.obj
                0x0003561c                dsm_appkey_update
 .text.dsm_appkey_delete
                0x000356c0       0x30 examples/enocean_switch/CMakeFiles/enocean_switch_nrf52832_xxAA_s132_6.0.0.dir/__/__/mesh/access/src/device_state_manager.c.obj
                0x000356c0                dsm_appkey_delete
 .text.dsm_subnet_delete
                0x000356f0       0xac examples/enocean_switch/CMakeFiles/enocean_switch_nrf52832_xxAA_s132_6.0.0.dir/__/__/mesh/access/src/device_state_manager.c.obj
                0x000356f0                dsm_subnet_delete
 .text.dsm_appkey_get_all
                0x0003579c       0x88 examples/enocean_switch/CMakeFiles/enocean_switch_nrf52832_xxAA_s132_6.0.0.dir/__/__/mesh/access/src/device_state_manager.c.obj
                0x0003579c                dsm_appkey_get_all
 .text.dsm_tx_secmat_get
                0x00035824       0xc4 examples/enocean_switch/CMakeFiles/enocean_switch_nrf52832_xxAA_s132_6.0.0.dir/__/__/mesh/access/src/device_state_manager.c.obj
                0x00035824                dsm_tx_secmat_get
 .text.dsm_net_secmat_from_keyindex_get
                0x000358e8       0x3c examples/enocean_switch/CMakeFiles/enocean_switch_nrf52832_xxAA_s132_6.0.0.dir/__/__/mesh/access/src/device_state_manager.c.obj
                0x000358e8                dsm_net_secmat_from_keyindex_get
 .text.nrf_mesh_net_secmat_next_get
                0x00035924       0xb4 examples/enocean_switch/CMakeFiles/enocean_switch_nrf52832_xxAA_s132_6.0.0.dir/__/__/mesh/access/src/device_state_manager.c.obj
                0x00035924                nrf_mesh_net_secmat_next_get
 .text.nrf_mesh_app_secmat_next_get
                0x000359d8       0x88 examples/enocean_switch/CMakeFiles/enocean_switch_nrf52832_xxAA_s132_6.0.0.dir/__/__/mesh/access/src/device_state_manager.c.obj
                0x000359d8                nrf_mesh_app_secmat_next_get
 .text.nrf_mesh_devkey_secmat_get
                0x00035a60       0x28 examples/enocean_switch/CMakeFiles/enocean_switch_nrf52832_xxAA_s132_6.0.0.dir/__/__/mesh/access/src/device_state_manager.c.obj
                0x00035a60                nrf_mesh_devkey_secmat_get
 .text.nrf_mesh_beacon_info_next_get
                0x00035a88       0xd4 examples/enocean_switch/CMakeFiles/enocean_switch_nrf52832_xxAA_s132_6.0.0.dir/__/__/mesh/access/src/device_state_manager.c.obj
                0x00035a88                nrf_mesh_beacon_info_next_get
 .text.nrf_mesh_rx_address_get
                0x00035b5c      0x14c examples/enocean_switch/CMakeFiles/enocean_switch_nrf52832_xxAA_s132_6.0.0.dir/__/__/mesh/access/src/device_state_manager.c.obj
                0x00035b5c                nrf_mesh_rx_address_get
 .text.dsm_address_is_rx
                0x00035ca8       0x48 examples/enocean_switch/CMakeFiles/enocean_switch_nrf52832_xxAA_s132_6.0.0.dir/__/__/mesh/access/src/device_state_manager.c.obj
                0x00035ca8                dsm_address_is_rx
 .text.nrf_mesh_unicast_address_get
                0x00035cf0       0x20 examples/enocean_switch/CMakeFiles/enocean_switch_nrf52832_xxAA_s132_6.0.0.dir/__/__/mesh/access/src/device_state_manager.c.obj
                0x00035cf0                nrf_mesh_unicast_address_get
 .text.complete_provisioning
                0x00035d10       0x24 examples/enocean_switch/CMakeFiles/enocean_switch_nrf52832_xxAA_s132_6.0.0.dir/__/__/mesh/prov/src/prov_provisionee.c.obj
 .text.prov_provisionee_cb_link_established
                0x00035d34       0x36 examples/enocean_switch/CMakeFiles/enocean_switch_nrf52832_xxAA_s132_6.0.0.dir/__/__/mesh/prov/src/prov_provisionee.c.obj
 .text.prov_provisionee_cb_link_closed
                0x00035d6a       0x34 examples/enocean_switch/CMakeFiles/enocean_switch_nrf52832_xxAA_s132_6.0.0.dir/__/__/mesh/prov/src/prov_provisionee.c.obj
 .text.request_authentication
                0x00035d9e       0x8a examples/enocean_switch/CMakeFiles/enocean_switch_nrf52832_xxAA_s132_6.0.0.dir/__/__/mesh/prov/src/prov_provisionee.c.obj
 .text.send_failed
                0x00035e28       0x3a examples/enocean_switch/CMakeFiles/enocean_switch_nrf52832_xxAA_s132_6.0.0.dir/__/__/mesh/prov/src/prov_provisionee.c.obj
 .text.start_authentication
                0x00035e62       0x52 examples/enocean_switch/CMakeFiles/enocean_switch_nrf52832_xxAA_s132_6.0.0.dir/__/__/mesh/prov/src/prov_provisionee.c.obj
 .text.prov_provisionee_cb_ack_received
                0x00035eb4       0xc8 examples/enocean_switch/CMakeFiles/enocean_switch_nrf52832_xxAA_s132_6.0.0.dir/__/__/mesh/prov/src/prov_provisionee.c.obj
 .text.prov_provisionee_pkt_in
                0x00035f7c      0x2f0 examples/enocean_switch/CMakeFiles/enocean_switch_nrf52832_xxAA_s132_6.0.0.dir/__/__/mesh/prov/src/prov_provisionee.c.obj
 .text.prov_provisionee_listen
                0x0003626c       0x30 examples/enocean_switch/CMakeFiles/enocean_switch_nrf52832_xxAA_s132_6.0.0.dir/__/__/mesh/prov/src/prov_provisionee.c.obj
                0x0003626c                prov_provisionee_listen
 .text.prov_provisionee_auth_data
                0x0003629c       0x98 examples/enocean_switch/CMakeFiles/enocean_switch_nrf52832_xxAA_s132_6.0.0.dir/__/__/mesh/prov/src/prov_provisionee.c.obj
                0x0003629c                prov_provisionee_auth_data
 .text.bearer_compare_callback
                0x00036334        0xc examples/enocean_switch/CMakeFiles/enocean_switch_nrf52832_xxAA_s132_6.0.0.dir/__/__/mesh/prov/src/nrf_mesh_prov.c.obj
 .text.bitfield_next_get.part.0.constprop.4
                0x00036340       0x34 examples/enocean_switch/CMakeFiles/enocean_switch_nrf52832_xxAA_s132_6.0.0.dir/__/__/mesh/prov/src/nrf_mesh_prov.c.obj
 .text.nrf_mesh_prov_init
                0x00036374       0x32 examples/enocean_switch/CMakeFiles/enocean_switch_nrf52832_xxAA_s132_6.0.0.dir/__/__/mesh/prov/src/nrf_mesh_prov.c.obj
                0x00036374                nrf_mesh_prov_init
 *fill*         0x000363a6        0x2 
 .text.nrf_mesh_prov_bearer_add
                0x000363a8       0x28 examples/enocean_switch/CMakeFiles/enocean_switch_nrf52832_xxAA_s132_6.0.0.dir/__/__/mesh/prov/src/nrf_mesh_prov.c.obj
                0x000363a8                nrf_mesh_prov_bearer_add
 .text.nrf_mesh_prov_generate_keys
                0x000363d0        0x4 examples/enocean_switch/CMakeFiles/enocean_switch_nrf52832_xxAA_s132_6.0.0.dir/__/__/mesh/prov/src/nrf_mesh_prov.c.obj
                0x000363d0                nrf_mesh_prov_generate_keys
 .text.nrf_mesh_prov_listen_stop
                0x000363d4       0x2e examples/enocean_switch/CMakeFiles/enocean_switch_nrf52832_xxAA_s132_6.0.0.dir/__/__/mesh/prov/src/nrf_mesh_prov.c.obj
                0x000363d4                nrf_mesh_prov_listen_stop
 .text.nrf_mesh_prov_listen
                0x00036402       0x88 examples/enocean_switch/CMakeFiles/enocean_switch_nrf52832_xxAA_s132_6.0.0.dir/__/__/mesh/prov/src/nrf_mesh_prov.c.obj
                0x00036402                nrf_mesh_prov_listen
 .text.nrf_mesh_prov_auth_data_provide
                0x0003648a        0xe examples/enocean_switch/CMakeFiles/enocean_switch_nrf52832_xxAA_s132_6.0.0.dir/__/__/mesh/prov/src/nrf_mesh_prov.c.obj
                0x0003648a                nrf_mesh_prov_auth_data_provide
 .text.send_data
                0x00036498       0x28 examples/enocean_switch/CMakeFiles/enocean_switch_nrf52832_xxAA_s132_6.0.0.dir/__/__/mesh/prov/src/provisioning.c.obj
 .text.prov_packet_length_valid
                0x000364c0       0x1c examples/enocean_switch/CMakeFiles/enocean_switch_nrf52832_xxAA_s132_6.0.0.dir/__/__/mesh/prov/src/provisioning.c.obj
                0x000364c0                prov_packet_length_valid
 .text.prov_tx_capabilities
                0x000364dc       0x1e examples/enocean_switch/CMakeFiles/enocean_switch_nrf52832_xxAA_s132_6.0.0.dir/__/__/mesh/prov/src/provisioning.c.obj
                0x000364dc                prov_tx_capabilities
 .text.prov_tx_public_key
                0x000364fa       0x26 examples/enocean_switch/CMakeFiles/enocean_switch_nrf52832_xxAA_s132_6.0.0.dir/__/__/mesh/prov/src/provisioning.c.obj
                0x000364fa                prov_tx_public_key
 .text.prov_tx_input_complete
                0x00036520       0x16 examples/enocean_switch/CMakeFiles/enocean_switch_nrf52832_xxAA_s132_6.0.0.dir/__/__/mesh/prov/src/provisioning.c.obj
                0x00036520                prov_tx_input_complete
 .text.prov_tx_confirmation
                0x00036536       0x26 examples/enocean_switch/CMakeFiles/enocean_switch_nrf52832_xxAA_s132_6.0.0.dir/__/__/mesh/prov/src/provisioning.c.obj
                0x00036536                prov_tx_confirmation
 .text.prov_tx_random
                0x0003655c       0x26 examples/enocean_switch/CMakeFiles/enocean_switch_nrf52832_xxAA_s132_6.0.0.dir/__/__/mesh/prov/src/provisioning.c.obj
                0x0003655c                prov_tx_random
 .text.prov_tx_complete
                0x00036582       0x16 examples/enocean_switch/CMakeFiles/enocean_switch_nrf52832_xxAA_s132_6.0.0.dir/__/__/mesh/prov/src/provisioning.c.obj
                0x00036582                prov_tx_complete
 .text.prov_tx_failed
                0x00036598       0x1a examples/enocean_switch/CMakeFiles/enocean_switch_nrf52832_xxAA_s132_6.0.0.dir/__/__/mesh/prov/src/provisioning.c.obj
                0x00036598                prov_tx_failed
 .text.prov_beacon_unprov_build
                0x000365b2       0x54 examples/enocean_switch/CMakeFiles/enocean_switch_nrf52832_xxAA_s132_6.0.0.dir/__/__/mesh/prov/src/prov_beacon.c.obj
                0x000365b2                prov_beacon_unprov_build
 *fill*         0x00036606        0x2 
 .text.prov_beacon_unprov_packet_in
                0x00036608       0x88 examples/enocean_switch/CMakeFiles/enocean_switch_nrf52832_xxAA_s132_6.0.0.dir/__/__/mesh/prov/src/prov_beacon.c.obj
                0x00036608                prov_beacon_unprov_packet_in
 .text.oob_gen_alphanumeric
                0x00036690       0x34 examples/enocean_switch/CMakeFiles/enocean_switch_nrf52832_xxAA_s132_6.0.0.dir/__/__/mesh/prov/src/prov_utils.c.obj
 .text.oob_gen_numeric
                0x000366c4       0x3c examples/enocean_switch/CMakeFiles/enocean_switch_nrf52832_xxAA_s132_6.0.0.dir/__/__/mesh/prov/src/prov_utils.c.obj
 .text.prov_utils_opt_set
                0x00036700       0x20 examples/enocean_switch/CMakeFiles/enocean_switch_nrf52832_xxAA_s132_6.0.0.dir/__/__/mesh/prov/src/prov_utils.c.obj
                0x00036700                prov_utils_opt_set
 .text.prov_utils_opt_get
                0x00036720       0x1c examples/enocean_switch/CMakeFiles/enocean_switch_nrf52832_xxAA_s132_6.0.0.dir/__/__/mesh/prov/src/prov_utils.c.obj
                0x00036720                prov_utils_opt_get
 .text.prov_utils_use_ecdh_offloading
                0x0003673c        0xc examples/enocean_switch/CMakeFiles/enocean_switch_nrf52832_xxAA_s132_6.0.0.dir/__/__/mesh/prov/src/prov_utils.c.obj
                0x0003673c                prov_utils_use_ecdh_offloading
 .text.prov_utils_authentication_values_derive
                0x00036748       0xa0 examples/enocean_switch/CMakeFiles/enocean_switch_nrf52832_xxAA_s132_6.0.0.dir/__/__/mesh/prov/src/prov_utils.c.obj
                0x00036748                prov_utils_authentication_values_derive
 .text.prov_utils_keys_generate
                0x000367e8       0x1e examples/enocean_switch/CMakeFiles/enocean_switch_nrf52832_xxAA_s132_6.0.0.dir/__/__/mesh/prov/src/prov_utils.c.obj
                0x000367e8                prov_utils_keys_generate
 *fill*         0x00036806        0x2 
 .text.prov_utils_derive_keys
                0x00036808       0xac examples/enocean_switch/CMakeFiles/enocean_switch_nrf52832_xxAA_s132_6.0.0.dir/__/__/mesh/prov/src/prov_utils.c.obj
                0x00036808                prov_utils_derive_keys
 .text.prov_utils_calculate_shared_secret
                0x000368b4       0x36 examples/enocean_switch/CMakeFiles/enocean_switch_nrf52832_xxAA_s132_6.0.0.dir/__/__/mesh/prov/src/prov_utils.c.obj
                0x000368b4                prov_utils_calculate_shared_secret
 .text.prov_utils_generate_oob_data
                0x000368ea       0x8a examples/enocean_switch/CMakeFiles/enocean_switch_nrf52832_xxAA_s132_6.0.0.dir/__/__/mesh/prov/src/prov_utils.c.obj
                0x000368ea                prov_utils_generate_oob_data
 .text.prov_utils_confirmation_check
                0x00036974       0x5c examples/enocean_switch/CMakeFiles/enocean_switch_nrf52832_xxAA_s132_6.0.0.dir/__/__/mesh/prov/src/prov_utils.c.obj
                0x00036974                prov_utils_confirmation_check
 .text.link_timeout_cb
                0x000369d0       0x10 examples/enocean_switch/CMakeFiles/enocean_switch_nrf52832_xxAA_s132_6.0.0.dir/__/__/mesh/prov/src/prov_bearer_adv.c.obj
 .text.remove_active_bearer
                0x000369e0       0x4c examples/enocean_switch/CMakeFiles/enocean_switch_nrf52832_xxAA_s132_6.0.0.dir/__/__/mesh/prov/src/prov_bearer_adv.c.obj
 .text.close_link
                0x00036a2c       0x58 examples/enocean_switch/CMakeFiles/enocean_switch_nrf52832_xxAA_s132_6.0.0.dir/__/__/mesh/prov/src/prov_bearer_adv.c.obj
 .text.prov_bearer_adv_listen_stop
                0x00036a84       0x30 examples/enocean_switch/CMakeFiles/enocean_switch_nrf52832_xxAA_s132_6.0.0.dir/__/__/mesh/prov/src/prov_bearer_adv.c.obj
 .text.send_packet
                0x00036ab4       0x5e examples/enocean_switch/CMakeFiles/enocean_switch_nrf52832_xxAA_s132_6.0.0.dir/__/__/mesh/prov/src/prov_bearer_adv.c.obj
 .text.prov_buffer_tx
                0x00036b12      0x134 examples/enocean_switch/CMakeFiles/enocean_switch_nrf52832_xxAA_s132_6.0.0.dir/__/__/mesh/prov/src/prov_bearer_adv.c.obj
 .text.send_link_close
                0x00036c46       0x38 examples/enocean_switch/CMakeFiles/enocean_switch_nrf52832_xxAA_s132_6.0.0.dir/__/__/mesh/prov/src/prov_bearer_adv.c.obj
 .text.prov_bearer_adv_link_close
                0x00036c7e       0x56 examples/enocean_switch/CMakeFiles/enocean_switch_nrf52832_xxAA_s132_6.0.0.dir/__/__/mesh/prov/src/prov_bearer_adv.c.obj
 .text.send_transaction_ack
                0x00036cd4       0x24 examples/enocean_switch/CMakeFiles/enocean_switch_nrf52832_xxAA_s132_6.0.0.dir/__/__/mesh/prov/src/prov_bearer_adv.c.obj
 .text.send_link_ack
                0x00036cf8       0x32 examples/enocean_switch/CMakeFiles/enocean_switch_nrf52832_xxAA_s132_6.0.0.dir/__/__/mesh/prov/src/prov_bearer_adv.c.obj
 .text.reset_timeout_timer
                0x00036d2a       0x1a examples/enocean_switch/CMakeFiles/enocean_switch_nrf52832_xxAA_s132_6.0.0.dir/__/__/mesh/prov/src/prov_bearer_adv.c.obj
 .text.tx_complete_cb
                0x00036d44       0x1c examples/enocean_switch/CMakeFiles/enocean_switch_nrf52832_xxAA_s132_6.0.0.dir/__/__/mesh/prov/src/prov_bearer_adv.c.obj
 .text.tx_retry_cb
                0x00036d60       0xcc examples/enocean_switch/CMakeFiles/enocean_switch_nrf52832_xxAA_s132_6.0.0.dir/__/__/mesh/prov/src/prov_bearer_adv.c.obj
 .text.add_active_bearer
                0x00036e2c       0x80 examples/enocean_switch/CMakeFiles/enocean_switch_nrf52832_xxAA_s132_6.0.0.dir/__/__/mesh/prov/src/prov_bearer_adv.c.obj
 .text.prov_bearer_adv_link_open
                0x00036eac       0xec examples/enocean_switch/CMakeFiles/enocean_switch_nrf52832_xxAA_s132_6.0.0.dir/__/__/mesh/prov/src/prov_bearer_adv.c.obj
 .text.async_process
                0x00036f98       0x50 examples/enocean_switch/CMakeFiles/enocean_switch_nrf52832_xxAA_s132_6.0.0.dir/__/__/mesh/prov/src/prov_bearer_adv.c.obj
 .text.prov_bearer_adv_listen
                0x00036fe8       0xd8 examples/enocean_switch/CMakeFiles/enocean_switch_nrf52832_xxAA_s132_6.0.0.dir/__/__/mesh/prov/src/prov_bearer_adv.c.obj
 .text.calculate_3GPP_CRC
                0x000370c0       0x24 examples/enocean_switch/CMakeFiles/enocean_switch_nrf52832_xxAA_s132_6.0.0.dir/__/__/mesh/prov/src/prov_bearer_adv.c.obj
                0x000370c0                calculate_3GPP_CRC
 .text.prov_bearer_adv_tx
                0x000370e4       0xb4 examples/enocean_switch/CMakeFiles/enocean_switch_nrf52832_xxAA_s132_6.0.0.dir/__/__/mesh/prov/src/prov_bearer_adv.c.obj
 .text.prov_buffer_rx
                0x00037198       0x6e examples/enocean_switch/CMakeFiles/enocean_switch_nrf52832_xxAA_s132_6.0.0.dir/__/__/mesh/prov/src/prov_bearer_adv.c.obj
 *fill*         0x00037206        0x2 
 .text.nrf_mesh_prov_bearer_adv_interface_get
                0x00037208       0x3c examples/enocean_switch/CMakeFiles/enocean_switch_nrf52832_xxAA_s132_6.0.0.dir/__/__/mesh/prov/src/prov_bearer_adv.c.obj
                0x00037208                nrf_mesh_prov_bearer_adv_interface_get
 .text.prov_bearer_adv_packet_in
                0x00037244      0x7f8 examples/enocean_switch/CMakeFiles/enocean_switch_nrf52832_xxAA_s132_6.0.0.dir/__/__/mesh/prov/src/prov_bearer_adv.c.obj
                0x00037244                prov_bearer_adv_packet_in
 .text.errata_57
                0x00037a3c       0x34 examples/enocean_switch/CMakeFiles/enocean_switch_nrf52832_xxAA_s132_6.0.0.dir/C_/b/nRF5_SDK_15.0.0_a53641a/modules/nrfx/mdk/system_nrf52.c.obj
 .text.errata_136
                0x00037a70       0x40 examples/enocean_switch/CMakeFiles/enocean_switch_nrf52832_xxAA_s132_6.0.0.dir/C_/b/nRF5_SDK_15.0.0_a53641a/modules/nrfx/mdk/system_nrf52.c.obj
 .text.SystemInit
                0x00037ab0      0x264 examples/enocean_switch/CMakeFiles/enocean_switch_nrf52832_xxAA_s132_6.0.0.dir/C_/b/nRF5_SDK_15.0.0_a53641a/modules/nrfx/mdk/system_nrf52.c.obj
                0x00037ab0                SystemInit
 .text          0x00037d14       0x3c examples/enocean_switch/CMakeFiles/enocean_switch_nrf52832_xxAA_s132_6.0.0.dir/C_/b/nRF5_SDK_15.0.0_a53641a/modules/nrfx/mdk/gcc_startup_nrf52.S.obj
                0x00037d14                Reset_Handler
                0x00037d3c                NMI_Handler
                0x00037d3e                HardFault_Handler
                0x00037d40                MemoryManagement_Handler
                0x00037d42                BusFault_Handler
                0x00037d44                UsageFault_Handler
                0x00037d46                SVC_Handler
                0x00037d48                DebugMon_Handler
                0x00037d4a                PendSV_Handler
                0x00037d4c                SysTick_Handler
                0x00037d4e                TEMP_IRQHandler
                0x00037d4e                TIMER3_IRQHandler
                0x00037d4e                FPU_IRQHandler
                0x00037d4e                SPIM0_SPIS0_TWIM0_TWIS0_SPI0_TWI0_IRQHandler
                0x00037d4e                POWER_CLOCK_IRQHandler
                0x00037d4e                PDM_IRQHandler
                0x00037d4e                TIMER4_IRQHandler
                0x00037d4e                I2S_IRQHandler
                0x00037d4e                SWI4_EGU4_IRQHandler
                0x00037d4e                TIMER0_IRQHandler
                0x00037d4e                RTC0_IRQHandler
                0x00037d4e                UARTE0_UART0_IRQHandler
                0x00037d4e                PWM2_IRQHandler
                0x00037d4e                ECB_IRQHandler
                0x00037d4e                SPIM1_SPIS1_TWIM1_TWIS1_SPI1_TWI1_IRQHandler
                0x00037d4e                Default_Handler
                0x00037d4e                SAADC_IRQHandler
                0x00037d4e                CCM_AAR_IRQHandler
                0x00037d4e                WDT_IRQHandler
                0x00037d4e                RADIO_IRQHandler
                0x00037d4e                SWI5_EGU5_IRQHandler
                0x00037d4e                RNG_IRQHandler
                0x00037d4e                RTC2_IRQHandler
                0x00037d4e                PWM0_IRQHandler
                0x00037d4e                SWI3_EGU3_IRQHandler
                0x00037d4e                SWI1_EGU1_IRQHandler
                0x00037d4e                SPIM2_SPIS2_SPI2_IRQHandler
                0x00037d4e                NFCT_IRQHandler
                0x00037d4e                TIMER1_IRQHandler
                0x00037d4e                MWU_IRQHandler
                0x00037d4e                PWM1_IRQHandler
                0x00037d4e                COMP_LPCOMP_IRQHandler
 .text.app_error_handler_bare
                0x00037d50       0x1a examples/enocean_switch/CMakeFiles/enocean_switch_nrf52832_xxAA_s132_6.0.0.dir/C_/b/nRF5_SDK_15.0.0_a53641a/components/libraries/util/app_error.c.obj
                0x00037d50                app_error_handler_bare
 *fill*         0x00037d6a        0x2 
 .text.app_util_critical_region_enter
                0x00037d6c       0x48 examples/enocean_switch/CMakeFiles/enocean_switch_nrf52832_xxAA_s132_6.0.0.dir/C_/b/nRF5_SDK_15.0.0_a53641a/components/libraries/util/app_util_platform.c.obj
                0x00037d6c                app_util_critical_region_enter
 .text.app_util_critical_region_exit
                0x00037db4       0x2c examples/enocean_switch/CMakeFiles/enocean_switch_nrf52832_xxAA_s132_6.0.0.dir/C_/b/nRF5_SDK_15.0.0_a53641a/components/libraries/util/app_util_platform.c.obj
                0x00037db4                app_util_critical_region_exit
 .text.user_op_alloc
                0x00037de0       0x2c examples/enocean_switch/CMakeFiles/enocean_switch_nrf52832_xxAA_s132_6.0.0.dir/C_/b/nRF5_SDK_15.0.0_a53641a/components/libraries/timer/app_timer.c.obj
 .text.timer_stop_op_schedule
                0x00037e0c       0x50 examples/enocean_switch/CMakeFiles/enocean_switch_nrf52832_xxAA_s132_6.0.0.dir/C_/b/nRF5_SDK_15.0.0_a53641a/components/libraries/timer/app_timer.c.obj
 .text.nrfx_coredep_delay_us.part.0.constprop.4
                0x00037e5c       0x10 examples/enocean_switch/CMakeFiles/enocean_switch_nrf52832_xxAA_s132_6.0.0.dir/C_/b/nRF5_SDK_15.0.0_a53641a/components/libraries/timer/app_timer.c.obj
 .text.rtc1_stop
                0x00037e6c       0x44 examples/enocean_switch/CMakeFiles/enocean_switch_nrf52832_xxAA_s132_6.0.0.dir/C_/b/nRF5_SDK_15.0.0_a53641a/components/libraries/timer/app_timer.c.obj
 .text.RTC1_IRQHandler
                0x00037eb0       0x9c examples/enocean_switch/CMakeFiles/enocean_switch_nrf52832_xxAA_s132_6.0.0.dir/C_/b/nRF5_SDK_15.0.0_a53641a/components/libraries/timer/app_timer.c.obj
                0x00037eb0                RTC1_IRQHandler
 .text.SWI0_EGU0_IRQHandler
                0x00037f4c      0x2a4 examples/enocean_switch/CMakeFiles/enocean_switch_nrf52832_xxAA_s132_6.0.0.dir/C_/b/nRF5_SDK_15.0.0_a53641a/components/libraries/timer/app_timer.c.obj
                0x00037f4c                SWI0_EGU0_IRQHandler
 .text.app_timer_init
                0x000381f0       0x64 examples/enocean_switch/CMakeFiles/enocean_switch_nrf52832_xxAA_s132_6.0.0.dir/C_/b/nRF5_SDK_15.0.0_a53641a/components/libraries/timer/app_timer.c.obj
                0x000381f0                app_timer_init
 .text.app_timer_create
                0x00038254       0x24 examples/enocean_switch/CMakeFiles/enocean_switch_nrf52832_xxAA_s132_6.0.0.dir/C_/b/nRF5_SDK_15.0.0_a53641a/components/libraries/timer/app_timer.c.obj
                0x00038254                app_timer_create
 .text.app_timer_start
                0x00038278       0x8c examples/enocean_switch/CMakeFiles/enocean_switch_nrf52832_xxAA_s132_6.0.0.dir/C_/b/nRF5_SDK_15.0.0_a53641a/components/libraries/timer/app_timer.c.obj
                0x00038278                app_timer_start
 .text.app_timer_stop
                0x00038304       0x20 examples/enocean_switch/CMakeFiles/enocean_switch_nrf52832_xxAA_s132_6.0.0.dir/C_/b/nRF5_SDK_15.0.0_a53641a/components/libraries/timer/app_timer.c.obj
                0x00038304                app_timer_stop
 .text.app_error_handler
                0x00038324       0x1a examples/enocean_switch/CMakeFiles/enocean_switch_nrf52832_xxAA_s132_6.0.0.dir/C_/b/nRF5_SDK_15.0.0_a53641a/components/libraries/util/app_error_handler_gcc.c.obj
                0x00038324                app_error_handler
 .text._GetAvailWriteSpace
                0x0003833e       0x1c external/rtt/librtt_nrf52832_xxAA.a(SEGGER_RTT.c.obj)
 .text._WriteNoCheck
                0x0003835a       0x3c external/rtt/librtt_nrf52832_xxAA.a(SEGGER_RTT.c.obj)
 .text._WriteBlocking
                0x00038396       0x52 external/rtt/librtt_nrf52832_xxAA.a(SEGGER_RTT.c.obj)
 .text._DoInit  0x000383e8       0x60 external/rtt/librtt_nrf52832_xxAA.a(SEGGER_RTT.c.obj)
 .text.SEGGER_RTT_ReadNoLock
                0x00038448       0x88 external/rtt/librtt_nrf52832_xxAA.a(SEGGER_RTT.c.obj)
                0x00038448                SEGGER_RTT_ReadNoLock
 .text.SEGGER_RTT_Read
                0x000384d0       0x1c external/rtt/librtt_nrf52832_xxAA.a(SEGGER_RTT.c.obj)
                0x000384d0                SEGGER_RTT_Read
 .text.SEGGER_RTT_WriteNoLock
                0x000384ec       0x68 external/rtt/librtt_nrf52832_xxAA.a(SEGGER_RTT.c.obj)
                0x000384ec                SEGGER_RTT_WriteNoLock
 .text.SEGGER_RTT_Write
                0x00038554       0x34 external/rtt/librtt_nrf52832_xxAA.a(SEGGER_RTT.c.obj)
                0x00038554                SEGGER_RTT_Write
 .text.SEGGER_RTT_GetKey
                0x00038588       0x20 external/rtt/librtt_nrf52832_xxAA.a(SEGGER_RTT.c.obj)
                0x00038588                SEGGER_RTT_GetKey
 .text._StoreChar
                0x000385a8       0x3e external/rtt/librtt_nrf52832_xxAA.a(SEGGER_RTT_printf.c.obj)
 *fill*         0x000385e6        0x2 
 .text._PrintUnsigned
                0x000385e8       0xd0 external/rtt/librtt_nrf52832_xxAA.a(SEGGER_RTT_printf.c.obj)
 .text.SEGGER_RTT_vprintf
                0x000386b8      0x246 external/rtt/librtt_nrf52832_xxAA.a(SEGGER_RTT_printf.c.obj)
                0x000386b8                SEGGER_RTT_vprintf
 .text.SEGGER_RTT_printf
                0x000388fe       0x1e external/rtt/librtt_nrf52832_xxAA.a(SEGGER_RTT_printf.c.obj)
                0x000388fe                SEGGER_RTT_printf
 .text.uECC_vli_mult
                0x0003891c       0x64 external/micro-ecc/libuECC_nrf52832_xxAA.a(uECC.c.obj)
 .text.uECC_vli_clear
                0x00038980       0x16 external/micro-ecc/libuECC_nrf52832_xxAA.a(uECC.c.obj)
 .text.uECC_vli_isZero
                0x00038996       0x1e external/micro-ecc/libuECC_nrf52832_xxAA.a(uECC.c.obj)
 .text.uECC_vli_testBit
                0x000389b4       0x14 external/micro-ecc/libuECC_nrf52832_xxAA.a(uECC.c.obj)
 .text.uECC_vli_numBits
                0x000389c8       0x3a external/micro-ecc/libuECC_nrf52832_xxAA.a(uECC.c.obj)
 .text.uECC_vli_set
                0x00038a02       0x18 external/micro-ecc/libuECC_nrf52832_xxAA.a(uECC.c.obj)
 .text.uECC_vli_cmp_unsafe
                0x00038a1a       0x28 external/micro-ecc/libuECC_nrf52832_xxAA.a(uECC.c.obj)
 .text.uECC_vli_rshift1
                0x00038a42       0x1c external/micro-ecc/libuECC_nrf52832_xxAA.a(uECC.c.obj)
 .text.uECC_vli_modMult_fast
                0x00038a5e       0x20 external/micro-ecc/libuECC_nrf52832_xxAA.a(uECC.c.obj)
 .text.uECC_vli_modSquare_fast
                0x00038a7e        0x8 external/micro-ecc/libuECC_nrf52832_xxAA.a(uECC.c.obj)
 .text.apply_z  0x00038a86       0x3e external/micro-ecc/libuECC_nrf52832_xxAA.a(uECC.c.obj)
 .text.uECC_vli_nativeToBytes
                0x00038ac4       0x28 external/micro-ecc/libuECC_nrf52832_xxAA.a(uECC.c.obj)
 .text.uECC_vli_bytesToNative
                0x00038aec       0x40 external/micro-ecc/libuECC_nrf52832_xxAA.a(uECC.c.obj)
 .text.default_RNG
                0x00038b2c        0xc external/micro-ecc/libuECC_nrf52832_xxAA.a(uECC.c.obj)
 .text.uECC_vli_add.isra.0
                0x00038b38       0x4a external/micro-ecc/libuECC_nrf52832_xxAA.a(uECC.c.obj)
 .text.regularize_k
                0x00038b82       0x50 external/micro-ecc/libuECC_nrf52832_xxAA.a(uECC.c.obj)
 .text.uECC_vli_sub.isra.1
                0x00038bd2       0x4e external/micro-ecc/libuECC_nrf52832_xxAA.a(uECC.c.obj)
 .text.uECC_vli_cmp
                0x00038c20       0x30 external/micro-ecc/libuECC_nrf52832_xxAA.a(uECC.c.obj)
 .text.uECC_generate_random_int
                0x00038c50       0x78 external/micro-ecc/libuECC_nrf52832_xxAA.a(uECC.c.obj)
 .text.uECC_vli_modAdd
                0x00038cc8       0x2e external/micro-ecc/libuECC_nrf52832_xxAA.a(uECC.c.obj)
 *fill*         0x00038cf6        0x2 
 .text.vli_mmod_fast_secp256r1
                0x00038cf8      0x194 external/micro-ecc/libuECC_nrf52832_xxAA.a(uECC.c.obj)
 .text.uECC_vli_modSub.isra.2
                0x00038e8c       0x1c external/micro-ecc/libuECC_nrf52832_xxAA.a(uECC.c.obj)
 .text.double_jacobian_default
                0x00038ea8      0x14a external/micro-ecc/libuECC_nrf52832_xxAA.a(uECC.c.obj)
 .text.x_side_default
                0x00038ff2       0x5a external/micro-ecc/libuECC_nrf52832_xxAA.a(uECC.c.obj)
 .text.XYcZ_add
                0x0003904c       0xbc external/micro-ecc/libuECC_nrf52832_xxAA.a(uECC.c.obj)
 .text.XYcZ_addC
                0x00039108      0x10a external/micro-ecc/libuECC_nrf52832_xxAA.a(uECC.c.obj)
 .text.vli_modInv_update
                0x00039212       0x36 external/micro-ecc/libuECC_nrf52832_xxAA.a(uECC.c.obj)
 .text.uECC_vli_modInv
                0x00039248      0x102 external/micro-ecc/libuECC_nrf52832_xxAA.a(uECC.c.obj)
 .text.EccPoint_mult
                0x0003934a      0x19e external/micro-ecc/libuECC_nrf52832_xxAA.a(uECC.c.obj)
 .text.EccPoint_compute_public_key
                0x000394e8       0x54 external/micro-ecc/libuECC_nrf52832_xxAA.a(uECC.c.obj)
 .text.uECC_secp256r1
                0x0003953c        0x8 external/micro-ecc/libuECC_nrf52832_xxAA.a(uECC.c.obj)
                0x0003953c                uECC_secp256r1
 .text.uECC_make_key
                0x00039544       0x7e external/micro-ecc/libuECC_nrf52832_xxAA.a(uECC.c.obj)
                0x00039544                uECC_make_key
 *fill*         0x000395c2        0x2 
 .text.uECC_shared_secret
                0x000395c4       0xbc external/micro-ecc/libuECC_nrf52832_xxAA.a(uECC.c.obj)
                0x000395c4                uECC_shared_secret
 .text.uECC_valid_point
                0x00039680       0x86 external/micro-ecc/libuECC_nrf52832_xxAA.a(uECC.c.obj)
                0x00039680                uECC_valid_point
 .text.uECC_valid_public_key
                0x00039706       0x32 external/micro-ecc/libuECC_nrf52832_xxAA.a(uECC.c.obj)
                0x00039706                uECC_valid_public_key
 .text          0x00039738       0x30 c:/mesh/arm_gcc/bin/../lib/gcc/arm-none-eabi/6.3.1/thumb/v7e-m/fpv4-sp/hard\libgcc.a(_aeabi_uldivmod.o)
                0x00039738                __aeabi_uldivmod
 .text          0x00039768      0x2dc c:/mesh/arm_gcc/bin/../lib/gcc/arm-none-eabi/6.3.1/thumb/v7e-m/fpv4-sp/hard\libgcc.a(_udivmoddi4.o)
                0x00039768                __udivmoddi4
 .text          0x00039a44        0x4 c:/mesh/arm_gcc/bin/../lib/gcc/arm-none-eabi/6.3.1/thumb/v7e-m/fpv4-sp/hard\libgcc.a(_dvmd_tls.o)
                0x00039a44                __aeabi_idiv0
                0x00039a44                __aeabi_ldiv0
 .text.exit     0x00039a48       0x28 c:/mesh/arm_gcc/bin/../lib/gcc/arm-none-eabi/6.3.1/../../../../arm-none-eabi/lib/thumb/v7e-m/fpv4-sp/hard\libg_nano.a(lib_a-exit.o)
                0x00039a48                exit
 .text.__libc_init_array
                0x00039a70       0x48 c:/mesh/arm_gcc/bin/../lib/gcc/arm-none-eabi/6.3.1/../../../../arm-none-eabi/lib/thumb/v7e-m/fpv4-sp/hard\libg_nano.a(lib_a-init.o)
                0x00039a70                __libc_init_array
 .text.malloc   0x00039ab8       0x10 c:/mesh/arm_gcc/bin/../lib/gcc/arm-none-eabi/6.3.1/../../../../arm-none-eabi/lib/thumb/v7e-m/fpv4-sp/hard\libg_nano.a(lib_a-malloc.o)
                0x00039ab8                malloc
 .text.free     0x00039ac8       0x10 c:/mesh/arm_gcc/bin/../lib/gcc/arm-none-eabi/6.3.1/../../../../arm-none-eabi/lib/thumb/v7e-m/fpv4-sp/hard\libg_nano.a(lib_a-malloc.o)
                0x00039ac8                free
 .text.memcmp   0x00039ad8       0x1e c:/mesh/arm_gcc/bin/../lib/gcc/arm-none-eabi/6.3.1/../../../../arm-none-eabi/lib/thumb/v7e-m/fpv4-sp/hard\libg_nano.a(lib_a-memcmp.o)
                0x00039ad8                memcmp
 .text.memcpy   0x00039af6       0x16 c:/mesh/arm_gcc/bin/../lib/gcc/arm-none-eabi/6.3.1/../../../../arm-none-eabi/lib/thumb/v7e-m/fpv4-sp/hard\libg_nano.a(lib_a-memcpy-stub.o)
                0x00039af6                memcpy
 .text.memset   0x00039b0c       0x10 c:/mesh/arm_gcc/bin/../lib/gcc/arm-none-eabi/6.3.1/../../../../arm-none-eabi/lib/thumb/v7e-m/fpv4-sp/hard\libg_nano.a(lib_a-memset.o)
                0x00039b0c                memset
 .text._free_r  0x00039b1c       0x9c c:/mesh/arm_gcc/bin/../lib/gcc/arm-none-eabi/6.3.1/../../../../arm-none-eabi/lib/thumb/v7e-m/fpv4-sp/hard\libg_nano.a(lib_a-nano-freer.o)
                0x00039b1c                _free_r
 .text._malloc_r
                0x00039bb8       0xbc c:/mesh/arm_gcc/bin/../lib/gcc/arm-none-eabi/6.3.1/../../../../arm-none-eabi/lib/thumb/v7e-m/fpv4-sp/hard\libg_nano.a(lib_a-nano-mallocr.o)
                0x00039bb8                _malloc_r
 .text._sbrk_r  0x00039c74       0x20 c:/mesh/arm_gcc/bin/../lib/gcc/arm-none-eabi/6.3.1/../../../../arm-none-eabi/lib/thumb/v7e-m/fpv4-sp/hard\libg_nano.a(lib_a-sbrkr.o)
                0x00039c74                _sbrk_r
 .text.strcpy   0x00039c94       0x10 c:/mesh/arm_gcc/bin/../lib/gcc/arm-none-eabi/6.3.1/../../../../arm-none-eabi/lib/thumb/v7e-m/fpv4-sp/hard\libg_nano.a(lib_a-strcpy.o)
                0x00039c94                strcpy
 .text          0x00039ca4       0x10 c:/mesh/arm_gcc/bin/../lib/gcc/arm-none-eabi/6.3.1/../../../../arm-none-eabi/lib/thumb/v7e-m/fpv4-sp/hard\libg_nano.a(lib_a-strlen.o)
                0x00039ca4                strlen
 .text.strrchr  0x00039cb4       0x26 c:/mesh/arm_gcc/bin/../lib/gcc/arm-none-eabi/6.3.1/../../../../arm-none-eabi/lib/thumb/v7e-m/fpv4-sp/hard\libg_nano.a(lib_a-strrchr.o)
                0x00039cb4                strrchr
 .text.__malloc_lock
                0x00039cda        0x2 c:/mesh/arm_gcc/bin/../lib/gcc/arm-none-eabi/6.3.1/../../../../arm-none-eabi/lib/thumb/v7e-m/fpv4-sp/hard\libg_nano.a(lib_a-mlock.o)
                0x00039cda                __malloc_lock
 .text.__malloc_unlock
                0x00039cdc        0x2 c:/mesh/arm_gcc/bin/../lib/gcc/arm-none-eabi/6.3.1/../../../../arm-none-eabi/lib/thumb/v7e-m/fpv4-sp/hard\libg_nano.a(lib_a-mlock.o)
                0x00039cdc                __malloc_unlock
 .text.strchr   0x00039cde       0x1c c:/mesh/arm_gcc/bin/../lib/gcc/arm-none-eabi/6.3.1/../../../../arm-none-eabi/lib/thumb/v7e-m/fpv4-sp/hard\libg_nano.a(lib_a-strchr.o)
                0x00039cde                strchr
 *fill*         0x00039cfa        0x2 
 .text._sbrk    0x00039cfc       0x1c c:/mesh/arm_gcc/bin/../lib/gcc/arm-none-eabi/6.3.1/../../../../arm-none-eabi/lib/thumb/v7e-m/fpv4-sp/hard\libnosys.a(sbrk.o)
                0x00039cfc                _sbrk
 .text._exit    0x00039d18        0x4 c:/mesh/arm_gcc/bin/../lib/gcc/arm-none-eabi/6.3.1/../../../../arm-none-eabi/lib/thumb/v7e-m/fpv4-sp/hard\libnosys.a(_exit.o)
                0x00039d18                _exit
 *(.init)
 .init          0x00039d1c        0x4 c:/mesh/arm_gcc/bin/../lib/gcc/arm-none-eabi/6.3.1/thumb/v7e-m/fpv4-sp/hard/crti.o
                0x00039d1c                _init
 .init          0x00039d20        0x8 c:/mesh/arm_gcc/bin/../lib/gcc/arm-none-eabi/6.3.1/thumb/v7e-m/fpv4-sp/hard/crtn.o
 *(.fini)
 .fini          0x00039d28        0x4 c:/mesh/arm_gcc/bin/../lib/gcc/arm-none-eabi/6.3.1/thumb/v7e-m/fpv4-sp/hard/crti.o
                0x00039d28                _fini
 .fini          0x00039d2c        0x8 c:/mesh/arm_gcc/bin/../lib/gcc/arm-none-eabi/6.3.1/thumb/v7e-m/fpv4-sp/hard/crtn.o
 *crtbegin.o(.ctors)
 *crtbegin?.o(.ctors)
 *(EXCLUDE_FILE(*crtend.o *crtend?.o) .ctors)
 *(SORT(.ctors.*))
 *(.ctors)
 *crtbegin.o(.dtors)
 *crtbegin?.o(.dtors)
 *(EXCLUDE_FILE(*crtend.o *crtend?.o) .dtors)
 *(SORT(.dtors.*))
 *(.dtors)
 *(.rodata*)
 .rodata        0x00039d34       0x1c examples/enocean_switch/CMakeFiles/enocean_switch_nrf52832_xxAA_s132_6.0.0.dir/src/main.c.obj
 .rodata.app_data_store_try.str1.1
                0x00039d50       0x8b examples/enocean_switch/CMakeFiles/enocean_switch_nrf52832_xxAA_s132_6.0.0.dir/src/main.c.obj
 .rodata.app_enocean_cb.str1.1
                0x00039ddb       0x8e examples/enocean_switch/CMakeFiles/enocean_switch_nrf52832_xxAA_s132_6.0.0.dir/src/main.c.obj
 .rodata.app_mesh_core_event_cb.str1.1
                0x00039e69       0x56 examples/enocean_switch/CMakeFiles/enocean_switch_nrf52832_xxAA_s132_6.0.0.dir/src/main.c.obj
 .rodata.button_event_handler.str1.1
                0x00039ebf       0x13 examples/enocean_switch/CMakeFiles/enocean_switch_nrf52832_xxAA_s132_6.0.0.dir/src/main.c.obj
 .rodata.client_status_cb.str1.1
                0x00039ed2       0x2f examples/enocean_switch/CMakeFiles/enocean_switch_nrf52832_xxAA_s132_6.0.0.dir/src/main.c.obj
 .rodata.main.str1.1
                0x00039f01       0x4a examples/enocean_switch/CMakeFiles/enocean_switch_nrf52832_xxAA_s132_6.0.0.dir/src/main.c.obj
 .rodata.models_init_cb.str1.1
                0x00039f4b       0x20 examples/enocean_switch/CMakeFiles/enocean_switch_nrf52832_xxAA_s132_6.0.0.dir/src/main.c.obj
 .rodata.node_reset.str1.1
                0x00039f6b       0x19 examples/enocean_switch/CMakeFiles/enocean_switch_nrf52832_xxAA_s132_6.0.0.dir/src/main.c.obj
 .rodata.provisioning_complete_cb.str1.1
                0x00039f84       0x57 examples/enocean_switch/CMakeFiles/enocean_switch_nrf52832_xxAA_s132_6.0.0.dir/src/main.c.obj
 .rodata.static_auth_data.12665
                0x00039fdb       0x10 examples/enocean_switch/CMakeFiles/enocean_switch_nrf52832_xxAA_s132_6.0.0.dir/src/main.c.obj
 .rodata.enocean_packet_process.str1.1
                0x00039feb       0x45 examples/enocean_switch/CMakeFiles/enocean_switch_nrf52832_xxAA_s132_6.0.0.dir/src/enocean.c.obj
 .rodata.app_flash_data_store.str1.1
                0x0003a030        0xe examples/enocean_switch/CMakeFiles/enocean_switch_nrf52832_xxAA_s132_6.0.0.dir/src/flash_helper.c.obj
 .rodata.app_flash_init.str1.1
                0x0003a03e       0x2a examples/enocean_switch/CMakeFiles/enocean_switch_nrf52832_xxAA_s132_6.0.0.dir/src/flash_helper.c.obj
 .rodata.flash_manager_mem_available.str1.1
                0x0003a068       0x43 examples/enocean_switch/CMakeFiles/enocean_switch_nrf52832_xxAA_s132_6.0.0.dir/src/flash_helper.c.obj
 .rodata.flash_remove_complete.str1.1
                0x0003a0ab       0x17 examples/enocean_switch/CMakeFiles/enocean_switch_nrf52832_xxAA_s132_6.0.0.dir/src/flash_helper.c.obj
 .rodata.flash_reset.str1.1
                0x0003a0c2        0xf examples/enocean_switch/CMakeFiles/enocean_switch_nrf52832_xxAA_s132_6.0.0.dir/src/flash_helper.c.obj
 .rodata.flash_write_complete.str1.1
                0x0003a0d1       0x16 examples/enocean_switch/CMakeFiles/enocean_switch_nrf52832_xxAA_s132_6.0.0.dir/src/flash_helper.c.obj
 .rodata.mesh_softdevice_init.str1.1
                0x0003a0e7       0x94 examples/enocean_switch/CMakeFiles/enocean_switch_nrf52832_xxAA_s132_6.0.0.dir/__/common/src/mesh_softdevice_init.c.obj
 .rodata        0x0003a17b        0xb examples/enocean_switch/CMakeFiles/enocean_switch_nrf52832_xxAA_s132_6.0.0.dir/__/common/src/mesh_provisionee.c.obj
 *fill*         0x0003a186        0x2 
 .rodata.m_rtt_timer
                0x0003a188        0x4 examples/enocean_switch/CMakeFiles/enocean_switch_nrf52832_xxAA_s132_6.0.0.dir/__/common/src/rtt_input.c.obj
 .rodata.rtt_input_enable.str1.1
                0x0003a18c       0x23 examples/enocean_switch/CMakeFiles/enocean_switch_nrf52832_xxAA_s132_6.0.0.dir/__/common/src/rtt_input.c.obj
 *fill*         0x0003a1af        0x1 
 .rodata.m_blink_timer
                0x0003a1b0        0x4 examples/enocean_switch/CMakeFiles/enocean_switch_nrf52832_xxAA_s132_6.0.0.dir/__/common/src/simple_hal.c.obj
 .rodata.m_buttons_list
                0x0003a1b4        0x4 examples/enocean_switch/CMakeFiles/enocean_switch_nrf52832_xxAA_s132_6.0.0.dir/__/common/src/simple_hal.c.obj
 .rodata.app_error_fault_handler.str1.1
                0x0003a1b8       0xbd examples/enocean_switch/CMakeFiles/enocean_switch_nrf52832_xxAA_s132_6.0.0.dir/__/common/src/app_error_weak.c.obj
 .rodata.mesh_assertion_handler.str1.1
                0x0003a275       0xbd examples/enocean_switch/CMakeFiles/enocean_switch_nrf52832_xxAA_s132_6.0.0.dir/__/common/src/assertion_handler_weak.c.obj
                                  0x1 (size before relaxing)
 .rodata.sar_ctx_cancel.str1.1
                0x0003a275       0x23 examples/enocean_switch/CMakeFiles/enocean_switch_nrf52832_xxAA_s132_6.0.0.dir/__/__/mesh/core/src/transport.c.obj
 .rodata.test_transport_decrypt.str1.1
                0x0003a298       0x30 examples/enocean_switch/CMakeFiles/enocean_switch_nrf52832_xxAA_s132_6.0.0.dir/__/__/mesh/core/src/transport.c.obj
 .rodata.transport_packet_in.str1.1
                0x0003a2c8       0x24 examples/enocean_switch/CMakeFiles/enocean_switch_nrf52832_xxAA_s132_6.0.0.dir/__/__/mesh/core/src/transport.c.obj
 .rodata.upper_transport_access_packet_in.str1.1
                0x0003a2ec       0x29 examples/enocean_switch/CMakeFiles/enocean_switch_nrf52832_xxAA_s132_6.0.0.dir/__/__/mesh/core/src/transport.c.obj
 .rodata.upper_transport_packet_in.str1.1
                0x0003a315       0x2e examples/enocean_switch/CMakeFiles/enocean_switch_nrf52832_xxAA_s132_6.0.0.dir/__/__/mesh/core/src/transport.c.obj
 .rodata.upper_transport_tx.str1.1
                0x0003a343        0xe examples/enocean_switch/CMakeFiles/enocean_switch_nrf52832_xxAA_s132_6.0.0.dir/__/__/mesh/core/src/transport.c.obj
                                 0x16 (size before relaxing)
 *fill*         0x0003a351        0x3 
 .rodata.m_procedure_steps
                0x0003a354       0x28 examples/enocean_switch/CMakeFiles/enocean_switch_nrf52832_xxAA_s132_6.0.0.dir/__/__/mesh/core/src/flash_manager_defrag.c.obj
 .rodata.m_all_operations
                0x0003a37c       0x10 examples/enocean_switch/CMakeFiles/enocean_switch_nrf52832_xxAA_s132_6.0.0.dir/__/__/mesh/core/src/mesh_flash.c.obj
 .rodata.types_lookup.9061
                0x0003a38c        0x4 examples/enocean_switch/CMakeFiles/enocean_switch_nrf52832_xxAA_s132_6.0.0.dir/__/__/mesh/core/src/nrf_mesh_utils.c.obj
 .rodata.__func__.11554
                0x0003a390       0x15 examples/enocean_switch/CMakeFiles/enocean_switch_nrf52832_xxAA_s132_6.0.0.dir/__/__/mesh/core/src/nrf_mesh.c.obj
 .rodata.nrf_mesh_listen.str1.1
                0x0003a3a5       0x70 examples/enocean_switch/CMakeFiles/enocean_switch_nrf52832_xxAA_s132_6.0.0.dir/__/__/mesh/core/src/nrf_mesh.c.obj
 .rodata.nrf_mesh_packet_send.str1.1
                0x0003a415       0x70 examples/enocean_switch/CMakeFiles/enocean_switch_nrf52832_xxAA_s132_6.0.0.dir/__/__/mesh/core/src/nrf_mesh.c.obj
                                  0x4 (size before relaxing)
 *fill*         0x0003a415        0x1 
 .rodata.CSWTCH.8
                0x0003a416       0x10 examples/enocean_switch/CMakeFiles/enocean_switch_nrf52832_xxAA_s132_6.0.0.dir/__/__/mesh/core/src/hal.c.obj
 .rodata        0x0003a426       0x15 examples/enocean_switch/CMakeFiles/enocean_switch_nrf52832_xxAA_s132_6.0.0.dir/__/__/mesh/core/src/enc.c.obj
 .rodata.network_packet_in.str1.1
                0x0003a43b       0x48 examples/enocean_switch/CMakeFiles/enocean_switch_nrf52832_xxAA_s132_6.0.0.dir/__/__/mesh/core/src/network.c.obj
 .rodata.net_packet_decrypt.str1.1
                0x0003a483       0x31 examples/enocean_switch/CMakeFiles/enocean_switch_nrf52832_xxAA_s132_6.0.0.dir/__/__/mesh/core/src/net_packet.c.obj
                                 0x39 (size before relaxing)
 .rodata        0x0003a4b4        0x7 examples/enocean_switch/CMakeFiles/enocean_switch_nrf52832_xxAA_s132_6.0.0.dir/__/__/mesh/core/src/nrf_mesh_keygen.c.obj
 .rodata.log_callback_rtt.str1.1
                0x0003a4bb       0x15 examples/enocean_switch/CMakeFiles/enocean_switch_nrf52832_xxAA_s132_6.0.0.dir/__/__/mesh/core/src/log.c.obj
 .rodata.str1.1
                0x0003a4d0       0x11 examples/enocean_switch/CMakeFiles/enocean_switch_nrf52832_xxAA_s132_6.0.0.dir/__/__/mesh/core/src/log.c.obj
 *fill*         0x0003a4e1        0x3 
 .rodata.INVALID_HEADER
                0x0003a4e4        0x4 examples/enocean_switch/CMakeFiles/enocean_switch_nrf52832_xxAA_s132_6.0.0.dir/__/__/mesh/core/src/flash_manager.c.obj
                0x0003a4e4                INVALID_HEADER
 .rodata.PADDING_HEADER
                0x0003a4e8        0x4 examples/enocean_switch/CMakeFiles/enocean_switch_nrf52832_xxAA_s132_6.0.0.dir/__/__/mesh/core/src/flash_manager.c.obj
                0x0003a4e8                PADDING_HEADER
 .rodata.SEAL_HEADER
                0x0003a4ec        0x4 examples/enocean_switch/CMakeFiles/enocean_switch_nrf52832_xxAA_s132_6.0.0.dir/__/__/mesh/core/src/flash_manager.c.obj
                0x0003a4ec                SEAL_HEADER
 .rodata.beacon_packet_in.str1.1
                0x0003a4f0       0x51 examples/enocean_switch/CMakeFiles/enocean_switch_nrf52832_xxAA_s132_6.0.0.dir/__/__/mesh/core/src/beacon.c.obj
                                 0x59 (size before relaxing)
 *fill*         0x0003a541        0x3 
 .rodata.cp_handler
                0x0003a544        0x8 examples/enocean_switch/CMakeFiles/enocean_switch_nrf52832_xxAA_s132_6.0.0.dir/__/__/mesh/core/src/heartbeat.c.obj
 .rodata.beacon_tx.str1.1
                0x0003a54c       0x35 examples/enocean_switch/CMakeFiles/enocean_switch_nrf52832_xxAA_s132_6.0.0.dir/__/__/mesh/core/src/net_beacon.c.obj
 .rodata.net_beacon_init.str1.1
                0x0003a581        0x5 examples/enocean_switch/CMakeFiles/enocean_switch_nrf52832_xxAA_s132_6.0.0.dir/__/__/mesh/core/src/net_beacon.c.obj
 *fill*         0x0003a586        0x2 
 .rodata.m_interface
                0x0003a588        0xc examples/enocean_switch/CMakeFiles/enocean_switch_nrf52832_xxAA_s132_6.0.0.dir/__/__/mesh/core/src/core_tx_adv.c.obj
 .rodata.radio_mode_to_us_per_byte.9470
                0x0003a594        0x6 examples/enocean_switch/CMakeFiles/enocean_switch_nrf52832_xxAA_s132_6.0.0.dir/__/__/mesh/bearer/src/broadcast.c.obj
 .rodata.channel_rf_offsets.8695
                0x0003a59a       0x28 examples/enocean_switch/CMakeFiles/enocean_switch_nrf52832_xxAA_s132_6.0.0.dir/__/__/mesh/bearer/src/radio_config.c.obj
 .rodata        0x0003a5c2        0x3 examples/enocean_switch/CMakeFiles/enocean_switch_nrf52832_xxAA_s132_6.0.0.dir/__/__/mesh/bearer/src/scanner.c.obj
 *fill*         0x0003a5c5        0x3 
 .rodata.m_opcode_handlers
                0x0003a5c8        0x8 examples/enocean_switch/CMakeFiles/enocean_switch_nrf52832_xxAA_s132_6.0.0.dir/__/__/models/simple_on_off/src/simple_on_off_client.c.obj
 .rodata        0x0003a5d0        0x8 examples/enocean_switch/CMakeFiles/enocean_switch_nrf52832_xxAA_s132_6.0.0.dir/__/__/models/config/src/config_server.c.obj
 .rodata.CSWTCH.123
                0x0003a5d8       0x10 examples/enocean_switch/CMakeFiles/enocean_switch_nrf52832_xxAA_s132_6.0.0.dir/__/__/models/config/src/config_server.c.obj
 .rodata.opcode_handlers
                0x0003a5e8      0x170 examples/enocean_switch/CMakeFiles/enocean_switch_nrf52832_xxAA_s132_6.0.0.dir/__/__/models/config/src/config_server.c.obj
 .rodata.m_opcode_handlers
                0x0003a758       0x58 examples/enocean_switch/CMakeFiles/enocean_switch_nrf52832_xxAA_s132_6.0.0.dir/__/__/models/health/src/health_server.c.obj
 .rodata.multiply_de_bruijn_bit_position.9311
                0x0003a7b0       0x20 examples/enocean_switch/CMakeFiles/enocean_switch_nrf52832_xxAA_s132_6.0.0.dir/__/__/models/health/src/health_server.c.obj
 .rodata.mesh_evt_cb.str1.1
                0x0003a7d0       0x13 examples/enocean_switch/CMakeFiles/enocean_switch_nrf52832_xxAA_s132_6.0.0.dir/__/__/mesh/access/src/access.c.obj
 .rodata.multiply_de_bruijn_bit_position.9267
                0x0003a7e3       0x20 examples/enocean_switch/CMakeFiles/enocean_switch_nrf52832_xxAA_s132_6.0.0.dir/__/__/mesh/access/src/access.c.obj
 .rodata.packet_tx.str1.1
                0x0003a803       0x38 examples/enocean_switch/CMakeFiles/enocean_switch_nrf52832_xxAA_s132_6.0.0.dir/__/__/mesh/access/src/access.c.obj
                                 0x40 (size before relaxing)
 *fill*         0x0003a83b        0x1 
 .rodata.m_flash_groups
                0x0003a83c       0xa8 examples/enocean_switch/CMakeFiles/enocean_switch_nrf52832_xxAA_s132_6.0.0.dir/__/__/mesh/access/src/device_state_manager.c.obj
 .rodata.multiply_de_bruijn_bit_position.9373
                0x0003a8e4       0x20 examples/enocean_switch/CMakeFiles/enocean_switch_nrf52832_xxAA_s132_6.0.0.dir/__/__/mesh/access/src/device_state_manager.c.obj
 .rodata.m_prov_callbacks
                0x0003a904       0x10 examples/enocean_switch/CMakeFiles/enocean_switch_nrf52832_xxAA_s132_6.0.0.dir/__/__/mesh/prov/src/prov_provisionee.c.obj
 .rodata.prov_provisionee_cb_ack_received.str1.1
                0x0003a914       0x53 examples/enocean_switch/CMakeFiles/enocean_switch_nrf52832_xxAA_s132_6.0.0.dir/__/__/mesh/prov/src/prov_provisionee.c.obj
 .rodata.multiply_de_bruijn_bit_position.9315
                0x0003a967       0x20 examples/enocean_switch/CMakeFiles/enocean_switch_nrf52832_xxAA_s132_6.0.0.dir/__/__/mesh/prov/src/nrf_mesh_prov.c.obj
 .rodata.pdu_sizes.11248
                0x0003a987        0xa examples/enocean_switch/CMakeFiles/enocean_switch_nrf52832_xxAA_s132_6.0.0.dir/__/__/mesh/prov/src/provisioning.c.obj
 .rodata.alphanumeric.11353
                0x0003a991       0x25 examples/enocean_switch/CMakeFiles/enocean_switch_nrf52832_xxAA_s132_6.0.0.dir/__/__/mesh/prov/src/prov_utils.c.obj
 *fill*         0x0003a9b6        0x2 
 .rodata.numeric_max.11347
                0x0003a9b8       0x24 examples/enocean_switch/CMakeFiles/enocean_switch_nrf52832_xxAA_s132_6.0.0.dir/__/__/mesh/prov/src/prov_utils.c.obj
 .rodata.prov_utils_authentication_values_derive.str1.1
                0x0003a9dc        0x5 examples/enocean_switch/CMakeFiles/enocean_switch_nrf52832_xxAA_s132_6.0.0.dir/__/__/mesh/prov/src/prov_utils.c.obj
 .rodata.prov_utils_derive_keys.str1.1
                0x0003a9e1        0xf examples/enocean_switch/CMakeFiles/enocean_switch_nrf52832_xxAA_s132_6.0.0.dir/__/__/mesh/prov/src/prov_utils.c.obj
 .rodata.add_active_bearer.str1.1
                0x0003a9f0       0x2c examples/enocean_switch/CMakeFiles/enocean_switch_nrf52832_xxAA_s132_6.0.0.dir/__/__/mesh/prov/src/prov_bearer_adv.c.obj
 .rodata.crctable.10980
                0x0003aa1c      0x100 examples/enocean_switch/CMakeFiles/enocean_switch_nrf52832_xxAA_s132_6.0.0.dir/__/__/mesh/prov/src/prov_bearer_adv.c.obj
 .rodata.interface.11210
                0x0003ab1c       0x14 examples/enocean_switch/CMakeFiles/enocean_switch_nrf52832_xxAA_s132_6.0.0.dir/__/__/mesh/prov/src/prov_bearer_adv.c.obj
 .rodata.prov_bearer_adv_packet_in.str1.1
                0x0003ab30      0x26e examples/enocean_switch/CMakeFiles/enocean_switch_nrf52832_xxAA_s132_6.0.0.dir/__/__/mesh/prov/src/prov_bearer_adv.c.obj
 .rodata.tx_retry_cb.str1.1
                0x0003ad9e       0x37 examples/enocean_switch/CMakeFiles/enocean_switch_nrf52832_xxAA_s132_6.0.0.dir/__/__/mesh/prov/src/prov_bearer_adv.c.obj
 *fill*         0x0003add5        0xb 
 .rodata.delay_bytecode.9013
                0x0003ade0        0x6 examples/enocean_switch/CMakeFiles/enocean_switch_nrf52832_xxAA_s132_6.0.0.dir/C_/b/nRF5_SDK_15.0.0_a53641a/components/libraries/timer/app_timer.c.obj
 .rodata._DoInit.str1.1
                0x0003ade6       0x14 external/rtt/librtt_nrf52832_xxAA.a(SEGGER_RTT.c.obj)
 .rodata._aV2C.5497
                0x0003adfa       0x10 external/rtt/librtt_nrf52832_xxAA.a(SEGGER_RTT_printf.c.obj)
 *fill*         0x0003ae0a        0x2 
 .rodata.curve_secp256r1
                0x0003ae0c       0xb0 external/micro-ecc/libuECC_nrf52832_xxAA.a(uECC.c.obj)
 .rodata._global_impure_ptr
                0x0003aebc        0x4 c:/mesh/arm_gcc/bin/../lib/gcc/arm-none-eabi/6.3.1/../../../../arm-none-eabi/lib/thumb/v7e-m/fpv4-sp/hard\libg_nano.a(lib_a-impure.o)
                0x0003aebc                _global_impure_ptr
 *(.eh_frame*)
 .eh_frame      0x0003aec0        0x0 c:/mesh/arm_gcc/bin/../lib/gcc/arm-none-eabi/6.3.1/thumb/v7e-m/fpv4-sp/hard/crtbegin.o
 .eh_frame      0x0003aec0        0x4 c:/mesh/arm_gcc/bin/../lib/gcc/arm-none-eabi/6.3.1/thumb/v7e-m/fpv4-sp/hard/crtend.o

.glue_7         0x0003aec4        0x0
 .glue_7        0x0003aec4        0x0 linker stubs

.glue_7t        0x0003aec4        0x0
 .glue_7t       0x0003aec4        0x0 linker stubs

.vfp11_veneer   0x0003aec4        0x0
 .vfp11_veneer  0x0003aec4        0x0 linker stubs

.v4_bx          0x0003aec4        0x0
 .v4_bx         0x0003aec4        0x0 linker stubs

.iplt           0x0003aec4        0x0
 .iplt          0x0003aec4        0x0 c:/mesh/arm_gcc/bin/../lib/gcc/arm-none-eabi/6.3.1/thumb/v7e-m/fpv4-sp/hard/crtbegin.o

.pwr_mgmt_data  0x0003aec4        0x0
                [!provide]                PROVIDE (__start_pwr_mgmt_data, .)
 *(SORT(.pwr_mgmt_data*))
                [!provide]                PROVIDE (__stop_pwr_mgmt_data, .)

.log_const_data
                0x0003aec4        0x0
                [!provide]                PROVIDE (__start_log_const_data, .)
 *(.log_const_data)
                [!provide]                PROVIDE (__stop_log_const_data, .)

.cli_command    0x0003aec4        0x0
                [!provide]                PROVIDE (__start_cli_command, .)
 *(.cli_command)
                [!provide]                PROVIDE (__stop_cli_command, .)

.sdh_stack_observers
                0x0003aec4        0x0
                [!provide]                PROVIDE (__start_sdh_stack_observers, .)
 *(SORT(.sdh_stack_observers*))
                [!provide]                PROVIDE (__stop_sdh_stack_observers, .)

.sdh_req_observers
                0x0003aec4        0x0
                [!provide]                PROVIDE (__start_sdh_req_observers, .)
 *(SORT(.sdh_req_observers*))
                [!provide]                PROVIDE (__stop_sdh_req_observers, .)

.sdh_state_observers
                0x0003aec4        0x0
                [!provide]                PROVIDE (__start_sdh_state_observers, .)
 *(SORT(.sdh_state_observers*))
                [!provide]                PROVIDE (__stop_sdh_state_observers, .)

.sdh_ant_observers
                0x0003aec4        0x0
                [!provide]                PROVIDE (__start_sdh_ant_observers, .)
 *(SORT(.sdh_ant_observers*))
                [!provide]                PROVIDE (__stop_sdh_ant_observers, .)

.sdh_ble_observers
                0x0003aec4        0x0
                [!provide]                PROVIDE (__start_sdh_ble_observers, .)
 *(SORT(.sdh_ble_observers*))
                [!provide]                PROVIDE (__stop_sdh_ble_observers, .)

.sdh_soc_observers
                0x0003aec4        0x0
                [!provide]                PROVIDE (__start_sdh_soc_observers, .)
 *(SORT(.sdh_soc_observers*))
                [!provide]                PROVIDE (__stop_sdh_soc_observers, .)

.ARM.extab
 *(.ARM.extab* .gnu.linkonce.armextab.*)
                0x0003aec4                __exidx_start = .

.ARM.exidx      0x0003aec4        0x8
 *(.ARM.exidx* .gnu.linkonce.armexidx.*)
 .ARM.exidx     0x0003aec4        0x8 c:/mesh/arm_gcc/bin/../lib/gcc/arm-none-eabi/6.3.1/../../../../arm-none-eabi/lib/thumb/v7e-m/fpv4-sp/hard/crt0.o
 .ARM.exidx     0x0003aecc        0x0 c:/mesh/arm_gcc/bin/../lib/gcc/arm-none-eabi/6.3.1/thumb/v7e-m/fpv4-sp/hard\libgcc.a(_udivmoddi4.o)
                                  0x8 (size before relaxing)
                0x0003aecc                __exidx_end = .
                0x0003aecc                __etext = .

.rel.dyn        0x0003aecc        0x0
 .rel.iplt      0x0003aecc        0x0 c:/mesh/arm_gcc/bin/../lib/gcc/arm-none-eabi/6.3.1/thumb/v7e-m/fpv4-sp/hard/crtbegin.o

.data           0x20002da0      0x178 load address 0x0003aecc
                0x20002da0                __data_start__ = .
 *(vtable)
 *(.data*)
 .data.m_mesh_core_event_handler
                0x20002da0        0xc examples/enocean_switch/CMakeFiles/enocean_switch_nrf52832_xxAA_s132_6.0.0.dir/src/main.c.obj
 .data.flash_add_mem_available_struct.9825
                0x20002dac       0x10 examples/enocean_switch/CMakeFiles/enocean_switch_nrf52832_xxAA_s132_6.0.0.dir/src/flash_helper.c.obj
 .data.mem_listener.9821
                0x20002dbc       0x10 examples/enocean_switch/CMakeFiles/enocean_switch_nrf52832_xxAA_s132_6.0.0.dir/src/flash_helper.c.obj
 .data.s_evt_handler.11064
                0x20002dcc        0xc examples/enocean_switch/CMakeFiles/enocean_switch_nrf52832_xxAA_s132_6.0.0.dir/__/__/mesh/stack/src/mesh_stack.c.obj
 .data.wait.8936
                0x20002dd8        0x1 examples/enocean_switch/CMakeFiles/enocean_switch_nrf52832_xxAA_s132_6.0.0.dir/__/common/src/app_error_weak.c.obj
 *fill*         0x20002dd9        0x3 
 .data.mem_listener.9840
                0x20002ddc       0x10 examples/enocean_switch/CMakeFiles/enocean_switch_nrf52832_xxAA_s132_6.0.0.dir/__/__/mesh/core/src/net_state.c.obj
 .data.mem_listener.9845
                0x20002dec       0x10 examples/enocean_switch/CMakeFiles/enocean_switch_nrf52832_xxAA_s132_6.0.0.dir/__/__/mesh/core/src/net_state.c.obj
 .data.mem_listener.9859
                0x20002dfc       0x10 examples/enocean_switch/CMakeFiles/enocean_switch_nrf52832_xxAA_s132_6.0.0.dir/__/__/mesh/core/src/net_state.c.obj
 .data.mem_listener.9876
                0x20002e0c       0x10 examples/enocean_switch/CMakeFiles/enocean_switch_nrf52832_xxAA_s132_6.0.0.dir/__/__/mesh/core/src/net_state.c.obj
 .data.m_nrf_mesh_listener
                0x20002e1c        0xc examples/enocean_switch/CMakeFiles/enocean_switch_nrf52832_xxAA_s132_6.0.0.dir/__/__/mesh/core/src/nrf_mesh.c.obj
 .data.g_log_dbg_lvl
                0x20002e28        0x4 examples/enocean_switch/CMakeFiles/enocean_switch_nrf52832_xxAA_s132_6.0.0.dir/__/__/mesh/core/src/log.c.obj
                0x20002e28                g_log_dbg_lvl
 .data.g_log_dbg_msk
                0x20002e2c        0x4 examples/enocean_switch/CMakeFiles/enocean_switch_nrf52832_xxAA_s132_6.0.0.dir/__/__/mesh/core/src/log.c.obj
                0x20002e2c                g_log_dbg_msk
 .data.g_log_hex_digits
                0x20002e30        0x4 examples/enocean_switch/CMakeFiles/enocean_switch_nrf52832_xxAA_s132_6.0.0.dir/__/__/mesh/core/src/log.c.obj
                0x20002e30                g_log_hex_digits
 .data.m_log_callback
                0x20002e34        0x4 examples/enocean_switch/CMakeFiles/enocean_switch_nrf52832_xxAA_s132_6.0.0.dir/__/__/mesh/core/src/log.c.obj
                0x20002e34                m_log_callback
 .data.m_config_server_handle
                0x20002e38        0x2 examples/enocean_switch/CMakeFiles/enocean_switch_nrf52832_xxAA_s132_6.0.0.dir/__/__/models/config/src/config_server.c.obj
 *fill*         0x20002e3a        0x2 
 .data.m_mesh_evt_handler
                0x20002e3c        0xc examples/enocean_switch/CMakeFiles/enocean_switch_nrf52832_xxAA_s132_6.0.0.dir/__/__/models/config/src/config_server.c.obj
 .data.flash_add_mem_available_struct.10414
                0x20002e48       0x10 examples/enocean_switch/CMakeFiles/enocean_switch_nrf52832_xxAA_s132_6.0.0.dir/__/__/mesh/access/src/access.c.obj
 .data.flash_clear_mem_available_struct.10503
                0x20002e58       0x10 examples/enocean_switch/CMakeFiles/enocean_switch_nrf52832_xxAA_s132_6.0.0.dir/__/__/mesh/access/src/access.c.obj
 .data.flash_store_mem_available_struct.10527
                0x20002e68       0x10 examples/enocean_switch/CMakeFiles/enocean_switch_nrf52832_xxAA_s132_6.0.0.dir/__/__/mesh/access/src/access.c.obj
 .data.m_default_ttl
                0x20002e78        0x1 examples/enocean_switch/CMakeFiles/enocean_switch_nrf52832_xxAA_s132_6.0.0.dir/__/__/mesh/access/src/access.c.obj
 *fill*         0x20002e79        0x3 
 .data.mem_listener.10767
                0x20002e7c       0x10 examples/enocean_switch/CMakeFiles/enocean_switch_nrf52832_xxAA_s132_6.0.0.dir/__/__/mesh/access/src/device_state_manager.c.obj
 .data.mem_listener.10793
                0x20002e8c       0x10 examples/enocean_switch/CMakeFiles/enocean_switch_nrf52832_xxAA_s132_6.0.0.dir/__/__/mesh/access/src/device_state_manager.c.obj
 .data.m_async_process_flag
                0x20002e9c        0x4 examples/enocean_switch/CMakeFiles/enocean_switch_nrf52832_xxAA_s132_6.0.0.dir/__/__/mesh/prov/src/prov_bearer_adv.c.obj
 .data.SystemCoreClock
                0x20002ea0        0x4 examples/enocean_switch/CMakeFiles/enocean_switch_nrf52832_xxAA_s132_6.0.0.dir/C_/b/nRF5_SDK_15.0.0_a53641a/modules/nrfx/mdk/system_nrf52.c.obj
                0x20002ea0                SystemCoreClock
 .data.g_rng_function
                0x20002ea4        0x4 external/micro-ecc/libuECC_nrf52832_xxAA.a(uECC.c.obj)
 .data._impure_ptr
                0x20002ea8        0x4 c:/mesh/arm_gcc/bin/../lib/gcc/arm-none-eabi/6.3.1/../../../../arm-none-eabi/lib/thumb/v7e-m/fpv4-sp/hard\libg_nano.a(lib_a-impure.o)
                0x20002ea8                _impure_ptr
 .data.impure_data
                0x20002eac       0x60 c:/mesh/arm_gcc/bin/../lib/gcc/arm-none-eabi/6.3.1/../../../../arm-none-eabi/lib/thumb/v7e-m/fpv4-sp/hard\libg_nano.a(lib_a-impure.o)
                0x20002f0c                . = ALIGN (0x4)
                0x20002f0c                PROVIDE (__preinit_array_start, .)
 *(.preinit_array)
                0x20002f0c                PROVIDE (__preinit_array_end, .)
                0x20002f0c                . = ALIGN (0x4)
                0x20002f0c                PROVIDE (__init_array_start, .)
 *(SORT(.init_array.*))
 *(.init_array)
 .init_array    0x20002f0c        0x4 c:/mesh/arm_gcc/bin/../lib/gcc/arm-none-eabi/6.3.1/thumb/v7e-m/fpv4-sp/hard/crtbegin.o
                0x20002f10                PROVIDE (__init_array_end, .)
                0x20002f10                . = ALIGN (0x4)
                [!provide]                PROVIDE (__fini_array_start, .)
 *(SORT(.fini_array.*))
 *(.fini_array)
 .fini_array    0x20002f10        0x4 c:/mesh/arm_gcc/bin/../lib/gcc/arm-none-eabi/6.3.1/thumb/v7e-m/fpv4-sp/hard/crtbegin.o
                [!provide]                PROVIDE (__fini_array_end, .)
 *(.jcr*)
 .jcr           0x20002f14        0x0 c:/mesh/arm_gcc/bin/../lib/gcc/arm-none-eabi/6.3.1/thumb/v7e-m/fpv4-sp/hard/crtbegin.o
 .jcr           0x20002f14        0x4 c:/mesh/arm_gcc/bin/../lib/gcc/arm-none-eabi/6.3.1/thumb/v7e-m/fpv4-sp/hard/crtend.o
                0x20002f18                . = ALIGN (0x4)
                0x20002f18                __data_end__ = .
LOAD c:/mesh/arm_gcc/bin/../lib/gcc/arm-none-eabi/6.3.1/thumb/v7e-m/fpv4-sp/hard/crti.o
LOAD c:/mesh/arm_gcc/bin/../lib/gcc/arm-none-eabi/6.3.1/thumb/v7e-m/fpv4-sp/hard/crtbegin.o
LOAD c:/mesh/arm_gcc/bin/../lib/gcc/arm-none-eabi/6.3.1/../../../../arm-none-eabi/lib/thumb/v7e-m/fpv4-sp/hard/crt0.o
LOAD examples/enocean_switch/CMakeFiles/enocean_switch_nrf52832_xxAA_s132_6.0.0.dir/src/main.c.obj
LOAD examples/enocean_switch/CMakeFiles/enocean_switch_nrf52832_xxAA_s132_6.0.0.dir/src/enocean.c.obj
LOAD examples/enocean_switch/CMakeFiles/enocean_switch_nrf52832_xxAA_s132_6.0.0.dir/src/flash_helper.c.obj
LOAD examples/enocean_switch/CMakeFiles/enocean_switch_nrf52832_xxAA_s132_6.0.0.dir/__/__/mesh/stack/src/mesh_stack.c.obj
LOAD examples/enocean_switch/CMakeFiles/enocean_switch_nrf52832_xxAA_s132_6.0.0.dir/__/common/src/mesh_softdevice_init.c.obj
LOAD examples/enocean_switch/CMakeFiles/enocean_switch_nrf52832_xxAA_s132_6.0.0.dir/__/common/src/mesh_provisionee.c.obj
LOAD examples/enocean_switch/CMakeFiles/enocean_switch_nrf52832_xxAA_s132_6.0.0.dir/__/common/src/rtt_input.c.obj
LOAD examples/enocean_switch/CMakeFiles/enocean_switch_nrf52832_xxAA_s132_6.0.0.dir/__/common/src/simple_hal.c.obj
LOAD examples/enocean_switch/CMakeFiles/enocean_switch_nrf52832_xxAA_s132_6.0.0.dir/__/common/src/mesh_app_utils.c.obj
LOAD examples/enocean_switch/CMakeFiles/enocean_switch_nrf52832_xxAA_s132_6.0.0.dir/__/nrf_mesh_weak.c.obj
LOAD examples/enocean_switch/CMakeFiles/enocean_switch_nrf52832_xxAA_s132_6.0.0.dir/__/common/src/app_error_weak.c.obj
LOAD examples/enocean_switch/CMakeFiles/enocean_switch_nrf52832_xxAA_s132_6.0.0.dir/__/common/src/assertion_handler_weak.c.obj
LOAD examples/enocean_switch/CMakeFiles/enocean_switch_nrf52832_xxAA_s132_6.0.0.dir/__/__/mesh/core/src/internal_event.c.obj
LOAD examples/enocean_switch/CMakeFiles/enocean_switch_nrf52832_xxAA_s132_6.0.0.dir/__/__/mesh/core/src/nrf_mesh_configure.c.obj
LOAD examples/enocean_switch/CMakeFiles/enocean_switch_nrf52832_xxAA_s132_6.0.0.dir/__/__/mesh/core/src/aes.c.obj
LOAD examples/enocean_switch/CMakeFiles/enocean_switch_nrf52832_xxAA_s132_6.0.0.dir/__/__/mesh/core/src/msg_cache.c.obj
LOAD examples/enocean_switch/CMakeFiles/enocean_switch_nrf52832_xxAA_s132_6.0.0.dir/__/__/mesh/core/src/transport.c.obj
LOAD examples/enocean_switch/CMakeFiles/enocean_switch_nrf52832_xxAA_s132_6.0.0.dir/__/__/mesh/core/src/event.c.obj
LOAD examples/enocean_switch/CMakeFiles/enocean_switch_nrf52832_xxAA_s132_6.0.0.dir/__/__/mesh/core/src/packet_buffer.c.obj
LOAD examples/enocean_switch/CMakeFiles/enocean_switch_nrf52832_xxAA_s132_6.0.0.dir/__/__/mesh/core/src/flash_manager_defrag.c.obj
LOAD examples/enocean_switch/CMakeFiles/enocean_switch_nrf52832_xxAA_s132_6.0.0.dir/__/__/mesh/core/src/fifo.c.obj
LOAD examples/enocean_switch/CMakeFiles/enocean_switch_nrf52832_xxAA_s132_6.0.0.dir/__/__/mesh/core/src/nrf_flash.c.obj
LOAD examples/enocean_switch/CMakeFiles/enocean_switch_nrf52832_xxAA_s132_6.0.0.dir/__/__/mesh/core/src/packet_mgr.c.obj
LOAD examples/enocean_switch/CMakeFiles/enocean_switch_nrf52832_xxAA_s132_6.0.0.dir/__/__/mesh/core/src/net_state.c.obj
LOAD examples/enocean_switch/CMakeFiles/enocean_switch_nrf52832_xxAA_s132_6.0.0.dir/__/__/mesh/core/src/mesh_flash.c.obj
LOAD examples/enocean_switch/CMakeFiles/enocean_switch_nrf52832_xxAA_s132_6.0.0.dir/__/__/mesh/core/src/nrf_mesh_utils.c.obj
LOAD examples/enocean_switch/CMakeFiles/enocean_switch_nrf52832_xxAA_s132_6.0.0.dir/__/__/mesh/core/src/nrf_mesh.c.obj
LOAD examples/enocean_switch/CMakeFiles/enocean_switch_nrf52832_xxAA_s132_6.0.0.dir/__/__/mesh/core/src/queue.c.obj
LOAD examples/enocean_switch/CMakeFiles/enocean_switch_nrf52832_xxAA_s132_6.0.0.dir/__/__/mesh/core/src/hal.c.obj
LOAD examples/enocean_switch/CMakeFiles/enocean_switch_nrf52832_xxAA_s132_6.0.0.dir/__/__/mesh/core/src/aes_cmac.c.obj
LOAD examples/enocean_switch/CMakeFiles/enocean_switch_nrf52832_xxAA_s132_6.0.0.dir/__/__/mesh/core/src/timer_scheduler.c.obj
LOAD examples/enocean_switch/CMakeFiles/enocean_switch_nrf52832_xxAA_s132_6.0.0.dir/__/__/mesh/core/src/timer.c.obj
LOAD examples/enocean_switch/CMakeFiles/enocean_switch_nrf52832_xxAA_s132_6.0.0.dir/__/__/mesh/core/src/ticker.c.obj
LOAD examples/enocean_switch/CMakeFiles/enocean_switch_nrf52832_xxAA_s132_6.0.0.dir/__/__/mesh/core/src/rand.c.obj
LOAD examples/enocean_switch/CMakeFiles/enocean_switch_nrf52832_xxAA_s132_6.0.0.dir/__/__/mesh/core/src/nrf_mesh_opt.c.obj
LOAD examples/enocean_switch/CMakeFiles/enocean_switch_nrf52832_xxAA_s132_6.0.0.dir/__/__/mesh/core/src/timeslot.c.obj
LOAD examples/enocean_switch/CMakeFiles/enocean_switch_nrf52832_xxAA_s132_6.0.0.dir/__/__/mesh/core/src/bearer_event.c.obj
LOAD examples/enocean_switch/CMakeFiles/enocean_switch_nrf52832_xxAA_s132_6.0.0.dir/__/__/mesh/core/src/enc.c.obj
LOAD examples/enocean_switch/CMakeFiles/enocean_switch_nrf52832_xxAA_s132_6.0.0.dir/__/__/mesh/core/src/network.c.obj
LOAD examples/enocean_switch/CMakeFiles/enocean_switch_nrf52832_xxAA_s132_6.0.0.dir/__/__/mesh/core/src/net_packet.c.obj
LOAD examples/enocean_switch/CMakeFiles/enocean_switch_nrf52832_xxAA_s132_6.0.0.dir/__/__/mesh/core/src/msqueue.c.obj
LOAD examples/enocean_switch/CMakeFiles/enocean_switch_nrf52832_xxAA_s132_6.0.0.dir/__/__/mesh/core/src/nrf_mesh_keygen.c.obj
LOAD examples/enocean_switch/CMakeFiles/enocean_switch_nrf52832_xxAA_s132_6.0.0.dir/__/__/mesh/core/src/cache.c.obj
LOAD examples/enocean_switch/CMakeFiles/enocean_switch_nrf52832_xxAA_s132_6.0.0.dir/__/__/mesh/core/src/list.c.obj
LOAD examples/enocean_switch/CMakeFiles/enocean_switch_nrf52832_xxAA_s132_6.0.0.dir/__/__/mesh/core/src/log.c.obj
LOAD examples/enocean_switch/CMakeFiles/enocean_switch_nrf52832_xxAA_s132_6.0.0.dir/__/__/mesh/core/src/flash_manager.c.obj
LOAD examples/enocean_switch/CMakeFiles/enocean_switch_nrf52832_xxAA_s132_6.0.0.dir/__/__/mesh/core/src/ccm_soft.c.obj
LOAD examples/enocean_switch/CMakeFiles/enocean_switch_nrf52832_xxAA_s132_6.0.0.dir/__/__/mesh/core/src/toolchain.c.obj
LOAD examples/enocean_switch/CMakeFiles/enocean_switch_nrf52832_xxAA_s132_6.0.0.dir/__/__/mesh/core/src/replay_cache.c.obj
LOAD examples/enocean_switch/CMakeFiles/enocean_switch_nrf52832_xxAA_s132_6.0.0.dir/__/__/mesh/core/src/beacon.c.obj
LOAD examples/enocean_switch/CMakeFiles/enocean_switch_nrf52832_xxAA_s132_6.0.0.dir/__/__/mesh/core/src/flash_manager_internal.c.obj
LOAD examples/enocean_switch/CMakeFiles/enocean_switch_nrf52832_xxAA_s132_6.0.0.dir/__/__/mesh/core/src/core_tx.c.obj
LOAD examples/enocean_switch/CMakeFiles/enocean_switch_nrf52832_xxAA_s132_6.0.0.dir/__/__/mesh/core/src/heartbeat.c.obj
LOAD examples/enocean_switch/CMakeFiles/enocean_switch_nrf52832_xxAA_s132_6.0.0.dir/__/__/mesh/core/src/net_beacon.c.obj
LOAD examples/enocean_switch/CMakeFiles/enocean_switch_nrf52832_xxAA_s132_6.0.0.dir/__/__/mesh/core/src/fsm.c.obj
LOAD examples/enocean_switch/CMakeFiles/enocean_switch_nrf52832_xxAA_s132_6.0.0.dir/__/__/mesh/core/src/core_tx_adv.c.obj
LOAD examples/enocean_switch/CMakeFiles/enocean_switch_nrf52832_xxAA_s132_6.0.0.dir/__/__/mesh/bearer/src/ad_listener.c.obj
LOAD examples/enocean_switch/CMakeFiles/enocean_switch_nrf52832_xxAA_s132_6.0.0.dir/__/__/mesh/bearer/src/ad_type_filter.c.obj
LOAD examples/enocean_switch/CMakeFiles/enocean_switch_nrf52832_xxAA_s132_6.0.0.dir/__/__/mesh/bearer/src/adv_packet_filter.c.obj
LOAD examples/enocean_switch/CMakeFiles/enocean_switch_nrf52832_xxAA_s132_6.0.0.dir/__/__/mesh/bearer/src/advertiser.c.obj
LOAD examples/enocean_switch/CMakeFiles/enocean_switch_nrf52832_xxAA_s132_6.0.0.dir/__/__/mesh/bearer/src/bearer_handler.c.obj
LOAD examples/enocean_switch/CMakeFiles/enocean_switch_nrf52832_xxAA_s132_6.0.0.dir/__/__/mesh/bearer/src/broadcast.c.obj
LOAD examples/enocean_switch/CMakeFiles/enocean_switch_nrf52832_xxAA_s132_6.0.0.dir/__/__/mesh/bearer/src/filter_engine.c.obj
LOAD examples/enocean_switch/CMakeFiles/enocean_switch_nrf52832_xxAA_s132_6.0.0.dir/__/__/mesh/bearer/src/gap_address_filter.c.obj
LOAD examples/enocean_switch/CMakeFiles/enocean_switch_nrf52832_xxAA_s132_6.0.0.dir/__/__/mesh/bearer/src/radio_config.c.obj
LOAD examples/enocean_switch/CMakeFiles/enocean_switch_nrf52832_xxAA_s132_6.0.0.dir/__/__/mesh/bearer/src/rssi_filter.c.obj
LOAD examples/enocean_switch/CMakeFiles/enocean_switch_nrf52832_xxAA_s132_6.0.0.dir/__/__/mesh/bearer/src/scanner.c.obj
LOAD examples/enocean_switch/CMakeFiles/enocean_switch_nrf52832_xxAA_s132_6.0.0.dir/__/__/mesh/bearer/src/mesh_pa_lna.c.obj
LOAD examples/enocean_switch/CMakeFiles/enocean_switch_nrf52832_xxAA_s132_6.0.0.dir/__/__/models/simple_on_off/src/simple_on_off_client.c.obj
LOAD examples/enocean_switch/CMakeFiles/enocean_switch_nrf52832_xxAA_s132_6.0.0.dir/__/__/models/config/src/composition_data.c.obj
LOAD examples/enocean_switch/CMakeFiles/enocean_switch_nrf52832_xxAA_s132_6.0.0.dir/__/__/models/config/src/config_server.c.obj
LOAD examples/enocean_switch/CMakeFiles/enocean_switch_nrf52832_xxAA_s132_6.0.0.dir/__/__/models/config/src/packed_index_list.c.obj
LOAD examples/enocean_switch/CMakeFiles/enocean_switch_nrf52832_xxAA_s132_6.0.0.dir/__/__/models/health/src/health_server.c.obj
LOAD examples/enocean_switch/CMakeFiles/enocean_switch_nrf52832_xxAA_s132_6.0.0.dir/__/__/mesh/access/src/access_publish.c.obj
LOAD examples/enocean_switch/CMakeFiles/enocean_switch_nrf52832_xxAA_s132_6.0.0.dir/__/__/mesh/access/src/access.c.obj
LOAD examples/enocean_switch/CMakeFiles/enocean_switch_nrf52832_xxAA_s132_6.0.0.dir/__/__/mesh/access/src/access_reliable.c.obj
LOAD examples/enocean_switch/CMakeFiles/enocean_switch_nrf52832_xxAA_s132_6.0.0.dir/__/__/mesh/access/src/access_loopback.c.obj
LOAD examples/enocean_switch/CMakeFiles/enocean_switch_nrf52832_xxAA_s132_6.0.0.dir/__/__/mesh/access/src/device_state_manager.c.obj
LOAD examples/enocean_switch/CMakeFiles/enocean_switch_nrf52832_xxAA_s132_6.0.0.dir/__/__/mesh/prov/src/prov_provisionee.c.obj
LOAD examples/enocean_switch/CMakeFiles/enocean_switch_nrf52832_xxAA_s132_6.0.0.dir/__/__/mesh/prov/src/nrf_mesh_prov.c.obj
LOAD examples/enocean_switch/CMakeFiles/enocean_switch_nrf52832_xxAA_s132_6.0.0.dir/__/__/mesh/prov/src/provisioning.c.obj
LOAD examples/enocean_switch/CMakeFiles/enocean_switch_nrf52832_xxAA_s132_6.0.0.dir/__/__/mesh/prov/src/prov_beacon.c.obj
LOAD examples/enocean_switch/CMakeFiles/enocean_switch_nrf52832_xxAA_s132_6.0.0.dir/__/__/mesh/prov/src/prov_utils.c.obj
LOAD examples/enocean_switch/CMakeFiles/enocean_switch_nrf52832_xxAA_s132_6.0.0.dir/__/__/mesh/prov/src/prov_bearer_adv.c.obj
LOAD examples/enocean_switch/CMakeFiles/enocean_switch_nrf52832_xxAA_s132_6.0.0.dir/C_/b/nRF5_SDK_15.0.0_a53641a/modules/nrfx/mdk/system_nrf52.c.obj
LOAD examples/enocean_switch/CMakeFiles/enocean_switch_nrf52832_xxAA_s132_6.0.0.dir/C_/b/nRF5_SDK_15.0.0_a53641a/modules/nrfx/mdk/gcc_startup_nrf52.S.obj
LOAD examples/enocean_switch/CMakeFiles/enocean_switch_nrf52832_xxAA_s132_6.0.0.dir/C_/b/nRF5_SDK_15.0.0_a53641a/components/libraries/util/app_error.c.obj
LOAD examples/enocean_switch/CMakeFiles/enocean_switch_nrf52832_xxAA_s132_6.0.0.dir/C_/b/nRF5_SDK_15.0.0_a53641a/components/libraries/util/app_util_platform.c.obj
LOAD examples/enocean_switch/CMakeFiles/enocean_switch_nrf52832_xxAA_s132_6.0.0.dir/C_/b/nRF5_SDK_15.0.0_a53641a/components/libraries/timer/app_timer.c.obj
LOAD examples/enocean_switch/CMakeFiles/enocean_switch_nrf52832_xxAA_s132_6.0.0.dir/C_/b/nRF5_SDK_15.0.0_a53641a/components/libraries/util/app_error_handler_gcc.c.obj
LOAD external/rtt/librtt_nrf52832_xxAA.a
LOAD external/micro-ecc/libuECC_nrf52832_xxAA.a
START GROUP
LOAD c:/mesh/arm_gcc/bin/../lib/gcc/arm-none-eabi/6.3.1/thumb/v7e-m/fpv4-sp/hard\libgcc.a
LOAD c:/mesh/arm_gcc/bin/../lib/gcc/arm-none-eabi/6.3.1/../../../../arm-none-eabi/lib/thumb/v7e-m/fpv4-sp/hard\libg_nano.a
LOAD c:/mesh/arm_gcc/bin/../lib/gcc/arm-none-eabi/6.3.1/../../../../arm-none-eabi/lib/thumb/v7e-m/fpv4-sp/hard\libc_nano.a
END GROUP
START GROUP
LOAD c:/mesh/arm_gcc/bin/../lib/gcc/arm-none-eabi/6.3.1/thumb/v7e-m/fpv4-sp/hard\libgcc.a
LOAD c:/mesh/arm_gcc/bin/../lib/gcc/arm-none-eabi/6.3.1/../../../../arm-none-eabi/lib/thumb/v7e-m/fpv4-sp/hard\libc_nano.a
END GROUP
LOAD c:/mesh/arm_gcc/bin/../lib/gcc/arm-none-eabi/6.3.1/thumb/v7e-m/fpv4-sp/hard/crtend.o
LOAD c:/mesh/arm_gcc/bin/../lib/gcc/arm-none-eabi/6.3.1/thumb/v7e-m/fpv4-sp/hard/crtn.o
START GROUP
LOAD c:/mesh/arm_gcc/bin/../lib/gcc/arm-none-eabi/6.3.1/thumb/v7e-m/fpv4-sp/hard\libgcc.a
LOAD c:/mesh/arm_gcc/bin/../lib/gcc/arm-none-eabi/6.3.1/../../../../arm-none-eabi/lib/thumb/v7e-m/fpv4-sp/hard\libc.a
LOAD c:/mesh/arm_gcc/bin/../lib/gcc/arm-none-eabi/6.3.1/../../../../arm-none-eabi/lib/thumb/v7e-m/fpv4-sp/hard\libnosys.a
END GROUP

.igot.plt       0x20002f18        0x0 load address 0x0003b044
 .igot.plt      0x20002f18        0x0 c:/mesh/arm_gcc/bin/../lib/gcc/arm-none-eabi/6.3.1/thumb/v7e-m/fpv4-sp/hard/crtbegin.o
                0x20002f18                . = ALIGN (0x4)

.svc_data       0x20002f18        0x0
                [!provide]                PROVIDE (__start_svc_data, .)
 *(.svc_data)
                [!provide]                PROVIDE (__stop_svc_data, .)

.fs_data        0x20002f18        0x0
                [!provide]                PROVIDE (__start_fs_data, .)
 *(.fs_data)
                [!provide]                PROVIDE (__stop_fs_data, .)

.log_dynamic_data
                0x20002f18        0x0
                [!provide]                PROVIDE (__start_log_dynamic_data, .)
 *(.log_dynamic_data)
                [!provide]                PROVIDE (__stop_log_dynamic_data, .)

.cli_sorted_cmd_ptrs
                0x20002f18        0x0
                [!provide]                PROVIDE (__start_cli_sorted_cmd_ptrs, .)
 *(.cli_sorted_cmd_ptrs)
                [!provide]                PROVIDE (__stop_cli_sorted_cmd_ptrs, .)

.bss            0x20002f18     0x36a4 load address 0x0003b048
                0x20002f18                . = ALIGN (0x4)
                0x20002f18                __bss_start__ = .
 *(.bss*)
 .bss           0x20002f18       0x1c c:/mesh/arm_gcc/bin/../lib/gcc/arm-none-eabi/6.3.1/thumb/v7e-m/fpv4-sp/hard/crtbegin.o
 .bss.m_app_secmat
                0x20002f34       0x10 examples/enocean_switch/CMakeFiles/enocean_switch_nrf52832_xxAA_s132_6.0.0.dir/src/main.c.obj
 .bss.m_app_secmat_flash
                0x20002f44       0x1c examples/enocean_switch/CMakeFiles/enocean_switch_nrf52832_xxAA_s132_6.0.0.dir/src/main.c.obj
 .bss.m_clients
                0x20002f60       0x40 examples/enocean_switch/CMakeFiles/enocean_switch_nrf52832_xxAA_s132_6.0.0.dir/src/main.c.obj
 .bss.m_device_provisioned
                0x20002fa0        0x1 examples/enocean_switch/CMakeFiles/enocean_switch_nrf52832_xxAA_s132_6.0.0.dir/src/main.c.obj
 .bss.m_enocean_dev_cnt
                0x20002fa1        0x1 examples/enocean_switch/CMakeFiles/enocean_switch_nrf52832_xxAA_s132_6.0.0.dir/src/main.c.obj
 *fill*         0x20002fa2        0x2 
 .bss.m_switch_state
                0x20002fa4       0x20 examples/enocean_switch/CMakeFiles/enocean_switch_nrf52832_xxAA_s132_6.0.0.dir/src/main.c.obj
 .bss.s_app_started.12621
                0x20002fc4        0x1 examples/enocean_switch/CMakeFiles/enocean_switch_nrf52832_xxAA_s132_6.0.0.dir/src/main.c.obj
 *fill*         0x20002fc5        0x3 
 .bss.m_app_cb  0x20002fc8        0x4 examples/enocean_switch/CMakeFiles/enocean_switch_nrf52832_xxAA_s132_6.0.0.dir/src/enocean.c.obj
 .bss.mp_secmats_list_head
                0x20002fcc        0x4 examples/enocean_switch/CMakeFiles/enocean_switch_nrf52832_xxAA_s132_6.0.0.dir/src/enocean.c.obj
 .bss.m_flash_manager
                0x20002fd0       0x24 examples/enocean_switch/CMakeFiles/enocean_switch_nrf52832_xxAA_s132_6.0.0.dir/src/flash_helper.c.obj
 .bss.m_health_server
                0x20002ff4       0x5c examples/enocean_switch/CMakeFiles/enocean_switch_nrf52832_xxAA_s132_6.0.0.dir/__/__/mesh/stack/src/mesh_stack.c.obj
 .bss.m_device_provisioned
                0x20003050        0x1 examples/enocean_switch/CMakeFiles/enocean_switch_nrf52832_xxAA_s132_6.0.0.dir/__/common/src/mesh_provisionee.c.obj
 *fill*         0x20003051        0x3 
 .bss.m_params  0x20003054        0xc examples/enocean_switch/CMakeFiles/enocean_switch_nrf52832_xxAA_s132_6.0.0.dir/__/common/src/mesh_provisionee.c.obj
 .bss.m_private_key
                0x20003060       0x20 examples/enocean_switch/CMakeFiles/enocean_switch_nrf52832_xxAA_s132_6.0.0.dir/__/common/src/mesh_provisionee.c.obj
 .bss.m_prov_bearer_adv
                0x20003080      0x1c8 examples/enocean_switch/CMakeFiles/enocean_switch_nrf52832_xxAA_s132_6.0.0.dir/__/common/src/mesh_provisionee.c.obj
 .bss.m_prov_ctx
                0x20003248      0x134 examples/enocean_switch/CMakeFiles/enocean_switch_nrf52832_xxAA_s132_6.0.0.dir/__/common/src/mesh_provisionee.c.obj
 .bss.m_public_key
                0x2000337c       0x40 examples/enocean_switch/CMakeFiles/enocean_switch_nrf52832_xxAA_s132_6.0.0.dir/__/common/src/mesh_provisionee.c.obj
 .bss.m_rtt_input_handler
                0x200033bc        0x4 examples/enocean_switch/CMakeFiles/enocean_switch_nrf52832_xxAA_s132_6.0.0.dir/__/common/src/rtt_input.c.obj
 .bss.m_rtt_timer_data
                0x200033c0       0x20 examples/enocean_switch/CMakeFiles/enocean_switch_nrf52832_xxAA_s132_6.0.0.dir/__/common/src/rtt_input.c.obj
 .bss.m_blink_count
                0x200033e0        0x4 examples/enocean_switch/CMakeFiles/enocean_switch_nrf52832_xxAA_s132_6.0.0.dir/__/common/src/simple_hal.c.obj
 .bss.m_blink_mask
                0x200033e4        0x4 examples/enocean_switch/CMakeFiles/enocean_switch_nrf52832_xxAA_s132_6.0.0.dir/__/common/src/simple_hal.c.obj
 .bss.m_blink_timer_data
                0x200033e8       0x20 examples/enocean_switch/CMakeFiles/enocean_switch_nrf52832_xxAA_s132_6.0.0.dir/__/common/src/simple_hal.c.obj
 .bss.m_button_handler_cb
                0x20003408        0x4 examples/enocean_switch/CMakeFiles/enocean_switch_nrf52832_xxAA_s132_6.0.0.dir/__/common/src/simple_hal.c.obj
 .bss.m_last_button_press
                0x2000340c        0x4 examples/enocean_switch/CMakeFiles/enocean_switch_nrf52832_xxAA_s132_6.0.0.dir/__/common/src/simple_hal.c.obj
 .bss.m_uuid    0x20003410       0x10 examples/enocean_switch/CMakeFiles/enocean_switch_nrf52832_xxAA_s132_6.0.0.dir/__/__/mesh/core/src/nrf_mesh_configure.c.obj
 .bss.m_msg_cache
                0x20003420      0x100 examples/enocean_switch/CMakeFiles/enocean_switch_nrf52832_xxAA_s132_6.0.0.dir/__/__/mesh/core/src/msg_cache.c.obj
 .bss.m_msg_cache_head
                0x20003520        0x4 examples/enocean_switch/CMakeFiles/enocean_switch_nrf52832_xxAA_s132_6.0.0.dir/__/__/mesh/core/src/msg_cache.c.obj
 .bss.m_control_packet_consumer_count
                0x20003524        0x4 examples/enocean_switch/CMakeFiles/enocean_switch_nrf52832_xxAA_s132_6.0.0.dir/__/__/mesh/core/src/transport.c.obj
 .bss.m_control_packet_consumers
                0x20003528        0x8 examples/enocean_switch/CMakeFiles/enocean_switch_nrf52832_xxAA_s132_6.0.0.dir/__/__/mesh/core/src/transport.c.obj
 .bss.m_sar_alloc
                0x20003530        0x4 examples/enocean_switch/CMakeFiles/enocean_switch_nrf52832_xxAA_s132_6.0.0.dir/__/__/mesh/core/src/transport.c.obj
 .bss.m_sar_process_flag
                0x20003534        0x4 examples/enocean_switch/CMakeFiles/enocean_switch_nrf52832_xxAA_s132_6.0.0.dir/__/__/mesh/core/src/transport.c.obj
 .bss.m_sar_release
                0x20003538        0x4 examples/enocean_switch/CMakeFiles/enocean_switch_nrf52832_xxAA_s132_6.0.0.dir/__/__/mesh/core/src/transport.c.obj
 .bss.m_sar_session_cache
                0x2000353c       0x40 examples/enocean_switch/CMakeFiles/enocean_switch_nrf52832_xxAA_s132_6.0.0.dir/__/__/mesh/core/src/transport.c.obj
 .bss.m_sar_session_cache_head
                0x2000357c        0x4 examples/enocean_switch/CMakeFiles/enocean_switch_nrf52832_xxAA_s132_6.0.0.dir/__/__/mesh/core/src/transport.c.obj
 .bss.m_trs_config
                0x20003580       0x18 examples/enocean_switch/CMakeFiles/enocean_switch_nrf52832_xxAA_s132_6.0.0.dir/__/__/mesh/core/src/transport.c.obj
 .bss.m_trs_sar_sessions
                0x20003598      0x1b0 examples/enocean_switch/CMakeFiles/enocean_switch_nrf52832_xxAA_s132_6.0.0.dir/__/__/mesh/core/src/transport.c.obj
 .bss.m_event_handler_state
                0x20003748        0x1 examples/enocean_switch/CMakeFiles/enocean_switch_nrf52832_xxAA_s132_6.0.0.dir/__/__/mesh/core/src/event.c.obj
 *fill*         0x20003749        0x3 
 .bss.mp_evt_handlers_head
                0x2000374c        0x4 examples/enocean_switch/CMakeFiles/enocean_switch_nrf52832_xxAA_s132_6.0.0.dir/__/__/mesh/core/src/event.c.obj
 .bss.m_defrag  0x20003750       0x1c examples/enocean_switch/CMakeFiles/enocean_switch_nrf52832_xxAA_s132_6.0.0.dir/__/__/mesh/core/src/flash_manager_defrag.c.obj
 .bss.m_token   0x2000376c        0x2 examples/enocean_switch/CMakeFiles/enocean_switch_nrf52832_xxAA_s132_6.0.0.dir/__/__/mesh/core/src/flash_manager_defrag.c.obj
 *fill*         0x2000376e        0x2 
 .bss.mp_recovery_area
                0x20003770        0x4 examples/enocean_switch/CMakeFiles/enocean_switch_nrf52832_xxAA_s132_6.0.0.dir/__/__/mesh/core/src/flash_manager_defrag.c.obj
 .bss.p_null_ptr.10244
                0x20003774        0x4 examples/enocean_switch/CMakeFiles/enocean_switch_nrf52832_xxAA_s132_6.0.0.dir/__/__/mesh/core/src/flash_manager_defrag.c.obj
 .bss.m_pool    0x20003778     0x1000 examples/enocean_switch/CMakeFiles/enocean_switch_nrf52832_xxAA_s132_6.0.0.dir/__/__/mesh/core/src/packet_mgr.c.obj
 .bss.mp_free_head
                0x20004778        0x4 examples/enocean_switch/CMakeFiles/enocean_switch_nrf52832_xxAA_s132_6.0.0.dir/__/__/mesh/core/src/packet_mgr.c.obj
 .bss.iv_state_set.9926
                0x2000477c        0x1 examples/enocean_switch/CMakeFiles/enocean_switch_nrf52832_xxAA_s132_6.0.0.dir/__/__/mesh/core/src/net_state.c.obj
 *fill*         0x2000477d        0x3 
 .bss.lock_count.9902
                0x20004780        0x4 examples/enocean_switch/CMakeFiles/enocean_switch_nrf52832_xxAA_s132_6.0.0.dir/__/__/mesh/core/src/net_state.c.obj
 .bss.m_flash_manager
                0x20004784       0x24 examples/enocean_switch/CMakeFiles/enocean_switch_nrf52832_xxAA_s132_6.0.0.dir/__/__/mesh/core/src/net_state.c.obj
 .bss.m_iv_update_timer
                0x200047a8       0x18 examples/enocean_switch/CMakeFiles/enocean_switch_nrf52832_xxAA_s132_6.0.0.dir/__/__/mesh/core/src/net_state.c.obj
 .bss.m_mesh_evt_handler
                0x200047c0        0xc examples/enocean_switch/CMakeFiles/enocean_switch_nrf52832_xxAA_s132_6.0.0.dir/__/__/mesh/core/src/net_state.c.obj
 .bss.m_net_state
                0x200047cc       0x14 examples/enocean_switch/CMakeFiles/enocean_switch_nrf52832_xxAA_s132_6.0.0.dir/__/__/mesh/core/src/net_state.c.obj
 .bss.m_seqnum_allocation_in_progress
                0x200047e0        0x1 examples/enocean_switch/CMakeFiles/enocean_switch_nrf52832_xxAA_s132_6.0.0.dir/__/__/mesh/core/src/net_state.c.obj
 .bss.m_test_mode
                0x200047e1        0x1 examples/enocean_switch/CMakeFiles/enocean_switch_nrf52832_xxAA_s132_6.0.0.dir/__/__/mesh/core/src/net_state.c.obj
 *fill*         0x200047e2        0x2 
 .bss.m_event_flag
                0x200047e4        0x4 examples/enocean_switch/CMakeFiles/enocean_switch_nrf52832_xxAA_s132_6.0.0.dir/__/__/mesh/core/src/mesh_flash.c.obj
 .bss.m_suspended
                0x200047e8        0x1 examples/enocean_switch/CMakeFiles/enocean_switch_nrf52832_xxAA_s132_6.0.0.dir/__/__/mesh/core/src/mesh_flash.c.obj
 *fill*         0x200047e9        0x3 
 .bss.m_users   0x200047ec      0x234 examples/enocean_switch/CMakeFiles/enocean_switch_nrf52832_xxAA_s132_6.0.0.dir/__/__/mesh/core/src/mesh_flash.c.obj
 .bss.m_is_enabled
                0x20004a20        0x1 examples/enocean_switch/CMakeFiles/enocean_switch_nrf52832_xxAA_s132_6.0.0.dir/__/__/mesh/core/src/nrf_mesh.c.obj
 .bss.m_is_initialized
                0x20004a21        0x1 examples/enocean_switch/CMakeFiles/enocean_switch_nrf52832_xxAA_s132_6.0.0.dir/__/__/mesh/core/src/nrf_mesh.c.obj
 *fill*         0x20004a22        0x2 
 .bss.m_rx_cb   0x20004a24        0x4 examples/enocean_switch/CMakeFiles/enocean_switch_nrf52832_xxAA_s132_6.0.0.dir/__/__/mesh/core/src/nrf_mesh.c.obj
 .bss.m_tx_token
                0x20004a28        0x4 examples/enocean_switch/CMakeFiles/enocean_switch_nrf52832_xxAA_s132_6.0.0.dir/__/__/mesh/core/src/nrf_mesh.c.obj
 .bss.m_event_flag
                0x20004a2c        0x4 examples/enocean_switch/CMakeFiles/enocean_switch_nrf52832_xxAA_s132_6.0.0.dir/__/__/mesh/core/src/timer_scheduler.c.obj
 .bss.m_scheduler
                0x20004a30       0x10 examples/enocean_switch/CMakeFiles/enocean_switch_nrf52832_xxAA_s132_6.0.0.dir/__/__/mesh/core/src/timer_scheduler.c.obj
 .bss.m_attributes
                0x20004a40        0x3 examples/enocean_switch/CMakeFiles/enocean_switch_nrf52832_xxAA_s132_6.0.0.dir/__/__/mesh/core/src/timer.c.obj
 *fill*         0x20004a43        0x1 
 .bss.m_callbacks
                0x20004a44        0xc examples/enocean_switch/CMakeFiles/enocean_switch_nrf52832_xxAA_s132_6.0.0.dir/__/__/mesh/core/src/timer.c.obj
 .bss.m_is_in_ts
                0x20004a50        0x1 examples/enocean_switch/CMakeFiles/enocean_switch_nrf52832_xxAA_s132_6.0.0.dir/__/__/mesh/core/src/timer.c.obj
 *fill*         0x20004a51        0x3 
 .bss.m_reference_time
                0x20004a54        0x4 examples/enocean_switch/CMakeFiles/enocean_switch_nrf52832_xxAA_s132_6.0.0.dir/__/__/mesh/core/src/timer.c.obj
 .bss.m_timeouts
                0x20004a58        0xc examples/enocean_switch/CMakeFiles/enocean_switch_nrf52832_xxAA_s132_6.0.0.dir/__/__/mesh/core/src/timer.c.obj
 .bss.m_timer_mut
                0x20004a64        0x4 examples/enocean_switch/CMakeFiles/enocean_switch_nrf52832_xxAA_s132_6.0.0.dir/__/__/mesh/core/src/timer.c.obj
 .bss.m_ts_end_time
                0x20004a68        0x4 examples/enocean_switch/CMakeFiles/enocean_switch_nrf52832_xxAA_s132_6.0.0.dir/__/__/mesh/core/src/timer.c.obj
 .bss.mp_ppi_tasks
                0x20004a6c        0xc examples/enocean_switch/CMakeFiles/enocean_switch_nrf52832_xxAA_s132_6.0.0.dir/__/__/mesh/core/src/timer.c.obj
 .bss.m_current_time
                0x20004a78        0x4 examples/enocean_switch/CMakeFiles/enocean_switch_nrf52832_xxAA_s132_6.0.0.dir/__/__/mesh/core/src/ticker.c.obj
 .bss.m_timer   0x20004a7c       0x18 examples/enocean_switch/CMakeFiles/enocean_switch_nrf52832_xxAA_s132_6.0.0.dir/__/__/mesh/core/src/ticker.c.obj
 .bss.m_current_timeslot
                0x20004a94       0x1c examples/enocean_switch/CMakeFiles/enocean_switch_nrf52832_xxAA_s132_6.0.0.dir/__/__/mesh/core/src/timeslot.c.obj
 .bss.m_lfclk_ppm
                0x20004ab0        0x4 examples/enocean_switch/CMakeFiles/enocean_switch_nrf52832_xxAA_s132_6.0.0.dir/__/__/mesh/core/src/timeslot.c.obj
 .bss.m_radio_request_earliest
                0x20004ab4       0x10 examples/enocean_switch/CMakeFiles/enocean_switch_nrf52832_xxAA_s132_6.0.0.dir/__/__/mesh/core/src/timeslot.c.obj
 .bss.m_state_lock
                0x20004ac4        0x1 examples/enocean_switch/CMakeFiles/enocean_switch_nrf52832_xxAA_s132_6.0.0.dir/__/__/mesh/core/src/timeslot.c.obj
 .bss.m_timeslot_forced_command
                0x20004ac5        0x1 examples/enocean_switch/CMakeFiles/enocean_switch_nrf52832_xxAA_s132_6.0.0.dir/__/__/mesh/core/src/timeslot.c.obj
 *fill*         0x20004ac6        0x2 
 .bss.s_last_rtc_value.9304
                0x20004ac8        0x8 examples/enocean_switch/CMakeFiles/enocean_switch_nrf52832_xxAA_s132_6.0.0.dir/__/__/mesh/core/src/timeslot.c.obj
 .bss.m_bearer_event_fifo
                0x20004ad0       0x14 examples/enocean_switch/CMakeFiles/enocean_switch_nrf52832_xxAA_s132_6.0.0.dir/__/__/mesh/core/src/bearer_event.c.obj
 .bss.m_bearer_event_fifo_buffer
                0x20004ae4      0x100 examples/enocean_switch/CMakeFiles/enocean_switch_nrf52832_xxAA_s132_6.0.0.dir/__/__/mesh/core/src/bearer_event.c.obj
 .bss.m_critical
                0x20004be4        0x4 examples/enocean_switch/CMakeFiles/enocean_switch_nrf52832_xxAA_s132_6.0.0.dir/__/__/mesh/core/src/bearer_event.c.obj
 .bss.m_flag_count
                0x20004be8        0x4 examples/enocean_switch/CMakeFiles/enocean_switch_nrf52832_xxAA_s132_6.0.0.dir/__/__/mesh/core/src/bearer_event.c.obj
 .bss.m_flag_event_callbacks
                0x20004bec       0x24 examples/enocean_switch/CMakeFiles/enocean_switch_nrf52832_xxAA_s132_6.0.0.dir/__/__/mesh/core/src/bearer_event.c.obj
 .bss.m_flags   0x20004c10        0x4 examples/enocean_switch/CMakeFiles/enocean_switch_nrf52832_xxAA_s132_6.0.0.dir/__/__/mesh/core/src/bearer_event.c.obj
 .bss.m_irq_priority
                0x20004c14        0x1 examples/enocean_switch/CMakeFiles/enocean_switch_nrf52832_xxAA_s132_6.0.0.dir/__/__/mesh/core/src/bearer_event.c.obj
 *fill*         0x20004c15        0x3 
 .bss.m_sequential_event_queue
                0x20004c18        0x8 examples/enocean_switch/CMakeFiles/enocean_switch_nrf52832_xxAA_s132_6.0.0.dir/__/__/mesh/core/src/bearer_event.c.obj
 .bss.s_recursion_guard.9432
                0x20004c20        0x1 examples/enocean_switch/CMakeFiles/enocean_switch_nrf52832_xxAA_s132_6.0.0.dir/__/__/mesh/core/src/bearer_event.c.obj
 *fill*         0x20004c21        0x3 
 .bss.m_relay_check_cb
                0x20004c24        0x4 examples/enocean_switch/CMakeFiles/enocean_switch_nrf52832_xxAA_s132_6.0.0.dir/__/__/mesh/core/src/network.c.obj
 .bss.m_relay_enable
                0x20004c28        0x1 examples/enocean_switch/CMakeFiles/enocean_switch_nrf52832_xxAA_s132_6.0.0.dir/__/__/mesh/core/src/network.c.obj
 *fill*         0x20004c29        0x3 
 .bss.m_action_queue
                0x20004c2c        0xc examples/enocean_switch/CMakeFiles/enocean_switch_nrf52832_xxAA_s132_6.0.0.dir/__/__/mesh/core/src/flash_manager.c.obj
 .bss.m_action_queue_buffer
                0x20004c38      0x104 examples/enocean_switch/CMakeFiles/enocean_switch_nrf52832_xxAA_s132_6.0.0.dir/__/__/mesh/core/src/flash_manager.c.obj
 .bss.m_action_state
                0x20004d3c        0x1 examples/enocean_switch/CMakeFiles/enocean_switch_nrf52832_xxAA_s132_6.0.0.dir/__/__/mesh/core/src/flash_manager.c.obj
 *fill*         0x20004d3d        0x3 
 .bss.m_memory_listener_queue
                0x20004d40        0x8 examples/enocean_switch/CMakeFiles/enocean_switch_nrf52832_xxAA_s132_6.0.0.dir/__/__/mesh/core/src/flash_manager.c.obj
 .bss.m_processing_flag
                0x20004d48        0x4 examples/enocean_switch/CMakeFiles/enocean_switch_nrf52832_xxAA_s132_6.0.0.dir/__/__/mesh/core/src/flash_manager.c.obj
 .bss.m_queue_empty_cb
                0x20004d4c        0x4 examples/enocean_switch/CMakeFiles/enocean_switch_nrf52832_xxAA_s132_6.0.0.dir/__/__/mesh/core/src/flash_manager.c.obj
 .bss.m_state   0x20004d50        0x1 examples/enocean_switch/CMakeFiles/enocean_switch_nrf52832_xxAA_s132_6.0.0.dir/__/__/mesh/core/src/flash_manager.c.obj
 *fill*         0x20004d51        0x1 
 .bss.m_token   0x20004d52        0x2 examples/enocean_switch/CMakeFiles/enocean_switch_nrf52832_xxAA_s132_6.0.0.dir/__/__/mesh/core/src/flash_manager.c.obj
 .bss.p_current.11152
                0x20004d54        0x4 examples/enocean_switch/CMakeFiles/enocean_switch_nrf52832_xxAA_s132_6.0.0.dir/__/__/mesh/core/src/flash_manager.c.obj
 .bss.result.11153
                0x20004d58        0x1 examples/enocean_switch/CMakeFiles/enocean_switch_nrf52832_xxAA_s132_6.0.0.dir/__/__/mesh/core/src/flash_manager.c.obj
 .bss.m_cache_index
                0x20004d59        0x1 examples/enocean_switch/CMakeFiles/enocean_switch_nrf52832_xxAA_s132_6.0.0.dir/__/__/mesh/core/src/replay_cache.c.obj
 *fill*         0x20004d5a        0x2 
 .bss.m_replay_cache
                0x20004d5c      0x200 examples/enocean_switch/CMakeFiles/enocean_switch_nrf52832_xxAA_s132_6.0.0.dir/__/__/mesh/core/src/replay_cache.c.obj
 .bss.m_bearer_count
                0x20004f5c        0x1 examples/enocean_switch/CMakeFiles/enocean_switch_nrf52832_xxAA_s132_6.0.0.dir/__/__/mesh/core/src/core_tx.c.obj
 *fill*         0x20004f5d        0x3 
 .bss.m_tx_complete_callback
                0x20004f60        0x4 examples/enocean_switch/CMakeFiles/enocean_switch_nrf52832_xxAA_s132_6.0.0.dir/__/__/mesh/core/src/core_tx.c.obj
 .bss.mp_bearers
                0x20004f64        0x4 examples/enocean_switch/CMakeFiles/enocean_switch_nrf52832_xxAA_s132_6.0.0.dir/__/__/mesh/core/src/core_tx.c.obj
 .bss.m_hb_core_evt_handler
                0x20004f68        0xc examples/enocean_switch/CMakeFiles/enocean_switch_nrf52832_xxAA_s132_6.0.0.dir/__/__/mesh/core/src/heartbeat.c.obj
 .bss.m_hb_pending_feat_msg
                0x20004f74        0x1 examples/enocean_switch/CMakeFiles/enocean_switch_nrf52832_xxAA_s132_6.0.0.dir/__/__/mesh/core/src/heartbeat.c.obj
 .bss.m_hb_pending_pub_msg
                0x20004f75        0x1 examples/enocean_switch/CMakeFiles/enocean_switch_nrf52832_xxAA_s132_6.0.0.dir/__/__/mesh/core/src/heartbeat.c.obj
 .bss.m_heartbeat_init_done
                0x20004f76        0x1 examples/enocean_switch/CMakeFiles/enocean_switch_nrf52832_xxAA_s132_6.0.0.dir/__/__/mesh/core/src/heartbeat.c.obj
 *fill*         0x20004f77        0x1 
 .bss.m_heartbeat_subscription
                0x20004f78       0x10 examples/enocean_switch/CMakeFiles/enocean_switch_nrf52832_xxAA_s132_6.0.0.dir/__/__/mesh/core/src/heartbeat.c.obj
 .bss.m_publication_count_decrement_cb
                0x20004f88        0x4 examples/enocean_switch/CMakeFiles/enocean_switch_nrf52832_xxAA_s132_6.0.0.dir/__/__/mesh/core/src/heartbeat.c.obj
 .bss.m_publication_get_cb
                0x20004f8c        0x4 examples/enocean_switch/CMakeFiles/enocean_switch_nrf52832_xxAA_s132_6.0.0.dir/__/__/mesh/core/src/heartbeat.c.obj
 .bss.m_publication_timer
                0x20004f90       0x1c examples/enocean_switch/CMakeFiles/enocean_switch_nrf52832_xxAA_s132_6.0.0.dir/__/__/mesh/core/src/heartbeat.c.obj
 .bss.m_subscription_timer
                0x20004fac       0x18 examples/enocean_switch/CMakeFiles/enocean_switch_nrf52832_xxAA_s132_6.0.0.dir/__/__/mesh/core/src/heartbeat.c.obj
 .bss.m_adv     0x20004fc4       0x9c examples/enocean_switch/CMakeFiles/enocean_switch_nrf52832_xxAA_s132_6.0.0.dir/__/__/mesh/core/src/net_beacon.c.obj
 .bss.m_adv_buf
                0x20005060       0x34 examples/enocean_switch/CMakeFiles/enocean_switch_nrf52832_xxAA_s132_6.0.0.dir/__/__/mesh/core/src/net_beacon.c.obj
 .bss.m_beacon_salt
                0x20005094       0x10 examples/enocean_switch/CMakeFiles/enocean_switch_nrf52832_xxAA_s132_6.0.0.dir/__/__/mesh/core/src/net_beacon.c.obj
 .bss.m_enabled
                0x200050a4        0x1 examples/enocean_switch/CMakeFiles/enocean_switch_nrf52832_xxAA_s132_6.0.0.dir/__/__/mesh/core/src/net_beacon.c.obj
 *fill*         0x200050a5        0x3 
 .bss.m_tx_timer
                0x200050a8       0x18 examples/enocean_switch/CMakeFiles/enocean_switch_nrf52832_xxAA_s132_6.0.0.dir/__/__/mesh/core/src/net_beacon.c.obj
 .bss.mp_beacon_info
                0x200050c0        0x4 examples/enocean_switch/CMakeFiles/enocean_switch_nrf52832_xxAA_s132_6.0.0.dir/__/__/mesh/core/src/net_beacon.c.obj
 .bss.m_bearer  0x200050c4        0xc examples/enocean_switch/CMakeFiles/enocean_switch_nrf52832_xxAA_s132_6.0.0.dir/__/__/mesh/core/src/core_tx_adv.c.obj
 .bss.m_bearer_roles
                0x200050d0      0x140 examples/enocean_switch/CMakeFiles/enocean_switch_nrf52832_xxAA_s132_6.0.0.dir/__/__/mesh/core/src/core_tx_adv.c.obj
 .bss.m_current_alloc
                0x20005210        0x8 examples/enocean_switch/CMakeFiles/enocean_switch_nrf52832_xxAA_s132_6.0.0.dir/__/__/mesh/core/src/core_tx_adv.c.obj
 .bss.m_originator_adv_packet_buffer
                0x20005218      0x100 examples/enocean_switch/CMakeFiles/enocean_switch_nrf52832_xxAA_s132_6.0.0.dir/__/__/mesh/core/src/core_tx_adv.c.obj
 .bss.m_relay_adv_packet_buffer
                0x20005318       0x80 examples/enocean_switch/CMakeFiles/enocean_switch_nrf52832_xxAA_s132_6.0.0.dir/__/__/mesh/core/src/core_tx_adv.c.obj
 .bss.m_subscribers
                0x20005398        0x4 examples/enocean_switch/CMakeFiles/enocean_switch_nrf52832_xxAA_s132_6.0.0.dir/__/__/mesh/bearer/src/ad_listener.c.obj
 .bss.m_adtype_filter
                0x2000539c       0x38 examples/enocean_switch/CMakeFiles/enocean_switch_nrf52832_xxAA_s132_6.0.0.dir/__/__/mesh/bearer/src/ad_type_filter.c.obj
 .bss.m_adv_prng
                0x200053d4       0x10 examples/enocean_switch/CMakeFiles/enocean_switch_nrf52832_xxAA_s132_6.0.0.dir/__/__/mesh/bearer/src/advertiser.c.obj
 .bss.m_action_ended
                0x200053e4        0x1 examples/enocean_switch/CMakeFiles/enocean_switch_nrf52832_xxAA_s132_6.0.0.dir/__/__/mesh/bearer/src/bearer_handler.c.obj
 *fill*         0x200053e5        0x3 
 .bss.m_action_queue
                0x200053e8        0x8 examples/enocean_switch/CMakeFiles/enocean_switch_nrf52832_xxAA_s132_6.0.0.dir/__/__/mesh/bearer/src/bearer_handler.c.obj
 .bss.m_end_time
                0x200053f0        0x4 examples/enocean_switch/CMakeFiles/enocean_switch_nrf52832_xxAA_s132_6.0.0.dir/__/__/mesh/bearer/src/bearer_handler.c.obj
 .bss.m_in_callback
                0x200053f4        0x1 examples/enocean_switch/CMakeFiles/enocean_switch_nrf52832_xxAA_s132_6.0.0.dir/__/__/mesh/bearer/src/bearer_handler.c.obj
 .bss.m_scanner_is_active
                0x200053f5        0x1 examples/enocean_switch/CMakeFiles/enocean_switch_nrf52832_xxAA_s132_6.0.0.dir/__/__/mesh/bearer/src/bearer_handler.c.obj
 .bss.m_stopped
                0x200053f6        0x1 examples/enocean_switch/CMakeFiles/enocean_switch_nrf52832_xxAA_s132_6.0.0.dir/__/__/mesh/bearer/src/bearer_handler.c.obj
 *fill*         0x200053f7        0x1 
 .bss.mp_action
                0x200053f8        0x4 examples/enocean_switch/CMakeFiles/enocean_switch_nrf52832_xxAA_s132_6.0.0.dir/__/__/mesh/bearer/src/bearer_handler.c.obj
 .bss.m_action_start_time
                0x200053fc        0x4 examples/enocean_switch/CMakeFiles/enocean_switch_nrf52832_xxAA_s132_6.0.0.dir/__/__/mesh/bearer/src/broadcast.c.obj
 .bss.m_next_channel_index
                0x20005400        0x1 examples/enocean_switch/CMakeFiles/enocean_switch_nrf52832_xxAA_s132_6.0.0.dir/__/__/mesh/bearer/src/broadcast.c.obj
 *fill*         0x20005401        0x3 
 .bss.m_accepted_amount
                0x20005404        0x4 examples/enocean_switch/CMakeFiles/enocean_switch_nrf52832_xxAA_s132_6.0.0.dir/__/__/mesh/bearer/src/filter_engine.c.obj
 .bss.m_filter_list_head
                0x20005408        0x4 examples/enocean_switch/CMakeFiles/enocean_switch_nrf52832_xxAA_s132_6.0.0.dir/__/__/mesh/bearer/src/filter_engine.c.obj
 .bss.m_scanner
                0x2000540c      0x298 examples/enocean_switch/CMakeFiles/enocean_switch_nrf52832_xxAA_s132_6.0.0.dir/__/__/mesh/bearer/src/scanner.c.obj
 .bss.m_gpiote  0x200056a4        0x6 examples/enocean_switch/CMakeFiles/enocean_switch_nrf52832_xxAA_s132_6.0.0.dir/__/__/mesh/bearer/src/mesh_pa_lna.c.obj
 .bss.m_tid     0x200056aa        0x1 examples/enocean_switch/CMakeFiles/enocean_switch_nrf52832_xxAA_s132_6.0.0.dir/__/__/models/simple_on_off/src/simple_on_off_client.c.obj
 *fill*         0x200056ab        0x1 
 .bss.m_evt_cb  0x200056ac        0x4 examples/enocean_switch/CMakeFiles/enocean_switch_nrf52832_xxAA_s132_6.0.0.dir/__/__/models/config/src/config_server.c.obj
 .bss.m_heartbeat_publication
                0x200056b0       0x14 examples/enocean_switch/CMakeFiles/enocean_switch_nrf52832_xxAA_s132_6.0.0.dir/__/__/models/config/src/config_server.c.obj
 .bss.m_node_reset_pending
                0x200056c4        0x1 examples/enocean_switch/CMakeFiles/enocean_switch_nrf52832_xxAA_s132_6.0.0.dir/__/__/models/config/src/config_server.c.obj
 *fill*         0x200056c5        0x3 
 .bss.m_reset_token
                0x200056c8        0x4 examples/enocean_switch/CMakeFiles/enocean_switch_nrf52832_xxAA_s132_6.0.0.dir/__/__/models/config/src/config_server.c.obj
 .bss.m_attention_timer
                0x200056cc       0x18 examples/enocean_switch/CMakeFiles/enocean_switch_nrf52832_xxAA_s132_6.0.0.dir/__/__/models/health/src/health_server.c.obj
 .bss.mp_attention_list
                0x200056e4        0x4 examples/enocean_switch/CMakeFiles/enocean_switch_nrf52832_xxAA_s132_6.0.0.dir/__/__/models/health/src/health_server.c.obj
 .bss.m_publish_timer
                0x200056e8       0x18 examples/enocean_switch/CMakeFiles/enocean_switch_nrf52832_xxAA_s132_6.0.0.dir/__/__/mesh/access/src/access_publish.c.obj
 .bss.m_publish_timer_counter
                0x20005700        0x4 examples/enocean_switch/CMakeFiles/enocean_switch_nrf52832_xxAA_s132_6.0.0.dir/__/__/mesh/access/src/access_publish.c.obj
 .bss.m_publish_timer_running
                0x20005704        0x1 examples/enocean_switch/CMakeFiles/enocean_switch_nrf52832_xxAA_s132_6.0.0.dir/__/__/mesh/access/src/access_publish.c.obj
 .bss.m_timer_resolution
                0x20005705        0x1 examples/enocean_switch/CMakeFiles/enocean_switch_nrf52832_xxAA_s132_6.0.0.dir/__/__/mesh/access/src/access_publish.c.obj
 *fill*         0x20005706        0x2 
 .bss.mp_publication_list
                0x20005708        0x4 examples/enocean_switch/CMakeFiles/enocean_switch_nrf52832_xxAA_s132_6.0.0.dir/__/__/mesh/access/src/access_publish.c.obj
 .bss.m_element_pool
                0x2000570c       0x1e examples/enocean_switch/CMakeFiles/enocean_switch_nrf52832_xxAA_s132_6.0.0.dir/__/__/mesh/access/src/access.c.obj
 *fill*         0x2000572a        0x2 
 .bss.m_evt_handler
                0x2000572c        0xc examples/enocean_switch/CMakeFiles/enocean_switch_nrf52832_xxAA_s132_6.0.0.dir/__/__/mesh/access/src/access.c.obj
 .bss.m_flash_manager
                0x20005738       0x24 examples/enocean_switch/CMakeFiles/enocean_switch_nrf52832_xxAA_s132_6.0.0.dir/__/__/mesh/access/src/access.c.obj
 .bss.m_flash_not_ready
                0x2000575c        0x1 examples/enocean_switch/CMakeFiles/enocean_switch_nrf52832_xxAA_s132_6.0.0.dir/__/__/mesh/access/src/access.c.obj
 .bss.m_metadata_stored
                0x2000575d        0x1 examples/enocean_switch/CMakeFiles/enocean_switch_nrf52832_xxAA_s132_6.0.0.dir/__/__/mesh/access/src/access.c.obj
 *fill*         0x2000575e        0x2 
 .bss.m_model_pool
                0x20005760      0x138 examples/enocean_switch/CMakeFiles/enocean_switch_nrf52832_xxAA_s132_6.0.0.dir/__/__/mesh/access/src/access.c.obj
 .bss.m_subscription_list_pool
                0x20005898       0x30 examples/enocean_switch/CMakeFiles/enocean_switch_nrf52832_xxAA_s132_6.0.0.dir/__/__/mesh/access/src/access.c.obj
 .bss.m_reliable
                0x200058c8      0x124 examples/enocean_switch/CMakeFiles/enocean_switch_nrf52832_xxAA_s132_6.0.0.dir/__/__/mesh/access/src/access_reliable.c.obj
 .bss.m_access_loopback_flag
                0x200059ec        0x4 examples/enocean_switch/CMakeFiles/enocean_switch_nrf52832_xxAA_s132_6.0.0.dir/__/__/mesh/access/src/access_loopback.c.obj
 .bss.mp_loopback_list_head
                0x200059f0        0x4 examples/enocean_switch/CMakeFiles/enocean_switch_nrf52832_xxAA_s132_6.0.0.dir/__/__/mesh/access/src/access_loopback.c.obj
 .bss.m_addr_nonvirtual_allocated
                0x200059f4        0x4 examples/enocean_switch/CMakeFiles/enocean_switch_nrf52832_xxAA_s132_6.0.0.dir/__/__/mesh/access/src/device_state_manager.c.obj
 .bss.m_addr_nonvirtual_needs_flashing
                0x200059f8        0x4 examples/enocean_switch/CMakeFiles/enocean_switch_nrf52832_xxAA_s132_6.0.0.dir/__/__/mesh/access/src/device_state_manager.c.obj
 .bss.m_addr_unicast_allocated
                0x200059fc        0x4 examples/enocean_switch/CMakeFiles/enocean_switch_nrf52832_xxAA_s132_6.0.0.dir/__/__/mesh/access/src/device_state_manager.c.obj
 .bss.m_addr_unicast_needs_flashing
                0x20005a00        0x4 examples/enocean_switch/CMakeFiles/enocean_switch_nrf52832_xxAA_s132_6.0.0.dir/__/__/mesh/access/src/device_state_manager.c.obj
 .bss.m_addr_virtual_allocated
                0x20005a04        0x4 examples/enocean_switch/CMakeFiles/enocean_switch_nrf52832_xxAA_s132_6.0.0.dir/__/__/mesh/access/src/device_state_manager.c.obj
 .bss.m_addr_virtual_needs_flashing
                0x20005a08        0x4 examples/enocean_switch/CMakeFiles/enocean_switch_nrf52832_xxAA_s132_6.0.0.dir/__/__/mesh/access/src/device_state_manager.c.obj
 .bss.m_addresses
                0x20005a0c       0x40 examples/enocean_switch/CMakeFiles/enocean_switch_nrf52832_xxAA_s132_6.0.0.dir/__/__/mesh/access/src/device_state_manager.c.obj
 .bss.m_appkey_allocated
                0x20005a4c        0x4 examples/enocean_switch/CMakeFiles/enocean_switch_nrf52832_xxAA_s132_6.0.0.dir/__/__/mesh/access/src/device_state_manager.c.obj
 .bss.m_appkey_needs_flashing
                0x20005a50        0x4 examples/enocean_switch/CMakeFiles/enocean_switch_nrf52832_xxAA_s132_6.0.0.dir/__/__/mesh/access/src/device_state_manager.c.obj
 .bss.m_appkeys
                0x20005a54      0x150 examples/enocean_switch/CMakeFiles/enocean_switch_nrf52832_xxAA_s132_6.0.0.dir/__/__/mesh/access/src/device_state_manager.c.obj
 .bss.m_devkey_allocated
                0x20005ba4        0x4 examples/enocean_switch/CMakeFiles/enocean_switch_nrf52832_xxAA_s132_6.0.0.dir/__/__/mesh/access/src/device_state_manager.c.obj
 .bss.m_devkey_needs_flashing
                0x20005ba8        0x4 examples/enocean_switch/CMakeFiles/enocean_switch_nrf52832_xxAA_s132_6.0.0.dir/__/__/mesh/access/src/device_state_manager.c.obj
 .bss.m_devkeys
                0x20005bac       0x16 examples/enocean_switch/CMakeFiles/enocean_switch_nrf52832_xxAA_s132_6.0.0.dir/__/__/mesh/access/src/device_state_manager.c.obj
 .bss.m_flash_is_available
                0x20005bc2        0x1 examples/enocean_switch/CMakeFiles/enocean_switch_nrf52832_xxAA_s132_6.0.0.dir/__/__/mesh/access/src/device_state_manager.c.obj
 *fill*         0x20005bc3        0x1 
 .bss.m_flash_manager
                0x20005bc4       0x24 examples/enocean_switch/CMakeFiles/enocean_switch_nrf52832_xxAA_s132_6.0.0.dir/__/__/mesh/access/src/device_state_manager.c.obj
 .bss.m_flash_mem_listener_update_all
                0x20005be8       0x10 examples/enocean_switch/CMakeFiles/enocean_switch_nrf52832_xxAA_s132_6.0.0.dir/__/__/mesh/access/src/device_state_manager.c.obj
 .bss.m_has_primary_subnet
                0x20005bf8        0x1 examples/enocean_switch/CMakeFiles/enocean_switch_nrf52832_xxAA_s132_6.0.0.dir/__/__/mesh/access/src/device_state_manager.c.obj
 *fill*         0x20005bf9        0x1 
 .bss.m_local_unicast_addr
                0x20005bfa        0x4 examples/enocean_switch/CMakeFiles/enocean_switch_nrf52832_xxAA_s132_6.0.0.dir/__/__/mesh/access/src/device_state_manager.c.obj
 *fill*         0x20005bfe        0x2 
 .bss.m_mesh_evt_handler
                0x20005c00        0xc examples/enocean_switch/CMakeFiles/enocean_switch_nrf52832_xxAA_s132_6.0.0.dir/__/__/mesh/access/src/device_state_manager.c.obj
 .bss.m_subnet_allocated
                0x20005c0c        0x4 examples/enocean_switch/CMakeFiles/enocean_switch_nrf52832_xxAA_s132_6.0.0.dir/__/__/mesh/access/src/device_state_manager.c.obj
 .bss.m_subnet_needs_flashing
                0x20005c10        0x4 examples/enocean_switch/CMakeFiles/enocean_switch_nrf52832_xxAA_s132_6.0.0.dir/__/__/mesh/access/src/device_state_manager.c.obj
 .bss.m_subnets
                0x20005c14      0x2a0 examples/enocean_switch/CMakeFiles/enocean_switch_nrf52832_xxAA_s132_6.0.0.dir/__/__/mesh/access/src/device_state_manager.c.obj
 .bss.m_virtual_addresses
                0x20005eb4       0xa0 examples/enocean_switch/CMakeFiles/enocean_switch_nrf52832_xxAA_s132_6.0.0.dir/__/__/mesh/access/src/device_state_manager.c.obj
 .bss.m_event_handler
                0x20005f54        0x4 examples/enocean_switch/CMakeFiles/enocean_switch_nrf52832_xxAA_s132_6.0.0.dir/__/__/mesh/prov/src/prov_beacon.c.obj
 .bss.m_offload_ecdh
                0x20005f58        0x1 examples/enocean_switch/CMakeFiles/enocean_switch_nrf52832_xxAA_s132_6.0.0.dir/__/__/mesh/prov/src/prov_utils.c.obj
 *fill*         0x20005f59        0x3 
 .bss.mp_bearer_head
                0x20005f5c        0x4 examples/enocean_switch/CMakeFiles/enocean_switch_nrf52832_xxAA_s132_6.0.0.dir/__/__/mesh/prov/src/prov_bearer_adv.c.obj
 .bss.m_op_queue
                0x20005f60      0x10c examples/enocean_switch/CMakeFiles/enocean_switch_nrf52832_xxAA_s132_6.0.0.dir/C_/b/nRF5_SDK_15.0.0_a53641a/components/libraries/timer/app_timer.c.obj
 .bss.m_rtc1_reset
                0x2000606c        0x1 examples/enocean_switch/CMakeFiles/enocean_switch_nrf52832_xxAA_s132_6.0.0.dir/C_/b/nRF5_SDK_15.0.0_a53641a/components/libraries/timer/app_timer.c.obj
 .bss.m_rtc1_running
                0x2000606d        0x1 examples/enocean_switch/CMakeFiles/enocean_switch_nrf52832_xxAA_s132_6.0.0.dir/C_/b/nRF5_SDK_15.0.0_a53641a/components/libraries/timer/app_timer.c.obj
 *fill*         0x2000606e        0x2 
 .bss.m_ticks_elapsed
                0x20006070        0x8 examples/enocean_switch/CMakeFiles/enocean_switch_nrf52832_xxAA_s132_6.0.0.dir/C_/b/nRF5_SDK_15.0.0_a53641a/components/libraries/timer/app_timer.c.obj
 .bss.m_ticks_elapsed_q_read_ind
                0x20006078        0x1 examples/enocean_switch/CMakeFiles/enocean_switch_nrf52832_xxAA_s132_6.0.0.dir/C_/b/nRF5_SDK_15.0.0_a53641a/components/libraries/timer/app_timer.c.obj
 .bss.m_ticks_elapsed_q_write_ind
                0x20006079        0x1 examples/enocean_switch/CMakeFiles/enocean_switch_nrf52832_xxAA_s132_6.0.0.dir/C_/b/nRF5_SDK_15.0.0_a53641a/components/libraries/timer/app_timer.c.obj
 *fill*         0x2000607a        0x2 
 .bss.m_ticks_latest
                0x2000607c        0x4 examples/enocean_switch/CMakeFiles/enocean_switch_nrf52832_xxAA_s132_6.0.0.dir/C_/b/nRF5_SDK_15.0.0_a53641a/components/libraries/timer/app_timer.c.obj
 .bss.mp_timer_id_head
                0x20006080        0x4 examples/enocean_switch/CMakeFiles/enocean_switch_nrf52832_xxAA_s132_6.0.0.dir/C_/b/nRF5_SDK_15.0.0_a53641a/components/libraries/timer/app_timer.c.obj
 .bss._acDownBuffer
                0x20006084       0x80 external/rtt/librtt_nrf52832_xxAA.a(SEGGER_RTT.c.obj)
 .bss._acUpBuffer
                0x20006104      0x400 external/rtt/librtt_nrf52832_xxAA.a(SEGGER_RTT.c.obj)
 .bss.__malloc_free_list
                0x20006504        0x4 c:/mesh/arm_gcc/bin/../lib/gcc/arm-none-eabi/6.3.1/../../../../arm-none-eabi/lib/thumb/v7e-m/fpv4-sp/hard\libg_nano.a(lib_a-nano-mallocr.o)
                0x20006504                __malloc_free_list
 .bss.__malloc_sbrk_start
                0x20006508        0x4 c:/mesh/arm_gcc/bin/../lib/gcc/arm-none-eabi/6.3.1/../../../../arm-none-eabi/lib/thumb/v7e-m/fpv4-sp/hard\libg_nano.a(lib_a-nano-mallocr.o)
                0x20006508                __malloc_sbrk_start
 .bss.heap_end.5239
                0x2000650c        0x4 c:/mesh/arm_gcc/bin/../lib/gcc/arm-none-eabi/6.3.1/../../../../arm-none-eabi/lib/thumb/v7e-m/fpv4-sp/hard\libnosys.a(sbrk.o)
 *(COMMON)
 COMMON         0x20006510       0x24 examples/enocean_switch/CMakeFiles/enocean_switch_nrf52832_xxAA_s132_6.0.0.dir/__/__/mesh/core/src/core_tx.c.obj
                0x20006510                m_packet
 COMMON         0x20006534        0xc examples/enocean_switch/CMakeFiles/enocean_switch_nrf52832_xxAA_s132_6.0.0.dir/C_/b/nRF5_SDK_15.0.0_a53641a/components/libraries/util/app_util_platform.c.obj
                0x20006534                nrf_nvic_state
 COMMON         0x20006540       0x78 external/rtt/librtt_nrf52832_xxAA.a(SEGGER_RTT.c.obj)
                0x20006540                _SEGGER_RTT
 COMMON         0x200065b8        0x4 c:/mesh/arm_gcc/bin/../lib/gcc/arm-none-eabi/6.3.1/../../../../arm-none-eabi/lib/thumb/v7e-m/fpv4-sp/hard\libg_nano.a(lib_a-reent.o)
                0x200065b8                errno
                0x200065bc                . = ALIGN (0x4)
                0x200065bc                __bss_end__ = .

.heap           0x200065c0     0x2000
                0x200065c0                __HeapBase = .
                0x200065c0                __end__ = .
                0x200065c0                PROVIDE (end, .)
 *(.heap*)
 .heap          0x200065c0     0x2000 examples/enocean_switch/CMakeFiles/enocean_switch_nrf52832_xxAA_s132_6.0.0.dir/C_/b/nRF5_SDK_15.0.0_a53641a/modules/nrfx/mdk/gcc_startup_nrf52.S.obj
                0x200085c0                __HeapLimit = .

.stack_dummy    0x200065c0     0x2000
 *(.stack*)
 .stack         0x200065c0     0x2000 examples/enocean_switch/CMakeFiles/enocean_switch_nrf52832_xxAA_s132_6.0.0.dir/C_/b/nRF5_SDK_15.0.0_a53641a/modules/nrfx/mdk/gcc_startup_nrf52.S.obj
                0x2000fd00                __StackTop = (ORIGIN (RAM) + LENGTH (RAM))
                0x2000dd00                __StackLimit = (__StackTop - SIZEOF (.stack_dummy))
                0x2000fd00                PROVIDE (__stack, __StackTop)
                0x00000001                ASSERT ((__StackLimit >= __HeapLimit), region RAM overflowed with stack)
                0x00000178                DataInitFlashUsed = (__bss_start__ - __data_start__)
                0x00014ecc                CodeFlashUsed = (__etext - ORIGIN (FLASH))
                0x00015044                TotalFlashUsed = (CodeFlashUsed + DataInitFlashUsed)
                0x00000001                ASSERT ((TotalFlashUsed <= LENGTH (FLASH)), region FLASH overflowed with .data and user data)
OUTPUT(examples\enocean_switch\enocean_switch_nrf52832_xxAA_s132_6.0.0.elf elf32-littlearm)

.ARM.attributes
                0x00000000       0x30
 .ARM.attributes
                0x00000000       0x22 c:/mesh/arm_gcc/bin/../lib/gcc/arm-none-eabi/6.3.1/thumb/v7e-m/fpv4-sp/hard/crti.o
 .ARM.attributes
                0x00000022       0x34 c:/mesh/arm_gcc/bin/../lib/gcc/arm-none-eabi/6.3.1/thumb/v7e-m/fpv4-sp/hard/crtbegin.o
 .ARM.attributes
                0x00000056       0x20 c:/mesh/arm_gcc/bin/../lib/gcc/arm-none-eabi/6.3.1/../../../../arm-none-eabi/lib/thumb/v7e-m/fpv4-sp/hard/crt0.o
 .ARM.attributes
                0x00000076       0x39 examples/enocean_switch/CMakeFiles/enocean_switch_nrf52832_xxAA_s132_6.0.0.dir/src/main.c.obj
 .ARM.attributes
                0x000000af       0x39 examples/enocean_switch/CMakeFiles/enocean_switch_nrf52832_xxAA_s132_6.0.0.dir/src/enocean.c.obj
 .ARM.attributes
                0x000000e8       0x39 examples/enocean_switch/CMakeFiles/enocean_switch_nrf52832_xxAA_s132_6.0.0.dir/src/flash_helper.c.obj
 .ARM.attributes
                0x00000121       0x39 examples/enocean_switch/CMakeFiles/enocean_switch_nrf52832_xxAA_s132_6.0.0.dir/__/__/mesh/stack/src/mesh_stack.c.obj
 .ARM.attributes
                0x0000015a       0x39 examples/enocean_switch/CMakeFiles/enocean_switch_nrf52832_xxAA_s132_6.0.0.dir/__/common/src/mesh_softdevice_init.c.obj
 .ARM.attributes
                0x00000193       0x39 examples/enocean_switch/CMakeFiles/enocean_switch_nrf52832_xxAA_s132_6.0.0.dir/__/common/src/mesh_provisionee.c.obj
 .ARM.attributes
                0x000001cc       0x39 examples/enocean_switch/CMakeFiles/enocean_switch_nrf52832_xxAA_s132_6.0.0.dir/__/common/src/rtt_input.c.obj
 .ARM.attributes
                0x00000205       0x39 examples/enocean_switch/CMakeFiles/enocean_switch_nrf52832_xxAA_s132_6.0.0.dir/__/common/src/simple_hal.c.obj
 .ARM.attributes
                0x0000023e       0x39 examples/enocean_switch/CMakeFiles/enocean_switch_nrf52832_xxAA_s132_6.0.0.dir/__/nrf_mesh_weak.c.obj
 .ARM.attributes
                0x00000277       0x39 examples/enocean_switch/CMakeFiles/enocean_switch_nrf52832_xxAA_s132_6.0.0.dir/__/common/src/app_error_weak.c.obj
 .ARM.attributes
                0x000002b0       0x39 examples/enocean_switch/CMakeFiles/enocean_switch_nrf52832_xxAA_s132_6.0.0.dir/__/common/src/assertion_handler_weak.c.obj
 .ARM.attributes
                0x000002e9       0x39 examples/enocean_switch/CMakeFiles/enocean_switch_nrf52832_xxAA_s132_6.0.0.dir/__/__/mesh/core/src/nrf_mesh_configure.c.obj
 .ARM.attributes
                0x00000322       0x39 examples/enocean_switch/CMakeFiles/enocean_switch_nrf52832_xxAA_s132_6.0.0.dir/__/__/mesh/core/src/msg_cache.c.obj
 .ARM.attributes
                0x0000035b       0x39 examples/enocean_switch/CMakeFiles/enocean_switch_nrf52832_xxAA_s132_6.0.0.dir/__/__/mesh/core/src/transport.c.obj
 .ARM.attributes
                0x00000394       0x39 examples/enocean_switch/CMakeFiles/enocean_switch_nrf52832_xxAA_s132_6.0.0.dir/__/__/mesh/core/src/event.c.obj
 .ARM.attributes
                0x000003cd       0x39 examples/enocean_switch/CMakeFiles/enocean_switch_nrf52832_xxAA_s132_6.0.0.dir/__/__/mesh/core/src/packet_buffer.c.obj
 .ARM.attributes
                0x00000406       0x39 examples/enocean_switch/CMakeFiles/enocean_switch_nrf52832_xxAA_s132_6.0.0.dir/__/__/mesh/core/src/flash_manager_defrag.c.obj
 .ARM.attributes
                0x0000043f       0x39 examples/enocean_switch/CMakeFiles/enocean_switch_nrf52832_xxAA_s132_6.0.0.dir/__/__/mesh/core/src/fifo.c.obj
 .ARM.attributes
                0x00000478       0x39 examples/enocean_switch/CMakeFiles/enocean_switch_nrf52832_xxAA_s132_6.0.0.dir/__/__/mesh/core/src/nrf_flash.c.obj
 .ARM.attributes
                0x000004b1       0x39 examples/enocean_switch/CMakeFiles/enocean_switch_nrf52832_xxAA_s132_6.0.0.dir/__/__/mesh/core/src/packet_mgr.c.obj
 .ARM.attributes
                0x000004ea       0x39 examples/enocean_switch/CMakeFiles/enocean_switch_nrf52832_xxAA_s132_6.0.0.dir/__/__/mesh/core/src/net_state.c.obj
 .ARM.attributes
                0x00000523       0x39 examples/enocean_switch/CMakeFiles/enocean_switch_nrf52832_xxAA_s132_6.0.0.dir/__/__/mesh/core/src/mesh_flash.c.obj
 .ARM.attributes
                0x0000055c       0x39 examples/enocean_switch/CMakeFiles/enocean_switch_nrf52832_xxAA_s132_6.0.0.dir/__/__/mesh/core/src/nrf_mesh_utils.c.obj
 .ARM.attributes
                0x00000595       0x39 examples/enocean_switch/CMakeFiles/enocean_switch_nrf52832_xxAA_s132_6.0.0.dir/__/__/mesh/core/src/nrf_mesh.c.obj
 .ARM.attributes
                0x000005ce       0x39 examples/enocean_switch/CMakeFiles/enocean_switch_nrf52832_xxAA_s132_6.0.0.dir/__/__/mesh/core/src/queue.c.obj
 .ARM.attributes
                0x00000607       0x39 examples/enocean_switch/CMakeFiles/enocean_switch_nrf52832_xxAA_s132_6.0.0.dir/__/__/mesh/core/src/hal.c.obj
 .ARM.attributes
                0x00000640       0x39 examples/enocean_switch/CMakeFiles/enocean_switch_nrf52832_xxAA_s132_6.0.0.dir/__/__/mesh/core/src/aes_cmac.c.obj
 .ARM.attributes
                0x00000679       0x39 examples/enocean_switch/CMakeFiles/enocean_switch_nrf52832_xxAA_s132_6.0.0.dir/__/__/mesh/core/src/timer_scheduler.c.obj
 .ARM.attributes
                0x000006b2       0x39 examples/enocean_switch/CMakeFiles/enocean_switch_nrf52832_xxAA_s132_6.0.0.dir/__/__/mesh/core/src/timer.c.obj
 .ARM.attributes
                0x000006eb       0x39 examples/enocean_switch/CMakeFiles/enocean_switch_nrf52832_xxAA_s132_6.0.0.dir/__/__/mesh/core/src/ticker.c.obj
 .ARM.attributes
                0x00000724       0x39 examples/enocean_switch/CMakeFiles/enocean_switch_nrf52832_xxAA_s132_6.0.0.dir/__/__/mesh/core/src/rand.c.obj
 .ARM.attributes
                0x0000075d       0x39 examples/enocean_switch/CMakeFiles/enocean_switch_nrf52832_xxAA_s132_6.0.0.dir/__/__/mesh/core/src/nrf_mesh_opt.c.obj
 .ARM.attributes
                0x00000796       0x39 examples/enocean_switch/CMakeFiles/enocean_switch_nrf52832_xxAA_s132_6.0.0.dir/__/__/mesh/core/src/timeslot.c.obj
 .ARM.attributes
                0x000007cf       0x39 examples/enocean_switch/CMakeFiles/enocean_switch_nrf52832_xxAA_s132_6.0.0.dir/__/__/mesh/core/src/bearer_event.c.obj
 .ARM.attributes
                0x00000808       0x39 examples/enocean_switch/CMakeFiles/enocean_switch_nrf52832_xxAA_s132_6.0.0.dir/__/__/mesh/core/src/enc.c.obj
 .ARM.attributes
                0x00000841       0x39 examples/enocean_switch/CMakeFiles/enocean_switch_nrf52832_xxAA_s132_6.0.0.dir/__/__/mesh/core/src/network.c.obj
 .ARM.attributes
                0x0000087a       0x39 examples/enocean_switch/CMakeFiles/enocean_switch_nrf52832_xxAA_s132_6.0.0.dir/__/__/mesh/core/src/net_packet.c.obj
 .ARM.attributes
                0x000008b3       0x39 examples/enocean_switch/CMakeFiles/enocean_switch_nrf52832_xxAA_s132_6.0.0.dir/__/__/mesh/core/src/msqueue.c.obj
 .ARM.attributes
                0x000008ec       0x39 examples/enocean_switch/CMakeFiles/enocean_switch_nrf52832_xxAA_s132_6.0.0.dir/__/__/mesh/core/src/nrf_mesh_keygen.c.obj
 .ARM.attributes
                0x00000925       0x39 examples/enocean_switch/CMakeFiles/enocean_switch_nrf52832_xxAA_s132_6.0.0.dir/__/__/mesh/core/src/list.c.obj
 .ARM.attributes
                0x0000095e       0x39 examples/enocean_switch/CMakeFiles/enocean_switch_nrf52832_xxAA_s132_6.0.0.dir/__/__/mesh/core/src/log.c.obj
 .ARM.attributes
                0x00000997       0x39 examples/enocean_switch/CMakeFiles/enocean_switch_nrf52832_xxAA_s132_6.0.0.dir/__/__/mesh/core/src/flash_manager.c.obj
 .ARM.attributes
                0x000009d0       0x39 examples/enocean_switch/CMakeFiles/enocean_switch_nrf52832_xxAA_s132_6.0.0.dir/__/__/mesh/core/src/ccm_soft.c.obj
 .ARM.attributes
                0x00000a09       0x39 examples/enocean_switch/CMakeFiles/enocean_switch_nrf52832_xxAA_s132_6.0.0.dir/__/__/mesh/core/src/replay_cache.c.obj
 .ARM.attributes
                0x00000a42       0x39 examples/enocean_switch/CMakeFiles/enocean_switch_nrf52832_xxAA_s132_6.0.0.dir/__/__/mesh/core/src/beacon.c.obj
 .ARM.attributes
                0x00000a7b       0x39 examples/enocean_switch/CMakeFiles/enocean_switch_nrf52832_xxAA_s132_6.0.0.dir/__/__/mesh/core/src/flash_manager_internal.c.obj
 .ARM.attributes
                0x00000ab4       0x39 examples/enocean_switch/CMakeFiles/enocean_switch_nrf52832_xxAA_s132_6.0.0.dir/__/__/mesh/core/src/core_tx.c.obj
 .ARM.attributes
                0x00000aed       0x39 examples/enocean_switch/CMakeFiles/enocean_switch_nrf52832_xxAA_s132_6.0.0.dir/__/__/mesh/core/src/heartbeat.c.obj
 .ARM.attributes
                0x00000b26       0x39 examples/enocean_switch/CMakeFiles/enocean_switch_nrf52832_xxAA_s132_6.0.0.dir/__/__/mesh/core/src/net_beacon.c.obj
 .ARM.attributes
                0x00000b5f       0x39 examples/enocean_switch/CMakeFiles/enocean_switch_nrf52832_xxAA_s132_6.0.0.dir/__/__/mesh/core/src/core_tx_adv.c.obj
 .ARM.attributes
                0x00000b98       0x39 examples/enocean_switch/CMakeFiles/enocean_switch_nrf52832_xxAA_s132_6.0.0.dir/__/__/mesh/bearer/src/ad_listener.c.obj
 .ARM.attributes
                0x00000bd1       0x39 examples/enocean_switch/CMakeFiles/enocean_switch_nrf52832_xxAA_s132_6.0.0.dir/__/__/mesh/bearer/src/ad_type_filter.c.obj
 .ARM.attributes
                0x00000c0a       0x39 examples/enocean_switch/CMakeFiles/enocean_switch_nrf52832_xxAA_s132_6.0.0.dir/__/__/mesh/bearer/src/advertiser.c.obj
 .ARM.attributes
                0x00000c43       0x39 examples/enocean_switch/CMakeFiles/enocean_switch_nrf52832_xxAA_s132_6.0.0.dir/__/__/mesh/bearer/src/bearer_handler.c.obj
 .ARM.attributes
                0x00000c7c       0x39 examples/enocean_switch/CMakeFiles/enocean_switch_nrf52832_xxAA_s132_6.0.0.dir/__/__/mesh/bearer/src/broadcast.c.obj
 .ARM.attributes
                0x00000cb5       0x39 examples/enocean_switch/CMakeFiles/enocean_switch_nrf52832_xxAA_s132_6.0.0.dir/__/__/mesh/bearer/src/filter_engine.c.obj
 .ARM.attributes
                0x00000cee       0x39 examples/enocean_switch/CMakeFiles/enocean_switch_nrf52832_xxAA_s132_6.0.0.dir/__/__/mesh/bearer/src/radio_config.c.obj
 .ARM.attributes
                0x00000d27       0x39 examples/enocean_switch/CMakeFiles/enocean_switch_nrf52832_xxAA_s132_6.0.0.dir/__/__/mesh/bearer/src/scanner.c.obj
 .ARM.attributes
                0x00000d60       0x39 examples/enocean_switch/CMakeFiles/enocean_switch_nrf52832_xxAA_s132_6.0.0.dir/__/__/mesh/bearer/src/mesh_pa_lna.c.obj
 .ARM.attributes
                0x00000d99       0x39 examples/enocean_switch/CMakeFiles/enocean_switch_nrf52832_xxAA_s132_6.0.0.dir/__/__/models/simple_on_off/src/simple_on_off_client.c.obj
 .ARM.attributes
                0x00000dd2       0x39 examples/enocean_switch/CMakeFiles/enocean_switch_nrf52832_xxAA_s132_6.0.0.dir/__/__/models/config/src/composition_data.c.obj
 .ARM.attributes
                0x00000e0b       0x39 examples/enocean_switch/CMakeFiles/enocean_switch_nrf52832_xxAA_s132_6.0.0.dir/__/__/models/config/src/config_server.c.obj
 .ARM.attributes
                0x00000e44       0x39 examples/enocean_switch/CMakeFiles/enocean_switch_nrf52832_xxAA_s132_6.0.0.dir/__/__/models/config/src/packed_index_list.c.obj
 .ARM.attributes
                0x00000e7d       0x39 examples/enocean_switch/CMakeFiles/enocean_switch_nrf52832_xxAA_s132_6.0.0.dir/__/__/models/health/src/health_server.c.obj
 .ARM.attributes
                0x00000eb6       0x39 examples/enocean_switch/CMakeFiles/enocean_switch_nrf52832_xxAA_s132_6.0.0.dir/__/__/mesh/access/src/access_publish.c.obj
 .ARM.attributes
                0x00000eef       0x39 examples/enocean_switch/CMakeFiles/enocean_switch_nrf52832_xxAA_s132_6.0.0.dir/__/__/mesh/access/src/access.c.obj
 .ARM.attributes
                0x00000f28       0x39 examples/enocean_switch/CMakeFiles/enocean_switch_nrf52832_xxAA_s132_6.0.0.dir/__/__/mesh/access/src/access_reliable.c.obj
 .ARM.attributes
                0x00000f61       0x39 examples/enocean_switch/CMakeFiles/enocean_switch_nrf52832_xxAA_s132_6.0.0.dir/__/__/mesh/access/src/access_loopback.c.obj
 .ARM.attributes
                0x00000f9a       0x39 examples/enocean_switch/CMakeFiles/enocean_switch_nrf52832_xxAA_s132_6.0.0.dir/__/__/mesh/access/src/device_state_manager.c.obj
 .ARM.attributes
                0x00000fd3       0x39 examples/enocean_switch/CMakeFiles/enocean_switch_nrf52832_xxAA_s132_6.0.0.dir/__/__/mesh/prov/src/prov_provisionee.c.obj
 .ARM.attributes
                0x0000100c       0x39 examples/enocean_switch/CMakeFiles/enocean_switch_nrf52832_xxAA_s132_6.0.0.dir/__/__/mesh/prov/src/nrf_mesh_prov.c.obj
 .ARM.attributes
                0x00001045       0x39 examples/enocean_switch/CMakeFiles/enocean_switch_nrf52832_xxAA_s132_6.0.0.dir/__/__/mesh/prov/src/provisioning.c.obj
 .ARM.attributes
                0x0000107e       0x39 examples/enocean_switch/CMakeFiles/enocean_switch_nrf52832_xxAA_s132_6.0.0.dir/__/__/mesh/prov/src/prov_beacon.c.obj
 .ARM.attributes
                0x000010b7       0x39 examples/enocean_switch/CMakeFiles/enocean_switch_nrf52832_xxAA_s132_6.0.0.dir/__/__/mesh/prov/src/prov_utils.c.obj
 .ARM.attributes
                0x000010f0       0x39 examples/enocean_switch/CMakeFiles/enocean_switch_nrf52832_xxAA_s132_6.0.0.dir/__/__/mesh/prov/src/prov_bearer_adv.c.obj
 .ARM.attributes
                0x00001129       0x39 examples/enocean_switch/CMakeFiles/enocean_switch_nrf52832_xxAA_s132_6.0.0.dir/C_/b/nRF5_SDK_15.0.0_a53641a/modules/nrfx/mdk/system_nrf52.c.obj
 .ARM.attributes
                0x00001162       0x20 examples/enocean_switch/CMakeFiles/enocean_switch_nrf52832_xxAA_s132_6.0.0.dir/C_/b/nRF5_SDK_15.0.0_a53641a/modules/nrfx/mdk/gcc_startup_nrf52.S.obj
 .ARM.attributes
                0x00001182       0x39 examples/enocean_switch/CMakeFiles/enocean_switch_nrf52832_xxAA_s132_6.0.0.dir/C_/b/nRF5_SDK_15.0.0_a53641a/components/libraries/util/app_error.c.obj
 .ARM.attributes
                0x000011bb       0x39 examples/enocean_switch/CMakeFiles/enocean_switch_nrf52832_xxAA_s132_6.0.0.dir/C_/b/nRF5_SDK_15.0.0_a53641a/components/libraries/util/app_util_platform.c.obj
 .ARM.attributes
                0x000011f4       0x39 examples/enocean_switch/CMakeFiles/enocean_switch_nrf52832_xxAA_s132_6.0.0.dir/C_/b/nRF5_SDK_15.0.0_a53641a/components/libraries/timer/app_timer.c.obj
 .ARM.attributes
                0x0000122d       0x39 examples/enocean_switch/CMakeFiles/enocean_switch_nrf52832_xxAA_s132_6.0.0.dir/C_/b/nRF5_SDK_15.0.0_a53641a/components/libraries/util/app_error_handler_gcc.c.obj
 .ARM.attributes
                0x00001266       0x39 external/rtt/librtt_nrf52832_xxAA.a(SEGGER_RTT.c.obj)
 .ARM.attributes
                0x0000129f       0x39 external/rtt/librtt_nrf52832_xxAA.a(SEGGER_RTT_printf.c.obj)
 .ARM.attributes
                0x000012d8       0x39 external/micro-ecc/libuECC_nrf52832_xxAA.a(uECC.c.obj)
 .ARM.attributes
                0x00001311       0x22 c:/mesh/arm_gcc/bin/../lib/gcc/arm-none-eabi/6.3.1/thumb/v7e-m/fpv4-sp/hard\libgcc.a(_aeabi_uldivmod.o)
 .ARM.attributes
                0x00001333       0x34 c:/mesh/arm_gcc/bin/../lib/gcc/arm-none-eabi/6.3.1/thumb/v7e-m/fpv4-sp/hard\libgcc.a(_udivmoddi4.o)
 .ARM.attributes
                0x00001367       0x22 c:/mesh/arm_gcc/bin/../lib/gcc/arm-none-eabi/6.3.1/thumb/v7e-m/fpv4-sp/hard\libgcc.a(_dvmd_tls.o)
 .ARM.attributes
                0x00001389       0x34 c:/mesh/arm_gcc/bin/../lib/gcc/arm-none-eabi/6.3.1/../../../../arm-none-eabi/lib/thumb/v7e-m/fpv4-sp/hard\libg_nano.a(lib_a-exit.o)
 .ARM.attributes
                0x000013bd       0x34 c:/mesh/arm_gcc/bin/../lib/gcc/arm-none-eabi/6.3.1/../../../../arm-none-eabi/lib/thumb/v7e-m/fpv4-sp/hard\libg_nano.a(lib_a-impure.o)
 .ARM.attributes
                0x000013f1       0x34 c:/mesh/arm_gcc/bin/../lib/gcc/arm-none-eabi/6.3.1/../../../../arm-none-eabi/lib/thumb/v7e-m/fpv4-sp/hard\libg_nano.a(lib_a-init.o)
 .ARM.attributes
                0x00001425       0x34 c:/mesh/arm_gcc/bin/../lib/gcc/arm-none-eabi/6.3.1/../../../../arm-none-eabi/lib/thumb/v7e-m/fpv4-sp/hard\libg_nano.a(lib_a-malloc.o)
 .ARM.attributes
                0x00001459       0x34 c:/mesh/arm_gcc/bin/../lib/gcc/arm-none-eabi/6.3.1/../../../../arm-none-eabi/lib/thumb/v7e-m/fpv4-sp/hard\libg_nano.a(lib_a-memcmp.o)
 .ARM.attributes
                0x0000148d       0x34 c:/mesh/arm_gcc/bin/../lib/gcc/arm-none-eabi/6.3.1/../../../../arm-none-eabi/lib/thumb/v7e-m/fpv4-sp/hard\libg_nano.a(lib_a-memcpy-stub.o)
 .ARM.attributes
                0x000014c1       0x34 c:/mesh/arm_gcc/bin/../lib/gcc/arm-none-eabi/6.3.1/../../../../arm-none-eabi/lib/thumb/v7e-m/fpv4-sp/hard\libg_nano.a(lib_a-memset.o)
 .ARM.attributes
                0x000014f5       0x34 c:/mesh/arm_gcc/bin/../lib/gcc/arm-none-eabi/6.3.1/../../../../arm-none-eabi/lib/thumb/v7e-m/fpv4-sp/hard\libg_nano.a(lib_a-nano-freer.o)
 .ARM.attributes
                0x00001529       0x34 c:/mesh/arm_gcc/bin/../lib/gcc/arm-none-eabi/6.3.1/../../../../arm-none-eabi/lib/thumb/v7e-m/fpv4-sp/hard\libg_nano.a(lib_a-nano-mallocr.o)
 .ARM.attributes
                0x0000155d       0x34 c:/mesh/arm_gcc/bin/../lib/gcc/arm-none-eabi/6.3.1/../../../../arm-none-eabi/lib/thumb/v7e-m/fpv4-sp/hard\libg_nano.a(lib_a-sbrkr.o)
 .ARM.attributes
                0x00001591       0x34 c:/mesh/arm_gcc/bin/../lib/gcc/arm-none-eabi/6.3.1/../../../../arm-none-eabi/lib/thumb/v7e-m/fpv4-sp/hard\libg_nano.a(lib_a-strcpy.o)
 .ARM.attributes
                0x000015c5       0x1b c:/mesh/arm_gcc/bin/../lib/gcc/arm-none-eabi/6.3.1/../../../../arm-none-eabi/lib/thumb/v7e-m/fpv4-sp/hard\libg_nano.a(lib_a-strlen.o)
 .ARM.attributes
                0x000015e0       0x34 c:/mesh/arm_gcc/bin/../lib/gcc/arm-none-eabi/6.3.1/../../../../arm-none-eabi/lib/thumb/v7e-m/fpv4-sp/hard\libg_nano.a(lib_a-strrchr.o)
 .ARM.attributes
                0x00001614       0x34 c:/mesh/arm_gcc/bin/../lib/gcc/arm-none-eabi/6.3.1/../../../../arm-none-eabi/lib/thumb/v7e-m/fpv4-sp/hard\libg_nano.a(lib_a-mlock.o)
 .ARM.attributes
                0x00001648       0x34 c:/mesh/arm_gcc/bin/../lib/gcc/arm-none-eabi/6.3.1/../../../../arm-none-eabi/lib/thumb/v7e-m/fpv4-sp/hard\libg_nano.a(lib_a-reent.o)
 .ARM.attributes
                0x0000167c       0x34 c:/mesh/arm_gcc/bin/../lib/gcc/arm-none-eabi/6.3.1/../../../../arm-none-eabi/lib/thumb/v7e-m/fpv4-sp/hard\libg_nano.a(lib_a-strchr.o)
 .ARM.attributes
                0x000016b0       0x34 c:/mesh/arm_gcc/bin/../lib/gcc/arm-none-eabi/6.3.1/thumb/v7e-m/fpv4-sp/hard/crtend.o
 .ARM.attributes
                0x000016e4       0x22 c:/mesh/arm_gcc/bin/../lib/gcc/arm-none-eabi/6.3.1/thumb/v7e-m/fpv4-sp/hard/crtn.o
 .ARM.attributes
                0x00001706       0x34 c:/mesh/arm_gcc/bin/../lib/gcc/arm-none-eabi/6.3.1/../../../../arm-none-eabi/lib/thumb/v7e-m/fpv4-sp/hard\libnosys.a(sbrk.o)
 .ARM.attributes
                0x0000173a       0x34 c:/mesh/arm_gcc/bin/../lib/gcc/arm-none-eabi/6.3.1/../../../../arm-none-eabi/lib/thumb/v7e-m/fpv4-sp/hard\libnosys.a(_exit.o)

.comment        0x00000000       0x7f
 .comment       0x00000000       0x7f examples/enocean_switch/CMakeFiles/enocean_switch_nrf52832_xxAA_s132_6.0.0.dir/src/main.c.obj
                                 0x80 (size before relaxing)
 .comment       0x0000007f       0x80 examples/enocean_switch/CMakeFiles/enocean_switch_nrf52832_xxAA_s132_6.0.0.dir/src/enocean.c.obj
 .comment       0x0000007f       0x80 examples/enocean_switch/CMakeFiles/enocean_switch_nrf52832_xxAA_s132_6.0.0.dir/src/flash_helper.c.obj
 .comment       0x0000007f       0x80 examples/enocean_switch/CMakeFiles/enocean_switch_nrf52832_xxAA_s132_6.0.0.dir/__/__/mesh/stack/src/mesh_stack.c.obj
 .comment       0x0000007f       0x80 examples/enocean_switch/CMakeFiles/enocean_switch_nrf52832_xxAA_s132_6.0.0.dir/__/common/src/mesh_softdevice_init.c.obj
 .comment       0x0000007f       0x80 examples/enocean_switch/CMakeFiles/enocean_switch_nrf52832_xxAA_s132_6.0.0.dir/__/common/src/mesh_provisionee.c.obj
 .comment       0x0000007f       0x80 examples/enocean_switch/CMakeFiles/enocean_switch_nrf52832_xxAA_s132_6.0.0.dir/__/common/src/rtt_input.c.obj
 .comment       0x0000007f       0x80 examples/enocean_switch/CMakeFiles/enocean_switch_nrf52832_xxAA_s132_6.0.0.dir/__/common/src/simple_hal.c.obj
 .comment       0x0000007f       0x80 examples/enocean_switch/CMakeFiles/enocean_switch_nrf52832_xxAA_s132_6.0.0.dir/__/nrf_mesh_weak.c.obj
 .comment       0x0000007f       0x80 examples/enocean_switch/CMakeFiles/enocean_switch_nrf52832_xxAA_s132_6.0.0.dir/__/common/src/app_error_weak.c.obj
 .comment       0x0000007f       0x80 examples/enocean_switch/CMakeFiles/enocean_switch_nrf52832_xxAA_s132_6.0.0.dir/__/common/src/assertion_handler_weak.c.obj
 .comment       0x0000007f       0x80 examples/enocean_switch/CMakeFiles/enocean_switch_nrf52832_xxAA_s132_6.0.0.dir/__/__/mesh/core/src/nrf_mesh_configure.c.obj
 .comment       0x0000007f       0x80 examples/enocean_switch/CMakeFiles/enocean_switch_nrf52832_xxAA_s132_6.0.0.dir/__/__/mesh/core/src/msg_cache.c.obj
 .comment       0x0000007f       0x80 examples/enocean_switch/CMakeFiles/enocean_switch_nrf52832_xxAA_s132_6.0.0.dir/__/__/mesh/core/src/transport.c.obj
 .comment       0x0000007f       0x80 examples/enocean_switch/CMakeFiles/enocean_switch_nrf52832_xxAA_s132_6.0.0.dir/__/__/mesh/core/src/event.c.obj
 .comment       0x0000007f       0x80 examples/enocean_switch/CMakeFiles/enocean_switch_nrf52832_xxAA_s132_6.0.0.dir/__/__/mesh/core/src/packet_buffer.c.obj
 .comment       0x0000007f       0x80 examples/enocean_switch/CMakeFiles/enocean_switch_nrf52832_xxAA_s132_6.0.0.dir/__/__/mesh/core/src/flash_manager_defrag.c.obj
 .comment       0x0000007f       0x80 examples/enocean_switch/CMakeFiles/enocean_switch_nrf52832_xxAA_s132_6.0.0.dir/__/__/mesh/core/src/fifo.c.obj
 .comment       0x0000007f       0x80 examples/enocean_switch/CMakeFiles/enocean_switch_nrf52832_xxAA_s132_6.0.0.dir/__/__/mesh/core/src/nrf_flash.c.obj
 .comment       0x0000007f       0x80 examples/enocean_switch/CMakeFiles/enocean_switch_nrf52832_xxAA_s132_6.0.0.dir/__/__/mesh/core/src/packet_mgr.c.obj
 .comment       0x0000007f       0x80 examples/enocean_switch/CMakeFiles/enocean_switch_nrf52832_xxAA_s132_6.0.0.dir/__/__/mesh/core/src/net_state.c.obj
 .comment       0x0000007f       0x80 examples/enocean_switch/CMakeFiles/enocean_switch_nrf52832_xxAA_s132_6.0.0.dir/__/__/mesh/core/src/mesh_flash.c.obj
 .comment       0x0000007f       0x80 examples/enocean_switch/CMakeFiles/enocean_switch_nrf52832_xxAA_s132_6.0.0.dir/__/__/mesh/core/src/nrf_mesh_utils.c.obj
 .comment       0x0000007f       0x80 examples/enocean_switch/CMakeFiles/enocean_switch_nrf52832_xxAA_s132_6.0.0.dir/__/__/mesh/core/src/nrf_mesh.c.obj
 .comment       0x0000007f       0x80 examples/enocean_switch/CMakeFiles/enocean_switch_nrf52832_xxAA_s132_6.0.0.dir/__/__/mesh/core/src/queue.c.obj
 .comment       0x0000007f       0x80 examples/enocean_switch/CMakeFiles/enocean_switch_nrf52832_xxAA_s132_6.0.0.dir/__/__/mesh/core/src/hal.c.obj
 .comment       0x0000007f       0x80 examples/enocean_switch/CMakeFiles/enocean_switch_nrf52832_xxAA_s132_6.0.0.dir/__/__/mesh/core/src/aes_cmac.c.obj
 .comment       0x0000007f       0x80 examples/enocean_switch/CMakeFiles/enocean_switch_nrf52832_xxAA_s132_6.0.0.dir/__/__/mesh/core/src/timer_scheduler.c.obj
 .comment       0x0000007f       0x80 examples/enocean_switch/CMakeFiles/enocean_switch_nrf52832_xxAA_s132_6.0.0.dir/__/__/mesh/core/src/timer.c.obj
 .comment       0x0000007f       0x80 examples/enocean_switch/CMakeFiles/enocean_switch_nrf52832_xxAA_s132_6.0.0.dir/__/__/mesh/core/src/ticker.c.obj
 .comment       0x0000007f       0x80 examples/enocean_switch/CMakeFiles/enocean_switch_nrf52832_xxAA_s132_6.0.0.dir/__/__/mesh/core/src/rand.c.obj
 .comment       0x0000007f       0x80 examples/enocean_switch/CMakeFiles/enocean_switch_nrf52832_xxAA_s132_6.0.0.dir/__/__/mesh/core/src/nrf_mesh_opt.c.obj
 .comment       0x0000007f       0x80 examples/enocean_switch/CMakeFiles/enocean_switch_nrf52832_xxAA_s132_6.0.0.dir/__/__/mesh/core/src/timeslot.c.obj
 .comment       0x0000007f       0x80 examples/enocean_switch/CMakeFiles/enocean_switch_nrf52832_xxAA_s132_6.0.0.dir/__/__/mesh/core/src/bearer_event.c.obj
 .comment       0x0000007f       0x80 examples/enocean_switch/CMakeFiles/enocean_switch_nrf52832_xxAA_s132_6.0.0.dir/__/__/mesh/core/src/enc.c.obj
 .comment       0x0000007f       0x80 examples/enocean_switch/CMakeFiles/enocean_switch_nrf52832_xxAA_s132_6.0.0.dir/__/__/mesh/core/src/network.c.obj
 .comment       0x0000007f       0x80 examples/enocean_switch/CMakeFiles/enocean_switch_nrf52832_xxAA_s132_6.0.0.dir/__/__/mesh/core/src/net_packet.c.obj
 .comment       0x0000007f       0x80 examples/enocean_switch/CMakeFiles/enocean_switch_nrf52832_xxAA_s132_6.0.0.dir/__/__/mesh/core/src/msqueue.c.obj
 .comment       0x0000007f       0x80 examples/enocean_switch/CMakeFiles/enocean_switch_nrf52832_xxAA_s132_6.0.0.dir/__/__/mesh/core/src/nrf_mesh_keygen.c.obj
 .comment       0x0000007f       0x80 examples/enocean_switch/CMakeFiles/enocean_switch_nrf52832_xxAA_s132_6.0.0.dir/__/__/mesh/core/src/list.c.obj
 .comment       0x0000007f       0x80 examples/enocean_switch/CMakeFiles/enocean_switch_nrf52832_xxAA_s132_6.0.0.dir/__/__/mesh/core/src/log.c.obj
 .comment       0x0000007f       0x80 examples/enocean_switch/CMakeFiles/enocean_switch_nrf52832_xxAA_s132_6.0.0.dir/__/__/mesh/core/src/flash_manager.c.obj
 .comment       0x0000007f       0x80 examples/enocean_switch/CMakeFiles/enocean_switch_nrf52832_xxAA_s132_6.0.0.dir/__/__/mesh/core/src/ccm_soft.c.obj
 .comment       0x0000007f       0x80 examples/enocean_switch/CMakeFiles/enocean_switch_nrf52832_xxAA_s132_6.0.0.dir/__/__/mesh/core/src/replay_cache.c.obj
 .comment       0x0000007f       0x80 examples/enocean_switch/CMakeFiles/enocean_switch_nrf52832_xxAA_s132_6.0.0.dir/__/__/mesh/core/src/beacon.c.obj
 .comment       0x0000007f       0x80 examples/enocean_switch/CMakeFiles/enocean_switch_nrf52832_xxAA_s132_6.0.0.dir/__/__/mesh/core/src/flash_manager_internal.c.obj
 .comment       0x0000007f       0x80 examples/enocean_switch/CMakeFiles/enocean_switch_nrf52832_xxAA_s132_6.0.0.dir/__/__/mesh/core/src/core_tx.c.obj
 .comment       0x0000007f       0x80 examples/enocean_switch/CMakeFiles/enocean_switch_nrf52832_xxAA_s132_6.0.0.dir/__/__/mesh/core/src/heartbeat.c.obj
 .comment       0x0000007f       0x80 examples/enocean_switch/CMakeFiles/enocean_switch_nrf52832_xxAA_s132_6.0.0.dir/__/__/mesh/core/src/net_beacon.c.obj
 .comment       0x0000007f       0x80 examples/enocean_switch/CMakeFiles/enocean_switch_nrf52832_xxAA_s132_6.0.0.dir/__/__/mesh/core/src/core_tx_adv.c.obj
 .comment       0x0000007f       0x80 examples/enocean_switch/CMakeFiles/enocean_switch_nrf52832_xxAA_s132_6.0.0.dir/__/__/mesh/bearer/src/ad_listener.c.obj
 .comment       0x0000007f       0x80 examples/enocean_switch/CMakeFiles/enocean_switch_nrf52832_xxAA_s132_6.0.0.dir/__/__/mesh/bearer/src/ad_type_filter.c.obj
 .comment       0x0000007f       0x80 examples/enocean_switch/CMakeFiles/enocean_switch_nrf52832_xxAA_s132_6.0.0.dir/__/__/mesh/bearer/src/advertiser.c.obj
 .comment       0x0000007f       0x80 examples/enocean_switch/CMakeFiles/enocean_switch_nrf52832_xxAA_s132_6.0.0.dir/__/__/mesh/bearer/src/bearer_handler.c.obj
 .comment       0x0000007f       0x80 examples/enocean_switch/CMakeFiles/enocean_switch_nrf52832_xxAA_s132_6.0.0.dir/__/__/mesh/bearer/src/broadcast.c.obj
 .comment       0x0000007f       0x80 examples/enocean_switch/CMakeFiles/enocean_switch_nrf52832_xxAA_s132_6.0.0.dir/__/__/mesh/bearer/src/filter_engine.c.obj
 .comment       0x0000007f       0x80 examples/enocean_switch/CMakeFiles/enocean_switch_nrf52832_xxAA_s132_6.0.0.dir/__/__/mesh/bearer/src/radio_config.c.obj
 .comment       0x0000007f       0x80 examples/enocean_switch/CMakeFiles/enocean_switch_nrf52832_xxAA_s132_6.0.0.dir/__/__/mesh/bearer/src/scanner.c.obj
 .comment       0x0000007f       0x80 examples/enocean_switch/CMakeFiles/enocean_switch_nrf52832_xxAA_s132_6.0.0.dir/__/__/mesh/bearer/src/mesh_pa_lna.c.obj
 .comment       0x0000007f       0x80 examples/enocean_switch/CMakeFiles/enocean_switch_nrf52832_xxAA_s132_6.0.0.dir/__/__/models/simple_on_off/src/simple_on_off_client.c.obj
 .comment       0x0000007f       0x80 examples/enocean_switch/CMakeFiles/enocean_switch_nrf52832_xxAA_s132_6.0.0.dir/__/__/models/config/src/composition_data.c.obj
 .comment       0x0000007f       0x80 examples/enocean_switch/CMakeFiles/enocean_switch_nrf52832_xxAA_s132_6.0.0.dir/__/__/models/config/src/config_server.c.obj
 .comment       0x0000007f       0x80 examples/enocean_switch/CMakeFiles/enocean_switch_nrf52832_xxAA_s132_6.0.0.dir/__/__/models/config/src/packed_index_list.c.obj
 .comment       0x0000007f       0x80 examples/enocean_switch/CMakeFiles/enocean_switch_nrf52832_xxAA_s132_6.0.0.dir/__/__/models/health/src/health_server.c.obj
 .comment       0x0000007f       0x80 examples/enocean_switch/CMakeFiles/enocean_switch_nrf52832_xxAA_s132_6.0.0.dir/__/__/mesh/access/src/access_publish.c.obj
 .comment       0x0000007f       0x80 examples/enocean_switch/CMakeFiles/enocean_switch_nrf52832_xxAA_s132_6.0.0.dir/__/__/mesh/access/src/access.c.obj
 .comment       0x0000007f       0x80 examples/enocean_switch/CMakeFiles/enocean_switch_nrf52832_xxAA_s132_6.0.0.dir/__/__/mesh/access/src/access_reliable.c.obj
 .comment       0x0000007f       0x80 examples/enocean_switch/CMakeFiles/enocean_switch_nrf52832_xxAA_s132_6.0.0.dir/__/__/mesh/access/src/access_loopback.c.obj
 .comment       0x0000007f       0x80 examples/enocean_switch/CMakeFiles/enocean_switch_nrf52832_xxAA_s132_6.0.0.dir/__/__/mesh/access/src/device_state_manager.c.obj
 .comment       0x0000007f       0x80 examples/enocean_switch/CMakeFiles/enocean_switch_nrf52832_xxAA_s132_6.0.0.dir/__/__/mesh/prov/src/prov_provisionee.c.obj
 .comment       0x0000007f       0x80 examples/enocean_switch/CMakeFiles/enocean_switch_nrf52832_xxAA_s132_6.0.0.dir/__/__/mesh/prov/src/nrf_mesh_prov.c.obj
 .comment       0x0000007f       0x80 examples/enocean_switch/CMakeFiles/enocean_switch_nrf52832_xxAA_s132_6.0.0.dir/__/__/mesh/prov/src/provisioning.c.obj
 .comment       0x0000007f       0x80 examples/enocean_switch/CMakeFiles/enocean_switch_nrf52832_xxAA_s132_6.0.0.dir/__/__/mesh/prov/src/prov_beacon.c.obj
 .comment       0x0000007f       0x80 examples/enocean_switch/CMakeFiles/enocean_switch_nrf52832_xxAA_s132_6.0.0.dir/__/__/mesh/prov/src/prov_utils.c.obj
 .comment       0x0000007f       0x80 examples/enocean_switch/CMakeFiles/enocean_switch_nrf52832_xxAA_s132_6.0.0.dir/__/__/mesh/prov/src/prov_bearer_adv.c.obj
 .comment       0x0000007f       0x80 examples/enocean_switch/CMakeFiles/enocean_switch_nrf52832_xxAA_s132_6.0.0.dir/C_/b/nRF5_SDK_15.0.0_a53641a/modules/nrfx/mdk/system_nrf52.c.obj
 .comment       0x0000007f       0x80 examples/enocean_switch/CMakeFiles/enocean_switch_nrf52832_xxAA_s132_6.0.0.dir/C_/b/nRF5_SDK_15.0.0_a53641a/components/libraries/util/app_error.c.obj
 .comment       0x0000007f       0x80 examples/enocean_switch/CMakeFiles/enocean_switch_nrf52832_xxAA_s132_6.0.0.dir/C_/b/nRF5_SDK_15.0.0_a53641a/components/libraries/util/app_util_platform.c.obj
 .comment       0x0000007f       0x80 examples/enocean_switch/CMakeFiles/enocean_switch_nrf52832_xxAA_s132_6.0.0.dir/C_/b/nRF5_SDK_15.0.0_a53641a/components/libraries/timer/app_timer.c.obj
 .comment       0x0000007f       0x80 examples/enocean_switch/CMakeFiles/enocean_switch_nrf52832_xxAA_s132_6.0.0.dir/C_/b/nRF5_SDK_15.0.0_a53641a/components/libraries/util/app_error_handler_gcc.c.obj
 .comment       0x0000007f       0x80 external/rtt/librtt_nrf52832_xxAA.a(SEGGER_RTT.c.obj)
 .comment       0x0000007f       0x80 external/rtt/librtt_nrf52832_xxAA.a(SEGGER_RTT_printf.c.obj)
 .comment       0x0000007f       0x80 external/micro-ecc/libuECC_nrf52832_xxAA.a(uECC.c.obj)

.debug_info     0x00000000    0x87e6d
 .debug_info    0x00000000     0x4262 examples/enocean_switch/CMakeFiles/enocean_switch_nrf52832_xxAA_s132_6.0.0.dir/src/main.c.obj
 .debug_info    0x00004262     0x188e examples/enocean_switch/CMakeFiles/enocean_switch_nrf52832_xxAA_s132_6.0.0.dir/src/enocean.c.obj
 .debug_info    0x00005af0     0x1705 examples/enocean_switch/CMakeFiles/enocean_switch_nrf52832_xxAA_s132_6.0.0.dir/src/flash_helper.c.obj
 .debug_info    0x000071f5     0x2332 examples/enocean_switch/CMakeFiles/enocean_switch_nrf52832_xxAA_s132_6.0.0.dir/__/__/mesh/stack/src/mesh_stack.c.obj
 .debug_info    0x00009527     0x1b6a examples/enocean_switch/CMakeFiles/enocean_switch_nrf52832_xxAA_s132_6.0.0.dir/__/common/src/mesh_softdevice_init.c.obj
 .debug_info    0x0000b091     0x2188 examples/enocean_switch/CMakeFiles/enocean_switch_nrf52832_xxAA_s132_6.0.0.dir/__/common/src/mesh_provisionee.c.obj
 .debug_info    0x0000d219      0xd57 examples/enocean_switch/CMakeFiles/enocean_switch_nrf52832_xxAA_s132_6.0.0.dir/__/common/src/rtt_input.c.obj
 .debug_info    0x0000df70     0x15ff examples/enocean_switch/CMakeFiles/enocean_switch_nrf52832_xxAA_s132_6.0.0.dir/__/common/src/simple_hal.c.obj
 .debug_info    0x0000f56f      0x924 examples/enocean_switch/CMakeFiles/enocean_switch_nrf52832_xxAA_s132_6.0.0.dir/__/nrf_mesh_weak.c.obj
 .debug_info    0x0000fe93     0x106b examples/enocean_switch/CMakeFiles/enocean_switch_nrf52832_xxAA_s132_6.0.0.dir/__/common/src/app_error_weak.c.obj
 .debug_info    0x00010efe      0x99b examples/enocean_switch/CMakeFiles/enocean_switch_nrf52832_xxAA_s132_6.0.0.dir/__/common/src/assertion_handler_weak.c.obj
 .debug_info    0x00011899      0xd04 examples/enocean_switch/CMakeFiles/enocean_switch_nrf52832_xxAA_s132_6.0.0.dir/__/__/mesh/core/src/nrf_mesh_configure.c.obj
 .debug_info    0x0001259d      0xa5a examples/enocean_switch/CMakeFiles/enocean_switch_nrf52832_xxAA_s132_6.0.0.dir/__/__/mesh/core/src/msg_cache.c.obj
 .debug_info    0x00012ff7     0x5091 examples/enocean_switch/CMakeFiles/enocean_switch_nrf52832_xxAA_s132_6.0.0.dir/__/__/mesh/core/src/transport.c.obj
 .debug_info    0x00018088     0x17e1 examples/enocean_switch/CMakeFiles/enocean_switch_nrf52832_xxAA_s132_6.0.0.dir/__/__/mesh/core/src/event.c.obj
 .debug_info    0x00019869     0x1927 examples/enocean_switch/CMakeFiles/enocean_switch_nrf52832_xxAA_s132_6.0.0.dir/__/__/mesh/core/src/packet_buffer.c.obj
 .debug_info    0x0001b190     0x1fec examples/enocean_switch/CMakeFiles/enocean_switch_nrf52832_xxAA_s132_6.0.0.dir/__/__/mesh/core/src/flash_manager_defrag.c.obj
 .debug_info    0x0001d17c      0xd19 examples/enocean_switch/CMakeFiles/enocean_switch_nrf52832_xxAA_s132_6.0.0.dir/__/__/mesh/core/src/fifo.c.obj
 .debug_info    0x0001de95      0xb20 examples/enocean_switch/CMakeFiles/enocean_switch_nrf52832_xxAA_s132_6.0.0.dir/__/__/mesh/core/src/nrf_flash.c.obj
 .debug_info    0x0001e9b5     0x118d examples/enocean_switch/CMakeFiles/enocean_switch_nrf52832_xxAA_s132_6.0.0.dir/__/__/mesh/core/src/packet_mgr.c.obj
 .debug_info    0x0001fb42     0x2825 examples/enocean_switch/CMakeFiles/enocean_switch_nrf52832_xxAA_s132_6.0.0.dir/__/__/mesh/core/src/net_state.c.obj
 .debug_info    0x00022367     0x1948 examples/enocean_switch/CMakeFiles/enocean_switch_nrf52832_xxAA_s132_6.0.0.dir/__/__/mesh/core/src/mesh_flash.c.obj
 .debug_info    0x00023caf      0xa78 examples/enocean_switch/CMakeFiles/enocean_switch_nrf52832_xxAA_s132_6.0.0.dir/__/__/mesh/core/src/nrf_mesh_utils.c.obj
 .debug_info    0x00024727     0x25db examples/enocean_switch/CMakeFiles/enocean_switch_nrf52832_xxAA_s132_6.0.0.dir/__/__/mesh/core/src/nrf_mesh.c.obj
 .debug_info    0x00026d02      0xb11 examples/enocean_switch/CMakeFiles/enocean_switch_nrf52832_xxAA_s132_6.0.0.dir/__/__/mesh/core/src/queue.c.obj
 .debug_info    0x00027813      0x54f examples/enocean_switch/CMakeFiles/enocean_switch_nrf52832_xxAA_s132_6.0.0.dir/__/__/mesh/core/src/hal.c.obj
 .debug_info    0x00027d62      0xf4c examples/enocean_switch/CMakeFiles/enocean_switch_nrf52832_xxAA_s132_6.0.0.dir/__/__/mesh/core/src/aes_cmac.c.obj
 .debug_info    0x00028cae     0x10e0 examples/enocean_switch/CMakeFiles/enocean_switch_nrf52832_xxAA_s132_6.0.0.dir/__/__/mesh/core/src/timer_scheduler.c.obj
 .debug_info    0x00029d8e      0xd90 examples/enocean_switch/CMakeFiles/enocean_switch_nrf52832_xxAA_s132_6.0.0.dir/__/__/mesh/core/src/timer.c.obj
 .debug_info    0x0002ab1e      0x20b examples/enocean_switch/CMakeFiles/enocean_switch_nrf52832_xxAA_s132_6.0.0.dir/__/__/mesh/core/src/ticker.c.obj
 .debug_info    0x0002ad29      0x408 examples/enocean_switch/CMakeFiles/enocean_switch_nrf52832_xxAA_s132_6.0.0.dir/__/__/mesh/core/src/rand.c.obj
 .debug_info    0x0002b131      0xb03 examples/enocean_switch/CMakeFiles/enocean_switch_nrf52832_xxAA_s132_6.0.0.dir/__/__/mesh/core/src/nrf_mesh_opt.c.obj
 .debug_info    0x0002bc34     0x1a1c examples/enocean_switch/CMakeFiles/enocean_switch_nrf52832_xxAA_s132_6.0.0.dir/__/__/mesh/core/src/timeslot.c.obj
 .debug_info    0x0002d650     0x1a78 examples/enocean_switch/CMakeFiles/enocean_switch_nrf52832_xxAA_s132_6.0.0.dir/__/__/mesh/core/src/bearer_event.c.obj
 .debug_info    0x0002f0c8     0x190b examples/enocean_switch/CMakeFiles/enocean_switch_nrf52832_xxAA_s132_6.0.0.dir/__/__/mesh/core/src/enc.c.obj
 .debug_info    0x000309d3     0x1b41 examples/enocean_switch/CMakeFiles/enocean_switch_nrf52832_xxAA_s132_6.0.0.dir/__/__/mesh/core/src/network.c.obj
 .debug_info    0x00032514     0x1cad examples/enocean_switch/CMakeFiles/enocean_switch_nrf52832_xxAA_s132_6.0.0.dir/__/__/mesh/core/src/net_packet.c.obj
 .debug_info    0x000341c1      0xd86 examples/enocean_switch/CMakeFiles/enocean_switch_nrf52832_xxAA_s132_6.0.0.dir/__/__/mesh/core/src/msqueue.c.obj
 .debug_info    0x00034f47      0x4c8 examples/enocean_switch/CMakeFiles/enocean_switch_nrf52832_xxAA_s132_6.0.0.dir/__/__/mesh/core/src/nrf_mesh_keygen.c.obj
 .debug_info    0x0003540f      0x506 examples/enocean_switch/CMakeFiles/enocean_switch_nrf52832_xxAA_s132_6.0.0.dir/__/__/mesh/core/src/list.c.obj
 .debug_info    0x00035915      0xe28 examples/enocean_switch/CMakeFiles/enocean_switch_nrf52832_xxAA_s132_6.0.0.dir/__/__/mesh/core/src/log.c.obj
 .debug_info    0x0003673d     0x3024 examples/enocean_switch/CMakeFiles/enocean_switch_nrf52832_xxAA_s132_6.0.0.dir/__/__/mesh/core/src/flash_manager.c.obj
 .debug_info    0x00039761     0x12c8 examples/enocean_switch/CMakeFiles/enocean_switch_nrf52832_xxAA_s132_6.0.0.dir/__/__/mesh/core/src/ccm_soft.c.obj
 .debug_info    0x0003aa29      0xa93 examples/enocean_switch/CMakeFiles/enocean_switch_nrf52832_xxAA_s132_6.0.0.dir/__/__/mesh/core/src/replay_cache.c.obj
 .debug_info    0x0003b4bc     0x1796 examples/enocean_switch/CMakeFiles/enocean_switch_nrf52832_xxAA_s132_6.0.0.dir/__/__/mesh/core/src/beacon.c.obj
 .debug_info    0x0003cc52      0xb9b examples/enocean_switch/CMakeFiles/enocean_switch_nrf52832_xxAA_s132_6.0.0.dir/__/__/mesh/core/src/flash_manager_internal.c.obj
 .debug_info    0x0003d7ed     0x126f examples/enocean_switch/CMakeFiles/enocean_switch_nrf52832_xxAA_s132_6.0.0.dir/__/__/mesh/core/src/core_tx.c.obj
 .debug_info    0x0003ea5c     0x2520 examples/enocean_switch/CMakeFiles/enocean_switch_nrf52832_xxAA_s132_6.0.0.dir/__/__/mesh/core/src/heartbeat.c.obj
 .debug_info    0x00040f7c     0x28c4 examples/enocean_switch/CMakeFiles/enocean_switch_nrf52832_xxAA_s132_6.0.0.dir/__/__/mesh/core/src/net_beacon.c.obj
 .debug_info    0x00043840     0x1a01 examples/enocean_switch/CMakeFiles/enocean_switch_nrf52832_xxAA_s132_6.0.0.dir/__/__/mesh/core/src/core_tx_adv.c.obj
 .debug_info    0x00045241     0x115d examples/enocean_switch/CMakeFiles/enocean_switch_nrf52832_xxAA_s132_6.0.0.dir/__/__/mesh/bearer/src/ad_listener.c.obj
 .debug_info    0x0004639e      0xfbe examples/enocean_switch/CMakeFiles/enocean_switch_nrf52832_xxAA_s132_6.0.0.dir/__/__/mesh/bearer/src/ad_type_filter.c.obj
 .debug_info    0x0004735c     0x25f5 examples/enocean_switch/CMakeFiles/enocean_switch_nrf52832_xxAA_s132_6.0.0.dir/__/__/mesh/bearer/src/advertiser.c.obj
 .debug_info    0x00049951     0x21a5 examples/enocean_switch/CMakeFiles/enocean_switch_nrf52832_xxAA_s132_6.0.0.dir/__/__/mesh/bearer/src/bearer_handler.c.obj
 .debug_info    0x0004baf6     0x1a23 examples/enocean_switch/CMakeFiles/enocean_switch_nrf52832_xxAA_s132_6.0.0.dir/__/__/mesh/bearer/src/broadcast.c.obj
 .debug_info    0x0004d519      0xcff examples/enocean_switch/CMakeFiles/enocean_switch_nrf52832_xxAA_s132_6.0.0.dir/__/__/mesh/bearer/src/filter_engine.c.obj
 .debug_info    0x0004e218      0x8e4 examples/enocean_switch/CMakeFiles/enocean_switch_nrf52832_xxAA_s132_6.0.0.dir/__/__/mesh/bearer/src/radio_config.c.obj
 .debug_info    0x0004eafc     0x2750 examples/enocean_switch/CMakeFiles/enocean_switch_nrf52832_xxAA_s132_6.0.0.dir/__/__/mesh/bearer/src/scanner.c.obj
 .debug_info    0x0005124c      0xf2b examples/enocean_switch/CMakeFiles/enocean_switch_nrf52832_xxAA_s132_6.0.0.dir/__/__/mesh/bearer/src/mesh_pa_lna.c.obj
 .debug_info    0x00052177     0x16d5 examples/enocean_switch/CMakeFiles/enocean_switch_nrf52832_xxAA_s132_6.0.0.dir/__/__/models/simple_on_off/src/simple_on_off_client.c.obj
 .debug_info    0x0005384c      0xed7 examples/enocean_switch/CMakeFiles/enocean_switch_nrf52832_xxAA_s132_6.0.0.dir/__/__/models/config/src/composition_data.c.obj
 .debug_info    0x00054723     0x8bd5 examples/enocean_switch/CMakeFiles/enocean_switch_nrf52832_xxAA_s132_6.0.0.dir/__/__/models/config/src/config_server.c.obj
 .debug_info    0x0005d2f8      0x126 examples/enocean_switch/CMakeFiles/enocean_switch_nrf52832_xxAA_s132_6.0.0.dir/__/__/models/config/src/packed_index_list.c.obj
 .debug_info    0x0005d41e     0x2629 examples/enocean_switch/CMakeFiles/enocean_switch_nrf52832_xxAA_s132_6.0.0.dir/__/__/models/health/src/health_server.c.obj
 .debug_info    0x0005fa47     0x1155 examples/enocean_switch/CMakeFiles/enocean_switch_nrf52832_xxAA_s132_6.0.0.dir/__/__/mesh/access/src/access_publish.c.obj
 .debug_info    0x00060b9c     0x4a37 examples/enocean_switch/CMakeFiles/enocean_switch_nrf52832_xxAA_s132_6.0.0.dir/__/__/mesh/access/src/access.c.obj
 .debug_info    0x000655d3     0x19df examples/enocean_switch/CMakeFiles/enocean_switch_nrf52832_xxAA_s132_6.0.0.dir/__/__/mesh/access/src/access_reliable.c.obj
 .debug_info    0x00066fb2      0xfbf examples/enocean_switch/CMakeFiles/enocean_switch_nrf52832_xxAA_s132_6.0.0.dir/__/__/mesh/access/src/access_loopback.c.obj
 .debug_info    0x00067f71     0x6847 examples/enocean_switch/CMakeFiles/enocean_switch_nrf52832_xxAA_s132_6.0.0.dir/__/__/mesh/access/src/device_state_manager.c.obj
 .debug_info    0x0006e7b8     0x2823 examples/enocean_switch/CMakeFiles/enocean_switch_nrf52832_xxAA_s132_6.0.0.dir/__/__/mesh/prov/src/prov_provisionee.c.obj
 .debug_info    0x00070fdb     0x1ed2 examples/enocean_switch/CMakeFiles/enocean_switch_nrf52832_xxAA_s132_6.0.0.dir/__/__/mesh/prov/src/nrf_mesh_prov.c.obj
 .debug_info    0x00072ead     0x1586 examples/enocean_switch/CMakeFiles/enocean_switch_nrf52832_xxAA_s132_6.0.0.dir/__/__/mesh/prov/src/provisioning.c.obj
 .debug_info    0x00074433     0x1a5f examples/enocean_switch/CMakeFiles/enocean_switch_nrf52832_xxAA_s132_6.0.0.dir/__/__/mesh/prov/src/prov_beacon.c.obj
 .debug_info    0x00075e92     0x205e examples/enocean_switch/CMakeFiles/enocean_switch_nrf52832_xxAA_s132_6.0.0.dir/__/__/mesh/prov/src/prov_utils.c.obj
 .debug_info    0x00077ef0     0x3ac9 examples/enocean_switch/CMakeFiles/enocean_switch_nrf52832_xxAA_s132_6.0.0.dir/__/__/mesh/prov/src/prov_bearer_adv.c.obj
 .debug_info    0x0007b9b9     0x10f2 examples/enocean_switch/CMakeFiles/enocean_switch_nrf52832_xxAA_s132_6.0.0.dir/C_/b/nRF5_SDK_15.0.0_a53641a/modules/nrfx/mdk/system_nrf52.c.obj
 .debug_info    0x0007caab      0xaee examples/enocean_switch/CMakeFiles/enocean_switch_nrf52832_xxAA_s132_6.0.0.dir/C_/b/nRF5_SDK_15.0.0_a53641a/components/libraries/util/app_error.c.obj
 .debug_info    0x0007d599     0x1199 examples/enocean_switch/CMakeFiles/enocean_switch_nrf52832_xxAA_s132_6.0.0.dir/C_/b/nRF5_SDK_15.0.0_a53641a/components/libraries/util/app_util_platform.c.obj
 .debug_info    0x0007e732     0x21dd examples/enocean_switch/CMakeFiles/enocean_switch_nrf52832_xxAA_s132_6.0.0.dir/C_/b/nRF5_SDK_15.0.0_a53641a/components/libraries/timer/app_timer.c.obj
 .debug_info    0x0008090f      0x974 examples/enocean_switch/CMakeFiles/enocean_switch_nrf52832_xxAA_s132_6.0.0.dir/C_/b/nRF5_SDK_15.0.0_a53641a/components/libraries/util/app_error_handler_gcc.c.obj
 .debug_info    0x00081283     0x1818 external/rtt/librtt_nrf52832_xxAA.a(SEGGER_RTT.c.obj)
 .debug_info    0x00082a9b      0xec1 external/rtt/librtt_nrf52832_xxAA.a(SEGGER_RTT_printf.c.obj)
 .debug_info    0x0008395c     0x4511 external/micro-ecc/libuECC_nrf52832_xxAA.a(uECC.c.obj)

.debug_abbrev   0x00000000    0x12099
 .debug_abbrev  0x00000000      0x5c6 examples/enocean_switch/CMakeFiles/enocean_switch_nrf52832_xxAA_s132_6.0.0.dir/src/main.c.obj
 .debug_abbrev  0x000005c6      0x384 examples/enocean_switch/CMakeFiles/enocean_switch_nrf52832_xxAA_s132_6.0.0.dir/src/enocean.c.obj
 .debug_abbrev  0x0000094a      0x413 examples/enocean_switch/CMakeFiles/enocean_switch_nrf52832_xxAA_s132_6.0.0.dir/src/flash_helper.c.obj
 .debug_abbrev  0x00000d5d      0x36b examples/enocean_switch/CMakeFiles/enocean_switch_nrf52832_xxAA_s132_6.0.0.dir/__/__/mesh/stack/src/mesh_stack.c.obj
 .debug_abbrev  0x000010c8      0x432 examples/enocean_switch/CMakeFiles/enocean_switch_nrf52832_xxAA_s132_6.0.0.dir/__/common/src/mesh_softdevice_init.c.obj
 .debug_abbrev  0x000014fa      0x312 examples/enocean_switch/CMakeFiles/enocean_switch_nrf52832_xxAA_s132_6.0.0.dir/__/common/src/mesh_provisionee.c.obj
 .debug_abbrev  0x0000180c      0x2d3 examples/enocean_switch/CMakeFiles/enocean_switch_nrf52832_xxAA_s132_6.0.0.dir/__/common/src/rtt_input.c.obj
 .debug_abbrev  0x00001adf      0x3a3 examples/enocean_switch/CMakeFiles/enocean_switch_nrf52832_xxAA_s132_6.0.0.dir/__/common/src/simple_hal.c.obj
 .debug_abbrev  0x00001e82      0x1ae examples/enocean_switch/CMakeFiles/enocean_switch_nrf52832_xxAA_s132_6.0.0.dir/__/nrf_mesh_weak.c.obj
 .debug_abbrev  0x00002030      0x2de examples/enocean_switch/CMakeFiles/enocean_switch_nrf52832_xxAA_s132_6.0.0.dir/__/common/src/app_error_weak.c.obj
 .debug_abbrev  0x0000230e      0x1f6 examples/enocean_switch/CMakeFiles/enocean_switch_nrf52832_xxAA_s132_6.0.0.dir/__/common/src/assertion_handler_weak.c.obj
 .debug_abbrev  0x00002504      0x24b examples/enocean_switch/CMakeFiles/enocean_switch_nrf52832_xxAA_s132_6.0.0.dir/__/__/mesh/core/src/nrf_mesh_configure.c.obj
 .debug_abbrev  0x0000274f      0x25d examples/enocean_switch/CMakeFiles/enocean_switch_nrf52832_xxAA_s132_6.0.0.dir/__/__/mesh/core/src/msg_cache.c.obj
 .debug_abbrev  0x000029ac      0x5f5 examples/enocean_switch/CMakeFiles/enocean_switch_nrf52832_xxAA_s132_6.0.0.dir/__/__/mesh/core/src/transport.c.obj
 .debug_abbrev  0x00002fa1      0x314 examples/enocean_switch/CMakeFiles/enocean_switch_nrf52832_xxAA_s132_6.0.0.dir/__/__/mesh/core/src/event.c.obj
 .debug_abbrev  0x000032b5      0x45f examples/enocean_switch/CMakeFiles/enocean_switch_nrf52832_xxAA_s132_6.0.0.dir/__/__/mesh/core/src/packet_buffer.c.obj
 .debug_abbrev  0x00003714      0x50e examples/enocean_switch/CMakeFiles/enocean_switch_nrf52832_xxAA_s132_6.0.0.dir/__/__/mesh/core/src/flash_manager_defrag.c.obj
 .debug_abbrev  0x00003c22      0x2f2 examples/enocean_switch/CMakeFiles/enocean_switch_nrf52832_xxAA_s132_6.0.0.dir/__/__/mesh/core/src/fifo.c.obj
 .debug_abbrev  0x00003f14      0x21f examples/enocean_switch/CMakeFiles/enocean_switch_nrf52832_xxAA_s132_6.0.0.dir/__/__/mesh/core/src/nrf_flash.c.obj
 .debug_abbrev  0x00004133      0x3b1 examples/enocean_switch/CMakeFiles/enocean_switch_nrf52832_xxAA_s132_6.0.0.dir/__/__/mesh/core/src/packet_mgr.c.obj
 .debug_abbrev  0x000044e4      0x552 examples/enocean_switch/CMakeFiles/enocean_switch_nrf52832_xxAA_s132_6.0.0.dir/__/__/mesh/core/src/net_state.c.obj
 .debug_abbrev  0x00004a36      0x453 examples/enocean_switch/CMakeFiles/enocean_switch_nrf52832_xxAA_s132_6.0.0.dir/__/__/mesh/core/src/mesh_flash.c.obj
 .debug_abbrev  0x00004e89      0x242 examples/enocean_switch/CMakeFiles/enocean_switch_nrf52832_xxAA_s132_6.0.0.dir/__/__/mesh/core/src/nrf_mesh_utils.c.obj
 .debug_abbrev  0x000050cb      0x490 examples/enocean_switch/CMakeFiles/enocean_switch_nrf52832_xxAA_s132_6.0.0.dir/__/__/mesh/core/src/nrf_mesh.c.obj
 .debug_abbrev  0x0000555b      0x247 examples/enocean_switch/CMakeFiles/enocean_switch_nrf52832_xxAA_s132_6.0.0.dir/__/__/mesh/core/src/queue.c.obj
 .debug_abbrev  0x000057a2      0x1eb examples/enocean_switch/CMakeFiles/enocean_switch_nrf52832_xxAA_s132_6.0.0.dir/__/__/mesh/core/src/hal.c.obj
 .debug_abbrev  0x0000598d      0x341 examples/enocean_switch/CMakeFiles/enocean_switch_nrf52832_xxAA_s132_6.0.0.dir/__/__/mesh/core/src/aes_cmac.c.obj
 .debug_abbrev  0x00005cce      0x3bc examples/enocean_switch/CMakeFiles/enocean_switch_nrf52832_xxAA_s132_6.0.0.dir/__/__/mesh/core/src/timer_scheduler.c.obj
 .debug_abbrev  0x0000608a      0x337 examples/enocean_switch/CMakeFiles/enocean_switch_nrf52832_xxAA_s132_6.0.0.dir/__/__/mesh/core/src/timer.c.obj
 .debug_abbrev  0x000063c1      0x152 examples/enocean_switch/CMakeFiles/enocean_switch_nrf52832_xxAA_s132_6.0.0.dir/__/__/mesh/core/src/ticker.c.obj
 .debug_abbrev  0x00006513      0x194 examples/enocean_switch/CMakeFiles/enocean_switch_nrf52832_xxAA_s132_6.0.0.dir/__/__/mesh/core/src/rand.c.obj
 .debug_abbrev  0x000066a7      0x24a examples/enocean_switch/CMakeFiles/enocean_switch_nrf52832_xxAA_s132_6.0.0.dir/__/__/mesh/core/src/nrf_mesh_opt.c.obj
 .debug_abbrev  0x000068f1      0x4a4 examples/enocean_switch/CMakeFiles/enocean_switch_nrf52832_xxAA_s132_6.0.0.dir/__/__/mesh/core/src/timeslot.c.obj
 .debug_abbrev  0x00006d95      0x4b5 examples/enocean_switch/CMakeFiles/enocean_switch_nrf52832_xxAA_s132_6.0.0.dir/__/__/mesh/core/src/bearer_event.c.obj
 .debug_abbrev  0x0000724a      0x3be examples/enocean_switch/CMakeFiles/enocean_switch_nrf52832_xxAA_s132_6.0.0.dir/__/__/mesh/core/src/enc.c.obj
 .debug_abbrev  0x00007608      0x496 examples/enocean_switch/CMakeFiles/enocean_switch_nrf52832_xxAA_s132_6.0.0.dir/__/__/mesh/core/src/network.c.obj
 .debug_abbrev  0x00007a9e      0x4a1 examples/enocean_switch/CMakeFiles/enocean_switch_nrf52832_xxAA_s132_6.0.0.dir/__/__/mesh/core/src/net_packet.c.obj
 .debug_abbrev  0x00007f3f      0x2c0 examples/enocean_switch/CMakeFiles/enocean_switch_nrf52832_xxAA_s132_6.0.0.dir/__/__/mesh/core/src/msqueue.c.obj
 .debug_abbrev  0x000081ff      0x163 examples/enocean_switch/CMakeFiles/enocean_switch_nrf52832_xxAA_s132_6.0.0.dir/__/__/mesh/core/src/nrf_mesh_keygen.c.obj
 .debug_abbrev  0x00008362      0x1a4 examples/enocean_switch/CMakeFiles/enocean_switch_nrf52832_xxAA_s132_6.0.0.dir/__/__/mesh/core/src/list.c.obj
 .debug_abbrev  0x00008506      0x24e examples/enocean_switch/CMakeFiles/enocean_switch_nrf52832_xxAA_s132_6.0.0.dir/__/__/mesh/core/src/log.c.obj
 .debug_abbrev  0x00008754      0x524 examples/enocean_switch/CMakeFiles/enocean_switch_nrf52832_xxAA_s132_6.0.0.dir/__/__/mesh/core/src/flash_manager.c.obj
 .debug_abbrev  0x00008c78      0x38c examples/enocean_switch/CMakeFiles/enocean_switch_nrf52832_xxAA_s132_6.0.0.dir/__/__/mesh/core/src/ccm_soft.c.obj
 .debug_abbrev  0x00009004      0x270 examples/enocean_switch/CMakeFiles/enocean_switch_nrf52832_xxAA_s132_6.0.0.dir/__/__/mesh/core/src/replay_cache.c.obj
 .debug_abbrev  0x00009274      0x2c4 examples/enocean_switch/CMakeFiles/enocean_switch_nrf52832_xxAA_s132_6.0.0.dir/__/__/mesh/core/src/beacon.c.obj
 .debug_abbrev  0x00009538      0x288 examples/enocean_switch/CMakeFiles/enocean_switch_nrf52832_xxAA_s132_6.0.0.dir/__/__/mesh/core/src/flash_manager_internal.c.obj
 .debug_abbrev  0x000097c0      0x2ed examples/enocean_switch/CMakeFiles/enocean_switch_nrf52832_xxAA_s132_6.0.0.dir/__/__/mesh/core/src/core_tx.c.obj
 .debug_abbrev  0x00009aad      0x4af examples/enocean_switch/CMakeFiles/enocean_switch_nrf52832_xxAA_s132_6.0.0.dir/__/__/mesh/core/src/heartbeat.c.obj
 .debug_abbrev  0x00009f5c      0x4ac examples/enocean_switch/CMakeFiles/enocean_switch_nrf52832_xxAA_s132_6.0.0.dir/__/__/mesh/core/src/net_beacon.c.obj
 .debug_abbrev  0x0000a408      0x308 examples/enocean_switch/CMakeFiles/enocean_switch_nrf52832_xxAA_s132_6.0.0.dir/__/__/mesh/core/src/core_tx_adv.c.obj
 .debug_abbrev  0x0000a710      0x341 examples/enocean_switch/CMakeFiles/enocean_switch_nrf52832_xxAA_s132_6.0.0.dir/__/__/mesh/bearer/src/ad_listener.c.obj
 .debug_abbrev  0x0000aa51      0x368 examples/enocean_switch/CMakeFiles/enocean_switch_nrf52832_xxAA_s132_6.0.0.dir/__/__/mesh/bearer/src/ad_type_filter.c.obj
 .debug_abbrev  0x0000adb9      0x4e4 examples/enocean_switch/CMakeFiles/enocean_switch_nrf52832_xxAA_s132_6.0.0.dir/__/__/mesh/bearer/src/advertiser.c.obj
 .debug_abbrev  0x0000b29d      0x476 examples/enocean_switch/CMakeFiles/enocean_switch_nrf52832_xxAA_s132_6.0.0.dir/__/__/mesh/bearer/src/bearer_handler.c.obj
 .debug_abbrev  0x0000b713      0x3b9 examples/enocean_switch/CMakeFiles/enocean_switch_nrf52832_xxAA_s132_6.0.0.dir/__/__/mesh/bearer/src/broadcast.c.obj
 .debug_abbrev  0x0000bacc      0x2a6 examples/enocean_switch/CMakeFiles/enocean_switch_nrf52832_xxAA_s132_6.0.0.dir/__/__/mesh/bearer/src/filter_engine.c.obj
 .debug_abbrev  0x0000bd72      0x1d5 examples/enocean_switch/CMakeFiles/enocean_switch_nrf52832_xxAA_s132_6.0.0.dir/__/__/mesh/bearer/src/radio_config.c.obj
 .debug_abbrev  0x0000bf47      0x52a examples/enocean_switch/CMakeFiles/enocean_switch_nrf52832_xxAA_s132_6.0.0.dir/__/__/mesh/bearer/src/scanner.c.obj
 .debug_abbrev  0x0000c471      0x2bd examples/enocean_switch/CMakeFiles/enocean_switch_nrf52832_xxAA_s132_6.0.0.dir/__/__/mesh/bearer/src/mesh_pa_lna.c.obj
 .debug_abbrev  0x0000c72e      0x3bb examples/enocean_switch/CMakeFiles/enocean_switch_nrf52832_xxAA_s132_6.0.0.dir/__/__/models/simple_on_off/src/simple_on_off_client.c.obj
 .debug_abbrev  0x0000cae9      0x2e2 examples/enocean_switch/CMakeFiles/enocean_switch_nrf52832_xxAA_s132_6.0.0.dir/__/__/models/config/src/composition_data.c.obj
 .debug_abbrev  0x0000cdcb      0x55a examples/enocean_switch/CMakeFiles/enocean_switch_nrf52832_xxAA_s132_6.0.0.dir/__/__/models/config/src/config_server.c.obj
 .debug_abbrev  0x0000d325       0x95 examples/enocean_switch/CMakeFiles/enocean_switch_nrf52832_xxAA_s132_6.0.0.dir/__/__/models/config/src/packed_index_list.c.obj
 .debug_abbrev  0x0000d3ba      0x4cf examples/enocean_switch/CMakeFiles/enocean_switch_nrf52832_xxAA_s132_6.0.0.dir/__/__/models/health/src/health_server.c.obj
 .debug_abbrev  0x0000d889      0x434 examples/enocean_switch/CMakeFiles/enocean_switch_nrf52832_xxAA_s132_6.0.0.dir/__/__/mesh/access/src/access_publish.c.obj
 .debug_abbrev  0x0000dcbd      0x610 examples/enocean_switch/CMakeFiles/enocean_switch_nrf52832_xxAA_s132_6.0.0.dir/__/__/mesh/access/src/access.c.obj
 .debug_abbrev  0x0000e2cd      0x448 examples/enocean_switch/CMakeFiles/enocean_switch_nrf52832_xxAA_s132_6.0.0.dir/__/__/mesh/access/src/access_reliable.c.obj
 .debug_abbrev  0x0000e715      0x2be examples/enocean_switch/CMakeFiles/enocean_switch_nrf52832_xxAA_s132_6.0.0.dir/__/__/mesh/access/src/access_loopback.c.obj
 .debug_abbrev  0x0000e9d3      0x60d examples/enocean_switch/CMakeFiles/enocean_switch_nrf52832_xxAA_s132_6.0.0.dir/__/__/mesh/access/src/device_state_manager.c.obj
 .debug_abbrev  0x0000efe0      0x491 examples/enocean_switch/CMakeFiles/enocean_switch_nrf52832_xxAA_s132_6.0.0.dir/__/__/mesh/prov/src/prov_provisionee.c.obj
 .debug_abbrev  0x0000f471      0x434 examples/enocean_switch/CMakeFiles/enocean_switch_nrf52832_xxAA_s132_6.0.0.dir/__/__/mesh/prov/src/nrf_mesh_prov.c.obj
 .debug_abbrev  0x0000f8a5      0x2a9 examples/enocean_switch/CMakeFiles/enocean_switch_nrf52832_xxAA_s132_6.0.0.dir/__/__/mesh/prov/src/provisioning.c.obj
 .debug_abbrev  0x0000fb4e      0x2c8 examples/enocean_switch/CMakeFiles/enocean_switch_nrf52832_xxAA_s132_6.0.0.dir/__/__/mesh/prov/src/prov_beacon.c.obj
 .debug_abbrev  0x0000fe16      0x3c1 examples/enocean_switch/CMakeFiles/enocean_switch_nrf52832_xxAA_s132_6.0.0.dir/__/__/mesh/prov/src/prov_utils.c.obj
 .debug_abbrev  0x000101d7      0x4eb examples/enocean_switch/CMakeFiles/enocean_switch_nrf52832_xxAA_s132_6.0.0.dir/__/__/mesh/prov/src/prov_bearer_adv.c.obj
 .debug_abbrev  0x000106c2      0x200 examples/enocean_switch/CMakeFiles/enocean_switch_nrf52832_xxAA_s132_6.0.0.dir/C_/b/nRF5_SDK_15.0.0_a53641a/modules/nrfx/mdk/system_nrf52.c.obj
 .debug_abbrev  0x000108c2      0x232 examples/enocean_switch/CMakeFiles/enocean_switch_nrf52832_xxAA_s132_6.0.0.dir/C_/b/nRF5_SDK_15.0.0_a53641a/components/libraries/util/app_error.c.obj
 .debug_abbrev  0x00010af4      0x35b examples/enocean_switch/CMakeFiles/enocean_switch_nrf52832_xxAA_s132_6.0.0.dir/C_/b/nRF5_SDK_15.0.0_a53641a/components/libraries/util/app_util_platform.c.obj
 .debug_abbrev  0x00010e4f      0x502 examples/enocean_switch/CMakeFiles/enocean_switch_nrf52832_xxAA_s132_6.0.0.dir/C_/b/nRF5_SDK_15.0.0_a53641a/components/libraries/timer/app_timer.c.obj
 .debug_abbrev  0x00011351      0x1bd examples/enocean_switch/CMakeFiles/enocean_switch_nrf52832_xxAA_s132_6.0.0.dir/C_/b/nRF5_SDK_15.0.0_a53641a/components/libraries/util/app_error_handler_gcc.c.obj
 .debug_abbrev  0x0001150e      0x3a9 external/rtt/librtt_nrf52832_xxAA.a(SEGGER_RTT.c.obj)
 .debug_abbrev  0x000118b7      0x32e external/rtt/librtt_nrf52832_xxAA.a(SEGGER_RTT_printf.c.obj)
 .debug_abbrev  0x00011be5      0x4b4 external/micro-ecc/libuECC_nrf52832_xxAA.a(uECC.c.obj)

.debug_loc      0x00000000    0x25596
 .debug_loc     0x00000000      0x552 examples/enocean_switch/CMakeFiles/enocean_switch_nrf52832_xxAA_s132_6.0.0.dir/src/main.c.obj
 .debug_loc     0x00000552      0x444 examples/enocean_switch/CMakeFiles/enocean_switch_nrf52832_xxAA_s132_6.0.0.dir/src/enocean.c.obj
 .debug_loc     0x00000996      0x2f6 examples/enocean_switch/CMakeFiles/enocean_switch_nrf52832_xxAA_s132_6.0.0.dir/src/flash_helper.c.obj
 .debug_loc     0x00000c8c      0x175 examples/enocean_switch/CMakeFiles/enocean_switch_nrf52832_xxAA_s132_6.0.0.dir/__/__/mesh/stack/src/mesh_stack.c.obj
 .debug_loc     0x00000e01      0x21b examples/enocean_switch/CMakeFiles/enocean_switch_nrf52832_xxAA_s132_6.0.0.dir/__/common/src/mesh_softdevice_init.c.obj
 .debug_loc     0x0000101c      0x10a examples/enocean_switch/CMakeFiles/enocean_switch_nrf52832_xxAA_s132_6.0.0.dir/__/common/src/mesh_provisionee.c.obj
 .debug_loc     0x00001126       0xed examples/enocean_switch/CMakeFiles/enocean_switch_nrf52832_xxAA_s132_6.0.0.dir/__/common/src/rtt_input.c.obj
 .debug_loc     0x00001213      0x243 examples/enocean_switch/CMakeFiles/enocean_switch_nrf52832_xxAA_s132_6.0.0.dir/__/common/src/simple_hal.c.obj
 .debug_loc     0x00001456      0x18c examples/enocean_switch/CMakeFiles/enocean_switch_nrf52832_xxAA_s132_6.0.0.dir/__/common/src/app_error_weak.c.obj
 .debug_loc     0x000015e2       0x2c examples/enocean_switch/CMakeFiles/enocean_switch_nrf52832_xxAA_s132_6.0.0.dir/__/common/src/assertion_handler_weak.c.obj
 .debug_loc     0x0000160e       0x2c examples/enocean_switch/CMakeFiles/enocean_switch_nrf52832_xxAA_s132_6.0.0.dir/__/__/mesh/core/src/nrf_mesh_configure.c.obj
 .debug_loc     0x0000163a      0x10d examples/enocean_switch/CMakeFiles/enocean_switch_nrf52832_xxAA_s132_6.0.0.dir/__/__/mesh/core/src/msg_cache.c.obj
 .debug_loc     0x00001747     0x259a examples/enocean_switch/CMakeFiles/enocean_switch_nrf52832_xxAA_s132_6.0.0.dir/__/__/mesh/core/src/transport.c.obj
 .debug_loc     0x00003ce1      0x124 examples/enocean_switch/CMakeFiles/enocean_switch_nrf52832_xxAA_s132_6.0.0.dir/__/__/mesh/core/src/event.c.obj
 .debug_loc     0x00003e05      0x816 examples/enocean_switch/CMakeFiles/enocean_switch_nrf52832_xxAA_s132_6.0.0.dir/__/__/mesh/core/src/packet_buffer.c.obj
 .debug_loc     0x0000461b      0x7fe examples/enocean_switch/CMakeFiles/enocean_switch_nrf52832_xxAA_s132_6.0.0.dir/__/__/mesh/core/src/flash_manager_defrag.c.obj
 .debug_loc     0x00004e19      0x4f6 examples/enocean_switch/CMakeFiles/enocean_switch_nrf52832_xxAA_s132_6.0.0.dir/__/__/mesh/core/src/fifo.c.obj
 .debug_loc     0x0000530f      0x17a examples/enocean_switch/CMakeFiles/enocean_switch_nrf52832_xxAA_s132_6.0.0.dir/__/__/mesh/core/src/nrf_flash.c.obj
 .debug_loc     0x00005489      0x6c1 examples/enocean_switch/CMakeFiles/enocean_switch_nrf52832_xxAA_s132_6.0.0.dir/__/__/mesh/core/src/packet_mgr.c.obj
 .debug_loc     0x00005b4a      0x936 examples/enocean_switch/CMakeFiles/enocean_switch_nrf52832_xxAA_s132_6.0.0.dir/__/__/mesh/core/src/net_state.c.obj
 .debug_loc     0x00006480      0x8be examples/enocean_switch/CMakeFiles/enocean_switch_nrf52832_xxAA_s132_6.0.0.dir/__/__/mesh/core/src/mesh_flash.c.obj
 .debug_loc     0x00006d3e       0xf8 examples/enocean_switch/CMakeFiles/enocean_switch_nrf52832_xxAA_s132_6.0.0.dir/__/__/mesh/core/src/nrf_mesh_utils.c.obj
 .debug_loc     0x00006e36      0x4f8 examples/enocean_switch/CMakeFiles/enocean_switch_nrf52832_xxAA_s132_6.0.0.dir/__/__/mesh/core/src/nrf_mesh.c.obj
 .debug_loc     0x0000732e       0xf5 examples/enocean_switch/CMakeFiles/enocean_switch_nrf52832_xxAA_s132_6.0.0.dir/__/__/mesh/core/src/queue.c.obj
 .debug_loc     0x00007423       0x84 examples/enocean_switch/CMakeFiles/enocean_switch_nrf52832_xxAA_s132_6.0.0.dir/__/__/mesh/core/src/hal.c.obj
 .debug_loc     0x000074a7      0x3d8 examples/enocean_switch/CMakeFiles/enocean_switch_nrf52832_xxAA_s132_6.0.0.dir/__/__/mesh/core/src/aes_cmac.c.obj
 .debug_loc     0x0000787f      0x2d1 examples/enocean_switch/CMakeFiles/enocean_switch_nrf52832_xxAA_s132_6.0.0.dir/__/__/mesh/core/src/timer_scheduler.c.obj
 .debug_loc     0x00007b50      0x5f9 examples/enocean_switch/CMakeFiles/enocean_switch_nrf52832_xxAA_s132_6.0.0.dir/__/__/mesh/core/src/timer.c.obj
 .debug_loc     0x00008149      0x14e examples/enocean_switch/CMakeFiles/enocean_switch_nrf52832_xxAA_s132_6.0.0.dir/__/__/mesh/core/src/rand.c.obj
 .debug_loc     0x00008297      0x194 examples/enocean_switch/CMakeFiles/enocean_switch_nrf52832_xxAA_s132_6.0.0.dir/__/__/mesh/core/src/nrf_mesh_opt.c.obj
 .debug_loc     0x0000842b      0x344 examples/enocean_switch/CMakeFiles/enocean_switch_nrf52832_xxAA_s132_6.0.0.dir/__/__/mesh/core/src/timeslot.c.obj
 .debug_loc     0x0000876f      0x526 examples/enocean_switch/CMakeFiles/enocean_switch_nrf52832_xxAA_s132_6.0.0.dir/__/__/mesh/core/src/bearer_event.c.obj
 .debug_loc     0x00008c95      0x8e7 examples/enocean_switch/CMakeFiles/enocean_switch_nrf52832_xxAA_s132_6.0.0.dir/__/__/mesh/core/src/enc.c.obj
 .debug_loc     0x0000957c      0x60c examples/enocean_switch/CMakeFiles/enocean_switch_nrf52832_xxAA_s132_6.0.0.dir/__/__/mesh/core/src/network.c.obj
 .debug_loc     0x00009b88      0x817 examples/enocean_switch/CMakeFiles/enocean_switch_nrf52832_xxAA_s132_6.0.0.dir/__/__/mesh/core/src/net_packet.c.obj
 .debug_loc     0x0000a39f      0x2ed examples/enocean_switch/CMakeFiles/enocean_switch_nrf52832_xxAA_s132_6.0.0.dir/__/__/mesh/core/src/msqueue.c.obj
 .debug_loc     0x0000a68c      0x1ee examples/enocean_switch/CMakeFiles/enocean_switch_nrf52832_xxAA_s132_6.0.0.dir/__/__/mesh/core/src/nrf_mesh_keygen.c.obj
 .debug_loc     0x0000a87a      0x3bf examples/enocean_switch/CMakeFiles/enocean_switch_nrf52832_xxAA_s132_6.0.0.dir/__/__/mesh/core/src/list.c.obj
 .debug_loc     0x0000ac39      0x348 examples/enocean_switch/CMakeFiles/enocean_switch_nrf52832_xxAA_s132_6.0.0.dir/__/__/mesh/core/src/log.c.obj
 .debug_loc     0x0000af81     0x1439 examples/enocean_switch/CMakeFiles/enocean_switch_nrf52832_xxAA_s132_6.0.0.dir/__/__/mesh/core/src/flash_manager.c.obj
 .debug_loc     0x0000c3ba      0x4b6 examples/enocean_switch/CMakeFiles/enocean_switch_nrf52832_xxAA_s132_6.0.0.dir/__/__/mesh/core/src/ccm_soft.c.obj
 .debug_loc     0x0000c870      0x141 examples/enocean_switch/CMakeFiles/enocean_switch_nrf52832_xxAA_s132_6.0.0.dir/__/__/mesh/core/src/replay_cache.c.obj
 .debug_loc     0x0000c9b1      0x30d examples/enocean_switch/CMakeFiles/enocean_switch_nrf52832_xxAA_s132_6.0.0.dir/__/__/mesh/core/src/beacon.c.obj
 .debug_loc     0x0000ccbe       0xe3 examples/enocean_switch/CMakeFiles/enocean_switch_nrf52832_xxAA_s132_6.0.0.dir/__/__/mesh/core/src/flash_manager_internal.c.obj
 .debug_loc     0x0000cda1      0x3b8 examples/enocean_switch/CMakeFiles/enocean_switch_nrf52832_xxAA_s132_6.0.0.dir/__/__/mesh/core/src/core_tx.c.obj
 .debug_loc     0x0000d159      0x57b examples/enocean_switch/CMakeFiles/enocean_switch_nrf52832_xxAA_s132_6.0.0.dir/__/__/mesh/core/src/heartbeat.c.obj
 .debug_loc     0x0000d6d4      0x5f5 examples/enocean_switch/CMakeFiles/enocean_switch_nrf52832_xxAA_s132_6.0.0.dir/__/__/mesh/core/src/net_beacon.c.obj
 .debug_loc     0x0000dcc9      0x41f examples/enocean_switch/CMakeFiles/enocean_switch_nrf52832_xxAA_s132_6.0.0.dir/__/__/mesh/core/src/core_tx_adv.c.obj
 .debug_loc     0x0000e0e8      0x40d examples/enocean_switch/CMakeFiles/enocean_switch_nrf52832_xxAA_s132_6.0.0.dir/__/__/mesh/bearer/src/ad_listener.c.obj
 .debug_loc     0x0000e4f5      0x3ae examples/enocean_switch/CMakeFiles/enocean_switch_nrf52832_xxAA_s132_6.0.0.dir/__/__/mesh/bearer/src/ad_type_filter.c.obj
 .debug_loc     0x0000e8a3      0xcff examples/enocean_switch/CMakeFiles/enocean_switch_nrf52832_xxAA_s132_6.0.0.dir/__/__/mesh/bearer/src/advertiser.c.obj
 .debug_loc     0x0000f5a2      0x438 examples/enocean_switch/CMakeFiles/enocean_switch_nrf52832_xxAA_s132_6.0.0.dir/__/__/mesh/bearer/src/bearer_handler.c.obj
 .debug_loc     0x0000f9da      0x320 examples/enocean_switch/CMakeFiles/enocean_switch_nrf52832_xxAA_s132_6.0.0.dir/__/__/mesh/bearer/src/broadcast.c.obj
 .debug_loc     0x0000fcfa       0xde examples/enocean_switch/CMakeFiles/enocean_switch_nrf52832_xxAA_s132_6.0.0.dir/__/__/mesh/bearer/src/filter_engine.c.obj
 .debug_loc     0x0000fdd8      0x232 examples/enocean_switch/CMakeFiles/enocean_switch_nrf52832_xxAA_s132_6.0.0.dir/__/__/mesh/bearer/src/radio_config.c.obj
 .debug_loc     0x0001000a      0x48a examples/enocean_switch/CMakeFiles/enocean_switch_nrf52832_xxAA_s132_6.0.0.dir/__/__/mesh/bearer/src/scanner.c.obj
 .debug_loc     0x00010494      0x1d6 examples/enocean_switch/CMakeFiles/enocean_switch_nrf52832_xxAA_s132_6.0.0.dir/__/__/mesh/bearer/src/mesh_pa_lna.c.obj
 .debug_loc     0x0001066a      0x5a5 examples/enocean_switch/CMakeFiles/enocean_switch_nrf52832_xxAA_s132_6.0.0.dir/__/__/models/simple_on_off/src/simple_on_off_client.c.obj
 .debug_loc     0x00010c0f      0x254 examples/enocean_switch/CMakeFiles/enocean_switch_nrf52832_xxAA_s132_6.0.0.dir/__/__/models/config/src/composition_data.c.obj
 .debug_loc     0x00010e63     0x4da6 examples/enocean_switch/CMakeFiles/enocean_switch_nrf52832_xxAA_s132_6.0.0.dir/__/__/models/config/src/config_server.c.obj
 .debug_loc     0x00015c09       0x89 examples/enocean_switch/CMakeFiles/enocean_switch_nrf52832_xxAA_s132_6.0.0.dir/__/__/models/config/src/packed_index_list.c.obj
 .debug_loc     0x00015c92     0x1373 examples/enocean_switch/CMakeFiles/enocean_switch_nrf52832_xxAA_s132_6.0.0.dir/__/__/models/health/src/health_server.c.obj
 .debug_loc     0x00017005      0x4d4 examples/enocean_switch/CMakeFiles/enocean_switch_nrf52832_xxAA_s132_6.0.0.dir/__/__/mesh/access/src/access_publish.c.obj
 .debug_loc     0x000174d9     0x238e examples/enocean_switch/CMakeFiles/enocean_switch_nrf52832_xxAA_s132_6.0.0.dir/__/__/mesh/access/src/access.c.obj
 .debug_loc     0x00019867      0x784 examples/enocean_switch/CMakeFiles/enocean_switch_nrf52832_xxAA_s132_6.0.0.dir/__/__/mesh/access/src/access_reliable.c.obj
 .debug_loc     0x00019feb       0x81 examples/enocean_switch/CMakeFiles/enocean_switch_nrf52832_xxAA_s132_6.0.0.dir/__/__/mesh/access/src/access_loopback.c.obj
 .debug_loc     0x0001a06c     0x3b4b examples/enocean_switch/CMakeFiles/enocean_switch_nrf52832_xxAA_s132_6.0.0.dir/__/__/mesh/access/src/device_state_manager.c.obj
 .debug_loc     0x0001dbb7      0x766 examples/enocean_switch/CMakeFiles/enocean_switch_nrf52832_xxAA_s132_6.0.0.dir/__/__/mesh/prov/src/prov_provisionee.c.obj
 .debug_loc     0x0001e31d      0xa4b examples/enocean_switch/CMakeFiles/enocean_switch_nrf52832_xxAA_s132_6.0.0.dir/__/__/mesh/prov/src/nrf_mesh_prov.c.obj
 .debug_loc     0x0001ed68      0x490 examples/enocean_switch/CMakeFiles/enocean_switch_nrf52832_xxAA_s132_6.0.0.dir/__/__/mesh/prov/src/provisioning.c.obj
 .debug_loc     0x0001f1f8      0x18c examples/enocean_switch/CMakeFiles/enocean_switch_nrf52832_xxAA_s132_6.0.0.dir/__/__/mesh/prov/src/prov_beacon.c.obj
 .debug_loc     0x0001f384      0x40b examples/enocean_switch/CMakeFiles/enocean_switch_nrf52832_xxAA_s132_6.0.0.dir/__/__/mesh/prov/src/prov_utils.c.obj
 .debug_loc     0x0001f78f     0x1457 examples/enocean_switch/CMakeFiles/enocean_switch_nrf52832_xxAA_s132_6.0.0.dir/__/__/mesh/prov/src/prov_bearer_adv.c.obj
 .debug_loc     0x00020be6       0xb5 examples/enocean_switch/CMakeFiles/enocean_switch_nrf52832_xxAA_s132_6.0.0.dir/C_/b/nRF5_SDK_15.0.0_a53641a/components/libraries/util/app_error.c.obj
 .debug_loc     0x00020c9b       0xc1 examples/enocean_switch/CMakeFiles/enocean_switch_nrf52832_xxAA_s132_6.0.0.dir/C_/b/nRF5_SDK_15.0.0_a53641a/components/libraries/util/app_util_platform.c.obj
 .debug_loc     0x00020d5c      0xa5d examples/enocean_switch/CMakeFiles/enocean_switch_nrf52832_xxAA_s132_6.0.0.dir/C_/b/nRF5_SDK_15.0.0_a53641a/components/libraries/timer/app_timer.c.obj
 .debug_loc     0x000217b9       0x63 examples/enocean_switch/CMakeFiles/enocean_switch_nrf52832_xxAA_s132_6.0.0.dir/C_/b/nRF5_SDK_15.0.0_a53641a/components/libraries/util/app_error_handler_gcc.c.obj
 .debug_loc     0x0002181c     0x1222 external/rtt/librtt_nrf52832_xxAA.a(SEGGER_RTT.c.obj)
 .debug_loc     0x00022a3e      0x70f external/rtt/librtt_nrf52832_xxAA.a(SEGGER_RTT_printf.c.obj)
 .debug_loc     0x0002314d     0x2449 external/micro-ecc/libuECC_nrf52832_xxAA.a(uECC.c.obj)

.debug_aranges  0x00000000     0x25a0
 .debug_aranges
                0x00000000       0x80 examples/enocean_switch/CMakeFiles/enocean_switch_nrf52832_xxAA_s132_6.0.0.dir/src/main.c.obj
 .debug_aranges
                0x00000080       0x30 examples/enocean_switch/CMakeFiles/enocean_switch_nrf52832_xxAA_s132_6.0.0.dir/src/enocean.c.obj
 .debug_aranges
                0x000000b0       0x68 examples/enocean_switch/CMakeFiles/enocean_switch_nrf52832_xxAA_s132_6.0.0.dir/src/flash_helper.c.obj
 .debug_aranges
                0x00000118       0x50 examples/enocean_switch/CMakeFiles/enocean_switch_nrf52832_xxAA_s132_6.0.0.dir/__/__/mesh/stack/src/mesh_stack.c.obj
 .debug_aranges
                0x00000168       0x48 examples/enocean_switch/CMakeFiles/enocean_switch_nrf52832_xxAA_s132_6.0.0.dir/__/common/src/mesh_softdevice_init.c.obj
 .debug_aranges
                0x000001b0       0x30 examples/enocean_switch/CMakeFiles/enocean_switch_nrf52832_xxAA_s132_6.0.0.dir/__/common/src/mesh_provisionee.c.obj
 .debug_aranges
                0x000001e0       0x30 examples/enocean_switch/CMakeFiles/enocean_switch_nrf52832_xxAA_s132_6.0.0.dir/__/common/src/rtt_input.c.obj
 .debug_aranges
                0x00000210       0x58 examples/enocean_switch/CMakeFiles/enocean_switch_nrf52832_xxAA_s132_6.0.0.dir/__/common/src/simple_hal.c.obj
 .debug_aranges
                0x00000268       0x28 examples/enocean_switch/CMakeFiles/enocean_switch_nrf52832_xxAA_s132_6.0.0.dir/__/nrf_mesh_weak.c.obj
 .debug_aranges
                0x00000290       0x20 examples/enocean_switch/CMakeFiles/enocean_switch_nrf52832_xxAA_s132_6.0.0.dir/__/common/src/app_error_weak.c.obj
 .debug_aranges
                0x000002b0       0x20 examples/enocean_switch/CMakeFiles/enocean_switch_nrf52832_xxAA_s132_6.0.0.dir/__/common/src/assertion_handler_weak.c.obj
 .debug_aranges
                0x000002d0       0x30 examples/enocean_switch/CMakeFiles/enocean_switch_nrf52832_xxAA_s132_6.0.0.dir/__/__/mesh/core/src/nrf_mesh_configure.c.obj
 .debug_aranges
                0x00000300       0x38 examples/enocean_switch/CMakeFiles/enocean_switch_nrf52832_xxAA_s132_6.0.0.dir/__/__/mesh/core/src/msg_cache.c.obj
 .debug_aranges
                0x00000338      0x110 examples/enocean_switch/CMakeFiles/enocean_switch_nrf52832_xxAA_s132_6.0.0.dir/__/__/mesh/core/src/transport.c.obj
 .debug_aranges
                0x00000448       0x30 examples/enocean_switch/CMakeFiles/enocean_switch_nrf52832_xxAA_s132_6.0.0.dir/__/__/mesh/core/src/event.c.obj
 .debug_aranges
                0x00000478       0x68 examples/enocean_switch/CMakeFiles/enocean_switch_nrf52832_xxAA_s132_6.0.0.dir/__/__/mesh/core/src/packet_buffer.c.obj
 .debug_aranges
                0x000004e0       0xc8 examples/enocean_switch/CMakeFiles/enocean_switch_nrf52832_xxAA_s132_6.0.0.dir/__/__/mesh/core/src/flash_manager_defrag.c.obj
 .debug_aranges
                0x000005a8       0x60 examples/enocean_switch/CMakeFiles/enocean_switch_nrf52832_xxAA_s132_6.0.0.dir/__/__/mesh/core/src/fifo.c.obj
 .debug_aranges
                0x00000608       0x30 examples/enocean_switch/CMakeFiles/enocean_switch_nrf52832_xxAA_s132_6.0.0.dir/__/__/mesh/core/src/nrf_flash.c.obj
 .debug_aranges
                0x00000638       0x48 examples/enocean_switch/CMakeFiles/enocean_switch_nrf52832_xxAA_s132_6.0.0.dir/__/__/mesh/core/src/packet_mgr.c.obj
 .debug_aranges
                0x00000680       0xd0 examples/enocean_switch/CMakeFiles/enocean_switch_nrf52832_xxAA_s132_6.0.0.dir/__/__/mesh/core/src/net_state.c.obj
 .debug_aranges
                0x00000750       0x60 examples/enocean_switch/CMakeFiles/enocean_switch_nrf52832_xxAA_s132_6.0.0.dir/__/__/mesh/core/src/mesh_flash.c.obj
 .debug_aranges
                0x000007b0       0x30 examples/enocean_switch/CMakeFiles/enocean_switch_nrf52832_xxAA_s132_6.0.0.dir/__/__/mesh/core/src/nrf_mesh_utils.c.obj
 .debug_aranges
                0x000007e0       0x98 examples/enocean_switch/CMakeFiles/enocean_switch_nrf52832_xxAA_s132_6.0.0.dir/__/__/mesh/core/src/nrf_mesh.c.obj
 .debug_aranges
                0x00000878       0x38 examples/enocean_switch/CMakeFiles/enocean_switch_nrf52832_xxAA_s132_6.0.0.dir/__/__/mesh/core/src/queue.c.obj
 .debug_aranges
                0x000008b0       0x38 examples/enocean_switch/CMakeFiles/enocean_switch_nrf52832_xxAA_s132_6.0.0.dir/__/__/mesh/core/src/hal.c.obj
 .debug_aranges
                0x000008e8       0x30 examples/enocean_switch/CMakeFiles/enocean_switch_nrf52832_xxAA_s132_6.0.0.dir/__/__/mesh/core/src/aes_cmac.c.obj
 .debug_aranges
                0x00000918       0x68 examples/enocean_switch/CMakeFiles/enocean_switch_nrf52832_xxAA_s132_6.0.0.dir/__/__/mesh/core/src/timer_scheduler.c.obj
 .debug_aranges
                0x00000980       0x60 examples/enocean_switch/CMakeFiles/enocean_switch_nrf52832_xxAA_s132_6.0.0.dir/__/__/mesh/core/src/timer.c.obj
 .debug_aranges
                0x000009e0       0x30 examples/enocean_switch/CMakeFiles/enocean_switch_nrf52832_xxAA_s132_6.0.0.dir/__/__/mesh/core/src/ticker.c.obj
 .debug_aranges
                0x00000a10       0x40 examples/enocean_switch/CMakeFiles/enocean_switch_nrf52832_xxAA_s132_6.0.0.dir/__/__/mesh/core/src/rand.c.obj
 .debug_aranges
                0x00000a50       0x28 examples/enocean_switch/CMakeFiles/enocean_switch_nrf52832_xxAA_s132_6.0.0.dir/__/__/mesh/core/src/nrf_mesh_opt.c.obj
 .debug_aranges
                0x00000a78       0xb8 examples/enocean_switch/CMakeFiles/enocean_switch_nrf52832_xxAA_s132_6.0.0.dir/__/__/mesh/core/src/timeslot.c.obj
 .debug_aranges
                0x00000b30       0x98 examples/enocean_switch/CMakeFiles/enocean_switch_nrf52832_xxAA_s132_6.0.0.dir/__/__/mesh/core/src/bearer_event.c.obj
 .debug_aranges
                0x00000bc8       0x78 examples/enocean_switch/CMakeFiles/enocean_switch_nrf52832_xxAA_s132_6.0.0.dir/__/__/mesh/core/src/enc.c.obj
 .debug_aranges
                0x00000c40       0x58 examples/enocean_switch/CMakeFiles/enocean_switch_nrf52832_xxAA_s132_6.0.0.dir/__/__/mesh/core/src/network.c.obj
 .debug_aranges
                0x00000c98       0x68 examples/enocean_switch/CMakeFiles/enocean_switch_nrf52832_xxAA_s132_6.0.0.dir/__/__/mesh/core/src/net_packet.c.obj
 .debug_aranges
                0x00000d00       0x48 examples/enocean_switch/CMakeFiles/enocean_switch_nrf52832_xxAA_s132_6.0.0.dir/__/__/mesh/core/src/msqueue.c.obj
 .debug_aranges
                0x00000d48       0x40 examples/enocean_switch/CMakeFiles/enocean_switch_nrf52832_xxAA_s132_6.0.0.dir/__/__/mesh/core/src/nrf_mesh_keygen.c.obj
 .debug_aranges
                0x00000d88       0x48 examples/enocean_switch/CMakeFiles/enocean_switch_nrf52832_xxAA_s132_6.0.0.dir/__/__/mesh/core/src/list.c.obj
 .debug_aranges
                0x00000dd0       0x48 examples/enocean_switch/CMakeFiles/enocean_switch_nrf52832_xxAA_s132_6.0.0.dir/__/__/mesh/core/src/log.c.obj
 .debug_aranges
                0x00000e18       0xf8 examples/enocean_switch/CMakeFiles/enocean_switch_nrf52832_xxAA_s132_6.0.0.dir/__/__/mesh/core/src/flash_manager.c.obj
 .debug_aranges
                0x00000f10       0x50 examples/enocean_switch/CMakeFiles/enocean_switch_nrf52832_xxAA_s132_6.0.0.dir/__/__/mesh/core/src/ccm_soft.c.obj
 .debug_aranges
                0x00000f60       0x40 examples/enocean_switch/CMakeFiles/enocean_switch_nrf52832_xxAA_s132_6.0.0.dir/__/__/mesh/core/src/replay_cache.c.obj
 .debug_aranges
                0x00000fa0       0x28 examples/enocean_switch/CMakeFiles/enocean_switch_nrf52832_xxAA_s132_6.0.0.dir/__/__/mesh/core/src/beacon.c.obj
 .debug_aranges
                0x00000fc8       0x20 examples/enocean_switch/CMakeFiles/enocean_switch_nrf52832_xxAA_s132_6.0.0.dir/__/__/mesh/core/src/flash_manager_internal.c.obj
 .debug_aranges
                0x00000fe8       0x58 examples/enocean_switch/CMakeFiles/enocean_switch_nrf52832_xxAA_s132_6.0.0.dir/__/__/mesh/core/src/core_tx.c.obj
 .debug_aranges
                0x00001040       0x70 examples/enocean_switch/CMakeFiles/enocean_switch_nrf52832_xxAA_s132_6.0.0.dir/__/__/mesh/core/src/heartbeat.c.obj
 .debug_aranges
                0x000010b0       0x68 examples/enocean_switch/CMakeFiles/enocean_switch_nrf52832_xxAA_s132_6.0.0.dir/__/__/mesh/core/src/net_beacon.c.obj
 .debug_aranges
                0x00001118       0x70 examples/enocean_switch/CMakeFiles/enocean_switch_nrf52832_xxAA_s132_6.0.0.dir/__/__/mesh/core/src/core_tx_adv.c.obj
 .debug_aranges
                0x00001188       0x30 examples/enocean_switch/CMakeFiles/enocean_switch_nrf52832_xxAA_s132_6.0.0.dir/__/__/mesh/bearer/src/ad_listener.c.obj
 .debug_aranges
                0x000011b8       0x58 examples/enocean_switch/CMakeFiles/enocean_switch_nrf52832_xxAA_s132_6.0.0.dir/__/__/mesh/bearer/src/ad_type_filter.c.obj
 .debug_aranges
                0x00001210       0xb8 examples/enocean_switch/CMakeFiles/enocean_switch_nrf52832_xxAA_s132_6.0.0.dir/__/__/mesh/bearer/src/advertiser.c.obj
 .debug_aranges
                0x000012c8       0x88 examples/enocean_switch/CMakeFiles/enocean_switch_nrf52832_xxAA_s132_6.0.0.dir/__/__/mesh/bearer/src/bearer_handler.c.obj
 .debug_aranges
                0x00001350       0x30 examples/enocean_switch/CMakeFiles/enocean_switch_nrf52832_xxAA_s132_6.0.0.dir/__/__/mesh/bearer/src/broadcast.c.obj
 .debug_aranges
                0x00001380       0x38 examples/enocean_switch/CMakeFiles/enocean_switch_nrf52832_xxAA_s132_6.0.0.dir/__/__/mesh/bearer/src/filter_engine.c.obj
 .debug_aranges
                0x000013b8       0x40 examples/enocean_switch/CMakeFiles/enocean_switch_nrf52832_xxAA_s132_6.0.0.dir/__/__/mesh/bearer/src/radio_config.c.obj
 .debug_aranges
                0x000013f8       0xe8 examples/enocean_switch/CMakeFiles/enocean_switch_nrf52832_xxAA_s132_6.0.0.dir/__/__/mesh/bearer/src/scanner.c.obj
 .debug_aranges
                0x000014e0       0x70 examples/enocean_switch/CMakeFiles/enocean_switch_nrf52832_xxAA_s132_6.0.0.dir/__/__/mesh/bearer/src/mesh_pa_lna.c.obj
 .debug_aranges
                0x00001550       0x60 examples/enocean_switch/CMakeFiles/enocean_switch_nrf52832_xxAA_s132_6.0.0.dir/__/__/models/simple_on_off/src/simple_on_off_client.c.obj
 .debug_aranges
                0x000015b0       0x20 examples/enocean_switch/CMakeFiles/enocean_switch_nrf52832_xxAA_s132_6.0.0.dir/__/__/models/config/src/composition_data.c.obj
 .debug_aranges
                0x000015d0      0x220 examples/enocean_switch/CMakeFiles/enocean_switch_nrf52832_xxAA_s132_6.0.0.dir/__/__/models/config/src/config_server.c.obj
 .debug_aranges
                0x000017f0       0x20 examples/enocean_switch/CMakeFiles/enocean_switch_nrf52832_xxAA_s132_6.0.0.dir/__/__/models/config/src/packed_index_list.c.obj
 .debug_aranges
                0x00001810       0xc8 examples/enocean_switch/CMakeFiles/enocean_switch_nrf52832_xxAA_s132_6.0.0.dir/__/__/models/health/src/health_server.c.obj
 .debug_aranges
                0x000018d8       0x50 examples/enocean_switch/CMakeFiles/enocean_switch_nrf52832_xxAA_s132_6.0.0.dir/__/__/mesh/access/src/access_publish.c.obj
 .debug_aranges
                0x00001928      0x1d0 examples/enocean_switch/CMakeFiles/enocean_switch_nrf52832_xxAA_s132_6.0.0.dir/__/__/mesh/access/src/access.c.obj
 .debug_aranges
                0x00001af8       0x50 examples/enocean_switch/CMakeFiles/enocean_switch_nrf52832_xxAA_s132_6.0.0.dir/__/__/mesh/access/src/access_reliable.c.obj
 .debug_aranges
                0x00001b48       0x38 examples/enocean_switch/CMakeFiles/enocean_switch_nrf52832_xxAA_s132_6.0.0.dir/__/__/mesh/access/src/access_loopback.c.obj
 .debug_aranges
                0x00001b80      0x328 examples/enocean_switch/CMakeFiles/enocean_switch_nrf52832_xxAA_s132_6.0.0.dir/__/__/mesh/access/src/device_state_manager.c.obj
 .debug_aranges
                0x00001ea8       0x70 examples/enocean_switch/CMakeFiles/enocean_switch_nrf52832_xxAA_s132_6.0.0.dir/__/__/mesh/prov/src/prov_provisionee.c.obj
 .debug_aranges
                0x00001f18       0x88 examples/enocean_switch/CMakeFiles/enocean_switch_nrf52832_xxAA_s132_6.0.0.dir/__/__/mesh/prov/src/nrf_mesh_prov.c.obj
 .debug_aranges
                0x00001fa0       0x80 examples/enocean_switch/CMakeFiles/enocean_switch_nrf52832_xxAA_s132_6.0.0.dir/__/__/mesh/prov/src/provisioning.c.obj
 .debug_aranges
                0x00002020       0x38 examples/enocean_switch/CMakeFiles/enocean_switch_nrf52832_xxAA_s132_6.0.0.dir/__/__/mesh/prov/src/prov_beacon.c.obj
 .debug_aranges
                0x00002058       0x70 examples/enocean_switch/CMakeFiles/enocean_switch_nrf52832_xxAA_s132_6.0.0.dir/__/__/mesh/prov/src/prov_utils.c.obj
 .debug_aranges
                0x000020c8       0xc8 examples/enocean_switch/CMakeFiles/enocean_switch_nrf52832_xxAA_s132_6.0.0.dir/__/__/mesh/prov/src/prov_bearer_adv.c.obj
 .debug_aranges
                0x00002190       0x38 examples/enocean_switch/CMakeFiles/enocean_switch_nrf52832_xxAA_s132_6.0.0.dir/C_/b/nRF5_SDK_15.0.0_a53641a/modules/nrfx/mdk/system_nrf52.c.obj
 .debug_aranges
                0x000021c8       0x28 examples/enocean_switch/CMakeFiles/enocean_switch_nrf52832_xxAA_s132_6.0.0.dir/C_/b/nRF5_SDK_15.0.0_a53641a/components/libraries/util/app_error.c.obj
 .debug_aranges
                0x000021f0       0x48 examples/enocean_switch/CMakeFiles/enocean_switch_nrf52832_xxAA_s132_6.0.0.dir/C_/b/nRF5_SDK_15.0.0_a53641a/components/libraries/util/app_util_platform.c.obj
 .debug_aranges
                0x00002238       0x90 examples/enocean_switch/CMakeFiles/enocean_switch_nrf52832_xxAA_s132_6.0.0.dir/C_/b/nRF5_SDK_15.0.0_a53641a/components/libraries/timer/app_timer.c.obj
 .debug_aranges
                0x000022c8       0x20 examples/enocean_switch/CMakeFiles/enocean_switch_nrf52832_xxAA_s132_6.0.0.dir/C_/b/nRF5_SDK_15.0.0_a53641a/components/libraries/util/app_error_handler_gcc.c.obj
 .debug_aranges
                0x000022e8       0xd8 external/rtt/librtt_nrf52832_xxAA.a(SEGGER_RTT.c.obj)
 .debug_aranges
                0x000023c0       0x38 external/rtt/librtt_nrf52832_xxAA.a(SEGGER_RTT_printf.c.obj)
 .debug_aranges
                0x000023f8      0x1a8 external/micro-ecc/libuECC_nrf52832_xxAA.a(uECC.c.obj)

.debug_ranges   0x00000000     0x64f0
 .debug_ranges  0x00000000      0x400 examples/enocean_switch/CMakeFiles/enocean_switch_nrf52832_xxAA_s132_6.0.0.dir/src/main.c.obj
 .debug_ranges  0x00000400      0x108 examples/enocean_switch/CMakeFiles/enocean_switch_nrf52832_xxAA_s132_6.0.0.dir/src/enocean.c.obj
 .debug_ranges  0x00000508      0x148 examples/enocean_switch/CMakeFiles/enocean_switch_nrf52832_xxAA_s132_6.0.0.dir/src/flash_helper.c.obj
 .debug_ranges  0x00000650       0x70 examples/enocean_switch/CMakeFiles/enocean_switch_nrf52832_xxAA_s132_6.0.0.dir/__/__/mesh/stack/src/mesh_stack.c.obj
 .debug_ranges  0x000006c0       0xe8 examples/enocean_switch/CMakeFiles/enocean_switch_nrf52832_xxAA_s132_6.0.0.dir/__/common/src/mesh_softdevice_init.c.obj
 .debug_ranges  0x000007a8       0x50 examples/enocean_switch/CMakeFiles/enocean_switch_nrf52832_xxAA_s132_6.0.0.dir/__/common/src/mesh_provisionee.c.obj
 .debug_ranges  0x000007f8       0x50 examples/enocean_switch/CMakeFiles/enocean_switch_nrf52832_xxAA_s132_6.0.0.dir/__/common/src/rtt_input.c.obj
 .debug_ranges  0x00000848       0x98 examples/enocean_switch/CMakeFiles/enocean_switch_nrf52832_xxAA_s132_6.0.0.dir/__/common/src/simple_hal.c.obj
 .debug_ranges  0x000008e0       0x18 examples/enocean_switch/CMakeFiles/enocean_switch_nrf52832_xxAA_s132_6.0.0.dir/__/nrf_mesh_weak.c.obj
 .debug_ranges  0x000008f8       0xb8 examples/enocean_switch/CMakeFiles/enocean_switch_nrf52832_xxAA_s132_6.0.0.dir/__/common/src/app_error_weak.c.obj
 .debug_ranges  0x000009b0       0x10 examples/enocean_switch/CMakeFiles/enocean_switch_nrf52832_xxAA_s132_6.0.0.dir/__/common/src/assertion_handler_weak.c.obj
 .debug_ranges  0x000009c0       0x20 examples/enocean_switch/CMakeFiles/enocean_switch_nrf52832_xxAA_s132_6.0.0.dir/__/__/mesh/core/src/nrf_mesh_configure.c.obj
 .debug_ranges  0x000009e0       0x48 examples/enocean_switch/CMakeFiles/enocean_switch_nrf52832_xxAA_s132_6.0.0.dir/__/__/mesh/core/src/msg_cache.c.obj
 .debug_ranges  0x00000a28      0x5d0 examples/enocean_switch/CMakeFiles/enocean_switch_nrf52832_xxAA_s132_6.0.0.dir/__/__/mesh/core/src/transport.c.obj
 .debug_ranges  0x00000ff8       0x50 examples/enocean_switch/CMakeFiles/enocean_switch_nrf52832_xxAA_s132_6.0.0.dir/__/__/mesh/core/src/event.c.obj
 .debug_ranges  0x00001048      0x128 examples/enocean_switch/CMakeFiles/enocean_switch_nrf52832_xxAA_s132_6.0.0.dir/__/__/mesh/core/src/packet_buffer.c.obj
 .debug_ranges  0x00001170      0x230 examples/enocean_switch/CMakeFiles/enocean_switch_nrf52832_xxAA_s132_6.0.0.dir/__/__/mesh/core/src/flash_manager_defrag.c.obj
 .debug_ranges  0x000013a0       0x68 examples/enocean_switch/CMakeFiles/enocean_switch_nrf52832_xxAA_s132_6.0.0.dir/__/__/mesh/core/src/fifo.c.obj
 .debug_ranges  0x00001408       0x38 examples/enocean_switch/CMakeFiles/enocean_switch_nrf52832_xxAA_s132_6.0.0.dir/__/__/mesh/core/src/nrf_flash.c.obj
 .debug_ranges  0x00001440       0xe0 examples/enocean_switch/CMakeFiles/enocean_switch_nrf52832_xxAA_s132_6.0.0.dir/__/__/mesh/core/src/packet_mgr.c.obj
 .debug_ranges  0x00001520      0x1f8 examples/enocean_switch/CMakeFiles/enocean_switch_nrf52832_xxAA_s132_6.0.0.dir/__/__/mesh/core/src/net_state.c.obj
 .debug_ranges  0x00001718      0x1c8 examples/enocean_switch/CMakeFiles/enocean_switch_nrf52832_xxAA_s132_6.0.0.dir/__/__/mesh/core/src/mesh_flash.c.obj
 .debug_ranges  0x000018e0       0x20 examples/enocean_switch/CMakeFiles/enocean_switch_nrf52832_xxAA_s132_6.0.0.dir/__/__/mesh/core/src/nrf_mesh_utils.c.obj
 .debug_ranges  0x00001900       0xe8 examples/enocean_switch/CMakeFiles/enocean_switch_nrf52832_xxAA_s132_6.0.0.dir/__/__/mesh/core/src/nrf_mesh.c.obj
 .debug_ranges  0x000019e8       0x28 examples/enocean_switch/CMakeFiles/enocean_switch_nrf52832_xxAA_s132_6.0.0.dir/__/__/mesh/core/src/queue.c.obj
 .debug_ranges  0x00001a10       0x28 examples/enocean_switch/CMakeFiles/enocean_switch_nrf52832_xxAA_s132_6.0.0.dir/__/__/mesh/core/src/hal.c.obj
 .debug_ranges  0x00001a38      0x120 examples/enocean_switch/CMakeFiles/enocean_switch_nrf52832_xxAA_s132_6.0.0.dir/__/__/mesh/core/src/aes_cmac.c.obj
 .debug_ranges  0x00001b58       0xf0 examples/enocean_switch/CMakeFiles/enocean_switch_nrf52832_xxAA_s132_6.0.0.dir/__/__/mesh/core/src/timer_scheduler.c.obj
 .debug_ranges  0x00001c48       0xd8 examples/enocean_switch/CMakeFiles/enocean_switch_nrf52832_xxAA_s132_6.0.0.dir/__/__/mesh/core/src/timer.c.obj
 .debug_ranges  0x00001d20       0x20 examples/enocean_switch/CMakeFiles/enocean_switch_nrf52832_xxAA_s132_6.0.0.dir/__/__/mesh/core/src/ticker.c.obj
 .debug_ranges  0x00001d40       0x30 examples/enocean_switch/CMakeFiles/enocean_switch_nrf52832_xxAA_s132_6.0.0.dir/__/__/mesh/core/src/rand.c.obj
 .debug_ranges  0x00001d70       0x18 examples/enocean_switch/CMakeFiles/enocean_switch_nrf52832_xxAA_s132_6.0.0.dir/__/__/mesh/core/src/nrf_mesh_opt.c.obj
 .debug_ranges  0x00001d88      0x168 examples/enocean_switch/CMakeFiles/enocean_switch_nrf52832_xxAA_s132_6.0.0.dir/__/__/mesh/core/src/timeslot.c.obj
 .debug_ranges  0x00001ef0       0xf8 examples/enocean_switch/CMakeFiles/enocean_switch_nrf52832_xxAA_s132_6.0.0.dir/__/__/mesh/core/src/bearer_event.c.obj
 .debug_ranges  0x00001fe8       0xb8 examples/enocean_switch/CMakeFiles/enocean_switch_nrf52832_xxAA_s132_6.0.0.dir/__/__/mesh/core/src/enc.c.obj
 .debug_ranges  0x000020a0       0xe8 examples/enocean_switch/CMakeFiles/enocean_switch_nrf52832_xxAA_s132_6.0.0.dir/__/__/mesh/core/src/network.c.obj
 .debug_ranges  0x00002188      0x160 examples/enocean_switch/CMakeFiles/enocean_switch_nrf52832_xxAA_s132_6.0.0.dir/__/__/mesh/core/src/net_packet.c.obj
 .debug_ranges  0x000022e8       0x50 examples/enocean_switch/CMakeFiles/enocean_switch_nrf52832_xxAA_s132_6.0.0.dir/__/__/mesh/core/src/msqueue.c.obj
 .debug_ranges  0x00002338       0x30 examples/enocean_switch/CMakeFiles/enocean_switch_nrf52832_xxAA_s132_6.0.0.dir/__/__/mesh/core/src/nrf_mesh_keygen.c.obj
 .debug_ranges  0x00002368       0x78 examples/enocean_switch/CMakeFiles/enocean_switch_nrf52832_xxAA_s132_6.0.0.dir/__/__/mesh/core/src/list.c.obj
 .debug_ranges  0x000023e0       0x38 examples/enocean_switch/CMakeFiles/enocean_switch_nrf52832_xxAA_s132_6.0.0.dir/__/__/mesh/core/src/log.c.obj
 .debug_ranges  0x00002418      0x388 examples/enocean_switch/CMakeFiles/enocean_switch_nrf52832_xxAA_s132_6.0.0.dir/__/__/mesh/core/src/flash_manager.c.obj
 .debug_ranges  0x000027a0       0xa0 examples/enocean_switch/CMakeFiles/enocean_switch_nrf52832_xxAA_s132_6.0.0.dir/__/__/mesh/core/src/ccm_soft.c.obj
 .debug_ranges  0x00002840       0x30 examples/enocean_switch/CMakeFiles/enocean_switch_nrf52832_xxAA_s132_6.0.0.dir/__/__/mesh/core/src/replay_cache.c.obj
 .debug_ranges  0x00002870       0x90 examples/enocean_switch/CMakeFiles/enocean_switch_nrf52832_xxAA_s132_6.0.0.dir/__/__/mesh/core/src/beacon.c.obj
 .debug_ranges  0x00002900       0x10 examples/enocean_switch/CMakeFiles/enocean_switch_nrf52832_xxAA_s132_6.0.0.dir/__/__/mesh/core/src/flash_manager_internal.c.obj
 .debug_ranges  0x00002910       0xf8 examples/enocean_switch/CMakeFiles/enocean_switch_nrf52832_xxAA_s132_6.0.0.dir/__/__/mesh/core/src/core_tx.c.obj
 .debug_ranges  0x00002a08       0xc0 examples/enocean_switch/CMakeFiles/enocean_switch_nrf52832_xxAA_s132_6.0.0.dir/__/__/mesh/core/src/heartbeat.c.obj
 .debug_ranges  0x00002ac8      0x170 examples/enocean_switch/CMakeFiles/enocean_switch_nrf52832_xxAA_s132_6.0.0.dir/__/__/mesh/core/src/net_beacon.c.obj
 .debug_ranges  0x00002c38       0x60 examples/enocean_switch/CMakeFiles/enocean_switch_nrf52832_xxAA_s132_6.0.0.dir/__/__/mesh/core/src/core_tx_adv.c.obj
 .debug_ranges  0x00002c98      0x110 examples/enocean_switch/CMakeFiles/enocean_switch_nrf52832_xxAA_s132_6.0.0.dir/__/__/mesh/bearer/src/ad_listener.c.obj
 .debug_ranges  0x00002da8       0xd0 examples/enocean_switch/CMakeFiles/enocean_switch_nrf52832_xxAA_s132_6.0.0.dir/__/__/mesh/bearer/src/ad_type_filter.c.obj
 .debug_ranges  0x00002e78      0x248 examples/enocean_switch/CMakeFiles/enocean_switch_nrf52832_xxAA_s132_6.0.0.dir/__/__/mesh/bearer/src/advertiser.c.obj
 .debug_ranges  0x000030c0      0x180 examples/enocean_switch/CMakeFiles/enocean_switch_nrf52832_xxAA_s132_6.0.0.dir/__/__/mesh/bearer/src/bearer_handler.c.obj
 .debug_ranges  0x00003240       0xc0 examples/enocean_switch/CMakeFiles/enocean_switch_nrf52832_xxAA_s132_6.0.0.dir/__/__/mesh/bearer/src/broadcast.c.obj
 .debug_ranges  0x00003300       0x48 examples/enocean_switch/CMakeFiles/enocean_switch_nrf52832_xxAA_s132_6.0.0.dir/__/__/mesh/bearer/src/filter_engine.c.obj
 .debug_ranges  0x00003348       0x48 examples/enocean_switch/CMakeFiles/enocean_switch_nrf52832_xxAA_s132_6.0.0.dir/__/__/mesh/bearer/src/radio_config.c.obj
 .debug_ranges  0x00003390      0x1a8 examples/enocean_switch/CMakeFiles/enocean_switch_nrf52832_xxAA_s132_6.0.0.dir/__/__/mesh/bearer/src/scanner.c.obj
 .debug_ranges  0x00003538       0xb8 examples/enocean_switch/CMakeFiles/enocean_switch_nrf52832_xxAA_s132_6.0.0.dir/__/__/mesh/bearer/src/mesh_pa_lna.c.obj
 .debug_ranges  0x000035f0       0x80 examples/enocean_switch/CMakeFiles/enocean_switch_nrf52832_xxAA_s132_6.0.0.dir/__/__/models/simple_on_off/src/simple_on_off_client.c.obj
 .debug_ranges  0x00003670       0xb8 examples/enocean_switch/CMakeFiles/enocean_switch_nrf52832_xxAA_s132_6.0.0.dir/__/__/models/config/src/composition_data.c.obj
 .debug_ranges  0x00003728      0x790 examples/enocean_switch/CMakeFiles/enocean_switch_nrf52832_xxAA_s132_6.0.0.dir/__/__/models/config/src/config_server.c.obj
 .debug_ranges  0x00003eb8       0x10 examples/enocean_switch/CMakeFiles/enocean_switch_nrf52832_xxAA_s132_6.0.0.dir/__/__/models/config/src/packed_index_list.c.obj
 .debug_ranges  0x00003ec8      0x260 examples/enocean_switch/CMakeFiles/enocean_switch_nrf52832_xxAA_s132_6.0.0.dir/__/__/models/health/src/health_server.c.obj
 .debug_ranges  0x00004128      0x118 examples/enocean_switch/CMakeFiles/enocean_switch_nrf52832_xxAA_s132_6.0.0.dir/__/__/mesh/access/src/access_publish.c.obj
 .debug_ranges  0x00004240      0x7f0 examples/enocean_switch/CMakeFiles/enocean_switch_nrf52832_xxAA_s132_6.0.0.dir/__/__/mesh/access/src/access.c.obj
 .debug_ranges  0x00004a30      0x160 examples/enocean_switch/CMakeFiles/enocean_switch_nrf52832_xxAA_s132_6.0.0.dir/__/__/mesh/access/src/access_reliable.c.obj
 .debug_ranges  0x00004b90       0x28 examples/enocean_switch/CMakeFiles/enocean_switch_nrf52832_xxAA_s132_6.0.0.dir/__/__/mesh/access/src/access_loopback.c.obj
 .debug_ranges  0x00004bb8      0x848 examples/enocean_switch/CMakeFiles/enocean_switch_nrf52832_xxAA_s132_6.0.0.dir/__/__/mesh/access/src/device_state_manager.c.obj
 .debug_ranges  0x00005400      0x148 examples/enocean_switch/CMakeFiles/enocean_switch_nrf52832_xxAA_s132_6.0.0.dir/__/__/mesh/prov/src/prov_provisionee.c.obj
 .debug_ranges  0x00005548      0x130 examples/enocean_switch/CMakeFiles/enocean_switch_nrf52832_xxAA_s132_6.0.0.dir/__/__/mesh/prov/src/nrf_mesh_prov.c.obj
 .debug_ranges  0x00005678       0x70 examples/enocean_switch/CMakeFiles/enocean_switch_nrf52832_xxAA_s132_6.0.0.dir/__/__/mesh/prov/src/provisioning.c.obj
 .debug_ranges  0x000056e8       0x40 examples/enocean_switch/CMakeFiles/enocean_switch_nrf52832_xxAA_s132_6.0.0.dir/__/__/mesh/prov/src/prov_beacon.c.obj
 .debug_ranges  0x00005728       0xb8 examples/enocean_switch/CMakeFiles/enocean_switch_nrf52832_xxAA_s132_6.0.0.dir/__/__/mesh/prov/src/prov_utils.c.obj
 .debug_ranges  0x000057e0      0x498 examples/enocean_switch/CMakeFiles/enocean_switch_nrf52832_xxAA_s132_6.0.0.dir/__/__/mesh/prov/src/prov_bearer_adv.c.obj
 .debug_ranges  0x00005c78       0x28 examples/enocean_switch/CMakeFiles/enocean_switch_nrf52832_xxAA_s132_6.0.0.dir/C_/b/nRF5_SDK_15.0.0_a53641a/modules/nrfx/mdk/system_nrf52.c.obj
 .debug_ranges  0x00005ca0       0x18 examples/enocean_switch/CMakeFiles/enocean_switch_nrf52832_xxAA_s132_6.0.0.dir/C_/b/nRF5_SDK_15.0.0_a53641a/components/libraries/util/app_error.c.obj
 .debug_ranges  0x00005cb8       0x38 examples/enocean_switch/CMakeFiles/enocean_switch_nrf52832_xxAA_s132_6.0.0.dir/C_/b/nRF5_SDK_15.0.0_a53641a/components/libraries/util/app_util_platform.c.obj
 .debug_ranges  0x00005cf0      0x390 examples/enocean_switch/CMakeFiles/enocean_switch_nrf52832_xxAA_s132_6.0.0.dir/C_/b/nRF5_SDK_15.0.0_a53641a/components/libraries/timer/app_timer.c.obj
 .debug_ranges  0x00006080       0x10 examples/enocean_switch/CMakeFiles/enocean_switch_nrf52832_xxAA_s132_6.0.0.dir/C_/b/nRF5_SDK_15.0.0_a53641a/components/libraries/util/app_error_handler_gcc.c.obj
 .debug_ranges  0x00006090      0x130 external/rtt/librtt_nrf52832_xxAA.a(SEGGER_RTT.c.obj)
 .debug_ranges  0x000061c0       0x48 external/rtt/librtt_nrf52832_xxAA.a(SEGGER_RTT_printf.c.obj)
 .debug_ranges  0x00006208      0x2e8 external/micro-ecc/libuECC_nrf52832_xxAA.a(uECC.c.obj)

.debug_line     0x00000000    0x1921e
 .debug_line    0x00000000      0xc50 examples/enocean_switch/CMakeFiles/enocean_switch_nrf52832_xxAA_s132_6.0.0.dir/src/main.c.obj
 .debug_line    0x00000c50      0x414 examples/enocean_switch/CMakeFiles/enocean_switch_nrf52832_xxAA_s132_6.0.0.dir/src/enocean.c.obj
 .debug_line    0x00001064      0x587 examples/enocean_switch/CMakeFiles/enocean_switch_nrf52832_xxAA_s132_6.0.0.dir/src/flash_helper.c.obj
 .debug_line    0x000015eb      0x49d examples/enocean_switch/CMakeFiles/enocean_switch_nrf52832_xxAA_s132_6.0.0.dir/__/__/mesh/stack/src/mesh_stack.c.obj
 .debug_line    0x00001a88      0x428 examples/enocean_switch/CMakeFiles/enocean_switch_nrf52832_xxAA_s132_6.0.0.dir/__/common/src/mesh_softdevice_init.c.obj
 .debug_line    0x00001eb0      0x4dc examples/enocean_switch/CMakeFiles/enocean_switch_nrf52832_xxAA_s132_6.0.0.dir/__/common/src/mesh_provisionee.c.obj
 .debug_line    0x0000238c      0x382 examples/enocean_switch/CMakeFiles/enocean_switch_nrf52832_xxAA_s132_6.0.0.dir/__/common/src/rtt_input.c.obj
 .debug_line    0x0000270e      0x437 examples/enocean_switch/CMakeFiles/enocean_switch_nrf52832_xxAA_s132_6.0.0.dir/__/common/src/simple_hal.c.obj
 .debug_line    0x00002b45      0x1e2 examples/enocean_switch/CMakeFiles/enocean_switch_nrf52832_xxAA_s132_6.0.0.dir/__/nrf_mesh_weak.c.obj
 .debug_line    0x00002d27      0x46d examples/enocean_switch/CMakeFiles/enocean_switch_nrf52832_xxAA_s132_6.0.0.dir/__/common/src/app_error_weak.c.obj
 .debug_line    0x00003194      0x228 examples/enocean_switch/CMakeFiles/enocean_switch_nrf52832_xxAA_s132_6.0.0.dir/__/common/src/assertion_handler_weak.c.obj
 .debug_line    0x000033bc      0x21f examples/enocean_switch/CMakeFiles/enocean_switch_nrf52832_xxAA_s132_6.0.0.dir/__/__/mesh/core/src/nrf_mesh_configure.c.obj
 .debug_line    0x000035db      0x255 examples/enocean_switch/CMakeFiles/enocean_switch_nrf52832_xxAA_s132_6.0.0.dir/__/__/mesh/core/src/msg_cache.c.obj
 .debug_line    0x00003830      0xcaf examples/enocean_switch/CMakeFiles/enocean_switch_nrf52832_xxAA_s132_6.0.0.dir/__/__/mesh/core/src/transport.c.obj
 .debug_line    0x000044df      0x2f3 examples/enocean_switch/CMakeFiles/enocean_switch_nrf52832_xxAA_s132_6.0.0.dir/__/__/mesh/core/src/event.c.obj
 .debug_line    0x000047d2      0x4a9 examples/enocean_switch/CMakeFiles/enocean_switch_nrf52832_xxAA_s132_6.0.0.dir/__/__/mesh/core/src/packet_buffer.c.obj
 .debug_line    0x00004c7b      0x6cb examples/enocean_switch/CMakeFiles/enocean_switch_nrf52832_xxAA_s132_6.0.0.dir/__/__/mesh/core/src/flash_manager_defrag.c.obj
 .debug_line    0x00005346      0x36c examples/enocean_switch/CMakeFiles/enocean_switch_nrf52832_xxAA_s132_6.0.0.dir/__/__/mesh/core/src/fifo.c.obj
 .debug_line    0x000056b2      0x230 examples/enocean_switch/CMakeFiles/enocean_switch_nrf52832_xxAA_s132_6.0.0.dir/__/__/mesh/core/src/nrf_flash.c.obj
 .debug_line    0x000058e2      0x40b examples/enocean_switch/CMakeFiles/enocean_switch_nrf52832_xxAA_s132_6.0.0.dir/__/__/mesh/core/src/packet_mgr.c.obj
 .debug_line    0x00005ced      0x6b4 examples/enocean_switch/CMakeFiles/enocean_switch_nrf52832_xxAA_s132_6.0.0.dir/__/__/mesh/core/src/net_state.c.obj
 .debug_line    0x000063a1      0x508 examples/enocean_switch/CMakeFiles/enocean_switch_nrf52832_xxAA_s132_6.0.0.dir/__/__/mesh/core/src/mesh_flash.c.obj
 .debug_line    0x000068a9      0x249 examples/enocean_switch/CMakeFiles/enocean_switch_nrf52832_xxAA_s132_6.0.0.dir/__/__/mesh/core/src/nrf_mesh_utils.c.obj
 .debug_line    0x00006af2      0x758 examples/enocean_switch/CMakeFiles/enocean_switch_nrf52832_xxAA_s132_6.0.0.dir/__/__/mesh/core/src/nrf_mesh.c.obj
 .debug_line    0x0000724a      0x281 examples/enocean_switch/CMakeFiles/enocean_switch_nrf52832_xxAA_s132_6.0.0.dir/__/__/mesh/core/src/queue.c.obj
 .debug_line    0x000074cb      0x20d examples/enocean_switch/CMakeFiles/enocean_switch_nrf52832_xxAA_s132_6.0.0.dir/__/__/mesh/core/src/hal.c.obj
 .debug_line    0x000076d8      0x307 examples/enocean_switch/CMakeFiles/enocean_switch_nrf52832_xxAA_s132_6.0.0.dir/__/__/mesh/core/src/aes_cmac.c.obj
 .debug_line    0x000079df      0x41f examples/enocean_switch/CMakeFiles/enocean_switch_nrf52832_xxAA_s132_6.0.0.dir/__/__/mesh/core/src/timer_scheduler.c.obj
 .debug_line    0x00007dfe      0x39f examples/enocean_switch/CMakeFiles/enocean_switch_nrf52832_xxAA_s132_6.0.0.dir/__/__/mesh/core/src/timer.c.obj
 .debug_line    0x0000819d      0x124 examples/enocean_switch/CMakeFiles/enocean_switch_nrf52832_xxAA_s132_6.0.0.dir/__/__/mesh/core/src/ticker.c.obj
 .debug_line    0x000082c1      0x266 examples/enocean_switch/CMakeFiles/enocean_switch_nrf52832_xxAA_s132_6.0.0.dir/__/__/mesh/core/src/rand.c.obj
 .debug_line    0x00008527      0x257 examples/enocean_switch/CMakeFiles/enocean_switch_nrf52832_xxAA_s132_6.0.0.dir/__/__/mesh/core/src/nrf_mesh_opt.c.obj
 .debug_line    0x0000877e      0x548 examples/enocean_switch/CMakeFiles/enocean_switch_nrf52832_xxAA_s132_6.0.0.dir/__/__/mesh/core/src/timeslot.c.obj
 .debug_line    0x00008cc6      0x507 examples/enocean_switch/CMakeFiles/enocean_switch_nrf52832_xxAA_s132_6.0.0.dir/__/__/mesh/core/src/bearer_event.c.obj
 .debug_line    0x000091cd      0x487 examples/enocean_switch/CMakeFiles/enocean_switch_nrf52832_xxAA_s132_6.0.0.dir/__/__/mesh/core/src/enc.c.obj
 .debug_line    0x00009654      0x552 examples/enocean_switch/CMakeFiles/enocean_switch_nrf52832_xxAA_s132_6.0.0.dir/__/__/mesh/core/src/network.c.obj
 .debug_line    0x00009ba6      0x54e examples/enocean_switch/CMakeFiles/enocean_switch_nrf52832_xxAA_s132_6.0.0.dir/__/__/mesh/core/src/net_packet.c.obj
 .debug_line    0x0000a0f4      0x2f0 examples/enocean_switch/CMakeFiles/enocean_switch_nrf52832_xxAA_s132_6.0.0.dir/__/__/mesh/core/src/msqueue.c.obj
 .debug_line    0x0000a3e4      0x226 examples/enocean_switch/CMakeFiles/enocean_switch_nrf52832_xxAA_s132_6.0.0.dir/__/__/mesh/core/src/nrf_mesh_keygen.c.obj
 .debug_line    0x0000a60a      0x2d0 examples/enocean_switch/CMakeFiles/enocean_switch_nrf52832_xxAA_s132_6.0.0.dir/__/__/mesh/core/src/list.c.obj
 .debug_line    0x0000a8da      0x275 examples/enocean_switch/CMakeFiles/enocean_switch_nrf52832_xxAA_s132_6.0.0.dir/__/__/mesh/core/src/log.c.obj
 .debug_line    0x0000ab4f      0x8f6 examples/enocean_switch/CMakeFiles/enocean_switch_nrf52832_xxAA_s132_6.0.0.dir/__/__/mesh/core/src/flash_manager.c.obj
 .debug_line    0x0000b445      0x3a2 examples/enocean_switch/CMakeFiles/enocean_switch_nrf52832_xxAA_s132_6.0.0.dir/__/__/mesh/core/src/ccm_soft.c.obj
 .debug_line    0x0000b7e7      0x1cd examples/enocean_switch/CMakeFiles/enocean_switch_nrf52832_xxAA_s132_6.0.0.dir/__/__/mesh/core/src/replay_cache.c.obj
 .debug_line    0x0000b9b4      0x47e examples/enocean_switch/CMakeFiles/enocean_switch_nrf52832_xxAA_s132_6.0.0.dir/__/__/mesh/core/src/beacon.c.obj
 .debug_line    0x0000be32      0x269 examples/enocean_switch/CMakeFiles/enocean_switch_nrf52832_xxAA_s132_6.0.0.dir/__/__/mesh/core/src/flash_manager_internal.c.obj
 .debug_line    0x0000c09b      0x396 examples/enocean_switch/CMakeFiles/enocean_switch_nrf52832_xxAA_s132_6.0.0.dir/__/__/mesh/core/src/core_tx.c.obj
 .debug_line    0x0000c431      0x5ab examples/enocean_switch/CMakeFiles/enocean_switch_nrf52832_xxAA_s132_6.0.0.dir/__/__/mesh/core/src/heartbeat.c.obj
 .debug_line    0x0000c9dc      0x5e8 examples/enocean_switch/CMakeFiles/enocean_switch_nrf52832_xxAA_s132_6.0.0.dir/__/__/mesh/core/src/net_beacon.c.obj
 .debug_line    0x0000cfc4      0x4ce examples/enocean_switch/CMakeFiles/enocean_switch_nrf52832_xxAA_s132_6.0.0.dir/__/__/mesh/core/src/core_tx_adv.c.obj
 .debug_line    0x0000d492      0x32b examples/enocean_switch/CMakeFiles/enocean_switch_nrf52832_xxAA_s132_6.0.0.dir/__/__/mesh/bearer/src/ad_listener.c.obj
 .debug_line    0x0000d7bd      0x3dc examples/enocean_switch/CMakeFiles/enocean_switch_nrf52832_xxAA_s132_6.0.0.dir/__/__/mesh/bearer/src/ad_type_filter.c.obj
 .debug_line    0x0000db99      0x6e1 examples/enocean_switch/CMakeFiles/enocean_switch_nrf52832_xxAA_s132_6.0.0.dir/__/__/mesh/bearer/src/advertiser.c.obj
 .debug_line    0x0000e27a      0x599 examples/enocean_switch/CMakeFiles/enocean_switch_nrf52832_xxAA_s132_6.0.0.dir/__/__/mesh/bearer/src/bearer_handler.c.obj
 .debug_line    0x0000e813      0x36a examples/enocean_switch/CMakeFiles/enocean_switch_nrf52832_xxAA_s132_6.0.0.dir/__/__/mesh/bearer/src/broadcast.c.obj
 .debug_line    0x0000eb7d      0x31a examples/enocean_switch/CMakeFiles/enocean_switch_nrf52832_xxAA_s132_6.0.0.dir/__/__/mesh/bearer/src/filter_engine.c.obj
 .debug_line    0x0000ee97      0x287 examples/enocean_switch/CMakeFiles/enocean_switch_nrf52832_xxAA_s132_6.0.0.dir/__/__/mesh/bearer/src/radio_config.c.obj
 .debug_line    0x0000f11e      0x6c8 examples/enocean_switch/CMakeFiles/enocean_switch_nrf52832_xxAA_s132_6.0.0.dir/__/__/mesh/bearer/src/scanner.c.obj
 .debug_line    0x0000f7e6      0x314 examples/enocean_switch/CMakeFiles/enocean_switch_nrf52832_xxAA_s132_6.0.0.dir/__/__/mesh/bearer/src/mesh_pa_lna.c.obj
 .debug_line    0x0000fafa      0x45c examples/enocean_switch/CMakeFiles/enocean_switch_nrf52832_xxAA_s132_6.0.0.dir/__/__/models/simple_on_off/src/simple_on_off_client.c.obj
 .debug_line    0x0000ff56      0x304 examples/enocean_switch/CMakeFiles/enocean_switch_nrf52832_xxAA_s132_6.0.0.dir/__/__/models/config/src/composition_data.c.obj
 .debug_line    0x0001025a     0x136f examples/enocean_switch/CMakeFiles/enocean_switch_nrf52832_xxAA_s132_6.0.0.dir/__/__/models/config/src/config_server.c.obj
 .debug_line    0x000115c9       0xef examples/enocean_switch/CMakeFiles/enocean_switch_nrf52832_xxAA_s132_6.0.0.dir/__/__/models/config/src/packed_index_list.c.obj
 .debug_line    0x000116b8      0x67a examples/enocean_switch/CMakeFiles/enocean_switch_nrf52832_xxAA_s132_6.0.0.dir/__/__/models/health/src/health_server.c.obj
 .debug_line    0x00011d32      0x40e examples/enocean_switch/CMakeFiles/enocean_switch_nrf52832_xxAA_s132_6.0.0.dir/__/__/mesh/access/src/access_publish.c.obj
 .debug_line    0x00012140      0xf41 examples/enocean_switch/CMakeFiles/enocean_switch_nrf52832_xxAA_s132_6.0.0.dir/__/__/mesh/access/src/access.c.obj
 .debug_line    0x00013081      0x513 examples/enocean_switch/CMakeFiles/enocean_switch_nrf52832_xxAA_s132_6.0.0.dir/__/__/mesh/access/src/access_reliable.c.obj
 .debug_line    0x00013594      0x361 examples/enocean_switch/CMakeFiles/enocean_switch_nrf52832_xxAA_s132_6.0.0.dir/__/__/mesh/access/src/access_loopback.c.obj
 .debug_line    0x000138f5     0x1446 examples/enocean_switch/CMakeFiles/enocean_switch_nrf52832_xxAA_s132_6.0.0.dir/__/__/mesh/access/src/device_state_manager.c.obj
 .debug_line    0x00014d3b      0x61b examples/enocean_switch/CMakeFiles/enocean_switch_nrf52832_xxAA_s132_6.0.0.dir/__/__/mesh/prov/src/prov_provisionee.c.obj
 .debug_line    0x00015356      0x54e examples/enocean_switch/CMakeFiles/enocean_switch_nrf52832_xxAA_s132_6.0.0.dir/__/__/mesh/prov/src/nrf_mesh_prov.c.obj
 .debug_line    0x000158a4      0x3ae examples/enocean_switch/CMakeFiles/enocean_switch_nrf52832_xxAA_s132_6.0.0.dir/__/__/mesh/prov/src/provisioning.c.obj
 .debug_line    0x00015c52      0x44e examples/enocean_switch/CMakeFiles/enocean_switch_nrf52832_xxAA_s132_6.0.0.dir/__/__/mesh/prov/src/prov_beacon.c.obj
 .debug_line    0x000160a0      0x493 examples/enocean_switch/CMakeFiles/enocean_switch_nrf52832_xxAA_s132_6.0.0.dir/__/__/mesh/prov/src/prov_utils.c.obj
 .debug_line    0x00016533      0xb15 examples/enocean_switch/CMakeFiles/enocean_switch_nrf52832_xxAA_s132_6.0.0.dir/__/__/mesh/prov/src/prov_bearer_adv.c.obj
 .debug_line    0x00017048      0x243 examples/enocean_switch/CMakeFiles/enocean_switch_nrf52832_xxAA_s132_6.0.0.dir/C_/b/nRF5_SDK_15.0.0_a53641a/modules/nrfx/mdk/system_nrf52.c.obj
 .debug_line    0x0001728b      0x260 examples/enocean_switch/CMakeFiles/enocean_switch_nrf52832_xxAA_s132_6.0.0.dir/C_/b/nRF5_SDK_15.0.0_a53641a/components/libraries/util/app_error.c.obj
 .debug_line    0x000174eb      0x334 examples/enocean_switch/CMakeFiles/enocean_switch_nrf52832_xxAA_s132_6.0.0.dir/C_/b/nRF5_SDK_15.0.0_a53641a/components/libraries/util/app_util_platform.c.obj
 .debug_line    0x0001781f      0x6b5 examples/enocean_switch/CMakeFiles/enocean_switch_nrf52832_xxAA_s132_6.0.0.dir/C_/b/nRF5_SDK_15.0.0_a53641a/components/libraries/timer/app_timer.c.obj
 .debug_line    0x00017ed4      0x205 examples/enocean_switch/CMakeFiles/enocean_switch_nrf52832_xxAA_s132_6.0.0.dir/C_/b/nRF5_SDK_15.0.0_a53641a/components/libraries/util/app_error_handler_gcc.c.obj
 .debug_line    0x000180d9      0x4c3 external/rtt/librtt_nrf52832_xxAA.a(SEGGER_RTT.c.obj)
 .debug_line    0x0001859c      0x285 external/rtt/librtt_nrf52832_xxAA.a(SEGGER_RTT_printf.c.obj)
 .debug_line    0x00018821      0x9fd external/micro-ecc/libuECC_nrf52832_xxAA.a(uECC.c.obj)

.debug_str      0x00000000    0x14735
 .debug_str     0x00000000     0x317e examples/enocean_switch/CMakeFiles/enocean_switch_nrf52832_xxAA_s132_6.0.0.dir/src/main.c.obj
                               0x3628 (size before relaxing)
 .debug_str     0x0000317e      0x2f9 examples/enocean_switch/CMakeFiles/enocean_switch_nrf52832_xxAA_s132_6.0.0.dir/src/enocean.c.obj
                                0xee9 (size before relaxing)
 .debug_str     0x00003477      0x4e2 examples/enocean_switch/CMakeFiles/enocean_switch_nrf52832_xxAA_s132_6.0.0.dir/src/flash_helper.c.obj
                                0xd4f (size before relaxing)
 .debug_str     0x00003959      0x23a examples/enocean_switch/CMakeFiles/enocean_switch_nrf52832_xxAA_s132_6.0.0.dir/__/__/mesh/stack/src/mesh_stack.c.obj
                               0x2746 (size before relaxing)
 .debug_str     0x00003b93      0x6b8 examples/enocean_switch/CMakeFiles/enocean_switch_nrf52832_xxAA_s132_6.0.0.dir/__/common/src/mesh_softdevice_init.c.obj
                               0x155c (size before relaxing)
 .debug_str     0x0000424b     0x180b examples/enocean_switch/CMakeFiles/enocean_switch_nrf52832_xxAA_s132_6.0.0.dir/__/common/src/mesh_provisionee.c.obj
                               0x246e (size before relaxing)
 .debug_str     0x00005a56      0x1c9 examples/enocean_switch/CMakeFiles/enocean_switch_nrf52832_xxAA_s132_6.0.0.dir/__/common/src/rtt_input.c.obj
                                0x86a (size before relaxing)
 .debug_str     0x00005c1f      0x1d0 examples/enocean_switch/CMakeFiles/enocean_switch_nrf52832_xxAA_s132_6.0.0.dir/__/common/src/simple_hal.c.obj
                                0xd8b (size before relaxing)
 .debug_str     0x00005def       0x3c examples/enocean_switch/CMakeFiles/enocean_switch_nrf52832_xxAA_s132_6.0.0.dir/__/nrf_mesh_weak.c.obj
                                0x61c (size before relaxing)
 .debug_str     0x00005e2b       0xa0 examples/enocean_switch/CMakeFiles/enocean_switch_nrf52832_xxAA_s132_6.0.0.dir/__/common/src/app_error_weak.c.obj
                                0x85d (size before relaxing)
 .debug_str     0x00005ecb       0x30 examples/enocean_switch/CMakeFiles/enocean_switch_nrf52832_xxAA_s132_6.0.0.dir/__/common/src/assertion_handler_weak.c.obj
                                0x672 (size before relaxing)
 .debug_str     0x00005efb      0x136 examples/enocean_switch/CMakeFiles/enocean_switch_nrf52832_xxAA_s132_6.0.0.dir/__/__/mesh/core/src/nrf_mesh_configure.c.obj
                                0x77e (size before relaxing)
 .debug_str     0x00006031       0xbb examples/enocean_switch/CMakeFiles/enocean_switch_nrf52832_xxAA_s132_6.0.0.dir/__/__/mesh/core/src/msg_cache.c.obj
                                0x6b9 (size before relaxing)
 .debug_str     0x000060ec     0x165a examples/enocean_switch/CMakeFiles/enocean_switch_nrf52832_xxAA_s132_6.0.0.dir/__/__/mesh/core/src/transport.c.obj
                               0x3148 (size before relaxing)
 .debug_str     0x00007746       0xfd examples/enocean_switch/CMakeFiles/enocean_switch_nrf52832_xxAA_s132_6.0.0.dir/__/__/mesh/core/src/event.c.obj
                               0x1753 (size before relaxing)
 .debug_str     0x00007843      0x30d examples/enocean_switch/CMakeFiles/enocean_switch_nrf52832_xxAA_s132_6.0.0.dir/__/__/mesh/core/src/packet_buffer.c.obj
                                0xaac (size before relaxing)
 .debug_str     0x00007b50      0x644 examples/enocean_switch/CMakeFiles/enocean_switch_nrf52832_xxAA_s132_6.0.0.dir/__/__/mesh/core/src/flash_manager_defrag.c.obj
                               0x1104 (size before relaxing)
 .debug_str     0x00008194       0xa5 examples/enocean_switch/CMakeFiles/enocean_switch_nrf52832_xxAA_s132_6.0.0.dir/__/__/mesh/core/src/fifo.c.obj
                                0x6db (size before relaxing)
 .debug_str     0x00008239       0xaa examples/enocean_switch/CMakeFiles/enocean_switch_nrf52832_xxAA_s132_6.0.0.dir/__/__/mesh/core/src/nrf_flash.c.obj
                                0x6bb (size before relaxing)
 .debug_str     0x000082e3      0x287 examples/enocean_switch/CMakeFiles/enocean_switch_nrf52832_xxAA_s132_6.0.0.dir/__/__/mesh/core/src/packet_mgr.c.obj
                                0x9a5 (size before relaxing)
 .debug_str     0x0000856a      0x488 examples/enocean_switch/CMakeFiles/enocean_switch_nrf52832_xxAA_s132_6.0.0.dir/__/__/mesh/core/src/net_state.c.obj
                               0x216e (size before relaxing)
 .debug_str     0x000089f2      0x387 examples/enocean_switch/CMakeFiles/enocean_switch_nrf52832_xxAA_s132_6.0.0.dir/__/__/mesh/core/src/mesh_flash.c.obj
                                0xd09 (size before relaxing)
 .debug_str     0x00008d79       0x94 examples/enocean_switch/CMakeFiles/enocean_switch_nrf52832_xxAA_s132_6.0.0.dir/__/__/mesh/core/src/nrf_mesh_utils.c.obj
                                0x751 (size before relaxing)
 .debug_str     0x00008e0d      0x5e0 examples/enocean_switch/CMakeFiles/enocean_switch_nrf52832_xxAA_s132_6.0.0.dir/__/__/mesh/core/src/nrf_mesh.c.obj
                               0x2167 (size before relaxing)
 .debug_str     0x000093ed       0x53 examples/enocean_switch/CMakeFiles/enocean_switch_nrf52832_xxAA_s132_6.0.0.dir/__/__/mesh/core/src/queue.c.obj
                                0x683 (size before relaxing)
 .debug_str     0x00009440       0xb5 examples/enocean_switch/CMakeFiles/enocean_switch_nrf52832_xxAA_s132_6.0.0.dir/__/__/mesh/core/src/hal.c.obj
                                0x749 (size before relaxing)
 .debug_str     0x000094f5      0x16e examples/enocean_switch/CMakeFiles/enocean_switch_nrf52832_xxAA_s132_6.0.0.dir/__/__/mesh/core/src/aes_cmac.c.obj
                                0xb7e (size before relaxing)
 .debug_str     0x00009663      0x146 examples/enocean_switch/CMakeFiles/enocean_switch_nrf52832_xxAA_s132_6.0.0.dir/__/__/mesh/core/src/timer_scheduler.c.obj
                                0x934 (size before relaxing)
 .debug_str     0x000097a9      0x22c examples/enocean_switch/CMakeFiles/enocean_switch_nrf52832_xxAA_s132_6.0.0.dir/__/__/mesh/core/src/timer.c.obj
                                0x869 (size before relaxing)
 .debug_str     0x000099d5       0x42 examples/enocean_switch/CMakeFiles/enocean_switch_nrf52832_xxAA_s132_6.0.0.dir/__/__/mesh/core/src/ticker.c.obj
                                0x34c (size before relaxing)
 .debug_str     0x00009a17       0xac examples/enocean_switch/CMakeFiles/enocean_switch_nrf52832_xxAA_s132_6.0.0.dir/__/__/mesh/core/src/rand.c.obj
                                0x6dd (size before relaxing)
 .debug_str     0x00009ac3       0x88 examples/enocean_switch/CMakeFiles/enocean_switch_nrf52832_xxAA_s132_6.0.0.dir/__/__/mesh/core/src/nrf_mesh_opt.c.obj
                                0x932 (size before relaxing)
 .debug_str     0x00009b4b      0x8ab examples/enocean_switch/CMakeFiles/enocean_switch_nrf52832_xxAA_s132_6.0.0.dir/__/__/mesh/core/src/timeslot.c.obj
                               0x17f6 (size before relaxing)
 .debug_str     0x0000a3f6      0x2d0 examples/enocean_switch/CMakeFiles/enocean_switch_nrf52832_xxAA_s132_6.0.0.dir/__/__/mesh/core/src/bearer_event.c.obj
                                0xeb9 (size before relaxing)
 .debug_str     0x0000a6c6      0x16e examples/enocean_switch/CMakeFiles/enocean_switch_nrf52832_xxAA_s132_6.0.0.dir/__/__/mesh/core/src/enc.c.obj
                                0xe55 (size before relaxing)
 .debug_str     0x0000a834      0x312 examples/enocean_switch/CMakeFiles/enocean_switch_nrf52832_xxAA_s132_6.0.0.dir/__/__/mesh/core/src/network.c.obj
                               0x1446 (size before relaxing)
 .debug_str     0x0000ab46      0x301 examples/enocean_switch/CMakeFiles/enocean_switch_nrf52832_xxAA_s132_6.0.0.dir/__/__/mesh/core/src/net_packet.c.obj
                                0xe86 (size before relaxing)
 .debug_str     0x0000ae47       0x53 examples/enocean_switch/CMakeFiles/enocean_switch_nrf52832_xxAA_s132_6.0.0.dir/__/__/mesh/core/src/msqueue.c.obj
                                0x6bf (size before relaxing)
 .debug_str     0x0000ae9a       0xc8 examples/enocean_switch/CMakeFiles/enocean_switch_nrf52832_xxAA_s132_6.0.0.dir/__/__/mesh/core/src/nrf_mesh_keygen.c.obj
                                0x397 (size before relaxing)
 .debug_str     0x0000af62       0x6a examples/enocean_switch/CMakeFiles/enocean_switch_nrf52832_xxAA_s132_6.0.0.dir/__/__/mesh/core/src/list.c.obj
                                0x2be (size before relaxing)
 .debug_str     0x0000afcc       0xf0 examples/enocean_switch/CMakeFiles/enocean_switch_nrf52832_xxAA_s132_6.0.0.dir/__/__/mesh/core/src/log.c.obj
                                0x7d0 (size before relaxing)
 .debug_str     0x0000b0bc      0x4e9 examples/enocean_switch/CMakeFiles/enocean_switch_nrf52832_xxAA_s132_6.0.0.dir/__/__/mesh/core/src/flash_manager.c.obj
                               0x1578 (size before relaxing)
 .debug_str     0x0000b5a5       0xd2 examples/enocean_switch/CMakeFiles/enocean_switch_nrf52832_xxAA_s132_6.0.0.dir/__/__/mesh/core/src/ccm_soft.c.obj
                                0xc5e (size before relaxing)
 .debug_str     0x0000b677       0x92 examples/enocean_switch/CMakeFiles/enocean_switch_nrf52832_xxAA_s132_6.0.0.dir/__/__/mesh/core/src/replay_cache.c.obj
                                0x68d (size before relaxing)
 .debug_str     0x0000b709       0xd4 examples/enocean_switch/CMakeFiles/enocean_switch_nrf52832_xxAA_s132_6.0.0.dir/__/__/mesh/core/src/beacon.c.obj
                               0x1130 (size before relaxing)
 .debug_str     0x0000b7dd       0x38 examples/enocean_switch/CMakeFiles/enocean_switch_nrf52832_xxAA_s132_6.0.0.dir/__/__/mesh/core/src/flash_manager_internal.c.obj
                                0x7a4 (size before relaxing)
 .debug_str     0x0000b815      0x2b5 examples/enocean_switch/CMakeFiles/enocean_switch_nrf52832_xxAA_s132_6.0.0.dir/__/__/mesh/core/src/core_tx.c.obj
                                0xbef (size before relaxing)
 .debug_str     0x0000baca      0x418 examples/enocean_switch/CMakeFiles/enocean_switch_nrf52832_xxAA_s132_6.0.0.dir/__/__/mesh/core/src/heartbeat.c.obj
                               0x22a8 (size before relaxing)
 .debug_str     0x0000bee2      0x25c examples/enocean_switch/CMakeFiles/enocean_switch_nrf52832_xxAA_s132_6.0.0.dir/__/__/mesh/core/src/net_beacon.c.obj
                               0x20cd (size before relaxing)
 .debug_str     0x0000c13e      0x11f examples/enocean_switch/CMakeFiles/enocean_switch_nrf52832_xxAA_s132_6.0.0.dir/__/__/mesh/core/src/core_tx_adv.c.obj
                               0x1337 (size before relaxing)
 .debug_str     0x0000c25d      0x185 examples/enocean_switch/CMakeFiles/enocean_switch_nrf52832_xxAA_s132_6.0.0.dir/__/__/mesh/bearer/src/ad_listener.c.obj
                                0xbe1 (size before relaxing)
 .debug_str     0x0000c3e2      0x162 examples/enocean_switch/CMakeFiles/enocean_switch_nrf52832_xxAA_s132_6.0.0.dir/__/__/mesh/bearer/src/ad_type_filter.c.obj
                                0x99f (size before relaxing)
 .debug_str     0x0000c544      0x321 examples/enocean_switch/CMakeFiles/enocean_switch_nrf52832_xxAA_s132_6.0.0.dir/__/__/mesh/bearer/src/advertiser.c.obj
                               0x1537 (size before relaxing)
 .debug_str     0x0000c865      0x3af examples/enocean_switch/CMakeFiles/enocean_switch_nrf52832_xxAA_s132_6.0.0.dir/__/__/mesh/bearer/src/bearer_handler.c.obj
                               0x1182 (size before relaxing)
 .debug_str     0x0000cc14      0x219 examples/enocean_switch/CMakeFiles/enocean_switch_nrf52832_xxAA_s132_6.0.0.dir/__/__/mesh/bearer/src/broadcast.c.obj
                                0xfae (size before relaxing)
 .debug_str     0x0000ce2d       0x72 examples/enocean_switch/CMakeFiles/enocean_switch_nrf52832_xxAA_s132_6.0.0.dir/__/__/mesh/bearer/src/filter_engine.c.obj
                                0x80c (size before relaxing)
 .debug_str     0x0000ce9f       0x79 examples/enocean_switch/CMakeFiles/enocean_switch_nrf52832_xxAA_s132_6.0.0.dir/__/__/mesh/bearer/src/radio_config.c.obj
                                0x77a (size before relaxing)
 .debug_str     0x0000cf18      0x490 examples/enocean_switch/CMakeFiles/enocean_switch_nrf52832_xxAA_s132_6.0.0.dir/__/__/mesh/bearer/src/scanner.c.obj
                               0x198e (size before relaxing)
 .debug_str     0x0000d3a8      0x15f examples/enocean_switch/CMakeFiles/enocean_switch_nrf52832_xxAA_s132_6.0.0.dir/__/__/mesh/bearer/src/mesh_pa_lna.c.obj
                                0x7ec (size before relaxing)
 .debug_str     0x0000d507      0x463 examples/enocean_switch/CMakeFiles/enocean_switch_nrf52832_xxAA_s132_6.0.0.dir/__/__/models/simple_on_off/src/simple_on_off_client.c.obj
                               0x1104 (size before relaxing)
 .debug_str     0x0000d96a      0x22b examples/enocean_switch/CMakeFiles/enocean_switch_nrf52832_xxAA_s132_6.0.0.dir/__/__/models/config/src/composition_data.c.obj
                                0x8dd (size before relaxing)
 .debug_str     0x0000db95     0x2696 examples/enocean_switch/CMakeFiles/enocean_switch_nrf52832_xxAA_s132_6.0.0.dir/__/__/models/config/src/config_server.c.obj
                               0x50df (size before relaxing)
 .debug_str     0x0001022b       0x69 examples/enocean_switch/CMakeFiles/enocean_switch_nrf52832_xxAA_s132_6.0.0.dir/__/__/models/config/src/packed_index_list.c.obj
                                0x24d (size before relaxing)
 .debug_str     0x00010294      0x60a examples/enocean_switch/CMakeFiles/enocean_switch_nrf52832_xxAA_s132_6.0.0.dir/__/__/models/health/src/health_server.c.obj
                               0x16b9 (size before relaxing)
 .debug_str     0x0001089e      0x264 examples/enocean_switch/CMakeFiles/enocean_switch_nrf52832_xxAA_s132_6.0.0.dir/__/__/mesh/access/src/access_publish.c.obj
                                0xbcc (size before relaxing)
 .debug_str     0x00010b02      0x825 examples/enocean_switch/CMakeFiles/enocean_switch_nrf52832_xxAA_s132_6.0.0.dir/__/__/mesh/access/src/access.c.obj
                               0x300a (size before relaxing)
 .debug_str     0x00011327      0x12f examples/enocean_switch/CMakeFiles/enocean_switch_nrf52832_xxAA_s132_6.0.0.dir/__/__/mesh/access/src/access_reliable.c.obj
                               0x1006 (size before relaxing)
 .debug_str     0x00011456       0x87 examples/enocean_switch/CMakeFiles/enocean_switch_nrf52832_xxAA_s132_6.0.0.dir/__/__/mesh/access/src/access_loopback.c.obj
                                0xb88 (size before relaxing)
 .debug_str     0x000114dd      0xd0b examples/enocean_switch/CMakeFiles/enocean_switch_nrf52832_xxAA_s132_6.0.0.dir/__/__/mesh/access/src/device_state_manager.c.obj
                               0x3354 (size before relaxing)
 .debug_str     0x000121e8      0x5c9 examples/enocean_switch/CMakeFiles/enocean_switch_nrf52832_xxAA_s132_6.0.0.dir/__/__/mesh/prov/src/prov_provisionee.c.obj
                               0x21d9 (size before relaxing)
 .debug_str     0x000127b1      0x247 examples/enocean_switch/CMakeFiles/enocean_switch_nrf52832_xxAA_s132_6.0.0.dir/__/__/mesh/prov/src/nrf_mesh_prov.c.obj
                               0x1dda (size before relaxing)
 .debug_str     0x000129f8       0xed examples/enocean_switch/CMakeFiles/enocean_switch_nrf52832_xxAA_s132_6.0.0.dir/__/__/mesh/prov/src/provisioning.c.obj
                                0xf29 (size before relaxing)
 .debug_str     0x00012ae5       0xb1 examples/enocean_switch/CMakeFiles/enocean_switch_nrf52832_xxAA_s132_6.0.0.dir/__/__/mesh/prov/src/prov_beacon.c.obj
                               0x1989 (size before relaxing)
 .debug_str     0x00012b96      0x19e examples/enocean_switch/CMakeFiles/enocean_switch_nrf52832_xxAA_s132_6.0.0.dir/__/__/mesh/prov/src/prov_utils.c.obj
                               0x1f46 (size before relaxing)
 .debug_str     0x00012d34      0x417 examples/enocean_switch/CMakeFiles/enocean_switch_nrf52832_xxAA_s132_6.0.0.dir/__/__/mesh/prov/src/prov_bearer_adv.c.obj
                               0x1bed (size before relaxing)
 .debug_str     0x0001314b      0x2e6 examples/enocean_switch/CMakeFiles/enocean_switch_nrf52832_xxAA_s132_6.0.0.dir/C_/b/nRF5_SDK_15.0.0_a53641a/modules/nrfx/mdk/system_nrf52.c.obj
                                0x762 (size before relaxing)
 .debug_str     0x00013431       0x9c examples/enocean_switch/CMakeFiles/enocean_switch_nrf52832_xxAA_s132_6.0.0.dir/C_/b/nRF5_SDK_15.0.0_a53641a/components/libraries/util/app_error.c.obj
                                0x724 (size before relaxing)
 .debug_str     0x000134cd      0x1e2 examples/enocean_switch/CMakeFiles/enocean_switch_nrf52832_xxAA_s132_6.0.0.dir/C_/b/nRF5_SDK_15.0.0_a53641a/components/libraries/util/app_util_platform.c.obj
                                0xc48 (size before relaxing)
 .debug_str     0x000136af      0x608 examples/enocean_switch/CMakeFiles/enocean_switch_nrf52832_xxAA_s132_6.0.0.dir/C_/b/nRF5_SDK_15.0.0_a53641a/components/libraries/timer/app_timer.c.obj
                               0x1250 (size before relaxing)
 .debug_str     0x00013cb7       0x4f examples/enocean_switch/CMakeFiles/enocean_switch_nrf52832_xxAA_s132_6.0.0.dir/C_/b/nRF5_SDK_15.0.0_a53641a/components/libraries/util/app_error_handler_gcc.c.obj
                                0x689 (size before relaxing)
 .debug_str     0x00013d06      0x2bf external/rtt/librtt_nrf52832_xxAA.a(SEGGER_RTT.c.obj)
                                0x922 (size before relaxing)
 .debug_str     0x00013fc5       0xdf external/rtt/librtt_nrf52832_xxAA.a(SEGGER_RTT_printf.c.obj)
                                0x792 (size before relaxing)
 .debug_str     0x000140a4      0x691 external/micro-ecc/libuECC_nrf52832_xxAA.a(uECC.c.obj)
                                0x880 (size before relaxing)

.debug_frame    0x00000000     0x73e0
 .debug_frame   0x00000000      0x1bc examples/enocean_switch/CMakeFiles/enocean_switch_nrf52832_xxAA_s132_6.0.0.dir/src/main.c.obj
 .debug_frame   0x000001bc       0x74 examples/enocean_switch/CMakeFiles/enocean_switch_nrf52832_xxAA_s132_6.0.0.dir/src/enocean.c.obj
 .debug_frame   0x00000230      0x148 examples/enocean_switch/CMakeFiles/enocean_switch_nrf52832_xxAA_s132_6.0.0.dir/src/flash_helper.c.obj
 .debug_frame   0x00000378       0xcc examples/enocean_switch/CMakeFiles/enocean_switch_nrf52832_xxAA_s132_6.0.0.dir/__/__/mesh/stack/src/mesh_stack.c.obj
 .debug_frame   0x00000444       0x90 examples/enocean_switch/CMakeFiles/enocean_switch_nrf52832_xxAA_s132_6.0.0.dir/__/common/src/mesh_softdevice_init.c.obj
 .debug_frame   0x000004d4       0x70 examples/enocean_switch/CMakeFiles/enocean_switch_nrf52832_xxAA_s132_6.0.0.dir/__/common/src/mesh_provisionee.c.obj
 .debug_frame   0x00000544       0x60 examples/enocean_switch/CMakeFiles/enocean_switch_nrf52832_xxAA_s132_6.0.0.dir/__/common/src/rtt_input.c.obj
 .debug_frame   0x000005a4       0xc8 examples/enocean_switch/CMakeFiles/enocean_switch_nrf52832_xxAA_s132_6.0.0.dir/__/common/src/simple_hal.c.obj
 .debug_frame   0x0000066c       0x30 examples/enocean_switch/CMakeFiles/enocean_switch_nrf52832_xxAA_s132_6.0.0.dir/__/nrf_mesh_weak.c.obj
 .debug_frame   0x0000069c       0x34 examples/enocean_switch/CMakeFiles/enocean_switch_nrf52832_xxAA_s132_6.0.0.dir/__/common/src/app_error_weak.c.obj
 .debug_frame   0x000006d0       0x28 examples/enocean_switch/CMakeFiles/enocean_switch_nrf52832_xxAA_s132_6.0.0.dir/__/common/src/assertion_handler_weak.c.obj
 .debug_frame   0x000006f8       0x4c examples/enocean_switch/CMakeFiles/enocean_switch_nrf52832_xxAA_s132_6.0.0.dir/__/__/mesh/core/src/nrf_mesh_configure.c.obj
 .debug_frame   0x00000744       0x6c examples/enocean_switch/CMakeFiles/enocean_switch_nrf52832_xxAA_s132_6.0.0.dir/__/__/mesh/core/src/msg_cache.c.obj
 .debug_frame   0x000007b0      0x404 examples/enocean_switch/CMakeFiles/enocean_switch_nrf52832_xxAA_s132_6.0.0.dir/__/__/mesh/core/src/transport.c.obj
 .debug_frame   0x00000bb4       0x68 examples/enocean_switch/CMakeFiles/enocean_switch_nrf52832_xxAA_s132_6.0.0.dir/__/__/mesh/core/src/event.c.obj
 .debug_frame   0x00000c1c      0x128 examples/enocean_switch/CMakeFiles/enocean_switch_nrf52832_xxAA_s132_6.0.0.dir/__/__/mesh/core/src/packet_buffer.c.obj
 .debug_frame   0x00000d44      0x24c examples/enocean_switch/CMakeFiles/enocean_switch_nrf52832_xxAA_s132_6.0.0.dir/__/__/mesh/core/src/flash_manager_defrag.c.obj
 .debug_frame   0x00000f90       0xd0 examples/enocean_switch/CMakeFiles/enocean_switch_nrf52832_xxAA_s132_6.0.0.dir/__/__/mesh/core/src/fifo.c.obj
 .debug_frame   0x00001060       0x54 examples/enocean_switch/CMakeFiles/enocean_switch_nrf52832_xxAA_s132_6.0.0.dir/__/__/mesh/core/src/nrf_flash.c.obj
 .debug_frame   0x000010b4       0xa0 examples/enocean_switch/CMakeFiles/enocean_switch_nrf52832_xxAA_s132_6.0.0.dir/__/__/mesh/core/src/packet_mgr.c.obj
 .debug_frame   0x00001154      0x298 examples/enocean_switch/CMakeFiles/enocean_switch_nrf52832_xxAA_s132_6.0.0.dir/__/__/mesh/core/src/net_state.c.obj
 .debug_frame   0x000013ec      0x150 examples/enocean_switch/CMakeFiles/enocean_switch_nrf52832_xxAA_s132_6.0.0.dir/__/__/mesh/core/src/mesh_flash.c.obj
 .debug_frame   0x0000153c       0x50 examples/enocean_switch/CMakeFiles/enocean_switch_nrf52832_xxAA_s132_6.0.0.dir/__/__/mesh/core/src/nrf_mesh_utils.c.obj
 .debug_frame   0x0000158c      0x1a0 examples/enocean_switch/CMakeFiles/enocean_switch_nrf52832_xxAA_s132_6.0.0.dir/__/__/mesh/core/src/nrf_mesh.c.obj
 .debug_frame   0x0000172c       0x74 examples/enocean_switch/CMakeFiles/enocean_switch_nrf52832_xxAA_s132_6.0.0.dir/__/__/mesh/core/src/queue.c.obj
 .debug_frame   0x000017a0       0x58 examples/enocean_switch/CMakeFiles/enocean_switch_nrf52832_xxAA_s132_6.0.0.dir/__/__/mesh/core/src/hal.c.obj
 .debug_frame   0x000017f8       0x6c examples/enocean_switch/CMakeFiles/enocean_switch_nrf52832_xxAA_s132_6.0.0.dir/__/__/mesh/core/src/aes_cmac.c.obj
 .debug_frame   0x00001864      0x134 examples/enocean_switch/CMakeFiles/enocean_switch_nrf52832_xxAA_s132_6.0.0.dir/__/__/mesh/core/src/timer_scheduler.c.obj
 .debug_frame   0x00001998      0x10c examples/enocean_switch/CMakeFiles/enocean_switch_nrf52832_xxAA_s132_6.0.0.dir/__/__/mesh/core/src/timer.c.obj
 .debug_frame   0x00001aa4       0x4c examples/enocean_switch/CMakeFiles/enocean_switch_nrf52832_xxAA_s132_6.0.0.dir/__/__/mesh/core/src/ticker.c.obj
 .debug_frame   0x00001af0       0x84 examples/enocean_switch/CMakeFiles/enocean_switch_nrf52832_xxAA_s132_6.0.0.dir/__/__/mesh/core/src/rand.c.obj
 .debug_frame   0x00001b74       0x30 examples/enocean_switch/CMakeFiles/enocean_switch_nrf52832_xxAA_s132_6.0.0.dir/__/__/mesh/core/src/nrf_mesh_opt.c.obj
 .debug_frame   0x00001ba4      0x1a0 examples/enocean_switch/CMakeFiles/enocean_switch_nrf52832_xxAA_s132_6.0.0.dir/__/__/mesh/core/src/timeslot.c.obj
 .debug_frame   0x00001d44      0x1bc examples/enocean_switch/CMakeFiles/enocean_switch_nrf52832_xxAA_s132_6.0.0.dir/__/__/mesh/core/src/bearer_event.c.obj
 .debug_frame   0x00001f00      0x15c examples/enocean_switch/CMakeFiles/enocean_switch_nrf52832_xxAA_s132_6.0.0.dir/__/__/mesh/core/src/enc.c.obj
 .debug_frame   0x0000205c      0x100 examples/enocean_switch/CMakeFiles/enocean_switch_nrf52832_xxAA_s132_6.0.0.dir/__/__/mesh/core/src/network.c.obj
 .debug_frame   0x0000215c      0x114 examples/enocean_switch/CMakeFiles/enocean_switch_nrf52832_xxAA_s132_6.0.0.dir/__/__/mesh/core/src/net_packet.c.obj
 .debug_frame   0x00002270       0xb4 examples/enocean_switch/CMakeFiles/enocean_switch_nrf52832_xxAA_s132_6.0.0.dir/__/__/mesh/core/src/msqueue.c.obj
 .debug_frame   0x00002324       0xb4 examples/enocean_switch/CMakeFiles/enocean_switch_nrf52832_xxAA_s132_6.0.0.dir/__/__/mesh/core/src/nrf_mesh_keygen.c.obj
 .debug_frame   0x000023d8       0xc8 examples/enocean_switch/CMakeFiles/enocean_switch_nrf52832_xxAA_s132_6.0.0.dir/__/__/mesh/core/src/list.c.obj
 .debug_frame   0x000024a0       0xb0 examples/enocean_switch/CMakeFiles/enocean_switch_nrf52832_xxAA_s132_6.0.0.dir/__/__/mesh/core/src/log.c.obj
 .debug_frame   0x00002550      0x320 examples/enocean_switch/CMakeFiles/enocean_switch_nrf52832_xxAA_s132_6.0.0.dir/__/__/mesh/core/src/flash_manager.c.obj
 .debug_frame   0x00002870       0xf4 examples/enocean_switch/CMakeFiles/enocean_switch_nrf52832_xxAA_s132_6.0.0.dir/__/__/mesh/core/src/ccm_soft.c.obj
 .debug_frame   0x00002964       0x80 examples/enocean_switch/CMakeFiles/enocean_switch_nrf52832_xxAA_s132_6.0.0.dir/__/__/mesh/core/src/replay_cache.c.obj
 .debug_frame   0x000029e4       0x60 examples/enocean_switch/CMakeFiles/enocean_switch_nrf52832_xxAA_s132_6.0.0.dir/__/__/mesh/core/src/beacon.c.obj
 .debug_frame   0x00002a44       0x34 examples/enocean_switch/CMakeFiles/enocean_switch_nrf52832_xxAA_s132_6.0.0.dir/__/__/mesh/core/src/flash_manager_internal.c.obj
 .debug_frame   0x00002a78       0xf0 examples/enocean_switch/CMakeFiles/enocean_switch_nrf52832_xxAA_s132_6.0.0.dir/__/__/mesh/core/src/core_tx.c.obj
 .debug_frame   0x00002b68      0x160 examples/enocean_switch/CMakeFiles/enocean_switch_nrf52832_xxAA_s132_6.0.0.dir/__/__/mesh/core/src/heartbeat.c.obj
 .debug_frame   0x00002cc8      0x138 examples/enocean_switch/CMakeFiles/enocean_switch_nrf52832_xxAA_s132_6.0.0.dir/__/__/mesh/core/src/net_beacon.c.obj
 .debug_frame   0x00002e00      0x150 examples/enocean_switch/CMakeFiles/enocean_switch_nrf52832_xxAA_s132_6.0.0.dir/__/__/mesh/core/src/core_tx_adv.c.obj
 .debug_frame   0x00002f50       0x6c examples/enocean_switch/CMakeFiles/enocean_switch_nrf52832_xxAA_s132_6.0.0.dir/__/__/mesh/bearer/src/ad_listener.c.obj
 .debug_frame   0x00002fbc       0xa8 examples/enocean_switch/CMakeFiles/enocean_switch_nrf52832_xxAA_s132_6.0.0.dir/__/__/mesh/bearer/src/ad_type_filter.c.obj
 .debug_frame   0x00003064      0x284 examples/enocean_switch/CMakeFiles/enocean_switch_nrf52832_xxAA_s132_6.0.0.dir/__/__/mesh/bearer/src/advertiser.c.obj
 .debug_frame   0x000032e8      0x1c8 examples/enocean_switch/CMakeFiles/enocean_switch_nrf52832_xxAA_s132_6.0.0.dir/__/__/mesh/bearer/src/bearer_handler.c.obj
 .debug_frame   0x000034b0       0x7c examples/enocean_switch/CMakeFiles/enocean_switch_nrf52832_xxAA_s132_6.0.0.dir/__/__/mesh/bearer/src/broadcast.c.obj
 .debug_frame   0x0000352c       0x74 examples/enocean_switch/CMakeFiles/enocean_switch_nrf52832_xxAA_s132_6.0.0.dir/__/__/mesh/bearer/src/filter_engine.c.obj
 .debug_frame   0x000035a0       0x94 examples/enocean_switch/CMakeFiles/enocean_switch_nrf52832_xxAA_s132_6.0.0.dir/__/__/mesh/bearer/src/radio_config.c.obj
 .debug_frame   0x00003634      0x2cc examples/enocean_switch/CMakeFiles/enocean_switch_nrf52832_xxAA_s132_6.0.0.dir/__/__/mesh/bearer/src/scanner.c.obj
 .debug_frame   0x00003900      0x10c examples/enocean_switch/CMakeFiles/enocean_switch_nrf52832_xxAA_s132_6.0.0.dir/__/__/mesh/bearer/src/mesh_pa_lna.c.obj
 .debug_frame   0x00003a0c      0x110 examples/enocean_switch/CMakeFiles/enocean_switch_nrf52832_xxAA_s132_6.0.0.dir/__/__/models/simple_on_off/src/simple_on_off_client.c.obj
 .debug_frame   0x00003b1c       0x40 examples/enocean_switch/CMakeFiles/enocean_switch_nrf52832_xxAA_s132_6.0.0.dir/__/__/models/config/src/composition_data.c.obj
 .debug_frame   0x00003b5c      0x8ec examples/enocean_switch/CMakeFiles/enocean_switch_nrf52832_xxAA_s132_6.0.0.dir/__/__/models/config/src/config_server.c.obj
 .debug_frame   0x00004448       0x2c examples/enocean_switch/CMakeFiles/enocean_switch_nrf52832_xxAA_s132_6.0.0.dir/__/__/models/config/src/packed_index_list.c.obj
 .debug_frame   0x00004474      0x2a0 examples/enocean_switch/CMakeFiles/enocean_switch_nrf52832_xxAA_s132_6.0.0.dir/__/__/models/health/src/health_server.c.obj
 .debug_frame   0x00004714      0x114 examples/enocean_switch/CMakeFiles/enocean_switch_nrf52832_xxAA_s132_6.0.0.dir/__/__/mesh/access/src/access_publish.c.obj
 .debug_frame   0x00004828      0x5c4 examples/enocean_switch/CMakeFiles/enocean_switch_nrf52832_xxAA_s132_6.0.0.dir/__/__/mesh/access/src/access.c.obj
 .debug_frame   0x00004dec      0x124 examples/enocean_switch/CMakeFiles/enocean_switch_nrf52832_xxAA_s132_6.0.0.dir/__/__/mesh/access/src/access_reliable.c.obj
 .debug_frame   0x00004f10       0x70 examples/enocean_switch/CMakeFiles/enocean_switch_nrf52832_xxAA_s132_6.0.0.dir/__/__/mesh/access/src/access_loopback.c.obj
 .debug_frame   0x00004f80      0xb28 examples/enocean_switch/CMakeFiles/enocean_switch_nrf52832_xxAA_s132_6.0.0.dir/__/__/mesh/access/src/device_state_manager.c.obj
 .debug_frame   0x00005aa8      0x198 examples/enocean_switch/CMakeFiles/enocean_switch_nrf52832_xxAA_s132_6.0.0.dir/__/__/mesh/prov/src/prov_provisionee.c.obj
 .debug_frame   0x00005c40      0x160 examples/enocean_switch/CMakeFiles/enocean_switch_nrf52832_xxAA_s132_6.0.0.dir/__/__/mesh/prov/src/nrf_mesh_prov.c.obj
 .debug_frame   0x00005da0      0x170 examples/enocean_switch/CMakeFiles/enocean_switch_nrf52832_xxAA_s132_6.0.0.dir/__/__/mesh/prov/src/provisioning.c.obj
 .debug_frame   0x00005f10       0x84 examples/enocean_switch/CMakeFiles/enocean_switch_nrf52832_xxAA_s132_6.0.0.dir/__/__/mesh/prov/src/prov_beacon.c.obj
 .debug_frame   0x00005f94      0x150 examples/enocean_switch/CMakeFiles/enocean_switch_nrf52832_xxAA_s132_6.0.0.dir/__/__/mesh/prov/src/prov_utils.c.obj
 .debug_frame   0x000060e4      0x324 examples/enocean_switch/CMakeFiles/enocean_switch_nrf52832_xxAA_s132_6.0.0.dir/__/__/mesh/prov/src/prov_bearer_adv.c.obj
 .debug_frame   0x00006408       0x58 examples/enocean_switch/CMakeFiles/enocean_switch_nrf52832_xxAA_s132_6.0.0.dir/C_/b/nRF5_SDK_15.0.0_a53641a/modules/nrfx/mdk/system_nrf52.c.obj
 .debug_frame   0x00006460       0x44 examples/enocean_switch/CMakeFiles/enocean_switch_nrf52832_xxAA_s132_6.0.0.dir/C_/b/nRF5_SDK_15.0.0_a53641a/components/libraries/util/app_error.c.obj
 .debug_frame   0x000064a4       0x84 examples/enocean_switch/CMakeFiles/enocean_switch_nrf52832_xxAA_s132_6.0.0.dir/C_/b/nRF5_SDK_15.0.0_a53641a/components/libraries/util/app_util_platform.c.obj
 .debug_frame   0x00006528      0x16c examples/enocean_switch/CMakeFiles/enocean_switch_nrf52832_xxAA_s132_6.0.0.dir/C_/b/nRF5_SDK_15.0.0_a53641a/components/libraries/timer/app_timer.c.obj
 .debug_frame   0x00006694       0x20 examples/enocean_switch/CMakeFiles/enocean_switch_nrf52832_xxAA_s132_6.0.0.dir/C_/b/nRF5_SDK_15.0.0_a53641a/components/libraries/util/app_error_handler_gcc.c.obj
 .debug_frame   0x000066b4      0x2d8 external/rtt/librtt_nrf52832_xxAA.a(SEGGER_RTT.c.obj)
 .debug_frame   0x0000698c       0xac external/rtt/librtt_nrf52832_xxAA.a(SEGGER_RTT_printf.c.obj)
 .debug_frame   0x00006a38      0x684 external/micro-ecc/libuECC_nrf52832_xxAA.a(uECC.c.obj)
 .debug_frame   0x000070bc       0x2c c:/mesh/arm_gcc/bin/../lib/gcc/arm-none-eabi/6.3.1/thumb/v7e-m/fpv4-sp/hard\libgcc.a(_aeabi_uldivmod.o)
 .debug_frame   0x000070e8       0x34 c:/mesh/arm_gcc/bin/../lib/gcc/arm-none-eabi/6.3.1/thumb/v7e-m/fpv4-sp/hard\libgcc.a(_udivmoddi4.o)
 .debug_frame   0x0000711c       0x28 c:/mesh/arm_gcc/bin/../lib/gcc/arm-none-eabi/6.3.1/../../../../arm-none-eabi/lib/thumb/v7e-m/fpv4-sp/hard\libg_nano.a(lib_a-exit.o)
 .debug_frame   0x00007144       0x2c c:/mesh/arm_gcc/bin/../lib/gcc/arm-none-eabi/6.3.1/../../../../arm-none-eabi/lib/thumb/v7e-m/fpv4-sp/hard\libg_nano.a(lib_a-init.o)
 .debug_frame   0x00007170       0x30 c:/mesh/arm_gcc/bin/../lib/gcc/arm-none-eabi/6.3.1/../../../../arm-none-eabi/lib/thumb/v7e-m/fpv4-sp/hard\libg_nano.a(lib_a-malloc.o)
 .debug_frame   0x000071a0       0x28 c:/mesh/arm_gcc/bin/../lib/gcc/arm-none-eabi/6.3.1/../../../../arm-none-eabi/lib/thumb/v7e-m/fpv4-sp/hard\libg_nano.a(lib_a-memcmp.o)
 .debug_frame   0x000071c8       0x28 c:/mesh/arm_gcc/bin/../lib/gcc/arm-none-eabi/6.3.1/../../../../arm-none-eabi/lib/thumb/v7e-m/fpv4-sp/hard\libg_nano.a(lib_a-memcpy-stub.o)
 .debug_frame   0x000071f0       0x20 c:/mesh/arm_gcc/bin/../lib/gcc/arm-none-eabi/6.3.1/../../../../arm-none-eabi/lib/thumb/v7e-m/fpv4-sp/hard\libg_nano.a(lib_a-memset.o)
 .debug_frame   0x00007210       0x38 c:/mesh/arm_gcc/bin/../lib/gcc/arm-none-eabi/6.3.1/../../../../arm-none-eabi/lib/thumb/v7e-m/fpv4-sp/hard\libg_nano.a(lib_a-nano-freer.o)
 .debug_frame   0x00007248       0x2c c:/mesh/arm_gcc/bin/../lib/gcc/arm-none-eabi/6.3.1/../../../../arm-none-eabi/lib/thumb/v7e-m/fpv4-sp/hard\libg_nano.a(lib_a-nano-mallocr.o)
 .debug_frame   0x00007274       0x2c c:/mesh/arm_gcc/bin/../lib/gcc/arm-none-eabi/6.3.1/../../../../arm-none-eabi/lib/thumb/v7e-m/fpv4-sp/hard\libg_nano.a(lib_a-sbrkr.o)
 .debug_frame   0x000072a0       0x20 c:/mesh/arm_gcc/bin/../lib/gcc/arm-none-eabi/6.3.1/../../../../arm-none-eabi/lib/thumb/v7e-m/fpv4-sp/hard\libg_nano.a(lib_a-strcpy.o)
 .debug_frame   0x000072c0       0x34 c:/mesh/arm_gcc/bin/../lib/gcc/arm-none-eabi/6.3.1/../../../../arm-none-eabi/lib/thumb/v7e-m/fpv4-sp/hard\libg_nano.a(lib_a-strrchr.o)
 .debug_frame   0x000072f4       0x30 c:/mesh/arm_gcc/bin/../lib/gcc/arm-none-eabi/6.3.1/../../../../arm-none-eabi/lib/thumb/v7e-m/fpv4-sp/hard\libg_nano.a(lib_a-mlock.o)
 .debug_frame   0x00007324       0x5c c:/mesh/arm_gcc/bin/../lib/gcc/arm-none-eabi/6.3.1/../../../../arm-none-eabi/lib/thumb/v7e-m/fpv4-sp/hard\libg_nano.a(lib_a-reent.o)
 .debug_frame   0x00007380       0x20 c:/mesh/arm_gcc/bin/../lib/gcc/arm-none-eabi/6.3.1/../../../../arm-none-eabi/lib/thumb/v7e-m/fpv4-sp/hard\libg_nano.a(lib_a-strchr.o)
 .debug_frame   0x000073a0       0x20 c:/mesh/arm_gcc/bin/../lib/gcc/arm-none-eabi/6.3.1/../../../../arm-none-eabi/lib/thumb/v7e-m/fpv4-sp/hard\libnosys.a(sbrk.o)
 .debug_frame   0x000073c0       0x20 c:/mesh/arm_gcc/bin/../lib/gcc/arm-none-eabi/6.3.1/../../../../arm-none-eabi/lib/thumb/v7e-m/fpv4-sp/hard\libnosys.a(_exit.o)
