Archive member included to satisfy reference by file (symbol)

external/rtt/librtt_nrf52840_xxAA.a(SEGGER_RTT.c.obj)
                              examples/enocean_switch/CMakeFiles/enocean_switch_nrf52840_xxAA_s140_6.0.0.dir/__/__/mesh/core/src/log.c.obj (SEGGER_RTT_Write)
external/rtt/librtt_nrf52840_xxAA.a(SEGGER_RTT_printf.c.obj)
                              examples/enocean_switch/CMakeFiles/enocean_switch_nrf52840_xxAA_s140_6.0.0.dir/__/__/mesh/core/src/log.c.obj (SEGGER_RTT_vprintf)
external/micro-ecc/libuECC_nrf52840_xxAA.a(uECC.c.obj)
                              examples/enocean_switch/CMakeFiles/enocean_switch_nrf52840_xxAA_s140_6.0.0.dir/__/__/mesh/prov/src/prov_utils.c.obj (uECC_secp256r1)
c:/mesh/arm_gcc/bin/../lib/gcc/arm-none-eabi/6.3.1/thumb/v7e-m/fpv4-sp/hard\libgcc.a(_aeabi_uldivmod.o)
                              examples/enocean_switch/CMakeFiles/enocean_switch_nrf52840_xxAA_s140_6.0.0.dir/__/common/src/rtt_input.c.obj (__aeabi_uldivmod)
c:/mesh/arm_gcc/bin/../lib/gcc/arm-none-eabi/6.3.1/thumb/v7e-m/fpv4-sp/hard\libgcc.a(_udivmoddi4.o)
                              c:/mesh/arm_gcc/bin/../lib/gcc/arm-none-eabi/6.3.1/thumb/v7e-m/fpv4-sp/hard\libgcc.a(_aeabi_uldivmod.o) (__udivmoddi4)
c:/mesh/arm_gcc/bin/../lib/gcc/arm-none-eabi/6.3.1/thumb/v7e-m/fpv4-sp/hard\libgcc.a(_dvmd_tls.o)
                              c:/mesh/arm_gcc/bin/../lib/gcc/arm-none-eabi/6.3.1/thumb/v7e-m/fpv4-sp/hard\libgcc.a(_aeabi_uldivmod.o) (__aeabi_ldiv0)
c:/mesh/arm_gcc/bin/../lib/gcc/arm-none-eabi/6.3.1/../../../../arm-none-eabi/lib/thumb/v7e-m/fpv4-sp/hard\libg_nano.a(lib_a-exit.o)
                              c:/mesh/arm_gcc/bin/../lib/gcc/arm-none-eabi/6.3.1/../../../../arm-none-eabi/lib/thumb/v7e-m/fpv4-sp/hard/crt0.o (exit)
c:/mesh/arm_gcc/bin/../lib/gcc/arm-none-eabi/6.3.1/../../../../arm-none-eabi/lib/thumb/v7e-m/fpv4-sp/hard\libg_nano.a(lib_a-impure.o)
                              c:/mesh/arm_gcc/bin/../lib/gcc/arm-none-eabi/6.3.1/../../../../arm-none-eabi/lib/thumb/v7e-m/fpv4-sp/hard\libg_nano.a(lib_a-exit.o) (_global_impure_ptr)
c:/mesh/arm_gcc/bin/../lib/gcc/arm-none-eabi/6.3.1/../../../../arm-none-eabi/lib/thumb/v7e-m/fpv4-sp/hard\libg_nano.a(lib_a-init.o)
                              c:/mesh/arm_gcc/bin/../lib/gcc/arm-none-eabi/6.3.1/../../../../arm-none-eabi/lib/thumb/v7e-m/fpv4-sp/hard/crt0.o (__libc_init_array)
c:/mesh/arm_gcc/bin/../lib/gcc/arm-none-eabi/6.3.1/../../../../arm-none-eabi/lib/thumb/v7e-m/fpv4-sp/hard\libg_nano.a(lib_a-malloc.o)
                              examples/enocean_switch/CMakeFiles/enocean_switch_nrf52840_xxAA_s140_6.0.0.dir/__/__/mesh/core/src/transport.c.obj (malloc)
c:/mesh/arm_gcc/bin/../lib/gcc/arm-none-eabi/6.3.1/../../../../arm-none-eabi/lib/thumb/v7e-m/fpv4-sp/hard\libg_nano.a(lib_a-memcmp.o)
                              examples/enocean_switch/CMakeFiles/enocean_switch_nrf52840_xxAA_s140_6.0.0.dir/src/enocean.c.obj (memcmp)
c:/mesh/arm_gcc/bin/../lib/gcc/arm-none-eabi/6.3.1/../../../../arm-none-eabi/lib/thumb/v7e-m/fpv4-sp/hard\libg_nano.a(lib_a-memcpy-stub.o)
                              examples/enocean_switch/CMakeFiles/enocean_switch_nrf52840_xxAA_s140_6.0.0.dir/src/main.c.obj (memcpy)
c:/mesh/arm_gcc/bin/../lib/gcc/arm-none-eabi/6.3.1/../../../../arm-none-eabi/lib/thumb/v7e-m/fpv4-sp/hard\libg_nano.a(lib_a-memset.o)
                              c:/mesh/arm_gcc/bin/../lib/gcc/arm-none-eabi/6.3.1/../../../../arm-none-eabi/lib/thumb/v7e-m/fpv4-sp/hard/crt0.o (memset)
c:/mesh/arm_gcc/bin/../lib/gcc/arm-none-eabi/6.3.1/../../../../arm-none-eabi/lib/thumb/v7e-m/fpv4-sp/hard\libg_nano.a(lib_a-nano-freer.o)
                              c:/mesh/arm_gcc/bin/../lib/gcc/arm-none-eabi/6.3.1/../../../../arm-none-eabi/lib/thumb/v7e-m/fpv4-sp/hard\libg_nano.a(lib_a-malloc.o) (_free_r)
c:/mesh/arm_gcc/bin/../lib/gcc/arm-none-eabi/6.3.1/../../../../arm-none-eabi/lib/thumb/v7e-m/fpv4-sp/hard\libg_nano.a(lib_a-nano-mallocr.o)
                              c:/mesh/arm_gcc/bin/../lib/gcc/arm-none-eabi/6.3.1/../../../../arm-none-eabi/lib/thumb/v7e-m/fpv4-sp/hard\libg_nano.a(lib_a-malloc.o) (_malloc_r)
c:/mesh/arm_gcc/bin/../lib/gcc/arm-none-eabi/6.3.1/../../../../arm-none-eabi/lib/thumb/v7e-m/fpv4-sp/hard\libg_nano.a(lib_a-sbrkr.o)
                              c:/mesh/arm_gcc/bin/../lib/gcc/arm-none-eabi/6.3.1/../../../../arm-none-eabi/lib/thumb/v7e-m/fpv4-sp/hard\libg_nano.a(lib_a-nano-mallocr.o) (_sbrk_r)
c:/mesh/arm_gcc/bin/../lib/gcc/arm-none-eabi/6.3.1/../../../../arm-none-eabi/lib/thumb/v7e-m/fpv4-sp/hard\libg_nano.a(lib_a-strcpy.o)
                              external/rtt/librtt_nrf52840_xxAA.a(SEGGER_RTT.c.obj) (strcpy)
c:/mesh/arm_gcc/bin/../lib/gcc/arm-none-eabi/6.3.1/../../../../arm-none-eabi/lib/thumb/v7e-m/fpv4-sp/hard\libg_nano.a(lib_a-strlen.o)
                              examples/enocean_switch/CMakeFiles/enocean_switch_nrf52840_xxAA_s140_6.0.0.dir/__/__/mesh/prov/src/prov_beacon.c.obj (strlen)
c:/mesh/arm_gcc/bin/../lib/gcc/arm-none-eabi/6.3.1/../../../../arm-none-eabi/lib/thumb/v7e-m/fpv4-sp/hard\libg_nano.a(lib_a-strrchr.o)
                              examples/enocean_switch/CMakeFiles/enocean_switch_nrf52840_xxAA_s140_6.0.0.dir/src/main.c.obj (strrchr)
c:/mesh/arm_gcc/bin/../lib/gcc/arm-none-eabi/6.3.1/../../../../arm-none-eabi/lib/thumb/v7e-m/fpv4-sp/hard\libg_nano.a(lib_a-mlock.o)
                              c:/mesh/arm_gcc/bin/../lib/gcc/arm-none-eabi/6.3.1/../../../../arm-none-eabi/lib/thumb/v7e-m/fpv4-sp/hard\libg_nano.a(lib_a-nano-freer.o) (__malloc_lock)
c:/mesh/arm_gcc/bin/../lib/gcc/arm-none-eabi/6.3.1/../../../../arm-none-eabi/lib/thumb/v7e-m/fpv4-sp/hard\libg_nano.a(lib_a-reent.o)
                              c:/mesh/arm_gcc/bin/../lib/gcc/arm-none-eabi/6.3.1/../../../../arm-none-eabi/lib/thumb/v7e-m/fpv4-sp/hard\libg_nano.a(lib_a-sbrkr.o) (errno)
c:/mesh/arm_gcc/bin/../lib/gcc/arm-none-eabi/6.3.1/../../../../arm-none-eabi/lib/thumb/v7e-m/fpv4-sp/hard\libg_nano.a(lib_a-strchr.o)
                              c:/mesh/arm_gcc/bin/../lib/gcc/arm-none-eabi/6.3.1/../../../../arm-none-eabi/lib/thumb/v7e-m/fpv4-sp/hard\libg_nano.a(lib_a-strrchr.o) (strchr)
c:/mesh/arm_gcc/bin/../lib/gcc/arm-none-eabi/6.3.1/../../../../arm-none-eabi/lib/thumb/v7e-m/fpv4-sp/hard\libnosys.a(sbrk.o)
                              c:/mesh/arm_gcc/bin/../lib/gcc/arm-none-eabi/6.3.1/../../../../arm-none-eabi/lib/thumb/v7e-m/fpv4-sp/hard\libg_nano.a(lib_a-sbrkr.o) (_sbrk)
c:/mesh/arm_gcc/bin/../lib/gcc/arm-none-eabi/6.3.1/../../../../arm-none-eabi/lib/thumb/v7e-m/fpv4-sp/hard\libnosys.a(_exit.o)
                              c:/mesh/arm_gcc/bin/../lib/gcc/arm-none-eabi/6.3.1/../../../../arm-none-eabi/lib/thumb/v7e-m/fpv4-sp/hard\libg_nano.a(lib_a-exit.o) (_exit)

Allocating common symbols
Common symbol       size              file

nrf_nvic_state      0xc               examples/enocean_switch/CMakeFiles/enocean_switch_nrf52840_xxAA_s140_6.0.0.dir/C_/b/nRF5_SDK_15.0.0_a53641a/components/libraries/util/app_util_platform.c.obj
m_packet            0x24              examples/enocean_switch/CMakeFiles/enocean_switch_nrf52840_xxAA_s140_6.0.0.dir/__/__/mesh/core/src/core_tx.c.obj
errno               0x4               c:/mesh/arm_gcc/bin/../lib/gcc/arm-none-eabi/6.3.1/../../../../arm-none-eabi/lib/thumb/v7e-m/fpv4-sp/hard\libg_nano.a(lib_a-reent.o)
_SEGGER_RTT         0x78              external/rtt/librtt_nrf52840_xxAA.a(SEGGER_RTT.c.obj)

Discarded input sections

 .text          0x00000000        0x0 c:/mesh/arm_gcc/bin/../lib/gcc/arm-none-eabi/6.3.1/thumb/v7e-m/fpv4-sp/hard/crti.o
 .data          0x00000000        0x0 c:/mesh/arm_gcc/bin/../lib/gcc/arm-none-eabi/6.3.1/thumb/v7e-m/fpv4-sp/hard/crti.o
 .bss           0x00000000        0x0 c:/mesh/arm_gcc/bin/../lib/gcc/arm-none-eabi/6.3.1/thumb/v7e-m/fpv4-sp/hard/crti.o
 .data          0x00000000        0x4 c:/mesh/arm_gcc/bin/../lib/gcc/arm-none-eabi/6.3.1/thumb/v7e-m/fpv4-sp/hard/crtbegin.o
 .data          0x00000000        0x0 c:/mesh/arm_gcc/bin/../lib/gcc/arm-none-eabi/6.3.1/../../../../arm-none-eabi/lib/thumb/v7e-m/fpv4-sp/hard/crt0.o
 .bss           0x00000000        0x0 c:/mesh/arm_gcc/bin/../lib/gcc/arm-none-eabi/6.3.1/../../../../arm-none-eabi/lib/thumb/v7e-m/fpv4-sp/hard/crt0.o
 .ARM.extab     0x00000000        0x0 c:/mesh/arm_gcc/bin/../lib/gcc/arm-none-eabi/6.3.1/../../../../arm-none-eabi/lib/thumb/v7e-m/fpv4-sp/hard/crt0.o
 .text          0x00000000        0x0 examples/enocean_switch/CMakeFiles/enocean_switch_nrf52840_xxAA_s140_6.0.0.dir/src/main.c.obj
 .data          0x00000000        0x0 examples/enocean_switch/CMakeFiles/enocean_switch_nrf52840_xxAA_s140_6.0.0.dir/src/main.c.obj
 .bss           0x00000000        0x0 examples/enocean_switch/CMakeFiles/enocean_switch_nrf52840_xxAA_s140_6.0.0.dir/src/main.c.obj
 .text          0x00000000        0x0 examples/enocean_switch/CMakeFiles/enocean_switch_nrf52840_xxAA_s140_6.0.0.dir/src/enocean.c.obj
 .data          0x00000000        0x0 examples/enocean_switch/CMakeFiles/enocean_switch_nrf52840_xxAA_s140_6.0.0.dir/src/enocean.c.obj
 .bss           0x00000000        0x0 examples/enocean_switch/CMakeFiles/enocean_switch_nrf52840_xxAA_s140_6.0.0.dir/src/enocean.c.obj
 .text          0x00000000        0x0 examples/enocean_switch/CMakeFiles/enocean_switch_nrf52840_xxAA_s140_6.0.0.dir/src/flash_helper.c.obj
 .data          0x00000000        0x0 examples/enocean_switch/CMakeFiles/enocean_switch_nrf52840_xxAA_s140_6.0.0.dir/src/flash_helper.c.obj
 .bss           0x00000000        0x0 examples/enocean_switch/CMakeFiles/enocean_switch_nrf52840_xxAA_s140_6.0.0.dir/src/flash_helper.c.obj
 .text          0x00000000        0x0 examples/enocean_switch/CMakeFiles/enocean_switch_nrf52840_xxAA_s140_6.0.0.dir/__/__/mesh/stack/src/mesh_stack.c.obj
 .data          0x00000000        0x0 examples/enocean_switch/CMakeFiles/enocean_switch_nrf52840_xxAA_s140_6.0.0.dir/__/__/mesh/stack/src/mesh_stack.c.obj
 .bss           0x00000000        0x0 examples/enocean_switch/CMakeFiles/enocean_switch_nrf52840_xxAA_s140_6.0.0.dir/__/__/mesh/stack/src/mesh_stack.c.obj
 .text          0x00000000        0x0 examples/enocean_switch/CMakeFiles/enocean_switch_nrf52840_xxAA_s140_6.0.0.dir/__/common/src/mesh_softdevice_init.c.obj
 .data          0x00000000        0x0 examples/enocean_switch/CMakeFiles/enocean_switch_nrf52840_xxAA_s140_6.0.0.dir/__/common/src/mesh_softdevice_init.c.obj
 .bss           0x00000000        0x0 examples/enocean_switch/CMakeFiles/enocean_switch_nrf52840_xxAA_s140_6.0.0.dir/__/common/src/mesh_softdevice_init.c.obj
 .text          0x00000000        0x0 examples/enocean_switch/CMakeFiles/enocean_switch_nrf52840_xxAA_s140_6.0.0.dir/__/common/src/mesh_provisionee.c.obj
 .data          0x00000000        0x0 examples/enocean_switch/CMakeFiles/enocean_switch_nrf52840_xxAA_s140_6.0.0.dir/__/common/src/mesh_provisionee.c.obj
 .bss           0x00000000        0x0 examples/enocean_switch/CMakeFiles/enocean_switch_nrf52840_xxAA_s140_6.0.0.dir/__/common/src/mesh_provisionee.c.obj
 .text          0x00000000        0x0 examples/enocean_switch/CMakeFiles/enocean_switch_nrf52840_xxAA_s140_6.0.0.dir/__/common/src/rtt_input.c.obj
 .data          0x00000000        0x0 examples/enocean_switch/CMakeFiles/enocean_switch_nrf52840_xxAA_s140_6.0.0.dir/__/common/src/rtt_input.c.obj
 .bss           0x00000000        0x0 examples/enocean_switch/CMakeFiles/enocean_switch_nrf52840_xxAA_s140_6.0.0.dir/__/common/src/rtt_input.c.obj
 .text.rtt_input_disable
                0x00000000       0x28 examples/enocean_switch/CMakeFiles/enocean_switch_nrf52840_xxAA_s140_6.0.0.dir/__/common/src/rtt_input.c.obj
 .text          0x00000000        0x0 examples/enocean_switch/CMakeFiles/enocean_switch_nrf52840_xxAA_s140_6.0.0.dir/__/common/src/simple_hal.c.obj
 .data          0x00000000        0x0 examples/enocean_switch/CMakeFiles/enocean_switch_nrf52840_xxAA_s140_6.0.0.dir/__/common/src/simple_hal.c.obj
 .bss           0x00000000        0x0 examples/enocean_switch/CMakeFiles/enocean_switch_nrf52840_xxAA_s140_6.0.0.dir/__/common/src/simple_hal.c.obj
 .text.hal_led_pin_get
                0x00000000       0x18 examples/enocean_switch/CMakeFiles/enocean_switch_nrf52840_xxAA_s140_6.0.0.dir/__/common/src/simple_hal.c.obj
 .text          0x00000000        0x0 examples/enocean_switch/CMakeFiles/enocean_switch_nrf52840_xxAA_s140_6.0.0.dir/__/common/src/mesh_app_utils.c.obj
 .data          0x00000000        0x0 examples/enocean_switch/CMakeFiles/enocean_switch_nrf52840_xxAA_s140_6.0.0.dir/__/common/src/mesh_app_utils.c.obj
 .bss           0x00000000        0x0 examples/enocean_switch/CMakeFiles/enocean_switch_nrf52840_xxAA_s140_6.0.0.dir/__/common/src/mesh_app_utils.c.obj
 .text.mesh_app_uuid_gen
                0x00000000       0x30 examples/enocean_switch/CMakeFiles/enocean_switch_nrf52840_xxAA_s140_6.0.0.dir/__/common/src/mesh_app_utils.c.obj
 .debug_info    0x00000000      0xde7 examples/enocean_switch/CMakeFiles/enocean_switch_nrf52840_xxAA_s140_6.0.0.dir/__/common/src/mesh_app_utils.c.obj
 .debug_abbrev  0x00000000      0x22a examples/enocean_switch/CMakeFiles/enocean_switch_nrf52840_xxAA_s140_6.0.0.dir/__/common/src/mesh_app_utils.c.obj
 .debug_loc     0x00000000       0x9a examples/enocean_switch/CMakeFiles/enocean_switch_nrf52840_xxAA_s140_6.0.0.dir/__/common/src/mesh_app_utils.c.obj
 .debug_aranges
                0x00000000       0x20 examples/enocean_switch/CMakeFiles/enocean_switch_nrf52840_xxAA_s140_6.0.0.dir/__/common/src/mesh_app_utils.c.obj
 .debug_ranges  0x00000000       0x10 examples/enocean_switch/CMakeFiles/enocean_switch_nrf52840_xxAA_s140_6.0.0.dir/__/common/src/mesh_app_utils.c.obj
 .debug_line    0x00000000      0x210 examples/enocean_switch/CMakeFiles/enocean_switch_nrf52840_xxAA_s140_6.0.0.dir/__/common/src/mesh_app_utils.c.obj
 .debug_str     0x00000000      0x7b9 examples/enocean_switch/CMakeFiles/enocean_switch_nrf52840_xxAA_s140_6.0.0.dir/__/common/src/mesh_app_utils.c.obj
 .comment       0x00000000       0x80 examples/enocean_switch/CMakeFiles/enocean_switch_nrf52840_xxAA_s140_6.0.0.dir/__/common/src/mesh_app_utils.c.obj
 .debug_frame   0x00000000       0x2c examples/enocean_switch/CMakeFiles/enocean_switch_nrf52840_xxAA_s140_6.0.0.dir/__/common/src/mesh_app_utils.c.obj
 .ARM.attributes
                0x00000000       0x39 examples/enocean_switch/CMakeFiles/enocean_switch_nrf52840_xxAA_s140_6.0.0.dir/__/common/src/mesh_app_utils.c.obj
 .text          0x00000000        0x0 examples/enocean_switch/CMakeFiles/enocean_switch_nrf52840_xxAA_s140_6.0.0.dir/__/nrf_mesh_weak.c.obj
 .data          0x00000000        0x0 examples/enocean_switch/CMakeFiles/enocean_switch_nrf52840_xxAA_s140_6.0.0.dir/__/nrf_mesh_weak.c.obj
 .bss           0x00000000        0x0 examples/enocean_switch/CMakeFiles/enocean_switch_nrf52840_xxAA_s140_6.0.0.dir/__/nrf_mesh_weak.c.obj
 .text._weak_handler_ptr
                0x00000000        0x4 examples/enocean_switch/CMakeFiles/enocean_switch_nrf52840_xxAA_s140_6.0.0.dir/__/nrf_mesh_weak.c.obj
 .text          0x00000000        0x0 examples/enocean_switch/CMakeFiles/enocean_switch_nrf52840_xxAA_s140_6.0.0.dir/__/common/src/app_error_weak.c.obj
 .data          0x00000000        0x0 examples/enocean_switch/CMakeFiles/enocean_switch_nrf52840_xxAA_s140_6.0.0.dir/__/common/src/app_error_weak.c.obj
 .bss           0x00000000        0x0 examples/enocean_switch/CMakeFiles/enocean_switch_nrf52840_xxAA_s140_6.0.0.dir/__/common/src/app_error_weak.c.obj
 .text          0x00000000        0x0 examples/enocean_switch/CMakeFiles/enocean_switch_nrf52840_xxAA_s140_6.0.0.dir/__/common/src/assertion_handler_weak.c.obj
 .data          0x00000000        0x0 examples/enocean_switch/CMakeFiles/enocean_switch_nrf52840_xxAA_s140_6.0.0.dir/__/common/src/assertion_handler_weak.c.obj
 .bss           0x00000000        0x0 examples/enocean_switch/CMakeFiles/enocean_switch_nrf52840_xxAA_s140_6.0.0.dir/__/common/src/assertion_handler_weak.c.obj
 .text          0x00000000        0x0 examples/enocean_switch/CMakeFiles/enocean_switch_nrf52840_xxAA_s140_6.0.0.dir/__/__/mesh/core/src/internal_event.c.obj
 .data          0x00000000        0x0 examples/enocean_switch/CMakeFiles/enocean_switch_nrf52840_xxAA_s140_6.0.0.dir/__/__/mesh/core/src/internal_event.c.obj
 .bss           0x00000000        0x0 examples/enocean_switch/CMakeFiles/enocean_switch_nrf52840_xxAA_s140_6.0.0.dir/__/__/mesh/core/src/internal_event.c.obj
 .debug_info    0x00000000      0x8f2 examples/enocean_switch/CMakeFiles/enocean_switch_nrf52840_xxAA_s140_6.0.0.dir/__/__/mesh/core/src/internal_event.c.obj
 .debug_abbrev  0x00000000      0x192 examples/enocean_switch/CMakeFiles/enocean_switch_nrf52840_xxAA_s140_6.0.0.dir/__/__/mesh/core/src/internal_event.c.obj
 .debug_aranges
                0x00000000       0x18 examples/enocean_switch/CMakeFiles/enocean_switch_nrf52840_xxAA_s140_6.0.0.dir/__/__/mesh/core/src/internal_event.c.obj
 .debug_line    0x00000000      0x1a6 examples/enocean_switch/CMakeFiles/enocean_switch_nrf52840_xxAA_s140_6.0.0.dir/__/__/mesh/core/src/internal_event.c.obj
 .debug_str     0x00000000      0x602 examples/enocean_switch/CMakeFiles/enocean_switch_nrf52840_xxAA_s140_6.0.0.dir/__/__/mesh/core/src/internal_event.c.obj
 .comment       0x00000000       0x80 examples/enocean_switch/CMakeFiles/enocean_switch_nrf52840_xxAA_s140_6.0.0.dir/__/__/mesh/core/src/internal_event.c.obj
 .ARM.attributes
                0x00000000       0x39 examples/enocean_switch/CMakeFiles/enocean_switch_nrf52840_xxAA_s140_6.0.0.dir/__/__/mesh/core/src/internal_event.c.obj
 .text          0x00000000        0x0 examples/enocean_switch/CMakeFiles/enocean_switch_nrf52840_xxAA_s140_6.0.0.dir/__/__/mesh/core/src/nrf_mesh_configure.c.obj
 .data          0x00000000        0x0 examples/enocean_switch/CMakeFiles/enocean_switch_nrf52840_xxAA_s140_6.0.0.dir/__/__/mesh/core/src/nrf_mesh_configure.c.obj
 .bss           0x00000000        0x0 examples/enocean_switch/CMakeFiles/enocean_switch_nrf52840_xxAA_s140_6.0.0.dir/__/__/mesh/core/src/nrf_mesh_configure.c.obj
 .text          0x00000000        0x0 examples/enocean_switch/CMakeFiles/enocean_switch_nrf52840_xxAA_s140_6.0.0.dir/__/__/mesh/core/src/aes.c.obj
 .data          0x00000000        0x0 examples/enocean_switch/CMakeFiles/enocean_switch_nrf52840_xxAA_s140_6.0.0.dir/__/__/mesh/core/src/aes.c.obj
 .bss           0x00000000        0x0 examples/enocean_switch/CMakeFiles/enocean_switch_nrf52840_xxAA_s140_6.0.0.dir/__/__/mesh/core/src/aes.c.obj
 .debug_info    0x00000000       0xb3 examples/enocean_switch/CMakeFiles/enocean_switch_nrf52840_xxAA_s140_6.0.0.dir/__/__/mesh/core/src/aes.c.obj
 .debug_abbrev  0x00000000       0x5c examples/enocean_switch/CMakeFiles/enocean_switch_nrf52840_xxAA_s140_6.0.0.dir/__/__/mesh/core/src/aes.c.obj
 .debug_aranges
                0x00000000       0x18 examples/enocean_switch/CMakeFiles/enocean_switch_nrf52840_xxAA_s140_6.0.0.dir/__/__/mesh/core/src/aes.c.obj
 .debug_line    0x00000000      0x127 examples/enocean_switch/CMakeFiles/enocean_switch_nrf52840_xxAA_s140_6.0.0.dir/__/__/mesh/core/src/aes.c.obj
 .debug_str     0x00000000      0x1f4 examples/enocean_switch/CMakeFiles/enocean_switch_nrf52840_xxAA_s140_6.0.0.dir/__/__/mesh/core/src/aes.c.obj
 .comment       0x00000000       0x80 examples/enocean_switch/CMakeFiles/enocean_switch_nrf52840_xxAA_s140_6.0.0.dir/__/__/mesh/core/src/aes.c.obj
 .ARM.attributes
                0x00000000       0x39 examples/enocean_switch/CMakeFiles/enocean_switch_nrf52840_xxAA_s140_6.0.0.dir/__/__/mesh/core/src/aes.c.obj
 .text          0x00000000        0x0 examples/enocean_switch/CMakeFiles/enocean_switch_nrf52840_xxAA_s140_6.0.0.dir/__/__/mesh/core/src/msg_cache.c.obj
 .data          0x00000000        0x0 examples/enocean_switch/CMakeFiles/enocean_switch_nrf52840_xxAA_s140_6.0.0.dir/__/__/mesh/core/src/msg_cache.c.obj
 .bss           0x00000000        0x0 examples/enocean_switch/CMakeFiles/enocean_switch_nrf52840_xxAA_s140_6.0.0.dir/__/__/mesh/core/src/msg_cache.c.obj
 .text.msg_cache_clear
                0x00000000       0x18 examples/enocean_switch/CMakeFiles/enocean_switch_nrf52840_xxAA_s140_6.0.0.dir/__/__/mesh/core/src/msg_cache.c.obj
 .text          0x00000000        0x0 examples/enocean_switch/CMakeFiles/enocean_switch_nrf52840_xxAA_s140_6.0.0.dir/__/__/mesh/core/src/transport.c.obj
 .data          0x00000000        0x0 examples/enocean_switch/CMakeFiles/enocean_switch_nrf52840_xxAA_s140_6.0.0.dir/__/__/mesh/core/src/transport.c.obj
 .bss           0x00000000        0x0 examples/enocean_switch/CMakeFiles/enocean_switch_nrf52840_xxAA_s140_6.0.0.dir/__/__/mesh/core/src/transport.c.obj
 .text.transport_sar_mem_funcs_set
                0x00000000       0x44 examples/enocean_switch/CMakeFiles/enocean_switch_nrf52840_xxAA_s140_6.0.0.dir/__/__/mesh/core/src/transport.c.obj
 .text          0x00000000        0x0 examples/enocean_switch/CMakeFiles/enocean_switch_nrf52840_xxAA_s140_6.0.0.dir/__/__/mesh/core/src/event.c.obj
 .data          0x00000000        0x0 examples/enocean_switch/CMakeFiles/enocean_switch_nrf52840_xxAA_s140_6.0.0.dir/__/__/mesh/core/src/event.c.obj
 .bss           0x00000000        0x0 examples/enocean_switch/CMakeFiles/enocean_switch_nrf52840_xxAA_s140_6.0.0.dir/__/__/mesh/core/src/event.c.obj
 .text          0x00000000        0x0 examples/enocean_switch/CMakeFiles/enocean_switch_nrf52840_xxAA_s140_6.0.0.dir/__/__/mesh/core/src/packet_buffer.c.obj
 .data          0x00000000        0x0 examples/enocean_switch/CMakeFiles/enocean_switch_nrf52840_xxAA_s140_6.0.0.dir/__/__/mesh/core/src/packet_buffer.c.obj
 .bss           0x00000000        0x0 examples/enocean_switch/CMakeFiles/enocean_switch_nrf52840_xxAA_s140_6.0.0.dir/__/__/mesh/core/src/packet_buffer.c.obj
 .text.packet_buffer_max_packet_len_get
                0x00000000       0x20 examples/enocean_switch/CMakeFiles/enocean_switch_nrf52840_xxAA_s140_6.0.0.dir/__/__/mesh/core/src/packet_buffer.c.obj
 .text          0x00000000        0x0 examples/enocean_switch/CMakeFiles/enocean_switch_nrf52840_xxAA_s140_6.0.0.dir/__/__/mesh/core/src/flash_manager_defrag.c.obj
 .data          0x00000000        0x0 examples/enocean_switch/CMakeFiles/enocean_switch_nrf52840_xxAA_s140_6.0.0.dir/__/__/mesh/core/src/flash_manager_defrag.c.obj
 .bss           0x00000000        0x0 examples/enocean_switch/CMakeFiles/enocean_switch_nrf52840_xxAA_s140_6.0.0.dir/__/__/mesh/core/src/flash_manager_defrag.c.obj
 .text.flash_manager_defragging
                0x00000000       0x38 examples/enocean_switch/CMakeFiles/enocean_switch_nrf52840_xxAA_s140_6.0.0.dir/__/__/mesh/core/src/flash_manager_defrag.c.obj
 .text          0x00000000        0x0 examples/enocean_switch/CMakeFiles/enocean_switch_nrf52840_xxAA_s140_6.0.0.dir/__/__/mesh/core/src/fifo.c.obj
 .data          0x00000000        0x0 examples/enocean_switch/CMakeFiles/enocean_switch_nrf52840_xxAA_s140_6.0.0.dir/__/__/mesh/core/src/fifo.c.obj
 .bss           0x00000000        0x0 examples/enocean_switch/CMakeFiles/enocean_switch_nrf52840_xxAA_s140_6.0.0.dir/__/__/mesh/core/src/fifo.c.obj
 .text.fifo_peek_at
                0x00000000       0x50 examples/enocean_switch/CMakeFiles/enocean_switch_nrf52840_xxAA_s140_6.0.0.dir/__/__/mesh/core/src/fifo.c.obj
 .text.fifo_peek
                0x00000000        0x6 examples/enocean_switch/CMakeFiles/enocean_switch_nrf52840_xxAA_s140_6.0.0.dir/__/__/mesh/core/src/fifo.c.obj
 .text.fifo_flush
                0x00000000        0x6 examples/enocean_switch/CMakeFiles/enocean_switch_nrf52840_xxAA_s140_6.0.0.dir/__/__/mesh/core/src/fifo.c.obj
 .text.fifo_get_len
                0x00000000        0x8 examples/enocean_switch/CMakeFiles/enocean_switch_nrf52840_xxAA_s140_6.0.0.dir/__/__/mesh/core/src/fifo.c.obj
 .text.fifo_is_full
                0x00000000       0x10 examples/enocean_switch/CMakeFiles/enocean_switch_nrf52840_xxAA_s140_6.0.0.dir/__/__/mesh/core/src/fifo.c.obj
 .text.fifo_is_empty
                0x00000000        0xc examples/enocean_switch/CMakeFiles/enocean_switch_nrf52840_xxAA_s140_6.0.0.dir/__/__/mesh/core/src/fifo.c.obj
 .text          0x00000000        0x0 examples/enocean_switch/CMakeFiles/enocean_switch_nrf52840_xxAA_s140_6.0.0.dir/__/__/mesh/core/src/nrf_flash.c.obj
 .data          0x00000000        0x0 examples/enocean_switch/CMakeFiles/enocean_switch_nrf52840_xxAA_s140_6.0.0.dir/__/__/mesh/core/src/nrf_flash.c.obj
 .bss           0x00000000        0x0 examples/enocean_switch/CMakeFiles/enocean_switch_nrf52840_xxAA_s140_6.0.0.dir/__/__/mesh/core/src/nrf_flash.c.obj
 .text          0x00000000        0x0 examples/enocean_switch/CMakeFiles/enocean_switch_nrf52840_xxAA_s140_6.0.0.dir/__/__/mesh/core/src/packet_mgr.c.obj
 .data          0x00000000        0x0 examples/enocean_switch/CMakeFiles/enocean_switch_nrf52840_xxAA_s140_6.0.0.dir/__/__/mesh/core/src/packet_mgr.c.obj
 .bss           0x00000000        0x0 examples/enocean_switch/CMakeFiles/enocean_switch_nrf52840_xxAA_s140_6.0.0.dir/__/__/mesh/core/src/packet_mgr.c.obj
 .text.packet_mgr_alloc
                0x00000000      0x17c examples/enocean_switch/CMakeFiles/enocean_switch_nrf52840_xxAA_s140_6.0.0.dir/__/__/mesh/core/src/packet_mgr.c.obj
 .text.packet_mgr_free
                0x00000000       0x58 examples/enocean_switch/CMakeFiles/enocean_switch_nrf52840_xxAA_s140_6.0.0.dir/__/__/mesh/core/src/packet_mgr.c.obj
 .text.packet_mgr_get_free_space
                0x00000000       0x1c examples/enocean_switch/CMakeFiles/enocean_switch_nrf52840_xxAA_s140_6.0.0.dir/__/__/mesh/core/src/packet_mgr.c.obj
 .text.packet_mgr_refcount_get
                0x00000000        0x6 examples/enocean_switch/CMakeFiles/enocean_switch_nrf52840_xxAA_s140_6.0.0.dir/__/__/mesh/core/src/packet_mgr.c.obj
 .text.packet_mgr_size_get
                0x00000000        0x6 examples/enocean_switch/CMakeFiles/enocean_switch_nrf52840_xxAA_s140_6.0.0.dir/__/__/mesh/core/src/packet_mgr.c.obj
 .text          0x00000000        0x0 examples/enocean_switch/CMakeFiles/enocean_switch_nrf52840_xxAA_s140_6.0.0.dir/__/__/mesh/core/src/net_state.c.obj
 .data          0x00000000        0x0 examples/enocean_switch/CMakeFiles/enocean_switch_nrf52840_xxAA_s140_6.0.0.dir/__/__/mesh/core/src/net_state.c.obj
 .bss           0x00000000        0x0 examples/enocean_switch/CMakeFiles/enocean_switch_nrf52840_xxAA_s140_6.0.0.dir/__/__/mesh/core/src/net_state.c.obj
 .text.net_state_iv_update_test_mode_set
                0x00000000        0xc examples/enocean_switch/CMakeFiles/enocean_switch_nrf52840_xxAA_s140_6.0.0.dir/__/__/mesh/core/src/net_state.c.obj
 .text.net_state_test_mode_transition_run
                0x00000000       0x2c examples/enocean_switch/CMakeFiles/enocean_switch_nrf52840_xxAA_s140_6.0.0.dir/__/__/mesh/core/src/net_state.c.obj
 .text          0x00000000        0x0 examples/enocean_switch/CMakeFiles/enocean_switch_nrf52840_xxAA_s140_6.0.0.dir/__/__/mesh/core/src/mesh_flash.c.obj
 .data          0x00000000        0x0 examples/enocean_switch/CMakeFiles/enocean_switch_nrf52840_xxAA_s140_6.0.0.dir/__/__/mesh/core/src/mesh_flash.c.obj
 .bss           0x00000000        0x0 examples/enocean_switch/CMakeFiles/enocean_switch_nrf52840_xxAA_s140_6.0.0.dir/__/__/mesh/core/src/mesh_flash.c.obj
 .text.mesh_flash_op_available_slots
                0x00000000       0x2c examples/enocean_switch/CMakeFiles/enocean_switch_nrf52840_xxAA_s140_6.0.0.dir/__/__/mesh/core/src/mesh_flash.c.obj
 .text.mesh_flash_in_progress
                0x00000000       0x34 examples/enocean_switch/CMakeFiles/enocean_switch_nrf52840_xxAA_s140_6.0.0.dir/__/__/mesh/core/src/mesh_flash.c.obj
 .text.mesh_flash_set_suspended
                0x00000000       0x74 examples/enocean_switch/CMakeFiles/enocean_switch_nrf52840_xxAA_s140_6.0.0.dir/__/__/mesh/core/src/mesh_flash.c.obj
 .bss.suspend_count.10421
                0x00000000        0x4 examples/enocean_switch/CMakeFiles/enocean_switch_nrf52840_xxAA_s140_6.0.0.dir/__/__/mesh/core/src/mesh_flash.c.obj
 .text          0x00000000        0x0 examples/enocean_switch/CMakeFiles/enocean_switch_nrf52840_xxAA_s140_6.0.0.dir/__/__/mesh/core/src/nrf_mesh_utils.c.obj
 .data          0x00000000        0x0 examples/enocean_switch/CMakeFiles/enocean_switch_nrf52840_xxAA_s140_6.0.0.dir/__/__/mesh/core/src/nrf_mesh_utils.c.obj
 .bss           0x00000000        0x0 examples/enocean_switch/CMakeFiles/enocean_switch_nrf52840_xxAA_s140_6.0.0.dir/__/__/mesh/core/src/nrf_mesh_utils.c.obj
 .text.nrf_mesh_rand_get
                0x00000000       0x10 examples/enocean_switch/CMakeFiles/enocean_switch_nrf52840_xxAA_s140_6.0.0.dir/__/__/mesh/core/src/nrf_mesh_utils.c.obj
 .text.nrf_mesh_gap_address_type_get
                0x00000000       0x30 examples/enocean_switch/CMakeFiles/enocean_switch_nrf52840_xxAA_s140_6.0.0.dir/__/__/mesh/core/src/nrf_mesh_utils.c.obj
 .text          0x00000000        0x0 examples/enocean_switch/CMakeFiles/enocean_switch_nrf52840_xxAA_s140_6.0.0.dir/__/__/mesh/core/src/nrf_mesh.c.obj
 .data          0x00000000        0x0 examples/enocean_switch/CMakeFiles/enocean_switch_nrf52840_xxAA_s140_6.0.0.dir/__/__/mesh/core/src/nrf_mesh.c.obj
 .bss           0x00000000        0x0 examples/enocean_switch/CMakeFiles/enocean_switch_nrf52840_xxAA_s140_6.0.0.dir/__/__/mesh/core/src/nrf_mesh.c.obj
 .text.nrf_mesh_disable
                0x00000000       0x28 examples/enocean_switch/CMakeFiles/enocean_switch_nrf52840_xxAA_s140_6.0.0.dir/__/__/mesh/core/src/nrf_mesh.c.obj
 .text.nrf_mesh_process
                0x00000000        0x4 examples/enocean_switch/CMakeFiles/enocean_switch_nrf52840_xxAA_s140_6.0.0.dir/__/__/mesh/core/src/nrf_mesh.c.obj
 .text.nrf_mesh_evt_handler_remove
                0x00000000        0x4 examples/enocean_switch/CMakeFiles/enocean_switch_nrf52840_xxAA_s140_6.0.0.dir/__/__/mesh/core/src/nrf_mesh.c.obj
 .text.nrf_mesh_rx_cb_clear
                0x00000000        0xc examples/enocean_switch/CMakeFiles/enocean_switch_nrf52840_xxAA_s140_6.0.0.dir/__/__/mesh/core/src/nrf_mesh.c.obj
 .text          0x00000000        0x0 examples/enocean_switch/CMakeFiles/enocean_switch_nrf52840_xxAA_s140_6.0.0.dir/__/__/mesh/core/src/queue.c.obj
 .data          0x00000000        0x0 examples/enocean_switch/CMakeFiles/enocean_switch_nrf52840_xxAA_s140_6.0.0.dir/__/__/mesh/core/src/queue.c.obj
 .bss           0x00000000        0x0 examples/enocean_switch/CMakeFiles/enocean_switch_nrf52840_xxAA_s140_6.0.0.dir/__/__/mesh/core/src/queue.c.obj
 .text          0x00000000        0x0 examples/enocean_switch/CMakeFiles/enocean_switch_nrf52840_xxAA_s140_6.0.0.dir/__/__/mesh/core/src/hal.c.obj
 .data          0x00000000        0x0 examples/enocean_switch/CMakeFiles/enocean_switch_nrf52840_xxAA_s140_6.0.0.dir/__/__/mesh/core/src/hal.c.obj
 .bss           0x00000000        0x0 examples/enocean_switch/CMakeFiles/enocean_switch_nrf52840_xxAA_s140_6.0.0.dir/__/__/mesh/core/src/hal.c.obj
 .text          0x00000000        0x0 examples/enocean_switch/CMakeFiles/enocean_switch_nrf52840_xxAA_s140_6.0.0.dir/__/__/mesh/core/src/aes_cmac.c.obj
 .data          0x00000000        0x0 examples/enocean_switch/CMakeFiles/enocean_switch_nrf52840_xxAA_s140_6.0.0.dir/__/__/mesh/core/src/aes_cmac.c.obj
 .bss           0x00000000        0x0 examples/enocean_switch/CMakeFiles/enocean_switch_nrf52840_xxAA_s140_6.0.0.dir/__/__/mesh/core/src/aes_cmac.c.obj
 .text          0x00000000        0x0 examples/enocean_switch/CMakeFiles/enocean_switch_nrf52840_xxAA_s140_6.0.0.dir/__/__/mesh/core/src/timer_scheduler.c.obj
 .data          0x00000000        0x0 examples/enocean_switch/CMakeFiles/enocean_switch_nrf52840_xxAA_s140_6.0.0.dir/__/__/mesh/core/src/timer_scheduler.c.obj
 .bss           0x00000000        0x0 examples/enocean_switch/CMakeFiles/enocean_switch_nrf52840_xxAA_s140_6.0.0.dir/__/__/mesh/core/src/timer_scheduler.c.obj
 .text          0x00000000        0x0 examples/enocean_switch/CMakeFiles/enocean_switch_nrf52840_xxAA_s140_6.0.0.dir/__/__/mesh/core/src/timer.c.obj
 .data          0x00000000        0x0 examples/enocean_switch/CMakeFiles/enocean_switch_nrf52840_xxAA_s140_6.0.0.dir/__/__/mesh/core/src/timer.c.obj
 .bss           0x00000000        0x0 examples/enocean_switch/CMakeFiles/enocean_switch_nrf52840_xxAA_s140_6.0.0.dir/__/__/mesh/core/src/timer.c.obj
 .text.timer_order_cb_ppi
                0x00000000       0xc4 examples/enocean_switch/CMakeFiles/enocean_switch_nrf52840_xxAA_s140_6.0.0.dir/__/__/mesh/core/src/timer.c.obj
 .text.timer_order_ppi
                0x00000000       0xc0 examples/enocean_switch/CMakeFiles/enocean_switch_nrf52840_xxAA_s140_6.0.0.dir/__/__/mesh/core/src/timer.c.obj
 .text.timer_abort
                0x00000000       0x78 examples/enocean_switch/CMakeFiles/enocean_switch_nrf52840_xxAA_s140_6.0.0.dir/__/__/mesh/core/src/timer.c.obj
 .text          0x00000000        0x0 examples/enocean_switch/CMakeFiles/enocean_switch_nrf52840_xxAA_s140_6.0.0.dir/__/__/mesh/core/src/ticker.c.obj
 .data          0x00000000        0x0 examples/enocean_switch/CMakeFiles/enocean_switch_nrf52840_xxAA_s140_6.0.0.dir/__/__/mesh/core/src/ticker.c.obj
 .bss           0x00000000        0x0 examples/enocean_switch/CMakeFiles/enocean_switch_nrf52840_xxAA_s140_6.0.0.dir/__/__/mesh/core/src/ticker.c.obj
 .text.ticker_get
                0x00000000        0xc examples/enocean_switch/CMakeFiles/enocean_switch_nrf52840_xxAA_s140_6.0.0.dir/__/__/mesh/core/src/ticker.c.obj
 .text          0x00000000        0x0 examples/enocean_switch/CMakeFiles/enocean_switch_nrf52840_xxAA_s140_6.0.0.dir/__/__/mesh/core/src/rand.c.obj
 .data          0x00000000        0x0 examples/enocean_switch/CMakeFiles/enocean_switch_nrf52840_xxAA_s140_6.0.0.dir/__/__/mesh/core/src/rand.c.obj
 .bss           0x00000000        0x0 examples/enocean_switch/CMakeFiles/enocean_switch_nrf52840_xxAA_s140_6.0.0.dir/__/__/mesh/core/src/rand.c.obj
 .text          0x00000000        0x0 examples/enocean_switch/CMakeFiles/enocean_switch_nrf52840_xxAA_s140_6.0.0.dir/__/__/mesh/core/src/nrf_mesh_opt.c.obj
 .data          0x00000000        0x0 examples/enocean_switch/CMakeFiles/enocean_switch_nrf52840_xxAA_s140_6.0.0.dir/__/__/mesh/core/src/nrf_mesh_opt.c.obj
 .bss           0x00000000        0x0 examples/enocean_switch/CMakeFiles/enocean_switch_nrf52840_xxAA_s140_6.0.0.dir/__/__/mesh/core/src/nrf_mesh_opt.c.obj
 .text          0x00000000        0x0 examples/enocean_switch/CMakeFiles/enocean_switch_nrf52840_xxAA_s140_6.0.0.dir/__/__/mesh/core/src/timeslot.c.obj
 .data          0x00000000        0x0 examples/enocean_switch/CMakeFiles/enocean_switch_nrf52840_xxAA_s140_6.0.0.dir/__/__/mesh/core/src/timeslot.c.obj
 .bss           0x00000000        0x0 examples/enocean_switch/CMakeFiles/enocean_switch_nrf52840_xxAA_s140_6.0.0.dir/__/__/mesh/core/src/timeslot.c.obj
 .text.timeslot_end_time_get
                0x00000000       0x10 examples/enocean_switch/CMakeFiles/enocean_switch_nrf52840_xxAA_s140_6.0.0.dir/__/__/mesh/core/src/timeslot.c.obj
 .text.timeslot_is_in_ts
                0x00000000        0xc examples/enocean_switch/CMakeFiles/enocean_switch_nrf52840_xxAA_s140_6.0.0.dir/__/__/mesh/core/src/timeslot.c.obj
 .text.timeslot_restart
                0x00000000       0x10 examples/enocean_switch/CMakeFiles/enocean_switch_nrf52840_xxAA_s140_6.0.0.dir/__/__/mesh/core/src/timeslot.c.obj
 .text          0x00000000        0x0 examples/enocean_switch/CMakeFiles/enocean_switch_nrf52840_xxAA_s140_6.0.0.dir/__/__/mesh/core/src/bearer_event.c.obj
 .data          0x00000000        0x0 examples/enocean_switch/CMakeFiles/enocean_switch_nrf52840_xxAA_s140_6.0.0.dir/__/__/mesh/core/src/bearer_event.c.obj
 .bss           0x00000000        0x0 examples/enocean_switch/CMakeFiles/enocean_switch_nrf52840_xxAA_s140_6.0.0.dir/__/__/mesh/core/src/bearer_event.c.obj
 .text.bearer_event_generic_post
                0x00000000       0x24 examples/enocean_switch/CMakeFiles/enocean_switch_nrf52840_xxAA_s140_6.0.0.dir/__/__/mesh/core/src/bearer_event.c.obj
 .text.bearer_event_timer_sch_post
                0x00000000       0x26 examples/enocean_switch/CMakeFiles/enocean_switch_nrf52840_xxAA_s140_6.0.0.dir/__/__/mesh/core/src/bearer_event.c.obj
 .text.bearer_event_in_correct_irq_priority
                0x00000000       0x48 examples/enocean_switch/CMakeFiles/enocean_switch_nrf52840_xxAA_s140_6.0.0.dir/__/__/mesh/core/src/bearer_event.c.obj
 .text          0x00000000        0x0 examples/enocean_switch/CMakeFiles/enocean_switch_nrf52840_xxAA_s140_6.0.0.dir/__/__/mesh/core/src/enc.c.obj
 .data          0x00000000        0x0 examples/enocean_switch/CMakeFiles/enocean_switch_nrf52840_xxAA_s140_6.0.0.dir/__/__/mesh/core/src/enc.c.obj
 .bss           0x00000000        0x0 examples/enocean_switch/CMakeFiles/enocean_switch_nrf52840_xxAA_s140_6.0.0.dir/__/__/mesh/core/src/enc.c.obj
 .text.enc_key_generate
                0x00000000        0x6 examples/enocean_switch/CMakeFiles/enocean_switch_nrf52840_xxAA_s140_6.0.0.dir/__/__/mesh/core/src/enc.c.obj
 .text          0x00000000        0x0 examples/enocean_switch/CMakeFiles/enocean_switch_nrf52840_xxAA_s140_6.0.0.dir/__/__/mesh/core/src/network.c.obj
 .data          0x00000000        0x0 examples/enocean_switch/CMakeFiles/enocean_switch_nrf52840_xxAA_s140_6.0.0.dir/__/__/mesh/core/src/network.c.obj
 .bss           0x00000000        0x0 examples/enocean_switch/CMakeFiles/enocean_switch_nrf52840_xxAA_s140_6.0.0.dir/__/__/mesh/core/src/network.c.obj
 .text.network_packet_discard
                0x00000000       0x1e examples/enocean_switch/CMakeFiles/enocean_switch_nrf52840_xxAA_s140_6.0.0.dir/__/__/mesh/core/src/network.c.obj
 .text          0x00000000        0x0 examples/enocean_switch/CMakeFiles/enocean_switch_nrf52840_xxAA_s140_6.0.0.dir/__/__/mesh/core/src/net_packet.c.obj
 .data          0x00000000        0x0 examples/enocean_switch/CMakeFiles/enocean_switch_nrf52840_xxAA_s140_6.0.0.dir/__/__/mesh/core/src/net_packet.c.obj
 .bss           0x00000000        0x0 examples/enocean_switch/CMakeFiles/enocean_switch_nrf52840_xxAA_s140_6.0.0.dir/__/__/mesh/core/src/net_packet.c.obj
 .text.net_packet_enc_start_get
                0x00000000        0x4 examples/enocean_switch/CMakeFiles/enocean_switch_nrf52840_xxAA_s140_6.0.0.dir/__/__/mesh/core/src/net_packet.c.obj
 .text.net_packet_payload_get
                0x00000000        0x4 examples/enocean_switch/CMakeFiles/enocean_switch_nrf52840_xxAA_s140_6.0.0.dir/__/__/mesh/core/src/net_packet.c.obj
 .text          0x00000000        0x0 examples/enocean_switch/CMakeFiles/enocean_switch_nrf52840_xxAA_s140_6.0.0.dir/__/__/mesh/core/src/msqueue.c.obj
 .data          0x00000000        0x0 examples/enocean_switch/CMakeFiles/enocean_switch_nrf52840_xxAA_s140_6.0.0.dir/__/__/mesh/core/src/msqueue.c.obj
 .bss           0x00000000        0x0 examples/enocean_switch/CMakeFiles/enocean_switch_nrf52840_xxAA_s140_6.0.0.dir/__/__/mesh/core/src/msqueue.c.obj
 .text          0x00000000        0x0 examples/enocean_switch/CMakeFiles/enocean_switch_nrf52840_xxAA_s140_6.0.0.dir/__/__/mesh/core/src/nrf_mesh_keygen.c.obj
 .data          0x00000000        0x0 examples/enocean_switch/CMakeFiles/enocean_switch_nrf52840_xxAA_s140_6.0.0.dir/__/__/mesh/core/src/nrf_mesh_keygen.c.obj
 .bss           0x00000000        0x0 examples/enocean_switch/CMakeFiles/enocean_switch_nrf52840_xxAA_s140_6.0.0.dir/__/__/mesh/core/src/nrf_mesh_keygen.c.obj
 .text.nrf_mesh_keygen_identitykey
                0x00000000       0x4c examples/enocean_switch/CMakeFiles/enocean_switch_nrf52840_xxAA_s140_6.0.0.dir/__/__/mesh/core/src/nrf_mesh_keygen.c.obj
 .text          0x00000000        0x0 examples/enocean_switch/CMakeFiles/enocean_switch_nrf52840_xxAA_s140_6.0.0.dir/__/__/mesh/core/src/cache.c.obj
 .data          0x00000000        0x0 examples/enocean_switch/CMakeFiles/enocean_switch_nrf52840_xxAA_s140_6.0.0.dir/__/__/mesh/core/src/cache.c.obj
 .bss           0x00000000        0x0 examples/enocean_switch/CMakeFiles/enocean_switch_nrf52840_xxAA_s140_6.0.0.dir/__/__/mesh/core/src/cache.c.obj
 .text.erase_at
                0x00000000       0x1c examples/enocean_switch/CMakeFiles/enocean_switch_nrf52840_xxAA_s140_6.0.0.dir/__/__/mesh/core/src/cache.c.obj
 .text.cache_init
                0x00000000       0x1e examples/enocean_switch/CMakeFiles/enocean_switch_nrf52840_xxAA_s140_6.0.0.dir/__/__/mesh/core/src/cache.c.obj
 .text.cache_has_elem
                0x00000000       0x3e examples/enocean_switch/CMakeFiles/enocean_switch_nrf52840_xxAA_s140_6.0.0.dir/__/__/mesh/core/src/cache.c.obj
 .text.cache_put
                0x00000000       0x2a examples/enocean_switch/CMakeFiles/enocean_switch_nrf52840_xxAA_s140_6.0.0.dir/__/__/mesh/core/src/cache.c.obj
 .text.cache_erase_elem
                0x00000000       0x4c examples/enocean_switch/CMakeFiles/enocean_switch_nrf52840_xxAA_s140_6.0.0.dir/__/__/mesh/core/src/cache.c.obj
 .debug_info    0x00000000      0xbe1 examples/enocean_switch/CMakeFiles/enocean_switch_nrf52840_xxAA_s140_6.0.0.dir/__/__/mesh/core/src/cache.c.obj
 .debug_abbrev  0x00000000      0x2a3 examples/enocean_switch/CMakeFiles/enocean_switch_nrf52840_xxAA_s140_6.0.0.dir/__/__/mesh/core/src/cache.c.obj
 .debug_loc     0x00000000      0x29b examples/enocean_switch/CMakeFiles/enocean_switch_nrf52840_xxAA_s140_6.0.0.dir/__/__/mesh/core/src/cache.c.obj
 .debug_aranges
                0x00000000       0x40 examples/enocean_switch/CMakeFiles/enocean_switch_nrf52840_xxAA_s140_6.0.0.dir/__/__/mesh/core/src/cache.c.obj
 .debug_ranges  0x00000000       0x80 examples/enocean_switch/CMakeFiles/enocean_switch_nrf52840_xxAA_s140_6.0.0.dir/__/__/mesh/core/src/cache.c.obj
 .debug_line    0x00000000      0x21e examples/enocean_switch/CMakeFiles/enocean_switch_nrf52840_xxAA_s140_6.0.0.dir/__/__/mesh/core/src/cache.c.obj
 .debug_str     0x00000000      0x6af examples/enocean_switch/CMakeFiles/enocean_switch_nrf52840_xxAA_s140_6.0.0.dir/__/__/mesh/core/src/cache.c.obj
 .comment       0x00000000       0x80 examples/enocean_switch/CMakeFiles/enocean_switch_nrf52840_xxAA_s140_6.0.0.dir/__/__/mesh/core/src/cache.c.obj
 .debug_frame   0x00000000       0xb0 examples/enocean_switch/CMakeFiles/enocean_switch_nrf52840_xxAA_s140_6.0.0.dir/__/__/mesh/core/src/cache.c.obj
 .ARM.attributes
                0x00000000       0x39 examples/enocean_switch/CMakeFiles/enocean_switch_nrf52840_xxAA_s140_6.0.0.dir/__/__/mesh/core/src/cache.c.obj
 .text          0x00000000        0x0 examples/enocean_switch/CMakeFiles/enocean_switch_nrf52840_xxAA_s140_6.0.0.dir/__/__/mesh/core/src/list.c.obj
 .data          0x00000000        0x0 examples/enocean_switch/CMakeFiles/enocean_switch_nrf52840_xxAA_s140_6.0.0.dir/__/__/mesh/core/src/list.c.obj
 .bss           0x00000000        0x0 examples/enocean_switch/CMakeFiles/enocean_switch_nrf52840_xxAA_s140_6.0.0.dir/__/__/mesh/core/src/list.c.obj
 .text.list_size_get
                0x00000000       0x12 examples/enocean_switch/CMakeFiles/enocean_switch_nrf52840_xxAA_s140_6.0.0.dir/__/__/mesh/core/src/list.c.obj
 .text.list_sorted_add
                0x00000000       0x6c examples/enocean_switch/CMakeFiles/enocean_switch_nrf52840_xxAA_s140_6.0.0.dir/__/__/mesh/core/src/list.c.obj
 .text          0x00000000        0x0 examples/enocean_switch/CMakeFiles/enocean_switch_nrf52840_xxAA_s140_6.0.0.dir/__/__/mesh/core/src/log.c.obj
 .data          0x00000000        0x0 examples/enocean_switch/CMakeFiles/enocean_switch_nrf52840_xxAA_s140_6.0.0.dir/__/__/mesh/core/src/log.c.obj
 .bss           0x00000000        0x0 examples/enocean_switch/CMakeFiles/enocean_switch_nrf52840_xxAA_s140_6.0.0.dir/__/__/mesh/core/src/log.c.obj
 .text.log_callback_logview
                0x00000000       0x38 examples/enocean_switch/CMakeFiles/enocean_switch_nrf52840_xxAA_s140_6.0.0.dir/__/__/mesh/core/src/log.c.obj
 .text.log_set_callback
                0x00000000        0xc examples/enocean_switch/CMakeFiles/enocean_switch_nrf52840_xxAA_s140_6.0.0.dir/__/__/mesh/core/src/log.c.obj
 .rodata.log_callback_logview.str1.1
                0x00000000        0xf examples/enocean_switch/CMakeFiles/enocean_switch_nrf52840_xxAA_s140_6.0.0.dir/__/__/mesh/core/src/log.c.obj
 .text          0x00000000        0x0 examples/enocean_switch/CMakeFiles/enocean_switch_nrf52840_xxAA_s140_6.0.0.dir/__/__/mesh/core/src/flash_manager.c.obj
 .data          0x00000000        0x0 examples/enocean_switch/CMakeFiles/enocean_switch_nrf52840_xxAA_s140_6.0.0.dir/__/__/mesh/core/src/flash_manager.c.obj
 .bss           0x00000000        0x0 examples/enocean_switch/CMakeFiles/enocean_switch_nrf52840_xxAA_s140_6.0.0.dir/__/__/mesh/core/src/flash_manager.c.obj
 .text.flash_manager_entry_count_get
                0x00000000       0x50 examples/enocean_switch/CMakeFiles/enocean_switch_nrf52840_xxAA_s140_6.0.0.dir/__/__/mesh/core/src/flash_manager.c.obj
 .text.flash_manager_entry_release
                0x00000000       0x2c examples/enocean_switch/CMakeFiles/enocean_switch_nrf52840_xxAA_s140_6.0.0.dir/__/__/mesh/core/src/flash_manager.c.obj
 .text          0x00000000        0x0 examples/enocean_switch/CMakeFiles/enocean_switch_nrf52840_xxAA_s140_6.0.0.dir/__/__/mesh/core/src/ccm_soft.c.obj
 .data          0x00000000        0x0 examples/enocean_switch/CMakeFiles/enocean_switch_nrf52840_xxAA_s140_6.0.0.dir/__/__/mesh/core/src/ccm_soft.c.obj
 .bss           0x00000000        0x0 examples/enocean_switch/CMakeFiles/enocean_switch_nrf52840_xxAA_s140_6.0.0.dir/__/__/mesh/core/src/ccm_soft.c.obj
 .text          0x00000000        0x0 examples/enocean_switch/CMakeFiles/enocean_switch_nrf52840_xxAA_s140_6.0.0.dir/__/__/mesh/core/src/toolchain.c.obj
 .data          0x00000000        0x0 examples/enocean_switch/CMakeFiles/enocean_switch_nrf52840_xxAA_s140_6.0.0.dir/__/__/mesh/core/src/toolchain.c.obj
 .bss           0x00000000        0x0 examples/enocean_switch/CMakeFiles/enocean_switch_nrf52840_xxAA_s140_6.0.0.dir/__/__/mesh/core/src/toolchain.c.obj
 .debug_info    0x00000000       0xb3 examples/enocean_switch/CMakeFiles/enocean_switch_nrf52840_xxAA_s140_6.0.0.dir/__/__/mesh/core/src/toolchain.c.obj
 .debug_abbrev  0x00000000       0x5c examples/enocean_switch/CMakeFiles/enocean_switch_nrf52840_xxAA_s140_6.0.0.dir/__/__/mesh/core/src/toolchain.c.obj
 .debug_aranges
                0x00000000       0x18 examples/enocean_switch/CMakeFiles/enocean_switch_nrf52840_xxAA_s140_6.0.0.dir/__/__/mesh/core/src/toolchain.c.obj
 .debug_line    0x00000000      0x127 examples/enocean_switch/CMakeFiles/enocean_switch_nrf52840_xxAA_s140_6.0.0.dir/__/__/mesh/core/src/toolchain.c.obj
 .debug_str     0x00000000      0x1fa examples/enocean_switch/CMakeFiles/enocean_switch_nrf52840_xxAA_s140_6.0.0.dir/__/__/mesh/core/src/toolchain.c.obj
 .comment       0x00000000       0x80 examples/enocean_switch/CMakeFiles/enocean_switch_nrf52840_xxAA_s140_6.0.0.dir/__/__/mesh/core/src/toolchain.c.obj
 .ARM.attributes
                0x00000000       0x39 examples/enocean_switch/CMakeFiles/enocean_switch_nrf52840_xxAA_s140_6.0.0.dir/__/__/mesh/core/src/toolchain.c.obj
 .text          0x00000000        0x0 examples/enocean_switch/CMakeFiles/enocean_switch_nrf52840_xxAA_s140_6.0.0.dir/__/__/mesh/core/src/replay_cache.c.obj
 .data          0x00000000        0x0 examples/enocean_switch/CMakeFiles/enocean_switch_nrf52840_xxAA_s140_6.0.0.dir/__/__/mesh/core/src/replay_cache.c.obj
 .bss           0x00000000        0x0 examples/enocean_switch/CMakeFiles/enocean_switch_nrf52840_xxAA_s140_6.0.0.dir/__/__/mesh/core/src/replay_cache.c.obj
 .text.replay_cache_on_iv_update
                0x00000000       0x24 examples/enocean_switch/CMakeFiles/enocean_switch_nrf52840_xxAA_s140_6.0.0.dir/__/__/mesh/core/src/replay_cache.c.obj
 .text          0x00000000        0x0 examples/enocean_switch/CMakeFiles/enocean_switch_nrf52840_xxAA_s140_6.0.0.dir/__/__/mesh/core/src/beacon.c.obj
 .data          0x00000000        0x0 examples/enocean_switch/CMakeFiles/enocean_switch_nrf52840_xxAA_s140_6.0.0.dir/__/__/mesh/core/src/beacon.c.obj
 .bss           0x00000000        0x0 examples/enocean_switch/CMakeFiles/enocean_switch_nrf52840_xxAA_s140_6.0.0.dir/__/__/mesh/core/src/beacon.c.obj
 .text          0x00000000        0x0 examples/enocean_switch/CMakeFiles/enocean_switch_nrf52840_xxAA_s140_6.0.0.dir/__/__/mesh/core/src/flash_manager_internal.c.obj
 .data          0x00000000        0x0 examples/enocean_switch/CMakeFiles/enocean_switch_nrf52840_xxAA_s140_6.0.0.dir/__/__/mesh/core/src/flash_manager_internal.c.obj
 .bss           0x00000000        0x0 examples/enocean_switch/CMakeFiles/enocean_switch_nrf52840_xxAA_s140_6.0.0.dir/__/__/mesh/core/src/flash_manager_internal.c.obj
 .text          0x00000000        0x0 examples/enocean_switch/CMakeFiles/enocean_switch_nrf52840_xxAA_s140_6.0.0.dir/__/__/mesh/core/src/core_tx.c.obj
 .data          0x00000000        0x0 examples/enocean_switch/CMakeFiles/enocean_switch_nrf52840_xxAA_s140_6.0.0.dir/__/__/mesh/core/src/core_tx.c.obj
 .bss           0x00000000        0x0 examples/enocean_switch/CMakeFiles/enocean_switch_nrf52840_xxAA_s140_6.0.0.dir/__/__/mesh/core/src/core_tx.c.obj
 .text.core_tx_bearer_type_get
                0x00000000       0x1c examples/enocean_switch/CMakeFiles/enocean_switch_nrf52840_xxAA_s140_6.0.0.dir/__/__/mesh/core/src/core_tx.c.obj
 .text.core_tx_bearer_count_get
                0x00000000        0xc examples/enocean_switch/CMakeFiles/enocean_switch_nrf52840_xxAA_s140_6.0.0.dir/__/__/mesh/core/src/core_tx.c.obj
 .text          0x00000000        0x0 examples/enocean_switch/CMakeFiles/enocean_switch_nrf52840_xxAA_s140_6.0.0.dir/__/__/mesh/core/src/heartbeat.c.obj
 .data          0x00000000        0x0 examples/enocean_switch/CMakeFiles/enocean_switch_nrf52840_xxAA_s140_6.0.0.dir/__/__/mesh/core/src/heartbeat.c.obj
 .bss           0x00000000        0x0 examples/enocean_switch/CMakeFiles/enocean_switch_nrf52840_xxAA_s140_6.0.0.dir/__/__/mesh/core/src/heartbeat.c.obj
 .text          0x00000000        0x0 examples/enocean_switch/CMakeFiles/enocean_switch_nrf52840_xxAA_s140_6.0.0.dir/__/__/mesh/core/src/net_beacon.c.obj
 .data          0x00000000        0x0 examples/enocean_switch/CMakeFiles/enocean_switch_nrf52840_xxAA_s140_6.0.0.dir/__/__/mesh/core/src/net_beacon.c.obj
 .bss           0x00000000        0x0 examples/enocean_switch/CMakeFiles/enocean_switch_nrf52840_xxAA_s140_6.0.0.dir/__/__/mesh/core/src/net_beacon.c.obj
 .text.net_beacon_build
                0x00000000       0x24 examples/enocean_switch/CMakeFiles/enocean_switch_nrf52840_xxAA_s140_6.0.0.dir/__/__/mesh/core/src/net_beacon.c.obj
 .text          0x00000000        0x0 examples/enocean_switch/CMakeFiles/enocean_switch_nrf52840_xxAA_s140_6.0.0.dir/__/__/mesh/core/src/fsm.c.obj
 .data          0x00000000        0x0 examples/enocean_switch/CMakeFiles/enocean_switch_nrf52840_xxAA_s140_6.0.0.dir/__/__/mesh/core/src/fsm.c.obj
 .bss           0x00000000        0x0 examples/enocean_switch/CMakeFiles/enocean_switch_nrf52840_xxAA_s140_6.0.0.dir/__/__/mesh/core/src/fsm.c.obj
 .text.fsm_event_post_try
                0x00000000      0x1ec examples/enocean_switch/CMakeFiles/enocean_switch_nrf52840_xxAA_s140_6.0.0.dir/__/__/mesh/core/src/fsm.c.obj
 .text.fsm_init
                0x00000000       0xcc examples/enocean_switch/CMakeFiles/enocean_switch_nrf52840_xxAA_s140_6.0.0.dir/__/__/mesh/core/src/fsm.c.obj
 .text.fsm_event_post
                0x00000000       0xac examples/enocean_switch/CMakeFiles/enocean_switch_nrf52840_xxAA_s140_6.0.0.dir/__/__/mesh/core/src/fsm.c.obj
 .text.fsm_is_processing
                0x00000000        0xa examples/enocean_switch/CMakeFiles/enocean_switch_nrf52840_xxAA_s140_6.0.0.dir/__/__/mesh/core/src/fsm.c.obj
 .rodata.fsm_event_post.str1.1
                0x00000000        0xb examples/enocean_switch/CMakeFiles/enocean_switch_nrf52840_xxAA_s140_6.0.0.dir/__/__/mesh/core/src/fsm.c.obj
 .rodata.fsm_event_post_try.str1.1
                0x00000000       0x41 examples/enocean_switch/CMakeFiles/enocean_switch_nrf52840_xxAA_s140_6.0.0.dir/__/__/mesh/core/src/fsm.c.obj
 .rodata.fsm_init.str1.1
                0x00000000        0xa examples/enocean_switch/CMakeFiles/enocean_switch_nrf52840_xxAA_s140_6.0.0.dir/__/__/mesh/core/src/fsm.c.obj
 .debug_info    0x00000000     0x132d examples/enocean_switch/CMakeFiles/enocean_switch_nrf52840_xxAA_s140_6.0.0.dir/__/__/mesh/core/src/fsm.c.obj
 .debug_abbrev  0x00000000      0x345 examples/enocean_switch/CMakeFiles/enocean_switch_nrf52840_xxAA_s140_6.0.0.dir/__/__/mesh/core/src/fsm.c.obj
 .debug_loc     0x00000000      0x3fd examples/enocean_switch/CMakeFiles/enocean_switch_nrf52840_xxAA_s140_6.0.0.dir/__/__/mesh/core/src/fsm.c.obj
 .debug_aranges
                0x00000000       0x38 examples/enocean_switch/CMakeFiles/enocean_switch_nrf52840_xxAA_s140_6.0.0.dir/__/__/mesh/core/src/fsm.c.obj
 .debug_ranges  0x00000000       0xe0 examples/enocean_switch/CMakeFiles/enocean_switch_nrf52840_xxAA_s140_6.0.0.dir/__/__/mesh/core/src/fsm.c.obj
 .debug_line    0x00000000      0x3dc examples/enocean_switch/CMakeFiles/enocean_switch_nrf52840_xxAA_s140_6.0.0.dir/__/__/mesh/core/src/fsm.c.obj
 .debug_str     0x00000000      0x984 examples/enocean_switch/CMakeFiles/enocean_switch_nrf52840_xxAA_s140_6.0.0.dir/__/__/mesh/core/src/fsm.c.obj
 .comment       0x00000000       0x80 examples/enocean_switch/CMakeFiles/enocean_switch_nrf52840_xxAA_s140_6.0.0.dir/__/__/mesh/core/src/fsm.c.obj
 .debug_frame   0x00000000       0x9c examples/enocean_switch/CMakeFiles/enocean_switch_nrf52840_xxAA_s140_6.0.0.dir/__/__/mesh/core/src/fsm.c.obj
 .ARM.attributes
                0x00000000       0x39 examples/enocean_switch/CMakeFiles/enocean_switch_nrf52840_xxAA_s140_6.0.0.dir/__/__/mesh/core/src/fsm.c.obj
 .text          0x00000000        0x0 examples/enocean_switch/CMakeFiles/enocean_switch_nrf52840_xxAA_s140_6.0.0.dir/__/__/mesh/core/src/core_tx_adv.c.obj
 .data          0x00000000        0x0 examples/enocean_switch/CMakeFiles/enocean_switch_nrf52840_xxAA_s140_6.0.0.dir/__/__/mesh/core/src/core_tx_adv.c.obj
 .bss           0x00000000        0x0 examples/enocean_switch/CMakeFiles/enocean_switch_nrf52840_xxAA_s140_6.0.0.dir/__/__/mesh/core/src/core_tx_adv.c.obj
 .text.core_tx_adv_address_set
                0x00000000       0x28 examples/enocean_switch/CMakeFiles/enocean_switch_nrf52840_xxAA_s140_6.0.0.dir/__/__/mesh/core/src/core_tx_adv.c.obj
 .text          0x00000000        0x0 examples/enocean_switch/CMakeFiles/enocean_switch_nrf52840_xxAA_s140_6.0.0.dir/__/__/mesh/bearer/src/ad_listener.c.obj
 .data          0x00000000        0x0 examples/enocean_switch/CMakeFiles/enocean_switch_nrf52840_xxAA_s140_6.0.0.dir/__/__/mesh/bearer/src/ad_listener.c.obj
 .bss           0x00000000        0x0 examples/enocean_switch/CMakeFiles/enocean_switch_nrf52840_xxAA_s140_6.0.0.dir/__/__/mesh/bearer/src/ad_listener.c.obj
 .text.ad_listener_unsubscribe
                0x00000000       0x6c examples/enocean_switch/CMakeFiles/enocean_switch_nrf52840_xxAA_s140_6.0.0.dir/__/__/mesh/bearer/src/ad_listener.c.obj
 .text          0x00000000        0x0 examples/enocean_switch/CMakeFiles/enocean_switch_nrf52840_xxAA_s140_6.0.0.dir/__/__/mesh/bearer/src/ad_type_filter.c.obj
 .data          0x00000000        0x0 examples/enocean_switch/CMakeFiles/enocean_switch_nrf52840_xxAA_s140_6.0.0.dir/__/__/mesh/bearer/src/ad_type_filter.c.obj
 .bss           0x00000000        0x0 examples/enocean_switch/CMakeFiles/enocean_switch_nrf52840_xxAA_s140_6.0.0.dir/__/__/mesh/bearer/src/ad_type_filter.c.obj
 .text.bearer_adtype_remove
                0x00000000       0x20 examples/enocean_switch/CMakeFiles/enocean_switch_nrf52840_xxAA_s140_6.0.0.dir/__/__/mesh/bearer/src/ad_type_filter.c.obj
 .text.bearer_adtype_clear
                0x00000000       0x10 examples/enocean_switch/CMakeFiles/enocean_switch_nrf52840_xxAA_s140_6.0.0.dir/__/__/mesh/bearer/src/ad_type_filter.c.obj
 .text.bearer_invalid_length_amount_get
                0x00000000        0xc examples/enocean_switch/CMakeFiles/enocean_switch_nrf52840_xxAA_s140_6.0.0.dir/__/__/mesh/bearer/src/ad_type_filter.c.obj
 .text.bearer_adtype_filtered_amount_get
                0x00000000        0xc examples/enocean_switch/CMakeFiles/enocean_switch_nrf52840_xxAA_s140_6.0.0.dir/__/__/mesh/bearer/src/ad_type_filter.c.obj
 .text          0x00000000        0x0 examples/enocean_switch/CMakeFiles/enocean_switch_nrf52840_xxAA_s140_6.0.0.dir/__/__/mesh/bearer/src/adv_packet_filter.c.obj
 .data          0x00000000        0x0 examples/enocean_switch/CMakeFiles/enocean_switch_nrf52840_xxAA_s140_6.0.0.dir/__/__/mesh/bearer/src/adv_packet_filter.c.obj
 .bss           0x00000000        0x0 examples/enocean_switch/CMakeFiles/enocean_switch_nrf52840_xxAA_s140_6.0.0.dir/__/__/mesh/bearer/src/adv_packet_filter.c.obj
 .text.adv_filter_handle
                0x00000000       0x3c examples/enocean_switch/CMakeFiles/enocean_switch_nrf52840_xxAA_s140_6.0.0.dir/__/__/mesh/bearer/src/adv_packet_filter.c.obj
 .text.bearer_adv_packet_filtering_set
                0x00000000       0x1c examples/enocean_switch/CMakeFiles/enocean_switch_nrf52840_xxAA_s140_6.0.0.dir/__/__/mesh/bearer/src/adv_packet_filter.c.obj
 .text.bearer_adv_packet_remove
                0x00000000       0x18 examples/enocean_switch/CMakeFiles/enocean_switch_nrf52840_xxAA_s140_6.0.0.dir/__/__/mesh/bearer/src/adv_packet_filter.c.obj
 .text.bearer_adv_packet_add
                0x00000000       0x14 examples/enocean_switch/CMakeFiles/enocean_switch_nrf52840_xxAA_s140_6.0.0.dir/__/__/mesh/bearer/src/adv_packet_filter.c.obj
 .text.bearer_adv_packet_clear
                0x00000000        0xc examples/enocean_switch/CMakeFiles/enocean_switch_nrf52840_xxAA_s140_6.0.0.dir/__/__/mesh/bearer/src/adv_packet_filter.c.obj
 .text.bearer_adv_packet_filter_mode_set
                0x00000000       0x18 examples/enocean_switch/CMakeFiles/enocean_switch_nrf52840_xxAA_s140_6.0.0.dir/__/__/mesh/bearer/src/adv_packet_filter.c.obj
 .text.bearer_adv_packet_filtered_amount_get
                0x00000000        0xc examples/enocean_switch/CMakeFiles/enocean_switch_nrf52840_xxAA_s140_6.0.0.dir/__/__/mesh/bearer/src/adv_packet_filter.c.obj
 .bss.m_adv_packet_filter
                0x00000000       0x14 examples/enocean_switch/CMakeFiles/enocean_switch_nrf52840_xxAA_s140_6.0.0.dir/__/__/mesh/bearer/src/adv_packet_filter.c.obj
 .debug_info    0x00000000      0xd97 examples/enocean_switch/CMakeFiles/enocean_switch_nrf52840_xxAA_s140_6.0.0.dir/__/__/mesh/bearer/src/adv_packet_filter.c.obj
 .debug_abbrev  0x00000000      0x2c9 examples/enocean_switch/CMakeFiles/enocean_switch_nrf52840_xxAA_s140_6.0.0.dir/__/__/mesh/bearer/src/adv_packet_filter.c.obj
 .debug_loc     0x00000000      0x1c0 examples/enocean_switch/CMakeFiles/enocean_switch_nrf52840_xxAA_s140_6.0.0.dir/__/__/mesh/bearer/src/adv_packet_filter.c.obj
 .debug_aranges
                0x00000000       0x50 examples/enocean_switch/CMakeFiles/enocean_switch_nrf52840_xxAA_s140_6.0.0.dir/__/__/mesh/bearer/src/adv_packet_filter.c.obj
 .debug_ranges  0x00000000       0x40 examples/enocean_switch/CMakeFiles/enocean_switch_nrf52840_xxAA_s140_6.0.0.dir/__/__/mesh/bearer/src/adv_packet_filter.c.obj
 .debug_line    0x00000000      0x35e examples/enocean_switch/CMakeFiles/enocean_switch_nrf52840_xxAA_s140_6.0.0.dir/__/__/mesh/bearer/src/adv_packet_filter.c.obj
 .debug_str     0x00000000      0xa28 examples/enocean_switch/CMakeFiles/enocean_switch_nrf52840_xxAA_s140_6.0.0.dir/__/__/mesh/bearer/src/adv_packet_filter.c.obj
 .comment       0x00000000       0x80 examples/enocean_switch/CMakeFiles/enocean_switch_nrf52840_xxAA_s140_6.0.0.dir/__/__/mesh/bearer/src/adv_packet_filter.c.obj
 .debug_frame   0x00000000       0x88 examples/enocean_switch/CMakeFiles/enocean_switch_nrf52840_xxAA_s140_6.0.0.dir/__/__/mesh/bearer/src/adv_packet_filter.c.obj
 .ARM.attributes
                0x00000000       0x39 examples/enocean_switch/CMakeFiles/enocean_switch_nrf52840_xxAA_s140_6.0.0.dir/__/__/mesh/bearer/src/adv_packet_filter.c.obj
 .text          0x00000000        0x0 examples/enocean_switch/CMakeFiles/enocean_switch_nrf52840_xxAA_s140_6.0.0.dir/__/__/mesh/bearer/src/advertiser.c.obj
 .data          0x00000000        0x0 examples/enocean_switch/CMakeFiles/enocean_switch_nrf52840_xxAA_s140_6.0.0.dir/__/__/mesh/bearer/src/advertiser.c.obj
 .bss           0x00000000        0x0 examples/enocean_switch/CMakeFiles/enocean_switch_nrf52840_xxAA_s140_6.0.0.dir/__/__/mesh/bearer/src/advertiser.c.obj
 .text.advertiser_disable
                0x00000000        0xa examples/enocean_switch/CMakeFiles/enocean_switch_nrf52840_xxAA_s140_6.0.0.dir/__/__/mesh/bearer/src/advertiser.c.obj
 .text.advertiser_channels_set
                0x00000000       0x60 examples/enocean_switch/CMakeFiles/enocean_switch_nrf52840_xxAA_s140_6.0.0.dir/__/__/mesh/bearer/src/advertiser.c.obj
 .text.advertiser_address_set
                0x00000000       0x3c examples/enocean_switch/CMakeFiles/enocean_switch_nrf52840_xxAA_s140_6.0.0.dir/__/__/mesh/bearer/src/advertiser.c.obj
 .text.advertiser_config_set
                0x00000000       0x36 examples/enocean_switch/CMakeFiles/enocean_switch_nrf52840_xxAA_s140_6.0.0.dir/__/__/mesh/bearer/src/advertiser.c.obj
 .text.advertiser_config_get
                0x00000000       0x20 examples/enocean_switch/CMakeFiles/enocean_switch_nrf52840_xxAA_s140_6.0.0.dir/__/__/mesh/bearer/src/advertiser.c.obj
 .text          0x00000000        0x0 examples/enocean_switch/CMakeFiles/enocean_switch_nrf52840_xxAA_s140_6.0.0.dir/__/__/mesh/bearer/src/bearer_handler.c.obj
 .data          0x00000000        0x0 examples/enocean_switch/CMakeFiles/enocean_switch_nrf52840_xxAA_s140_6.0.0.dir/__/__/mesh/bearer/src/bearer_handler.c.obj
 .bss           0x00000000        0x0 examples/enocean_switch/CMakeFiles/enocean_switch_nrf52840_xxAA_s140_6.0.0.dir/__/__/mesh/bearer/src/bearer_handler.c.obj
 .text.bearer_handler_stop
                0x00000000       0x20 examples/enocean_switch/CMakeFiles/enocean_switch_nrf52840_xxAA_s140_6.0.0.dir/__/__/mesh/bearer/src/bearer_handler.c.obj
 .text.bearer_handler_action_fire
                0x00000000       0x9c examples/enocean_switch/CMakeFiles/enocean_switch_nrf52840_xxAA_s140_6.0.0.dir/__/__/mesh/bearer/src/bearer_handler.c.obj
 .text          0x00000000        0x0 examples/enocean_switch/CMakeFiles/enocean_switch_nrf52840_xxAA_s140_6.0.0.dir/__/__/mesh/bearer/src/broadcast.c.obj
 .data          0x00000000        0x0 examples/enocean_switch/CMakeFiles/enocean_switch_nrf52840_xxAA_s140_6.0.0.dir/__/__/mesh/bearer/src/broadcast.c.obj
 .bss           0x00000000        0x0 examples/enocean_switch/CMakeFiles/enocean_switch_nrf52840_xxAA_s140_6.0.0.dir/__/__/mesh/bearer/src/broadcast.c.obj
 .text          0x00000000        0x0 examples/enocean_switch/CMakeFiles/enocean_switch_nrf52840_xxAA_s140_6.0.0.dir/__/__/mesh/bearer/src/filter_engine.c.obj
 .data          0x00000000        0x0 examples/enocean_switch/CMakeFiles/enocean_switch_nrf52840_xxAA_s140_6.0.0.dir/__/__/mesh/bearer/src/filter_engine.c.obj
 .bss           0x00000000        0x0 examples/enocean_switch/CMakeFiles/enocean_switch_nrf52840_xxAA_s140_6.0.0.dir/__/__/mesh/bearer/src/filter_engine.c.obj
 .text.fen_accepted_amount_get
                0x00000000        0xc examples/enocean_switch/CMakeFiles/enocean_switch_nrf52840_xxAA_s140_6.0.0.dir/__/__/mesh/bearer/src/filter_engine.c.obj
 .text          0x00000000        0x0 examples/enocean_switch/CMakeFiles/enocean_switch_nrf52840_xxAA_s140_6.0.0.dir/__/__/mesh/bearer/src/gap_address_filter.c.obj
 .data          0x00000000        0x0 examples/enocean_switch/CMakeFiles/enocean_switch_nrf52840_xxAA_s140_6.0.0.dir/__/__/mesh/bearer/src/gap_address_filter.c.obj
 .bss           0x00000000        0x0 examples/enocean_switch/CMakeFiles/enocean_switch_nrf52840_xxAA_s140_6.0.0.dir/__/__/mesh/bearer/src/gap_address_filter.c.obj
 .text.gap_address_filter_handle
                0x00000000       0xa6 examples/enocean_switch/CMakeFiles/enocean_switch_nrf52840_xxAA_s140_6.0.0.dir/__/__/mesh/bearer/src/gap_address_filter.c.obj
 .text.gap_addr_filter_set
                0x00000000       0x40 examples/enocean_switch/CMakeFiles/enocean_switch_nrf52840_xxAA_s140_6.0.0.dir/__/__/mesh/bearer/src/gap_address_filter.c.obj
 .text.bearer_filter_gap_addr_whitelist_set
                0x00000000        0x6 examples/enocean_switch/CMakeFiles/enocean_switch_nrf52840_xxAA_s140_6.0.0.dir/__/__/mesh/bearer/src/gap_address_filter.c.obj
 .text.bearer_filter_gap_addr_blacklist_set
                0x00000000        0x6 examples/enocean_switch/CMakeFiles/enocean_switch_nrf52840_xxAA_s140_6.0.0.dir/__/__/mesh/bearer/src/gap_address_filter.c.obj
 .text.bearer_filter_gap_addr_range_set
                0x00000000       0x38 examples/enocean_switch/CMakeFiles/enocean_switch_nrf52840_xxAA_s140_6.0.0.dir/__/__/mesh/bearer/src/gap_address_filter.c.obj
 .text.bearer_filter_gap_addr_clear
                0x00000000       0x20 examples/enocean_switch/CMakeFiles/enocean_switch_nrf52840_xxAA_s140_6.0.0.dir/__/__/mesh/bearer/src/gap_address_filter.c.obj
 .text.bearer_gap_addr_filtered_amount_get
                0x00000000        0xc examples/enocean_switch/CMakeFiles/enocean_switch_nrf52840_xxAA_s140_6.0.0.dir/__/__/mesh/bearer/src/gap_address_filter.c.obj
 .bss.m_addr_filter
                0x00000000       0x18 examples/enocean_switch/CMakeFiles/enocean_switch_nrf52840_xxAA_s140_6.0.0.dir/__/__/mesh/bearer/src/gap_address_filter.c.obj
 .debug_info    0x00000000      0xebb examples/enocean_switch/CMakeFiles/enocean_switch_nrf52840_xxAA_s140_6.0.0.dir/__/__/mesh/bearer/src/gap_address_filter.c.obj
 .debug_abbrev  0x00000000      0x2f4 examples/enocean_switch/CMakeFiles/enocean_switch_nrf52840_xxAA_s140_6.0.0.dir/__/__/mesh/bearer/src/gap_address_filter.c.obj
 .debug_loc     0x00000000      0x3e8 examples/enocean_switch/CMakeFiles/enocean_switch_nrf52840_xxAA_s140_6.0.0.dir/__/__/mesh/bearer/src/gap_address_filter.c.obj
 .debug_aranges
                0x00000000       0x50 examples/enocean_switch/CMakeFiles/enocean_switch_nrf52840_xxAA_s140_6.0.0.dir/__/__/mesh/bearer/src/gap_address_filter.c.obj
 .debug_ranges  0x00000000       0x58 examples/enocean_switch/CMakeFiles/enocean_switch_nrf52840_xxAA_s140_6.0.0.dir/__/__/mesh/bearer/src/gap_address_filter.c.obj
 .debug_line    0x00000000      0x3b6 examples/enocean_switch/CMakeFiles/enocean_switch_nrf52840_xxAA_s140_6.0.0.dir/__/__/mesh/bearer/src/gap_address_filter.c.obj
 .debug_str     0x00000000      0x982 examples/enocean_switch/CMakeFiles/enocean_switch_nrf52840_xxAA_s140_6.0.0.dir/__/__/mesh/bearer/src/gap_address_filter.c.obj
 .comment       0x00000000       0x80 examples/enocean_switch/CMakeFiles/enocean_switch_nrf52840_xxAA_s140_6.0.0.dir/__/__/mesh/bearer/src/gap_address_filter.c.obj
 .debug_frame   0x00000000       0xb4 examples/enocean_switch/CMakeFiles/enocean_switch_nrf52840_xxAA_s140_6.0.0.dir/__/__/mesh/bearer/src/gap_address_filter.c.obj
 .ARM.attributes
                0x00000000       0x39 examples/enocean_switch/CMakeFiles/enocean_switch_nrf52840_xxAA_s140_6.0.0.dir/__/__/mesh/bearer/src/gap_address_filter.c.obj
 .text          0x00000000        0x0 examples/enocean_switch/CMakeFiles/enocean_switch_nrf52840_xxAA_s140_6.0.0.dir/__/__/mesh/bearer/src/radio_config.c.obj
 .data          0x00000000        0x0 examples/enocean_switch/CMakeFiles/enocean_switch_nrf52840_xxAA_s140_6.0.0.dir/__/__/mesh/bearer/src/radio_config.c.obj
 .bss           0x00000000        0x0 examples/enocean_switch/CMakeFiles/enocean_switch_nrf52840_xxAA_s140_6.0.0.dir/__/__/mesh/bearer/src/radio_config.c.obj
 .text.radio_config_access_addr_get
                0x00000000       0x4c examples/enocean_switch/CMakeFiles/enocean_switch_nrf52840_xxAA_s140_6.0.0.dir/__/__/mesh/bearer/src/radio_config.c.obj
 .text          0x00000000        0x0 examples/enocean_switch/CMakeFiles/enocean_switch_nrf52840_xxAA_s140_6.0.0.dir/__/__/mesh/bearer/src/rssi_filter.c.obj
 .data          0x00000000        0x0 examples/enocean_switch/CMakeFiles/enocean_switch_nrf52840_xxAA_s140_6.0.0.dir/__/__/mesh/bearer/src/rssi_filter.c.obj
 .bss           0x00000000        0x0 examples/enocean_switch/CMakeFiles/enocean_switch_nrf52840_xxAA_s140_6.0.0.dir/__/__/mesh/bearer/src/rssi_filter.c.obj
 .text.rssi_filter_handle
                0x00000000       0x20 examples/enocean_switch/CMakeFiles/enocean_switch_nrf52840_xxAA_s140_6.0.0.dir/__/__/mesh/bearer/src/rssi_filter.c.obj
 .text.bearer_rssi_filtering_set
                0x00000000       0x34 examples/enocean_switch/CMakeFiles/enocean_switch_nrf52840_xxAA_s140_6.0.0.dir/__/__/mesh/bearer/src/rssi_filter.c.obj
 .text.bearer_rssi_filtered_amount_get
                0x00000000        0xc examples/enocean_switch/CMakeFiles/enocean_switch_nrf52840_xxAA_s140_6.0.0.dir/__/__/mesh/bearer/src/rssi_filter.c.obj
 .bss.m_rssi_filter
                0x00000000       0x18 examples/enocean_switch/CMakeFiles/enocean_switch_nrf52840_xxAA_s140_6.0.0.dir/__/__/mesh/bearer/src/rssi_filter.c.obj
 .debug_info    0x00000000      0xc73 examples/enocean_switch/CMakeFiles/enocean_switch_nrf52840_xxAA_s140_6.0.0.dir/__/__/mesh/bearer/src/rssi_filter.c.obj
 .debug_abbrev  0x00000000      0x28e examples/enocean_switch/CMakeFiles/enocean_switch_nrf52840_xxAA_s140_6.0.0.dir/__/__/mesh/bearer/src/rssi_filter.c.obj
 .debug_loc     0x00000000       0xb3 examples/enocean_switch/CMakeFiles/enocean_switch_nrf52840_xxAA_s140_6.0.0.dir/__/__/mesh/bearer/src/rssi_filter.c.obj
 .debug_aranges
                0x00000000       0x30 examples/enocean_switch/CMakeFiles/enocean_switch_nrf52840_xxAA_s140_6.0.0.dir/__/__/mesh/bearer/src/rssi_filter.c.obj
 .debug_ranges  0x00000000       0x20 examples/enocean_switch/CMakeFiles/enocean_switch_nrf52840_xxAA_s140_6.0.0.dir/__/__/mesh/bearer/src/rssi_filter.c.obj
 .debug_line    0x00000000      0x2d3 examples/enocean_switch/CMakeFiles/enocean_switch_nrf52840_xxAA_s140_6.0.0.dir/__/__/mesh/bearer/src/rssi_filter.c.obj
 .debug_str     0x00000000      0x83d examples/enocean_switch/CMakeFiles/enocean_switch_nrf52840_xxAA_s140_6.0.0.dir/__/__/mesh/bearer/src/rssi_filter.c.obj
 .comment       0x00000000       0x80 examples/enocean_switch/CMakeFiles/enocean_switch_nrf52840_xxAA_s140_6.0.0.dir/__/__/mesh/bearer/src/rssi_filter.c.obj
 .debug_frame   0x00000000       0x54 examples/enocean_switch/CMakeFiles/enocean_switch_nrf52840_xxAA_s140_6.0.0.dir/__/__/mesh/bearer/src/rssi_filter.c.obj
 .ARM.attributes
                0x00000000       0x39 examples/enocean_switch/CMakeFiles/enocean_switch_nrf52840_xxAA_s140_6.0.0.dir/__/__/mesh/bearer/src/rssi_filter.c.obj
 .text          0x00000000        0x0 examples/enocean_switch/CMakeFiles/enocean_switch_nrf52840_xxAA_s140_6.0.0.dir/__/__/mesh/bearer/src/scanner.c.obj
 .data          0x00000000        0x0 examples/enocean_switch/CMakeFiles/enocean_switch_nrf52840_xxAA_s140_6.0.0.dir/__/__/mesh/bearer/src/scanner.c.obj
 .bss           0x00000000        0x0 examples/enocean_switch/CMakeFiles/enocean_switch_nrf52840_xxAA_s140_6.0.0.dir/__/__/mesh/bearer/src/scanner.c.obj
 .text.scanner_rx_callback_set
                0x00000000       0x20 examples/enocean_switch/CMakeFiles/enocean_switch_nrf52840_xxAA_s140_6.0.0.dir/__/__/mesh/bearer/src/scanner.c.obj
 .text.scanner_disable
                0x00000000       0x3c examples/enocean_switch/CMakeFiles/enocean_switch_nrf52840_xxAA_s140_6.0.0.dir/__/__/mesh/bearer/src/scanner.c.obj
 .text.scanner_is_enabled
                0x00000000       0x10 examples/enocean_switch/CMakeFiles/enocean_switch_nrf52840_xxAA_s140_6.0.0.dir/__/__/mesh/bearer/src/scanner.c.obj
 .text.scanner_stats_get
                0x00000000        0x8 examples/enocean_switch/CMakeFiles/enocean_switch_nrf52840_xxAA_s140_6.0.0.dir/__/__/mesh/bearer/src/scanner.c.obj
 .text.scanner_config_radio_mode_set
                0x00000000       0x10 examples/enocean_switch/CMakeFiles/enocean_switch_nrf52840_xxAA_s140_6.0.0.dir/__/__/mesh/bearer/src/scanner.c.obj
 .text          0x00000000        0x0 examples/enocean_switch/CMakeFiles/enocean_switch_nrf52840_xxAA_s140_6.0.0.dir/__/__/mesh/bearer/src/mesh_pa_lna.c.obj
 .data          0x00000000        0x0 examples/enocean_switch/CMakeFiles/enocean_switch_nrf52840_xxAA_s140_6.0.0.dir/__/__/mesh/bearer/src/mesh_pa_lna.c.obj
 .bss           0x00000000        0x0 examples/enocean_switch/CMakeFiles/enocean_switch_nrf52840_xxAA_s140_6.0.0.dir/__/__/mesh/bearer/src/mesh_pa_lna.c.obj
 .text.unlikely.pin_init
                0x00000000       0x32 examples/enocean_switch/CMakeFiles/enocean_switch_nrf52840_xxAA_s140_6.0.0.dir/__/__/mesh/bearer/src/mesh_pa_lna.c.obj
 .text.mesh_pa_lna_gpiote_enable
                0x00000000       0x68 examples/enocean_switch/CMakeFiles/enocean_switch_nrf52840_xxAA_s140_6.0.0.dir/__/__/mesh/bearer/src/mesh_pa_lna.c.obj
 .text.mesh_pa_lna_gpiote_params_get
                0x00000000       0x10 examples/enocean_switch/CMakeFiles/enocean_switch_nrf52840_xxAA_s140_6.0.0.dir/__/__/mesh/bearer/src/mesh_pa_lna.c.obj
 .text.mesh_pa_lna_gpiote_disable
                0x00000000       0x20 examples/enocean_switch/CMakeFiles/enocean_switch_nrf52840_xxAA_s140_6.0.0.dir/__/__/mesh/bearer/src/mesh_pa_lna.c.obj
 .text          0x00000000        0x0 examples/enocean_switch/CMakeFiles/enocean_switch_nrf52840_xxAA_s140_6.0.0.dir/__/__/models/simple_on_off/src/simple_on_off_client.c.obj
 .data          0x00000000        0x0 examples/enocean_switch/CMakeFiles/enocean_switch_nrf52840_xxAA_s140_6.0.0.dir/__/__/models/simple_on_off/src/simple_on_off_client.c.obj
 .bss           0x00000000        0x0 examples/enocean_switch/CMakeFiles/enocean_switch_nrf52840_xxAA_s140_6.0.0.dir/__/__/models/simple_on_off/src/simple_on_off_client.c.obj
 .text.simple_on_off_client_get
                0x00000000       0x28 examples/enocean_switch/CMakeFiles/enocean_switch_nrf52840_xxAA_s140_6.0.0.dir/__/__/models/simple_on_off/src/simple_on_off_client.c.obj
 .text.simple_on_off_client_pending_msg_cancel
                0x00000000        0x6 examples/enocean_switch/CMakeFiles/enocean_switch_nrf52840_xxAA_s140_6.0.0.dir/__/__/models/simple_on_off/src/simple_on_off_client.c.obj
 .text          0x00000000        0x0 examples/enocean_switch/CMakeFiles/enocean_switch_nrf52840_xxAA_s140_6.0.0.dir/__/__/models/config/src/composition_data.c.obj
 .data          0x00000000        0x0 examples/enocean_switch/CMakeFiles/enocean_switch_nrf52840_xxAA_s140_6.0.0.dir/__/__/models/config/src/composition_data.c.obj
 .bss           0x00000000        0x0 examples/enocean_switch/CMakeFiles/enocean_switch_nrf52840_xxAA_s140_6.0.0.dir/__/__/models/config/src/composition_data.c.obj
 .text          0x00000000        0x0 examples/enocean_switch/CMakeFiles/enocean_switch_nrf52840_xxAA_s140_6.0.0.dir/__/__/models/config/src/config_server.c.obj
 .data          0x00000000        0x0 examples/enocean_switch/CMakeFiles/enocean_switch_nrf52840_xxAA_s140_6.0.0.dir/__/__/models/config/src/config_server.c.obj
 .bss           0x00000000        0x0 examples/enocean_switch/CMakeFiles/enocean_switch_nrf52840_xxAA_s140_6.0.0.dir/__/__/models/config/src/config_server.c.obj
 .text          0x00000000        0x0 examples/enocean_switch/CMakeFiles/enocean_switch_nrf52840_xxAA_s140_6.0.0.dir/__/__/models/config/src/packed_index_list.c.obj
 .data          0x00000000        0x0 examples/enocean_switch/CMakeFiles/enocean_switch_nrf52840_xxAA_s140_6.0.0.dir/__/__/models/config/src/packed_index_list.c.obj
 .bss           0x00000000        0x0 examples/enocean_switch/CMakeFiles/enocean_switch_nrf52840_xxAA_s140_6.0.0.dir/__/__/models/config/src/packed_index_list.c.obj
 .text          0x00000000        0x0 examples/enocean_switch/CMakeFiles/enocean_switch_nrf52840_xxAA_s140_6.0.0.dir/__/__/models/health/src/health_server.c.obj
 .data          0x00000000        0x0 examples/enocean_switch/CMakeFiles/enocean_switch_nrf52840_xxAA_s140_6.0.0.dir/__/__/models/health/src/health_server.c.obj
 .bss           0x00000000        0x0 examples/enocean_switch/CMakeFiles/enocean_switch_nrf52840_xxAA_s140_6.0.0.dir/__/__/models/health/src/health_server.c.obj
 .text.health_server_fault_is_set
                0x00000000       0x1c examples/enocean_switch/CMakeFiles/enocean_switch_nrf52840_xxAA_s140_6.0.0.dir/__/__/models/health/src/health_server.c.obj
 .text.health_server_fault_count_get
                0x00000000        0xc examples/enocean_switch/CMakeFiles/enocean_switch_nrf52840_xxAA_s140_6.0.0.dir/__/__/models/health/src/health_server.c.obj
 .text.health_server_fault_register
                0x00000000       0xca examples/enocean_switch/CMakeFiles/enocean_switch_nrf52840_xxAA_s140_6.0.0.dir/__/__/models/health/src/health_server.c.obj
 .text.health_server_fault_clear
                0x00000000       0x48 examples/enocean_switch/CMakeFiles/enocean_switch_nrf52840_xxAA_s140_6.0.0.dir/__/__/models/health/src/health_server.c.obj
 .text.health_server_attention_get
                0x00000000        0x6 examples/enocean_switch/CMakeFiles/enocean_switch_nrf52840_xxAA_s140_6.0.0.dir/__/__/models/health/src/health_server.c.obj
 .text.health_server_attention_set
                0x00000000        0x4 examples/enocean_switch/CMakeFiles/enocean_switch_nrf52840_xxAA_s140_6.0.0.dir/__/__/models/health/src/health_server.c.obj
 .text          0x00000000        0x0 examples/enocean_switch/CMakeFiles/enocean_switch_nrf52840_xxAA_s140_6.0.0.dir/__/__/mesh/access/src/access_publish.c.obj
 .data          0x00000000        0x0 examples/enocean_switch/CMakeFiles/enocean_switch_nrf52840_xxAA_s140_6.0.0.dir/__/__/mesh/access/src/access_publish.c.obj
 .bss           0x00000000        0x0 examples/enocean_switch/CMakeFiles/enocean_switch_nrf52840_xxAA_s140_6.0.0.dir/__/__/mesh/access/src/access_publish.c.obj
 .text          0x00000000        0x0 examples/enocean_switch/CMakeFiles/enocean_switch_nrf52840_xxAA_s140_6.0.0.dir/__/__/mesh/access/src/access.c.obj
 .data          0x00000000        0x0 examples/enocean_switch/CMakeFiles/enocean_switch_nrf52840_xxAA_s140_6.0.0.dir/__/__/mesh/access/src/access.c.obj
 .bss           0x00000000        0x0 examples/enocean_switch/CMakeFiles/enocean_switch_nrf52840_xxAA_s140_6.0.0.dir/__/__/mesh/access/src/access.c.obj
 .text.access_model_subscription_lists_share
                0x00000000       0x4c examples/enocean_switch/CMakeFiles/enocean_switch_nrf52840_xxAA_s140_6.0.0.dir/__/__/mesh/access/src/access.c.obj
 .text.access_element_location_set
                0x00000000       0x2c examples/enocean_switch/CMakeFiles/enocean_switch_nrf52840_xxAA_s140_6.0.0.dir/__/__/mesh/access/src/access.c.obj
 .text          0x00000000        0x0 examples/enocean_switch/CMakeFiles/enocean_switch_nrf52840_xxAA_s140_6.0.0.dir/__/__/mesh/access/src/access_reliable.c.obj
 .data          0x00000000        0x0 examples/enocean_switch/CMakeFiles/enocean_switch_nrf52840_xxAA_s140_6.0.0.dir/__/__/mesh/access/src/access_reliable.c.obj
 .bss           0x00000000        0x0 examples/enocean_switch/CMakeFiles/enocean_switch_nrf52840_xxAA_s140_6.0.0.dir/__/__/mesh/access/src/access_reliable.c.obj
 .text          0x00000000        0x0 examples/enocean_switch/CMakeFiles/enocean_switch_nrf52840_xxAA_s140_6.0.0.dir/__/__/mesh/access/src/access_loopback.c.obj
 .data          0x00000000        0x0 examples/enocean_switch/CMakeFiles/enocean_switch_nrf52840_xxAA_s140_6.0.0.dir/__/__/mesh/access/src/access_loopback.c.obj
 .bss           0x00000000        0x0 examples/enocean_switch/CMakeFiles/enocean_switch_nrf52840_xxAA_s140_6.0.0.dir/__/__/mesh/access/src/access_loopback.c.obj
 .text          0x00000000        0x0 examples/enocean_switch/CMakeFiles/enocean_switch_nrf52840_xxAA_s140_6.0.0.dir/__/__/mesh/access/src/device_state_manager.c.obj
 .data          0x00000000        0x0 examples/enocean_switch/CMakeFiles/enocean_switch_nrf52840_xxAA_s140_6.0.0.dir/__/__/mesh/access/src/device_state_manager.c.obj
 .bss           0x00000000        0x0 examples/enocean_switch/CMakeFiles/enocean_switch_nrf52840_xxAA_s140_6.0.0.dir/__/__/mesh/access/src/device_state_manager.c.obj
 .text.dsm_has_unflashed_data
                0x00000000       0x24 examples/enocean_switch/CMakeFiles/enocean_switch_nrf52840_xxAA_s140_6.0.0.dir/__/__/mesh/access/src/device_state_manager.c.obj
 .text.dsm_address_subscription_get
                0x00000000       0x34 examples/enocean_switch/CMakeFiles/enocean_switch_nrf52840_xxAA_s140_6.0.0.dir/__/__/mesh/access/src/device_state_manager.c.obj
 .text.dsm_address_subscription_count_get
                0x00000000       0x58 examples/enocean_switch/CMakeFiles/enocean_switch_nrf52840_xxAA_s140_6.0.0.dir/__/__/mesh/access/src/device_state_manager.c.obj
 .text.dsm_address_get_all
                0x00000000       0x74 examples/enocean_switch/CMakeFiles/enocean_switch_nrf52840_xxAA_s140_6.0.0.dir/__/__/mesh/access/src/device_state_manager.c.obj
 .text.dsm_subnet_handle_to_netkey_index
                0x00000000       0x34 examples/enocean_switch/CMakeFiles/enocean_switch_nrf52840_xxAA_s140_6.0.0.dir/__/__/mesh/access/src/device_state_manager.c.obj
 .text.dsm_subnet_key_get
                0x00000000       0x4c examples/enocean_switch/CMakeFiles/enocean_switch_nrf52840_xxAA_s140_6.0.0.dir/__/__/mesh/access/src/device_state_manager.c.obj
 .text.dsm_devkey_delete
                0x00000000       0x38 examples/enocean_switch/CMakeFiles/enocean_switch_nrf52840_xxAA_s140_6.0.0.dir/__/__/mesh/access/src/device_state_manager.c.obj
 .text.dsm_devkey_handle_get
                0x00000000       0x34 examples/enocean_switch/CMakeFiles/enocean_switch_nrf52840_xxAA_s140_6.0.0.dir/__/__/mesh/access/src/device_state_manager.c.obj
 .text.dsm_beacon_info_get
                0x00000000       0x38 examples/enocean_switch/CMakeFiles/enocean_switch_nrf52840_xxAA_s140_6.0.0.dir/__/__/mesh/access/src/device_state_manager.c.obj
 .text          0x00000000        0x0 examples/enocean_switch/CMakeFiles/enocean_switch_nrf52840_xxAA_s140_6.0.0.dir/__/__/mesh/prov/src/prov_provisionee.c.obj
 .data          0x00000000        0x0 examples/enocean_switch/CMakeFiles/enocean_switch_nrf52840_xxAA_s140_6.0.0.dir/__/__/mesh/prov/src/prov_provisionee.c.obj
 .bss           0x00000000        0x0 examples/enocean_switch/CMakeFiles/enocean_switch_nrf52840_xxAA_s140_6.0.0.dir/__/__/mesh/prov/src/prov_provisionee.c.obj
 .text.prov_provisionee_shared_secret
                0x00000000       0x28 examples/enocean_switch/CMakeFiles/enocean_switch_nrf52840_xxAA_s140_6.0.0.dir/__/__/mesh/prov/src/prov_provisionee.c.obj
 .text          0x00000000        0x0 examples/enocean_switch/CMakeFiles/enocean_switch_nrf52840_xxAA_s140_6.0.0.dir/__/__/mesh/prov/src/nrf_mesh_prov.c.obj
 .data          0x00000000        0x0 examples/enocean_switch/CMakeFiles/enocean_switch_nrf52840_xxAA_s140_6.0.0.dir/__/__/mesh/prov/src/nrf_mesh_prov.c.obj
 .bss           0x00000000        0x0 examples/enocean_switch/CMakeFiles/enocean_switch_nrf52840_xxAA_s140_6.0.0.dir/__/__/mesh/prov/src/nrf_mesh_prov.c.obj
 .text.nrf_mesh_prov_provision
                0x00000000       0x4e examples/enocean_switch/CMakeFiles/enocean_switch_nrf52840_xxAA_s140_6.0.0.dir/__/__/mesh/prov/src/nrf_mesh_prov.c.obj
 .text.nrf_mesh_prov_oob_use
                0x00000000       0x18 examples/enocean_switch/CMakeFiles/enocean_switch_nrf52840_xxAA_s140_6.0.0.dir/__/__/mesh/prov/src/nrf_mesh_prov.c.obj
 .text.nrf_mesh_prov_shared_secret_provide
                0x00000000        0xe examples/enocean_switch/CMakeFiles/enocean_switch_nrf52840_xxAA_s140_6.0.0.dir/__/__/mesh/prov/src/nrf_mesh_prov.c.obj
 .text.nrf_mesh_prov_pubkey_provide
                0x00000000       0x10 examples/enocean_switch/CMakeFiles/enocean_switch_nrf52840_xxAA_s140_6.0.0.dir/__/__/mesh/prov/src/nrf_mesh_prov.c.obj
 .text.nrf_mesh_prov_scan_start
                0x00000000       0x10 examples/enocean_switch/CMakeFiles/enocean_switch_nrf52840_xxAA_s140_6.0.0.dir/__/__/mesh/prov/src/nrf_mesh_prov.c.obj
 .text.nrf_mesh_prov_scan_stop
                0x00000000        0x4 examples/enocean_switch/CMakeFiles/enocean_switch_nrf52840_xxAA_s140_6.0.0.dir/__/__/mesh/prov/src/nrf_mesh_prov.c.obj
 .text          0x00000000        0x0 examples/enocean_switch/CMakeFiles/enocean_switch_nrf52840_xxAA_s140_6.0.0.dir/__/__/mesh/prov/src/provisioning.c.obj
 .data          0x00000000        0x0 examples/enocean_switch/CMakeFiles/enocean_switch_nrf52840_xxAA_s140_6.0.0.dir/__/__/mesh/prov/src/provisioning.c.obj
 .bss           0x00000000        0x0 examples/enocean_switch/CMakeFiles/enocean_switch_nrf52840_xxAA_s140_6.0.0.dir/__/__/mesh/prov/src/provisioning.c.obj
 .text.prov_tx_invite
                0x00000000       0x28 examples/enocean_switch/CMakeFiles/enocean_switch_nrf52840_xxAA_s140_6.0.0.dir/__/__/mesh/prov/src/provisioning.c.obj
 .text.prov_tx_start
                0x00000000       0x20 examples/enocean_switch/CMakeFiles/enocean_switch_nrf52840_xxAA_s140_6.0.0.dir/__/__/mesh/prov/src/provisioning.c.obj
 .text.prov_tx_data
                0x00000000        0x6 examples/enocean_switch/CMakeFiles/enocean_switch_nrf52840_xxAA_s140_6.0.0.dir/__/__/mesh/prov/src/provisioning.c.obj
 .text.prov_tx  0x00000000        0x4 examples/enocean_switch/CMakeFiles/enocean_switch_nrf52840_xxAA_s140_6.0.0.dir/__/__/mesh/prov/src/provisioning.c.obj
 .text          0x00000000        0x0 examples/enocean_switch/CMakeFiles/enocean_switch_nrf52840_xxAA_s140_6.0.0.dir/__/__/mesh/prov/src/prov_beacon.c.obj
 .data          0x00000000        0x0 examples/enocean_switch/CMakeFiles/enocean_switch_nrf52840_xxAA_s140_6.0.0.dir/__/__/mesh/prov/src/prov_beacon.c.obj
 .bss           0x00000000        0x0 examples/enocean_switch/CMakeFiles/enocean_switch_nrf52840_xxAA_s140_6.0.0.dir/__/__/mesh/prov/src/prov_beacon.c.obj
 .text.prov_beacon_scan_start
                0x00000000       0x18 examples/enocean_switch/CMakeFiles/enocean_switch_nrf52840_xxAA_s140_6.0.0.dir/__/__/mesh/prov/src/prov_beacon.c.obj
 .text.prov_beacon_scan_stop
                0x00000000        0xc examples/enocean_switch/CMakeFiles/enocean_switch_nrf52840_xxAA_s140_6.0.0.dir/__/__/mesh/prov/src/prov_beacon.c.obj
 .text          0x00000000        0x0 examples/enocean_switch/CMakeFiles/enocean_switch_nrf52840_xxAA_s140_6.0.0.dir/__/__/mesh/prov/src/prov_utils.c.obj
 .data          0x00000000        0x0 examples/enocean_switch/CMakeFiles/enocean_switch_nrf52840_xxAA_s140_6.0.0.dir/__/__/mesh/prov/src/prov_utils.c.obj
 .bss           0x00000000        0x0 examples/enocean_switch/CMakeFiles/enocean_switch_nrf52840_xxAA_s140_6.0.0.dir/__/__/mesh/prov/src/prov_utils.c.obj
 .text          0x00000000        0x0 examples/enocean_switch/CMakeFiles/enocean_switch_nrf52840_xxAA_s140_6.0.0.dir/__/__/mesh/prov/src/prov_bearer_adv.c.obj
 .data          0x00000000        0x0 examples/enocean_switch/CMakeFiles/enocean_switch_nrf52840_xxAA_s140_6.0.0.dir/__/__/mesh/prov/src/prov_bearer_adv.c.obj
 .bss           0x00000000        0x0 examples/enocean_switch/CMakeFiles/enocean_switch_nrf52840_xxAA_s140_6.0.0.dir/__/__/mesh/prov/src/prov_bearer_adv.c.obj
 .text          0x00000000        0x0 examples/enocean_switch/CMakeFiles/enocean_switch_nrf52840_xxAA_s140_6.0.0.dir/C_/b/nRF5_SDK_15.0.0_a53641a/modules/nrfx/mdk/system_nrf52840.c.obj
 .data          0x00000000        0x0 examples/enocean_switch/CMakeFiles/enocean_switch_nrf52840_xxAA_s140_6.0.0.dir/C_/b/nRF5_SDK_15.0.0_a53641a/modules/nrfx/mdk/system_nrf52840.c.obj
 .bss           0x00000000        0x0 examples/enocean_switch/CMakeFiles/enocean_switch_nrf52840_xxAA_s140_6.0.0.dir/C_/b/nRF5_SDK_15.0.0_a53641a/modules/nrfx/mdk/system_nrf52840.c.obj
 .text.SystemCoreClockUpdate
                0x00000000       0x10 examples/enocean_switch/CMakeFiles/enocean_switch_nrf52840_xxAA_s140_6.0.0.dir/C_/b/nRF5_SDK_15.0.0_a53641a/modules/nrfx/mdk/system_nrf52840.c.obj
 .data          0x00000000        0x0 examples/enocean_switch/CMakeFiles/enocean_switch_nrf52840_xxAA_s140_6.0.0.dir/C_/b/nRF5_SDK_15.0.0_a53641a/modules/nrfx/mdk/gcc_startup_nrf52840.S.obj
 .bss           0x00000000        0x0 examples/enocean_switch/CMakeFiles/enocean_switch_nrf52840_xxAA_s140_6.0.0.dir/C_/b/nRF5_SDK_15.0.0_a53641a/modules/nrfx/mdk/gcc_startup_nrf52840.S.obj
 .text          0x00000000        0x0 examples/enocean_switch/CMakeFiles/enocean_switch_nrf52840_xxAA_s140_6.0.0.dir/C_/b/nRF5_SDK_15.0.0_a53641a/components/libraries/util/app_error.c.obj
 .data          0x00000000        0x0 examples/enocean_switch/CMakeFiles/enocean_switch_nrf52840_xxAA_s140_6.0.0.dir/C_/b/nRF5_SDK_15.0.0_a53641a/components/libraries/util/app_error.c.obj
 .bss           0x00000000        0x0 examples/enocean_switch/CMakeFiles/enocean_switch_nrf52840_xxAA_s140_6.0.0.dir/C_/b/nRF5_SDK_15.0.0_a53641a/components/libraries/util/app_error.c.obj
 .text.app_error_save_and_stop
                0x00000000       0x58 examples/enocean_switch/CMakeFiles/enocean_switch_nrf52840_xxAA_s140_6.0.0.dir/C_/b/nRF5_SDK_15.0.0_a53641a/components/libraries/util/app_error.c.obj
 .bss.m_error_data.8119
                0x00000000       0x20 examples/enocean_switch/CMakeFiles/enocean_switch_nrf52840_xxAA_s140_6.0.0.dir/C_/b/nRF5_SDK_15.0.0_a53641a/components/libraries/util/app_error.c.obj
 .text          0x00000000        0x0 examples/enocean_switch/CMakeFiles/enocean_switch_nrf52840_xxAA_s140_6.0.0.dir/C_/b/nRF5_SDK_15.0.0_a53641a/components/libraries/util/app_util_platform.c.obj
 .data          0x00000000        0x0 examples/enocean_switch/CMakeFiles/enocean_switch_nrf52840_xxAA_s140_6.0.0.dir/C_/b/nRF5_SDK_15.0.0_a53641a/components/libraries/util/app_util_platform.c.obj
 .bss           0x00000000        0x0 examples/enocean_switch/CMakeFiles/enocean_switch_nrf52840_xxAA_s140_6.0.0.dir/C_/b/nRF5_SDK_15.0.0_a53641a/components/libraries/util/app_util_platform.c.obj
 .text.app_util_disable_irq
                0x00000000       0x10 examples/enocean_switch/CMakeFiles/enocean_switch_nrf52840_xxAA_s140_6.0.0.dir/C_/b/nRF5_SDK_15.0.0_a53641a/components/libraries/util/app_util_platform.c.obj
 .text.app_util_enable_irq
                0x00000000       0x14 examples/enocean_switch/CMakeFiles/enocean_switch_nrf52840_xxAA_s140_6.0.0.dir/C_/b/nRF5_SDK_15.0.0_a53641a/components/libraries/util/app_util_platform.c.obj
 .text.privilege_level_get
                0x00000000       0x1a examples/enocean_switch/CMakeFiles/enocean_switch_nrf52840_xxAA_s140_6.0.0.dir/C_/b/nRF5_SDK_15.0.0_a53641a/components/libraries/util/app_util_platform.c.obj
 .text.current_int_priority_get
                0x00000000       0x38 examples/enocean_switch/CMakeFiles/enocean_switch_nrf52840_xxAA_s140_6.0.0.dir/C_/b/nRF5_SDK_15.0.0_a53641a/components/libraries/util/app_util_platform.c.obj
 .bss.m_in_critical_region
                0x00000000        0x4 examples/enocean_switch/CMakeFiles/enocean_switch_nrf52840_xxAA_s140_6.0.0.dir/C_/b/nRF5_SDK_15.0.0_a53641a/components/libraries/util/app_util_platform.c.obj
 .text          0x00000000        0x0 examples/enocean_switch/CMakeFiles/enocean_switch_nrf52840_xxAA_s140_6.0.0.dir/C_/b/nRF5_SDK_15.0.0_a53641a/components/libraries/timer/app_timer.c.obj
 .data          0x00000000        0x0 examples/enocean_switch/CMakeFiles/enocean_switch_nrf52840_xxAA_s140_6.0.0.dir/C_/b/nRF5_SDK_15.0.0_a53641a/components/libraries/timer/app_timer.c.obj
 .bss           0x00000000        0x0 examples/enocean_switch/CMakeFiles/enocean_switch_nrf52840_xxAA_s140_6.0.0.dir/C_/b/nRF5_SDK_15.0.0_a53641a/components/libraries/timer/app_timer.c.obj
 .text.app_timer_stop_all
                0x00000000       0x18 examples/enocean_switch/CMakeFiles/enocean_switch_nrf52840_xxAA_s140_6.0.0.dir/C_/b/nRF5_SDK_15.0.0_a53641a/components/libraries/timer/app_timer.c.obj
 .text.app_timer_cnt_get
                0x00000000        0xc examples/enocean_switch/CMakeFiles/enocean_switch_nrf52840_xxAA_s140_6.0.0.dir/C_/b/nRF5_SDK_15.0.0_a53641a/components/libraries/timer/app_timer.c.obj
 .text.app_timer_cnt_diff_compute
                0x00000000        0x8 examples/enocean_switch/CMakeFiles/enocean_switch_nrf52840_xxAA_s140_6.0.0.dir/C_/b/nRF5_SDK_15.0.0_a53641a/components/libraries/timer/app_timer.c.obj
 .text.app_timer_pause
                0x00000000        0xc examples/enocean_switch/CMakeFiles/enocean_switch_nrf52840_xxAA_s140_6.0.0.dir/C_/b/nRF5_SDK_15.0.0_a53641a/components/libraries/timer/app_timer.c.obj
 .text.app_timer_resume
                0x00000000        0xc examples/enocean_switch/CMakeFiles/enocean_switch_nrf52840_xxAA_s140_6.0.0.dir/C_/b/nRF5_SDK_15.0.0_a53641a/components/libraries/timer/app_timer.c.obj
 .text          0x00000000        0x0 examples/enocean_switch/CMakeFiles/enocean_switch_nrf52840_xxAA_s140_6.0.0.dir/C_/b/nRF5_SDK_15.0.0_a53641a/components/libraries/util/app_error_handler_gcc.c.obj
 .data          0x00000000        0x0 examples/enocean_switch/CMakeFiles/enocean_switch_nrf52840_xxAA_s140_6.0.0.dir/C_/b/nRF5_SDK_15.0.0_a53641a/components/libraries/util/app_error_handler_gcc.c.obj
 .bss           0x00000000        0x0 examples/enocean_switch/CMakeFiles/enocean_switch_nrf52840_xxAA_s140_6.0.0.dir/C_/b/nRF5_SDK_15.0.0_a53641a/components/libraries/util/app_error_handler_gcc.c.obj
 .text          0x00000000        0x0 external/rtt/librtt_nrf52840_xxAA.a(SEGGER_RTT.c.obj)
 .data          0x00000000        0x0 external/rtt/librtt_nrf52840_xxAA.a(SEGGER_RTT.c.obj)
 .bss           0x00000000        0x0 external/rtt/librtt_nrf52840_xxAA.a(SEGGER_RTT.c.obj)
 .text._PostTerminalSwitch.constprop.0
                0x00000000       0x28 external/rtt/librtt_nrf52840_xxAA.a(SEGGER_RTT.c.obj)
 .text.SEGGER_RTT_WriteSkipNoLock
                0x00000000       0xb4 external/rtt/librtt_nrf52840_xxAA.a(SEGGER_RTT.c.obj)
 .text.SEGGER_RTT_WriteString
                0x00000000       0x1a external/rtt/librtt_nrf52840_xxAA.a(SEGGER_RTT.c.obj)
 .text.SEGGER_RTT_WaitKey
                0x00000000        0xc external/rtt/librtt_nrf52840_xxAA.a(SEGGER_RTT.c.obj)
 .text.SEGGER_RTT_HasKey
                0x00000000       0x1c external/rtt/librtt_nrf52840_xxAA.a(SEGGER_RTT.c.obj)
 .text.SEGGER_RTT_HasData
                0x00000000       0x14 external/rtt/librtt_nrf52840_xxAA.a(SEGGER_RTT.c.obj)
 .text.SEGGER_RTT_AllocDownBuffer
                0x00000000       0x68 external/rtt/librtt_nrf52840_xxAA.a(SEGGER_RTT.c.obj)
 .text.SEGGER_RTT_AllocUpBuffer
                0x00000000       0x70 external/rtt/librtt_nrf52840_xxAA.a(SEGGER_RTT.c.obj)
 .text.SEGGER_RTT_ConfigUpBuffer
                0x00000000       0x68 external/rtt/librtt_nrf52840_xxAA.a(SEGGER_RTT.c.obj)
 .text.SEGGER_RTT_ConfigDownBuffer
                0x00000000       0x60 external/rtt/librtt_nrf52840_xxAA.a(SEGGER_RTT.c.obj)
 .text.SEGGER_RTT_SetNameUpBuffer
                0x00000000       0x3c external/rtt/librtt_nrf52840_xxAA.a(SEGGER_RTT.c.obj)
 .text.SEGGER_RTT_SetNameDownBuffer
                0x00000000       0x3c external/rtt/librtt_nrf52840_xxAA.a(SEGGER_RTT.c.obj)
 .text.SEGGER_RTT_Init
                0x00000000       0x10 external/rtt/librtt_nrf52840_xxAA.a(SEGGER_RTT.c.obj)
 .text.SEGGER_RTT_SetTerminal
                0x00000000       0x84 external/rtt/librtt_nrf52840_xxAA.a(SEGGER_RTT.c.obj)
 .text.SEGGER_RTT_TerminalOut
                0x00000000       0xa0 external/rtt/librtt_nrf52840_xxAA.a(SEGGER_RTT.c.obj)
 .bss._ActiveTerminal
                0x00000000        0x1 external/rtt/librtt_nrf52840_xxAA.a(SEGGER_RTT.c.obj)
 .rodata._aTerminalId
                0x00000000       0x10 external/rtt/librtt_nrf52840_xxAA.a(SEGGER_RTT.c.obj)
 .text          0x00000000        0x0 external/rtt/librtt_nrf52840_xxAA.a(SEGGER_RTT_printf.c.obj)
 .data          0x00000000        0x0 external/rtt/librtt_nrf52840_xxAA.a(SEGGER_RTT_printf.c.obj)
 .bss           0x00000000        0x0 external/rtt/librtt_nrf52840_xxAA.a(SEGGER_RTT_printf.c.obj)
 .text          0x00000000        0x0 external/micro-ecc/libuECC_nrf52840_xxAA.a(uECC.c.obj)
 .data          0x00000000        0x0 external/micro-ecc/libuECC_nrf52840_xxAA.a(uECC.c.obj)
 .bss           0x00000000        0x0 external/micro-ecc/libuECC_nrf52840_xxAA.a(uECC.c.obj)
 .text.uECC_vli_modMult
                0x00000000      0x148 external/micro-ecc/libuECC_nrf52840_xxAA.a(uECC.c.obj)
 .text.HMAC_init
                0x00000000       0x46 external/micro-ecc/libuECC_nrf52840_xxAA.a(uECC.c.obj)
 .text.HMAC_update
                0x00000000        0x4 external/micro-ecc/libuECC_nrf52840_xxAA.a(uECC.c.obj)
 .text.HMAC_finish
                0x00000000       0x62 external/micro-ecc/libuECC_nrf52840_xxAA.a(uECC.c.obj)
 .text.update_V
                0x00000000       0x24 external/micro-ecc/libuECC_nrf52840_xxAA.a(uECC.c.obj)
 .text.bits2int
                0x00000000       0x88 external/micro-ecc/libuECC_nrf52840_xxAA.a(uECC.c.obj)
 .text.uECC_sign_with_k
                0x00000000      0x17c external/micro-ecc/libuECC_nrf52840_xxAA.a(uECC.c.obj)
 .text.uECC_set_rng
                0x00000000        0xc external/micro-ecc/libuECC_nrf52840_xxAA.a(uECC.c.obj)
 .text.uECC_get_rng
                0x00000000        0xc external/micro-ecc/libuECC_nrf52840_xxAA.a(uECC.c.obj)
 .text.uECC_curve_private_key_size
                0x00000000        0xe external/micro-ecc/libuECC_nrf52840_xxAA.a(uECC.c.obj)
 .text.uECC_curve_public_key_size
                0x00000000        0x8 external/micro-ecc/libuECC_nrf52840_xxAA.a(uECC.c.obj)
 .text.uECC_compute_public_key
                0x00000000       0x7e external/micro-ecc/libuECC_nrf52840_xxAA.a(uECC.c.obj)
 .text.uECC_sign
                0x00000000       0x56 external/micro-ecc/libuECC_nrf52840_xxAA.a(uECC.c.obj)
 .text.uECC_sign_deterministic
                0x00000000      0x192 external/micro-ecc/libuECC_nrf52840_xxAA.a(uECC.c.obj)
 .text.uECC_verify
                0x00000000      0x2f0 external/micro-ecc/libuECC_nrf52840_xxAA.a(uECC.c.obj)
 .data          0x00000000        0x0 c:/mesh/arm_gcc/bin/../lib/gcc/arm-none-eabi/6.3.1/thumb/v7e-m/fpv4-sp/hard\libgcc.a(_aeabi_uldivmod.o)
 .bss           0x00000000        0x0 c:/mesh/arm_gcc/bin/../lib/gcc/arm-none-eabi/6.3.1/thumb/v7e-m/fpv4-sp/hard\libgcc.a(_aeabi_uldivmod.o)
 .data          0x00000000        0x0 c:/mesh/arm_gcc/bin/../lib/gcc/arm-none-eabi/6.3.1/thumb/v7e-m/fpv4-sp/hard\libgcc.a(_udivmoddi4.o)
 .bss           0x00000000        0x0 c:/mesh/arm_gcc/bin/../lib/gcc/arm-none-eabi/6.3.1/thumb/v7e-m/fpv4-sp/hard\libgcc.a(_udivmoddi4.o)
 .ARM.extab     0x00000000        0x0 c:/mesh/arm_gcc/bin/../lib/gcc/arm-none-eabi/6.3.1/thumb/v7e-m/fpv4-sp/hard\libgcc.a(_udivmoddi4.o)
 .data          0x00000000        0x0 c:/mesh/arm_gcc/bin/../lib/gcc/arm-none-eabi/6.3.1/thumb/v7e-m/fpv4-sp/hard\libgcc.a(_dvmd_tls.o)
 .bss           0x00000000        0x0 c:/mesh/arm_gcc/bin/../lib/gcc/arm-none-eabi/6.3.1/thumb/v7e-m/fpv4-sp/hard\libgcc.a(_dvmd_tls.o)
 .text          0x00000000        0x0 c:/mesh/arm_gcc/bin/../lib/gcc/arm-none-eabi/6.3.1/../../../../arm-none-eabi/lib/thumb/v7e-m/fpv4-sp/hard\libg_nano.a(lib_a-exit.o)
 .data          0x00000000        0x0 c:/mesh/arm_gcc/bin/../lib/gcc/arm-none-eabi/6.3.1/../../../../arm-none-eabi/lib/thumb/v7e-m/fpv4-sp/hard\libg_nano.a(lib_a-exit.o)
 .bss           0x00000000        0x0 c:/mesh/arm_gcc/bin/../lib/gcc/arm-none-eabi/6.3.1/../../../../arm-none-eabi/lib/thumb/v7e-m/fpv4-sp/hard\libg_nano.a(lib_a-exit.o)
 .text          0x00000000        0x0 c:/mesh/arm_gcc/bin/../lib/gcc/arm-none-eabi/6.3.1/../../../../arm-none-eabi/lib/thumb/v7e-m/fpv4-sp/hard\libg_nano.a(lib_a-impure.o)
 .data          0x00000000        0x0 c:/mesh/arm_gcc/bin/../lib/gcc/arm-none-eabi/6.3.1/../../../../arm-none-eabi/lib/thumb/v7e-m/fpv4-sp/hard\libg_nano.a(lib_a-impure.o)
 .bss           0x00000000        0x0 c:/mesh/arm_gcc/bin/../lib/gcc/arm-none-eabi/6.3.1/../../../../arm-none-eabi/lib/thumb/v7e-m/fpv4-sp/hard\libg_nano.a(lib_a-impure.o)
 .text          0x00000000        0x0 c:/mesh/arm_gcc/bin/../lib/gcc/arm-none-eabi/6.3.1/../../../../arm-none-eabi/lib/thumb/v7e-m/fpv4-sp/hard\libg_nano.a(lib_a-init.o)
 .data          0x00000000        0x0 c:/mesh/arm_gcc/bin/../lib/gcc/arm-none-eabi/6.3.1/../../../../arm-none-eabi/lib/thumb/v7e-m/fpv4-sp/hard\libg_nano.a(lib_a-init.o)
 .bss           0x00000000        0x0 c:/mesh/arm_gcc/bin/../lib/gcc/arm-none-eabi/6.3.1/../../../../arm-none-eabi/lib/thumb/v7e-m/fpv4-sp/hard\libg_nano.a(lib_a-init.o)
 .text          0x00000000        0x0 c:/mesh/arm_gcc/bin/../lib/gcc/arm-none-eabi/6.3.1/../../../../arm-none-eabi/lib/thumb/v7e-m/fpv4-sp/hard\libg_nano.a(lib_a-malloc.o)
 .data          0x00000000        0x0 c:/mesh/arm_gcc/bin/../lib/gcc/arm-none-eabi/6.3.1/../../../../arm-none-eabi/lib/thumb/v7e-m/fpv4-sp/hard\libg_nano.a(lib_a-malloc.o)
 .bss           0x00000000        0x0 c:/mesh/arm_gcc/bin/../lib/gcc/arm-none-eabi/6.3.1/../../../../arm-none-eabi/lib/thumb/v7e-m/fpv4-sp/hard\libg_nano.a(lib_a-malloc.o)
 .text          0x00000000        0x0 c:/mesh/arm_gcc/bin/../lib/gcc/arm-none-eabi/6.3.1/../../../../arm-none-eabi/lib/thumb/v7e-m/fpv4-sp/hard\libg_nano.a(lib_a-memcmp.o)
 .data          0x00000000        0x0 c:/mesh/arm_gcc/bin/../lib/gcc/arm-none-eabi/6.3.1/../../../../arm-none-eabi/lib/thumb/v7e-m/fpv4-sp/hard\libg_nano.a(lib_a-memcmp.o)
 .bss           0x00000000        0x0 c:/mesh/arm_gcc/bin/../lib/gcc/arm-none-eabi/6.3.1/../../../../arm-none-eabi/lib/thumb/v7e-m/fpv4-sp/hard\libg_nano.a(lib_a-memcmp.o)
 .text          0x00000000        0x0 c:/mesh/arm_gcc/bin/../lib/gcc/arm-none-eabi/6.3.1/../../../../arm-none-eabi/lib/thumb/v7e-m/fpv4-sp/hard\libg_nano.a(lib_a-memcpy-stub.o)
 .data          0x00000000        0x0 c:/mesh/arm_gcc/bin/../lib/gcc/arm-none-eabi/6.3.1/../../../../arm-none-eabi/lib/thumb/v7e-m/fpv4-sp/hard\libg_nano.a(lib_a-memcpy-stub.o)
 .bss           0x00000000        0x0 c:/mesh/arm_gcc/bin/../lib/gcc/arm-none-eabi/6.3.1/../../../../arm-none-eabi/lib/thumb/v7e-m/fpv4-sp/hard\libg_nano.a(lib_a-memcpy-stub.o)
 .text          0x00000000        0x0 c:/mesh/arm_gcc/bin/../lib/gcc/arm-none-eabi/6.3.1/../../../../arm-none-eabi/lib/thumb/v7e-m/fpv4-sp/hard\libg_nano.a(lib_a-memset.o)
 .data          0x00000000        0x0 c:/mesh/arm_gcc/bin/../lib/gcc/arm-none-eabi/6.3.1/../../../../arm-none-eabi/lib/thumb/v7e-m/fpv4-sp/hard\libg_nano.a(lib_a-memset.o)
 .bss           0x00000000        0x0 c:/mesh/arm_gcc/bin/../lib/gcc/arm-none-eabi/6.3.1/../../../../arm-none-eabi/lib/thumb/v7e-m/fpv4-sp/hard\libg_nano.a(lib_a-memset.o)
 .text          0x00000000        0x0 c:/mesh/arm_gcc/bin/../lib/gcc/arm-none-eabi/6.3.1/../../../../arm-none-eabi/lib/thumb/v7e-m/fpv4-sp/hard\libg_nano.a(lib_a-nano-freer.o)
 .data          0x00000000        0x0 c:/mesh/arm_gcc/bin/../lib/gcc/arm-none-eabi/6.3.1/../../../../arm-none-eabi/lib/thumb/v7e-m/fpv4-sp/hard\libg_nano.a(lib_a-nano-freer.o)
 .bss           0x00000000        0x0 c:/mesh/arm_gcc/bin/../lib/gcc/arm-none-eabi/6.3.1/../../../../arm-none-eabi/lib/thumb/v7e-m/fpv4-sp/hard\libg_nano.a(lib_a-nano-freer.o)
 .text          0x00000000        0x0 c:/mesh/arm_gcc/bin/../lib/gcc/arm-none-eabi/6.3.1/../../../../arm-none-eabi/lib/thumb/v7e-m/fpv4-sp/hard\libg_nano.a(lib_a-nano-mallocr.o)
 .data          0x00000000        0x0 c:/mesh/arm_gcc/bin/../lib/gcc/arm-none-eabi/6.3.1/../../../../arm-none-eabi/lib/thumb/v7e-m/fpv4-sp/hard\libg_nano.a(lib_a-nano-mallocr.o)
 .bss           0x00000000        0x0 c:/mesh/arm_gcc/bin/../lib/gcc/arm-none-eabi/6.3.1/../../../../arm-none-eabi/lib/thumb/v7e-m/fpv4-sp/hard\libg_nano.a(lib_a-nano-mallocr.o)
 .text          0x00000000        0x0 c:/mesh/arm_gcc/bin/../lib/gcc/arm-none-eabi/6.3.1/../../../../arm-none-eabi/lib/thumb/v7e-m/fpv4-sp/hard\libg_nano.a(lib_a-sbrkr.o)
 .data          0x00000000        0x0 c:/mesh/arm_gcc/bin/../lib/gcc/arm-none-eabi/6.3.1/../../../../arm-none-eabi/lib/thumb/v7e-m/fpv4-sp/hard\libg_nano.a(lib_a-sbrkr.o)
 .bss           0x00000000        0x0 c:/mesh/arm_gcc/bin/../lib/gcc/arm-none-eabi/6.3.1/../../../../arm-none-eabi/lib/thumb/v7e-m/fpv4-sp/hard\libg_nano.a(lib_a-sbrkr.o)
 .text          0x00000000        0x0 c:/mesh/arm_gcc/bin/../lib/gcc/arm-none-eabi/6.3.1/../../../../arm-none-eabi/lib/thumb/v7e-m/fpv4-sp/hard\libg_nano.a(lib_a-strcpy.o)
 .data          0x00000000        0x0 c:/mesh/arm_gcc/bin/../lib/gcc/arm-none-eabi/6.3.1/../../../../arm-none-eabi/lib/thumb/v7e-m/fpv4-sp/hard\libg_nano.a(lib_a-strcpy.o)
 .bss           0x00000000        0x0 c:/mesh/arm_gcc/bin/../lib/gcc/arm-none-eabi/6.3.1/../../../../arm-none-eabi/lib/thumb/v7e-m/fpv4-sp/hard\libg_nano.a(lib_a-strcpy.o)
 .data          0x00000000        0x0 c:/mesh/arm_gcc/bin/../lib/gcc/arm-none-eabi/6.3.1/../../../../arm-none-eabi/lib/thumb/v7e-m/fpv4-sp/hard\libg_nano.a(lib_a-strlen.o)
 .bss           0x00000000        0x0 c:/mesh/arm_gcc/bin/../lib/gcc/arm-none-eabi/6.3.1/../../../../arm-none-eabi/lib/thumb/v7e-m/fpv4-sp/hard\libg_nano.a(lib_a-strlen.o)
 .text          0x00000000        0x0 c:/mesh/arm_gcc/bin/../lib/gcc/arm-none-eabi/6.3.1/../../../../arm-none-eabi/lib/thumb/v7e-m/fpv4-sp/hard\libg_nano.a(lib_a-strrchr.o)
 .data          0x00000000        0x0 c:/mesh/arm_gcc/bin/../lib/gcc/arm-none-eabi/6.3.1/../../../../arm-none-eabi/lib/thumb/v7e-m/fpv4-sp/hard\libg_nano.a(lib_a-strrchr.o)
 .bss           0x00000000        0x0 c:/mesh/arm_gcc/bin/../lib/gcc/arm-none-eabi/6.3.1/../../../../arm-none-eabi/lib/thumb/v7e-m/fpv4-sp/hard\libg_nano.a(lib_a-strrchr.o)
 .text          0x00000000        0x0 c:/mesh/arm_gcc/bin/../lib/gcc/arm-none-eabi/6.3.1/../../../../arm-none-eabi/lib/thumb/v7e-m/fpv4-sp/hard\libg_nano.a(lib_a-mlock.o)
 .data          0x00000000        0x0 c:/mesh/arm_gcc/bin/../lib/gcc/arm-none-eabi/6.3.1/../../../../arm-none-eabi/lib/thumb/v7e-m/fpv4-sp/hard\libg_nano.a(lib_a-mlock.o)
 .bss           0x00000000        0x0 c:/mesh/arm_gcc/bin/../lib/gcc/arm-none-eabi/6.3.1/../../../../arm-none-eabi/lib/thumb/v7e-m/fpv4-sp/hard\libg_nano.a(lib_a-mlock.o)
 .text          0x00000000        0x0 c:/mesh/arm_gcc/bin/../lib/gcc/arm-none-eabi/6.3.1/../../../../arm-none-eabi/lib/thumb/v7e-m/fpv4-sp/hard\libg_nano.a(lib_a-reent.o)
 .data          0x00000000        0x0 c:/mesh/arm_gcc/bin/../lib/gcc/arm-none-eabi/6.3.1/../../../../arm-none-eabi/lib/thumb/v7e-m/fpv4-sp/hard\libg_nano.a(lib_a-reent.o)
 .bss           0x00000000        0x0 c:/mesh/arm_gcc/bin/../lib/gcc/arm-none-eabi/6.3.1/../../../../arm-none-eabi/lib/thumb/v7e-m/fpv4-sp/hard\libg_nano.a(lib_a-reent.o)
 .text.cleanup_glue
                0x00000000       0x1a c:/mesh/arm_gcc/bin/../lib/gcc/arm-none-eabi/6.3.1/../../../../arm-none-eabi/lib/thumb/v7e-m/fpv4-sp/hard\libg_nano.a(lib_a-reent.o)
 .text._reclaim_reent
                0x00000000       0xb8 c:/mesh/arm_gcc/bin/../lib/gcc/arm-none-eabi/6.3.1/../../../../arm-none-eabi/lib/thumb/v7e-m/fpv4-sp/hard\libg_nano.a(lib_a-reent.o)
 .text          0x00000000        0x0 c:/mesh/arm_gcc/bin/../lib/gcc/arm-none-eabi/6.3.1/../../../../arm-none-eabi/lib/thumb/v7e-m/fpv4-sp/hard\libg_nano.a(lib_a-strchr.o)
 .data          0x00000000        0x0 c:/mesh/arm_gcc/bin/../lib/gcc/arm-none-eabi/6.3.1/../../../../arm-none-eabi/lib/thumb/v7e-m/fpv4-sp/hard\libg_nano.a(lib_a-strchr.o)
 .bss           0x00000000        0x0 c:/mesh/arm_gcc/bin/../lib/gcc/arm-none-eabi/6.3.1/../../../../arm-none-eabi/lib/thumb/v7e-m/fpv4-sp/hard\libg_nano.a(lib_a-strchr.o)
 .text          0x00000000        0x0 c:/mesh/arm_gcc/bin/../lib/gcc/arm-none-eabi/6.3.1/thumb/v7e-m/fpv4-sp/hard/crtend.o
 .data          0x00000000        0x0 c:/mesh/arm_gcc/bin/../lib/gcc/arm-none-eabi/6.3.1/thumb/v7e-m/fpv4-sp/hard/crtend.o
 .bss           0x00000000        0x0 c:/mesh/arm_gcc/bin/../lib/gcc/arm-none-eabi/6.3.1/thumb/v7e-m/fpv4-sp/hard/crtend.o
 .text          0x00000000        0x0 c:/mesh/arm_gcc/bin/../lib/gcc/arm-none-eabi/6.3.1/thumb/v7e-m/fpv4-sp/hard/crtn.o
 .data          0x00000000        0x0 c:/mesh/arm_gcc/bin/../lib/gcc/arm-none-eabi/6.3.1/thumb/v7e-m/fpv4-sp/hard/crtn.o
 .bss           0x00000000        0x0 c:/mesh/arm_gcc/bin/../lib/gcc/arm-none-eabi/6.3.1/thumb/v7e-m/fpv4-sp/hard/crtn.o
 .text          0x00000000        0x0 c:/mesh/arm_gcc/bin/../lib/gcc/arm-none-eabi/6.3.1/../../../../arm-none-eabi/lib/thumb/v7e-m/fpv4-sp/hard\libnosys.a(sbrk.o)
 .data          0x00000000        0x0 c:/mesh/arm_gcc/bin/../lib/gcc/arm-none-eabi/6.3.1/../../../../arm-none-eabi/lib/thumb/v7e-m/fpv4-sp/hard\libnosys.a(sbrk.o)
 .bss           0x00000000        0x0 c:/mesh/arm_gcc/bin/../lib/gcc/arm-none-eabi/6.3.1/../../../../arm-none-eabi/lib/thumb/v7e-m/fpv4-sp/hard\libnosys.a(sbrk.o)
 .text          0x00000000        0x0 c:/mesh/arm_gcc/bin/../lib/gcc/arm-none-eabi/6.3.1/../../../../arm-none-eabi/lib/thumb/v7e-m/fpv4-sp/hard\libnosys.a(_exit.o)
 .data          0x00000000        0x0 c:/mesh/arm_gcc/bin/../lib/gcc/arm-none-eabi/6.3.1/../../../../arm-none-eabi/lib/thumb/v7e-m/fpv4-sp/hard\libnosys.a(_exit.o)
 .bss           0x00000000        0x0 c:/mesh/arm_gcc/bin/../lib/gcc/arm-none-eabi/6.3.1/../../../../arm-none-eabi/lib/thumb/v7e-m/fpv4-sp/hard\libnosys.a(_exit.o)

Memory Configuration

Name             Origin             Length             Attributes
FLASH            0x00026000         0x000d1000         xr
RAM              0x20002da0         0x0003cf60         xrw
*default*        0x00000000         0xffffffff

Linker script and memory map


.text           0x00026000    0x14db4
 *(.isr_vector)
 .isr_vector    0x00026000      0x200 examples/enocean_switch/CMakeFiles/enocean_switch_nrf52840_xxAA_s140_6.0.0.dir/C_/b/nRF5_SDK_15.0.0_a53641a/modules/nrfx/mdk/gcc_startup_nrf52840.S.obj
                0x00026000                __isr_vector
 *(.text*)
 .text          0x00026200       0x6c c:/mesh/arm_gcc/bin/../lib/gcc/arm-none-eabi/6.3.1/thumb/v7e-m/fpv4-sp/hard/crtbegin.o
 .text          0x0002626c       0x74 c:/mesh/arm_gcc/bin/../lib/gcc/arm-none-eabi/6.3.1/../../../../arm-none-eabi/lib/thumb/v7e-m/fpv4-sp/hard/crt0.o
                0x0002626c                _start
                0x0002626c                _mainCRTStartup
 .text.sd_app_evt_wait
                0x000262e0        0x4 examples/enocean_switch/CMakeFiles/enocean_switch_nrf52840_xxAA_s140_6.0.0.dir/src/main.c.obj
 .text.provisioning_complete_cb
                0x000262e4       0xd4 examples/enocean_switch/CMakeFiles/enocean_switch_nrf52840_xxAA_s140_6.0.0.dir/src/main.c.obj
 .text.app_data_store_try
                0x000263b8      0x104 examples/enocean_switch/CMakeFiles/enocean_switch_nrf52840_xxAA_s140_6.0.0.dir/src/main.c.obj
 .text.node_reset
                0x000264bc       0x78 examples/enocean_switch/CMakeFiles/enocean_switch_nrf52840_xxAA_s140_6.0.0.dir/src/main.c.obj
 .text.button_event_handler
                0x00026534       0x94 examples/enocean_switch/CMakeFiles/enocean_switch_nrf52840_xxAA_s140_6.0.0.dir/src/main.c.obj
 .text.app_rtt_input_handler
                0x000265c8        0xc examples/enocean_switch/CMakeFiles/enocean_switch_nrf52840_xxAA_s140_6.0.0.dir/src/main.c.obj
 .text.config_server_evt_cb
                0x000265d4        0xc examples/enocean_switch/CMakeFiles/enocean_switch_nrf52840_xxAA_s140_6.0.0.dir/src/main.c.obj
 .text.app_enocean_cb
                0x000265e0      0x388 examples/enocean_switch/CMakeFiles/enocean_switch_nrf52840_xxAA_s140_6.0.0.dir/src/main.c.obj
 .text.rx_callback
                0x00026968        0x4 examples/enocean_switch/CMakeFiles/enocean_switch_nrf52840_xxAA_s140_6.0.0.dir/src/main.c.obj
 .text.models_init_cb
                0x0002696c       0xa8 examples/enocean_switch/CMakeFiles/enocean_switch_nrf52840_xxAA_s140_6.0.0.dir/src/main.c.obj
 .text.client_status_cb
                0x00026a14       0xb8 examples/enocean_switch/CMakeFiles/enocean_switch_nrf52840_xxAA_s140_6.0.0.dir/src/main.c.obj
 .text.app_mesh_core_event_cb
                0x00026acc      0x15c examples/enocean_switch/CMakeFiles/enocean_switch_nrf52840_xxAA_s140_6.0.0.dir/src/main.c.obj
 .text.startup.main
                0x00026c28      0x294 examples/enocean_switch/CMakeFiles/enocean_switch_nrf52840_xxAA_s140_6.0.0.dir/src/main.c.obj
                0x00026c28                main
 .text.enocean_packet_process
                0x00026ebc      0x1f8 examples/enocean_switch/CMakeFiles/enocean_switch_nrf52840_xxAA_s140_6.0.0.dir/src/enocean.c.obj
                0x00026ebc                enocean_packet_process
 .text.enocean_secmat_add
                0x000270b4       0x20 examples/enocean_switch/CMakeFiles/enocean_switch_nrf52840_xxAA_s140_6.0.0.dir/src/enocean.c.obj
                0x000270b4                enocean_secmat_add
 .text.enocean_translator_init
                0x000270d4       0x18 examples/enocean_switch/CMakeFiles/enocean_switch_nrf52840_xxAA_s140_6.0.0.dir/src/enocean.c.obj
                0x000270d4                enocean_translator_init
 .text.flash_manager_mem_available
                0x000270ec       0x6c examples/enocean_switch/CMakeFiles/enocean_switch_nrf52840_xxAA_s140_6.0.0.dir/src/flash_helper.c.obj
 .text.flash_invalidate_complete
                0x00027158       0x10 examples/enocean_switch/CMakeFiles/enocean_switch_nrf52840_xxAA_s140_6.0.0.dir/src/flash_helper.c.obj
 .text.flash_write_complete
                0x00027168       0x8c examples/enocean_switch/CMakeFiles/enocean_switch_nrf52840_xxAA_s140_6.0.0.dir/src/flash_helper.c.obj
 .text.flash_manager_wait
                0x000271f4       0x16 examples/enocean_switch/CMakeFiles/enocean_switch_nrf52840_xxAA_s140_6.0.0.dir/src/flash_helper.c.obj
 *fill*         0x0002720a        0x2 
 .text.flash_reset
                0x0002720c       0x80 examples/enocean_switch/CMakeFiles/enocean_switch_nrf52840_xxAA_s140_6.0.0.dir/src/flash_helper.c.obj
 .text.app_flash_init
                0x0002728c       0xa8 examples/enocean_switch/CMakeFiles/enocean_switch_nrf52840_xxAA_s140_6.0.0.dir/src/flash_helper.c.obj
                0x0002728c                app_flash_init
 .text.flash_remove_complete
                0x00027334       0x64 examples/enocean_switch/CMakeFiles/enocean_switch_nrf52840_xxAA_s140_6.0.0.dir/src/flash_helper.c.obj
 .text.app_flash_data_load
                0x00027398       0x34 examples/enocean_switch/CMakeFiles/enocean_switch_nrf52840_xxAA_s140_6.0.0.dir/src/flash_helper.c.obj
                0x00027398                app_flash_data_load
 .text.app_flash_data_store
                0x000273cc       0x94 examples/enocean_switch/CMakeFiles/enocean_switch_nrf52840_xxAA_s140_6.0.0.dir/src/flash_helper.c.obj
                0x000273cc                app_flash_data_store
 .text.app_flash_clear
                0x00027460       0x12 examples/enocean_switch/CMakeFiles/enocean_switch_nrf52840_xxAA_s140_6.0.0.dir/src/flash_helper.c.obj
                0x00027460                app_flash_clear
 .text.mesh_evt_handler
                0x00027472        0xe examples/enocean_switch/CMakeFiles/enocean_switch_nrf52840_xxAA_s140_6.0.0.dir/__/__/mesh/stack/src/mesh_stack.c.obj
 .text.mesh_stack_start
                0x00027480        0x4 examples/enocean_switch/CMakeFiles/enocean_switch_nrf52840_xxAA_s140_6.0.0.dir/__/__/mesh/stack/src/mesh_stack.c.obj
                0x00027480                mesh_stack_start
 .text.mesh_stack_provisioning_data_store
                0x00027484       0x6c examples/enocean_switch/CMakeFiles/enocean_switch_nrf52840_xxAA_s140_6.0.0.dir/__/__/mesh/stack/src/mesh_stack.c.obj
                0x00027484                mesh_stack_provisioning_data_store
 .text.mesh_stack_config_clear
                0x000274f0       0x12 examples/enocean_switch/CMakeFiles/enocean_switch_nrf52840_xxAA_s140_6.0.0.dir/__/__/mesh/stack/src/mesh_stack.c.obj
                0x000274f0                mesh_stack_config_clear
 .text.mesh_stack_is_device_provisioned
                0x00027502       0x18 examples/enocean_switch/CMakeFiles/enocean_switch_nrf52840_xxAA_s140_6.0.0.dir/__/__/mesh/stack/src/mesh_stack.c.obj
                0x00027502                mesh_stack_is_device_provisioned
 *fill*         0x0002751a        0x2 
 .text.mesh_stack_init
                0x0002751c       0x60 examples/enocean_switch/CMakeFiles/enocean_switch_nrf52840_xxAA_s140_6.0.0.dir/__/__/mesh/stack/src/mesh_stack.c.obj
                0x0002751c                mesh_stack_init
 .text.mesh_stack_device_reset
                0x0002757c       0x20 examples/enocean_switch/CMakeFiles/enocean_switch_nrf52840_xxAA_s140_6.0.0.dir/__/__/mesh/stack/src/mesh_stack.c.obj
                0x0002757c                mesh_stack_device_reset
 .text.sd_evt_get
                0x0002759c        0x4 examples/enocean_switch/CMakeFiles/enocean_switch_nrf52840_xxAA_s140_6.0.0.dir/__/common/src/mesh_softdevice_init.c.obj
 .text.sd_softdevice_enable
                0x000275a0        0x4 examples/enocean_switch/CMakeFiles/enocean_switch_nrf52840_xxAA_s140_6.0.0.dir/__/common/src/mesh_softdevice_init.c.obj
 .text.sd_ble_enable
                0x000275a4        0x4 examples/enocean_switch/CMakeFiles/enocean_switch_nrf52840_xxAA_s140_6.0.0.dir/__/common/src/mesh_softdevice_init.c.obj
 .text.sd_ble_cfg_set
                0x000275a8        0x4 examples/enocean_switch/CMakeFiles/enocean_switch_nrf52840_xxAA_s140_6.0.0.dir/__/common/src/mesh_softdevice_init.c.obj
 .text.SWI2_EGU2_IRQHandler
                0x000275ac       0x18 examples/enocean_switch/CMakeFiles/enocean_switch_nrf52840_xxAA_s140_6.0.0.dir/__/common/src/mesh_softdevice_init.c.obj
                0x000275ac                SWI2_EGU2_IRQHandler
 .text.mesh_softdevice_init
                0x000275c4      0x1ac examples/enocean_switch/CMakeFiles/enocean_switch_nrf52840_xxAA_s140_6.0.0.dir/__/common/src/mesh_softdevice_init.c.obj
                0x000275c4                mesh_softdevice_init
 .text.provisionee_start
                0x00027770       0x18 examples/enocean_switch/CMakeFiles/enocean_switch_nrf52840_xxAA_s140_6.0.0.dir/__/common/src/mesh_provisionee.c.obj
 .text.prov_evt_handler
                0x00027788       0x64 examples/enocean_switch/CMakeFiles/enocean_switch_nrf52840_xxAA_s140_6.0.0.dir/__/common/src/mesh_provisionee.c.obj
 .text.mesh_provisionee_prov_start
                0x000277ec       0x78 examples/enocean_switch/CMakeFiles/enocean_switch_nrf52840_xxAA_s140_6.0.0.dir/__/common/src/mesh_provisionee.c.obj
                0x000277ec                mesh_provisionee_prov_start
 .text.timeout_handler
                0x00027864       0x1c examples/enocean_switch/CMakeFiles/enocean_switch_nrf52840_xxAA_s140_6.0.0.dir/__/common/src/rtt_input.c.obj
                0x00027864                timeout_handler
 .text.rtt_input_enable
                0x00027880       0x6c examples/enocean_switch/CMakeFiles/enocean_switch_nrf52840_xxAA_s140_6.0.0.dir/__/common/src/rtt_input.c.obj
                0x00027880                rtt_input_enable
 .text.led_timeout_handler
                0x000278ec       0x40 examples/enocean_switch/CMakeFiles/enocean_switch_nrf52840_xxAA_s140_6.0.0.dir/__/common/src/simple_hal.c.obj
 .text.hal_led_pin_set
                0x0002792c       0x16 examples/enocean_switch/CMakeFiles/enocean_switch_nrf52840_xxAA_s140_6.0.0.dir/__/common/src/simple_hal.c.obj
                0x0002792c                hal_led_pin_set
 .text.hal_led_mask_set
                0x00027942       0x12 examples/enocean_switch/CMakeFiles/enocean_switch_nrf52840_xxAA_s140_6.0.0.dir/__/common/src/simple_hal.c.obj
                0x00027942                hal_led_mask_set
 .text.hal_led_blink_ms
                0x00027954       0x5c examples/enocean_switch/CMakeFiles/enocean_switch_nrf52840_xxAA_s140_6.0.0.dir/__/common/src/simple_hal.c.obj
                0x00027954                hal_led_blink_ms
 .text.hal_leds_init
                0x000279b0       0x58 examples/enocean_switch/CMakeFiles/enocean_switch_nrf52840_xxAA_s140_6.0.0.dir/__/common/src/simple_hal.c.obj
                0x000279b0                hal_leds_init
 .text.hal_buttons_init
                0x00027a08       0x50 examples/enocean_switch/CMakeFiles/enocean_switch_nrf52840_xxAA_s140_6.0.0.dir/__/common/src/simple_hal.c.obj
                0x00027a08                hal_buttons_init
 .text.GPIOTE_IRQHandler
                0x00027a58       0x60 examples/enocean_switch/CMakeFiles/enocean_switch_nrf52840_xxAA_s140_6.0.0.dir/__/common/src/simple_hal.c.obj
                0x00027a58                GPIOTE_IRQHandler
 .text._weak_handler
                0x00027ab8        0x4 examples/enocean_switch/CMakeFiles/enocean_switch_nrf52840_xxAA_s140_6.0.0.dir/__/nrf_mesh_weak.c.obj
                0x00027ab8                nrf_mesh_dfu_init
                0x00027ab8                nrf_mesh_dfu_jump_to_bootloader
                0x00027ab8                nrf_mesh_dfu_rx
                0x00027ab8                prov_provisioner_provision
                0x00027ab8                nrf_mesh_dfu_bank_info_get
                0x00027ab8                prov_provisioner_oob_pubkey
                0x00027ab8                nrf_mesh_dfu_request
                0x00027ab8                nrf_mesh_dfu_bank_flash
                0x00027ab8                _weak_handler
                0x00027ab8                nrf_mesh_dfu_relay
                0x00027ab8                nrf_mesh_dfu_abort
                0x00027ab8                mesh_flash_op_execute
                0x00027ab8                prov_provisionee_init
                0x00027ab8                nrf_mesh_dfu_state_get
                0x00027ab8                prov_provisioner_shared_secret
                0x00027ab8                prov_provisioner_auth_data
                0x00027ab8                prov_provisioner_oob_use
 .text.app_error_fault_handler
                0x00027abc      0x204 examples/enocean_switch/CMakeFiles/enocean_switch_nrf52840_xxAA_s140_6.0.0.dir/__/common/src/app_error_weak.c.obj
                0x00027abc                app_error_fault_handler
 .text.mesh_assertion_handler
                0x00027cc0       0x24 examples/enocean_switch/CMakeFiles/enocean_switch_nrf52840_xxAA_s140_6.0.0.dir/__/common/src/assertion_handler_weak.c.obj
                0x00027cc0                mesh_assertion_handler
 .text.nrf_mesh_configure_device_uuid_set
                0x00027ce4       0x10 examples/enocean_switch/CMakeFiles/enocean_switch_nrf52840_xxAA_s140_6.0.0.dir/__/__/mesh/core/src/nrf_mesh_configure.c.obj
                0x00027ce4                nrf_mesh_configure_device_uuid_set
 .text.nrf_mesh_configure_device_uuid_reset
                0x00027cf4       0x28 examples/enocean_switch/CMakeFiles/enocean_switch_nrf52840_xxAA_s140_6.0.0.dir/__/__/mesh/core/src/nrf_mesh_configure.c.obj
                0x00027cf4                nrf_mesh_configure_device_uuid_reset
 .text.nrf_mesh_configure_device_uuid_get
                0x00027d1c        0x8 examples/enocean_switch/CMakeFiles/enocean_switch_nrf52840_xxAA_s140_6.0.0.dir/__/__/mesh/core/src/nrf_mesh_configure.c.obj
                0x00027d1c                nrf_mesh_configure_device_uuid_get
 .text.msg_cache_init
                0x00027d24       0x24 examples/enocean_switch/CMakeFiles/enocean_switch_nrf52840_xxAA_s140_6.0.0.dir/__/__/mesh/core/src/msg_cache.c.obj
                0x00027d24                msg_cache_init
 .text.msg_cache_entry_exists
                0x00027d48       0x3c examples/enocean_switch/CMakeFiles/enocean_switch_nrf52840_xxAA_s140_6.0.0.dir/__/__/mesh/core/src/msg_cache.c.obj
                0x00027d48                msg_cache_entry_exists
 .text.msg_cache_entry_add
                0x00027d84       0x2c examples/enocean_switch/CMakeFiles/enocean_switch_nrf52840_xxAA_s140_6.0.0.dir/__/__/mesh/core/src/msg_cache.c.obj
                0x00027d84                msg_cache_entry_add
 .text.seqauth_sequence_number_get
                0x00027db0       0x12 examples/enocean_switch/CMakeFiles/enocean_switch_nrf52840_xxAA_s140_6.0.0.dir/__/__/mesh/core/src/transport.c.obj
 *fill*         0x00027dc2        0x2 
 .text.control_packet_callback_get
                0x00027dc4       0x44 examples/enocean_switch/CMakeFiles/enocean_switch_nrf52840_xxAA_s140_6.0.0.dir/__/__/mesh/core/src/transport.c.obj
 .text.tx_complete
                0x00027e08       0x2c examples/enocean_switch/CMakeFiles/enocean_switch_nrf52840_xxAA_s140_6.0.0.dir/__/__/mesh/core/src/transport.c.obj
 .text.block_ack_full
                0x00027e34       0x1a examples/enocean_switch/CMakeFiles/enocean_switch_nrf52840_xxAA_s140_6.0.0.dir/__/__/mesh/core/src/transport.c.obj
 *fill*         0x00027e4e        0x2 
 .text.sar_rx_session_mark_as_handled
                0x00027e50       0x48 examples/enocean_switch/CMakeFiles/enocean_switch_nrf52840_xxAA_s140_6.0.0.dir/__/__/mesh/core/src/transport.c.obj
 .text.upper_trs_packet_encrypt
                0x00027e98       0x90 examples/enocean_switch/CMakeFiles/enocean_switch_nrf52840_xxAA_s140_6.0.0.dir/__/__/mesh/core/src/transport.c.obj
 .text.sar_ctx_free
                0x00027f28       0x3c examples/enocean_switch/CMakeFiles/enocean_switch_nrf52840_xxAA_s140_6.0.0.dir/__/__/mesh/core/src/transport.c.obj
 .text.sar_ctx_tx_complete
                0x00027f64       0x2e examples/enocean_switch/CMakeFiles/enocean_switch_nrf52840_xxAA_s140_6.0.0.dir/__/__/mesh/core/src/transport.c.obj
 *fill*         0x00027f92        0x2 
 .text.sar_ctx_alloc
                0x00027f94       0xa8 examples/enocean_switch/CMakeFiles/enocean_switch_nrf52840_xxAA_s140_6.0.0.dir/__/__/mesh/core/src/transport.c.obj
 .text.test_transport_decrypt
                0x0002803c       0x88 examples/enocean_switch/CMakeFiles/enocean_switch_nrf52840_xxAA_s140_6.0.0.dir/__/__/mesh/core/src/transport.c.obj
 .text.upper_transport_access_packet_in
                0x000280c4      0x19c examples/enocean_switch/CMakeFiles/enocean_switch_nrf52840_xxAA_s140_6.0.0.dir/__/__/mesh/core/src/transport.c.obj
 .text.trs_packet_header_build
                0x00028260       0xa6 examples/enocean_switch/CMakeFiles/enocean_switch_nrf52840_xxAA_s140_6.0.0.dir/__/__/mesh/core/src/transport.c.obj
 *fill*         0x00028306        0x2 
 .text.tx_retry_timer_reset
                0x00028308       0x44 examples/enocean_switch/CMakeFiles/enocean_switch_nrf52840_xxAA_s140_6.0.0.dir/__/__/mesh/core/src/transport.c.obj
 .text.sar_ctx_cancel
                0x0002834c       0xa8 examples/enocean_switch/CMakeFiles/enocean_switch_nrf52840_xxAA_s140_6.0.0.dir/__/__/mesh/core/src/transport.c.obj
 .text.abort_timeout
                0x000283f4        0x8 examples/enocean_switch/CMakeFiles/enocean_switch_nrf52840_xxAA_s140_6.0.0.dir/__/__/mesh/core/src/transport.c.obj
 .text.trs_sar_packet_out
                0x000283fc       0xda examples/enocean_switch/CMakeFiles/enocean_switch_nrf52840_xxAA_s140_6.0.0.dir/__/__/mesh/core/src/transport.c.obj
 .text.retry_timeout
                0x000284d6       0x46 examples/enocean_switch/CMakeFiles/enocean_switch_nrf52840_xxAA_s140_6.0.0.dir/__/__/mesh/core/src/transport.c.obj
 .text.upper_transport_packet_in
                0x0002851c      0x150 examples/enocean_switch/CMakeFiles/enocean_switch_nrf52840_xxAA_s140_6.0.0.dir/__/__/mesh/core/src/transport.c.obj
 .text.upper_transport_tx
                0x0002866c      0x1e4 examples/enocean_switch/CMakeFiles/enocean_switch_nrf52840_xxAA_s140_6.0.0.dir/__/__/mesh/core/src/transport.c.obj
 .text.transport_sar_mem_funcs_reset
                0x00028850       0x28 examples/enocean_switch/CMakeFiles/enocean_switch_nrf52840_xxAA_s140_6.0.0.dir/__/__/mesh/core/src/transport.c.obj
                0x00028850                transport_sar_mem_funcs_reset
 .text.transport_init
                0x00028878       0x8c examples/enocean_switch/CMakeFiles/enocean_switch_nrf52840_xxAA_s140_6.0.0.dir/__/__/mesh/core/src/transport.c.obj
                0x00028878                transport_init
 .text.transport_tx
                0x00028904       0xb4 examples/enocean_switch/CMakeFiles/enocean_switch_nrf52840_xxAA_s140_6.0.0.dir/__/__/mesh/core/src/transport.c.obj
                0x00028904                transport_tx
 .text.transport_control_tx
                0x000289b8       0x8e examples/enocean_switch/CMakeFiles/enocean_switch_nrf52840_xxAA_s140_6.0.0.dir/__/__/mesh/core/src/transport.c.obj
                0x000289b8                transport_control_tx
 *fill*         0x00028a46        0x2 
 .text.sar_ack_send
                0x00028a48       0xa0 examples/enocean_switch/CMakeFiles/enocean_switch_nrf52840_xxAA_s140_6.0.0.dir/__/__/mesh/core/src/transport.c.obj
 .text.transport_sar_process
                0x00028ae8       0x74 examples/enocean_switch/CMakeFiles/enocean_switch_nrf52840_xxAA_s140_6.0.0.dir/__/__/mesh/core/src/transport.c.obj
 .text.transport_packet_in
                0x00028b5c      0x434 examples/enocean_switch/CMakeFiles/enocean_switch_nrf52840_xxAA_s140_6.0.0.dir/__/__/mesh/core/src/transport.c.obj
                0x00028b5c                transport_packet_in
 .text.ack_timeout
                0x00028f90       0x28 examples/enocean_switch/CMakeFiles/enocean_switch_nrf52840_xxAA_s140_6.0.0.dir/__/__/mesh/core/src/transport.c.obj
 .text.transport_opt_set
                0x00028fb8       0xd0 examples/enocean_switch/CMakeFiles/enocean_switch_nrf52840_xxAA_s140_6.0.0.dir/__/__/mesh/core/src/transport.c.obj
                0x00028fb8                transport_opt_set
 .text.transport_opt_get
                0x00029088       0x68 examples/enocean_switch/CMakeFiles/enocean_switch_nrf52840_xxAA_s140_6.0.0.dir/__/__/mesh/core/src/transport.c.obj
                0x00029088                transport_opt_get
 .text.transport_control_packet_consumer_add
                0x000290f0       0x5c examples/enocean_switch/CMakeFiles/enocean_switch_nrf52840_xxAA_s140_6.0.0.dir/__/__/mesh/core/src/transport.c.obj
                0x000290f0                transport_control_packet_consumer_add
 .text.event_handle
                0x0002914c       0x54 examples/enocean_switch/CMakeFiles/enocean_switch_nrf52840_xxAA_s140_6.0.0.dir/__/__/mesh/core/src/event.c.obj
                0x0002914c                event_handle
 .text.event_handler_add
                0x000291a0       0x20 examples/enocean_switch/CMakeFiles/enocean_switch_nrf52840_xxAA_s140_6.0.0.dir/__/__/mesh/core/src/event.c.obj
                0x000291a0                event_handler_add
 .text.event_handler_remove
                0x000291c0       0x34 examples/enocean_switch/CMakeFiles/enocean_switch_nrf52840_xxAA_s140_6.0.0.dir/__/__/mesh/core/src/event.c.obj
                0x000291c0                event_handler_remove
 .text.m_index_increment
                0x000291f4       0x1e examples/enocean_switch/CMakeFiles/enocean_switch_nrf52840_xxAA_s140_6.0.0.dir/__/__/mesh/core/src/packet_buffer.c.obj
 .text.packet_buffer_init
                0x00029212       0xac examples/enocean_switch/CMakeFiles/enocean_switch_nrf52840_xxAA_s140_6.0.0.dir/__/__/mesh/core/src/packet_buffer.c.obj
                0x00029212                packet_buffer_init
 .text.packet_buffer_flush
                0x000292be       0x60 examples/enocean_switch/CMakeFiles/enocean_switch_nrf52840_xxAA_s140_6.0.0.dir/__/__/mesh/core/src/packet_buffer.c.obj
                0x000292be                packet_buffer_flush
 .text.packet_buffer_reserve
                0x0002931e       0x96 examples/enocean_switch/CMakeFiles/enocean_switch_nrf52840_xxAA_s140_6.0.0.dir/__/__/mesh/core/src/packet_buffer.c.obj
                0x0002931e                packet_buffer_reserve
 .text.packet_buffer_commit
                0x000293b4       0x58 examples/enocean_switch/CMakeFiles/enocean_switch_nrf52840_xxAA_s140_6.0.0.dir/__/__/mesh/core/src/packet_buffer.c.obj
                0x000293b4                packet_buffer_commit
 .text.packet_buffer_pop
                0x0002940c       0x3c examples/enocean_switch/CMakeFiles/enocean_switch_nrf52840_xxAA_s140_6.0.0.dir/__/__/mesh/core/src/packet_buffer.c.obj
                0x0002940c                packet_buffer_pop
 .text.packet_buffer_can_pop
                0x00029448       0x1c examples/enocean_switch/CMakeFiles/enocean_switch_nrf52840_xxAA_s140_6.0.0.dir/__/__/mesh/core/src/packet_buffer.c.obj
                0x00029448                packet_buffer_can_pop
 .text.packet_buffer_packets_ready_to_pop
                0x00029464       0x3a examples/enocean_switch/CMakeFiles/enocean_switch_nrf52840_xxAA_s140_6.0.0.dir/__/__/mesh/core/src/packet_buffer.c.obj
                0x00029464                packet_buffer_packets_ready_to_pop
 .text.packet_buffer_free
                0x0002949e       0x6e examples/enocean_switch/CMakeFiles/enocean_switch_nrf52840_xxAA_s140_6.0.0.dir/__/__/mesh/core/src/packet_buffer.c.obj
                0x0002949e                packet_buffer_free
 .text.get_last_page
                0x0002950c       0x14 examples/enocean_switch/CMakeFiles/enocean_switch_nrf52840_xxAA_s140_6.0.0.dir/__/__/mesh/core/src/flash_manager_defrag.c.obj
 .text.defrag_on_end
                0x00029520       0x1c examples/enocean_switch/CMakeFiles/enocean_switch_nrf52840_xxAA_s140_6.0.0.dir/__/__/mesh/core/src/flash_manager_defrag.c.obj
 .text.execute_procedure_step
                0x0002953c       0x7c examples/enocean_switch/CMakeFiles/enocean_switch_nrf52840_xxAA_s140_6.0.0.dir/__/__/mesh/core/src/flash_manager_defrag.c.obj
 .text.get_next_entry
                0x000295b8       0x34 examples/enocean_switch/CMakeFiles/enocean_switch_nrf52840_xxAA_s140_6.0.0.dir/__/__/mesh/core/src/flash_manager_defrag.c.obj
 .text.get_next_data_entry
                0x000295ec       0x26 examples/enocean_switch/CMakeFiles/enocean_switch_nrf52840_xxAA_s140_6.0.0.dir/__/__/mesh/core/src/flash_manager_defrag.c.obj
 *fill*         0x00029612        0x2 
 .text.on_flash_op_end
                0x00029614       0x30 examples/enocean_switch/CMakeFiles/enocean_switch_nrf52840_xxAA_s140_6.0.0.dir/__/__/mesh/core/src/flash_manager_defrag.c.obj
 .text.check_for_invalid_entries
                0x00029644       0x38 examples/enocean_switch/CMakeFiles/enocean_switch_nrf52840_xxAA_s140_6.0.0.dir/__/__/mesh/core/src/flash_manager_defrag.c.obj
 .text.erase_recovery_area
                0x0002967c       0x34 examples/enocean_switch/CMakeFiles/enocean_switch_nrf52840_xxAA_s140_6.0.0.dir/__/__/mesh/core/src/flash_manager_defrag.c.obj
 .text.flash.constprop.6
                0x000296b0       0x24 examples/enocean_switch/CMakeFiles/enocean_switch_nrf52840_xxAA_s140_6.0.0.dir/__/__/mesh/core/src/flash_manager_defrag.c.obj
 .text.seal_storage_page
                0x000296d4       0x50 examples/enocean_switch/CMakeFiles/enocean_switch_nrf52840_xxAA_s140_6.0.0.dir/__/__/mesh/core/src/flash_manager_defrag.c.obj
 .text.invalidate_duplicate_entries
                0x00029724       0x9c examples/enocean_switch/CMakeFiles/enocean_switch_nrf52840_xxAA_s140_6.0.0.dir/__/__/mesh/core/src/flash_manager_defrag.c.obj
 .text.copy_metadata
                0x000297c0       0x3c examples/enocean_switch/CMakeFiles/enocean_switch_nrf52840_xxAA_s140_6.0.0.dir/__/__/mesh/core/src/flash_manager_defrag.c.obj
 .text.write_defrag_start_pointer
                0x000297fc       0x20 examples/enocean_switch/CMakeFiles/enocean_switch_nrf52840_xxAA_s140_6.0.0.dir/__/__/mesh/core/src/flash_manager_defrag.c.obj
 .text.write_back
                0x0002981c       0x28 examples/enocean_switch/CMakeFiles/enocean_switch_nrf52840_xxAA_s140_6.0.0.dir/__/__/mesh/core/src/flash_manager_defrag.c.obj
 .text.post_process
                0x00029844       0x40 examples/enocean_switch/CMakeFiles/enocean_switch_nrf52840_xxAA_s140_6.0.0.dir/__/__/mesh/core/src/flash_manager_defrag.c.obj
 .text.backup_entries
                0x00029884       0xf8 examples/enocean_switch/CMakeFiles/enocean_switch_nrf52840_xxAA_s140_6.0.0.dir/__/__/mesh/core/src/flash_manager_defrag.c.obj
 .text.erase_source
                0x0002997c       0x34 examples/enocean_switch/CMakeFiles/enocean_switch_nrf52840_xxAA_s140_6.0.0.dir/__/__/mesh/core/src/flash_manager_defrag.c.obj
 .text.flash_manager_defrag_init
                0x000299b0       0x8c examples/enocean_switch/CMakeFiles/enocean_switch_nrf52840_xxAA_s140_6.0.0.dir/__/__/mesh/core/src/flash_manager_defrag.c.obj
                0x000299b0                flash_manager_defrag_init
 .text.flash_manager_defrag_is_running
                0x00029a3c       0x10 examples/enocean_switch/CMakeFiles/enocean_switch_nrf52840_xxAA_s140_6.0.0.dir/__/__/mesh/core/src/flash_manager_defrag.c.obj
                0x00029a3c                flash_manager_defrag_is_running
 .text.flash_manager_defrag
                0x00029a4c       0x44 examples/enocean_switch/CMakeFiles/enocean_switch_nrf52840_xxAA_s140_6.0.0.dir/__/__/mesh/core/src/flash_manager_defrag.c.obj
                0x00029a4c                flash_manager_defrag
 .text.flash_manager_defrag_recovery_page_get
                0x00029a90        0xc examples/enocean_switch/CMakeFiles/enocean_switch_nrf52840_xxAA_s140_6.0.0.dir/__/__/mesh/core/src/flash_manager_defrag.c.obj
                0x00029a90                flash_manager_defrag_recovery_page_get
 .text.fifo_init
                0x00029a9c       0x34 examples/enocean_switch/CMakeFiles/enocean_switch_nrf52840_xxAA_s140_6.0.0.dir/__/__/mesh/core/src/fifo.c.obj
                0x00029a9c                fifo_init
 .text.fifo_push
                0x00029ad0       0x50 examples/enocean_switch/CMakeFiles/enocean_switch_nrf52840_xxAA_s140_6.0.0.dir/__/__/mesh/core/src/fifo.c.obj
                0x00029ad0                fifo_push
 .text.fifo_pop
                0x00029b20       0x52 examples/enocean_switch/CMakeFiles/enocean_switch_nrf52840_xxAA_s140_6.0.0.dir/__/__/mesh/core/src/fifo.c.obj
                0x00029b20                fifo_pop
 *fill*         0x00029b72        0x2 
 .text.wait_for_ready
                0x00029b74       0x10 examples/enocean_switch/CMakeFiles/enocean_switch_nrf52840_xxAA_s140_6.0.0.dir/__/__/mesh/core/src/nrf_flash.c.obj
 .text.nrf_flash_erase
                0x00029b84       0x50 examples/enocean_switch/CMakeFiles/enocean_switch_nrf52840_xxAA_s140_6.0.0.dir/__/__/mesh/core/src/nrf_flash.c.obj
                0x00029b84                nrf_flash_erase
 .text.nrf_flash_write
                0x00029bd4       0x50 examples/enocean_switch/CMakeFiles/enocean_switch_nrf52840_xxAA_s140_6.0.0.dir/__/__/mesh/core/src/nrf_flash.c.obj
                0x00029bd4                nrf_flash_write
 .text.packet_mgr_init
                0x00029c24       0x4c examples/enocean_switch/CMakeFiles/enocean_switch_nrf52840_xxAA_s140_6.0.0.dir/__/__/mesh/core/src/packet_mgr.c.obj
                0x00029c24                packet_mgr_init
 .text.flash_store_iv_index
                0x00029c70       0x38 examples/enocean_switch/CMakeFiles/enocean_switch_nrf52840_xxAA_s140_6.0.0.dir/__/__/mesh/core/src/net_state.c.obj
 .text.flash_mem_available
                0x00029ca8       0x14 examples/enocean_switch/CMakeFiles/enocean_switch_nrf52840_xxAA_s140_6.0.0.dir/__/__/mesh/core/src/net_state.c.obj
 .text.seqnum_block_allocate
                0x00029cbc       0x4c examples/enocean_switch/CMakeFiles/enocean_switch_nrf52840_xxAA_s140_6.0.0.dir/__/__/mesh/core/src/net_state.c.obj
 .text.net_state_reset
                0x00029d08       0x3c examples/enocean_switch/CMakeFiles/enocean_switch_nrf52840_xxAA_s140_6.0.0.dir/__/__/mesh/core/src/net_state.c.obj
                0x00029d08                net_state_reset
 .text.flash_write_complete
                0x00029d44       0x64 examples/enocean_switch/CMakeFiles/enocean_switch_nrf52840_xxAA_s140_6.0.0.dir/__/__/mesh/core/src/net_state.c.obj
 .text.net_state_recover_from_flash
                0x00029da8       0x8c examples/enocean_switch/CMakeFiles/enocean_switch_nrf52840_xxAA_s140_6.0.0.dir/__/__/mesh/core/src/net_state.c.obj
                0x00029da8                net_state_recover_from_flash
 .text.net_state_flash_area_get
                0x00029e34        0xc examples/enocean_switch/CMakeFiles/enocean_switch_nrf52840_xxAA_s140_6.0.0.dir/__/__/mesh/core/src/net_state.c.obj
                0x00029e34                net_state_flash_area_get
 .text.init_flash_storage
                0x00029e40       0x40 examples/enocean_switch/CMakeFiles/enocean_switch_nrf52840_xxAA_s140_6.0.0.dir/__/__/mesh/core/src/net_state.c.obj
 .text.net_state_init
                0x00029e80       0x5c examples/enocean_switch/CMakeFiles/enocean_switch_nrf52840_xxAA_s140_6.0.0.dir/__/__/mesh/core/src/net_state.c.obj
                0x00029e80                net_state_init
 .text.net_state_iv_update_start
                0x00029edc       0x68 examples/enocean_switch/CMakeFiles/enocean_switch_nrf52840_xxAA_s140_6.0.0.dir/__/__/mesh/core/src/net_state.c.obj
                0x00029edc                net_state_iv_update_start
 .text.iv_update_trigger_if_pending
                0x00029f44       0x80 examples/enocean_switch/CMakeFiles/enocean_switch_nrf52840_xxAA_s140_6.0.0.dir/__/__/mesh/core/src/net_state.c.obj
 .text.mesh_evt_handler
                0x00029fc4       0xa0 examples/enocean_switch/CMakeFiles/enocean_switch_nrf52840_xxAA_s140_6.0.0.dir/__/__/mesh/core/src/net_state.c.obj
 .text.iv_update_timer_handler
                0x0002a064       0x68 examples/enocean_switch/CMakeFiles/enocean_switch_nrf52840_xxAA_s140_6.0.0.dir/__/__/mesh/core/src/net_state.c.obj
 .text.net_state_seqnum_alloc
                0x0002a0cc       0x68 examples/enocean_switch/CMakeFiles/enocean_switch_nrf52840_xxAA_s140_6.0.0.dir/__/__/mesh/core/src/net_state.c.obj
                0x0002a0cc                net_state_seqnum_alloc
 .text.net_state_iv_index_lock
                0x0002a134       0x3c examples/enocean_switch/CMakeFiles/enocean_switch_nrf52840_xxAA_s140_6.0.0.dir/__/__/mesh/core/src/net_state.c.obj
                0x0002a134                net_state_iv_index_lock
 .text.net_state_key_refresh_phase_changed
                0x0002a170       0x20 examples/enocean_switch/CMakeFiles/enocean_switch_nrf52840_xxAA_s140_6.0.0.dir/__/__/mesh/core/src/net_state.c.obj
                0x0002a170                net_state_key_refresh_phase_changed
 .text.net_state_beacon_iv_index_get
                0x0002a190        0xc examples/enocean_switch/CMakeFiles/enocean_switch_nrf52840_xxAA_s140_6.0.0.dir/__/__/mesh/core/src/net_state.c.obj
                0x0002a190                net_state_beacon_iv_index_get
 .text.net_state_tx_iv_index_get
                0x0002a19c       0x14 examples/enocean_switch/CMakeFiles/enocean_switch_nrf52840_xxAA_s140_6.0.0.dir/__/__/mesh/core/src/net_state.c.obj
                0x0002a19c                net_state_tx_iv_index_get
 .text.net_state_rx_iv_index_get
                0x0002a1b0       0x18 examples/enocean_switch/CMakeFiles/enocean_switch_nrf52840_xxAA_s140_6.0.0.dir/__/__/mesh/core/src/net_state.c.obj
                0x0002a1b0                net_state_rx_iv_index_get
 .text.net_state_iv_update_get
                0x0002a1c8        0xc examples/enocean_switch/CMakeFiles/enocean_switch_nrf52840_xxAA_s140_6.0.0.dir/__/__/mesh/core/src/net_state.c.obj
                0x0002a1c8                net_state_iv_update_get
 .text.net_state_iv_index_set
                0x0002a1d4       0x30 examples/enocean_switch/CMakeFiles/enocean_switch_nrf52840_xxAA_s140_6.0.0.dir/__/__/mesh/core/src/net_state.c.obj
                0x0002a1d4                net_state_iv_index_set
 .text.send_end_events
                0x0002a204       0x84 examples/enocean_switch/CMakeFiles/enocean_switch_nrf52840_xxAA_s140_6.0.0.dir/__/__/mesh/core/src/mesh_flash.c.obj
 .text.flash_op_schedule
                0x0002a288       0x88 examples/enocean_switch/CMakeFiles/enocean_switch_nrf52840_xxAA_s140_6.0.0.dir/__/__/mesh/core/src/mesh_flash.c.obj
 .text.flash_op_start
                0x0002a310      0x13c examples/enocean_switch/CMakeFiles/enocean_switch_nrf52840_xxAA_s140_6.0.0.dir/__/__/mesh/core/src/mesh_flash.c.obj
 .text.mesh_flash_init
                0x0002a44c       0x88 examples/enocean_switch/CMakeFiles/enocean_switch_nrf52840_xxAA_s140_6.0.0.dir/__/__/mesh/core/src/mesh_flash.c.obj
                0x0002a44c                mesh_flash_init
 .text.mesh_flash_user_callback_set
                0x0002a4d4       0x20 examples/enocean_switch/CMakeFiles/enocean_switch_nrf52840_xxAA_s140_6.0.0.dir/__/__/mesh/core/src/mesh_flash.c.obj
                0x0002a4d4                mesh_flash_user_callback_set
 .text.mesh_flash_op_push
                0x0002a4f4       0xe4 examples/enocean_switch/CMakeFiles/enocean_switch_nrf52840_xxAA_s140_6.0.0.dir/__/__/mesh/core/src/mesh_flash.c.obj
                0x0002a4f4                mesh_flash_op_push
 .text.nrf_mesh_address_type_get
                0x0002a5d8       0x10 examples/enocean_switch/CMakeFiles/enocean_switch_nrf52840_xxAA_s140_6.0.0.dir/__/__/mesh/core/src/nrf_mesh_utils.c.obj
                0x0002a5d8                nrf_mesh_address_type_get
 .text.sd_softdevice_is_enabled
                0x0002a5e8        0x4 examples/enocean_switch/CMakeFiles/enocean_switch_nrf52840_xxAA_s140_6.0.0.dir/__/__/mesh/core/src/nrf_mesh.c.obj
 .text.nrf_mesh_listen
                0x0002a5ec      0x138 examples/enocean_switch/CMakeFiles/enocean_switch_nrf52840_xxAA_s140_6.0.0.dir/__/__/mesh/core/src/nrf_mesh.c.obj
 .text.flash_stable_cb
                0x0002a724       0x20 examples/enocean_switch/CMakeFiles/enocean_switch_nrf52840_xxAA_s140_6.0.0.dir/__/__/mesh/core/src/nrf_mesh.c.obj
 .text.scanner_packet_process_cb
                0x0002a744       0x8c examples/enocean_switch/CMakeFiles/enocean_switch_nrf52840_xxAA_s140_6.0.0.dir/__/__/mesh/core/src/nrf_mesh.c.obj
 .text.nrf_mesh_init
                0x0002a7d0       0xd8 examples/enocean_switch/CMakeFiles/enocean_switch_nrf52840_xxAA_s140_6.0.0.dir/__/__/mesh/core/src/nrf_mesh.c.obj
                0x0002a7d0                nrf_mesh_init
 .text.nrf_mesh_enable
                0x0002a8a8       0x3c examples/enocean_switch/CMakeFiles/enocean_switch_nrf52840_xxAA_s140_6.0.0.dir/__/__/mesh/core/src/nrf_mesh.c.obj
                0x0002a8a8                nrf_mesh_enable
 .text.nrf_mesh_packet_send
                0x0002a8e4       0x7c examples/enocean_switch/CMakeFiles/enocean_switch_nrf52840_xxAA_s140_6.0.0.dir/__/__/mesh/core/src/nrf_mesh.c.obj
                0x0002a8e4                nrf_mesh_packet_send
 .text.nrf_mesh_evt_handler_add
                0x0002a960        0x4 examples/enocean_switch/CMakeFiles/enocean_switch_nrf52840_xxAA_s140_6.0.0.dir/__/__/mesh/core/src/nrf_mesh.c.obj
                0x0002a960                nrf_mesh_evt_handler_add
 .text.nrf_mesh_on_sd_evt
                0x0002a964        0xa examples/enocean_switch/CMakeFiles/enocean_switch_nrf52840_xxAA_s140_6.0.0.dir/__/__/mesh/core/src/nrf_mesh.c.obj
                0x0002a964                nrf_mesh_on_sd_evt
 *fill*         0x0002a96e        0x2 
 .text.nrf_mesh_rx_cb_set
                0x0002a970        0xc examples/enocean_switch/CMakeFiles/enocean_switch_nrf52840_xxAA_s140_6.0.0.dir/__/__/mesh/core/src/nrf_mesh.c.obj
                0x0002a970                nrf_mesh_rx_cb_set
 .text.nrf_mesh_subnet_added
                0x0002a97c        0x2 examples/enocean_switch/CMakeFiles/enocean_switch_nrf52840_xxAA_s140_6.0.0.dir/__/__/mesh/core/src/nrf_mesh.c.obj
                0x0002a97c                nrf_mesh_subnet_added
 *fill*         0x0002a97e        0x2 
 .text.nrf_mesh_unique_token_get
                0x0002a980       0x18 examples/enocean_switch/CMakeFiles/enocean_switch_nrf52840_xxAA_s140_6.0.0.dir/__/__/mesh/core/src/nrf_mesh.c.obj
                0x0002a980                nrf_mesh_unique_token_get
 .text.queue_init
                0x0002a998       0x14 examples/enocean_switch/CMakeFiles/enocean_switch_nrf52840_xxAA_s140_6.0.0.dir/__/__/mesh/core/src/queue.c.obj
                0x0002a998                queue_init
 .text.queue_push
                0x0002a9ac       0x34 examples/enocean_switch/CMakeFiles/enocean_switch_nrf52840_xxAA_s140_6.0.0.dir/__/__/mesh/core/src/queue.c.obj
                0x0002a9ac                queue_push
 .text.queue_pop
                0x0002a9e0       0x26 examples/enocean_switch/CMakeFiles/enocean_switch_nrf52840_xxAA_s140_6.0.0.dir/__/__/mesh/core/src/queue.c.obj
                0x0002a9e0                queue_pop
 .text.queue_peek
                0x0002aa06       0x10 examples/enocean_switch/CMakeFiles/enocean_switch_nrf52840_xxAA_s140_6.0.0.dir/__/__/mesh/core/src/queue.c.obj
                0x0002aa06                queue_peek
 .text.sd_power_reset_reason_clr
                0x0002aa16        0x4 examples/enocean_switch/CMakeFiles/enocean_switch_nrf52840_xxAA_s140_6.0.0.dir/__/__/mesh/core/src/hal.c.obj
 *fill*         0x0002aa1a        0x2 
 .text.hal_device_reset
                0x0002aa1c       0x2c examples/enocean_switch/CMakeFiles/enocean_switch_nrf52840_xxAA_s140_6.0.0.dir/__/__/mesh/core/src/hal.c.obj
                0x0002aa1c                hal_device_reset
 .text.hal_lfclk_ppm_get
                0x0002aa48       0x14 examples/enocean_switch/CMakeFiles/enocean_switch_nrf52840_xxAA_s140_6.0.0.dir/__/__/mesh/core/src/hal.c.obj
                0x0002aa48                hal_lfclk_ppm_get
 .text.sd_ecb_block_encrypt
                0x0002aa5c        0x4 examples/enocean_switch/CMakeFiles/enocean_switch_nrf52840_xxAA_s140_6.0.0.dir/__/__/mesh/core/src/aes_cmac.c.obj
 .text.utils_xor.constprop.1
                0x0002aa60       0x20 examples/enocean_switch/CMakeFiles/enocean_switch_nrf52840_xxAA_s140_6.0.0.dir/__/__/mesh/core/src/aes_cmac.c.obj
 .text.aes_cmac
                0x0002aa80      0x112 examples/enocean_switch/CMakeFiles/enocean_switch_nrf52840_xxAA_s140_6.0.0.dir/__/__/mesh/core/src/aes_cmac.c.obj
                0x0002aa80                aes_cmac
 *fill*         0x0002ab92        0x2 
 .text.add_to_add_list
                0x0002ab94       0x30 examples/enocean_switch/CMakeFiles/enocean_switch_nrf52840_xxAA_s140_6.0.0.dir/__/__/mesh/core/src/timer_scheduler.c.obj
 .text.process_dirty_events
                0x0002abc4       0x5c examples/enocean_switch/CMakeFiles/enocean_switch_nrf52840_xxAA_s140_6.0.0.dir/__/__/mesh/core/src/timer_scheduler.c.obj
 .text.timer_cb
                0x0002ac20        0xc examples/enocean_switch/CMakeFiles/enocean_switch_nrf52840_xxAA_s140_6.0.0.dir/__/__/mesh/core/src/timer_scheduler.c.obj
 .text.add_evt.constprop.1
                0x0002ac2c       0x58 examples/enocean_switch/CMakeFiles/enocean_switch_nrf52840_xxAA_s140_6.0.0.dir/__/__/mesh/core/src/timer_scheduler.c.obj
 .text.process_add_list
                0x0002ac84       0x3c examples/enocean_switch/CMakeFiles/enocean_switch_nrf52840_xxAA_s140_6.0.0.dir/__/__/mesh/core/src/timer_scheduler.c.obj
 .text.flag_event_cb
                0x0002acc0       0xd8 examples/enocean_switch/CMakeFiles/enocean_switch_nrf52840_xxAA_s140_6.0.0.dir/__/__/mesh/core/src/timer_scheduler.c.obj
 .text.timer_sch_init
                0x0002ad98       0x24 examples/enocean_switch/CMakeFiles/enocean_switch_nrf52840_xxAA_s140_6.0.0.dir/__/__/mesh/core/src/timer_scheduler.c.obj
                0x0002ad98                timer_sch_init
 .text.timer_sch_schedule
                0x0002adbc       0x3c examples/enocean_switch/CMakeFiles/enocean_switch_nrf52840_xxAA_s140_6.0.0.dir/__/__/mesh/core/src/timer_scheduler.c.obj
                0x0002adbc                timer_sch_schedule
 .text.timer_sch_abort
                0x0002adf8       0x58 examples/enocean_switch/CMakeFiles/enocean_switch_nrf52840_xxAA_s140_6.0.0.dir/__/__/mesh/core/src/timer_scheduler.c.obj
                0x0002adf8                timer_sch_abort
 .text.timer_sch_reschedule
                0x0002ae50       0x64 examples/enocean_switch/CMakeFiles/enocean_switch_nrf52840_xxAA_s140_6.0.0.dir/__/__/mesh/core/src/timer_scheduler.c.obj
                0x0002ae50                timer_sch_reschedule
 .text.timer_mut_unlock
                0x0002aeb4       0x10 examples/enocean_switch/CMakeFiles/enocean_switch_nrf52840_xxAA_s140_6.0.0.dir/__/__/mesh/core/src/timer.c.obj
 .text.timer_order_cb
                0x0002aec4       0x94 examples/enocean_switch/CMakeFiles/enocean_switch_nrf52840_xxAA_s140_6.0.0.dir/__/__/mesh/core/src/timer.c.obj
                0x0002aec4                timer_order_cb
 .text.timer_now
                0x0002af58       0x48 examples/enocean_switch/CMakeFiles/enocean_switch_nrf52840_xxAA_s140_6.0.0.dir/__/__/mesh/core/src/timer.c.obj
                0x0002af58                timer_now
 .text.timer_event_handler
                0x0002afa0       0x84 examples/enocean_switch/CMakeFiles/enocean_switch_nrf52840_xxAA_s140_6.0.0.dir/__/__/mesh/core/src/timer.c.obj
                0x0002afa0                timer_event_handler
 .text.timer_on_ts_begin
                0x0002b024       0xf4 examples/enocean_switch/CMakeFiles/enocean_switch_nrf52840_xxAA_s140_6.0.0.dir/__/__/mesh/core/src/timer.c.obj
                0x0002b024                timer_on_ts_begin
 .text.timer_on_ts_end
                0x0002b118       0x60 examples/enocean_switch/CMakeFiles/enocean_switch_nrf52840_xxAA_s140_6.0.0.dir/__/__/mesh/core/src/timer.c.obj
                0x0002b118                timer_on_ts_end
 .text.timer_cb
                0x0002b178       0x10 examples/enocean_switch/CMakeFiles/enocean_switch_nrf52840_xxAA_s140_6.0.0.dir/__/__/mesh/core/src/ticker.c.obj
 .text.ticker_init
                0x0002b188       0x3c examples/enocean_switch/CMakeFiles/enocean_switch_nrf52840_xxAA_s140_6.0.0.dir/__/__/mesh/core/src/ticker.c.obj
                0x0002b188                ticker_init
 .text.sd_rand_application_bytes_available_get
                0x0002b1c4        0x4 examples/enocean_switch/CMakeFiles/enocean_switch_nrf52840_xxAA_s140_6.0.0.dir/__/__/mesh/core/src/rand.c.obj
 .text.sd_rand_application_vector_get
                0x0002b1c8        0x4 examples/enocean_switch/CMakeFiles/enocean_switch_nrf52840_xxAA_s140_6.0.0.dir/__/__/mesh/core/src/rand.c.obj
 .text.rand_prng_get
                0x0002b1cc       0x22 examples/enocean_switch/CMakeFiles/enocean_switch_nrf52840_xxAA_s140_6.0.0.dir/__/__/mesh/core/src/rand.c.obj
                0x0002b1cc                rand_prng_get
 .text.rand_hw_rng_get
                0x0002b1ee       0x44 examples/enocean_switch/CMakeFiles/enocean_switch_nrf52840_xxAA_s140_6.0.0.dir/__/__/mesh/core/src/rand.c.obj
                0x0002b1ee                rand_hw_rng_get
 *fill*         0x0002b232        0x2 
 .text.rand_prng_seed
                0x0002b234       0x34 examples/enocean_switch/CMakeFiles/enocean_switch_nrf52840_xxAA_s140_6.0.0.dir/__/__/mesh/core/src/rand.c.obj
                0x0002b234                rand_prng_seed
 .text.nrf_mesh_opt_set
                0x0002b268       0x26 examples/enocean_switch/CMakeFiles/enocean_switch_nrf52840_xxAA_s140_6.0.0.dir/__/__/mesh/core/src/nrf_mesh_opt.c.obj
                0x0002b268                nrf_mesh_opt_set
 .text.nrf_mesh_opt_get
                0x0002b28e       0x26 examples/enocean_switch/CMakeFiles/enocean_switch_nrf52840_xxAA_s140_6.0.0.dir/__/__/mesh/core/src/nrf_mesh_opt.c.obj
                0x0002b28e                nrf_mesh_opt_get
 .text.sd_radio_session_open
                0x0002b2b4        0x4 examples/enocean_switch/CMakeFiles/enocean_switch_nrf52840_xxAA_s140_6.0.0.dir/__/__/mesh/core/src/timeslot.c.obj
 .text.sd_radio_session_close
                0x0002b2b8        0x4 examples/enocean_switch/CMakeFiles/enocean_switch_nrf52840_xxAA_s140_6.0.0.dir/__/__/mesh/core/src/timeslot.c.obj
 .text.sd_radio_request
                0x0002b2bc        0x4 examples/enocean_switch/CMakeFiles/enocean_switch_nrf52840_xxAA_s140_6.0.0.dir/__/__/mesh/core/src/timeslot.c.obj
 .text.end_timer_handler
                0x0002b2c0       0x24 examples/enocean_switch/CMakeFiles/enocean_switch_nrf52840_xxAA_s140_6.0.0.dir/__/__/mesh/core/src/timeslot.c.obj
 .text.get_end_time.constprop.10
                0x0002b2e4       0x28 examples/enocean_switch/CMakeFiles/enocean_switch_nrf52840_xxAA_s140_6.0.0.dir/__/__/mesh/core/src/timeslot.c.obj
 .text.handle_extend_end.constprop.3
                0x0002b30c       0xb4 examples/enocean_switch/CMakeFiles/enocean_switch_nrf52840_xxAA_s140_6.0.0.dir/__/__/mesh/core/src/timeslot.c.obj
 .text.radio_signal_callback
                0x0002b3c0      0x138 examples/enocean_switch/CMakeFiles/enocean_switch_nrf52840_xxAA_s140_6.0.0.dir/__/__/mesh/core/src/timeslot.c.obj
 .text.timeslot_sd_event_handler
                0x0002b4f8       0x38 examples/enocean_switch/CMakeFiles/enocean_switch_nrf52840_xxAA_s140_6.0.0.dir/__/__/mesh/core/src/timeslot.c.obj
                0x0002b4f8                timeslot_sd_event_handler
 .text.timeslot_init
                0x0002b530       0x48 examples/enocean_switch/CMakeFiles/enocean_switch_nrf52840_xxAA_s140_6.0.0.dir/__/__/mesh/core/src/timeslot.c.obj
                0x0002b530                timeslot_init
 .text.timeslot_start
                0x0002b578       0x20 examples/enocean_switch/CMakeFiles/enocean_switch_nrf52840_xxAA_s140_6.0.0.dir/__/__/mesh/core/src/timeslot.c.obj
                0x0002b578                timeslot_start
 .text.timeslot_end_is_pending
                0x0002b598       0x24 examples/enocean_switch/CMakeFiles/enocean_switch_nrf52840_xxAA_s140_6.0.0.dir/__/__/mesh/core/src/timeslot.c.obj
                0x0002b598                timeslot_end_is_pending
 .text.timeslot_start_time_get
                0x0002b5bc        0xc examples/enocean_switch/CMakeFiles/enocean_switch_nrf52840_xxAA_s140_6.0.0.dir/__/__/mesh/core/src/timeslot.c.obj
                0x0002b5bc                timeslot_start_time_get
 .text.timeslot_remaining_time_get
                0x0002b5c8       0x20 examples/enocean_switch/CMakeFiles/enocean_switch_nrf52840_xxAA_s140_6.0.0.dir/__/__/mesh/core/src/timeslot.c.obj
                0x0002b5c8                timeslot_remaining_time_get
 .text.timeslot_is_in_cb
                0x0002b5e8        0xc examples/enocean_switch/CMakeFiles/enocean_switch_nrf52840_xxAA_s140_6.0.0.dir/__/__/mesh/core/src/timeslot.c.obj
                0x0002b5e8                timeslot_is_in_cb
 .text.timeslot_trigger
                0x0002b5f4       0x24 examples/enocean_switch/CMakeFiles/enocean_switch_nrf52840_xxAA_s140_6.0.0.dir/__/__/mesh/core/src/timeslot.c.obj
                0x0002b5f4                timeslot_trigger
 .text.timeslot_stop
                0x0002b618       0x10 examples/enocean_switch/CMakeFiles/enocean_switch_nrf52840_xxAA_s140_6.0.0.dir/__/__/mesh/core/src/timeslot.c.obj
                0x0002b618                timeslot_stop
 .text.timeslot_state_lock
                0x0002b628       0x28 examples/enocean_switch/CMakeFiles/enocean_switch_nrf52840_xxAA_s140_6.0.0.dir/__/__/mesh/core/src/timeslot.c.obj
                0x0002b628                timeslot_state_lock
 .text.trigger_event_handler
                0x0002b650       0x1c examples/enocean_switch/CMakeFiles/enocean_switch_nrf52840_xxAA_s140_6.0.0.dir/__/__/mesh/core/src/bearer_event.c.obj
 .text.evt_push
                0x0002b66c       0x1c examples/enocean_switch/CMakeFiles/enocean_switch_nrf52840_xxAA_s140_6.0.0.dir/__/__/mesh/core/src/bearer_event.c.obj
 .text.bearer_event_init
                0x0002b688       0x48 examples/enocean_switch/CMakeFiles/enocean_switch_nrf52840_xxAA_s140_6.0.0.dir/__/__/mesh/core/src/bearer_event.c.obj
                0x0002b688                bearer_event_init
 .text.bearer_event_timer_post
                0x0002b6d0       0x24 examples/enocean_switch/CMakeFiles/enocean_switch_nrf52840_xxAA_s140_6.0.0.dir/__/__/mesh/core/src/bearer_event.c.obj
                0x0002b6d0                bearer_event_timer_post
 .text.bearer_event_critical_section_begin
                0x0002b6f4       0x44 examples/enocean_switch/CMakeFiles/enocean_switch_nrf52840_xxAA_s140_6.0.0.dir/__/__/mesh/core/src/bearer_event.c.obj
                0x0002b6f4                bearer_event_critical_section_begin
 .text.bearer_event_critical_section_end
                0x0002b738       0x40 examples/enocean_switch/CMakeFiles/enocean_switch_nrf52840_xxAA_s140_6.0.0.dir/__/__/mesh/core/src/bearer_event.c.obj
                0x0002b738                bearer_event_critical_section_end
 .text.bearer_event_flag_add
                0x0002b778       0x3c examples/enocean_switch/CMakeFiles/enocean_switch_nrf52840_xxAA_s140_6.0.0.dir/__/__/mesh/core/src/bearer_event.c.obj
                0x0002b778                bearer_event_flag_add
 .text.bearer_event_flag_set
                0x0002b7b4       0x44 examples/enocean_switch/CMakeFiles/enocean_switch_nrf52840_xxAA_s140_6.0.0.dir/__/__/mesh/core/src/bearer_event.c.obj
                0x0002b7b4                bearer_event_flag_set
 .text.bearer_event_sequential_add
                0x0002b7f8       0x2e examples/enocean_switch/CMakeFiles/enocean_switch_nrf52840_xxAA_s140_6.0.0.dir/__/__/mesh/core/src/bearer_event.c.obj
                0x0002b7f8                bearer_event_sequential_add
 *fill*         0x0002b826        0x2 
 .text.bearer_event_sequential_post
                0x0002b828       0x44 examples/enocean_switch/CMakeFiles/enocean_switch_nrf52840_xxAA_s140_6.0.0.dir/__/__/mesh/core/src/bearer_event.c.obj
                0x0002b828                bearer_event_sequential_post
 .text.bearer_event_sequential_pending
                0x0002b86c       0x10 examples/enocean_switch/CMakeFiles/enocean_switch_nrf52840_xxAA_s140_6.0.0.dir/__/__/mesh/core/src/bearer_event.c.obj
                0x0002b86c                bearer_event_sequential_pending
 .text.bearer_event_handler
                0x0002b87c       0xe8 examples/enocean_switch/CMakeFiles/enocean_switch_nrf52840_xxAA_s140_6.0.0.dir/__/__/mesh/core/src/bearer_event.c.obj
                0x0002b87c                bearer_event_handler
 .text.QDEC_IRQHandler
                0x0002b964        0x4 examples/enocean_switch/CMakeFiles/enocean_switch_nrf52840_xxAA_s140_6.0.0.dir/__/__/mesh/core/src/bearer_event.c.obj
                0x0002b964                QDEC_IRQHandler
 .text.sd_ecb_block_encrypt
                0x0002b968        0x4 examples/enocean_switch/CMakeFiles/enocean_switch_nrf52840_xxAA_s140_6.0.0.dir/__/__/mesh/core/src/enc.c.obj
 .text.enc_aes_encrypt
                0x0002b96c       0x32 examples/enocean_switch/CMakeFiles/enocean_switch_nrf52840_xxAA_s140_6.0.0.dir/__/__/mesh/core/src/enc.c.obj
                0x0002b96c                enc_aes_encrypt
 .text.enc_aes_cmac
                0x0002b99e        0x4 examples/enocean_switch/CMakeFiles/enocean_switch_nrf52840_xxAA_s140_6.0.0.dir/__/__/mesh/core/src/enc.c.obj
                0x0002b99e                enc_aes_cmac
 .text.enc_aes_ccm_encrypt
                0x0002b9a2        0x4 examples/enocean_switch/CMakeFiles/enocean_switch_nrf52840_xxAA_s140_6.0.0.dir/__/__/mesh/core/src/enc.c.obj
                0x0002b9a2                enc_aes_ccm_encrypt
 .text.enc_aes_ccm_decrypt
                0x0002b9a6        0x4 examples/enocean_switch/CMakeFiles/enocean_switch_nrf52840_xxAA_s140_6.0.0.dir/__/__/mesh/core/src/enc.c.obj
                0x0002b9a6                enc_aes_ccm_decrypt
 .text.enc_nonce_generate
                0x0002b9aa       0xbc examples/enocean_switch/CMakeFiles/enocean_switch_nrf52840_xxAA_s140_6.0.0.dir/__/__/mesh/core/src/enc.c.obj
                0x0002b9aa                enc_nonce_generate
 .text.enc_s1   0x0002ba66       0x2c examples/enocean_switch/CMakeFiles/enocean_switch_nrf52840_xxAA_s140_6.0.0.dir/__/__/mesh/core/src/enc.c.obj
                0x0002ba66                enc_s1
 .text.enc_k1   0x0002ba92       0x3c examples/enocean_switch/CMakeFiles/enocean_switch_nrf52840_xxAA_s140_6.0.0.dir/__/__/mesh/core/src/enc.c.obj
                0x0002ba92                enc_k1
 *fill*         0x0002bace        0x2 
 .text.enc_k2   0x0002bad0       0xc8 examples/enocean_switch/CMakeFiles/enocean_switch_nrf52840_xxAA_s140_6.0.0.dir/__/__/mesh/core/src/enc.c.obj
                0x0002bad0                enc_k2
 .text.enc_k3   0x0002bb98       0x5c examples/enocean_switch/CMakeFiles/enocean_switch_nrf52840_xxAA_s140_6.0.0.dir/__/__/mesh/core/src/enc.c.obj
                0x0002bb98                enc_k3
 .text.enc_k4   0x0002bbf4       0x54 examples/enocean_switch/CMakeFiles/enocean_switch_nrf52840_xxAA_s140_6.0.0.dir/__/__/mesh/core/src/enc.c.obj
                0x0002bbf4                enc_k4
 .text.allocate_packet
                0x0002bc48       0x6a examples/enocean_switch/CMakeFiles/enocean_switch_nrf52840_xxAA_s140_6.0.0.dir/__/__/mesh/core/src/network.c.obj
 *fill*         0x0002bcb2        0x2 
 .text.network_init
                0x0002bcb4       0x2c examples/enocean_switch/CMakeFiles/enocean_switch_nrf52840_xxAA_s140_6.0.0.dir/__/__/mesh/core/src/network.c.obj
                0x0002bcb4                network_init
 .text.network_opt_set
                0x0002bce0       0x84 examples/enocean_switch/CMakeFiles/enocean_switch_nrf52840_xxAA_s140_6.0.0.dir/__/__/mesh/core/src/network.c.obj
                0x0002bce0                network_opt_set
 .text.network_opt_get
                0x0002bd64       0x4c examples/enocean_switch/CMakeFiles/enocean_switch_nrf52840_xxAA_s140_6.0.0.dir/__/__/mesh/core/src/network.c.obj
                0x0002bd64                network_opt_get
 .text.network_packet_alloc
                0x0002bdb0       0x30 examples/enocean_switch/CMakeFiles/enocean_switch_nrf52840_xxAA_s140_6.0.0.dir/__/__/mesh/core/src/network.c.obj
                0x0002bdb0                network_packet_alloc
 .text.network_packet_send
                0x0002bde0       0x46 examples/enocean_switch/CMakeFiles/enocean_switch_nrf52840_xxAA_s140_6.0.0.dir/__/__/mesh/core/src/network.c.obj
                0x0002bde0                network_packet_send
 *fill*         0x0002be26        0x2 
 .text.network_packet_in
                0x0002be28      0x168 examples/enocean_switch/CMakeFiles/enocean_switch_nrf52840_xxAA_s140_6.0.0.dir/__/__/mesh/core/src/network.c.obj
                0x0002be28                network_packet_in
 .text.nonce_type_get
                0x0002bf90       0x16 examples/enocean_switch/CMakeFiles/enocean_switch_nrf52840_xxAA_s140_6.0.0.dir/__/__/mesh/core/src/net_packet.c.obj
 .text.header_transfuscate
                0x0002bfa6       0x54 examples/enocean_switch/CMakeFiles/enocean_switch_nrf52840_xxAA_s140_6.0.0.dir/__/__/mesh/core/src/net_packet.c.obj
 *fill*         0x0002bffa        0x2 
 .text.net_packet_decrypt
                0x0002bffc      0x224 examples/enocean_switch/CMakeFiles/enocean_switch_nrf52840_xxAA_s140_6.0.0.dir/__/__/mesh/core/src/net_packet.c.obj
                0x0002bffc                net_packet_decrypt
 .text.net_packet_encrypt
                0x0002c220       0x7e examples/enocean_switch/CMakeFiles/enocean_switch_nrf52840_xxAA_s140_6.0.0.dir/__/__/mesh/core/src/net_packet.c.obj
                0x0002c220                net_packet_encrypt
 .text.net_packet_header_set
                0x0002c29e       0xaa examples/enocean_switch/CMakeFiles/enocean_switch_nrf52840_xxAA_s140_6.0.0.dir/__/__/mesh/core/src/net_packet.c.obj
                0x0002c29e                net_packet_header_set
 .text.net_packet_payload_len_get
                0x0002c348       0x10 examples/enocean_switch/CMakeFiles/enocean_switch_nrf52840_xxAA_s140_6.0.0.dir/__/__/mesh/core/src/net_packet.c.obj
                0x0002c348                net_packet_payload_len_get
 .text.net_packet_from_payload
                0x0002c358        0x4 examples/enocean_switch/CMakeFiles/enocean_switch_nrf52840_xxAA_s140_6.0.0.dir/__/__/mesh/core/src/net_packet.c.obj
                0x0002c358                net_packet_from_payload
 .text.net_packet_obfuscation_start_get
                0x0002c35c        0x4 examples/enocean_switch/CMakeFiles/enocean_switch_nrf52840_xxAA_s140_6.0.0.dir/__/__/mesh/core/src/net_packet.c.obj
                0x0002c35c                net_packet_obfuscation_start_get
 .text.stage_get_available
                0x0002c360       0x24 examples/enocean_switch/CMakeFiles/enocean_switch_nrf52840_xxAA_s140_6.0.0.dir/__/__/mesh/core/src/msqueue.c.obj
 .text.msq_get  0x0002c384       0x38 examples/enocean_switch/CMakeFiles/enocean_switch_nrf52840_xxAA_s140_6.0.0.dir/__/__/mesh/core/src/msqueue.c.obj
                0x0002c384                msq_get
 .text.msq_move
                0x0002c3bc       0x2e examples/enocean_switch/CMakeFiles/enocean_switch_nrf52840_xxAA_s140_6.0.0.dir/__/__/mesh/core/src/msqueue.c.obj
                0x0002c3bc                msq_move
 .text.msq_reset
                0x0002c3ea       0x20 examples/enocean_switch/CMakeFiles/enocean_switch_nrf52840_xxAA_s140_6.0.0.dir/__/__/mesh/core/src/msqueue.c.obj
                0x0002c3ea                msq_reset
 .text.msq_init
                0x0002c40a       0x4a examples/enocean_switch/CMakeFiles/enocean_switch_nrf52840_xxAA_s140_6.0.0.dir/__/__/mesh/core/src/msqueue.c.obj
                0x0002c40a                msq_init
 .text.msq_available
                0x0002c454       0x26 examples/enocean_switch/CMakeFiles/enocean_switch_nrf52840_xxAA_s140_6.0.0.dir/__/__/mesh/core/src/msqueue.c.obj
                0x0002c454                msq_available
 .text.nrf_mesh_keygen_aid
                0x0002c47a       0x12 examples/enocean_switch/CMakeFiles/enocean_switch_nrf52840_xxAA_s140_6.0.0.dir/__/__/mesh/core/src/nrf_mesh_keygen.c.obj
                0x0002c47a                nrf_mesh_keygen_aid
 .text.nrf_mesh_keygen_network_secmat
                0x0002c48c       0x20 examples/enocean_switch/CMakeFiles/enocean_switch_nrf52840_xxAA_s140_6.0.0.dir/__/__/mesh/core/src/nrf_mesh_keygen.c.obj
                0x0002c48c                nrf_mesh_keygen_network_secmat
 .text.nrf_mesh_keygen_beacon_secmat
                0x0002c4ac       0x50 examples/enocean_switch/CMakeFiles/enocean_switch_nrf52840_xxAA_s140_6.0.0.dir/__/__/mesh/core/src/nrf_mesh_keygen.c.obj
                0x0002c4ac                nrf_mesh_keygen_beacon_secmat
 .text.nrf_mesh_keygen_virtual_address
                0x0002c4fc       0x50 examples/enocean_switch/CMakeFiles/enocean_switch_nrf52840_xxAA_s140_6.0.0.dir/__/__/mesh/core/src/nrf_mesh_keygen.c.obj
                0x0002c4fc                nrf_mesh_keygen_virtual_address
 .text.list_insert
                0x0002c54c       0x1c examples/enocean_switch/CMakeFiles/enocean_switch_nrf52840_xxAA_s140_6.0.0.dir/__/__/mesh/core/src/list.c.obj
 .text.list_add
                0x0002c568       0x42 examples/enocean_switch/CMakeFiles/enocean_switch_nrf52840_xxAA_s140_6.0.0.dir/__/__/mesh/core/src/list.c.obj
                0x0002c568                list_add
 .text.list_remove
                0x0002c5aa       0x3a examples/enocean_switch/CMakeFiles/enocean_switch_nrf52840_xxAA_s140_6.0.0.dir/__/__/mesh/core/src/list.c.obj
                0x0002c5aa                list_remove
 .text.list_compare_add
                0x0002c5e4       0x56 examples/enocean_switch/CMakeFiles/enocean_switch_nrf52840_xxAA_s140_6.0.0.dir/__/__/mesh/core/src/list.c.obj
                0x0002c5e4                list_compare_add
 *fill*         0x0002c63a        0x2 
 .text.log_callback_rtt
                0x0002c63c       0x2c examples/enocean_switch/CMakeFiles/enocean_switch_nrf52840_xxAA_s140_6.0.0.dir/__/__/mesh/core/src/log.c.obj
                0x0002c63c                log_callback_rtt
 .text.log_init
                0x0002c668       0x1c examples/enocean_switch/CMakeFiles/enocean_switch_nrf52840_xxAA_s140_6.0.0.dir/__/__/mesh/core/src/log.c.obj
                0x0002c668                log_init
 .text.log_vprintf
                0x0002c684       0x18 examples/enocean_switch/CMakeFiles/enocean_switch_nrf52840_xxAA_s140_6.0.0.dir/__/__/mesh/core/src/log.c.obj
                0x0002c684                log_vprintf
 .text.log_printf
                0x0002c69c       0x18 examples/enocean_switch/CMakeFiles/enocean_switch_nrf52840_xxAA_s140_6.0.0.dir/__/__/mesh/core/src/log.c.obj
                0x0002c69c                log_printf
 .text.get_area_end
                0x0002c6b4        0xc examples/enocean_switch/CMakeFiles/enocean_switch_nrf52840_xxAA_s140_6.0.0.dir/__/__/mesh/core/src/flash_manager.c.obj
 .text.handle_matches_filter
                0x0002c6c0       0x26 examples/enocean_switch/CMakeFiles/enocean_switch_nrf52840_xxAA_s140_6.0.0.dir/__/__/mesh/core/src/flash_manager.c.obj
 .text.flash_area_is_blank
                0x0002c6e6       0x34 examples/enocean_switch/CMakeFiles/enocean_switch_nrf52840_xxAA_s140_6.0.0.dir/__/__/mesh/core/src/flash_manager.c.obj
 *fill*         0x0002c71a        0x2 
 .text.get_packet_buffer
                0x0002c71c       0x20 examples/enocean_switch/CMakeFiles/enocean_switch_nrf52840_xxAA_s140_6.0.0.dir/__/__/mesh/core/src/flash_manager.c.obj
 .text.flash    0x0002c73c       0x1c examples/enocean_switch/CMakeFiles/enocean_switch_nrf52840_xxAA_s140_6.0.0.dir/__/__/mesh/core/src/flash_manager.c.obj
 .text.free_packet_buffer
                0x0002c758       0x3c examples/enocean_switch/CMakeFiles/enocean_switch_nrf52840_xxAA_s140_6.0.0.dir/__/__/mesh/core/src/flash_manager.c.obj
 .text.reserve_action_buffer
                0x0002c794       0x24 examples/enocean_switch/CMakeFiles/enocean_switch_nrf52840_xxAA_s140_6.0.0.dir/__/__/mesh/core/src/flash_manager.c.obj
 .text.commit_action_buffer
                0x0002c7b8       0x18 examples/enocean_switch/CMakeFiles/enocean_switch_nrf52840_xxAA_s140_6.0.0.dir/__/__/mesh/core/src/flash_manager.c.obj
 .text.schedule_processing
                0x0002c7d0        0xc examples/enocean_switch/CMakeFiles/enocean_switch_nrf52840_xxAA_s140_6.0.0.dir/__/__/mesh/core/src/flash_manager.c.obj
 .text.get_next_entry
                0x0002c7dc       0x34 examples/enocean_switch/CMakeFiles/enocean_switch_nrf52840_xxAA_s140_6.0.0.dir/__/__/mesh/core/src/flash_manager.c.obj
 .text.get_last_entry.isra.1
                0x0002c810       0x30 examples/enocean_switch/CMakeFiles/enocean_switch_nrf52840_xxAA_s140_6.0.0.dir/__/__/mesh/core/src/flash_manager.c.obj
 .text.process_action_queue
                0x0002c840      0x3b0 examples/enocean_switch/CMakeFiles/enocean_switch_nrf52840_xxAA_s140_6.0.0.dir/__/__/mesh/core/src/flash_manager.c.obj
 .text.flash_op_ended_callback
                0x0002cbf0       0x24 examples/enocean_switch/CMakeFiles/enocean_switch_nrf52840_xxAA_s140_6.0.0.dir/__/__/mesh/core/src/flash_manager.c.obj
 .text.flash_manager_init
                0x0002cc14       0x68 examples/enocean_switch/CMakeFiles/enocean_switch_nrf52840_xxAA_s140_6.0.0.dir/__/__/mesh/core/src/flash_manager.c.obj
                0x0002cc14                flash_manager_init
 .text.flash_manager_remove
                0x0002cc7c       0x24 examples/enocean_switch/CMakeFiles/enocean_switch_nrf52840_xxAA_s140_6.0.0.dir/__/__/mesh/core/src/flash_manager.c.obj
                0x0002cc7c                flash_manager_remove
 .text.flash_manager_entry_get
                0x0002cca0       0x3c examples/enocean_switch/CMakeFiles/enocean_switch_nrf52840_xxAA_s140_6.0.0.dir/__/__/mesh/core/src/flash_manager.c.obj
                0x0002cca0                flash_manager_entry_get
 .text.flash_manager_entry_next_get
                0x0002ccdc       0x60 examples/enocean_switch/CMakeFiles/enocean_switch_nrf52840_xxAA_s140_6.0.0.dir/__/__/mesh/core/src/flash_manager.c.obj
                0x0002ccdc                flash_manager_entry_next_get
 .text.flash_manager_entry_alloc
                0x0002cd3c       0x5c examples/enocean_switch/CMakeFiles/enocean_switch_nrf52840_xxAA_s140_6.0.0.dir/__/__/mesh/core/src/flash_manager.c.obj
                0x0002cd3c                flash_manager_entry_alloc
 .text.flash_manager_entry_commit
                0x0002cd98       0x2c examples/enocean_switch/CMakeFiles/enocean_switch_nrf52840_xxAA_s140_6.0.0.dir/__/__/mesh/core/src/flash_manager.c.obj
                0x0002cd98                flash_manager_entry_commit
 .text.flash_manager_entry_invalidate
                0x0002cdc4       0x4e examples/enocean_switch/CMakeFiles/enocean_switch_nrf52840_xxAA_s140_6.0.0.dir/__/__/mesh/core/src/flash_manager.c.obj
                0x0002cdc4                flash_manager_entry_invalidate
 .text.flash_manager_add
                0x0002ce12      0x1f6 examples/enocean_switch/CMakeFiles/enocean_switch_nrf52840_xxAA_s140_6.0.0.dir/__/__/mesh/core/src/flash_manager.c.obj
                0x0002ce12                flash_manager_add
 .text.flash_manager_mem_listener_register
                0x0002d008       0x30 examples/enocean_switch/CMakeFiles/enocean_switch_nrf52840_xxAA_s140_6.0.0.dir/__/__/mesh/core/src/flash_manager.c.obj
                0x0002d008                flash_manager_mem_listener_register
 .text.flash_manager_is_stable
                0x0002d038       0x24 examples/enocean_switch/CMakeFiles/enocean_switch_nrf52840_xxAA_s140_6.0.0.dir/__/__/mesh/core/src/flash_manager.c.obj
                0x0002d038                flash_manager_is_stable
 .text.flash_manager_on_defrag_end
                0x0002d05c       0x4c examples/enocean_switch/CMakeFiles/enocean_switch_nrf52840_xxAA_s140_6.0.0.dir/__/__/mesh/core/src/flash_manager.c.obj
                0x0002d05c                flash_manager_on_defrag_end
 .text.flash_manager_recovery_page_get
                0x0002d0a8        0x4 examples/enocean_switch/CMakeFiles/enocean_switch_nrf52840_xxAA_s140_6.0.0.dir/__/__/mesh/core/src/flash_manager.c.obj
                0x0002d0a8                flash_manager_recovery_page_get
 .text.flash_manager_action_queue_empty_cb_set
                0x0002d0ac       0x1c examples/enocean_switch/CMakeFiles/enocean_switch_nrf52840_xxAA_s140_6.0.0.dir/__/__/mesh/core/src/flash_manager.c.obj
                0x0002d0ac                flash_manager_action_queue_empty_cb_set
 .text.utils_xor
                0x0002d0c8       0x14 examples/enocean_switch/CMakeFiles/enocean_switch_nrf52840_xxAA_s140_6.0.0.dir/__/__/mesh/core/src/ccm_soft.c.obj
 .text.sd_ecb_block_encrypt
                0x0002d0dc        0x4 examples/enocean_switch/CMakeFiles/enocean_switch_nrf52840_xxAA_s140_6.0.0.dir/__/__/mesh/core/src/ccm_soft.c.obj
 .text.ccm_soft_crypt
                0x0002d0e0       0x4c examples/enocean_switch/CMakeFiles/enocean_switch_nrf52840_xxAA_s140_6.0.0.dir/__/__/mesh/core/src/ccm_soft.c.obj
 .text.ccm_soft_authenticate_blocks
                0x0002d12c       0x6c examples/enocean_switch/CMakeFiles/enocean_switch_nrf52840_xxAA_s140_6.0.0.dir/__/__/mesh/core/src/ccm_soft.c.obj
 .text.ccm_soft_authenticate
                0x0002d198       0x94 examples/enocean_switch/CMakeFiles/enocean_switch_nrf52840_xxAA_s140_6.0.0.dir/__/__/mesh/core/src/ccm_soft.c.obj
 .text.ccm_soft_encrypt
                0x0002d22c       0x54 examples/enocean_switch/CMakeFiles/enocean_switch_nrf52840_xxAA_s140_6.0.0.dir/__/__/mesh/core/src/ccm_soft.c.obj
                0x0002d22c                ccm_soft_encrypt
 .text.ccm_soft_decrypt
                0x0002d280       0x98 examples/enocean_switch/CMakeFiles/enocean_switch_nrf52840_xxAA_s140_6.0.0.dir/__/__/mesh/core/src/ccm_soft.c.obj
                0x0002d280                ccm_soft_decrypt
 .text.replay_cache_add
                0x0002d318       0x50 examples/enocean_switch/CMakeFiles/enocean_switch_nrf52840_xxAA_s140_6.0.0.dir/__/__/mesh/core/src/replay_cache.c.obj
                0x0002d318                replay_cache_add
 .text.replay_cache_has_elem
                0x0002d368       0x38 examples/enocean_switch/CMakeFiles/enocean_switch_nrf52840_xxAA_s140_6.0.0.dir/__/__/mesh/core/src/replay_cache.c.obj
                0x0002d368                replay_cache_has_elem
 .text.replay_cache_clear
                0x0002d3a0       0x20 examples/enocean_switch/CMakeFiles/enocean_switch_nrf52840_xxAA_s140_6.0.0.dir/__/__/mesh/core/src/replay_cache.c.obj
                0x0002d3a0                replay_cache_clear
 .text.replay_cache_init
                0x0002d3c0        0x4 examples/enocean_switch/CMakeFiles/enocean_switch_nrf52840_xxAA_s140_6.0.0.dir/__/__/mesh/core/src/replay_cache.c.obj
                0x0002d3c0                replay_cache_init
 .text.beacon_create
                0x0002d3c4       0x46 examples/enocean_switch/CMakeFiles/enocean_switch_nrf52840_xxAA_s140_6.0.0.dir/__/__/mesh/core/src/beacon.c.obj
                0x0002d3c4                beacon_create
 *fill*         0x0002d40a        0x2 
 .text.beacon_packet_in
                0x0002d40c      0x154 examples/enocean_switch/CMakeFiles/enocean_switch_nrf52840_xxAA_s140_6.0.0.dir/__/__/mesh/core/src/beacon.c.obj
                0x0002d40c                beacon_packet_in
 .text.entry_get
                0x0002d560       0x78 examples/enocean_switch/CMakeFiles/enocean_switch_nrf52840_xxAA_s140_6.0.0.dir/__/__/mesh/core/src/flash_manager_internal.c.obj
                0x0002d560                entry_get
 .text.core_tx_complete_cb_set
                0x0002d5d8        0xc examples/enocean_switch/CMakeFiles/enocean_switch_nrf52840_xxAA_s140_6.0.0.dir/__/__/mesh/core/src/core_tx.c.obj
                0x0002d5d8                core_tx_complete_cb_set
 .text.core_tx_packet_alloc
                0x0002d5e4       0x98 examples/enocean_switch/CMakeFiles/enocean_switch_nrf52840_xxAA_s140_6.0.0.dir/__/__/mesh/core/src/core_tx.c.obj
                0x0002d5e4                core_tx_packet_alloc
 .text.core_tx_packet_send
                0x0002d67c       0x4c examples/enocean_switch/CMakeFiles/enocean_switch_nrf52840_xxAA_s140_6.0.0.dir/__/__/mesh/core/src/core_tx.c.obj
                0x0002d67c                core_tx_packet_send
 .text.core_tx_packet_discard
                0x0002d6c8       0x40 examples/enocean_switch/CMakeFiles/enocean_switch_nrf52840_xxAA_s140_6.0.0.dir/__/__/mesh/core/src/core_tx.c.obj
                0x0002d6c8                core_tx_packet_discard
 .text.core_tx_complete
                0x0002d708       0x34 examples/enocean_switch/CMakeFiles/enocean_switch_nrf52840_xxAA_s140_6.0.0.dir/__/__/mesh/core/src/core_tx.c.obj
                0x0002d708                core_tx_complete
 .text.core_tx_bearer_add
                0x0002d73c       0x70 examples/enocean_switch/CMakeFiles/enocean_switch_nrf52840_xxAA_s140_6.0.0.dir/__/__/mesh/core/src/core_tx.c.obj
                0x0002d73c                core_tx_bearer_add
 .text.heartbeat_subscription_timer_cb
                0x0002d7ac       0x1c examples/enocean_switch/CMakeFiles/enocean_switch_nrf52840_xxAA_s140_6.0.0.dir/__/__/mesh/core/src/heartbeat.c.obj
 .text.heartbeat_opcode_handle
                0x0002d7c8       0x88 examples/enocean_switch/CMakeFiles/enocean_switch_nrf52840_xxAA_s140_6.0.0.dir/__/__/mesh/core/src/heartbeat.c.obj
 .text.heartbeat_send
                0x0002d850       0xb2 examples/enocean_switch/CMakeFiles/enocean_switch_nrf52840_xxAA_s140_6.0.0.dir/__/__/mesh/core/src/heartbeat.c.obj
 *fill*         0x0002d902        0x2 
 .text.heartbeat_publication_timer_cb
                0x0002d904       0xa8 examples/enocean_switch/CMakeFiles/enocean_switch_nrf52840_xxAA_s140_6.0.0.dir/__/__/mesh/core/src/heartbeat.c.obj
 .text.heartbeat_core_evt_cb
                0x0002d9ac       0x7c examples/enocean_switch/CMakeFiles/enocean_switch_nrf52840_xxAA_s140_6.0.0.dir/__/__/mesh/core/src/heartbeat.c.obj
 .text.heartbeat_on_feature_change_trigger
                0x0002da28       0x44 examples/enocean_switch/CMakeFiles/enocean_switch_nrf52840_xxAA_s140_6.0.0.dir/__/__/mesh/core/src/heartbeat.c.obj
                0x0002da28                heartbeat_on_feature_change_trigger
 .text.heartbeat_init
                0x0002da6c       0x78 examples/enocean_switch/CMakeFiles/enocean_switch_nrf52840_xxAA_s140_6.0.0.dir/__/__/mesh/core/src/heartbeat.c.obj
                0x0002da6c                heartbeat_init
 .text.heartbeat_subscription_set
                0x0002dae4       0xa4 examples/enocean_switch/CMakeFiles/enocean_switch_nrf52840_xxAA_s140_6.0.0.dir/__/__/mesh/core/src/heartbeat.c.obj
                0x0002dae4                heartbeat_subscription_set
 .text.heartbeat_subscription_get
                0x0002db88        0x8 examples/enocean_switch/CMakeFiles/enocean_switch_nrf52840_xxAA_s140_6.0.0.dir/__/__/mesh/core/src/heartbeat.c.obj
                0x0002db88                heartbeat_subscription_get
 .text.heartbeat_config_server_cb_set
                0x0002db90       0x28 examples/enocean_switch/CMakeFiles/enocean_switch_nrf52840_xxAA_s140_6.0.0.dir/__/__/mesh/core/src/heartbeat.c.obj
                0x0002db90                heartbeat_config_server_cb_set
 .text.heartbeat_publication_state_updated
                0x0002dbb8       0x74 examples/enocean_switch/CMakeFiles/enocean_switch_nrf52840_xxAA_s140_6.0.0.dir/__/__/mesh/core/src/heartbeat.c.obj
                0x0002dbb8                heartbeat_publication_state_updated
 .text.make_network_beacon_packet
                0x0002dc2c       0x50 examples/enocean_switch/CMakeFiles/enocean_switch_nrf52840_xxAA_s140_6.0.0.dir/__/__/mesh/core/src/net_beacon.c.obj
 .text.beacon_tx
                0x0002dc7c      0x12c examples/enocean_switch/CMakeFiles/enocean_switch_nrf52840_xxAA_s140_6.0.0.dir/__/__/mesh/core/src/net_beacon.c.obj
 .text.tx_complete_cb
                0x0002dda8        0xe examples/enocean_switch/CMakeFiles/enocean_switch_nrf52840_xxAA_s140_6.0.0.dir/__/__/mesh/core/src/net_beacon.c.obj
 .text.beacon_tx_timeout
                0x0002ddb6        0x4 examples/enocean_switch/CMakeFiles/enocean_switch_nrf52840_xxAA_s140_6.0.0.dir/__/__/mesh/core/src/net_beacon.c.obj
 .text.is_valid_beacon_pkt.part.0
                0x0002ddba       0x30 examples/enocean_switch/CMakeFiles/enocean_switch_nrf52840_xxAA_s140_6.0.0.dir/__/__/mesh/core/src/net_beacon.c.obj
 *fill*         0x0002ddea        0x2 
 .text.net_beacon_init
                0x0002ddec       0x94 examples/enocean_switch/CMakeFiles/enocean_switch_nrf52840_xxAA_s140_6.0.0.dir/__/__/mesh/core/src/net_beacon.c.obj
                0x0002ddec                net_beacon_init
 .text.net_beacon_state_set
                0x0002de80       0x34 examples/enocean_switch/CMakeFiles/enocean_switch_nrf52840_xxAA_s140_6.0.0.dir/__/__/mesh/core/src/net_beacon.c.obj
                0x0002de80                net_beacon_state_set
 .text.net_beacon_state_get
                0x0002deb4        0xc examples/enocean_switch/CMakeFiles/enocean_switch_nrf52840_xxAA_s140_6.0.0.dir/__/__/mesh/core/src/net_beacon.c.obj
                0x0002deb4                net_beacon_state_get
 .text.net_beacon_packet_in
                0x0002dec0       0xf2 examples/enocean_switch/CMakeFiles/enocean_switch_nrf52840_xxAA_s140_6.0.0.dir/__/__/mesh/core/src/net_beacon.c.obj
                0x0002dec0                net_beacon_packet_in
 *fill*         0x0002dfb2        0x2 
 .text.packet_discard
                0x0002dfb4       0x40 examples/enocean_switch/CMakeFiles/enocean_switch_nrf52840_xxAA_s140_6.0.0.dir/__/__/mesh/core/src/core_tx_adv.c.obj
 .text.packet_send
                0x0002dff4       0x58 examples/enocean_switch/CMakeFiles/enocean_switch_nrf52840_xxAA_s140_6.0.0.dir/__/__/mesh/core/src/core_tx_adv.c.obj
 .text.packet_alloc
                0x0002e04c       0x58 examples/enocean_switch/CMakeFiles/enocean_switch_nrf52840_xxAA_s140_6.0.0.dir/__/__/mesh/core/src/core_tx_adv.c.obj
 .text.adv_tx_complete_callback
                0x0002e0a4       0x20 examples/enocean_switch/CMakeFiles/enocean_switch_nrf52840_xxAA_s140_6.0.0.dir/__/__/mesh/core/src/core_tx_adv.c.obj
 .text.core_tx_adv_init
                0x0002e0c4       0x60 examples/enocean_switch/CMakeFiles/enocean_switch_nrf52840_xxAA_s140_6.0.0.dir/__/__/mesh/core/src/core_tx_adv.c.obj
                0x0002e0c4                core_tx_adv_init
 .text.core_tx_adv_count_set
                0x0002e124       0x28 examples/enocean_switch/CMakeFiles/enocean_switch_nrf52840_xxAA_s140_6.0.0.dir/__/__/mesh/core/src/core_tx_adv.c.obj
                0x0002e124                core_tx_adv_count_set
 .text.core_tx_adv_count_get
                0x0002e14c       0x1c examples/enocean_switch/CMakeFiles/enocean_switch_nrf52840_xxAA_s140_6.0.0.dir/__/__/mesh/core/src/core_tx_adv.c.obj
                0x0002e14c                core_tx_adv_count_get
 .text.core_tx_adv_interval_set
                0x0002e168       0x28 examples/enocean_switch/CMakeFiles/enocean_switch_nrf52840_xxAA_s140_6.0.0.dir/__/__/mesh/core/src/core_tx_adv.c.obj
                0x0002e168                core_tx_adv_interval_set
 .text.core_tx_adv_interval_get
                0x0002e190       0x28 examples/enocean_switch/CMakeFiles/enocean_switch_nrf52840_xxAA_s140_6.0.0.dir/__/__/mesh/core/src/core_tx_adv.c.obj
                0x0002e190                core_tx_adv_interval_get
 .text.core_tx_adv_tx_power_set
                0x0002e1b8       0x28 examples/enocean_switch/CMakeFiles/enocean_switch_nrf52840_xxAA_s140_6.0.0.dir/__/__/mesh/core/src/core_tx_adv.c.obj
                0x0002e1b8                core_tx_adv_tx_power_set
 .text.ad_listener_subscribe
                0x0002e1e0       0x5c examples/enocean_switch/CMakeFiles/enocean_switch_nrf52840_xxAA_s140_6.0.0.dir/__/__/mesh/bearer/src/ad_listener.c.obj
                0x0002e1e0                ad_listener_subscribe
 .text.ad_listener_process
                0x0002e23c       0x64 examples/enocean_switch/CMakeFiles/enocean_switch_nrf52840_xxAA_s140_6.0.0.dir/__/__/mesh/bearer/src/ad_listener.c.obj
                0x0002e23c                ad_listener_process
 .text.adtype_filter_handle
                0x0002e2a0       0x64 examples/enocean_switch/CMakeFiles/enocean_switch_nrf52840_xxAA_s140_6.0.0.dir/__/__/mesh/bearer/src/ad_type_filter.c.obj
 .text.bearer_adtype_filtering_set
                0x0002e304       0x1c examples/enocean_switch/CMakeFiles/enocean_switch_nrf52840_xxAA_s140_6.0.0.dir/__/__/mesh/bearer/src/ad_type_filter.c.obj
                0x0002e304                bearer_adtype_filtering_set
 .text.bearer_adtype_add
                0x0002e320       0x20 examples/enocean_switch/CMakeFiles/enocean_switch_nrf52840_xxAA_s140_6.0.0.dir/__/__/mesh/bearer/src/ad_type_filter.c.obj
                0x0002e320                bearer_adtype_add
 .text.bearer_adtype_mode_set
                0x0002e340       0x18 examples/enocean_switch/CMakeFiles/enocean_switch_nrf52840_xxAA_s140_6.0.0.dir/__/__/mesh/bearer/src/ad_type_filter.c.obj
                0x0002e340                bearer_adtype_mode_set
 .text.tx_complete_event_callback
                0x0002e358       0x28 examples/enocean_switch/CMakeFiles/enocean_switch_nrf52840_xxAA_s140_6.0.0.dir/__/__/mesh/bearer/src/advertiser.c.obj
 .text.set_gap_addr_type
                0x0002e380       0x26 examples/enocean_switch/CMakeFiles/enocean_switch_nrf52840_xxAA_s140_6.0.0.dir/__/__/mesh/bearer/src/advertiser.c.obj
 .text.broadcast_complete_cb
                0x0002e3a6       0x46 examples/enocean_switch/CMakeFiles/enocean_switch_nrf52840_xxAA_s140_6.0.0.dir/__/__/mesh/bearer/src/advertiser.c.obj
 .text.schedule_first_time
                0x0002e3ec       0x28 examples/enocean_switch/CMakeFiles/enocean_switch_nrf52840_xxAA_s140_6.0.0.dir/__/__/mesh/bearer/src/advertiser.c.obj
 .text.timeout_event
                0x0002e414      0x10c examples/enocean_switch/CMakeFiles/enocean_switch_nrf52840_xxAA_s140_6.0.0.dir/__/__/mesh/bearer/src/advertiser.c.obj
 .text.advertiser_init
                0x0002e520        0xc examples/enocean_switch/CMakeFiles/enocean_switch_nrf52840_xxAA_s140_6.0.0.dir/__/__/mesh/bearer/src/advertiser.c.obj
                0x0002e520                advertiser_init
 .text.advertiser_enable
                0x0002e52c       0x2a examples/enocean_switch/CMakeFiles/enocean_switch_nrf52840_xxAA_s140_6.0.0.dir/__/__/mesh/bearer/src/advertiser.c.obj
                0x0002e52c                advertiser_enable
 .text.advertiser_packet_alloc
                0x0002e556       0x76 examples/enocean_switch/CMakeFiles/enocean_switch_nrf52840_xxAA_s140_6.0.0.dir/__/__/mesh/bearer/src/advertiser.c.obj
                0x0002e556                advertiser_packet_alloc
 .text.advertiser_packet_send
                0x0002e5cc       0x62 examples/enocean_switch/CMakeFiles/enocean_switch_nrf52840_xxAA_s140_6.0.0.dir/__/__/mesh/bearer/src/advertiser.c.obj
                0x0002e5cc                advertiser_packet_send
 .text.advertiser_packet_discard
                0x0002e62e       0x1e examples/enocean_switch/CMakeFiles/enocean_switch_nrf52840_xxAA_s140_6.0.0.dir/__/__/mesh/bearer/src/advertiser.c.obj
                0x0002e62e                advertiser_packet_discard
 .text.advertiser_interval_set
                0x0002e64c       0x54 examples/enocean_switch/CMakeFiles/enocean_switch_nrf52840_xxAA_s140_6.0.0.dir/__/__/mesh/bearer/src/advertiser.c.obj
                0x0002e64c                advertiser_interval_set
 .text.advertiser_tx_power_set
                0x0002e6a0       0x14 examples/enocean_switch/CMakeFiles/enocean_switch_nrf52840_xxAA_s140_6.0.0.dir/__/__/mesh/bearer/src/advertiser.c.obj
                0x0002e6a0                advertiser_tx_power_set
 .text.advertiser_flush
                0x0002e6b4       0x1e examples/enocean_switch/CMakeFiles/enocean_switch_nrf52840_xxAA_s140_6.0.0.dir/__/__/mesh/bearer/src/advertiser.c.obj
                0x0002e6b4                advertiser_flush
 *fill*         0x0002e6d2        0x2 
 .text.advertiser_address_default_get
                0x0002e6d4       0x38 examples/enocean_switch/CMakeFiles/enocean_switch_nrf52840_xxAA_s140_6.0.0.dir/__/__/mesh/bearer/src/advertiser.c.obj
                0x0002e6d4                advertiser_address_default_get
 .text.advertiser_instance_init
                0x0002e70c       0xa4 examples/enocean_switch/CMakeFiles/enocean_switch_nrf52840_xxAA_s140_6.0.0.dir/__/__/mesh/bearer/src/advertiser.c.obj
                0x0002e70c                advertiser_instance_init
 .text.action_timer_start
                0x0002e7b0       0x90 examples/enocean_switch/CMakeFiles/enocean_switch_nrf52840_xxAA_s140_6.0.0.dir/__/__/mesh/bearer/src/bearer_handler.c.obj
 .text.action_switch
                0x0002e840       0xe8 examples/enocean_switch/CMakeFiles/enocean_switch_nrf52840_xxAA_s140_6.0.0.dir/__/__/mesh/bearer/src/bearer_handler.c.obj
 .text.end_handle
                0x0002e928       0x44 examples/enocean_switch/CMakeFiles/enocean_switch_nrf52840_xxAA_s140_6.0.0.dir/__/__/mesh/bearer/src/bearer_handler.c.obj
 .text.TIMER2_IRQHandler
                0x0002e96c       0x58 examples/enocean_switch/CMakeFiles/enocean_switch_nrf52840_xxAA_s140_6.0.0.dir/__/__/mesh/bearer/src/bearer_handler.c.obj
                0x0002e96c                TIMER2_IRQHandler
 .text.bearer_handler_init
                0x0002e9c4       0x44 examples/enocean_switch/CMakeFiles/enocean_switch_nrf52840_xxAA_s140_6.0.0.dir/__/__/mesh/bearer/src/bearer_handler.c.obj
                0x0002e9c4                bearer_handler_init
 .text.bearer_handler_start
                0x0002ea08       0x1c examples/enocean_switch/CMakeFiles/enocean_switch_nrf52840_xxAA_s140_6.0.0.dir/__/__/mesh/bearer/src/bearer_handler.c.obj
                0x0002ea08                bearer_handler_start
 .text.bearer_handler_action_enqueue
                0x0002ea24       0x6c examples/enocean_switch/CMakeFiles/enocean_switch_nrf52840_xxAA_s140_6.0.0.dir/__/__/mesh/bearer/src/bearer_handler.c.obj
                0x0002ea24                bearer_handler_action_enqueue
 .text.bearer_handler_action_end
                0x0002ea90       0x48 examples/enocean_switch/CMakeFiles/enocean_switch_nrf52840_xxAA_s140_6.0.0.dir/__/__/mesh/bearer/src/bearer_handler.c.obj
                0x0002ea90                bearer_handler_action_end
 .text.bearer_handler_radio_irq_handler
                0x0002ead8       0x64 examples/enocean_switch/CMakeFiles/enocean_switch_nrf52840_xxAA_s140_6.0.0.dir/__/__/mesh/bearer/src/bearer_handler.c.obj
                0x0002ead8                bearer_handler_radio_irq_handler
 .text.bearer_handler_timer_irq_handler
                0x0002eb3c       0x24 examples/enocean_switch/CMakeFiles/enocean_switch_nrf52840_xxAA_s140_6.0.0.dir/__/__/mesh/bearer/src/bearer_handler.c.obj
                0x0002eb3c                bearer_handler_timer_irq_handler
 .text.bearer_handler_on_ts_begin
                0x0002eb60       0x38 examples/enocean_switch/CMakeFiles/enocean_switch_nrf52840_xxAA_s140_6.0.0.dir/__/__/mesh/bearer/src/bearer_handler.c.obj
                0x0002eb60                bearer_handler_on_ts_begin
 .text.bearer_handler_on_ts_end
                0x0002eb98       0x70 examples/enocean_switch/CMakeFiles/enocean_switch_nrf52840_xxAA_s140_6.0.0.dir/__/__/mesh/bearer/src/bearer_handler.c.obj
                0x0002eb98                bearer_handler_on_ts_end
 .text.broadcast_start
                0x0002ec08       0xac examples/enocean_switch/CMakeFiles/enocean_switch_nrf52840_xxAA_s140_6.0.0.dir/__/__/mesh/bearer/src/broadcast.c.obj
 .text.radio_irq_handler
                0x0002ecb4       0xa4 examples/enocean_switch/CMakeFiles/enocean_switch_nrf52840_xxAA_s140_6.0.0.dir/__/__/mesh/bearer/src/broadcast.c.obj
 .text.broadcast_send
                0x0002ed58       0x6c examples/enocean_switch/CMakeFiles/enocean_switch_nrf52840_xxAA_s140_6.0.0.dir/__/__/mesh/bearer/src/broadcast.c.obj
                0x0002ed58                broadcast_send
 .text.fen_filter_start
                0x0002edc4       0x28 examples/enocean_switch/CMakeFiles/enocean_switch_nrf52840_xxAA_s140_6.0.0.dir/__/__/mesh/bearer/src/filter_engine.c.obj
                0x0002edc4                fen_filter_start
 .text.fen_filter_stop
                0x0002edec       0x20 examples/enocean_switch/CMakeFiles/enocean_switch_nrf52840_xxAA_s140_6.0.0.dir/__/__/mesh/bearer/src/filter_engine.c.obj
                0x0002edec                fen_filter_stop
 .text.fen_filters_apply
                0x0002ee0c       0x34 examples/enocean_switch/CMakeFiles/enocean_switch_nrf52840_xxAA_s140_6.0.0.dir/__/__/mesh/bearer/src/filter_engine.c.obj
                0x0002ee0c                fen_filters_apply
 .text.radio_config_reset
                0x0002ee40       0x40 examples/enocean_switch/CMakeFiles/enocean_switch_nrf52840_xxAA_s140_6.0.0.dir/__/__/mesh/bearer/src/radio_config.c.obj
                0x0002ee40                radio_config_reset
 .text.radio_config_channel_set
                0x0002ee80       0x28 examples/enocean_switch/CMakeFiles/enocean_switch_nrf52840_xxAA_s140_6.0.0.dir/__/__/mesh/bearer/src/radio_config.c.obj
                0x0002ee80                radio_config_channel_set
 .text.radio_config_config
                0x0002eea8       0x90 examples/enocean_switch/CMakeFiles/enocean_switch_nrf52840_xxAA_s140_6.0.0.dir/__/__/mesh/bearer/src/radio_config.c.obj
                0x0002eea8                radio_config_config
 .text.radio_config_access_addr_set
                0x0002ef38       0x50 examples/enocean_switch/CMakeFiles/enocean_switch_nrf52840_xxAA_s140_6.0.0.dir/__/__/mesh/bearer/src/radio_config.c.obj
                0x0002ef38                radio_config_access_addr_set
 .text.radio_trigger
                0x0002ef88       0x24 examples/enocean_switch/CMakeFiles/enocean_switch_nrf52840_xxAA_s140_6.0.0.dir/__/__/mesh/bearer/src/scanner.c.obj
 .text.scan_window_end
                0x0002efac       0x10 examples/enocean_switch/CMakeFiles/enocean_switch_nrf52840_xxAA_s140_6.0.0.dir/__/__/mesh/bearer/src/scanner.c.obj
 .text.scan_window_start
                0x0002efbc       0x24 examples/enocean_switch/CMakeFiles/enocean_switch_nrf52840_xxAA_s140_6.0.0.dir/__/__/mesh/bearer/src/scanner.c.obj
 .text.radio_configure
                0x0002efe0       0x78 examples/enocean_switch/CMakeFiles/enocean_switch_nrf52840_xxAA_s140_6.0.0.dir/__/__/mesh/bearer/src/scanner.c.obj
 .text.radio_set_packet
                0x0002f058       0x4c examples/enocean_switch/CMakeFiles/enocean_switch_nrf52840_xxAA_s140_6.0.0.dir/__/__/mesh/bearer/src/scanner.c.obj
 .text.radio_start
                0x0002f0a4       0x78 examples/enocean_switch/CMakeFiles/enocean_switch_nrf52840_xxAA_s140_6.0.0.dir/__/__/mesh/bearer/src/scanner.c.obj
 .text.radio_stop
                0x0002f11c       0x38 examples/enocean_switch/CMakeFiles/enocean_switch_nrf52840_xxAA_s140_6.0.0.dir/__/__/mesh/bearer/src/scanner.c.obj
 .text.schedule_timers
                0x0002f154       0x38 examples/enocean_switch/CMakeFiles/enocean_switch_nrf52840_xxAA_s140_6.0.0.dir/__/__/mesh/bearer/src/scanner.c.obj
 .text.scanner_radio_start
                0x0002f18c       0x2c examples/enocean_switch/CMakeFiles/enocean_switch_nrf52840_xxAA_s140_6.0.0.dir/__/__/mesh/bearer/src/scanner.c.obj
                0x0002f18c                scanner_radio_start
 .text.scanner_radio_stop
                0x0002f1b8       0x10 examples/enocean_switch/CMakeFiles/enocean_switch_nrf52840_xxAA_s140_6.0.0.dir/__/__/mesh/bearer/src/scanner.c.obj
                0x0002f1b8                scanner_radio_stop
 .text.scanner_radio_irq_handler
                0x0002f1c8      0x13c examples/enocean_switch/CMakeFiles/enocean_switch_nrf52840_xxAA_s140_6.0.0.dir/__/__/mesh/bearer/src/scanner.c.obj
                0x0002f1c8                scanner_radio_irq_handler
 .text.scanner_timer_irq_handler
                0x0002f304       0x30 examples/enocean_switch/CMakeFiles/enocean_switch_nrf52840_xxAA_s140_6.0.0.dir/__/__/mesh/bearer/src/scanner.c.obj
                0x0002f304                scanner_timer_irq_handler
 .text.scanner_enable
                0x0002f334       0x24 examples/enocean_switch/CMakeFiles/enocean_switch_nrf52840_xxAA_s140_6.0.0.dir/__/__/mesh/bearer/src/scanner.c.obj
                0x0002f334                scanner_enable
 .text.scanner_packet_release
                0x0002f358       0x2c examples/enocean_switch/CMakeFiles/enocean_switch_nrf52840_xxAA_s140_6.0.0.dir/__/__/mesh/bearer/src/scanner.c.obj
                0x0002f358                scanner_packet_release
 .text.scanner_rx
                0x0002f384       0x30 examples/enocean_switch/CMakeFiles/enocean_switch_nrf52840_xxAA_s140_6.0.0.dir/__/__/mesh/bearer/src/scanner.c.obj
                0x0002f384                scanner_rx
 .text.scanner_rx_pending
                0x0002f3b4        0xc examples/enocean_switch/CMakeFiles/enocean_switch_nrf52840_xxAA_s140_6.0.0.dir/__/__/mesh/bearer/src/scanner.c.obj
                0x0002f3b4                scanner_rx_pending
 .text.scanner_config_scan_time_set
                0x0002f3c0       0x4c examples/enocean_switch/CMakeFiles/enocean_switch_nrf52840_xxAA_s140_6.0.0.dir/__/__/mesh/bearer/src/scanner.c.obj
                0x0002f3c0                scanner_config_scan_time_set
 .text.scanner_config_channels_set
                0x0002f40c       0x50 examples/enocean_switch/CMakeFiles/enocean_switch_nrf52840_xxAA_s140_6.0.0.dir/__/__/mesh/bearer/src/scanner.c.obj
                0x0002f40c                scanner_config_channels_set
 .text.scanner_config_access_addresses_set
                0x0002f45c       0x38 examples/enocean_switch/CMakeFiles/enocean_switch_nrf52840_xxAA_s140_6.0.0.dir/__/__/mesh/bearer/src/scanner.c.obj
                0x0002f45c                scanner_config_access_addresses_set
 .text.scanner_config_reset
                0x0002f494       0x50 examples/enocean_switch/CMakeFiles/enocean_switch_nrf52840_xxAA_s140_6.0.0.dir/__/__/mesh/bearer/src/scanner.c.obj
                0x0002f494                scanner_config_reset
 .text.scanner_init
                0x0002f4e4       0x54 examples/enocean_switch/CMakeFiles/enocean_switch_nrf52840_xxAA_s140_6.0.0.dir/__/__/mesh/bearer/src/scanner.c.obj
                0x0002f4e4                scanner_init
 .text.pin_clear
                0x0002f538       0x26 examples/enocean_switch/CMakeFiles/enocean_switch_nrf52840_xxAA_s140_6.0.0.dir/__/__/mesh/bearer/src/mesh_pa_lna.c.obj
 *fill*         0x0002f55e        0x2 
 .text.ppi_setup.isra.0
                0x0002f560       0x3c examples/enocean_switch/CMakeFiles/enocean_switch_nrf52840_xxAA_s140_6.0.0.dir/__/__/mesh/bearer/src/mesh_pa_lna.c.obj
 .text.mesh_pa_setup_start
                0x0002f59c       0x5c examples/enocean_switch/CMakeFiles/enocean_switch_nrf52840_xxAA_s140_6.0.0.dir/__/__/mesh/bearer/src/mesh_pa_lna.c.obj
                0x0002f59c                mesh_pa_setup_start
 .text.mesh_lna_setup_start
                0x0002f5f8       0x5c examples/enocean_switch/CMakeFiles/enocean_switch_nrf52840_xxAA_s140_6.0.0.dir/__/__/mesh/bearer/src/mesh_pa_lna.c.obj
                0x0002f5f8                mesh_lna_setup_start
 .text.mesh_pa_lna_disable_start
                0x0002f654       0x1c examples/enocean_switch/CMakeFiles/enocean_switch_nrf52840_xxAA_s140_6.0.0.dir/__/__/mesh/bearer/src/mesh_pa_lna.c.obj
                0x0002f654                mesh_pa_lna_disable_start
 .text.mesh_pa_lna_setup_stop
                0x0002f670       0x4c examples/enocean_switch/CMakeFiles/enocean_switch_nrf52840_xxAA_s140_6.0.0.dir/__/__/mesh/bearer/src/mesh_pa_lna.c.obj
                0x0002f670                mesh_pa_lna_setup_stop
 .text.mesh_pa_lna_cleanup
                0x0002f6bc       0x48 examples/enocean_switch/CMakeFiles/enocean_switch_nrf52840_xxAA_s140_6.0.0.dir/__/__/mesh/bearer/src/mesh_pa_lna.c.obj
                0x0002f6bc                mesh_pa_lna_cleanup
 .text.handle_publish_timeout
                0x0002f704        0x8 examples/enocean_switch/CMakeFiles/enocean_switch_nrf52840_xxAA_s140_6.0.0.dir/__/__/models/simple_on_off/src/simple_on_off_client.c.obj
 .text.reliable_status_cb
                0x0002f70c       0x3c examples/enocean_switch/CMakeFiles/enocean_switch_nrf52840_xxAA_s140_6.0.0.dir/__/__/models/simple_on_off/src/simple_on_off_client.c.obj
 .text.handle_status_cb
                0x0002f748       0x50 examples/enocean_switch/CMakeFiles/enocean_switch_nrf52840_xxAA_s140_6.0.0.dir/__/__/models/simple_on_off/src/simple_on_off_client.c.obj
 .text.send_reliable_message.isra.3
                0x0002f798       0x50 examples/enocean_switch/CMakeFiles/enocean_switch_nrf52840_xxAA_s140_6.0.0.dir/__/__/models/simple_on_off/src/simple_on_off_client.c.obj
 .text.simple_on_off_client_init
                0x0002f7e8       0x40 examples/enocean_switch/CMakeFiles/enocean_switch_nrf52840_xxAA_s140_6.0.0.dir/__/__/models/simple_on_off/src/simple_on_off_client.c.obj
                0x0002f7e8                simple_on_off_client_init
 .text.simple_on_off_client_set
                0x0002f828       0x3c examples/enocean_switch/CMakeFiles/enocean_switch_nrf52840_xxAA_s140_6.0.0.dir/__/__/models/simple_on_off/src/simple_on_off_client.c.obj
                0x0002f828                simple_on_off_client_set
 .text.simple_on_off_client_set_unreliable
                0x0002f864       0x5c examples/enocean_switch/CMakeFiles/enocean_switch_nrf52840_xxAA_s140_6.0.0.dir/__/__/models/simple_on_off/src/simple_on_off_client.c.obj
                0x0002f864                simple_on_off_client_set_unreliable
 .text.config_composition_data_get
                0x0002f8c0      0x184 examples/enocean_switch/CMakeFiles/enocean_switch_nrf52840_xxAA_s140_6.0.0.dir/__/__/models/config/src/composition_data.c.obj
                0x0002f8c0                config_composition_data_get
 .text.app_evt_send
                0x0002fa44       0x10 examples/enocean_switch/CMakeFiles/enocean_switch_nrf52840_xxAA_s140_6.0.0.dir/__/__/models/config/src/config_server.c.obj
 .text.config_server_heartbeat_publication_count_decrement
                0x0002fa54       0x1c examples/enocean_switch/CMakeFiles/enocean_switch_nrf52840_xxAA_s140_6.0.0.dir/__/__/models/config/src/config_server.c.obj
 .text.get_element_index
                0x0002fa70       0x2a examples/enocean_switch/CMakeFiles/enocean_switch_nrf52840_xxAA_s140_6.0.0.dir/__/__/models/config/src/config_server.c.obj
 *fill*         0x0002fa9a        0x2 
 .text.config_server_heartbeat_publication_params_get
                0x0002fa9c       0x34 examples/enocean_switch/CMakeFiles/enocean_switch_nrf52840_xxAA_s140_6.0.0.dir/__/__/models/config/src/config_server.c.obj
 .text.send_reply
                0x0002fad0       0x34 examples/enocean_switch/CMakeFiles/enocean_switch_nrf52840_xxAA_s140_6.0.0.dir/__/__/models/config/src/config_server.c.obj
 .text.send_network_transmit_status
                0x0002fb04       0x76 examples/enocean_switch/CMakeFiles/enocean_switch_nrf52840_xxAA_s140_6.0.0.dir/__/__/models/config/src/config_server.c.obj
 .text.handle_config_network_transmit_set
                0x0002fb7a       0x82 examples/enocean_switch/CMakeFiles/enocean_switch_nrf52840_xxAA_s140_6.0.0.dir/__/__/models/config/src/config_server.c.obj
 .text.handle_config_network_transmit_get
                0x0002fbfc        0xa examples/enocean_switch/CMakeFiles/enocean_switch_nrf52840_xxAA_s140_6.0.0.dir/__/__/models/config/src/config_server.c.obj
 *fill*         0x0002fc06        0x2 
 .text.handle_node_reset
                0x0002fc08       0x34 examples/enocean_switch/CMakeFiles/enocean_switch_nrf52840_xxAA_s140_6.0.0.dir/__/__/models/config/src/config_server.c.obj
 .text.send_netkey_status
                0x0002fc3c       0x2c examples/enocean_switch/CMakeFiles/enocean_switch_nrf52840_xxAA_s140_6.0.0.dir/__/__/models/config/src/config_server.c.obj
 .text.send_relay_status
                0x0002fc68       0xa8 examples/enocean_switch/CMakeFiles/enocean_switch_nrf52840_xxAA_s140_6.0.0.dir/__/__/models/config/src/config_server.c.obj
 .text.handle_config_relay_set
                0x0002fd10       0xb6 examples/enocean_switch/CMakeFiles/enocean_switch_nrf52840_xxAA_s140_6.0.0.dir/__/__/models/config/src/config_server.c.obj
 .text.handle_config_relay_get
                0x0002fdc6        0xa examples/enocean_switch/CMakeFiles/enocean_switch_nrf52840_xxAA_s140_6.0.0.dir/__/__/models/config/src/config_server.c.obj
 .text.send_subscription_status
                0x0002fdd0       0x42 examples/enocean_switch/CMakeFiles/enocean_switch_nrf52840_xxAA_s140_6.0.0.dir/__/__/models/config/src/config_server.c.obj
 .text.send_appkey_status
                0x0002fe12       0x3a examples/enocean_switch/CMakeFiles/enocean_switch_nrf52840_xxAA_s140_6.0.0.dir/__/__/models/config/src/config_server.c.obj
 .text.handle_netkey_get
                0x0002fe4c       0x50 examples/enocean_switch/CMakeFiles/enocean_switch_nrf52840_xxAA_s140_6.0.0.dir/__/__/models/config/src/config_server.c.obj
 .text.handle_netkey_delete
                0x0002fe9c       0xbc examples/enocean_switch/CMakeFiles/enocean_switch_nrf52840_xxAA_s140_6.0.0.dir/__/__/models/config/src/config_server.c.obj
 .text.handle_netkey_add_update
                0x0002ff58       0x78 examples/enocean_switch/CMakeFiles/enocean_switch_nrf52840_xxAA_s140_6.0.0.dir/__/__/models/config/src/config_server.c.obj
 .text.status_error_sub_send
                0x0002ffd0      0x124 examples/enocean_switch/CMakeFiles/enocean_switch_nrf52840_xxAA_s140_6.0.0.dir/__/__/models/config/src/config_server.c.obj
 .text.delete_all_subscriptions
                0x000300f4       0x66 examples/enocean_switch/CMakeFiles/enocean_switch_nrf52840_xxAA_s140_6.0.0.dir/__/__/models/config/src/config_server.c.obj
 .text.send_publication_status
                0x0003015a      0x170 examples/enocean_switch/CMakeFiles/enocean_switch_nrf52840_xxAA_s140_6.0.0.dir/__/__/models/config/src/config_server.c.obj
 .text.handle_config_key_refresh_phase_set
                0x000302ca       0xc8 examples/enocean_switch/CMakeFiles/enocean_switch_nrf52840_xxAA_s140_6.0.0.dir/__/__/models/config/src/config_server.c.obj
 .text.handle_config_default_ttl_set
                0x00030392       0x50 examples/enocean_switch/CMakeFiles/enocean_switch_nrf52840_xxAA_s140_6.0.0.dir/__/__/models/config/src/config_server.c.obj
 .text.send_net_beacon_state
                0x000303e2       0x2c examples/enocean_switch/CMakeFiles/enocean_switch_nrf52840_xxAA_s140_6.0.0.dir/__/__/models/config/src/config_server.c.obj
 .text.handle_config_beacon_get
                0x0003040e        0xa examples/enocean_switch/CMakeFiles/enocean_switch_nrf52840_xxAA_s140_6.0.0.dir/__/__/models/config/src/config_server.c.obj
 .text.handle_heartbeat_publication_set
                0x00030418      0x12c examples/enocean_switch/CMakeFiles/enocean_switch_nrf52840_xxAA_s140_6.0.0.dir/__/__/models/config/src/config_server.c.obj
 .text.mesh_event_cb
                0x00030544       0x70 examples/enocean_switch/CMakeFiles/enocean_switch_nrf52840_xxAA_s140_6.0.0.dir/__/__/models/config/src/config_server.c.obj
 .text.handle_node_identity_set
                0x000305b4       0x3e examples/enocean_switch/CMakeFiles/enocean_switch_nrf52840_xxAA_s140_6.0.0.dir/__/__/models/config/src/config_server.c.obj
 .text.handle_node_identity_get
                0x000305f2       0x3c examples/enocean_switch/CMakeFiles/enocean_switch_nrf52840_xxAA_s140_6.0.0.dir/__/__/models/config/src/config_server.c.obj
 .text.handle_config_gatt_proxy_get.part.9
                0x0003062e       0x2a examples/enocean_switch/CMakeFiles/enocean_switch_nrf52840_xxAA_s140_6.0.0.dir/__/__/models/config/src/config_server.c.obj
 .text.handle_config_gatt_proxy_set
                0x00030658       0x14 examples/enocean_switch/CMakeFiles/enocean_switch_nrf52840_xxAA_s140_6.0.0.dir/__/__/models/config/src/config_server.c.obj
 .text.handle_config_gatt_proxy_get
                0x0003066c        0xa examples/enocean_switch/CMakeFiles/enocean_switch_nrf52840_xxAA_s140_6.0.0.dir/__/__/models/config/src/config_server.c.obj
 .text.handle_config_friend_get.part.11
                0x00030676       0x2a examples/enocean_switch/CMakeFiles/enocean_switch_nrf52840_xxAA_s140_6.0.0.dir/__/__/models/config/src/config_server.c.obj
 .text.handle_config_friend_set
                0x000306a0       0x14 examples/enocean_switch/CMakeFiles/enocean_switch_nrf52840_xxAA_s140_6.0.0.dir/__/__/models/config/src/config_server.c.obj
 .text.handle_config_friend_get
                0x000306b4        0xa examples/enocean_switch/CMakeFiles/enocean_switch_nrf52840_xxAA_s140_6.0.0.dir/__/__/models/config/src/config_server.c.obj
 .text.status_error_pub_send
                0x000306be       0x9c examples/enocean_switch/CMakeFiles/enocean_switch_nrf52840_xxAA_s140_6.0.0.dir/__/__/models/config/src/config_server.c.obj
 .text.handle_config_key_refresh_phase_get
                0x0003075a       0x58 examples/enocean_switch/CMakeFiles/enocean_switch_nrf52840_xxAA_s140_6.0.0.dir/__/__/models/config/src/config_server.c.obj
 .text.handle_config_default_ttl_get
                0x000307b2       0x30 examples/enocean_switch/CMakeFiles/enocean_switch_nrf52840_xxAA_s140_6.0.0.dir/__/__/models/config/src/config_server.c.obj
 .text.handle_config_beacon_set
                0x000307e2       0x42 examples/enocean_switch/CMakeFiles/enocean_switch_nrf52840_xxAA_s140_6.0.0.dir/__/__/models/config/src/config_server.c.obj
 .text.handle_composition_data_get
                0x00030824       0x50 examples/enocean_switch/CMakeFiles/enocean_switch_nrf52840_xxAA_s140_6.0.0.dir/__/__/models/config/src/config_server.c.obj
 .text.handle_appkey_delete
                0x00030874       0xc2 examples/enocean_switch/CMakeFiles/enocean_switch_nrf52840_xxAA_s140_6.0.0.dir/__/__/models/config/src/config_server.c.obj
 .text.get_subscription_list.constprop.25
                0x00030936       0x50 examples/enocean_switch/CMakeFiles/enocean_switch_nrf52840_xxAA_s140_6.0.0.dir/__/__/models/config/src/config_server.c.obj
 .text.handle_appkey_get
                0x00030986       0xb8 examples/enocean_switch/CMakeFiles/enocean_switch_nrf52840_xxAA_s140_6.0.0.dir/__/__/models/config/src/config_server.c.obj
 .text.heartbeat_subscription_count_encode
                0x00030a3e       0x26 examples/enocean_switch/CMakeFiles/enocean_switch_nrf52840_xxAA_s140_6.0.0.dir/__/__/models/config/src/config_server.c.obj
 .text.handle_appkey_add
                0x00030a64       0xba examples/enocean_switch/CMakeFiles/enocean_switch_nrf52840_xxAA_s140_6.0.0.dir/__/__/models/config/src/config_server.c.obj
 .text.handle_appkey_update
                0x00030b1e       0xbc examples/enocean_switch/CMakeFiles/enocean_switch_nrf52840_xxAA_s140_6.0.0.dir/__/__/models/config/src/config_server.c.obj
 .text.heartbeat_pubsub_period_encode
                0x00030bda       0x26 examples/enocean_switch/CMakeFiles/enocean_switch_nrf52840_xxAA_s140_6.0.0.dir/__/__/models/config/src/config_server.c.obj
 .text.handle_heartbeat_publication_get
                0x00030c00       0x80 examples/enocean_switch/CMakeFiles/enocean_switch_nrf52840_xxAA_s140_6.0.0.dir/__/__/models/config/src/config_server.c.obj
 .text.handle_heartbeat_subscription_get
                0x00030c80       0x84 examples/enocean_switch/CMakeFiles/enocean_switch_nrf52840_xxAA_s140_6.0.0.dir/__/__/models/config/src/config_server.c.obj
 .text.handle_heartbeat_subscription_set
                0x00030d04       0xa8 examples/enocean_switch/CMakeFiles/enocean_switch_nrf52840_xxAA_s140_6.0.0.dir/__/__/models/config/src/config_server.c.obj
 .text.handle_config_model_publication_get
                0x00030dac       0x94 examples/enocean_switch/CMakeFiles/enocean_switch_nrf52840_xxAA_s140_6.0.0.dir/__/__/models/config/src/config_server.c.obj
 .text.handle_config_model_subscription_delete_all
                0x00030e40       0xca examples/enocean_switch/CMakeFiles/enocean_switch_nrf52840_xxAA_s140_6.0.0.dir/__/__/models/config/src/config_server.c.obj
 .text.handle_config_sig_model_subscription_get
                0x00030f0a       0xbe examples/enocean_switch/CMakeFiles/enocean_switch_nrf52840_xxAA_s140_6.0.0.dir/__/__/models/config/src/config_server.c.obj
 .text.handle_config_vendor_model_subscription_get
                0x00030fc8      0x100 examples/enocean_switch/CMakeFiles/enocean_switch_nrf52840_xxAA_s140_6.0.0.dir/__/__/models/config/src/config_server.c.obj
 .text.handle_config_model_subscription_virtual_address_delete
                0x000310c8      0x110 examples/enocean_switch/CMakeFiles/enocean_switch_nrf52840_xxAA_s140_6.0.0.dir/__/__/models/config/src/config_server.c.obj
 .text.handle_config_model_subscription_virtual_address_add
                0x000311d8      0x10e examples/enocean_switch/CMakeFiles/enocean_switch_nrf52840_xxAA_s140_6.0.0.dir/__/__/models/config/src/config_server.c.obj
 .text.handle_config_model_subscription_delete
                0x000312e6      0x116 examples/enocean_switch/CMakeFiles/enocean_switch_nrf52840_xxAA_s140_6.0.0.dir/__/__/models/config/src/config_server.c.obj
 .text.handle_config_model_subscription_add
                0x000313fc      0x114 examples/enocean_switch/CMakeFiles/enocean_switch_nrf52840_xxAA_s140_6.0.0.dir/__/__/models/config/src/config_server.c.obj
 .text.handle_config_model_subscription_virtual_address_overwrite
                0x00031510      0x128 examples/enocean_switch/CMakeFiles/enocean_switch_nrf52840_xxAA_s140_6.0.0.dir/__/__/models/config/src/config_server.c.obj
 .text.handle_model_app_get
                0x00031638      0x1a4 examples/enocean_switch/CMakeFiles/enocean_switch_nrf52840_xxAA_s140_6.0.0.dir/__/__/models/config/src/config_server.c.obj
 .text.handle_config_model_subscription_overwrite
                0x000317dc      0x122 examples/enocean_switch/CMakeFiles/enocean_switch_nrf52840_xxAA_s140_6.0.0.dir/__/__/models/config/src/config_server.c.obj
 .text.handle_model_app_bind_unbind
                0x000318fe      0x17a examples/enocean_switch/CMakeFiles/enocean_switch_nrf52840_xxAA_s140_6.0.0.dir/__/__/models/config/src/config_server.c.obj
 .text.handle_config_model_publication_set
                0x00031a78      0x2ce examples/enocean_switch/CMakeFiles/enocean_switch_nrf52840_xxAA_s140_6.0.0.dir/__/__/models/config/src/config_server.c.obj
 *fill*         0x00031d46        0x2 
 .text.config_server_init
                0x00031d48       0x64 examples/enocean_switch/CMakeFiles/enocean_switch_nrf52840_xxAA_s140_6.0.0.dir/__/__/models/config/src/config_server.c.obj
                0x00031d48                config_server_init
 .text.config_server_bind
                0x00031dac       0x10 examples/enocean_switch/CMakeFiles/enocean_switch_nrf52840_xxAA_s140_6.0.0.dir/__/__/models/config/src/config_server.c.obj
                0x00031dac                config_server_bind
 .text.packed_index_list_create
                0x00031dbc       0x32 examples/enocean_switch/CMakeFiles/enocean_switch_nrf52840_xxAA_s140_6.0.0.dir/__/__/models/config/src/packed_index_list.c.obj
                0x00031dbc                packed_index_list_create
 *fill*         0x00031dee        0x2 
 .text.attention_timer_set
                0x00031df0       0x8c examples/enocean_switch/CMakeFiles/enocean_switch_nrf52840_xxAA_s140_6.0.0.dir/__/__/models/health/src/health_server.c.obj
 .text.attention_timer_handler
                0x00031e7c       0x5c examples/enocean_switch/CMakeFiles/enocean_switch_nrf52840_xxAA_s140_6.0.0.dir/__/__/models/health/src/health_server.c.obj
 .text.send_attention_status
                0x00031ed8       0x4a examples/enocean_switch/CMakeFiles/enocean_switch_nrf52840_xxAA_s140_6.0.0.dir/__/__/models/health/src/health_server.c.obj
 .text.handle_attention_get
                0x00031f22        0xc examples/enocean_switch/CMakeFiles/enocean_switch_nrf52840_xxAA_s140_6.0.0.dir/__/__/models/health/src/health_server.c.obj
 .text.send_period_status
                0x00031f2e       0x48 examples/enocean_switch/CMakeFiles/enocean_switch_nrf52840_xxAA_s140_6.0.0.dir/__/__/models/health/src/health_server.c.obj
 .text.handle_period_get
                0x00031f76        0xc examples/enocean_switch/CMakeFiles/enocean_switch_nrf52840_xxAA_s140_6.0.0.dir/__/__/models/health/src/health_server.c.obj
 .text.handle_attention_set
                0x00031f82       0x2e examples/enocean_switch/CMakeFiles/enocean_switch_nrf52840_xxAA_s140_6.0.0.dir/__/__/models/health/src/health_server.c.obj
 .text.handle_period_set
                0x00031fb0       0x22 examples/enocean_switch/CMakeFiles/enocean_switch_nrf52840_xxAA_s140_6.0.0.dir/__/__/models/health/src/health_server.c.obj
 *fill*         0x00031fd2        0x2 
 .text.bitfield_next_get.part.0.constprop.9
                0x00031fd4       0x44 examples/enocean_switch/CMakeFiles/enocean_switch_nrf52840_xxAA_s140_6.0.0.dir/__/__/models/health/src/health_server.c.obj
 .text.bitfield_popcount.constprop.7
                0x00032018       0x28 examples/enocean_switch/CMakeFiles/enocean_switch_nrf52840_xxAA_s140_6.0.0.dir/__/__/models/health/src/health_server.c.obj
 .text.send_fault_status
                0x00032040       0xa8 examples/enocean_switch/CMakeFiles/enocean_switch_nrf52840_xxAA_s140_6.0.0.dir/__/__/models/health/src/health_server.c.obj
 .text.health_publish_timeout_handler
                0x000320e8        0xa examples/enocean_switch/CMakeFiles/enocean_switch_nrf52840_xxAA_s140_6.0.0.dir/__/__/models/health/src/health_server.c.obj
 .text.handle_fault_test
                0x000320f2       0x68 examples/enocean_switch/CMakeFiles/enocean_switch_nrf52840_xxAA_s140_6.0.0.dir/__/__/models/health/src/health_server.c.obj
 .text.handle_fault_get
                0x0003215a       0x32 examples/enocean_switch/CMakeFiles/enocean_switch_nrf52840_xxAA_s140_6.0.0.dir/__/__/models/health/src/health_server.c.obj
 .text.handle_fault_clear
                0x0003218c       0x48 examples/enocean_switch/CMakeFiles/enocean_switch_nrf52840_xxAA_s140_6.0.0.dir/__/__/models/health/src/health_server.c.obj
 .text.health_server_init
                0x000321d4       0x6c examples/enocean_switch/CMakeFiles/enocean_switch_nrf52840_xxAA_s140_6.0.0.dir/__/__/models/health/src/health_server.c.obj
                0x000321d4                health_server_init
 .text.add_to_publication_list
                0x00032240       0x78 examples/enocean_switch/CMakeFiles/enocean_switch_nrf52840_xxAA_s140_6.0.0.dir/__/__/mesh/access/src/access_publish.c.obj
 .text.step_resolution_to_us
                0x000322b8       0x38 examples/enocean_switch/CMakeFiles/enocean_switch_nrf52840_xxAA_s140_6.0.0.dir/__/__/mesh/access/src/access_publish.c.obj
 .text.schedule_publication_timer
                0x000322f0      0x184 examples/enocean_switch/CMakeFiles/enocean_switch_nrf52840_xxAA_s140_6.0.0.dir/__/__/mesh/access/src/access_publish.c.obj
 .text.publish_timer_tick
                0x00032474       0xa8 examples/enocean_switch/CMakeFiles/enocean_switch_nrf52840_xxAA_s140_6.0.0.dir/__/__/mesh/access/src/access_publish.c.obj
 .text.access_publish_init
                0x0003251c       0x38 examples/enocean_switch/CMakeFiles/enocean_switch_nrf52840_xxAA_s140_6.0.0.dir/__/__/mesh/access/src/access_publish.c.obj
                0x0003251c                access_publish_init
 .text.access_publish_period_set
                0x00032554       0x60 examples/enocean_switch/CMakeFiles/enocean_switch_nrf52840_xxAA_s140_6.0.0.dir/__/__/mesh/access/src/access_publish.c.obj
                0x00032554                access_publish_period_set
 .text.access_publish_period_get
                0x000325b4       0x22 examples/enocean_switch/CMakeFiles/enocean_switch_nrf52840_xxAA_s140_6.0.0.dir/__/__/mesh/access/src/access_publish.c.obj
                0x000325b4                access_publish_period_get
 .text.bitfield_get
                0x000325d6       0x1a examples/enocean_switch/CMakeFiles/enocean_switch_nrf52840_xxAA_s140_6.0.0.dir/__/__/mesh/access/src/access.c.obj
 .text.is_valid_opcode
                0x000325f0       0x42 examples/enocean_switch/CMakeFiles/enocean_switch_nrf52840_xxAA_s140_6.0.0.dir/__/__/mesh/access/src/access.c.obj
 *fill*         0x00032632        0x2 
 .text.model_handle_valid_and_allocated
                0x00032634       0x20 examples/enocean_switch/CMakeFiles/enocean_switch_nrf52840_xxAA_s140_6.0.0.dir/__/__/mesh/access/src/access.c.obj
 .text.flash_manager_mem_available
                0x00032654        0x2 examples/enocean_switch/CMakeFiles/enocean_switch_nrf52840_xxAA_s140_6.0.0.dir/__/__/mesh/access/src/access.c.obj
 *fill*         0x00032656        0x2 
 .text.restore_acquired_subscription
                0x00032658       0x30 examples/enocean_switch/CMakeFiles/enocean_switch_nrf52840_xxAA_s140_6.0.0.dir/__/__/mesh/access/src/access.c.obj
 .text.restore_acquired_element
                0x00032688       0x20 examples/enocean_switch/CMakeFiles/enocean_switch_nrf52840_xxAA_s140_6.0.0.dir/__/__/mesh/access/src/access.c.obj
 .text.restore_flash_data
                0x000326a8       0x50 examples/enocean_switch/CMakeFiles/enocean_switch_nrf52840_xxAA_s140_6.0.0.dir/__/__/mesh/access/src/access.c.obj
 .text.flash_invalidate_complete
                0x000326f8        0x6 examples/enocean_switch/CMakeFiles/enocean_switch_nrf52840_xxAA_s140_6.0.0.dir/__/__/mesh/access/src/access.c.obj
 *fill*         0x000326fe        0x2 
 .text.access_flash_config_clear
                0x00032700       0x28 examples/enocean_switch/CMakeFiles/enocean_switch_nrf52840_xxAA_s140_6.0.0.dir/__/__/mesh/access/src/access.c.obj
 .text.access_flash_config_store
                0x00032728      0x150 examples/enocean_switch/CMakeFiles/enocean_switch_nrf52840_xxAA_s140_6.0.0.dir/__/__/mesh/access/src/access.c.obj
                0x00032728                access_flash_config_store
 .text.access_state_clear
                0x00032878       0x4c examples/enocean_switch/CMakeFiles/enocean_switch_nrf52840_xxAA_s140_6.0.0.dir/__/__/mesh/access/src/access.c.obj
 .text.add_flash_manager
                0x000328c4       0x58 examples/enocean_switch/CMakeFiles/enocean_switch_nrf52840_xxAA_s140_6.0.0.dir/__/__/mesh/access/src/access.c.obj
 .text.flash_remove_complete
                0x0003291c       0x64 examples/enocean_switch/CMakeFiles/enocean_switch_nrf52840_xxAA_s140_6.0.0.dir/__/__/mesh/access/src/access.c.obj
 .text.flash_write_complete
                0x00032980       0x46 examples/enocean_switch/CMakeFiles/enocean_switch_nrf52840_xxAA_s140_6.0.0.dir/__/__/mesh/access/src/access.c.obj
 *fill*         0x000329c6        0x2 
 .text.unlikely.bitfield_next_get.part.0.constprop.5
                0x000329c8       0x34 examples/enocean_switch/CMakeFiles/enocean_switch_nrf52840_xxAA_s140_6.0.0.dir/__/__/mesh/access/src/access.c.obj
 .text.packet_tx
                0x000329fc      0x31c examples/enocean_switch/CMakeFiles/enocean_switch_nrf52840_xxAA_s140_6.0.0.dir/__/__/mesh/access/src/access.c.obj
 .text.restore_acquired_model
                0x00032d18       0x94 examples/enocean_switch/CMakeFiles/enocean_switch_nrf52840_xxAA_s140_6.0.0.dir/__/__/mesh/access/src/access.c.obj
 .text.access_flash_config_load
                0x00032dac      0x11c examples/enocean_switch/CMakeFiles/enocean_switch_nrf52840_xxAA_s140_6.0.0.dir/__/__/mesh/access/src/access.c.obj
                0x00032dac                access_flash_config_load
 .text.access_incoming_handle
                0x00032ec8      0x104 examples/enocean_switch/CMakeFiles/enocean_switch_nrf52840_xxAA_s140_6.0.0.dir/__/__/mesh/access/src/access.c.obj
                0x00032ec8                access_incoming_handle
 .text.mesh_evt_cb
                0x00032fcc      0x134 examples/enocean_switch/CMakeFiles/enocean_switch_nrf52840_xxAA_s140_6.0.0.dir/__/__/mesh/access/src/access.c.obj
 .text.access_clear
                0x00033100       0x12 examples/enocean_switch/CMakeFiles/enocean_switch_nrf52840_xxAA_s140_6.0.0.dir/__/__/mesh/access/src/access.c.obj
                0x00033100                access_clear
 *fill*         0x00033112        0x2 
 .text.access_init
                0x00033114       0x2c examples/enocean_switch/CMakeFiles/enocean_switch_nrf52840_xxAA_s140_6.0.0.dir/__/__/mesh/access/src/access.c.obj
                0x00033114                access_init
 .text.access_model_add
                0x00033140      0x1bc examples/enocean_switch/CMakeFiles/enocean_switch_nrf52840_xxAA_s140_6.0.0.dir/__/__/mesh/access/src/access.c.obj
                0x00033140                access_model_add
 .text.access_model_publish
                0x000332fc        0xc examples/enocean_switch/CMakeFiles/enocean_switch_nrf52840_xxAA_s140_6.0.0.dir/__/__/mesh/access/src/access.c.obj
                0x000332fc                access_model_publish
 .text.access_model_reply
                0x00033308       0x12 examples/enocean_switch/CMakeFiles/enocean_switch_nrf52840_xxAA_s140_6.0.0.dir/__/__/mesh/access/src/access.c.obj
                0x00033308                access_model_reply
 *fill*         0x0003331a        0x2 
 .text.access_model_publish_address_set
                0x0003331c       0x3c examples/enocean_switch/CMakeFiles/enocean_switch_nrf52840_xxAA_s140_6.0.0.dir/__/__/mesh/access/src/access.c.obj
                0x0003331c                access_model_publish_address_set
 .text.access_model_publish_address_get
                0x00033358       0x28 examples/enocean_switch/CMakeFiles/enocean_switch_nrf52840_xxAA_s140_6.0.0.dir/__/__/mesh/access/src/access.c.obj
                0x00033358                access_model_publish_address_get
 .text.access_model_publish_retransmit_set
                0x00033380       0x4c examples/enocean_switch/CMakeFiles/enocean_switch_nrf52840_xxAA_s140_6.0.0.dir/__/__/mesh/access/src/access.c.obj
                0x00033380                access_model_publish_retransmit_set
 .text.access_model_publish_retransmit_get
                0x000333cc       0x2c examples/enocean_switch/CMakeFiles/enocean_switch_nrf52840_xxAA_s140_6.0.0.dir/__/__/mesh/access/src/access.c.obj
                0x000333cc                access_model_publish_retransmit_get
 .text.access_model_publish_period_set
                0x000333f8       0x6c examples/enocean_switch/CMakeFiles/enocean_switch_nrf52840_xxAA_s140_6.0.0.dir/__/__/mesh/access/src/access.c.obj
                0x000333f8                access_model_publish_period_set
 .text.access_model_publish_period_get
                0x00033464       0x3c examples/enocean_switch/CMakeFiles/enocean_switch_nrf52840_xxAA_s140_6.0.0.dir/__/__/mesh/access/src/access.c.obj
                0x00033464                access_model_publish_period_get
 .text.access_model_subscription_list_alloc
                0x000334a0       0x54 examples/enocean_switch/CMakeFiles/enocean_switch_nrf52840_xxAA_s140_6.0.0.dir/__/__/mesh/access/src/access.c.obj
                0x000334a0                access_model_subscription_list_alloc
 .text.access_model_subscription_add
                0x000334f4       0x60 examples/enocean_switch/CMakeFiles/enocean_switch_nrf52840_xxAA_s140_6.0.0.dir/__/__/mesh/access/src/access.c.obj
                0x000334f4                access_model_subscription_add
 .text.access_model_subscription_remove
                0x00033554       0x60 examples/enocean_switch/CMakeFiles/enocean_switch_nrf52840_xxAA_s140_6.0.0.dir/__/__/mesh/access/src/access.c.obj
                0x00033554                access_model_subscription_remove
 .text.access_model_subscriptions_get
                0x000335b4       0x78 examples/enocean_switch/CMakeFiles/enocean_switch_nrf52840_xxAA_s140_6.0.0.dir/__/__/mesh/access/src/access.c.obj
                0x000335b4                access_model_subscriptions_get
 .text.access_model_application_bind
                0x0003362c       0x50 examples/enocean_switch/CMakeFiles/enocean_switch_nrf52840_xxAA_s140_6.0.0.dir/__/__/mesh/access/src/access.c.obj
                0x0003362c                access_model_application_bind
 .text.access_model_application_unbind
                0x0003367c       0x50 examples/enocean_switch/CMakeFiles/enocean_switch_nrf52840_xxAA_s140_6.0.0.dir/__/__/mesh/access/src/access.c.obj
                0x0003367c                access_model_application_unbind
 .text.access_model_applications_get
                0x000336cc       0x64 examples/enocean_switch/CMakeFiles/enocean_switch_nrf52840_xxAA_s140_6.0.0.dir/__/__/mesh/access/src/access.c.obj
                0x000336cc                access_model_applications_get
 .text.access_model_publish_application_set
                0x00033730       0x3c examples/enocean_switch/CMakeFiles/enocean_switch_nrf52840_xxAA_s140_6.0.0.dir/__/__/mesh/access/src/access.c.obj
                0x00033730                access_model_publish_application_set
 .text.access_model_publish_application_get
                0x0003376c       0x28 examples/enocean_switch/CMakeFiles/enocean_switch_nrf52840_xxAA_s140_6.0.0.dir/__/__/mesh/access/src/access.c.obj
                0x0003376c                access_model_publish_application_get
 .text.access_default_ttl_set
                0x00033794       0x18 examples/enocean_switch/CMakeFiles/enocean_switch_nrf52840_xxAA_s140_6.0.0.dir/__/__/mesh/access/src/access.c.obj
                0x00033794                access_default_ttl_set
 .text.access_default_ttl_get
                0x000337ac        0xc examples/enocean_switch/CMakeFiles/enocean_switch_nrf52840_xxAA_s140_6.0.0.dir/__/__/mesh/access/src/access.c.obj
                0x000337ac                access_default_ttl_get
 .text.access_model_publish_ttl_set
                0x000337b8       0x40 examples/enocean_switch/CMakeFiles/enocean_switch_nrf52840_xxAA_s140_6.0.0.dir/__/__/mesh/access/src/access.c.obj
                0x000337b8                access_model_publish_ttl_set
 .text.access_model_publish_ttl_get
                0x000337f8       0x28 examples/enocean_switch/CMakeFiles/enocean_switch_nrf52840_xxAA_s140_6.0.0.dir/__/__/mesh/access/src/access.c.obj
                0x000337f8                access_model_publish_ttl_get
 .text.access_element_location_get
                0x00033820       0x20 examples/enocean_switch/CMakeFiles/enocean_switch_nrf52840_xxAA_s140_6.0.0.dir/__/__/mesh/access/src/access.c.obj
                0x00033820                access_element_location_get
 .text.access_element_sig_model_count_get
                0x00033840       0x24 examples/enocean_switch/CMakeFiles/enocean_switch_nrf52840_xxAA_s140_6.0.0.dir/__/__/mesh/access/src/access.c.obj
                0x00033840                access_element_sig_model_count_get
 .text.access_element_vendor_model_count_get
                0x00033864       0x24 examples/enocean_switch/CMakeFiles/enocean_switch_nrf52840_xxAA_s140_6.0.0.dir/__/__/mesh/access/src/access.c.obj
                0x00033864                access_element_vendor_model_count_get
 .text.access_model_id_get
                0x00033888       0x2c examples/enocean_switch/CMakeFiles/enocean_switch_nrf52840_xxAA_s140_6.0.0.dir/__/__/mesh/access/src/access.c.obj
                0x00033888                access_model_id_get
 .text.access_handle_get
                0x000338b4       0x50 examples/enocean_switch/CMakeFiles/enocean_switch_nrf52840_xxAA_s140_6.0.0.dir/__/__/mesh/access/src/access.c.obj
                0x000338b4                access_handle_get
 .text.access_element_models_get
                0x00033904       0x50 examples/enocean_switch/CMakeFiles/enocean_switch_nrf52840_xxAA_s140_6.0.0.dir/__/__/mesh/access/src/access.c.obj
                0x00033904                access_element_models_get
 .text.access_model_p_args_get
                0x00033954       0x28 examples/enocean_switch/CMakeFiles/enocean_switch_nrf52840_xxAA_s140_6.0.0.dir/__/__/mesh/access/src/access.c.obj
                0x00033954                access_model_p_args_get
 .text.access_model_publication_stop
                0x0003397c       0x70 examples/enocean_switch/CMakeFiles/enocean_switch_nrf52840_xxAA_s140_6.0.0.dir/__/__/mesh/access/src/access.c.obj
                0x0003397c                access_model_publication_stop
 .text.access_model_publication_by_appkey_stop
                0x000339ec       0x36 examples/enocean_switch/CMakeFiles/enocean_switch_nrf52840_xxAA_s140_6.0.0.dir/__/__/mesh/access/src/access.c.obj
                0x000339ec                access_model_publication_by_appkey_stop
 *fill*         0x00033a22        0x2 
 .text.reliable_timer_cb
                0x00033a24      0x11c examples/enocean_switch/CMakeFiles/enocean_switch_nrf52840_xxAA_s140_6.0.0.dir/__/__/mesh/access/src/access_reliable.c.obj
 .text.remove_and_reschedule
                0x00033b40       0xac examples/enocean_switch/CMakeFiles/enocean_switch_nrf52840_xxAA_s140_6.0.0.dir/__/__/mesh/access/src/access_reliable.c.obj
 .text.access_reliable_message_rx_cb
                0x00033bec       0x68 examples/enocean_switch/CMakeFiles/enocean_switch_nrf52840_xxAA_s140_6.0.0.dir/__/__/mesh/access/src/access_reliable.c.obj
                0x00033bec                access_reliable_message_rx_cb
 .text.access_reliable_init
                0x00033c54       0x20 examples/enocean_switch/CMakeFiles/enocean_switch_nrf52840_xxAA_s140_6.0.0.dir/__/__/mesh/access/src/access_reliable.c.obj
                0x00033c54                access_reliable_init
 .text.access_reliable_cancel_all
                0x00033c74       0x60 examples/enocean_switch/CMakeFiles/enocean_switch_nrf52840_xxAA_s140_6.0.0.dir/__/__/mesh/access/src/access_reliable.c.obj
                0x00033c74                access_reliable_cancel_all
 .text.access_model_reliable_cancel
                0x00033cd4       0x68 examples/enocean_switch/CMakeFiles/enocean_switch_nrf52840_xxAA_s140_6.0.0.dir/__/__/mesh/access/src/access_reliable.c.obj
                0x00033cd4                access_model_reliable_cancel
 .text.access_model_reliable_publish
                0x00033d3c      0x1b8 examples/enocean_switch/CMakeFiles/enocean_switch_nrf52840_xxAA_s140_6.0.0.dir/__/__/mesh/access/src/access_reliable.c.obj
                0x00033d3c                access_model_reliable_publish
 .text.access_loopback_process
                0x00033ef4       0x28 examples/enocean_switch/CMakeFiles/enocean_switch_nrf52840_xxAA_s140_6.0.0.dir/__/__/mesh/access/src/access_loopback.c.obj
 .text.is_access_loopback
                0x00033f1c        0x4 examples/enocean_switch/CMakeFiles/enocean_switch_nrf52840_xxAA_s140_6.0.0.dir/__/__/mesh/access/src/access_loopback.c.obj
                0x00033f1c                is_access_loopback
 .text.access_loopback_init
                0x00033f20       0x18 examples/enocean_switch/CMakeFiles/enocean_switch_nrf52840_xxAA_s140_6.0.0.dir/__/__/mesh/access/src/access_loopback.c.obj
                0x00033f20                access_loopback_init
 .text.access_loopback_handle
                0x00033f38       0x80 examples/enocean_switch/CMakeFiles/enocean_switch_nrf52840_xxAA_s140_6.0.0.dir/__/__/mesh/access/src/access_loopback.c.obj
                0x00033f38                access_loopback_handle
 .text.bitfield_get
                0x00033fb8       0x1a examples/enocean_switch/CMakeFiles/enocean_switch_nrf52840_xxAA_s140_6.0.0.dir/__/__/mesh/access/src/device_state_manager.c.obj
 .text.bitfield_set
                0x00033fd2       0x18 examples/enocean_switch/CMakeFiles/enocean_switch_nrf52840_xxAA_s140_6.0.0.dir/__/__/mesh/access/src/device_state_manager.c.obj
 .text.bitfield_clear
                0x00033fea       0x1a examples/enocean_switch/CMakeFiles/enocean_switch_nrf52840_xxAA_s140_6.0.0.dir/__/__/mesh/access/src/device_state_manager.c.obj
 .text.bitfield_is_all_clear
                0x00034004       0x3c examples/enocean_switch/CMakeFiles/enocean_switch_nrf52840_xxAA_s140_6.0.0.dir/__/__/mesh/access/src/device_state_manager.c.obj
 .text.address_handle_virtual_valid
                0x00034040       0x18 examples/enocean_switch/CMakeFiles/enocean_switch_nrf52840_xxAA_s140_6.0.0.dir/__/__/mesh/access/src/device_state_manager.c.obj
 .text.net_key_handle_get
                0x00034058       0x58 examples/enocean_switch/CMakeFiles/enocean_switch_nrf52840_xxAA_s140_6.0.0.dir/__/__/mesh/access/src/device_state_manager.c.obj
 .text.dev_key_handle_get
                0x000340b0       0x30 examples/enocean_switch/CMakeFiles/enocean_switch_nrf52840_xxAA_s140_6.0.0.dir/__/__/mesh/access/src/device_state_manager.c.obj
 .text.app_key_handle_get
                0x000340e0       0x58 examples/enocean_switch/CMakeFiles/enocean_switch_nrf52840_xxAA_s140_6.0.0.dir/__/__/mesh/access/src/device_state_manager.c.obj
 .text.addr_nonvirtual_to_flash_entry
                0x00034138       0x10 examples/enocean_switch/CMakeFiles/enocean_switch_nrf52840_xxAA_s140_6.0.0.dir/__/__/mesh/access/src/device_state_manager.c.obj
 .text.devkey_set
                0x00034148       0x50 examples/enocean_switch/CMakeFiles/enocean_switch_nrf52840_xxAA_s140_6.0.0.dir/__/__/mesh/access/src/device_state_manager.c.obj
 .text.devkey_to_dsm_entry
                0x00034198       0x18 examples/enocean_switch/CMakeFiles/enocean_switch_nrf52840_xxAA_s140_6.0.0.dir/__/__/mesh/access/src/device_state_manager.c.obj
 .text.devkey_to_flash_entry
                0x000341b0       0x28 examples/enocean_switch/CMakeFiles/enocean_switch_nrf52840_xxAA_s140_6.0.0.dir/__/__/mesh/access/src/device_state_manager.c.obj
 .text.addr_virtual_to_flash_entry
                0x000341d8       0x18 examples/enocean_switch/CMakeFiles/enocean_switch_nrf52840_xxAA_s140_6.0.0.dir/__/__/mesh/access/src/device_state_manager.c.obj
 .text.addr_unicast_to_dsm_entry
                0x000341f0        0xc examples/enocean_switch/CMakeFiles/enocean_switch_nrf52840_xxAA_s140_6.0.0.dir/__/__/mesh/access/src/device_state_manager.c.obj
 .text.addr_unicast_to_flash_entry
                0x000341fc       0x10 examples/enocean_switch/CMakeFiles/enocean_switch_nrf52840_xxAA_s140_6.0.0.dir/__/__/mesh/access/src/device_state_manager.c.obj
 .text.flash_mem_listener_callback
                0x0003420c       0x14 examples/enocean_switch/CMakeFiles/enocean_switch_nrf52840_xxAA_s140_6.0.0.dir/__/__/mesh/access/src/device_state_manager.c.obj
 .text.get_subnet_handle
                0x00034220       0x40 examples/enocean_switch/CMakeFiles/enocean_switch_nrf52840_xxAA_s140_6.0.0.dir/__/__/mesh/access/src/device_state_manager.c.obj
 .text.appkey_set
                0x00034260       0x70 examples/enocean_switch/CMakeFiles/enocean_switch_nrf52840_xxAA_s140_6.0.0.dir/__/__/mesh/access/src/device_state_manager.c.obj
 .text.appkey_to_flash_entry
                0x000342d0       0x54 examples/enocean_switch/CMakeFiles/enocean_switch_nrf52840_xxAA_s140_6.0.0.dir/__/__/mesh/access/src/device_state_manager.c.obj
 .text.subnet_to_flash_entry
                0x00034324       0x60 examples/enocean_switch/CMakeFiles/enocean_switch_nrf52840_xxAA_s140_6.0.0.dir/__/__/mesh/access/src/device_state_manager.c.obj
 .text.bitfield_clear_all
                0x00034384        0xe examples/enocean_switch/CMakeFiles/enocean_switch_nrf52840_xxAA_s140_6.0.0.dir/__/__/mesh/access/src/device_state_manager.c.obj
 *fill*         0x00034392        0x2 
 .text.subnet_set
                0x00034394       0x98 examples/enocean_switch/CMakeFiles/enocean_switch_nrf52840_xxAA_s140_6.0.0.dir/__/__/mesh/access/src/device_state_manager.c.obj
 .text.virtual_address_set
                0x0003442c       0x4c examples/enocean_switch/CMakeFiles/enocean_switch_nrf52840_xxAA_s140_6.0.0.dir/__/__/mesh/access/src/device_state_manager.c.obj
 .text.addr_virtual_to_dsm_entry
                0x00034478        0xe examples/enocean_switch/CMakeFiles/enocean_switch_nrf52840_xxAA_s140_6.0.0.dir/__/__/mesh/access/src/device_state_manager.c.obj
 *fill*         0x00034486        0x2 
 .text.reset_flash_area
                0x00034488       0x28 examples/enocean_switch/CMakeFiles/enocean_switch_nrf52840_xxAA_s140_6.0.0.dir/__/__/mesh/access/src/device_state_manager.c.obj
 .text.flash_save
                0x000344b0       0x7c examples/enocean_switch/CMakeFiles/enocean_switch_nrf52840_xxAA_s140_6.0.0.dir/__/__/mesh/access/src/device_state_manager.c.obj
 .text.flash_invalidate
                0x0003452c       0x64 examples/enocean_switch/CMakeFiles/enocean_switch_nrf52840_xxAA_s140_6.0.0.dir/__/__/mesh/access/src/device_state_manager.c.obj
 .text.flash_update_all
                0x00034590       0x6c examples/enocean_switch/CMakeFiles/enocean_switch_nrf52840_xxAA_s140_6.0.0.dir/__/__/mesh/access/src/device_state_manager.c.obj
 .text.virtual_address_uuid_index_get
                0x000345fc       0x60 examples/enocean_switch/CMakeFiles/enocean_switch_nrf52840_xxAA_s140_6.0.0.dir/__/__/mesh/access/src/device_state_manager.c.obj
 .text.add_address_virtual
                0x0003465c       0x74 examples/enocean_switch/CMakeFiles/enocean_switch_nrf52840_xxAA_s140_6.0.0.dir/__/__/mesh/access/src/device_state_manager.c.obj
 .text.get_subnet_handle_by_beacon_info
                0x000346d0       0x30 examples/enocean_switch/CMakeFiles/enocean_switch_nrf52840_xxAA_s140_6.0.0.dir/__/__/mesh/access/src/device_state_manager.c.obj
 .text.get_app_handle
                0x00034700       0x44 examples/enocean_switch/CMakeFiles/enocean_switch_nrf52840_xxAA_s140_6.0.0.dir/__/__/mesh/access/src/device_state_manager.c.obj
 .text.appkey_to_dsm_entry
                0x00034744       0x68 examples/enocean_switch/CMakeFiles/enocean_switch_nrf52840_xxAA_s140_6.0.0.dir/__/__/mesh/access/src/device_state_manager.c.obj
 .text.subnet_to_dsm_entry
                0x000347ac       0x68 examples/enocean_switch/CMakeFiles/enocean_switch_nrf52840_xxAA_s140_6.0.0.dir/__/__/mesh/access/src/device_state_manager.c.obj
 .text.flash_operation_complete
                0x00034814       0x4c examples/enocean_switch/CMakeFiles/enocean_switch_nrf52840_xxAA_s140_6.0.0.dir/__/__/mesh/access/src/device_state_manager.c.obj
 .text.flash_invalidate_complete
                0x00034860        0x8 examples/enocean_switch/CMakeFiles/enocean_switch_nrf52840_xxAA_s140_6.0.0.dir/__/__/mesh/access/src/device_state_manager.c.obj
 .text.flash_write_complete
                0x00034868        0x8 examples/enocean_switch/CMakeFiles/enocean_switch_nrf52840_xxAA_s140_6.0.0.dir/__/__/mesh/access/src/device_state_manager.c.obj
 .text.add_address.part.8
                0x00034870      0x164 examples/enocean_switch/CMakeFiles/enocean_switch_nrf52840_xxAA_s140_6.0.0.dir/__/__/mesh/access/src/device_state_manager.c.obj
 .text.bitfield_next_get.part.0.constprop.17
                0x000349d4       0x3c examples/enocean_switch/CMakeFiles/enocean_switch_nrf52840_xxAA_s140_6.0.0.dir/__/__/mesh/access/src/device_state_manager.c.obj
 .text.address_handle_valid
                0x00034a10       0x28 examples/enocean_switch/CMakeFiles/enocean_switch_nrf52840_xxAA_s140_6.0.0.dir/__/__/mesh/access/src/device_state_manager.c.obj
 .text.address_handle_nonvirtual_valid
                0x00034a38       0x14 examples/enocean_switch/CMakeFiles/enocean_switch_nrf52840_xxAA_s140_6.0.0.dir/__/__/mesh/access/src/device_state_manager.c.obj
 .text.address_delete_if_unused
                0x00034a4c       0x78 examples/enocean_switch/CMakeFiles/enocean_switch_nrf52840_xxAA_s140_6.0.0.dir/__/__/mesh/access/src/device_state_manager.c.obj
 .text.addr_nonvirtual_to_dsm_entry
                0x00034ac4       0x38 examples/enocean_switch/CMakeFiles/enocean_switch_nrf52840_xxAA_s140_6.0.0.dir/__/__/mesh/access/src/device_state_manager.c.obj
 .text.dsm_flash_config_load
                0x00034afc      0x120 examples/enocean_switch/CMakeFiles/enocean_switch_nrf52840_xxAA_s140_6.0.0.dir/__/__/mesh/access/src/device_state_manager.c.obj
                0x00034afc                dsm_flash_config_load
 .text.dsm_flash_area_get
                0x00034c1c        0xc examples/enocean_switch/CMakeFiles/enocean_switch_nrf52840_xxAA_s140_6.0.0.dir/__/__/mesh/access/src/device_state_manager.c.obj
                0x00034c1c                dsm_flash_area_get
 .text.build_flash_area
                0x00034c28       0x8c examples/enocean_switch/CMakeFiles/enocean_switch_nrf52840_xxAA_s140_6.0.0.dir/__/__/mesh/access/src/device_state_manager.c.obj
 .text.flash_remove_complete
                0x00034cb4        0x4 examples/enocean_switch/CMakeFiles/enocean_switch_nrf52840_xxAA_s140_6.0.0.dir/__/__/mesh/access/src/device_state_manager.c.obj
 .text.dsm_clear
                0x00034cb8       0xb4 examples/enocean_switch/CMakeFiles/enocean_switch_nrf52840_xxAA_s140_6.0.0.dir/__/__/mesh/access/src/device_state_manager.c.obj
                0x00034cb8                dsm_clear
 .text.dsm_init
                0x00034d6c       0x3c examples/enocean_switch/CMakeFiles/enocean_switch_nrf52840_xxAA_s140_6.0.0.dir/__/__/mesh/access/src/device_state_manager.c.obj
                0x00034d6c                dsm_init
 .text.dsm_local_unicast_addresses_set
                0x00034da8       0x78 examples/enocean_switch/CMakeFiles/enocean_switch_nrf52840_xxAA_s140_6.0.0.dir/__/__/mesh/access/src/device_state_manager.c.obj
                0x00034da8                dsm_local_unicast_addresses_set
 .text.dsm_local_unicast_addresses_get
                0x00034e20       0x20 examples/enocean_switch/CMakeFiles/enocean_switch_nrf52840_xxAA_s140_6.0.0.dir/__/__/mesh/access/src/device_state_manager.c.obj
                0x00034e20                dsm_local_unicast_addresses_get
 .text.dsm_address_publish_add
                0x00034e40        0xc examples/enocean_switch/CMakeFiles/enocean_switch_nrf52840_xxAA_s140_6.0.0.dir/__/__/mesh/access/src/device_state_manager.c.obj
                0x00034e40                dsm_address_publish_add
 .text.dsm_address_publish_add_handle
                0x00034e4c       0x38 examples/enocean_switch/CMakeFiles/enocean_switch_nrf52840_xxAA_s140_6.0.0.dir/__/__/mesh/access/src/device_state_manager.c.obj
                0x00034e4c                dsm_address_publish_add_handle
 .text.dsm_address_publish_virtual_add
                0x00034e84        0x6 examples/enocean_switch/CMakeFiles/enocean_switch_nrf52840_xxAA_s140_6.0.0.dir/__/__/mesh/access/src/device_state_manager.c.obj
                0x00034e84                dsm_address_publish_virtual_add
 *fill*         0x00034e8a        0x2 
 .text.dsm_address_publish_remove
                0x00034e8c       0x44 examples/enocean_switch/CMakeFiles/enocean_switch_nrf52840_xxAA_s140_6.0.0.dir/__/__/mesh/access/src/device_state_manager.c.obj
                0x00034e8c                dsm_address_publish_remove
 .text.dsm_address_subscription_add
                0x00034ed0        0xc examples/enocean_switch/CMakeFiles/enocean_switch_nrf52840_xxAA_s140_6.0.0.dir/__/__/mesh/access/src/device_state_manager.c.obj
                0x00034ed0                dsm_address_subscription_add
 .text.dsm_address_subscription_virtual_add
                0x00034edc        0x6 examples/enocean_switch/CMakeFiles/enocean_switch_nrf52840_xxAA_s140_6.0.0.dir/__/__/mesh/access/src/device_state_manager.c.obj
                0x00034edc                dsm_address_subscription_virtual_add
 *fill*         0x00034ee2        0x2 
 .text.dsm_address_subscription_add_handle
                0x00034ee4       0x38 examples/enocean_switch/CMakeFiles/enocean_switch_nrf52840_xxAA_s140_6.0.0.dir/__/__/mesh/access/src/device_state_manager.c.obj
                0x00034ee4                dsm_address_subscription_add_handle
 .text.dsm_address_get
                0x00034f1c       0x5c examples/enocean_switch/CMakeFiles/enocean_switch_nrf52840_xxAA_s140_6.0.0.dir/__/__/mesh/access/src/device_state_manager.c.obj
                0x00034f1c                dsm_address_get
 .text.dsm_address_subscription_remove
                0x00034f78       0x5c examples/enocean_switch/CMakeFiles/enocean_switch_nrf52840_xxAA_s140_6.0.0.dir/__/__/mesh/access/src/device_state_manager.c.obj
                0x00034f78                dsm_address_subscription_remove
 .text.dsm_address_handle_get
                0x00034fd4       0x98 examples/enocean_switch/CMakeFiles/enocean_switch_nrf52840_xxAA_s140_6.0.0.dir/__/__/mesh/access/src/device_state_manager.c.obj
                0x00034fd4                dsm_address_handle_get
 .text.dsm_net_key_index_to_subnet_handle
                0x0003506c       0x1c examples/enocean_switch/CMakeFiles/enocean_switch_nrf52840_xxAA_s140_6.0.0.dir/__/__/mesh/access/src/device_state_manager.c.obj
                0x0003506c                dsm_net_key_index_to_subnet_handle
 .text.dsm_subnet_handle_get
                0x00035088        0xc examples/enocean_switch/CMakeFiles/enocean_switch_nrf52840_xxAA_s140_6.0.0.dir/__/__/mesh/access/src/device_state_manager.c.obj
                0x00035088                dsm_subnet_handle_get
 .text.dsm_appkey_index_to_appkey_handle
                0x00035094       0x1c examples/enocean_switch/CMakeFiles/enocean_switch_nrf52840_xxAA_s140_6.0.0.dir/__/__/mesh/access/src/device_state_manager.c.obj
                0x00035094                dsm_appkey_index_to_appkey_handle
 .text.dsm_appkey_handle_get
                0x000350b0        0xc examples/enocean_switch/CMakeFiles/enocean_switch_nrf52840_xxAA_s140_6.0.0.dir/__/__/mesh/access/src/device_state_manager.c.obj
                0x000350b0                dsm_appkey_handle_get
 .text.dsm_appkey_handle_to_appkey_index
                0x000350bc       0x34 examples/enocean_switch/CMakeFiles/enocean_switch_nrf52840_xxAA_s140_6.0.0.dir/__/__/mesh/access/src/device_state_manager.c.obj
                0x000350bc                dsm_appkey_handle_to_appkey_index
 .text.dsm_appkey_handle_to_subnet_handle
                0x000350f0       0xa0 examples/enocean_switch/CMakeFiles/enocean_switch_nrf52840_xxAA_s140_6.0.0.dir/__/__/mesh/access/src/device_state_manager.c.obj
                0x000350f0                dsm_appkey_handle_to_subnet_handle
 .text.dsm_subnet_add
                0x00035190       0x78 examples/enocean_switch/CMakeFiles/enocean_switch_nrf52840_xxAA_s140_6.0.0.dir/__/__/mesh/access/src/device_state_manager.c.obj
                0x00035190                dsm_subnet_add
 .text.dsm_subnet_kr_phase_get
                0x00035208       0x34 examples/enocean_switch/CMakeFiles/enocean_switch_nrf52840_xxAA_s140_6.0.0.dir/__/__/mesh/access/src/device_state_manager.c.obj
                0x00035208                dsm_subnet_kr_phase_get
 .text.dsm_subnet_update
                0x0003523c       0xc8 examples/enocean_switch/CMakeFiles/enocean_switch_nrf52840_xxAA_s140_6.0.0.dir/__/__/mesh/access/src/device_state_manager.c.obj
                0x0003523c                dsm_subnet_update
 .text.dsm_subnet_update_swap_keys
                0x00035304       0x5c examples/enocean_switch/CMakeFiles/enocean_switch_nrf52840_xxAA_s140_6.0.0.dir/__/__/mesh/access/src/device_state_manager.c.obj
                0x00035304                dsm_subnet_update_swap_keys
 .text.dsm_subnet_update_commit
                0x00035360       0xf4 examples/enocean_switch/CMakeFiles/enocean_switch_nrf52840_xxAA_s140_6.0.0.dir/__/__/mesh/access/src/device_state_manager.c.obj
                0x00035360                dsm_subnet_update_commit
 .text.mesh_evt_handler
                0x00035454       0x4c examples/enocean_switch/CMakeFiles/enocean_switch_nrf52840_xxAA_s140_6.0.0.dir/__/__/mesh/access/src/device_state_manager.c.obj
 .text.dsm_subnet_get_all
                0x000354a0       0x60 examples/enocean_switch/CMakeFiles/enocean_switch_nrf52840_xxAA_s140_6.0.0.dir/__/__/mesh/access/src/device_state_manager.c.obj
                0x000354a0                dsm_subnet_get_all
 .text.dsm_devkey_add
                0x00035500       0x7c examples/enocean_switch/CMakeFiles/enocean_switch_nrf52840_xxAA_s140_6.0.0.dir/__/__/mesh/access/src/device_state_manager.c.obj
                0x00035500                dsm_devkey_add
 .text.dsm_appkey_add
                0x0003557c       0x90 examples/enocean_switch/CMakeFiles/enocean_switch_nrf52840_xxAA_s140_6.0.0.dir/__/__/mesh/access/src/device_state_manager.c.obj
                0x0003557c                dsm_appkey_add
 .text.dsm_appkey_update
                0x0003560c       0xa4 examples/enocean_switch/CMakeFiles/enocean_switch_nrf52840_xxAA_s140_6.0.0.dir/__/__/mesh/access/src/device_state_manager.c.obj
                0x0003560c                dsm_appkey_update
 .text.dsm_appkey_delete
                0x000356b0       0x30 examples/enocean_switch/CMakeFiles/enocean_switch_nrf52840_xxAA_s140_6.0.0.dir/__/__/mesh/access/src/device_state_manager.c.obj
                0x000356b0                dsm_appkey_delete
 .text.dsm_subnet_delete
                0x000356e0       0xac examples/enocean_switch/CMakeFiles/enocean_switch_nrf52840_xxAA_s140_6.0.0.dir/__/__/mesh/access/src/device_state_manager.c.obj
                0x000356e0                dsm_subnet_delete
 .text.dsm_appkey_get_all
                0x0003578c       0x88 examples/enocean_switch/CMakeFiles/enocean_switch_nrf52840_xxAA_s140_6.0.0.dir/__/__/mesh/access/src/device_state_manager.c.obj
                0x0003578c                dsm_appkey_get_all
 .text.dsm_tx_secmat_get
                0x00035814       0xc4 examples/enocean_switch/CMakeFiles/enocean_switch_nrf52840_xxAA_s140_6.0.0.dir/__/__/mesh/access/src/device_state_manager.c.obj
                0x00035814                dsm_tx_secmat_get
 .text.dsm_net_secmat_from_keyindex_get
                0x000358d8       0x3c examples/enocean_switch/CMakeFiles/enocean_switch_nrf52840_xxAA_s140_6.0.0.dir/__/__/mesh/access/src/device_state_manager.c.obj
                0x000358d8                dsm_net_secmat_from_keyindex_get
 .text.nrf_mesh_net_secmat_next_get
                0x00035914       0xb4 examples/enocean_switch/CMakeFiles/enocean_switch_nrf52840_xxAA_s140_6.0.0.dir/__/__/mesh/access/src/device_state_manager.c.obj
                0x00035914                nrf_mesh_net_secmat_next_get
 .text.nrf_mesh_app_secmat_next_get
                0x000359c8       0x88 examples/enocean_switch/CMakeFiles/enocean_switch_nrf52840_xxAA_s140_6.0.0.dir/__/__/mesh/access/src/device_state_manager.c.obj
                0x000359c8                nrf_mesh_app_secmat_next_get
 .text.nrf_mesh_devkey_secmat_get
                0x00035a50       0x28 examples/enocean_switch/CMakeFiles/enocean_switch_nrf52840_xxAA_s140_6.0.0.dir/__/__/mesh/access/src/device_state_manager.c.obj
                0x00035a50                nrf_mesh_devkey_secmat_get
 .text.nrf_mesh_beacon_info_next_get
                0x00035a78       0xd4 examples/enocean_switch/CMakeFiles/enocean_switch_nrf52840_xxAA_s140_6.0.0.dir/__/__/mesh/access/src/device_state_manager.c.obj
                0x00035a78                nrf_mesh_beacon_info_next_get
 .text.nrf_mesh_rx_address_get
                0x00035b4c      0x14c examples/enocean_switch/CMakeFiles/enocean_switch_nrf52840_xxAA_s140_6.0.0.dir/__/__/mesh/access/src/device_state_manager.c.obj
                0x00035b4c                nrf_mesh_rx_address_get
 .text.dsm_address_is_rx
                0x00035c98       0x48 examples/enocean_switch/CMakeFiles/enocean_switch_nrf52840_xxAA_s140_6.0.0.dir/__/__/mesh/access/src/device_state_manager.c.obj
                0x00035c98                dsm_address_is_rx
 .text.nrf_mesh_unicast_address_get
                0x00035ce0       0x20 examples/enocean_switch/CMakeFiles/enocean_switch_nrf52840_xxAA_s140_6.0.0.dir/__/__/mesh/access/src/device_state_manager.c.obj
                0x00035ce0                nrf_mesh_unicast_address_get
 .text.complete_provisioning
                0x00035d00       0x24 examples/enocean_switch/CMakeFiles/enocean_switch_nrf52840_xxAA_s140_6.0.0.dir/__/__/mesh/prov/src/prov_provisionee.c.obj
 .text.prov_provisionee_cb_link_established
                0x00035d24       0x36 examples/enocean_switch/CMakeFiles/enocean_switch_nrf52840_xxAA_s140_6.0.0.dir/__/__/mesh/prov/src/prov_provisionee.c.obj
 .text.prov_provisionee_cb_link_closed
                0x00035d5a       0x34 examples/enocean_switch/CMakeFiles/enocean_switch_nrf52840_xxAA_s140_6.0.0.dir/__/__/mesh/prov/src/prov_provisionee.c.obj
 .text.request_authentication
                0x00035d8e       0x8a examples/enocean_switch/CMakeFiles/enocean_switch_nrf52840_xxAA_s140_6.0.0.dir/__/__/mesh/prov/src/prov_provisionee.c.obj
 .text.send_failed
                0x00035e18       0x3a examples/enocean_switch/CMakeFiles/enocean_switch_nrf52840_xxAA_s140_6.0.0.dir/__/__/mesh/prov/src/prov_provisionee.c.obj
 .text.start_authentication
                0x00035e52       0x52 examples/enocean_switch/CMakeFiles/enocean_switch_nrf52840_xxAA_s140_6.0.0.dir/__/__/mesh/prov/src/prov_provisionee.c.obj
 .text.prov_provisionee_cb_ack_received
                0x00035ea4       0xc8 examples/enocean_switch/CMakeFiles/enocean_switch_nrf52840_xxAA_s140_6.0.0.dir/__/__/mesh/prov/src/prov_provisionee.c.obj
 .text.prov_provisionee_pkt_in
                0x00035f6c      0x2f0 examples/enocean_switch/CMakeFiles/enocean_switch_nrf52840_xxAA_s140_6.0.0.dir/__/__/mesh/prov/src/prov_provisionee.c.obj
 .text.prov_provisionee_listen
                0x0003625c       0x30 examples/enocean_switch/CMakeFiles/enocean_switch_nrf52840_xxAA_s140_6.0.0.dir/__/__/mesh/prov/src/prov_provisionee.c.obj
                0x0003625c                prov_provisionee_listen
 .text.prov_provisionee_auth_data
                0x0003628c       0x98 examples/enocean_switch/CMakeFiles/enocean_switch_nrf52840_xxAA_s140_6.0.0.dir/__/__/mesh/prov/src/prov_provisionee.c.obj
                0x0003628c                prov_provisionee_auth_data
 .text.bearer_compare_callback
                0x00036324        0xc examples/enocean_switch/CMakeFiles/enocean_switch_nrf52840_xxAA_s140_6.0.0.dir/__/__/mesh/prov/src/nrf_mesh_prov.c.obj
 .text.bitfield_next_get.part.0.constprop.4
                0x00036330       0x34 examples/enocean_switch/CMakeFiles/enocean_switch_nrf52840_xxAA_s140_6.0.0.dir/__/__/mesh/prov/src/nrf_mesh_prov.c.obj
 .text.nrf_mesh_prov_init
                0x00036364       0x32 examples/enocean_switch/CMakeFiles/enocean_switch_nrf52840_xxAA_s140_6.0.0.dir/__/__/mesh/prov/src/nrf_mesh_prov.c.obj
                0x00036364                nrf_mesh_prov_init
 *fill*         0x00036396        0x2 
 .text.nrf_mesh_prov_bearer_add
                0x00036398       0x28 examples/enocean_switch/CMakeFiles/enocean_switch_nrf52840_xxAA_s140_6.0.0.dir/__/__/mesh/prov/src/nrf_mesh_prov.c.obj
                0x00036398                nrf_mesh_prov_bearer_add
 .text.nrf_mesh_prov_generate_keys
                0x000363c0        0x4 examples/enocean_switch/CMakeFiles/enocean_switch_nrf52840_xxAA_s140_6.0.0.dir/__/__/mesh/prov/src/nrf_mesh_prov.c.obj
                0x000363c0                nrf_mesh_prov_generate_keys
 .text.nrf_mesh_prov_listen_stop
                0x000363c4       0x2e examples/enocean_switch/CMakeFiles/enocean_switch_nrf52840_xxAA_s140_6.0.0.dir/__/__/mesh/prov/src/nrf_mesh_prov.c.obj
                0x000363c4                nrf_mesh_prov_listen_stop
 .text.nrf_mesh_prov_listen
                0x000363f2       0x88 examples/enocean_switch/CMakeFiles/enocean_switch_nrf52840_xxAA_s140_6.0.0.dir/__/__/mesh/prov/src/nrf_mesh_prov.c.obj
                0x000363f2                nrf_mesh_prov_listen
 .text.nrf_mesh_prov_auth_data_provide
                0x0003647a        0xe examples/enocean_switch/CMakeFiles/enocean_switch_nrf52840_xxAA_s140_6.0.0.dir/__/__/mesh/prov/src/nrf_mesh_prov.c.obj
                0x0003647a                nrf_mesh_prov_auth_data_provide
 .text.send_data
                0x00036488       0x28 examples/enocean_switch/CMakeFiles/enocean_switch_nrf52840_xxAA_s140_6.0.0.dir/__/__/mesh/prov/src/provisioning.c.obj
 .text.prov_packet_length_valid
                0x000364b0       0x1c examples/enocean_switch/CMakeFiles/enocean_switch_nrf52840_xxAA_s140_6.0.0.dir/__/__/mesh/prov/src/provisioning.c.obj
                0x000364b0                prov_packet_length_valid
 .text.prov_tx_capabilities
                0x000364cc       0x1e examples/enocean_switch/CMakeFiles/enocean_switch_nrf52840_xxAA_s140_6.0.0.dir/__/__/mesh/prov/src/provisioning.c.obj
                0x000364cc                prov_tx_capabilities
 .text.prov_tx_public_key
                0x000364ea       0x26 examples/enocean_switch/CMakeFiles/enocean_switch_nrf52840_xxAA_s140_6.0.0.dir/__/__/mesh/prov/src/provisioning.c.obj
                0x000364ea                prov_tx_public_key
 .text.prov_tx_input_complete
                0x00036510       0x16 examples/enocean_switch/CMakeFiles/enocean_switch_nrf52840_xxAA_s140_6.0.0.dir/__/__/mesh/prov/src/provisioning.c.obj
                0x00036510                prov_tx_input_complete
 .text.prov_tx_confirmation
                0x00036526       0x26 examples/enocean_switch/CMakeFiles/enocean_switch_nrf52840_xxAA_s140_6.0.0.dir/__/__/mesh/prov/src/provisioning.c.obj
                0x00036526                prov_tx_confirmation
 .text.prov_tx_random
                0x0003654c       0x26 examples/enocean_switch/CMakeFiles/enocean_switch_nrf52840_xxAA_s140_6.0.0.dir/__/__/mesh/prov/src/provisioning.c.obj
                0x0003654c                prov_tx_random
 .text.prov_tx_complete
                0x00036572       0x16 examples/enocean_switch/CMakeFiles/enocean_switch_nrf52840_xxAA_s140_6.0.0.dir/__/__/mesh/prov/src/provisioning.c.obj
                0x00036572                prov_tx_complete
 .text.prov_tx_failed
                0x00036588       0x1a examples/enocean_switch/CMakeFiles/enocean_switch_nrf52840_xxAA_s140_6.0.0.dir/__/__/mesh/prov/src/provisioning.c.obj
                0x00036588                prov_tx_failed
 .text.prov_beacon_unprov_build
                0x000365a2       0x54 examples/enocean_switch/CMakeFiles/enocean_switch_nrf52840_xxAA_s140_6.0.0.dir/__/__/mesh/prov/src/prov_beacon.c.obj
                0x000365a2                prov_beacon_unprov_build
 *fill*         0x000365f6        0x2 
 .text.prov_beacon_unprov_packet_in
                0x000365f8       0x88 examples/enocean_switch/CMakeFiles/enocean_switch_nrf52840_xxAA_s140_6.0.0.dir/__/__/mesh/prov/src/prov_beacon.c.obj
                0x000365f8                prov_beacon_unprov_packet_in
 .text.oob_gen_alphanumeric
                0x00036680       0x34 examples/enocean_switch/CMakeFiles/enocean_switch_nrf52840_xxAA_s140_6.0.0.dir/__/__/mesh/prov/src/prov_utils.c.obj
 .text.oob_gen_numeric
                0x000366b4       0x3c examples/enocean_switch/CMakeFiles/enocean_switch_nrf52840_xxAA_s140_6.0.0.dir/__/__/mesh/prov/src/prov_utils.c.obj
 .text.prov_utils_opt_set
                0x000366f0       0x20 examples/enocean_switch/CMakeFiles/enocean_switch_nrf52840_xxAA_s140_6.0.0.dir/__/__/mesh/prov/src/prov_utils.c.obj
                0x000366f0                prov_utils_opt_set
 .text.prov_utils_opt_get
                0x00036710       0x1c examples/enocean_switch/CMakeFiles/enocean_switch_nrf52840_xxAA_s140_6.0.0.dir/__/__/mesh/prov/src/prov_utils.c.obj
                0x00036710                prov_utils_opt_get
 .text.prov_utils_use_ecdh_offloading
                0x0003672c        0xc examples/enocean_switch/CMakeFiles/enocean_switch_nrf52840_xxAA_s140_6.0.0.dir/__/__/mesh/prov/src/prov_utils.c.obj
                0x0003672c                prov_utils_use_ecdh_offloading
 .text.prov_utils_authentication_values_derive
                0x00036738       0xa0 examples/enocean_switch/CMakeFiles/enocean_switch_nrf52840_xxAA_s140_6.0.0.dir/__/__/mesh/prov/src/prov_utils.c.obj
                0x00036738                prov_utils_authentication_values_derive
 .text.prov_utils_keys_generate
                0x000367d8       0x1e examples/enocean_switch/CMakeFiles/enocean_switch_nrf52840_xxAA_s140_6.0.0.dir/__/__/mesh/prov/src/prov_utils.c.obj
                0x000367d8                prov_utils_keys_generate
 *fill*         0x000367f6        0x2 
 .text.prov_utils_derive_keys
                0x000367f8       0xac examples/enocean_switch/CMakeFiles/enocean_switch_nrf52840_xxAA_s140_6.0.0.dir/__/__/mesh/prov/src/prov_utils.c.obj
                0x000367f8                prov_utils_derive_keys
 .text.prov_utils_calculate_shared_secret
                0x000368a4       0x36 examples/enocean_switch/CMakeFiles/enocean_switch_nrf52840_xxAA_s140_6.0.0.dir/__/__/mesh/prov/src/prov_utils.c.obj
                0x000368a4                prov_utils_calculate_shared_secret
 .text.prov_utils_generate_oob_data
                0x000368da       0x8a examples/enocean_switch/CMakeFiles/enocean_switch_nrf52840_xxAA_s140_6.0.0.dir/__/__/mesh/prov/src/prov_utils.c.obj
                0x000368da                prov_utils_generate_oob_data
 .text.prov_utils_confirmation_check
                0x00036964       0x5c examples/enocean_switch/CMakeFiles/enocean_switch_nrf52840_xxAA_s140_6.0.0.dir/__/__/mesh/prov/src/prov_utils.c.obj
                0x00036964                prov_utils_confirmation_check
 .text.link_timeout_cb
                0x000369c0       0x10 examples/enocean_switch/CMakeFiles/enocean_switch_nrf52840_xxAA_s140_6.0.0.dir/__/__/mesh/prov/src/prov_bearer_adv.c.obj
 .text.remove_active_bearer
                0x000369d0       0x4c examples/enocean_switch/CMakeFiles/enocean_switch_nrf52840_xxAA_s140_6.0.0.dir/__/__/mesh/prov/src/prov_bearer_adv.c.obj
 .text.close_link
                0x00036a1c       0x58 examples/enocean_switch/CMakeFiles/enocean_switch_nrf52840_xxAA_s140_6.0.0.dir/__/__/mesh/prov/src/prov_bearer_adv.c.obj
 .text.prov_bearer_adv_listen_stop
                0x00036a74       0x30 examples/enocean_switch/CMakeFiles/enocean_switch_nrf52840_xxAA_s140_6.0.0.dir/__/__/mesh/prov/src/prov_bearer_adv.c.obj
 .text.send_packet
                0x00036aa4       0x5e examples/enocean_switch/CMakeFiles/enocean_switch_nrf52840_xxAA_s140_6.0.0.dir/__/__/mesh/prov/src/prov_bearer_adv.c.obj
 .text.prov_buffer_tx
                0x00036b02      0x134 examples/enocean_switch/CMakeFiles/enocean_switch_nrf52840_xxAA_s140_6.0.0.dir/__/__/mesh/prov/src/prov_bearer_adv.c.obj
 .text.send_link_close
                0x00036c36       0x38 examples/enocean_switch/CMakeFiles/enocean_switch_nrf52840_xxAA_s140_6.0.0.dir/__/__/mesh/prov/src/prov_bearer_adv.c.obj
 .text.prov_bearer_adv_link_close
                0x00036c6e       0x56 examples/enocean_switch/CMakeFiles/enocean_switch_nrf52840_xxAA_s140_6.0.0.dir/__/__/mesh/prov/src/prov_bearer_adv.c.obj
 .text.send_transaction_ack
                0x00036cc4       0x24 examples/enocean_switch/CMakeFiles/enocean_switch_nrf52840_xxAA_s140_6.0.0.dir/__/__/mesh/prov/src/prov_bearer_adv.c.obj
 .text.send_link_ack
                0x00036ce8       0x32 examples/enocean_switch/CMakeFiles/enocean_switch_nrf52840_xxAA_s140_6.0.0.dir/__/__/mesh/prov/src/prov_bearer_adv.c.obj
 .text.reset_timeout_timer
                0x00036d1a       0x1a examples/enocean_switch/CMakeFiles/enocean_switch_nrf52840_xxAA_s140_6.0.0.dir/__/__/mesh/prov/src/prov_bearer_adv.c.obj
 .text.tx_complete_cb
                0x00036d34       0x1c examples/enocean_switch/CMakeFiles/enocean_switch_nrf52840_xxAA_s140_6.0.0.dir/__/__/mesh/prov/src/prov_bearer_adv.c.obj
 .text.tx_retry_cb
                0x00036d50       0xcc examples/enocean_switch/CMakeFiles/enocean_switch_nrf52840_xxAA_s140_6.0.0.dir/__/__/mesh/prov/src/prov_bearer_adv.c.obj
 .text.add_active_bearer
                0x00036e1c       0x80 examples/enocean_switch/CMakeFiles/enocean_switch_nrf52840_xxAA_s140_6.0.0.dir/__/__/mesh/prov/src/prov_bearer_adv.c.obj
 .text.prov_bearer_adv_link_open
                0x00036e9c       0xec examples/enocean_switch/CMakeFiles/enocean_switch_nrf52840_xxAA_s140_6.0.0.dir/__/__/mesh/prov/src/prov_bearer_adv.c.obj
 .text.async_process
                0x00036f88       0x50 examples/enocean_switch/CMakeFiles/enocean_switch_nrf52840_xxAA_s140_6.0.0.dir/__/__/mesh/prov/src/prov_bearer_adv.c.obj
 .text.prov_bearer_adv_listen
                0x00036fd8       0xd8 examples/enocean_switch/CMakeFiles/enocean_switch_nrf52840_xxAA_s140_6.0.0.dir/__/__/mesh/prov/src/prov_bearer_adv.c.obj
 .text.calculate_3GPP_CRC
                0x000370b0       0x24 examples/enocean_switch/CMakeFiles/enocean_switch_nrf52840_xxAA_s140_6.0.0.dir/__/__/mesh/prov/src/prov_bearer_adv.c.obj
                0x000370b0                calculate_3GPP_CRC
 .text.prov_bearer_adv_tx
                0x000370d4       0xb4 examples/enocean_switch/CMakeFiles/enocean_switch_nrf52840_xxAA_s140_6.0.0.dir/__/__/mesh/prov/src/prov_bearer_adv.c.obj
 .text.prov_buffer_rx
                0x00037188       0x6e examples/enocean_switch/CMakeFiles/enocean_switch_nrf52840_xxAA_s140_6.0.0.dir/__/__/mesh/prov/src/prov_bearer_adv.c.obj
 *fill*         0x000371f6        0x2 
 .text.nrf_mesh_prov_bearer_adv_interface_get
                0x000371f8       0x3c examples/enocean_switch/CMakeFiles/enocean_switch_nrf52840_xxAA_s140_6.0.0.dir/__/__/mesh/prov/src/prov_bearer_adv.c.obj
                0x000371f8                nrf_mesh_prov_bearer_adv_interface_get
 .text.prov_bearer_adv_packet_in
                0x00037234      0x7f8 examples/enocean_switch/CMakeFiles/enocean_switch_nrf52840_xxAA_s140_6.0.0.dir/__/__/mesh/prov/src/prov_bearer_adv.c.obj
                0x00037234                prov_bearer_adv_packet_in
 .text.errata_120
                0x00037a2c       0x20 examples/enocean_switch/CMakeFiles/enocean_switch_nrf52840_xxAA_s140_6.0.0.dir/C_/b/nRF5_SDK_15.0.0_a53641a/modules/nrfx/mdk/system_nrf52840.c.obj
 .text.SystemInit
                0x00037a4c      0x1b8 examples/enocean_switch/CMakeFiles/enocean_switch_nrf52840_xxAA_s140_6.0.0.dir/C_/b/nRF5_SDK_15.0.0_a53641a/modules/nrfx/mdk/system_nrf52840.c.obj
                0x00037a4c                SystemInit
 .text          0x00037c04       0x3c examples/enocean_switch/CMakeFiles/enocean_switch_nrf52840_xxAA_s140_6.0.0.dir/C_/b/nRF5_SDK_15.0.0_a53641a/modules/nrfx/mdk/gcc_startup_nrf52840.S.obj
                0x00037c04                Reset_Handler
                0x00037c2c                NMI_Handler
                0x00037c2e                HardFault_Handler
                0x00037c30                MemoryManagement_Handler
                0x00037c32                BusFault_Handler
                0x00037c34                UsageFault_Handler
                0x00037c36                SVC_Handler
                0x00037c38                DebugMon_Handler
                0x00037c3a                PendSV_Handler
                0x00037c3c                SysTick_Handler
                0x00037c3e                TEMP_IRQHandler
                0x00037c3e                TIMER3_IRQHandler
                0x00037c3e                PWM3_IRQHandler
                0x00037c3e                FPU_IRQHandler
                0x00037c3e                USBD_IRQHandler
                0x00037c3e                SPIM0_SPIS0_TWIM0_TWIS0_SPI0_TWI0_IRQHandler
                0x00037c3e                PDM_IRQHandler
                0x00037c3e                UARTE0_UART0_IRQHandler
                0x00037c3e                TIMER4_IRQHandler
                0x00037c3e                CRYPTOCELL_IRQHandler
                0x00037c3e                I2S_IRQHandler
                0x00037c3e                SWI4_EGU4_IRQHandler
                0x00037c3e                TIMER0_IRQHandler
                0x00037c3e                RTC0_IRQHandler
                0x00037c3e                POWER_CLOCK_IRQHandler
                0x00037c3e                TIMER1_IRQHandler
                0x00037c3e                SPIM3_IRQHandler
                0x00037c3e                PWM2_IRQHandler
                0x00037c3e                ECB_IRQHandler
                0x00037c3e                SPIM1_SPIS1_TWIM1_TWIS1_SPI1_TWI1_IRQHandler
                0x00037c3e                Default_Handler
                0x00037c3e                SAADC_IRQHandler
                0x00037c3e                CCM_AAR_IRQHandler
                0x00037c3e                WDT_IRQHandler
                0x00037c3e                RADIO_IRQHandler
                0x00037c3e                SWI5_EGU5_IRQHandler
                0x00037c3e                RNG_IRQHandler
                0x00037c3e                RTC2_IRQHandler
                0x00037c3e                PWM0_IRQHandler
                0x00037c3e                SWI3_EGU3_IRQHandler
                0x00037c3e                SWI1_EGU1_IRQHandler
                0x00037c3e                SPIM2_SPIS2_SPI2_IRQHandler
                0x00037c3e                NFCT_IRQHandler
                0x00037c3e                UARTE1_IRQHandler
                0x00037c3e                MWU_IRQHandler
                0x00037c3e                PWM1_IRQHandler
                0x00037c3e                QSPI_IRQHandler
                0x00037c3e                COMP_LPCOMP_IRQHandler
 .text.app_error_handler_bare
                0x00037c40       0x1a examples/enocean_switch/CMakeFiles/enocean_switch_nrf52840_xxAA_s140_6.0.0.dir/C_/b/nRF5_SDK_15.0.0_a53641a/components/libraries/util/app_error.c.obj
                0x00037c40                app_error_handler_bare
 *fill*         0x00037c5a        0x2 
 .text.app_util_critical_region_enter
                0x00037c5c       0x48 examples/enocean_switch/CMakeFiles/enocean_switch_nrf52840_xxAA_s140_6.0.0.dir/C_/b/nRF5_SDK_15.0.0_a53641a/components/libraries/util/app_util_platform.c.obj
                0x00037c5c                app_util_critical_region_enter
 .text.app_util_critical_region_exit
                0x00037ca4       0x2c examples/enocean_switch/CMakeFiles/enocean_switch_nrf52840_xxAA_s140_6.0.0.dir/C_/b/nRF5_SDK_15.0.0_a53641a/components/libraries/util/app_util_platform.c.obj
                0x00037ca4                app_util_critical_region_exit
 .text.user_op_alloc
                0x00037cd0       0x2c examples/enocean_switch/CMakeFiles/enocean_switch_nrf52840_xxAA_s140_6.0.0.dir/C_/b/nRF5_SDK_15.0.0_a53641a/components/libraries/timer/app_timer.c.obj
 .text.timer_stop_op_schedule
                0x00037cfc       0x50 examples/enocean_switch/CMakeFiles/enocean_switch_nrf52840_xxAA_s140_6.0.0.dir/C_/b/nRF5_SDK_15.0.0_a53641a/components/libraries/timer/app_timer.c.obj
 .text.nrfx_coredep_delay_us.part.0.constprop.4
                0x00037d4c       0x10 examples/enocean_switch/CMakeFiles/enocean_switch_nrf52840_xxAA_s140_6.0.0.dir/C_/b/nRF5_SDK_15.0.0_a53641a/components/libraries/timer/app_timer.c.obj
 .text.rtc1_stop
                0x00037d5c       0x44 examples/enocean_switch/CMakeFiles/enocean_switch_nrf52840_xxAA_s140_6.0.0.dir/C_/b/nRF5_SDK_15.0.0_a53641a/components/libraries/timer/app_timer.c.obj
 .text.RTC1_IRQHandler
                0x00037da0       0x9c examples/enocean_switch/CMakeFiles/enocean_switch_nrf52840_xxAA_s140_6.0.0.dir/C_/b/nRF5_SDK_15.0.0_a53641a/components/libraries/timer/app_timer.c.obj
                0x00037da0                RTC1_IRQHandler
 .text.SWI0_EGU0_IRQHandler
                0x00037e3c      0x2a4 examples/enocean_switch/CMakeFiles/enocean_switch_nrf52840_xxAA_s140_6.0.0.dir/C_/b/nRF5_SDK_15.0.0_a53641a/components/libraries/timer/app_timer.c.obj
                0x00037e3c                SWI0_EGU0_IRQHandler
 .text.app_timer_init
                0x000380e0       0x64 examples/enocean_switch/CMakeFiles/enocean_switch_nrf52840_xxAA_s140_6.0.0.dir/C_/b/nRF5_SDK_15.0.0_a53641a/components/libraries/timer/app_timer.c.obj
                0x000380e0                app_timer_init
 .text.app_timer_create
                0x00038144       0x24 examples/enocean_switch/CMakeFiles/enocean_switch_nrf52840_xxAA_s140_6.0.0.dir/C_/b/nRF5_SDK_15.0.0_a53641a/components/libraries/timer/app_timer.c.obj
                0x00038144                app_timer_create
 .text.app_timer_start
                0x00038168       0x8c examples/enocean_switch/CMakeFiles/enocean_switch_nrf52840_xxAA_s140_6.0.0.dir/C_/b/nRF5_SDK_15.0.0_a53641a/components/libraries/timer/app_timer.c.obj
                0x00038168                app_timer_start
 .text.app_timer_stop
                0x000381f4       0x20 examples/enocean_switch/CMakeFiles/enocean_switch_nrf52840_xxAA_s140_6.0.0.dir/C_/b/nRF5_SDK_15.0.0_a53641a/components/libraries/timer/app_timer.c.obj
                0x000381f4                app_timer_stop
 .text.app_error_handler
                0x00038214       0x1a examples/enocean_switch/CMakeFiles/enocean_switch_nrf52840_xxAA_s140_6.0.0.dir/C_/b/nRF5_SDK_15.0.0_a53641a/components/libraries/util/app_error_handler_gcc.c.obj
                0x00038214                app_error_handler
 .text._GetAvailWriteSpace
                0x0003822e       0x1c external/rtt/librtt_nrf52840_xxAA.a(SEGGER_RTT.c.obj)
 .text._WriteNoCheck
                0x0003824a       0x3c external/rtt/librtt_nrf52840_xxAA.a(SEGGER_RTT.c.obj)
 .text._WriteBlocking
                0x00038286       0x52 external/rtt/librtt_nrf52840_xxAA.a(SEGGER_RTT.c.obj)
 .text._DoInit  0x000382d8       0x60 external/rtt/librtt_nrf52840_xxAA.a(SEGGER_RTT.c.obj)
 .text.SEGGER_RTT_ReadNoLock
                0x00038338       0x88 external/rtt/librtt_nrf52840_xxAA.a(SEGGER_RTT.c.obj)
                0x00038338                SEGGER_RTT_ReadNoLock
 .text.SEGGER_RTT_Read
                0x000383c0       0x1c external/rtt/librtt_nrf52840_xxAA.a(SEGGER_RTT.c.obj)
                0x000383c0                SEGGER_RTT_Read
 .text.SEGGER_RTT_WriteNoLock
                0x000383dc       0x68 external/rtt/librtt_nrf52840_xxAA.a(SEGGER_RTT.c.obj)
                0x000383dc                SEGGER_RTT_WriteNoLock
 .text.SEGGER_RTT_Write
                0x00038444       0x34 external/rtt/librtt_nrf52840_xxAA.a(SEGGER_RTT.c.obj)
                0x00038444                SEGGER_RTT_Write
 .text.SEGGER_RTT_GetKey
                0x00038478       0x20 external/rtt/librtt_nrf52840_xxAA.a(SEGGER_RTT.c.obj)
                0x00038478                SEGGER_RTT_GetKey
 .text._StoreChar
                0x00038498       0x3e external/rtt/librtt_nrf52840_xxAA.a(SEGGER_RTT_printf.c.obj)
 *fill*         0x000384d6        0x2 
 .text._PrintUnsigned
                0x000384d8       0xd0 external/rtt/librtt_nrf52840_xxAA.a(SEGGER_RTT_printf.c.obj)
 .text.SEGGER_RTT_vprintf
                0x000385a8      0x246 external/rtt/librtt_nrf52840_xxAA.a(SEGGER_RTT_printf.c.obj)
                0x000385a8                SEGGER_RTT_vprintf
 .text.SEGGER_RTT_printf
                0x000387ee       0x1e external/rtt/librtt_nrf52840_xxAA.a(SEGGER_RTT_printf.c.obj)
                0x000387ee                SEGGER_RTT_printf
 .text.uECC_vli_mult
                0x0003880c       0x64 external/micro-ecc/libuECC_nrf52840_xxAA.a(uECC.c.obj)
 .text.uECC_vli_clear
                0x00038870       0x16 external/micro-ecc/libuECC_nrf52840_xxAA.a(uECC.c.obj)
 .text.uECC_vli_isZero
                0x00038886       0x1e external/micro-ecc/libuECC_nrf52840_xxAA.a(uECC.c.obj)
 .text.uECC_vli_testBit
                0x000388a4       0x14 external/micro-ecc/libuECC_nrf52840_xxAA.a(uECC.c.obj)
 .text.uECC_vli_numBits
                0x000388b8       0x3a external/micro-ecc/libuECC_nrf52840_xxAA.a(uECC.c.obj)
 .text.uECC_vli_set
                0x000388f2       0x18 external/micro-ecc/libuECC_nrf52840_xxAA.a(uECC.c.obj)
 .text.uECC_vli_cmp_unsafe
                0x0003890a       0x28 external/micro-ecc/libuECC_nrf52840_xxAA.a(uECC.c.obj)
 .text.uECC_vli_rshift1
                0x00038932       0x1c external/micro-ecc/libuECC_nrf52840_xxAA.a(uECC.c.obj)
 .text.uECC_vli_modMult_fast
                0x0003894e       0x20 external/micro-ecc/libuECC_nrf52840_xxAA.a(uECC.c.obj)
 .text.uECC_vli_modSquare_fast
                0x0003896e        0x8 external/micro-ecc/libuECC_nrf52840_xxAA.a(uECC.c.obj)
 .text.apply_z  0x00038976       0x3e external/micro-ecc/libuECC_nrf52840_xxAA.a(uECC.c.obj)
 .text.uECC_vli_nativeToBytes
                0x000389b4       0x28 external/micro-ecc/libuECC_nrf52840_xxAA.a(uECC.c.obj)
 .text.uECC_vli_bytesToNative
                0x000389dc       0x40 external/micro-ecc/libuECC_nrf52840_xxAA.a(uECC.c.obj)
 .text.default_RNG
                0x00038a1c        0xc external/micro-ecc/libuECC_nrf52840_xxAA.a(uECC.c.obj)
 .text.uECC_vli_add.isra.0
                0x00038a28       0x4a external/micro-ecc/libuECC_nrf52840_xxAA.a(uECC.c.obj)
 .text.regularize_k
                0x00038a72       0x50 external/micro-ecc/libuECC_nrf52840_xxAA.a(uECC.c.obj)
 .text.uECC_vli_sub.isra.1
                0x00038ac2       0x4e external/micro-ecc/libuECC_nrf52840_xxAA.a(uECC.c.obj)
 .text.uECC_vli_cmp
                0x00038b10       0x30 external/micro-ecc/libuECC_nrf52840_xxAA.a(uECC.c.obj)
 .text.uECC_generate_random_int
                0x00038b40       0x78 external/micro-ecc/libuECC_nrf52840_xxAA.a(uECC.c.obj)
 .text.uECC_vli_modAdd
                0x00038bb8       0x2e external/micro-ecc/libuECC_nrf52840_xxAA.a(uECC.c.obj)
 *fill*         0x00038be6        0x2 
 .text.vli_mmod_fast_secp256r1
                0x00038be8      0x194 external/micro-ecc/libuECC_nrf52840_xxAA.a(uECC.c.obj)
 .text.uECC_vli_modSub.isra.2
                0x00038d7c       0x1c external/micro-ecc/libuECC_nrf52840_xxAA.a(uECC.c.obj)
 .text.double_jacobian_default
                0x00038d98      0x14a external/micro-ecc/libuECC_nrf52840_xxAA.a(uECC.c.obj)
 .text.x_side_default
                0x00038ee2       0x5a external/micro-ecc/libuECC_nrf52840_xxAA.a(uECC.c.obj)
 .text.XYcZ_add
                0x00038f3c       0xbc external/micro-ecc/libuECC_nrf52840_xxAA.a(uECC.c.obj)
 .text.XYcZ_addC
                0x00038ff8      0x10a external/micro-ecc/libuECC_nrf52840_xxAA.a(uECC.c.obj)
 .text.vli_modInv_update
                0x00039102       0x36 external/micro-ecc/libuECC_nrf52840_xxAA.a(uECC.c.obj)
 .text.uECC_vli_modInv
                0x00039138      0x102 external/micro-ecc/libuECC_nrf52840_xxAA.a(uECC.c.obj)
 .text.EccPoint_mult
                0x0003923a      0x19e external/micro-ecc/libuECC_nrf52840_xxAA.a(uECC.c.obj)
 .text.EccPoint_compute_public_key
                0x000393d8       0x54 external/micro-ecc/libuECC_nrf52840_xxAA.a(uECC.c.obj)
 .text.uECC_secp256r1
                0x0003942c        0x8 external/micro-ecc/libuECC_nrf52840_xxAA.a(uECC.c.obj)
                0x0003942c                uECC_secp256r1
 .text.uECC_make_key
                0x00039434       0x7e external/micro-ecc/libuECC_nrf52840_xxAA.a(uECC.c.obj)
                0x00039434                uECC_make_key
 *fill*         0x000394b2        0x2 
 .text.uECC_shared_secret
                0x000394b4       0xbc external/micro-ecc/libuECC_nrf52840_xxAA.a(uECC.c.obj)
                0x000394b4                uECC_shared_secret
 .text.uECC_valid_point
                0x00039570       0x86 external/micro-ecc/libuECC_nrf52840_xxAA.a(uECC.c.obj)
                0x00039570                uECC_valid_point
 .text.uECC_valid_public_key
                0x000395f6       0x32 external/micro-ecc/libuECC_nrf52840_xxAA.a(uECC.c.obj)
                0x000395f6                uECC_valid_public_key
 .text          0x00039628       0x30 c:/mesh/arm_gcc/bin/../lib/gcc/arm-none-eabi/6.3.1/thumb/v7e-m/fpv4-sp/hard\libgcc.a(_aeabi_uldivmod.o)
                0x00039628                __aeabi_uldivmod
 .text          0x00039658      0x2dc c:/mesh/arm_gcc/bin/../lib/gcc/arm-none-eabi/6.3.1/thumb/v7e-m/fpv4-sp/hard\libgcc.a(_udivmoddi4.o)
                0x00039658                __udivmoddi4
 .text          0x00039934        0x4 c:/mesh/arm_gcc/bin/../lib/gcc/arm-none-eabi/6.3.1/thumb/v7e-m/fpv4-sp/hard\libgcc.a(_dvmd_tls.o)
                0x00039934                __aeabi_idiv0
                0x00039934                __aeabi_ldiv0
 .text.exit     0x00039938       0x28 c:/mesh/arm_gcc/bin/../lib/gcc/arm-none-eabi/6.3.1/../../../../arm-none-eabi/lib/thumb/v7e-m/fpv4-sp/hard\libg_nano.a(lib_a-exit.o)
                0x00039938                exit
 .text.__libc_init_array
                0x00039960       0x48 c:/mesh/arm_gcc/bin/../lib/gcc/arm-none-eabi/6.3.1/../../../../arm-none-eabi/lib/thumb/v7e-m/fpv4-sp/hard\libg_nano.a(lib_a-init.o)
                0x00039960                __libc_init_array
 .text.malloc   0x000399a8       0x10 c:/mesh/arm_gcc/bin/../lib/gcc/arm-none-eabi/6.3.1/../../../../arm-none-eabi/lib/thumb/v7e-m/fpv4-sp/hard\libg_nano.a(lib_a-malloc.o)
                0x000399a8                malloc
 .text.free     0x000399b8       0x10 c:/mesh/arm_gcc/bin/../lib/gcc/arm-none-eabi/6.3.1/../../../../arm-none-eabi/lib/thumb/v7e-m/fpv4-sp/hard\libg_nano.a(lib_a-malloc.o)
                0x000399b8                free
 .text.memcmp   0x000399c8       0x1e c:/mesh/arm_gcc/bin/../lib/gcc/arm-none-eabi/6.3.1/../../../../arm-none-eabi/lib/thumb/v7e-m/fpv4-sp/hard\libg_nano.a(lib_a-memcmp.o)
                0x000399c8                memcmp
 .text.memcpy   0x000399e6       0x16 c:/mesh/arm_gcc/bin/../lib/gcc/arm-none-eabi/6.3.1/../../../../arm-none-eabi/lib/thumb/v7e-m/fpv4-sp/hard\libg_nano.a(lib_a-memcpy-stub.o)
                0x000399e6                memcpy
 .text.memset   0x000399fc       0x10 c:/mesh/arm_gcc/bin/../lib/gcc/arm-none-eabi/6.3.1/../../../../arm-none-eabi/lib/thumb/v7e-m/fpv4-sp/hard\libg_nano.a(lib_a-memset.o)
                0x000399fc                memset
 .text._free_r  0x00039a0c       0x9c c:/mesh/arm_gcc/bin/../lib/gcc/arm-none-eabi/6.3.1/../../../../arm-none-eabi/lib/thumb/v7e-m/fpv4-sp/hard\libg_nano.a(lib_a-nano-freer.o)
                0x00039a0c                _free_r
 .text._malloc_r
                0x00039aa8       0xbc c:/mesh/arm_gcc/bin/../lib/gcc/arm-none-eabi/6.3.1/../../../../arm-none-eabi/lib/thumb/v7e-m/fpv4-sp/hard\libg_nano.a(lib_a-nano-mallocr.o)
                0x00039aa8                _malloc_r
 .text._sbrk_r  0x00039b64       0x20 c:/mesh/arm_gcc/bin/../lib/gcc/arm-none-eabi/6.3.1/../../../../arm-none-eabi/lib/thumb/v7e-m/fpv4-sp/hard\libg_nano.a(lib_a-sbrkr.o)
                0x00039b64                _sbrk_r
 .text.strcpy   0x00039b84       0x10 c:/mesh/arm_gcc/bin/../lib/gcc/arm-none-eabi/6.3.1/../../../../arm-none-eabi/lib/thumb/v7e-m/fpv4-sp/hard\libg_nano.a(lib_a-strcpy.o)
                0x00039b84                strcpy
 .text          0x00039b94       0x10 c:/mesh/arm_gcc/bin/../lib/gcc/arm-none-eabi/6.3.1/../../../../arm-none-eabi/lib/thumb/v7e-m/fpv4-sp/hard\libg_nano.a(lib_a-strlen.o)
                0x00039b94                strlen
 .text.strrchr  0x00039ba4       0x26 c:/mesh/arm_gcc/bin/../lib/gcc/arm-none-eabi/6.3.1/../../../../arm-none-eabi/lib/thumb/v7e-m/fpv4-sp/hard\libg_nano.a(lib_a-strrchr.o)
                0x00039ba4                strrchr
 .text.__malloc_lock
                0x00039bca        0x2 c:/mesh/arm_gcc/bin/../lib/gcc/arm-none-eabi/6.3.1/../../../../arm-none-eabi/lib/thumb/v7e-m/fpv4-sp/hard\libg_nano.a(lib_a-mlock.o)
                0x00039bca                __malloc_lock
 .text.__malloc_unlock
                0x00039bcc        0x2 c:/mesh/arm_gcc/bin/../lib/gcc/arm-none-eabi/6.3.1/../../../../arm-none-eabi/lib/thumb/v7e-m/fpv4-sp/hard\libg_nano.a(lib_a-mlock.o)
                0x00039bcc                __malloc_unlock
 .text.strchr   0x00039bce       0x1c c:/mesh/arm_gcc/bin/../lib/gcc/arm-none-eabi/6.3.1/../../../../arm-none-eabi/lib/thumb/v7e-m/fpv4-sp/hard\libg_nano.a(lib_a-strchr.o)
                0x00039bce                strchr
 *fill*         0x00039bea        0x2 
 .text._sbrk    0x00039bec       0x1c c:/mesh/arm_gcc/bin/../lib/gcc/arm-none-eabi/6.3.1/../../../../arm-none-eabi/lib/thumb/v7e-m/fpv4-sp/hard\libnosys.a(sbrk.o)
                0x00039bec                _sbrk
 .text._exit    0x00039c08        0x4 c:/mesh/arm_gcc/bin/../lib/gcc/arm-none-eabi/6.3.1/../../../../arm-none-eabi/lib/thumb/v7e-m/fpv4-sp/hard\libnosys.a(_exit.o)
                0x00039c08                _exit
 *(.init)
 .init          0x00039c0c        0x4 c:/mesh/arm_gcc/bin/../lib/gcc/arm-none-eabi/6.3.1/thumb/v7e-m/fpv4-sp/hard/crti.o
                0x00039c0c                _init
 .init          0x00039c10        0x8 c:/mesh/arm_gcc/bin/../lib/gcc/arm-none-eabi/6.3.1/thumb/v7e-m/fpv4-sp/hard/crtn.o
 *(.fini)
 .fini          0x00039c18        0x4 c:/mesh/arm_gcc/bin/../lib/gcc/arm-none-eabi/6.3.1/thumb/v7e-m/fpv4-sp/hard/crti.o
                0x00039c18                _fini
 .fini          0x00039c1c        0x8 c:/mesh/arm_gcc/bin/../lib/gcc/arm-none-eabi/6.3.1/thumb/v7e-m/fpv4-sp/hard/crtn.o
 *crtbegin.o(.ctors)
 *crtbegin?.o(.ctors)
 *(EXCLUDE_FILE(*crtend.o *crtend?.o) .ctors)
 *(SORT(.ctors.*))
 *(.ctors)
 *crtbegin.o(.dtors)
 *crtbegin?.o(.dtors)
 *(EXCLUDE_FILE(*crtend.o *crtend?.o) .dtors)
 *(SORT(.dtors.*))
 *(.dtors)
 *(.rodata*)
 .rodata        0x00039c24       0x1c examples/enocean_switch/CMakeFiles/enocean_switch_nrf52840_xxAA_s140_6.0.0.dir/src/main.c.obj
 .rodata.app_data_store_try.str1.1
                0x00039c40       0x8b examples/enocean_switch/CMakeFiles/enocean_switch_nrf52840_xxAA_s140_6.0.0.dir/src/main.c.obj
 .rodata.app_enocean_cb.str1.1
                0x00039ccb       0x8e examples/enocean_switch/CMakeFiles/enocean_switch_nrf52840_xxAA_s140_6.0.0.dir/src/main.c.obj
 .rodata.app_mesh_core_event_cb.str1.1
                0x00039d59       0x56 examples/enocean_switch/CMakeFiles/enocean_switch_nrf52840_xxAA_s140_6.0.0.dir/src/main.c.obj
 .rodata.button_event_handler.str1.1
                0x00039daf       0x13 examples/enocean_switch/CMakeFiles/enocean_switch_nrf52840_xxAA_s140_6.0.0.dir/src/main.c.obj
 .rodata.client_status_cb.str1.1
                0x00039dc2       0x2f examples/enocean_switch/CMakeFiles/enocean_switch_nrf52840_xxAA_s140_6.0.0.dir/src/main.c.obj
 .rodata.main.str1.1
                0x00039df1       0x4a examples/enocean_switch/CMakeFiles/enocean_switch_nrf52840_xxAA_s140_6.0.0.dir/src/main.c.obj
 .rodata.models_init_cb.str1.1
                0x00039e3b       0x20 examples/enocean_switch/CMakeFiles/enocean_switch_nrf52840_xxAA_s140_6.0.0.dir/src/main.c.obj
 .rodata.node_reset.str1.1
                0x00039e5b       0x19 examples/enocean_switch/CMakeFiles/enocean_switch_nrf52840_xxAA_s140_6.0.0.dir/src/main.c.obj
 .rodata.provisioning_complete_cb.str1.1
                0x00039e74       0x57 examples/enocean_switch/CMakeFiles/enocean_switch_nrf52840_xxAA_s140_6.0.0.dir/src/main.c.obj
 .rodata.static_auth_data.12958
                0x00039ecb       0x10 examples/enocean_switch/CMakeFiles/enocean_switch_nrf52840_xxAA_s140_6.0.0.dir/src/main.c.obj
 .rodata.enocean_packet_process.str1.1
                0x00039edb       0x45 examples/enocean_switch/CMakeFiles/enocean_switch_nrf52840_xxAA_s140_6.0.0.dir/src/enocean.c.obj
 .rodata.app_flash_data_store.str1.1
                0x00039f20        0xe examples/enocean_switch/CMakeFiles/enocean_switch_nrf52840_xxAA_s140_6.0.0.dir/src/flash_helper.c.obj
 .rodata.app_flash_init.str1.1
                0x00039f2e       0x2a examples/enocean_switch/CMakeFiles/enocean_switch_nrf52840_xxAA_s140_6.0.0.dir/src/flash_helper.c.obj
 .rodata.flash_manager_mem_available.str1.1
                0x00039f58       0x43 examples/enocean_switch/CMakeFiles/enocean_switch_nrf52840_xxAA_s140_6.0.0.dir/src/flash_helper.c.obj
 .rodata.flash_remove_complete.str1.1
                0x00039f9b       0x17 examples/enocean_switch/CMakeFiles/enocean_switch_nrf52840_xxAA_s140_6.0.0.dir/src/flash_helper.c.obj
 .rodata.flash_reset.str1.1
                0x00039fb2        0xf examples/enocean_switch/CMakeFiles/enocean_switch_nrf52840_xxAA_s140_6.0.0.dir/src/flash_helper.c.obj
 .rodata.flash_write_complete.str1.1
                0x00039fc1       0x16 examples/enocean_switch/CMakeFiles/enocean_switch_nrf52840_xxAA_s140_6.0.0.dir/src/flash_helper.c.obj
 .rodata.mesh_softdevice_init.str1.1
                0x00039fd7       0x94 examples/enocean_switch/CMakeFiles/enocean_switch_nrf52840_xxAA_s140_6.0.0.dir/__/common/src/mesh_softdevice_init.c.obj
 .rodata        0x0003a06b        0xb examples/enocean_switch/CMakeFiles/enocean_switch_nrf52840_xxAA_s140_6.0.0.dir/__/common/src/mesh_provisionee.c.obj
 *fill*         0x0003a076        0x2 
 .rodata.m_rtt_timer
                0x0003a078        0x4 examples/enocean_switch/CMakeFiles/enocean_switch_nrf52840_xxAA_s140_6.0.0.dir/__/common/src/rtt_input.c.obj
 .rodata.rtt_input_enable.str1.1
                0x0003a07c       0x23 examples/enocean_switch/CMakeFiles/enocean_switch_nrf52840_xxAA_s140_6.0.0.dir/__/common/src/rtt_input.c.obj
 *fill*         0x0003a09f        0x1 
 .rodata.m_blink_timer
                0x0003a0a0        0x4 examples/enocean_switch/CMakeFiles/enocean_switch_nrf52840_xxAA_s140_6.0.0.dir/__/common/src/simple_hal.c.obj
 .rodata.m_buttons_list
                0x0003a0a4        0x4 examples/enocean_switch/CMakeFiles/enocean_switch_nrf52840_xxAA_s140_6.0.0.dir/__/common/src/simple_hal.c.obj
 .rodata.app_error_fault_handler.str1.1
                0x0003a0a8       0xbd examples/enocean_switch/CMakeFiles/enocean_switch_nrf52840_xxAA_s140_6.0.0.dir/__/common/src/app_error_weak.c.obj
 .rodata.mesh_assertion_handler.str1.1
                0x0003a165       0xbd examples/enocean_switch/CMakeFiles/enocean_switch_nrf52840_xxAA_s140_6.0.0.dir/__/common/src/assertion_handler_weak.c.obj
                                  0x1 (size before relaxing)
 .rodata.sar_ctx_cancel.str1.1
                0x0003a165       0x23 examples/enocean_switch/CMakeFiles/enocean_switch_nrf52840_xxAA_s140_6.0.0.dir/__/__/mesh/core/src/transport.c.obj
 .rodata.test_transport_decrypt.str1.1
                0x0003a188       0x30 examples/enocean_switch/CMakeFiles/enocean_switch_nrf52840_xxAA_s140_6.0.0.dir/__/__/mesh/core/src/transport.c.obj
 .rodata.transport_packet_in.str1.1
                0x0003a1b8       0x24 examples/enocean_switch/CMakeFiles/enocean_switch_nrf52840_xxAA_s140_6.0.0.dir/__/__/mesh/core/src/transport.c.obj
 .rodata.upper_transport_access_packet_in.str1.1
                0x0003a1dc       0x29 examples/enocean_switch/CMakeFiles/enocean_switch_nrf52840_xxAA_s140_6.0.0.dir/__/__/mesh/core/src/transport.c.obj
 .rodata.upper_transport_packet_in.str1.1
                0x0003a205       0x2e examples/enocean_switch/CMakeFiles/enocean_switch_nrf52840_xxAA_s140_6.0.0.dir/__/__/mesh/core/src/transport.c.obj
 .rodata.upper_transport_tx.str1.1
                0x0003a233        0xe examples/enocean_switch/CMakeFiles/enocean_switch_nrf52840_xxAA_s140_6.0.0.dir/__/__/mesh/core/src/transport.c.obj
                                 0x16 (size before relaxing)
 *fill*         0x0003a241        0x3 
 .rodata.m_procedure_steps
                0x0003a244       0x28 examples/enocean_switch/CMakeFiles/enocean_switch_nrf52840_xxAA_s140_6.0.0.dir/__/__/mesh/core/src/flash_manager_defrag.c.obj
 .rodata.m_all_operations
                0x0003a26c       0x10 examples/enocean_switch/CMakeFiles/enocean_switch_nrf52840_xxAA_s140_6.0.0.dir/__/__/mesh/core/src/mesh_flash.c.obj
 .rodata.types_lookup.9354
                0x0003a27c        0x4 examples/enocean_switch/CMakeFiles/enocean_switch_nrf52840_xxAA_s140_6.0.0.dir/__/__/mesh/core/src/nrf_mesh_utils.c.obj
 .rodata.__func__.11852
                0x0003a280       0x15 examples/enocean_switch/CMakeFiles/enocean_switch_nrf52840_xxAA_s140_6.0.0.dir/__/__/mesh/core/src/nrf_mesh.c.obj
 .rodata.nrf_mesh_listen.str1.1
                0x0003a295       0x70 examples/enocean_switch/CMakeFiles/enocean_switch_nrf52840_xxAA_s140_6.0.0.dir/__/__/mesh/core/src/nrf_mesh.c.obj
 .rodata.nrf_mesh_packet_send.str1.1
                0x0003a305       0x70 examples/enocean_switch/CMakeFiles/enocean_switch_nrf52840_xxAA_s140_6.0.0.dir/__/__/mesh/core/src/nrf_mesh.c.obj
                                  0x4 (size before relaxing)
 *fill*         0x0003a305        0x1 
 .rodata.CSWTCH.7
                0x0003a306       0x10 examples/enocean_switch/CMakeFiles/enocean_switch_nrf52840_xxAA_s140_6.0.0.dir/__/__/mesh/core/src/hal.c.obj
 .rodata        0x0003a316       0x15 examples/enocean_switch/CMakeFiles/enocean_switch_nrf52840_xxAA_s140_6.0.0.dir/__/__/mesh/core/src/enc.c.obj
 .rodata.network_packet_in.str1.1
                0x0003a32b       0x48 examples/enocean_switch/CMakeFiles/enocean_switch_nrf52840_xxAA_s140_6.0.0.dir/__/__/mesh/core/src/network.c.obj
 .rodata.net_packet_decrypt.str1.1
                0x0003a373       0x31 examples/enocean_switch/CMakeFiles/enocean_switch_nrf52840_xxAA_s140_6.0.0.dir/__/__/mesh/core/src/net_packet.c.obj
                                 0x39 (size before relaxing)
 .rodata        0x0003a3a4        0x7 examples/enocean_switch/CMakeFiles/enocean_switch_nrf52840_xxAA_s140_6.0.0.dir/__/__/mesh/core/src/nrf_mesh_keygen.c.obj
 .rodata.log_callback_rtt.str1.1
                0x0003a3ab       0x15 examples/enocean_switch/CMakeFiles/enocean_switch_nrf52840_xxAA_s140_6.0.0.dir/__/__/mesh/core/src/log.c.obj
 .rodata.str1.1
                0x0003a3c0       0x11 examples/enocean_switch/CMakeFiles/enocean_switch_nrf52840_xxAA_s140_6.0.0.dir/__/__/mesh/core/src/log.c.obj
 *fill*         0x0003a3d1        0x3 
 .rodata.INVALID_HEADER
                0x0003a3d4        0x4 examples/enocean_switch/CMakeFiles/enocean_switch_nrf52840_xxAA_s140_6.0.0.dir/__/__/mesh/core/src/flash_manager.c.obj
                0x0003a3d4                INVALID_HEADER
 .rodata.PADDING_HEADER
                0x0003a3d8        0x4 examples/enocean_switch/CMakeFiles/enocean_switch_nrf52840_xxAA_s140_6.0.0.dir/__/__/mesh/core/src/flash_manager.c.obj
                0x0003a3d8                PADDING_HEADER
 .rodata.SEAL_HEADER
                0x0003a3dc        0x4 examples/enocean_switch/CMakeFiles/enocean_switch_nrf52840_xxAA_s140_6.0.0.dir/__/__/mesh/core/src/flash_manager.c.obj
                0x0003a3dc                SEAL_HEADER
 .rodata.beacon_packet_in.str1.1
                0x0003a3e0       0x51 examples/enocean_switch/CMakeFiles/enocean_switch_nrf52840_xxAA_s140_6.0.0.dir/__/__/mesh/core/src/beacon.c.obj
                                 0x59 (size before relaxing)
 *fill*         0x0003a431        0x3 
 .rodata.cp_handler
                0x0003a434        0x8 examples/enocean_switch/CMakeFiles/enocean_switch_nrf52840_xxAA_s140_6.0.0.dir/__/__/mesh/core/src/heartbeat.c.obj
 .rodata.beacon_tx.str1.1
                0x0003a43c       0x35 examples/enocean_switch/CMakeFiles/enocean_switch_nrf52840_xxAA_s140_6.0.0.dir/__/__/mesh/core/src/net_beacon.c.obj
 .rodata.net_beacon_init.str1.1
                0x0003a471        0x5 examples/enocean_switch/CMakeFiles/enocean_switch_nrf52840_xxAA_s140_6.0.0.dir/__/__/mesh/core/src/net_beacon.c.obj
 *fill*         0x0003a476        0x2 
 .rodata.m_interface
                0x0003a478        0xc examples/enocean_switch/CMakeFiles/enocean_switch_nrf52840_xxAA_s140_6.0.0.dir/__/__/mesh/core/src/core_tx_adv.c.obj
 .rodata.radio_mode_to_us_per_byte.9768
                0x0003a484        0x6 examples/enocean_switch/CMakeFiles/enocean_switch_nrf52840_xxAA_s140_6.0.0.dir/__/__/mesh/bearer/src/broadcast.c.obj
 .rodata.channel_rf_offsets.8993
                0x0003a48a       0x28 examples/enocean_switch/CMakeFiles/enocean_switch_nrf52840_xxAA_s140_6.0.0.dir/__/__/mesh/bearer/src/radio_config.c.obj
 .rodata        0x0003a4b2        0x3 examples/enocean_switch/CMakeFiles/enocean_switch_nrf52840_xxAA_s140_6.0.0.dir/__/__/mesh/bearer/src/scanner.c.obj
 *fill*         0x0003a4b5        0x3 
 .rodata.m_opcode_handlers
                0x0003a4b8        0x8 examples/enocean_switch/CMakeFiles/enocean_switch_nrf52840_xxAA_s140_6.0.0.dir/__/__/models/simple_on_off/src/simple_on_off_client.c.obj
 .rodata        0x0003a4c0        0x8 examples/enocean_switch/CMakeFiles/enocean_switch_nrf52840_xxAA_s140_6.0.0.dir/__/__/models/config/src/config_server.c.obj
 .rodata.CSWTCH.123
                0x0003a4c8       0x10 examples/enocean_switch/CMakeFiles/enocean_switch_nrf52840_xxAA_s140_6.0.0.dir/__/__/models/config/src/config_server.c.obj
 .rodata.opcode_handlers
                0x0003a4d8      0x170 examples/enocean_switch/CMakeFiles/enocean_switch_nrf52840_xxAA_s140_6.0.0.dir/__/__/models/config/src/config_server.c.obj
 .rodata.m_opcode_handlers
                0x0003a648       0x58 examples/enocean_switch/CMakeFiles/enocean_switch_nrf52840_xxAA_s140_6.0.0.dir/__/__/models/health/src/health_server.c.obj
 .rodata.multiply_de_bruijn_bit_position.9604
                0x0003a6a0       0x20 examples/enocean_switch/CMakeFiles/enocean_switch_nrf52840_xxAA_s140_6.0.0.dir/__/__/models/health/src/health_server.c.obj
 .rodata.mesh_evt_cb.str1.1
                0x0003a6c0       0x13 examples/enocean_switch/CMakeFiles/enocean_switch_nrf52840_xxAA_s140_6.0.0.dir/__/__/mesh/access/src/access.c.obj
 .rodata.multiply_de_bruijn_bit_position.9560
                0x0003a6d3       0x20 examples/enocean_switch/CMakeFiles/enocean_switch_nrf52840_xxAA_s140_6.0.0.dir/__/__/mesh/access/src/access.c.obj
 .rodata.packet_tx.str1.1
                0x0003a6f3       0x38 examples/enocean_switch/CMakeFiles/enocean_switch_nrf52840_xxAA_s140_6.0.0.dir/__/__/mesh/access/src/access.c.obj
                                 0x40 (size before relaxing)
 *fill*         0x0003a72b        0x1 
 .rodata.m_flash_groups
                0x0003a72c       0xa8 examples/enocean_switch/CMakeFiles/enocean_switch_nrf52840_xxAA_s140_6.0.0.dir/__/__/mesh/access/src/device_state_manager.c.obj
 .rodata.multiply_de_bruijn_bit_position.9666
                0x0003a7d4       0x20 examples/enocean_switch/CMakeFiles/enocean_switch_nrf52840_xxAA_s140_6.0.0.dir/__/__/mesh/access/src/device_state_manager.c.obj
 .rodata.m_prov_callbacks
                0x0003a7f4       0x10 examples/enocean_switch/CMakeFiles/enocean_switch_nrf52840_xxAA_s140_6.0.0.dir/__/__/mesh/prov/src/prov_provisionee.c.obj
 .rodata.prov_provisionee_cb_ack_received.str1.1
                0x0003a804       0x53 examples/enocean_switch/CMakeFiles/enocean_switch_nrf52840_xxAA_s140_6.0.0.dir/__/__/mesh/prov/src/prov_provisionee.c.obj
 .rodata.multiply_de_bruijn_bit_position.9608
                0x0003a857       0x20 examples/enocean_switch/CMakeFiles/enocean_switch_nrf52840_xxAA_s140_6.0.0.dir/__/__/mesh/prov/src/nrf_mesh_prov.c.obj
 .rodata.pdu_sizes.11546
                0x0003a877        0xa examples/enocean_switch/CMakeFiles/enocean_switch_nrf52840_xxAA_s140_6.0.0.dir/__/__/mesh/prov/src/provisioning.c.obj
 .rodata.alphanumeric.11651
                0x0003a881       0x25 examples/enocean_switch/CMakeFiles/enocean_switch_nrf52840_xxAA_s140_6.0.0.dir/__/__/mesh/prov/src/prov_utils.c.obj
 *fill*         0x0003a8a6        0x2 
 .rodata.numeric_max.11645
                0x0003a8a8       0x24 examples/enocean_switch/CMakeFiles/enocean_switch_nrf52840_xxAA_s140_6.0.0.dir/__/__/mesh/prov/src/prov_utils.c.obj
 .rodata.prov_utils_authentication_values_derive.str1.1
                0x0003a8cc        0x5 examples/enocean_switch/CMakeFiles/enocean_switch_nrf52840_xxAA_s140_6.0.0.dir/__/__/mesh/prov/src/prov_utils.c.obj
 .rodata.prov_utils_derive_keys.str1.1
                0x0003a8d1        0xf examples/enocean_switch/CMakeFiles/enocean_switch_nrf52840_xxAA_s140_6.0.0.dir/__/__/mesh/prov/src/prov_utils.c.obj
 .rodata.add_active_bearer.str1.1
                0x0003a8e0       0x2c examples/enocean_switch/CMakeFiles/enocean_switch_nrf52840_xxAA_s140_6.0.0.dir/__/__/mesh/prov/src/prov_bearer_adv.c.obj
 .rodata.crctable.11278
                0x0003a90c      0x100 examples/enocean_switch/CMakeFiles/enocean_switch_nrf52840_xxAA_s140_6.0.0.dir/__/__/mesh/prov/src/prov_bearer_adv.c.obj
 .rodata.interface.11508
                0x0003aa0c       0x14 examples/enocean_switch/CMakeFiles/enocean_switch_nrf52840_xxAA_s140_6.0.0.dir/__/__/mesh/prov/src/prov_bearer_adv.c.obj
 .rodata.prov_bearer_adv_packet_in.str1.1
                0x0003aa20      0x26e examples/enocean_switch/CMakeFiles/enocean_switch_nrf52840_xxAA_s140_6.0.0.dir/__/__/mesh/prov/src/prov_bearer_adv.c.obj
 .rodata.tx_retry_cb.str1.1
                0x0003ac8e       0x37 examples/enocean_switch/CMakeFiles/enocean_switch_nrf52840_xxAA_s140_6.0.0.dir/__/__/mesh/prov/src/prov_bearer_adv.c.obj
 *fill*         0x0003acc5        0xb 
 .rodata.delay_bytecode.9306
                0x0003acd0        0x6 examples/enocean_switch/CMakeFiles/enocean_switch_nrf52840_xxAA_s140_6.0.0.dir/C_/b/nRF5_SDK_15.0.0_a53641a/components/libraries/timer/app_timer.c.obj
 .rodata._DoInit.str1.1
                0x0003acd6       0x14 external/rtt/librtt_nrf52840_xxAA.a(SEGGER_RTT.c.obj)
 .rodata._aV2C.5497
                0x0003acea       0x10 external/rtt/librtt_nrf52840_xxAA.a(SEGGER_RTT_printf.c.obj)
 *fill*         0x0003acfa        0x2 
 .rodata.curve_secp256r1
                0x0003acfc       0xb0 external/micro-ecc/libuECC_nrf52840_xxAA.a(uECC.c.obj)
 .rodata._global_impure_ptr
                0x0003adac        0x4 c:/mesh/arm_gcc/bin/../lib/gcc/arm-none-eabi/6.3.1/../../../../arm-none-eabi/lib/thumb/v7e-m/fpv4-sp/hard\libg_nano.a(lib_a-impure.o)
                0x0003adac                _global_impure_ptr
 *(.eh_frame*)
 .eh_frame      0x0003adb0        0x0 c:/mesh/arm_gcc/bin/../lib/gcc/arm-none-eabi/6.3.1/thumb/v7e-m/fpv4-sp/hard/crtbegin.o
 .eh_frame      0x0003adb0        0x4 c:/mesh/arm_gcc/bin/../lib/gcc/arm-none-eabi/6.3.1/thumb/v7e-m/fpv4-sp/hard/crtend.o

.glue_7         0x0003adb4        0x0
 .glue_7        0x0003adb4        0x0 linker stubs

.glue_7t        0x0003adb4        0x0
 .glue_7t       0x0003adb4        0x0 linker stubs

.vfp11_veneer   0x0003adb4        0x0
 .vfp11_veneer  0x0003adb4        0x0 linker stubs

.v4_bx          0x0003adb4        0x0
 .v4_bx         0x0003adb4        0x0 linker stubs

.iplt           0x0003adb4        0x0
 .iplt          0x0003adb4        0x0 c:/mesh/arm_gcc/bin/../lib/gcc/arm-none-eabi/6.3.1/thumb/v7e-m/fpv4-sp/hard/crtbegin.o

.pwr_mgmt_data  0x0003adb4        0x0
                [!provide]                PROVIDE (__start_pwr_mgmt_data, .)
 *(SORT(.pwr_mgmt_data*))
                [!provide]                PROVIDE (__stop_pwr_mgmt_data, .)

.log_const_data
                0x0003adb4        0x0
                [!provide]                PROVIDE (__start_log_const_data, .)
 *(.log_const_data)
                [!provide]                PROVIDE (__stop_log_const_data, .)

.cli_command    0x0003adb4        0x0
                [!provide]                PROVIDE (__start_cli_command, .)
 *(.cli_command)
                [!provide]                PROVIDE (__stop_cli_command, .)

.sdh_stack_observers
                0x0003adb4        0x0
                [!provide]                PROVIDE (__start_sdh_stack_observers, .)
 *(SORT(.sdh_stack_observers*))
                [!provide]                PROVIDE (__stop_sdh_stack_observers, .)

.sdh_req_observers
                0x0003adb4        0x0
                [!provide]                PROVIDE (__start_sdh_req_observers, .)
 *(SORT(.sdh_req_observers*))
                [!provide]                PROVIDE (__stop_sdh_req_observers, .)

.sdh_state_observers
                0x0003adb4        0x0
                [!provide]                PROVIDE (__start_sdh_state_observers, .)
 *(SORT(.sdh_state_observers*))
                [!provide]                PROVIDE (__stop_sdh_state_observers, .)

.sdh_ant_observers
                0x0003adb4        0x0
                [!provide]                PROVIDE (__start_sdh_ant_observers, .)
 *(SORT(.sdh_ant_observers*))
                [!provide]                PROVIDE (__stop_sdh_ant_observers, .)

.sdh_ble_observers
                0x0003adb4        0x0
                [!provide]                PROVIDE (__start_sdh_ble_observers, .)
 *(SORT(.sdh_ble_observers*))
                [!provide]                PROVIDE (__stop_sdh_ble_observers, .)

.sdh_soc_observers
                0x0003adb4        0x0
                [!provide]                PROVIDE (__start_sdh_soc_observers, .)
 *(SORT(.sdh_soc_observers*))
                [!provide]                PROVIDE (__stop_sdh_soc_observers, .)

.ARM.extab
 *(.ARM.extab* .gnu.linkonce.armextab.*)
                0x0003adb4                __exidx_start = .

.ARM.exidx      0x0003adb4        0x8
 *(.ARM.exidx* .gnu.linkonce.armexidx.*)
 .ARM.exidx     0x0003adb4        0x8 c:/mesh/arm_gcc/bin/../lib/gcc/arm-none-eabi/6.3.1/../../../../arm-none-eabi/lib/thumb/v7e-m/fpv4-sp/hard/crt0.o
 .ARM.exidx     0x0003adbc        0x0 c:/mesh/arm_gcc/bin/../lib/gcc/arm-none-eabi/6.3.1/thumb/v7e-m/fpv4-sp/hard\libgcc.a(_udivmoddi4.o)
                                  0x8 (size before relaxing)
                0x0003adbc                __exidx_end = .
                0x0003adbc                __etext = .

.rel.dyn        0x0003adbc        0x0
 .rel.iplt      0x0003adbc        0x0 c:/mesh/arm_gcc/bin/../lib/gcc/arm-none-eabi/6.3.1/thumb/v7e-m/fpv4-sp/hard/crtbegin.o

.data           0x20002da0      0x178 load address 0x0003adbc
                0x20002da0                __data_start__ = .
 *(vtable)
 *(.data*)
 .data.m_mesh_core_event_handler
                0x20002da0        0xc examples/enocean_switch/CMakeFiles/enocean_switch_nrf52840_xxAA_s140_6.0.0.dir/src/main.c.obj
 .data.flash_add_mem_available_struct.10118
                0x20002dac       0x10 examples/enocean_switch/CMakeFiles/enocean_switch_nrf52840_xxAA_s140_6.0.0.dir/src/flash_helper.c.obj
 .data.mem_listener.10114
                0x20002dbc       0x10 examples/enocean_switch/CMakeFiles/enocean_switch_nrf52840_xxAA_s140_6.0.0.dir/src/flash_helper.c.obj
 .data.s_evt_handler.11357
                0x20002dcc        0xc examples/enocean_switch/CMakeFiles/enocean_switch_nrf52840_xxAA_s140_6.0.0.dir/__/__/mesh/stack/src/mesh_stack.c.obj
 .data.wait.9229
                0x20002dd8        0x1 examples/enocean_switch/CMakeFiles/enocean_switch_nrf52840_xxAA_s140_6.0.0.dir/__/common/src/app_error_weak.c.obj
 *fill*         0x20002dd9        0x3 
 .data.mem_listener.10133
                0x20002ddc       0x10 examples/enocean_switch/CMakeFiles/enocean_switch_nrf52840_xxAA_s140_6.0.0.dir/__/__/mesh/core/src/net_state.c.obj
 .data.mem_listener.10138
                0x20002dec       0x10 examples/enocean_switch/CMakeFiles/enocean_switch_nrf52840_xxAA_s140_6.0.0.dir/__/__/mesh/core/src/net_state.c.obj
 .data.mem_listener.10152
                0x20002dfc       0x10 examples/enocean_switch/CMakeFiles/enocean_switch_nrf52840_xxAA_s140_6.0.0.dir/__/__/mesh/core/src/net_state.c.obj
 .data.mem_listener.10169
                0x20002e0c       0x10 examples/enocean_switch/CMakeFiles/enocean_switch_nrf52840_xxAA_s140_6.0.0.dir/__/__/mesh/core/src/net_state.c.obj
 .data.m_nrf_mesh_listener
                0x20002e1c        0xc examples/enocean_switch/CMakeFiles/enocean_switch_nrf52840_xxAA_s140_6.0.0.dir/__/__/mesh/core/src/nrf_mesh.c.obj
 .data.g_log_dbg_lvl
                0x20002e28        0x4 examples/enocean_switch/CMakeFiles/enocean_switch_nrf52840_xxAA_s140_6.0.0.dir/__/__/mesh/core/src/log.c.obj
                0x20002e28                g_log_dbg_lvl
 .data.g_log_dbg_msk
                0x20002e2c        0x4 examples/enocean_switch/CMakeFiles/enocean_switch_nrf52840_xxAA_s140_6.0.0.dir/__/__/mesh/core/src/log.c.obj
                0x20002e2c                g_log_dbg_msk
 .data.g_log_hex_digits
                0x20002e30        0x4 examples/enocean_switch/CMakeFiles/enocean_switch_nrf52840_xxAA_s140_6.0.0.dir/__/__/mesh/core/src/log.c.obj
                0x20002e30                g_log_hex_digits
 .data.m_log_callback
                0x20002e34        0x4 examples/enocean_switch/CMakeFiles/enocean_switch_nrf52840_xxAA_s140_6.0.0.dir/__/__/mesh/core/src/log.c.obj
                0x20002e34                m_log_callback
 .data.m_config_server_handle
                0x20002e38        0x2 examples/enocean_switch/CMakeFiles/enocean_switch_nrf52840_xxAA_s140_6.0.0.dir/__/__/models/config/src/config_server.c.obj
 *fill*         0x20002e3a        0x2 
 .data.m_mesh_evt_handler
                0x20002e3c        0xc examples/enocean_switch/CMakeFiles/enocean_switch_nrf52840_xxAA_s140_6.0.0.dir/__/__/models/config/src/config_server.c.obj
 .data.flash_add_mem_available_struct.10707
                0x20002e48       0x10 examples/enocean_switch/CMakeFiles/enocean_switch_nrf52840_xxAA_s140_6.0.0.dir/__/__/mesh/access/src/access.c.obj
 .data.flash_clear_mem_available_struct.10796
                0x20002e58       0x10 examples/enocean_switch/CMakeFiles/enocean_switch_nrf52840_xxAA_s140_6.0.0.dir/__/__/mesh/access/src/access.c.obj
 .data.flash_store_mem_available_struct.10820
                0x20002e68       0x10 examples/enocean_switch/CMakeFiles/enocean_switch_nrf52840_xxAA_s140_6.0.0.dir/__/__/mesh/access/src/access.c.obj
 .data.m_default_ttl
                0x20002e78        0x1 examples/enocean_switch/CMakeFiles/enocean_switch_nrf52840_xxAA_s140_6.0.0.dir/__/__/mesh/access/src/access.c.obj
 *fill*         0x20002e79        0x3 
 .data.mem_listener.11060
                0x20002e7c       0x10 examples/enocean_switch/CMakeFiles/enocean_switch_nrf52840_xxAA_s140_6.0.0.dir/__/__/mesh/access/src/device_state_manager.c.obj
 .data.mem_listener.11086
                0x20002e8c       0x10 examples/enocean_switch/CMakeFiles/enocean_switch_nrf52840_xxAA_s140_6.0.0.dir/__/__/mesh/access/src/device_state_manager.c.obj
 .data.m_async_process_flag
                0x20002e9c        0x4 examples/enocean_switch/CMakeFiles/enocean_switch_nrf52840_xxAA_s140_6.0.0.dir/__/__/mesh/prov/src/prov_bearer_adv.c.obj
 .data.SystemCoreClock
                0x20002ea0        0x4 examples/enocean_switch/CMakeFiles/enocean_switch_nrf52840_xxAA_s140_6.0.0.dir/C_/b/nRF5_SDK_15.0.0_a53641a/modules/nrfx/mdk/system_nrf52840.c.obj
                0x20002ea0                SystemCoreClock
 .data.g_rng_function
                0x20002ea4        0x4 external/micro-ecc/libuECC_nrf52840_xxAA.a(uECC.c.obj)
 .data._impure_ptr
                0x20002ea8        0x4 c:/mesh/arm_gcc/bin/../lib/gcc/arm-none-eabi/6.3.1/../../../../arm-none-eabi/lib/thumb/v7e-m/fpv4-sp/hard\libg_nano.a(lib_a-impure.o)
                0x20002ea8                _impure_ptr
 .data.impure_data
                0x20002eac       0x60 c:/mesh/arm_gcc/bin/../lib/gcc/arm-none-eabi/6.3.1/../../../../arm-none-eabi/lib/thumb/v7e-m/fpv4-sp/hard\libg_nano.a(lib_a-impure.o)
                0x20002f0c                . = ALIGN (0x4)
                0x20002f0c                PROVIDE (__preinit_array_start, .)
 *(.preinit_array)
                0x20002f0c                PROVIDE (__preinit_array_end, .)
                0x20002f0c                . = ALIGN (0x4)
                0x20002f0c                PROVIDE (__init_array_start, .)
 *(SORT(.init_array.*))
 *(.init_array)
 .init_array    0x20002f0c        0x4 c:/mesh/arm_gcc/bin/../lib/gcc/arm-none-eabi/6.3.1/thumb/v7e-m/fpv4-sp/hard/crtbegin.o
                0x20002f10                PROVIDE (__init_array_end, .)
                0x20002f10                . = ALIGN (0x4)
                [!provide]                PROVIDE (__fini_array_start, .)
 *(SORT(.fini_array.*))
 *(.fini_array)
 .fini_array    0x20002f10        0x4 c:/mesh/arm_gcc/bin/../lib/gcc/arm-none-eabi/6.3.1/thumb/v7e-m/fpv4-sp/hard/crtbegin.o
                [!provide]                PROVIDE (__fini_array_end, .)
 *(.jcr*)
 .jcr           0x20002f14        0x0 c:/mesh/arm_gcc/bin/../lib/gcc/arm-none-eabi/6.3.1/thumb/v7e-m/fpv4-sp/hard/crtbegin.o
 .jcr           0x20002f14        0x4 c:/mesh/arm_gcc/bin/../lib/gcc/arm-none-eabi/6.3.1/thumb/v7e-m/fpv4-sp/hard/crtend.o
                0x20002f18                . = ALIGN (0x4)
                0x20002f18                __data_end__ = .
LOAD c:/mesh/arm_gcc/bin/../lib/gcc/arm-none-eabi/6.3.1/thumb/v7e-m/fpv4-sp/hard/crti.o
LOAD c:/mesh/arm_gcc/bin/../lib/gcc/arm-none-eabi/6.3.1/thumb/v7e-m/fpv4-sp/hard/crtbegin.o
LOAD c:/mesh/arm_gcc/bin/../lib/gcc/arm-none-eabi/6.3.1/../../../../arm-none-eabi/lib/thumb/v7e-m/fpv4-sp/hard/crt0.o
LOAD examples/enocean_switch/CMakeFiles/enocean_switch_nrf52840_xxAA_s140_6.0.0.dir/src/main.c.obj
LOAD examples/enocean_switch/CMakeFiles/enocean_switch_nrf52840_xxAA_s140_6.0.0.dir/src/enocean.c.obj
LOAD examples/enocean_switch/CMakeFiles/enocean_switch_nrf52840_xxAA_s140_6.0.0.dir/src/flash_helper.c.obj
LOAD examples/enocean_switch/CMakeFiles/enocean_switch_nrf52840_xxAA_s140_6.0.0.dir/__/__/mesh/stack/src/mesh_stack.c.obj
LOAD examples/enocean_switch/CMakeFiles/enocean_switch_nrf52840_xxAA_s140_6.0.0.dir/__/common/src/mesh_softdevice_init.c.obj
LOAD examples/enocean_switch/CMakeFiles/enocean_switch_nrf52840_xxAA_s140_6.0.0.dir/__/common/src/mesh_provisionee.c.obj
LOAD examples/enocean_switch/CMakeFiles/enocean_switch_nrf52840_xxAA_s140_6.0.0.dir/__/common/src/rtt_input.c.obj
LOAD examples/enocean_switch/CMakeFiles/enocean_switch_nrf52840_xxAA_s140_6.0.0.dir/__/common/src/simple_hal.c.obj
LOAD examples/enocean_switch/CMakeFiles/enocean_switch_nrf52840_xxAA_s140_6.0.0.dir/__/common/src/mesh_app_utils.c.obj
LOAD examples/enocean_switch/CMakeFiles/enocean_switch_nrf52840_xxAA_s140_6.0.0.dir/__/nrf_mesh_weak.c.obj
LOAD examples/enocean_switch/CMakeFiles/enocean_switch_nrf52840_xxAA_s140_6.0.0.dir/__/common/src/app_error_weak.c.obj
LOAD examples/enocean_switch/CMakeFiles/enocean_switch_nrf52840_xxAA_s140_6.0.0.dir/__/common/src/assertion_handler_weak.c.obj
LOAD examples/enocean_switch/CMakeFiles/enocean_switch_nrf52840_xxAA_s140_6.0.0.dir/__/__/mesh/core/src/internal_event.c.obj
LOAD examples/enocean_switch/CMakeFiles/enocean_switch_nrf52840_xxAA_s140_6.0.0.dir/__/__/mesh/core/src/nrf_mesh_configure.c.obj
LOAD examples/enocean_switch/CMakeFiles/enocean_switch_nrf52840_xxAA_s140_6.0.0.dir/__/__/mesh/core/src/aes.c.obj
LOAD examples/enocean_switch/CMakeFiles/enocean_switch_nrf52840_xxAA_s140_6.0.0.dir/__/__/mesh/core/src/msg_cache.c.obj
LOAD examples/enocean_switch/CMakeFiles/enocean_switch_nrf52840_xxAA_s140_6.0.0.dir/__/__/mesh/core/src/transport.c.obj
LOAD examples/enocean_switch/CMakeFiles/enocean_switch_nrf52840_xxAA_s140_6.0.0.dir/__/__/mesh/core/src/event.c.obj
LOAD examples/enocean_switch/CMakeFiles/enocean_switch_nrf52840_xxAA_s140_6.0.0.dir/__/__/mesh/core/src/packet_buffer.c.obj
LOAD examples/enocean_switch/CMakeFiles/enocean_switch_nrf52840_xxAA_s140_6.0.0.dir/__/__/mesh/core/src/flash_manager_defrag.c.obj
LOAD examples/enocean_switch/CMakeFiles/enocean_switch_nrf52840_xxAA_s140_6.0.0.dir/__/__/mesh/core/src/fifo.c.obj
LOAD examples/enocean_switch/CMakeFiles/enocean_switch_nrf52840_xxAA_s140_6.0.0.dir/__/__/mesh/core/src/nrf_flash.c.obj
LOAD examples/enocean_switch/CMakeFiles/enocean_switch_nrf52840_xxAA_s140_6.0.0.dir/__/__/mesh/core/src/packet_mgr.c.obj
LOAD examples/enocean_switch/CMakeFiles/enocean_switch_nrf52840_xxAA_s140_6.0.0.dir/__/__/mesh/core/src/net_state.c.obj
LOAD examples/enocean_switch/CMakeFiles/enocean_switch_nrf52840_xxAA_s140_6.0.0.dir/__/__/mesh/core/src/mesh_flash.c.obj
LOAD examples/enocean_switch/CMakeFiles/enocean_switch_nrf52840_xxAA_s140_6.0.0.dir/__/__/mesh/core/src/nrf_mesh_utils.c.obj
LOAD examples/enocean_switch/CMakeFiles/enocean_switch_nrf52840_xxAA_s140_6.0.0.dir/__/__/mesh/core/src/nrf_mesh.c.obj
LOAD examples/enocean_switch/CMakeFiles/enocean_switch_nrf52840_xxAA_s140_6.0.0.dir/__/__/mesh/core/src/queue.c.obj
LOAD examples/enocean_switch/CMakeFiles/enocean_switch_nrf52840_xxAA_s140_6.0.0.dir/__/__/mesh/core/src/hal.c.obj
LOAD examples/enocean_switch/CMakeFiles/enocean_switch_nrf52840_xxAA_s140_6.0.0.dir/__/__/mesh/core/src/aes_cmac.c.obj
LOAD examples/enocean_switch/CMakeFiles/enocean_switch_nrf52840_xxAA_s140_6.0.0.dir/__/__/mesh/core/src/timer_scheduler.c.obj
LOAD examples/enocean_switch/CMakeFiles/enocean_switch_nrf52840_xxAA_s140_6.0.0.dir/__/__/mesh/core/src/timer.c.obj
LOAD examples/enocean_switch/CMakeFiles/enocean_switch_nrf52840_xxAA_s140_6.0.0.dir/__/__/mesh/core/src/ticker.c.obj
LOAD examples/enocean_switch/CMakeFiles/enocean_switch_nrf52840_xxAA_s140_6.0.0.dir/__/__/mesh/core/src/rand.c.obj
LOAD examples/enocean_switch/CMakeFiles/enocean_switch_nrf52840_xxAA_s140_6.0.0.dir/__/__/mesh/core/src/nrf_mesh_opt.c.obj
LOAD examples/enocean_switch/CMakeFiles/enocean_switch_nrf52840_xxAA_s140_6.0.0.dir/__/__/mesh/core/src/timeslot.c.obj
LOAD examples/enocean_switch/CMakeFiles/enocean_switch_nrf52840_xxAA_s140_6.0.0.dir/__/__/mesh/core/src/bearer_event.c.obj
LOAD examples/enocean_switch/CMakeFiles/enocean_switch_nrf52840_xxAA_s140_6.0.0.dir/__/__/mesh/core/src/enc.c.obj
LOAD examples/enocean_switch/CMakeFiles/enocean_switch_nrf52840_xxAA_s140_6.0.0.dir/__/__/mesh/core/src/network.c.obj
LOAD examples/enocean_switch/CMakeFiles/enocean_switch_nrf52840_xxAA_s140_6.0.0.dir/__/__/mesh/core/src/net_packet.c.obj
LOAD examples/enocean_switch/CMakeFiles/enocean_switch_nrf52840_xxAA_s140_6.0.0.dir/__/__/mesh/core/src/msqueue.c.obj
LOAD examples/enocean_switch/CMakeFiles/enocean_switch_nrf52840_xxAA_s140_6.0.0.dir/__/__/mesh/core/src/nrf_mesh_keygen.c.obj
LOAD examples/enocean_switch/CMakeFiles/enocean_switch_nrf52840_xxAA_s140_6.0.0.dir/__/__/mesh/core/src/cache.c.obj
LOAD examples/enocean_switch/CMakeFiles/enocean_switch_nrf52840_xxAA_s140_6.0.0.dir/__/__/mesh/core/src/list.c.obj
LOAD examples/enocean_switch/CMakeFiles/enocean_switch_nrf52840_xxAA_s140_6.0.0.dir/__/__/mesh/core/src/log.c.obj
LOAD examples/enocean_switch/CMakeFiles/enocean_switch_nrf52840_xxAA_s140_6.0.0.dir/__/__/mesh/core/src/flash_manager.c.obj
LOAD examples/enocean_switch/CMakeFiles/enocean_switch_nrf52840_xxAA_s140_6.0.0.dir/__/__/mesh/core/src/ccm_soft.c.obj
LOAD examples/enocean_switch/CMakeFiles/enocean_switch_nrf52840_xxAA_s140_6.0.0.dir/__/__/mesh/core/src/toolchain.c.obj
LOAD examples/enocean_switch/CMakeFiles/enocean_switch_nrf52840_xxAA_s140_6.0.0.dir/__/__/mesh/core/src/replay_cache.c.obj
LOAD examples/enocean_switch/CMakeFiles/enocean_switch_nrf52840_xxAA_s140_6.0.0.dir/__/__/mesh/core/src/beacon.c.obj
LOAD examples/enocean_switch/CMakeFiles/enocean_switch_nrf52840_xxAA_s140_6.0.0.dir/__/__/mesh/core/src/flash_manager_internal.c.obj
LOAD examples/enocean_switch/CMakeFiles/enocean_switch_nrf52840_xxAA_s140_6.0.0.dir/__/__/mesh/core/src/core_tx.c.obj
LOAD examples/enocean_switch/CMakeFiles/enocean_switch_nrf52840_xxAA_s140_6.0.0.dir/__/__/mesh/core/src/heartbeat.c.obj
LOAD examples/enocean_switch/CMakeFiles/enocean_switch_nrf52840_xxAA_s140_6.0.0.dir/__/__/mesh/core/src/net_beacon.c.obj
LOAD examples/enocean_switch/CMakeFiles/enocean_switch_nrf52840_xxAA_s140_6.0.0.dir/__/__/mesh/core/src/fsm.c.obj
LOAD examples/enocean_switch/CMakeFiles/enocean_switch_nrf52840_xxAA_s140_6.0.0.dir/__/__/mesh/core/src/core_tx_adv.c.obj
LOAD examples/enocean_switch/CMakeFiles/enocean_switch_nrf52840_xxAA_s140_6.0.0.dir/__/__/mesh/bearer/src/ad_listener.c.obj
LOAD examples/enocean_switch/CMakeFiles/enocean_switch_nrf52840_xxAA_s140_6.0.0.dir/__/__/mesh/bearer/src/ad_type_filter.c.obj
LOAD examples/enocean_switch/CMakeFiles/enocean_switch_nrf52840_xxAA_s140_6.0.0.dir/__/__/mesh/bearer/src/adv_packet_filter.c.obj
LOAD examples/enocean_switch/CMakeFiles/enocean_switch_nrf52840_xxAA_s140_6.0.0.dir/__/__/mesh/bearer/src/advertiser.c.obj
LOAD examples/enocean_switch/CMakeFiles/enocean_switch_nrf52840_xxAA_s140_6.0.0.dir/__/__/mesh/bearer/src/bearer_handler.c.obj
LOAD examples/enocean_switch/CMakeFiles/enocean_switch_nrf52840_xxAA_s140_6.0.0.dir/__/__/mesh/bearer/src/broadcast.c.obj
LOAD examples/enocean_switch/CMakeFiles/enocean_switch_nrf52840_xxAA_s140_6.0.0.dir/__/__/mesh/bearer/src/filter_engine.c.obj
LOAD examples/enocean_switch/CMakeFiles/enocean_switch_nrf52840_xxAA_s140_6.0.0.dir/__/__/mesh/bearer/src/gap_address_filter.c.obj
LOAD examples/enocean_switch/CMakeFiles/enocean_switch_nrf52840_xxAA_s140_6.0.0.dir/__/__/mesh/bearer/src/radio_config.c.obj
LOAD examples/enocean_switch/CMakeFiles/enocean_switch_nrf52840_xxAA_s140_6.0.0.dir/__/__/mesh/bearer/src/rssi_filter.c.obj
LOAD examples/enocean_switch/CMakeFiles/enocean_switch_nrf52840_xxAA_s140_6.0.0.dir/__/__/mesh/bearer/src/scanner.c.obj
LOAD examples/enocean_switch/CMakeFiles/enocean_switch_nrf52840_xxAA_s140_6.0.0.dir/__/__/mesh/bearer/src/mesh_pa_lna.c.obj
LOAD examples/enocean_switch/CMakeFiles/enocean_switch_nrf52840_xxAA_s140_6.0.0.dir/__/__/models/simple_on_off/src/simple_on_off_client.c.obj
LOAD examples/enocean_switch/CMakeFiles/enocean_switch_nrf52840_xxAA_s140_6.0.0.dir/__/__/models/config/src/composition_data.c.obj
LOAD examples/enocean_switch/CMakeFiles/enocean_switch_nrf52840_xxAA_s140_6.0.0.dir/__/__/models/config/src/config_server.c.obj
LOAD examples/enocean_switch/CMakeFiles/enocean_switch_nrf52840_xxAA_s140_6.0.0.dir/__/__/models/config/src/packed_index_list.c.obj
LOAD examples/enocean_switch/CMakeFiles/enocean_switch_nrf52840_xxAA_s140_6.0.0.dir/__/__/models/health/src/health_server.c.obj
LOAD examples/enocean_switch/CMakeFiles/enocean_switch_nrf52840_xxAA_s140_6.0.0.dir/__/__/mesh/access/src/access_publish.c.obj
LOAD examples/enocean_switch/CMakeFiles/enocean_switch_nrf52840_xxAA_s140_6.0.0.dir/__/__/mesh/access/src/access.c.obj
LOAD examples/enocean_switch/CMakeFiles/enocean_switch_nrf52840_xxAA_s140_6.0.0.dir/__/__/mesh/access/src/access_reliable.c.obj
LOAD examples/enocean_switch/CMakeFiles/enocean_switch_nrf52840_xxAA_s140_6.0.0.dir/__/__/mesh/access/src/access_loopback.c.obj
LOAD examples/enocean_switch/CMakeFiles/enocean_switch_nrf52840_xxAA_s140_6.0.0.dir/__/__/mesh/access/src/device_state_manager.c.obj
LOAD examples/enocean_switch/CMakeFiles/enocean_switch_nrf52840_xxAA_s140_6.0.0.dir/__/__/mesh/prov/src/prov_provisionee.c.obj
LOAD examples/enocean_switch/CMakeFiles/enocean_switch_nrf52840_xxAA_s140_6.0.0.dir/__/__/mesh/prov/src/nrf_mesh_prov.c.obj
LOAD examples/enocean_switch/CMakeFiles/enocean_switch_nrf52840_xxAA_s140_6.0.0.dir/__/__/mesh/prov/src/provisioning.c.obj
LOAD examples/enocean_switch/CMakeFiles/enocean_switch_nrf52840_xxAA_s140_6.0.0.dir/__/__/mesh/prov/src/prov_beacon.c.obj
LOAD examples/enocean_switch/CMakeFiles/enocean_switch_nrf52840_xxAA_s140_6.0.0.dir/__/__/mesh/prov/src/prov_utils.c.obj
LOAD examples/enocean_switch/CMakeFiles/enocean_switch_nrf52840_xxAA_s140_6.0.0.dir/__/__/mesh/prov/src/prov_bearer_adv.c.obj
LOAD examples/enocean_switch/CMakeFiles/enocean_switch_nrf52840_xxAA_s140_6.0.0.dir/C_/b/nRF5_SDK_15.0.0_a53641a/modules/nrfx/mdk/system_nrf52840.c.obj
LOAD examples/enocean_switch/CMakeFiles/enocean_switch_nrf52840_xxAA_s140_6.0.0.dir/C_/b/nRF5_SDK_15.0.0_a53641a/modules/nrfx/mdk/gcc_startup_nrf52840.S.obj
LOAD examples/enocean_switch/CMakeFiles/enocean_switch_nrf52840_xxAA_s140_6.0.0.dir/C_/b/nRF5_SDK_15.0.0_a53641a/components/libraries/util/app_error.c.obj
LOAD examples/enocean_switch/CMakeFiles/enocean_switch_nrf52840_xxAA_s140_6.0.0.dir/C_/b/nRF5_SDK_15.0.0_a53641a/components/libraries/util/app_util_platform.c.obj
LOAD examples/enocean_switch/CMakeFiles/enocean_switch_nrf52840_xxAA_s140_6.0.0.dir/C_/b/nRF5_SDK_15.0.0_a53641a/components/libraries/timer/app_timer.c.obj
LOAD examples/enocean_switch/CMakeFiles/enocean_switch_nrf52840_xxAA_s140_6.0.0.dir/C_/b/nRF5_SDK_15.0.0_a53641a/components/libraries/util/app_error_handler_gcc.c.obj
LOAD external/rtt/librtt_nrf52840_xxAA.a
LOAD external/micro-ecc/libuECC_nrf52840_xxAA.a
START GROUP
LOAD c:/mesh/arm_gcc/bin/../lib/gcc/arm-none-eabi/6.3.1/thumb/v7e-m/fpv4-sp/hard\libgcc.a
LOAD c:/mesh/arm_gcc/bin/../lib/gcc/arm-none-eabi/6.3.1/../../../../arm-none-eabi/lib/thumb/v7e-m/fpv4-sp/hard\libg_nano.a
LOAD c:/mesh/arm_gcc/bin/../lib/gcc/arm-none-eabi/6.3.1/../../../../arm-none-eabi/lib/thumb/v7e-m/fpv4-sp/hard\libc_nano.a
END GROUP
START GROUP
LOAD c:/mesh/arm_gcc/bin/../lib/gcc/arm-none-eabi/6.3.1/thumb/v7e-m/fpv4-sp/hard\libgcc.a
LOAD c:/mesh/arm_gcc/bin/../lib/gcc/arm-none-eabi/6.3.1/../../../../arm-none-eabi/lib/thumb/v7e-m/fpv4-sp/hard\libc_nano.a
END GROUP
LOAD c:/mesh/arm_gcc/bin/../lib/gcc/arm-none-eabi/6.3.1/thumb/v7e-m/fpv4-sp/hard/crtend.o
LOAD c:/mesh/arm_gcc/bin/../lib/gcc/arm-none-eabi/6.3.1/thumb/v7e-m/fpv4-sp/hard/crtn.o
START GROUP
LOAD c:/mesh/arm_gcc/bin/../lib/gcc/arm-none-eabi/6.3.1/thumb/v7e-m/fpv4-sp/hard\libgcc.a
LOAD c:/mesh/arm_gcc/bin/../lib/gcc/arm-none-eabi/6.3.1/../../../../arm-none-eabi/lib/thumb/v7e-m/fpv4-sp/hard\libc.a
LOAD c:/mesh/arm_gcc/bin/../lib/gcc/arm-none-eabi/6.3.1/../../../../arm-none-eabi/lib/thumb/v7e-m/fpv4-sp/hard\libnosys.a
END GROUP

.igot.plt       0x20002f18        0x0 load address 0x0003af34
 .igot.plt      0x20002f18        0x0 c:/mesh/arm_gcc/bin/../lib/gcc/arm-none-eabi/6.3.1/thumb/v7e-m/fpv4-sp/hard/crtbegin.o
                0x20002f18                . = ALIGN (0x4)

.svc_data       0x20002f18        0x0
                [!provide]                PROVIDE (__start_svc_data, .)
 *(.svc_data)
                [!provide]                PROVIDE (__stop_svc_data, .)

.fs_data        0x20002f18        0x0
                [!provide]                PROVIDE (__start_fs_data, .)
 *(.fs_data)
                [!provide]                PROVIDE (__stop_fs_data, .)

.log_dynamic_data
                0x20002f18        0x0
                [!provide]                PROVIDE (__start_log_dynamic_data, .)
 *(.log_dynamic_data)
                [!provide]                PROVIDE (__stop_log_dynamic_data, .)

.cli_sorted_cmd_ptrs
                0x20002f18        0x0
                [!provide]                PROVIDE (__start_cli_sorted_cmd_ptrs, .)
 *(.cli_sorted_cmd_ptrs)
                [!provide]                PROVIDE (__stop_cli_sorted_cmd_ptrs, .)

.bss            0x20002f18     0x36a4 load address 0x0003af38
                0x20002f18                . = ALIGN (0x4)
                0x20002f18                __bss_start__ = .
 *(.bss*)
 .bss           0x20002f18       0x1c c:/mesh/arm_gcc/bin/../lib/gcc/arm-none-eabi/6.3.1/thumb/v7e-m/fpv4-sp/hard/crtbegin.o
 .bss.m_app_secmat
                0x20002f34       0x10 examples/enocean_switch/CMakeFiles/enocean_switch_nrf52840_xxAA_s140_6.0.0.dir/src/main.c.obj
 .bss.m_app_secmat_flash
                0x20002f44       0x1c examples/enocean_switch/CMakeFiles/enocean_switch_nrf52840_xxAA_s140_6.0.0.dir/src/main.c.obj
 .bss.m_clients
                0x20002f60       0x40 examples/enocean_switch/CMakeFiles/enocean_switch_nrf52840_xxAA_s140_6.0.0.dir/src/main.c.obj
 .bss.m_device_provisioned
                0x20002fa0        0x1 examples/enocean_switch/CMakeFiles/enocean_switch_nrf52840_xxAA_s140_6.0.0.dir/src/main.c.obj
 .bss.m_enocean_dev_cnt
                0x20002fa1        0x1 examples/enocean_switch/CMakeFiles/enocean_switch_nrf52840_xxAA_s140_6.0.0.dir/src/main.c.obj
 *fill*         0x20002fa2        0x2 
 .bss.m_switch_state
                0x20002fa4       0x20 examples/enocean_switch/CMakeFiles/enocean_switch_nrf52840_xxAA_s140_6.0.0.dir/src/main.c.obj
 .bss.s_app_started.12914
                0x20002fc4        0x1 examples/enocean_switch/CMakeFiles/enocean_switch_nrf52840_xxAA_s140_6.0.0.dir/src/main.c.obj
 *fill*         0x20002fc5        0x3 
 .bss.m_app_cb  0x20002fc8        0x4 examples/enocean_switch/CMakeFiles/enocean_switch_nrf52840_xxAA_s140_6.0.0.dir/src/enocean.c.obj
 .bss.mp_secmats_list_head
                0x20002fcc        0x4 examples/enocean_switch/CMakeFiles/enocean_switch_nrf52840_xxAA_s140_6.0.0.dir/src/enocean.c.obj
 .bss.m_flash_manager
                0x20002fd0       0x24 examples/enocean_switch/CMakeFiles/enocean_switch_nrf52840_xxAA_s140_6.0.0.dir/src/flash_helper.c.obj
 .bss.m_health_server
                0x20002ff4       0x5c examples/enocean_switch/CMakeFiles/enocean_switch_nrf52840_xxAA_s140_6.0.0.dir/__/__/mesh/stack/src/mesh_stack.c.obj
 .bss.m_device_provisioned
                0x20003050        0x1 examples/enocean_switch/CMakeFiles/enocean_switch_nrf52840_xxAA_s140_6.0.0.dir/__/common/src/mesh_provisionee.c.obj
 *fill*         0x20003051        0x3 
 .bss.m_params  0x20003054        0xc examples/enocean_switch/CMakeFiles/enocean_switch_nrf52840_xxAA_s140_6.0.0.dir/__/common/src/mesh_provisionee.c.obj
 .bss.m_private_key
                0x20003060       0x20 examples/enocean_switch/CMakeFiles/enocean_switch_nrf52840_xxAA_s140_6.0.0.dir/__/common/src/mesh_provisionee.c.obj
 .bss.m_prov_bearer_adv
                0x20003080      0x1c8 examples/enocean_switch/CMakeFiles/enocean_switch_nrf52840_xxAA_s140_6.0.0.dir/__/common/src/mesh_provisionee.c.obj
 .bss.m_prov_ctx
                0x20003248      0x134 examples/enocean_switch/CMakeFiles/enocean_switch_nrf52840_xxAA_s140_6.0.0.dir/__/common/src/mesh_provisionee.c.obj
 .bss.m_public_key
                0x2000337c       0x40 examples/enocean_switch/CMakeFiles/enocean_switch_nrf52840_xxAA_s140_6.0.0.dir/__/common/src/mesh_provisionee.c.obj
 .bss.m_rtt_input_handler
                0x200033bc        0x4 examples/enocean_switch/CMakeFiles/enocean_switch_nrf52840_xxAA_s140_6.0.0.dir/__/common/src/rtt_input.c.obj
 .bss.m_rtt_timer_data
                0x200033c0       0x20 examples/enocean_switch/CMakeFiles/enocean_switch_nrf52840_xxAA_s140_6.0.0.dir/__/common/src/rtt_input.c.obj
 .bss.m_blink_count
                0x200033e0        0x4 examples/enocean_switch/CMakeFiles/enocean_switch_nrf52840_xxAA_s140_6.0.0.dir/__/common/src/simple_hal.c.obj
 .bss.m_blink_mask
                0x200033e4        0x4 examples/enocean_switch/CMakeFiles/enocean_switch_nrf52840_xxAA_s140_6.0.0.dir/__/common/src/simple_hal.c.obj
 .bss.m_blink_timer_data
                0x200033e8       0x20 examples/enocean_switch/CMakeFiles/enocean_switch_nrf52840_xxAA_s140_6.0.0.dir/__/common/src/simple_hal.c.obj
 .bss.m_button_handler_cb
                0x20003408        0x4 examples/enocean_switch/CMakeFiles/enocean_switch_nrf52840_xxAA_s140_6.0.0.dir/__/common/src/simple_hal.c.obj
 .bss.m_last_button_press
                0x2000340c        0x4 examples/enocean_switch/CMakeFiles/enocean_switch_nrf52840_xxAA_s140_6.0.0.dir/__/common/src/simple_hal.c.obj
 .bss.m_uuid    0x20003410       0x10 examples/enocean_switch/CMakeFiles/enocean_switch_nrf52840_xxAA_s140_6.0.0.dir/__/__/mesh/core/src/nrf_mesh_configure.c.obj
 .bss.m_msg_cache
                0x20003420      0x100 examples/enocean_switch/CMakeFiles/enocean_switch_nrf52840_xxAA_s140_6.0.0.dir/__/__/mesh/core/src/msg_cache.c.obj
 .bss.m_msg_cache_head
                0x20003520        0x4 examples/enocean_switch/CMakeFiles/enocean_switch_nrf52840_xxAA_s140_6.0.0.dir/__/__/mesh/core/src/msg_cache.c.obj
 .bss.m_control_packet_consumer_count
                0x20003524        0x4 examples/enocean_switch/CMakeFiles/enocean_switch_nrf52840_xxAA_s140_6.0.0.dir/__/__/mesh/core/src/transport.c.obj
 .bss.m_control_packet_consumers
                0x20003528        0x8 examples/enocean_switch/CMakeFiles/enocean_switch_nrf52840_xxAA_s140_6.0.0.dir/__/__/mesh/core/src/transport.c.obj
 .bss.m_sar_alloc
                0x20003530        0x4 examples/enocean_switch/CMakeFiles/enocean_switch_nrf52840_xxAA_s140_6.0.0.dir/__/__/mesh/core/src/transport.c.obj
 .bss.m_sar_process_flag
                0x20003534        0x4 examples/enocean_switch/CMakeFiles/enocean_switch_nrf52840_xxAA_s140_6.0.0.dir/__/__/mesh/core/src/transport.c.obj
 .bss.m_sar_release
                0x20003538        0x4 examples/enocean_switch/CMakeFiles/enocean_switch_nrf52840_xxAA_s140_6.0.0.dir/__/__/mesh/core/src/transport.c.obj
 .bss.m_sar_session_cache
                0x2000353c       0x40 examples/enocean_switch/CMakeFiles/enocean_switch_nrf52840_xxAA_s140_6.0.0.dir/__/__/mesh/core/src/transport.c.obj
 .bss.m_sar_session_cache_head
                0x2000357c        0x4 examples/enocean_switch/CMakeFiles/enocean_switch_nrf52840_xxAA_s140_6.0.0.dir/__/__/mesh/core/src/transport.c.obj
 .bss.m_trs_config
                0x20003580       0x18 examples/enocean_switch/CMakeFiles/enocean_switch_nrf52840_xxAA_s140_6.0.0.dir/__/__/mesh/core/src/transport.c.obj
 .bss.m_trs_sar_sessions
                0x20003598      0x1b0 examples/enocean_switch/CMakeFiles/enocean_switch_nrf52840_xxAA_s140_6.0.0.dir/__/__/mesh/core/src/transport.c.obj
 .bss.m_event_handler_state
                0x20003748        0x1 examples/enocean_switch/CMakeFiles/enocean_switch_nrf52840_xxAA_s140_6.0.0.dir/__/__/mesh/core/src/event.c.obj
 *fill*         0x20003749        0x3 
 .bss.mp_evt_handlers_head
                0x2000374c        0x4 examples/enocean_switch/CMakeFiles/enocean_switch_nrf52840_xxAA_s140_6.0.0.dir/__/__/mesh/core/src/event.c.obj
 .bss.m_defrag  0x20003750       0x1c examples/enocean_switch/CMakeFiles/enocean_switch_nrf52840_xxAA_s140_6.0.0.dir/__/__/mesh/core/src/flash_manager_defrag.c.obj
 .bss.m_token   0x2000376c        0x2 examples/enocean_switch/CMakeFiles/enocean_switch_nrf52840_xxAA_s140_6.0.0.dir/__/__/mesh/core/src/flash_manager_defrag.c.obj
 *fill*         0x2000376e        0x2 
 .bss.mp_recovery_area
                0x20003770        0x4 examples/enocean_switch/CMakeFiles/enocean_switch_nrf52840_xxAA_s140_6.0.0.dir/__/__/mesh/core/src/flash_manager_defrag.c.obj
 .bss.p_null_ptr.10537
                0x20003774        0x4 examples/enocean_switch/CMakeFiles/enocean_switch_nrf52840_xxAA_s140_6.0.0.dir/__/__/mesh/core/src/flash_manager_defrag.c.obj
 .bss.m_pool    0x20003778     0x1000 examples/enocean_switch/CMakeFiles/enocean_switch_nrf52840_xxAA_s140_6.0.0.dir/__/__/mesh/core/src/packet_mgr.c.obj
 .bss.mp_free_head
                0x20004778        0x4 examples/enocean_switch/CMakeFiles/enocean_switch_nrf52840_xxAA_s140_6.0.0.dir/__/__/mesh/core/src/packet_mgr.c.obj
 .bss.iv_state_set.10219
                0x2000477c        0x1 examples/enocean_switch/CMakeFiles/enocean_switch_nrf52840_xxAA_s140_6.0.0.dir/__/__/mesh/core/src/net_state.c.obj
 *fill*         0x2000477d        0x3 
 .bss.lock_count.10195
                0x20004780        0x4 examples/enocean_switch/CMakeFiles/enocean_switch_nrf52840_xxAA_s140_6.0.0.dir/__/__/mesh/core/src/net_state.c.obj
 .bss.m_flash_manager
                0x20004784       0x24 examples/enocean_switch/CMakeFiles/enocean_switch_nrf52840_xxAA_s140_6.0.0.dir/__/__/mesh/core/src/net_state.c.obj
 .bss.m_iv_update_timer
                0x200047a8       0x18 examples/enocean_switch/CMakeFiles/enocean_switch_nrf52840_xxAA_s140_6.0.0.dir/__/__/mesh/core/src/net_state.c.obj
 .bss.m_mesh_evt_handler
                0x200047c0        0xc examples/enocean_switch/CMakeFiles/enocean_switch_nrf52840_xxAA_s140_6.0.0.dir/__/__/mesh/core/src/net_state.c.obj
 .bss.m_net_state
                0x200047cc       0x14 examples/enocean_switch/CMakeFiles/enocean_switch_nrf52840_xxAA_s140_6.0.0.dir/__/__/mesh/core/src/net_state.c.obj
 .bss.m_seqnum_allocation_in_progress
                0x200047e0        0x1 examples/enocean_switch/CMakeFiles/enocean_switch_nrf52840_xxAA_s140_6.0.0.dir/__/__/mesh/core/src/net_state.c.obj
 .bss.m_test_mode
                0x200047e1        0x1 examples/enocean_switch/CMakeFiles/enocean_switch_nrf52840_xxAA_s140_6.0.0.dir/__/__/mesh/core/src/net_state.c.obj
 *fill*         0x200047e2        0x2 
 .bss.m_event_flag
                0x200047e4        0x4 examples/enocean_switch/CMakeFiles/enocean_switch_nrf52840_xxAA_s140_6.0.0.dir/__/__/mesh/core/src/mesh_flash.c.obj
 .bss.m_suspended
                0x200047e8        0x1 examples/enocean_switch/CMakeFiles/enocean_switch_nrf52840_xxAA_s140_6.0.0.dir/__/__/mesh/core/src/mesh_flash.c.obj
 *fill*         0x200047e9        0x3 
 .bss.m_users   0x200047ec      0x234 examples/enocean_switch/CMakeFiles/enocean_switch_nrf52840_xxAA_s140_6.0.0.dir/__/__/mesh/core/src/mesh_flash.c.obj
 .bss.m_is_enabled
                0x20004a20        0x1 examples/enocean_switch/CMakeFiles/enocean_switch_nrf52840_xxAA_s140_6.0.0.dir/__/__/mesh/core/src/nrf_mesh.c.obj
 .bss.m_is_initialized
                0x20004a21        0x1 examples/enocean_switch/CMakeFiles/enocean_switch_nrf52840_xxAA_s140_6.0.0.dir/__/__/mesh/core/src/nrf_mesh.c.obj
 *fill*         0x20004a22        0x2 
 .bss.m_rx_cb   0x20004a24        0x4 examples/enocean_switch/CMakeFiles/enocean_switch_nrf52840_xxAA_s140_6.0.0.dir/__/__/mesh/core/src/nrf_mesh.c.obj
 .bss.m_tx_token
                0x20004a28        0x4 examples/enocean_switch/CMakeFiles/enocean_switch_nrf52840_xxAA_s140_6.0.0.dir/__/__/mesh/core/src/nrf_mesh.c.obj
 .bss.m_event_flag
                0x20004a2c        0x4 examples/enocean_switch/CMakeFiles/enocean_switch_nrf52840_xxAA_s140_6.0.0.dir/__/__/mesh/core/src/timer_scheduler.c.obj
 .bss.m_scheduler
                0x20004a30       0x10 examples/enocean_switch/CMakeFiles/enocean_switch_nrf52840_xxAA_s140_6.0.0.dir/__/__/mesh/core/src/timer_scheduler.c.obj
 .bss.m_attributes
                0x20004a40        0x3 examples/enocean_switch/CMakeFiles/enocean_switch_nrf52840_xxAA_s140_6.0.0.dir/__/__/mesh/core/src/timer.c.obj
 *fill*         0x20004a43        0x1 
 .bss.m_callbacks
                0x20004a44        0xc examples/enocean_switch/CMakeFiles/enocean_switch_nrf52840_xxAA_s140_6.0.0.dir/__/__/mesh/core/src/timer.c.obj
 .bss.m_is_in_ts
                0x20004a50        0x1 examples/enocean_switch/CMakeFiles/enocean_switch_nrf52840_xxAA_s140_6.0.0.dir/__/__/mesh/core/src/timer.c.obj
 *fill*         0x20004a51        0x3 
 .bss.m_reference_time
                0x20004a54        0x4 examples/enocean_switch/CMakeFiles/enocean_switch_nrf52840_xxAA_s140_6.0.0.dir/__/__/mesh/core/src/timer.c.obj
 .bss.m_timeouts
                0x20004a58        0xc examples/enocean_switch/CMakeFiles/enocean_switch_nrf52840_xxAA_s140_6.0.0.dir/__/__/mesh/core/src/timer.c.obj
 .bss.m_timer_mut
                0x20004a64        0x4 examples/enocean_switch/CMakeFiles/enocean_switch_nrf52840_xxAA_s140_6.0.0.dir/__/__/mesh/core/src/timer.c.obj
 .bss.m_ts_end_time
                0x20004a68        0x4 examples/enocean_switch/CMakeFiles/enocean_switch_nrf52840_xxAA_s140_6.0.0.dir/__/__/mesh/core/src/timer.c.obj
 .bss.mp_ppi_tasks
                0x20004a6c        0xc examples/enocean_switch/CMakeFiles/enocean_switch_nrf52840_xxAA_s140_6.0.0.dir/__/__/mesh/core/src/timer.c.obj
 .bss.m_current_time
                0x20004a78        0x4 examples/enocean_switch/CMakeFiles/enocean_switch_nrf52840_xxAA_s140_6.0.0.dir/__/__/mesh/core/src/ticker.c.obj
 .bss.m_timer   0x20004a7c       0x18 examples/enocean_switch/CMakeFiles/enocean_switch_nrf52840_xxAA_s140_6.0.0.dir/__/__/mesh/core/src/ticker.c.obj
 .bss.m_current_timeslot
                0x20004a94       0x1c examples/enocean_switch/CMakeFiles/enocean_switch_nrf52840_xxAA_s140_6.0.0.dir/__/__/mesh/core/src/timeslot.c.obj
 .bss.m_lfclk_ppm
                0x20004ab0        0x4 examples/enocean_switch/CMakeFiles/enocean_switch_nrf52840_xxAA_s140_6.0.0.dir/__/__/mesh/core/src/timeslot.c.obj
 .bss.m_radio_request_earliest
                0x20004ab4       0x10 examples/enocean_switch/CMakeFiles/enocean_switch_nrf52840_xxAA_s140_6.0.0.dir/__/__/mesh/core/src/timeslot.c.obj
 .bss.m_state_lock
                0x20004ac4        0x1 examples/enocean_switch/CMakeFiles/enocean_switch_nrf52840_xxAA_s140_6.0.0.dir/__/__/mesh/core/src/timeslot.c.obj
 .bss.m_timeslot_forced_command
                0x20004ac5        0x1 examples/enocean_switch/CMakeFiles/enocean_switch_nrf52840_xxAA_s140_6.0.0.dir/__/__/mesh/core/src/timeslot.c.obj
 *fill*         0x20004ac6        0x2 
 .bss.s_last_rtc_value.9597
                0x20004ac8        0x8 examples/enocean_switch/CMakeFiles/enocean_switch_nrf52840_xxAA_s140_6.0.0.dir/__/__/mesh/core/src/timeslot.c.obj
 .bss.m_bearer_event_fifo
                0x20004ad0       0x14 examples/enocean_switch/CMakeFiles/enocean_switch_nrf52840_xxAA_s140_6.0.0.dir/__/__/mesh/core/src/bearer_event.c.obj
 .bss.m_bearer_event_fifo_buffer
                0x20004ae4      0x100 examples/enocean_switch/CMakeFiles/enocean_switch_nrf52840_xxAA_s140_6.0.0.dir/__/__/mesh/core/src/bearer_event.c.obj
 .bss.m_critical
                0x20004be4        0x4 examples/enocean_switch/CMakeFiles/enocean_switch_nrf52840_xxAA_s140_6.0.0.dir/__/__/mesh/core/src/bearer_event.c.obj
 .bss.m_flag_count
                0x20004be8        0x4 examples/enocean_switch/CMakeFiles/enocean_switch_nrf52840_xxAA_s140_6.0.0.dir/__/__/mesh/core/src/bearer_event.c.obj
 .bss.m_flag_event_callbacks
                0x20004bec       0x24 examples/enocean_switch/CMakeFiles/enocean_switch_nrf52840_xxAA_s140_6.0.0.dir/__/__/mesh/core/src/bearer_event.c.obj
 .bss.m_flags   0x20004c10        0x4 examples/enocean_switch/CMakeFiles/enocean_switch_nrf52840_xxAA_s140_6.0.0.dir/__/__/mesh/core/src/bearer_event.c.obj
 .bss.m_irq_priority
                0x20004c14        0x1 examples/enocean_switch/CMakeFiles/enocean_switch_nrf52840_xxAA_s140_6.0.0.dir/__/__/mesh/core/src/bearer_event.c.obj
 *fill*         0x20004c15        0x3 
 .bss.m_sequential_event_queue
                0x20004c18        0x8 examples/enocean_switch/CMakeFiles/enocean_switch_nrf52840_xxAA_s140_6.0.0.dir/__/__/mesh/core/src/bearer_event.c.obj
 .bss.s_recursion_guard.9725
                0x20004c20        0x1 examples/enocean_switch/CMakeFiles/enocean_switch_nrf52840_xxAA_s140_6.0.0.dir/__/__/mesh/core/src/bearer_event.c.obj
 *fill*         0x20004c21        0x3 
 .bss.m_relay_check_cb
                0x20004c24        0x4 examples/enocean_switch/CMakeFiles/enocean_switch_nrf52840_xxAA_s140_6.0.0.dir/__/__/mesh/core/src/network.c.obj
 .bss.m_relay_enable
                0x20004c28        0x1 examples/enocean_switch/CMakeFiles/enocean_switch_nrf52840_xxAA_s140_6.0.0.dir/__/__/mesh/core/src/network.c.obj
 *fill*         0x20004c29        0x3 
 .bss.m_action_queue
                0x20004c2c        0xc examples/enocean_switch/CMakeFiles/enocean_switch_nrf52840_xxAA_s140_6.0.0.dir/__/__/mesh/core/src/flash_manager.c.obj
 .bss.m_action_queue_buffer
                0x20004c38      0x104 examples/enocean_switch/CMakeFiles/enocean_switch_nrf52840_xxAA_s140_6.0.0.dir/__/__/mesh/core/src/flash_manager.c.obj
 .bss.m_action_state
                0x20004d3c        0x1 examples/enocean_switch/CMakeFiles/enocean_switch_nrf52840_xxAA_s140_6.0.0.dir/__/__/mesh/core/src/flash_manager.c.obj
 *fill*         0x20004d3d        0x3 
 .bss.m_memory_listener_queue
                0x20004d40        0x8 examples/enocean_switch/CMakeFiles/enocean_switch_nrf52840_xxAA_s140_6.0.0.dir/__/__/mesh/core/src/flash_manager.c.obj
 .bss.m_processing_flag
                0x20004d48        0x4 examples/enocean_switch/CMakeFiles/enocean_switch_nrf52840_xxAA_s140_6.0.0.dir/__/__/mesh/core/src/flash_manager.c.obj
 .bss.m_queue_empty_cb
                0x20004d4c        0x4 examples/enocean_switch/CMakeFiles/enocean_switch_nrf52840_xxAA_s140_6.0.0.dir/__/__/mesh/core/src/flash_manager.c.obj
 .bss.m_state   0x20004d50        0x1 examples/enocean_switch/CMakeFiles/enocean_switch_nrf52840_xxAA_s140_6.0.0.dir/__/__/mesh/core/src/flash_manager.c.obj
 *fill*         0x20004d51        0x1 
 .bss.m_token   0x20004d52        0x2 examples/enocean_switch/CMakeFiles/enocean_switch_nrf52840_xxAA_s140_6.0.0.dir/__/__/mesh/core/src/flash_manager.c.obj
 .bss.p_current.11445
                0x20004d54        0x4 examples/enocean_switch/CMakeFiles/enocean_switch_nrf52840_xxAA_s140_6.0.0.dir/__/__/mesh/core/src/flash_manager.c.obj
 .bss.result.11446
                0x20004d58        0x1 examples/enocean_switch/CMakeFiles/enocean_switch_nrf52840_xxAA_s140_6.0.0.dir/__/__/mesh/core/src/flash_manager.c.obj
 .bss.m_cache_index
                0x20004d59        0x1 examples/enocean_switch/CMakeFiles/enocean_switch_nrf52840_xxAA_s140_6.0.0.dir/__/__/mesh/core/src/replay_cache.c.obj
 *fill*         0x20004d5a        0x2 
 .bss.m_replay_cache
                0x20004d5c      0x200 examples/enocean_switch/CMakeFiles/enocean_switch_nrf52840_xxAA_s140_6.0.0.dir/__/__/mesh/core/src/replay_cache.c.obj
 .bss.m_bearer_count
                0x20004f5c        0x1 examples/enocean_switch/CMakeFiles/enocean_switch_nrf52840_xxAA_s140_6.0.0.dir/__/__/mesh/core/src/core_tx.c.obj
 *fill*         0x20004f5d        0x3 
 .bss.m_tx_complete_callback
                0x20004f60        0x4 examples/enocean_switch/CMakeFiles/enocean_switch_nrf52840_xxAA_s140_6.0.0.dir/__/__/mesh/core/src/core_tx.c.obj
 .bss.mp_bearers
                0x20004f64        0x4 examples/enocean_switch/CMakeFiles/enocean_switch_nrf52840_xxAA_s140_6.0.0.dir/__/__/mesh/core/src/core_tx.c.obj
 .bss.m_hb_core_evt_handler
                0x20004f68        0xc examples/enocean_switch/CMakeFiles/enocean_switch_nrf52840_xxAA_s140_6.0.0.dir/__/__/mesh/core/src/heartbeat.c.obj
 .bss.m_hb_pending_feat_msg
                0x20004f74        0x1 examples/enocean_switch/CMakeFiles/enocean_switch_nrf52840_xxAA_s140_6.0.0.dir/__/__/mesh/core/src/heartbeat.c.obj
 .bss.m_hb_pending_pub_msg
                0x20004f75        0x1 examples/enocean_switch/CMakeFiles/enocean_switch_nrf52840_xxAA_s140_6.0.0.dir/__/__/mesh/core/src/heartbeat.c.obj
 .bss.m_heartbeat_init_done
                0x20004f76        0x1 examples/enocean_switch/CMakeFiles/enocean_switch_nrf52840_xxAA_s140_6.0.0.dir/__/__/mesh/core/src/heartbeat.c.obj
 *fill*         0x20004f77        0x1 
 .bss.m_heartbeat_subscription
                0x20004f78       0x10 examples/enocean_switch/CMakeFiles/enocean_switch_nrf52840_xxAA_s140_6.0.0.dir/__/__/mesh/core/src/heartbeat.c.obj
 .bss.m_publication_count_decrement_cb
                0x20004f88        0x4 examples/enocean_switch/CMakeFiles/enocean_switch_nrf52840_xxAA_s140_6.0.0.dir/__/__/mesh/core/src/heartbeat.c.obj
 .bss.m_publication_get_cb
                0x20004f8c        0x4 examples/enocean_switch/CMakeFiles/enocean_switch_nrf52840_xxAA_s140_6.0.0.dir/__/__/mesh/core/src/heartbeat.c.obj
 .bss.m_publication_timer
                0x20004f90       0x1c examples/enocean_switch/CMakeFiles/enocean_switch_nrf52840_xxAA_s140_6.0.0.dir/__/__/mesh/core/src/heartbeat.c.obj
 .bss.m_subscription_timer
                0x20004fac       0x18 examples/enocean_switch/CMakeFiles/enocean_switch_nrf52840_xxAA_s140_6.0.0.dir/__/__/mesh/core/src/heartbeat.c.obj
 .bss.m_adv     0x20004fc4       0x9c examples/enocean_switch/CMakeFiles/enocean_switch_nrf52840_xxAA_s140_6.0.0.dir/__/__/mesh/core/src/net_beacon.c.obj
 .bss.m_adv_buf
                0x20005060       0x34 examples/enocean_switch/CMakeFiles/enocean_switch_nrf52840_xxAA_s140_6.0.0.dir/__/__/mesh/core/src/net_beacon.c.obj
 .bss.m_beacon_salt
                0x20005094       0x10 examples/enocean_switch/CMakeFiles/enocean_switch_nrf52840_xxAA_s140_6.0.0.dir/__/__/mesh/core/src/net_beacon.c.obj
 .bss.m_enabled
                0x200050a4        0x1 examples/enocean_switch/CMakeFiles/enocean_switch_nrf52840_xxAA_s140_6.0.0.dir/__/__/mesh/core/src/net_beacon.c.obj
 *fill*         0x200050a5        0x3 
 .bss.m_tx_timer
                0x200050a8       0x18 examples/enocean_switch/CMakeFiles/enocean_switch_nrf52840_xxAA_s140_6.0.0.dir/__/__/mesh/core/src/net_beacon.c.obj
 .bss.mp_beacon_info
                0x200050c0        0x4 examples/enocean_switch/CMakeFiles/enocean_switch_nrf52840_xxAA_s140_6.0.0.dir/__/__/mesh/core/src/net_beacon.c.obj
 .bss.m_bearer  0x200050c4        0xc examples/enocean_switch/CMakeFiles/enocean_switch_nrf52840_xxAA_s140_6.0.0.dir/__/__/mesh/core/src/core_tx_adv.c.obj
 .bss.m_bearer_roles
                0x200050d0      0x140 examples/enocean_switch/CMakeFiles/enocean_switch_nrf52840_xxAA_s140_6.0.0.dir/__/__/mesh/core/src/core_tx_adv.c.obj
 .bss.m_current_alloc
                0x20005210        0x8 examples/enocean_switch/CMakeFiles/enocean_switch_nrf52840_xxAA_s140_6.0.0.dir/__/__/mesh/core/src/core_tx_adv.c.obj
 .bss.m_originator_adv_packet_buffer
                0x20005218      0x100 examples/enocean_switch/CMakeFiles/enocean_switch_nrf52840_xxAA_s140_6.0.0.dir/__/__/mesh/core/src/core_tx_adv.c.obj
 .bss.m_relay_adv_packet_buffer
                0x20005318       0x80 examples/enocean_switch/CMakeFiles/enocean_switch_nrf52840_xxAA_s140_6.0.0.dir/__/__/mesh/core/src/core_tx_adv.c.obj
 .bss.m_subscribers
                0x20005398        0x4 examples/enocean_switch/CMakeFiles/enocean_switch_nrf52840_xxAA_s140_6.0.0.dir/__/__/mesh/bearer/src/ad_listener.c.obj
 .bss.m_adtype_filter
                0x2000539c       0x38 examples/enocean_switch/CMakeFiles/enocean_switch_nrf52840_xxAA_s140_6.0.0.dir/__/__/mesh/bearer/src/ad_type_filter.c.obj
 .bss.m_adv_prng
                0x200053d4       0x10 examples/enocean_switch/CMakeFiles/enocean_switch_nrf52840_xxAA_s140_6.0.0.dir/__/__/mesh/bearer/src/advertiser.c.obj
 .bss.m_action_ended
                0x200053e4        0x1 examples/enocean_switch/CMakeFiles/enocean_switch_nrf52840_xxAA_s140_6.0.0.dir/__/__/mesh/bearer/src/bearer_handler.c.obj
 *fill*         0x200053e5        0x3 
 .bss.m_action_queue
                0x200053e8        0x8 examples/enocean_switch/CMakeFiles/enocean_switch_nrf52840_xxAA_s140_6.0.0.dir/__/__/mesh/bearer/src/bearer_handler.c.obj
 .bss.m_end_time
                0x200053f0        0x4 examples/enocean_switch/CMakeFiles/enocean_switch_nrf52840_xxAA_s140_6.0.0.dir/__/__/mesh/bearer/src/bearer_handler.c.obj
 .bss.m_in_callback
                0x200053f4        0x1 examples/enocean_switch/CMakeFiles/enocean_switch_nrf52840_xxAA_s140_6.0.0.dir/__/__/mesh/bearer/src/bearer_handler.c.obj
 .bss.m_scanner_is_active
                0x200053f5        0x1 examples/enocean_switch/CMakeFiles/enocean_switch_nrf52840_xxAA_s140_6.0.0.dir/__/__/mesh/bearer/src/bearer_handler.c.obj
 .bss.m_stopped
                0x200053f6        0x1 examples/enocean_switch/CMakeFiles/enocean_switch_nrf52840_xxAA_s140_6.0.0.dir/__/__/mesh/bearer/src/bearer_handler.c.obj
 *fill*         0x200053f7        0x1 
 .bss.mp_action
                0x200053f8        0x4 examples/enocean_switch/CMakeFiles/enocean_switch_nrf52840_xxAA_s140_6.0.0.dir/__/__/mesh/bearer/src/bearer_handler.c.obj
 .bss.m_action_start_time
                0x200053fc        0x4 examples/enocean_switch/CMakeFiles/enocean_switch_nrf52840_xxAA_s140_6.0.0.dir/__/__/mesh/bearer/src/broadcast.c.obj
 .bss.m_next_channel_index
                0x20005400        0x1 examples/enocean_switch/CMakeFiles/enocean_switch_nrf52840_xxAA_s140_6.0.0.dir/__/__/mesh/bearer/src/broadcast.c.obj
 *fill*         0x20005401        0x3 
 .bss.m_accepted_amount
                0x20005404        0x4 examples/enocean_switch/CMakeFiles/enocean_switch_nrf52840_xxAA_s140_6.0.0.dir/__/__/mesh/bearer/src/filter_engine.c.obj
 .bss.m_filter_list_head
                0x20005408        0x4 examples/enocean_switch/CMakeFiles/enocean_switch_nrf52840_xxAA_s140_6.0.0.dir/__/__/mesh/bearer/src/filter_engine.c.obj
 .bss.m_scanner
                0x2000540c      0x298 examples/enocean_switch/CMakeFiles/enocean_switch_nrf52840_xxAA_s140_6.0.0.dir/__/__/mesh/bearer/src/scanner.c.obj
 .bss.m_gpiote  0x200056a4        0x6 examples/enocean_switch/CMakeFiles/enocean_switch_nrf52840_xxAA_s140_6.0.0.dir/__/__/mesh/bearer/src/mesh_pa_lna.c.obj
 .bss.m_tid     0x200056aa        0x1 examples/enocean_switch/CMakeFiles/enocean_switch_nrf52840_xxAA_s140_6.0.0.dir/__/__/models/simple_on_off/src/simple_on_off_client.c.obj
 *fill*         0x200056ab        0x1 
 .bss.m_evt_cb  0x200056ac        0x4 examples/enocean_switch/CMakeFiles/enocean_switch_nrf52840_xxAA_s140_6.0.0.dir/__/__/models/config/src/config_server.c.obj
 .bss.m_heartbeat_publication
                0x200056b0       0x14 examples/enocean_switch/CMakeFiles/enocean_switch_nrf52840_xxAA_s140_6.0.0.dir/__/__/models/config/src/config_server.c.obj
 .bss.m_node_reset_pending
                0x200056c4        0x1 examples/enocean_switch/CMakeFiles/enocean_switch_nrf52840_xxAA_s140_6.0.0.dir/__/__/models/config/src/config_server.c.obj
 *fill*         0x200056c5        0x3 
 .bss.m_reset_token
                0x200056c8        0x4 examples/enocean_switch/CMakeFiles/enocean_switch_nrf52840_xxAA_s140_6.0.0.dir/__/__/models/config/src/config_server.c.obj
 .bss.m_attention_timer
                0x200056cc       0x18 examples/enocean_switch/CMakeFiles/enocean_switch_nrf52840_xxAA_s140_6.0.0.dir/__/__/models/health/src/health_server.c.obj
 .bss.mp_attention_list
                0x200056e4        0x4 examples/enocean_switch/CMakeFiles/enocean_switch_nrf52840_xxAA_s140_6.0.0.dir/__/__/models/health/src/health_server.c.obj
 .bss.m_publish_timer
                0x200056e8       0x18 examples/enocean_switch/CMakeFiles/enocean_switch_nrf52840_xxAA_s140_6.0.0.dir/__/__/mesh/access/src/access_publish.c.obj
 .bss.m_publish_timer_counter
                0x20005700        0x4 examples/enocean_switch/CMakeFiles/enocean_switch_nrf52840_xxAA_s140_6.0.0.dir/__/__/mesh/access/src/access_publish.c.obj
 .bss.m_publish_timer_running
                0x20005704        0x1 examples/enocean_switch/CMakeFiles/enocean_switch_nrf52840_xxAA_s140_6.0.0.dir/__/__/mesh/access/src/access_publish.c.obj
 .bss.m_timer_resolution
                0x20005705        0x1 examples/enocean_switch/CMakeFiles/enocean_switch_nrf52840_xxAA_s140_6.0.0.dir/__/__/mesh/access/src/access_publish.c.obj
 *fill*         0x20005706        0x2 
 .bss.mp_publication_list
                0x20005708        0x4 examples/enocean_switch/CMakeFiles/enocean_switch_nrf52840_xxAA_s140_6.0.0.dir/__/__/mesh/access/src/access_publish.c.obj
 .bss.m_element_pool
                0x2000570c       0x1e examples/enocean_switch/CMakeFiles/enocean_switch_nrf52840_xxAA_s140_6.0.0.dir/__/__/mesh/access/src/access.c.obj
 *fill*         0x2000572a        0x2 
 .bss.m_evt_handler
                0x2000572c        0xc examples/enocean_switch/CMakeFiles/enocean_switch_nrf52840_xxAA_s140_6.0.0.dir/__/__/mesh/access/src/access.c.obj
 .bss.m_flash_manager
                0x20005738       0x24 examples/enocean_switch/CMakeFiles/enocean_switch_nrf52840_xxAA_s140_6.0.0.dir/__/__/mesh/access/src/access.c.obj
 .bss.m_flash_not_ready
                0x2000575c        0x1 examples/enocean_switch/CMakeFiles/enocean_switch_nrf52840_xxAA_s140_6.0.0.dir/__/__/mesh/access/src/access.c.obj
 .bss.m_metadata_stored
                0x2000575d        0x1 examples/enocean_switch/CMakeFiles/enocean_switch_nrf52840_xxAA_s140_6.0.0.dir/__/__/mesh/access/src/access.c.obj
 *fill*         0x2000575e        0x2 
 .bss.m_model_pool
                0x20005760      0x138 examples/enocean_switch/CMakeFiles/enocean_switch_nrf52840_xxAA_s140_6.0.0.dir/__/__/mesh/access/src/access.c.obj
 .bss.m_subscription_list_pool
                0x20005898       0x30 examples/enocean_switch/CMakeFiles/enocean_switch_nrf52840_xxAA_s140_6.0.0.dir/__/__/mesh/access/src/access.c.obj
 .bss.m_reliable
                0x200058c8      0x124 examples/enocean_switch/CMakeFiles/enocean_switch_nrf52840_xxAA_s140_6.0.0.dir/__/__/mesh/access/src/access_reliable.c.obj
 .bss.m_access_loopback_flag
                0x200059ec        0x4 examples/enocean_switch/CMakeFiles/enocean_switch_nrf52840_xxAA_s140_6.0.0.dir/__/__/mesh/access/src/access_loopback.c.obj
 .bss.mp_loopback_list_head
                0x200059f0        0x4 examples/enocean_switch/CMakeFiles/enocean_switch_nrf52840_xxAA_s140_6.0.0.dir/__/__/mesh/access/src/access_loopback.c.obj
 .bss.m_addr_nonvirtual_allocated
                0x200059f4        0x4 examples/enocean_switch/CMakeFiles/enocean_switch_nrf52840_xxAA_s140_6.0.0.dir/__/__/mesh/access/src/device_state_manager.c.obj
 .bss.m_addr_nonvirtual_needs_flashing
                0x200059f8        0x4 examples/enocean_switch/CMakeFiles/enocean_switch_nrf52840_xxAA_s140_6.0.0.dir/__/__/mesh/access/src/device_state_manager.c.obj
 .bss.m_addr_unicast_allocated
                0x200059fc        0x4 examples/enocean_switch/CMakeFiles/enocean_switch_nrf52840_xxAA_s140_6.0.0.dir/__/__/mesh/access/src/device_state_manager.c.obj
 .bss.m_addr_unicast_needs_flashing
                0x20005a00        0x4 examples/enocean_switch/CMakeFiles/enocean_switch_nrf52840_xxAA_s140_6.0.0.dir/__/__/mesh/access/src/device_state_manager.c.obj
 .bss.m_addr_virtual_allocated
                0x20005a04        0x4 examples/enocean_switch/CMakeFiles/enocean_switch_nrf52840_xxAA_s140_6.0.0.dir/__/__/mesh/access/src/device_state_manager.c.obj
 .bss.m_addr_virtual_needs_flashing
                0x20005a08        0x4 examples/enocean_switch/CMakeFiles/enocean_switch_nrf52840_xxAA_s140_6.0.0.dir/__/__/mesh/access/src/device_state_manager.c.obj
 .bss.m_addresses
                0x20005a0c       0x40 examples/enocean_switch/CMakeFiles/enocean_switch_nrf52840_xxAA_s140_6.0.0.dir/__/__/mesh/access/src/device_state_manager.c.obj
 .bss.m_appkey_allocated
                0x20005a4c        0x4 examples/enocean_switch/CMakeFiles/enocean_switch_nrf52840_xxAA_s140_6.0.0.dir/__/__/mesh/access/src/device_state_manager.c.obj
 .bss.m_appkey_needs_flashing
                0x20005a50        0x4 examples/enocean_switch/CMakeFiles/enocean_switch_nrf52840_xxAA_s140_6.0.0.dir/__/__/mesh/access/src/device_state_manager.c.obj
 .bss.m_appkeys
                0x20005a54      0x150 examples/enocean_switch/CMakeFiles/enocean_switch_nrf52840_xxAA_s140_6.0.0.dir/__/__/mesh/access/src/device_state_manager.c.obj
 .bss.m_devkey_allocated
                0x20005ba4        0x4 examples/enocean_switch/CMakeFiles/enocean_switch_nrf52840_xxAA_s140_6.0.0.dir/__/__/mesh/access/src/device_state_manager.c.obj
 .bss.m_devkey_needs_flashing
                0x20005ba8        0x4 examples/enocean_switch/CMakeFiles/enocean_switch_nrf52840_xxAA_s140_6.0.0.dir/__/__/mesh/access/src/device_state_manager.c.obj
 .bss.m_devkeys
                0x20005bac       0x16 examples/enocean_switch/CMakeFiles/enocean_switch_nrf52840_xxAA_s140_6.0.0.dir/__/__/mesh/access/src/device_state_manager.c.obj
 .bss.m_flash_is_available
                0x20005bc2        0x1 examples/enocean_switch/CMakeFiles/enocean_switch_nrf52840_xxAA_s140_6.0.0.dir/__/__/mesh/access/src/device_state_manager.c.obj
 *fill*         0x20005bc3        0x1 
 .bss.m_flash_manager
                0x20005bc4       0x24 examples/enocean_switch/CMakeFiles/enocean_switch_nrf52840_xxAA_s140_6.0.0.dir/__/__/mesh/access/src/device_state_manager.c.obj
 .bss.m_flash_mem_listener_update_all
                0x20005be8       0x10 examples/enocean_switch/CMakeFiles/enocean_switch_nrf52840_xxAA_s140_6.0.0.dir/__/__/mesh/access/src/device_state_manager.c.obj
 .bss.m_has_primary_subnet
                0x20005bf8        0x1 examples/enocean_switch/CMakeFiles/enocean_switch_nrf52840_xxAA_s140_6.0.0.dir/__/__/mesh/access/src/device_state_manager.c.obj
 *fill*         0x20005bf9        0x1 
 .bss.m_local_unicast_addr
                0x20005bfa        0x4 examples/enocean_switch/CMakeFiles/enocean_switch_nrf52840_xxAA_s140_6.0.0.dir/__/__/mesh/access/src/device_state_manager.c.obj
 *fill*         0x20005bfe        0x2 
 .bss.m_mesh_evt_handler
                0x20005c00        0xc examples/enocean_switch/CMakeFiles/enocean_switch_nrf52840_xxAA_s140_6.0.0.dir/__/__/mesh/access/src/device_state_manager.c.obj
 .bss.m_subnet_allocated
                0x20005c0c        0x4 examples/enocean_switch/CMakeFiles/enocean_switch_nrf52840_xxAA_s140_6.0.0.dir/__/__/mesh/access/src/device_state_manager.c.obj
 .bss.m_subnet_needs_flashing
                0x20005c10        0x4 examples/enocean_switch/CMakeFiles/enocean_switch_nrf52840_xxAA_s140_6.0.0.dir/__/__/mesh/access/src/device_state_manager.c.obj
 .bss.m_subnets
                0x20005c14      0x2a0 examples/enocean_switch/CMakeFiles/enocean_switch_nrf52840_xxAA_s140_6.0.0.dir/__/__/mesh/access/src/device_state_manager.c.obj
 .bss.m_virtual_addresses
                0x20005eb4       0xa0 examples/enocean_switch/CMakeFiles/enocean_switch_nrf52840_xxAA_s140_6.0.0.dir/__/__/mesh/access/src/device_state_manager.c.obj
 .bss.m_event_handler
                0x20005f54        0x4 examples/enocean_switch/CMakeFiles/enocean_switch_nrf52840_xxAA_s140_6.0.0.dir/__/__/mesh/prov/src/prov_beacon.c.obj
 .bss.m_offload_ecdh
                0x20005f58        0x1 examples/enocean_switch/CMakeFiles/enocean_switch_nrf52840_xxAA_s140_6.0.0.dir/__/__/mesh/prov/src/prov_utils.c.obj
 *fill*         0x20005f59        0x3 
 .bss.mp_bearer_head
                0x20005f5c        0x4 examples/enocean_switch/CMakeFiles/enocean_switch_nrf52840_xxAA_s140_6.0.0.dir/__/__/mesh/prov/src/prov_bearer_adv.c.obj
 .bss.m_op_queue
                0x20005f60      0x10c examples/enocean_switch/CMakeFiles/enocean_switch_nrf52840_xxAA_s140_6.0.0.dir/C_/b/nRF5_SDK_15.0.0_a53641a/components/libraries/timer/app_timer.c.obj
 .bss.m_rtc1_reset
                0x2000606c        0x1 examples/enocean_switch/CMakeFiles/enocean_switch_nrf52840_xxAA_s140_6.0.0.dir/C_/b/nRF5_SDK_15.0.0_a53641a/components/libraries/timer/app_timer.c.obj
 .bss.m_rtc1_running
                0x2000606d        0x1 examples/enocean_switch/CMakeFiles/enocean_switch_nrf52840_xxAA_s140_6.0.0.dir/C_/b/nRF5_SDK_15.0.0_a53641a/components/libraries/timer/app_timer.c.obj
 *fill*         0x2000606e        0x2 
 .bss.m_ticks_elapsed
                0x20006070        0x8 examples/enocean_switch/CMakeFiles/enocean_switch_nrf52840_xxAA_s140_6.0.0.dir/C_/b/nRF5_SDK_15.0.0_a53641a/components/libraries/timer/app_timer.c.obj
 .bss.m_ticks_elapsed_q_read_ind
                0x20006078        0x1 examples/enocean_switch/CMakeFiles/enocean_switch_nrf52840_xxAA_s140_6.0.0.dir/C_/b/nRF5_SDK_15.0.0_a53641a/components/libraries/timer/app_timer.c.obj
 .bss.m_ticks_elapsed_q_write_ind
                0x20006079        0x1 examples/enocean_switch/CMakeFiles/enocean_switch_nrf52840_xxAA_s140_6.0.0.dir/C_/b/nRF5_SDK_15.0.0_a53641a/components/libraries/timer/app_timer.c.obj
 *fill*         0x2000607a        0x2 
 .bss.m_ticks_latest
                0x2000607c        0x4 examples/enocean_switch/CMakeFiles/enocean_switch_nrf52840_xxAA_s140_6.0.0.dir/C_/b/nRF5_SDK_15.0.0_a53641a/components/libraries/timer/app_timer.c.obj
 .bss.mp_timer_id_head
                0x20006080        0x4 examples/enocean_switch/CMakeFiles/enocean_switch_nrf52840_xxAA_s140_6.0.0.dir/C_/b/nRF5_SDK_15.0.0_a53641a/components/libraries/timer/app_timer.c.obj
 .bss._acDownBuffer
                0x20006084       0x80 external/rtt/librtt_nrf52840_xxAA.a(SEGGER_RTT.c.obj)
 .bss._acUpBuffer
                0x20006104      0x400 external/rtt/librtt_nrf52840_xxAA.a(SEGGER_RTT.c.obj)
 .bss.__malloc_free_list
                0x20006504        0x4 c:/mesh/arm_gcc/bin/../lib/gcc/arm-none-eabi/6.3.1/../../../../arm-none-eabi/lib/thumb/v7e-m/fpv4-sp/hard\libg_nano.a(lib_a-nano-mallocr.o)
                0x20006504                __malloc_free_list
 .bss.__malloc_sbrk_start
                0x20006508        0x4 c:/mesh/arm_gcc/bin/../lib/gcc/arm-none-eabi/6.3.1/../../../../arm-none-eabi/lib/thumb/v7e-m/fpv4-sp/hard\libg_nano.a(lib_a-nano-mallocr.o)
                0x20006508                __malloc_sbrk_start
 .bss.heap_end.5239
                0x2000650c        0x4 c:/mesh/arm_gcc/bin/../lib/gcc/arm-none-eabi/6.3.1/../../../../arm-none-eabi/lib/thumb/v7e-m/fpv4-sp/hard\libnosys.a(sbrk.o)
 *(COMMON)
 COMMON         0x20006510       0x24 examples/enocean_switch/CMakeFiles/enocean_switch_nrf52840_xxAA_s140_6.0.0.dir/__/__/mesh/core/src/core_tx.c.obj
                0x20006510                m_packet
 COMMON         0x20006534        0xc examples/enocean_switch/CMakeFiles/enocean_switch_nrf52840_xxAA_s140_6.0.0.dir/C_/b/nRF5_SDK_15.0.0_a53641a/components/libraries/util/app_util_platform.c.obj
                0x20006534                nrf_nvic_state
 COMMON         0x20006540       0x78 external/rtt/librtt_nrf52840_xxAA.a(SEGGER_RTT.c.obj)
                0x20006540                _SEGGER_RTT
 COMMON         0x200065b8        0x4 c:/mesh/arm_gcc/bin/../lib/gcc/arm-none-eabi/6.3.1/../../../../arm-none-eabi/lib/thumb/v7e-m/fpv4-sp/hard\libg_nano.a(lib_a-reent.o)
                0x200065b8                errno
                0x200065bc                . = ALIGN (0x4)
                0x200065bc                __bss_end__ = .

.heap           0x200065c0     0x2000
                0x200065c0                __HeapBase = .
                0x200065c0                __end__ = .
                0x200065c0                PROVIDE (end, .)
 *(.heap*)
 .heap          0x200065c0     0x2000 examples/enocean_switch/CMakeFiles/enocean_switch_nrf52840_xxAA_s140_6.0.0.dir/C_/b/nRF5_SDK_15.0.0_a53641a/modules/nrfx/mdk/gcc_startup_nrf52840.S.obj
                0x200085c0                __HeapLimit = .

.stack_dummy    0x200065c0     0x2000
 *(.stack*)
 .stack         0x200065c0     0x2000 examples/enocean_switch/CMakeFiles/enocean_switch_nrf52840_xxAA_s140_6.0.0.dir/C_/b/nRF5_SDK_15.0.0_a53641a/modules/nrfx/mdk/gcc_startup_nrf52840.S.obj
                0x2003fd00                __StackTop = (ORIGIN (RAM) + LENGTH (RAM))
                0x2003dd00                __StackLimit = (__StackTop - SIZEOF (.stack_dummy))
                0x2003fd00                PROVIDE (__stack, __StackTop)
                0x00000001                ASSERT ((__StackLimit >= __HeapLimit), region RAM overflowed with stack)
                0x00000178                DataInitFlashUsed = (__bss_start__ - __data_start__)
                0x00014dbc                CodeFlashUsed = (__etext - ORIGIN (FLASH))
                0x00014f34                TotalFlashUsed = (CodeFlashUsed + DataInitFlashUsed)
                0x00000001                ASSERT ((TotalFlashUsed <= LENGTH (FLASH)), region FLASH overflowed with .data and user data)
OUTPUT(examples\enocean_switch\enocean_switch_nrf52840_xxAA_s140_6.0.0.elf elf32-littlearm)

.ARM.attributes
                0x00000000       0x30
 .ARM.attributes
                0x00000000       0x22 c:/mesh/arm_gcc/bin/../lib/gcc/arm-none-eabi/6.3.1/thumb/v7e-m/fpv4-sp/hard/crti.o
 .ARM.attributes
                0x00000022       0x34 c:/mesh/arm_gcc/bin/../lib/gcc/arm-none-eabi/6.3.1/thumb/v7e-m/fpv4-sp/hard/crtbegin.o
 .ARM.attributes
                0x00000056       0x20 c:/mesh/arm_gcc/bin/../lib/gcc/arm-none-eabi/6.3.1/../../../../arm-none-eabi/lib/thumb/v7e-m/fpv4-sp/hard/crt0.o
 .ARM.attributes
                0x00000076       0x39 examples/enocean_switch/CMakeFiles/enocean_switch_nrf52840_xxAA_s140_6.0.0.dir/src/main.c.obj
 .ARM.attributes
                0x000000af       0x39 examples/enocean_switch/CMakeFiles/enocean_switch_nrf52840_xxAA_s140_6.0.0.dir/src/enocean.c.obj
 .ARM.attributes
                0x000000e8       0x39 examples/enocean_switch/CMakeFiles/enocean_switch_nrf52840_xxAA_s140_6.0.0.dir/src/flash_helper.c.obj
 .ARM.attributes
                0x00000121       0x39 examples/enocean_switch/CMakeFiles/enocean_switch_nrf52840_xxAA_s140_6.0.0.dir/__/__/mesh/stack/src/mesh_stack.c.obj
 .ARM.attributes
                0x0000015a       0x39 examples/enocean_switch/CMakeFiles/enocean_switch_nrf52840_xxAA_s140_6.0.0.dir/__/common/src/mesh_softdevice_init.c.obj
 .ARM.attributes
                0x00000193       0x39 examples/enocean_switch/CMakeFiles/enocean_switch_nrf52840_xxAA_s140_6.0.0.dir/__/common/src/mesh_provisionee.c.obj
 .ARM.attributes
                0x000001cc       0x39 examples/enocean_switch/CMakeFiles/enocean_switch_nrf52840_xxAA_s140_6.0.0.dir/__/common/src/rtt_input.c.obj
 .ARM.attributes
                0x00000205       0x39 examples/enocean_switch/CMakeFiles/enocean_switch_nrf52840_xxAA_s140_6.0.0.dir/__/common/src/simple_hal.c.obj
 .ARM.attributes
                0x0000023e       0x39 examples/enocean_switch/CMakeFiles/enocean_switch_nrf52840_xxAA_s140_6.0.0.dir/__/nrf_mesh_weak.c.obj
 .ARM.attributes
                0x00000277       0x39 examples/enocean_switch/CMakeFiles/enocean_switch_nrf52840_xxAA_s140_6.0.0.dir/__/common/src/app_error_weak.c.obj
 .ARM.attributes
                0x000002b0       0x39 examples/enocean_switch/CMakeFiles/enocean_switch_nrf52840_xxAA_s140_6.0.0.dir/__/common/src/assertion_handler_weak.c.obj
 .ARM.attributes
                0x000002e9       0x39 examples/enocean_switch/CMakeFiles/enocean_switch_nrf52840_xxAA_s140_6.0.0.dir/__/__/mesh/core/src/nrf_mesh_configure.c.obj
 .ARM.attributes
                0x00000322       0x39 examples/enocean_switch/CMakeFiles/enocean_switch_nrf52840_xxAA_s140_6.0.0.dir/__/__/mesh/core/src/msg_cache.c.obj
 .ARM.attributes
                0x0000035b       0x39 examples/enocean_switch/CMakeFiles/enocean_switch_nrf52840_xxAA_s140_6.0.0.dir/__/__/mesh/core/src/transport.c.obj
 .ARM.attributes
                0x00000394       0x39 examples/enocean_switch/CMakeFiles/enocean_switch_nrf52840_xxAA_s140_6.0.0.dir/__/__/mesh/core/src/event.c.obj
 .ARM.attributes
                0x000003cd       0x39 examples/enocean_switch/CMakeFiles/enocean_switch_nrf52840_xxAA_s140_6.0.0.dir/__/__/mesh/core/src/packet_buffer.c.obj
 .ARM.attributes
                0x00000406       0x39 examples/enocean_switch/CMakeFiles/enocean_switch_nrf52840_xxAA_s140_6.0.0.dir/__/__/mesh/core/src/flash_manager_defrag.c.obj
 .ARM.attributes
                0x0000043f       0x39 examples/enocean_switch/CMakeFiles/enocean_switch_nrf52840_xxAA_s140_6.0.0.dir/__/__/mesh/core/src/fifo.c.obj
 .ARM.attributes
                0x00000478       0x39 examples/enocean_switch/CMakeFiles/enocean_switch_nrf52840_xxAA_s140_6.0.0.dir/__/__/mesh/core/src/nrf_flash.c.obj
 .ARM.attributes
                0x000004b1       0x39 examples/enocean_switch/CMakeFiles/enocean_switch_nrf52840_xxAA_s140_6.0.0.dir/__/__/mesh/core/src/packet_mgr.c.obj
 .ARM.attributes
                0x000004ea       0x39 examples/enocean_switch/CMakeFiles/enocean_switch_nrf52840_xxAA_s140_6.0.0.dir/__/__/mesh/core/src/net_state.c.obj
 .ARM.attributes
                0x00000523       0x39 examples/enocean_switch/CMakeFiles/enocean_switch_nrf52840_xxAA_s140_6.0.0.dir/__/__/mesh/core/src/mesh_flash.c.obj
 .ARM.attributes
                0x0000055c       0x39 examples/enocean_switch/CMakeFiles/enocean_switch_nrf52840_xxAA_s140_6.0.0.dir/__/__/mesh/core/src/nrf_mesh_utils.c.obj
 .ARM.attributes
                0x00000595       0x39 examples/enocean_switch/CMakeFiles/enocean_switch_nrf52840_xxAA_s140_6.0.0.dir/__/__/mesh/core/src/nrf_mesh.c.obj
 .ARM.attributes
                0x000005ce       0x39 examples/enocean_switch/CMakeFiles/enocean_switch_nrf52840_xxAA_s140_6.0.0.dir/__/__/mesh/core/src/queue.c.obj
 .ARM.attributes
                0x00000607       0x39 examples/enocean_switch/CMakeFiles/enocean_switch_nrf52840_xxAA_s140_6.0.0.dir/__/__/mesh/core/src/hal.c.obj
 .ARM.attributes
                0x00000640       0x39 examples/enocean_switch/CMakeFiles/enocean_switch_nrf52840_xxAA_s140_6.0.0.dir/__/__/mesh/core/src/aes_cmac.c.obj
 .ARM.attributes
                0x00000679       0x39 examples/enocean_switch/CMakeFiles/enocean_switch_nrf52840_xxAA_s140_6.0.0.dir/__/__/mesh/core/src/timer_scheduler.c.obj
 .ARM.attributes
                0x000006b2       0x39 examples/enocean_switch/CMakeFiles/enocean_switch_nrf52840_xxAA_s140_6.0.0.dir/__/__/mesh/core/src/timer.c.obj
 .ARM.attributes
                0x000006eb       0x39 examples/enocean_switch/CMakeFiles/enocean_switch_nrf52840_xxAA_s140_6.0.0.dir/__/__/mesh/core/src/ticker.c.obj
 .ARM.attributes
                0x00000724       0x39 examples/enocean_switch/CMakeFiles/enocean_switch_nrf52840_xxAA_s140_6.0.0.dir/__/__/mesh/core/src/rand.c.obj
 .ARM.attributes
                0x0000075d       0x39 examples/enocean_switch/CMakeFiles/enocean_switch_nrf52840_xxAA_s140_6.0.0.dir/__/__/mesh/core/src/nrf_mesh_opt.c.obj
 .ARM.attributes
                0x00000796       0x39 examples/enocean_switch/CMakeFiles/enocean_switch_nrf52840_xxAA_s140_6.0.0.dir/__/__/mesh/core/src/timeslot.c.obj
 .ARM.attributes
                0x000007cf       0x39 examples/enocean_switch/CMakeFiles/enocean_switch_nrf52840_xxAA_s140_6.0.0.dir/__/__/mesh/core/src/bearer_event.c.obj
 .ARM.attributes
                0x00000808       0x39 examples/enocean_switch/CMakeFiles/enocean_switch_nrf52840_xxAA_s140_6.0.0.dir/__/__/mesh/core/src/enc.c.obj
 .ARM.attributes
                0x00000841       0x39 examples/enocean_switch/CMakeFiles/enocean_switch_nrf52840_xxAA_s140_6.0.0.dir/__/__/mesh/core/src/network.c.obj
 .ARM.attributes
                0x0000087a       0x39 examples/enocean_switch/CMakeFiles/enocean_switch_nrf52840_xxAA_s140_6.0.0.dir/__/__/mesh/core/src/net_packet.c.obj
 .ARM.attributes
                0x000008b3       0x39 examples/enocean_switch/CMakeFiles/enocean_switch_nrf52840_xxAA_s140_6.0.0.dir/__/__/mesh/core/src/msqueue.c.obj
 .ARM.attributes
                0x000008ec       0x39 examples/enocean_switch/CMakeFiles/enocean_switch_nrf52840_xxAA_s140_6.0.0.dir/__/__/mesh/core/src/nrf_mesh_keygen.c.obj
 .ARM.attributes
                0x00000925       0x39 examples/enocean_switch/CMakeFiles/enocean_switch_nrf52840_xxAA_s140_6.0.0.dir/__/__/mesh/core/src/list.c.obj
 .ARM.attributes
                0x0000095e       0x39 examples/enocean_switch/CMakeFiles/enocean_switch_nrf52840_xxAA_s140_6.0.0.dir/__/__/mesh/core/src/log.c.obj
 .ARM.attributes
                0x00000997       0x39 examples/enocean_switch/CMakeFiles/enocean_switch_nrf52840_xxAA_s140_6.0.0.dir/__/__/mesh/core/src/flash_manager.c.obj
 .ARM.attributes
                0x000009d0       0x39 examples/enocean_switch/CMakeFiles/enocean_switch_nrf52840_xxAA_s140_6.0.0.dir/__/__/mesh/core/src/ccm_soft.c.obj
 .ARM.attributes
                0x00000a09       0x39 examples/enocean_switch/CMakeFiles/enocean_switch_nrf52840_xxAA_s140_6.0.0.dir/__/__/mesh/core/src/replay_cache.c.obj
 .ARM.attributes
                0x00000a42       0x39 examples/enocean_switch/CMakeFiles/enocean_switch_nrf52840_xxAA_s140_6.0.0.dir/__/__/mesh/core/src/beacon.c.obj
 .ARM.attributes
                0x00000a7b       0x39 examples/enocean_switch/CMakeFiles/enocean_switch_nrf52840_xxAA_s140_6.0.0.dir/__/__/mesh/core/src/flash_manager_internal.c.obj
 .ARM.attributes
                0x00000ab4       0x39 examples/enocean_switch/CMakeFiles/enocean_switch_nrf52840_xxAA_s140_6.0.0.dir/__/__/mesh/core/src/core_tx.c.obj
 .ARM.attributes
                0x00000aed       0x39 examples/enocean_switch/CMakeFiles/enocean_switch_nrf52840_xxAA_s140_6.0.0.dir/__/__/mesh/core/src/heartbeat.c.obj
 .ARM.attributes
                0x00000b26       0x39 examples/enocean_switch/CMakeFiles/enocean_switch_nrf52840_xxAA_s140_6.0.0.dir/__/__/mesh/core/src/net_beacon.c.obj
 .ARM.attributes
                0x00000b5f       0x39 examples/enocean_switch/CMakeFiles/enocean_switch_nrf52840_xxAA_s140_6.0.0.dir/__/__/mesh/core/src/core_tx_adv.c.obj
 .ARM.attributes
                0x00000b98       0x39 examples/enocean_switch/CMakeFiles/enocean_switch_nrf52840_xxAA_s140_6.0.0.dir/__/__/mesh/bearer/src/ad_listener.c.obj
 .ARM.attributes
                0x00000bd1       0x39 examples/enocean_switch/CMakeFiles/enocean_switch_nrf52840_xxAA_s140_6.0.0.dir/__/__/mesh/bearer/src/ad_type_filter.c.obj
 .ARM.attributes
                0x00000c0a       0x39 examples/enocean_switch/CMakeFiles/enocean_switch_nrf52840_xxAA_s140_6.0.0.dir/__/__/mesh/bearer/src/advertiser.c.obj
 .ARM.attributes
                0x00000c43       0x39 examples/enocean_switch/CMakeFiles/enocean_switch_nrf52840_xxAA_s140_6.0.0.dir/__/__/mesh/bearer/src/bearer_handler.c.obj
 .ARM.attributes
                0x00000c7c       0x39 examples/enocean_switch/CMakeFiles/enocean_switch_nrf52840_xxAA_s140_6.0.0.dir/__/__/mesh/bearer/src/broadcast.c.obj
 .ARM.attributes
                0x00000cb5       0x39 examples/enocean_switch/CMakeFiles/enocean_switch_nrf52840_xxAA_s140_6.0.0.dir/__/__/mesh/bearer/src/filter_engine.c.obj
 .ARM.attributes
                0x00000cee       0x39 examples/enocean_switch/CMakeFiles/enocean_switch_nrf52840_xxAA_s140_6.0.0.dir/__/__/mesh/bearer/src/radio_config.c.obj
 .ARM.attributes
                0x00000d27       0x39 examples/enocean_switch/CMakeFiles/enocean_switch_nrf52840_xxAA_s140_6.0.0.dir/__/__/mesh/bearer/src/scanner.c.obj
 .ARM.attributes
                0x00000d60       0x39 examples/enocean_switch/CMakeFiles/enocean_switch_nrf52840_xxAA_s140_6.0.0.dir/__/__/mesh/bearer/src/mesh_pa_lna.c.obj
 .ARM.attributes
                0x00000d99       0x39 examples/enocean_switch/CMakeFiles/enocean_switch_nrf52840_xxAA_s140_6.0.0.dir/__/__/models/simple_on_off/src/simple_on_off_client.c.obj
 .ARM.attributes
                0x00000dd2       0x39 examples/enocean_switch/CMakeFiles/enocean_switch_nrf52840_xxAA_s140_6.0.0.dir/__/__/models/config/src/composition_data.c.obj
 .ARM.attributes
                0x00000e0b       0x39 examples/enocean_switch/CMakeFiles/enocean_switch_nrf52840_xxAA_s140_6.0.0.dir/__/__/models/config/src/config_server.c.obj
 .ARM.attributes
                0x00000e44       0x39 examples/enocean_switch/CMakeFiles/enocean_switch_nrf52840_xxAA_s140_6.0.0.dir/__/__/models/config/src/packed_index_list.c.obj
 .ARM.attributes
                0x00000e7d       0x39 examples/enocean_switch/CMakeFiles/enocean_switch_nrf52840_xxAA_s140_6.0.0.dir/__/__/models/health/src/health_server.c.obj
 .ARM.attributes
                0x00000eb6       0x39 examples/enocean_switch/CMakeFiles/enocean_switch_nrf52840_xxAA_s140_6.0.0.dir/__/__/mesh/access/src/access_publish.c.obj
 .ARM.attributes
                0x00000eef       0x39 examples/enocean_switch/CMakeFiles/enocean_switch_nrf52840_xxAA_s140_6.0.0.dir/__/__/mesh/access/src/access.c.obj
 .ARM.attributes
                0x00000f28       0x39 examples/enocean_switch/CMakeFiles/enocean_switch_nrf52840_xxAA_s140_6.0.0.dir/__/__/mesh/access/src/access_reliable.c.obj
 .ARM.attributes
                0x00000f61       0x39 examples/enocean_switch/CMakeFiles/enocean_switch_nrf52840_xxAA_s140_6.0.0.dir/__/__/mesh/access/src/access_loopback.c.obj
 .ARM.attributes
                0x00000f9a       0x39 examples/enocean_switch/CMakeFiles/enocean_switch_nrf52840_xxAA_s140_6.0.0.dir/__/__/mesh/access/src/device_state_manager.c.obj
 .ARM.attributes
                0x00000fd3       0x39 examples/enocean_switch/CMakeFiles/enocean_switch_nrf52840_xxAA_s140_6.0.0.dir/__/__/mesh/prov/src/prov_provisionee.c.obj
 .ARM.attributes
                0x0000100c       0x39 examples/enocean_switch/CMakeFiles/enocean_switch_nrf52840_xxAA_s140_6.0.0.dir/__/__/mesh/prov/src/nrf_mesh_prov.c.obj
 .ARM.attributes
                0x00001045       0x39 examples/enocean_switch/CMakeFiles/enocean_switch_nrf52840_xxAA_s140_6.0.0.dir/__/__/mesh/prov/src/provisioning.c.obj
 .ARM.attributes
                0x0000107e       0x39 examples/enocean_switch/CMakeFiles/enocean_switch_nrf52840_xxAA_s140_6.0.0.dir/__/__/mesh/prov/src/prov_beacon.c.obj
 .ARM.attributes
                0x000010b7       0x39 examples/enocean_switch/CMakeFiles/enocean_switch_nrf52840_xxAA_s140_6.0.0.dir/__/__/mesh/prov/src/prov_utils.c.obj
 .ARM.attributes
                0x000010f0       0x39 examples/enocean_switch/CMakeFiles/enocean_switch_nrf52840_xxAA_s140_6.0.0.dir/__/__/mesh/prov/src/prov_bearer_adv.c.obj
 .ARM.attributes
                0x00001129       0x39 examples/enocean_switch/CMakeFiles/enocean_switch_nrf52840_xxAA_s140_6.0.0.dir/C_/b/nRF5_SDK_15.0.0_a53641a/modules/nrfx/mdk/system_nrf52840.c.obj
 .ARM.attributes
                0x00001162       0x20 examples/enocean_switch/CMakeFiles/enocean_switch_nrf52840_xxAA_s140_6.0.0.dir/C_/b/nRF5_SDK_15.0.0_a53641a/modules/nrfx/mdk/gcc_startup_nrf52840.S.obj
 .ARM.attributes
                0x00001182       0x39 examples/enocean_switch/CMakeFiles/enocean_switch_nrf52840_xxAA_s140_6.0.0.dir/C_/b/nRF5_SDK_15.0.0_a53641a/components/libraries/util/app_error.c.obj
 .ARM.attributes
                0x000011bb       0x39 examples/enocean_switch/CMakeFiles/enocean_switch_nrf52840_xxAA_s140_6.0.0.dir/C_/b/nRF5_SDK_15.0.0_a53641a/components/libraries/util/app_util_platform.c.obj
 .ARM.attributes
                0x000011f4       0x39 examples/enocean_switch/CMakeFiles/enocean_switch_nrf52840_xxAA_s140_6.0.0.dir/C_/b/nRF5_SDK_15.0.0_a53641a/components/libraries/timer/app_timer.c.obj
 .ARM.attributes
                0x0000122d       0x39 examples/enocean_switch/CMakeFiles/enocean_switch_nrf52840_xxAA_s140_6.0.0.dir/C_/b/nRF5_SDK_15.0.0_a53641a/components/libraries/util/app_error_handler_gcc.c.obj
 .ARM.attributes
                0x00001266       0x39 external/rtt/librtt_nrf52840_xxAA.a(SEGGER_RTT.c.obj)
 .ARM.attributes
                0x0000129f       0x39 external/rtt/librtt_nrf52840_xxAA.a(SEGGER_RTT_printf.c.obj)
 .ARM.attributes
                0x000012d8       0x39 external/micro-ecc/libuECC_nrf52840_xxAA.a(uECC.c.obj)
 .ARM.attributes
                0x00001311       0x22 c:/mesh/arm_gcc/bin/../lib/gcc/arm-none-eabi/6.3.1/thumb/v7e-m/fpv4-sp/hard\libgcc.a(_aeabi_uldivmod.o)
 .ARM.attributes
                0x00001333       0x34 c:/mesh/arm_gcc/bin/../lib/gcc/arm-none-eabi/6.3.1/thumb/v7e-m/fpv4-sp/hard\libgcc.a(_udivmoddi4.o)
 .ARM.attributes
                0x00001367       0x22 c:/mesh/arm_gcc/bin/../lib/gcc/arm-none-eabi/6.3.1/thumb/v7e-m/fpv4-sp/hard\libgcc.a(_dvmd_tls.o)
 .ARM.attributes
                0x00001389       0x34 c:/mesh/arm_gcc/bin/../lib/gcc/arm-none-eabi/6.3.1/../../../../arm-none-eabi/lib/thumb/v7e-m/fpv4-sp/hard\libg_nano.a(lib_a-exit.o)
 .ARM.attributes
                0x000013bd       0x34 c:/mesh/arm_gcc/bin/../lib/gcc/arm-none-eabi/6.3.1/../../../../arm-none-eabi/lib/thumb/v7e-m/fpv4-sp/hard\libg_nano.a(lib_a-impure.o)
 .ARM.attributes
                0x000013f1       0x34 c:/mesh/arm_gcc/bin/../lib/gcc/arm-none-eabi/6.3.1/../../../../arm-none-eabi/lib/thumb/v7e-m/fpv4-sp/hard\libg_nano.a(lib_a-init.o)
 .ARM.attributes
                0x00001425       0x34 c:/mesh/arm_gcc/bin/../lib/gcc/arm-none-eabi/6.3.1/../../../../arm-none-eabi/lib/thumb/v7e-m/fpv4-sp/hard\libg_nano.a(lib_a-malloc.o)
 .ARM.attributes
                0x00001459       0x34 c:/mesh/arm_gcc/bin/../lib/gcc/arm-none-eabi/6.3.1/../../../../arm-none-eabi/lib/thumb/v7e-m/fpv4-sp/hard\libg_nano.a(lib_a-memcmp.o)
 .ARM.attributes
                0x0000148d       0x34 c:/mesh/arm_gcc/bin/../lib/gcc/arm-none-eabi/6.3.1/../../../../arm-none-eabi/lib/thumb/v7e-m/fpv4-sp/hard\libg_nano.a(lib_a-memcpy-stub.o)
 .ARM.attributes
                0x000014c1       0x34 c:/mesh/arm_gcc/bin/../lib/gcc/arm-none-eabi/6.3.1/../../../../arm-none-eabi/lib/thumb/v7e-m/fpv4-sp/hard\libg_nano.a(lib_a-memset.o)
 .ARM.attributes
                0x000014f5       0x34 c:/mesh/arm_gcc/bin/../lib/gcc/arm-none-eabi/6.3.1/../../../../arm-none-eabi/lib/thumb/v7e-m/fpv4-sp/hard\libg_nano.a(lib_a-nano-freer.o)
 .ARM.attributes
                0x00001529       0x34 c:/mesh/arm_gcc/bin/../lib/gcc/arm-none-eabi/6.3.1/../../../../arm-none-eabi/lib/thumb/v7e-m/fpv4-sp/hard\libg_nano.a(lib_a-nano-mallocr.o)
 .ARM.attributes
                0x0000155d       0x34 c:/mesh/arm_gcc/bin/../lib/gcc/arm-none-eabi/6.3.1/../../../../arm-none-eabi/lib/thumb/v7e-m/fpv4-sp/hard\libg_nano.a(lib_a-sbrkr.o)
 .ARM.attributes
                0x00001591       0x34 c:/mesh/arm_gcc/bin/../lib/gcc/arm-none-eabi/6.3.1/../../../../arm-none-eabi/lib/thumb/v7e-m/fpv4-sp/hard\libg_nano.a(lib_a-strcpy.o)
 .ARM.attributes
                0x000015c5       0x1b c:/mesh/arm_gcc/bin/../lib/gcc/arm-none-eabi/6.3.1/../../../../arm-none-eabi/lib/thumb/v7e-m/fpv4-sp/hard\libg_nano.a(lib_a-strlen.o)
 .ARM.attributes
                0x000015e0       0x34 c:/mesh/arm_gcc/bin/../lib/gcc/arm-none-eabi/6.3.1/../../../../arm-none-eabi/lib/thumb/v7e-m/fpv4-sp/hard\libg_nano.a(lib_a-strrchr.o)
 .ARM.attributes
                0x00001614       0x34 c:/mesh/arm_gcc/bin/../lib/gcc/arm-none-eabi/6.3.1/../../../../arm-none-eabi/lib/thumb/v7e-m/fpv4-sp/hard\libg_nano.a(lib_a-mlock.o)
 .ARM.attributes
                0x00001648       0x34 c:/mesh/arm_gcc/bin/../lib/gcc/arm-none-eabi/6.3.1/../../../../arm-none-eabi/lib/thumb/v7e-m/fpv4-sp/hard\libg_nano.a(lib_a-reent.o)
 .ARM.attributes
                0x0000167c       0x34 c:/mesh/arm_gcc/bin/../lib/gcc/arm-none-eabi/6.3.1/../../../../arm-none-eabi/lib/thumb/v7e-m/fpv4-sp/hard\libg_nano.a(lib_a-strchr.o)
 .ARM.attributes
                0x000016b0       0x34 c:/mesh/arm_gcc/bin/../lib/gcc/arm-none-eabi/6.3.1/thumb/v7e-m/fpv4-sp/hard/crtend.o
 .ARM.attributes
                0x000016e4       0x22 c:/mesh/arm_gcc/bin/../lib/gcc/arm-none-eabi/6.3.1/thumb/v7e-m/fpv4-sp/hard/crtn.o
 .ARM.attributes
                0x00001706       0x34 c:/mesh/arm_gcc/bin/../lib/gcc/arm-none-eabi/6.3.1/../../../../arm-none-eabi/lib/thumb/v7e-m/fpv4-sp/hard\libnosys.a(sbrk.o)
 .ARM.attributes
                0x0000173a       0x34 c:/mesh/arm_gcc/bin/../lib/gcc/arm-none-eabi/6.3.1/../../../../arm-none-eabi/lib/thumb/v7e-m/fpv4-sp/hard\libnosys.a(_exit.o)

.comment        0x00000000       0x7f
 .comment       0x00000000       0x7f examples/enocean_switch/CMakeFiles/enocean_switch_nrf52840_xxAA_s140_6.0.0.dir/src/main.c.obj
                                 0x80 (size before relaxing)
 .comment       0x0000007f       0x80 examples/enocean_switch/CMakeFiles/enocean_switch_nrf52840_xxAA_s140_6.0.0.dir/src/enocean.c.obj
 .comment       0x0000007f       0x80 examples/enocean_switch/CMakeFiles/enocean_switch_nrf52840_xxAA_s140_6.0.0.dir/src/flash_helper.c.obj
 .comment       0x0000007f       0x80 examples/enocean_switch/CMakeFiles/enocean_switch_nrf52840_xxAA_s140_6.0.0.dir/__/__/mesh/stack/src/mesh_stack.c.obj
 .comment       0x0000007f       0x80 examples/enocean_switch/CMakeFiles/enocean_switch_nrf52840_xxAA_s140_6.0.0.dir/__/common/src/mesh_softdevice_init.c.obj
 .comment       0x0000007f       0x80 examples/enocean_switch/CMakeFiles/enocean_switch_nrf52840_xxAA_s140_6.0.0.dir/__/common/src/mesh_provisionee.c.obj
 .comment       0x0000007f       0x80 examples/enocean_switch/CMakeFiles/enocean_switch_nrf52840_xxAA_s140_6.0.0.dir/__/common/src/rtt_input.c.obj
 .comment       0x0000007f       0x80 examples/enocean_switch/CMakeFiles/enocean_switch_nrf52840_xxAA_s140_6.0.0.dir/__/common/src/simple_hal.c.obj
 .comment       0x0000007f       0x80 examples/enocean_switch/CMakeFiles/enocean_switch_nrf52840_xxAA_s140_6.0.0.dir/__/nrf_mesh_weak.c.obj
 .comment       0x0000007f       0x80 examples/enocean_switch/CMakeFiles/enocean_switch_nrf52840_xxAA_s140_6.0.0.dir/__/common/src/app_error_weak.c.obj
 .comment       0x0000007f       0x80 examples/enocean_switch/CMakeFiles/enocean_switch_nrf52840_xxAA_s140_6.0.0.dir/__/common/src/assertion_handler_weak.c.obj
 .comment       0x0000007f       0x80 examples/enocean_switch/CMakeFiles/enocean_switch_nrf52840_xxAA_s140_6.0.0.dir/__/__/mesh/core/src/nrf_mesh_configure.c.obj
 .comment       0x0000007f       0x80 examples/enocean_switch/CMakeFiles/enocean_switch_nrf52840_xxAA_s140_6.0.0.dir/__/__/mesh/core/src/msg_cache.c.obj
 .comment       0x0000007f       0x80 examples/enocean_switch/CMakeFiles/enocean_switch_nrf52840_xxAA_s140_6.0.0.dir/__/__/mesh/core/src/transport.c.obj
 .comment       0x0000007f       0x80 examples/enocean_switch/CMakeFiles/enocean_switch_nrf52840_xxAA_s140_6.0.0.dir/__/__/mesh/core/src/event.c.obj
 .comment       0x0000007f       0x80 examples/enocean_switch/CMakeFiles/enocean_switch_nrf52840_xxAA_s140_6.0.0.dir/__/__/mesh/core/src/packet_buffer.c.obj
 .comment       0x0000007f       0x80 examples/enocean_switch/CMakeFiles/enocean_switch_nrf52840_xxAA_s140_6.0.0.dir/__/__/mesh/core/src/flash_manager_defrag.c.obj
 .comment       0x0000007f       0x80 examples/enocean_switch/CMakeFiles/enocean_switch_nrf52840_xxAA_s140_6.0.0.dir/__/__/mesh/core/src/fifo.c.obj
 .comment       0x0000007f       0x80 examples/enocean_switch/CMakeFiles/enocean_switch_nrf52840_xxAA_s140_6.0.0.dir/__/__/mesh/core/src/nrf_flash.c.obj
 .comment       0x0000007f       0x80 examples/enocean_switch/CMakeFiles/enocean_switch_nrf52840_xxAA_s140_6.0.0.dir/__/__/mesh/core/src/packet_mgr.c.obj
 .comment       0x0000007f       0x80 examples/enocean_switch/CMakeFiles/enocean_switch_nrf52840_xxAA_s140_6.0.0.dir/__/__/mesh/core/src/net_state.c.obj
 .comment       0x0000007f       0x80 examples/enocean_switch/CMakeFiles/enocean_switch_nrf52840_xxAA_s140_6.0.0.dir/__/__/mesh/core/src/mesh_flash.c.obj
 .comment       0x0000007f       0x80 examples/enocean_switch/CMakeFiles/enocean_switch_nrf52840_xxAA_s140_6.0.0.dir/__/__/mesh/core/src/nrf_mesh_utils.c.obj
 .comment       0x0000007f       0x80 examples/enocean_switch/CMakeFiles/enocean_switch_nrf52840_xxAA_s140_6.0.0.dir/__/__/mesh/core/src/nrf_mesh.c.obj
 .comment       0x0000007f       0x80 examples/enocean_switch/CMakeFiles/enocean_switch_nrf52840_xxAA_s140_6.0.0.dir/__/__/mesh/core/src/queue.c.obj
 .comment       0x0000007f       0x80 examples/enocean_switch/CMakeFiles/enocean_switch_nrf52840_xxAA_s140_6.0.0.dir/__/__/mesh/core/src/hal.c.obj
 .comment       0x0000007f       0x80 examples/enocean_switch/CMakeFiles/enocean_switch_nrf52840_xxAA_s140_6.0.0.dir/__/__/mesh/core/src/aes_cmac.c.obj
 .comment       0x0000007f       0x80 examples/enocean_switch/CMakeFiles/enocean_switch_nrf52840_xxAA_s140_6.0.0.dir/__/__/mesh/core/src/timer_scheduler.c.obj
 .comment       0x0000007f       0x80 examples/enocean_switch/CMakeFiles/enocean_switch_nrf52840_xxAA_s140_6.0.0.dir/__/__/mesh/core/src/timer.c.obj
 .comment       0x0000007f       0x80 examples/enocean_switch/CMakeFiles/enocean_switch_nrf52840_xxAA_s140_6.0.0.dir/__/__/mesh/core/src/ticker.c.obj
 .comment       0x0000007f       0x80 examples/enocean_switch/CMakeFiles/enocean_switch_nrf52840_xxAA_s140_6.0.0.dir/__/__/mesh/core/src/rand.c.obj
 .comment       0x0000007f       0x80 examples/enocean_switch/CMakeFiles/enocean_switch_nrf52840_xxAA_s140_6.0.0.dir/__/__/mesh/core/src/nrf_mesh_opt.c.obj
 .comment       0x0000007f       0x80 examples/enocean_switch/CMakeFiles/enocean_switch_nrf52840_xxAA_s140_6.0.0.dir/__/__/mesh/core/src/timeslot.c.obj
 .comment       0x0000007f       0x80 examples/enocean_switch/CMakeFiles/enocean_switch_nrf52840_xxAA_s140_6.0.0.dir/__/__/mesh/core/src/bearer_event.c.obj
 .comment       0x0000007f       0x80 examples/enocean_switch/CMakeFiles/enocean_switch_nrf52840_xxAA_s140_6.0.0.dir/__/__/mesh/core/src/enc.c.obj
 .comment       0x0000007f       0x80 examples/enocean_switch/CMakeFiles/enocean_switch_nrf52840_xxAA_s140_6.0.0.dir/__/__/mesh/core/src/network.c.obj
 .comment       0x0000007f       0x80 examples/enocean_switch/CMakeFiles/enocean_switch_nrf52840_xxAA_s140_6.0.0.dir/__/__/mesh/core/src/net_packet.c.obj
 .comment       0x0000007f       0x80 examples/enocean_switch/CMakeFiles/enocean_switch_nrf52840_xxAA_s140_6.0.0.dir/__/__/mesh/core/src/msqueue.c.obj
 .comment       0x0000007f       0x80 examples/enocean_switch/CMakeFiles/enocean_switch_nrf52840_xxAA_s140_6.0.0.dir/__/__/mesh/core/src/nrf_mesh_keygen.c.obj
 .comment       0x0000007f       0x80 examples/enocean_switch/CMakeFiles/enocean_switch_nrf52840_xxAA_s140_6.0.0.dir/__/__/mesh/core/src/list.c.obj
 .comment       0x0000007f       0x80 examples/enocean_switch/CMakeFiles/enocean_switch_nrf52840_xxAA_s140_6.0.0.dir/__/__/mesh/core/src/log.c.obj
 .comment       0x0000007f       0x80 examples/enocean_switch/CMakeFiles/enocean_switch_nrf52840_xxAA_s140_6.0.0.dir/__/__/mesh/core/src/flash_manager.c.obj
 .comment       0x0000007f       0x80 examples/enocean_switch/CMakeFiles/enocean_switch_nrf52840_xxAA_s140_6.0.0.dir/__/__/mesh/core/src/ccm_soft.c.obj
 .comment       0x0000007f       0x80 examples/enocean_switch/CMakeFiles/enocean_switch_nrf52840_xxAA_s140_6.0.0.dir/__/__/mesh/core/src/replay_cache.c.obj
 .comment       0x0000007f       0x80 examples/enocean_switch/CMakeFiles/enocean_switch_nrf52840_xxAA_s140_6.0.0.dir/__/__/mesh/core/src/beacon.c.obj
 .comment       0x0000007f       0x80 examples/enocean_switch/CMakeFiles/enocean_switch_nrf52840_xxAA_s140_6.0.0.dir/__/__/mesh/core/src/flash_manager_internal.c.obj
 .comment       0x0000007f       0x80 examples/enocean_switch/CMakeFiles/enocean_switch_nrf52840_xxAA_s140_6.0.0.dir/__/__/mesh/core/src/core_tx.c.obj
 .comment       0x0000007f       0x80 examples/enocean_switch/CMakeFiles/enocean_switch_nrf52840_xxAA_s140_6.0.0.dir/__/__/mesh/core/src/heartbeat.c.obj
 .comment       0x0000007f       0x80 examples/enocean_switch/CMakeFiles/enocean_switch_nrf52840_xxAA_s140_6.0.0.dir/__/__/mesh/core/src/net_beacon.c.obj
 .comment       0x0000007f       0x80 examples/enocean_switch/CMakeFiles/enocean_switch_nrf52840_xxAA_s140_6.0.0.dir/__/__/mesh/core/src/core_tx_adv.c.obj
 .comment       0x0000007f       0x80 examples/enocean_switch/CMakeFiles/enocean_switch_nrf52840_xxAA_s140_6.0.0.dir/__/__/mesh/bearer/src/ad_listener.c.obj
 .comment       0x0000007f       0x80 examples/enocean_switch/CMakeFiles/enocean_switch_nrf52840_xxAA_s140_6.0.0.dir/__/__/mesh/bearer/src/ad_type_filter.c.obj
 .comment       0x0000007f       0x80 examples/enocean_switch/CMakeFiles/enocean_switch_nrf52840_xxAA_s140_6.0.0.dir/__/__/mesh/bearer/src/advertiser.c.obj
 .comment       0x0000007f       0x80 examples/enocean_switch/CMakeFiles/enocean_switch_nrf52840_xxAA_s140_6.0.0.dir/__/__/mesh/bearer/src/bearer_handler.c.obj
 .comment       0x0000007f       0x80 examples/enocean_switch/CMakeFiles/enocean_switch_nrf52840_xxAA_s140_6.0.0.dir/__/__/mesh/bearer/src/broadcast.c.obj
 .comment       0x0000007f       0x80 examples/enocean_switch/CMakeFiles/enocean_switch_nrf52840_xxAA_s140_6.0.0.dir/__/__/mesh/bearer/src/filter_engine.c.obj
 .comment       0x0000007f       0x80 examples/enocean_switch/CMakeFiles/enocean_switch_nrf52840_xxAA_s140_6.0.0.dir/__/__/mesh/bearer/src/radio_config.c.obj
 .comment       0x0000007f       0x80 examples/enocean_switch/CMakeFiles/enocean_switch_nrf52840_xxAA_s140_6.0.0.dir/__/__/mesh/bearer/src/scanner.c.obj
 .comment       0x0000007f       0x80 examples/enocean_switch/CMakeFiles/enocean_switch_nrf52840_xxAA_s140_6.0.0.dir/__/__/mesh/bearer/src/mesh_pa_lna.c.obj
 .comment       0x0000007f       0x80 examples/enocean_switch/CMakeFiles/enocean_switch_nrf52840_xxAA_s140_6.0.0.dir/__/__/models/simple_on_off/src/simple_on_off_client.c.obj
 .comment       0x0000007f       0x80 examples/enocean_switch/CMakeFiles/enocean_switch_nrf52840_xxAA_s140_6.0.0.dir/__/__/models/config/src/composition_data.c.obj
 .comment       0x0000007f       0x80 examples/enocean_switch/CMakeFiles/enocean_switch_nrf52840_xxAA_s140_6.0.0.dir/__/__/models/config/src/config_server.c.obj
 .comment       0x0000007f       0x80 examples/enocean_switch/CMakeFiles/enocean_switch_nrf52840_xxAA_s140_6.0.0.dir/__/__/models/config/src/packed_index_list.c.obj
 .comment       0x0000007f       0x80 examples/enocean_switch/CMakeFiles/enocean_switch_nrf52840_xxAA_s140_6.0.0.dir/__/__/models/health/src/health_server.c.obj
 .comment       0x0000007f       0x80 examples/enocean_switch/CMakeFiles/enocean_switch_nrf52840_xxAA_s140_6.0.0.dir/__/__/mesh/access/src/access_publish.c.obj
 .comment       0x0000007f       0x80 examples/enocean_switch/CMakeFiles/enocean_switch_nrf52840_xxAA_s140_6.0.0.dir/__/__/mesh/access/src/access.c.obj
 .comment       0x0000007f       0x80 examples/enocean_switch/CMakeFiles/enocean_switch_nrf52840_xxAA_s140_6.0.0.dir/__/__/mesh/access/src/access_reliable.c.obj
 .comment       0x0000007f       0x80 examples/enocean_switch/CMakeFiles/enocean_switch_nrf52840_xxAA_s140_6.0.0.dir/__/__/mesh/access/src/access_loopback.c.obj
 .comment       0x0000007f       0x80 examples/enocean_switch/CMakeFiles/enocean_switch_nrf52840_xxAA_s140_6.0.0.dir/__/__/mesh/access/src/device_state_manager.c.obj
 .comment       0x0000007f       0x80 examples/enocean_switch/CMakeFiles/enocean_switch_nrf52840_xxAA_s140_6.0.0.dir/__/__/mesh/prov/src/prov_provisionee.c.obj
 .comment       0x0000007f       0x80 examples/enocean_switch/CMakeFiles/enocean_switch_nrf52840_xxAA_s140_6.0.0.dir/__/__/mesh/prov/src/nrf_mesh_prov.c.obj
 .comment       0x0000007f       0x80 examples/enocean_switch/CMakeFiles/enocean_switch_nrf52840_xxAA_s140_6.0.0.dir/__/__/mesh/prov/src/provisioning.c.obj
 .comment       0x0000007f       0x80 examples/enocean_switch/CMakeFiles/enocean_switch_nrf52840_xxAA_s140_6.0.0.dir/__/__/mesh/prov/src/prov_beacon.c.obj
 .comment       0x0000007f       0x80 examples/enocean_switch/CMakeFiles/enocean_switch_nrf52840_xxAA_s140_6.0.0.dir/__/__/mesh/prov/src/prov_utils.c.obj
 .comment       0x0000007f       0x80 examples/enocean_switch/CMakeFiles/enocean_switch_nrf52840_xxAA_s140_6.0.0.dir/__/__/mesh/prov/src/prov_bearer_adv.c.obj
 .comment       0x0000007f       0x80 examples/enocean_switch/CMakeFiles/enocean_switch_nrf52840_xxAA_s140_6.0.0.dir/C_/b/nRF5_SDK_15.0.0_a53641a/modules/nrfx/mdk/system_nrf52840.c.obj
 .comment       0x0000007f       0x80 examples/enocean_switch/CMakeFiles/enocean_switch_nrf52840_xxAA_s140_6.0.0.dir/C_/b/nRF5_SDK_15.0.0_a53641a/components/libraries/util/app_error.c.obj
 .comment       0x0000007f       0x80 examples/enocean_switch/CMakeFiles/enocean_switch_nrf52840_xxAA_s140_6.0.0.dir/C_/b/nRF5_SDK_15.0.0_a53641a/components/libraries/util/app_util_platform.c.obj
 .comment       0x0000007f       0x80 examples/enocean_switch/CMakeFiles/enocean_switch_nrf52840_xxAA_s140_6.0.0.dir/C_/b/nRF5_SDK_15.0.0_a53641a/components/libraries/timer/app_timer.c.obj
 .comment       0x0000007f       0x80 examples/enocean_switch/CMakeFiles/enocean_switch_nrf52840_xxAA_s140_6.0.0.dir/C_/b/nRF5_SDK_15.0.0_a53641a/components/libraries/util/app_error_handler_gcc.c.obj
 .comment       0x0000007f       0x80 external/rtt/librtt_nrf52840_xxAA.a(SEGGER_RTT.c.obj)
 .comment       0x0000007f       0x80 external/rtt/librtt_nrf52840_xxAA.a(SEGGER_RTT_printf.c.obj)
 .comment       0x0000007f       0x80 external/micro-ecc/libuECC_nrf52840_xxAA.a(uECC.c.obj)

.debug_info     0x00000000    0x88f79
 .debug_info    0x00000000     0x42a4 examples/enocean_switch/CMakeFiles/enocean_switch_nrf52840_xxAA_s140_6.0.0.dir/src/main.c.obj
 .debug_info    0x000042a4     0x188e examples/enocean_switch/CMakeFiles/enocean_switch_nrf52840_xxAA_s140_6.0.0.dir/src/enocean.c.obj
 .debug_info    0x00005b32     0x1705 examples/enocean_switch/CMakeFiles/enocean_switch_nrf52840_xxAA_s140_6.0.0.dir/src/flash_helper.c.obj
 .debug_info    0x00007237     0x2332 examples/enocean_switch/CMakeFiles/enocean_switch_nrf52840_xxAA_s140_6.0.0.dir/__/__/mesh/stack/src/mesh_stack.c.obj
 .debug_info    0x00009569     0x1bac examples/enocean_switch/CMakeFiles/enocean_switch_nrf52840_xxAA_s140_6.0.0.dir/__/common/src/mesh_softdevice_init.c.obj
 .debug_info    0x0000b115     0x21a6 examples/enocean_switch/CMakeFiles/enocean_switch_nrf52840_xxAA_s140_6.0.0.dir/__/common/src/mesh_provisionee.c.obj
 .debug_info    0x0000d2bb      0xd57 examples/enocean_switch/CMakeFiles/enocean_switch_nrf52840_xxAA_s140_6.0.0.dir/__/common/src/rtt_input.c.obj
 .debug_info    0x0000e012     0x1623 examples/enocean_switch/CMakeFiles/enocean_switch_nrf52840_xxAA_s140_6.0.0.dir/__/common/src/simple_hal.c.obj
 .debug_info    0x0000f635      0x924 examples/enocean_switch/CMakeFiles/enocean_switch_nrf52840_xxAA_s140_6.0.0.dir/__/nrf_mesh_weak.c.obj
 .debug_info    0x0000ff59     0x106b examples/enocean_switch/CMakeFiles/enocean_switch_nrf52840_xxAA_s140_6.0.0.dir/__/common/src/app_error_weak.c.obj
 .debug_info    0x00010fc4      0x99b examples/enocean_switch/CMakeFiles/enocean_switch_nrf52840_xxAA_s140_6.0.0.dir/__/common/src/assertion_handler_weak.c.obj
 .debug_info    0x0001195f      0xdff examples/enocean_switch/CMakeFiles/enocean_switch_nrf52840_xxAA_s140_6.0.0.dir/__/__/mesh/core/src/nrf_mesh_configure.c.obj
 .debug_info    0x0001275e      0xa5a examples/enocean_switch/CMakeFiles/enocean_switch_nrf52840_xxAA_s140_6.0.0.dir/__/__/mesh/core/src/msg_cache.c.obj
 .debug_info    0x000131b8     0x5091 examples/enocean_switch/CMakeFiles/enocean_switch_nrf52840_xxAA_s140_6.0.0.dir/__/__/mesh/core/src/transport.c.obj
 .debug_info    0x00018249     0x17e1 examples/enocean_switch/CMakeFiles/enocean_switch_nrf52840_xxAA_s140_6.0.0.dir/__/__/mesh/core/src/event.c.obj
 .debug_info    0x00019a2a     0x1a22 examples/enocean_switch/CMakeFiles/enocean_switch_nrf52840_xxAA_s140_6.0.0.dir/__/__/mesh/core/src/packet_buffer.c.obj
 .debug_info    0x0001b44c     0x212b examples/enocean_switch/CMakeFiles/enocean_switch_nrf52840_xxAA_s140_6.0.0.dir/__/__/mesh/core/src/flash_manager_defrag.c.obj
 .debug_info    0x0001d577      0xd19 examples/enocean_switch/CMakeFiles/enocean_switch_nrf52840_xxAA_s140_6.0.0.dir/__/__/mesh/core/src/fifo.c.obj
 .debug_info    0x0001e290      0xb58 examples/enocean_switch/CMakeFiles/enocean_switch_nrf52840_xxAA_s140_6.0.0.dir/__/__/mesh/core/src/nrf_flash.c.obj
 .debug_info    0x0001ede8     0x118d examples/enocean_switch/CMakeFiles/enocean_switch_nrf52840_xxAA_s140_6.0.0.dir/__/__/mesh/core/src/packet_mgr.c.obj
 .debug_info    0x0001ff75     0x2825 examples/enocean_switch/CMakeFiles/enocean_switch_nrf52840_xxAA_s140_6.0.0.dir/__/__/mesh/core/src/net_state.c.obj
 .debug_info    0x0002279a     0x1948 examples/enocean_switch/CMakeFiles/enocean_switch_nrf52840_xxAA_s140_6.0.0.dir/__/__/mesh/core/src/mesh_flash.c.obj
 .debug_info    0x000240e2      0xa78 examples/enocean_switch/CMakeFiles/enocean_switch_nrf52840_xxAA_s140_6.0.0.dir/__/__/mesh/core/src/nrf_mesh_utils.c.obj
 .debug_info    0x00024b5a     0x25db examples/enocean_switch/CMakeFiles/enocean_switch_nrf52840_xxAA_s140_6.0.0.dir/__/__/mesh/core/src/nrf_mesh.c.obj
 .debug_info    0x00027135      0xb11 examples/enocean_switch/CMakeFiles/enocean_switch_nrf52840_xxAA_s140_6.0.0.dir/__/__/mesh/core/src/queue.c.obj
 .debug_info    0x00027c46      0x51a examples/enocean_switch/CMakeFiles/enocean_switch_nrf52840_xxAA_s140_6.0.0.dir/__/__/mesh/core/src/hal.c.obj
 .debug_info    0x00028160      0xf6a examples/enocean_switch/CMakeFiles/enocean_switch_nrf52840_xxAA_s140_6.0.0.dir/__/__/mesh/core/src/aes_cmac.c.obj
 .debug_info    0x000290ca     0x10e0 examples/enocean_switch/CMakeFiles/enocean_switch_nrf52840_xxAA_s140_6.0.0.dir/__/__/mesh/core/src/timer_scheduler.c.obj
 .debug_info    0x0002a1aa      0xdb4 examples/enocean_switch/CMakeFiles/enocean_switch_nrf52840_xxAA_s140_6.0.0.dir/__/__/mesh/core/src/timer.c.obj
 .debug_info    0x0002af5e      0x20b examples/enocean_switch/CMakeFiles/enocean_switch_nrf52840_xxAA_s140_6.0.0.dir/__/__/mesh/core/src/ticker.c.obj
 .debug_info    0x0002b169      0x426 examples/enocean_switch/CMakeFiles/enocean_switch_nrf52840_xxAA_s140_6.0.0.dir/__/__/mesh/core/src/rand.c.obj
 .debug_info    0x0002b58f      0xb03 examples/enocean_switch/CMakeFiles/enocean_switch_nrf52840_xxAA_s140_6.0.0.dir/__/__/mesh/core/src/nrf_mesh_opt.c.obj
 .debug_info    0x0002c092     0x1a71 examples/enocean_switch/CMakeFiles/enocean_switch_nrf52840_xxAA_s140_6.0.0.dir/__/__/mesh/core/src/timeslot.c.obj
 .debug_info    0x0002db03     0x1a9c examples/enocean_switch/CMakeFiles/enocean_switch_nrf52840_xxAA_s140_6.0.0.dir/__/__/mesh/core/src/bearer_event.c.obj
 .debug_info    0x0002f59f     0x1929 examples/enocean_switch/CMakeFiles/enocean_switch_nrf52840_xxAA_s140_6.0.0.dir/__/__/mesh/core/src/enc.c.obj
 .debug_info    0x00030ec8     0x1b5f examples/enocean_switch/CMakeFiles/enocean_switch_nrf52840_xxAA_s140_6.0.0.dir/__/__/mesh/core/src/network.c.obj
 .debug_info    0x00032a27     0x1cad examples/enocean_switch/CMakeFiles/enocean_switch_nrf52840_xxAA_s140_6.0.0.dir/__/__/mesh/core/src/net_packet.c.obj
 .debug_info    0x000346d4      0xd86 examples/enocean_switch/CMakeFiles/enocean_switch_nrf52840_xxAA_s140_6.0.0.dir/__/__/mesh/core/src/msqueue.c.obj
 .debug_info    0x0003545a      0x4c8 examples/enocean_switch/CMakeFiles/enocean_switch_nrf52840_xxAA_s140_6.0.0.dir/__/__/mesh/core/src/nrf_mesh_keygen.c.obj
 .debug_info    0x00035922      0x506 examples/enocean_switch/CMakeFiles/enocean_switch_nrf52840_xxAA_s140_6.0.0.dir/__/__/mesh/core/src/list.c.obj
 .debug_info    0x00035e28      0xe28 examples/enocean_switch/CMakeFiles/enocean_switch_nrf52840_xxAA_s140_6.0.0.dir/__/__/mesh/core/src/log.c.obj
 .debug_info    0x00036c50     0x3024 examples/enocean_switch/CMakeFiles/enocean_switch_nrf52840_xxAA_s140_6.0.0.dir/__/__/mesh/core/src/flash_manager.c.obj
 .debug_info    0x00039c74     0x12e6 examples/enocean_switch/CMakeFiles/enocean_switch_nrf52840_xxAA_s140_6.0.0.dir/__/__/mesh/core/src/ccm_soft.c.obj
 .debug_info    0x0003af5a      0xa93 examples/enocean_switch/CMakeFiles/enocean_switch_nrf52840_xxAA_s140_6.0.0.dir/__/__/mesh/core/src/replay_cache.c.obj
 .debug_info    0x0003b9ed     0x17b4 examples/enocean_switch/CMakeFiles/enocean_switch_nrf52840_xxAA_s140_6.0.0.dir/__/__/mesh/core/src/beacon.c.obj
 .debug_info    0x0003d1a1      0xb9b examples/enocean_switch/CMakeFiles/enocean_switch_nrf52840_xxAA_s140_6.0.0.dir/__/__/mesh/core/src/flash_manager_internal.c.obj
 .debug_info    0x0003dd3c     0x126f examples/enocean_switch/CMakeFiles/enocean_switch_nrf52840_xxAA_s140_6.0.0.dir/__/__/mesh/core/src/core_tx.c.obj
 .debug_info    0x0003efab     0x2520 examples/enocean_switch/CMakeFiles/enocean_switch_nrf52840_xxAA_s140_6.0.0.dir/__/__/mesh/core/src/heartbeat.c.obj
 .debug_info    0x000414cb     0x28e2 examples/enocean_switch/CMakeFiles/enocean_switch_nrf52840_xxAA_s140_6.0.0.dir/__/__/mesh/core/src/net_beacon.c.obj
 .debug_info    0x00043dad     0x1a1f examples/enocean_switch/CMakeFiles/enocean_switch_nrf52840_xxAA_s140_6.0.0.dir/__/__/mesh/core/src/core_tx_adv.c.obj
 .debug_info    0x000457cc     0x115d examples/enocean_switch/CMakeFiles/enocean_switch_nrf52840_xxAA_s140_6.0.0.dir/__/__/mesh/bearer/src/ad_listener.c.obj
 .debug_info    0x00046929      0xfbe examples/enocean_switch/CMakeFiles/enocean_switch_nrf52840_xxAA_s140_6.0.0.dir/__/__/mesh/bearer/src/ad_type_filter.c.obj
 .debug_info    0x000478e7     0x270e examples/enocean_switch/CMakeFiles/enocean_switch_nrf52840_xxAA_s140_6.0.0.dir/__/__/mesh/bearer/src/advertiser.c.obj
 .debug_info    0x00049ff5     0x231a examples/enocean_switch/CMakeFiles/enocean_switch_nrf52840_xxAA_s140_6.0.0.dir/__/__/mesh/bearer/src/bearer_handler.c.obj
 .debug_info    0x0004c30f     0x1b92 examples/enocean_switch/CMakeFiles/enocean_switch_nrf52840_xxAA_s140_6.0.0.dir/__/__/mesh/bearer/src/broadcast.c.obj
 .debug_info    0x0004dea1      0xcff examples/enocean_switch/CMakeFiles/enocean_switch_nrf52840_xxAA_s140_6.0.0.dir/__/__/mesh/bearer/src/filter_engine.c.obj
 .debug_info    0x0004eba0      0xa53 examples/enocean_switch/CMakeFiles/enocean_switch_nrf52840_xxAA_s140_6.0.0.dir/__/__/mesh/bearer/src/radio_config.c.obj
 .debug_info    0x0004f5f3     0x28e3 examples/enocean_switch/CMakeFiles/enocean_switch_nrf52840_xxAA_s140_6.0.0.dir/__/__/mesh/bearer/src/scanner.c.obj
 .debug_info    0x00051ed6     0x107c examples/enocean_switch/CMakeFiles/enocean_switch_nrf52840_xxAA_s140_6.0.0.dir/__/__/mesh/bearer/src/mesh_pa_lna.c.obj
 .debug_info    0x00052f52     0x16d5 examples/enocean_switch/CMakeFiles/enocean_switch_nrf52840_xxAA_s140_6.0.0.dir/__/__/models/simple_on_off/src/simple_on_off_client.c.obj
 .debug_info    0x00054627      0xed7 examples/enocean_switch/CMakeFiles/enocean_switch_nrf52840_xxAA_s140_6.0.0.dir/__/__/models/config/src/composition_data.c.obj
 .debug_info    0x000554fe     0x8bd5 examples/enocean_switch/CMakeFiles/enocean_switch_nrf52840_xxAA_s140_6.0.0.dir/__/__/models/config/src/config_server.c.obj
 .debug_info    0x0005e0d3      0x126 examples/enocean_switch/CMakeFiles/enocean_switch_nrf52840_xxAA_s140_6.0.0.dir/__/__/models/config/src/packed_index_list.c.obj
 .debug_info    0x0005e1f9     0x2629 examples/enocean_switch/CMakeFiles/enocean_switch_nrf52840_xxAA_s140_6.0.0.dir/__/__/models/health/src/health_server.c.obj
 .debug_info    0x00060822     0x1155 examples/enocean_switch/CMakeFiles/enocean_switch_nrf52840_xxAA_s140_6.0.0.dir/__/__/mesh/access/src/access_publish.c.obj
 .debug_info    0x00061977     0x4a37 examples/enocean_switch/CMakeFiles/enocean_switch_nrf52840_xxAA_s140_6.0.0.dir/__/__/mesh/access/src/access.c.obj
 .debug_info    0x000663ae     0x19df examples/enocean_switch/CMakeFiles/enocean_switch_nrf52840_xxAA_s140_6.0.0.dir/__/__/mesh/access/src/access_reliable.c.obj
 .debug_info    0x00067d8d      0xfbf examples/enocean_switch/CMakeFiles/enocean_switch_nrf52840_xxAA_s140_6.0.0.dir/__/__/mesh/access/src/access_loopback.c.obj
 .debug_info    0x00068d4c     0x6847 examples/enocean_switch/CMakeFiles/enocean_switch_nrf52840_xxAA_s140_6.0.0.dir/__/__/mesh/access/src/device_state_manager.c.obj
 .debug_info    0x0006f593     0x2823 examples/enocean_switch/CMakeFiles/enocean_switch_nrf52840_xxAA_s140_6.0.0.dir/__/__/mesh/prov/src/prov_provisionee.c.obj
 .debug_info    0x00071db6     0x1ed2 examples/enocean_switch/CMakeFiles/enocean_switch_nrf52840_xxAA_s140_6.0.0.dir/__/__/mesh/prov/src/nrf_mesh_prov.c.obj
 .debug_info    0x00073c88     0x1586 examples/enocean_switch/CMakeFiles/enocean_switch_nrf52840_xxAA_s140_6.0.0.dir/__/__/mesh/prov/src/provisioning.c.obj
 .debug_info    0x0007520e     0x1a7d examples/enocean_switch/CMakeFiles/enocean_switch_nrf52840_xxAA_s140_6.0.0.dir/__/__/mesh/prov/src/prov_beacon.c.obj
 .debug_info    0x00076c8b     0x205e examples/enocean_switch/CMakeFiles/enocean_switch_nrf52840_xxAA_s140_6.0.0.dir/__/__/mesh/prov/src/prov_utils.c.obj
 .debug_info    0x00078ce9     0x3ae7 examples/enocean_switch/CMakeFiles/enocean_switch_nrf52840_xxAA_s140_6.0.0.dir/__/__/mesh/prov/src/prov_bearer_adv.c.obj
 .debug_info    0x0007c7d0     0x139f examples/enocean_switch/CMakeFiles/enocean_switch_nrf52840_xxAA_s140_6.0.0.dir/C_/b/nRF5_SDK_15.0.0_a53641a/modules/nrfx/mdk/system_nrf52840.c.obj
 .debug_info    0x0007db6f      0xaee examples/enocean_switch/CMakeFiles/enocean_switch_nrf52840_xxAA_s140_6.0.0.dir/C_/b/nRF5_SDK_15.0.0_a53641a/components/libraries/util/app_error.c.obj
 .debug_info    0x0007e65d     0x11bd examples/enocean_switch/CMakeFiles/enocean_switch_nrf52840_xxAA_s140_6.0.0.dir/C_/b/nRF5_SDK_15.0.0_a53641a/components/libraries/util/app_util_platform.c.obj
 .debug_info    0x0007f81a     0x2201 examples/enocean_switch/CMakeFiles/enocean_switch_nrf52840_xxAA_s140_6.0.0.dir/C_/b/nRF5_SDK_15.0.0_a53641a/components/libraries/timer/app_timer.c.obj
 .debug_info    0x00081a1b      0x974 examples/enocean_switch/CMakeFiles/enocean_switch_nrf52840_xxAA_s140_6.0.0.dir/C_/b/nRF5_SDK_15.0.0_a53641a/components/libraries/util/app_error_handler_gcc.c.obj
 .debug_info    0x0008238f     0x1818 external/rtt/librtt_nrf52840_xxAA.a(SEGGER_RTT.c.obj)
 .debug_info    0x00083ba7      0xec1 external/rtt/librtt_nrf52840_xxAA.a(SEGGER_RTT_printf.c.obj)
 .debug_info    0x00084a68     0x4511 external/micro-ecc/libuECC_nrf52840_xxAA.a(uECC.c.obj)

.debug_abbrev   0x00000000    0x120a3
 .debug_abbrev  0x00000000      0x5c6 examples/enocean_switch/CMakeFiles/enocean_switch_nrf52840_xxAA_s140_6.0.0.dir/src/main.c.obj
 .debug_abbrev  0x000005c6      0x384 examples/enocean_switch/CMakeFiles/enocean_switch_nrf52840_xxAA_s140_6.0.0.dir/src/enocean.c.obj
 .debug_abbrev  0x0000094a      0x413 examples/enocean_switch/CMakeFiles/enocean_switch_nrf52840_xxAA_s140_6.0.0.dir/src/flash_helper.c.obj
 .debug_abbrev  0x00000d5d      0x36b examples/enocean_switch/CMakeFiles/enocean_switch_nrf52840_xxAA_s140_6.0.0.dir/__/__/mesh/stack/src/mesh_stack.c.obj
 .debug_abbrev  0x000010c8      0x432 examples/enocean_switch/CMakeFiles/enocean_switch_nrf52840_xxAA_s140_6.0.0.dir/__/common/src/mesh_softdevice_init.c.obj
 .debug_abbrev  0x000014fa      0x312 examples/enocean_switch/CMakeFiles/enocean_switch_nrf52840_xxAA_s140_6.0.0.dir/__/common/src/mesh_provisionee.c.obj
 .debug_abbrev  0x0000180c      0x2d3 examples/enocean_switch/CMakeFiles/enocean_switch_nrf52840_xxAA_s140_6.0.0.dir/__/common/src/rtt_input.c.obj
 .debug_abbrev  0x00001adf      0x3a3 examples/enocean_switch/CMakeFiles/enocean_switch_nrf52840_xxAA_s140_6.0.0.dir/__/common/src/simple_hal.c.obj
 .debug_abbrev  0x00001e82      0x1ae examples/enocean_switch/CMakeFiles/enocean_switch_nrf52840_xxAA_s140_6.0.0.dir/__/nrf_mesh_weak.c.obj
 .debug_abbrev  0x00002030      0x2de examples/enocean_switch/CMakeFiles/enocean_switch_nrf52840_xxAA_s140_6.0.0.dir/__/common/src/app_error_weak.c.obj
 .debug_abbrev  0x0000230e      0x1f6 examples/enocean_switch/CMakeFiles/enocean_switch_nrf52840_xxAA_s140_6.0.0.dir/__/common/src/assertion_handler_weak.c.obj
 .debug_abbrev  0x00002504      0x254 examples/enocean_switch/CMakeFiles/enocean_switch_nrf52840_xxAA_s140_6.0.0.dir/__/__/mesh/core/src/nrf_mesh_configure.c.obj
 .debug_abbrev  0x00002758      0x25d examples/enocean_switch/CMakeFiles/enocean_switch_nrf52840_xxAA_s140_6.0.0.dir/__/__/mesh/core/src/msg_cache.c.obj
 .debug_abbrev  0x000029b5      0x5f5 examples/enocean_switch/CMakeFiles/enocean_switch_nrf52840_xxAA_s140_6.0.0.dir/__/__/mesh/core/src/transport.c.obj
 .debug_abbrev  0x00002faa      0x314 examples/enocean_switch/CMakeFiles/enocean_switch_nrf52840_xxAA_s140_6.0.0.dir/__/__/mesh/core/src/event.c.obj
 .debug_abbrev  0x000032be      0x468 examples/enocean_switch/CMakeFiles/enocean_switch_nrf52840_xxAA_s140_6.0.0.dir/__/__/mesh/core/src/packet_buffer.c.obj
 .debug_abbrev  0x00003726      0x50e examples/enocean_switch/CMakeFiles/enocean_switch_nrf52840_xxAA_s140_6.0.0.dir/__/__/mesh/core/src/flash_manager_defrag.c.obj
 .debug_abbrev  0x00003c34      0x2f2 examples/enocean_switch/CMakeFiles/enocean_switch_nrf52840_xxAA_s140_6.0.0.dir/__/__/mesh/core/src/fifo.c.obj
 .debug_abbrev  0x00003f26      0x21f examples/enocean_switch/CMakeFiles/enocean_switch_nrf52840_xxAA_s140_6.0.0.dir/__/__/mesh/core/src/nrf_flash.c.obj
 .debug_abbrev  0x00004145      0x3b1 examples/enocean_switch/CMakeFiles/enocean_switch_nrf52840_xxAA_s140_6.0.0.dir/__/__/mesh/core/src/packet_mgr.c.obj
 .debug_abbrev  0x000044f6      0x552 examples/enocean_switch/CMakeFiles/enocean_switch_nrf52840_xxAA_s140_6.0.0.dir/__/__/mesh/core/src/net_state.c.obj
 .debug_abbrev  0x00004a48      0x453 examples/enocean_switch/CMakeFiles/enocean_switch_nrf52840_xxAA_s140_6.0.0.dir/__/__/mesh/core/src/mesh_flash.c.obj
 .debug_abbrev  0x00004e9b      0x242 examples/enocean_switch/CMakeFiles/enocean_switch_nrf52840_xxAA_s140_6.0.0.dir/__/__/mesh/core/src/nrf_mesh_utils.c.obj
 .debug_abbrev  0x000050dd      0x490 examples/enocean_switch/CMakeFiles/enocean_switch_nrf52840_xxAA_s140_6.0.0.dir/__/__/mesh/core/src/nrf_mesh.c.obj
 .debug_abbrev  0x0000556d      0x247 examples/enocean_switch/CMakeFiles/enocean_switch_nrf52840_xxAA_s140_6.0.0.dir/__/__/mesh/core/src/queue.c.obj
 .debug_abbrev  0x000057b4      0x1cf examples/enocean_switch/CMakeFiles/enocean_switch_nrf52840_xxAA_s140_6.0.0.dir/__/__/mesh/core/src/hal.c.obj
 .debug_abbrev  0x00005983      0x341 examples/enocean_switch/CMakeFiles/enocean_switch_nrf52840_xxAA_s140_6.0.0.dir/__/__/mesh/core/src/aes_cmac.c.obj
 .debug_abbrev  0x00005cc4      0x3bc examples/enocean_switch/CMakeFiles/enocean_switch_nrf52840_xxAA_s140_6.0.0.dir/__/__/mesh/core/src/timer_scheduler.c.obj
 .debug_abbrev  0x00006080      0x337 examples/enocean_switch/CMakeFiles/enocean_switch_nrf52840_xxAA_s140_6.0.0.dir/__/__/mesh/core/src/timer.c.obj
 .debug_abbrev  0x000063b7      0x152 examples/enocean_switch/CMakeFiles/enocean_switch_nrf52840_xxAA_s140_6.0.0.dir/__/__/mesh/core/src/ticker.c.obj
 .debug_abbrev  0x00006509      0x194 examples/enocean_switch/CMakeFiles/enocean_switch_nrf52840_xxAA_s140_6.0.0.dir/__/__/mesh/core/src/rand.c.obj
 .debug_abbrev  0x0000669d      0x24a examples/enocean_switch/CMakeFiles/enocean_switch_nrf52840_xxAA_s140_6.0.0.dir/__/__/mesh/core/src/nrf_mesh_opt.c.obj
 .debug_abbrev  0x000068e7      0x4a4 examples/enocean_switch/CMakeFiles/enocean_switch_nrf52840_xxAA_s140_6.0.0.dir/__/__/mesh/core/src/timeslot.c.obj
 .debug_abbrev  0x00006d8b      0x4b5 examples/enocean_switch/CMakeFiles/enocean_switch_nrf52840_xxAA_s140_6.0.0.dir/__/__/mesh/core/src/bearer_event.c.obj
 .debug_abbrev  0x00007240      0x3be examples/enocean_switch/CMakeFiles/enocean_switch_nrf52840_xxAA_s140_6.0.0.dir/__/__/mesh/core/src/enc.c.obj
 .debug_abbrev  0x000075fe      0x496 examples/enocean_switch/CMakeFiles/enocean_switch_nrf52840_xxAA_s140_6.0.0.dir/__/__/mesh/core/src/network.c.obj
 .debug_abbrev  0x00007a94      0x4a1 examples/enocean_switch/CMakeFiles/enocean_switch_nrf52840_xxAA_s140_6.0.0.dir/__/__/mesh/core/src/net_packet.c.obj
 .debug_abbrev  0x00007f35      0x2c0 examples/enocean_switch/CMakeFiles/enocean_switch_nrf52840_xxAA_s140_6.0.0.dir/__/__/mesh/core/src/msqueue.c.obj
 .debug_abbrev  0x000081f5      0x163 examples/enocean_switch/CMakeFiles/enocean_switch_nrf52840_xxAA_s140_6.0.0.dir/__/__/mesh/core/src/nrf_mesh_keygen.c.obj
 .debug_abbrev  0x00008358      0x1a4 examples/enocean_switch/CMakeFiles/enocean_switch_nrf52840_xxAA_s140_6.0.0.dir/__/__/mesh/core/src/list.c.obj
 .debug_abbrev  0x000084fc      0x24e examples/enocean_switch/CMakeFiles/enocean_switch_nrf52840_xxAA_s140_6.0.0.dir/__/__/mesh/core/src/log.c.obj
 .debug_abbrev  0x0000874a      0x524 examples/enocean_switch/CMakeFiles/enocean_switch_nrf52840_xxAA_s140_6.0.0.dir/__/__/mesh/core/src/flash_manager.c.obj
 .debug_abbrev  0x00008c6e      0x38c examples/enocean_switch/CMakeFiles/enocean_switch_nrf52840_xxAA_s140_6.0.0.dir/__/__/mesh/core/src/ccm_soft.c.obj
 .debug_abbrev  0x00008ffa      0x270 examples/enocean_switch/CMakeFiles/enocean_switch_nrf52840_xxAA_s140_6.0.0.dir/__/__/mesh/core/src/replay_cache.c.obj
 .debug_abbrev  0x0000926a      0x2c4 examples/enocean_switch/CMakeFiles/enocean_switch_nrf52840_xxAA_s140_6.0.0.dir/__/__/mesh/core/src/beacon.c.obj
 .debug_abbrev  0x0000952e      0x288 examples/enocean_switch/CMakeFiles/enocean_switch_nrf52840_xxAA_s140_6.0.0.dir/__/__/mesh/core/src/flash_manager_internal.c.obj
 .debug_abbrev  0x000097b6      0x2ed examples/enocean_switch/CMakeFiles/enocean_switch_nrf52840_xxAA_s140_6.0.0.dir/__/__/mesh/core/src/core_tx.c.obj
 .debug_abbrev  0x00009aa3      0x4af examples/enocean_switch/CMakeFiles/enocean_switch_nrf52840_xxAA_s140_6.0.0.dir/__/__/mesh/core/src/heartbeat.c.obj
 .debug_abbrev  0x00009f52      0x4ac examples/enocean_switch/CMakeFiles/enocean_switch_nrf52840_xxAA_s140_6.0.0.dir/__/__/mesh/core/src/net_beacon.c.obj
 .debug_abbrev  0x0000a3fe      0x308 examples/enocean_switch/CMakeFiles/enocean_switch_nrf52840_xxAA_s140_6.0.0.dir/__/__/mesh/core/src/core_tx_adv.c.obj
 .debug_abbrev  0x0000a706      0x341 examples/enocean_switch/CMakeFiles/enocean_switch_nrf52840_xxAA_s140_6.0.0.dir/__/__/mesh/bearer/src/ad_listener.c.obj
 .debug_abbrev  0x0000aa47      0x368 examples/enocean_switch/CMakeFiles/enocean_switch_nrf52840_xxAA_s140_6.0.0.dir/__/__/mesh/bearer/src/ad_type_filter.c.obj
 .debug_abbrev  0x0000adaf      0x4ed examples/enocean_switch/CMakeFiles/enocean_switch_nrf52840_xxAA_s140_6.0.0.dir/__/__/mesh/bearer/src/advertiser.c.obj
 .debug_abbrev  0x0000b29c      0x476 examples/enocean_switch/CMakeFiles/enocean_switch_nrf52840_xxAA_s140_6.0.0.dir/__/__/mesh/bearer/src/bearer_handler.c.obj
 .debug_abbrev  0x0000b712      0x3b9 examples/enocean_switch/CMakeFiles/enocean_switch_nrf52840_xxAA_s140_6.0.0.dir/__/__/mesh/bearer/src/broadcast.c.obj
 .debug_abbrev  0x0000bacb      0x2a6 examples/enocean_switch/CMakeFiles/enocean_switch_nrf52840_xxAA_s140_6.0.0.dir/__/__/mesh/bearer/src/filter_engine.c.obj
 .debug_abbrev  0x0000bd71      0x1d5 examples/enocean_switch/CMakeFiles/enocean_switch_nrf52840_xxAA_s140_6.0.0.dir/__/__/mesh/bearer/src/radio_config.c.obj
 .debug_abbrev  0x0000bf46      0x52a examples/enocean_switch/CMakeFiles/enocean_switch_nrf52840_xxAA_s140_6.0.0.dir/__/__/mesh/bearer/src/scanner.c.obj
 .debug_abbrev  0x0000c470      0x2bd examples/enocean_switch/CMakeFiles/enocean_switch_nrf52840_xxAA_s140_6.0.0.dir/__/__/mesh/bearer/src/mesh_pa_lna.c.obj
 .debug_abbrev  0x0000c72d      0x3bb examples/enocean_switch/CMakeFiles/enocean_switch_nrf52840_xxAA_s140_6.0.0.dir/__/__/models/simple_on_off/src/simple_on_off_client.c.obj
 .debug_abbrev  0x0000cae8      0x2e2 examples/enocean_switch/CMakeFiles/enocean_switch_nrf52840_xxAA_s140_6.0.0.dir/__/__/models/config/src/composition_data.c.obj
 .debug_abbrev  0x0000cdca      0x55a examples/enocean_switch/CMakeFiles/enocean_switch_nrf52840_xxAA_s140_6.0.0.dir/__/__/models/config/src/config_server.c.obj
 .debug_abbrev  0x0000d324       0x95 examples/enocean_switch/CMakeFiles/enocean_switch_nrf52840_xxAA_s140_6.0.0.dir/__/__/models/config/src/packed_index_list.c.obj
 .debug_abbrev  0x0000d3b9      0x4cf examples/enocean_switch/CMakeFiles/enocean_switch_nrf52840_xxAA_s140_6.0.0.dir/__/__/models/health/src/health_server.c.obj
 .debug_abbrev  0x0000d888      0x434 examples/enocean_switch/CMakeFiles/enocean_switch_nrf52840_xxAA_s140_6.0.0.dir/__/__/mesh/access/src/access_publish.c.obj
 .debug_abbrev  0x0000dcbc      0x610 examples/enocean_switch/CMakeFiles/enocean_switch_nrf52840_xxAA_s140_6.0.0.dir/__/__/mesh/access/src/access.c.obj
 .debug_abbrev  0x0000e2cc      0x448 examples/enocean_switch/CMakeFiles/enocean_switch_nrf52840_xxAA_s140_6.0.0.dir/__/__/mesh/access/src/access_reliable.c.obj
 .debug_abbrev  0x0000e714      0x2be examples/enocean_switch/CMakeFiles/enocean_switch_nrf52840_xxAA_s140_6.0.0.dir/__/__/mesh/access/src/access_loopback.c.obj
 .debug_abbrev  0x0000e9d2      0x60d examples/enocean_switch/CMakeFiles/enocean_switch_nrf52840_xxAA_s140_6.0.0.dir/__/__/mesh/access/src/device_state_manager.c.obj
 .debug_abbrev  0x0000efdf      0x491 examples/enocean_switch/CMakeFiles/enocean_switch_nrf52840_xxAA_s140_6.0.0.dir/__/__/mesh/prov/src/prov_provisionee.c.obj
 .debug_abbrev  0x0000f470      0x434 examples/enocean_switch/CMakeFiles/enocean_switch_nrf52840_xxAA_s140_6.0.0.dir/__/__/mesh/prov/src/nrf_mesh_prov.c.obj
 .debug_abbrev  0x0000f8a4      0x2a9 examples/enocean_switch/CMakeFiles/enocean_switch_nrf52840_xxAA_s140_6.0.0.dir/__/__/mesh/prov/src/provisioning.c.obj
 .debug_abbrev  0x0000fb4d      0x2c8 examples/enocean_switch/CMakeFiles/enocean_switch_nrf52840_xxAA_s140_6.0.0.dir/__/__/mesh/prov/src/prov_beacon.c.obj
 .debug_abbrev  0x0000fe15      0x3c1 examples/enocean_switch/CMakeFiles/enocean_switch_nrf52840_xxAA_s140_6.0.0.dir/__/__/mesh/prov/src/prov_utils.c.obj
 .debug_abbrev  0x000101d6      0x4eb examples/enocean_switch/CMakeFiles/enocean_switch_nrf52840_xxAA_s140_6.0.0.dir/__/__/mesh/prov/src/prov_bearer_adv.c.obj
 .debug_abbrev  0x000106c1      0x20b examples/enocean_switch/CMakeFiles/enocean_switch_nrf52840_xxAA_s140_6.0.0.dir/C_/b/nRF5_SDK_15.0.0_a53641a/modules/nrfx/mdk/system_nrf52840.c.obj
 .debug_abbrev  0x000108cc      0x232 examples/enocean_switch/CMakeFiles/enocean_switch_nrf52840_xxAA_s140_6.0.0.dir/C_/b/nRF5_SDK_15.0.0_a53641a/components/libraries/util/app_error.c.obj
 .debug_abbrev  0x00010afe      0x35b examples/enocean_switch/CMakeFiles/enocean_switch_nrf52840_xxAA_s140_6.0.0.dir/C_/b/nRF5_SDK_15.0.0_a53641a/components/libraries/util/app_util_platform.c.obj
 .debug_abbrev  0x00010e59      0x502 examples/enocean_switch/CMakeFiles/enocean_switch_nrf52840_xxAA_s140_6.0.0.dir/C_/b/nRF5_SDK_15.0.0_a53641a/components/libraries/timer/app_timer.c.obj
 .debug_abbrev  0x0001135b      0x1bd examples/enocean_switch/CMakeFiles/enocean_switch_nrf52840_xxAA_s140_6.0.0.dir/C_/b/nRF5_SDK_15.0.0_a53641a/components/libraries/util/app_error_handler_gcc.c.obj
 .debug_abbrev  0x00011518      0x3a9 external/rtt/librtt_nrf52840_xxAA.a(SEGGER_RTT.c.obj)
 .debug_abbrev  0x000118c1      0x32e external/rtt/librtt_nrf52840_xxAA.a(SEGGER_RTT_printf.c.obj)
 .debug_abbrev  0x00011bef      0x4b4 external/micro-ecc/libuECC_nrf52840_xxAA.a(uECC.c.obj)

.debug_loc      0x00000000    0x25568
 .debug_loc     0x00000000      0x552 examples/enocean_switch/CMakeFiles/enocean_switch_nrf52840_xxAA_s140_6.0.0.dir/src/main.c.obj
 .debug_loc     0x00000552      0x444 examples/enocean_switch/CMakeFiles/enocean_switch_nrf52840_xxAA_s140_6.0.0.dir/src/enocean.c.obj
 .debug_loc     0x00000996      0x2f6 examples/enocean_switch/CMakeFiles/enocean_switch_nrf52840_xxAA_s140_6.0.0.dir/src/flash_helper.c.obj
 .debug_loc     0x00000c8c      0x175 examples/enocean_switch/CMakeFiles/enocean_switch_nrf52840_xxAA_s140_6.0.0.dir/__/__/mesh/stack/src/mesh_stack.c.obj
 .debug_loc     0x00000e01      0x21b examples/enocean_switch/CMakeFiles/enocean_switch_nrf52840_xxAA_s140_6.0.0.dir/__/common/src/mesh_softdevice_init.c.obj
 .debug_loc     0x0000101c      0x10a examples/enocean_switch/CMakeFiles/enocean_switch_nrf52840_xxAA_s140_6.0.0.dir/__/common/src/mesh_provisionee.c.obj
 .debug_loc     0x00001126       0xed examples/enocean_switch/CMakeFiles/enocean_switch_nrf52840_xxAA_s140_6.0.0.dir/__/common/src/rtt_input.c.obj
 .debug_loc     0x00001213      0x243 examples/enocean_switch/CMakeFiles/enocean_switch_nrf52840_xxAA_s140_6.0.0.dir/__/common/src/simple_hal.c.obj
 .debug_loc     0x00001456      0x18c examples/enocean_switch/CMakeFiles/enocean_switch_nrf52840_xxAA_s140_6.0.0.dir/__/common/src/app_error_weak.c.obj
 .debug_loc     0x000015e2       0x2c examples/enocean_switch/CMakeFiles/enocean_switch_nrf52840_xxAA_s140_6.0.0.dir/__/common/src/assertion_handler_weak.c.obj
 .debug_loc     0x0000160e       0x2c examples/enocean_switch/CMakeFiles/enocean_switch_nrf52840_xxAA_s140_6.0.0.dir/__/__/mesh/core/src/nrf_mesh_configure.c.obj
 .debug_loc     0x0000163a      0x10d examples/enocean_switch/CMakeFiles/enocean_switch_nrf52840_xxAA_s140_6.0.0.dir/__/__/mesh/core/src/msg_cache.c.obj
 .debug_loc     0x00001747     0x259a examples/enocean_switch/CMakeFiles/enocean_switch_nrf52840_xxAA_s140_6.0.0.dir/__/__/mesh/core/src/transport.c.obj
 .debug_loc     0x00003ce1      0x124 examples/enocean_switch/CMakeFiles/enocean_switch_nrf52840_xxAA_s140_6.0.0.dir/__/__/mesh/core/src/event.c.obj
 .debug_loc     0x00003e05      0x816 examples/enocean_switch/CMakeFiles/enocean_switch_nrf52840_xxAA_s140_6.0.0.dir/__/__/mesh/core/src/packet_buffer.c.obj
 .debug_loc     0x0000461b      0x7fe examples/enocean_switch/CMakeFiles/enocean_switch_nrf52840_xxAA_s140_6.0.0.dir/__/__/mesh/core/src/flash_manager_defrag.c.obj
 .debug_loc     0x00004e19      0x4f6 examples/enocean_switch/CMakeFiles/enocean_switch_nrf52840_xxAA_s140_6.0.0.dir/__/__/mesh/core/src/fifo.c.obj
 .debug_loc     0x0000530f      0x17a examples/enocean_switch/CMakeFiles/enocean_switch_nrf52840_xxAA_s140_6.0.0.dir/__/__/mesh/core/src/nrf_flash.c.obj
 .debug_loc     0x00005489      0x6c1 examples/enocean_switch/CMakeFiles/enocean_switch_nrf52840_xxAA_s140_6.0.0.dir/__/__/mesh/core/src/packet_mgr.c.obj
 .debug_loc     0x00005b4a      0x936 examples/enocean_switch/CMakeFiles/enocean_switch_nrf52840_xxAA_s140_6.0.0.dir/__/__/mesh/core/src/net_state.c.obj
 .debug_loc     0x00006480      0x8be examples/enocean_switch/CMakeFiles/enocean_switch_nrf52840_xxAA_s140_6.0.0.dir/__/__/mesh/core/src/mesh_flash.c.obj
 .debug_loc     0x00006d3e       0xf8 examples/enocean_switch/CMakeFiles/enocean_switch_nrf52840_xxAA_s140_6.0.0.dir/__/__/mesh/core/src/nrf_mesh_utils.c.obj
 .debug_loc     0x00006e36      0x4de examples/enocean_switch/CMakeFiles/enocean_switch_nrf52840_xxAA_s140_6.0.0.dir/__/__/mesh/core/src/nrf_mesh.c.obj
 .debug_loc     0x00007314       0xf5 examples/enocean_switch/CMakeFiles/enocean_switch_nrf52840_xxAA_s140_6.0.0.dir/__/__/mesh/core/src/queue.c.obj
 .debug_loc     0x00007409       0x63 examples/enocean_switch/CMakeFiles/enocean_switch_nrf52840_xxAA_s140_6.0.0.dir/__/__/mesh/core/src/hal.c.obj
 .debug_loc     0x0000746c      0x3d8 examples/enocean_switch/CMakeFiles/enocean_switch_nrf52840_xxAA_s140_6.0.0.dir/__/__/mesh/core/src/aes_cmac.c.obj
 .debug_loc     0x00007844      0x2d1 examples/enocean_switch/CMakeFiles/enocean_switch_nrf52840_xxAA_s140_6.0.0.dir/__/__/mesh/core/src/timer_scheduler.c.obj
 .debug_loc     0x00007b15      0x5f9 examples/enocean_switch/CMakeFiles/enocean_switch_nrf52840_xxAA_s140_6.0.0.dir/__/__/mesh/core/src/timer.c.obj
 .debug_loc     0x0000810e      0x14e examples/enocean_switch/CMakeFiles/enocean_switch_nrf52840_xxAA_s140_6.0.0.dir/__/__/mesh/core/src/rand.c.obj
 .debug_loc     0x0000825c      0x194 examples/enocean_switch/CMakeFiles/enocean_switch_nrf52840_xxAA_s140_6.0.0.dir/__/__/mesh/core/src/nrf_mesh_opt.c.obj
 .debug_loc     0x000083f0      0x344 examples/enocean_switch/CMakeFiles/enocean_switch_nrf52840_xxAA_s140_6.0.0.dir/__/__/mesh/core/src/timeslot.c.obj
 .debug_loc     0x00008734      0x526 examples/enocean_switch/CMakeFiles/enocean_switch_nrf52840_xxAA_s140_6.0.0.dir/__/__/mesh/core/src/bearer_event.c.obj
 .debug_loc     0x00008c5a      0x8e7 examples/enocean_switch/CMakeFiles/enocean_switch_nrf52840_xxAA_s140_6.0.0.dir/__/__/mesh/core/src/enc.c.obj
 .debug_loc     0x00009541      0x60c examples/enocean_switch/CMakeFiles/enocean_switch_nrf52840_xxAA_s140_6.0.0.dir/__/__/mesh/core/src/network.c.obj
 .debug_loc     0x00009b4d      0x817 examples/enocean_switch/CMakeFiles/enocean_switch_nrf52840_xxAA_s140_6.0.0.dir/__/__/mesh/core/src/net_packet.c.obj
 .debug_loc     0x0000a364      0x2ed examples/enocean_switch/CMakeFiles/enocean_switch_nrf52840_xxAA_s140_6.0.0.dir/__/__/mesh/core/src/msqueue.c.obj
 .debug_loc     0x0000a651      0x1ee examples/enocean_switch/CMakeFiles/enocean_switch_nrf52840_xxAA_s140_6.0.0.dir/__/__/mesh/core/src/nrf_mesh_keygen.c.obj
 .debug_loc     0x0000a83f      0x3bf examples/enocean_switch/CMakeFiles/enocean_switch_nrf52840_xxAA_s140_6.0.0.dir/__/__/mesh/core/src/list.c.obj
 .debug_loc     0x0000abfe      0x348 examples/enocean_switch/CMakeFiles/enocean_switch_nrf52840_xxAA_s140_6.0.0.dir/__/__/mesh/core/src/log.c.obj
 .debug_loc     0x0000af46     0x1439 examples/enocean_switch/CMakeFiles/enocean_switch_nrf52840_xxAA_s140_6.0.0.dir/__/__/mesh/core/src/flash_manager.c.obj
 .debug_loc     0x0000c37f      0x4b6 examples/enocean_switch/CMakeFiles/enocean_switch_nrf52840_xxAA_s140_6.0.0.dir/__/__/mesh/core/src/ccm_soft.c.obj
 .debug_loc     0x0000c835      0x141 examples/enocean_switch/CMakeFiles/enocean_switch_nrf52840_xxAA_s140_6.0.0.dir/__/__/mesh/core/src/replay_cache.c.obj
 .debug_loc     0x0000c976      0x30d examples/enocean_switch/CMakeFiles/enocean_switch_nrf52840_xxAA_s140_6.0.0.dir/__/__/mesh/core/src/beacon.c.obj
 .debug_loc     0x0000cc83       0xe3 examples/enocean_switch/CMakeFiles/enocean_switch_nrf52840_xxAA_s140_6.0.0.dir/__/__/mesh/core/src/flash_manager_internal.c.obj
 .debug_loc     0x0000cd66      0x3c5 examples/enocean_switch/CMakeFiles/enocean_switch_nrf52840_xxAA_s140_6.0.0.dir/__/__/mesh/core/src/core_tx.c.obj
 .debug_loc     0x0000d12b      0x57b examples/enocean_switch/CMakeFiles/enocean_switch_nrf52840_xxAA_s140_6.0.0.dir/__/__/mesh/core/src/heartbeat.c.obj
 .debug_loc     0x0000d6a6      0x5f5 examples/enocean_switch/CMakeFiles/enocean_switch_nrf52840_xxAA_s140_6.0.0.dir/__/__/mesh/core/src/net_beacon.c.obj
 .debug_loc     0x0000dc9b      0x41f examples/enocean_switch/CMakeFiles/enocean_switch_nrf52840_xxAA_s140_6.0.0.dir/__/__/mesh/core/src/core_tx_adv.c.obj
 .debug_loc     0x0000e0ba      0x40d examples/enocean_switch/CMakeFiles/enocean_switch_nrf52840_xxAA_s140_6.0.0.dir/__/__/mesh/bearer/src/ad_listener.c.obj
 .debug_loc     0x0000e4c7      0x3ae examples/enocean_switch/CMakeFiles/enocean_switch_nrf52840_xxAA_s140_6.0.0.dir/__/__/mesh/bearer/src/ad_type_filter.c.obj
 .debug_loc     0x0000e875      0xcff examples/enocean_switch/CMakeFiles/enocean_switch_nrf52840_xxAA_s140_6.0.0.dir/__/__/mesh/bearer/src/advertiser.c.obj
 .debug_loc     0x0000f574      0x438 examples/enocean_switch/CMakeFiles/enocean_switch_nrf52840_xxAA_s140_6.0.0.dir/__/__/mesh/bearer/src/bearer_handler.c.obj
 .debug_loc     0x0000f9ac      0x320 examples/enocean_switch/CMakeFiles/enocean_switch_nrf52840_xxAA_s140_6.0.0.dir/__/__/mesh/bearer/src/broadcast.c.obj
 .debug_loc     0x0000fccc       0xde examples/enocean_switch/CMakeFiles/enocean_switch_nrf52840_xxAA_s140_6.0.0.dir/__/__/mesh/bearer/src/filter_engine.c.obj
 .debug_loc     0x0000fdaa      0x232 examples/enocean_switch/CMakeFiles/enocean_switch_nrf52840_xxAA_s140_6.0.0.dir/__/__/mesh/bearer/src/radio_config.c.obj
 .debug_loc     0x0000ffdc      0x48a examples/enocean_switch/CMakeFiles/enocean_switch_nrf52840_xxAA_s140_6.0.0.dir/__/__/mesh/bearer/src/scanner.c.obj
 .debug_loc     0x00010466      0x1d6 examples/enocean_switch/CMakeFiles/enocean_switch_nrf52840_xxAA_s140_6.0.0.dir/__/__/mesh/bearer/src/mesh_pa_lna.c.obj
 .debug_loc     0x0001063c      0x5a5 examples/enocean_switch/CMakeFiles/enocean_switch_nrf52840_xxAA_s140_6.0.0.dir/__/__/models/simple_on_off/src/simple_on_off_client.c.obj
 .debug_loc     0x00010be1      0x254 examples/enocean_switch/CMakeFiles/enocean_switch_nrf52840_xxAA_s140_6.0.0.dir/__/__/models/config/src/composition_data.c.obj
 .debug_loc     0x00010e35     0x4da6 examples/enocean_switch/CMakeFiles/enocean_switch_nrf52840_xxAA_s140_6.0.0.dir/__/__/models/config/src/config_server.c.obj
 .debug_loc     0x00015bdb       0x89 examples/enocean_switch/CMakeFiles/enocean_switch_nrf52840_xxAA_s140_6.0.0.dir/__/__/models/config/src/packed_index_list.c.obj
 .debug_loc     0x00015c64     0x1373 examples/enocean_switch/CMakeFiles/enocean_switch_nrf52840_xxAA_s140_6.0.0.dir/__/__/models/health/src/health_server.c.obj
 .debug_loc     0x00016fd7      0x4d4 examples/enocean_switch/CMakeFiles/enocean_switch_nrf52840_xxAA_s140_6.0.0.dir/__/__/mesh/access/src/access_publish.c.obj
 .debug_loc     0x000174ab     0x238e examples/enocean_switch/CMakeFiles/enocean_switch_nrf52840_xxAA_s140_6.0.0.dir/__/__/mesh/access/src/access.c.obj
 .debug_loc     0x00019839      0x784 examples/enocean_switch/CMakeFiles/enocean_switch_nrf52840_xxAA_s140_6.0.0.dir/__/__/mesh/access/src/access_reliable.c.obj
 .debug_loc     0x00019fbd       0x81 examples/enocean_switch/CMakeFiles/enocean_switch_nrf52840_xxAA_s140_6.0.0.dir/__/__/mesh/access/src/access_loopback.c.obj
 .debug_loc     0x0001a03e     0x3b4b examples/enocean_switch/CMakeFiles/enocean_switch_nrf52840_xxAA_s140_6.0.0.dir/__/__/mesh/access/src/device_state_manager.c.obj
 .debug_loc     0x0001db89      0x766 examples/enocean_switch/CMakeFiles/enocean_switch_nrf52840_xxAA_s140_6.0.0.dir/__/__/mesh/prov/src/prov_provisionee.c.obj
 .debug_loc     0x0001e2ef      0xa4b examples/enocean_switch/CMakeFiles/enocean_switch_nrf52840_xxAA_s140_6.0.0.dir/__/__/mesh/prov/src/nrf_mesh_prov.c.obj
 .debug_loc     0x0001ed3a      0x490 examples/enocean_switch/CMakeFiles/enocean_switch_nrf52840_xxAA_s140_6.0.0.dir/__/__/mesh/prov/src/provisioning.c.obj
 .debug_loc     0x0001f1ca      0x18c examples/enocean_switch/CMakeFiles/enocean_switch_nrf52840_xxAA_s140_6.0.0.dir/__/__/mesh/prov/src/prov_beacon.c.obj
 .debug_loc     0x0001f356      0x40b examples/enocean_switch/CMakeFiles/enocean_switch_nrf52840_xxAA_s140_6.0.0.dir/__/__/mesh/prov/src/prov_utils.c.obj
 .debug_loc     0x0001f761     0x1457 examples/enocean_switch/CMakeFiles/enocean_switch_nrf52840_xxAA_s140_6.0.0.dir/__/__/mesh/prov/src/prov_bearer_adv.c.obj
 .debug_loc     0x00020bb8       0xb5 examples/enocean_switch/CMakeFiles/enocean_switch_nrf52840_xxAA_s140_6.0.0.dir/C_/b/nRF5_SDK_15.0.0_a53641a/components/libraries/util/app_error.c.obj
 .debug_loc     0x00020c6d       0xc1 examples/enocean_switch/CMakeFiles/enocean_switch_nrf52840_xxAA_s140_6.0.0.dir/C_/b/nRF5_SDK_15.0.0_a53641a/components/libraries/util/app_util_platform.c.obj
 .debug_loc     0x00020d2e      0xa5d examples/enocean_switch/CMakeFiles/enocean_switch_nrf52840_xxAA_s140_6.0.0.dir/C_/b/nRF5_SDK_15.0.0_a53641a/components/libraries/timer/app_timer.c.obj
 .debug_loc     0x0002178b       0x63 examples/enocean_switch/CMakeFiles/enocean_switch_nrf52840_xxAA_s140_6.0.0.dir/C_/b/nRF5_SDK_15.0.0_a53641a/components/libraries/util/app_error_handler_gcc.c.obj
 .debug_loc     0x000217ee     0x1222 external/rtt/librtt_nrf52840_xxAA.a(SEGGER_RTT.c.obj)
 .debug_loc     0x00022a10      0x70f external/rtt/librtt_nrf52840_xxAA.a(SEGGER_RTT_printf.c.obj)
 .debug_loc     0x0002311f     0x2449 external/micro-ecc/libuECC_nrf52840_xxAA.a(uECC.c.obj)

.debug_aranges  0x00000000     0x2590
 .debug_aranges
                0x00000000       0x80 examples/enocean_switch/CMakeFiles/enocean_switch_nrf52840_xxAA_s140_6.0.0.dir/src/main.c.obj
 .debug_aranges
                0x00000080       0x30 examples/enocean_switch/CMakeFiles/enocean_switch_nrf52840_xxAA_s140_6.0.0.dir/src/enocean.c.obj
 .debug_aranges
                0x000000b0       0x68 examples/enocean_switch/CMakeFiles/enocean_switch_nrf52840_xxAA_s140_6.0.0.dir/src/flash_helper.c.obj
 .debug_aranges
                0x00000118       0x50 examples/enocean_switch/CMakeFiles/enocean_switch_nrf52840_xxAA_s140_6.0.0.dir/__/__/mesh/stack/src/mesh_stack.c.obj
 .debug_aranges
                0x00000168       0x48 examples/enocean_switch/CMakeFiles/enocean_switch_nrf52840_xxAA_s140_6.0.0.dir/__/common/src/mesh_softdevice_init.c.obj
 .debug_aranges
                0x000001b0       0x30 examples/enocean_switch/CMakeFiles/enocean_switch_nrf52840_xxAA_s140_6.0.0.dir/__/common/src/mesh_provisionee.c.obj
 .debug_aranges
                0x000001e0       0x30 examples/enocean_switch/CMakeFiles/enocean_switch_nrf52840_xxAA_s140_6.0.0.dir/__/common/src/rtt_input.c.obj
 .debug_aranges
                0x00000210       0x58 examples/enocean_switch/CMakeFiles/enocean_switch_nrf52840_xxAA_s140_6.0.0.dir/__/common/src/simple_hal.c.obj
 .debug_aranges
                0x00000268       0x28 examples/enocean_switch/CMakeFiles/enocean_switch_nrf52840_xxAA_s140_6.0.0.dir/__/nrf_mesh_weak.c.obj
 .debug_aranges
                0x00000290       0x20 examples/enocean_switch/CMakeFiles/enocean_switch_nrf52840_xxAA_s140_6.0.0.dir/__/common/src/app_error_weak.c.obj
 .debug_aranges
                0x000002b0       0x20 examples/enocean_switch/CMakeFiles/enocean_switch_nrf52840_xxAA_s140_6.0.0.dir/__/common/src/assertion_handler_weak.c.obj
 .debug_aranges
                0x000002d0       0x30 examples/enocean_switch/CMakeFiles/enocean_switch_nrf52840_xxAA_s140_6.0.0.dir/__/__/mesh/core/src/nrf_mesh_configure.c.obj
 .debug_aranges
                0x00000300       0x38 examples/enocean_switch/CMakeFiles/enocean_switch_nrf52840_xxAA_s140_6.0.0.dir/__/__/mesh/core/src/msg_cache.c.obj
 .debug_aranges
                0x00000338      0x110 examples/enocean_switch/CMakeFiles/enocean_switch_nrf52840_xxAA_s140_6.0.0.dir/__/__/mesh/core/src/transport.c.obj
 .debug_aranges
                0x00000448       0x30 examples/enocean_switch/CMakeFiles/enocean_switch_nrf52840_xxAA_s140_6.0.0.dir/__/__/mesh/core/src/event.c.obj
 .debug_aranges
                0x00000478       0x68 examples/enocean_switch/CMakeFiles/enocean_switch_nrf52840_xxAA_s140_6.0.0.dir/__/__/mesh/core/src/packet_buffer.c.obj
 .debug_aranges
                0x000004e0       0xc8 examples/enocean_switch/CMakeFiles/enocean_switch_nrf52840_xxAA_s140_6.0.0.dir/__/__/mesh/core/src/flash_manager_defrag.c.obj
 .debug_aranges
                0x000005a8       0x60 examples/enocean_switch/CMakeFiles/enocean_switch_nrf52840_xxAA_s140_6.0.0.dir/__/__/mesh/core/src/fifo.c.obj
 .debug_aranges
                0x00000608       0x30 examples/enocean_switch/CMakeFiles/enocean_switch_nrf52840_xxAA_s140_6.0.0.dir/__/__/mesh/core/src/nrf_flash.c.obj
 .debug_aranges
                0x00000638       0x48 examples/enocean_switch/CMakeFiles/enocean_switch_nrf52840_xxAA_s140_6.0.0.dir/__/__/mesh/core/src/packet_mgr.c.obj
 .debug_aranges
                0x00000680       0xd0 examples/enocean_switch/CMakeFiles/enocean_switch_nrf52840_xxAA_s140_6.0.0.dir/__/__/mesh/core/src/net_state.c.obj
 .debug_aranges
                0x00000750       0x60 examples/enocean_switch/CMakeFiles/enocean_switch_nrf52840_xxAA_s140_6.0.0.dir/__/__/mesh/core/src/mesh_flash.c.obj
 .debug_aranges
                0x000007b0       0x30 examples/enocean_switch/CMakeFiles/enocean_switch_nrf52840_xxAA_s140_6.0.0.dir/__/__/mesh/core/src/nrf_mesh_utils.c.obj
 .debug_aranges
                0x000007e0       0x98 examples/enocean_switch/CMakeFiles/enocean_switch_nrf52840_xxAA_s140_6.0.0.dir/__/__/mesh/core/src/nrf_mesh.c.obj
 .debug_aranges
                0x00000878       0x38 examples/enocean_switch/CMakeFiles/enocean_switch_nrf52840_xxAA_s140_6.0.0.dir/__/__/mesh/core/src/queue.c.obj
 .debug_aranges
                0x000008b0       0x30 examples/enocean_switch/CMakeFiles/enocean_switch_nrf52840_xxAA_s140_6.0.0.dir/__/__/mesh/core/src/hal.c.obj
 .debug_aranges
                0x000008e0       0x30 examples/enocean_switch/CMakeFiles/enocean_switch_nrf52840_xxAA_s140_6.0.0.dir/__/__/mesh/core/src/aes_cmac.c.obj
 .debug_aranges
                0x00000910       0x68 examples/enocean_switch/CMakeFiles/enocean_switch_nrf52840_xxAA_s140_6.0.0.dir/__/__/mesh/core/src/timer_scheduler.c.obj
 .debug_aranges
                0x00000978       0x60 examples/enocean_switch/CMakeFiles/enocean_switch_nrf52840_xxAA_s140_6.0.0.dir/__/__/mesh/core/src/timer.c.obj
 .debug_aranges
                0x000009d8       0x30 examples/enocean_switch/CMakeFiles/enocean_switch_nrf52840_xxAA_s140_6.0.0.dir/__/__/mesh/core/src/ticker.c.obj
 .debug_aranges
                0x00000a08       0x40 examples/enocean_switch/CMakeFiles/enocean_switch_nrf52840_xxAA_s140_6.0.0.dir/__/__/mesh/core/src/rand.c.obj
 .debug_aranges
                0x00000a48       0x28 examples/enocean_switch/CMakeFiles/enocean_switch_nrf52840_xxAA_s140_6.0.0.dir/__/__/mesh/core/src/nrf_mesh_opt.c.obj
 .debug_aranges
                0x00000a70       0xb8 examples/enocean_switch/CMakeFiles/enocean_switch_nrf52840_xxAA_s140_6.0.0.dir/__/__/mesh/core/src/timeslot.c.obj
 .debug_aranges
                0x00000b28       0x98 examples/enocean_switch/CMakeFiles/enocean_switch_nrf52840_xxAA_s140_6.0.0.dir/__/__/mesh/core/src/bearer_event.c.obj
 .debug_aranges
                0x00000bc0       0x78 examples/enocean_switch/CMakeFiles/enocean_switch_nrf52840_xxAA_s140_6.0.0.dir/__/__/mesh/core/src/enc.c.obj
 .debug_aranges
                0x00000c38       0x58 examples/enocean_switch/CMakeFiles/enocean_switch_nrf52840_xxAA_s140_6.0.0.dir/__/__/mesh/core/src/network.c.obj
 .debug_aranges
                0x00000c90       0x68 examples/enocean_switch/CMakeFiles/enocean_switch_nrf52840_xxAA_s140_6.0.0.dir/__/__/mesh/core/src/net_packet.c.obj
 .debug_aranges
                0x00000cf8       0x48 examples/enocean_switch/CMakeFiles/enocean_switch_nrf52840_xxAA_s140_6.0.0.dir/__/__/mesh/core/src/msqueue.c.obj
 .debug_aranges
                0x00000d40       0x40 examples/enocean_switch/CMakeFiles/enocean_switch_nrf52840_xxAA_s140_6.0.0.dir/__/__/mesh/core/src/nrf_mesh_keygen.c.obj
 .debug_aranges
                0x00000d80       0x48 examples/enocean_switch/CMakeFiles/enocean_switch_nrf52840_xxAA_s140_6.0.0.dir/__/__/mesh/core/src/list.c.obj
 .debug_aranges
                0x00000dc8       0x48 examples/enocean_switch/CMakeFiles/enocean_switch_nrf52840_xxAA_s140_6.0.0.dir/__/__/mesh/core/src/log.c.obj
 .debug_aranges
                0x00000e10       0xf8 examples/enocean_switch/CMakeFiles/enocean_switch_nrf52840_xxAA_s140_6.0.0.dir/__/__/mesh/core/src/flash_manager.c.obj
 .debug_aranges
                0x00000f08       0x50 examples/enocean_switch/CMakeFiles/enocean_switch_nrf52840_xxAA_s140_6.0.0.dir/__/__/mesh/core/src/ccm_soft.c.obj
 .debug_aranges
                0x00000f58       0x40 examples/enocean_switch/CMakeFiles/enocean_switch_nrf52840_xxAA_s140_6.0.0.dir/__/__/mesh/core/src/replay_cache.c.obj
 .debug_aranges
                0x00000f98       0x28 examples/enocean_switch/CMakeFiles/enocean_switch_nrf52840_xxAA_s140_6.0.0.dir/__/__/mesh/core/src/beacon.c.obj
 .debug_aranges
                0x00000fc0       0x20 examples/enocean_switch/CMakeFiles/enocean_switch_nrf52840_xxAA_s140_6.0.0.dir/__/__/mesh/core/src/flash_manager_internal.c.obj
 .debug_aranges
                0x00000fe0       0x58 examples/enocean_switch/CMakeFiles/enocean_switch_nrf52840_xxAA_s140_6.0.0.dir/__/__/mesh/core/src/core_tx.c.obj
 .debug_aranges
                0x00001038       0x70 examples/enocean_switch/CMakeFiles/enocean_switch_nrf52840_xxAA_s140_6.0.0.dir/__/__/mesh/core/src/heartbeat.c.obj
 .debug_aranges
                0x000010a8       0x68 examples/enocean_switch/CMakeFiles/enocean_switch_nrf52840_xxAA_s140_6.0.0.dir/__/__/mesh/core/src/net_beacon.c.obj
 .debug_aranges
                0x00001110       0x70 examples/enocean_switch/CMakeFiles/enocean_switch_nrf52840_xxAA_s140_6.0.0.dir/__/__/mesh/core/src/core_tx_adv.c.obj
 .debug_aranges
                0x00001180       0x30 examples/enocean_switch/CMakeFiles/enocean_switch_nrf52840_xxAA_s140_6.0.0.dir/__/__/mesh/bearer/src/ad_listener.c.obj
 .debug_aranges
                0x000011b0       0x58 examples/enocean_switch/CMakeFiles/enocean_switch_nrf52840_xxAA_s140_6.0.0.dir/__/__/mesh/bearer/src/ad_type_filter.c.obj
 .debug_aranges
                0x00001208       0xb8 examples/enocean_switch/CMakeFiles/enocean_switch_nrf52840_xxAA_s140_6.0.0.dir/__/__/mesh/bearer/src/advertiser.c.obj
 .debug_aranges
                0x000012c0       0x88 examples/enocean_switch/CMakeFiles/enocean_switch_nrf52840_xxAA_s140_6.0.0.dir/__/__/mesh/bearer/src/bearer_handler.c.obj
 .debug_aranges
                0x00001348       0x30 examples/enocean_switch/CMakeFiles/enocean_switch_nrf52840_xxAA_s140_6.0.0.dir/__/__/mesh/bearer/src/broadcast.c.obj
 .debug_aranges
                0x00001378       0x38 examples/enocean_switch/CMakeFiles/enocean_switch_nrf52840_xxAA_s140_6.0.0.dir/__/__/mesh/bearer/src/filter_engine.c.obj
 .debug_aranges
                0x000013b0       0x40 examples/enocean_switch/CMakeFiles/enocean_switch_nrf52840_xxAA_s140_6.0.0.dir/__/__/mesh/bearer/src/radio_config.c.obj
 .debug_aranges
                0x000013f0       0xe8 examples/enocean_switch/CMakeFiles/enocean_switch_nrf52840_xxAA_s140_6.0.0.dir/__/__/mesh/bearer/src/scanner.c.obj
 .debug_aranges
                0x000014d8       0x70 examples/enocean_switch/CMakeFiles/enocean_switch_nrf52840_xxAA_s140_6.0.0.dir/__/__/mesh/bearer/src/mesh_pa_lna.c.obj
 .debug_aranges
                0x00001548       0x60 examples/enocean_switch/CMakeFiles/enocean_switch_nrf52840_xxAA_s140_6.0.0.dir/__/__/models/simple_on_off/src/simple_on_off_client.c.obj
 .debug_aranges
                0x000015a8       0x20 examples/enocean_switch/CMakeFiles/enocean_switch_nrf52840_xxAA_s140_6.0.0.dir/__/__/models/config/src/composition_data.c.obj
 .debug_aranges
                0x000015c8      0x220 examples/enocean_switch/CMakeFiles/enocean_switch_nrf52840_xxAA_s140_6.0.0.dir/__/__/models/config/src/config_server.c.obj
 .debug_aranges
                0x000017e8       0x20 examples/enocean_switch/CMakeFiles/enocean_switch_nrf52840_xxAA_s140_6.0.0.dir/__/__/models/config/src/packed_index_list.c.obj
 .debug_aranges
                0x00001808       0xc8 examples/enocean_switch/CMakeFiles/enocean_switch_nrf52840_xxAA_s140_6.0.0.dir/__/__/models/health/src/health_server.c.obj
 .debug_aranges
                0x000018d0       0x50 examples/enocean_switch/CMakeFiles/enocean_switch_nrf52840_xxAA_s140_6.0.0.dir/__/__/mesh/access/src/access_publish.c.obj
 .debug_aranges
                0x00001920      0x1d0 examples/enocean_switch/CMakeFiles/enocean_switch_nrf52840_xxAA_s140_6.0.0.dir/__/__/mesh/access/src/access.c.obj
 .debug_aranges
                0x00001af0       0x50 examples/enocean_switch/CMakeFiles/enocean_switch_nrf52840_xxAA_s140_6.0.0.dir/__/__/mesh/access/src/access_reliable.c.obj
 .debug_aranges
                0x00001b40       0x38 examples/enocean_switch/CMakeFiles/enocean_switch_nrf52840_xxAA_s140_6.0.0.dir/__/__/mesh/access/src/access_loopback.c.obj
 .debug_aranges
                0x00001b78      0x328 examples/enocean_switch/CMakeFiles/enocean_switch_nrf52840_xxAA_s140_6.0.0.dir/__/__/mesh/access/src/device_state_manager.c.obj
 .debug_aranges
                0x00001ea0       0x70 examples/enocean_switch/CMakeFiles/enocean_switch_nrf52840_xxAA_s140_6.0.0.dir/__/__/mesh/prov/src/prov_provisionee.c.obj
 .debug_aranges
                0x00001f10       0x88 examples/enocean_switch/CMakeFiles/enocean_switch_nrf52840_xxAA_s140_6.0.0.dir/__/__/mesh/prov/src/nrf_mesh_prov.c.obj
 .debug_aranges
                0x00001f98       0x80 examples/enocean_switch/CMakeFiles/enocean_switch_nrf52840_xxAA_s140_6.0.0.dir/__/__/mesh/prov/src/provisioning.c.obj
 .debug_aranges
                0x00002018       0x38 examples/enocean_switch/CMakeFiles/enocean_switch_nrf52840_xxAA_s140_6.0.0.dir/__/__/mesh/prov/src/prov_beacon.c.obj
 .debug_aranges
                0x00002050       0x70 examples/enocean_switch/CMakeFiles/enocean_switch_nrf52840_xxAA_s140_6.0.0.dir/__/__/mesh/prov/src/prov_utils.c.obj
 .debug_aranges
                0x000020c0       0xc8 examples/enocean_switch/CMakeFiles/enocean_switch_nrf52840_xxAA_s140_6.0.0.dir/__/__/mesh/prov/src/prov_bearer_adv.c.obj
 .debug_aranges
                0x00002188       0x30 examples/enocean_switch/CMakeFiles/enocean_switch_nrf52840_xxAA_s140_6.0.0.dir/C_/b/nRF5_SDK_15.0.0_a53641a/modules/nrfx/mdk/system_nrf52840.c.obj
 .debug_aranges
                0x000021b8       0x28 examples/enocean_switch/CMakeFiles/enocean_switch_nrf52840_xxAA_s140_6.0.0.dir/C_/b/nRF5_SDK_15.0.0_a53641a/components/libraries/util/app_error.c.obj
 .debug_aranges
                0x000021e0       0x48 examples/enocean_switch/CMakeFiles/enocean_switch_nrf52840_xxAA_s140_6.0.0.dir/C_/b/nRF5_SDK_15.0.0_a53641a/components/libraries/util/app_util_platform.c.obj
 .debug_aranges
                0x00002228       0x90 examples/enocean_switch/CMakeFiles/enocean_switch_nrf52840_xxAA_s140_6.0.0.dir/C_/b/nRF5_SDK_15.0.0_a53641a/components/libraries/timer/app_timer.c.obj
 .debug_aranges
                0x000022b8       0x20 examples/enocean_switch/CMakeFiles/enocean_switch_nrf52840_xxAA_s140_6.0.0.dir/C_/b/nRF5_SDK_15.0.0_a53641a/components/libraries/util/app_error_handler_gcc.c.obj
 .debug_aranges
                0x000022d8       0xd8 external/rtt/librtt_nrf52840_xxAA.a(SEGGER_RTT.c.obj)
 .debug_aranges
                0x000023b0       0x38 external/rtt/librtt_nrf52840_xxAA.a(SEGGER_RTT_printf.c.obj)
 .debug_aranges
                0x000023e8      0x1a8 external/micro-ecc/libuECC_nrf52840_xxAA.a(uECC.c.obj)

.debug_ranges   0x00000000     0x64e0
 .debug_ranges  0x00000000      0x400 examples/enocean_switch/CMakeFiles/enocean_switch_nrf52840_xxAA_s140_6.0.0.dir/src/main.c.obj
 .debug_ranges  0x00000400      0x108 examples/enocean_switch/CMakeFiles/enocean_switch_nrf52840_xxAA_s140_6.0.0.dir/src/enocean.c.obj
 .debug_ranges  0x00000508      0x148 examples/enocean_switch/CMakeFiles/enocean_switch_nrf52840_xxAA_s140_6.0.0.dir/src/flash_helper.c.obj
 .debug_ranges  0x00000650       0x70 examples/enocean_switch/CMakeFiles/enocean_switch_nrf52840_xxAA_s140_6.0.0.dir/__/__/mesh/stack/src/mesh_stack.c.obj
 .debug_ranges  0x000006c0       0xe8 examples/enocean_switch/CMakeFiles/enocean_switch_nrf52840_xxAA_s140_6.0.0.dir/__/common/src/mesh_softdevice_init.c.obj
 .debug_ranges  0x000007a8       0x50 examples/enocean_switch/CMakeFiles/enocean_switch_nrf52840_xxAA_s140_6.0.0.dir/__/common/src/mesh_provisionee.c.obj
 .debug_ranges  0x000007f8       0x50 examples/enocean_switch/CMakeFiles/enocean_switch_nrf52840_xxAA_s140_6.0.0.dir/__/common/src/rtt_input.c.obj
 .debug_ranges  0x00000848       0x98 examples/enocean_switch/CMakeFiles/enocean_switch_nrf52840_xxAA_s140_6.0.0.dir/__/common/src/simple_hal.c.obj
 .debug_ranges  0x000008e0       0x18 examples/enocean_switch/CMakeFiles/enocean_switch_nrf52840_xxAA_s140_6.0.0.dir/__/nrf_mesh_weak.c.obj
 .debug_ranges  0x000008f8       0xb8 examples/enocean_switch/CMakeFiles/enocean_switch_nrf52840_xxAA_s140_6.0.0.dir/__/common/src/app_error_weak.c.obj
 .debug_ranges  0x000009b0       0x10 examples/enocean_switch/CMakeFiles/enocean_switch_nrf52840_xxAA_s140_6.0.0.dir/__/common/src/assertion_handler_weak.c.obj
 .debug_ranges  0x000009c0       0x20 examples/enocean_switch/CMakeFiles/enocean_switch_nrf52840_xxAA_s140_6.0.0.dir/__/__/mesh/core/src/nrf_mesh_configure.c.obj
 .debug_ranges  0x000009e0       0x48 examples/enocean_switch/CMakeFiles/enocean_switch_nrf52840_xxAA_s140_6.0.0.dir/__/__/mesh/core/src/msg_cache.c.obj
 .debug_ranges  0x00000a28      0x5d0 examples/enocean_switch/CMakeFiles/enocean_switch_nrf52840_xxAA_s140_6.0.0.dir/__/__/mesh/core/src/transport.c.obj
 .debug_ranges  0x00000ff8       0x50 examples/enocean_switch/CMakeFiles/enocean_switch_nrf52840_xxAA_s140_6.0.0.dir/__/__/mesh/core/src/event.c.obj
 .debug_ranges  0x00001048      0x128 examples/enocean_switch/CMakeFiles/enocean_switch_nrf52840_xxAA_s140_6.0.0.dir/__/__/mesh/core/src/packet_buffer.c.obj
 .debug_ranges  0x00001170      0x230 examples/enocean_switch/CMakeFiles/enocean_switch_nrf52840_xxAA_s140_6.0.0.dir/__/__/mesh/core/src/flash_manager_defrag.c.obj
 .debug_ranges  0x000013a0       0x68 examples/enocean_switch/CMakeFiles/enocean_switch_nrf52840_xxAA_s140_6.0.0.dir/__/__/mesh/core/src/fifo.c.obj
 .debug_ranges  0x00001408       0x38 examples/enocean_switch/CMakeFiles/enocean_switch_nrf52840_xxAA_s140_6.0.0.dir/__/__/mesh/core/src/nrf_flash.c.obj
 .debug_ranges  0x00001440       0xe0 examples/enocean_switch/CMakeFiles/enocean_switch_nrf52840_xxAA_s140_6.0.0.dir/__/__/mesh/core/src/packet_mgr.c.obj
 .debug_ranges  0x00001520      0x1f8 examples/enocean_switch/CMakeFiles/enocean_switch_nrf52840_xxAA_s140_6.0.0.dir/__/__/mesh/core/src/net_state.c.obj
 .debug_ranges  0x00001718      0x1c8 examples/enocean_switch/CMakeFiles/enocean_switch_nrf52840_xxAA_s140_6.0.0.dir/__/__/mesh/core/src/mesh_flash.c.obj
 .debug_ranges  0x000018e0       0x20 examples/enocean_switch/CMakeFiles/enocean_switch_nrf52840_xxAA_s140_6.0.0.dir/__/__/mesh/core/src/nrf_mesh_utils.c.obj
 .debug_ranges  0x00001900       0xe8 examples/enocean_switch/CMakeFiles/enocean_switch_nrf52840_xxAA_s140_6.0.0.dir/__/__/mesh/core/src/nrf_mesh.c.obj
 .debug_ranges  0x000019e8       0x28 examples/enocean_switch/CMakeFiles/enocean_switch_nrf52840_xxAA_s140_6.0.0.dir/__/__/mesh/core/src/queue.c.obj
 .debug_ranges  0x00001a10       0x20 examples/enocean_switch/CMakeFiles/enocean_switch_nrf52840_xxAA_s140_6.0.0.dir/__/__/mesh/core/src/hal.c.obj
 .debug_ranges  0x00001a30      0x120 examples/enocean_switch/CMakeFiles/enocean_switch_nrf52840_xxAA_s140_6.0.0.dir/__/__/mesh/core/src/aes_cmac.c.obj
 .debug_ranges  0x00001b50       0xf0 examples/enocean_switch/CMakeFiles/enocean_switch_nrf52840_xxAA_s140_6.0.0.dir/__/__/mesh/core/src/timer_scheduler.c.obj
 .debug_ranges  0x00001c40       0xd8 examples/enocean_switch/CMakeFiles/enocean_switch_nrf52840_xxAA_s140_6.0.0.dir/__/__/mesh/core/src/timer.c.obj
 .debug_ranges  0x00001d18       0x20 examples/enocean_switch/CMakeFiles/enocean_switch_nrf52840_xxAA_s140_6.0.0.dir/__/__/mesh/core/src/ticker.c.obj
 .debug_ranges  0x00001d38       0x30 examples/enocean_switch/CMakeFiles/enocean_switch_nrf52840_xxAA_s140_6.0.0.dir/__/__/mesh/core/src/rand.c.obj
 .debug_ranges  0x00001d68       0x18 examples/enocean_switch/CMakeFiles/enocean_switch_nrf52840_xxAA_s140_6.0.0.dir/__/__/mesh/core/src/nrf_mesh_opt.c.obj
 .debug_ranges  0x00001d80      0x168 examples/enocean_switch/CMakeFiles/enocean_switch_nrf52840_xxAA_s140_6.0.0.dir/__/__/mesh/core/src/timeslot.c.obj
 .debug_ranges  0x00001ee8       0xf8 examples/enocean_switch/CMakeFiles/enocean_switch_nrf52840_xxAA_s140_6.0.0.dir/__/__/mesh/core/src/bearer_event.c.obj
 .debug_ranges  0x00001fe0       0xb8 examples/enocean_switch/CMakeFiles/enocean_switch_nrf52840_xxAA_s140_6.0.0.dir/__/__/mesh/core/src/enc.c.obj
 .debug_ranges  0x00002098       0xe8 examples/enocean_switch/CMakeFiles/enocean_switch_nrf52840_xxAA_s140_6.0.0.dir/__/__/mesh/core/src/network.c.obj
 .debug_ranges  0x00002180      0x160 examples/enocean_switch/CMakeFiles/enocean_switch_nrf52840_xxAA_s140_6.0.0.dir/__/__/mesh/core/src/net_packet.c.obj
 .debug_ranges  0x000022e0       0x50 examples/enocean_switch/CMakeFiles/enocean_switch_nrf52840_xxAA_s140_6.0.0.dir/__/__/mesh/core/src/msqueue.c.obj
 .debug_ranges  0x00002330       0x30 examples/enocean_switch/CMakeFiles/enocean_switch_nrf52840_xxAA_s140_6.0.0.dir/__/__/mesh/core/src/nrf_mesh_keygen.c.obj
 .debug_ranges  0x00002360       0x78 examples/enocean_switch/CMakeFiles/enocean_switch_nrf52840_xxAA_s140_6.0.0.dir/__/__/mesh/core/src/list.c.obj
 .debug_ranges  0x000023d8       0x38 examples/enocean_switch/CMakeFiles/enocean_switch_nrf52840_xxAA_s140_6.0.0.dir/__/__/mesh/core/src/log.c.obj
 .debug_ranges  0x00002410      0x388 examples/enocean_switch/CMakeFiles/enocean_switch_nrf52840_xxAA_s140_6.0.0.dir/__/__/mesh/core/src/flash_manager.c.obj
 .debug_ranges  0x00002798       0xa0 examples/enocean_switch/CMakeFiles/enocean_switch_nrf52840_xxAA_s140_6.0.0.dir/__/__/mesh/core/src/ccm_soft.c.obj
 .debug_ranges  0x00002838       0x30 examples/enocean_switch/CMakeFiles/enocean_switch_nrf52840_xxAA_s140_6.0.0.dir/__/__/mesh/core/src/replay_cache.c.obj
 .debug_ranges  0x00002868       0x90 examples/enocean_switch/CMakeFiles/enocean_switch_nrf52840_xxAA_s140_6.0.0.dir/__/__/mesh/core/src/beacon.c.obj
 .debug_ranges  0x000028f8       0x10 examples/enocean_switch/CMakeFiles/enocean_switch_nrf52840_xxAA_s140_6.0.0.dir/__/__/mesh/core/src/flash_manager_internal.c.obj
 .debug_ranges  0x00002908       0xf8 examples/enocean_switch/CMakeFiles/enocean_switch_nrf52840_xxAA_s140_6.0.0.dir/__/__/mesh/core/src/core_tx.c.obj
 .debug_ranges  0x00002a00       0xc0 examples/enocean_switch/CMakeFiles/enocean_switch_nrf52840_xxAA_s140_6.0.0.dir/__/__/mesh/core/src/heartbeat.c.obj
 .debug_ranges  0x00002ac0      0x170 examples/enocean_switch/CMakeFiles/enocean_switch_nrf52840_xxAA_s140_6.0.0.dir/__/__/mesh/core/src/net_beacon.c.obj
 .debug_ranges  0x00002c30       0x60 examples/enocean_switch/CMakeFiles/enocean_switch_nrf52840_xxAA_s140_6.0.0.dir/__/__/mesh/core/src/core_tx_adv.c.obj
 .debug_ranges  0x00002c90      0x110 examples/enocean_switch/CMakeFiles/enocean_switch_nrf52840_xxAA_s140_6.0.0.dir/__/__/mesh/bearer/src/ad_listener.c.obj
 .debug_ranges  0x00002da0       0xd0 examples/enocean_switch/CMakeFiles/enocean_switch_nrf52840_xxAA_s140_6.0.0.dir/__/__/mesh/bearer/src/ad_type_filter.c.obj
 .debug_ranges  0x00002e70      0x248 examples/enocean_switch/CMakeFiles/enocean_switch_nrf52840_xxAA_s140_6.0.0.dir/__/__/mesh/bearer/src/advertiser.c.obj
 .debug_ranges  0x000030b8      0x180 examples/enocean_switch/CMakeFiles/enocean_switch_nrf52840_xxAA_s140_6.0.0.dir/__/__/mesh/bearer/src/bearer_handler.c.obj
 .debug_ranges  0x00003238       0xc0 examples/enocean_switch/CMakeFiles/enocean_switch_nrf52840_xxAA_s140_6.0.0.dir/__/__/mesh/bearer/src/broadcast.c.obj
 .debug_ranges  0x000032f8       0x48 examples/enocean_switch/CMakeFiles/enocean_switch_nrf52840_xxAA_s140_6.0.0.dir/__/__/mesh/bearer/src/filter_engine.c.obj
 .debug_ranges  0x00003340       0x48 examples/enocean_switch/CMakeFiles/enocean_switch_nrf52840_xxAA_s140_6.0.0.dir/__/__/mesh/bearer/src/radio_config.c.obj
 .debug_ranges  0x00003388      0x1a8 examples/enocean_switch/CMakeFiles/enocean_switch_nrf52840_xxAA_s140_6.0.0.dir/__/__/mesh/bearer/src/scanner.c.obj
 .debug_ranges  0x00003530       0xb8 examples/enocean_switch/CMakeFiles/enocean_switch_nrf52840_xxAA_s140_6.0.0.dir/__/__/mesh/bearer/src/mesh_pa_lna.c.obj
 .debug_ranges  0x000035e8       0x80 examples/enocean_switch/CMakeFiles/enocean_switch_nrf52840_xxAA_s140_6.0.0.dir/__/__/models/simple_on_off/src/simple_on_off_client.c.obj
 .debug_ranges  0x00003668       0xb8 examples/enocean_switch/CMakeFiles/enocean_switch_nrf52840_xxAA_s140_6.0.0.dir/__/__/models/config/src/composition_data.c.obj
 .debug_ranges  0x00003720      0x790 examples/enocean_switch/CMakeFiles/enocean_switch_nrf52840_xxAA_s140_6.0.0.dir/__/__/models/config/src/config_server.c.obj
 .debug_ranges  0x00003eb0       0x10 examples/enocean_switch/CMakeFiles/enocean_switch_nrf52840_xxAA_s140_6.0.0.dir/__/__/models/config/src/packed_index_list.c.obj
 .debug_ranges  0x00003ec0      0x260 examples/enocean_switch/CMakeFiles/enocean_switch_nrf52840_xxAA_s140_6.0.0.dir/__/__/models/health/src/health_server.c.obj
 .debug_ranges  0x00004120      0x118 examples/enocean_switch/CMakeFiles/enocean_switch_nrf52840_xxAA_s140_6.0.0.dir/__/__/mesh/access/src/access_publish.c.obj
 .debug_ranges  0x00004238      0x7f0 examples/enocean_switch/CMakeFiles/enocean_switch_nrf52840_xxAA_s140_6.0.0.dir/__/__/mesh/access/src/access.c.obj
 .debug_ranges  0x00004a28      0x160 examples/enocean_switch/CMakeFiles/enocean_switch_nrf52840_xxAA_s140_6.0.0.dir/__/__/mesh/access/src/access_reliable.c.obj
 .debug_ranges  0x00004b88       0x28 examples/enocean_switch/CMakeFiles/enocean_switch_nrf52840_xxAA_s140_6.0.0.dir/__/__/mesh/access/src/access_loopback.c.obj
 .debug_ranges  0x00004bb0      0x848 examples/enocean_switch/CMakeFiles/enocean_switch_nrf52840_xxAA_s140_6.0.0.dir/__/__/mesh/access/src/device_state_manager.c.obj
 .debug_ranges  0x000053f8      0x148 examples/enocean_switch/CMakeFiles/enocean_switch_nrf52840_xxAA_s140_6.0.0.dir/__/__/mesh/prov/src/prov_provisionee.c.obj
 .debug_ranges  0x00005540      0x130 examples/enocean_switch/CMakeFiles/enocean_switch_nrf52840_xxAA_s140_6.0.0.dir/__/__/mesh/prov/src/nrf_mesh_prov.c.obj
 .debug_ranges  0x00005670       0x70 examples/enocean_switch/CMakeFiles/enocean_switch_nrf52840_xxAA_s140_6.0.0.dir/__/__/mesh/prov/src/provisioning.c.obj
 .debug_ranges  0x000056e0       0x40 examples/enocean_switch/CMakeFiles/enocean_switch_nrf52840_xxAA_s140_6.0.0.dir/__/__/mesh/prov/src/prov_beacon.c.obj
 .debug_ranges  0x00005720       0xb8 examples/enocean_switch/CMakeFiles/enocean_switch_nrf52840_xxAA_s140_6.0.0.dir/__/__/mesh/prov/src/prov_utils.c.obj
 .debug_ranges  0x000057d8      0x498 examples/enocean_switch/CMakeFiles/enocean_switch_nrf52840_xxAA_s140_6.0.0.dir/__/__/mesh/prov/src/prov_bearer_adv.c.obj
 .debug_ranges  0x00005c70       0x20 examples/enocean_switch/CMakeFiles/enocean_switch_nrf52840_xxAA_s140_6.0.0.dir/C_/b/nRF5_SDK_15.0.0_a53641a/modules/nrfx/mdk/system_nrf52840.c.obj
 .debug_ranges  0x00005c90       0x18 examples/enocean_switch/CMakeFiles/enocean_switch_nrf52840_xxAA_s140_6.0.0.dir/C_/b/nRF5_SDK_15.0.0_a53641a/components/libraries/util/app_error.c.obj
 .debug_ranges  0x00005ca8       0x38 examples/enocean_switch/CMakeFiles/enocean_switch_nrf52840_xxAA_s140_6.0.0.dir/C_/b/nRF5_SDK_15.0.0_a53641a/components/libraries/util/app_util_platform.c.obj
 .debug_ranges  0x00005ce0      0x390 examples/enocean_switch/CMakeFiles/enocean_switch_nrf52840_xxAA_s140_6.0.0.dir/C_/b/nRF5_SDK_15.0.0_a53641a/components/libraries/timer/app_timer.c.obj
 .debug_ranges  0x00006070       0x10 examples/enocean_switch/CMakeFiles/enocean_switch_nrf52840_xxAA_s140_6.0.0.dir/C_/b/nRF5_SDK_15.0.0_a53641a/components/libraries/util/app_error_handler_gcc.c.obj
 .debug_ranges  0x00006080      0x130 external/rtt/librtt_nrf52840_xxAA.a(SEGGER_RTT.c.obj)
 .debug_ranges  0x000061b0       0x48 external/rtt/librtt_nrf52840_xxAA.a(SEGGER_RTT_printf.c.obj)
 .debug_ranges  0x000061f8      0x2e8 external/micro-ecc/libuECC_nrf52840_xxAA.a(uECC.c.obj)

.debug_line     0x00000000    0x19305
 .debug_line    0x00000000      0xc56 examples/enocean_switch/CMakeFiles/enocean_switch_nrf52840_xxAA_s140_6.0.0.dir/src/main.c.obj
 .debug_line    0x00000c56      0x41a examples/enocean_switch/CMakeFiles/enocean_switch_nrf52840_xxAA_s140_6.0.0.dir/src/enocean.c.obj
 .debug_line    0x00001070      0x58d examples/enocean_switch/CMakeFiles/enocean_switch_nrf52840_xxAA_s140_6.0.0.dir/src/flash_helper.c.obj
 .debug_line    0x000015fd      0x4a0 examples/enocean_switch/CMakeFiles/enocean_switch_nrf52840_xxAA_s140_6.0.0.dir/__/__/mesh/stack/src/mesh_stack.c.obj
 .debug_line    0x00001a9d      0x42e examples/enocean_switch/CMakeFiles/enocean_switch_nrf52840_xxAA_s140_6.0.0.dir/__/common/src/mesh_softdevice_init.c.obj
 .debug_line    0x00001ecb      0x4df examples/enocean_switch/CMakeFiles/enocean_switch_nrf52840_xxAA_s140_6.0.0.dir/__/common/src/mesh_provisionee.c.obj
 .debug_line    0x000023aa      0x385 examples/enocean_switch/CMakeFiles/enocean_switch_nrf52840_xxAA_s140_6.0.0.dir/__/common/src/rtt_input.c.obj
 .debug_line    0x0000272f      0x43d examples/enocean_switch/CMakeFiles/enocean_switch_nrf52840_xxAA_s140_6.0.0.dir/__/common/src/simple_hal.c.obj
 .debug_line    0x00002b6c      0x1e5 examples/enocean_switch/CMakeFiles/enocean_switch_nrf52840_xxAA_s140_6.0.0.dir/__/nrf_mesh_weak.c.obj
 .debug_line    0x00002d51      0x473 examples/enocean_switch/CMakeFiles/enocean_switch_nrf52840_xxAA_s140_6.0.0.dir/__/common/src/app_error_weak.c.obj
 .debug_line    0x000031c4      0x22b examples/enocean_switch/CMakeFiles/enocean_switch_nrf52840_xxAA_s140_6.0.0.dir/__/common/src/assertion_handler_weak.c.obj
 .debug_line    0x000033ef      0x225 examples/enocean_switch/CMakeFiles/enocean_switch_nrf52840_xxAA_s140_6.0.0.dir/__/__/mesh/core/src/nrf_mesh_configure.c.obj
 .debug_line    0x00003614      0x258 examples/enocean_switch/CMakeFiles/enocean_switch_nrf52840_xxAA_s140_6.0.0.dir/__/__/mesh/core/src/msg_cache.c.obj
 .debug_line    0x0000386c      0xcb5 examples/enocean_switch/CMakeFiles/enocean_switch_nrf52840_xxAA_s140_6.0.0.dir/__/__/mesh/core/src/transport.c.obj
 .debug_line    0x00004521      0x2f6 examples/enocean_switch/CMakeFiles/enocean_switch_nrf52840_xxAA_s140_6.0.0.dir/__/__/mesh/core/src/event.c.obj
 .debug_line    0x00004817      0x4af examples/enocean_switch/CMakeFiles/enocean_switch_nrf52840_xxAA_s140_6.0.0.dir/__/__/mesh/core/src/packet_buffer.c.obj
 .debug_line    0x00004cc6      0x6d1 examples/enocean_switch/CMakeFiles/enocean_switch_nrf52840_xxAA_s140_6.0.0.dir/__/__/mesh/core/src/flash_manager_defrag.c.obj
 .debug_line    0x00005397      0x36f examples/enocean_switch/CMakeFiles/enocean_switch_nrf52840_xxAA_s140_6.0.0.dir/__/__/mesh/core/src/fifo.c.obj
 .debug_line    0x00005706      0x236 examples/enocean_switch/CMakeFiles/enocean_switch_nrf52840_xxAA_s140_6.0.0.dir/__/__/mesh/core/src/nrf_flash.c.obj
 .debug_line    0x0000593c      0x40e examples/enocean_switch/CMakeFiles/enocean_switch_nrf52840_xxAA_s140_6.0.0.dir/__/__/mesh/core/src/packet_mgr.c.obj
 .debug_line    0x00005d4a      0x6b7 examples/enocean_switch/CMakeFiles/enocean_switch_nrf52840_xxAA_s140_6.0.0.dir/__/__/mesh/core/src/net_state.c.obj
 .debug_line    0x00006401      0x50b examples/enocean_switch/CMakeFiles/enocean_switch_nrf52840_xxAA_s140_6.0.0.dir/__/__/mesh/core/src/mesh_flash.c.obj
 .debug_line    0x0000690c      0x24c examples/enocean_switch/CMakeFiles/enocean_switch_nrf52840_xxAA_s140_6.0.0.dir/__/__/mesh/core/src/nrf_mesh_utils.c.obj
 .debug_line    0x00006b58      0x75e examples/enocean_switch/CMakeFiles/enocean_switch_nrf52840_xxAA_s140_6.0.0.dir/__/__/mesh/core/src/nrf_mesh.c.obj
 .debug_line    0x000072b6      0x284 examples/enocean_switch/CMakeFiles/enocean_switch_nrf52840_xxAA_s140_6.0.0.dir/__/__/mesh/core/src/queue.c.obj
 .debug_line    0x0000753a      0x1fd examples/enocean_switch/CMakeFiles/enocean_switch_nrf52840_xxAA_s140_6.0.0.dir/__/__/mesh/core/src/hal.c.obj
 .debug_line    0x00007737      0x30a examples/enocean_switch/CMakeFiles/enocean_switch_nrf52840_xxAA_s140_6.0.0.dir/__/__/mesh/core/src/aes_cmac.c.obj
 .debug_line    0x00007a41      0x422 examples/enocean_switch/CMakeFiles/enocean_switch_nrf52840_xxAA_s140_6.0.0.dir/__/__/mesh/core/src/timer_scheduler.c.obj
 .debug_line    0x00007e63      0x3a5 examples/enocean_switch/CMakeFiles/enocean_switch_nrf52840_xxAA_s140_6.0.0.dir/__/__/mesh/core/src/timer.c.obj
 .debug_line    0x00008208      0x124 examples/enocean_switch/CMakeFiles/enocean_switch_nrf52840_xxAA_s140_6.0.0.dir/__/__/mesh/core/src/ticker.c.obj
 .debug_line    0x0000832c      0x269 examples/enocean_switch/CMakeFiles/enocean_switch_nrf52840_xxAA_s140_6.0.0.dir/__/__/mesh/core/src/rand.c.obj
 .debug_line    0x00008595      0x25a examples/enocean_switch/CMakeFiles/enocean_switch_nrf52840_xxAA_s140_6.0.0.dir/__/__/mesh/core/src/nrf_mesh_opt.c.obj
 .debug_line    0x000087ef      0x54e examples/enocean_switch/CMakeFiles/enocean_switch_nrf52840_xxAA_s140_6.0.0.dir/__/__/mesh/core/src/timeslot.c.obj
 .debug_line    0x00008d3d      0x50d examples/enocean_switch/CMakeFiles/enocean_switch_nrf52840_xxAA_s140_6.0.0.dir/__/__/mesh/core/src/bearer_event.c.obj
 .debug_line    0x0000924a      0x48a examples/enocean_switch/CMakeFiles/enocean_switch_nrf52840_xxAA_s140_6.0.0.dir/__/__/mesh/core/src/enc.c.obj
 .debug_line    0x000096d4      0x558 examples/enocean_switch/CMakeFiles/enocean_switch_nrf52840_xxAA_s140_6.0.0.dir/__/__/mesh/core/src/network.c.obj
 .debug_line    0x00009c2c      0x554 examples/enocean_switch/CMakeFiles/enocean_switch_nrf52840_xxAA_s140_6.0.0.dir/__/__/mesh/core/src/net_packet.c.obj
 .debug_line    0x0000a180      0x2f3 examples/enocean_switch/CMakeFiles/enocean_switch_nrf52840_xxAA_s140_6.0.0.dir/__/__/mesh/core/src/msqueue.c.obj
 .debug_line    0x0000a473      0x229 examples/enocean_switch/CMakeFiles/enocean_switch_nrf52840_xxAA_s140_6.0.0.dir/__/__/mesh/core/src/nrf_mesh_keygen.c.obj
 .debug_line    0x0000a69c      0x2d3 examples/enocean_switch/CMakeFiles/enocean_switch_nrf52840_xxAA_s140_6.0.0.dir/__/__/mesh/core/src/list.c.obj
 .debug_line    0x0000a96f      0x278 examples/enocean_switch/CMakeFiles/enocean_switch_nrf52840_xxAA_s140_6.0.0.dir/__/__/mesh/core/src/log.c.obj
 .debug_line    0x0000abe7      0x8f9 examples/enocean_switch/CMakeFiles/enocean_switch_nrf52840_xxAA_s140_6.0.0.dir/__/__/mesh/core/src/flash_manager.c.obj
 .debug_line    0x0000b4e0      0x3a5 examples/enocean_switch/CMakeFiles/enocean_switch_nrf52840_xxAA_s140_6.0.0.dir/__/__/mesh/core/src/ccm_soft.c.obj
 .debug_line    0x0000b885      0x1cd examples/enocean_switch/CMakeFiles/enocean_switch_nrf52840_xxAA_s140_6.0.0.dir/__/__/mesh/core/src/replay_cache.c.obj
 .debug_line    0x0000ba52      0x484 examples/enocean_switch/CMakeFiles/enocean_switch_nrf52840_xxAA_s140_6.0.0.dir/__/__/mesh/core/src/beacon.c.obj
 .debug_line    0x0000bed6      0x26c examples/enocean_switch/CMakeFiles/enocean_switch_nrf52840_xxAA_s140_6.0.0.dir/__/__/mesh/core/src/flash_manager_internal.c.obj
 .debug_line    0x0000c142      0x399 examples/enocean_switch/CMakeFiles/enocean_switch_nrf52840_xxAA_s140_6.0.0.dir/__/__/mesh/core/src/core_tx.c.obj
 .debug_line    0x0000c4db      0x5ae examples/enocean_switch/CMakeFiles/enocean_switch_nrf52840_xxAA_s140_6.0.0.dir/__/__/mesh/core/src/heartbeat.c.obj
 .debug_line    0x0000ca89      0x5ee examples/enocean_switch/CMakeFiles/enocean_switch_nrf52840_xxAA_s140_6.0.0.dir/__/__/mesh/core/src/net_beacon.c.obj
 .debug_line    0x0000d077      0x4d1 examples/enocean_switch/CMakeFiles/enocean_switch_nrf52840_xxAA_s140_6.0.0.dir/__/__/mesh/core/src/core_tx_adv.c.obj
 .debug_line    0x0000d548      0x32e examples/enocean_switch/CMakeFiles/enocean_switch_nrf52840_xxAA_s140_6.0.0.dir/__/__/mesh/bearer/src/ad_listener.c.obj
 .debug_line    0x0000d876      0x3df examples/enocean_switch/CMakeFiles/enocean_switch_nrf52840_xxAA_s140_6.0.0.dir/__/__/mesh/bearer/src/ad_type_filter.c.obj
 .debug_line    0x0000dc55      0x6e7 examples/enocean_switch/CMakeFiles/enocean_switch_nrf52840_xxAA_s140_6.0.0.dir/__/__/mesh/bearer/src/advertiser.c.obj
 .debug_line    0x0000e33c      0x59f examples/enocean_switch/CMakeFiles/enocean_switch_nrf52840_xxAA_s140_6.0.0.dir/__/__/mesh/bearer/src/bearer_handler.c.obj
 .debug_line    0x0000e8db      0x370 examples/enocean_switch/CMakeFiles/enocean_switch_nrf52840_xxAA_s140_6.0.0.dir/__/__/mesh/bearer/src/broadcast.c.obj
 .debug_line    0x0000ec4b      0x31d examples/enocean_switch/CMakeFiles/enocean_switch_nrf52840_xxAA_s140_6.0.0.dir/__/__/mesh/bearer/src/filter_engine.c.obj
 .debug_line    0x0000ef68      0x28d examples/enocean_switch/CMakeFiles/enocean_switch_nrf52840_xxAA_s140_6.0.0.dir/__/__/mesh/bearer/src/radio_config.c.obj
 .debug_line    0x0000f1f5      0x6ce examples/enocean_switch/CMakeFiles/enocean_switch_nrf52840_xxAA_s140_6.0.0.dir/__/__/mesh/bearer/src/scanner.c.obj
 .debug_line    0x0000f8c3      0x31a examples/enocean_switch/CMakeFiles/enocean_switch_nrf52840_xxAA_s140_6.0.0.dir/__/__/mesh/bearer/src/mesh_pa_lna.c.obj
 .debug_line    0x0000fbdd      0x45f examples/enocean_switch/CMakeFiles/enocean_switch_nrf52840_xxAA_s140_6.0.0.dir/__/__/models/simple_on_off/src/simple_on_off_client.c.obj
 .debug_line    0x0001003c      0x307 examples/enocean_switch/CMakeFiles/enocean_switch_nrf52840_xxAA_s140_6.0.0.dir/__/__/models/config/src/composition_data.c.obj
 .debug_line    0x00010343     0x1372 examples/enocean_switch/CMakeFiles/enocean_switch_nrf52840_xxAA_s140_6.0.0.dir/__/__/models/config/src/config_server.c.obj
 .debug_line    0x000116b5       0xef examples/enocean_switch/CMakeFiles/enocean_switch_nrf52840_xxAA_s140_6.0.0.dir/__/__/models/config/src/packed_index_list.c.obj
 .debug_line    0x000117a4      0x67d examples/enocean_switch/CMakeFiles/enocean_switch_nrf52840_xxAA_s140_6.0.0.dir/__/__/models/health/src/health_server.c.obj
 .debug_line    0x00011e21      0x411 examples/enocean_switch/CMakeFiles/enocean_switch_nrf52840_xxAA_s140_6.0.0.dir/__/__/mesh/access/src/access_publish.c.obj
 .debug_line    0x00012232      0xf47 examples/enocean_switch/CMakeFiles/enocean_switch_nrf52840_xxAA_s140_6.0.0.dir/__/__/mesh/access/src/access.c.obj
 .debug_line    0x00013179      0x516 examples/enocean_switch/CMakeFiles/enocean_switch_nrf52840_xxAA_s140_6.0.0.dir/__/__/mesh/access/src/access_reliable.c.obj
 .debug_line    0x0001368f      0x364 examples/enocean_switch/CMakeFiles/enocean_switch_nrf52840_xxAA_s140_6.0.0.dir/__/__/mesh/access/src/access_loopback.c.obj
 .debug_line    0x000139f3     0x1449 examples/enocean_switch/CMakeFiles/enocean_switch_nrf52840_xxAA_s140_6.0.0.dir/__/__/mesh/access/src/device_state_manager.c.obj
 .debug_line    0x00014e3c      0x621 examples/enocean_switch/CMakeFiles/enocean_switch_nrf52840_xxAA_s140_6.0.0.dir/__/__/mesh/prov/src/prov_provisionee.c.obj
 .debug_line    0x0001545d      0x551 examples/enocean_switch/CMakeFiles/enocean_switch_nrf52840_xxAA_s140_6.0.0.dir/__/__/mesh/prov/src/nrf_mesh_prov.c.obj
 .debug_line    0x000159ae      0x3b1 examples/enocean_switch/CMakeFiles/enocean_switch_nrf52840_xxAA_s140_6.0.0.dir/__/__/mesh/prov/src/provisioning.c.obj
 .debug_line    0x00015d5f      0x451 examples/enocean_switch/CMakeFiles/enocean_switch_nrf52840_xxAA_s140_6.0.0.dir/__/__/mesh/prov/src/prov_beacon.c.obj
 .debug_line    0x000161b0      0x496 examples/enocean_switch/CMakeFiles/enocean_switch_nrf52840_xxAA_s140_6.0.0.dir/__/__/mesh/prov/src/prov_utils.c.obj
 .debug_line    0x00016646      0xb1b examples/enocean_switch/CMakeFiles/enocean_switch_nrf52840_xxAA_s140_6.0.0.dir/__/__/mesh/prov/src/prov_bearer_adv.c.obj
 .debug_line    0x00017161      0x1ff examples/enocean_switch/CMakeFiles/enocean_switch_nrf52840_xxAA_s140_6.0.0.dir/C_/b/nRF5_SDK_15.0.0_a53641a/modules/nrfx/mdk/system_nrf52840.c.obj
 .debug_line    0x00017360      0x263 examples/enocean_switch/CMakeFiles/enocean_switch_nrf52840_xxAA_s140_6.0.0.dir/C_/b/nRF5_SDK_15.0.0_a53641a/components/libraries/util/app_error.c.obj
 .debug_line    0x000175c3      0x33a examples/enocean_switch/CMakeFiles/enocean_switch_nrf52840_xxAA_s140_6.0.0.dir/C_/b/nRF5_SDK_15.0.0_a53641a/components/libraries/util/app_util_platform.c.obj
 .debug_line    0x000178fd      0x6bb examples/enocean_switch/CMakeFiles/enocean_switch_nrf52840_xxAA_s140_6.0.0.dir/C_/b/nRF5_SDK_15.0.0_a53641a/components/libraries/timer/app_timer.c.obj
 .debug_line    0x00017fb8      0x208 examples/enocean_switch/CMakeFiles/enocean_switch_nrf52840_xxAA_s140_6.0.0.dir/C_/b/nRF5_SDK_15.0.0_a53641a/components/libraries/util/app_error_handler_gcc.c.obj
 .debug_line    0x000181c0      0x4c3 external/rtt/librtt_nrf52840_xxAA.a(SEGGER_RTT.c.obj)
 .debug_line    0x00018683      0x285 external/rtt/librtt_nrf52840_xxAA.a(SEGGER_RTT_printf.c.obj)
 .debug_line    0x00018908      0x9fd external/micro-ecc/libuECC_nrf52840_xxAA.a(uECC.c.obj)

.debug_str      0x00000000    0x14b5e
 .debug_str     0x00000000     0x3254 examples/enocean_switch/CMakeFiles/enocean_switch_nrf52840_xxAA_s140_6.0.0.dir/src/main.c.obj
                               0x36fe (size before relaxing)
 .debug_str     0x00003254      0x2f9 examples/enocean_switch/CMakeFiles/enocean_switch_nrf52840_xxAA_s140_6.0.0.dir/src/enocean.c.obj
                                0xee9 (size before relaxing)
 .debug_str     0x0000354d      0x4e2 examples/enocean_switch/CMakeFiles/enocean_switch_nrf52840_xxAA_s140_6.0.0.dir/src/flash_helper.c.obj
                                0xd4f (size before relaxing)
 .debug_str     0x00003a2f      0x23a examples/enocean_switch/CMakeFiles/enocean_switch_nrf52840_xxAA_s140_6.0.0.dir/__/__/mesh/stack/src/mesh_stack.c.obj
                               0x2746 (size before relaxing)
 .debug_str     0x00003c69      0x6b8 examples/enocean_switch/CMakeFiles/enocean_switch_nrf52840_xxAA_s140_6.0.0.dir/__/common/src/mesh_softdevice_init.c.obj
                               0x1632 (size before relaxing)
 .debug_str     0x00004321     0x1883 examples/enocean_switch/CMakeFiles/enocean_switch_nrf52840_xxAA_s140_6.0.0.dir/__/common/src/mesh_provisionee.c.obj
                               0x24e6 (size before relaxing)
 .debug_str     0x00005ba4      0x1c9 examples/enocean_switch/CMakeFiles/enocean_switch_nrf52840_xxAA_s140_6.0.0.dir/__/common/src/rtt_input.c.obj
                                0x86a (size before relaxing)
 .debug_str     0x00005d6d      0x1d0 examples/enocean_switch/CMakeFiles/enocean_switch_nrf52840_xxAA_s140_6.0.0.dir/__/common/src/simple_hal.c.obj
                                0xdd0 (size before relaxing)
 .debug_str     0x00005f3d       0x3c examples/enocean_switch/CMakeFiles/enocean_switch_nrf52840_xxAA_s140_6.0.0.dir/__/nrf_mesh_weak.c.obj
                                0x61c (size before relaxing)
 .debug_str     0x00005f79       0xa0 examples/enocean_switch/CMakeFiles/enocean_switch_nrf52840_xxAA_s140_6.0.0.dir/__/common/src/app_error_weak.c.obj
                                0x85d (size before relaxing)
 .debug_str     0x00006019       0x30 examples/enocean_switch/CMakeFiles/enocean_switch_nrf52840_xxAA_s140_6.0.0.dir/__/common/src/assertion_handler_weak.c.obj
                                0x672 (size before relaxing)
 .debug_str     0x00006049      0x1a5 examples/enocean_switch/CMakeFiles/enocean_switch_nrf52840_xxAA_s140_6.0.0.dir/__/__/mesh/core/src/nrf_mesh_configure.c.obj
                                0x7ed (size before relaxing)
 .debug_str     0x000061ee       0xbb examples/enocean_switch/CMakeFiles/enocean_switch_nrf52840_xxAA_s140_6.0.0.dir/__/__/mesh/core/src/msg_cache.c.obj
                                0x6b9 (size before relaxing)
 .debug_str     0x000062a9     0x165a examples/enocean_switch/CMakeFiles/enocean_switch_nrf52840_xxAA_s140_6.0.0.dir/__/__/mesh/core/src/transport.c.obj
                               0x3148 (size before relaxing)
 .debug_str     0x00007903       0xfd examples/enocean_switch/CMakeFiles/enocean_switch_nrf52840_xxAA_s140_6.0.0.dir/__/__/mesh/core/src/event.c.obj
                               0x1753 (size before relaxing)
 .debug_str     0x00007a00      0x30d examples/enocean_switch/CMakeFiles/enocean_switch_nrf52840_xxAA_s140_6.0.0.dir/__/__/mesh/core/src/packet_buffer.c.obj
                                0xb1b (size before relaxing)
 .debug_str     0x00007d0d      0x65e examples/enocean_switch/CMakeFiles/enocean_switch_nrf52840_xxAA_s140_6.0.0.dir/__/__/mesh/core/src/flash_manager_defrag.c.obj
                               0x118d (size before relaxing)
 .debug_str     0x0000836b       0xa5 examples/enocean_switch/CMakeFiles/enocean_switch_nrf52840_xxAA_s140_6.0.0.dir/__/__/mesh/core/src/fifo.c.obj
                                0x6db (size before relaxing)
 .debug_str     0x00008410       0xd9 examples/enocean_switch/CMakeFiles/enocean_switch_nrf52840_xxAA_s140_6.0.0.dir/__/__/mesh/core/src/nrf_flash.c.obj
                                0x6f4 (size before relaxing)
 .debug_str     0x000084e9      0x287 examples/enocean_switch/CMakeFiles/enocean_switch_nrf52840_xxAA_s140_6.0.0.dir/__/__/mesh/core/src/packet_mgr.c.obj
                                0x9a5 (size before relaxing)
 .debug_str     0x00008770      0x488 examples/enocean_switch/CMakeFiles/enocean_switch_nrf52840_xxAA_s140_6.0.0.dir/__/__/mesh/core/src/net_state.c.obj
                               0x216e (size before relaxing)
 .debug_str     0x00008bf8      0x387 examples/enocean_switch/CMakeFiles/enocean_switch_nrf52840_xxAA_s140_6.0.0.dir/__/__/mesh/core/src/mesh_flash.c.obj
                                0xd09 (size before relaxing)
 .debug_str     0x00008f7f       0x94 examples/enocean_switch/CMakeFiles/enocean_switch_nrf52840_xxAA_s140_6.0.0.dir/__/__/mesh/core/src/nrf_mesh_utils.c.obj
                                0x751 (size before relaxing)
 .debug_str     0x00009013      0x5e0 examples/enocean_switch/CMakeFiles/enocean_switch_nrf52840_xxAA_s140_6.0.0.dir/__/__/mesh/core/src/nrf_mesh.c.obj
                               0x2167 (size before relaxing)
 .debug_str     0x000095f3       0x53 examples/enocean_switch/CMakeFiles/enocean_switch_nrf52840_xxAA_s140_6.0.0.dir/__/__/mesh/core/src/queue.c.obj
                                0x683 (size before relaxing)
 .debug_str     0x00009646       0x86 examples/enocean_switch/CMakeFiles/enocean_switch_nrf52840_xxAA_s140_6.0.0.dir/__/__/mesh/core/src/hal.c.obj
                                0x7ab (size before relaxing)
 .debug_str     0x000096cc      0x16e examples/enocean_switch/CMakeFiles/enocean_switch_nrf52840_xxAA_s140_6.0.0.dir/__/__/mesh/core/src/aes_cmac.c.obj
                                0xc0f (size before relaxing)
 .debug_str     0x0000983a      0x146 examples/enocean_switch/CMakeFiles/enocean_switch_nrf52840_xxAA_s140_6.0.0.dir/__/__/mesh/core/src/timer_scheduler.c.obj
                                0x934 (size before relaxing)
 .debug_str     0x00009980      0x222 examples/enocean_switch/CMakeFiles/enocean_switch_nrf52840_xxAA_s140_6.0.0.dir/__/__/mesh/core/src/timer.c.obj
                                0x8ae (size before relaxing)
 .debug_str     0x00009ba2       0x42 examples/enocean_switch/CMakeFiles/enocean_switch_nrf52840_xxAA_s140_6.0.0.dir/__/__/mesh/core/src/ticker.c.obj
                                0x34c (size before relaxing)
 .debug_str     0x00009be4       0xac examples/enocean_switch/CMakeFiles/enocean_switch_nrf52840_xxAA_s140_6.0.0.dir/__/__/mesh/core/src/rand.c.obj
                                0x76e (size before relaxing)
 .debug_str     0x00009c90       0x88 examples/enocean_switch/CMakeFiles/enocean_switch_nrf52840_xxAA_s140_6.0.0.dir/__/__/mesh/core/src/nrf_mesh_opt.c.obj
                                0x932 (size before relaxing)
 .debug_str     0x00009d18      0x8fe examples/enocean_switch/CMakeFiles/enocean_switch_nrf52840_xxAA_s140_6.0.0.dir/__/__/mesh/core/src/timeslot.c.obj
                               0x191f (size before relaxing)
 .debug_str     0x0000a616      0x2d0 examples/enocean_switch/CMakeFiles/enocean_switch_nrf52840_xxAA_s140_6.0.0.dir/__/__/mesh/core/src/bearer_event.c.obj
                                0xefe (size before relaxing)
 .debug_str     0x0000a8e6      0x16e examples/enocean_switch/CMakeFiles/enocean_switch_nrf52840_xxAA_s140_6.0.0.dir/__/__/mesh/core/src/enc.c.obj
                                0xee6 (size before relaxing)
 .debug_str     0x0000aa54      0x312 examples/enocean_switch/CMakeFiles/enocean_switch_nrf52840_xxAA_s140_6.0.0.dir/__/__/mesh/core/src/network.c.obj
                               0x14be (size before relaxing)
 .debug_str     0x0000ad66      0x301 examples/enocean_switch/CMakeFiles/enocean_switch_nrf52840_xxAA_s140_6.0.0.dir/__/__/mesh/core/src/net_packet.c.obj
                                0xe86 (size before relaxing)
 .debug_str     0x0000b067       0x53 examples/enocean_switch/CMakeFiles/enocean_switch_nrf52840_xxAA_s140_6.0.0.dir/__/__/mesh/core/src/msqueue.c.obj
                                0x6bf (size before relaxing)
 .debug_str     0x0000b0ba       0xc8 examples/enocean_switch/CMakeFiles/enocean_switch_nrf52840_xxAA_s140_6.0.0.dir/__/__/mesh/core/src/nrf_mesh_keygen.c.obj
                                0x397 (size before relaxing)
 .debug_str     0x0000b182       0x6a examples/enocean_switch/CMakeFiles/enocean_switch_nrf52840_xxAA_s140_6.0.0.dir/__/__/mesh/core/src/list.c.obj
                                0x2be (size before relaxing)
 .debug_str     0x0000b1ec       0xf0 examples/enocean_switch/CMakeFiles/enocean_switch_nrf52840_xxAA_s140_6.0.0.dir/__/__/mesh/core/src/log.c.obj
                                0x7d0 (size before relaxing)
 .debug_str     0x0000b2dc      0x4e9 examples/enocean_switch/CMakeFiles/enocean_switch_nrf52840_xxAA_s140_6.0.0.dir/__/__/mesh/core/src/flash_manager.c.obj
                               0x1578 (size before relaxing)
 .debug_str     0x0000b7c5       0xd2 examples/enocean_switch/CMakeFiles/enocean_switch_nrf52840_xxAA_s140_6.0.0.dir/__/__/mesh/core/src/ccm_soft.c.obj
                                0xcef (size before relaxing)
 .debug_str     0x0000b897       0x92 examples/enocean_switch/CMakeFiles/enocean_switch_nrf52840_xxAA_s140_6.0.0.dir/__/__/mesh/core/src/replay_cache.c.obj
                                0x68d (size before relaxing)
 .debug_str     0x0000b929       0xd4 examples/enocean_switch/CMakeFiles/enocean_switch_nrf52840_xxAA_s140_6.0.0.dir/__/__/mesh/core/src/beacon.c.obj
                               0x11a8 (size before relaxing)
 .debug_str     0x0000b9fd       0x38 examples/enocean_switch/CMakeFiles/enocean_switch_nrf52840_xxAA_s140_6.0.0.dir/__/__/mesh/core/src/flash_manager_internal.c.obj
                                0x7a4 (size before relaxing)
 .debug_str     0x0000ba35      0x2b5 examples/enocean_switch/CMakeFiles/enocean_switch_nrf52840_xxAA_s140_6.0.0.dir/__/__/mesh/core/src/core_tx.c.obj
                                0xbef (size before relaxing)
 .debug_str     0x0000bcea      0x418 examples/enocean_switch/CMakeFiles/enocean_switch_nrf52840_xxAA_s140_6.0.0.dir/__/__/mesh/core/src/heartbeat.c.obj
                               0x22a8 (size before relaxing)
 .debug_str     0x0000c102      0x25c examples/enocean_switch/CMakeFiles/enocean_switch_nrf52840_xxAA_s140_6.0.0.dir/__/__/mesh/core/src/net_beacon.c.obj
                               0x2145 (size before relaxing)
 .debug_str     0x0000c35e      0x11f examples/enocean_switch/CMakeFiles/enocean_switch_nrf52840_xxAA_s140_6.0.0.dir/__/__/mesh/core/src/core_tx_adv.c.obj
                               0x13af (size before relaxing)
 .debug_str     0x0000c47d      0x185 examples/enocean_switch/CMakeFiles/enocean_switch_nrf52840_xxAA_s140_6.0.0.dir/__/__/mesh/bearer/src/ad_listener.c.obj
                                0xbe1 (size before relaxing)
 .debug_str     0x0000c602      0x162 examples/enocean_switch/CMakeFiles/enocean_switch_nrf52840_xxAA_s140_6.0.0.dir/__/__/mesh/bearer/src/ad_type_filter.c.obj
                                0x99f (size before relaxing)
 .debug_str     0x0000c764      0x321 examples/enocean_switch/CMakeFiles/enocean_switch_nrf52840_xxAA_s140_6.0.0.dir/__/__/mesh/bearer/src/advertiser.c.obj
                               0x161e (size before relaxing)
 .debug_str     0x0000ca85      0x4e3 examples/enocean_switch/CMakeFiles/enocean_switch_nrf52840_xxAA_s140_6.0.0.dir/__/__/mesh/bearer/src/bearer_handler.c.obj
                               0x12fd (size before relaxing)
 .debug_str     0x0000cf68      0x219 examples/enocean_switch/CMakeFiles/enocean_switch_nrf52840_xxAA_s140_6.0.0.dir/__/__/mesh/bearer/src/broadcast.c.obj
                               0x115c (size before relaxing)
 .debug_str     0x0000d181       0x72 examples/enocean_switch/CMakeFiles/enocean_switch_nrf52840_xxAA_s140_6.0.0.dir/__/__/mesh/bearer/src/filter_engine.c.obj
                                0x80c (size before relaxing)
 .debug_str     0x0000d1f3       0x79 examples/enocean_switch/CMakeFiles/enocean_switch_nrf52840_xxAA_s140_6.0.0.dir/__/__/mesh/bearer/src/radio_config.c.obj
                                0x928 (size before relaxing)
 .debug_str     0x0000d26c      0x490 examples/enocean_switch/CMakeFiles/enocean_switch_nrf52840_xxAA_s140_6.0.0.dir/__/__/mesh/bearer/src/scanner.c.obj
                               0x1b81 (size before relaxing)
 .debug_str     0x0000d6fc      0x15f examples/enocean_switch/CMakeFiles/enocean_switch_nrf52840_xxAA_s140_6.0.0.dir/__/__/mesh/bearer/src/mesh_pa_lna.c.obj
                                0x922 (size before relaxing)
 .debug_str     0x0000d85b      0x463 examples/enocean_switch/CMakeFiles/enocean_switch_nrf52840_xxAA_s140_6.0.0.dir/__/__/models/simple_on_off/src/simple_on_off_client.c.obj
                               0x1104 (size before relaxing)
 .debug_str     0x0000dcbe      0x22b examples/enocean_switch/CMakeFiles/enocean_switch_nrf52840_xxAA_s140_6.0.0.dir/__/__/models/config/src/composition_data.c.obj
                                0x8dd (size before relaxing)
 .debug_str     0x0000dee9     0x2696 examples/enocean_switch/CMakeFiles/enocean_switch_nrf52840_xxAA_s140_6.0.0.dir/__/__/models/config/src/config_server.c.obj
                               0x50df (size before relaxing)
 .debug_str     0x0001057f       0x69 examples/enocean_switch/CMakeFiles/enocean_switch_nrf52840_xxAA_s140_6.0.0.dir/__/__/models/config/src/packed_index_list.c.obj
                                0x24d (size before relaxing)
 .debug_str     0x000105e8      0x60a examples/enocean_switch/CMakeFiles/enocean_switch_nrf52840_xxAA_s140_6.0.0.dir/__/__/models/health/src/health_server.c.obj
                               0x16b9 (size before relaxing)
 .debug_str     0x00010bf2      0x264 examples/enocean_switch/CMakeFiles/enocean_switch_nrf52840_xxAA_s140_6.0.0.dir/__/__/mesh/access/src/access_publish.c.obj
                                0xbcc (size before relaxing)
 .debug_str     0x00010e56      0x825 examples/enocean_switch/CMakeFiles/enocean_switch_nrf52840_xxAA_s140_6.0.0.dir/__/__/mesh/access/src/access.c.obj
                               0x300a (size before relaxing)
 .debug_str     0x0001167b      0x12f examples/enocean_switch/CMakeFiles/enocean_switch_nrf52840_xxAA_s140_6.0.0.dir/__/__/mesh/access/src/access_reliable.c.obj
                               0x1006 (size before relaxing)
 .debug_str     0x000117aa       0x87 examples/enocean_switch/CMakeFiles/enocean_switch_nrf52840_xxAA_s140_6.0.0.dir/__/__/mesh/access/src/access_loopback.c.obj
                                0xb88 (size before relaxing)
 .debug_str     0x00011831      0xd0b examples/enocean_switch/CMakeFiles/enocean_switch_nrf52840_xxAA_s140_6.0.0.dir/__/__/mesh/access/src/device_state_manager.c.obj
                               0x3354 (size before relaxing)
 .debug_str     0x0001253c      0x5c9 examples/enocean_switch/CMakeFiles/enocean_switch_nrf52840_xxAA_s140_6.0.0.dir/__/__/mesh/prov/src/prov_provisionee.c.obj
                               0x21d9 (size before relaxing)
 .debug_str     0x00012b05      0x247 examples/enocean_switch/CMakeFiles/enocean_switch_nrf52840_xxAA_s140_6.0.0.dir/__/__/mesh/prov/src/nrf_mesh_prov.c.obj
                               0x1dda (size before relaxing)
 .debug_str     0x00012d4c       0xed examples/enocean_switch/CMakeFiles/enocean_switch_nrf52840_xxAA_s140_6.0.0.dir/__/__/mesh/prov/src/provisioning.c.obj
                                0xf29 (size before relaxing)
 .debug_str     0x00012e39       0xb1 examples/enocean_switch/CMakeFiles/enocean_switch_nrf52840_xxAA_s140_6.0.0.dir/__/__/mesh/prov/src/prov_beacon.c.obj
                               0x1a01 (size before relaxing)
 .debug_str     0x00012eea      0x19e examples/enocean_switch/CMakeFiles/enocean_switch_nrf52840_xxAA_s140_6.0.0.dir/__/__/mesh/prov/src/prov_utils.c.obj
                               0x1f46 (size before relaxing)
 .debug_str     0x00013088      0x417 examples/enocean_switch/CMakeFiles/enocean_switch_nrf52840_xxAA_s140_6.0.0.dir/__/__/mesh/prov/src/prov_bearer_adv.c.obj
                               0x1c65 (size before relaxing)
 .debug_str     0x0001349f      0x3bb examples/enocean_switch/CMakeFiles/enocean_switch_nrf52840_xxAA_s140_6.0.0.dir/C_/b/nRF5_SDK_15.0.0_a53641a/modules/nrfx/mdk/system_nrf52840.c.obj
                                0x911 (size before relaxing)
 .debug_str     0x0001385a       0x9c examples/enocean_switch/CMakeFiles/enocean_switch_nrf52840_xxAA_s140_6.0.0.dir/C_/b/nRF5_SDK_15.0.0_a53641a/components/libraries/util/app_error.c.obj
                                0x724 (size before relaxing)
 .debug_str     0x000138f6      0x1e2 examples/enocean_switch/CMakeFiles/enocean_switch_nrf52840_xxAA_s140_6.0.0.dir/C_/b/nRF5_SDK_15.0.0_a53641a/components/libraries/util/app_util_platform.c.obj
                                0xc8d (size before relaxing)
 .debug_str     0x00013ad8      0x608 examples/enocean_switch/CMakeFiles/enocean_switch_nrf52840_xxAA_s140_6.0.0.dir/C_/b/nRF5_SDK_15.0.0_a53641a/components/libraries/timer/app_timer.c.obj
                               0x1295 (size before relaxing)
 .debug_str     0x000140e0       0x4f examples/enocean_switch/CMakeFiles/enocean_switch_nrf52840_xxAA_s140_6.0.0.dir/C_/b/nRF5_SDK_15.0.0_a53641a/components/libraries/util/app_error_handler_gcc.c.obj
                                0x689 (size before relaxing)
 .debug_str     0x0001412f      0x2bf external/rtt/librtt_nrf52840_xxAA.a(SEGGER_RTT.c.obj)
                                0x922 (size before relaxing)
 .debug_str     0x000143ee       0xdf external/rtt/librtt_nrf52840_xxAA.a(SEGGER_RTT_printf.c.obj)
                                0x792 (size before relaxing)
 .debug_str     0x000144cd      0x691 external/micro-ecc/libuECC_nrf52840_xxAA.a(uECC.c.obj)
                                0x880 (size before relaxing)

.debug_frame    0x00000000     0x73c0
 .debug_frame   0x00000000      0x1bc examples/enocean_switch/CMakeFiles/enocean_switch_nrf52840_xxAA_s140_6.0.0.dir/src/main.c.obj
 .debug_frame   0x000001bc       0x74 examples/enocean_switch/CMakeFiles/enocean_switch_nrf52840_xxAA_s140_6.0.0.dir/src/enocean.c.obj
 .debug_frame   0x00000230      0x148 examples/enocean_switch/CMakeFiles/enocean_switch_nrf52840_xxAA_s140_6.0.0.dir/src/flash_helper.c.obj
 .debug_frame   0x00000378       0xcc examples/enocean_switch/CMakeFiles/enocean_switch_nrf52840_xxAA_s140_6.0.0.dir/__/__/mesh/stack/src/mesh_stack.c.obj
 .debug_frame   0x00000444       0x90 examples/enocean_switch/CMakeFiles/enocean_switch_nrf52840_xxAA_s140_6.0.0.dir/__/common/src/mesh_softdevice_init.c.obj
 .debug_frame   0x000004d4       0x70 examples/enocean_switch/CMakeFiles/enocean_switch_nrf52840_xxAA_s140_6.0.0.dir/__/common/src/mesh_provisionee.c.obj
 .debug_frame   0x00000544       0x60 examples/enocean_switch/CMakeFiles/enocean_switch_nrf52840_xxAA_s140_6.0.0.dir/__/common/src/rtt_input.c.obj
 .debug_frame   0x000005a4       0xc8 examples/enocean_switch/CMakeFiles/enocean_switch_nrf52840_xxAA_s140_6.0.0.dir/__/common/src/simple_hal.c.obj
 .debug_frame   0x0000066c       0x30 examples/enocean_switch/CMakeFiles/enocean_switch_nrf52840_xxAA_s140_6.0.0.dir/__/nrf_mesh_weak.c.obj
 .debug_frame   0x0000069c       0x34 examples/enocean_switch/CMakeFiles/enocean_switch_nrf52840_xxAA_s140_6.0.0.dir/__/common/src/app_error_weak.c.obj
 .debug_frame   0x000006d0       0x28 examples/enocean_switch/CMakeFiles/enocean_switch_nrf52840_xxAA_s140_6.0.0.dir/__/common/src/assertion_handler_weak.c.obj
 .debug_frame   0x000006f8       0x4c examples/enocean_switch/CMakeFiles/enocean_switch_nrf52840_xxAA_s140_6.0.0.dir/__/__/mesh/core/src/nrf_mesh_configure.c.obj
 .debug_frame   0x00000744       0x6c examples/enocean_switch/CMakeFiles/enocean_switch_nrf52840_xxAA_s140_6.0.0.dir/__/__/mesh/core/src/msg_cache.c.obj
 .debug_frame   0x000007b0      0x404 examples/enocean_switch/CMakeFiles/enocean_switch_nrf52840_xxAA_s140_6.0.0.dir/__/__/mesh/core/src/transport.c.obj
 .debug_frame   0x00000bb4       0x68 examples/enocean_switch/CMakeFiles/enocean_switch_nrf52840_xxAA_s140_6.0.0.dir/__/__/mesh/core/src/event.c.obj
 .debug_frame   0x00000c1c      0x128 examples/enocean_switch/CMakeFiles/enocean_switch_nrf52840_xxAA_s140_6.0.0.dir/__/__/mesh/core/src/packet_buffer.c.obj
 .debug_frame   0x00000d44      0x24c examples/enocean_switch/CMakeFiles/enocean_switch_nrf52840_xxAA_s140_6.0.0.dir/__/__/mesh/core/src/flash_manager_defrag.c.obj
 .debug_frame   0x00000f90       0xd0 examples/enocean_switch/CMakeFiles/enocean_switch_nrf52840_xxAA_s140_6.0.0.dir/__/__/mesh/core/src/fifo.c.obj
 .debug_frame   0x00001060       0x54 examples/enocean_switch/CMakeFiles/enocean_switch_nrf52840_xxAA_s140_6.0.0.dir/__/__/mesh/core/src/nrf_flash.c.obj
 .debug_frame   0x000010b4       0xa0 examples/enocean_switch/CMakeFiles/enocean_switch_nrf52840_xxAA_s140_6.0.0.dir/__/__/mesh/core/src/packet_mgr.c.obj
 .debug_frame   0x00001154      0x298 examples/enocean_switch/CMakeFiles/enocean_switch_nrf52840_xxAA_s140_6.0.0.dir/__/__/mesh/core/src/net_state.c.obj
 .debug_frame   0x000013ec      0x150 examples/enocean_switch/CMakeFiles/enocean_switch_nrf52840_xxAA_s140_6.0.0.dir/__/__/mesh/core/src/mesh_flash.c.obj
 .debug_frame   0x0000153c       0x50 examples/enocean_switch/CMakeFiles/enocean_switch_nrf52840_xxAA_s140_6.0.0.dir/__/__/mesh/core/src/nrf_mesh_utils.c.obj
 .debug_frame   0x0000158c      0x1a0 examples/enocean_switch/CMakeFiles/enocean_switch_nrf52840_xxAA_s140_6.0.0.dir/__/__/mesh/core/src/nrf_mesh.c.obj
 .debug_frame   0x0000172c       0x74 examples/enocean_switch/CMakeFiles/enocean_switch_nrf52840_xxAA_s140_6.0.0.dir/__/__/mesh/core/src/queue.c.obj
 .debug_frame   0x000017a0       0x48 examples/enocean_switch/CMakeFiles/enocean_switch_nrf52840_xxAA_s140_6.0.0.dir/__/__/mesh/core/src/hal.c.obj
 .debug_frame   0x000017e8       0x6c examples/enocean_switch/CMakeFiles/enocean_switch_nrf52840_xxAA_s140_6.0.0.dir/__/__/mesh/core/src/aes_cmac.c.obj
 .debug_frame   0x00001854      0x134 examples/enocean_switch/CMakeFiles/enocean_switch_nrf52840_xxAA_s140_6.0.0.dir/__/__/mesh/core/src/timer_scheduler.c.obj
 .debug_frame   0x00001988      0x10c examples/enocean_switch/CMakeFiles/enocean_switch_nrf52840_xxAA_s140_6.0.0.dir/__/__/mesh/core/src/timer.c.obj
 .debug_frame   0x00001a94       0x4c examples/enocean_switch/CMakeFiles/enocean_switch_nrf52840_xxAA_s140_6.0.0.dir/__/__/mesh/core/src/ticker.c.obj
 .debug_frame   0x00001ae0       0x84 examples/enocean_switch/CMakeFiles/enocean_switch_nrf52840_xxAA_s140_6.0.0.dir/__/__/mesh/core/src/rand.c.obj
 .debug_frame   0x00001b64       0x30 examples/enocean_switch/CMakeFiles/enocean_switch_nrf52840_xxAA_s140_6.0.0.dir/__/__/mesh/core/src/nrf_mesh_opt.c.obj
 .debug_frame   0x00001b94      0x1a0 examples/enocean_switch/CMakeFiles/enocean_switch_nrf52840_xxAA_s140_6.0.0.dir/__/__/mesh/core/src/timeslot.c.obj
 .debug_frame   0x00001d34      0x1bc examples/enocean_switch/CMakeFiles/enocean_switch_nrf52840_xxAA_s140_6.0.0.dir/__/__/mesh/core/src/bearer_event.c.obj
 .debug_frame   0x00001ef0      0x15c examples/enocean_switch/CMakeFiles/enocean_switch_nrf52840_xxAA_s140_6.0.0.dir/__/__/mesh/core/src/enc.c.obj
 .debug_frame   0x0000204c      0x100 examples/enocean_switch/CMakeFiles/enocean_switch_nrf52840_xxAA_s140_6.0.0.dir/__/__/mesh/core/src/network.c.obj
 .debug_frame   0x0000214c      0x114 examples/enocean_switch/CMakeFiles/enocean_switch_nrf52840_xxAA_s140_6.0.0.dir/__/__/mesh/core/src/net_packet.c.obj
 .debug_frame   0x00002260       0xb4 examples/enocean_switch/CMakeFiles/enocean_switch_nrf52840_xxAA_s140_6.0.0.dir/__/__/mesh/core/src/msqueue.c.obj
 .debug_frame   0x00002314       0xb4 examples/enocean_switch/CMakeFiles/enocean_switch_nrf52840_xxAA_s140_6.0.0.dir/__/__/mesh/core/src/nrf_mesh_keygen.c.obj
 .debug_frame   0x000023c8       0xc8 examples/enocean_switch/CMakeFiles/enocean_switch_nrf52840_xxAA_s140_6.0.0.dir/__/__/mesh/core/src/list.c.obj
 .debug_frame   0x00002490       0xb0 examples/enocean_switch/CMakeFiles/enocean_switch_nrf52840_xxAA_s140_6.0.0.dir/__/__/mesh/core/src/log.c.obj
 .debug_frame   0x00002540      0x320 examples/enocean_switch/CMakeFiles/enocean_switch_nrf52840_xxAA_s140_6.0.0.dir/__/__/mesh/core/src/flash_manager.c.obj
 .debug_frame   0x00002860       0xf4 examples/enocean_switch/CMakeFiles/enocean_switch_nrf52840_xxAA_s140_6.0.0.dir/__/__/mesh/core/src/ccm_soft.c.obj
 .debug_frame   0x00002954       0x80 examples/enocean_switch/CMakeFiles/enocean_switch_nrf52840_xxAA_s140_6.0.0.dir/__/__/mesh/core/src/replay_cache.c.obj
 .debug_frame   0x000029d4       0x60 examples/enocean_switch/CMakeFiles/enocean_switch_nrf52840_xxAA_s140_6.0.0.dir/__/__/mesh/core/src/beacon.c.obj
 .debug_frame   0x00002a34       0x34 examples/enocean_switch/CMakeFiles/enocean_switch_nrf52840_xxAA_s140_6.0.0.dir/__/__/mesh/core/src/flash_manager_internal.c.obj
 .debug_frame   0x00002a68       0xf0 examples/enocean_switch/CMakeFiles/enocean_switch_nrf52840_xxAA_s140_6.0.0.dir/__/__/mesh/core/src/core_tx.c.obj
 .debug_frame   0x00002b58      0x160 examples/enocean_switch/CMakeFiles/enocean_switch_nrf52840_xxAA_s140_6.0.0.dir/__/__/mesh/core/src/heartbeat.c.obj
 .debug_frame   0x00002cb8      0x138 examples/enocean_switch/CMakeFiles/enocean_switch_nrf52840_xxAA_s140_6.0.0.dir/__/__/mesh/core/src/net_beacon.c.obj
 .debug_frame   0x00002df0      0x150 examples/enocean_switch/CMakeFiles/enocean_switch_nrf52840_xxAA_s140_6.0.0.dir/__/__/mesh/core/src/core_tx_adv.c.obj
 .debug_frame   0x00002f40       0x6c examples/enocean_switch/CMakeFiles/enocean_switch_nrf52840_xxAA_s140_6.0.0.dir/__/__/mesh/bearer/src/ad_listener.c.obj
 .debug_frame   0x00002fac       0xa8 examples/enocean_switch/CMakeFiles/enocean_switch_nrf52840_xxAA_s140_6.0.0.dir/__/__/mesh/bearer/src/ad_type_filter.c.obj
 .debug_frame   0x00003054      0x284 examples/enocean_switch/CMakeFiles/enocean_switch_nrf52840_xxAA_s140_6.0.0.dir/__/__/mesh/bearer/src/advertiser.c.obj
 .debug_frame   0x000032d8      0x1c8 examples/enocean_switch/CMakeFiles/enocean_switch_nrf52840_xxAA_s140_6.0.0.dir/__/__/mesh/bearer/src/bearer_handler.c.obj
 .debug_frame   0x000034a0       0x7c examples/enocean_switch/CMakeFiles/enocean_switch_nrf52840_xxAA_s140_6.0.0.dir/__/__/mesh/bearer/src/broadcast.c.obj
 .debug_frame   0x0000351c       0x74 examples/enocean_switch/CMakeFiles/enocean_switch_nrf52840_xxAA_s140_6.0.0.dir/__/__/mesh/bearer/src/filter_engine.c.obj
 .debug_frame   0x00003590       0x94 examples/enocean_switch/CMakeFiles/enocean_switch_nrf52840_xxAA_s140_6.0.0.dir/__/__/mesh/bearer/src/radio_config.c.obj
 .debug_frame   0x00003624      0x2cc examples/enocean_switch/CMakeFiles/enocean_switch_nrf52840_xxAA_s140_6.0.0.dir/__/__/mesh/bearer/src/scanner.c.obj
 .debug_frame   0x000038f0      0x10c examples/enocean_switch/CMakeFiles/enocean_switch_nrf52840_xxAA_s140_6.0.0.dir/__/__/mesh/bearer/src/mesh_pa_lna.c.obj
 .debug_frame   0x000039fc      0x110 examples/enocean_switch/CMakeFiles/enocean_switch_nrf52840_xxAA_s140_6.0.0.dir/__/__/models/simple_on_off/src/simple_on_off_client.c.obj
 .debug_frame   0x00003b0c       0x40 examples/enocean_switch/CMakeFiles/enocean_switch_nrf52840_xxAA_s140_6.0.0.dir/__/__/models/config/src/composition_data.c.obj
 .debug_frame   0x00003b4c      0x8ec examples/enocean_switch/CMakeFiles/enocean_switch_nrf52840_xxAA_s140_6.0.0.dir/__/__/models/config/src/config_server.c.obj
 .debug_frame   0x00004438       0x2c examples/enocean_switch/CMakeFiles/enocean_switch_nrf52840_xxAA_s140_6.0.0.dir/__/__/models/config/src/packed_index_list.c.obj
 .debug_frame   0x00004464      0x2a0 examples/enocean_switch/CMakeFiles/enocean_switch_nrf52840_xxAA_s140_6.0.0.dir/__/__/models/health/src/health_server.c.obj
 .debug_frame   0x00004704      0x114 examples/enocean_switch/CMakeFiles/enocean_switch_nrf52840_xxAA_s140_6.0.0.dir/__/__/mesh/access/src/access_publish.c.obj
 .debug_frame   0x00004818      0x5c4 examples/enocean_switch/CMakeFiles/enocean_switch_nrf52840_xxAA_s140_6.0.0.dir/__/__/mesh/access/src/access.c.obj
 .debug_frame   0x00004ddc      0x124 examples/enocean_switch/CMakeFiles/enocean_switch_nrf52840_xxAA_s140_6.0.0.dir/__/__/mesh/access/src/access_reliable.c.obj
 .debug_frame   0x00004f00       0x70 examples/enocean_switch/CMakeFiles/enocean_switch_nrf52840_xxAA_s140_6.0.0.dir/__/__/mesh/access/src/access_loopback.c.obj
 .debug_frame   0x00004f70      0xb28 examples/enocean_switch/CMakeFiles/enocean_switch_nrf52840_xxAA_s140_6.0.0.dir/__/__/mesh/access/src/device_state_manager.c.obj
 .debug_frame   0x00005a98      0x198 examples/enocean_switch/CMakeFiles/enocean_switch_nrf52840_xxAA_s140_6.0.0.dir/__/__/mesh/prov/src/prov_provisionee.c.obj
 .debug_frame   0x00005c30      0x160 examples/enocean_switch/CMakeFiles/enocean_switch_nrf52840_xxAA_s140_6.0.0.dir/__/__/mesh/prov/src/nrf_mesh_prov.c.obj
 .debug_frame   0x00005d90      0x170 examples/enocean_switch/CMakeFiles/enocean_switch_nrf52840_xxAA_s140_6.0.0.dir/__/__/mesh/prov/src/provisioning.c.obj
 .debug_frame   0x00005f00       0x84 examples/enocean_switch/CMakeFiles/enocean_switch_nrf52840_xxAA_s140_6.0.0.dir/__/__/mesh/prov/src/prov_beacon.c.obj
 .debug_frame   0x00005f84      0x150 examples/enocean_switch/CMakeFiles/enocean_switch_nrf52840_xxAA_s140_6.0.0.dir/__/__/mesh/prov/src/prov_utils.c.obj
 .debug_frame   0x000060d4      0x324 examples/enocean_switch/CMakeFiles/enocean_switch_nrf52840_xxAA_s140_6.0.0.dir/__/__/mesh/prov/src/prov_bearer_adv.c.obj
 .debug_frame   0x000063f8       0x48 examples/enocean_switch/CMakeFiles/enocean_switch_nrf52840_xxAA_s140_6.0.0.dir/C_/b/nRF5_SDK_15.0.0_a53641a/modules/nrfx/mdk/system_nrf52840.c.obj
 .debug_frame   0x00006440       0x44 examples/enocean_switch/CMakeFiles/enocean_switch_nrf52840_xxAA_s140_6.0.0.dir/C_/b/nRF5_SDK_15.0.0_a53641a/components/libraries/util/app_error.c.obj
 .debug_frame   0x00006484       0x84 examples/enocean_switch/CMakeFiles/enocean_switch_nrf52840_xxAA_s140_6.0.0.dir/C_/b/nRF5_SDK_15.0.0_a53641a/components/libraries/util/app_util_platform.c.obj
 .debug_frame   0x00006508      0x16c examples/enocean_switch/CMakeFiles/enocean_switch_nrf52840_xxAA_s140_6.0.0.dir/C_/b/nRF5_SDK_15.0.0_a53641a/components/libraries/timer/app_timer.c.obj
 .debug_frame   0x00006674       0x20 examples/enocean_switch/CMakeFiles/enocean_switch_nrf52840_xxAA_s140_6.0.0.dir/C_/b/nRF5_SDK_15.0.0_a53641a/components/libraries/util/app_error_handler_gcc.c.obj
 .debug_frame   0x00006694      0x2d8 external/rtt/librtt_nrf52840_xxAA.a(SEGGER_RTT.c.obj)
 .debug_frame   0x0000696c       0xac external/rtt/librtt_nrf52840_xxAA.a(SEGGER_RTT_printf.c.obj)
 .debug_frame   0x00006a18      0x684 external/micro-ecc/libuECC_nrf52840_xxAA.a(uECC.c.obj)
 .debug_frame   0x0000709c       0x2c c:/mesh/arm_gcc/bin/../lib/gcc/arm-none-eabi/6.3.1/thumb/v7e-m/fpv4-sp/hard\libgcc.a(_aeabi_uldivmod.o)
 .debug_frame   0x000070c8       0x34 c:/mesh/arm_gcc/bin/../lib/gcc/arm-none-eabi/6.3.1/thumb/v7e-m/fpv4-sp/hard\libgcc.a(_udivmoddi4.o)
 .debug_frame   0x000070fc       0x28 c:/mesh/arm_gcc/bin/../lib/gcc/arm-none-eabi/6.3.1/../../../../arm-none-eabi/lib/thumb/v7e-m/fpv4-sp/hard\libg_nano.a(lib_a-exit.o)
 .debug_frame   0x00007124       0x2c c:/mesh/arm_gcc/bin/../lib/gcc/arm-none-eabi/6.3.1/../../../../arm-none-eabi/lib/thumb/v7e-m/fpv4-sp/hard\libg_nano.a(lib_a-init.o)
 .debug_frame   0x00007150       0x30 c:/mesh/arm_gcc/bin/../lib/gcc/arm-none-eabi/6.3.1/../../../../arm-none-eabi/lib/thumb/v7e-m/fpv4-sp/hard\libg_nano.a(lib_a-malloc.o)
 .debug_frame   0x00007180       0x28 c:/mesh/arm_gcc/bin/../lib/gcc/arm-none-eabi/6.3.1/../../../../arm-none-eabi/lib/thumb/v7e-m/fpv4-sp/hard\libg_nano.a(lib_a-memcmp.o)
 .debug_frame   0x000071a8       0x28 c:/mesh/arm_gcc/bin/../lib/gcc/arm-none-eabi/6.3.1/../../../../arm-none-eabi/lib/thumb/v7e-m/fpv4-sp/hard\libg_nano.a(lib_a-memcpy-stub.o)
 .debug_frame   0x000071d0       0x20 c:/mesh/arm_gcc/bin/../lib/gcc/arm-none-eabi/6.3.1/../../../../arm-none-eabi/lib/thumb/v7e-m/fpv4-sp/hard\libg_nano.a(lib_a-memset.o)
 .debug_frame   0x000071f0       0x38 c:/mesh/arm_gcc/bin/../lib/gcc/arm-none-eabi/6.3.1/../../../../arm-none-eabi/lib/thumb/v7e-m/fpv4-sp/hard\libg_nano.a(lib_a-nano-freer.o)
 .debug_frame   0x00007228       0x2c c:/mesh/arm_gcc/bin/../lib/gcc/arm-none-eabi/6.3.1/../../../../arm-none-eabi/lib/thumb/v7e-m/fpv4-sp/hard\libg_nano.a(lib_a-nano-mallocr.o)
 .debug_frame   0x00007254       0x2c c:/mesh/arm_gcc/bin/../lib/gcc/arm-none-eabi/6.3.1/../../../../arm-none-eabi/lib/thumb/v7e-m/fpv4-sp/hard\libg_nano.a(lib_a-sbrkr.o)
 .debug_frame   0x00007280       0x20 c:/mesh/arm_gcc/bin/../lib/gcc/arm-none-eabi/6.3.1/../../../../arm-none-eabi/lib/thumb/v7e-m/fpv4-sp/hard\libg_nano.a(lib_a-strcpy.o)
 .debug_frame   0x000072a0       0x34 c:/mesh/arm_gcc/bin/../lib/gcc/arm-none-eabi/6.3.1/../../../../arm-none-eabi/lib/thumb/v7e-m/fpv4-sp/hard\libg_nano.a(lib_a-strrchr.o)
 .debug_frame   0x000072d4       0x30 c:/mesh/arm_gcc/bin/../lib/gcc/arm-none-eabi/6.3.1/../../../../arm-none-eabi/lib/thumb/v7e-m/fpv4-sp/hard\libg_nano.a(lib_a-mlock.o)
 .debug_frame   0x00007304       0x5c c:/mesh/arm_gcc/bin/../lib/gcc/arm-none-eabi/6.3.1/../../../../arm-none-eabi/lib/thumb/v7e-m/fpv4-sp/hard\libg_nano.a(lib_a-reent.o)
 .debug_frame   0x00007360       0x20 c:/mesh/arm_gcc/bin/../lib/gcc/arm-none-eabi/6.3.1/../../../../arm-none-eabi/lib/thumb/v7e-m/fpv4-sp/hard\libg_nano.a(lib_a-strchr.o)
 .debug_frame   0x00007380       0x20 c:/mesh/arm_gcc/bin/../lib/gcc/arm-none-eabi/6.3.1/../../../../arm-none-eabi/lib/thumb/v7e-m/fpv4-sp/hard\libnosys.a(sbrk.o)
 .debug_frame   0x000073a0       0x20 c:/mesh/arm_gcc/bin/../lib/gcc/arm-none-eabi/6.3.1/../../../../arm-none-eabi/lib/thumb/v7e-m/fpv4-sp/hard\libnosys.a(_exit.o)
