Archive member included to satisfy reference by file (symbol)

external/rtt/librtt_nrf52832_xxAA.a(SEGGER_RTT.c.obj)
                              examples/light_switch/server/CMakeFiles/light_switch_server_nrf52832_xxAA_s132_6.0.0.dir/__/__/__/mesh/core/src/log.c.obj (SEGGER_RTT_Write)
external/rtt/librtt_nrf52832_xxAA.a(SEGGER_RTT_printf.c.obj)
                              examples/light_switch/server/CMakeFiles/light_switch_server_nrf52832_xxAA_s132_6.0.0.dir/__/__/__/mesh/core/src/log.c.obj (SEGGER_RTT_vprintf)
external/micro-ecc/libuECC_nrf52832_xxAA.a(uECC.c.obj)
                              examples/light_switch/server/CMakeFiles/light_switch_server_nrf52832_xxAA_s132_6.0.0.dir/__/__/__/mesh/prov/src/prov_utils.c.obj (uECC_secp256r1)
c:/arm_gcc/bin/../lib/gcc/arm-none-eabi/6.3.1/thumb/v7e-m/fpv4-sp/hard\libgcc.a(_aeabi_uldivmod.o)
                              examples/light_switch/server/CMakeFiles/light_switch_server_nrf52832_xxAA_s132_6.0.0.dir/__/__/common/src/app_onoff.c.obj (__aeabi_uldivmod)
c:/arm_gcc/bin/../lib/gcc/arm-none-eabi/6.3.1/thumb/v7e-m/fpv4-sp/hard\libgcc.a(_udivmoddi4.o)
                              c:/arm_gcc/bin/../lib/gcc/arm-none-eabi/6.3.1/thumb/v7e-m/fpv4-sp/hard\libgcc.a(_aeabi_uldivmod.o) (__udivmoddi4)
c:/arm_gcc/bin/../lib/gcc/arm-none-eabi/6.3.1/thumb/v7e-m/fpv4-sp/hard\libgcc.a(_dvmd_tls.o)
                              c:/arm_gcc/bin/../lib/gcc/arm-none-eabi/6.3.1/thumb/v7e-m/fpv4-sp/hard\libgcc.a(_aeabi_uldivmod.o) (__aeabi_ldiv0)
c:/arm_gcc/bin/../lib/gcc/arm-none-eabi/6.3.1/../../../../arm-none-eabi/lib/thumb/v7e-m/fpv4-sp/hard\libg_nano.a(lib_a-exit.o)
                              c:/arm_gcc/bin/../lib/gcc/arm-none-eabi/6.3.1/../../../../arm-none-eabi/lib/thumb/v7e-m/fpv4-sp/hard/crt0.o (exit)
c:/arm_gcc/bin/../lib/gcc/arm-none-eabi/6.3.1/../../../../arm-none-eabi/lib/thumb/v7e-m/fpv4-sp/hard\libg_nano.a(lib_a-impure.o)
                              c:/arm_gcc/bin/../lib/gcc/arm-none-eabi/6.3.1/../../../../arm-none-eabi/lib/thumb/v7e-m/fpv4-sp/hard\libg_nano.a(lib_a-exit.o) (_global_impure_ptr)
c:/arm_gcc/bin/../lib/gcc/arm-none-eabi/6.3.1/../../../../arm-none-eabi/lib/thumb/v7e-m/fpv4-sp/hard\libg_nano.a(lib_a-init.o)
                              c:/arm_gcc/bin/../lib/gcc/arm-none-eabi/6.3.1/../../../../arm-none-eabi/lib/thumb/v7e-m/fpv4-sp/hard/crt0.o (__libc_init_array)
c:/arm_gcc/bin/../lib/gcc/arm-none-eabi/6.3.1/../../../../arm-none-eabi/lib/thumb/v7e-m/fpv4-sp/hard\libg_nano.a(lib_a-malloc.o)
                              examples/light_switch/server/CMakeFiles/light_switch_server_nrf52832_xxAA_s132_6.0.0.dir/__/__/__/mesh/core/src/transport.c.obj (malloc)
c:/arm_gcc/bin/../lib/gcc/arm-none-eabi/6.3.1/../../../../arm-none-eabi/lib/thumb/v7e-m/fpv4-sp/hard\libg_nano.a(lib_a-memcmp.o)
                              examples/light_switch/server/CMakeFiles/light_switch_server_nrf52832_xxAA_s132_6.0.0.dir/__/__/__/mesh/core/src/cache.c.obj (memcmp)
c:/arm_gcc/bin/../lib/gcc/arm-none-eabi/6.3.1/../../../../arm-none-eabi/lib/thumb/v7e-m/fpv4-sp/hard\libg_nano.a(lib_a-memcpy-stub.o)
                              examples/light_switch/server/CMakeFiles/light_switch_server_nrf52832_xxAA_s132_6.0.0.dir/__/__/common/src/mesh_app_utils.c.obj (memcpy)
c:/arm_gcc/bin/../lib/gcc/arm-none-eabi/6.3.1/../../../../arm-none-eabi/lib/thumb/v7e-m/fpv4-sp/hard\libg_nano.a(lib_a-memset.o)
                              c:/arm_gcc/bin/../lib/gcc/arm-none-eabi/6.3.1/../../../../arm-none-eabi/lib/thumb/v7e-m/fpv4-sp/hard/crt0.o (memset)
c:/arm_gcc/bin/../lib/gcc/arm-none-eabi/6.3.1/../../../../arm-none-eabi/lib/thumb/v7e-m/fpv4-sp/hard\libg_nano.a(lib_a-nano-freer.o)
                              c:/arm_gcc/bin/../lib/gcc/arm-none-eabi/6.3.1/../../../../arm-none-eabi/lib/thumb/v7e-m/fpv4-sp/hard\libg_nano.a(lib_a-malloc.o) (_free_r)
c:/arm_gcc/bin/../lib/gcc/arm-none-eabi/6.3.1/../../../../arm-none-eabi/lib/thumb/v7e-m/fpv4-sp/hard\libg_nano.a(lib_a-nano-mallocr.o)
                              c:/arm_gcc/bin/../lib/gcc/arm-none-eabi/6.3.1/../../../../arm-none-eabi/lib/thumb/v7e-m/fpv4-sp/hard\libg_nano.a(lib_a-malloc.o) (_malloc_r)
c:/arm_gcc/bin/../lib/gcc/arm-none-eabi/6.3.1/../../../../arm-none-eabi/lib/thumb/v7e-m/fpv4-sp/hard\libg_nano.a(lib_a-sbrkr.o)
                              c:/arm_gcc/bin/../lib/gcc/arm-none-eabi/6.3.1/../../../../arm-none-eabi/lib/thumb/v7e-m/fpv4-sp/hard\libg_nano.a(lib_a-nano-mallocr.o) (_sbrk_r)
c:/arm_gcc/bin/../lib/gcc/arm-none-eabi/6.3.1/../../../../arm-none-eabi/lib/thumb/v7e-m/fpv4-sp/hard\libg_nano.a(lib_a-strcpy.o)
                              external/rtt/librtt_nrf52832_xxAA.a(SEGGER_RTT.c.obj) (strcpy)
c:/arm_gcc/bin/../lib/gcc/arm-none-eabi/6.3.1/../../../../arm-none-eabi/lib/thumb/v7e-m/fpv4-sp/hard\libg_nano.a(lib_a-strlen.o)
                              examples/light_switch/server/CMakeFiles/light_switch_server_nrf52832_xxAA_s132_6.0.0.dir/__/__/__/mesh/prov/src/prov_beacon.c.obj (strlen)
c:/arm_gcc/bin/../lib/gcc/arm-none-eabi/6.3.1/../../../../arm-none-eabi/lib/thumb/v7e-m/fpv4-sp/hard\libg_nano.a(lib_a-strrchr.o)
                              examples/light_switch/server/CMakeFiles/light_switch_server_nrf52832_xxAA_s132_6.0.0.dir/src/main.c.obj (strrchr)
c:/arm_gcc/bin/../lib/gcc/arm-none-eabi/6.3.1/../../../../arm-none-eabi/lib/thumb/v7e-m/fpv4-sp/hard\libg_nano.a(lib_a-mlock.o)
                              c:/arm_gcc/bin/../lib/gcc/arm-none-eabi/6.3.1/../../../../arm-none-eabi/lib/thumb/v7e-m/fpv4-sp/hard\libg_nano.a(lib_a-nano-freer.o) (__malloc_lock)
c:/arm_gcc/bin/../lib/gcc/arm-none-eabi/6.3.1/../../../../arm-none-eabi/lib/thumb/v7e-m/fpv4-sp/hard\libg_nano.a(lib_a-reent.o)
                              c:/arm_gcc/bin/../lib/gcc/arm-none-eabi/6.3.1/../../../../arm-none-eabi/lib/thumb/v7e-m/fpv4-sp/hard\libg_nano.a(lib_a-sbrkr.o) (errno)
c:/arm_gcc/bin/../lib/gcc/arm-none-eabi/6.3.1/../../../../arm-none-eabi/lib/thumb/v7e-m/fpv4-sp/hard\libg_nano.a(lib_a-strchr.o)
                              c:/arm_gcc/bin/../lib/gcc/arm-none-eabi/6.3.1/../../../../arm-none-eabi/lib/thumb/v7e-m/fpv4-sp/hard\libg_nano.a(lib_a-strrchr.o) (strchr)
c:/arm_gcc/bin/../lib/gcc/arm-none-eabi/6.3.1/../../../../arm-none-eabi/lib/thumb/v7e-m/fpv4-sp/hard\libnosys.a(sbrk.o)
                              c:/arm_gcc/bin/../lib/gcc/arm-none-eabi/6.3.1/../../../../arm-none-eabi/lib/thumb/v7e-m/fpv4-sp/hard\libg_nano.a(lib_a-sbrkr.o) (_sbrk)
c:/arm_gcc/bin/../lib/gcc/arm-none-eabi/6.3.1/../../../../arm-none-eabi/lib/thumb/v7e-m/fpv4-sp/hard\libnosys.a(_exit.o)
                              c:/arm_gcc/bin/../lib/gcc/arm-none-eabi/6.3.1/../../../../arm-none-eabi/lib/thumb/v7e-m/fpv4-sp/hard\libg_nano.a(lib_a-exit.o) (_exit)

Allocating common symbols
Common symbol       size              file

nrf_nvic_state      0xc               examples/light_switch/server/CMakeFiles/light_switch_server_nrf52832_xxAA_s132_6.0.0.dir/C_/sdks/nRF5_SDK_15.0.0_a53641a/components/libraries/util/app_util_platform.c.obj
m_packet            0x24              examples/light_switch/server/CMakeFiles/light_switch_server_nrf52832_xxAA_s132_6.0.0.dir/__/__/__/mesh/core/src/core_tx.c.obj
errno               0x4               c:/arm_gcc/bin/../lib/gcc/arm-none-eabi/6.3.1/../../../../arm-none-eabi/lib/thumb/v7e-m/fpv4-sp/hard\libg_nano.a(lib_a-reent.o)
_SEGGER_RTT         0x78              external/rtt/librtt_nrf52832_xxAA.a(SEGGER_RTT.c.obj)

Discarded input sections

 .text          0x00000000        0x0 c:/arm_gcc/bin/../lib/gcc/arm-none-eabi/6.3.1/thumb/v7e-m/fpv4-sp/hard/crti.o
 .data          0x00000000        0x0 c:/arm_gcc/bin/../lib/gcc/arm-none-eabi/6.3.1/thumb/v7e-m/fpv4-sp/hard/crti.o
 .bss           0x00000000        0x0 c:/arm_gcc/bin/../lib/gcc/arm-none-eabi/6.3.1/thumb/v7e-m/fpv4-sp/hard/crti.o
 .data          0x00000000        0x4 c:/arm_gcc/bin/../lib/gcc/arm-none-eabi/6.3.1/thumb/v7e-m/fpv4-sp/hard/crtbegin.o
 .data          0x00000000        0x0 c:/arm_gcc/bin/../lib/gcc/arm-none-eabi/6.3.1/../../../../arm-none-eabi/lib/thumb/v7e-m/fpv4-sp/hard/crt0.o
 .bss           0x00000000        0x0 c:/arm_gcc/bin/../lib/gcc/arm-none-eabi/6.3.1/../../../../arm-none-eabi/lib/thumb/v7e-m/fpv4-sp/hard/crt0.o
 .ARM.extab     0x00000000        0x0 c:/arm_gcc/bin/../lib/gcc/arm-none-eabi/6.3.1/../../../../arm-none-eabi/lib/thumb/v7e-m/fpv4-sp/hard/crt0.o
 .text          0x00000000        0x0 examples/light_switch/server/CMakeFiles/light_switch_server_nrf52832_xxAA_s132_6.0.0.dir/src/main.c.obj
 .data          0x00000000        0x0 examples/light_switch/server/CMakeFiles/light_switch_server_nrf52832_xxAA_s132_6.0.0.dir/src/main.c.obj
 .bss           0x00000000        0x0 examples/light_switch/server/CMakeFiles/light_switch_server_nrf52832_xxAA_s132_6.0.0.dir/src/main.c.obj
 .text          0x00000000        0x0 examples/light_switch/server/CMakeFiles/light_switch_server_nrf52832_xxAA_s132_6.0.0.dir/__/__/common/src/app_onoff.c.obj
 .data          0x00000000        0x0 examples/light_switch/server/CMakeFiles/light_switch_server_nrf52832_xxAA_s132_6.0.0.dir/__/__/common/src/app_onoff.c.obj
 .bss           0x00000000        0x0 examples/light_switch/server/CMakeFiles/light_switch_server_nrf52832_xxAA_s132_6.0.0.dir/__/__/common/src/app_onoff.c.obj
 .text          0x00000000        0x0 examples/light_switch/server/CMakeFiles/light_switch_server_nrf52832_xxAA_s132_6.0.0.dir/__/__/__/mesh/stack/src/mesh_stack.c.obj
 .data          0x00000000        0x0 examples/light_switch/server/CMakeFiles/light_switch_server_nrf52832_xxAA_s132_6.0.0.dir/__/__/__/mesh/stack/src/mesh_stack.c.obj
 .bss           0x00000000        0x0 examples/light_switch/server/CMakeFiles/light_switch_server_nrf52832_xxAA_s132_6.0.0.dir/__/__/__/mesh/stack/src/mesh_stack.c.obj
 .text.mesh_stack_persistence_flash_usage
                0x00000000       0x36 examples/light_switch/server/CMakeFiles/light_switch_server_nrf52832_xxAA_s132_6.0.0.dir/__/__/__/mesh/stack/src/mesh_stack.c.obj
 .text          0x00000000        0x0 examples/light_switch/server/CMakeFiles/light_switch_server_nrf52832_xxAA_s132_6.0.0.dir/__/__/common/src/mesh_softdevice_init.c.obj
 .data          0x00000000        0x0 examples/light_switch/server/CMakeFiles/light_switch_server_nrf52832_xxAA_s132_6.0.0.dir/__/__/common/src/mesh_softdevice_init.c.obj
 .bss           0x00000000        0x0 examples/light_switch/server/CMakeFiles/light_switch_server_nrf52832_xxAA_s132_6.0.0.dir/__/__/common/src/mesh_softdevice_init.c.obj
 .text          0x00000000        0x0 examples/light_switch/server/CMakeFiles/light_switch_server_nrf52832_xxAA_s132_6.0.0.dir/__/__/common/src/mesh_provisionee.c.obj
 .data          0x00000000        0x0 examples/light_switch/server/CMakeFiles/light_switch_server_nrf52832_xxAA_s132_6.0.0.dir/__/__/common/src/mesh_provisionee.c.obj
 .bss           0x00000000        0x0 examples/light_switch/server/CMakeFiles/light_switch_server_nrf52832_xxAA_s132_6.0.0.dir/__/__/common/src/mesh_provisionee.c.obj
 .text.mesh_provisionee_prov_listen_stop
                0x00000000        0xc examples/light_switch/server/CMakeFiles/light_switch_server_nrf52832_xxAA_s132_6.0.0.dir/__/__/common/src/mesh_provisionee.c.obj
 .text          0x00000000        0x0 examples/light_switch/server/CMakeFiles/light_switch_server_nrf52832_xxAA_s132_6.0.0.dir/__/__/common/src/rtt_input.c.obj
 .data          0x00000000        0x0 examples/light_switch/server/CMakeFiles/light_switch_server_nrf52832_xxAA_s132_6.0.0.dir/__/__/common/src/rtt_input.c.obj
 .bss           0x00000000        0x0 examples/light_switch/server/CMakeFiles/light_switch_server_nrf52832_xxAA_s132_6.0.0.dir/__/__/common/src/rtt_input.c.obj
 .text.rtt_input_disable
                0x00000000       0x28 examples/light_switch/server/CMakeFiles/light_switch_server_nrf52832_xxAA_s132_6.0.0.dir/__/__/common/src/rtt_input.c.obj
 .text          0x00000000        0x0 examples/light_switch/server/CMakeFiles/light_switch_server_nrf52832_xxAA_s132_6.0.0.dir/__/__/common/src/simple_hal.c.obj
 .data          0x00000000        0x0 examples/light_switch/server/CMakeFiles/light_switch_server_nrf52832_xxAA_s132_6.0.0.dir/__/__/common/src/simple_hal.c.obj
 .bss           0x00000000        0x0 examples/light_switch/server/CMakeFiles/light_switch_server_nrf52832_xxAA_s132_6.0.0.dir/__/__/common/src/simple_hal.c.obj
 .text          0x00000000        0x0 examples/light_switch/server/CMakeFiles/light_switch_server_nrf52832_xxAA_s132_6.0.0.dir/__/__/common/src/mesh_app_utils.c.obj
 .data          0x00000000        0x0 examples/light_switch/server/CMakeFiles/light_switch_server_nrf52832_xxAA_s132_6.0.0.dir/__/__/common/src/mesh_app_utils.c.obj
 .bss           0x00000000        0x0 examples/light_switch/server/CMakeFiles/light_switch_server_nrf52832_xxAA_s132_6.0.0.dir/__/__/common/src/mesh_app_utils.c.obj
 .text          0x00000000        0x0 examples/light_switch/server/CMakeFiles/light_switch_server_nrf52832_xxAA_s132_6.0.0.dir/__/__/nrf_mesh_weak.c.obj
 .data          0x00000000        0x0 examples/light_switch/server/CMakeFiles/light_switch_server_nrf52832_xxAA_s132_6.0.0.dir/__/__/nrf_mesh_weak.c.obj
 .bss           0x00000000        0x0 examples/light_switch/server/CMakeFiles/light_switch_server_nrf52832_xxAA_s132_6.0.0.dir/__/__/nrf_mesh_weak.c.obj
 .text._weak_handler_ptr
                0x00000000        0x4 examples/light_switch/server/CMakeFiles/light_switch_server_nrf52832_xxAA_s132_6.0.0.dir/__/__/nrf_mesh_weak.c.obj
 .text          0x00000000        0x0 examples/light_switch/server/CMakeFiles/light_switch_server_nrf52832_xxAA_s132_6.0.0.dir/__/__/common/src/app_error_weak.c.obj
 .data          0x00000000        0x0 examples/light_switch/server/CMakeFiles/light_switch_server_nrf52832_xxAA_s132_6.0.0.dir/__/__/common/src/app_error_weak.c.obj
 .bss           0x00000000        0x0 examples/light_switch/server/CMakeFiles/light_switch_server_nrf52832_xxAA_s132_6.0.0.dir/__/__/common/src/app_error_weak.c.obj
 .text          0x00000000        0x0 examples/light_switch/server/CMakeFiles/light_switch_server_nrf52832_xxAA_s132_6.0.0.dir/__/__/common/src/assertion_handler_weak.c.obj
 .data          0x00000000        0x0 examples/light_switch/server/CMakeFiles/light_switch_server_nrf52832_xxAA_s132_6.0.0.dir/__/__/common/src/assertion_handler_weak.c.obj
 .bss           0x00000000        0x0 examples/light_switch/server/CMakeFiles/light_switch_server_nrf52832_xxAA_s132_6.0.0.dir/__/__/common/src/assertion_handler_weak.c.obj
 .text          0x00000000        0x0 examples/light_switch/server/CMakeFiles/light_switch_server_nrf52832_xxAA_s132_6.0.0.dir/__/__/__/mesh/core/src/internal_event.c.obj
 .data          0x00000000        0x0 examples/light_switch/server/CMakeFiles/light_switch_server_nrf52832_xxAA_s132_6.0.0.dir/__/__/__/mesh/core/src/internal_event.c.obj
 .bss           0x00000000        0x0 examples/light_switch/server/CMakeFiles/light_switch_server_nrf52832_xxAA_s132_6.0.0.dir/__/__/__/mesh/core/src/internal_event.c.obj
 .debug_info    0x00000000      0x91e examples/light_switch/server/CMakeFiles/light_switch_server_nrf52832_xxAA_s132_6.0.0.dir/__/__/__/mesh/core/src/internal_event.c.obj
 .debug_abbrev  0x00000000      0x192 examples/light_switch/server/CMakeFiles/light_switch_server_nrf52832_xxAA_s132_6.0.0.dir/__/__/__/mesh/core/src/internal_event.c.obj
 .debug_aranges
                0x00000000       0x18 examples/light_switch/server/CMakeFiles/light_switch_server_nrf52832_xxAA_s132_6.0.0.dir/__/__/__/mesh/core/src/internal_event.c.obj
 .debug_line    0x00000000      0x1e2 examples/light_switch/server/CMakeFiles/light_switch_server_nrf52832_xxAA_s132_6.0.0.dir/__/__/__/mesh/core/src/internal_event.c.obj
 .debug_str     0x00000000      0x62f examples/light_switch/server/CMakeFiles/light_switch_server_nrf52832_xxAA_s132_6.0.0.dir/__/__/__/mesh/core/src/internal_event.c.obj
 .comment       0x00000000       0x80 examples/light_switch/server/CMakeFiles/light_switch_server_nrf52832_xxAA_s132_6.0.0.dir/__/__/__/mesh/core/src/internal_event.c.obj
 .ARM.attributes
                0x00000000       0x39 examples/light_switch/server/CMakeFiles/light_switch_server_nrf52832_xxAA_s132_6.0.0.dir/__/__/__/mesh/core/src/internal_event.c.obj
 .text          0x00000000        0x0 examples/light_switch/server/CMakeFiles/light_switch_server_nrf52832_xxAA_s132_6.0.0.dir/__/__/__/mesh/core/src/nrf_mesh_configure.c.obj
 .data          0x00000000        0x0 examples/light_switch/server/CMakeFiles/light_switch_server_nrf52832_xxAA_s132_6.0.0.dir/__/__/__/mesh/core/src/nrf_mesh_configure.c.obj
 .bss           0x00000000        0x0 examples/light_switch/server/CMakeFiles/light_switch_server_nrf52832_xxAA_s132_6.0.0.dir/__/__/__/mesh/core/src/nrf_mesh_configure.c.obj
 .text          0x00000000        0x0 examples/light_switch/server/CMakeFiles/light_switch_server_nrf52832_xxAA_s132_6.0.0.dir/__/__/__/mesh/core/src/aes.c.obj
 .data          0x00000000        0x0 examples/light_switch/server/CMakeFiles/light_switch_server_nrf52832_xxAA_s132_6.0.0.dir/__/__/__/mesh/core/src/aes.c.obj
 .bss           0x00000000        0x0 examples/light_switch/server/CMakeFiles/light_switch_server_nrf52832_xxAA_s132_6.0.0.dir/__/__/__/mesh/core/src/aes.c.obj
 .debug_info    0x00000000       0xb3 examples/light_switch/server/CMakeFiles/light_switch_server_nrf52832_xxAA_s132_6.0.0.dir/__/__/__/mesh/core/src/aes.c.obj
 .debug_abbrev  0x00000000       0x5c examples/light_switch/server/CMakeFiles/light_switch_server_nrf52832_xxAA_s132_6.0.0.dir/__/__/__/mesh/core/src/aes.c.obj
 .debug_aranges
                0x00000000       0x18 examples/light_switch/server/CMakeFiles/light_switch_server_nrf52832_xxAA_s132_6.0.0.dir/__/__/__/mesh/core/src/aes.c.obj
 .debug_line    0x00000000      0x120 examples/light_switch/server/CMakeFiles/light_switch_server_nrf52832_xxAA_s132_6.0.0.dir/__/__/__/mesh/core/src/aes.c.obj
 .debug_str     0x00000000      0x1f4 examples/light_switch/server/CMakeFiles/light_switch_server_nrf52832_xxAA_s132_6.0.0.dir/__/__/__/mesh/core/src/aes.c.obj
 .comment       0x00000000       0x80 examples/light_switch/server/CMakeFiles/light_switch_server_nrf52832_xxAA_s132_6.0.0.dir/__/__/__/mesh/core/src/aes.c.obj
 .ARM.attributes
                0x00000000       0x39 examples/light_switch/server/CMakeFiles/light_switch_server_nrf52832_xxAA_s132_6.0.0.dir/__/__/__/mesh/core/src/aes.c.obj
 .text          0x00000000        0x0 examples/light_switch/server/CMakeFiles/light_switch_server_nrf52832_xxAA_s132_6.0.0.dir/__/__/__/mesh/core/src/msg_cache.c.obj
 .data          0x00000000        0x0 examples/light_switch/server/CMakeFiles/light_switch_server_nrf52832_xxAA_s132_6.0.0.dir/__/__/__/mesh/core/src/msg_cache.c.obj
 .bss           0x00000000        0x0 examples/light_switch/server/CMakeFiles/light_switch_server_nrf52832_xxAA_s132_6.0.0.dir/__/__/__/mesh/core/src/msg_cache.c.obj
 .text.msg_cache_clear
                0x00000000       0x18 examples/light_switch/server/CMakeFiles/light_switch_server_nrf52832_xxAA_s132_6.0.0.dir/__/__/__/mesh/core/src/msg_cache.c.obj
 .text          0x00000000        0x0 examples/light_switch/server/CMakeFiles/light_switch_server_nrf52832_xxAA_s132_6.0.0.dir/__/__/__/mesh/core/src/transport.c.obj
 .data          0x00000000        0x0 examples/light_switch/server/CMakeFiles/light_switch_server_nrf52832_xxAA_s132_6.0.0.dir/__/__/__/mesh/core/src/transport.c.obj
 .bss           0x00000000        0x0 examples/light_switch/server/CMakeFiles/light_switch_server_nrf52832_xxAA_s132_6.0.0.dir/__/__/__/mesh/core/src/transport.c.obj
 .text.transport_sar_mem_funcs_set
                0x00000000       0x44 examples/light_switch/server/CMakeFiles/light_switch_server_nrf52832_xxAA_s132_6.0.0.dir/__/__/__/mesh/core/src/transport.c.obj
 .text.transport_opt_set
                0x00000000       0xd0 examples/light_switch/server/CMakeFiles/light_switch_server_nrf52832_xxAA_s132_6.0.0.dir/__/__/__/mesh/core/src/transport.c.obj
 .text.transport_opt_get
                0x00000000       0x68 examples/light_switch/server/CMakeFiles/light_switch_server_nrf52832_xxAA_s132_6.0.0.dir/__/__/__/mesh/core/src/transport.c.obj
 .text          0x00000000        0x0 examples/light_switch/server/CMakeFiles/light_switch_server_nrf52832_xxAA_s132_6.0.0.dir/__/__/__/mesh/core/src/event.c.obj
 .data          0x00000000        0x0 examples/light_switch/server/CMakeFiles/light_switch_server_nrf52832_xxAA_s132_6.0.0.dir/__/__/__/mesh/core/src/event.c.obj
 .bss           0x00000000        0x0 examples/light_switch/server/CMakeFiles/light_switch_server_nrf52832_xxAA_s132_6.0.0.dir/__/__/__/mesh/core/src/event.c.obj
 .text          0x00000000        0x0 examples/light_switch/server/CMakeFiles/light_switch_server_nrf52832_xxAA_s132_6.0.0.dir/__/__/__/mesh/core/src/packet_buffer.c.obj
 .data          0x00000000        0x0 examples/light_switch/server/CMakeFiles/light_switch_server_nrf52832_xxAA_s132_6.0.0.dir/__/__/__/mesh/core/src/packet_buffer.c.obj
 .bss           0x00000000        0x0 examples/light_switch/server/CMakeFiles/light_switch_server_nrf52832_xxAA_s132_6.0.0.dir/__/__/__/mesh/core/src/packet_buffer.c.obj
 .text.packet_buffer_max_packet_len_get
                0x00000000       0x20 examples/light_switch/server/CMakeFiles/light_switch_server_nrf52832_xxAA_s132_6.0.0.dir/__/__/__/mesh/core/src/packet_buffer.c.obj
 .text          0x00000000        0x0 examples/light_switch/server/CMakeFiles/light_switch_server_nrf52832_xxAA_s132_6.0.0.dir/__/__/__/mesh/core/src/flash_manager_defrag.c.obj
 .data          0x00000000        0x0 examples/light_switch/server/CMakeFiles/light_switch_server_nrf52832_xxAA_s132_6.0.0.dir/__/__/__/mesh/core/src/flash_manager_defrag.c.obj
 .bss           0x00000000        0x0 examples/light_switch/server/CMakeFiles/light_switch_server_nrf52832_xxAA_s132_6.0.0.dir/__/__/__/mesh/core/src/flash_manager_defrag.c.obj
 .text.flash_manager_defragging
                0x00000000       0x38 examples/light_switch/server/CMakeFiles/light_switch_server_nrf52832_xxAA_s132_6.0.0.dir/__/__/__/mesh/core/src/flash_manager_defrag.c.obj
 .text          0x00000000        0x0 examples/light_switch/server/CMakeFiles/light_switch_server_nrf52832_xxAA_s132_6.0.0.dir/__/__/__/mesh/core/src/fifo.c.obj
 .data          0x00000000        0x0 examples/light_switch/server/CMakeFiles/light_switch_server_nrf52832_xxAA_s132_6.0.0.dir/__/__/__/mesh/core/src/fifo.c.obj
 .bss           0x00000000        0x0 examples/light_switch/server/CMakeFiles/light_switch_server_nrf52832_xxAA_s132_6.0.0.dir/__/__/__/mesh/core/src/fifo.c.obj
 .text.fifo_peek_at
                0x00000000       0x50 examples/light_switch/server/CMakeFiles/light_switch_server_nrf52832_xxAA_s132_6.0.0.dir/__/__/__/mesh/core/src/fifo.c.obj
 .text.fifo_peek
                0x00000000        0x6 examples/light_switch/server/CMakeFiles/light_switch_server_nrf52832_xxAA_s132_6.0.0.dir/__/__/__/mesh/core/src/fifo.c.obj
 .text.fifo_flush
                0x00000000        0x6 examples/light_switch/server/CMakeFiles/light_switch_server_nrf52832_xxAA_s132_6.0.0.dir/__/__/__/mesh/core/src/fifo.c.obj
 .text.fifo_get_len
                0x00000000        0x8 examples/light_switch/server/CMakeFiles/light_switch_server_nrf52832_xxAA_s132_6.0.0.dir/__/__/__/mesh/core/src/fifo.c.obj
 .text.fifo_is_full
                0x00000000       0x10 examples/light_switch/server/CMakeFiles/light_switch_server_nrf52832_xxAA_s132_6.0.0.dir/__/__/__/mesh/core/src/fifo.c.obj
 .text.fifo_is_empty
                0x00000000        0xc examples/light_switch/server/CMakeFiles/light_switch_server_nrf52832_xxAA_s132_6.0.0.dir/__/__/__/mesh/core/src/fifo.c.obj
 .text          0x00000000        0x0 examples/light_switch/server/CMakeFiles/light_switch_server_nrf52832_xxAA_s132_6.0.0.dir/__/__/__/mesh/core/src/nrf_flash.c.obj
 .data          0x00000000        0x0 examples/light_switch/server/CMakeFiles/light_switch_server_nrf52832_xxAA_s132_6.0.0.dir/__/__/__/mesh/core/src/nrf_flash.c.obj
 .bss           0x00000000        0x0 examples/light_switch/server/CMakeFiles/light_switch_server_nrf52832_xxAA_s132_6.0.0.dir/__/__/__/mesh/core/src/nrf_flash.c.obj
 .text          0x00000000        0x0 examples/light_switch/server/CMakeFiles/light_switch_server_nrf52832_xxAA_s132_6.0.0.dir/__/__/__/mesh/core/src/packet_mgr.c.obj
 .data          0x00000000        0x0 examples/light_switch/server/CMakeFiles/light_switch_server_nrf52832_xxAA_s132_6.0.0.dir/__/__/__/mesh/core/src/packet_mgr.c.obj
 .bss           0x00000000        0x0 examples/light_switch/server/CMakeFiles/light_switch_server_nrf52832_xxAA_s132_6.0.0.dir/__/__/__/mesh/core/src/packet_mgr.c.obj
 .text.packet_mgr_alloc
                0x00000000      0x17c examples/light_switch/server/CMakeFiles/light_switch_server_nrf52832_xxAA_s132_6.0.0.dir/__/__/__/mesh/core/src/packet_mgr.c.obj
 .text.packet_mgr_free
                0x00000000       0x58 examples/light_switch/server/CMakeFiles/light_switch_server_nrf52832_xxAA_s132_6.0.0.dir/__/__/__/mesh/core/src/packet_mgr.c.obj
 .text.packet_mgr_get_free_space
                0x00000000       0x1c examples/light_switch/server/CMakeFiles/light_switch_server_nrf52832_xxAA_s132_6.0.0.dir/__/__/__/mesh/core/src/packet_mgr.c.obj
 .text.packet_mgr_refcount_get
                0x00000000        0x6 examples/light_switch/server/CMakeFiles/light_switch_server_nrf52832_xxAA_s132_6.0.0.dir/__/__/__/mesh/core/src/packet_mgr.c.obj
 .text.packet_mgr_size_get
                0x00000000        0x6 examples/light_switch/server/CMakeFiles/light_switch_server_nrf52832_xxAA_s132_6.0.0.dir/__/__/__/mesh/core/src/packet_mgr.c.obj
 .text          0x00000000        0x0 examples/light_switch/server/CMakeFiles/light_switch_server_nrf52832_xxAA_s132_6.0.0.dir/__/__/__/mesh/core/src/net_state.c.obj
 .data          0x00000000        0x0 examples/light_switch/server/CMakeFiles/light_switch_server_nrf52832_xxAA_s132_6.0.0.dir/__/__/__/mesh/core/src/net_state.c.obj
 .bss           0x00000000        0x0 examples/light_switch/server/CMakeFiles/light_switch_server_nrf52832_xxAA_s132_6.0.0.dir/__/__/__/mesh/core/src/net_state.c.obj
 .text.net_state_iv_update_test_mode_set
                0x00000000        0xc examples/light_switch/server/CMakeFiles/light_switch_server_nrf52832_xxAA_s132_6.0.0.dir/__/__/__/mesh/core/src/net_state.c.obj
 .text.net_state_test_mode_transition_run
                0x00000000       0x2c examples/light_switch/server/CMakeFiles/light_switch_server_nrf52832_xxAA_s132_6.0.0.dir/__/__/__/mesh/core/src/net_state.c.obj
 .text          0x00000000        0x0 examples/light_switch/server/CMakeFiles/light_switch_server_nrf52832_xxAA_s132_6.0.0.dir/__/__/__/mesh/core/src/mesh_flash.c.obj
 .data          0x00000000        0x0 examples/light_switch/server/CMakeFiles/light_switch_server_nrf52832_xxAA_s132_6.0.0.dir/__/__/__/mesh/core/src/mesh_flash.c.obj
 .bss           0x00000000        0x0 examples/light_switch/server/CMakeFiles/light_switch_server_nrf52832_xxAA_s132_6.0.0.dir/__/__/__/mesh/core/src/mesh_flash.c.obj
 .text.mesh_flash_op_available_slots
                0x00000000       0x2c examples/light_switch/server/CMakeFiles/light_switch_server_nrf52832_xxAA_s132_6.0.0.dir/__/__/__/mesh/core/src/mesh_flash.c.obj
 .text.mesh_flash_in_progress
                0x00000000       0x34 examples/light_switch/server/CMakeFiles/light_switch_server_nrf52832_xxAA_s132_6.0.0.dir/__/__/__/mesh/core/src/mesh_flash.c.obj
 .text.mesh_flash_set_suspended
                0x00000000       0x74 examples/light_switch/server/CMakeFiles/light_switch_server_nrf52832_xxAA_s132_6.0.0.dir/__/__/__/mesh/core/src/mesh_flash.c.obj
 .bss.suspend_count.10208
                0x00000000        0x4 examples/light_switch/server/CMakeFiles/light_switch_server_nrf52832_xxAA_s132_6.0.0.dir/__/__/__/mesh/core/src/mesh_flash.c.obj
 .text          0x00000000        0x0 examples/light_switch/server/CMakeFiles/light_switch_server_nrf52832_xxAA_s132_6.0.0.dir/__/__/__/mesh/core/src/nrf_mesh_utils.c.obj
 .data          0x00000000        0x0 examples/light_switch/server/CMakeFiles/light_switch_server_nrf52832_xxAA_s132_6.0.0.dir/__/__/__/mesh/core/src/nrf_mesh_utils.c.obj
 .bss           0x00000000        0x0 examples/light_switch/server/CMakeFiles/light_switch_server_nrf52832_xxAA_s132_6.0.0.dir/__/__/__/mesh/core/src/nrf_mesh_utils.c.obj
 .text.nrf_mesh_rand_get
                0x00000000       0x10 examples/light_switch/server/CMakeFiles/light_switch_server_nrf52832_xxAA_s132_6.0.0.dir/__/__/__/mesh/core/src/nrf_mesh_utils.c.obj
 .text.nrf_mesh_gap_address_type_get
                0x00000000       0x30 examples/light_switch/server/CMakeFiles/light_switch_server_nrf52832_xxAA_s132_6.0.0.dir/__/__/__/mesh/core/src/nrf_mesh_utils.c.obj
 .text          0x00000000        0x0 examples/light_switch/server/CMakeFiles/light_switch_server_nrf52832_xxAA_s132_6.0.0.dir/__/__/__/mesh/core/src/nrf_mesh.c.obj
 .data          0x00000000        0x0 examples/light_switch/server/CMakeFiles/light_switch_server_nrf52832_xxAA_s132_6.0.0.dir/__/__/__/mesh/core/src/nrf_mesh.c.obj
 .bss           0x00000000        0x0 examples/light_switch/server/CMakeFiles/light_switch_server_nrf52832_xxAA_s132_6.0.0.dir/__/__/__/mesh/core/src/nrf_mesh.c.obj
 .text.nrf_mesh_disable
                0x00000000       0x28 examples/light_switch/server/CMakeFiles/light_switch_server_nrf52832_xxAA_s132_6.0.0.dir/__/__/__/mesh/core/src/nrf_mesh.c.obj
 .text.nrf_mesh_process
                0x00000000        0x4 examples/light_switch/server/CMakeFiles/light_switch_server_nrf52832_xxAA_s132_6.0.0.dir/__/__/__/mesh/core/src/nrf_mesh.c.obj
 .text.nrf_mesh_evt_handler_remove
                0x00000000        0x4 examples/light_switch/server/CMakeFiles/light_switch_server_nrf52832_xxAA_s132_6.0.0.dir/__/__/__/mesh/core/src/nrf_mesh.c.obj
 .text.nrf_mesh_rx_cb_set
                0x00000000        0xc examples/light_switch/server/CMakeFiles/light_switch_server_nrf52832_xxAA_s132_6.0.0.dir/__/__/__/mesh/core/src/nrf_mesh.c.obj
 .text.nrf_mesh_rx_cb_clear
                0x00000000        0xc examples/light_switch/server/CMakeFiles/light_switch_server_nrf52832_xxAA_s132_6.0.0.dir/__/__/__/mesh/core/src/nrf_mesh.c.obj
 .text          0x00000000        0x0 examples/light_switch/server/CMakeFiles/light_switch_server_nrf52832_xxAA_s132_6.0.0.dir/__/__/__/mesh/core/src/queue.c.obj
 .data          0x00000000        0x0 examples/light_switch/server/CMakeFiles/light_switch_server_nrf52832_xxAA_s132_6.0.0.dir/__/__/__/mesh/core/src/queue.c.obj
 .bss           0x00000000        0x0 examples/light_switch/server/CMakeFiles/light_switch_server_nrf52832_xxAA_s132_6.0.0.dir/__/__/__/mesh/core/src/queue.c.obj
 .text          0x00000000        0x0 examples/light_switch/server/CMakeFiles/light_switch_server_nrf52832_xxAA_s132_6.0.0.dir/__/__/__/mesh/core/src/hal.c.obj
 .data          0x00000000        0x0 examples/light_switch/server/CMakeFiles/light_switch_server_nrf52832_xxAA_s132_6.0.0.dir/__/__/__/mesh/core/src/hal.c.obj
 .bss           0x00000000        0x0 examples/light_switch/server/CMakeFiles/light_switch_server_nrf52832_xxAA_s132_6.0.0.dir/__/__/__/mesh/core/src/hal.c.obj
 .text          0x00000000        0x0 examples/light_switch/server/CMakeFiles/light_switch_server_nrf52832_xxAA_s132_6.0.0.dir/__/__/__/mesh/core/src/aes_cmac.c.obj
 .data          0x00000000        0x0 examples/light_switch/server/CMakeFiles/light_switch_server_nrf52832_xxAA_s132_6.0.0.dir/__/__/__/mesh/core/src/aes_cmac.c.obj
 .bss           0x00000000        0x0 examples/light_switch/server/CMakeFiles/light_switch_server_nrf52832_xxAA_s132_6.0.0.dir/__/__/__/mesh/core/src/aes_cmac.c.obj
 .text          0x00000000        0x0 examples/light_switch/server/CMakeFiles/light_switch_server_nrf52832_xxAA_s132_6.0.0.dir/__/__/__/mesh/core/src/timer_scheduler.c.obj
 .data          0x00000000        0x0 examples/light_switch/server/CMakeFiles/light_switch_server_nrf52832_xxAA_s132_6.0.0.dir/__/__/__/mesh/core/src/timer_scheduler.c.obj
 .bss           0x00000000        0x0 examples/light_switch/server/CMakeFiles/light_switch_server_nrf52832_xxAA_s132_6.0.0.dir/__/__/__/mesh/core/src/timer_scheduler.c.obj
 .text.timer_sch_is_scheduled
                0x00000000       0x16 examples/light_switch/server/CMakeFiles/light_switch_server_nrf52832_xxAA_s132_6.0.0.dir/__/__/__/mesh/core/src/timer_scheduler.c.obj
 .text          0x00000000        0x0 examples/light_switch/server/CMakeFiles/light_switch_server_nrf52832_xxAA_s132_6.0.0.dir/__/__/__/mesh/core/src/timer.c.obj
 .data          0x00000000        0x0 examples/light_switch/server/CMakeFiles/light_switch_server_nrf52832_xxAA_s132_6.0.0.dir/__/__/__/mesh/core/src/timer.c.obj
 .bss           0x00000000        0x0 examples/light_switch/server/CMakeFiles/light_switch_server_nrf52832_xxAA_s132_6.0.0.dir/__/__/__/mesh/core/src/timer.c.obj
 .text.timer_order_cb_ppi
                0x00000000       0xc4 examples/light_switch/server/CMakeFiles/light_switch_server_nrf52832_xxAA_s132_6.0.0.dir/__/__/__/mesh/core/src/timer.c.obj
 .text.timer_order_ppi
                0x00000000       0xc0 examples/light_switch/server/CMakeFiles/light_switch_server_nrf52832_xxAA_s132_6.0.0.dir/__/__/__/mesh/core/src/timer.c.obj
 .text.timer_abort
                0x00000000       0x78 examples/light_switch/server/CMakeFiles/light_switch_server_nrf52832_xxAA_s132_6.0.0.dir/__/__/__/mesh/core/src/timer.c.obj
 .text          0x00000000        0x0 examples/light_switch/server/CMakeFiles/light_switch_server_nrf52832_xxAA_s132_6.0.0.dir/__/__/__/mesh/core/src/rand.c.obj
 .data          0x00000000        0x0 examples/light_switch/server/CMakeFiles/light_switch_server_nrf52832_xxAA_s132_6.0.0.dir/__/__/__/mesh/core/src/rand.c.obj
 .bss           0x00000000        0x0 examples/light_switch/server/CMakeFiles/light_switch_server_nrf52832_xxAA_s132_6.0.0.dir/__/__/__/mesh/core/src/rand.c.obj
 .text          0x00000000        0x0 examples/light_switch/server/CMakeFiles/light_switch_server_nrf52832_xxAA_s132_6.0.0.dir/__/__/__/mesh/core/src/nrf_mesh_opt.c.obj
 .data          0x00000000        0x0 examples/light_switch/server/CMakeFiles/light_switch_server_nrf52832_xxAA_s132_6.0.0.dir/__/__/__/mesh/core/src/nrf_mesh_opt.c.obj
 .bss           0x00000000        0x0 examples/light_switch/server/CMakeFiles/light_switch_server_nrf52832_xxAA_s132_6.0.0.dir/__/__/__/mesh/core/src/nrf_mesh_opt.c.obj
 .text.nrf_mesh_opt_set
                0x00000000       0x26 examples/light_switch/server/CMakeFiles/light_switch_server_nrf52832_xxAA_s132_6.0.0.dir/__/__/__/mesh/core/src/nrf_mesh_opt.c.obj
 .text.nrf_mesh_opt_get
                0x00000000       0x26 examples/light_switch/server/CMakeFiles/light_switch_server_nrf52832_xxAA_s132_6.0.0.dir/__/__/__/mesh/core/src/nrf_mesh_opt.c.obj
 .debug_info    0x00000000      0xb2f examples/light_switch/server/CMakeFiles/light_switch_server_nrf52832_xxAA_s132_6.0.0.dir/__/__/__/mesh/core/src/nrf_mesh_opt.c.obj
 .debug_abbrev  0x00000000      0x24a examples/light_switch/server/CMakeFiles/light_switch_server_nrf52832_xxAA_s132_6.0.0.dir/__/__/__/mesh/core/src/nrf_mesh_opt.c.obj
 .debug_loc     0x00000000      0x194 examples/light_switch/server/CMakeFiles/light_switch_server_nrf52832_xxAA_s132_6.0.0.dir/__/__/__/mesh/core/src/nrf_mesh_opt.c.obj
 .debug_aranges
                0x00000000       0x28 examples/light_switch/server/CMakeFiles/light_switch_server_nrf52832_xxAA_s132_6.0.0.dir/__/__/__/mesh/core/src/nrf_mesh_opt.c.obj
 .debug_ranges  0x00000000       0x18 examples/light_switch/server/CMakeFiles/light_switch_server_nrf52832_xxAA_s132_6.0.0.dir/__/__/__/mesh/core/src/nrf_mesh_opt.c.obj
 .debug_line    0x00000000      0x296 examples/light_switch/server/CMakeFiles/light_switch_server_nrf52832_xxAA_s132_6.0.0.dir/__/__/__/mesh/core/src/nrf_mesh_opt.c.obj
 .debug_str     0x00000000      0x95f examples/light_switch/server/CMakeFiles/light_switch_server_nrf52832_xxAA_s132_6.0.0.dir/__/__/__/mesh/core/src/nrf_mesh_opt.c.obj
 .comment       0x00000000       0x80 examples/light_switch/server/CMakeFiles/light_switch_server_nrf52832_xxAA_s132_6.0.0.dir/__/__/__/mesh/core/src/nrf_mesh_opt.c.obj
 .debug_frame   0x00000000       0x30 examples/light_switch/server/CMakeFiles/light_switch_server_nrf52832_xxAA_s132_6.0.0.dir/__/__/__/mesh/core/src/nrf_mesh_opt.c.obj
 .ARM.attributes
                0x00000000       0x39 examples/light_switch/server/CMakeFiles/light_switch_server_nrf52832_xxAA_s132_6.0.0.dir/__/__/__/mesh/core/src/nrf_mesh_opt.c.obj
 .text          0x00000000        0x0 examples/light_switch/server/CMakeFiles/light_switch_server_nrf52832_xxAA_s132_6.0.0.dir/__/__/__/mesh/core/src/mesh_opt.c.obj
 .data          0x00000000        0x0 examples/light_switch/server/CMakeFiles/light_switch_server_nrf52832_xxAA_s132_6.0.0.dir/__/__/__/mesh/core/src/mesh_opt.c.obj
 .bss           0x00000000        0x0 examples/light_switch/server/CMakeFiles/light_switch_server_nrf52832_xxAA_s132_6.0.0.dir/__/__/__/mesh/core/src/mesh_opt.c.obj
 .text          0x00000000        0x0 examples/light_switch/server/CMakeFiles/light_switch_server_nrf52832_xxAA_s132_6.0.0.dir/__/__/__/mesh/core/src/timeslot.c.obj
 .data          0x00000000        0x0 examples/light_switch/server/CMakeFiles/light_switch_server_nrf52832_xxAA_s132_6.0.0.dir/__/__/__/mesh/core/src/timeslot.c.obj
 .bss           0x00000000        0x0 examples/light_switch/server/CMakeFiles/light_switch_server_nrf52832_xxAA_s132_6.0.0.dir/__/__/__/mesh/core/src/timeslot.c.obj
 .text.timeslot_end_time_get
                0x00000000       0x10 examples/light_switch/server/CMakeFiles/light_switch_server_nrf52832_xxAA_s132_6.0.0.dir/__/__/__/mesh/core/src/timeslot.c.obj
 .text.timeslot_is_in_ts
                0x00000000        0xc examples/light_switch/server/CMakeFiles/light_switch_server_nrf52832_xxAA_s132_6.0.0.dir/__/__/__/mesh/core/src/timeslot.c.obj
 .text.timeslot_restart
                0x00000000       0x10 examples/light_switch/server/CMakeFiles/light_switch_server_nrf52832_xxAA_s132_6.0.0.dir/__/__/__/mesh/core/src/timeslot.c.obj
 .text          0x00000000        0x0 examples/light_switch/server/CMakeFiles/light_switch_server_nrf52832_xxAA_s132_6.0.0.dir/__/__/__/mesh/core/src/bearer_event.c.obj
 .data          0x00000000        0x0 examples/light_switch/server/CMakeFiles/light_switch_server_nrf52832_xxAA_s132_6.0.0.dir/__/__/__/mesh/core/src/bearer_event.c.obj
 .bss           0x00000000        0x0 examples/light_switch/server/CMakeFiles/light_switch_server_nrf52832_xxAA_s132_6.0.0.dir/__/__/__/mesh/core/src/bearer_event.c.obj
 .text.bearer_event_generic_post
                0x00000000       0x24 examples/light_switch/server/CMakeFiles/light_switch_server_nrf52832_xxAA_s132_6.0.0.dir/__/__/__/mesh/core/src/bearer_event.c.obj
 .text.bearer_event_timer_sch_post
                0x00000000       0x26 examples/light_switch/server/CMakeFiles/light_switch_server_nrf52832_xxAA_s132_6.0.0.dir/__/__/__/mesh/core/src/bearer_event.c.obj
 .text          0x00000000        0x0 examples/light_switch/server/CMakeFiles/light_switch_server_nrf52832_xxAA_s132_6.0.0.dir/__/__/__/mesh/core/src/enc.c.obj
 .data          0x00000000        0x0 examples/light_switch/server/CMakeFiles/light_switch_server_nrf52832_xxAA_s132_6.0.0.dir/__/__/__/mesh/core/src/enc.c.obj
 .bss           0x00000000        0x0 examples/light_switch/server/CMakeFiles/light_switch_server_nrf52832_xxAA_s132_6.0.0.dir/__/__/__/mesh/core/src/enc.c.obj
 .text.enc_key_generate
                0x00000000        0x6 examples/light_switch/server/CMakeFiles/light_switch_server_nrf52832_xxAA_s132_6.0.0.dir/__/__/__/mesh/core/src/enc.c.obj
 .text          0x00000000        0x0 examples/light_switch/server/CMakeFiles/light_switch_server_nrf52832_xxAA_s132_6.0.0.dir/__/__/__/mesh/core/src/network.c.obj
 .data          0x00000000        0x0 examples/light_switch/server/CMakeFiles/light_switch_server_nrf52832_xxAA_s132_6.0.0.dir/__/__/__/mesh/core/src/network.c.obj
 .bss           0x00000000        0x0 examples/light_switch/server/CMakeFiles/light_switch_server_nrf52832_xxAA_s132_6.0.0.dir/__/__/__/mesh/core/src/network.c.obj
 .text.network_packet_discard
                0x00000000       0x1e examples/light_switch/server/CMakeFiles/light_switch_server_nrf52832_xxAA_s132_6.0.0.dir/__/__/__/mesh/core/src/network.c.obj
 .text.network_opt_set
                0x00000000       0xc0 examples/light_switch/server/CMakeFiles/light_switch_server_nrf52832_xxAA_s132_6.0.0.dir/__/__/__/mesh/core/src/network.c.obj
 .text.network_opt_get
                0x00000000       0x88 examples/light_switch/server/CMakeFiles/light_switch_server_nrf52832_xxAA_s132_6.0.0.dir/__/__/__/mesh/core/src/network.c.obj
 .text          0x00000000        0x0 examples/light_switch/server/CMakeFiles/light_switch_server_nrf52832_xxAA_s132_6.0.0.dir/__/__/__/mesh/core/src/net_packet.c.obj
 .data          0x00000000        0x0 examples/light_switch/server/CMakeFiles/light_switch_server_nrf52832_xxAA_s132_6.0.0.dir/__/__/__/mesh/core/src/net_packet.c.obj
 .bss           0x00000000        0x0 examples/light_switch/server/CMakeFiles/light_switch_server_nrf52832_xxAA_s132_6.0.0.dir/__/__/__/mesh/core/src/net_packet.c.obj
 .text.net_packet_enc_start_get
                0x00000000        0x4 examples/light_switch/server/CMakeFiles/light_switch_server_nrf52832_xxAA_s132_6.0.0.dir/__/__/__/mesh/core/src/net_packet.c.obj
 .text.net_packet_payload_get
                0x00000000        0x4 examples/light_switch/server/CMakeFiles/light_switch_server_nrf52832_xxAA_s132_6.0.0.dir/__/__/__/mesh/core/src/net_packet.c.obj
 .text          0x00000000        0x0 examples/light_switch/server/CMakeFiles/light_switch_server_nrf52832_xxAA_s132_6.0.0.dir/__/__/__/mesh/core/src/msqueue.c.obj
 .data          0x00000000        0x0 examples/light_switch/server/CMakeFiles/light_switch_server_nrf52832_xxAA_s132_6.0.0.dir/__/__/__/mesh/core/src/msqueue.c.obj
 .bss           0x00000000        0x0 examples/light_switch/server/CMakeFiles/light_switch_server_nrf52832_xxAA_s132_6.0.0.dir/__/__/__/mesh/core/src/msqueue.c.obj
 .text          0x00000000        0x0 examples/light_switch/server/CMakeFiles/light_switch_server_nrf52832_xxAA_s132_6.0.0.dir/__/__/__/mesh/core/src/nrf_mesh_keygen.c.obj
 .data          0x00000000        0x0 examples/light_switch/server/CMakeFiles/light_switch_server_nrf52832_xxAA_s132_6.0.0.dir/__/__/__/mesh/core/src/nrf_mesh_keygen.c.obj
 .bss           0x00000000        0x0 examples/light_switch/server/CMakeFiles/light_switch_server_nrf52832_xxAA_s132_6.0.0.dir/__/__/__/mesh/core/src/nrf_mesh_keygen.c.obj
 .text.nrf_mesh_keygen_identitykey
                0x00000000       0x4c examples/light_switch/server/CMakeFiles/light_switch_server_nrf52832_xxAA_s132_6.0.0.dir/__/__/__/mesh/core/src/nrf_mesh_keygen.c.obj
 .text          0x00000000        0x0 examples/light_switch/server/CMakeFiles/light_switch_server_nrf52832_xxAA_s132_6.0.0.dir/__/__/__/mesh/core/src/cache.c.obj
 .data          0x00000000        0x0 examples/light_switch/server/CMakeFiles/light_switch_server_nrf52832_xxAA_s132_6.0.0.dir/__/__/__/mesh/core/src/cache.c.obj
 .bss           0x00000000        0x0 examples/light_switch/server/CMakeFiles/light_switch_server_nrf52832_xxAA_s132_6.0.0.dir/__/__/__/mesh/core/src/cache.c.obj
 .text.erase_at
                0x00000000       0x1c examples/light_switch/server/CMakeFiles/light_switch_server_nrf52832_xxAA_s132_6.0.0.dir/__/__/__/mesh/core/src/cache.c.obj
 .text.cache_init
                0x00000000       0x1e examples/light_switch/server/CMakeFiles/light_switch_server_nrf52832_xxAA_s132_6.0.0.dir/__/__/__/mesh/core/src/cache.c.obj
 .text.cache_has_elem
                0x00000000       0x3e examples/light_switch/server/CMakeFiles/light_switch_server_nrf52832_xxAA_s132_6.0.0.dir/__/__/__/mesh/core/src/cache.c.obj
 .text.cache_put
                0x00000000       0x2a examples/light_switch/server/CMakeFiles/light_switch_server_nrf52832_xxAA_s132_6.0.0.dir/__/__/__/mesh/core/src/cache.c.obj
 .text.cache_erase_elem
                0x00000000       0x4c examples/light_switch/server/CMakeFiles/light_switch_server_nrf52832_xxAA_s132_6.0.0.dir/__/__/__/mesh/core/src/cache.c.obj
 .debug_info    0x00000000      0xbe1 examples/light_switch/server/CMakeFiles/light_switch_server_nrf52832_xxAA_s132_6.0.0.dir/__/__/__/mesh/core/src/cache.c.obj
 .debug_abbrev  0x00000000      0x2a3 examples/light_switch/server/CMakeFiles/light_switch_server_nrf52832_xxAA_s132_6.0.0.dir/__/__/__/mesh/core/src/cache.c.obj
 .debug_loc     0x00000000      0x29b examples/light_switch/server/CMakeFiles/light_switch_server_nrf52832_xxAA_s132_6.0.0.dir/__/__/__/mesh/core/src/cache.c.obj
 .debug_aranges
                0x00000000       0x40 examples/light_switch/server/CMakeFiles/light_switch_server_nrf52832_xxAA_s132_6.0.0.dir/__/__/__/mesh/core/src/cache.c.obj
 .debug_ranges  0x00000000       0x80 examples/light_switch/server/CMakeFiles/light_switch_server_nrf52832_xxAA_s132_6.0.0.dir/__/__/__/mesh/core/src/cache.c.obj
 .debug_line    0x00000000      0x20a examples/light_switch/server/CMakeFiles/light_switch_server_nrf52832_xxAA_s132_6.0.0.dir/__/__/__/mesh/core/src/cache.c.obj
 .debug_str     0x00000000      0x6af examples/light_switch/server/CMakeFiles/light_switch_server_nrf52832_xxAA_s132_6.0.0.dir/__/__/__/mesh/core/src/cache.c.obj
 .comment       0x00000000       0x80 examples/light_switch/server/CMakeFiles/light_switch_server_nrf52832_xxAA_s132_6.0.0.dir/__/__/__/mesh/core/src/cache.c.obj
 .debug_frame   0x00000000       0xb0 examples/light_switch/server/CMakeFiles/light_switch_server_nrf52832_xxAA_s132_6.0.0.dir/__/__/__/mesh/core/src/cache.c.obj
 .ARM.attributes
                0x00000000       0x39 examples/light_switch/server/CMakeFiles/light_switch_server_nrf52832_xxAA_s132_6.0.0.dir/__/__/__/mesh/core/src/cache.c.obj
 .text          0x00000000        0x0 examples/light_switch/server/CMakeFiles/light_switch_server_nrf52832_xxAA_s132_6.0.0.dir/__/__/__/mesh/core/src/list.c.obj
 .data          0x00000000        0x0 examples/light_switch/server/CMakeFiles/light_switch_server_nrf52832_xxAA_s132_6.0.0.dir/__/__/__/mesh/core/src/list.c.obj
 .bss           0x00000000        0x0 examples/light_switch/server/CMakeFiles/light_switch_server_nrf52832_xxAA_s132_6.0.0.dir/__/__/__/mesh/core/src/list.c.obj
 .text.list_size_get
                0x00000000       0x12 examples/light_switch/server/CMakeFiles/light_switch_server_nrf52832_xxAA_s132_6.0.0.dir/__/__/__/mesh/core/src/list.c.obj
 .text.list_sorted_add
                0x00000000       0x6c examples/light_switch/server/CMakeFiles/light_switch_server_nrf52832_xxAA_s132_6.0.0.dir/__/__/__/mesh/core/src/list.c.obj
 .text          0x00000000        0x0 examples/light_switch/server/CMakeFiles/light_switch_server_nrf52832_xxAA_s132_6.0.0.dir/__/__/__/mesh/core/src/log.c.obj
 .data          0x00000000        0x0 examples/light_switch/server/CMakeFiles/light_switch_server_nrf52832_xxAA_s132_6.0.0.dir/__/__/__/mesh/core/src/log.c.obj
 .bss           0x00000000        0x0 examples/light_switch/server/CMakeFiles/light_switch_server_nrf52832_xxAA_s132_6.0.0.dir/__/__/__/mesh/core/src/log.c.obj
 .text.log_callback_logview
                0x00000000       0x38 examples/light_switch/server/CMakeFiles/light_switch_server_nrf52832_xxAA_s132_6.0.0.dir/__/__/__/mesh/core/src/log.c.obj
 .text.log_set_callback
                0x00000000        0xc examples/light_switch/server/CMakeFiles/light_switch_server_nrf52832_xxAA_s132_6.0.0.dir/__/__/__/mesh/core/src/log.c.obj
 .rodata.log_callback_logview.str1.1
                0x00000000        0xf examples/light_switch/server/CMakeFiles/light_switch_server_nrf52832_xxAA_s132_6.0.0.dir/__/__/__/mesh/core/src/log.c.obj
 .text          0x00000000        0x0 examples/light_switch/server/CMakeFiles/light_switch_server_nrf52832_xxAA_s132_6.0.0.dir/__/__/__/mesh/core/src/flash_manager.c.obj
 .data          0x00000000        0x0 examples/light_switch/server/CMakeFiles/light_switch_server_nrf52832_xxAA_s132_6.0.0.dir/__/__/__/mesh/core/src/flash_manager.c.obj
 .bss           0x00000000        0x0 examples/light_switch/server/CMakeFiles/light_switch_server_nrf52832_xxAA_s132_6.0.0.dir/__/__/__/mesh/core/src/flash_manager.c.obj
 .text.flash_manager_entry_count_get
                0x00000000       0x50 examples/light_switch/server/CMakeFiles/light_switch_server_nrf52832_xxAA_s132_6.0.0.dir/__/__/__/mesh/core/src/flash_manager.c.obj
 .text.flash_manager_entry_release
                0x00000000       0x2c examples/light_switch/server/CMakeFiles/light_switch_server_nrf52832_xxAA_s132_6.0.0.dir/__/__/__/mesh/core/src/flash_manager.c.obj
 .text          0x00000000        0x0 examples/light_switch/server/CMakeFiles/light_switch_server_nrf52832_xxAA_s132_6.0.0.dir/__/__/__/mesh/core/src/ccm_soft.c.obj
 .data          0x00000000        0x0 examples/light_switch/server/CMakeFiles/light_switch_server_nrf52832_xxAA_s132_6.0.0.dir/__/__/__/mesh/core/src/ccm_soft.c.obj
 .bss           0x00000000        0x0 examples/light_switch/server/CMakeFiles/light_switch_server_nrf52832_xxAA_s132_6.0.0.dir/__/__/__/mesh/core/src/ccm_soft.c.obj
 .text          0x00000000        0x0 examples/light_switch/server/CMakeFiles/light_switch_server_nrf52832_xxAA_s132_6.0.0.dir/__/__/__/mesh/core/src/toolchain.c.obj
 .data          0x00000000        0x0 examples/light_switch/server/CMakeFiles/light_switch_server_nrf52832_xxAA_s132_6.0.0.dir/__/__/__/mesh/core/src/toolchain.c.obj
 .bss           0x00000000        0x0 examples/light_switch/server/CMakeFiles/light_switch_server_nrf52832_xxAA_s132_6.0.0.dir/__/__/__/mesh/core/src/toolchain.c.obj
 .debug_info    0x00000000       0xb3 examples/light_switch/server/CMakeFiles/light_switch_server_nrf52832_xxAA_s132_6.0.0.dir/__/__/__/mesh/core/src/toolchain.c.obj
 .debug_abbrev  0x00000000       0x5c examples/light_switch/server/CMakeFiles/light_switch_server_nrf52832_xxAA_s132_6.0.0.dir/__/__/__/mesh/core/src/toolchain.c.obj
 .debug_aranges
                0x00000000       0x18 examples/light_switch/server/CMakeFiles/light_switch_server_nrf52832_xxAA_s132_6.0.0.dir/__/__/__/mesh/core/src/toolchain.c.obj
 .debug_line    0x00000000      0x120 examples/light_switch/server/CMakeFiles/light_switch_server_nrf52832_xxAA_s132_6.0.0.dir/__/__/__/mesh/core/src/toolchain.c.obj
 .debug_str     0x00000000      0x1fa examples/light_switch/server/CMakeFiles/light_switch_server_nrf52832_xxAA_s132_6.0.0.dir/__/__/__/mesh/core/src/toolchain.c.obj
 .comment       0x00000000       0x80 examples/light_switch/server/CMakeFiles/light_switch_server_nrf52832_xxAA_s132_6.0.0.dir/__/__/__/mesh/core/src/toolchain.c.obj
 .ARM.attributes
                0x00000000       0x39 examples/light_switch/server/CMakeFiles/light_switch_server_nrf52832_xxAA_s132_6.0.0.dir/__/__/__/mesh/core/src/toolchain.c.obj
 .text          0x00000000        0x0 examples/light_switch/server/CMakeFiles/light_switch_server_nrf52832_xxAA_s132_6.0.0.dir/__/__/__/mesh/core/src/replay_cache.c.obj
 .data          0x00000000        0x0 examples/light_switch/server/CMakeFiles/light_switch_server_nrf52832_xxAA_s132_6.0.0.dir/__/__/__/mesh/core/src/replay_cache.c.obj
 .bss           0x00000000        0x0 examples/light_switch/server/CMakeFiles/light_switch_server_nrf52832_xxAA_s132_6.0.0.dir/__/__/__/mesh/core/src/replay_cache.c.obj
 .text.replay_cache_on_iv_update
                0x00000000       0x24 examples/light_switch/server/CMakeFiles/light_switch_server_nrf52832_xxAA_s132_6.0.0.dir/__/__/__/mesh/core/src/replay_cache.c.obj
 .text          0x00000000        0x0 examples/light_switch/server/CMakeFiles/light_switch_server_nrf52832_xxAA_s132_6.0.0.dir/__/__/__/mesh/core/src/beacon.c.obj
 .data          0x00000000        0x0 examples/light_switch/server/CMakeFiles/light_switch_server_nrf52832_xxAA_s132_6.0.0.dir/__/__/__/mesh/core/src/beacon.c.obj
 .bss           0x00000000        0x0 examples/light_switch/server/CMakeFiles/light_switch_server_nrf52832_xxAA_s132_6.0.0.dir/__/__/__/mesh/core/src/beacon.c.obj
 .text          0x00000000        0x0 examples/light_switch/server/CMakeFiles/light_switch_server_nrf52832_xxAA_s132_6.0.0.dir/__/__/__/mesh/core/src/flash_manager_internal.c.obj
 .data          0x00000000        0x0 examples/light_switch/server/CMakeFiles/light_switch_server_nrf52832_xxAA_s132_6.0.0.dir/__/__/__/mesh/core/src/flash_manager_internal.c.obj
 .bss           0x00000000        0x0 examples/light_switch/server/CMakeFiles/light_switch_server_nrf52832_xxAA_s132_6.0.0.dir/__/__/__/mesh/core/src/flash_manager_internal.c.obj
 .text          0x00000000        0x0 examples/light_switch/server/CMakeFiles/light_switch_server_nrf52832_xxAA_s132_6.0.0.dir/__/__/__/mesh/core/src/core_tx.c.obj
 .data          0x00000000        0x0 examples/light_switch/server/CMakeFiles/light_switch_server_nrf52832_xxAA_s132_6.0.0.dir/__/__/__/mesh/core/src/core_tx.c.obj
 .bss           0x00000000        0x0 examples/light_switch/server/CMakeFiles/light_switch_server_nrf52832_xxAA_s132_6.0.0.dir/__/__/__/mesh/core/src/core_tx.c.obj
 .text.core_tx_bearer_type_get
                0x00000000       0x1c examples/light_switch/server/CMakeFiles/light_switch_server_nrf52832_xxAA_s132_6.0.0.dir/__/__/__/mesh/core/src/core_tx.c.obj
 .text.core_tx_bearer_count_get
                0x00000000        0xc examples/light_switch/server/CMakeFiles/light_switch_server_nrf52832_xxAA_s132_6.0.0.dir/__/__/__/mesh/core/src/core_tx.c.obj
 .text          0x00000000        0x0 examples/light_switch/server/CMakeFiles/light_switch_server_nrf52832_xxAA_s132_6.0.0.dir/__/__/__/mesh/core/src/heartbeat.c.obj
 .data          0x00000000        0x0 examples/light_switch/server/CMakeFiles/light_switch_server_nrf52832_xxAA_s132_6.0.0.dir/__/__/__/mesh/core/src/heartbeat.c.obj
 .bss           0x00000000        0x0 examples/light_switch/server/CMakeFiles/light_switch_server_nrf52832_xxAA_s132_6.0.0.dir/__/__/__/mesh/core/src/heartbeat.c.obj
 .text          0x00000000        0x0 examples/light_switch/server/CMakeFiles/light_switch_server_nrf52832_xxAA_s132_6.0.0.dir/__/__/__/mesh/core/src/net_beacon.c.obj
 .data          0x00000000        0x0 examples/light_switch/server/CMakeFiles/light_switch_server_nrf52832_xxAA_s132_6.0.0.dir/__/__/__/mesh/core/src/net_beacon.c.obj
 .bss           0x00000000        0x0 examples/light_switch/server/CMakeFiles/light_switch_server_nrf52832_xxAA_s132_6.0.0.dir/__/__/__/mesh/core/src/net_beacon.c.obj
 .text.net_beacon_build
                0x00000000       0x24 examples/light_switch/server/CMakeFiles/light_switch_server_nrf52832_xxAA_s132_6.0.0.dir/__/__/__/mesh/core/src/net_beacon.c.obj
 .text          0x00000000        0x0 examples/light_switch/server/CMakeFiles/light_switch_server_nrf52832_xxAA_s132_6.0.0.dir/__/__/__/mesh/core/src/mesh_config.c.obj
 .data          0x00000000        0x0 examples/light_switch/server/CMakeFiles/light_switch_server_nrf52832_xxAA_s132_6.0.0.dir/__/__/__/mesh/core/src/mesh_config.c.obj
 .bss           0x00000000        0x0 examples/light_switch/server/CMakeFiles/light_switch_server_nrf52832_xxAA_s132_6.0.0.dir/__/__/__/mesh/core/src/mesh_config.c.obj
 .text.mesh_config_power_down
                0x00000000        0x6 examples/light_switch/server/CMakeFiles/light_switch_server_nrf52832_xxAA_s132_6.0.0.dir/__/__/__/mesh/core/src/mesh_config.c.obj
 .text.mesh_config_entry_available_id
                0x00000000       0x36 examples/light_switch/server/CMakeFiles/light_switch_server_nrf52832_xxAA_s132_6.0.0.dir/__/__/__/mesh/core/src/mesh_config.c.obj
 .text.mesh_config_entry_delete
                0x00000000       0x74 examples/light_switch/server/CMakeFiles/light_switch_server_nrf52832_xxAA_s132_6.0.0.dir/__/__/__/mesh/core/src/mesh_config.c.obj
 .text.mesh_config_power_down_time_get
                0x00000000        0x4 examples/light_switch/server/CMakeFiles/light_switch_server_nrf52832_xxAA_s132_6.0.0.dir/__/__/__/mesh/core/src/mesh_config.c.obj
 .text          0x00000000        0x0 examples/light_switch/server/CMakeFiles/light_switch_server_nrf52832_xxAA_s132_6.0.0.dir/__/__/__/mesh/core/src/fsm.c.obj
 .data          0x00000000        0x0 examples/light_switch/server/CMakeFiles/light_switch_server_nrf52832_xxAA_s132_6.0.0.dir/__/__/__/mesh/core/src/fsm.c.obj
 .bss           0x00000000        0x0 examples/light_switch/server/CMakeFiles/light_switch_server_nrf52832_xxAA_s132_6.0.0.dir/__/__/__/mesh/core/src/fsm.c.obj
 .text.fsm_event_post_try
                0x00000000      0x1ec examples/light_switch/server/CMakeFiles/light_switch_server_nrf52832_xxAA_s132_6.0.0.dir/__/__/__/mesh/core/src/fsm.c.obj
 .text.fsm_init
                0x00000000       0xcc examples/light_switch/server/CMakeFiles/light_switch_server_nrf52832_xxAA_s132_6.0.0.dir/__/__/__/mesh/core/src/fsm.c.obj
 .text.fsm_event_post
                0x00000000       0xac examples/light_switch/server/CMakeFiles/light_switch_server_nrf52832_xxAA_s132_6.0.0.dir/__/__/__/mesh/core/src/fsm.c.obj
 .text.fsm_is_processing
                0x00000000        0xa examples/light_switch/server/CMakeFiles/light_switch_server_nrf52832_xxAA_s132_6.0.0.dir/__/__/__/mesh/core/src/fsm.c.obj
 .rodata.fsm_event_post.str1.1
                0x00000000        0xb examples/light_switch/server/CMakeFiles/light_switch_server_nrf52832_xxAA_s132_6.0.0.dir/__/__/__/mesh/core/src/fsm.c.obj
 .rodata.fsm_event_post_try.str1.1
                0x00000000       0x41 examples/light_switch/server/CMakeFiles/light_switch_server_nrf52832_xxAA_s132_6.0.0.dir/__/__/__/mesh/core/src/fsm.c.obj
 .rodata.fsm_init.str1.1
                0x00000000        0xa examples/light_switch/server/CMakeFiles/light_switch_server_nrf52832_xxAA_s132_6.0.0.dir/__/__/__/mesh/core/src/fsm.c.obj
 .debug_info    0x00000000     0x132d examples/light_switch/server/CMakeFiles/light_switch_server_nrf52832_xxAA_s132_6.0.0.dir/__/__/__/mesh/core/src/fsm.c.obj
 .debug_abbrev  0x00000000      0x345 examples/light_switch/server/CMakeFiles/light_switch_server_nrf52832_xxAA_s132_6.0.0.dir/__/__/__/mesh/core/src/fsm.c.obj
 .debug_loc     0x00000000      0x3fd examples/light_switch/server/CMakeFiles/light_switch_server_nrf52832_xxAA_s132_6.0.0.dir/__/__/__/mesh/core/src/fsm.c.obj
 .debug_aranges
                0x00000000       0x38 examples/light_switch/server/CMakeFiles/light_switch_server_nrf52832_xxAA_s132_6.0.0.dir/__/__/__/mesh/core/src/fsm.c.obj
 .debug_ranges  0x00000000       0xe0 examples/light_switch/server/CMakeFiles/light_switch_server_nrf52832_xxAA_s132_6.0.0.dir/__/__/__/mesh/core/src/fsm.c.obj
 .debug_line    0x00000000      0x3c8 examples/light_switch/server/CMakeFiles/light_switch_server_nrf52832_xxAA_s132_6.0.0.dir/__/__/__/mesh/core/src/fsm.c.obj
 .debug_str     0x00000000      0x984 examples/light_switch/server/CMakeFiles/light_switch_server_nrf52832_xxAA_s132_6.0.0.dir/__/__/__/mesh/core/src/fsm.c.obj
 .comment       0x00000000       0x80 examples/light_switch/server/CMakeFiles/light_switch_server_nrf52832_xxAA_s132_6.0.0.dir/__/__/__/mesh/core/src/fsm.c.obj
 .debug_frame   0x00000000       0x9c examples/light_switch/server/CMakeFiles/light_switch_server_nrf52832_xxAA_s132_6.0.0.dir/__/__/__/mesh/core/src/fsm.c.obj
 .ARM.attributes
                0x00000000       0x39 examples/light_switch/server/CMakeFiles/light_switch_server_nrf52832_xxAA_s132_6.0.0.dir/__/__/__/mesh/core/src/fsm.c.obj
 .text          0x00000000        0x0 examples/light_switch/server/CMakeFiles/light_switch_server_nrf52832_xxAA_s132_6.0.0.dir/__/__/__/mesh/core/src/mesh_config_backend.c.obj
 .data          0x00000000        0x0 examples/light_switch/server/CMakeFiles/light_switch_server_nrf52832_xxAA_s132_6.0.0.dir/__/__/__/mesh/core/src/mesh_config_backend.c.obj
 .bss           0x00000000        0x0 examples/light_switch/server/CMakeFiles/light_switch_server_nrf52832_xxAA_s132_6.0.0.dir/__/__/__/mesh/core/src/mesh_config_backend.c.obj
 .text.mesh_config_backend_read
                0x00000000       0x58 examples/light_switch/server/CMakeFiles/light_switch_server_nrf52832_xxAA_s132_6.0.0.dir/__/__/__/mesh/core/src/mesh_config_backend.c.obj
 .text.mesh_config_backend_power_down_time_get
                0x00000000        0xc examples/light_switch/server/CMakeFiles/light_switch_server_nrf52832_xxAA_s132_6.0.0.dir/__/__/__/mesh/core/src/mesh_config_backend.c.obj
 .text          0x00000000        0x0 examples/light_switch/server/CMakeFiles/light_switch_server_nrf52832_xxAA_s132_6.0.0.dir/__/__/__/mesh/core/src/mesh_config_flashman_glue.c.obj
 .data          0x00000000        0x0 examples/light_switch/server/CMakeFiles/light_switch_server_nrf52832_xxAA_s132_6.0.0.dir/__/__/__/mesh/core/src/mesh_config_flashman_glue.c.obj
 .bss           0x00000000        0x0 examples/light_switch/server/CMakeFiles/light_switch_server_nrf52832_xxAA_s132_6.0.0.dir/__/__/__/mesh/core/src/mesh_config_flashman_glue.c.obj
 .text.mesh_config_backend_record_read
                0x00000000       0x38 examples/light_switch/server/CMakeFiles/light_switch_server_nrf52832_xxAA_s132_6.0.0.dir/__/__/__/mesh/core/src/mesh_config_flashman_glue.c.obj
 .text.mesh_config_backend_flash_usage_get
                0x00000000       0x24 examples/light_switch/server/CMakeFiles/light_switch_server_nrf52832_xxAA_s132_6.0.0.dir/__/__/__/mesh/core/src/mesh_config_flashman_glue.c.obj
 .text          0x00000000        0x0 examples/light_switch/server/CMakeFiles/light_switch_server_nrf52832_xxAA_s132_6.0.0.dir/__/__/__/mesh/core/src/core_tx_adv.c.obj
 .data          0x00000000        0x0 examples/light_switch/server/CMakeFiles/light_switch_server_nrf52832_xxAA_s132_6.0.0.dir/__/__/__/mesh/core/src/core_tx_adv.c.obj
 .bss           0x00000000        0x0 examples/light_switch/server/CMakeFiles/light_switch_server_nrf52832_xxAA_s132_6.0.0.dir/__/__/__/mesh/core/src/core_tx_adv.c.obj
 .text.mesh_opt_core_adv_delete
                0x00000000       0x24 examples/light_switch/server/CMakeFiles/light_switch_server_nrf52832_xxAA_s132_6.0.0.dir/__/__/__/mesh/core/src/core_tx_adv.c.obj
 .text.mesh_opt_core_adv_addr_set
                0x00000000       0x24 examples/light_switch/server/CMakeFiles/light_switch_server_nrf52832_xxAA_s132_6.0.0.dir/__/__/__/mesh/core/src/core_tx_adv.c.obj
 .text.mesh_opt_core_adv_addr_get
                0x00000000       0x24 examples/light_switch/server/CMakeFiles/light_switch_server_nrf52832_xxAA_s132_6.0.0.dir/__/__/__/mesh/core/src/core_tx_adv.c.obj
 .text.mesh_opt_core_adv_addr_delete
                0x00000000       0x24 examples/light_switch/server/CMakeFiles/light_switch_server_nrf52832_xxAA_s132_6.0.0.dir/__/__/__/mesh/core/src/core_tx_adv.c.obj
 .text.mesh_opt_core_tx_power_set
                0x00000000       0x2c examples/light_switch/server/CMakeFiles/light_switch_server_nrf52832_xxAA_s132_6.0.0.dir/__/__/__/mesh/core/src/core_tx_adv.c.obj
 .text.mesh_opt_core_tx_power_get
                0x00000000       0x24 examples/light_switch/server/CMakeFiles/light_switch_server_nrf52832_xxAA_s132_6.0.0.dir/__/__/__/mesh/core/src/core_tx_adv.c.obj
 .text.mesh_opt_core_tx_power_delete
                0x00000000       0x24 examples/light_switch/server/CMakeFiles/light_switch_server_nrf52832_xxAA_s132_6.0.0.dir/__/__/__/mesh/core/src/core_tx_adv.c.obj
 .text          0x00000000        0x0 examples/light_switch/server/CMakeFiles/light_switch_server_nrf52832_xxAA_s132_6.0.0.dir/__/__/__/mesh/bearer/src/ad_listener.c.obj
 .data          0x00000000        0x0 examples/light_switch/server/CMakeFiles/light_switch_server_nrf52832_xxAA_s132_6.0.0.dir/__/__/__/mesh/bearer/src/ad_listener.c.obj
 .bss           0x00000000        0x0 examples/light_switch/server/CMakeFiles/light_switch_server_nrf52832_xxAA_s132_6.0.0.dir/__/__/__/mesh/bearer/src/ad_listener.c.obj
 .text.ad_listener_unsubscribe
                0x00000000       0x6c examples/light_switch/server/CMakeFiles/light_switch_server_nrf52832_xxAA_s132_6.0.0.dir/__/__/__/mesh/bearer/src/ad_listener.c.obj
 .text          0x00000000        0x0 examples/light_switch/server/CMakeFiles/light_switch_server_nrf52832_xxAA_s132_6.0.0.dir/__/__/__/mesh/bearer/src/ad_type_filter.c.obj
 .data          0x00000000        0x0 examples/light_switch/server/CMakeFiles/light_switch_server_nrf52832_xxAA_s132_6.0.0.dir/__/__/__/mesh/bearer/src/ad_type_filter.c.obj
 .bss           0x00000000        0x0 examples/light_switch/server/CMakeFiles/light_switch_server_nrf52832_xxAA_s132_6.0.0.dir/__/__/__/mesh/bearer/src/ad_type_filter.c.obj
 .text.bearer_adtype_remove
                0x00000000       0x20 examples/light_switch/server/CMakeFiles/light_switch_server_nrf52832_xxAA_s132_6.0.0.dir/__/__/__/mesh/bearer/src/ad_type_filter.c.obj
 .text.bearer_adtype_clear
                0x00000000       0x10 examples/light_switch/server/CMakeFiles/light_switch_server_nrf52832_xxAA_s132_6.0.0.dir/__/__/__/mesh/bearer/src/ad_type_filter.c.obj
 .text.bearer_invalid_length_amount_get
                0x00000000        0xc examples/light_switch/server/CMakeFiles/light_switch_server_nrf52832_xxAA_s132_6.0.0.dir/__/__/__/mesh/bearer/src/ad_type_filter.c.obj
 .text.bearer_adtype_filtered_amount_get
                0x00000000        0xc examples/light_switch/server/CMakeFiles/light_switch_server_nrf52832_xxAA_s132_6.0.0.dir/__/__/__/mesh/bearer/src/ad_type_filter.c.obj
 .text          0x00000000        0x0 examples/light_switch/server/CMakeFiles/light_switch_server_nrf52832_xxAA_s132_6.0.0.dir/__/__/__/mesh/bearer/src/adv_packet_filter.c.obj
 .data          0x00000000        0x0 examples/light_switch/server/CMakeFiles/light_switch_server_nrf52832_xxAA_s132_6.0.0.dir/__/__/__/mesh/bearer/src/adv_packet_filter.c.obj
 .bss           0x00000000        0x0 examples/light_switch/server/CMakeFiles/light_switch_server_nrf52832_xxAA_s132_6.0.0.dir/__/__/__/mesh/bearer/src/adv_packet_filter.c.obj
 .text.adv_filter_handle
                0x00000000       0x3c examples/light_switch/server/CMakeFiles/light_switch_server_nrf52832_xxAA_s132_6.0.0.dir/__/__/__/mesh/bearer/src/adv_packet_filter.c.obj
 .text.bearer_adv_packet_filtering_set
                0x00000000       0x1c examples/light_switch/server/CMakeFiles/light_switch_server_nrf52832_xxAA_s132_6.0.0.dir/__/__/__/mesh/bearer/src/adv_packet_filter.c.obj
 .text.bearer_adv_packet_remove
                0x00000000       0x18 examples/light_switch/server/CMakeFiles/light_switch_server_nrf52832_xxAA_s132_6.0.0.dir/__/__/__/mesh/bearer/src/adv_packet_filter.c.obj
 .text.bearer_adv_packet_add
                0x00000000       0x14 examples/light_switch/server/CMakeFiles/light_switch_server_nrf52832_xxAA_s132_6.0.0.dir/__/__/__/mesh/bearer/src/adv_packet_filter.c.obj
 .text.bearer_adv_packet_clear
                0x00000000        0xc examples/light_switch/server/CMakeFiles/light_switch_server_nrf52832_xxAA_s132_6.0.0.dir/__/__/__/mesh/bearer/src/adv_packet_filter.c.obj
 .text.bearer_adv_packet_filter_mode_set
                0x00000000       0x18 examples/light_switch/server/CMakeFiles/light_switch_server_nrf52832_xxAA_s132_6.0.0.dir/__/__/__/mesh/bearer/src/adv_packet_filter.c.obj
 .text.bearer_adv_packet_filtered_amount_get
                0x00000000        0xc examples/light_switch/server/CMakeFiles/light_switch_server_nrf52832_xxAA_s132_6.0.0.dir/__/__/__/mesh/bearer/src/adv_packet_filter.c.obj
 .bss.m_adv_packet_filter
                0x00000000       0x14 examples/light_switch/server/CMakeFiles/light_switch_server_nrf52832_xxAA_s132_6.0.0.dir/__/__/__/mesh/bearer/src/adv_packet_filter.c.obj
 .debug_info    0x00000000      0xdc3 examples/light_switch/server/CMakeFiles/light_switch_server_nrf52832_xxAA_s132_6.0.0.dir/__/__/__/mesh/bearer/src/adv_packet_filter.c.obj
 .debug_abbrev  0x00000000      0x2c9 examples/light_switch/server/CMakeFiles/light_switch_server_nrf52832_xxAA_s132_6.0.0.dir/__/__/__/mesh/bearer/src/adv_packet_filter.c.obj
 .debug_loc     0x00000000      0x1c0 examples/light_switch/server/CMakeFiles/light_switch_server_nrf52832_xxAA_s132_6.0.0.dir/__/__/__/mesh/bearer/src/adv_packet_filter.c.obj
 .debug_aranges
                0x00000000       0x50 examples/light_switch/server/CMakeFiles/light_switch_server_nrf52832_xxAA_s132_6.0.0.dir/__/__/__/mesh/bearer/src/adv_packet_filter.c.obj
 .debug_ranges  0x00000000       0x40 examples/light_switch/server/CMakeFiles/light_switch_server_nrf52832_xxAA_s132_6.0.0.dir/__/__/__/mesh/bearer/src/adv_packet_filter.c.obj
 .debug_line    0x00000000      0x39d examples/light_switch/server/CMakeFiles/light_switch_server_nrf52832_xxAA_s132_6.0.0.dir/__/__/__/mesh/bearer/src/adv_packet_filter.c.obj
 .debug_str     0x00000000      0xa55 examples/light_switch/server/CMakeFiles/light_switch_server_nrf52832_xxAA_s132_6.0.0.dir/__/__/__/mesh/bearer/src/adv_packet_filter.c.obj
 .comment       0x00000000       0x80 examples/light_switch/server/CMakeFiles/light_switch_server_nrf52832_xxAA_s132_6.0.0.dir/__/__/__/mesh/bearer/src/adv_packet_filter.c.obj
 .debug_frame   0x00000000       0x88 examples/light_switch/server/CMakeFiles/light_switch_server_nrf52832_xxAA_s132_6.0.0.dir/__/__/__/mesh/bearer/src/adv_packet_filter.c.obj
 .ARM.attributes
                0x00000000       0x39 examples/light_switch/server/CMakeFiles/light_switch_server_nrf52832_xxAA_s132_6.0.0.dir/__/__/__/mesh/bearer/src/adv_packet_filter.c.obj
 .text          0x00000000        0x0 examples/light_switch/server/CMakeFiles/light_switch_server_nrf52832_xxAA_s132_6.0.0.dir/__/__/__/mesh/bearer/src/advertiser.c.obj
 .data          0x00000000        0x0 examples/light_switch/server/CMakeFiles/light_switch_server_nrf52832_xxAA_s132_6.0.0.dir/__/__/__/mesh/bearer/src/advertiser.c.obj
 .bss           0x00000000        0x0 examples/light_switch/server/CMakeFiles/light_switch_server_nrf52832_xxAA_s132_6.0.0.dir/__/__/__/mesh/bearer/src/advertiser.c.obj
 .text.advertiser_channels_set
                0x00000000       0x60 examples/light_switch/server/CMakeFiles/light_switch_server_nrf52832_xxAA_s132_6.0.0.dir/__/__/__/mesh/bearer/src/advertiser.c.obj
 .text.advertiser_config_set
                0x00000000       0x3a examples/light_switch/server/CMakeFiles/light_switch_server_nrf52832_xxAA_s132_6.0.0.dir/__/__/__/mesh/bearer/src/advertiser.c.obj
 .text.advertiser_config_get
                0x00000000       0x20 examples/light_switch/server/CMakeFiles/light_switch_server_nrf52832_xxAA_s132_6.0.0.dir/__/__/__/mesh/bearer/src/advertiser.c.obj
 .text          0x00000000        0x0 examples/light_switch/server/CMakeFiles/light_switch_server_nrf52832_xxAA_s132_6.0.0.dir/__/__/__/mesh/bearer/src/bearer_handler.c.obj
 .data          0x00000000        0x0 examples/light_switch/server/CMakeFiles/light_switch_server_nrf52832_xxAA_s132_6.0.0.dir/__/__/__/mesh/bearer/src/bearer_handler.c.obj
 .bss           0x00000000        0x0 examples/light_switch/server/CMakeFiles/light_switch_server_nrf52832_xxAA_s132_6.0.0.dir/__/__/__/mesh/bearer/src/bearer_handler.c.obj
 .text.bearer_handler_stop
                0x00000000       0x20 examples/light_switch/server/CMakeFiles/light_switch_server_nrf52832_xxAA_s132_6.0.0.dir/__/__/__/mesh/bearer/src/bearer_handler.c.obj
 .text.bearer_handler_action_fire
                0x00000000       0x9c examples/light_switch/server/CMakeFiles/light_switch_server_nrf52832_xxAA_s132_6.0.0.dir/__/__/__/mesh/bearer/src/bearer_handler.c.obj
 .text          0x00000000        0x0 examples/light_switch/server/CMakeFiles/light_switch_server_nrf52832_xxAA_s132_6.0.0.dir/__/__/__/mesh/bearer/src/broadcast.c.obj
 .data          0x00000000        0x0 examples/light_switch/server/CMakeFiles/light_switch_server_nrf52832_xxAA_s132_6.0.0.dir/__/__/__/mesh/bearer/src/broadcast.c.obj
 .bss           0x00000000        0x0 examples/light_switch/server/CMakeFiles/light_switch_server_nrf52832_xxAA_s132_6.0.0.dir/__/__/__/mesh/bearer/src/broadcast.c.obj
 .text          0x00000000        0x0 examples/light_switch/server/CMakeFiles/light_switch_server_nrf52832_xxAA_s132_6.0.0.dir/__/__/__/mesh/bearer/src/filter_engine.c.obj
 .data          0x00000000        0x0 examples/light_switch/server/CMakeFiles/light_switch_server_nrf52832_xxAA_s132_6.0.0.dir/__/__/__/mesh/bearer/src/filter_engine.c.obj
 .bss           0x00000000        0x0 examples/light_switch/server/CMakeFiles/light_switch_server_nrf52832_xxAA_s132_6.0.0.dir/__/__/__/mesh/bearer/src/filter_engine.c.obj
 .text.fen_accepted_amount_get
                0x00000000        0xc examples/light_switch/server/CMakeFiles/light_switch_server_nrf52832_xxAA_s132_6.0.0.dir/__/__/__/mesh/bearer/src/filter_engine.c.obj
 .text          0x00000000        0x0 examples/light_switch/server/CMakeFiles/light_switch_server_nrf52832_xxAA_s132_6.0.0.dir/__/__/__/mesh/bearer/src/gap_address_filter.c.obj
 .data          0x00000000        0x0 examples/light_switch/server/CMakeFiles/light_switch_server_nrf52832_xxAA_s132_6.0.0.dir/__/__/__/mesh/bearer/src/gap_address_filter.c.obj
 .bss           0x00000000        0x0 examples/light_switch/server/CMakeFiles/light_switch_server_nrf52832_xxAA_s132_6.0.0.dir/__/__/__/mesh/bearer/src/gap_address_filter.c.obj
 .text.gap_address_filter_handle
                0x00000000       0xa6 examples/light_switch/server/CMakeFiles/light_switch_server_nrf52832_xxAA_s132_6.0.0.dir/__/__/__/mesh/bearer/src/gap_address_filter.c.obj
 .text.gap_addr_filter_set
                0x00000000       0x40 examples/light_switch/server/CMakeFiles/light_switch_server_nrf52832_xxAA_s132_6.0.0.dir/__/__/__/mesh/bearer/src/gap_address_filter.c.obj
 .text.bearer_filter_gap_addr_whitelist_set
                0x00000000        0x6 examples/light_switch/server/CMakeFiles/light_switch_server_nrf52832_xxAA_s132_6.0.0.dir/__/__/__/mesh/bearer/src/gap_address_filter.c.obj
 .text.bearer_filter_gap_addr_blacklist_set
                0x00000000        0x6 examples/light_switch/server/CMakeFiles/light_switch_server_nrf52832_xxAA_s132_6.0.0.dir/__/__/__/mesh/bearer/src/gap_address_filter.c.obj
 .text.bearer_filter_gap_addr_range_set
                0x00000000       0x38 examples/light_switch/server/CMakeFiles/light_switch_server_nrf52832_xxAA_s132_6.0.0.dir/__/__/__/mesh/bearer/src/gap_address_filter.c.obj
 .text.bearer_filter_gap_addr_clear
                0x00000000       0x20 examples/light_switch/server/CMakeFiles/light_switch_server_nrf52832_xxAA_s132_6.0.0.dir/__/__/__/mesh/bearer/src/gap_address_filter.c.obj
 .text.bearer_gap_addr_filtered_amount_get
                0x00000000        0xc examples/light_switch/server/CMakeFiles/light_switch_server_nrf52832_xxAA_s132_6.0.0.dir/__/__/__/mesh/bearer/src/gap_address_filter.c.obj
 .bss.m_addr_filter
                0x00000000       0x18 examples/light_switch/server/CMakeFiles/light_switch_server_nrf52832_xxAA_s132_6.0.0.dir/__/__/__/mesh/bearer/src/gap_address_filter.c.obj
 .debug_info    0x00000000      0xee7 examples/light_switch/server/CMakeFiles/light_switch_server_nrf52832_xxAA_s132_6.0.0.dir/__/__/__/mesh/bearer/src/gap_address_filter.c.obj
 .debug_abbrev  0x00000000      0x2f4 examples/light_switch/server/CMakeFiles/light_switch_server_nrf52832_xxAA_s132_6.0.0.dir/__/__/__/mesh/bearer/src/gap_address_filter.c.obj
 .debug_loc     0x00000000      0x3e8 examples/light_switch/server/CMakeFiles/light_switch_server_nrf52832_xxAA_s132_6.0.0.dir/__/__/__/mesh/bearer/src/gap_address_filter.c.obj
 .debug_aranges
                0x00000000       0x50 examples/light_switch/server/CMakeFiles/light_switch_server_nrf52832_xxAA_s132_6.0.0.dir/__/__/__/mesh/bearer/src/gap_address_filter.c.obj
 .debug_ranges  0x00000000       0x58 examples/light_switch/server/CMakeFiles/light_switch_server_nrf52832_xxAA_s132_6.0.0.dir/__/__/__/mesh/bearer/src/gap_address_filter.c.obj
 .debug_line    0x00000000      0x3f0 examples/light_switch/server/CMakeFiles/light_switch_server_nrf52832_xxAA_s132_6.0.0.dir/__/__/__/mesh/bearer/src/gap_address_filter.c.obj
 .debug_str     0x00000000      0x9af examples/light_switch/server/CMakeFiles/light_switch_server_nrf52832_xxAA_s132_6.0.0.dir/__/__/__/mesh/bearer/src/gap_address_filter.c.obj
 .comment       0x00000000       0x80 examples/light_switch/server/CMakeFiles/light_switch_server_nrf52832_xxAA_s132_6.0.0.dir/__/__/__/mesh/bearer/src/gap_address_filter.c.obj
 .debug_frame   0x00000000       0xb4 examples/light_switch/server/CMakeFiles/light_switch_server_nrf52832_xxAA_s132_6.0.0.dir/__/__/__/mesh/bearer/src/gap_address_filter.c.obj
 .ARM.attributes
                0x00000000       0x39 examples/light_switch/server/CMakeFiles/light_switch_server_nrf52832_xxAA_s132_6.0.0.dir/__/__/__/mesh/bearer/src/gap_address_filter.c.obj
 .text          0x00000000        0x0 examples/light_switch/server/CMakeFiles/light_switch_server_nrf52832_xxAA_s132_6.0.0.dir/__/__/__/mesh/bearer/src/radio_config.c.obj
 .data          0x00000000        0x0 examples/light_switch/server/CMakeFiles/light_switch_server_nrf52832_xxAA_s132_6.0.0.dir/__/__/__/mesh/bearer/src/radio_config.c.obj
 .bss           0x00000000        0x0 examples/light_switch/server/CMakeFiles/light_switch_server_nrf52832_xxAA_s132_6.0.0.dir/__/__/__/mesh/bearer/src/radio_config.c.obj
 .text.radio_config_access_addr_get
                0x00000000       0x4c examples/light_switch/server/CMakeFiles/light_switch_server_nrf52832_xxAA_s132_6.0.0.dir/__/__/__/mesh/bearer/src/radio_config.c.obj
 .text          0x00000000        0x0 examples/light_switch/server/CMakeFiles/light_switch_server_nrf52832_xxAA_s132_6.0.0.dir/__/__/__/mesh/bearer/src/rssi_filter.c.obj
 .data          0x00000000        0x0 examples/light_switch/server/CMakeFiles/light_switch_server_nrf52832_xxAA_s132_6.0.0.dir/__/__/__/mesh/bearer/src/rssi_filter.c.obj
 .bss           0x00000000        0x0 examples/light_switch/server/CMakeFiles/light_switch_server_nrf52832_xxAA_s132_6.0.0.dir/__/__/__/mesh/bearer/src/rssi_filter.c.obj
 .text.rssi_filter_handle
                0x00000000       0x20 examples/light_switch/server/CMakeFiles/light_switch_server_nrf52832_xxAA_s132_6.0.0.dir/__/__/__/mesh/bearer/src/rssi_filter.c.obj
 .text.bearer_rssi_filtering_set
                0x00000000       0x34 examples/light_switch/server/CMakeFiles/light_switch_server_nrf52832_xxAA_s132_6.0.0.dir/__/__/__/mesh/bearer/src/rssi_filter.c.obj
 .text.bearer_rssi_filtered_amount_get
                0x00000000        0xc examples/light_switch/server/CMakeFiles/light_switch_server_nrf52832_xxAA_s132_6.0.0.dir/__/__/__/mesh/bearer/src/rssi_filter.c.obj
 .bss.m_rssi_filter
                0x00000000       0x18 examples/light_switch/server/CMakeFiles/light_switch_server_nrf52832_xxAA_s132_6.0.0.dir/__/__/__/mesh/bearer/src/rssi_filter.c.obj
 .debug_info    0x00000000      0xc9f examples/light_switch/server/CMakeFiles/light_switch_server_nrf52832_xxAA_s132_6.0.0.dir/__/__/__/mesh/bearer/src/rssi_filter.c.obj
 .debug_abbrev  0x00000000      0x28e examples/light_switch/server/CMakeFiles/light_switch_server_nrf52832_xxAA_s132_6.0.0.dir/__/__/__/mesh/bearer/src/rssi_filter.c.obj
 .debug_loc     0x00000000       0xb3 examples/light_switch/server/CMakeFiles/light_switch_server_nrf52832_xxAA_s132_6.0.0.dir/__/__/__/mesh/bearer/src/rssi_filter.c.obj
 .debug_aranges
                0x00000000       0x30 examples/light_switch/server/CMakeFiles/light_switch_server_nrf52832_xxAA_s132_6.0.0.dir/__/__/__/mesh/bearer/src/rssi_filter.c.obj
 .debug_ranges  0x00000000       0x20 examples/light_switch/server/CMakeFiles/light_switch_server_nrf52832_xxAA_s132_6.0.0.dir/__/__/__/mesh/bearer/src/rssi_filter.c.obj
 .debug_line    0x00000000      0x312 examples/light_switch/server/CMakeFiles/light_switch_server_nrf52832_xxAA_s132_6.0.0.dir/__/__/__/mesh/bearer/src/rssi_filter.c.obj
 .debug_str     0x00000000      0x86a examples/light_switch/server/CMakeFiles/light_switch_server_nrf52832_xxAA_s132_6.0.0.dir/__/__/__/mesh/bearer/src/rssi_filter.c.obj
 .comment       0x00000000       0x80 examples/light_switch/server/CMakeFiles/light_switch_server_nrf52832_xxAA_s132_6.0.0.dir/__/__/__/mesh/bearer/src/rssi_filter.c.obj
 .debug_frame   0x00000000       0x54 examples/light_switch/server/CMakeFiles/light_switch_server_nrf52832_xxAA_s132_6.0.0.dir/__/__/__/mesh/bearer/src/rssi_filter.c.obj
 .ARM.attributes
                0x00000000       0x39 examples/light_switch/server/CMakeFiles/light_switch_server_nrf52832_xxAA_s132_6.0.0.dir/__/__/__/mesh/bearer/src/rssi_filter.c.obj
 .text          0x00000000        0x0 examples/light_switch/server/CMakeFiles/light_switch_server_nrf52832_xxAA_s132_6.0.0.dir/__/__/__/mesh/bearer/src/scanner.c.obj
 .data          0x00000000        0x0 examples/light_switch/server/CMakeFiles/light_switch_server_nrf52832_xxAA_s132_6.0.0.dir/__/__/__/mesh/bearer/src/scanner.c.obj
 .bss           0x00000000        0x0 examples/light_switch/server/CMakeFiles/light_switch_server_nrf52832_xxAA_s132_6.0.0.dir/__/__/__/mesh/bearer/src/scanner.c.obj
 .text.scanner_rx_callback_set
                0x00000000       0x20 examples/light_switch/server/CMakeFiles/light_switch_server_nrf52832_xxAA_s132_6.0.0.dir/__/__/__/mesh/bearer/src/scanner.c.obj
 .text.scanner_disable
                0x00000000       0x3c examples/light_switch/server/CMakeFiles/light_switch_server_nrf52832_xxAA_s132_6.0.0.dir/__/__/__/mesh/bearer/src/scanner.c.obj
 .text.scanner_is_enabled
                0x00000000       0x10 examples/light_switch/server/CMakeFiles/light_switch_server_nrf52832_xxAA_s132_6.0.0.dir/__/__/__/mesh/bearer/src/scanner.c.obj
 .text.scanner_stats_get
                0x00000000        0x8 examples/light_switch/server/CMakeFiles/light_switch_server_nrf52832_xxAA_s132_6.0.0.dir/__/__/__/mesh/bearer/src/scanner.c.obj
 .text.scanner_config_radio_mode_set
                0x00000000       0x10 examples/light_switch/server/CMakeFiles/light_switch_server_nrf52832_xxAA_s132_6.0.0.dir/__/__/__/mesh/bearer/src/scanner.c.obj
 .text          0x00000000        0x0 examples/light_switch/server/CMakeFiles/light_switch_server_nrf52832_xxAA_s132_6.0.0.dir/__/__/__/mesh/bearer/src/mesh_pa_lna.c.obj
 .data          0x00000000        0x0 examples/light_switch/server/CMakeFiles/light_switch_server_nrf52832_xxAA_s132_6.0.0.dir/__/__/__/mesh/bearer/src/mesh_pa_lna.c.obj
 .bss           0x00000000        0x0 examples/light_switch/server/CMakeFiles/light_switch_server_nrf52832_xxAA_s132_6.0.0.dir/__/__/__/mesh/bearer/src/mesh_pa_lna.c.obj
 .text.unlikely.pin_init
                0x00000000       0x32 examples/light_switch/server/CMakeFiles/light_switch_server_nrf52832_xxAA_s132_6.0.0.dir/__/__/__/mesh/bearer/src/mesh_pa_lna.c.obj
 .text.mesh_pa_lna_gpiote_enable
                0x00000000       0x68 examples/light_switch/server/CMakeFiles/light_switch_server_nrf52832_xxAA_s132_6.0.0.dir/__/__/__/mesh/bearer/src/mesh_pa_lna.c.obj
 .text.mesh_pa_lna_gpiote_params_get
                0x00000000       0x10 examples/light_switch/server/CMakeFiles/light_switch_server_nrf52832_xxAA_s132_6.0.0.dir/__/__/__/mesh/bearer/src/mesh_pa_lna.c.obj
 .text.mesh_pa_lna_gpiote_disable
                0x00000000       0x20 examples/light_switch/server/CMakeFiles/light_switch_server_nrf52832_xxAA_s132_6.0.0.dir/__/__/__/mesh/bearer/src/mesh_pa_lna.c.obj
 .text          0x00000000        0x0 examples/light_switch/server/CMakeFiles/light_switch_server_nrf52832_xxAA_s132_6.0.0.dir/__/__/__/models/foundation/config/src/composition_data.c.obj
 .data          0x00000000        0x0 examples/light_switch/server/CMakeFiles/light_switch_server_nrf52832_xxAA_s132_6.0.0.dir/__/__/__/models/foundation/config/src/composition_data.c.obj
 .bss           0x00000000        0x0 examples/light_switch/server/CMakeFiles/light_switch_server_nrf52832_xxAA_s132_6.0.0.dir/__/__/__/models/foundation/config/src/composition_data.c.obj
 .text          0x00000000        0x0 examples/light_switch/server/CMakeFiles/light_switch_server_nrf52832_xxAA_s132_6.0.0.dir/__/__/__/models/foundation/config/src/config_server.c.obj
 .data          0x00000000        0x0 examples/light_switch/server/CMakeFiles/light_switch_server_nrf52832_xxAA_s132_6.0.0.dir/__/__/__/models/foundation/config/src/config_server.c.obj
 .bss           0x00000000        0x0 examples/light_switch/server/CMakeFiles/light_switch_server_nrf52832_xxAA_s132_6.0.0.dir/__/__/__/models/foundation/config/src/config_server.c.obj
 .text          0x00000000        0x0 examples/light_switch/server/CMakeFiles/light_switch_server_nrf52832_xxAA_s132_6.0.0.dir/__/__/__/models/foundation/config/src/packed_index_list.c.obj
 .data          0x00000000        0x0 examples/light_switch/server/CMakeFiles/light_switch_server_nrf52832_xxAA_s132_6.0.0.dir/__/__/__/models/foundation/config/src/packed_index_list.c.obj
 .bss           0x00000000        0x0 examples/light_switch/server/CMakeFiles/light_switch_server_nrf52832_xxAA_s132_6.0.0.dir/__/__/__/models/foundation/config/src/packed_index_list.c.obj
 .text          0x00000000        0x0 examples/light_switch/server/CMakeFiles/light_switch_server_nrf52832_xxAA_s132_6.0.0.dir/__/__/__/models/foundation/health/src/health_server.c.obj
 .data          0x00000000        0x0 examples/light_switch/server/CMakeFiles/light_switch_server_nrf52832_xxAA_s132_6.0.0.dir/__/__/__/models/foundation/health/src/health_server.c.obj
 .bss           0x00000000        0x0 examples/light_switch/server/CMakeFiles/light_switch_server_nrf52832_xxAA_s132_6.0.0.dir/__/__/__/models/foundation/health/src/health_server.c.obj
 .text.health_server_fault_is_set
                0x00000000       0x1c examples/light_switch/server/CMakeFiles/light_switch_server_nrf52832_xxAA_s132_6.0.0.dir/__/__/__/models/foundation/health/src/health_server.c.obj
 .text.health_server_fault_count_get
                0x00000000        0xc examples/light_switch/server/CMakeFiles/light_switch_server_nrf52832_xxAA_s132_6.0.0.dir/__/__/__/models/foundation/health/src/health_server.c.obj
 .text.health_server_fault_register
                0x00000000       0xca examples/light_switch/server/CMakeFiles/light_switch_server_nrf52832_xxAA_s132_6.0.0.dir/__/__/__/models/foundation/health/src/health_server.c.obj
 .text.health_server_fault_clear
                0x00000000       0x48 examples/light_switch/server/CMakeFiles/light_switch_server_nrf52832_xxAA_s132_6.0.0.dir/__/__/__/models/foundation/health/src/health_server.c.obj
 .text.health_server_attention_get
                0x00000000        0x6 examples/light_switch/server/CMakeFiles/light_switch_server_nrf52832_xxAA_s132_6.0.0.dir/__/__/__/models/foundation/health/src/health_server.c.obj
 .text.health_server_attention_set
                0x00000000        0x4 examples/light_switch/server/CMakeFiles/light_switch_server_nrf52832_xxAA_s132_6.0.0.dir/__/__/__/models/foundation/health/src/health_server.c.obj
 .text          0x00000000        0x0 examples/light_switch/server/CMakeFiles/light_switch_server_nrf52832_xxAA_s132_6.0.0.dir/__/__/__/models/model_spec/generic_onoff/src/generic_onoff_server.c.obj
 .data          0x00000000        0x0 examples/light_switch/server/CMakeFiles/light_switch_server_nrf52832_xxAA_s132_6.0.0.dir/__/__/__/models/model_spec/generic_onoff/src/generic_onoff_server.c.obj
 .bss           0x00000000        0x0 examples/light_switch/server/CMakeFiles/light_switch_server_nrf52832_xxAA_s132_6.0.0.dir/__/__/__/models/model_spec/generic_onoff/src/generic_onoff_server.c.obj
 .text          0x00000000        0x0 examples/light_switch/server/CMakeFiles/light_switch_server_nrf52832_xxAA_s132_6.0.0.dir/__/__/__/models/model_spec/common/src/model_common.c.obj
 .data          0x00000000        0x0 examples/light_switch/server/CMakeFiles/light_switch_server_nrf52832_xxAA_s132_6.0.0.dir/__/__/__/models/model_spec/common/src/model_common.c.obj
 .bss           0x00000000        0x0 examples/light_switch/server/CMakeFiles/light_switch_server_nrf52832_xxAA_s132_6.0.0.dir/__/__/__/models/model_spec/common/src/model_common.c.obj
 .text.timeout_update_and_schedule
                0x00000000       0x7c examples/light_switch/server/CMakeFiles/light_switch_server_nrf52832_xxAA_s132_6.0.0.dir/__/__/__/models/model_spec/common/src/model_common.c.obj
 .text.model_timer_cb
                0x00000000       0x4a examples/light_switch/server/CMakeFiles/light_switch_server_nrf52832_xxAA_s132_6.0.0.dir/__/__/__/models/model_spec/common/src/model_common.c.obj
 .text.model_transaction_is_new
                0x00000000        0x4 examples/light_switch/server/CMakeFiles/light_switch_server_nrf52832_xxAA_s132_6.0.0.dir/__/__/__/models/model_spec/common/src/model_common.c.obj
 .text.model_delay_encode
                0x00000000       0x10 examples/light_switch/server/CMakeFiles/light_switch_server_nrf52832_xxAA_s132_6.0.0.dir/__/__/__/models/model_spec/common/src/model_common.c.obj
 .text.model_timer_elapsed_ticks_get
                0x00000000        0x6 examples/light_switch/server/CMakeFiles/light_switch_server_nrf52832_xxAA_s132_6.0.0.dir/__/__/__/models/model_spec/common/src/model_common.c.obj
 .text.model_timer_schedule
                0x00000000       0x50 examples/light_switch/server/CMakeFiles/light_switch_server_nrf52832_xxAA_s132_6.0.0.dir/__/__/__/models/model_spec/common/src/model_common.c.obj
 .text.model_timer_abort
                0x00000000       0x24 examples/light_switch/server/CMakeFiles/light_switch_server_nrf52832_xxAA_s132_6.0.0.dir/__/__/__/models/model_spec/common/src/model_common.c.obj
 .text.model_timer_create
                0x00000000       0x1c examples/light_switch/server/CMakeFiles/light_switch_server_nrf52832_xxAA_s132_6.0.0.dir/__/__/__/models/model_spec/common/src/model_common.c.obj
 .text          0x00000000        0x0 examples/light_switch/server/CMakeFiles/light_switch_server_nrf52832_xxAA_s132_6.0.0.dir/__/__/__/mesh/access/src/access_publish.c.obj
 .data          0x00000000        0x0 examples/light_switch/server/CMakeFiles/light_switch_server_nrf52832_xxAA_s132_6.0.0.dir/__/__/__/mesh/access/src/access_publish.c.obj
 .bss           0x00000000        0x0 examples/light_switch/server/CMakeFiles/light_switch_server_nrf52832_xxAA_s132_6.0.0.dir/__/__/__/mesh/access/src/access_publish.c.obj
 .text          0x00000000        0x0 examples/light_switch/server/CMakeFiles/light_switch_server_nrf52832_xxAA_s132_6.0.0.dir/__/__/__/mesh/access/src/access.c.obj
 .data          0x00000000        0x0 examples/light_switch/server/CMakeFiles/light_switch_server_nrf52832_xxAA_s132_6.0.0.dir/__/__/__/mesh/access/src/access.c.obj
 .bss           0x00000000        0x0 examples/light_switch/server/CMakeFiles/light_switch_server_nrf52832_xxAA_s132_6.0.0.dir/__/__/__/mesh/access/src/access.c.obj
 .text.access_model_element_index_get
                0x00000000       0x28 examples/light_switch/server/CMakeFiles/light_switch_server_nrf52832_xxAA_s132_6.0.0.dir/__/__/__/mesh/access/src/access.c.obj
 .text.access_model_subscription_lists_share
                0x00000000       0x48 examples/light_switch/server/CMakeFiles/light_switch_server_nrf52832_xxAA_s132_6.0.0.dir/__/__/__/mesh/access/src/access.c.obj
 .text.access_element_location_set
                0x00000000       0x20 examples/light_switch/server/CMakeFiles/light_switch_server_nrf52832_xxAA_s132_6.0.0.dir/__/__/__/mesh/access/src/access.c.obj
 .text          0x00000000        0x0 examples/light_switch/server/CMakeFiles/light_switch_server_nrf52832_xxAA_s132_6.0.0.dir/__/__/__/mesh/access/src/access_reliable.c.obj
 .data          0x00000000        0x0 examples/light_switch/server/CMakeFiles/light_switch_server_nrf52832_xxAA_s132_6.0.0.dir/__/__/__/mesh/access/src/access_reliable.c.obj
 .bss           0x00000000        0x0 examples/light_switch/server/CMakeFiles/light_switch_server_nrf52832_xxAA_s132_6.0.0.dir/__/__/__/mesh/access/src/access_reliable.c.obj
 .text.access_reliable_model_is_free
                0x00000000       0x28 examples/light_switch/server/CMakeFiles/light_switch_server_nrf52832_xxAA_s132_6.0.0.dir/__/__/__/mesh/access/src/access_reliable.c.obj
 .text.access_model_reliable_publish
                0x00000000      0x198 examples/light_switch/server/CMakeFiles/light_switch_server_nrf52832_xxAA_s132_6.0.0.dir/__/__/__/mesh/access/src/access_reliable.c.obj
 .text          0x00000000        0x0 examples/light_switch/server/CMakeFiles/light_switch_server_nrf52832_xxAA_s132_6.0.0.dir/__/__/__/mesh/access/src/access_loopback.c.obj
 .data          0x00000000        0x0 examples/light_switch/server/CMakeFiles/light_switch_server_nrf52832_xxAA_s132_6.0.0.dir/__/__/__/mesh/access/src/access_loopback.c.obj
 .bss           0x00000000        0x0 examples/light_switch/server/CMakeFiles/light_switch_server_nrf52832_xxAA_s132_6.0.0.dir/__/__/__/mesh/access/src/access_loopback.c.obj
 .text          0x00000000        0x0 examples/light_switch/server/CMakeFiles/light_switch_server_nrf52832_xxAA_s132_6.0.0.dir/__/__/__/mesh/access/src/device_state_manager.c.obj
 .data          0x00000000        0x0 examples/light_switch/server/CMakeFiles/light_switch_server_nrf52832_xxAA_s132_6.0.0.dir/__/__/__/mesh/access/src/device_state_manager.c.obj
 .bss           0x00000000        0x0 examples/light_switch/server/CMakeFiles/light_switch_server_nrf52832_xxAA_s132_6.0.0.dir/__/__/__/mesh/access/src/device_state_manager.c.obj
 .text.dsm_has_unflashed_data
                0x00000000       0x24 examples/light_switch/server/CMakeFiles/light_switch_server_nrf52832_xxAA_s132_6.0.0.dir/__/__/__/mesh/access/src/device_state_manager.c.obj
 .text.dsm_address_subscription_get
                0x00000000       0x34 examples/light_switch/server/CMakeFiles/light_switch_server_nrf52832_xxAA_s132_6.0.0.dir/__/__/__/mesh/access/src/device_state_manager.c.obj
 .text.dsm_address_subscription_count_get
                0x00000000       0x58 examples/light_switch/server/CMakeFiles/light_switch_server_nrf52832_xxAA_s132_6.0.0.dir/__/__/__/mesh/access/src/device_state_manager.c.obj
 .text.dsm_address_get_all
                0x00000000       0x64 examples/light_switch/server/CMakeFiles/light_switch_server_nrf52832_xxAA_s132_6.0.0.dir/__/__/__/mesh/access/src/device_state_manager.c.obj
 .text.dsm_subnet_handle_to_netkey_index
                0x00000000       0x30 examples/light_switch/server/CMakeFiles/light_switch_server_nrf52832_xxAA_s132_6.0.0.dir/__/__/__/mesh/access/src/device_state_manager.c.obj
 .text.dsm_subnet_key_get
                0x00000000       0x44 examples/light_switch/server/CMakeFiles/light_switch_server_nrf52832_xxAA_s132_6.0.0.dir/__/__/__/mesh/access/src/device_state_manager.c.obj
 .text.dsm_devkey_delete
                0x00000000       0x38 examples/light_switch/server/CMakeFiles/light_switch_server_nrf52832_xxAA_s132_6.0.0.dir/__/__/__/mesh/access/src/device_state_manager.c.obj
 .text.dsm_devkey_handle_get
                0x00000000       0x34 examples/light_switch/server/CMakeFiles/light_switch_server_nrf52832_xxAA_s132_6.0.0.dir/__/__/__/mesh/access/src/device_state_manager.c.obj
 .text.dsm_beacon_info_get
                0x00000000       0x2c examples/light_switch/server/CMakeFiles/light_switch_server_nrf52832_xxAA_s132_6.0.0.dir/__/__/__/mesh/access/src/device_state_manager.c.obj
 .text          0x00000000        0x0 examples/light_switch/server/CMakeFiles/light_switch_server_nrf52832_xxAA_s132_6.0.0.dir/__/__/__/mesh/prov/src/prov_provisionee.c.obj
 .data          0x00000000        0x0 examples/light_switch/server/CMakeFiles/light_switch_server_nrf52832_xxAA_s132_6.0.0.dir/__/__/__/mesh/prov/src/prov_provisionee.c.obj
 .bss           0x00000000        0x0 examples/light_switch/server/CMakeFiles/light_switch_server_nrf52832_xxAA_s132_6.0.0.dir/__/__/__/mesh/prov/src/prov_provisionee.c.obj
 .text.prov_provisionee_shared_secret
                0x00000000       0x28 examples/light_switch/server/CMakeFiles/light_switch_server_nrf52832_xxAA_s132_6.0.0.dir/__/__/__/mesh/prov/src/prov_provisionee.c.obj
 .text          0x00000000        0x0 examples/light_switch/server/CMakeFiles/light_switch_server_nrf52832_xxAA_s132_6.0.0.dir/__/__/__/mesh/prov/src/nrf_mesh_prov.c.obj
 .data          0x00000000        0x0 examples/light_switch/server/CMakeFiles/light_switch_server_nrf52832_xxAA_s132_6.0.0.dir/__/__/__/mesh/prov/src/nrf_mesh_prov.c.obj
 .bss           0x00000000        0x0 examples/light_switch/server/CMakeFiles/light_switch_server_nrf52832_xxAA_s132_6.0.0.dir/__/__/__/mesh/prov/src/nrf_mesh_prov.c.obj
 .text.nrf_mesh_prov_provision
                0x00000000       0x4e examples/light_switch/server/CMakeFiles/light_switch_server_nrf52832_xxAA_s132_6.0.0.dir/__/__/__/mesh/prov/src/nrf_mesh_prov.c.obj
 .text.nrf_mesh_prov_oob_use
                0x00000000       0x18 examples/light_switch/server/CMakeFiles/light_switch_server_nrf52832_xxAA_s132_6.0.0.dir/__/__/__/mesh/prov/src/nrf_mesh_prov.c.obj
 .text.nrf_mesh_prov_shared_secret_provide
                0x00000000        0xe examples/light_switch/server/CMakeFiles/light_switch_server_nrf52832_xxAA_s132_6.0.0.dir/__/__/__/mesh/prov/src/nrf_mesh_prov.c.obj
 .text.nrf_mesh_prov_pubkey_provide
                0x00000000       0x10 examples/light_switch/server/CMakeFiles/light_switch_server_nrf52832_xxAA_s132_6.0.0.dir/__/__/__/mesh/prov/src/nrf_mesh_prov.c.obj
 .text.nrf_mesh_prov_scan_start
                0x00000000       0x10 examples/light_switch/server/CMakeFiles/light_switch_server_nrf52832_xxAA_s132_6.0.0.dir/__/__/__/mesh/prov/src/nrf_mesh_prov.c.obj
 .text.nrf_mesh_prov_scan_stop
                0x00000000        0x4 examples/light_switch/server/CMakeFiles/light_switch_server_nrf52832_xxAA_s132_6.0.0.dir/__/__/__/mesh/prov/src/nrf_mesh_prov.c.obj
 .text          0x00000000        0x0 examples/light_switch/server/CMakeFiles/light_switch_server_nrf52832_xxAA_s132_6.0.0.dir/__/__/__/mesh/prov/src/provisioning.c.obj
 .data          0x00000000        0x0 examples/light_switch/server/CMakeFiles/light_switch_server_nrf52832_xxAA_s132_6.0.0.dir/__/__/__/mesh/prov/src/provisioning.c.obj
 .bss           0x00000000        0x0 examples/light_switch/server/CMakeFiles/light_switch_server_nrf52832_xxAA_s132_6.0.0.dir/__/__/__/mesh/prov/src/provisioning.c.obj
 .text.prov_tx_invite
                0x00000000       0x28 examples/light_switch/server/CMakeFiles/light_switch_server_nrf52832_xxAA_s132_6.0.0.dir/__/__/__/mesh/prov/src/provisioning.c.obj
 .text.prov_tx_start
                0x00000000       0x20 examples/light_switch/server/CMakeFiles/light_switch_server_nrf52832_xxAA_s132_6.0.0.dir/__/__/__/mesh/prov/src/provisioning.c.obj
 .text.prov_tx_data
                0x00000000        0x6 examples/light_switch/server/CMakeFiles/light_switch_server_nrf52832_xxAA_s132_6.0.0.dir/__/__/__/mesh/prov/src/provisioning.c.obj
 .text.prov_tx  0x00000000        0x4 examples/light_switch/server/CMakeFiles/light_switch_server_nrf52832_xxAA_s132_6.0.0.dir/__/__/__/mesh/prov/src/provisioning.c.obj
 .text          0x00000000        0x0 examples/light_switch/server/CMakeFiles/light_switch_server_nrf52832_xxAA_s132_6.0.0.dir/__/__/__/mesh/prov/src/prov_beacon.c.obj
 .data          0x00000000        0x0 examples/light_switch/server/CMakeFiles/light_switch_server_nrf52832_xxAA_s132_6.0.0.dir/__/__/__/mesh/prov/src/prov_beacon.c.obj
 .bss           0x00000000        0x0 examples/light_switch/server/CMakeFiles/light_switch_server_nrf52832_xxAA_s132_6.0.0.dir/__/__/__/mesh/prov/src/prov_beacon.c.obj
 .text.prov_beacon_scan_start
                0x00000000       0x18 examples/light_switch/server/CMakeFiles/light_switch_server_nrf52832_xxAA_s132_6.0.0.dir/__/__/__/mesh/prov/src/prov_beacon.c.obj
 .text.prov_beacon_scan_stop
                0x00000000        0xc examples/light_switch/server/CMakeFiles/light_switch_server_nrf52832_xxAA_s132_6.0.0.dir/__/__/__/mesh/prov/src/prov_beacon.c.obj
 .text          0x00000000        0x0 examples/light_switch/server/CMakeFiles/light_switch_server_nrf52832_xxAA_s132_6.0.0.dir/__/__/__/mesh/prov/src/prov_utils.c.obj
 .data          0x00000000        0x0 examples/light_switch/server/CMakeFiles/light_switch_server_nrf52832_xxAA_s132_6.0.0.dir/__/__/__/mesh/prov/src/prov_utils.c.obj
 .bss           0x00000000        0x0 examples/light_switch/server/CMakeFiles/light_switch_server_nrf52832_xxAA_s132_6.0.0.dir/__/__/__/mesh/prov/src/prov_utils.c.obj
 .text.mesh_opt_prov_ecdh_offloading_set
                0x00000000       0x1c examples/light_switch/server/CMakeFiles/light_switch_server_nrf52832_xxAA_s132_6.0.0.dir/__/__/__/mesh/prov/src/prov_utils.c.obj
 .text.prov_utils_opt_set
                0x00000000       0x14 examples/light_switch/server/CMakeFiles/light_switch_server_nrf52832_xxAA_s132_6.0.0.dir/__/__/__/mesh/prov/src/prov_utils.c.obj
 .text.prov_utils_opt_get
                0x00000000       0x14 examples/light_switch/server/CMakeFiles/light_switch_server_nrf52832_xxAA_s132_6.0.0.dir/__/__/__/mesh/prov/src/prov_utils.c.obj
 .text          0x00000000        0x0 examples/light_switch/server/CMakeFiles/light_switch_server_nrf52832_xxAA_s132_6.0.0.dir/__/__/__/mesh/prov/src/prov_bearer_adv.c.obj
 .data          0x00000000        0x0 examples/light_switch/server/CMakeFiles/light_switch_server_nrf52832_xxAA_s132_6.0.0.dir/__/__/__/mesh/prov/src/prov_bearer_adv.c.obj
 .bss           0x00000000        0x0 examples/light_switch/server/CMakeFiles/light_switch_server_nrf52832_xxAA_s132_6.0.0.dir/__/__/__/mesh/prov/src/prov_bearer_adv.c.obj
 .text          0x00000000        0x0 examples/light_switch/server/CMakeFiles/light_switch_server_nrf52832_xxAA_s132_6.0.0.dir/C_/sdks/nRF5_SDK_15.0.0_a53641a/modules/nrfx/mdk/system_nrf52.c.obj
 .data          0x00000000        0x0 examples/light_switch/server/CMakeFiles/light_switch_server_nrf52832_xxAA_s132_6.0.0.dir/C_/sdks/nRF5_SDK_15.0.0_a53641a/modules/nrfx/mdk/system_nrf52.c.obj
 .bss           0x00000000        0x0 examples/light_switch/server/CMakeFiles/light_switch_server_nrf52832_xxAA_s132_6.0.0.dir/C_/sdks/nRF5_SDK_15.0.0_a53641a/modules/nrfx/mdk/system_nrf52.c.obj
 .text.SystemCoreClockUpdate
                0x00000000       0x10 examples/light_switch/server/CMakeFiles/light_switch_server_nrf52832_xxAA_s132_6.0.0.dir/C_/sdks/nRF5_SDK_15.0.0_a53641a/modules/nrfx/mdk/system_nrf52.c.obj
 .data          0x00000000        0x0 examples/light_switch/server/CMakeFiles/light_switch_server_nrf52832_xxAA_s132_6.0.0.dir/C_/sdks/nRF5_SDK_15.0.0_a53641a/modules/nrfx/mdk/gcc_startup_nrf52.S.obj
 .bss           0x00000000        0x0 examples/light_switch/server/CMakeFiles/light_switch_server_nrf52832_xxAA_s132_6.0.0.dir/C_/sdks/nRF5_SDK_15.0.0_a53641a/modules/nrfx/mdk/gcc_startup_nrf52.S.obj
 .text          0x00000000        0x0 examples/light_switch/server/CMakeFiles/light_switch_server_nrf52832_xxAA_s132_6.0.0.dir/C_/sdks/nRF5_SDK_15.0.0_a53641a/components/libraries/util/app_error.c.obj
 .data          0x00000000        0x0 examples/light_switch/server/CMakeFiles/light_switch_server_nrf52832_xxAA_s132_6.0.0.dir/C_/sdks/nRF5_SDK_15.0.0_a53641a/components/libraries/util/app_error.c.obj
 .bss           0x00000000        0x0 examples/light_switch/server/CMakeFiles/light_switch_server_nrf52832_xxAA_s132_6.0.0.dir/C_/sdks/nRF5_SDK_15.0.0_a53641a/components/libraries/util/app_error.c.obj
 .text.app_error_save_and_stop
                0x00000000       0x58 examples/light_switch/server/CMakeFiles/light_switch_server_nrf52832_xxAA_s132_6.0.0.dir/C_/sdks/nRF5_SDK_15.0.0_a53641a/components/libraries/util/app_error.c.obj
 .bss.m_error_data.7863
                0x00000000       0x20 examples/light_switch/server/CMakeFiles/light_switch_server_nrf52832_xxAA_s132_6.0.0.dir/C_/sdks/nRF5_SDK_15.0.0_a53641a/components/libraries/util/app_error.c.obj
 .text          0x00000000        0x0 examples/light_switch/server/CMakeFiles/light_switch_server_nrf52832_xxAA_s132_6.0.0.dir/C_/sdks/nRF5_SDK_15.0.0_a53641a/components/libraries/util/app_util_platform.c.obj
 .data          0x00000000        0x0 examples/light_switch/server/CMakeFiles/light_switch_server_nrf52832_xxAA_s132_6.0.0.dir/C_/sdks/nRF5_SDK_15.0.0_a53641a/components/libraries/util/app_util_platform.c.obj
 .bss           0x00000000        0x0 examples/light_switch/server/CMakeFiles/light_switch_server_nrf52832_xxAA_s132_6.0.0.dir/C_/sdks/nRF5_SDK_15.0.0_a53641a/components/libraries/util/app_util_platform.c.obj
 .text.app_util_disable_irq
                0x00000000       0x10 examples/light_switch/server/CMakeFiles/light_switch_server_nrf52832_xxAA_s132_6.0.0.dir/C_/sdks/nRF5_SDK_15.0.0_a53641a/components/libraries/util/app_util_platform.c.obj
 .text.app_util_enable_irq
                0x00000000       0x14 examples/light_switch/server/CMakeFiles/light_switch_server_nrf52832_xxAA_s132_6.0.0.dir/C_/sdks/nRF5_SDK_15.0.0_a53641a/components/libraries/util/app_util_platform.c.obj
 .text.privilege_level_get
                0x00000000       0x1a examples/light_switch/server/CMakeFiles/light_switch_server_nrf52832_xxAA_s132_6.0.0.dir/C_/sdks/nRF5_SDK_15.0.0_a53641a/components/libraries/util/app_util_platform.c.obj
 .text.current_int_priority_get
                0x00000000       0x38 examples/light_switch/server/CMakeFiles/light_switch_server_nrf52832_xxAA_s132_6.0.0.dir/C_/sdks/nRF5_SDK_15.0.0_a53641a/components/libraries/util/app_util_platform.c.obj
 .bss.m_in_critical_region
                0x00000000        0x4 examples/light_switch/server/CMakeFiles/light_switch_server_nrf52832_xxAA_s132_6.0.0.dir/C_/sdks/nRF5_SDK_15.0.0_a53641a/components/libraries/util/app_util_platform.c.obj
 .text          0x00000000        0x0 examples/light_switch/server/CMakeFiles/light_switch_server_nrf52832_xxAA_s132_6.0.0.dir/C_/sdks/nRF5_SDK_15.0.0_a53641a/components/libraries/timer/app_timer.c.obj
 .data          0x00000000        0x0 examples/light_switch/server/CMakeFiles/light_switch_server_nrf52832_xxAA_s132_6.0.0.dir/C_/sdks/nRF5_SDK_15.0.0_a53641a/components/libraries/timer/app_timer.c.obj
 .bss           0x00000000        0x0 examples/light_switch/server/CMakeFiles/light_switch_server_nrf52832_xxAA_s132_6.0.0.dir/C_/sdks/nRF5_SDK_15.0.0_a53641a/components/libraries/timer/app_timer.c.obj
 .text.app_timer_stop_all
                0x00000000       0x18 examples/light_switch/server/CMakeFiles/light_switch_server_nrf52832_xxAA_s132_6.0.0.dir/C_/sdks/nRF5_SDK_15.0.0_a53641a/components/libraries/timer/app_timer.c.obj
 .text.app_timer_pause
                0x00000000        0xc examples/light_switch/server/CMakeFiles/light_switch_server_nrf52832_xxAA_s132_6.0.0.dir/C_/sdks/nRF5_SDK_15.0.0_a53641a/components/libraries/timer/app_timer.c.obj
 .text.app_timer_resume
                0x00000000        0xc examples/light_switch/server/CMakeFiles/light_switch_server_nrf52832_xxAA_s132_6.0.0.dir/C_/sdks/nRF5_SDK_15.0.0_a53641a/components/libraries/timer/app_timer.c.obj
 .text          0x00000000        0x0 examples/light_switch/server/CMakeFiles/light_switch_server_nrf52832_xxAA_s132_6.0.0.dir/C_/sdks/nRF5_SDK_15.0.0_a53641a/components/libraries/util/app_error_handler_gcc.c.obj
 .data          0x00000000        0x0 examples/light_switch/server/CMakeFiles/light_switch_server_nrf52832_xxAA_s132_6.0.0.dir/C_/sdks/nRF5_SDK_15.0.0_a53641a/components/libraries/util/app_error_handler_gcc.c.obj
 .bss           0x00000000        0x0 examples/light_switch/server/CMakeFiles/light_switch_server_nrf52832_xxAA_s132_6.0.0.dir/C_/sdks/nRF5_SDK_15.0.0_a53641a/components/libraries/util/app_error_handler_gcc.c.obj
 .text          0x00000000        0x0 external/rtt/librtt_nrf52832_xxAA.a(SEGGER_RTT.c.obj)
 .data          0x00000000        0x0 external/rtt/librtt_nrf52832_xxAA.a(SEGGER_RTT.c.obj)
 .bss           0x00000000        0x0 external/rtt/librtt_nrf52832_xxAA.a(SEGGER_RTT.c.obj)
 .text._PostTerminalSwitch.constprop.0
                0x00000000       0x28 external/rtt/librtt_nrf52832_xxAA.a(SEGGER_RTT.c.obj)
 .text.SEGGER_RTT_WriteSkipNoLock
                0x00000000       0xb4 external/rtt/librtt_nrf52832_xxAA.a(SEGGER_RTT.c.obj)
 .text.SEGGER_RTT_WriteString
                0x00000000       0x1a external/rtt/librtt_nrf52832_xxAA.a(SEGGER_RTT.c.obj)
 .text.SEGGER_RTT_WaitKey
                0x00000000        0xc external/rtt/librtt_nrf52832_xxAA.a(SEGGER_RTT.c.obj)
 .text.SEGGER_RTT_HasKey
                0x00000000       0x1c external/rtt/librtt_nrf52832_xxAA.a(SEGGER_RTT.c.obj)
 .text.SEGGER_RTT_HasData
                0x00000000       0x14 external/rtt/librtt_nrf52832_xxAA.a(SEGGER_RTT.c.obj)
 .text.SEGGER_RTT_AllocDownBuffer
                0x00000000       0x68 external/rtt/librtt_nrf52832_xxAA.a(SEGGER_RTT.c.obj)
 .text.SEGGER_RTT_AllocUpBuffer
                0x00000000       0x70 external/rtt/librtt_nrf52832_xxAA.a(SEGGER_RTT.c.obj)
 .text.SEGGER_RTT_ConfigUpBuffer
                0x00000000       0x68 external/rtt/librtt_nrf52832_xxAA.a(SEGGER_RTT.c.obj)
 .text.SEGGER_RTT_ConfigDownBuffer
                0x00000000       0x60 external/rtt/librtt_nrf52832_xxAA.a(SEGGER_RTT.c.obj)
 .text.SEGGER_RTT_SetNameUpBuffer
                0x00000000       0x3c external/rtt/librtt_nrf52832_xxAA.a(SEGGER_RTT.c.obj)
 .text.SEGGER_RTT_SetNameDownBuffer
                0x00000000       0x3c external/rtt/librtt_nrf52832_xxAA.a(SEGGER_RTT.c.obj)
 .text.SEGGER_RTT_Init
                0x00000000       0x10 external/rtt/librtt_nrf52832_xxAA.a(SEGGER_RTT.c.obj)
 .text.SEGGER_RTT_SetTerminal
                0x00000000       0x84 external/rtt/librtt_nrf52832_xxAA.a(SEGGER_RTT.c.obj)
 .text.SEGGER_RTT_TerminalOut
                0x00000000       0xa0 external/rtt/librtt_nrf52832_xxAA.a(SEGGER_RTT.c.obj)
 .bss._ActiveTerminal
                0x00000000        0x1 external/rtt/librtt_nrf52832_xxAA.a(SEGGER_RTT.c.obj)
 .rodata._aTerminalId
                0x00000000       0x10 external/rtt/librtt_nrf52832_xxAA.a(SEGGER_RTT.c.obj)
 .text          0x00000000        0x0 external/rtt/librtt_nrf52832_xxAA.a(SEGGER_RTT_printf.c.obj)
 .data          0x00000000        0x0 external/rtt/librtt_nrf52832_xxAA.a(SEGGER_RTT_printf.c.obj)
 .bss           0x00000000        0x0 external/rtt/librtt_nrf52832_xxAA.a(SEGGER_RTT_printf.c.obj)
 .text          0x00000000        0x0 external/micro-ecc/libuECC_nrf52832_xxAA.a(uECC.c.obj)
 .data          0x00000000        0x0 external/micro-ecc/libuECC_nrf52832_xxAA.a(uECC.c.obj)
 .bss           0x00000000        0x0 external/micro-ecc/libuECC_nrf52832_xxAA.a(uECC.c.obj)
 .text.uECC_vli_modMult
                0x00000000      0x148 external/micro-ecc/libuECC_nrf52832_xxAA.a(uECC.c.obj)
 .text.HMAC_init
                0x00000000       0x46 external/micro-ecc/libuECC_nrf52832_xxAA.a(uECC.c.obj)
 .text.HMAC_update
                0x00000000        0x4 external/micro-ecc/libuECC_nrf52832_xxAA.a(uECC.c.obj)
 .text.HMAC_finish
                0x00000000       0x62 external/micro-ecc/libuECC_nrf52832_xxAA.a(uECC.c.obj)
 .text.update_V
                0x00000000       0x24 external/micro-ecc/libuECC_nrf52832_xxAA.a(uECC.c.obj)
 .text.bits2int
                0x00000000       0x88 external/micro-ecc/libuECC_nrf52832_xxAA.a(uECC.c.obj)
 .text.uECC_sign_with_k
                0x00000000      0x17c external/micro-ecc/libuECC_nrf52832_xxAA.a(uECC.c.obj)
 .text.uECC_set_rng
                0x00000000        0xc external/micro-ecc/libuECC_nrf52832_xxAA.a(uECC.c.obj)
 .text.uECC_get_rng
                0x00000000        0xc external/micro-ecc/libuECC_nrf52832_xxAA.a(uECC.c.obj)
 .text.uECC_curve_private_key_size
                0x00000000        0xe external/micro-ecc/libuECC_nrf52832_xxAA.a(uECC.c.obj)
 .text.uECC_curve_public_key_size
                0x00000000        0x8 external/micro-ecc/libuECC_nrf52832_xxAA.a(uECC.c.obj)
 .text.uECC_compute_public_key
                0x00000000       0x7e external/micro-ecc/libuECC_nrf52832_xxAA.a(uECC.c.obj)
 .text.uECC_sign
                0x00000000       0x56 external/micro-ecc/libuECC_nrf52832_xxAA.a(uECC.c.obj)
 .text.uECC_sign_deterministic
                0x00000000      0x192 external/micro-ecc/libuECC_nrf52832_xxAA.a(uECC.c.obj)
 .text.uECC_verify
                0x00000000      0x2f0 external/micro-ecc/libuECC_nrf52832_xxAA.a(uECC.c.obj)
 .data          0x00000000        0x0 c:/arm_gcc/bin/../lib/gcc/arm-none-eabi/6.3.1/thumb/v7e-m/fpv4-sp/hard\libgcc.a(_aeabi_uldivmod.o)
 .bss           0x00000000        0x0 c:/arm_gcc/bin/../lib/gcc/arm-none-eabi/6.3.1/thumb/v7e-m/fpv4-sp/hard\libgcc.a(_aeabi_uldivmod.o)
 .data          0x00000000        0x0 c:/arm_gcc/bin/../lib/gcc/arm-none-eabi/6.3.1/thumb/v7e-m/fpv4-sp/hard\libgcc.a(_udivmoddi4.o)
 .bss           0x00000000        0x0 c:/arm_gcc/bin/../lib/gcc/arm-none-eabi/6.3.1/thumb/v7e-m/fpv4-sp/hard\libgcc.a(_udivmoddi4.o)
 .ARM.extab     0x00000000        0x0 c:/arm_gcc/bin/../lib/gcc/arm-none-eabi/6.3.1/thumb/v7e-m/fpv4-sp/hard\libgcc.a(_udivmoddi4.o)
 .data          0x00000000        0x0 c:/arm_gcc/bin/../lib/gcc/arm-none-eabi/6.3.1/thumb/v7e-m/fpv4-sp/hard\libgcc.a(_dvmd_tls.o)
 .bss           0x00000000        0x0 c:/arm_gcc/bin/../lib/gcc/arm-none-eabi/6.3.1/thumb/v7e-m/fpv4-sp/hard\libgcc.a(_dvmd_tls.o)
 .text          0x00000000        0x0 c:/arm_gcc/bin/../lib/gcc/arm-none-eabi/6.3.1/../../../../arm-none-eabi/lib/thumb/v7e-m/fpv4-sp/hard\libg_nano.a(lib_a-exit.o)
 .data          0x00000000        0x0 c:/arm_gcc/bin/../lib/gcc/arm-none-eabi/6.3.1/../../../../arm-none-eabi/lib/thumb/v7e-m/fpv4-sp/hard\libg_nano.a(lib_a-exit.o)
 .bss           0x00000000        0x0 c:/arm_gcc/bin/../lib/gcc/arm-none-eabi/6.3.1/../../../../arm-none-eabi/lib/thumb/v7e-m/fpv4-sp/hard\libg_nano.a(lib_a-exit.o)
 .text          0x00000000        0x0 c:/arm_gcc/bin/../lib/gcc/arm-none-eabi/6.3.1/../../../../arm-none-eabi/lib/thumb/v7e-m/fpv4-sp/hard\libg_nano.a(lib_a-impure.o)
 .data          0x00000000        0x0 c:/arm_gcc/bin/../lib/gcc/arm-none-eabi/6.3.1/../../../../arm-none-eabi/lib/thumb/v7e-m/fpv4-sp/hard\libg_nano.a(lib_a-impure.o)
 .bss           0x00000000        0x0 c:/arm_gcc/bin/../lib/gcc/arm-none-eabi/6.3.1/../../../../arm-none-eabi/lib/thumb/v7e-m/fpv4-sp/hard\libg_nano.a(lib_a-impure.o)
 .text          0x00000000        0x0 c:/arm_gcc/bin/../lib/gcc/arm-none-eabi/6.3.1/../../../../arm-none-eabi/lib/thumb/v7e-m/fpv4-sp/hard\libg_nano.a(lib_a-init.o)
 .data          0x00000000        0x0 c:/arm_gcc/bin/../lib/gcc/arm-none-eabi/6.3.1/../../../../arm-none-eabi/lib/thumb/v7e-m/fpv4-sp/hard\libg_nano.a(lib_a-init.o)
 .bss           0x00000000        0x0 c:/arm_gcc/bin/../lib/gcc/arm-none-eabi/6.3.1/../../../../arm-none-eabi/lib/thumb/v7e-m/fpv4-sp/hard\libg_nano.a(lib_a-init.o)
 .text          0x00000000        0x0 c:/arm_gcc/bin/../lib/gcc/arm-none-eabi/6.3.1/../../../../arm-none-eabi/lib/thumb/v7e-m/fpv4-sp/hard\libg_nano.a(lib_a-malloc.o)
 .data          0x00000000        0x0 c:/arm_gcc/bin/../lib/gcc/arm-none-eabi/6.3.1/../../../../arm-none-eabi/lib/thumb/v7e-m/fpv4-sp/hard\libg_nano.a(lib_a-malloc.o)
 .bss           0x00000000        0x0 c:/arm_gcc/bin/../lib/gcc/arm-none-eabi/6.3.1/../../../../arm-none-eabi/lib/thumb/v7e-m/fpv4-sp/hard\libg_nano.a(lib_a-malloc.o)
 .text          0x00000000        0x0 c:/arm_gcc/bin/../lib/gcc/arm-none-eabi/6.3.1/../../../../arm-none-eabi/lib/thumb/v7e-m/fpv4-sp/hard\libg_nano.a(lib_a-memcmp.o)
 .data          0x00000000        0x0 c:/arm_gcc/bin/../lib/gcc/arm-none-eabi/6.3.1/../../../../arm-none-eabi/lib/thumb/v7e-m/fpv4-sp/hard\libg_nano.a(lib_a-memcmp.o)
 .bss           0x00000000        0x0 c:/arm_gcc/bin/../lib/gcc/arm-none-eabi/6.3.1/../../../../arm-none-eabi/lib/thumb/v7e-m/fpv4-sp/hard\libg_nano.a(lib_a-memcmp.o)
 .text          0x00000000        0x0 c:/arm_gcc/bin/../lib/gcc/arm-none-eabi/6.3.1/../../../../arm-none-eabi/lib/thumb/v7e-m/fpv4-sp/hard\libg_nano.a(lib_a-memcpy-stub.o)
 .data          0x00000000        0x0 c:/arm_gcc/bin/../lib/gcc/arm-none-eabi/6.3.1/../../../../arm-none-eabi/lib/thumb/v7e-m/fpv4-sp/hard\libg_nano.a(lib_a-memcpy-stub.o)
 .bss           0x00000000        0x0 c:/arm_gcc/bin/../lib/gcc/arm-none-eabi/6.3.1/../../../../arm-none-eabi/lib/thumb/v7e-m/fpv4-sp/hard\libg_nano.a(lib_a-memcpy-stub.o)
 .text          0x00000000        0x0 c:/arm_gcc/bin/../lib/gcc/arm-none-eabi/6.3.1/../../../../arm-none-eabi/lib/thumb/v7e-m/fpv4-sp/hard\libg_nano.a(lib_a-memset.o)
 .data          0x00000000        0x0 c:/arm_gcc/bin/../lib/gcc/arm-none-eabi/6.3.1/../../../../arm-none-eabi/lib/thumb/v7e-m/fpv4-sp/hard\libg_nano.a(lib_a-memset.o)
 .bss           0x00000000        0x0 c:/arm_gcc/bin/../lib/gcc/arm-none-eabi/6.3.1/../../../../arm-none-eabi/lib/thumb/v7e-m/fpv4-sp/hard\libg_nano.a(lib_a-memset.o)
 .text          0x00000000        0x0 c:/arm_gcc/bin/../lib/gcc/arm-none-eabi/6.3.1/../../../../arm-none-eabi/lib/thumb/v7e-m/fpv4-sp/hard\libg_nano.a(lib_a-nano-freer.o)
 .data          0x00000000        0x0 c:/arm_gcc/bin/../lib/gcc/arm-none-eabi/6.3.1/../../../../arm-none-eabi/lib/thumb/v7e-m/fpv4-sp/hard\libg_nano.a(lib_a-nano-freer.o)
 .bss           0x00000000        0x0 c:/arm_gcc/bin/../lib/gcc/arm-none-eabi/6.3.1/../../../../arm-none-eabi/lib/thumb/v7e-m/fpv4-sp/hard\libg_nano.a(lib_a-nano-freer.o)
 .text          0x00000000        0x0 c:/arm_gcc/bin/../lib/gcc/arm-none-eabi/6.3.1/../../../../arm-none-eabi/lib/thumb/v7e-m/fpv4-sp/hard\libg_nano.a(lib_a-nano-mallocr.o)
 .data          0x00000000        0x0 c:/arm_gcc/bin/../lib/gcc/arm-none-eabi/6.3.1/../../../../arm-none-eabi/lib/thumb/v7e-m/fpv4-sp/hard\libg_nano.a(lib_a-nano-mallocr.o)
 .bss           0x00000000        0x0 c:/arm_gcc/bin/../lib/gcc/arm-none-eabi/6.3.1/../../../../arm-none-eabi/lib/thumb/v7e-m/fpv4-sp/hard\libg_nano.a(lib_a-nano-mallocr.o)
 .text          0x00000000        0x0 c:/arm_gcc/bin/../lib/gcc/arm-none-eabi/6.3.1/../../../../arm-none-eabi/lib/thumb/v7e-m/fpv4-sp/hard\libg_nano.a(lib_a-sbrkr.o)
 .data          0x00000000        0x0 c:/arm_gcc/bin/../lib/gcc/arm-none-eabi/6.3.1/../../../../arm-none-eabi/lib/thumb/v7e-m/fpv4-sp/hard\libg_nano.a(lib_a-sbrkr.o)
 .bss           0x00000000        0x0 c:/arm_gcc/bin/../lib/gcc/arm-none-eabi/6.3.1/../../../../arm-none-eabi/lib/thumb/v7e-m/fpv4-sp/hard\libg_nano.a(lib_a-sbrkr.o)
 .text          0x00000000        0x0 c:/arm_gcc/bin/../lib/gcc/arm-none-eabi/6.3.1/../../../../arm-none-eabi/lib/thumb/v7e-m/fpv4-sp/hard\libg_nano.a(lib_a-strcpy.o)
 .data          0x00000000        0x0 c:/arm_gcc/bin/../lib/gcc/arm-none-eabi/6.3.1/../../../../arm-none-eabi/lib/thumb/v7e-m/fpv4-sp/hard\libg_nano.a(lib_a-strcpy.o)
 .bss           0x00000000        0x0 c:/arm_gcc/bin/../lib/gcc/arm-none-eabi/6.3.1/../../../../arm-none-eabi/lib/thumb/v7e-m/fpv4-sp/hard\libg_nano.a(lib_a-strcpy.o)
 .data          0x00000000        0x0 c:/arm_gcc/bin/../lib/gcc/arm-none-eabi/6.3.1/../../../../arm-none-eabi/lib/thumb/v7e-m/fpv4-sp/hard\libg_nano.a(lib_a-strlen.o)
 .bss           0x00000000        0x0 c:/arm_gcc/bin/../lib/gcc/arm-none-eabi/6.3.1/../../../../arm-none-eabi/lib/thumb/v7e-m/fpv4-sp/hard\libg_nano.a(lib_a-strlen.o)
 .text          0x00000000        0x0 c:/arm_gcc/bin/../lib/gcc/arm-none-eabi/6.3.1/../../../../arm-none-eabi/lib/thumb/v7e-m/fpv4-sp/hard\libg_nano.a(lib_a-strrchr.o)
 .data          0x00000000        0x0 c:/arm_gcc/bin/../lib/gcc/arm-none-eabi/6.3.1/../../../../arm-none-eabi/lib/thumb/v7e-m/fpv4-sp/hard\libg_nano.a(lib_a-strrchr.o)
 .bss           0x00000000        0x0 c:/arm_gcc/bin/../lib/gcc/arm-none-eabi/6.3.1/../../../../arm-none-eabi/lib/thumb/v7e-m/fpv4-sp/hard\libg_nano.a(lib_a-strrchr.o)
 .text          0x00000000        0x0 c:/arm_gcc/bin/../lib/gcc/arm-none-eabi/6.3.1/../../../../arm-none-eabi/lib/thumb/v7e-m/fpv4-sp/hard\libg_nano.a(lib_a-mlock.o)
 .data          0x00000000        0x0 c:/arm_gcc/bin/../lib/gcc/arm-none-eabi/6.3.1/../../../../arm-none-eabi/lib/thumb/v7e-m/fpv4-sp/hard\libg_nano.a(lib_a-mlock.o)
 .bss           0x00000000        0x0 c:/arm_gcc/bin/../lib/gcc/arm-none-eabi/6.3.1/../../../../arm-none-eabi/lib/thumb/v7e-m/fpv4-sp/hard\libg_nano.a(lib_a-mlock.o)
 .text          0x00000000        0x0 c:/arm_gcc/bin/../lib/gcc/arm-none-eabi/6.3.1/../../../../arm-none-eabi/lib/thumb/v7e-m/fpv4-sp/hard\libg_nano.a(lib_a-reent.o)
 .data          0x00000000        0x0 c:/arm_gcc/bin/../lib/gcc/arm-none-eabi/6.3.1/../../../../arm-none-eabi/lib/thumb/v7e-m/fpv4-sp/hard\libg_nano.a(lib_a-reent.o)
 .bss           0x00000000        0x0 c:/arm_gcc/bin/../lib/gcc/arm-none-eabi/6.3.1/../../../../arm-none-eabi/lib/thumb/v7e-m/fpv4-sp/hard\libg_nano.a(lib_a-reent.o)
 .text.cleanup_glue
                0x00000000       0x1a c:/arm_gcc/bin/../lib/gcc/arm-none-eabi/6.3.1/../../../../arm-none-eabi/lib/thumb/v7e-m/fpv4-sp/hard\libg_nano.a(lib_a-reent.o)
 .text._reclaim_reent
                0x00000000       0xb8 c:/arm_gcc/bin/../lib/gcc/arm-none-eabi/6.3.1/../../../../arm-none-eabi/lib/thumb/v7e-m/fpv4-sp/hard\libg_nano.a(lib_a-reent.o)
 .text          0x00000000        0x0 c:/arm_gcc/bin/../lib/gcc/arm-none-eabi/6.3.1/../../../../arm-none-eabi/lib/thumb/v7e-m/fpv4-sp/hard\libg_nano.a(lib_a-strchr.o)
 .data          0x00000000        0x0 c:/arm_gcc/bin/../lib/gcc/arm-none-eabi/6.3.1/../../../../arm-none-eabi/lib/thumb/v7e-m/fpv4-sp/hard\libg_nano.a(lib_a-strchr.o)
 .bss           0x00000000        0x0 c:/arm_gcc/bin/../lib/gcc/arm-none-eabi/6.3.1/../../../../arm-none-eabi/lib/thumb/v7e-m/fpv4-sp/hard\libg_nano.a(lib_a-strchr.o)
 .text          0x00000000        0x0 c:/arm_gcc/bin/../lib/gcc/arm-none-eabi/6.3.1/thumb/v7e-m/fpv4-sp/hard/crtend.o
 .data          0x00000000        0x0 c:/arm_gcc/bin/../lib/gcc/arm-none-eabi/6.3.1/thumb/v7e-m/fpv4-sp/hard/crtend.o
 .bss           0x00000000        0x0 c:/arm_gcc/bin/../lib/gcc/arm-none-eabi/6.3.1/thumb/v7e-m/fpv4-sp/hard/crtend.o
 .text          0x00000000        0x0 c:/arm_gcc/bin/../lib/gcc/arm-none-eabi/6.3.1/thumb/v7e-m/fpv4-sp/hard/crtn.o
 .data          0x00000000        0x0 c:/arm_gcc/bin/../lib/gcc/arm-none-eabi/6.3.1/thumb/v7e-m/fpv4-sp/hard/crtn.o
 .bss           0x00000000        0x0 c:/arm_gcc/bin/../lib/gcc/arm-none-eabi/6.3.1/thumb/v7e-m/fpv4-sp/hard/crtn.o
 .text          0x00000000        0x0 c:/arm_gcc/bin/../lib/gcc/arm-none-eabi/6.3.1/../../../../arm-none-eabi/lib/thumb/v7e-m/fpv4-sp/hard\libnosys.a(sbrk.o)
 .data          0x00000000        0x0 c:/arm_gcc/bin/../lib/gcc/arm-none-eabi/6.3.1/../../../../arm-none-eabi/lib/thumb/v7e-m/fpv4-sp/hard\libnosys.a(sbrk.o)
 .bss           0x00000000        0x0 c:/arm_gcc/bin/../lib/gcc/arm-none-eabi/6.3.1/../../../../arm-none-eabi/lib/thumb/v7e-m/fpv4-sp/hard\libnosys.a(sbrk.o)
 .text          0x00000000        0x0 c:/arm_gcc/bin/../lib/gcc/arm-none-eabi/6.3.1/../../../../arm-none-eabi/lib/thumb/v7e-m/fpv4-sp/hard\libnosys.a(_exit.o)
 .data          0x00000000        0x0 c:/arm_gcc/bin/../lib/gcc/arm-none-eabi/6.3.1/../../../../arm-none-eabi/lib/thumb/v7e-m/fpv4-sp/hard\libnosys.a(_exit.o)
 .bss           0x00000000        0x0 c:/arm_gcc/bin/../lib/gcc/arm-none-eabi/6.3.1/../../../../arm-none-eabi/lib/thumb/v7e-m/fpv4-sp/hard\libnosys.a(_exit.o)

Memory Configuration

Name             Origin             Length             Attributes
FLASH            0x00026000         0x00051000         xr
RAM              0x20002da0         0x0000cf60         xrw
*default*        0x00000000         0xffffffff

Linker script and memory map


.text           0x00026000    0x148f4
 *(.isr_vector)
 .isr_vector    0x00026000      0x200 examples/light_switch/server/CMakeFiles/light_switch_server_nrf52832_xxAA_s132_6.0.0.dir/C_/sdks/nRF5_SDK_15.0.0_a53641a/modules/nrfx/mdk/gcc_startup_nrf52.S.obj
                0x00026000                __isr_vector
 *(.text*)
 .text          0x00026200       0x6c c:/arm_gcc/bin/../lib/gcc/arm-none-eabi/6.3.1/thumb/v7e-m/fpv4-sp/hard/crtbegin.o
 .text          0x0002626c       0x74 c:/arm_gcc/bin/../lib/gcc/arm-none-eabi/6.3.1/../../../../arm-none-eabi/lib/thumb/v7e-m/fpv4-sp/hard/crt0.o
                0x0002626c                _start
                0x0002626c                _mainCRTStartup
 .text.sd_app_evt_wait
                0x000262e0        0x4 examples/light_switch/server/CMakeFiles/light_switch_server_nrf52832_xxAA_s132_6.0.0.dir/src/main.c.obj
 .text.provisioning_complete_cb
                0x000262e4       0xd0 examples/light_switch/server/CMakeFiles/light_switch_server_nrf52832_xxAA_s132_6.0.0.dir/src/main.c.obj
 .text.app_onoff_server_get_cb
                0x000263b4        0xe examples/light_switch/server/CMakeFiles/light_switch_server_nrf52832_xxAA_s132_6.0.0.dir/src/main.c.obj
 *fill*         0x000263c2        0x2 
 .text.app_onoff_server_set_cb
                0x000263c4       0x70 examples/light_switch/server/CMakeFiles/light_switch_server_nrf52832_xxAA_s132_6.0.0.dir/src/main.c.obj
 .text.node_reset
                0x00026434       0x74 examples/light_switch/server/CMakeFiles/light_switch_server_nrf52832_xxAA_s132_6.0.0.dir/src/main.c.obj
 .text.button_event_handler
                0x000264a8       0xf0 examples/light_switch/server/CMakeFiles/light_switch_server_nrf52832_xxAA_s132_6.0.0.dir/src/main.c.obj
 .text.app_rtt_input_handler
                0x00026598        0xc examples/light_switch/server/CMakeFiles/light_switch_server_nrf52832_xxAA_s132_6.0.0.dir/src/main.c.obj
 .text.config_server_evt_cb
                0x000265a4        0xc examples/light_switch/server/CMakeFiles/light_switch_server_nrf52832_xxAA_s132_6.0.0.dir/src/main.c.obj
 .text.models_init_cb
                0x000265b0       0x80 examples/light_switch/server/CMakeFiles/light_switch_server_nrf52832_xxAA_s132_6.0.0.dir/src/main.c.obj
 .text.startup.main
                0x00026630      0x27c examples/light_switch/server/CMakeFiles/light_switch_server_nrf52832_xxAA_s132_6.0.0.dir/src/main.c.obj
                0x00026630                main
 .text.generic_onoff_state_get_cb
                0x000268ac       0xa8 examples/light_switch/server/CMakeFiles/light_switch_server_nrf52832_xxAA_s132_6.0.0.dir/__/__/common/src/app_onoff.c.obj
 .text.onoff_state_process_timing
                0x00026954       0xec examples/light_switch/server/CMakeFiles/light_switch_server_nrf52832_xxAA_s132_6.0.0.dir/__/__/common/src/app_onoff.c.obj
 .text.onoff_state_value_update
                0x00026a40       0xb4 examples/light_switch/server/CMakeFiles/light_switch_server_nrf52832_xxAA_s132_6.0.0.dir/__/__/common/src/app_onoff.c.obj
 .text.generic_onoff_state_set_cb
                0x00026af4       0xa8 examples/light_switch/server/CMakeFiles/light_switch_server_nrf52832_xxAA_s132_6.0.0.dir/__/__/common/src/app_onoff.c.obj
 .text.onoff_state_timer_cb
                0x00026b9c       0x4c examples/light_switch/server/CMakeFiles/light_switch_server_nrf52832_xxAA_s132_6.0.0.dir/__/__/common/src/app_onoff.c.obj
 .text.app_onoff_status_publish
                0x00026be8       0x42 examples/light_switch/server/CMakeFiles/light_switch_server_nrf52832_xxAA_s132_6.0.0.dir/__/__/common/src/app_onoff.c.obj
                0x00026be8                app_onoff_status_publish
 *fill*         0x00026c2a        0x2 
 .text.app_onoff_init
                0x00026c2c       0x38 examples/light_switch/server/CMakeFiles/light_switch_server_nrf52832_xxAA_s132_6.0.0.dir/__/__/common/src/app_onoff.c.obj
                0x00026c2c                app_onoff_init
 .text.mesh_evt_handler
                0x00026c64        0xe examples/light_switch/server/CMakeFiles/light_switch_server_nrf52832_xxAA_s132_6.0.0.dir/__/__/__/mesh/stack/src/mesh_stack.c.obj
 .text.mesh_stack_start
                0x00026c72        0x4 examples/light_switch/server/CMakeFiles/light_switch_server_nrf52832_xxAA_s132_6.0.0.dir/__/__/__/mesh/stack/src/mesh_stack.c.obj
                0x00026c72                mesh_stack_start
 .text.mesh_stack_provisioning_data_store
                0x00026c76       0x6c examples/light_switch/server/CMakeFiles/light_switch_server_nrf52832_xxAA_s132_6.0.0.dir/__/__/__/mesh/stack/src/mesh_stack.c.obj
                0x00026c76                mesh_stack_provisioning_data_store
 .text.mesh_stack_config_clear
                0x00026ce2       0x12 examples/light_switch/server/CMakeFiles/light_switch_server_nrf52832_xxAA_s132_6.0.0.dir/__/__/__/mesh/stack/src/mesh_stack.c.obj
                0x00026ce2                mesh_stack_config_clear
 .text.mesh_stack_is_device_provisioned
                0x00026cf4       0x18 examples/light_switch/server/CMakeFiles/light_switch_server_nrf52832_xxAA_s132_6.0.0.dir/__/__/__/mesh/stack/src/mesh_stack.c.obj
                0x00026cf4                mesh_stack_is_device_provisioned
 .text.mesh_stack_init
                0x00026d0c       0x64 examples/light_switch/server/CMakeFiles/light_switch_server_nrf52832_xxAA_s132_6.0.0.dir/__/__/__/mesh/stack/src/mesh_stack.c.obj
                0x00026d0c                mesh_stack_init
 .text.mesh_stack_device_reset
                0x00026d70       0x20 examples/light_switch/server/CMakeFiles/light_switch_server_nrf52832_xxAA_s132_6.0.0.dir/__/__/__/mesh/stack/src/mesh_stack.c.obj
                0x00026d70                mesh_stack_device_reset
 .text.sd_evt_get
                0x00026d90        0x4 examples/light_switch/server/CMakeFiles/light_switch_server_nrf52832_xxAA_s132_6.0.0.dir/__/__/common/src/mesh_softdevice_init.c.obj
 .text.sd_softdevice_enable
                0x00026d94        0x4 examples/light_switch/server/CMakeFiles/light_switch_server_nrf52832_xxAA_s132_6.0.0.dir/__/__/common/src/mesh_softdevice_init.c.obj
 .text.sd_ble_enable
                0x00026d98        0x4 examples/light_switch/server/CMakeFiles/light_switch_server_nrf52832_xxAA_s132_6.0.0.dir/__/__/common/src/mesh_softdevice_init.c.obj
 .text.sd_ble_cfg_set
                0x00026d9c        0x4 examples/light_switch/server/CMakeFiles/light_switch_server_nrf52832_xxAA_s132_6.0.0.dir/__/__/common/src/mesh_softdevice_init.c.obj
 .text.SWI2_EGU2_IRQHandler
                0x00026da0       0x18 examples/light_switch/server/CMakeFiles/light_switch_server_nrf52832_xxAA_s132_6.0.0.dir/__/__/common/src/mesh_softdevice_init.c.obj
                0x00026da0                SWI2_EGU2_IRQHandler
 .text.mesh_softdevice_init
                0x00026db8      0x1ac examples/light_switch/server/CMakeFiles/light_switch_server_nrf52832_xxAA_s132_6.0.0.dir/__/__/common/src/mesh_softdevice_init.c.obj
                0x00026db8                mesh_softdevice_init
 .text.provisionee_start
                0x00026f64       0x18 examples/light_switch/server/CMakeFiles/light_switch_server_nrf52832_xxAA_s132_6.0.0.dir/__/__/common/src/mesh_provisionee.c.obj
 .text.prov_evt_handler
                0x00026f7c       0x64 examples/light_switch/server/CMakeFiles/light_switch_server_nrf52832_xxAA_s132_6.0.0.dir/__/__/common/src/mesh_provisionee.c.obj
 .text.mesh_provisionee_prov_start
                0x00026fe0       0x78 examples/light_switch/server/CMakeFiles/light_switch_server_nrf52832_xxAA_s132_6.0.0.dir/__/__/common/src/mesh_provisionee.c.obj
                0x00026fe0                mesh_provisionee_prov_start
 .text.timeout_handler
                0x00027058       0x1c examples/light_switch/server/CMakeFiles/light_switch_server_nrf52832_xxAA_s132_6.0.0.dir/__/__/common/src/rtt_input.c.obj
                0x00027058                timeout_handler
 .text.rtt_input_enable
                0x00027074       0x6c examples/light_switch/server/CMakeFiles/light_switch_server_nrf52832_xxAA_s132_6.0.0.dir/__/__/common/src/rtt_input.c.obj
                0x00027074                rtt_input_enable
 .text.led_timeout_handler
                0x000270e0       0x40 examples/light_switch/server/CMakeFiles/light_switch_server_nrf52832_xxAA_s132_6.0.0.dir/__/__/common/src/simple_hal.c.obj
 .text.hal_led_pin_get
                0x00027120       0x18 examples/light_switch/server/CMakeFiles/light_switch_server_nrf52832_xxAA_s132_6.0.0.dir/__/__/common/src/simple_hal.c.obj
                0x00027120                hal_led_pin_get
 .text.hal_led_pin_set
                0x00027138       0x16 examples/light_switch/server/CMakeFiles/light_switch_server_nrf52832_xxAA_s132_6.0.0.dir/__/__/common/src/simple_hal.c.obj
                0x00027138                hal_led_pin_set
 .text.hal_led_mask_set
                0x0002714e       0x12 examples/light_switch/server/CMakeFiles/light_switch_server_nrf52832_xxAA_s132_6.0.0.dir/__/__/common/src/simple_hal.c.obj
                0x0002714e                hal_led_mask_set
 .text.hal_led_blink_ms
                0x00027160       0x5c examples/light_switch/server/CMakeFiles/light_switch_server_nrf52832_xxAA_s132_6.0.0.dir/__/__/common/src/simple_hal.c.obj
                0x00027160                hal_led_blink_ms
 .text.hal_leds_init
                0x000271bc       0x58 examples/light_switch/server/CMakeFiles/light_switch_server_nrf52832_xxAA_s132_6.0.0.dir/__/__/common/src/simple_hal.c.obj
                0x000271bc                hal_leds_init
 .text.hal_buttons_init
                0x00027214       0x50 examples/light_switch/server/CMakeFiles/light_switch_server_nrf52832_xxAA_s132_6.0.0.dir/__/__/common/src/simple_hal.c.obj
                0x00027214                hal_buttons_init
 .text.GPIOTE_IRQHandler
                0x00027264       0x60 examples/light_switch/server/CMakeFiles/light_switch_server_nrf52832_xxAA_s132_6.0.0.dir/__/__/common/src/simple_hal.c.obj
                0x00027264                GPIOTE_IRQHandler
 .text.mesh_app_uuid_gen
                0x000272c4       0x30 examples/light_switch/server/CMakeFiles/light_switch_server_nrf52832_xxAA_s132_6.0.0.dir/__/__/common/src/mesh_app_utils.c.obj
                0x000272c4                mesh_app_uuid_gen
 .text._weak_handler
                0x000272f4        0x4 examples/light_switch/server/CMakeFiles/light_switch_server_nrf52832_xxAA_s132_6.0.0.dir/__/__/nrf_mesh_weak.c.obj
                0x000272f4                nrf_mesh_dfu_init
                0x000272f4                nrf_mesh_dfu_jump_to_bootloader
                0x000272f4                nrf_mesh_dfu_rx
                0x000272f4                prov_provisioner_provision
                0x000272f4                nrf_mesh_dfu_bank_info_get
                0x000272f4                prov_provisioner_oob_pubkey
                0x000272f4                nrf_mesh_dfu_request
                0x000272f4                nrf_mesh_dfu_bank_flash
                0x000272f4                nrf_mesh_dfu_enable
                0x000272f4                _weak_handler
                0x000272f4                nrf_mesh_dfu_relay
                0x000272f4                nrf_mesh_dfu_abort
                0x000272f4                mesh_flash_op_execute
                0x000272f4                prov_provisionee_init
                0x000272f4                nrf_mesh_dfu_state_get
                0x000272f4                prov_provisioner_shared_secret
                0x000272f4                prov_provisioner_auth_data
                0x000272f4                prov_provisioner_oob_use
 .text.app_error_fault_handler
                0x000272f8      0x204 examples/light_switch/server/CMakeFiles/light_switch_server_nrf52832_xxAA_s132_6.0.0.dir/__/__/common/src/app_error_weak.c.obj
                0x000272f8                app_error_fault_handler
 .text.mesh_assertion_handler
                0x000274fc       0x24 examples/light_switch/server/CMakeFiles/light_switch_server_nrf52832_xxAA_s132_6.0.0.dir/__/__/common/src/assertion_handler_weak.c.obj
                0x000274fc                mesh_assertion_handler
 .text.nrf_mesh_configure_device_uuid_set
                0x00027520       0x10 examples/light_switch/server/CMakeFiles/light_switch_server_nrf52832_xxAA_s132_6.0.0.dir/__/__/__/mesh/core/src/nrf_mesh_configure.c.obj
                0x00027520                nrf_mesh_configure_device_uuid_set
 .text.nrf_mesh_configure_device_uuid_reset
                0x00027530       0x28 examples/light_switch/server/CMakeFiles/light_switch_server_nrf52832_xxAA_s132_6.0.0.dir/__/__/__/mesh/core/src/nrf_mesh_configure.c.obj
                0x00027530                nrf_mesh_configure_device_uuid_reset
 .text.nrf_mesh_configure_device_uuid_get
                0x00027558        0x8 examples/light_switch/server/CMakeFiles/light_switch_server_nrf52832_xxAA_s132_6.0.0.dir/__/__/__/mesh/core/src/nrf_mesh_configure.c.obj
                0x00027558                nrf_mesh_configure_device_uuid_get
 .text.msg_cache_init
                0x00027560       0x24 examples/light_switch/server/CMakeFiles/light_switch_server_nrf52832_xxAA_s132_6.0.0.dir/__/__/__/mesh/core/src/msg_cache.c.obj
                0x00027560                msg_cache_init
 .text.msg_cache_entry_exists
                0x00027584       0x3c examples/light_switch/server/CMakeFiles/light_switch_server_nrf52832_xxAA_s132_6.0.0.dir/__/__/__/mesh/core/src/msg_cache.c.obj
                0x00027584                msg_cache_entry_exists
 .text.msg_cache_entry_add
                0x000275c0       0x2c examples/light_switch/server/CMakeFiles/light_switch_server_nrf52832_xxAA_s132_6.0.0.dir/__/__/__/mesh/core/src/msg_cache.c.obj
                0x000275c0                msg_cache_entry_add
 .text.seqauth_sequence_number_get
                0x000275ec       0x12 examples/light_switch/server/CMakeFiles/light_switch_server_nrf52832_xxAA_s132_6.0.0.dir/__/__/__/mesh/core/src/transport.c.obj
 *fill*         0x000275fe        0x2 
 .text.control_packet_callback_get
                0x00027600       0x44 examples/light_switch/server/CMakeFiles/light_switch_server_nrf52832_xxAA_s132_6.0.0.dir/__/__/__/mesh/core/src/transport.c.obj
 .text.tx_complete
                0x00027644       0x2c examples/light_switch/server/CMakeFiles/light_switch_server_nrf52832_xxAA_s132_6.0.0.dir/__/__/__/mesh/core/src/transport.c.obj
 .text.block_ack_full
                0x00027670       0x1a examples/light_switch/server/CMakeFiles/light_switch_server_nrf52832_xxAA_s132_6.0.0.dir/__/__/__/mesh/core/src/transport.c.obj
 *fill*         0x0002768a        0x2 
 .text.sar_rx_session_mark_as_handled
                0x0002768c       0x48 examples/light_switch/server/CMakeFiles/light_switch_server_nrf52832_xxAA_s132_6.0.0.dir/__/__/__/mesh/core/src/transport.c.obj
 .text.upper_trs_packet_encrypt
                0x000276d4       0x90 examples/light_switch/server/CMakeFiles/light_switch_server_nrf52832_xxAA_s132_6.0.0.dir/__/__/__/mesh/core/src/transport.c.obj
 .text.sar_ctx_free
                0x00027764       0x40 examples/light_switch/server/CMakeFiles/light_switch_server_nrf52832_xxAA_s132_6.0.0.dir/__/__/__/mesh/core/src/transport.c.obj
 .text.sar_ctx_tx_complete
                0x000277a4       0x2e examples/light_switch/server/CMakeFiles/light_switch_server_nrf52832_xxAA_s132_6.0.0.dir/__/__/__/mesh/core/src/transport.c.obj
 *fill*         0x000277d2        0x2 
 .text.sar_ctx_alloc
                0x000277d4       0xa8 examples/light_switch/server/CMakeFiles/light_switch_server_nrf52832_xxAA_s132_6.0.0.dir/__/__/__/mesh/core/src/transport.c.obj
 .text.test_transport_decrypt
                0x0002787c       0x88 examples/light_switch/server/CMakeFiles/light_switch_server_nrf52832_xxAA_s132_6.0.0.dir/__/__/__/mesh/core/src/transport.c.obj
 .text.upper_transport_access_packet_in
                0x00027904      0x19c examples/light_switch/server/CMakeFiles/light_switch_server_nrf52832_xxAA_s132_6.0.0.dir/__/__/__/mesh/core/src/transport.c.obj
 .text.trs_packet_header_build
                0x00027aa0       0xa6 examples/light_switch/server/CMakeFiles/light_switch_server_nrf52832_xxAA_s132_6.0.0.dir/__/__/__/mesh/core/src/transport.c.obj
 *fill*         0x00027b46        0x2 
 .text.tx_retry_timer_reset
                0x00027b48       0x44 examples/light_switch/server/CMakeFiles/light_switch_server_nrf52832_xxAA_s132_6.0.0.dir/__/__/__/mesh/core/src/transport.c.obj
 .text.sar_ctx_cancel
                0x00027b8c       0xa8 examples/light_switch/server/CMakeFiles/light_switch_server_nrf52832_xxAA_s132_6.0.0.dir/__/__/__/mesh/core/src/transport.c.obj
 .text.abort_timeout
                0x00027c34        0x8 examples/light_switch/server/CMakeFiles/light_switch_server_nrf52832_xxAA_s132_6.0.0.dir/__/__/__/mesh/core/src/transport.c.obj
 .text.trs_sar_packet_out
                0x00027c3c       0xda examples/light_switch/server/CMakeFiles/light_switch_server_nrf52832_xxAA_s132_6.0.0.dir/__/__/__/mesh/core/src/transport.c.obj
 .text.retry_timeout
                0x00027d16       0x46 examples/light_switch/server/CMakeFiles/light_switch_server_nrf52832_xxAA_s132_6.0.0.dir/__/__/__/mesh/core/src/transport.c.obj
 .text.upper_transport_packet_in
                0x00027d5c      0x150 examples/light_switch/server/CMakeFiles/light_switch_server_nrf52832_xxAA_s132_6.0.0.dir/__/__/__/mesh/core/src/transport.c.obj
 .text.upper_transport_tx
                0x00027eac      0x1e4 examples/light_switch/server/CMakeFiles/light_switch_server_nrf52832_xxAA_s132_6.0.0.dir/__/__/__/mesh/core/src/transport.c.obj
 .text.transport_sar_mem_funcs_reset
                0x00028090       0x28 examples/light_switch/server/CMakeFiles/light_switch_server_nrf52832_xxAA_s132_6.0.0.dir/__/__/__/mesh/core/src/transport.c.obj
                0x00028090                transport_sar_mem_funcs_reset
 .text.transport_init
                0x000280b8       0x8c examples/light_switch/server/CMakeFiles/light_switch_server_nrf52832_xxAA_s132_6.0.0.dir/__/__/__/mesh/core/src/transport.c.obj
                0x000280b8                transport_init
 .text.transport_tx
                0x00028144       0xb4 examples/light_switch/server/CMakeFiles/light_switch_server_nrf52832_xxAA_s132_6.0.0.dir/__/__/__/mesh/core/src/transport.c.obj
                0x00028144                transport_tx
 .text.transport_control_tx
                0x000281f8       0x8e examples/light_switch/server/CMakeFiles/light_switch_server_nrf52832_xxAA_s132_6.0.0.dir/__/__/__/mesh/core/src/transport.c.obj
                0x000281f8                transport_control_tx
 *fill*         0x00028286        0x2 
 .text.sar_ack_send
                0x00028288       0xa0 examples/light_switch/server/CMakeFiles/light_switch_server_nrf52832_xxAA_s132_6.0.0.dir/__/__/__/mesh/core/src/transport.c.obj
 .text.transport_sar_process
                0x00028328       0x74 examples/light_switch/server/CMakeFiles/light_switch_server_nrf52832_xxAA_s132_6.0.0.dir/__/__/__/mesh/core/src/transport.c.obj
 .text.transport_packet_in
                0x0002839c      0x434 examples/light_switch/server/CMakeFiles/light_switch_server_nrf52832_xxAA_s132_6.0.0.dir/__/__/__/mesh/core/src/transport.c.obj
                0x0002839c                transport_packet_in
 .text.ack_timeout
                0x000287d0       0x28 examples/light_switch/server/CMakeFiles/light_switch_server_nrf52832_xxAA_s132_6.0.0.dir/__/__/__/mesh/core/src/transport.c.obj
 .text.transport_control_packet_consumer_add
                0x000287f8       0x5c examples/light_switch/server/CMakeFiles/light_switch_server_nrf52832_xxAA_s132_6.0.0.dir/__/__/__/mesh/core/src/transport.c.obj
                0x000287f8                transport_control_packet_consumer_add
 .text.event_handle
                0x00028854       0x54 examples/light_switch/server/CMakeFiles/light_switch_server_nrf52832_xxAA_s132_6.0.0.dir/__/__/__/mesh/core/src/event.c.obj
                0x00028854                event_handle
 .text.event_handler_add
                0x000288a8       0x20 examples/light_switch/server/CMakeFiles/light_switch_server_nrf52832_xxAA_s132_6.0.0.dir/__/__/__/mesh/core/src/event.c.obj
                0x000288a8                event_handler_add
 .text.event_handler_remove
                0x000288c8       0x34 examples/light_switch/server/CMakeFiles/light_switch_server_nrf52832_xxAA_s132_6.0.0.dir/__/__/__/mesh/core/src/event.c.obj
                0x000288c8                event_handler_remove
 .text.m_index_increment
                0x000288fc       0x1e examples/light_switch/server/CMakeFiles/light_switch_server_nrf52832_xxAA_s132_6.0.0.dir/__/__/__/mesh/core/src/packet_buffer.c.obj
 .text.packet_buffer_init
                0x0002891a       0xac examples/light_switch/server/CMakeFiles/light_switch_server_nrf52832_xxAA_s132_6.0.0.dir/__/__/__/mesh/core/src/packet_buffer.c.obj
                0x0002891a                packet_buffer_init
 .text.packet_buffer_flush
                0x000289c6       0x60 examples/light_switch/server/CMakeFiles/light_switch_server_nrf52832_xxAA_s132_6.0.0.dir/__/__/__/mesh/core/src/packet_buffer.c.obj
                0x000289c6                packet_buffer_flush
 .text.packet_buffer_reserve
                0x00028a26       0x96 examples/light_switch/server/CMakeFiles/light_switch_server_nrf52832_xxAA_s132_6.0.0.dir/__/__/__/mesh/core/src/packet_buffer.c.obj
                0x00028a26                packet_buffer_reserve
 .text.packet_buffer_commit
                0x00028abc       0x58 examples/light_switch/server/CMakeFiles/light_switch_server_nrf52832_xxAA_s132_6.0.0.dir/__/__/__/mesh/core/src/packet_buffer.c.obj
                0x00028abc                packet_buffer_commit
 .text.packet_buffer_pop
                0x00028b14       0x50 examples/light_switch/server/CMakeFiles/light_switch_server_nrf52832_xxAA_s132_6.0.0.dir/__/__/__/mesh/core/src/packet_buffer.c.obj
                0x00028b14                packet_buffer_pop
 .text.packet_buffer_can_pop
                0x00028b64       0x38 examples/light_switch/server/CMakeFiles/light_switch_server_nrf52832_xxAA_s132_6.0.0.dir/__/__/__/mesh/core/src/packet_buffer.c.obj
                0x00028b64                packet_buffer_can_pop
 .text.packet_buffer_packets_ready_to_pop
                0x00028b9c       0x3c examples/light_switch/server/CMakeFiles/light_switch_server_nrf52832_xxAA_s132_6.0.0.dir/__/__/__/mesh/core/src/packet_buffer.c.obj
                0x00028b9c                packet_buffer_packets_ready_to_pop
 .text.packet_buffer_free
                0x00028bd8       0x6e examples/light_switch/server/CMakeFiles/light_switch_server_nrf52832_xxAA_s132_6.0.0.dir/__/__/__/mesh/core/src/packet_buffer.c.obj
                0x00028bd8                packet_buffer_free
 .text.get_last_page
                0x00028c46       0x14 examples/light_switch/server/CMakeFiles/light_switch_server_nrf52832_xxAA_s132_6.0.0.dir/__/__/__/mesh/core/src/flash_manager_defrag.c.obj
 *fill*         0x00028c5a        0x2 
 .text.defrag_on_end
                0x00028c5c       0x1c examples/light_switch/server/CMakeFiles/light_switch_server_nrf52832_xxAA_s132_6.0.0.dir/__/__/__/mesh/core/src/flash_manager_defrag.c.obj
 .text.execute_procedure_step
                0x00028c78       0x7c examples/light_switch/server/CMakeFiles/light_switch_server_nrf52832_xxAA_s132_6.0.0.dir/__/__/__/mesh/core/src/flash_manager_defrag.c.obj
 .text.get_next_entry
                0x00028cf4       0x34 examples/light_switch/server/CMakeFiles/light_switch_server_nrf52832_xxAA_s132_6.0.0.dir/__/__/__/mesh/core/src/flash_manager_defrag.c.obj
 .text.get_next_data_entry
                0x00028d28       0x26 examples/light_switch/server/CMakeFiles/light_switch_server_nrf52832_xxAA_s132_6.0.0.dir/__/__/__/mesh/core/src/flash_manager_defrag.c.obj
 *fill*         0x00028d4e        0x2 
 .text.on_flash_op_end
                0x00028d50       0x30 examples/light_switch/server/CMakeFiles/light_switch_server_nrf52832_xxAA_s132_6.0.0.dir/__/__/__/mesh/core/src/flash_manager_defrag.c.obj
 .text.check_for_invalid_entries
                0x00028d80       0x38 examples/light_switch/server/CMakeFiles/light_switch_server_nrf52832_xxAA_s132_6.0.0.dir/__/__/__/mesh/core/src/flash_manager_defrag.c.obj
 .text.erase_recovery_area
                0x00028db8       0x34 examples/light_switch/server/CMakeFiles/light_switch_server_nrf52832_xxAA_s132_6.0.0.dir/__/__/__/mesh/core/src/flash_manager_defrag.c.obj
 .text.flash.constprop.6
                0x00028dec       0x24 examples/light_switch/server/CMakeFiles/light_switch_server_nrf52832_xxAA_s132_6.0.0.dir/__/__/__/mesh/core/src/flash_manager_defrag.c.obj
 .text.seal_storage_page
                0x00028e10       0x50 examples/light_switch/server/CMakeFiles/light_switch_server_nrf52832_xxAA_s132_6.0.0.dir/__/__/__/mesh/core/src/flash_manager_defrag.c.obj
 .text.invalidate_duplicate_entries
                0x00028e60       0x9c examples/light_switch/server/CMakeFiles/light_switch_server_nrf52832_xxAA_s132_6.0.0.dir/__/__/__/mesh/core/src/flash_manager_defrag.c.obj
 .text.copy_metadata
                0x00028efc       0x3c examples/light_switch/server/CMakeFiles/light_switch_server_nrf52832_xxAA_s132_6.0.0.dir/__/__/__/mesh/core/src/flash_manager_defrag.c.obj
 .text.write_defrag_start_pointer
                0x00028f38       0x20 examples/light_switch/server/CMakeFiles/light_switch_server_nrf52832_xxAA_s132_6.0.0.dir/__/__/__/mesh/core/src/flash_manager_defrag.c.obj
 .text.write_back
                0x00028f58       0x28 examples/light_switch/server/CMakeFiles/light_switch_server_nrf52832_xxAA_s132_6.0.0.dir/__/__/__/mesh/core/src/flash_manager_defrag.c.obj
 .text.post_process
                0x00028f80       0x40 examples/light_switch/server/CMakeFiles/light_switch_server_nrf52832_xxAA_s132_6.0.0.dir/__/__/__/mesh/core/src/flash_manager_defrag.c.obj
 .text.backup_entries
                0x00028fc0       0xf8 examples/light_switch/server/CMakeFiles/light_switch_server_nrf52832_xxAA_s132_6.0.0.dir/__/__/__/mesh/core/src/flash_manager_defrag.c.obj
 .text.erase_source
                0x000290b8       0x34 examples/light_switch/server/CMakeFiles/light_switch_server_nrf52832_xxAA_s132_6.0.0.dir/__/__/__/mesh/core/src/flash_manager_defrag.c.obj
 .text.flash_manager_defrag_init
                0x000290ec       0x8c examples/light_switch/server/CMakeFiles/light_switch_server_nrf52832_xxAA_s132_6.0.0.dir/__/__/__/mesh/core/src/flash_manager_defrag.c.obj
                0x000290ec                flash_manager_defrag_init
 .text.flash_manager_defrag_is_running
                0x00029178       0x10 examples/light_switch/server/CMakeFiles/light_switch_server_nrf52832_xxAA_s132_6.0.0.dir/__/__/__/mesh/core/src/flash_manager_defrag.c.obj
                0x00029178                flash_manager_defrag_is_running
 .text.flash_manager_defrag
                0x00029188       0x44 examples/light_switch/server/CMakeFiles/light_switch_server_nrf52832_xxAA_s132_6.0.0.dir/__/__/__/mesh/core/src/flash_manager_defrag.c.obj
                0x00029188                flash_manager_defrag
 .text.flash_manager_defrag_recovery_page_get
                0x000291cc        0xc examples/light_switch/server/CMakeFiles/light_switch_server_nrf52832_xxAA_s132_6.0.0.dir/__/__/__/mesh/core/src/flash_manager_defrag.c.obj
                0x000291cc                flash_manager_defrag_recovery_page_get
 .text.fifo_init
                0x000291d8       0x34 examples/light_switch/server/CMakeFiles/light_switch_server_nrf52832_xxAA_s132_6.0.0.dir/__/__/__/mesh/core/src/fifo.c.obj
                0x000291d8                fifo_init
 .text.fifo_push
                0x0002920c       0x50 examples/light_switch/server/CMakeFiles/light_switch_server_nrf52832_xxAA_s132_6.0.0.dir/__/__/__/mesh/core/src/fifo.c.obj
                0x0002920c                fifo_push
 .text.fifo_pop
                0x0002925c       0x52 examples/light_switch/server/CMakeFiles/light_switch_server_nrf52832_xxAA_s132_6.0.0.dir/__/__/__/mesh/core/src/fifo.c.obj
                0x0002925c                fifo_pop
 *fill*         0x000292ae        0x2 
 .text.wait_for_ready
                0x000292b0       0x10 examples/light_switch/server/CMakeFiles/light_switch_server_nrf52832_xxAA_s132_6.0.0.dir/__/__/__/mesh/core/src/nrf_flash.c.obj
 .text.nrf_flash_erase
                0x000292c0       0x50 examples/light_switch/server/CMakeFiles/light_switch_server_nrf52832_xxAA_s132_6.0.0.dir/__/__/__/mesh/core/src/nrf_flash.c.obj
                0x000292c0                nrf_flash_erase
 .text.nrf_flash_write
                0x00029310       0x50 examples/light_switch/server/CMakeFiles/light_switch_server_nrf52832_xxAA_s132_6.0.0.dir/__/__/__/mesh/core/src/nrf_flash.c.obj
                0x00029310                nrf_flash_write
 .text.packet_mgr_init
                0x00029360       0x4c examples/light_switch/server/CMakeFiles/light_switch_server_nrf52832_xxAA_s132_6.0.0.dir/__/__/__/mesh/core/src/packet_mgr.c.obj
                0x00029360                packet_mgr_init
 .text.flash_store_iv_index
                0x000293ac       0x38 examples/light_switch/server/CMakeFiles/light_switch_server_nrf52832_xxAA_s132_6.0.0.dir/__/__/__/mesh/core/src/net_state.c.obj
 .text.flash_mem_available
                0x000293e4       0x14 examples/light_switch/server/CMakeFiles/light_switch_server_nrf52832_xxAA_s132_6.0.0.dir/__/__/__/mesh/core/src/net_state.c.obj
 .text.seqnum_block_allocate
                0x000293f8       0x4c examples/light_switch/server/CMakeFiles/light_switch_server_nrf52832_xxAA_s132_6.0.0.dir/__/__/__/mesh/core/src/net_state.c.obj
 .text.net_state_reset
                0x00029444       0x48 examples/light_switch/server/CMakeFiles/light_switch_server_nrf52832_xxAA_s132_6.0.0.dir/__/__/__/mesh/core/src/net_state.c.obj
                0x00029444                net_state_reset
 .text.flash_write_complete
                0x0002948c       0x64 examples/light_switch/server/CMakeFiles/light_switch_server_nrf52832_xxAA_s132_6.0.0.dir/__/__/__/mesh/core/src/net_state.c.obj
 .text.net_state_recover_from_flash
                0x000294f0       0x8c examples/light_switch/server/CMakeFiles/light_switch_server_nrf52832_xxAA_s132_6.0.0.dir/__/__/__/mesh/core/src/net_state.c.obj
                0x000294f0                net_state_recover_from_flash
 .text.net_state_flash_area_get
                0x0002957c        0xc examples/light_switch/server/CMakeFiles/light_switch_server_nrf52832_xxAA_s132_6.0.0.dir/__/__/__/mesh/core/src/net_state.c.obj
                0x0002957c                net_state_flash_area_get
 .text.init_flash_storage
                0x00029588       0x40 examples/light_switch/server/CMakeFiles/light_switch_server_nrf52832_xxAA_s132_6.0.0.dir/__/__/__/mesh/core/src/net_state.c.obj
 .text.net_state_init
                0x000295c8       0x44 examples/light_switch/server/CMakeFiles/light_switch_server_nrf52832_xxAA_s132_6.0.0.dir/__/__/__/mesh/core/src/net_state.c.obj
                0x000295c8                net_state_init
 .text.net_state_enable
                0x0002960c       0x30 examples/light_switch/server/CMakeFiles/light_switch_server_nrf52832_xxAA_s132_6.0.0.dir/__/__/__/mesh/core/src/net_state.c.obj
                0x0002960c                net_state_enable
 .text.net_state_iv_update_start
                0x0002963c       0x68 examples/light_switch/server/CMakeFiles/light_switch_server_nrf52832_xxAA_s132_6.0.0.dir/__/__/__/mesh/core/src/net_state.c.obj
                0x0002963c                net_state_iv_update_start
 .text.iv_update_trigger_if_pending
                0x000296a4       0x80 examples/light_switch/server/CMakeFiles/light_switch_server_nrf52832_xxAA_s132_6.0.0.dir/__/__/__/mesh/core/src/net_state.c.obj
 .text.iv_update_timer_handler
                0x00029724       0x68 examples/light_switch/server/CMakeFiles/light_switch_server_nrf52832_xxAA_s132_6.0.0.dir/__/__/__/mesh/core/src/net_state.c.obj
 .text.mesh_evt_handler
                0x0002978c       0xa0 examples/light_switch/server/CMakeFiles/light_switch_server_nrf52832_xxAA_s132_6.0.0.dir/__/__/__/mesh/core/src/net_state.c.obj
 .text.net_state_seqnum_alloc
                0x0002982c       0x68 examples/light_switch/server/CMakeFiles/light_switch_server_nrf52832_xxAA_s132_6.0.0.dir/__/__/__/mesh/core/src/net_state.c.obj
                0x0002982c                net_state_seqnum_alloc
 .text.net_state_iv_index_lock
                0x00029894       0x3c examples/light_switch/server/CMakeFiles/light_switch_server_nrf52832_xxAA_s132_6.0.0.dir/__/__/__/mesh/core/src/net_state.c.obj
                0x00029894                net_state_iv_index_lock
 .text.net_state_key_refresh_phase_changed
                0x000298d0       0x20 examples/light_switch/server/CMakeFiles/light_switch_server_nrf52832_xxAA_s132_6.0.0.dir/__/__/__/mesh/core/src/net_state.c.obj
                0x000298d0                net_state_key_refresh_phase_changed
 .text.net_state_beacon_iv_index_get
                0x000298f0        0xc examples/light_switch/server/CMakeFiles/light_switch_server_nrf52832_xxAA_s132_6.0.0.dir/__/__/__/mesh/core/src/net_state.c.obj
                0x000298f0                net_state_beacon_iv_index_get
 .text.net_state_tx_iv_index_get
                0x000298fc       0x14 examples/light_switch/server/CMakeFiles/light_switch_server_nrf52832_xxAA_s132_6.0.0.dir/__/__/__/mesh/core/src/net_state.c.obj
                0x000298fc                net_state_tx_iv_index_get
 .text.net_state_rx_iv_index_get
                0x00029910       0x18 examples/light_switch/server/CMakeFiles/light_switch_server_nrf52832_xxAA_s132_6.0.0.dir/__/__/__/mesh/core/src/net_state.c.obj
                0x00029910                net_state_rx_iv_index_get
 .text.net_state_iv_update_get
                0x00029928        0xc examples/light_switch/server/CMakeFiles/light_switch_server_nrf52832_xxAA_s132_6.0.0.dir/__/__/__/mesh/core/src/net_state.c.obj
                0x00029928                net_state_iv_update_get
 .text.net_state_iv_index_set
                0x00029934       0x30 examples/light_switch/server/CMakeFiles/light_switch_server_nrf52832_xxAA_s132_6.0.0.dir/__/__/__/mesh/core/src/net_state.c.obj
                0x00029934                net_state_iv_index_set
 .text.send_end_events
                0x00029964       0x84 examples/light_switch/server/CMakeFiles/light_switch_server_nrf52832_xxAA_s132_6.0.0.dir/__/__/__/mesh/core/src/mesh_flash.c.obj
 .text.flash_op_schedule
                0x000299e8       0x88 examples/light_switch/server/CMakeFiles/light_switch_server_nrf52832_xxAA_s132_6.0.0.dir/__/__/__/mesh/core/src/mesh_flash.c.obj
 .text.flash_op_start
                0x00029a70      0x13c examples/light_switch/server/CMakeFiles/light_switch_server_nrf52832_xxAA_s132_6.0.0.dir/__/__/__/mesh/core/src/mesh_flash.c.obj
 .text.mesh_flash_init
                0x00029bac       0x88 examples/light_switch/server/CMakeFiles/light_switch_server_nrf52832_xxAA_s132_6.0.0.dir/__/__/__/mesh/core/src/mesh_flash.c.obj
                0x00029bac                mesh_flash_init
 .text.mesh_flash_user_callback_set
                0x00029c34       0x20 examples/light_switch/server/CMakeFiles/light_switch_server_nrf52832_xxAA_s132_6.0.0.dir/__/__/__/mesh/core/src/mesh_flash.c.obj
                0x00029c34                mesh_flash_user_callback_set
 .text.mesh_flash_op_push
                0x00029c54       0xe4 examples/light_switch/server/CMakeFiles/light_switch_server_nrf52832_xxAA_s132_6.0.0.dir/__/__/__/mesh/core/src/mesh_flash.c.obj
                0x00029c54                mesh_flash_op_push
 .text.nrf_mesh_address_type_get
                0x00029d38       0x10 examples/light_switch/server/CMakeFiles/light_switch_server_nrf52832_xxAA_s132_6.0.0.dir/__/__/__/mesh/core/src/nrf_mesh_utils.c.obj
                0x00029d38                nrf_mesh_address_type_get
 .text.sd_softdevice_is_enabled
                0x00029d48        0x4 examples/light_switch/server/CMakeFiles/light_switch_server_nrf52832_xxAA_s132_6.0.0.dir/__/__/__/mesh/core/src/nrf_mesh.c.obj
 .text.nrf_mesh_listen
                0x00029d4c      0x138 examples/light_switch/server/CMakeFiles/light_switch_server_nrf52832_xxAA_s132_6.0.0.dir/__/__/__/mesh/core/src/nrf_mesh.c.obj
 .text.scanner_packet_process_cb
                0x00029e84       0x8c examples/light_switch/server/CMakeFiles/light_switch_server_nrf52832_xxAA_s132_6.0.0.dir/__/__/__/mesh/core/src/nrf_mesh.c.obj
 .text.nrf_mesh_init
                0x00029f10       0xd0 examples/light_switch/server/CMakeFiles/light_switch_server_nrf52832_xxAA_s132_6.0.0.dir/__/__/__/mesh/core/src/nrf_mesh.c.obj
                0x00029f10                nrf_mesh_init
 .text.nrf_mesh_enable
                0x00029fe0       0xb8 examples/light_switch/server/CMakeFiles/light_switch_server_nrf52832_xxAA_s132_6.0.0.dir/__/__/__/mesh/core/src/nrf_mesh.c.obj
                0x00029fe0                nrf_mesh_enable
 .text.nrf_mesh_packet_send
                0x0002a098       0x7c examples/light_switch/server/CMakeFiles/light_switch_server_nrf52832_xxAA_s132_6.0.0.dir/__/__/__/mesh/core/src/nrf_mesh.c.obj
                0x0002a098                nrf_mesh_packet_send
 .text.nrf_mesh_evt_handler_add
                0x0002a114        0x4 examples/light_switch/server/CMakeFiles/light_switch_server_nrf52832_xxAA_s132_6.0.0.dir/__/__/__/mesh/core/src/nrf_mesh.c.obj
                0x0002a114                nrf_mesh_evt_handler_add
 .text.nrf_mesh_on_sd_evt
                0x0002a118        0xa examples/light_switch/server/CMakeFiles/light_switch_server_nrf52832_xxAA_s132_6.0.0.dir/__/__/__/mesh/core/src/nrf_mesh.c.obj
                0x0002a118                nrf_mesh_on_sd_evt
 .text.nrf_mesh_subnet_added
                0x0002a122        0x2 examples/light_switch/server/CMakeFiles/light_switch_server_nrf52832_xxAA_s132_6.0.0.dir/__/__/__/mesh/core/src/nrf_mesh.c.obj
                0x0002a122                nrf_mesh_subnet_added
 .text.nrf_mesh_unique_token_get
                0x0002a124       0x18 examples/light_switch/server/CMakeFiles/light_switch_server_nrf52832_xxAA_s132_6.0.0.dir/__/__/__/mesh/core/src/nrf_mesh.c.obj
                0x0002a124                nrf_mesh_unique_token_get
 .text.queue_init
                0x0002a13c       0x14 examples/light_switch/server/CMakeFiles/light_switch_server_nrf52832_xxAA_s132_6.0.0.dir/__/__/__/mesh/core/src/queue.c.obj
                0x0002a13c                queue_init
 .text.queue_push
                0x0002a150       0x34 examples/light_switch/server/CMakeFiles/light_switch_server_nrf52832_xxAA_s132_6.0.0.dir/__/__/__/mesh/core/src/queue.c.obj
                0x0002a150                queue_push
 .text.queue_pop
                0x0002a184       0x26 examples/light_switch/server/CMakeFiles/light_switch_server_nrf52832_xxAA_s132_6.0.0.dir/__/__/__/mesh/core/src/queue.c.obj
                0x0002a184                queue_pop
 .text.queue_peek
                0x0002a1aa       0x10 examples/light_switch/server/CMakeFiles/light_switch_server_nrf52832_xxAA_s132_6.0.0.dir/__/__/__/mesh/core/src/queue.c.obj
                0x0002a1aa                queue_peek
 .text.sd_power_reset_reason_clr
                0x0002a1ba        0x4 examples/light_switch/server/CMakeFiles/light_switch_server_nrf52832_xxAA_s132_6.0.0.dir/__/__/__/mesh/core/src/hal.c.obj
 .text.sd_power_gpregret_set
                0x0002a1be        0x4 examples/light_switch/server/CMakeFiles/light_switch_server_nrf52832_xxAA_s132_6.0.0.dir/__/__/__/mesh/core/src/hal.c.obj
 *fill*         0x0002a1c2        0x2 
 .text.hal_device_reset
                0x0002a1c4       0x38 examples/light_switch/server/CMakeFiles/light_switch_server_nrf52832_xxAA_s132_6.0.0.dir/__/__/__/mesh/core/src/hal.c.obj
                0x0002a1c4                hal_device_reset
 .text.hal_lfclk_ppm_get
                0x0002a1fc       0x14 examples/light_switch/server/CMakeFiles/light_switch_server_nrf52832_xxAA_s132_6.0.0.dir/__/__/__/mesh/core/src/hal.c.obj
                0x0002a1fc                hal_lfclk_ppm_get
 .text.hal_irq_active_get
                0x0002a210       0x10 examples/light_switch/server/CMakeFiles/light_switch_server_nrf52832_xxAA_s132_6.0.0.dir/__/__/__/mesh/core/src/hal.c.obj
                0x0002a210                hal_irq_active_get
 .text.hal_irq_is_enabled
                0x0002a220       0x28 examples/light_switch/server/CMakeFiles/light_switch_server_nrf52832_xxAA_s132_6.0.0.dir/__/__/__/mesh/core/src/hal.c.obj
                0x0002a220                hal_irq_is_enabled
 .text.sd_ecb_block_encrypt
                0x0002a248        0x4 examples/light_switch/server/CMakeFiles/light_switch_server_nrf52832_xxAA_s132_6.0.0.dir/__/__/__/mesh/core/src/aes_cmac.c.obj
 .text.utils_xor.constprop.1
                0x0002a24c       0x20 examples/light_switch/server/CMakeFiles/light_switch_server_nrf52832_xxAA_s132_6.0.0.dir/__/__/__/mesh/core/src/aes_cmac.c.obj
 .text.aes_cmac
                0x0002a26c      0x112 examples/light_switch/server/CMakeFiles/light_switch_server_nrf52832_xxAA_s132_6.0.0.dir/__/__/__/mesh/core/src/aes_cmac.c.obj
                0x0002a26c                aes_cmac
 *fill*         0x0002a37e        0x2 
 .text.remove_evt
                0x0002a380       0x2c examples/light_switch/server/CMakeFiles/light_switch_server_nrf52832_xxAA_s132_6.0.0.dir/__/__/__/mesh/core/src/timer_scheduler.c.obj
 .text.add_evt  0x0002a3ac       0x50 examples/light_switch/server/CMakeFiles/light_switch_server_nrf52832_xxAA_s132_6.0.0.dir/__/__/__/mesh/core/src/timer_scheduler.c.obj
 .text.timer_cb
                0x0002a3fc        0xc examples/light_switch/server/CMakeFiles/light_switch_server_nrf52832_xxAA_s132_6.0.0.dir/__/__/__/mesh/core/src/timer_scheduler.c.obj
 .text.setup_timeout
                0x0002a408       0x44 examples/light_switch/server/CMakeFiles/light_switch_server_nrf52832_xxAA_s132_6.0.0.dir/__/__/__/mesh/core/src/timer_scheduler.c.obj
 .text.flag_event_cb
                0x0002a44c       0x98 examples/light_switch/server/CMakeFiles/light_switch_server_nrf52832_xxAA_s132_6.0.0.dir/__/__/__/mesh/core/src/timer_scheduler.c.obj
 .text.timer_sch_init
                0x0002a4e4       0x24 examples/light_switch/server/CMakeFiles/light_switch_server_nrf52832_xxAA_s132_6.0.0.dir/__/__/__/mesh/core/src/timer_scheduler.c.obj
                0x0002a4e4                timer_sch_init
 .text.timer_sch_schedule
                0x0002a508       0x44 examples/light_switch/server/CMakeFiles/light_switch_server_nrf52832_xxAA_s132_6.0.0.dir/__/__/__/mesh/core/src/timer_scheduler.c.obj
                0x0002a508                timer_sch_schedule
 .text.timer_sch_abort
                0x0002a54c       0x2e examples/light_switch/server/CMakeFiles/light_switch_server_nrf52832_xxAA_s132_6.0.0.dir/__/__/__/mesh/core/src/timer_scheduler.c.obj
                0x0002a54c                timer_sch_abort
 .text.timer_sch_reschedule
                0x0002a57a       0x38 examples/light_switch/server/CMakeFiles/light_switch_server_nrf52832_xxAA_s132_6.0.0.dir/__/__/__/mesh/core/src/timer_scheduler.c.obj
                0x0002a57a                timer_sch_reschedule
 *fill*         0x0002a5b2        0x2 
 .text.timer_mut_unlock
                0x0002a5b4       0x10 examples/light_switch/server/CMakeFiles/light_switch_server_nrf52832_xxAA_s132_6.0.0.dir/__/__/__/mesh/core/src/timer.c.obj
 .text.timer_order_cb
                0x0002a5c4       0x94 examples/light_switch/server/CMakeFiles/light_switch_server_nrf52832_xxAA_s132_6.0.0.dir/__/__/__/mesh/core/src/timer.c.obj
                0x0002a5c4                timer_order_cb
 .text.timer_now
                0x0002a658       0x48 examples/light_switch/server/CMakeFiles/light_switch_server_nrf52832_xxAA_s132_6.0.0.dir/__/__/__/mesh/core/src/timer.c.obj
                0x0002a658                timer_now
 .text.timer_event_handler
                0x0002a6a0       0x84 examples/light_switch/server/CMakeFiles/light_switch_server_nrf52832_xxAA_s132_6.0.0.dir/__/__/__/mesh/core/src/timer.c.obj
                0x0002a6a0                timer_event_handler
 .text.timer_on_ts_begin
                0x0002a724       0xf4 examples/light_switch/server/CMakeFiles/light_switch_server_nrf52832_xxAA_s132_6.0.0.dir/__/__/__/mesh/core/src/timer.c.obj
                0x0002a724                timer_on_ts_begin
 .text.timer_on_ts_end
                0x0002a818       0x60 examples/light_switch/server/CMakeFiles/light_switch_server_nrf52832_xxAA_s132_6.0.0.dir/__/__/__/mesh/core/src/timer.c.obj
                0x0002a818                timer_on_ts_end
 .text.sd_rand_application_bytes_available_get
                0x0002a878        0x4 examples/light_switch/server/CMakeFiles/light_switch_server_nrf52832_xxAA_s132_6.0.0.dir/__/__/__/mesh/core/src/rand.c.obj
 .text.sd_rand_application_vector_get
                0x0002a87c        0x4 examples/light_switch/server/CMakeFiles/light_switch_server_nrf52832_xxAA_s132_6.0.0.dir/__/__/__/mesh/core/src/rand.c.obj
 .text.rand_prng_get
                0x0002a880       0x22 examples/light_switch/server/CMakeFiles/light_switch_server_nrf52832_xxAA_s132_6.0.0.dir/__/__/__/mesh/core/src/rand.c.obj
                0x0002a880                rand_prng_get
 .text.rand_hw_rng_get
                0x0002a8a2       0x44 examples/light_switch/server/CMakeFiles/light_switch_server_nrf52832_xxAA_s132_6.0.0.dir/__/__/__/mesh/core/src/rand.c.obj
                0x0002a8a2                rand_hw_rng_get
 *fill*         0x0002a8e6        0x2 
 .text.rand_prng_seed
                0x0002a8e8       0x34 examples/light_switch/server/CMakeFiles/light_switch_server_nrf52832_xxAA_s132_6.0.0.dir/__/__/__/mesh/core/src/rand.c.obj
                0x0002a8e8                rand_prng_seed
 .text.mesh_opt_init
                0x0002a91c        0x2 examples/light_switch/server/CMakeFiles/light_switch_server_nrf52832_xxAA_s132_6.0.0.dir/__/__/__/mesh/core/src/mesh_opt.c.obj
                0x0002a91c                mesh_opt_init
 .text.sd_radio_session_open
                0x0002a91e        0x4 examples/light_switch/server/CMakeFiles/light_switch_server_nrf52832_xxAA_s132_6.0.0.dir/__/__/__/mesh/core/src/timeslot.c.obj
 .text.sd_radio_session_close
                0x0002a922        0x4 examples/light_switch/server/CMakeFiles/light_switch_server_nrf52832_xxAA_s132_6.0.0.dir/__/__/__/mesh/core/src/timeslot.c.obj
 .text.sd_radio_request
                0x0002a926        0x4 examples/light_switch/server/CMakeFiles/light_switch_server_nrf52832_xxAA_s132_6.0.0.dir/__/__/__/mesh/core/src/timeslot.c.obj
 *fill*         0x0002a92a        0x2 
 .text.end_timer_handler
                0x0002a92c       0x24 examples/light_switch/server/CMakeFiles/light_switch_server_nrf52832_xxAA_s132_6.0.0.dir/__/__/__/mesh/core/src/timeslot.c.obj
 .text.get_end_time.constprop.10
                0x0002a950       0x28 examples/light_switch/server/CMakeFiles/light_switch_server_nrf52832_xxAA_s132_6.0.0.dir/__/__/__/mesh/core/src/timeslot.c.obj
 .text.handle_extend_end.constprop.3
                0x0002a978       0xb4 examples/light_switch/server/CMakeFiles/light_switch_server_nrf52832_xxAA_s132_6.0.0.dir/__/__/__/mesh/core/src/timeslot.c.obj
 .text.radio_signal_callback
                0x0002aa2c      0x138 examples/light_switch/server/CMakeFiles/light_switch_server_nrf52832_xxAA_s132_6.0.0.dir/__/__/__/mesh/core/src/timeslot.c.obj
 .text.timeslot_sd_event_handler
                0x0002ab64       0x38 examples/light_switch/server/CMakeFiles/light_switch_server_nrf52832_xxAA_s132_6.0.0.dir/__/__/__/mesh/core/src/timeslot.c.obj
                0x0002ab64                timeslot_sd_event_handler
 .text.timeslot_init
                0x0002ab9c       0x48 examples/light_switch/server/CMakeFiles/light_switch_server_nrf52832_xxAA_s132_6.0.0.dir/__/__/__/mesh/core/src/timeslot.c.obj
                0x0002ab9c                timeslot_init
 .text.timeslot_start
                0x0002abe4       0x20 examples/light_switch/server/CMakeFiles/light_switch_server_nrf52832_xxAA_s132_6.0.0.dir/__/__/__/mesh/core/src/timeslot.c.obj
                0x0002abe4                timeslot_start
 .text.timeslot_end_is_pending
                0x0002ac04       0x24 examples/light_switch/server/CMakeFiles/light_switch_server_nrf52832_xxAA_s132_6.0.0.dir/__/__/__/mesh/core/src/timeslot.c.obj
                0x0002ac04                timeslot_end_is_pending
 .text.timeslot_start_time_get
                0x0002ac28        0xc examples/light_switch/server/CMakeFiles/light_switch_server_nrf52832_xxAA_s132_6.0.0.dir/__/__/__/mesh/core/src/timeslot.c.obj
                0x0002ac28                timeslot_start_time_get
 .text.timeslot_remaining_time_get
                0x0002ac34       0x20 examples/light_switch/server/CMakeFiles/light_switch_server_nrf52832_xxAA_s132_6.0.0.dir/__/__/__/mesh/core/src/timeslot.c.obj
                0x0002ac34                timeslot_remaining_time_get
 .text.timeslot_is_in_cb
                0x0002ac54        0xc examples/light_switch/server/CMakeFiles/light_switch_server_nrf52832_xxAA_s132_6.0.0.dir/__/__/__/mesh/core/src/timeslot.c.obj
                0x0002ac54                timeslot_is_in_cb
 .text.timeslot_trigger
                0x0002ac60       0x24 examples/light_switch/server/CMakeFiles/light_switch_server_nrf52832_xxAA_s132_6.0.0.dir/__/__/__/mesh/core/src/timeslot.c.obj
                0x0002ac60                timeslot_trigger
 .text.timeslot_stop
                0x0002ac84       0x10 examples/light_switch/server/CMakeFiles/light_switch_server_nrf52832_xxAA_s132_6.0.0.dir/__/__/__/mesh/core/src/timeslot.c.obj
                0x0002ac84                timeslot_stop
 .text.timeslot_state_lock
                0x0002ac94       0x28 examples/light_switch/server/CMakeFiles/light_switch_server_nrf52832_xxAA_s132_6.0.0.dir/__/__/__/mesh/core/src/timeslot.c.obj
                0x0002ac94                timeslot_state_lock
 .text.trigger_event_handler
                0x0002acbc       0x1c examples/light_switch/server/CMakeFiles/light_switch_server_nrf52832_xxAA_s132_6.0.0.dir/__/__/__/mesh/core/src/bearer_event.c.obj
 .text.evt_push
                0x0002acd8       0x1c examples/light_switch/server/CMakeFiles/light_switch_server_nrf52832_xxAA_s132_6.0.0.dir/__/__/__/mesh/core/src/bearer_event.c.obj
 .text.bearer_event_init
                0x0002acf4       0x48 examples/light_switch/server/CMakeFiles/light_switch_server_nrf52832_xxAA_s132_6.0.0.dir/__/__/__/mesh/core/src/bearer_event.c.obj
                0x0002acf4                bearer_event_init
 .text.bearer_event_timer_post
                0x0002ad3c       0x24 examples/light_switch/server/CMakeFiles/light_switch_server_nrf52832_xxAA_s132_6.0.0.dir/__/__/__/mesh/core/src/bearer_event.c.obj
                0x0002ad3c                bearer_event_timer_post
 .text.bearer_event_critical_section_begin
                0x0002ad60       0x44 examples/light_switch/server/CMakeFiles/light_switch_server_nrf52832_xxAA_s132_6.0.0.dir/__/__/__/mesh/core/src/bearer_event.c.obj
                0x0002ad60                bearer_event_critical_section_begin
 .text.bearer_event_critical_section_end
                0x0002ada4       0x40 examples/light_switch/server/CMakeFiles/light_switch_server_nrf52832_xxAA_s132_6.0.0.dir/__/__/__/mesh/core/src/bearer_event.c.obj
                0x0002ada4                bearer_event_critical_section_end
 .text.bearer_event_flag_add
                0x0002ade4       0x3c examples/light_switch/server/CMakeFiles/light_switch_server_nrf52832_xxAA_s132_6.0.0.dir/__/__/__/mesh/core/src/bearer_event.c.obj
                0x0002ade4                bearer_event_flag_add
 .text.bearer_event_flag_set
                0x0002ae20       0x44 examples/light_switch/server/CMakeFiles/light_switch_server_nrf52832_xxAA_s132_6.0.0.dir/__/__/__/mesh/core/src/bearer_event.c.obj
                0x0002ae20                bearer_event_flag_set
 .text.bearer_event_sequential_add
                0x0002ae64       0x2e examples/light_switch/server/CMakeFiles/light_switch_server_nrf52832_xxAA_s132_6.0.0.dir/__/__/__/mesh/core/src/bearer_event.c.obj
                0x0002ae64                bearer_event_sequential_add
 *fill*         0x0002ae92        0x2 
 .text.bearer_event_sequential_post
                0x0002ae94       0x44 examples/light_switch/server/CMakeFiles/light_switch_server_nrf52832_xxAA_s132_6.0.0.dir/__/__/__/mesh/core/src/bearer_event.c.obj
                0x0002ae94                bearer_event_sequential_post
 .text.bearer_event_sequential_pending
                0x0002aed8       0x10 examples/light_switch/server/CMakeFiles/light_switch_server_nrf52832_xxAA_s132_6.0.0.dir/__/__/__/mesh/core/src/bearer_event.c.obj
                0x0002aed8                bearer_event_sequential_pending
 .text.bearer_event_handler
                0x0002aee8       0xe8 examples/light_switch/server/CMakeFiles/light_switch_server_nrf52832_xxAA_s132_6.0.0.dir/__/__/__/mesh/core/src/bearer_event.c.obj
                0x0002aee8                bearer_event_handler
 .text.QDEC_IRQHandler
                0x0002afd0        0x4 examples/light_switch/server/CMakeFiles/light_switch_server_nrf52832_xxAA_s132_6.0.0.dir/__/__/__/mesh/core/src/bearer_event.c.obj
                0x0002afd0                QDEC_IRQHandler
 .text.bearer_event_in_correct_irq_priority
                0x0002afd4       0x74 examples/light_switch/server/CMakeFiles/light_switch_server_nrf52832_xxAA_s132_6.0.0.dir/__/__/__/mesh/core/src/bearer_event.c.obj
                0x0002afd4                bearer_event_in_correct_irq_priority
 .text.sd_ecb_block_encrypt
                0x0002b048        0x4 examples/light_switch/server/CMakeFiles/light_switch_server_nrf52832_xxAA_s132_6.0.0.dir/__/__/__/mesh/core/src/enc.c.obj
 .text.enc_aes_encrypt
                0x0002b04c       0x32 examples/light_switch/server/CMakeFiles/light_switch_server_nrf52832_xxAA_s132_6.0.0.dir/__/__/__/mesh/core/src/enc.c.obj
                0x0002b04c                enc_aes_encrypt
 .text.enc_aes_cmac
                0x0002b07e        0x4 examples/light_switch/server/CMakeFiles/light_switch_server_nrf52832_xxAA_s132_6.0.0.dir/__/__/__/mesh/core/src/enc.c.obj
                0x0002b07e                enc_aes_cmac
 .text.enc_aes_ccm_encrypt
                0x0002b082        0x4 examples/light_switch/server/CMakeFiles/light_switch_server_nrf52832_xxAA_s132_6.0.0.dir/__/__/__/mesh/core/src/enc.c.obj
                0x0002b082                enc_aes_ccm_encrypt
 .text.enc_aes_ccm_decrypt
                0x0002b086        0x4 examples/light_switch/server/CMakeFiles/light_switch_server_nrf52832_xxAA_s132_6.0.0.dir/__/__/__/mesh/core/src/enc.c.obj
                0x0002b086                enc_aes_ccm_decrypt
 .text.enc_nonce_generate
                0x0002b08a       0xbc examples/light_switch/server/CMakeFiles/light_switch_server_nrf52832_xxAA_s132_6.0.0.dir/__/__/__/mesh/core/src/enc.c.obj
                0x0002b08a                enc_nonce_generate
 .text.enc_s1   0x0002b146       0x2c examples/light_switch/server/CMakeFiles/light_switch_server_nrf52832_xxAA_s132_6.0.0.dir/__/__/__/mesh/core/src/enc.c.obj
                0x0002b146                enc_s1
 .text.enc_k1   0x0002b172       0x3c examples/light_switch/server/CMakeFiles/light_switch_server_nrf52832_xxAA_s132_6.0.0.dir/__/__/__/mesh/core/src/enc.c.obj
                0x0002b172                enc_k1
 *fill*         0x0002b1ae        0x2 
 .text.enc_k2   0x0002b1b0       0xc8 examples/light_switch/server/CMakeFiles/light_switch_server_nrf52832_xxAA_s132_6.0.0.dir/__/__/__/mesh/core/src/enc.c.obj
                0x0002b1b0                enc_k2
 .text.enc_k3   0x0002b278       0x5c examples/light_switch/server/CMakeFiles/light_switch_server_nrf52832_xxAA_s132_6.0.0.dir/__/__/__/mesh/core/src/enc.c.obj
                0x0002b278                enc_k3
 .text.enc_k4   0x0002b2d4       0x54 examples/light_switch/server/CMakeFiles/light_switch_server_nrf52832_xxAA_s132_6.0.0.dir/__/__/__/mesh/core/src/enc.c.obj
                0x0002b2d4                enc_k4
 .text.allocate_packet
                0x0002b328       0x6a examples/light_switch/server/CMakeFiles/light_switch_server_nrf52832_xxAA_s132_6.0.0.dir/__/__/__/mesh/core/src/network.c.obj
 *fill*         0x0002b392        0x2 
 .text.network_init
                0x0002b394       0x24 examples/light_switch/server/CMakeFiles/light_switch_server_nrf52832_xxAA_s132_6.0.0.dir/__/__/__/mesh/core/src/network.c.obj
                0x0002b394                network_init
 .text.network_enable
                0x0002b3b8        0xe examples/light_switch/server/CMakeFiles/light_switch_server_nrf52832_xxAA_s132_6.0.0.dir/__/__/__/mesh/core/src/network.c.obj
                0x0002b3b8                network_enable
 .text.network_packet_alloc
                0x0002b3c6       0x30 examples/light_switch/server/CMakeFiles/light_switch_server_nrf52832_xxAA_s132_6.0.0.dir/__/__/__/mesh/core/src/network.c.obj
                0x0002b3c6                network_packet_alloc
 .text.network_packet_send
                0x0002b3f6       0x46 examples/light_switch/server/CMakeFiles/light_switch_server_nrf52832_xxAA_s132_6.0.0.dir/__/__/__/mesh/core/src/network.c.obj
                0x0002b3f6                network_packet_send
 .text.network_packet_in
                0x0002b43c      0x164 examples/light_switch/server/CMakeFiles/light_switch_server_nrf52832_xxAA_s132_6.0.0.dir/__/__/__/mesh/core/src/network.c.obj
                0x0002b43c                network_packet_in
 .text.nonce_type_get
                0x0002b5a0       0x16 examples/light_switch/server/CMakeFiles/light_switch_server_nrf52832_xxAA_s132_6.0.0.dir/__/__/__/mesh/core/src/net_packet.c.obj
 .text.header_transfuscate
                0x0002b5b6       0x54 examples/light_switch/server/CMakeFiles/light_switch_server_nrf52832_xxAA_s132_6.0.0.dir/__/__/__/mesh/core/src/net_packet.c.obj
 *fill*         0x0002b60a        0x2 
 .text.net_packet_decrypt
                0x0002b60c      0x224 examples/light_switch/server/CMakeFiles/light_switch_server_nrf52832_xxAA_s132_6.0.0.dir/__/__/__/mesh/core/src/net_packet.c.obj
                0x0002b60c                net_packet_decrypt
 .text.net_packet_encrypt
                0x0002b830       0x7e examples/light_switch/server/CMakeFiles/light_switch_server_nrf52832_xxAA_s132_6.0.0.dir/__/__/__/mesh/core/src/net_packet.c.obj
                0x0002b830                net_packet_encrypt
 .text.net_packet_header_set
                0x0002b8ae       0xaa examples/light_switch/server/CMakeFiles/light_switch_server_nrf52832_xxAA_s132_6.0.0.dir/__/__/__/mesh/core/src/net_packet.c.obj
                0x0002b8ae                net_packet_header_set
 .text.net_packet_payload_len_get
                0x0002b958       0x10 examples/light_switch/server/CMakeFiles/light_switch_server_nrf52832_xxAA_s132_6.0.0.dir/__/__/__/mesh/core/src/net_packet.c.obj
                0x0002b958                net_packet_payload_len_get
 .text.net_packet_from_payload
                0x0002b968        0x4 examples/light_switch/server/CMakeFiles/light_switch_server_nrf52832_xxAA_s132_6.0.0.dir/__/__/__/mesh/core/src/net_packet.c.obj
                0x0002b968                net_packet_from_payload
 .text.net_packet_obfuscation_start_get
                0x0002b96c        0x4 examples/light_switch/server/CMakeFiles/light_switch_server_nrf52832_xxAA_s132_6.0.0.dir/__/__/__/mesh/core/src/net_packet.c.obj
                0x0002b96c                net_packet_obfuscation_start_get
 .text.stage_get_available
                0x0002b970       0x24 examples/light_switch/server/CMakeFiles/light_switch_server_nrf52832_xxAA_s132_6.0.0.dir/__/__/__/mesh/core/src/msqueue.c.obj
 .text.msq_get  0x0002b994       0x38 examples/light_switch/server/CMakeFiles/light_switch_server_nrf52832_xxAA_s132_6.0.0.dir/__/__/__/mesh/core/src/msqueue.c.obj
                0x0002b994                msq_get
 .text.msq_move
                0x0002b9cc       0x2e examples/light_switch/server/CMakeFiles/light_switch_server_nrf52832_xxAA_s132_6.0.0.dir/__/__/__/mesh/core/src/msqueue.c.obj
                0x0002b9cc                msq_move
 .text.msq_reset
                0x0002b9fa       0x20 examples/light_switch/server/CMakeFiles/light_switch_server_nrf52832_xxAA_s132_6.0.0.dir/__/__/__/mesh/core/src/msqueue.c.obj
                0x0002b9fa                msq_reset
 .text.msq_init
                0x0002ba1a       0x4a examples/light_switch/server/CMakeFiles/light_switch_server_nrf52832_xxAA_s132_6.0.0.dir/__/__/__/mesh/core/src/msqueue.c.obj
                0x0002ba1a                msq_init
 .text.msq_available
                0x0002ba64       0x26 examples/light_switch/server/CMakeFiles/light_switch_server_nrf52832_xxAA_s132_6.0.0.dir/__/__/__/mesh/core/src/msqueue.c.obj
                0x0002ba64                msq_available
 .text.nrf_mesh_keygen_aid
                0x0002ba8a       0x12 examples/light_switch/server/CMakeFiles/light_switch_server_nrf52832_xxAA_s132_6.0.0.dir/__/__/__/mesh/core/src/nrf_mesh_keygen.c.obj
                0x0002ba8a                nrf_mesh_keygen_aid
 .text.nrf_mesh_keygen_network_secmat
                0x0002ba9c       0x20 examples/light_switch/server/CMakeFiles/light_switch_server_nrf52832_xxAA_s132_6.0.0.dir/__/__/__/mesh/core/src/nrf_mesh_keygen.c.obj
                0x0002ba9c                nrf_mesh_keygen_network_secmat
 .text.nrf_mesh_keygen_beacon_secmat
                0x0002babc       0x50 examples/light_switch/server/CMakeFiles/light_switch_server_nrf52832_xxAA_s132_6.0.0.dir/__/__/__/mesh/core/src/nrf_mesh_keygen.c.obj
                0x0002babc                nrf_mesh_keygen_beacon_secmat
 .text.nrf_mesh_keygen_virtual_address
                0x0002bb0c       0x50 examples/light_switch/server/CMakeFiles/light_switch_server_nrf52832_xxAA_s132_6.0.0.dir/__/__/__/mesh/core/src/nrf_mesh_keygen.c.obj
                0x0002bb0c                nrf_mesh_keygen_virtual_address
 .text.list_insert
                0x0002bb5c       0x1c examples/light_switch/server/CMakeFiles/light_switch_server_nrf52832_xxAA_s132_6.0.0.dir/__/__/__/mesh/core/src/list.c.obj
 .text.list_add
                0x0002bb78       0x42 examples/light_switch/server/CMakeFiles/light_switch_server_nrf52832_xxAA_s132_6.0.0.dir/__/__/__/mesh/core/src/list.c.obj
                0x0002bb78                list_add
 .text.list_remove
                0x0002bbba       0x3a examples/light_switch/server/CMakeFiles/light_switch_server_nrf52832_xxAA_s132_6.0.0.dir/__/__/__/mesh/core/src/list.c.obj
                0x0002bbba                list_remove
 .text.list_compare_add
                0x0002bbf4       0x56 examples/light_switch/server/CMakeFiles/light_switch_server_nrf52832_xxAA_s132_6.0.0.dir/__/__/__/mesh/core/src/list.c.obj
                0x0002bbf4                list_compare_add
 *fill*         0x0002bc4a        0x2 
 .text.log_callback_rtt
                0x0002bc4c       0x2c examples/light_switch/server/CMakeFiles/light_switch_server_nrf52832_xxAA_s132_6.0.0.dir/__/__/__/mesh/core/src/log.c.obj
                0x0002bc4c                log_callback_rtt
 .text.log_init
                0x0002bc78       0x1c examples/light_switch/server/CMakeFiles/light_switch_server_nrf52832_xxAA_s132_6.0.0.dir/__/__/__/mesh/core/src/log.c.obj
                0x0002bc78                log_init
 .text.log_vprintf
                0x0002bc94       0x18 examples/light_switch/server/CMakeFiles/light_switch_server_nrf52832_xxAA_s132_6.0.0.dir/__/__/__/mesh/core/src/log.c.obj
                0x0002bc94                log_vprintf
 .text.log_printf
                0x0002bcac       0x18 examples/light_switch/server/CMakeFiles/light_switch_server_nrf52832_xxAA_s132_6.0.0.dir/__/__/__/mesh/core/src/log.c.obj
                0x0002bcac                log_printf
 .text.get_area_end
                0x0002bcc4        0xc examples/light_switch/server/CMakeFiles/light_switch_server_nrf52832_xxAA_s132_6.0.0.dir/__/__/__/mesh/core/src/flash_manager.c.obj
 .text.handle_matches_filter
                0x0002bcd0       0x26 examples/light_switch/server/CMakeFiles/light_switch_server_nrf52832_xxAA_s132_6.0.0.dir/__/__/__/mesh/core/src/flash_manager.c.obj
 .text.flash_area_is_blank
                0x0002bcf6       0x34 examples/light_switch/server/CMakeFiles/light_switch_server_nrf52832_xxAA_s132_6.0.0.dir/__/__/__/mesh/core/src/flash_manager.c.obj
 *fill*         0x0002bd2a        0x2 
 .text.get_packet_buffer
                0x0002bd2c       0x20 examples/light_switch/server/CMakeFiles/light_switch_server_nrf52832_xxAA_s132_6.0.0.dir/__/__/__/mesh/core/src/flash_manager.c.obj
 .text.flash    0x0002bd4c       0x1c examples/light_switch/server/CMakeFiles/light_switch_server_nrf52832_xxAA_s132_6.0.0.dir/__/__/__/mesh/core/src/flash_manager.c.obj
 .text.free_packet_buffer
                0x0002bd68       0x3c examples/light_switch/server/CMakeFiles/light_switch_server_nrf52832_xxAA_s132_6.0.0.dir/__/__/__/mesh/core/src/flash_manager.c.obj
 .text.reserve_action_buffer
                0x0002bda4       0x24 examples/light_switch/server/CMakeFiles/light_switch_server_nrf52832_xxAA_s132_6.0.0.dir/__/__/__/mesh/core/src/flash_manager.c.obj
 .text.commit_action_buffer
                0x0002bdc8       0x18 examples/light_switch/server/CMakeFiles/light_switch_server_nrf52832_xxAA_s132_6.0.0.dir/__/__/__/mesh/core/src/flash_manager.c.obj
 .text.schedule_processing
                0x0002bde0        0xc examples/light_switch/server/CMakeFiles/light_switch_server_nrf52832_xxAA_s132_6.0.0.dir/__/__/__/mesh/core/src/flash_manager.c.obj
 .text.get_next_entry
                0x0002bdec       0x34 examples/light_switch/server/CMakeFiles/light_switch_server_nrf52832_xxAA_s132_6.0.0.dir/__/__/__/mesh/core/src/flash_manager.c.obj
 .text.get_last_entry.isra.1
                0x0002be20       0x30 examples/light_switch/server/CMakeFiles/light_switch_server_nrf52832_xxAA_s132_6.0.0.dir/__/__/__/mesh/core/src/flash_manager.c.obj
 .text.process_action_queue
                0x0002be50      0x3b0 examples/light_switch/server/CMakeFiles/light_switch_server_nrf52832_xxAA_s132_6.0.0.dir/__/__/__/mesh/core/src/flash_manager.c.obj
 .text.flash_op_ended_callback
                0x0002c200       0x24 examples/light_switch/server/CMakeFiles/light_switch_server_nrf52832_xxAA_s132_6.0.0.dir/__/__/__/mesh/core/src/flash_manager.c.obj
 .text.flash_manager_init
                0x0002c224       0x68 examples/light_switch/server/CMakeFiles/light_switch_server_nrf52832_xxAA_s132_6.0.0.dir/__/__/__/mesh/core/src/flash_manager.c.obj
                0x0002c224                flash_manager_init
 .text.flash_manager_remove
                0x0002c28c       0x24 examples/light_switch/server/CMakeFiles/light_switch_server_nrf52832_xxAA_s132_6.0.0.dir/__/__/__/mesh/core/src/flash_manager.c.obj
                0x0002c28c                flash_manager_remove
 .text.flash_manager_entry_get
                0x0002c2b0       0x3c examples/light_switch/server/CMakeFiles/light_switch_server_nrf52832_xxAA_s132_6.0.0.dir/__/__/__/mesh/core/src/flash_manager.c.obj
                0x0002c2b0                flash_manager_entry_get
 .text.flash_manager_entry_next_get
                0x0002c2ec       0x60 examples/light_switch/server/CMakeFiles/light_switch_server_nrf52832_xxAA_s132_6.0.0.dir/__/__/__/mesh/core/src/flash_manager.c.obj
                0x0002c2ec                flash_manager_entry_next_get
 .text.flash_manager_entry_alloc
                0x0002c34c       0x5c examples/light_switch/server/CMakeFiles/light_switch_server_nrf52832_xxAA_s132_6.0.0.dir/__/__/__/mesh/core/src/flash_manager.c.obj
                0x0002c34c                flash_manager_entry_alloc
 .text.flash_manager_entry_commit
                0x0002c3a8       0x2c examples/light_switch/server/CMakeFiles/light_switch_server_nrf52832_xxAA_s132_6.0.0.dir/__/__/__/mesh/core/src/flash_manager.c.obj
                0x0002c3a8                flash_manager_entry_commit
 .text.flash_manager_entry_invalidate
                0x0002c3d4       0x4e examples/light_switch/server/CMakeFiles/light_switch_server_nrf52832_xxAA_s132_6.0.0.dir/__/__/__/mesh/core/src/flash_manager.c.obj
                0x0002c3d4                flash_manager_entry_invalidate
 .text.flash_manager_add
                0x0002c422      0x1f6 examples/light_switch/server/CMakeFiles/light_switch_server_nrf52832_xxAA_s132_6.0.0.dir/__/__/__/mesh/core/src/flash_manager.c.obj
                0x0002c422                flash_manager_add
 .text.flash_manager_mem_listener_register
                0x0002c618       0x30 examples/light_switch/server/CMakeFiles/light_switch_server_nrf52832_xxAA_s132_6.0.0.dir/__/__/__/mesh/core/src/flash_manager.c.obj
                0x0002c618                flash_manager_mem_listener_register
 .text.flash_manager_is_stable
                0x0002c648       0x24 examples/light_switch/server/CMakeFiles/light_switch_server_nrf52832_xxAA_s132_6.0.0.dir/__/__/__/mesh/core/src/flash_manager.c.obj
                0x0002c648                flash_manager_is_stable
 .text.flash_manager_on_defrag_end
                0x0002c66c       0x4c examples/light_switch/server/CMakeFiles/light_switch_server_nrf52832_xxAA_s132_6.0.0.dir/__/__/__/mesh/core/src/flash_manager.c.obj
                0x0002c66c                flash_manager_on_defrag_end
 .text.flash_manager_recovery_page_get
                0x0002c6b8        0x4 examples/light_switch/server/CMakeFiles/light_switch_server_nrf52832_xxAA_s132_6.0.0.dir/__/__/__/mesh/core/src/flash_manager.c.obj
                0x0002c6b8                flash_manager_recovery_page_get
 .text.flash_manager_action_queue_empty_cb_set
                0x0002c6bc       0x1c examples/light_switch/server/CMakeFiles/light_switch_server_nrf52832_xxAA_s132_6.0.0.dir/__/__/__/mesh/core/src/flash_manager.c.obj
                0x0002c6bc                flash_manager_action_queue_empty_cb_set
 .text.utils_xor
                0x0002c6d8       0x14 examples/light_switch/server/CMakeFiles/light_switch_server_nrf52832_xxAA_s132_6.0.0.dir/__/__/__/mesh/core/src/ccm_soft.c.obj
 .text.sd_ecb_block_encrypt
                0x0002c6ec        0x4 examples/light_switch/server/CMakeFiles/light_switch_server_nrf52832_xxAA_s132_6.0.0.dir/__/__/__/mesh/core/src/ccm_soft.c.obj
 .text.ccm_soft_crypt
                0x0002c6f0       0x4c examples/light_switch/server/CMakeFiles/light_switch_server_nrf52832_xxAA_s132_6.0.0.dir/__/__/__/mesh/core/src/ccm_soft.c.obj
 .text.ccm_soft_authenticate_blocks
                0x0002c73c       0x6c examples/light_switch/server/CMakeFiles/light_switch_server_nrf52832_xxAA_s132_6.0.0.dir/__/__/__/mesh/core/src/ccm_soft.c.obj
 .text.ccm_soft_authenticate
                0x0002c7a8       0x94 examples/light_switch/server/CMakeFiles/light_switch_server_nrf52832_xxAA_s132_6.0.0.dir/__/__/__/mesh/core/src/ccm_soft.c.obj
 .text.ccm_soft_encrypt
                0x0002c83c       0x54 examples/light_switch/server/CMakeFiles/light_switch_server_nrf52832_xxAA_s132_6.0.0.dir/__/__/__/mesh/core/src/ccm_soft.c.obj
                0x0002c83c                ccm_soft_encrypt
 .text.ccm_soft_decrypt
                0x0002c890       0x98 examples/light_switch/server/CMakeFiles/light_switch_server_nrf52832_xxAA_s132_6.0.0.dir/__/__/__/mesh/core/src/ccm_soft.c.obj
                0x0002c890                ccm_soft_decrypt
 .text.replay_cache_add
                0x0002c928       0x58 examples/light_switch/server/CMakeFiles/light_switch_server_nrf52832_xxAA_s132_6.0.0.dir/__/__/__/mesh/core/src/replay_cache.c.obj
                0x0002c928                replay_cache_add
 .text.replay_cache_has_elem
                0x0002c980       0x40 examples/light_switch/server/CMakeFiles/light_switch_server_nrf52832_xxAA_s132_6.0.0.dir/__/__/__/mesh/core/src/replay_cache.c.obj
                0x0002c980                replay_cache_has_elem
 .text.replay_cache_clear
                0x0002c9c0       0x20 examples/light_switch/server/CMakeFiles/light_switch_server_nrf52832_xxAA_s132_6.0.0.dir/__/__/__/mesh/core/src/replay_cache.c.obj
                0x0002c9c0                replay_cache_clear
 .text.replay_cache_init
                0x0002c9e0        0x4 examples/light_switch/server/CMakeFiles/light_switch_server_nrf52832_xxAA_s132_6.0.0.dir/__/__/__/mesh/core/src/replay_cache.c.obj
                0x0002c9e0                replay_cache_init
 .text.beacon_create
                0x0002c9e4       0x46 examples/light_switch/server/CMakeFiles/light_switch_server_nrf52832_xxAA_s132_6.0.0.dir/__/__/__/mesh/core/src/beacon.c.obj
                0x0002c9e4                beacon_create
 *fill*         0x0002ca2a        0x2 
 .text.beacon_packet_in
                0x0002ca2c      0x154 examples/light_switch/server/CMakeFiles/light_switch_server_nrf52832_xxAA_s132_6.0.0.dir/__/__/__/mesh/core/src/beacon.c.obj
                0x0002ca2c                beacon_packet_in
 .text.entry_get
                0x0002cb80       0x78 examples/light_switch/server/CMakeFiles/light_switch_server_nrf52832_xxAA_s132_6.0.0.dir/__/__/__/mesh/core/src/flash_manager_internal.c.obj
                0x0002cb80                entry_get
 .text.core_tx_complete_cb_set
                0x0002cbf8        0xc examples/light_switch/server/CMakeFiles/light_switch_server_nrf52832_xxAA_s132_6.0.0.dir/__/__/__/mesh/core/src/core_tx.c.obj
                0x0002cbf8                core_tx_complete_cb_set
 .text.core_tx_packet_alloc
                0x0002cc04       0x98 examples/light_switch/server/CMakeFiles/light_switch_server_nrf52832_xxAA_s132_6.0.0.dir/__/__/__/mesh/core/src/core_tx.c.obj
                0x0002cc04                core_tx_packet_alloc
 .text.core_tx_packet_send
                0x0002cc9c       0x4c examples/light_switch/server/CMakeFiles/light_switch_server_nrf52832_xxAA_s132_6.0.0.dir/__/__/__/mesh/core/src/core_tx.c.obj
                0x0002cc9c                core_tx_packet_send
 .text.core_tx_packet_discard
                0x0002cce8       0x40 examples/light_switch/server/CMakeFiles/light_switch_server_nrf52832_xxAA_s132_6.0.0.dir/__/__/__/mesh/core/src/core_tx.c.obj
                0x0002cce8                core_tx_packet_discard
 .text.core_tx_complete
                0x0002cd28       0x34 examples/light_switch/server/CMakeFiles/light_switch_server_nrf52832_xxAA_s132_6.0.0.dir/__/__/__/mesh/core/src/core_tx.c.obj
                0x0002cd28                core_tx_complete
 .text.core_tx_bearer_add
                0x0002cd5c       0x70 examples/light_switch/server/CMakeFiles/light_switch_server_nrf52832_xxAA_s132_6.0.0.dir/__/__/__/mesh/core/src/core_tx.c.obj
                0x0002cd5c                core_tx_bearer_add
 .text.is_publication_running
                0x0002cdcc       0x14 examples/light_switch/server/CMakeFiles/light_switch_server_nrf52832_xxAA_s132_6.0.0.dir/__/__/__/mesh/core/src/heartbeat.c.obj
 .text.heartbeat_publication_count_decrement
                0x0002cde0       0x1c examples/light_switch/server/CMakeFiles/light_switch_server_nrf52832_xxAA_s132_6.0.0.dir/__/__/__/mesh/core/src/heartbeat.c.obj
 .text.hb_pub_getter
                0x0002cdfc       0x2c examples/light_switch/server/CMakeFiles/light_switch_server_nrf52832_xxAA_s132_6.0.0.dir/__/__/__/mesh/core/src/heartbeat.c.obj
 .text.hb_pub_setter
                0x0002ce28       0x30 examples/light_switch/server/CMakeFiles/light_switch_server_nrf52832_xxAA_s132_6.0.0.dir/__/__/__/mesh/core/src/heartbeat.c.obj
 .text.heartbeat_subscription_timer_cb
                0x0002ce58       0x1c examples/light_switch/server/CMakeFiles/light_switch_server_nrf52832_xxAA_s132_6.0.0.dir/__/__/__/mesh/core/src/heartbeat.c.obj
 .text.heartbeat_opcode_handle
                0x0002ce74       0x88 examples/light_switch/server/CMakeFiles/light_switch_server_nrf52832_xxAA_s132_6.0.0.dir/__/__/__/mesh/core/src/heartbeat.c.obj
 .text.heartbeat_send
                0x0002cefc       0x94 examples/light_switch/server/CMakeFiles/light_switch_server_nrf52832_xxAA_s132_6.0.0.dir/__/__/__/mesh/core/src/heartbeat.c.obj
 .text.heartbeat_core_evt_cb
                0x0002cf90       0x6c examples/light_switch/server/CMakeFiles/light_switch_server_nrf52832_xxAA_s132_6.0.0.dir/__/__/__/mesh/core/src/heartbeat.c.obj
 .text.heartbeat_publication_timer_cb
                0x0002cffc       0x94 examples/light_switch/server/CMakeFiles/light_switch_server_nrf52832_xxAA_s132_6.0.0.dir/__/__/__/mesh/core/src/heartbeat.c.obj
 .text.heartbeat_relay_listener_cb
                0x0002d090       0x4c examples/light_switch/server/CMakeFiles/light_switch_server_nrf52832_xxAA_s132_6.0.0.dir/__/__/__/mesh/core/src/heartbeat.c.obj
 .text.heartbeat_init
                0x0002d0dc       0x78 examples/light_switch/server/CMakeFiles/light_switch_server_nrf52832_xxAA_s132_6.0.0.dir/__/__/__/mesh/core/src/heartbeat.c.obj
                0x0002d0dc                heartbeat_init
 .text.heartbeat_subscription_set
                0x0002d154       0xa4 examples/light_switch/server/CMakeFiles/light_switch_server_nrf52832_xxAA_s132_6.0.0.dir/__/__/__/mesh/core/src/heartbeat.c.obj
                0x0002d154                heartbeat_subscription_set
 .text.heartbeat_subscription_get
                0x0002d1f8        0x8 examples/light_switch/server/CMakeFiles/light_switch_server_nrf52832_xxAA_s132_6.0.0.dir/__/__/__/mesh/core/src/heartbeat.c.obj
                0x0002d1f8                heartbeat_subscription_get
 .text.heartbeat_publication_get
                0x0002d200        0x8 examples/light_switch/server/CMakeFiles/light_switch_server_nrf52832_xxAA_s132_6.0.0.dir/__/__/__/mesh/core/src/heartbeat.c.obj
                0x0002d200                heartbeat_publication_get
 .text.heartbeat_publication_state_updated
                0x0002d208       0x8c examples/light_switch/server/CMakeFiles/light_switch_server_nrf52832_xxAA_s132_6.0.0.dir/__/__/__/mesh/core/src/heartbeat.c.obj
                0x0002d208                heartbeat_publication_state_updated
 .text.heartbeat_public_info_getter_register
                0x0002d294       0x14 examples/light_switch/server/CMakeFiles/light_switch_server_nrf52832_xxAA_s132_6.0.0.dir/__/__/__/mesh/core/src/heartbeat.c.obj
                0x0002d294                heartbeat_public_info_getter_register
 .text.beacon_getter
                0x0002d2a8       0x24 examples/light_switch/server/CMakeFiles/light_switch_server_nrf52832_xxAA_s132_6.0.0.dir/__/__/__/mesh/core/src/net_beacon.c.obj
 .text.beacon_setter
                0x0002d2cc       0x4c examples/light_switch/server/CMakeFiles/light_switch_server_nrf52832_xxAA_s132_6.0.0.dir/__/__/__/mesh/core/src/net_beacon.c.obj
 .text.make_network_beacon_packet
                0x0002d318       0x50 examples/light_switch/server/CMakeFiles/light_switch_server_nrf52832_xxAA_s132_6.0.0.dir/__/__/__/mesh/core/src/net_beacon.c.obj
 .text.beacon_tx
                0x0002d368      0x134 examples/light_switch/server/CMakeFiles/light_switch_server_nrf52832_xxAA_s132_6.0.0.dir/__/__/__/mesh/core/src/net_beacon.c.obj
 .text.tx_complete_cb
                0x0002d49c        0xe examples/light_switch/server/CMakeFiles/light_switch_server_nrf52832_xxAA_s132_6.0.0.dir/__/__/__/mesh/core/src/net_beacon.c.obj
 .text.beacon_tx_timeout
                0x0002d4aa        0x4 examples/light_switch/server/CMakeFiles/light_switch_server_nrf52832_xxAA_s132_6.0.0.dir/__/__/__/mesh/core/src/net_beacon.c.obj
 .text.is_valid_beacon_pkt.part.0
                0x0002d4ae       0x30 examples/light_switch/server/CMakeFiles/light_switch_server_nrf52832_xxAA_s132_6.0.0.dir/__/__/__/mesh/core/src/net_beacon.c.obj
 *fill*         0x0002d4de        0x2 
 .text.net_beacon_init
                0x0002d4e0       0x7c examples/light_switch/server/CMakeFiles/light_switch_server_nrf52832_xxAA_s132_6.0.0.dir/__/__/__/mesh/core/src/net_beacon.c.obj
                0x0002d4e0                net_beacon_init
 .text.net_beacon_enable
                0x0002d55c       0x28 examples/light_switch/server/CMakeFiles/light_switch_server_nrf52832_xxAA_s132_6.0.0.dir/__/__/__/mesh/core/src/net_beacon.c.obj
                0x0002d55c                net_beacon_enable
 .text.net_beacon_state_set
                0x0002d584       0x2c examples/light_switch/server/CMakeFiles/light_switch_server_nrf52832_xxAA_s132_6.0.0.dir/__/__/__/mesh/core/src/net_beacon.c.obj
                0x0002d584                net_beacon_state_set
 .text.net_beacon_state_get
                0x0002d5b0       0x2c examples/light_switch/server/CMakeFiles/light_switch_server_nrf52832_xxAA_s132_6.0.0.dir/__/__/__/mesh/core/src/net_beacon.c.obj
                0x0002d5b0                net_beacon_state_get
 .text.net_beacon_packet_in
                0x0002d5dc       0xf2 examples/light_switch/server/CMakeFiles/light_switch_server_nrf52832_xxAA_s132_6.0.0.dir/__/__/__/mesh/core/src/net_beacon.c.obj
                0x0002d5dc                net_beacon_packet_in
 *fill*         0x0002d6ce        0x2 
 .text.listeners_notify
                0x0002d6d0       0x4c examples/light_switch/server/CMakeFiles/light_switch_server_nrf52832_xxAA_s132_6.0.0.dir/__/__/__/mesh/core/src/mesh_config.c.obj
 .text.entry_flags_get.isra.0
                0x0002d71c       0x1c examples/light_switch/server/CMakeFiles/light_switch_server_nrf52832_xxAA_s132_6.0.0.dir/__/__/__/mesh/core/src/mesh_config.c.obj
 .text.entry_params_find
                0x0002d738       0x38 examples/light_switch/server/CMakeFiles/light_switch_server_nrf52832_xxAA_s132_6.0.0.dir/__/__/__/mesh/core/src/mesh_config.c.obj
 .text.restore_callback
                0x0002d770       0x66 examples/light_switch/server/CMakeFiles/light_switch_server_nrf52832_xxAA_s132_6.0.0.dir/__/__/__/mesh/core/src/mesh_config.c.obj
 *fill*         0x0002d7d6        0x2 
 .text.dirty_entries_process
                0x0002d7d8       0xc8 examples/light_switch/server/CMakeFiles/light_switch_server_nrf52832_xxAA_s132_6.0.0.dir/__/__/__/mesh/core/src/mesh_config.c.obj
 .text.mesh_config_init
                0x0002d8a0       0x88 examples/light_switch/server/CMakeFiles/light_switch_server_nrf52832_xxAA_s132_6.0.0.dir/__/__/__/mesh/core/src/mesh_config.c.obj
                0x0002d8a0                mesh_config_init
 .text.mesh_config_load
                0x0002d928        0xc examples/light_switch/server/CMakeFiles/light_switch_server_nrf52832_xxAA_s132_6.0.0.dir/__/__/__/mesh/core/src/mesh_config.c.obj
                0x0002d928                mesh_config_load
 .text.mesh_config_is_busy
                0x0002d934       0x34 examples/light_switch/server/CMakeFiles/light_switch_server_nrf52832_xxAA_s132_6.0.0.dir/__/__/__/mesh/core/src/mesh_config.c.obj
                0x0002d934                mesh_config_is_busy
 .text.backend_evt_handler
                0x0002d968       0x80 examples/light_switch/server/CMakeFiles/light_switch_server_nrf52832_xxAA_s132_6.0.0.dir/__/__/__/mesh/core/src/mesh_config.c.obj
 .text.mesh_config_entry_set
                0x0002d9e8       0x88 examples/light_switch/server/CMakeFiles/light_switch_server_nrf52832_xxAA_s132_6.0.0.dir/__/__/__/mesh/core/src/mesh_config.c.obj
                0x0002d9e8                mesh_config_entry_set
 .text.mesh_config_entry_get
                0x0002da70       0x48 examples/light_switch/server/CMakeFiles/light_switch_server_nrf52832_xxAA_s132_6.0.0.dir/__/__/__/mesh/core/src/mesh_config.c.obj
                0x0002da70                mesh_config_entry_get
 .text.dummy_event
                0x0002dab8        0x2 examples/light_switch/server/CMakeFiles/light_switch_server_nrf52832_xxAA_s132_6.0.0.dir/__/__/__/mesh/core/src/mesh_config_backend.c.obj
 *fill*         0x0002daba        0x2 
 .text.file_get
                0x0002dabc       0x34 examples/light_switch/server/CMakeFiles/light_switch_server_nrf52832_xxAA_s132_6.0.0.dir/__/__/__/mesh/core/src/mesh_config_backend.c.obj
 .text.mesh_config_backend_init
                0x0002daf0      0x124 examples/light_switch/server/CMakeFiles/light_switch_server_nrf52832_xxAA_s132_6.0.0.dir/__/__/__/mesh/core/src/mesh_config_backend.c.obj
                0x0002daf0                mesh_config_backend_init
 .text.mesh_config_backend_store
                0x0002dc14       0x4e examples/light_switch/server/CMakeFiles/light_switch_server_nrf52832_xxAA_s132_6.0.0.dir/__/__/__/mesh/core/src/mesh_config_backend.c.obj
                0x0002dc14                mesh_config_backend_store
 .text.mesh_config_backend_erase
                0x0002dc62       0x34 examples/light_switch/server/CMakeFiles/light_switch_server_nrf52832_xxAA_s132_6.0.0.dir/__/__/__/mesh/core/src/mesh_config_backend.c.obj
                0x0002dc62                mesh_config_backend_erase
 *fill*         0x0002dc96        0x2 
 .text.mesh_config_backend_read_all
                0x0002dc98       0x80 examples/light_switch/server/CMakeFiles/light_switch_server_nrf52832_xxAA_s132_6.0.0.dir/__/__/__/mesh/core/src/mesh_config_backend.c.obj
                0x0002dc98                mesh_config_backend_read_all
 .text.write_complete_cb
                0x0002dd18       0x30 examples/light_switch/server/CMakeFiles/light_switch_server_nrf52832_xxAA_s132_6.0.0.dir/__/__/__/mesh/core/src/mesh_config_flashman_glue.c.obj
 .text.invalidate_complete_cb
                0x0002dd48       0x2c examples/light_switch/server/CMakeFiles/light_switch_server_nrf52832_xxAA_s132_6.0.0.dir/__/__/__/mesh/core/src/mesh_config_flashman_glue.c.obj
 .text.remove_complete_cb
                0x0002dd74        0x2 examples/light_switch/server/CMakeFiles/light_switch_server_nrf52832_xxAA_s132_6.0.0.dir/__/__/__/mesh/core/src/mesh_config_flashman_glue.c.obj
 .text.flash_stable_cb
                0x0002dd76       0x20 examples/light_switch/server/CMakeFiles/light_switch_server_nrf52832_xxAA_s132_6.0.0.dir/__/__/__/mesh/core/src/mesh_config_flashman_glue.c.obj
 *fill*         0x0002dd96        0x2 
 .text.mesh_config_backend_glue_init
                0x0002dd98       0x28 examples/light_switch/server/CMakeFiles/light_switch_server_nrf52832_xxAA_s132_6.0.0.dir/__/__/__/mesh/core/src/mesh_config_flashman_glue.c.obj
                0x0002dd98                mesh_config_backend_glue_init
 .text.mesh_config_backend_file_create
                0x0002ddc0       0x58 examples/light_switch/server/CMakeFiles/light_switch_server_nrf52832_xxAA_s132_6.0.0.dir/__/__/__/mesh/core/src/mesh_config_flashman_glue.c.obj
                0x0002ddc0                mesh_config_backend_file_create
 .text.mesh_config_backend_record_write
                0x0002de18       0x2c examples/light_switch/server/CMakeFiles/light_switch_server_nrf52832_xxAA_s132_6.0.0.dir/__/__/__/mesh/core/src/mesh_config_flashman_glue.c.obj
                0x0002de18                mesh_config_backend_record_write
 .text.mesh_config_backend_record_erase
                0x0002de44       0x22 examples/light_switch/server/CMakeFiles/light_switch_server_nrf52832_xxAA_s132_6.0.0.dir/__/__/__/mesh/core/src/mesh_config_flashman_glue.c.obj
                0x0002de44                mesh_config_backend_record_erase
 .text.mesh_config_backend_record_iterate
                0x0002de66       0x38 examples/light_switch/server/CMakeFiles/light_switch_server_nrf52832_xxAA_s132_6.0.0.dir/__/__/__/mesh/core/src/mesh_config_flashman_glue.c.obj
                0x0002de66                mesh_config_backend_record_iterate
 .text.mesh_config_record_size_calculate
                0x0002de9e        0xa examples/light_switch/server/CMakeFiles/light_switch_server_nrf52832_xxAA_s132_6.0.0.dir/__/__/__/mesh/core/src/mesh_config_flashman_glue.c.obj
                0x0002de9e                mesh_config_record_size_calculate
 .text.mesh_config_backend_file_power_down_time_get
                0x0002dea8       0x26 examples/light_switch/server/CMakeFiles/light_switch_server_nrf52832_xxAA_s132_6.0.0.dir/__/__/__/mesh/core/src/mesh_config_flashman_glue.c.obj
                0x0002dea8                mesh_config_backend_file_power_down_time_get
 *fill*         0x0002dece        0x2 
 .text.core_tx_set
                0x0002ded0       0xb0 examples/light_switch/server/CMakeFiles/light_switch_server_nrf52832_xxAA_s132_6.0.0.dir/__/__/__/mesh/core/src/core_tx_adv.c.obj
 .text.packet_discard
                0x0002df80       0x40 examples/light_switch/server/CMakeFiles/light_switch_server_nrf52832_xxAA_s132_6.0.0.dir/__/__/__/mesh/core/src/core_tx_adv.c.obj
 .text.packet_send
                0x0002dfc0       0x58 examples/light_switch/server/CMakeFiles/light_switch_server_nrf52832_xxAA_s132_6.0.0.dir/__/__/__/mesh/core/src/core_tx_adv.c.obj
 .text.packet_alloc
                0x0002e018       0x58 examples/light_switch/server/CMakeFiles/light_switch_server_nrf52832_xxAA_s132_6.0.0.dir/__/__/__/mesh/core/src/core_tx_adv.c.obj
 .text.adv_tx_complete_callback
                0x0002e070       0x20 examples/light_switch/server/CMakeFiles/light_switch_server_nrf52832_xxAA_s132_6.0.0.dir/__/__/__/mesh/core/src/core_tx_adv.c.obj
 .text.core_tx_get
                0x0002e090       0x8c examples/light_switch/server/CMakeFiles/light_switch_server_nrf52832_xxAA_s132_6.0.0.dir/__/__/__/mesh/core/src/core_tx_adv.c.obj
 .text.mesh_opt_core_adv_set
                0x0002e11c       0x24 examples/light_switch/server/CMakeFiles/light_switch_server_nrf52832_xxAA_s132_6.0.0.dir/__/__/__/mesh/core/src/core_tx_adv.c.obj
                0x0002e11c                mesh_opt_core_adv_set
 .text.mesh_opt_core_adv_get
                0x0002e140       0x24 examples/light_switch/server/CMakeFiles/light_switch_server_nrf52832_xxAA_s132_6.0.0.dir/__/__/__/mesh/core/src/core_tx_adv.c.obj
                0x0002e140                mesh_opt_core_adv_get
 .text.core_tx_adv_init
                0x0002e164       0x68 examples/light_switch/server/CMakeFiles/light_switch_server_nrf52832_xxAA_s132_6.0.0.dir/__/__/__/mesh/core/src/core_tx_adv.c.obj
                0x0002e164                core_tx_adv_init
 .text.core_tx_adv_is_enabled
                0x0002e1cc       0x20 examples/light_switch/server/CMakeFiles/light_switch_server_nrf52832_xxAA_s132_6.0.0.dir/__/__/__/mesh/core/src/core_tx_adv.c.obj
                0x0002e1cc                core_tx_adv_is_enabled
 .text.ad_listener_subscribe
                0x0002e1ec       0x5c examples/light_switch/server/CMakeFiles/light_switch_server_nrf52832_xxAA_s132_6.0.0.dir/__/__/__/mesh/bearer/src/ad_listener.c.obj
                0x0002e1ec                ad_listener_subscribe
 .text.ad_listener_process
                0x0002e248       0x64 examples/light_switch/server/CMakeFiles/light_switch_server_nrf52832_xxAA_s132_6.0.0.dir/__/__/__/mesh/bearer/src/ad_listener.c.obj
                0x0002e248                ad_listener_process
 .text.adtype_filter_handle
                0x0002e2ac       0x64 examples/light_switch/server/CMakeFiles/light_switch_server_nrf52832_xxAA_s132_6.0.0.dir/__/__/__/mesh/bearer/src/ad_type_filter.c.obj
 .text.bearer_adtype_filtering_set
                0x0002e310       0x1c examples/light_switch/server/CMakeFiles/light_switch_server_nrf52832_xxAA_s132_6.0.0.dir/__/__/__/mesh/bearer/src/ad_type_filter.c.obj
                0x0002e310                bearer_adtype_filtering_set
 .text.bearer_adtype_add
                0x0002e32c       0x20 examples/light_switch/server/CMakeFiles/light_switch_server_nrf52832_xxAA_s132_6.0.0.dir/__/__/__/mesh/bearer/src/ad_type_filter.c.obj
                0x0002e32c                bearer_adtype_add
 .text.bearer_adtype_mode_set
                0x0002e34c       0x18 examples/light_switch/server/CMakeFiles/light_switch_server_nrf52832_xxAA_s132_6.0.0.dir/__/__/__/mesh/bearer/src/ad_type_filter.c.obj
                0x0002e34c                bearer_adtype_mode_set
 .text.tx_complete_event_callback
                0x0002e364       0x28 examples/light_switch/server/CMakeFiles/light_switch_server_nrf52832_xxAA_s132_6.0.0.dir/__/__/__/mesh/bearer/src/advertiser.c.obj
 .text.set_gap_addr_type
                0x0002e38c       0x26 examples/light_switch/server/CMakeFiles/light_switch_server_nrf52832_xxAA_s132_6.0.0.dir/__/__/__/mesh/bearer/src/advertiser.c.obj
 .text.broadcast_complete_cb
                0x0002e3b2       0x46 examples/light_switch/server/CMakeFiles/light_switch_server_nrf52832_xxAA_s132_6.0.0.dir/__/__/__/mesh/bearer/src/advertiser.c.obj
 .text.schedule_first_time
                0x0002e3f8       0x28 examples/light_switch/server/CMakeFiles/light_switch_server_nrf52832_xxAA_s132_6.0.0.dir/__/__/__/mesh/bearer/src/advertiser.c.obj
 .text.timeout_event
                0x0002e420      0x10c examples/light_switch/server/CMakeFiles/light_switch_server_nrf52832_xxAA_s132_6.0.0.dir/__/__/__/mesh/bearer/src/advertiser.c.obj
 .text.advertiser_init
                0x0002e52c        0xc examples/light_switch/server/CMakeFiles/light_switch_server_nrf52832_xxAA_s132_6.0.0.dir/__/__/__/mesh/bearer/src/advertiser.c.obj
                0x0002e52c                advertiser_init
 .text.advertiser_enable
                0x0002e538       0x2a examples/light_switch/server/CMakeFiles/light_switch_server_nrf52832_xxAA_s132_6.0.0.dir/__/__/__/mesh/bearer/src/advertiser.c.obj
                0x0002e538                advertiser_enable
 .text.advertiser_disable
                0x0002e562        0xa examples/light_switch/server/CMakeFiles/light_switch_server_nrf52832_xxAA_s132_6.0.0.dir/__/__/__/mesh/bearer/src/advertiser.c.obj
                0x0002e562                advertiser_disable
 .text.advertiser_packet_alloc
                0x0002e56c       0x76 examples/light_switch/server/CMakeFiles/light_switch_server_nrf52832_xxAA_s132_6.0.0.dir/__/__/__/mesh/bearer/src/advertiser.c.obj
                0x0002e56c                advertiser_packet_alloc
 .text.advertiser_packet_send
                0x0002e5e2       0x52 examples/light_switch/server/CMakeFiles/light_switch_server_nrf52832_xxAA_s132_6.0.0.dir/__/__/__/mesh/bearer/src/advertiser.c.obj
                0x0002e5e2                advertiser_packet_send
 .text.advertiser_packet_discard
                0x0002e634       0x1e examples/light_switch/server/CMakeFiles/light_switch_server_nrf52832_xxAA_s132_6.0.0.dir/__/__/__/mesh/bearer/src/advertiser.c.obj
                0x0002e634                advertiser_packet_discard
 .text.advertiser_address_set
                0x0002e652       0x3c examples/light_switch/server/CMakeFiles/light_switch_server_nrf52832_xxAA_s132_6.0.0.dir/__/__/__/mesh/bearer/src/advertiser.c.obj
                0x0002e652                advertiser_address_set
 .text.advertiser_interval_set
                0x0002e68e       0x40 examples/light_switch/server/CMakeFiles/light_switch_server_nrf52832_xxAA_s132_6.0.0.dir/__/__/__/mesh/bearer/src/advertiser.c.obj
                0x0002e68e                advertiser_interval_set
 .text.advertiser_tx_power_set
                0x0002e6ce       0x14 examples/light_switch/server/CMakeFiles/light_switch_server_nrf52832_xxAA_s132_6.0.0.dir/__/__/__/mesh/bearer/src/advertiser.c.obj
                0x0002e6ce                advertiser_tx_power_set
 .text.advertiser_flush
                0x0002e6e2       0x1e examples/light_switch/server/CMakeFiles/light_switch_server_nrf52832_xxAA_s132_6.0.0.dir/__/__/__/mesh/bearer/src/advertiser.c.obj
                0x0002e6e2                advertiser_flush
 .text.advertiser_address_default_get
                0x0002e700       0x38 examples/light_switch/server/CMakeFiles/light_switch_server_nrf52832_xxAA_s132_6.0.0.dir/__/__/__/mesh/bearer/src/advertiser.c.obj
                0x0002e700                advertiser_address_default_get
 .text.advertiser_instance_init
                0x0002e738       0xa4 examples/light_switch/server/CMakeFiles/light_switch_server_nrf52832_xxAA_s132_6.0.0.dir/__/__/__/mesh/bearer/src/advertiser.c.obj
                0x0002e738                advertiser_instance_init
 .text.action_timer_start
                0x0002e7dc       0x90 examples/light_switch/server/CMakeFiles/light_switch_server_nrf52832_xxAA_s132_6.0.0.dir/__/__/__/mesh/bearer/src/bearer_handler.c.obj
 .text.action_switch
                0x0002e86c       0xe8 examples/light_switch/server/CMakeFiles/light_switch_server_nrf52832_xxAA_s132_6.0.0.dir/__/__/__/mesh/bearer/src/bearer_handler.c.obj
 .text.end_handle
                0x0002e954       0x44 examples/light_switch/server/CMakeFiles/light_switch_server_nrf52832_xxAA_s132_6.0.0.dir/__/__/__/mesh/bearer/src/bearer_handler.c.obj
 .text.TIMER2_IRQHandler
                0x0002e998       0x58 examples/light_switch/server/CMakeFiles/light_switch_server_nrf52832_xxAA_s132_6.0.0.dir/__/__/__/mesh/bearer/src/bearer_handler.c.obj
                0x0002e998                TIMER2_IRQHandler
 .text.bearer_handler_init
                0x0002e9f0       0x44 examples/light_switch/server/CMakeFiles/light_switch_server_nrf52832_xxAA_s132_6.0.0.dir/__/__/__/mesh/bearer/src/bearer_handler.c.obj
                0x0002e9f0                bearer_handler_init
 .text.bearer_handler_start
                0x0002ea34       0x1c examples/light_switch/server/CMakeFiles/light_switch_server_nrf52832_xxAA_s132_6.0.0.dir/__/__/__/mesh/bearer/src/bearer_handler.c.obj
                0x0002ea34                bearer_handler_start
 .text.bearer_handler_action_enqueue
                0x0002ea50       0x6c examples/light_switch/server/CMakeFiles/light_switch_server_nrf52832_xxAA_s132_6.0.0.dir/__/__/__/mesh/bearer/src/bearer_handler.c.obj
                0x0002ea50                bearer_handler_action_enqueue
 .text.bearer_handler_action_end
                0x0002eabc       0x48 examples/light_switch/server/CMakeFiles/light_switch_server_nrf52832_xxAA_s132_6.0.0.dir/__/__/__/mesh/bearer/src/bearer_handler.c.obj
                0x0002eabc                bearer_handler_action_end
 .text.bearer_handler_radio_irq_handler
                0x0002eb04       0x64 examples/light_switch/server/CMakeFiles/light_switch_server_nrf52832_xxAA_s132_6.0.0.dir/__/__/__/mesh/bearer/src/bearer_handler.c.obj
                0x0002eb04                bearer_handler_radio_irq_handler
 .text.bearer_handler_timer_irq_handler
                0x0002eb68       0x24 examples/light_switch/server/CMakeFiles/light_switch_server_nrf52832_xxAA_s132_6.0.0.dir/__/__/__/mesh/bearer/src/bearer_handler.c.obj
                0x0002eb68                bearer_handler_timer_irq_handler
 .text.bearer_handler_on_ts_begin
                0x0002eb8c       0x38 examples/light_switch/server/CMakeFiles/light_switch_server_nrf52832_xxAA_s132_6.0.0.dir/__/__/__/mesh/bearer/src/bearer_handler.c.obj
                0x0002eb8c                bearer_handler_on_ts_begin
 .text.bearer_handler_on_ts_end
                0x0002ebc4       0x70 examples/light_switch/server/CMakeFiles/light_switch_server_nrf52832_xxAA_s132_6.0.0.dir/__/__/__/mesh/bearer/src/bearer_handler.c.obj
                0x0002ebc4                bearer_handler_on_ts_end
 .text.broadcast_start
                0x0002ec34       0xac examples/light_switch/server/CMakeFiles/light_switch_server_nrf52832_xxAA_s132_6.0.0.dir/__/__/__/mesh/bearer/src/broadcast.c.obj
 .text.radio_irq_handler
                0x0002ece0       0xa4 examples/light_switch/server/CMakeFiles/light_switch_server_nrf52832_xxAA_s132_6.0.0.dir/__/__/__/mesh/bearer/src/broadcast.c.obj
 .text.broadcast_send
                0x0002ed84       0x6c examples/light_switch/server/CMakeFiles/light_switch_server_nrf52832_xxAA_s132_6.0.0.dir/__/__/__/mesh/bearer/src/broadcast.c.obj
                0x0002ed84                broadcast_send
 .text.fen_filter_start
                0x0002edf0       0x28 examples/light_switch/server/CMakeFiles/light_switch_server_nrf52832_xxAA_s132_6.0.0.dir/__/__/__/mesh/bearer/src/filter_engine.c.obj
                0x0002edf0                fen_filter_start
 .text.fen_filter_stop
                0x0002ee18       0x20 examples/light_switch/server/CMakeFiles/light_switch_server_nrf52832_xxAA_s132_6.0.0.dir/__/__/__/mesh/bearer/src/filter_engine.c.obj
                0x0002ee18                fen_filter_stop
 .text.fen_filters_apply
                0x0002ee38       0x34 examples/light_switch/server/CMakeFiles/light_switch_server_nrf52832_xxAA_s132_6.0.0.dir/__/__/__/mesh/bearer/src/filter_engine.c.obj
                0x0002ee38                fen_filters_apply
 .text.radio_config_reset
                0x0002ee6c       0x40 examples/light_switch/server/CMakeFiles/light_switch_server_nrf52832_xxAA_s132_6.0.0.dir/__/__/__/mesh/bearer/src/radio_config.c.obj
                0x0002ee6c                radio_config_reset
 .text.radio_config_channel_set
                0x0002eeac       0x28 examples/light_switch/server/CMakeFiles/light_switch_server_nrf52832_xxAA_s132_6.0.0.dir/__/__/__/mesh/bearer/src/radio_config.c.obj
                0x0002eeac                radio_config_channel_set
 .text.radio_config_config
                0x0002eed4       0x90 examples/light_switch/server/CMakeFiles/light_switch_server_nrf52832_xxAA_s132_6.0.0.dir/__/__/__/mesh/bearer/src/radio_config.c.obj
                0x0002eed4                radio_config_config
 .text.radio_config_access_addr_set
                0x0002ef64       0x50 examples/light_switch/server/CMakeFiles/light_switch_server_nrf52832_xxAA_s132_6.0.0.dir/__/__/__/mesh/bearer/src/radio_config.c.obj
                0x0002ef64                radio_config_access_addr_set
 .text.radio_trigger
                0x0002efb4       0x24 examples/light_switch/server/CMakeFiles/light_switch_server_nrf52832_xxAA_s132_6.0.0.dir/__/__/__/mesh/bearer/src/scanner.c.obj
 .text.scan_window_end
                0x0002efd8       0x10 examples/light_switch/server/CMakeFiles/light_switch_server_nrf52832_xxAA_s132_6.0.0.dir/__/__/__/mesh/bearer/src/scanner.c.obj
 .text.scan_window_start
                0x0002efe8       0x24 examples/light_switch/server/CMakeFiles/light_switch_server_nrf52832_xxAA_s132_6.0.0.dir/__/__/__/mesh/bearer/src/scanner.c.obj
 .text.radio_configure
                0x0002f00c       0x78 examples/light_switch/server/CMakeFiles/light_switch_server_nrf52832_xxAA_s132_6.0.0.dir/__/__/__/mesh/bearer/src/scanner.c.obj
 .text.radio_set_packet
                0x0002f084       0x4c examples/light_switch/server/CMakeFiles/light_switch_server_nrf52832_xxAA_s132_6.0.0.dir/__/__/__/mesh/bearer/src/scanner.c.obj
 .text.radio_start
                0x0002f0d0       0x78 examples/light_switch/server/CMakeFiles/light_switch_server_nrf52832_xxAA_s132_6.0.0.dir/__/__/__/mesh/bearer/src/scanner.c.obj
 .text.radio_stop
                0x0002f148       0x38 examples/light_switch/server/CMakeFiles/light_switch_server_nrf52832_xxAA_s132_6.0.0.dir/__/__/__/mesh/bearer/src/scanner.c.obj
 .text.schedule_timers
                0x0002f180       0x38 examples/light_switch/server/CMakeFiles/light_switch_server_nrf52832_xxAA_s132_6.0.0.dir/__/__/__/mesh/bearer/src/scanner.c.obj
 .text.scanner_radio_start
                0x0002f1b8       0x2c examples/light_switch/server/CMakeFiles/light_switch_server_nrf52832_xxAA_s132_6.0.0.dir/__/__/__/mesh/bearer/src/scanner.c.obj
                0x0002f1b8                scanner_radio_start
 .text.scanner_radio_stop
                0x0002f1e4       0x10 examples/light_switch/server/CMakeFiles/light_switch_server_nrf52832_xxAA_s132_6.0.0.dir/__/__/__/mesh/bearer/src/scanner.c.obj
                0x0002f1e4                scanner_radio_stop
 .text.scanner_radio_irq_handler
                0x0002f1f4      0x13c examples/light_switch/server/CMakeFiles/light_switch_server_nrf52832_xxAA_s132_6.0.0.dir/__/__/__/mesh/bearer/src/scanner.c.obj
                0x0002f1f4                scanner_radio_irq_handler
 .text.scanner_timer_irq_handler
                0x0002f330       0x30 examples/light_switch/server/CMakeFiles/light_switch_server_nrf52832_xxAA_s132_6.0.0.dir/__/__/__/mesh/bearer/src/scanner.c.obj
                0x0002f330                scanner_timer_irq_handler
 .text.scanner_enable
                0x0002f360       0x24 examples/light_switch/server/CMakeFiles/light_switch_server_nrf52832_xxAA_s132_6.0.0.dir/__/__/__/mesh/bearer/src/scanner.c.obj
                0x0002f360                scanner_enable
 .text.scanner_packet_release
                0x0002f384       0x2c examples/light_switch/server/CMakeFiles/light_switch_server_nrf52832_xxAA_s132_6.0.0.dir/__/__/__/mesh/bearer/src/scanner.c.obj
                0x0002f384                scanner_packet_release
 .text.scanner_rx
                0x0002f3b0       0x30 examples/light_switch/server/CMakeFiles/light_switch_server_nrf52832_xxAA_s132_6.0.0.dir/__/__/__/mesh/bearer/src/scanner.c.obj
                0x0002f3b0                scanner_rx
 .text.scanner_rx_pending
                0x0002f3e0        0xc examples/light_switch/server/CMakeFiles/light_switch_server_nrf52832_xxAA_s132_6.0.0.dir/__/__/__/mesh/bearer/src/scanner.c.obj
                0x0002f3e0                scanner_rx_pending
 .text.scanner_config_scan_time_set
                0x0002f3ec       0x4c examples/light_switch/server/CMakeFiles/light_switch_server_nrf52832_xxAA_s132_6.0.0.dir/__/__/__/mesh/bearer/src/scanner.c.obj
                0x0002f3ec                scanner_config_scan_time_set
 .text.scanner_config_channels_set
                0x0002f438       0x50 examples/light_switch/server/CMakeFiles/light_switch_server_nrf52832_xxAA_s132_6.0.0.dir/__/__/__/mesh/bearer/src/scanner.c.obj
                0x0002f438                scanner_config_channels_set
 .text.scanner_config_access_addresses_set
                0x0002f488       0x38 examples/light_switch/server/CMakeFiles/light_switch_server_nrf52832_xxAA_s132_6.0.0.dir/__/__/__/mesh/bearer/src/scanner.c.obj
                0x0002f488                scanner_config_access_addresses_set
 .text.scanner_config_reset
                0x0002f4c0       0x50 examples/light_switch/server/CMakeFiles/light_switch_server_nrf52832_xxAA_s132_6.0.0.dir/__/__/__/mesh/bearer/src/scanner.c.obj
                0x0002f4c0                scanner_config_reset
 .text.scanner_init
                0x0002f510       0x54 examples/light_switch/server/CMakeFiles/light_switch_server_nrf52832_xxAA_s132_6.0.0.dir/__/__/__/mesh/bearer/src/scanner.c.obj
                0x0002f510                scanner_init
 .text.pin_clear
                0x0002f564       0x26 examples/light_switch/server/CMakeFiles/light_switch_server_nrf52832_xxAA_s132_6.0.0.dir/__/__/__/mesh/bearer/src/mesh_pa_lna.c.obj
 *fill*         0x0002f58a        0x2 
 .text.ppi_setup.isra.0
                0x0002f58c       0x3c examples/light_switch/server/CMakeFiles/light_switch_server_nrf52832_xxAA_s132_6.0.0.dir/__/__/__/mesh/bearer/src/mesh_pa_lna.c.obj
 .text.mesh_pa_setup_start
                0x0002f5c8       0x5c examples/light_switch/server/CMakeFiles/light_switch_server_nrf52832_xxAA_s132_6.0.0.dir/__/__/__/mesh/bearer/src/mesh_pa_lna.c.obj
                0x0002f5c8                mesh_pa_setup_start
 .text.mesh_lna_setup_start
                0x0002f624       0x5c examples/light_switch/server/CMakeFiles/light_switch_server_nrf52832_xxAA_s132_6.0.0.dir/__/__/__/mesh/bearer/src/mesh_pa_lna.c.obj
                0x0002f624                mesh_lna_setup_start
 .text.mesh_pa_lna_disable_start
                0x0002f680       0x1c examples/light_switch/server/CMakeFiles/light_switch_server_nrf52832_xxAA_s132_6.0.0.dir/__/__/__/mesh/bearer/src/mesh_pa_lna.c.obj
                0x0002f680                mesh_pa_lna_disable_start
 .text.mesh_pa_lna_setup_stop
                0x0002f69c       0x4c examples/light_switch/server/CMakeFiles/light_switch_server_nrf52832_xxAA_s132_6.0.0.dir/__/__/__/mesh/bearer/src/mesh_pa_lna.c.obj
                0x0002f69c                mesh_pa_lna_setup_stop
 .text.mesh_pa_lna_cleanup
                0x0002f6e8       0x48 examples/light_switch/server/CMakeFiles/light_switch_server_nrf52832_xxAA_s132_6.0.0.dir/__/__/__/mesh/bearer/src/mesh_pa_lna.c.obj
                0x0002f6e8                mesh_pa_lna_cleanup
 .text.config_composition_data_get
                0x0002f730      0x186 examples/light_switch/server/CMakeFiles/light_switch_server_nrf52832_xxAA_s132_6.0.0.dir/__/__/__/models/foundation/config/src/composition_data.c.obj
                0x0002f730                config_composition_data_get
 *fill*         0x0002f8b6        0x2 
 .text.app_evt_send
                0x0002f8b8       0x10 examples/light_switch/server/CMakeFiles/light_switch_server_nrf52832_xxAA_s132_6.0.0.dir/__/__/__/models/foundation/config/src/config_server.c.obj
 .text.get_element_index
                0x0002f8c8       0x26 examples/light_switch/server/CMakeFiles/light_switch_server_nrf52832_xxAA_s132_6.0.0.dir/__/__/__/models/foundation/config/src/config_server.c.obj
 .text.config_server_heartbeat_publication_params_get
                0x0002f8ee       0x30 examples/light_switch/server/CMakeFiles/light_switch_server_nrf52832_xxAA_s132_6.0.0.dir/__/__/__/models/foundation/config/src/config_server.c.obj
 .text.send_reply
                0x0002f91e       0x34 examples/light_switch/server/CMakeFiles/light_switch_server_nrf52832_xxAA_s132_6.0.0.dir/__/__/__/models/foundation/config/src/config_server.c.obj
 .text.send_network_transmit_status
                0x0002f952       0x5a examples/light_switch/server/CMakeFiles/light_switch_server_nrf52832_xxAA_s132_6.0.0.dir/__/__/__/models/foundation/config/src/config_server.c.obj
 .text.handle_config_network_transmit_set
                0x0002f9ac       0x74 examples/light_switch/server/CMakeFiles/light_switch_server_nrf52832_xxAA_s132_6.0.0.dir/__/__/__/models/foundation/config/src/config_server.c.obj
 .text.handle_config_network_transmit_get
                0x0002fa20        0xa examples/light_switch/server/CMakeFiles/light_switch_server_nrf52832_xxAA_s132_6.0.0.dir/__/__/__/models/foundation/config/src/config_server.c.obj
 *fill*         0x0002fa2a        0x2 
 .text.handle_node_reset
                0x0002fa2c       0x34 examples/light_switch/server/CMakeFiles/light_switch_server_nrf52832_xxAA_s132_6.0.0.dir/__/__/__/models/foundation/config/src/config_server.c.obj
 .text.send_netkey_status
                0x0002fa60       0x2c examples/light_switch/server/CMakeFiles/light_switch_server_nrf52832_xxAA_s132_6.0.0.dir/__/__/__/models/foundation/config/src/config_server.c.obj
 .text.send_relay_status
                0x0002fa8c       0x7e examples/light_switch/server/CMakeFiles/light_switch_server_nrf52832_xxAA_s132_6.0.0.dir/__/__/__/models/foundation/config/src/config_server.c.obj
 .text.handle_config_relay_set
                0x0002fb0a       0x9a examples/light_switch/server/CMakeFiles/light_switch_server_nrf52832_xxAA_s132_6.0.0.dir/__/__/__/models/foundation/config/src/config_server.c.obj
 .text.handle_config_relay_get
                0x0002fba4        0xa examples/light_switch/server/CMakeFiles/light_switch_server_nrf52832_xxAA_s132_6.0.0.dir/__/__/__/models/foundation/config/src/config_server.c.obj
 .text.send_subscription_status
                0x0002fbae       0x42 examples/light_switch/server/CMakeFiles/light_switch_server_nrf52832_xxAA_s132_6.0.0.dir/__/__/__/models/foundation/config/src/config_server.c.obj
 .text.send_appkey_status
                0x0002fbf0       0x3a examples/light_switch/server/CMakeFiles/light_switch_server_nrf52832_xxAA_s132_6.0.0.dir/__/__/__/models/foundation/config/src/config_server.c.obj
 .text.handle_netkey_get
                0x0002fc2a       0x50 examples/light_switch/server/CMakeFiles/light_switch_server_nrf52832_xxAA_s132_6.0.0.dir/__/__/__/models/foundation/config/src/config_server.c.obj
 .text.handle_netkey_delete
                0x0002fc7a       0xbc examples/light_switch/server/CMakeFiles/light_switch_server_nrf52832_xxAA_s132_6.0.0.dir/__/__/__/models/foundation/config/src/config_server.c.obj
 *fill*         0x0002fd36        0x2 
 .text.handle_netkey_add_update
                0x0002fd38       0x78 examples/light_switch/server/CMakeFiles/light_switch_server_nrf52832_xxAA_s132_6.0.0.dir/__/__/__/models/foundation/config/src/config_server.c.obj
 .text.status_error_sub_send
                0x0002fdb0      0x124 examples/light_switch/server/CMakeFiles/light_switch_server_nrf52832_xxAA_s132_6.0.0.dir/__/__/__/models/foundation/config/src/config_server.c.obj
 .text.delete_all_subscriptions
                0x0002fed4       0x66 examples/light_switch/server/CMakeFiles/light_switch_server_nrf52832_xxAA_s132_6.0.0.dir/__/__/__/models/foundation/config/src/config_server.c.obj
 .text.send_publication_status
                0x0002ff3a      0x170 examples/light_switch/server/CMakeFiles/light_switch_server_nrf52832_xxAA_s132_6.0.0.dir/__/__/__/models/foundation/config/src/config_server.c.obj
 .text.handle_config_key_refresh_phase_set
                0x000300aa       0xc8 examples/light_switch/server/CMakeFiles/light_switch_server_nrf52832_xxAA_s132_6.0.0.dir/__/__/__/models/foundation/config/src/config_server.c.obj
 .text.handle_config_default_ttl_set
                0x00030172       0x50 examples/light_switch/server/CMakeFiles/light_switch_server_nrf52832_xxAA_s132_6.0.0.dir/__/__/__/models/foundation/config/src/config_server.c.obj
 .text.send_net_beacon_state
                0x000301c2       0x2c examples/light_switch/server/CMakeFiles/light_switch_server_nrf52832_xxAA_s132_6.0.0.dir/__/__/__/models/foundation/config/src/config_server.c.obj
 .text.handle_config_beacon_get
                0x000301ee        0xa examples/light_switch/server/CMakeFiles/light_switch_server_nrf52832_xxAA_s132_6.0.0.dir/__/__/__/models/foundation/config/src/config_server.c.obj
 .text.handle_heartbeat_publication_set
                0x000301f8      0x136 examples/light_switch/server/CMakeFiles/light_switch_server_nrf52832_xxAA_s132_6.0.0.dir/__/__/__/models/foundation/config/src/config_server.c.obj
 *fill*         0x0003032e        0x2 
 .text.mesh_event_cb
                0x00030330       0x70 examples/light_switch/server/CMakeFiles/light_switch_server_nrf52832_xxAA_s132_6.0.0.dir/__/__/__/models/foundation/config/src/config_server.c.obj
 .text.handle_node_identity_set
                0x000303a0       0x3e examples/light_switch/server/CMakeFiles/light_switch_server_nrf52832_xxAA_s132_6.0.0.dir/__/__/__/models/foundation/config/src/config_server.c.obj
 .text.handle_node_identity_get
                0x000303de       0x3c examples/light_switch/server/CMakeFiles/light_switch_server_nrf52832_xxAA_s132_6.0.0.dir/__/__/__/models/foundation/config/src/config_server.c.obj
 .text.handle_config_gatt_proxy_get.part.8
                0x0003041a       0x2a examples/light_switch/server/CMakeFiles/light_switch_server_nrf52832_xxAA_s132_6.0.0.dir/__/__/__/models/foundation/config/src/config_server.c.obj
 .text.handle_config_gatt_proxy_set
                0x00030444       0x14 examples/light_switch/server/CMakeFiles/light_switch_server_nrf52832_xxAA_s132_6.0.0.dir/__/__/__/models/foundation/config/src/config_server.c.obj
 .text.handle_config_gatt_proxy_get
                0x00030458        0xa examples/light_switch/server/CMakeFiles/light_switch_server_nrf52832_xxAA_s132_6.0.0.dir/__/__/__/models/foundation/config/src/config_server.c.obj
 .text.handle_config_friend_get.part.10
                0x00030462       0x2a examples/light_switch/server/CMakeFiles/light_switch_server_nrf52832_xxAA_s132_6.0.0.dir/__/__/__/models/foundation/config/src/config_server.c.obj
 .text.handle_config_friend_set
                0x0003048c       0x14 examples/light_switch/server/CMakeFiles/light_switch_server_nrf52832_xxAA_s132_6.0.0.dir/__/__/__/models/foundation/config/src/config_server.c.obj
 .text.handle_config_friend_get
                0x000304a0        0xa examples/light_switch/server/CMakeFiles/light_switch_server_nrf52832_xxAA_s132_6.0.0.dir/__/__/__/models/foundation/config/src/config_server.c.obj
 .text.status_error_pub_send
                0x000304aa       0x9c examples/light_switch/server/CMakeFiles/light_switch_server_nrf52832_xxAA_s132_6.0.0.dir/__/__/__/models/foundation/config/src/config_server.c.obj
 .text.handle_config_key_refresh_phase_get
                0x00030546       0x58 examples/light_switch/server/CMakeFiles/light_switch_server_nrf52832_xxAA_s132_6.0.0.dir/__/__/__/models/foundation/config/src/config_server.c.obj
 .text.handle_config_default_ttl_get
                0x0003059e       0x30 examples/light_switch/server/CMakeFiles/light_switch_server_nrf52832_xxAA_s132_6.0.0.dir/__/__/__/models/foundation/config/src/config_server.c.obj
 .text.handle_config_beacon_set
                0x000305ce       0x42 examples/light_switch/server/CMakeFiles/light_switch_server_nrf52832_xxAA_s132_6.0.0.dir/__/__/__/models/foundation/config/src/config_server.c.obj
 .text.handle_composition_data_get
                0x00030610       0x50 examples/light_switch/server/CMakeFiles/light_switch_server_nrf52832_xxAA_s132_6.0.0.dir/__/__/__/models/foundation/config/src/config_server.c.obj
 .text.handle_appkey_delete
                0x00030660       0xc2 examples/light_switch/server/CMakeFiles/light_switch_server_nrf52832_xxAA_s132_6.0.0.dir/__/__/__/models/foundation/config/src/config_server.c.obj
 .text.get_subscription_list.constprop.24
                0x00030722       0x50 examples/light_switch/server/CMakeFiles/light_switch_server_nrf52832_xxAA_s132_6.0.0.dir/__/__/__/models/foundation/config/src/config_server.c.obj
 .text.handle_appkey_get
                0x00030772       0xb8 examples/light_switch/server/CMakeFiles/light_switch_server_nrf52832_xxAA_s132_6.0.0.dir/__/__/__/models/foundation/config/src/config_server.c.obj
 .text.heartbeat_subscription_count_encode
                0x0003082a       0x26 examples/light_switch/server/CMakeFiles/light_switch_server_nrf52832_xxAA_s132_6.0.0.dir/__/__/__/models/foundation/config/src/config_server.c.obj
 .text.handle_appkey_add
                0x00030850       0xba examples/light_switch/server/CMakeFiles/light_switch_server_nrf52832_xxAA_s132_6.0.0.dir/__/__/__/models/foundation/config/src/config_server.c.obj
 .text.handle_appkey_update
                0x0003090a       0xbc examples/light_switch/server/CMakeFiles/light_switch_server_nrf52832_xxAA_s132_6.0.0.dir/__/__/__/models/foundation/config/src/config_server.c.obj
 .text.heartbeat_pubsub_period_encode
                0x000309c6       0x26 examples/light_switch/server/CMakeFiles/light_switch_server_nrf52832_xxAA_s132_6.0.0.dir/__/__/__/models/foundation/config/src/config_server.c.obj
 .text.handle_heartbeat_publication_get
                0x000309ec       0x7e examples/light_switch/server/CMakeFiles/light_switch_server_nrf52832_xxAA_s132_6.0.0.dir/__/__/__/models/foundation/config/src/config_server.c.obj
 .text.handle_heartbeat_subscription_get
                0x00030a6a       0x84 examples/light_switch/server/CMakeFiles/light_switch_server_nrf52832_xxAA_s132_6.0.0.dir/__/__/__/models/foundation/config/src/config_server.c.obj
 .text.handle_heartbeat_subscription_set
                0x00030aee       0xa8 examples/light_switch/server/CMakeFiles/light_switch_server_nrf52832_xxAA_s132_6.0.0.dir/__/__/__/models/foundation/config/src/config_server.c.obj
 .text.handle_config_model_publication_get
                0x00030b96       0x94 examples/light_switch/server/CMakeFiles/light_switch_server_nrf52832_xxAA_s132_6.0.0.dir/__/__/__/models/foundation/config/src/config_server.c.obj
 .text.handle_config_model_subscription_delete_all
                0x00030c2a       0xca examples/light_switch/server/CMakeFiles/light_switch_server_nrf52832_xxAA_s132_6.0.0.dir/__/__/__/models/foundation/config/src/config_server.c.obj
 .text.handle_config_sig_model_subscription_get
                0x00030cf4       0xc2 examples/light_switch/server/CMakeFiles/light_switch_server_nrf52832_xxAA_s132_6.0.0.dir/__/__/__/models/foundation/config/src/config_server.c.obj
 .text.handle_config_vendor_model_subscription_get
                0x00030db6      0x100 examples/light_switch/server/CMakeFiles/light_switch_server_nrf52832_xxAA_s132_6.0.0.dir/__/__/__/models/foundation/config/src/config_server.c.obj
 .text.handle_config_model_subscription_virtual_address_delete
                0x00030eb6      0x110 examples/light_switch/server/CMakeFiles/light_switch_server_nrf52832_xxAA_s132_6.0.0.dir/__/__/__/models/foundation/config/src/config_server.c.obj
 .text.handle_config_model_subscription_virtual_address_add
                0x00030fc6      0x10e examples/light_switch/server/CMakeFiles/light_switch_server_nrf52832_xxAA_s132_6.0.0.dir/__/__/__/models/foundation/config/src/config_server.c.obj
 .text.handle_config_model_subscription_delete
                0x000310d4      0x116 examples/light_switch/server/CMakeFiles/light_switch_server_nrf52832_xxAA_s132_6.0.0.dir/__/__/__/models/foundation/config/src/config_server.c.obj
 .text.handle_config_model_subscription_add
                0x000311ea      0x114 examples/light_switch/server/CMakeFiles/light_switch_server_nrf52832_xxAA_s132_6.0.0.dir/__/__/__/models/foundation/config/src/config_server.c.obj
 .text.handle_config_model_subscription_virtual_address_overwrite
                0x000312fe      0x128 examples/light_switch/server/CMakeFiles/light_switch_server_nrf52832_xxAA_s132_6.0.0.dir/__/__/__/models/foundation/config/src/config_server.c.obj
 .text.handle_model_app_get
                0x00031426      0x1a4 examples/light_switch/server/CMakeFiles/light_switch_server_nrf52832_xxAA_s132_6.0.0.dir/__/__/__/models/foundation/config/src/config_server.c.obj
 .text.handle_config_model_subscription_overwrite
                0x000315ca      0x122 examples/light_switch/server/CMakeFiles/light_switch_server_nrf52832_xxAA_s132_6.0.0.dir/__/__/__/models/foundation/config/src/config_server.c.obj
 .text.handle_model_app_bind_unbind
                0x000316ec      0x17a examples/light_switch/server/CMakeFiles/light_switch_server_nrf52832_xxAA_s132_6.0.0.dir/__/__/__/models/foundation/config/src/config_server.c.obj
 .text.handle_config_model_publication_set
                0x00031866      0x2c6 examples/light_switch/server/CMakeFiles/light_switch_server_nrf52832_xxAA_s132_6.0.0.dir/__/__/__/models/foundation/config/src/config_server.c.obj
 .text.config_server_init
                0x00031b2c       0x60 examples/light_switch/server/CMakeFiles/light_switch_server_nrf52832_xxAA_s132_6.0.0.dir/__/__/__/models/foundation/config/src/config_server.c.obj
                0x00031b2c                config_server_init
 .text.config_server_bind
                0x00031b8c       0x10 examples/light_switch/server/CMakeFiles/light_switch_server_nrf52832_xxAA_s132_6.0.0.dir/__/__/__/models/foundation/config/src/config_server.c.obj
                0x00031b8c                config_server_bind
 .text.packed_index_list_create
                0x00031b9c       0x32 examples/light_switch/server/CMakeFiles/light_switch_server_nrf52832_xxAA_s132_6.0.0.dir/__/__/__/models/foundation/config/src/packed_index_list.c.obj
                0x00031b9c                packed_index_list_create
 *fill*         0x00031bce        0x2 
 .text.attention_timer_set
                0x00031bd0       0x8c examples/light_switch/server/CMakeFiles/light_switch_server_nrf52832_xxAA_s132_6.0.0.dir/__/__/__/models/foundation/health/src/health_server.c.obj
 .text.attention_timer_handler
                0x00031c5c       0x5c examples/light_switch/server/CMakeFiles/light_switch_server_nrf52832_xxAA_s132_6.0.0.dir/__/__/__/models/foundation/health/src/health_server.c.obj
 .text.send_attention_status
                0x00031cb8       0x4a examples/light_switch/server/CMakeFiles/light_switch_server_nrf52832_xxAA_s132_6.0.0.dir/__/__/__/models/foundation/health/src/health_server.c.obj
 .text.handle_attention_get
                0x00031d02        0xc examples/light_switch/server/CMakeFiles/light_switch_server_nrf52832_xxAA_s132_6.0.0.dir/__/__/__/models/foundation/health/src/health_server.c.obj
 .text.send_period_status
                0x00031d0e       0x48 examples/light_switch/server/CMakeFiles/light_switch_server_nrf52832_xxAA_s132_6.0.0.dir/__/__/__/models/foundation/health/src/health_server.c.obj
 .text.handle_period_get
                0x00031d56        0xc examples/light_switch/server/CMakeFiles/light_switch_server_nrf52832_xxAA_s132_6.0.0.dir/__/__/__/models/foundation/health/src/health_server.c.obj
 .text.handle_attention_set
                0x00031d62       0x2e examples/light_switch/server/CMakeFiles/light_switch_server_nrf52832_xxAA_s132_6.0.0.dir/__/__/__/models/foundation/health/src/health_server.c.obj
 .text.handle_period_set
                0x00031d90       0x22 examples/light_switch/server/CMakeFiles/light_switch_server_nrf52832_xxAA_s132_6.0.0.dir/__/__/__/models/foundation/health/src/health_server.c.obj
 *fill*         0x00031db2        0x2 
 .text.bitfield_next_get.part.0.constprop.9
                0x00031db4       0x44 examples/light_switch/server/CMakeFiles/light_switch_server_nrf52832_xxAA_s132_6.0.0.dir/__/__/__/models/foundation/health/src/health_server.c.obj
 .text.bitfield_popcount.constprop.7
                0x00031df8       0x28 examples/light_switch/server/CMakeFiles/light_switch_server_nrf52832_xxAA_s132_6.0.0.dir/__/__/__/models/foundation/health/src/health_server.c.obj
 .text.send_fault_status
                0x00031e20       0xa8 examples/light_switch/server/CMakeFiles/light_switch_server_nrf52832_xxAA_s132_6.0.0.dir/__/__/__/models/foundation/health/src/health_server.c.obj
 .text.health_publish_timeout_handler
                0x00031ec8        0xa examples/light_switch/server/CMakeFiles/light_switch_server_nrf52832_xxAA_s132_6.0.0.dir/__/__/__/models/foundation/health/src/health_server.c.obj
 .text.handle_fault_test
                0x00031ed2       0x68 examples/light_switch/server/CMakeFiles/light_switch_server_nrf52832_xxAA_s132_6.0.0.dir/__/__/__/models/foundation/health/src/health_server.c.obj
 .text.handle_fault_get
                0x00031f3a       0x32 examples/light_switch/server/CMakeFiles/light_switch_server_nrf52832_xxAA_s132_6.0.0.dir/__/__/__/models/foundation/health/src/health_server.c.obj
 .text.handle_fault_clear
                0x00031f6c       0x48 examples/light_switch/server/CMakeFiles/light_switch_server_nrf52832_xxAA_s132_6.0.0.dir/__/__/__/models/foundation/health/src/health_server.c.obj
 .text.health_server_init
                0x00031fb4       0x6c examples/light_switch/server/CMakeFiles/light_switch_server_nrf52832_xxAA_s132_6.0.0.dir/__/__/__/models/foundation/health/src/health_server.c.obj
                0x00031fb4                health_server_init
 .text.status_send
                0x00032020       0x8c examples/light_switch/server/CMakeFiles/light_switch_server_nrf52832_xxAA_s132_6.0.0.dir/__/__/__/models/model_spec/generic_onoff/src/generic_onoff_server.c.obj
 .text.periodic_publish_cb
                0x000320ac       0x24 examples/light_switch/server/CMakeFiles/light_switch_server_nrf52832_xxAA_s132_6.0.0.dir/__/__/__/models/model_spec/generic_onoff/src/generic_onoff_server.c.obj
 .text.handle_get
                0x000320d0       0x2a examples/light_switch/server/CMakeFiles/light_switch_server_nrf52832_xxAA_s132_6.0.0.dir/__/__/__/models/model_spec/generic_onoff/src/generic_onoff_server.c.obj
 .text.handle_set
                0x000320fa       0xae examples/light_switch/server/CMakeFiles/light_switch_server_nrf52832_xxAA_s132_6.0.0.dir/__/__/__/models/model_spec/generic_onoff/src/generic_onoff_server.c.obj
 .text.generic_onoff_server_init
                0x000321a8       0x58 examples/light_switch/server/CMakeFiles/light_switch_server_nrf52832_xxAA_s132_6.0.0.dir/__/__/__/models/model_spec/generic_onoff/src/generic_onoff_server.c.obj
                0x000321a8                generic_onoff_server_init
 .text.generic_onoff_server_status_publish
                0x00032200       0x10 examples/light_switch/server/CMakeFiles/light_switch_server_nrf52832_xxAA_s132_6.0.0.dir/__/__/__/models/model_spec/generic_onoff/src/generic_onoff_server.c.obj
                0x00032200                generic_onoff_server_status_publish
 .text.model_tid_timer_cb
                0x00032210        0x6 examples/light_switch/server/CMakeFiles/light_switch_server_nrf52832_xxAA_s132_6.0.0.dir/__/__/__/models/model_spec/common/src/model_common.c.obj
 *fill*         0x00032216        0x2 
 .text.model_tid_validate
                0x00032218       0x5c examples/light_switch/server/CMakeFiles/light_switch_server_nrf52832_xxAA_s132_6.0.0.dir/__/__/__/models/model_spec/common/src/model_common.c.obj
                0x00032218                model_tid_validate
 .text.model_transition_time_decode
                0x00032274       0x3c examples/light_switch/server/CMakeFiles/light_switch_server_nrf52832_xxAA_s132_6.0.0.dir/__/__/__/models/model_spec/common/src/model_common.c.obj
                0x00032274                model_transition_time_decode
 .text.model_transition_time_encode
                0x000322b0       0x60 examples/light_switch/server/CMakeFiles/light_switch_server_nrf52832_xxAA_s132_6.0.0.dir/__/__/__/models/model_spec/common/src/model_common.c.obj
                0x000322b0                model_transition_time_encode
 .text.model_transition_time_is_valid
                0x00032310        0xc examples/light_switch/server/CMakeFiles/light_switch_server_nrf52832_xxAA_s132_6.0.0.dir/__/__/__/models/model_spec/common/src/model_common.c.obj
                0x00032310                model_transition_time_is_valid
 .text.model_delay_decode
                0x0003231c        0x6 examples/light_switch/server/CMakeFiles/light_switch_server_nrf52832_xxAA_s132_6.0.0.dir/__/__/__/models/model_spec/common/src/model_common.c.obj
                0x0003231c                model_delay_decode
 *fill*         0x00032322        0x2 
 .text.add_to_publication_list
                0x00032324       0x78 examples/light_switch/server/CMakeFiles/light_switch_server_nrf52832_xxAA_s132_6.0.0.dir/__/__/__/mesh/access/src/access_publish.c.obj
 .text.step_resolution_to_us
                0x0003239c       0x38 examples/light_switch/server/CMakeFiles/light_switch_server_nrf52832_xxAA_s132_6.0.0.dir/__/__/__/mesh/access/src/access_publish.c.obj
 .text.schedule_publication_timer
                0x000323d4      0x184 examples/light_switch/server/CMakeFiles/light_switch_server_nrf52832_xxAA_s132_6.0.0.dir/__/__/__/mesh/access/src/access_publish.c.obj
 .text.publish_timer_tick
                0x00032558       0xa8 examples/light_switch/server/CMakeFiles/light_switch_server_nrf52832_xxAA_s132_6.0.0.dir/__/__/__/mesh/access/src/access_publish.c.obj
 .text.access_publish_init
                0x00032600       0x38 examples/light_switch/server/CMakeFiles/light_switch_server_nrf52832_xxAA_s132_6.0.0.dir/__/__/__/mesh/access/src/access_publish.c.obj
                0x00032600                access_publish_init
 .text.access_publish_period_set
                0x00032638       0x60 examples/light_switch/server/CMakeFiles/light_switch_server_nrf52832_xxAA_s132_6.0.0.dir/__/__/__/mesh/access/src/access_publish.c.obj
                0x00032638                access_publish_period_set
 .text.access_publish_period_get
                0x00032698       0x22 examples/light_switch/server/CMakeFiles/light_switch_server_nrf52832_xxAA_s132_6.0.0.dir/__/__/__/mesh/access/src/access_publish.c.obj
                0x00032698                access_publish_period_get
 .text.bitfield_get
                0x000326ba       0x1a examples/light_switch/server/CMakeFiles/light_switch_server_nrf52832_xxAA_s132_6.0.0.dir/__/__/__/mesh/access/src/access.c.obj
 .text.is_valid_opcode
                0x000326d4       0x42 examples/light_switch/server/CMakeFiles/light_switch_server_nrf52832_xxAA_s132_6.0.0.dir/__/__/__/mesh/access/src/access.c.obj
 *fill*         0x00032716        0x2 
 .text.model_handle_valid_and_allocated
                0x00032718       0x20 examples/light_switch/server/CMakeFiles/light_switch_server_nrf52832_xxAA_s132_6.0.0.dir/__/__/__/mesh/access/src/access.c.obj
 .text.flash_manager_mem_available
                0x00032738        0x2 examples/light_switch/server/CMakeFiles/light_switch_server_nrf52832_xxAA_s132_6.0.0.dir/__/__/__/mesh/access/src/access.c.obj
 *fill*         0x0003273a        0x2 
 .text.restore_acquired_subscription
                0x0003273c       0x24 examples/light_switch/server/CMakeFiles/light_switch_server_nrf52832_xxAA_s132_6.0.0.dir/__/__/__/mesh/access/src/access.c.obj
 .text.restore_acquired_element
                0x00032760       0x1c examples/light_switch/server/CMakeFiles/light_switch_server_nrf52832_xxAA_s132_6.0.0.dir/__/__/__/mesh/access/src/access.c.obj
 .text.restore_flash_data
                0x0003277c       0x50 examples/light_switch/server/CMakeFiles/light_switch_server_nrf52832_xxAA_s132_6.0.0.dir/__/__/__/mesh/access/src/access.c.obj
 .text.flash_invalidate_complete
                0x000327cc        0x6 examples/light_switch/server/CMakeFiles/light_switch_server_nrf52832_xxAA_s132_6.0.0.dir/__/__/__/mesh/access/src/access.c.obj
 *fill*         0x000327d2        0x2 
 .text.access_flash_config_clear
                0x000327d4       0x28 examples/light_switch/server/CMakeFiles/light_switch_server_nrf52832_xxAA_s132_6.0.0.dir/__/__/__/mesh/access/src/access.c.obj
 .text.access_flash_config_store
                0x000327fc      0x114 examples/light_switch/server/CMakeFiles/light_switch_server_nrf52832_xxAA_s132_6.0.0.dir/__/__/__/mesh/access/src/access.c.obj
                0x000327fc                access_flash_config_store
 .text.access_state_clear
                0x00032910       0x48 examples/light_switch/server/CMakeFiles/light_switch_server_nrf52832_xxAA_s132_6.0.0.dir/__/__/__/mesh/access/src/access.c.obj
 .text.flash_write_complete
                0x00032958       0x46 examples/light_switch/server/CMakeFiles/light_switch_server_nrf52832_xxAA_s132_6.0.0.dir/__/__/__/mesh/access/src/access.c.obj
 *fill*         0x0003299e        0x2 
 .text.unlikely.bitfield_next_get.part.0.constprop.5
                0x000329a0       0x34 examples/light_switch/server/CMakeFiles/light_switch_server_nrf52832_xxAA_s132_6.0.0.dir/__/__/__/mesh/access/src/access.c.obj
 .text.packet_tx
                0x000329d4      0x31c examples/light_switch/server/CMakeFiles/light_switch_server_nrf52832_xxAA_s132_6.0.0.dir/__/__/__/mesh/access/src/access.c.obj
 .text.restore_acquired_model
                0x00032cf0       0x84 examples/light_switch/server/CMakeFiles/light_switch_server_nrf52832_xxAA_s132_6.0.0.dir/__/__/__/mesh/access/src/access.c.obj
 .text.access_flash_config_load
                0x00032d74      0x118 examples/light_switch/server/CMakeFiles/light_switch_server_nrf52832_xxAA_s132_6.0.0.dir/__/__/__/mesh/access/src/access.c.obj
                0x00032d74                access_flash_config_load
 .text.access_incoming_handle
                0x00032e8c      0x100 examples/light_switch/server/CMakeFiles/light_switch_server_nrf52832_xxAA_s132_6.0.0.dir/__/__/__/mesh/access/src/access.c.obj
                0x00032e8c                access_incoming_handle
 .text.mesh_evt_cb
                0x00032f8c      0x134 examples/light_switch/server/CMakeFiles/light_switch_server_nrf52832_xxAA_s132_6.0.0.dir/__/__/__/mesh/access/src/access.c.obj
 .text.access_clear
                0x000330c0       0x12 examples/light_switch/server/CMakeFiles/light_switch_server_nrf52832_xxAA_s132_6.0.0.dir/__/__/__/mesh/access/src/access.c.obj
                0x000330c0                access_clear
 *fill*         0x000330d2        0x2 
 .text.access_model_add
                0x000330d4      0x1b8 examples/light_switch/server/CMakeFiles/light_switch_server_nrf52832_xxAA_s132_6.0.0.dir/__/__/__/mesh/access/src/access.c.obj
                0x000330d4                access_model_add
 .text.access_model_publish
                0x0003328c        0xc examples/light_switch/server/CMakeFiles/light_switch_server_nrf52832_xxAA_s132_6.0.0.dir/__/__/__/mesh/access/src/access.c.obj
                0x0003328c                access_model_publish
 .text.access_model_reply
                0x00033298       0x12 examples/light_switch/server/CMakeFiles/light_switch_server_nrf52832_xxAA_s132_6.0.0.dir/__/__/__/mesh/access/src/access.c.obj
                0x00033298                access_model_reply
 *fill*         0x000332aa        0x2 
 .text.access_model_publish_address_set
                0x000332ac       0x3c examples/light_switch/server/CMakeFiles/light_switch_server_nrf52832_xxAA_s132_6.0.0.dir/__/__/__/mesh/access/src/access.c.obj
                0x000332ac                access_model_publish_address_set
 .text.access_model_publish_address_get
                0x000332e8       0x28 examples/light_switch/server/CMakeFiles/light_switch_server_nrf52832_xxAA_s132_6.0.0.dir/__/__/__/mesh/access/src/access.c.obj
                0x000332e8                access_model_publish_address_get
 .text.access_model_publish_retransmit_set
                0x00033310       0x4c examples/light_switch/server/CMakeFiles/light_switch_server_nrf52832_xxAA_s132_6.0.0.dir/__/__/__/mesh/access/src/access.c.obj
                0x00033310                access_model_publish_retransmit_set
 .text.access_model_publish_retransmit_get
                0x0003335c       0x2c examples/light_switch/server/CMakeFiles/light_switch_server_nrf52832_xxAA_s132_6.0.0.dir/__/__/__/mesh/access/src/access.c.obj
                0x0003335c                access_model_publish_retransmit_get
 .text.access_model_publish_period_set
                0x00033388       0x6c examples/light_switch/server/CMakeFiles/light_switch_server_nrf52832_xxAA_s132_6.0.0.dir/__/__/__/mesh/access/src/access.c.obj
                0x00033388                access_model_publish_period_set
 .text.access_model_publish_period_get
                0x000333f4       0x3c examples/light_switch/server/CMakeFiles/light_switch_server_nrf52832_xxAA_s132_6.0.0.dir/__/__/__/mesh/access/src/access.c.obj
                0x000333f4                access_model_publish_period_get
 .text.access_model_subscription_list_alloc
                0x00033430       0x40 examples/light_switch/server/CMakeFiles/light_switch_server_nrf52832_xxAA_s132_6.0.0.dir/__/__/__/mesh/access/src/access.c.obj
                0x00033430                access_model_subscription_list_alloc
 .text.access_model_subscription_add
                0x00033470       0x60 examples/light_switch/server/CMakeFiles/light_switch_server_nrf52832_xxAA_s132_6.0.0.dir/__/__/__/mesh/access/src/access.c.obj
                0x00033470                access_model_subscription_add
 .text.access_model_subscription_remove
                0x000334d0       0x60 examples/light_switch/server/CMakeFiles/light_switch_server_nrf52832_xxAA_s132_6.0.0.dir/__/__/__/mesh/access/src/access.c.obj
                0x000334d0                access_model_subscription_remove
 .text.access_model_subscriptions_get
                0x00033530       0x78 examples/light_switch/server/CMakeFiles/light_switch_server_nrf52832_xxAA_s132_6.0.0.dir/__/__/__/mesh/access/src/access.c.obj
                0x00033530                access_model_subscriptions_get
 .text.access_model_application_bind
                0x000335a8       0x50 examples/light_switch/server/CMakeFiles/light_switch_server_nrf52832_xxAA_s132_6.0.0.dir/__/__/__/mesh/access/src/access.c.obj
                0x000335a8                access_model_application_bind
 .text.access_model_application_unbind
                0x000335f8       0x50 examples/light_switch/server/CMakeFiles/light_switch_server_nrf52832_xxAA_s132_6.0.0.dir/__/__/__/mesh/access/src/access.c.obj
                0x000335f8                access_model_application_unbind
 .text.access_model_applications_get
                0x00033648       0x58 examples/light_switch/server/CMakeFiles/light_switch_server_nrf52832_xxAA_s132_6.0.0.dir/__/__/__/mesh/access/src/access.c.obj
                0x00033648                access_model_applications_get
 .text.access_model_publish_application_set
                0x000336a0       0x3c examples/light_switch/server/CMakeFiles/light_switch_server_nrf52832_xxAA_s132_6.0.0.dir/__/__/__/mesh/access/src/access.c.obj
                0x000336a0                access_model_publish_application_set
 .text.access_model_publish_application_get
                0x000336dc       0x28 examples/light_switch/server/CMakeFiles/light_switch_server_nrf52832_xxAA_s132_6.0.0.dir/__/__/__/mesh/access/src/access.c.obj
                0x000336dc                access_model_publish_application_get
 .text.access_default_ttl_set
                0x00033704       0x18 examples/light_switch/server/CMakeFiles/light_switch_server_nrf52832_xxAA_s132_6.0.0.dir/__/__/__/mesh/access/src/access.c.obj
                0x00033704                access_default_ttl_set
 .text.access_default_ttl_get
                0x0003371c        0xc examples/light_switch/server/CMakeFiles/light_switch_server_nrf52832_xxAA_s132_6.0.0.dir/__/__/__/mesh/access/src/access.c.obj
                0x0003371c                access_default_ttl_get
 .text.access_model_publish_ttl_set
                0x00033728       0x40 examples/light_switch/server/CMakeFiles/light_switch_server_nrf52832_xxAA_s132_6.0.0.dir/__/__/__/mesh/access/src/access.c.obj
                0x00033728                access_model_publish_ttl_set
 .text.access_model_publish_ttl_get
                0x00033768       0x28 examples/light_switch/server/CMakeFiles/light_switch_server_nrf52832_xxAA_s132_6.0.0.dir/__/__/__/mesh/access/src/access.c.obj
                0x00033768                access_model_publish_ttl_get
 .text.access_element_location_get
                0x00033790       0x18 examples/light_switch/server/CMakeFiles/light_switch_server_nrf52832_xxAA_s132_6.0.0.dir/__/__/__/mesh/access/src/access.c.obj
                0x00033790                access_element_location_get
 .text.access_element_sig_model_count_get
                0x000337a8       0x18 examples/light_switch/server/CMakeFiles/light_switch_server_nrf52832_xxAA_s132_6.0.0.dir/__/__/__/mesh/access/src/access.c.obj
                0x000337a8                access_element_sig_model_count_get
 .text.access_element_vendor_model_count_get
                0x000337c0       0x18 examples/light_switch/server/CMakeFiles/light_switch_server_nrf52832_xxAA_s132_6.0.0.dir/__/__/__/mesh/access/src/access.c.obj
                0x000337c0                access_element_vendor_model_count_get
 .text.access_model_id_get
                0x000337d8       0x2c examples/light_switch/server/CMakeFiles/light_switch_server_nrf52832_xxAA_s132_6.0.0.dir/__/__/__/mesh/access/src/access.c.obj
                0x000337d8                access_model_id_get
 .text.access_handle_get
                0x00033804       0x4c examples/light_switch/server/CMakeFiles/light_switch_server_nrf52832_xxAA_s132_6.0.0.dir/__/__/__/mesh/access/src/access.c.obj
                0x00033804                access_handle_get
 .text.access_element_models_get
                0x00033850       0x48 examples/light_switch/server/CMakeFiles/light_switch_server_nrf52832_xxAA_s132_6.0.0.dir/__/__/__/mesh/access/src/access.c.obj
                0x00033850                access_element_models_get
 .text.access_model_p_args_get
                0x00033898       0x28 examples/light_switch/server/CMakeFiles/light_switch_server_nrf52832_xxAA_s132_6.0.0.dir/__/__/__/mesh/access/src/access.c.obj
                0x00033898                access_model_p_args_get
 .text.access_model_publication_stop
                0x000338c0       0x74 examples/light_switch/server/CMakeFiles/light_switch_server_nrf52832_xxAA_s132_6.0.0.dir/__/__/__/mesh/access/src/access.c.obj
                0x000338c0                access_model_publication_stop
 .text.access_model_publication_by_appkey_stop
                0x00033934       0x36 examples/light_switch/server/CMakeFiles/light_switch_server_nrf52832_xxAA_s132_6.0.0.dir/__/__/__/mesh/access/src/access.c.obj
                0x00033934                access_model_publication_by_appkey_stop
 .text.access_flash_area_get
                0x0003396a        0xc examples/light_switch/server/CMakeFiles/light_switch_server_nrf52832_xxAA_s132_6.0.0.dir/__/__/__/mesh/access/src/access.c.obj
                0x0003396a                access_flash_area_get
 *fill*         0x00033976        0x2 
 .text.add_flash_manager
                0x00033978       0x54 examples/light_switch/server/CMakeFiles/light_switch_server_nrf52832_xxAA_s132_6.0.0.dir/__/__/__/mesh/access/src/access.c.obj
 .text.access_init
                0x000339cc       0x2c examples/light_switch/server/CMakeFiles/light_switch_server_nrf52832_xxAA_s132_6.0.0.dir/__/__/__/mesh/access/src/access.c.obj
                0x000339cc                access_init
 .text.flash_remove_complete
                0x000339f8       0x4c examples/light_switch/server/CMakeFiles/light_switch_server_nrf52832_xxAA_s132_6.0.0.dir/__/__/__/mesh/access/src/access.c.obj
 .text.reliable_timer_cb
                0x00033a44      0x11c examples/light_switch/server/CMakeFiles/light_switch_server_nrf52832_xxAA_s132_6.0.0.dir/__/__/__/mesh/access/src/access_reliable.c.obj
 .text.remove_and_reschedule
                0x00033b60       0xac examples/light_switch/server/CMakeFiles/light_switch_server_nrf52832_xxAA_s132_6.0.0.dir/__/__/__/mesh/access/src/access_reliable.c.obj
 .text.access_reliable_message_rx_cb
                0x00033c0c       0x68 examples/light_switch/server/CMakeFiles/light_switch_server_nrf52832_xxAA_s132_6.0.0.dir/__/__/__/mesh/access/src/access_reliable.c.obj
                0x00033c0c                access_reliable_message_rx_cb
 .text.access_reliable_init
                0x00033c74       0x1c examples/light_switch/server/CMakeFiles/light_switch_server_nrf52832_xxAA_s132_6.0.0.dir/__/__/__/mesh/access/src/access_reliable.c.obj
                0x00033c74                access_reliable_init
 .text.access_reliable_cancel_all
                0x00033c90       0x60 examples/light_switch/server/CMakeFiles/light_switch_server_nrf52832_xxAA_s132_6.0.0.dir/__/__/__/mesh/access/src/access_reliable.c.obj
                0x00033c90                access_reliable_cancel_all
 .text.access_model_reliable_cancel
                0x00033cf0       0x68 examples/light_switch/server/CMakeFiles/light_switch_server_nrf52832_xxAA_s132_6.0.0.dir/__/__/__/mesh/access/src/access_reliable.c.obj
                0x00033cf0                access_model_reliable_cancel
 .text.access_loopback_process
                0x00033d58       0x28 examples/light_switch/server/CMakeFiles/light_switch_server_nrf52832_xxAA_s132_6.0.0.dir/__/__/__/mesh/access/src/access_loopback.c.obj
 .text.is_access_loopback
                0x00033d80        0x4 examples/light_switch/server/CMakeFiles/light_switch_server_nrf52832_xxAA_s132_6.0.0.dir/__/__/__/mesh/access/src/access_loopback.c.obj
                0x00033d80                is_access_loopback
 .text.access_loopback_init
                0x00033d84       0x18 examples/light_switch/server/CMakeFiles/light_switch_server_nrf52832_xxAA_s132_6.0.0.dir/__/__/__/mesh/access/src/access_loopback.c.obj
                0x00033d84                access_loopback_init
 .text.access_loopback_handle
                0x00033d9c       0x80 examples/light_switch/server/CMakeFiles/light_switch_server_nrf52832_xxAA_s132_6.0.0.dir/__/__/__/mesh/access/src/access_loopback.c.obj
                0x00033d9c                access_loopback_handle
 .text.bitfield_get
                0x00033e1c       0x1a examples/light_switch/server/CMakeFiles/light_switch_server_nrf52832_xxAA_s132_6.0.0.dir/__/__/__/mesh/access/src/device_state_manager.c.obj
 .text.bitfield_set
                0x00033e36       0x18 examples/light_switch/server/CMakeFiles/light_switch_server_nrf52832_xxAA_s132_6.0.0.dir/__/__/__/mesh/access/src/device_state_manager.c.obj
 .text.bitfield_clear
                0x00033e4e       0x1a examples/light_switch/server/CMakeFiles/light_switch_server_nrf52832_xxAA_s132_6.0.0.dir/__/__/__/mesh/access/src/device_state_manager.c.obj
 .text.bitfield_is_all_clear
                0x00033e68       0x3c examples/light_switch/server/CMakeFiles/light_switch_server_nrf52832_xxAA_s132_6.0.0.dir/__/__/__/mesh/access/src/device_state_manager.c.obj
 .text.address_handle_virtual_valid
                0x00033ea4       0x14 examples/light_switch/server/CMakeFiles/light_switch_server_nrf52832_xxAA_s132_6.0.0.dir/__/__/__/mesh/access/src/device_state_manager.c.obj
 .text.net_key_handle_get
                0x00033eb8       0x38 examples/light_switch/server/CMakeFiles/light_switch_server_nrf52832_xxAA_s132_6.0.0.dir/__/__/__/mesh/access/src/device_state_manager.c.obj
 .text.dev_key_handle_get
                0x00033ef0       0x30 examples/light_switch/server/CMakeFiles/light_switch_server_nrf52832_xxAA_s132_6.0.0.dir/__/__/__/mesh/access/src/device_state_manager.c.obj
 .text.app_key_handle_get
                0x00033f20       0x38 examples/light_switch/server/CMakeFiles/light_switch_server_nrf52832_xxAA_s132_6.0.0.dir/__/__/__/mesh/access/src/device_state_manager.c.obj
 .text.addr_nonvirtual_to_flash_entry
                0x00033f58       0x10 examples/light_switch/server/CMakeFiles/light_switch_server_nrf52832_xxAA_s132_6.0.0.dir/__/__/__/mesh/access/src/device_state_manager.c.obj
 .text.devkey_set
                0x00033f68       0x4c examples/light_switch/server/CMakeFiles/light_switch_server_nrf52832_xxAA_s132_6.0.0.dir/__/__/__/mesh/access/src/device_state_manager.c.obj
 .text.devkey_to_dsm_entry
                0x00033fb4       0x16 examples/light_switch/server/CMakeFiles/light_switch_server_nrf52832_xxAA_s132_6.0.0.dir/__/__/__/mesh/access/src/device_state_manager.c.obj
 *fill*         0x00033fca        0x2 
 .text.devkey_to_flash_entry
                0x00033fcc       0x28 examples/light_switch/server/CMakeFiles/light_switch_server_nrf52832_xxAA_s132_6.0.0.dir/__/__/__/mesh/access/src/device_state_manager.c.obj
 .text.addr_virtual_to_flash_entry
                0x00033ff4       0x18 examples/light_switch/server/CMakeFiles/light_switch_server_nrf52832_xxAA_s132_6.0.0.dir/__/__/__/mesh/access/src/device_state_manager.c.obj
 .text.addr_unicast_to_dsm_entry
                0x0003400c        0xc examples/light_switch/server/CMakeFiles/light_switch_server_nrf52832_xxAA_s132_6.0.0.dir/__/__/__/mesh/access/src/device_state_manager.c.obj
 .text.addr_unicast_to_flash_entry
                0x00034018       0x10 examples/light_switch/server/CMakeFiles/light_switch_server_nrf52832_xxAA_s132_6.0.0.dir/__/__/__/mesh/access/src/device_state_manager.c.obj
 .text.flash_mem_listener_callback
                0x00034028       0x14 examples/light_switch/server/CMakeFiles/light_switch_server_nrf52832_xxAA_s132_6.0.0.dir/__/__/__/mesh/access/src/device_state_manager.c.obj
 .text.get_subnet_handle
                0x0003403c       0x34 examples/light_switch/server/CMakeFiles/light_switch_server_nrf52832_xxAA_s132_6.0.0.dir/__/__/__/mesh/access/src/device_state_manager.c.obj
 .text.appkey_set
                0x00034070       0x70 examples/light_switch/server/CMakeFiles/light_switch_server_nrf52832_xxAA_s132_6.0.0.dir/__/__/__/mesh/access/src/device_state_manager.c.obj
 .text.appkey_to_flash_entry
                0x000340e0       0x54 examples/light_switch/server/CMakeFiles/light_switch_server_nrf52832_xxAA_s132_6.0.0.dir/__/__/__/mesh/access/src/device_state_manager.c.obj
 .text.subnet_to_flash_entry
                0x00034134       0x60 examples/light_switch/server/CMakeFiles/light_switch_server_nrf52832_xxAA_s132_6.0.0.dir/__/__/__/mesh/access/src/device_state_manager.c.obj
 .text.bitfield_clear_all
                0x00034194        0xe examples/light_switch/server/CMakeFiles/light_switch_server_nrf52832_xxAA_s132_6.0.0.dir/__/__/__/mesh/access/src/device_state_manager.c.obj
 *fill*         0x000341a2        0x2 
 .text.subnet_set
                0x000341a4       0x98 examples/light_switch/server/CMakeFiles/light_switch_server_nrf52832_xxAA_s132_6.0.0.dir/__/__/__/mesh/access/src/device_state_manager.c.obj
 .text.virtual_address_set
                0x0003423c       0x48 examples/light_switch/server/CMakeFiles/light_switch_server_nrf52832_xxAA_s132_6.0.0.dir/__/__/__/mesh/access/src/device_state_manager.c.obj
 .text.addr_virtual_to_dsm_entry
                0x00034284        0xc examples/light_switch/server/CMakeFiles/light_switch_server_nrf52832_xxAA_s132_6.0.0.dir/__/__/__/mesh/access/src/device_state_manager.c.obj
 .text.reset_flash_area
                0x00034290       0x28 examples/light_switch/server/CMakeFiles/light_switch_server_nrf52832_xxAA_s132_6.0.0.dir/__/__/__/mesh/access/src/device_state_manager.c.obj
 .text.flash_save
                0x000342b8       0x7c examples/light_switch/server/CMakeFiles/light_switch_server_nrf52832_xxAA_s132_6.0.0.dir/__/__/__/mesh/access/src/device_state_manager.c.obj
 .text.flash_invalidate
                0x00034334       0x64 examples/light_switch/server/CMakeFiles/light_switch_server_nrf52832_xxAA_s132_6.0.0.dir/__/__/__/mesh/access/src/device_state_manager.c.obj
 .text.flash_update_all
                0x00034398       0x6c examples/light_switch/server/CMakeFiles/light_switch_server_nrf52832_xxAA_s132_6.0.0.dir/__/__/__/mesh/access/src/device_state_manager.c.obj
 .text.virtual_address_uuid_index_get
                0x00034404       0x3c examples/light_switch/server/CMakeFiles/light_switch_server_nrf52832_xxAA_s132_6.0.0.dir/__/__/__/mesh/access/src/device_state_manager.c.obj
 .text.add_address_virtual
                0x00034440       0x70 examples/light_switch/server/CMakeFiles/light_switch_server_nrf52832_xxAA_s132_6.0.0.dir/__/__/__/mesh/access/src/device_state_manager.c.obj
 .text.get_subnet_handle_by_beacon_info
                0x000344b0       0x24 examples/light_switch/server/CMakeFiles/light_switch_server_nrf52832_xxAA_s132_6.0.0.dir/__/__/__/mesh/access/src/device_state_manager.c.obj
 .text.get_app_handle
                0x000344d4       0x34 examples/light_switch/server/CMakeFiles/light_switch_server_nrf52832_xxAA_s132_6.0.0.dir/__/__/__/mesh/access/src/device_state_manager.c.obj
 .text.appkey_to_dsm_entry
                0x00034508       0x68 examples/light_switch/server/CMakeFiles/light_switch_server_nrf52832_xxAA_s132_6.0.0.dir/__/__/__/mesh/access/src/device_state_manager.c.obj
 .text.subnet_to_dsm_entry
                0x00034570       0x68 examples/light_switch/server/CMakeFiles/light_switch_server_nrf52832_xxAA_s132_6.0.0.dir/__/__/__/mesh/access/src/device_state_manager.c.obj
 .text.flash_operation_complete
                0x000345d8       0x4c examples/light_switch/server/CMakeFiles/light_switch_server_nrf52832_xxAA_s132_6.0.0.dir/__/__/__/mesh/access/src/device_state_manager.c.obj
 .text.flash_invalidate_complete
                0x00034624        0x8 examples/light_switch/server/CMakeFiles/light_switch_server_nrf52832_xxAA_s132_6.0.0.dir/__/__/__/mesh/access/src/device_state_manager.c.obj
 .text.flash_write_complete
                0x0003462c        0x8 examples/light_switch/server/CMakeFiles/light_switch_server_nrf52832_xxAA_s132_6.0.0.dir/__/__/__/mesh/access/src/device_state_manager.c.obj
 .text.add_address.part.8
                0x00034634      0x144 examples/light_switch/server/CMakeFiles/light_switch_server_nrf52832_xxAA_s132_6.0.0.dir/__/__/__/mesh/access/src/device_state_manager.c.obj
 .text.bitfield_next_get.part.0.constprop.17
                0x00034778       0x38 examples/light_switch/server/CMakeFiles/light_switch_server_nrf52832_xxAA_s132_6.0.0.dir/__/__/__/mesh/access/src/device_state_manager.c.obj
 .text.address_handle_valid
                0x000347b0       0x28 examples/light_switch/server/CMakeFiles/light_switch_server_nrf52832_xxAA_s132_6.0.0.dir/__/__/__/mesh/access/src/device_state_manager.c.obj
 .text.address_handle_nonvirtual_valid
                0x000347d8       0x14 examples/light_switch/server/CMakeFiles/light_switch_server_nrf52832_xxAA_s132_6.0.0.dir/__/__/__/mesh/access/src/device_state_manager.c.obj
 .text.address_delete_if_unused
                0x000347ec       0x78 examples/light_switch/server/CMakeFiles/light_switch_server_nrf52832_xxAA_s132_6.0.0.dir/__/__/__/mesh/access/src/device_state_manager.c.obj
 .text.addr_nonvirtual_to_dsm_entry
                0x00034864       0x38 examples/light_switch/server/CMakeFiles/light_switch_server_nrf52832_xxAA_s132_6.0.0.dir/__/__/__/mesh/access/src/device_state_manager.c.obj
 .text.dsm_flash_config_load
                0x0003489c      0x120 examples/light_switch/server/CMakeFiles/light_switch_server_nrf52832_xxAA_s132_6.0.0.dir/__/__/__/mesh/access/src/device_state_manager.c.obj
                0x0003489c                dsm_flash_config_load
 .text.dsm_flash_area_get
                0x000349bc        0xc examples/light_switch/server/CMakeFiles/light_switch_server_nrf52832_xxAA_s132_6.0.0.dir/__/__/__/mesh/access/src/device_state_manager.c.obj
                0x000349bc                dsm_flash_area_get
 .text.build_flash_area
                0x000349c8       0x8c examples/light_switch/server/CMakeFiles/light_switch_server_nrf52832_xxAA_s132_6.0.0.dir/__/__/__/mesh/access/src/device_state_manager.c.obj
 .text.flash_remove_complete
                0x00034a54        0x4 examples/light_switch/server/CMakeFiles/light_switch_server_nrf52832_xxAA_s132_6.0.0.dir/__/__/__/mesh/access/src/device_state_manager.c.obj
 .text.dsm_clear
                0x00034a58       0xa4 examples/light_switch/server/CMakeFiles/light_switch_server_nrf52832_xxAA_s132_6.0.0.dir/__/__/__/mesh/access/src/device_state_manager.c.obj
                0x00034a58                dsm_clear
 .text.dsm_init
                0x00034afc       0x3c examples/light_switch/server/CMakeFiles/light_switch_server_nrf52832_xxAA_s132_6.0.0.dir/__/__/__/mesh/access/src/device_state_manager.c.obj
                0x00034afc                dsm_init
 .text.dsm_local_unicast_addresses_set
                0x00034b38       0x78 examples/light_switch/server/CMakeFiles/light_switch_server_nrf52832_xxAA_s132_6.0.0.dir/__/__/__/mesh/access/src/device_state_manager.c.obj
                0x00034b38                dsm_local_unicast_addresses_set
 .text.dsm_local_unicast_addresses_get
                0x00034bb0       0x20 examples/light_switch/server/CMakeFiles/light_switch_server_nrf52832_xxAA_s132_6.0.0.dir/__/__/__/mesh/access/src/device_state_manager.c.obj
                0x00034bb0                dsm_local_unicast_addresses_get
 .text.dsm_address_publish_add
                0x00034bd0        0xc examples/light_switch/server/CMakeFiles/light_switch_server_nrf52832_xxAA_s132_6.0.0.dir/__/__/__/mesh/access/src/device_state_manager.c.obj
                0x00034bd0                dsm_address_publish_add
 .text.dsm_address_publish_add_handle
                0x00034bdc       0x38 examples/light_switch/server/CMakeFiles/light_switch_server_nrf52832_xxAA_s132_6.0.0.dir/__/__/__/mesh/access/src/device_state_manager.c.obj
                0x00034bdc                dsm_address_publish_add_handle
 .text.dsm_address_publish_virtual_add
                0x00034c14        0x6 examples/light_switch/server/CMakeFiles/light_switch_server_nrf52832_xxAA_s132_6.0.0.dir/__/__/__/mesh/access/src/device_state_manager.c.obj
                0x00034c14                dsm_address_publish_virtual_add
 *fill*         0x00034c1a        0x2 
 .text.dsm_address_publish_remove
                0x00034c1c       0x40 examples/light_switch/server/CMakeFiles/light_switch_server_nrf52832_xxAA_s132_6.0.0.dir/__/__/__/mesh/access/src/device_state_manager.c.obj
                0x00034c1c                dsm_address_publish_remove
 .text.dsm_address_subscription_add
                0x00034c5c        0xc examples/light_switch/server/CMakeFiles/light_switch_server_nrf52832_xxAA_s132_6.0.0.dir/__/__/__/mesh/access/src/device_state_manager.c.obj
                0x00034c5c                dsm_address_subscription_add
 .text.dsm_address_subscription_virtual_add
                0x00034c68        0x6 examples/light_switch/server/CMakeFiles/light_switch_server_nrf52832_xxAA_s132_6.0.0.dir/__/__/__/mesh/access/src/device_state_manager.c.obj
                0x00034c68                dsm_address_subscription_virtual_add
 *fill*         0x00034c6e        0x2 
 .text.dsm_address_subscription_add_handle
                0x00034c70       0x38 examples/light_switch/server/CMakeFiles/light_switch_server_nrf52832_xxAA_s132_6.0.0.dir/__/__/__/mesh/access/src/device_state_manager.c.obj
                0x00034c70                dsm_address_subscription_add_handle
 .text.dsm_address_get
                0x00034ca8       0x5c examples/light_switch/server/CMakeFiles/light_switch_server_nrf52832_xxAA_s132_6.0.0.dir/__/__/__/mesh/access/src/device_state_manager.c.obj
                0x00034ca8                dsm_address_get
 .text.dsm_address_subscription_remove
                0x00034d04       0x58 examples/light_switch/server/CMakeFiles/light_switch_server_nrf52832_xxAA_s132_6.0.0.dir/__/__/__/mesh/access/src/device_state_manager.c.obj
                0x00034d04                dsm_address_subscription_remove
 .text.dsm_address_handle_get
                0x00034d5c       0x98 examples/light_switch/server/CMakeFiles/light_switch_server_nrf52832_xxAA_s132_6.0.0.dir/__/__/__/mesh/access/src/device_state_manager.c.obj
                0x00034d5c                dsm_address_handle_get
 .text.dsm_net_key_index_to_subnet_handle
                0x00034df4       0x1c examples/light_switch/server/CMakeFiles/light_switch_server_nrf52832_xxAA_s132_6.0.0.dir/__/__/__/mesh/access/src/device_state_manager.c.obj
                0x00034df4                dsm_net_key_index_to_subnet_handle
 .text.dsm_subnet_handle_get
                0x00034e10        0xc examples/light_switch/server/CMakeFiles/light_switch_server_nrf52832_xxAA_s132_6.0.0.dir/__/__/__/mesh/access/src/device_state_manager.c.obj
                0x00034e10                dsm_subnet_handle_get
 .text.dsm_appkey_index_to_appkey_handle
                0x00034e1c       0x1c examples/light_switch/server/CMakeFiles/light_switch_server_nrf52832_xxAA_s132_6.0.0.dir/__/__/__/mesh/access/src/device_state_manager.c.obj
                0x00034e1c                dsm_appkey_index_to_appkey_handle
 .text.dsm_appkey_handle_get
                0x00034e38        0xc examples/light_switch/server/CMakeFiles/light_switch_server_nrf52832_xxAA_s132_6.0.0.dir/__/__/__/mesh/access/src/device_state_manager.c.obj
                0x00034e38                dsm_appkey_handle_get
 .text.dsm_appkey_handle_to_appkey_index
                0x00034e44       0x30 examples/light_switch/server/CMakeFiles/light_switch_server_nrf52832_xxAA_s132_6.0.0.dir/__/__/__/mesh/access/src/device_state_manager.c.obj
                0x00034e44                dsm_appkey_handle_to_appkey_index
 .text.dsm_appkey_handle_to_subnet_handle
                0x00034e74       0x64 examples/light_switch/server/CMakeFiles/light_switch_server_nrf52832_xxAA_s132_6.0.0.dir/__/__/__/mesh/access/src/device_state_manager.c.obj
                0x00034e74                dsm_appkey_handle_to_subnet_handle
 .text.dsm_subnet_add
                0x00034ed8       0x78 examples/light_switch/server/CMakeFiles/light_switch_server_nrf52832_xxAA_s132_6.0.0.dir/__/__/__/mesh/access/src/device_state_manager.c.obj
                0x00034ed8                dsm_subnet_add
 .text.dsm_subnet_kr_phase_get
                0x00034f50       0x2c examples/light_switch/server/CMakeFiles/light_switch_server_nrf52832_xxAA_s132_6.0.0.dir/__/__/__/mesh/access/src/device_state_manager.c.obj
                0x00034f50                dsm_subnet_kr_phase_get
 .text.dsm_subnet_update
                0x00034f7c       0xa4 examples/light_switch/server/CMakeFiles/light_switch_server_nrf52832_xxAA_s132_6.0.0.dir/__/__/__/mesh/access/src/device_state_manager.c.obj
                0x00034f7c                dsm_subnet_update
 .text.dsm_subnet_update_swap_keys
                0x00035020       0x50 examples/light_switch/server/CMakeFiles/light_switch_server_nrf52832_xxAA_s132_6.0.0.dir/__/__/__/mesh/access/src/device_state_manager.c.obj
                0x00035020                dsm_subnet_update_swap_keys
 .text.dsm_subnet_update_commit
                0x00035070       0xbc examples/light_switch/server/CMakeFiles/light_switch_server_nrf52832_xxAA_s132_6.0.0.dir/__/__/__/mesh/access/src/device_state_manager.c.obj
                0x00035070                dsm_subnet_update_commit
 .text.mesh_evt_handler
                0x0003512c       0x4c examples/light_switch/server/CMakeFiles/light_switch_server_nrf52832_xxAA_s132_6.0.0.dir/__/__/__/mesh/access/src/device_state_manager.c.obj
 .text.dsm_subnet_get_all
                0x00035178       0x3c examples/light_switch/server/CMakeFiles/light_switch_server_nrf52832_xxAA_s132_6.0.0.dir/__/__/__/mesh/access/src/device_state_manager.c.obj
                0x00035178                dsm_subnet_get_all
 .text.dsm_devkey_add
                0x000351b4       0x78 examples/light_switch/server/CMakeFiles/light_switch_server_nrf52832_xxAA_s132_6.0.0.dir/__/__/__/mesh/access/src/device_state_manager.c.obj
                0x000351b4                dsm_devkey_add
 .text.dsm_appkey_add
                0x0003522c       0x7c examples/light_switch/server/CMakeFiles/light_switch_server_nrf52832_xxAA_s132_6.0.0.dir/__/__/__/mesh/access/src/device_state_manager.c.obj
                0x0003522c                dsm_appkey_add
 .text.dsm_appkey_update
                0x000352a8       0x90 examples/light_switch/server/CMakeFiles/light_switch_server_nrf52832_xxAA_s132_6.0.0.dir/__/__/__/mesh/access/src/device_state_manager.c.obj
                0x000352a8                dsm_appkey_update
 .text.dsm_appkey_delete
                0x00035338       0x2c examples/light_switch/server/CMakeFiles/light_switch_server_nrf52832_xxAA_s132_6.0.0.dir/__/__/__/mesh/access/src/device_state_manager.c.obj
                0x00035338                dsm_appkey_delete
 .text.dsm_subnet_delete
                0x00035364       0x84 examples/light_switch/server/CMakeFiles/light_switch_server_nrf52832_xxAA_s132_6.0.0.dir/__/__/__/mesh/access/src/device_state_manager.c.obj
                0x00035364                dsm_subnet_delete
 .text.dsm_appkey_get_all
                0x000353e8       0x58 examples/light_switch/server/CMakeFiles/light_switch_server_nrf52832_xxAA_s132_6.0.0.dir/__/__/__/mesh/access/src/device_state_manager.c.obj
                0x000353e8                dsm_appkey_get_all
 .text.dsm_tx_secmat_get
                0x00035440       0xa4 examples/light_switch/server/CMakeFiles/light_switch_server_nrf52832_xxAA_s132_6.0.0.dir/__/__/__/mesh/access/src/device_state_manager.c.obj
                0x00035440                dsm_tx_secmat_get
 .text.dsm_net_secmat_from_keyindex_get
                0x000354e4       0x30 examples/light_switch/server/CMakeFiles/light_switch_server_nrf52832_xxAA_s132_6.0.0.dir/__/__/__/mesh/access/src/device_state_manager.c.obj
                0x000354e4                dsm_net_secmat_from_keyindex_get
 .text.nrf_mesh_net_secmat_next_get
                0x00035514       0x90 examples/light_switch/server/CMakeFiles/light_switch_server_nrf52832_xxAA_s132_6.0.0.dir/__/__/__/mesh/access/src/device_state_manager.c.obj
                0x00035514                nrf_mesh_net_secmat_next_get
 .text.nrf_mesh_app_secmat_next_get
                0x000355a4       0x70 examples/light_switch/server/CMakeFiles/light_switch_server_nrf52832_xxAA_s132_6.0.0.dir/__/__/__/mesh/access/src/device_state_manager.c.obj
                0x000355a4                nrf_mesh_app_secmat_next_get
 .text.nrf_mesh_devkey_secmat_get
                0x00035614       0x28 examples/light_switch/server/CMakeFiles/light_switch_server_nrf52832_xxAA_s132_6.0.0.dir/__/__/__/mesh/access/src/device_state_manager.c.obj
                0x00035614                nrf_mesh_devkey_secmat_get
 .text.nrf_mesh_beacon_info_next_get
                0x0003563c       0xb4 examples/light_switch/server/CMakeFiles/light_switch_server_nrf52832_xxAA_s132_6.0.0.dir/__/__/__/mesh/access/src/device_state_manager.c.obj
                0x0003563c                nrf_mesh_beacon_info_next_get
 .text.nrf_mesh_rx_address_get
                0x000356f0      0x12c examples/light_switch/server/CMakeFiles/light_switch_server_nrf52832_xxAA_s132_6.0.0.dir/__/__/__/mesh/access/src/device_state_manager.c.obj
                0x000356f0                nrf_mesh_rx_address_get
 .text.dsm_address_is_rx
                0x0003581c       0x48 examples/light_switch/server/CMakeFiles/light_switch_server_nrf52832_xxAA_s132_6.0.0.dir/__/__/__/mesh/access/src/device_state_manager.c.obj
                0x0003581c                dsm_address_is_rx
 .text.nrf_mesh_unicast_address_get
                0x00035864       0x20 examples/light_switch/server/CMakeFiles/light_switch_server_nrf52832_xxAA_s132_6.0.0.dir/__/__/__/mesh/access/src/device_state_manager.c.obj
                0x00035864                nrf_mesh_unicast_address_get
 .text.complete_provisioning
                0x00035884       0x24 examples/light_switch/server/CMakeFiles/light_switch_server_nrf52832_xxAA_s132_6.0.0.dir/__/__/__/mesh/prov/src/prov_provisionee.c.obj
 .text.prov_provisionee_cb_link_established
                0x000358a8       0x36 examples/light_switch/server/CMakeFiles/light_switch_server_nrf52832_xxAA_s132_6.0.0.dir/__/__/__/mesh/prov/src/prov_provisionee.c.obj
 .text.prov_provisionee_cb_link_closed
                0x000358de       0x34 examples/light_switch/server/CMakeFiles/light_switch_server_nrf52832_xxAA_s132_6.0.0.dir/__/__/__/mesh/prov/src/prov_provisionee.c.obj
 .text.request_authentication
                0x00035912       0x8a examples/light_switch/server/CMakeFiles/light_switch_server_nrf52832_xxAA_s132_6.0.0.dir/__/__/__/mesh/prov/src/prov_provisionee.c.obj
 .text.send_failed
                0x0003599c       0x3a examples/light_switch/server/CMakeFiles/light_switch_server_nrf52832_xxAA_s132_6.0.0.dir/__/__/__/mesh/prov/src/prov_provisionee.c.obj
 .text.start_authentication
                0x000359d6       0x52 examples/light_switch/server/CMakeFiles/light_switch_server_nrf52832_xxAA_s132_6.0.0.dir/__/__/__/mesh/prov/src/prov_provisionee.c.obj
 .text.prov_provisionee_cb_ack_received
                0x00035a28       0xc8 examples/light_switch/server/CMakeFiles/light_switch_server_nrf52832_xxAA_s132_6.0.0.dir/__/__/__/mesh/prov/src/prov_provisionee.c.obj
 .text.prov_provisionee_pkt_in
                0x00035af0      0x350 examples/light_switch/server/CMakeFiles/light_switch_server_nrf52832_xxAA_s132_6.0.0.dir/__/__/__/mesh/prov/src/prov_provisionee.c.obj
 .text.prov_provisionee_listen
                0x00035e40       0x30 examples/light_switch/server/CMakeFiles/light_switch_server_nrf52832_xxAA_s132_6.0.0.dir/__/__/__/mesh/prov/src/prov_provisionee.c.obj
                0x00035e40                prov_provisionee_listen
 .text.prov_provisionee_auth_data
                0x00035e70       0x98 examples/light_switch/server/CMakeFiles/light_switch_server_nrf52832_xxAA_s132_6.0.0.dir/__/__/__/mesh/prov/src/prov_provisionee.c.obj
                0x00035e70                prov_provisionee_auth_data
 .text.bearer_compare_callback
                0x00035f08        0xc examples/light_switch/server/CMakeFiles/light_switch_server_nrf52832_xxAA_s132_6.0.0.dir/__/__/__/mesh/prov/src/nrf_mesh_prov.c.obj
 .text.bitfield_next_get.part.0.constprop.4
                0x00035f14       0x34 examples/light_switch/server/CMakeFiles/light_switch_server_nrf52832_xxAA_s132_6.0.0.dir/__/__/__/mesh/prov/src/nrf_mesh_prov.c.obj
 .text.nrf_mesh_prov_init
                0x00035f48       0x32 examples/light_switch/server/CMakeFiles/light_switch_server_nrf52832_xxAA_s132_6.0.0.dir/__/__/__/mesh/prov/src/nrf_mesh_prov.c.obj
                0x00035f48                nrf_mesh_prov_init
 *fill*         0x00035f7a        0x2 
 .text.nrf_mesh_prov_bearer_add
                0x00035f7c       0x28 examples/light_switch/server/CMakeFiles/light_switch_server_nrf52832_xxAA_s132_6.0.0.dir/__/__/__/mesh/prov/src/nrf_mesh_prov.c.obj
                0x00035f7c                nrf_mesh_prov_bearer_add
 .text.nrf_mesh_prov_generate_keys
                0x00035fa4        0x4 examples/light_switch/server/CMakeFiles/light_switch_server_nrf52832_xxAA_s132_6.0.0.dir/__/__/__/mesh/prov/src/nrf_mesh_prov.c.obj
                0x00035fa4                nrf_mesh_prov_generate_keys
 .text.nrf_mesh_prov_listen_stop
                0x00035fa8       0x2e examples/light_switch/server/CMakeFiles/light_switch_server_nrf52832_xxAA_s132_6.0.0.dir/__/__/__/mesh/prov/src/nrf_mesh_prov.c.obj
                0x00035fa8                nrf_mesh_prov_listen_stop
 .text.nrf_mesh_prov_listen
                0x00035fd6       0x88 examples/light_switch/server/CMakeFiles/light_switch_server_nrf52832_xxAA_s132_6.0.0.dir/__/__/__/mesh/prov/src/nrf_mesh_prov.c.obj
                0x00035fd6                nrf_mesh_prov_listen
 .text.nrf_mesh_prov_auth_data_provide
                0x0003605e        0xe examples/light_switch/server/CMakeFiles/light_switch_server_nrf52832_xxAA_s132_6.0.0.dir/__/__/__/mesh/prov/src/nrf_mesh_prov.c.obj
                0x0003605e                nrf_mesh_prov_auth_data_provide
 .text.send_data
                0x0003606c       0x28 examples/light_switch/server/CMakeFiles/light_switch_server_nrf52832_xxAA_s132_6.0.0.dir/__/__/__/mesh/prov/src/provisioning.c.obj
 .text.prov_packet_length_valid
                0x00036094       0x1c examples/light_switch/server/CMakeFiles/light_switch_server_nrf52832_xxAA_s132_6.0.0.dir/__/__/__/mesh/prov/src/provisioning.c.obj
                0x00036094                prov_packet_length_valid
 .text.prov_tx_capabilities
                0x000360b0       0x1e examples/light_switch/server/CMakeFiles/light_switch_server_nrf52832_xxAA_s132_6.0.0.dir/__/__/__/mesh/prov/src/provisioning.c.obj
                0x000360b0                prov_tx_capabilities
 .text.prov_tx_public_key
                0x000360ce       0x26 examples/light_switch/server/CMakeFiles/light_switch_server_nrf52832_xxAA_s132_6.0.0.dir/__/__/__/mesh/prov/src/provisioning.c.obj
                0x000360ce                prov_tx_public_key
 .text.prov_tx_input_complete
                0x000360f4       0x16 examples/light_switch/server/CMakeFiles/light_switch_server_nrf52832_xxAA_s132_6.0.0.dir/__/__/__/mesh/prov/src/provisioning.c.obj
                0x000360f4                prov_tx_input_complete
 .text.prov_tx_confirmation
                0x0003610a       0x26 examples/light_switch/server/CMakeFiles/light_switch_server_nrf52832_xxAA_s132_6.0.0.dir/__/__/__/mesh/prov/src/provisioning.c.obj
                0x0003610a                prov_tx_confirmation
 .text.prov_tx_random
                0x00036130       0x26 examples/light_switch/server/CMakeFiles/light_switch_server_nrf52832_xxAA_s132_6.0.0.dir/__/__/__/mesh/prov/src/provisioning.c.obj
                0x00036130                prov_tx_random
 .text.prov_tx_complete
                0x00036156       0x16 examples/light_switch/server/CMakeFiles/light_switch_server_nrf52832_xxAA_s132_6.0.0.dir/__/__/__/mesh/prov/src/provisioning.c.obj
                0x00036156                prov_tx_complete
 .text.prov_tx_failed
                0x0003616c       0x1a examples/light_switch/server/CMakeFiles/light_switch_server_nrf52832_xxAA_s132_6.0.0.dir/__/__/__/mesh/prov/src/provisioning.c.obj
                0x0003616c                prov_tx_failed
 .text.prov_beacon_unprov_build
                0x00036186       0x54 examples/light_switch/server/CMakeFiles/light_switch_server_nrf52832_xxAA_s132_6.0.0.dir/__/__/__/mesh/prov/src/prov_beacon.c.obj
                0x00036186                prov_beacon_unprov_build
 *fill*         0x000361da        0x2 
 .text.prov_beacon_unprov_packet_in
                0x000361dc       0x88 examples/light_switch/server/CMakeFiles/light_switch_server_nrf52832_xxAA_s132_6.0.0.dir/__/__/__/mesh/prov/src/prov_beacon.c.obj
                0x000361dc                prov_beacon_unprov_packet_in
 .text.ecdh_offloading_get
                0x00036264       0x1c examples/light_switch/server/CMakeFiles/light_switch_server_nrf52832_xxAA_s132_6.0.0.dir/__/__/__/mesh/prov/src/prov_utils.c.obj
 .text.ecdh_offloading_set
                0x00036280       0x1c examples/light_switch/server/CMakeFiles/light_switch_server_nrf52832_xxAA_s132_6.0.0.dir/__/__/__/mesh/prov/src/prov_utils.c.obj
 .text.oob_gen_numeric
                0x0003629c       0x3c examples/light_switch/server/CMakeFiles/light_switch_server_nrf52832_xxAA_s132_6.0.0.dir/__/__/__/mesh/prov/src/prov_utils.c.obj
 .text.oob_gen_alphanumeric
                0x000362d8       0x34 examples/light_switch/server/CMakeFiles/light_switch_server_nrf52832_xxAA_s132_6.0.0.dir/__/__/__/mesh/prov/src/prov_utils.c.obj
 .text.prov_utils_authentication_values_derive
                0x0003630c       0xa0 examples/light_switch/server/CMakeFiles/light_switch_server_nrf52832_xxAA_s132_6.0.0.dir/__/__/__/mesh/prov/src/prov_utils.c.obj
                0x0003630c                prov_utils_authentication_values_derive
 .text.prov_utils_keys_generate
                0x000363ac       0x1e examples/light_switch/server/CMakeFiles/light_switch_server_nrf52832_xxAA_s132_6.0.0.dir/__/__/__/mesh/prov/src/prov_utils.c.obj
                0x000363ac                prov_utils_keys_generate
 *fill*         0x000363ca        0x2 
 .text.prov_utils_derive_keys
                0x000363cc       0xac examples/light_switch/server/CMakeFiles/light_switch_server_nrf52832_xxAA_s132_6.0.0.dir/__/__/__/mesh/prov/src/prov_utils.c.obj
                0x000363cc                prov_utils_derive_keys
 .text.prov_utils_calculate_shared_secret
                0x00036478       0x36 examples/light_switch/server/CMakeFiles/light_switch_server_nrf52832_xxAA_s132_6.0.0.dir/__/__/__/mesh/prov/src/prov_utils.c.obj
                0x00036478                prov_utils_calculate_shared_secret
 .text.prov_utils_generate_oob_data
                0x000364ae       0x8a examples/light_switch/server/CMakeFiles/light_switch_server_nrf52832_xxAA_s132_6.0.0.dir/__/__/__/mesh/prov/src/prov_utils.c.obj
                0x000364ae                prov_utils_generate_oob_data
 .text.prov_utils_confirmation_check
                0x00036538       0x5c examples/light_switch/server/CMakeFiles/light_switch_server_nrf52832_xxAA_s132_6.0.0.dir/__/__/__/mesh/prov/src/prov_utils.c.obj
                0x00036538                prov_utils_confirmation_check
 .text.mesh_opt_prov_ecdh_offloading_get
                0x00036594       0x10 examples/light_switch/server/CMakeFiles/light_switch_server_nrf52832_xxAA_s132_6.0.0.dir/__/__/__/mesh/prov/src/prov_utils.c.obj
                0x00036594                mesh_opt_prov_ecdh_offloading_get
 .text.prov_utils_use_ecdh_offloading
                0x000365a4       0x1c examples/light_switch/server/CMakeFiles/light_switch_server_nrf52832_xxAA_s132_6.0.0.dir/__/__/__/mesh/prov/src/prov_utils.c.obj
                0x000365a4                prov_utils_use_ecdh_offloading
 .text.link_timeout_cb
                0x000365c0       0x10 examples/light_switch/server/CMakeFiles/light_switch_server_nrf52832_xxAA_s132_6.0.0.dir/__/__/__/mesh/prov/src/prov_bearer_adv.c.obj
 .text.remove_active_bearer
                0x000365d0       0x4c examples/light_switch/server/CMakeFiles/light_switch_server_nrf52832_xxAA_s132_6.0.0.dir/__/__/__/mesh/prov/src/prov_bearer_adv.c.obj
 .text.close_link
                0x0003661c       0x58 examples/light_switch/server/CMakeFiles/light_switch_server_nrf52832_xxAA_s132_6.0.0.dir/__/__/__/mesh/prov/src/prov_bearer_adv.c.obj
 .text.prov_bearer_adv_listen_stop
                0x00036674       0x30 examples/light_switch/server/CMakeFiles/light_switch_server_nrf52832_xxAA_s132_6.0.0.dir/__/__/__/mesh/prov/src/prov_bearer_adv.c.obj
 .text.send_packet
                0x000366a4       0x5e examples/light_switch/server/CMakeFiles/light_switch_server_nrf52832_xxAA_s132_6.0.0.dir/__/__/__/mesh/prov/src/prov_bearer_adv.c.obj
 .text.prov_buffer_tx
                0x00036702      0x134 examples/light_switch/server/CMakeFiles/light_switch_server_nrf52832_xxAA_s132_6.0.0.dir/__/__/__/mesh/prov/src/prov_bearer_adv.c.obj
 .text.send_link_close
                0x00036836       0x38 examples/light_switch/server/CMakeFiles/light_switch_server_nrf52832_xxAA_s132_6.0.0.dir/__/__/__/mesh/prov/src/prov_bearer_adv.c.obj
 .text.prov_bearer_adv_link_close
                0x0003686e       0x56 examples/light_switch/server/CMakeFiles/light_switch_server_nrf52832_xxAA_s132_6.0.0.dir/__/__/__/mesh/prov/src/prov_bearer_adv.c.obj
 .text.send_transaction_ack
                0x000368c4       0x24 examples/light_switch/server/CMakeFiles/light_switch_server_nrf52832_xxAA_s132_6.0.0.dir/__/__/__/mesh/prov/src/prov_bearer_adv.c.obj
 .text.send_link_ack
                0x000368e8       0x32 examples/light_switch/server/CMakeFiles/light_switch_server_nrf52832_xxAA_s132_6.0.0.dir/__/__/__/mesh/prov/src/prov_bearer_adv.c.obj
 .text.reset_timeout_timer
                0x0003691a       0x1a examples/light_switch/server/CMakeFiles/light_switch_server_nrf52832_xxAA_s132_6.0.0.dir/__/__/__/mesh/prov/src/prov_bearer_adv.c.obj
 .text.init_bearer_structure
                0x00036934       0x5c examples/light_switch/server/CMakeFiles/light_switch_server_nrf52832_xxAA_s132_6.0.0.dir/__/__/__/mesh/prov/src/prov_bearer_adv.c.obj
 .text.tx_complete_cb
                0x00036990       0x1c examples/light_switch/server/CMakeFiles/light_switch_server_nrf52832_xxAA_s132_6.0.0.dir/__/__/__/mesh/prov/src/prov_bearer_adv.c.obj
 .text.tx_retry_cb
                0x000369ac       0xcc examples/light_switch/server/CMakeFiles/light_switch_server_nrf52832_xxAA_s132_6.0.0.dir/__/__/__/mesh/prov/src/prov_bearer_adv.c.obj
 .text.add_active_bearer
                0x00036a78       0x80 examples/light_switch/server/CMakeFiles/light_switch_server_nrf52832_xxAA_s132_6.0.0.dir/__/__/__/mesh/prov/src/prov_bearer_adv.c.obj
 .text.prov_bearer_adv_link_open
                0x00036af8       0x9c examples/light_switch/server/CMakeFiles/light_switch_server_nrf52832_xxAA_s132_6.0.0.dir/__/__/__/mesh/prov/src/prov_bearer_adv.c.obj
 .text.prov_bearer_adv_listen
                0x00036b94       0x86 examples/light_switch/server/CMakeFiles/light_switch_server_nrf52832_xxAA_s132_6.0.0.dir/__/__/__/mesh/prov/src/prov_bearer_adv.c.obj
 *fill*         0x00036c1a        0x2 
 .text.async_process
                0x00036c1c       0x50 examples/light_switch/server/CMakeFiles/light_switch_server_nrf52832_xxAA_s132_6.0.0.dir/__/__/__/mesh/prov/src/prov_bearer_adv.c.obj
 .text.calculate_3GPP_CRC
                0x00036c6c       0x24 examples/light_switch/server/CMakeFiles/light_switch_server_nrf52832_xxAA_s132_6.0.0.dir/__/__/__/mesh/prov/src/prov_bearer_adv.c.obj
                0x00036c6c                calculate_3GPP_CRC
 .text.prov_bearer_adv_tx
                0x00036c90       0xb4 examples/light_switch/server/CMakeFiles/light_switch_server_nrf52832_xxAA_s132_6.0.0.dir/__/__/__/mesh/prov/src/prov_bearer_adv.c.obj
 .text.prov_buffer_rx
                0x00036d44       0x6e examples/light_switch/server/CMakeFiles/light_switch_server_nrf52832_xxAA_s132_6.0.0.dir/__/__/__/mesh/prov/src/prov_bearer_adv.c.obj
 *fill*         0x00036db2        0x2 
 .text.nrf_mesh_prov_bearer_adv_interface_get
                0x00036db4       0x3c examples/light_switch/server/CMakeFiles/light_switch_server_nrf52832_xxAA_s132_6.0.0.dir/__/__/__/mesh/prov/src/prov_bearer_adv.c.obj
                0x00036db4                nrf_mesh_prov_bearer_adv_interface_get
 .text.prov_bearer_adv_packet_in
                0x00036df0      0x7f8 examples/light_switch/server/CMakeFiles/light_switch_server_nrf52832_xxAA_s132_6.0.0.dir/__/__/__/mesh/prov/src/prov_bearer_adv.c.obj
                0x00036df0                prov_bearer_adv_packet_in
 .text.errata_57
                0x000375e8       0x34 examples/light_switch/server/CMakeFiles/light_switch_server_nrf52832_xxAA_s132_6.0.0.dir/C_/sdks/nRF5_SDK_15.0.0_a53641a/modules/nrfx/mdk/system_nrf52.c.obj
 .text.errata_136
                0x0003761c       0x40 examples/light_switch/server/CMakeFiles/light_switch_server_nrf52832_xxAA_s132_6.0.0.dir/C_/sdks/nRF5_SDK_15.0.0_a53641a/modules/nrfx/mdk/system_nrf52.c.obj
 .text.SystemInit
                0x0003765c      0x264 examples/light_switch/server/CMakeFiles/light_switch_server_nrf52832_xxAA_s132_6.0.0.dir/C_/sdks/nRF5_SDK_15.0.0_a53641a/modules/nrfx/mdk/system_nrf52.c.obj
                0x0003765c                SystemInit
 .text          0x000378c0       0x3c examples/light_switch/server/CMakeFiles/light_switch_server_nrf52832_xxAA_s132_6.0.0.dir/C_/sdks/nRF5_SDK_15.0.0_a53641a/modules/nrfx/mdk/gcc_startup_nrf52.S.obj
                0x000378c0                Reset_Handler
                0x000378e8                NMI_Handler
                0x000378ea                HardFault_Handler
                0x000378ec                MemoryManagement_Handler
                0x000378ee                BusFault_Handler
                0x000378f0                UsageFault_Handler
                0x000378f2                SVC_Handler
                0x000378f4                DebugMon_Handler
                0x000378f6                PendSV_Handler
                0x000378f8                SysTick_Handler
                0x000378fa                TEMP_IRQHandler
                0x000378fa                TIMER3_IRQHandler
                0x000378fa                FPU_IRQHandler
                0x000378fa                SPIM0_SPIS0_TWIM0_TWIS0_SPI0_TWI0_IRQHandler
                0x000378fa                POWER_CLOCK_IRQHandler
                0x000378fa                PDM_IRQHandler
                0x000378fa                TIMER4_IRQHandler
                0x000378fa                I2S_IRQHandler
                0x000378fa                SWI4_EGU4_IRQHandler
                0x000378fa                TIMER0_IRQHandler
                0x000378fa                RTC0_IRQHandler
                0x000378fa                UARTE0_UART0_IRQHandler
                0x000378fa                PWM2_IRQHandler
                0x000378fa                ECB_IRQHandler
                0x000378fa                SPIM1_SPIS1_TWIM1_TWIS1_SPI1_TWI1_IRQHandler
                0x000378fa                Default_Handler
                0x000378fa                SAADC_IRQHandler
                0x000378fa                CCM_AAR_IRQHandler
                0x000378fa                WDT_IRQHandler
                0x000378fa                RADIO_IRQHandler
                0x000378fa                SWI5_EGU5_IRQHandler
                0x000378fa                RNG_IRQHandler
                0x000378fa                RTC2_IRQHandler
                0x000378fa                PWM0_IRQHandler
                0x000378fa                SWI3_EGU3_IRQHandler
                0x000378fa                SWI1_EGU1_IRQHandler
                0x000378fa                SPIM2_SPIS2_SPI2_IRQHandler
                0x000378fa                NFCT_IRQHandler
                0x000378fa                TIMER1_IRQHandler
                0x000378fa                MWU_IRQHandler
                0x000378fa                PWM1_IRQHandler
                0x000378fa                COMP_LPCOMP_IRQHandler
 .text.app_error_handler_bare
                0x000378fc       0x1a examples/light_switch/server/CMakeFiles/light_switch_server_nrf52832_xxAA_s132_6.0.0.dir/C_/sdks/nRF5_SDK_15.0.0_a53641a/components/libraries/util/app_error.c.obj
                0x000378fc                app_error_handler_bare
 *fill*         0x00037916        0x2 
 .text.app_util_critical_region_enter
                0x00037918       0x48 examples/light_switch/server/CMakeFiles/light_switch_server_nrf52832_xxAA_s132_6.0.0.dir/C_/sdks/nRF5_SDK_15.0.0_a53641a/components/libraries/util/app_util_platform.c.obj
                0x00037918                app_util_critical_region_enter
 .text.app_util_critical_region_exit
                0x00037960       0x2c examples/light_switch/server/CMakeFiles/light_switch_server_nrf52832_xxAA_s132_6.0.0.dir/C_/sdks/nRF5_SDK_15.0.0_a53641a/components/libraries/util/app_util_platform.c.obj
                0x00037960                app_util_critical_region_exit
 .text.user_op_alloc
                0x0003798c       0x2c examples/light_switch/server/CMakeFiles/light_switch_server_nrf52832_xxAA_s132_6.0.0.dir/C_/sdks/nRF5_SDK_15.0.0_a53641a/components/libraries/timer/app_timer.c.obj
 .text.timer_stop_op_schedule
                0x000379b8       0x50 examples/light_switch/server/CMakeFiles/light_switch_server_nrf52832_xxAA_s132_6.0.0.dir/C_/sdks/nRF5_SDK_15.0.0_a53641a/components/libraries/timer/app_timer.c.obj
 .text.nrfx_coredep_delay_us.part.0.constprop.4
                0x00037a08       0x10 examples/light_switch/server/CMakeFiles/light_switch_server_nrf52832_xxAA_s132_6.0.0.dir/C_/sdks/nRF5_SDK_15.0.0_a53641a/components/libraries/timer/app_timer.c.obj
 .text.rtc1_stop
                0x00037a18       0x44 examples/light_switch/server/CMakeFiles/light_switch_server_nrf52832_xxAA_s132_6.0.0.dir/C_/sdks/nRF5_SDK_15.0.0_a53641a/components/libraries/timer/app_timer.c.obj
 .text.RTC1_IRQHandler
                0x00037a5c       0x9c examples/light_switch/server/CMakeFiles/light_switch_server_nrf52832_xxAA_s132_6.0.0.dir/C_/sdks/nRF5_SDK_15.0.0_a53641a/components/libraries/timer/app_timer.c.obj
                0x00037a5c                RTC1_IRQHandler
 .text.SWI0_EGU0_IRQHandler
                0x00037af8      0x2a4 examples/light_switch/server/CMakeFiles/light_switch_server_nrf52832_xxAA_s132_6.0.0.dir/C_/sdks/nRF5_SDK_15.0.0_a53641a/components/libraries/timer/app_timer.c.obj
                0x00037af8                SWI0_EGU0_IRQHandler
 .text.app_timer_init
                0x00037d9c       0x64 examples/light_switch/server/CMakeFiles/light_switch_server_nrf52832_xxAA_s132_6.0.0.dir/C_/sdks/nRF5_SDK_15.0.0_a53641a/components/libraries/timer/app_timer.c.obj
                0x00037d9c                app_timer_init
 .text.app_timer_create
                0x00037e00       0x24 examples/light_switch/server/CMakeFiles/light_switch_server_nrf52832_xxAA_s132_6.0.0.dir/C_/sdks/nRF5_SDK_15.0.0_a53641a/components/libraries/timer/app_timer.c.obj
                0x00037e00                app_timer_create
 .text.app_timer_start
                0x00037e24       0x8c examples/light_switch/server/CMakeFiles/light_switch_server_nrf52832_xxAA_s132_6.0.0.dir/C_/sdks/nRF5_SDK_15.0.0_a53641a/components/libraries/timer/app_timer.c.obj
                0x00037e24                app_timer_start
 .text.app_timer_stop
                0x00037eb0       0x20 examples/light_switch/server/CMakeFiles/light_switch_server_nrf52832_xxAA_s132_6.0.0.dir/C_/sdks/nRF5_SDK_15.0.0_a53641a/components/libraries/timer/app_timer.c.obj
                0x00037eb0                app_timer_stop
 .text.app_timer_cnt_get
                0x00037ed0        0xc examples/light_switch/server/CMakeFiles/light_switch_server_nrf52832_xxAA_s132_6.0.0.dir/C_/sdks/nRF5_SDK_15.0.0_a53641a/components/libraries/timer/app_timer.c.obj
                0x00037ed0                app_timer_cnt_get
 .text.app_timer_cnt_diff_compute
                0x00037edc        0x8 examples/light_switch/server/CMakeFiles/light_switch_server_nrf52832_xxAA_s132_6.0.0.dir/C_/sdks/nRF5_SDK_15.0.0_a53641a/components/libraries/timer/app_timer.c.obj
                0x00037edc                app_timer_cnt_diff_compute
 .text.app_error_handler
                0x00037ee4       0x1a examples/light_switch/server/CMakeFiles/light_switch_server_nrf52832_xxAA_s132_6.0.0.dir/C_/sdks/nRF5_SDK_15.0.0_a53641a/components/libraries/util/app_error_handler_gcc.c.obj
                0x00037ee4                app_error_handler
 .text._GetAvailWriteSpace
                0x00037efe       0x1c external/rtt/librtt_nrf52832_xxAA.a(SEGGER_RTT.c.obj)
 .text._WriteNoCheck
                0x00037f1a       0x3c external/rtt/librtt_nrf52832_xxAA.a(SEGGER_RTT.c.obj)
 .text._WriteBlocking
                0x00037f56       0x52 external/rtt/librtt_nrf52832_xxAA.a(SEGGER_RTT.c.obj)
 .text._DoInit  0x00037fa8       0x60 external/rtt/librtt_nrf52832_xxAA.a(SEGGER_RTT.c.obj)
 .text.SEGGER_RTT_ReadNoLock
                0x00038008       0x88 external/rtt/librtt_nrf52832_xxAA.a(SEGGER_RTT.c.obj)
                0x00038008                SEGGER_RTT_ReadNoLock
 .text.SEGGER_RTT_Read
                0x00038090       0x1c external/rtt/librtt_nrf52832_xxAA.a(SEGGER_RTT.c.obj)
                0x00038090                SEGGER_RTT_Read
 .text.SEGGER_RTT_WriteNoLock
                0x000380ac       0x68 external/rtt/librtt_nrf52832_xxAA.a(SEGGER_RTT.c.obj)
                0x000380ac                SEGGER_RTT_WriteNoLock
 .text.SEGGER_RTT_Write
                0x00038114       0x34 external/rtt/librtt_nrf52832_xxAA.a(SEGGER_RTT.c.obj)
                0x00038114                SEGGER_RTT_Write
 .text.SEGGER_RTT_GetKey
                0x00038148       0x20 external/rtt/librtt_nrf52832_xxAA.a(SEGGER_RTT.c.obj)
                0x00038148                SEGGER_RTT_GetKey
 .text._StoreChar
                0x00038168       0x3e external/rtt/librtt_nrf52832_xxAA.a(SEGGER_RTT_printf.c.obj)
 *fill*         0x000381a6        0x2 
 .text._PrintUnsigned
                0x000381a8       0xd0 external/rtt/librtt_nrf52832_xxAA.a(SEGGER_RTT_printf.c.obj)
 .text.SEGGER_RTT_vprintf
                0x00038278      0x246 external/rtt/librtt_nrf52832_xxAA.a(SEGGER_RTT_printf.c.obj)
                0x00038278                SEGGER_RTT_vprintf
 .text.SEGGER_RTT_printf
                0x000384be       0x1e external/rtt/librtt_nrf52832_xxAA.a(SEGGER_RTT_printf.c.obj)
                0x000384be                SEGGER_RTT_printf
 .text.uECC_vli_mult
                0x000384dc       0x64 external/micro-ecc/libuECC_nrf52832_xxAA.a(uECC.c.obj)
 .text.uECC_vli_clear
                0x00038540       0x16 external/micro-ecc/libuECC_nrf52832_xxAA.a(uECC.c.obj)
 .text.uECC_vli_isZero
                0x00038556       0x1e external/micro-ecc/libuECC_nrf52832_xxAA.a(uECC.c.obj)
 .text.uECC_vli_testBit
                0x00038574       0x14 external/micro-ecc/libuECC_nrf52832_xxAA.a(uECC.c.obj)
 .text.uECC_vli_numBits
                0x00038588       0x3a external/micro-ecc/libuECC_nrf52832_xxAA.a(uECC.c.obj)
 .text.uECC_vli_set
                0x000385c2       0x18 external/micro-ecc/libuECC_nrf52832_xxAA.a(uECC.c.obj)
 .text.uECC_vli_cmp_unsafe
                0x000385da       0x28 external/micro-ecc/libuECC_nrf52832_xxAA.a(uECC.c.obj)
 .text.uECC_vli_rshift1
                0x00038602       0x1c external/micro-ecc/libuECC_nrf52832_xxAA.a(uECC.c.obj)
 .text.uECC_vli_modMult_fast
                0x0003861e       0x20 external/micro-ecc/libuECC_nrf52832_xxAA.a(uECC.c.obj)
 .text.uECC_vli_modSquare_fast
                0x0003863e        0x8 external/micro-ecc/libuECC_nrf52832_xxAA.a(uECC.c.obj)
 .text.apply_z  0x00038646       0x3e external/micro-ecc/libuECC_nrf52832_xxAA.a(uECC.c.obj)
 .text.uECC_vli_nativeToBytes
                0x00038684       0x28 external/micro-ecc/libuECC_nrf52832_xxAA.a(uECC.c.obj)
 .text.uECC_vli_bytesToNative
                0x000386ac       0x40 external/micro-ecc/libuECC_nrf52832_xxAA.a(uECC.c.obj)
 .text.default_RNG
                0x000386ec        0xc external/micro-ecc/libuECC_nrf52832_xxAA.a(uECC.c.obj)
 .text.uECC_vli_add.isra.0
                0x000386f8       0x4a external/micro-ecc/libuECC_nrf52832_xxAA.a(uECC.c.obj)
 .text.regularize_k
                0x00038742       0x50 external/micro-ecc/libuECC_nrf52832_xxAA.a(uECC.c.obj)
 .text.uECC_vli_sub.isra.1
                0x00038792       0x4e external/micro-ecc/libuECC_nrf52832_xxAA.a(uECC.c.obj)
 .text.uECC_vli_cmp
                0x000387e0       0x30 external/micro-ecc/libuECC_nrf52832_xxAA.a(uECC.c.obj)
 .text.uECC_generate_random_int
                0x00038810       0x78 external/micro-ecc/libuECC_nrf52832_xxAA.a(uECC.c.obj)
 .text.uECC_vli_modAdd
                0x00038888       0x2e external/micro-ecc/libuECC_nrf52832_xxAA.a(uECC.c.obj)
 *fill*         0x000388b6        0x2 
 .text.vli_mmod_fast_secp256r1
                0x000388b8      0x194 external/micro-ecc/libuECC_nrf52832_xxAA.a(uECC.c.obj)
 .text.uECC_vli_modSub.isra.2
                0x00038a4c       0x1c external/micro-ecc/libuECC_nrf52832_xxAA.a(uECC.c.obj)
 .text.double_jacobian_default
                0x00038a68      0x14a external/micro-ecc/libuECC_nrf52832_xxAA.a(uECC.c.obj)
 .text.x_side_default
                0x00038bb2       0x5a external/micro-ecc/libuECC_nrf52832_xxAA.a(uECC.c.obj)
 .text.XYcZ_add
                0x00038c0c       0xbc external/micro-ecc/libuECC_nrf52832_xxAA.a(uECC.c.obj)
 .text.XYcZ_addC
                0x00038cc8      0x10a external/micro-ecc/libuECC_nrf52832_xxAA.a(uECC.c.obj)
 .text.vli_modInv_update
                0x00038dd2       0x36 external/micro-ecc/libuECC_nrf52832_xxAA.a(uECC.c.obj)
 .text.uECC_vli_modInv
                0x00038e08      0x102 external/micro-ecc/libuECC_nrf52832_xxAA.a(uECC.c.obj)
 .text.EccPoint_mult
                0x00038f0a      0x19e external/micro-ecc/libuECC_nrf52832_xxAA.a(uECC.c.obj)
 .text.EccPoint_compute_public_key
                0x000390a8       0x54 external/micro-ecc/libuECC_nrf52832_xxAA.a(uECC.c.obj)
 .text.uECC_secp256r1
                0x000390fc        0x8 external/micro-ecc/libuECC_nrf52832_xxAA.a(uECC.c.obj)
                0x000390fc                uECC_secp256r1
 .text.uECC_make_key
                0x00039104       0x7e external/micro-ecc/libuECC_nrf52832_xxAA.a(uECC.c.obj)
                0x00039104                uECC_make_key
 *fill*         0x00039182        0x2 
 .text.uECC_shared_secret
                0x00039184       0xbc external/micro-ecc/libuECC_nrf52832_xxAA.a(uECC.c.obj)
                0x00039184                uECC_shared_secret
 .text.uECC_valid_point
                0x00039240       0x86 external/micro-ecc/libuECC_nrf52832_xxAA.a(uECC.c.obj)
                0x00039240                uECC_valid_point
 .text.uECC_valid_public_key
                0x000392c6       0x32 external/micro-ecc/libuECC_nrf52832_xxAA.a(uECC.c.obj)
                0x000392c6                uECC_valid_public_key
 .text          0x000392f8       0x30 c:/arm_gcc/bin/../lib/gcc/arm-none-eabi/6.3.1/thumb/v7e-m/fpv4-sp/hard\libgcc.a(_aeabi_uldivmod.o)
                0x000392f8                __aeabi_uldivmod
 .text          0x00039328      0x2dc c:/arm_gcc/bin/../lib/gcc/arm-none-eabi/6.3.1/thumb/v7e-m/fpv4-sp/hard\libgcc.a(_udivmoddi4.o)
                0x00039328                __udivmoddi4
 .text          0x00039604        0x4 c:/arm_gcc/bin/../lib/gcc/arm-none-eabi/6.3.1/thumb/v7e-m/fpv4-sp/hard\libgcc.a(_dvmd_tls.o)
                0x00039604                __aeabi_idiv0
                0x00039604                __aeabi_ldiv0
 .text.exit     0x00039608       0x28 c:/arm_gcc/bin/../lib/gcc/arm-none-eabi/6.3.1/../../../../arm-none-eabi/lib/thumb/v7e-m/fpv4-sp/hard\libg_nano.a(lib_a-exit.o)
                0x00039608                exit
 .text.__libc_init_array
                0x00039630       0x48 c:/arm_gcc/bin/../lib/gcc/arm-none-eabi/6.3.1/../../../../arm-none-eabi/lib/thumb/v7e-m/fpv4-sp/hard\libg_nano.a(lib_a-init.o)
                0x00039630                __libc_init_array
 .text.malloc   0x00039678       0x10 c:/arm_gcc/bin/../lib/gcc/arm-none-eabi/6.3.1/../../../../arm-none-eabi/lib/thumb/v7e-m/fpv4-sp/hard\libg_nano.a(lib_a-malloc.o)
                0x00039678                malloc
 .text.free     0x00039688       0x10 c:/arm_gcc/bin/../lib/gcc/arm-none-eabi/6.3.1/../../../../arm-none-eabi/lib/thumb/v7e-m/fpv4-sp/hard\libg_nano.a(lib_a-malloc.o)
                0x00039688                free
 .text.memcmp   0x00039698       0x1e c:/arm_gcc/bin/../lib/gcc/arm-none-eabi/6.3.1/../../../../arm-none-eabi/lib/thumb/v7e-m/fpv4-sp/hard\libg_nano.a(lib_a-memcmp.o)
                0x00039698                memcmp
 .text.memcpy   0x000396b6       0x16 c:/arm_gcc/bin/../lib/gcc/arm-none-eabi/6.3.1/../../../../arm-none-eabi/lib/thumb/v7e-m/fpv4-sp/hard\libg_nano.a(lib_a-memcpy-stub.o)
                0x000396b6                memcpy
 .text.memset   0x000396cc       0x10 c:/arm_gcc/bin/../lib/gcc/arm-none-eabi/6.3.1/../../../../arm-none-eabi/lib/thumb/v7e-m/fpv4-sp/hard\libg_nano.a(lib_a-memset.o)
                0x000396cc                memset
 .text._free_r  0x000396dc       0x9c c:/arm_gcc/bin/../lib/gcc/arm-none-eabi/6.3.1/../../../../arm-none-eabi/lib/thumb/v7e-m/fpv4-sp/hard\libg_nano.a(lib_a-nano-freer.o)
                0x000396dc                _free_r
 .text._malloc_r
                0x00039778       0xbc c:/arm_gcc/bin/../lib/gcc/arm-none-eabi/6.3.1/../../../../arm-none-eabi/lib/thumb/v7e-m/fpv4-sp/hard\libg_nano.a(lib_a-nano-mallocr.o)
                0x00039778                _malloc_r
 .text._sbrk_r  0x00039834       0x20 c:/arm_gcc/bin/../lib/gcc/arm-none-eabi/6.3.1/../../../../arm-none-eabi/lib/thumb/v7e-m/fpv4-sp/hard\libg_nano.a(lib_a-sbrkr.o)
                0x00039834                _sbrk_r
 .text.strcpy   0x00039854       0x10 c:/arm_gcc/bin/../lib/gcc/arm-none-eabi/6.3.1/../../../../arm-none-eabi/lib/thumb/v7e-m/fpv4-sp/hard\libg_nano.a(lib_a-strcpy.o)
                0x00039854                strcpy
 .text          0x00039864       0x10 c:/arm_gcc/bin/../lib/gcc/arm-none-eabi/6.3.1/../../../../arm-none-eabi/lib/thumb/v7e-m/fpv4-sp/hard\libg_nano.a(lib_a-strlen.o)
                0x00039864                strlen
 .text.strrchr  0x00039874       0x26 c:/arm_gcc/bin/../lib/gcc/arm-none-eabi/6.3.1/../../../../arm-none-eabi/lib/thumb/v7e-m/fpv4-sp/hard\libg_nano.a(lib_a-strrchr.o)
                0x00039874                strrchr
 .text.__malloc_lock
                0x0003989a        0x2 c:/arm_gcc/bin/../lib/gcc/arm-none-eabi/6.3.1/../../../../arm-none-eabi/lib/thumb/v7e-m/fpv4-sp/hard\libg_nano.a(lib_a-mlock.o)
                0x0003989a                __malloc_lock
 .text.__malloc_unlock
                0x0003989c        0x2 c:/arm_gcc/bin/../lib/gcc/arm-none-eabi/6.3.1/../../../../arm-none-eabi/lib/thumb/v7e-m/fpv4-sp/hard\libg_nano.a(lib_a-mlock.o)
                0x0003989c                __malloc_unlock
 .text.strchr   0x0003989e       0x1c c:/arm_gcc/bin/../lib/gcc/arm-none-eabi/6.3.1/../../../../arm-none-eabi/lib/thumb/v7e-m/fpv4-sp/hard\libg_nano.a(lib_a-strchr.o)
                0x0003989e                strchr
 *fill*         0x000398ba        0x2 
 .text._sbrk    0x000398bc       0x1c c:/arm_gcc/bin/../lib/gcc/arm-none-eabi/6.3.1/../../../../arm-none-eabi/lib/thumb/v7e-m/fpv4-sp/hard\libnosys.a(sbrk.o)
                0x000398bc                _sbrk
 .text._exit    0x000398d8        0x4 c:/arm_gcc/bin/../lib/gcc/arm-none-eabi/6.3.1/../../../../arm-none-eabi/lib/thumb/v7e-m/fpv4-sp/hard\libnosys.a(_exit.o)
                0x000398d8                _exit
 *(.init)
 .init          0x000398dc        0x4 c:/arm_gcc/bin/../lib/gcc/arm-none-eabi/6.3.1/thumb/v7e-m/fpv4-sp/hard/crti.o
                0x000398dc                _init
 .init          0x000398e0        0x8 c:/arm_gcc/bin/../lib/gcc/arm-none-eabi/6.3.1/thumb/v7e-m/fpv4-sp/hard/crtn.o
 *(.fini)
 .fini          0x000398e8        0x4 c:/arm_gcc/bin/../lib/gcc/arm-none-eabi/6.3.1/thumb/v7e-m/fpv4-sp/hard/crti.o
                0x000398e8                _fini
 .fini          0x000398ec        0x8 c:/arm_gcc/bin/../lib/gcc/arm-none-eabi/6.3.1/thumb/v7e-m/fpv4-sp/hard/crtn.o
 *crtbegin.o(.ctors)
 *crtbegin?.o(.ctors)
 *(EXCLUDE_FILE(*crtend.o *crtend?.o) .ctors)
 *(SORT(.ctors.*))
 *(.ctors)
 *crtbegin.o(.dtors)
 *crtbegin?.o(.dtors)
 *(EXCLUDE_FILE(*crtend.o *crtend?.o) .dtors)
 *(SORT(.dtors.*))
 *(.dtors)
 *(.rodata*)
 .rodata        0x000398f4        0xc examples/light_switch/server/CMakeFiles/light_switch_server_nrf52832_xxAA_s132_6.0.0.dir/src/main.c.obj
 .rodata.app_onoff_server_set_cb.str1.1
                0x00039900       0x18 examples/light_switch/server/CMakeFiles/light_switch_server_nrf52832_xxAA_s132_6.0.0.dir/src/main.c.obj
 .rodata.button_event_handler.str1.1
                0x00039918       0x21 examples/light_switch/server/CMakeFiles/light_switch_server_nrf52832_xxAA_s132_6.0.0.dir/src/main.c.obj
 *fill*         0x00039939        0x3 
 .rodata.m_onoff_server_0_timer
                0x0003993c        0x4 examples/light_switch/server/CMakeFiles/light_switch_server_nrf52832_xxAA_s132_6.0.0.dir/src/main.c.obj
 .rodata.main.str1.1
                0x00039940       0x44 examples/light_switch/server/CMakeFiles/light_switch_server_nrf52832_xxAA_s132_6.0.0.dir/src/main.c.obj
 .rodata.models_init_cb.str1.1
                0x00039984       0x20 examples/light_switch/server/CMakeFiles/light_switch_server_nrf52832_xxAA_s132_6.0.0.dir/src/main.c.obj
 .rodata.node_reset.str1.1
                0x000399a4       0x19 examples/light_switch/server/CMakeFiles/light_switch_server_nrf52832_xxAA_s132_6.0.0.dir/src/main.c.obj
 .rodata.provisioning_complete_cb.str1.1
                0x000399bd       0x5c examples/light_switch/server/CMakeFiles/light_switch_server_nrf52832_xxAA_s132_6.0.0.dir/src/main.c.obj
 .rodata.static_auth_data.12194
                0x00039a19       0x10 examples/light_switch/server/CMakeFiles/light_switch_server_nrf52832_xxAA_s132_6.0.0.dir/src/main.c.obj
 .rodata.generic_onoff_state_get_cb.str1.1
                0x00039a29       0x2e examples/light_switch/server/CMakeFiles/light_switch_server_nrf52832_xxAA_s132_6.0.0.dir/__/__/common/src/app_onoff.c.obj
 .rodata.generic_onoff_state_set_cb.str1.1
                0x00039a57        0xe examples/light_switch/server/CMakeFiles/light_switch_server_nrf52832_xxAA_s132_6.0.0.dir/__/__/common/src/app_onoff.c.obj
 *fill*         0x00039a65        0x3 
 .rodata.onoff_srv_cbs
                0x00039a68        0x8 examples/light_switch/server/CMakeFiles/light_switch_server_nrf52832_xxAA_s132_6.0.0.dir/__/__/common/src/app_onoff.c.obj
                0x00039a68                onoff_srv_cbs
 .rodata.onoff_state_process_timing.str1.1
                0x00039a70       0x1e examples/light_switch/server/CMakeFiles/light_switch_server_nrf52832_xxAA_s132_6.0.0.dir/__/__/common/src/app_onoff.c.obj
 .rodata.onoff_state_value_update.str1.1
                0x00039a8e       0x40 examples/light_switch/server/CMakeFiles/light_switch_server_nrf52832_xxAA_s132_6.0.0.dir/__/__/common/src/app_onoff.c.obj
 .rodata.mesh_softdevice_init.str1.1
                0x00039ace       0x94 examples/light_switch/server/CMakeFiles/light_switch_server_nrf52832_xxAA_s132_6.0.0.dir/__/__/common/src/mesh_softdevice_init.c.obj
 .rodata        0x00039b62        0xb examples/light_switch/server/CMakeFiles/light_switch_server_nrf52832_xxAA_s132_6.0.0.dir/__/__/common/src/mesh_provisionee.c.obj
 *fill*         0x00039b6d        0x3 
 .rodata.m_rtt_timer
                0x00039b70        0x4 examples/light_switch/server/CMakeFiles/light_switch_server_nrf52832_xxAA_s132_6.0.0.dir/__/__/common/src/rtt_input.c.obj
 .rodata.rtt_input_enable.str1.1
                0x00039b74       0x23 examples/light_switch/server/CMakeFiles/light_switch_server_nrf52832_xxAA_s132_6.0.0.dir/__/__/common/src/rtt_input.c.obj
 *fill*         0x00039b97        0x1 
 .rodata.m_blink_timer
                0x00039b98        0x4 examples/light_switch/server/CMakeFiles/light_switch_server_nrf52832_xxAA_s132_6.0.0.dir/__/__/common/src/simple_hal.c.obj
 .rodata.m_buttons_list
                0x00039b9c        0x4 examples/light_switch/server/CMakeFiles/light_switch_server_nrf52832_xxAA_s132_6.0.0.dir/__/__/common/src/simple_hal.c.obj
 .rodata.app_error_fault_handler.str1.1
                0x00039ba0       0xbd examples/light_switch/server/CMakeFiles/light_switch_server_nrf52832_xxAA_s132_6.0.0.dir/__/__/common/src/app_error_weak.c.obj
 .rodata.mesh_assertion_handler.str1.1
                0x00039c5d       0xbd examples/light_switch/server/CMakeFiles/light_switch_server_nrf52832_xxAA_s132_6.0.0.dir/__/__/common/src/assertion_handler_weak.c.obj
                                  0x1 (size before relaxing)
 .rodata.sar_ctx_cancel.str1.1
                0x00039c5d       0x23 examples/light_switch/server/CMakeFiles/light_switch_server_nrf52832_xxAA_s132_6.0.0.dir/__/__/__/mesh/core/src/transport.c.obj
 .rodata.test_transport_decrypt.str1.1
                0x00039c80       0x30 examples/light_switch/server/CMakeFiles/light_switch_server_nrf52832_xxAA_s132_6.0.0.dir/__/__/__/mesh/core/src/transport.c.obj
 .rodata.transport_packet_in.str1.1
                0x00039cb0       0x24 examples/light_switch/server/CMakeFiles/light_switch_server_nrf52832_xxAA_s132_6.0.0.dir/__/__/__/mesh/core/src/transport.c.obj
 .rodata.upper_transport_access_packet_in.str1.1
                0x00039cd4       0x29 examples/light_switch/server/CMakeFiles/light_switch_server_nrf52832_xxAA_s132_6.0.0.dir/__/__/__/mesh/core/src/transport.c.obj
 .rodata.upper_transport_packet_in.str1.1
                0x00039cfd       0x2e examples/light_switch/server/CMakeFiles/light_switch_server_nrf52832_xxAA_s132_6.0.0.dir/__/__/__/mesh/core/src/transport.c.obj
 .rodata.upper_transport_tx.str1.1
                0x00039d2b        0xe examples/light_switch/server/CMakeFiles/light_switch_server_nrf52832_xxAA_s132_6.0.0.dir/__/__/__/mesh/core/src/transport.c.obj
                                 0x16 (size before relaxing)
 *fill*         0x00039d39        0x3 
 .rodata.m_procedure_steps
                0x00039d3c       0x28 examples/light_switch/server/CMakeFiles/light_switch_server_nrf52832_xxAA_s132_6.0.0.dir/__/__/__/mesh/core/src/flash_manager_defrag.c.obj
 .rodata.m_all_operations
                0x00039d64       0x10 examples/light_switch/server/CMakeFiles/light_switch_server_nrf52832_xxAA_s132_6.0.0.dir/__/__/__/mesh/core/src/mesh_flash.c.obj
 .rodata.types_lookup.9201
                0x00039d74        0x4 examples/light_switch/server/CMakeFiles/light_switch_server_nrf52832_xxAA_s132_6.0.0.dir/__/__/__/mesh/core/src/nrf_mesh_utils.c.obj
 .rodata.__func__.12111
                0x00039d78       0x15 examples/light_switch/server/CMakeFiles/light_switch_server_nrf52832_xxAA_s132_6.0.0.dir/__/__/__/mesh/core/src/nrf_mesh.c.obj
 .rodata.nrf_mesh_enable.str1.1
                0x00039d8d       0x25 examples/light_switch/server/CMakeFiles/light_switch_server_nrf52832_xxAA_s132_6.0.0.dir/__/__/__/mesh/core/src/nrf_mesh.c.obj
 .rodata.nrf_mesh_listen.str1.1
                0x00039db2       0x70 examples/light_switch/server/CMakeFiles/light_switch_server_nrf52832_xxAA_s132_6.0.0.dir/__/__/__/mesh/core/src/nrf_mesh.c.obj
 .rodata.nrf_mesh_packet_send.str1.1
                0x00039e22       0x70 examples/light_switch/server/CMakeFiles/light_switch_server_nrf52832_xxAA_s132_6.0.0.dir/__/__/__/mesh/core/src/nrf_mesh.c.obj
                                  0x4 (size before relaxing)
 .rodata.CSWTCH.8
                0x00039e22       0x10 examples/light_switch/server/CMakeFiles/light_switch_server_nrf52832_xxAA_s132_6.0.0.dir/__/__/__/mesh/core/src/hal.c.obj
 .rodata        0x00039e32       0x15 examples/light_switch/server/CMakeFiles/light_switch_server_nrf52832_xxAA_s132_6.0.0.dir/__/__/__/mesh/core/src/enc.c.obj
 .rodata.network_packet_in.str1.1
                0x00039e47       0x48 examples/light_switch/server/CMakeFiles/light_switch_server_nrf52832_xxAA_s132_6.0.0.dir/__/__/__/mesh/core/src/network.c.obj
 .rodata.net_packet_decrypt.str1.1
                0x00039e8f       0x31 examples/light_switch/server/CMakeFiles/light_switch_server_nrf52832_xxAA_s132_6.0.0.dir/__/__/__/mesh/core/src/net_packet.c.obj
                                 0x39 (size before relaxing)
 .rodata        0x00039ec0        0x7 examples/light_switch/server/CMakeFiles/light_switch_server_nrf52832_xxAA_s132_6.0.0.dir/__/__/__/mesh/core/src/nrf_mesh_keygen.c.obj
 .rodata.log_callback_rtt.str1.1
                0x00039ec7       0x15 examples/light_switch/server/CMakeFiles/light_switch_server_nrf52832_xxAA_s132_6.0.0.dir/__/__/__/mesh/core/src/log.c.obj
 .rodata.str1.1
                0x00039edc       0x11 examples/light_switch/server/CMakeFiles/light_switch_server_nrf52832_xxAA_s132_6.0.0.dir/__/__/__/mesh/core/src/log.c.obj
 *fill*         0x00039eed        0x3 
 .rodata.INVALID_HEADER
                0x00039ef0        0x4 examples/light_switch/server/CMakeFiles/light_switch_server_nrf52832_xxAA_s132_6.0.0.dir/__/__/__/mesh/core/src/flash_manager.c.obj
                0x00039ef0                INVALID_HEADER
 .rodata.PADDING_HEADER
                0x00039ef4        0x4 examples/light_switch/server/CMakeFiles/light_switch_server_nrf52832_xxAA_s132_6.0.0.dir/__/__/__/mesh/core/src/flash_manager.c.obj
                0x00039ef4                PADDING_HEADER
 .rodata.SEAL_HEADER
                0x00039ef8        0x4 examples/light_switch/server/CMakeFiles/light_switch_server_nrf52832_xxAA_s132_6.0.0.dir/__/__/__/mesh/core/src/flash_manager.c.obj
                0x00039ef8                SEAL_HEADER
 .rodata.beacon_packet_in.str1.1
                0x00039efc       0x51 examples/light_switch/server/CMakeFiles/light_switch_server_nrf52832_xxAA_s132_6.0.0.dir/__/__/__/mesh/core/src/beacon.c.obj
                                 0x59 (size before relaxing)
 *fill*         0x00039f4d        0x1 
 .rodata.__compound_literal.0
                0x00039f4e        0x4 examples/light_switch/server/CMakeFiles/light_switch_server_nrf52832_xxAA_s132_6.0.0.dir/__/__/__/mesh/core/src/heartbeat.c.obj
 .rodata.__compound_literal.1
                0x00039f52        0x4 examples/light_switch/server/CMakeFiles/light_switch_server_nrf52832_xxAA_s132_6.0.0.dir/__/__/__/mesh/core/src/heartbeat.c.obj
 *fill*         0x00039f56        0x2 
 .rodata.cp_handler
                0x00039f58        0x8 examples/light_switch/server/CMakeFiles/light_switch_server_nrf52832_xxAA_s132_6.0.0.dir/__/__/__/mesh/core/src/heartbeat.c.obj
 .rodata.__compound_literal.0
                0x00039f60        0x4 examples/light_switch/server/CMakeFiles/light_switch_server_nrf52832_xxAA_s132_6.0.0.dir/__/__/__/mesh/core/src/net_beacon.c.obj
 .rodata.beacon_tx.str1.1
                0x00039f64       0x35 examples/light_switch/server/CMakeFiles/light_switch_server_nrf52832_xxAA_s132_6.0.0.dir/__/__/__/mesh/core/src/net_beacon.c.obj
 .rodata.net_beacon_init.str1.1
                0x00039f99        0x5 examples/light_switch/server/CMakeFiles/light_switch_server_nrf52832_xxAA_s132_6.0.0.dir/__/__/__/mesh/core/src/net_beacon.c.obj
 .rodata.__compound_literal.0
                0x00039f9e        0x4 examples/light_switch/server/CMakeFiles/light_switch_server_nrf52832_xxAA_s132_6.0.0.dir/__/__/__/mesh/core/src/core_tx_adv.c.obj
 .rodata.__compound_literal.1
                0x00039fa2        0x4 examples/light_switch/server/CMakeFiles/light_switch_server_nrf52832_xxAA_s132_6.0.0.dir/__/__/__/mesh/core/src/core_tx_adv.c.obj
 .rodata.__compound_literal.2
                0x00039fa6        0x4 examples/light_switch/server/CMakeFiles/light_switch_server_nrf52832_xxAA_s132_6.0.0.dir/__/__/__/mesh/core/src/core_tx_adv.c.obj
 .rodata.m_default_tx_power
                0x00039faa        0x1 examples/light_switch/server/CMakeFiles/light_switch_server_nrf52832_xxAA_s132_6.0.0.dir/__/__/__/mesh/core/src/core_tx_adv.c.obj
 *fill*         0x00039fab        0x1 
 .rodata.m_interface
                0x00039fac        0xc examples/light_switch/server/CMakeFiles/light_switch_server_nrf52832_xxAA_s132_6.0.0.dir/__/__/__/mesh/core/src/core_tx_adv.c.obj
 .rodata.radio_mode_to_us_per_byte.9552
                0x00039fb8        0x6 examples/light_switch/server/CMakeFiles/light_switch_server_nrf52832_xxAA_s132_6.0.0.dir/__/__/__/mesh/bearer/src/broadcast.c.obj
 .rodata.channel_rf_offsets.8695
                0x00039fbe       0x28 examples/light_switch/server/CMakeFiles/light_switch_server_nrf52832_xxAA_s132_6.0.0.dir/__/__/__/mesh/bearer/src/radio_config.c.obj
 .rodata        0x00039fe6        0x3 examples/light_switch/server/CMakeFiles/light_switch_server_nrf52832_xxAA_s132_6.0.0.dir/__/__/__/mesh/bearer/src/scanner.c.obj
 .rodata.CSWTCH.123
                0x00039fe9       0x10 examples/light_switch/server/CMakeFiles/light_switch_server_nrf52832_xxAA_s132_6.0.0.dir/__/__/__/models/foundation/config/src/config_server.c.obj
 *fill*         0x00039ff9        0x3 
 .rodata.opcode_handlers
                0x00039ffc      0x170 examples/light_switch/server/CMakeFiles/light_switch_server_nrf52832_xxAA_s132_6.0.0.dir/__/__/__/models/foundation/config/src/config_server.c.obj
 .rodata.m_opcode_handlers
                0x0003a16c       0x58 examples/light_switch/server/CMakeFiles/light_switch_server_nrf52832_xxAA_s132_6.0.0.dir/__/__/__/models/foundation/health/src/health_server.c.obj
 .rodata.multiply_de_bruijn_bit_position.9314
                0x0003a1c4       0x20 examples/light_switch/server/CMakeFiles/light_switch_server_nrf52832_xxAA_s132_6.0.0.dir/__/__/__/models/foundation/health/src/health_server.c.obj
 .rodata.m_opcode_handlers
                0x0003a1e4       0x18 examples/light_switch/server/CMakeFiles/light_switch_server_nrf52832_xxAA_s132_6.0.0.dir/__/__/__/models/model_spec/generic_onoff/src/generic_onoff_server.c.obj
 .rodata.mesh_evt_cb.str1.1
                0x0003a1fc       0x13 examples/light_switch/server/CMakeFiles/light_switch_server_nrf52832_xxAA_s132_6.0.0.dir/__/__/__/mesh/access/src/access.c.obj
 .rodata.multiply_de_bruijn_bit_position.9270
                0x0003a20f       0x20 examples/light_switch/server/CMakeFiles/light_switch_server_nrf52832_xxAA_s132_6.0.0.dir/__/__/__/mesh/access/src/access.c.obj
 .rodata.packet_tx.str1.1
                0x0003a22f       0x38 examples/light_switch/server/CMakeFiles/light_switch_server_nrf52832_xxAA_s132_6.0.0.dir/__/__/__/mesh/access/src/access.c.obj
                                 0x40 (size before relaxing)
 *fill*         0x0003a267        0x1 
 .rodata.m_flash_groups
                0x0003a268       0xa8 examples/light_switch/server/CMakeFiles/light_switch_server_nrf52832_xxAA_s132_6.0.0.dir/__/__/__/mesh/access/src/device_state_manager.c.obj
 .rodata.multiply_de_bruijn_bit_position.9373
                0x0003a310       0x20 examples/light_switch/server/CMakeFiles/light_switch_server_nrf52832_xxAA_s132_6.0.0.dir/__/__/__/mesh/access/src/device_state_manager.c.obj
 .rodata.m_prov_callbacks
                0x0003a330       0x10 examples/light_switch/server/CMakeFiles/light_switch_server_nrf52832_xxAA_s132_6.0.0.dir/__/__/__/mesh/prov/src/prov_provisionee.c.obj
 .rodata.prov_provisionee_cb_ack_received.str1.1
                0x0003a340       0x53 examples/light_switch/server/CMakeFiles/light_switch_server_nrf52832_xxAA_s132_6.0.0.dir/__/__/__/mesh/prov/src/prov_provisionee.c.obj
 .rodata.multiply_de_bruijn_bit_position.9326
                0x0003a393       0x20 examples/light_switch/server/CMakeFiles/light_switch_server_nrf52832_xxAA_s132_6.0.0.dir/__/__/__/mesh/prov/src/nrf_mesh_prov.c.obj
 .rodata.pdu_sizes.11060
                0x0003a3b3        0xa examples/light_switch/server/CMakeFiles/light_switch_server_nrf52832_xxAA_s132_6.0.0.dir/__/__/__/mesh/prov/src/provisioning.c.obj
 *fill*         0x0003a3bd        0x1 
 .rodata.C.8.12163
                0x0003a3be        0x4 examples/light_switch/server/CMakeFiles/light_switch_server_nrf52832_xxAA_s132_6.0.0.dir/__/__/__/mesh/prov/src/prov_utils.c.obj
 .rodata.alphanumeric.12084
                0x0003a3c2       0x25 examples/light_switch/server/CMakeFiles/light_switch_server_nrf52832_xxAA_s132_6.0.0.dir/__/__/__/mesh/prov/src/prov_utils.c.obj
 .rodata.m_ecdh_offloading_default
                0x0003a3e7        0x1 examples/light_switch/server/CMakeFiles/light_switch_server_nrf52832_xxAA_s132_6.0.0.dir/__/__/__/mesh/prov/src/prov_utils.c.obj
 .rodata.numeric_max.12078
                0x0003a3e8       0x24 examples/light_switch/server/CMakeFiles/light_switch_server_nrf52832_xxAA_s132_6.0.0.dir/__/__/__/mesh/prov/src/prov_utils.c.obj
 .rodata.prov_utils_authentication_values_derive.str1.1
                0x0003a40c        0x5 examples/light_switch/server/CMakeFiles/light_switch_server_nrf52832_xxAA_s132_6.0.0.dir/__/__/__/mesh/prov/src/prov_utils.c.obj
 .rodata.prov_utils_derive_keys.str1.1
                0x0003a411        0xf examples/light_switch/server/CMakeFiles/light_switch_server_nrf52832_xxAA_s132_6.0.0.dir/__/__/__/mesh/prov/src/prov_utils.c.obj
 .rodata.add_active_bearer.str1.1
                0x0003a420       0x2c examples/light_switch/server/CMakeFiles/light_switch_server_nrf52832_xxAA_s132_6.0.0.dir/__/__/__/mesh/prov/src/prov_bearer_adv.c.obj
 .rodata.crctable.11088
                0x0003a44c      0x100 examples/light_switch/server/CMakeFiles/light_switch_server_nrf52832_xxAA_s132_6.0.0.dir/__/__/__/mesh/prov/src/prov_bearer_adv.c.obj
 .rodata.interface.11318
                0x0003a54c       0x14 examples/light_switch/server/CMakeFiles/light_switch_server_nrf52832_xxAA_s132_6.0.0.dir/__/__/__/mesh/prov/src/prov_bearer_adv.c.obj
 .rodata.prov_bearer_adv_packet_in.str1.1
                0x0003a560      0x26e examples/light_switch/server/CMakeFiles/light_switch_server_nrf52832_xxAA_s132_6.0.0.dir/__/__/__/mesh/prov/src/prov_bearer_adv.c.obj
 .rodata.tx_retry_cb.str1.1
                0x0003a7ce       0x37 examples/light_switch/server/CMakeFiles/light_switch_server_nrf52832_xxAA_s132_6.0.0.dir/__/__/__/mesh/prov/src/prov_bearer_adv.c.obj
 *fill*         0x0003a805        0xb 
 .rodata.delay_bytecode.9013
                0x0003a810        0x6 examples/light_switch/server/CMakeFiles/light_switch_server_nrf52832_xxAA_s132_6.0.0.dir/C_/sdks/nRF5_SDK_15.0.0_a53641a/components/libraries/timer/app_timer.c.obj
 .rodata._DoInit.str1.1
                0x0003a816       0x14 external/rtt/librtt_nrf52832_xxAA.a(SEGGER_RTT.c.obj)
 .rodata._aV2C.5497
                0x0003a82a       0x10 external/rtt/librtt_nrf52832_xxAA.a(SEGGER_RTT_printf.c.obj)
 *fill*         0x0003a83a        0x2 
 .rodata.curve_secp256r1
                0x0003a83c       0xb0 external/micro-ecc/libuECC_nrf52832_xxAA.a(uECC.c.obj)
 .rodata._global_impure_ptr
                0x0003a8ec        0x4 c:/arm_gcc/bin/../lib/gcc/arm-none-eabi/6.3.1/../../../../arm-none-eabi/lib/thumb/v7e-m/fpv4-sp/hard\libg_nano.a(lib_a-impure.o)
                0x0003a8ec                _global_impure_ptr
 *(.eh_frame*)
 .eh_frame      0x0003a8f0        0x0 c:/arm_gcc/bin/../lib/gcc/arm-none-eabi/6.3.1/thumb/v7e-m/fpv4-sp/hard/crtbegin.o
 .eh_frame      0x0003a8f0        0x4 c:/arm_gcc/bin/../lib/gcc/arm-none-eabi/6.3.1/thumb/v7e-m/fpv4-sp/hard/crtend.o

.glue_7         0x0003a8f4        0x0
 .glue_7        0x0003a8f4        0x0 linker stubs

.glue_7t        0x0003a8f4        0x0
 .glue_7t       0x0003a8f4        0x0 linker stubs

.vfp11_veneer   0x0003a8f4        0x0
 .vfp11_veneer  0x0003a8f4        0x0 linker stubs

.v4_bx          0x0003a8f4        0x0
 .v4_bx         0x0003a8f4        0x0 linker stubs

.iplt           0x0003a8f4        0x0
 .iplt          0x0003a8f4        0x0 c:/arm_gcc/bin/../lib/gcc/arm-none-eabi/6.3.1/thumb/v7e-m/fpv4-sp/hard/crtbegin.o

.pwr_mgmt_data  0x0003a8f4        0x0
                [!provide]                PROVIDE (__start_pwr_mgmt_data, .)
 *(SORT(.pwr_mgmt_data*))
                [!provide]                PROVIDE (__stop_pwr_mgmt_data, .)

.log_const_data
                0x0003a8f4        0x0
                [!provide]                PROVIDE (__start_log_const_data, .)
 *(.log_const_data)
                [!provide]                PROVIDE (__stop_log_const_data, .)

.cli_command    0x0003a8f4        0x0
                [!provide]                PROVIDE (__start_cli_command, .)
 *(.cli_command)
                [!provide]                PROVIDE (__stop_cli_command, .)

.sdh_stack_observers
                0x0003a8f4        0x0
                [!provide]                PROVIDE (__start_sdh_stack_observers, .)
 *(SORT(.sdh_stack_observers*))
                [!provide]                PROVIDE (__stop_sdh_stack_observers, .)

.sdh_req_observers
                0x0003a8f4        0x0
                [!provide]                PROVIDE (__start_sdh_req_observers, .)
 *(SORT(.sdh_req_observers*))
                [!provide]                PROVIDE (__stop_sdh_req_observers, .)

.sdh_state_observers
                0x0003a8f4        0x0
                [!provide]                PROVIDE (__start_sdh_state_observers, .)
 *(SORT(.sdh_state_observers*))
                [!provide]                PROVIDE (__stop_sdh_state_observers, .)

.sdh_ant_observers
                0x0003a8f4        0x0
                [!provide]                PROVIDE (__start_sdh_ant_observers, .)
 *(SORT(.sdh_ant_observers*))
                [!provide]                PROVIDE (__stop_sdh_ant_observers, .)

.sdh_ble_observers
                0x0003a8f4        0x0
                [!provide]                PROVIDE (__start_sdh_ble_observers, .)
 *(SORT(.sdh_ble_observers*))
                [!provide]                PROVIDE (__stop_sdh_ble_observers, .)

.sdh_soc_observers
                0x0003a8f4        0x0
                [!provide]                PROVIDE (__start_sdh_soc_observers, .)
 *(SORT(.sdh_soc_observers*))
                [!provide]                PROVIDE (__stop_sdh_soc_observers, .)

.nrf_mesh_flash
                0x0003a8f4       0xb8
                [!provide]                PROVIDE (__start_nrf_mesh_flash, .)
 *(SORT(.nrf_mesh_flash.*))
 .nrf_mesh_flash.mesh_config_entries__0
                0x0003a8f4        0x0 examples/light_switch/server/CMakeFiles/light_switch_server_nrf52832_xxAA_s132_6.0.0.dir/__/__/__/mesh/core/src/mesh_config.c.obj
                0x0003a8f4                __nrf_mesh_start_mesh_config_entries
 .nrf_mesh_flash.mesh_config_entries__1
                0x0003a8f4       0x1c examples/light_switch/server/CMakeFiles/light_switch_server_nrf52832_xxAA_s132_6.0.0.dir/__/__/__/mesh/core/src/heartbeat.c.obj
                0x0003a8f4                m_heartbeat_publication_params
 .nrf_mesh_flash.mesh_config_entries__1
                0x0003a910       0x1c examples/light_switch/server/CMakeFiles/light_switch_server_nrf52832_xxAA_s132_6.0.0.dir/__/__/__/mesh/core/src/net_beacon.c.obj
                0x0003a910                m_net_beacon_enable_params
 .nrf_mesh_flash.mesh_config_entries__1
                0x0003a92c       0x54 examples/light_switch/server/CMakeFiles/light_switch_server_nrf52832_xxAA_s132_6.0.0.dir/__/__/__/mesh/core/src/core_tx_adv.c.obj
                0x0003a92c                m_mesh_opt_core_adv_addr_params
                0x0003a948                m_mesh_opt_core_tx_power_params
                0x0003a964                m_mesh_opt_core_adv_params
 .nrf_mesh_flash.mesh_config_entries__1
                0x0003a980       0x1c examples/light_switch/server/CMakeFiles/light_switch_server_nrf52832_xxAA_s132_6.0.0.dir/__/__/__/mesh/prov/src/prov_utils.c.obj
                0x0003a980                m_ecdh_offloading_params
 .nrf_mesh_flash.mesh_config_entries__2
                0x0003a99c        0x0 examples/light_switch/server/CMakeFiles/light_switch_server_nrf52832_xxAA_s132_6.0.0.dir/__/__/__/mesh/core/src/mesh_config.c.obj
                0x0003a99c                __nrf_mesh_stop_mesh_config_entries
 .nrf_mesh_flash.mesh_config_entry_listeners__0
                0x0003a99c        0x0 examples/light_switch/server/CMakeFiles/light_switch_server_nrf52832_xxAA_s132_6.0.0.dir/__/__/__/mesh/core/src/mesh_config.c.obj
                0x0003a99c                __nrf_mesh_start_mesh_config_entry_listeners
 .nrf_mesh_flash.mesh_config_entry_listeners__1
                0x0003a99c        0x8 examples/light_switch/server/CMakeFiles/light_switch_server_nrf52832_xxAA_s132_6.0.0.dir/__/__/__/mesh/core/src/heartbeat.c.obj
                0x0003a99c                m_heartbeat_relay_listener
 .nrf_mesh_flash.mesh_config_entry_listeners__2
                0x0003a9a4        0x0 examples/light_switch/server/CMakeFiles/light_switch_server_nrf52832_xxAA_s132_6.0.0.dir/__/__/__/mesh/core/src/mesh_config.c.obj
                0x0003a9a4                __nrf_mesh_stop_mesh_config_entry_listeners
 .nrf_mesh_flash.mesh_config_files__0
                0x0003a9a4        0x0 examples/light_switch/server/CMakeFiles/light_switch_server_nrf52832_xxAA_s132_6.0.0.dir/__/__/__/mesh/core/src/mesh_config.c.obj
                0x0003a9a4                __nrf_mesh_start_mesh_config_files
 .nrf_mesh_flash.mesh_config_files__1
                0x0003a9a4        0x8 examples/light_switch/server/CMakeFiles/light_switch_server_nrf52832_xxAA_s132_6.0.0.dir/__/__/__/mesh/core/src/mesh_opt.c.obj
                0x0003a9a4                m_mesh_opt_core_file
 .nrf_mesh_flash.mesh_config_files__2
                0x0003a9ac        0x0 examples/light_switch/server/CMakeFiles/light_switch_server_nrf52832_xxAA_s132_6.0.0.dir/__/__/__/mesh/core/src/mesh_config.c.obj
                0x0003a9ac                __nrf_mesh_stop_mesh_config_files
                [!provide]                PROVIDE (__stop_nrf_mesh_flash, .)

.ARM.extab
 *(.ARM.extab* .gnu.linkonce.armextab.*)
                0x0003a9ac                __exidx_start = .

.ARM.exidx      0x0003a9ac        0x8
 *(.ARM.exidx* .gnu.linkonce.armexidx.*)
 .ARM.exidx     0x0003a9ac        0x8 c:/arm_gcc/bin/../lib/gcc/arm-none-eabi/6.3.1/../../../../arm-none-eabi/lib/thumb/v7e-m/fpv4-sp/hard/crt0.o
 .ARM.exidx     0x0003a9b4        0x0 c:/arm_gcc/bin/../lib/gcc/arm-none-eabi/6.3.1/thumb/v7e-m/fpv4-sp/hard\libgcc.a(_udivmoddi4.o)
                                  0x8 (size before relaxing)
                0x0003a9b4                __exidx_end = .
                0x0003a9b4                __etext = .

.rel.dyn        0x0003a9b4        0x0
 .rel.iplt      0x0003a9b4        0x0 c:/arm_gcc/bin/../lib/gcc/arm-none-eabi/6.3.1/thumb/v7e-m/fpv4-sp/hard/crtbegin.o

.data           0x20002da0      0x1a0 load address 0x0003a9b4
                0x20002da0                __data_start__ = .
 *(vtable)
 *(.data*)
 .data.m_onoff_server_0
                0x20002da0       0x50 examples/light_switch/server/CMakeFiles/light_switch_server_nrf52832_xxAA_s132_6.0.0.dir/src/main.c.obj
 .data.s_evt_handler.11722
                0x20002df0        0xc examples/light_switch/server/CMakeFiles/light_switch_server_nrf52832_xxAA_s132_6.0.0.dir/__/__/__/mesh/stack/src/mesh_stack.c.obj
 .data.wait.8936
                0x20002dfc        0x1 examples/light_switch/server/CMakeFiles/light_switch_server_nrf52832_xxAA_s132_6.0.0.dir/__/__/common/src/app_error_weak.c.obj
 *fill*         0x20002dfd        0x3 
 .data.mem_listener.10420
                0x20002e00       0x10 examples/light_switch/server/CMakeFiles/light_switch_server_nrf52832_xxAA_s132_6.0.0.dir/__/__/__/mesh/core/src/net_state.c.obj
 .data.mem_listener.10425
                0x20002e10       0x10 examples/light_switch/server/CMakeFiles/light_switch_server_nrf52832_xxAA_s132_6.0.0.dir/__/__/__/mesh/core/src/net_state.c.obj
 .data.mem_listener.10439
                0x20002e20       0x10 examples/light_switch/server/CMakeFiles/light_switch_server_nrf52832_xxAA_s132_6.0.0.dir/__/__/__/mesh/core/src/net_state.c.obj
 .data.mem_listener.10456
                0x20002e30       0x10 examples/light_switch/server/CMakeFiles/light_switch_server_nrf52832_xxAA_s132_6.0.0.dir/__/__/__/mesh/core/src/net_state.c.obj
 .data.m_nrf_mesh_listener
                0x20002e40        0xc examples/light_switch/server/CMakeFiles/light_switch_server_nrf52832_xxAA_s132_6.0.0.dir/__/__/__/mesh/core/src/nrf_mesh.c.obj
 .data.g_log_dbg_lvl
                0x20002e4c        0x4 examples/light_switch/server/CMakeFiles/light_switch_server_nrf52832_xxAA_s132_6.0.0.dir/__/__/__/mesh/core/src/log.c.obj
                0x20002e4c                g_log_dbg_lvl
 .data.g_log_dbg_msk
                0x20002e50        0x4 examples/light_switch/server/CMakeFiles/light_switch_server_nrf52832_xxAA_s132_6.0.0.dir/__/__/__/mesh/core/src/log.c.obj
                0x20002e50                g_log_dbg_msk
 .data.g_log_hex_digits
                0x20002e54        0x4 examples/light_switch/server/CMakeFiles/light_switch_server_nrf52832_xxAA_s132_6.0.0.dir/__/__/__/mesh/core/src/log.c.obj
                0x20002e54                g_log_hex_digits
 .data.m_log_callback
                0x20002e58        0x4 examples/light_switch/server/CMakeFiles/light_switch_server_nrf52832_xxAA_s132_6.0.0.dir/__/__/__/mesh/core/src/log.c.obj
                0x20002e58                m_log_callback
 .data.m_default_adv
                0x20002e5c        0x4 examples/light_switch/server/CMakeFiles/light_switch_server_nrf52832_xxAA_s132_6.0.0.dir/__/__/__/mesh/core/src/core_tx_adv.c.obj
 .data.m_config_server_handle
                0x20002e60        0x2 examples/light_switch/server/CMakeFiles/light_switch_server_nrf52832_xxAA_s132_6.0.0.dir/__/__/__/models/foundation/config/src/config_server.c.obj
 *fill*         0x20002e62        0x2 
 .data.m_mesh_evt_handler
                0x20002e64        0xc examples/light_switch/server/CMakeFiles/light_switch_server_nrf52832_xxAA_s132_6.0.0.dir/__/__/__/models/foundation/config/src/config_server.c.obj
 .data.flash_add_mem_available_struct.10997
                0x20002e70       0x10 examples/light_switch/server/CMakeFiles/light_switch_server_nrf52832_xxAA_s132_6.0.0.dir/__/__/__/mesh/access/src/access.c.obj
 .data.flash_clear_mem_available_struct.11086
                0x20002e80       0x10 examples/light_switch/server/CMakeFiles/light_switch_server_nrf52832_xxAA_s132_6.0.0.dir/__/__/__/mesh/access/src/access.c.obj
 .data.flash_store_mem_available_struct.11110
                0x20002e90       0x10 examples/light_switch/server/CMakeFiles/light_switch_server_nrf52832_xxAA_s132_6.0.0.dir/__/__/__/mesh/access/src/access.c.obj
 .data.m_default_ttl
                0x20002ea0        0x1 examples/light_switch/server/CMakeFiles/light_switch_server_nrf52832_xxAA_s132_6.0.0.dir/__/__/__/mesh/access/src/access.c.obj
 *fill*         0x20002ea1        0x3 
 .data.mem_listener.11503
                0x20002ea4       0x10 examples/light_switch/server/CMakeFiles/light_switch_server_nrf52832_xxAA_s132_6.0.0.dir/__/__/__/mesh/access/src/device_state_manager.c.obj
 .data.mem_listener.11529
                0x20002eb4       0x10 examples/light_switch/server/CMakeFiles/light_switch_server_nrf52832_xxAA_s132_6.0.0.dir/__/__/__/mesh/access/src/device_state_manager.c.obj
 .data.m_async_process_flag
                0x20002ec4        0x4 examples/light_switch/server/CMakeFiles/light_switch_server_nrf52832_xxAA_s132_6.0.0.dir/__/__/__/mesh/prov/src/prov_bearer_adv.c.obj
 .data.SystemCoreClock
                0x20002ec8        0x4 examples/light_switch/server/CMakeFiles/light_switch_server_nrf52832_xxAA_s132_6.0.0.dir/C_/sdks/nRF5_SDK_15.0.0_a53641a/modules/nrfx/mdk/system_nrf52.c.obj
                0x20002ec8                SystemCoreClock
 .data.g_rng_function
                0x20002ecc        0x4 external/micro-ecc/libuECC_nrf52832_xxAA.a(uECC.c.obj)
 .data._impure_ptr
                0x20002ed0        0x4 c:/arm_gcc/bin/../lib/gcc/arm-none-eabi/6.3.1/../../../../arm-none-eabi/lib/thumb/v7e-m/fpv4-sp/hard\libg_nano.a(lib_a-impure.o)
                0x20002ed0                _impure_ptr
 .data.impure_data
                0x20002ed4       0x60 c:/arm_gcc/bin/../lib/gcc/arm-none-eabi/6.3.1/../../../../arm-none-eabi/lib/thumb/v7e-m/fpv4-sp/hard\libg_nano.a(lib_a-impure.o)
                0x20002f34                . = ALIGN (0x4)
                0x20002f34                PROVIDE (__preinit_array_start, .)
 *(.preinit_array)
                0x20002f34                PROVIDE (__preinit_array_end, .)
                0x20002f34                . = ALIGN (0x4)
                0x20002f34                PROVIDE (__init_array_start, .)
 *(SORT(.init_array.*))
 *(.init_array)
 .init_array    0x20002f34        0x4 c:/arm_gcc/bin/../lib/gcc/arm-none-eabi/6.3.1/thumb/v7e-m/fpv4-sp/hard/crtbegin.o
                0x20002f38                PROVIDE (__init_array_end, .)
                0x20002f38                . = ALIGN (0x4)
                [!provide]                PROVIDE (__fini_array_start, .)
 *(SORT(.fini_array.*))
 *(.fini_array)
 .fini_array    0x20002f38        0x4 c:/arm_gcc/bin/../lib/gcc/arm-none-eabi/6.3.1/thumb/v7e-m/fpv4-sp/hard/crtbegin.o
                [!provide]                PROVIDE (__fini_array_end, .)
 *(.jcr*)
 .jcr           0x20002f3c        0x0 c:/arm_gcc/bin/../lib/gcc/arm-none-eabi/6.3.1/thumb/v7e-m/fpv4-sp/hard/crtbegin.o
 .jcr           0x20002f3c        0x4 c:/arm_gcc/bin/../lib/gcc/arm-none-eabi/6.3.1/thumb/v7e-m/fpv4-sp/hard/crtend.o
                0x20002f40                . = ALIGN (0x4)
                0x20002f40                __data_end__ = .
LOAD c:/arm_gcc/bin/../lib/gcc/arm-none-eabi/6.3.1/thumb/v7e-m/fpv4-sp/hard/crti.o
LOAD c:/arm_gcc/bin/../lib/gcc/arm-none-eabi/6.3.1/thumb/v7e-m/fpv4-sp/hard/crtbegin.o
LOAD c:/arm_gcc/bin/../lib/gcc/arm-none-eabi/6.3.1/../../../../arm-none-eabi/lib/thumb/v7e-m/fpv4-sp/hard/crt0.o
LOAD examples/light_switch/server/CMakeFiles/light_switch_server_nrf52832_xxAA_s132_6.0.0.dir/src/main.c.obj
LOAD examples/light_switch/server/CMakeFiles/light_switch_server_nrf52832_xxAA_s132_6.0.0.dir/__/__/common/src/app_onoff.c.obj
LOAD examples/light_switch/server/CMakeFiles/light_switch_server_nrf52832_xxAA_s132_6.0.0.dir/__/__/__/mesh/stack/src/mesh_stack.c.obj
LOAD examples/light_switch/server/CMakeFiles/light_switch_server_nrf52832_xxAA_s132_6.0.0.dir/__/__/common/src/mesh_softdevice_init.c.obj
LOAD examples/light_switch/server/CMakeFiles/light_switch_server_nrf52832_xxAA_s132_6.0.0.dir/__/__/common/src/mesh_provisionee.c.obj
LOAD examples/light_switch/server/CMakeFiles/light_switch_server_nrf52832_xxAA_s132_6.0.0.dir/__/__/common/src/rtt_input.c.obj
LOAD examples/light_switch/server/CMakeFiles/light_switch_server_nrf52832_xxAA_s132_6.0.0.dir/__/__/common/src/simple_hal.c.obj
LOAD examples/light_switch/server/CMakeFiles/light_switch_server_nrf52832_xxAA_s132_6.0.0.dir/__/__/common/src/mesh_app_utils.c.obj
LOAD examples/light_switch/server/CMakeFiles/light_switch_server_nrf52832_xxAA_s132_6.0.0.dir/__/__/nrf_mesh_weak.c.obj
LOAD examples/light_switch/server/CMakeFiles/light_switch_server_nrf52832_xxAA_s132_6.0.0.dir/__/__/common/src/app_error_weak.c.obj
LOAD examples/light_switch/server/CMakeFiles/light_switch_server_nrf52832_xxAA_s132_6.0.0.dir/__/__/common/src/assertion_handler_weak.c.obj
LOAD examples/light_switch/server/CMakeFiles/light_switch_server_nrf52832_xxAA_s132_6.0.0.dir/__/__/__/mesh/core/src/internal_event.c.obj
LOAD examples/light_switch/server/CMakeFiles/light_switch_server_nrf52832_xxAA_s132_6.0.0.dir/__/__/__/mesh/core/src/nrf_mesh_configure.c.obj
LOAD examples/light_switch/server/CMakeFiles/light_switch_server_nrf52832_xxAA_s132_6.0.0.dir/__/__/__/mesh/core/src/aes.c.obj
LOAD examples/light_switch/server/CMakeFiles/light_switch_server_nrf52832_xxAA_s132_6.0.0.dir/__/__/__/mesh/core/src/msg_cache.c.obj
LOAD examples/light_switch/server/CMakeFiles/light_switch_server_nrf52832_xxAA_s132_6.0.0.dir/__/__/__/mesh/core/src/transport.c.obj
LOAD examples/light_switch/server/CMakeFiles/light_switch_server_nrf52832_xxAA_s132_6.0.0.dir/__/__/__/mesh/core/src/event.c.obj
LOAD examples/light_switch/server/CMakeFiles/light_switch_server_nrf52832_xxAA_s132_6.0.0.dir/__/__/__/mesh/core/src/packet_buffer.c.obj
LOAD examples/light_switch/server/CMakeFiles/light_switch_server_nrf52832_xxAA_s132_6.0.0.dir/__/__/__/mesh/core/src/flash_manager_defrag.c.obj
LOAD examples/light_switch/server/CMakeFiles/light_switch_server_nrf52832_xxAA_s132_6.0.0.dir/__/__/__/mesh/core/src/fifo.c.obj
LOAD examples/light_switch/server/CMakeFiles/light_switch_server_nrf52832_xxAA_s132_6.0.0.dir/__/__/__/mesh/core/src/nrf_flash.c.obj
LOAD examples/light_switch/server/CMakeFiles/light_switch_server_nrf52832_xxAA_s132_6.0.0.dir/__/__/__/mesh/core/src/packet_mgr.c.obj
LOAD examples/light_switch/server/CMakeFiles/light_switch_server_nrf52832_xxAA_s132_6.0.0.dir/__/__/__/mesh/core/src/net_state.c.obj
LOAD examples/light_switch/server/CMakeFiles/light_switch_server_nrf52832_xxAA_s132_6.0.0.dir/__/__/__/mesh/core/src/mesh_flash.c.obj
LOAD examples/light_switch/server/CMakeFiles/light_switch_server_nrf52832_xxAA_s132_6.0.0.dir/__/__/__/mesh/core/src/nrf_mesh_utils.c.obj
LOAD examples/light_switch/server/CMakeFiles/light_switch_server_nrf52832_xxAA_s132_6.0.0.dir/__/__/__/mesh/core/src/nrf_mesh.c.obj
LOAD examples/light_switch/server/CMakeFiles/light_switch_server_nrf52832_xxAA_s132_6.0.0.dir/__/__/__/mesh/core/src/queue.c.obj
LOAD examples/light_switch/server/CMakeFiles/light_switch_server_nrf52832_xxAA_s132_6.0.0.dir/__/__/__/mesh/core/src/hal.c.obj
LOAD examples/light_switch/server/CMakeFiles/light_switch_server_nrf52832_xxAA_s132_6.0.0.dir/__/__/__/mesh/core/src/aes_cmac.c.obj
LOAD examples/light_switch/server/CMakeFiles/light_switch_server_nrf52832_xxAA_s132_6.0.0.dir/__/__/__/mesh/core/src/timer_scheduler.c.obj
LOAD examples/light_switch/server/CMakeFiles/light_switch_server_nrf52832_xxAA_s132_6.0.0.dir/__/__/__/mesh/core/src/timer.c.obj
LOAD examples/light_switch/server/CMakeFiles/light_switch_server_nrf52832_xxAA_s132_6.0.0.dir/__/__/__/mesh/core/src/rand.c.obj
LOAD examples/light_switch/server/CMakeFiles/light_switch_server_nrf52832_xxAA_s132_6.0.0.dir/__/__/__/mesh/core/src/nrf_mesh_opt.c.obj
LOAD examples/light_switch/server/CMakeFiles/light_switch_server_nrf52832_xxAA_s132_6.0.0.dir/__/__/__/mesh/core/src/mesh_opt.c.obj
LOAD examples/light_switch/server/CMakeFiles/light_switch_server_nrf52832_xxAA_s132_6.0.0.dir/__/__/__/mesh/core/src/timeslot.c.obj
LOAD examples/light_switch/server/CMakeFiles/light_switch_server_nrf52832_xxAA_s132_6.0.0.dir/__/__/__/mesh/core/src/bearer_event.c.obj
LOAD examples/light_switch/server/CMakeFiles/light_switch_server_nrf52832_xxAA_s132_6.0.0.dir/__/__/__/mesh/core/src/enc.c.obj
LOAD examples/light_switch/server/CMakeFiles/light_switch_server_nrf52832_xxAA_s132_6.0.0.dir/__/__/__/mesh/core/src/network.c.obj
LOAD examples/light_switch/server/CMakeFiles/light_switch_server_nrf52832_xxAA_s132_6.0.0.dir/__/__/__/mesh/core/src/net_packet.c.obj
LOAD examples/light_switch/server/CMakeFiles/light_switch_server_nrf52832_xxAA_s132_6.0.0.dir/__/__/__/mesh/core/src/msqueue.c.obj
LOAD examples/light_switch/server/CMakeFiles/light_switch_server_nrf52832_xxAA_s132_6.0.0.dir/__/__/__/mesh/core/src/nrf_mesh_keygen.c.obj
LOAD examples/light_switch/server/CMakeFiles/light_switch_server_nrf52832_xxAA_s132_6.0.0.dir/__/__/__/mesh/core/src/cache.c.obj
LOAD examples/light_switch/server/CMakeFiles/light_switch_server_nrf52832_xxAA_s132_6.0.0.dir/__/__/__/mesh/core/src/list.c.obj
LOAD examples/light_switch/server/CMakeFiles/light_switch_server_nrf52832_xxAA_s132_6.0.0.dir/__/__/__/mesh/core/src/log.c.obj
LOAD examples/light_switch/server/CMakeFiles/light_switch_server_nrf52832_xxAA_s132_6.0.0.dir/__/__/__/mesh/core/src/flash_manager.c.obj
LOAD examples/light_switch/server/CMakeFiles/light_switch_server_nrf52832_xxAA_s132_6.0.0.dir/__/__/__/mesh/core/src/ccm_soft.c.obj
LOAD examples/light_switch/server/CMakeFiles/light_switch_server_nrf52832_xxAA_s132_6.0.0.dir/__/__/__/mesh/core/src/toolchain.c.obj
LOAD examples/light_switch/server/CMakeFiles/light_switch_server_nrf52832_xxAA_s132_6.0.0.dir/__/__/__/mesh/core/src/replay_cache.c.obj
LOAD examples/light_switch/server/CMakeFiles/light_switch_server_nrf52832_xxAA_s132_6.0.0.dir/__/__/__/mesh/core/src/beacon.c.obj
LOAD examples/light_switch/server/CMakeFiles/light_switch_server_nrf52832_xxAA_s132_6.0.0.dir/__/__/__/mesh/core/src/flash_manager_internal.c.obj
LOAD examples/light_switch/server/CMakeFiles/light_switch_server_nrf52832_xxAA_s132_6.0.0.dir/__/__/__/mesh/core/src/core_tx.c.obj
LOAD examples/light_switch/server/CMakeFiles/light_switch_server_nrf52832_xxAA_s132_6.0.0.dir/__/__/__/mesh/core/src/heartbeat.c.obj
LOAD examples/light_switch/server/CMakeFiles/light_switch_server_nrf52832_xxAA_s132_6.0.0.dir/__/__/__/mesh/core/src/net_beacon.c.obj
LOAD examples/light_switch/server/CMakeFiles/light_switch_server_nrf52832_xxAA_s132_6.0.0.dir/__/__/__/mesh/core/src/mesh_config.c.obj
LOAD examples/light_switch/server/CMakeFiles/light_switch_server_nrf52832_xxAA_s132_6.0.0.dir/__/__/__/mesh/core/src/fsm.c.obj
LOAD examples/light_switch/server/CMakeFiles/light_switch_server_nrf52832_xxAA_s132_6.0.0.dir/__/__/__/mesh/core/src/mesh_config_backend.c.obj
LOAD examples/light_switch/server/CMakeFiles/light_switch_server_nrf52832_xxAA_s132_6.0.0.dir/__/__/__/mesh/core/src/mesh_config_flashman_glue.c.obj
LOAD examples/light_switch/server/CMakeFiles/light_switch_server_nrf52832_xxAA_s132_6.0.0.dir/__/__/__/mesh/core/src/core_tx_adv.c.obj
LOAD examples/light_switch/server/CMakeFiles/light_switch_server_nrf52832_xxAA_s132_6.0.0.dir/__/__/__/mesh/bearer/src/ad_listener.c.obj
LOAD examples/light_switch/server/CMakeFiles/light_switch_server_nrf52832_xxAA_s132_6.0.0.dir/__/__/__/mesh/bearer/src/ad_type_filter.c.obj
LOAD examples/light_switch/server/CMakeFiles/light_switch_server_nrf52832_xxAA_s132_6.0.0.dir/__/__/__/mesh/bearer/src/adv_packet_filter.c.obj
LOAD examples/light_switch/server/CMakeFiles/light_switch_server_nrf52832_xxAA_s132_6.0.0.dir/__/__/__/mesh/bearer/src/advertiser.c.obj
LOAD examples/light_switch/server/CMakeFiles/light_switch_server_nrf52832_xxAA_s132_6.0.0.dir/__/__/__/mesh/bearer/src/bearer_handler.c.obj
LOAD examples/light_switch/server/CMakeFiles/light_switch_server_nrf52832_xxAA_s132_6.0.0.dir/__/__/__/mesh/bearer/src/broadcast.c.obj
LOAD examples/light_switch/server/CMakeFiles/light_switch_server_nrf52832_xxAA_s132_6.0.0.dir/__/__/__/mesh/bearer/src/filter_engine.c.obj
LOAD examples/light_switch/server/CMakeFiles/light_switch_server_nrf52832_xxAA_s132_6.0.0.dir/__/__/__/mesh/bearer/src/gap_address_filter.c.obj
LOAD examples/light_switch/server/CMakeFiles/light_switch_server_nrf52832_xxAA_s132_6.0.0.dir/__/__/__/mesh/bearer/src/radio_config.c.obj
LOAD examples/light_switch/server/CMakeFiles/light_switch_server_nrf52832_xxAA_s132_6.0.0.dir/__/__/__/mesh/bearer/src/rssi_filter.c.obj
LOAD examples/light_switch/server/CMakeFiles/light_switch_server_nrf52832_xxAA_s132_6.0.0.dir/__/__/__/mesh/bearer/src/scanner.c.obj
LOAD examples/light_switch/server/CMakeFiles/light_switch_server_nrf52832_xxAA_s132_6.0.0.dir/__/__/__/mesh/bearer/src/mesh_pa_lna.c.obj
LOAD examples/light_switch/server/CMakeFiles/light_switch_server_nrf52832_xxAA_s132_6.0.0.dir/__/__/__/models/foundation/config/src/composition_data.c.obj
LOAD examples/light_switch/server/CMakeFiles/light_switch_server_nrf52832_xxAA_s132_6.0.0.dir/__/__/__/models/foundation/config/src/config_server.c.obj
LOAD examples/light_switch/server/CMakeFiles/light_switch_server_nrf52832_xxAA_s132_6.0.0.dir/__/__/__/models/foundation/config/src/packed_index_list.c.obj
LOAD examples/light_switch/server/CMakeFiles/light_switch_server_nrf52832_xxAA_s132_6.0.0.dir/__/__/__/models/foundation/health/src/health_server.c.obj
LOAD examples/light_switch/server/CMakeFiles/light_switch_server_nrf52832_xxAA_s132_6.0.0.dir/__/__/__/models/model_spec/generic_onoff/src/generic_onoff_server.c.obj
LOAD examples/light_switch/server/CMakeFiles/light_switch_server_nrf52832_xxAA_s132_6.0.0.dir/__/__/__/models/model_spec/common/src/model_common.c.obj
LOAD examples/light_switch/server/CMakeFiles/light_switch_server_nrf52832_xxAA_s132_6.0.0.dir/__/__/__/mesh/access/src/access_publish.c.obj
LOAD examples/light_switch/server/CMakeFiles/light_switch_server_nrf52832_xxAA_s132_6.0.0.dir/__/__/__/mesh/access/src/access.c.obj
LOAD examples/light_switch/server/CMakeFiles/light_switch_server_nrf52832_xxAA_s132_6.0.0.dir/__/__/__/mesh/access/src/access_reliable.c.obj
LOAD examples/light_switch/server/CMakeFiles/light_switch_server_nrf52832_xxAA_s132_6.0.0.dir/__/__/__/mesh/access/src/access_loopback.c.obj
LOAD examples/light_switch/server/CMakeFiles/light_switch_server_nrf52832_xxAA_s132_6.0.0.dir/__/__/__/mesh/access/src/device_state_manager.c.obj
LOAD examples/light_switch/server/CMakeFiles/light_switch_server_nrf52832_xxAA_s132_6.0.0.dir/__/__/__/mesh/prov/src/prov_provisionee.c.obj
LOAD examples/light_switch/server/CMakeFiles/light_switch_server_nrf52832_xxAA_s132_6.0.0.dir/__/__/__/mesh/prov/src/nrf_mesh_prov.c.obj
LOAD examples/light_switch/server/CMakeFiles/light_switch_server_nrf52832_xxAA_s132_6.0.0.dir/__/__/__/mesh/prov/src/provisioning.c.obj
LOAD examples/light_switch/server/CMakeFiles/light_switch_server_nrf52832_xxAA_s132_6.0.0.dir/__/__/__/mesh/prov/src/prov_beacon.c.obj
LOAD examples/light_switch/server/CMakeFiles/light_switch_server_nrf52832_xxAA_s132_6.0.0.dir/__/__/__/mesh/prov/src/prov_utils.c.obj
LOAD examples/light_switch/server/CMakeFiles/light_switch_server_nrf52832_xxAA_s132_6.0.0.dir/__/__/__/mesh/prov/src/prov_bearer_adv.c.obj
LOAD examples/light_switch/server/CMakeFiles/light_switch_server_nrf52832_xxAA_s132_6.0.0.dir/C_/sdks/nRF5_SDK_15.0.0_a53641a/modules/nrfx/mdk/system_nrf52.c.obj
LOAD examples/light_switch/server/CMakeFiles/light_switch_server_nrf52832_xxAA_s132_6.0.0.dir/C_/sdks/nRF5_SDK_15.0.0_a53641a/modules/nrfx/mdk/gcc_startup_nrf52.S.obj
LOAD examples/light_switch/server/CMakeFiles/light_switch_server_nrf52832_xxAA_s132_6.0.0.dir/C_/sdks/nRF5_SDK_15.0.0_a53641a/components/libraries/util/app_error.c.obj
LOAD examples/light_switch/server/CMakeFiles/light_switch_server_nrf52832_xxAA_s132_6.0.0.dir/C_/sdks/nRF5_SDK_15.0.0_a53641a/components/libraries/util/app_util_platform.c.obj
LOAD examples/light_switch/server/CMakeFiles/light_switch_server_nrf52832_xxAA_s132_6.0.0.dir/C_/sdks/nRF5_SDK_15.0.0_a53641a/components/libraries/timer/app_timer.c.obj
LOAD examples/light_switch/server/CMakeFiles/light_switch_server_nrf52832_xxAA_s132_6.0.0.dir/C_/sdks/nRF5_SDK_15.0.0_a53641a/components/libraries/util/app_error_handler_gcc.c.obj
LOAD external/rtt/librtt_nrf52832_xxAA.a
LOAD external/micro-ecc/libuECC_nrf52832_xxAA.a
START GROUP
LOAD c:/arm_gcc/bin/../lib/gcc/arm-none-eabi/6.3.1/thumb/v7e-m/fpv4-sp/hard\libgcc.a
LOAD c:/arm_gcc/bin/../lib/gcc/arm-none-eabi/6.3.1/../../../../arm-none-eabi/lib/thumb/v7e-m/fpv4-sp/hard\libg_nano.a
LOAD c:/arm_gcc/bin/../lib/gcc/arm-none-eabi/6.3.1/../../../../arm-none-eabi/lib/thumb/v7e-m/fpv4-sp/hard\libc_nano.a
END GROUP
START GROUP
LOAD c:/arm_gcc/bin/../lib/gcc/arm-none-eabi/6.3.1/thumb/v7e-m/fpv4-sp/hard\libgcc.a
LOAD c:/arm_gcc/bin/../lib/gcc/arm-none-eabi/6.3.1/../../../../arm-none-eabi/lib/thumb/v7e-m/fpv4-sp/hard\libc_nano.a
END GROUP
LOAD c:/arm_gcc/bin/../lib/gcc/arm-none-eabi/6.3.1/thumb/v7e-m/fpv4-sp/hard/crtend.o
LOAD c:/arm_gcc/bin/../lib/gcc/arm-none-eabi/6.3.1/thumb/v7e-m/fpv4-sp/hard/crtn.o
START GROUP
LOAD c:/arm_gcc/bin/../lib/gcc/arm-none-eabi/6.3.1/thumb/v7e-m/fpv4-sp/hard\libgcc.a
LOAD c:/arm_gcc/bin/../lib/gcc/arm-none-eabi/6.3.1/../../../../arm-none-eabi/lib/thumb/v7e-m/fpv4-sp/hard\libc.a
LOAD c:/arm_gcc/bin/../lib/gcc/arm-none-eabi/6.3.1/../../../../arm-none-eabi/lib/thumb/v7e-m/fpv4-sp/hard\libnosys.a
END GROUP

.igot.plt       0x20002f40        0x0 load address 0x0003ab54
 .igot.plt      0x20002f40        0x0 c:/arm_gcc/bin/../lib/gcc/arm-none-eabi/6.3.1/thumb/v7e-m/fpv4-sp/hard/crtbegin.o
                0x20002f40                . = ALIGN (0x4)

.svc_data       0x20002f40        0x0
                [!provide]                PROVIDE (__start_svc_data, .)
 *(.svc_data)
                [!provide]                PROVIDE (__stop_svc_data, .)

.fs_data        0x20002f40        0x0
                [!provide]                PROVIDE (__start_fs_data, .)
 *(.fs_data)
                [!provide]                PROVIDE (__stop_fs_data, .)

.log_dynamic_data
                0x20002f40        0x0
                [!provide]                PROVIDE (__start_log_dynamic_data, .)
 *(.log_dynamic_data)
                [!provide]                PROVIDE (__stop_log_dynamic_data, .)

.cli_sorted_cmd_ptrs
                0x20002f40        0x0
                [!provide]                PROVIDE (__start_cli_sorted_cmd_ptrs, .)
 *(.cli_sorted_cmd_ptrs)
                [!provide]                PROVIDE (__stop_cli_sorted_cmd_ptrs, .)

.nrf_mesh_ram   0x20002f40        0x0
                [!provide]                PROVIDE (__start_nrf_mesh_ram, .)
 *(SORT(.nrf_mesh_ram.*))
                [!provide]                PROVIDE (__stop_nrf_mesh_ram, .)

.bss            0x20002f40     0x317c load address 0x0003ab58
                0x20002f40                . = ALIGN (0x4)
                0x20002f40                __bss_start__ = .
 *(.bss*)
 .bss           0x20002f40       0x1c c:/arm_gcc/bin/../lib/gcc/arm-none-eabi/6.3.1/thumb/v7e-m/fpv4-sp/hard/crtbegin.o
 .bss.m_device_provisioned
                0x20002f5c        0x1 examples/light_switch/server/CMakeFiles/light_switch_server_nrf52832_xxAA_s132_6.0.0.dir/src/main.c.obj
 *fill*         0x20002f5d        0x3 
 .bss.m_onoff_server_0_timer_data
                0x20002f60       0x20 examples/light_switch/server/CMakeFiles/light_switch_server_nrf52832_xxAA_s132_6.0.0.dir/src/main.c.obj
 .bss.m_health_server
                0x20002f80       0x5c examples/light_switch/server/CMakeFiles/light_switch_server_nrf52832_xxAA_s132_6.0.0.dir/__/__/__/mesh/stack/src/mesh_stack.c.obj
 .bss.m_device_provisioned
                0x20002fdc        0x1 examples/light_switch/server/CMakeFiles/light_switch_server_nrf52832_xxAA_s132_6.0.0.dir/__/__/common/src/mesh_provisionee.c.obj
 *fill*         0x20002fdd        0x3 
 .bss.m_params  0x20002fe0        0xc examples/light_switch/server/CMakeFiles/light_switch_server_nrf52832_xxAA_s132_6.0.0.dir/__/__/common/src/mesh_provisionee.c.obj
 .bss.m_private_key
                0x20002fec       0x20 examples/light_switch/server/CMakeFiles/light_switch_server_nrf52832_xxAA_s132_6.0.0.dir/__/__/common/src/mesh_provisionee.c.obj
 .bss.m_prov_bearer_adv
                0x2000300c      0x1c8 examples/light_switch/server/CMakeFiles/light_switch_server_nrf52832_xxAA_s132_6.0.0.dir/__/__/common/src/mesh_provisionee.c.obj
 .bss.m_prov_ctx
                0x200031d4      0x134 examples/light_switch/server/CMakeFiles/light_switch_server_nrf52832_xxAA_s132_6.0.0.dir/__/__/common/src/mesh_provisionee.c.obj
 .bss.m_public_key
                0x20003308       0x40 examples/light_switch/server/CMakeFiles/light_switch_server_nrf52832_xxAA_s132_6.0.0.dir/__/__/common/src/mesh_provisionee.c.obj
 .bss.m_rtt_input_handler
                0x20003348        0x4 examples/light_switch/server/CMakeFiles/light_switch_server_nrf52832_xxAA_s132_6.0.0.dir/__/__/common/src/rtt_input.c.obj
 .bss.m_rtt_timer_data
                0x2000334c       0x20 examples/light_switch/server/CMakeFiles/light_switch_server_nrf52832_xxAA_s132_6.0.0.dir/__/__/common/src/rtt_input.c.obj
 .bss.m_blink_count
                0x2000336c        0x4 examples/light_switch/server/CMakeFiles/light_switch_server_nrf52832_xxAA_s132_6.0.0.dir/__/__/common/src/simple_hal.c.obj
 .bss.m_blink_mask
                0x20003370        0x4 examples/light_switch/server/CMakeFiles/light_switch_server_nrf52832_xxAA_s132_6.0.0.dir/__/__/common/src/simple_hal.c.obj
 .bss.m_blink_timer_data
                0x20003374       0x20 examples/light_switch/server/CMakeFiles/light_switch_server_nrf52832_xxAA_s132_6.0.0.dir/__/__/common/src/simple_hal.c.obj
 .bss.m_button_handler_cb
                0x20003394        0x4 examples/light_switch/server/CMakeFiles/light_switch_server_nrf52832_xxAA_s132_6.0.0.dir/__/__/common/src/simple_hal.c.obj
 .bss.m_last_button_press
                0x20003398        0x4 examples/light_switch/server/CMakeFiles/light_switch_server_nrf52832_xxAA_s132_6.0.0.dir/__/__/common/src/simple_hal.c.obj
 .bss.m_uuid    0x2000339c       0x10 examples/light_switch/server/CMakeFiles/light_switch_server_nrf52832_xxAA_s132_6.0.0.dir/__/__/__/mesh/core/src/nrf_mesh_configure.c.obj
 .bss.m_msg_cache
                0x200033ac      0x100 examples/light_switch/server/CMakeFiles/light_switch_server_nrf52832_xxAA_s132_6.0.0.dir/__/__/__/mesh/core/src/msg_cache.c.obj
 .bss.m_msg_cache_head
                0x200034ac        0x4 examples/light_switch/server/CMakeFiles/light_switch_server_nrf52832_xxAA_s132_6.0.0.dir/__/__/__/mesh/core/src/msg_cache.c.obj
 .bss.m_control_packet_consumer_count
                0x200034b0        0x4 examples/light_switch/server/CMakeFiles/light_switch_server_nrf52832_xxAA_s132_6.0.0.dir/__/__/__/mesh/core/src/transport.c.obj
 .bss.m_control_packet_consumers
                0x200034b4        0x8 examples/light_switch/server/CMakeFiles/light_switch_server_nrf52832_xxAA_s132_6.0.0.dir/__/__/__/mesh/core/src/transport.c.obj
 .bss.m_sar_alloc
                0x200034bc        0x4 examples/light_switch/server/CMakeFiles/light_switch_server_nrf52832_xxAA_s132_6.0.0.dir/__/__/__/mesh/core/src/transport.c.obj
 .bss.m_sar_process_flag
                0x200034c0        0x4 examples/light_switch/server/CMakeFiles/light_switch_server_nrf52832_xxAA_s132_6.0.0.dir/__/__/__/mesh/core/src/transport.c.obj
 .bss.m_sar_release
                0x200034c4        0x4 examples/light_switch/server/CMakeFiles/light_switch_server_nrf52832_xxAA_s132_6.0.0.dir/__/__/__/mesh/core/src/transport.c.obj
 .bss.m_sar_session_cache
                0x200034c8       0x40 examples/light_switch/server/CMakeFiles/light_switch_server_nrf52832_xxAA_s132_6.0.0.dir/__/__/__/mesh/core/src/transport.c.obj
 .bss.m_sar_session_cache_head
                0x20003508        0x4 examples/light_switch/server/CMakeFiles/light_switch_server_nrf52832_xxAA_s132_6.0.0.dir/__/__/__/mesh/core/src/transport.c.obj
 .bss.m_trs_config
                0x2000350c       0x18 examples/light_switch/server/CMakeFiles/light_switch_server_nrf52832_xxAA_s132_6.0.0.dir/__/__/__/mesh/core/src/transport.c.obj
 .bss.m_trs_sar_sessions
                0x20003524      0x1b0 examples/light_switch/server/CMakeFiles/light_switch_server_nrf52832_xxAA_s132_6.0.0.dir/__/__/__/mesh/core/src/transport.c.obj
 .bss.m_event_handler_state
                0x200036d4        0x1 examples/light_switch/server/CMakeFiles/light_switch_server_nrf52832_xxAA_s132_6.0.0.dir/__/__/__/mesh/core/src/event.c.obj
 *fill*         0x200036d5        0x3 
 .bss.mp_evt_handlers_head
                0x200036d8        0x4 examples/light_switch/server/CMakeFiles/light_switch_server_nrf52832_xxAA_s132_6.0.0.dir/__/__/__/mesh/core/src/event.c.obj
 .bss.m_defrag  0x200036dc       0x1c examples/light_switch/server/CMakeFiles/light_switch_server_nrf52832_xxAA_s132_6.0.0.dir/__/__/__/mesh/core/src/flash_manager_defrag.c.obj
 .bss.m_token   0x200036f8        0x2 examples/light_switch/server/CMakeFiles/light_switch_server_nrf52832_xxAA_s132_6.0.0.dir/__/__/__/mesh/core/src/flash_manager_defrag.c.obj
 *fill*         0x200036fa        0x2 
 .bss.mp_recovery_area
                0x200036fc        0x4 examples/light_switch/server/CMakeFiles/light_switch_server_nrf52832_xxAA_s132_6.0.0.dir/__/__/__/mesh/core/src/flash_manager_defrag.c.obj
 .bss.p_null_ptr.10324
                0x20003700        0x4 examples/light_switch/server/CMakeFiles/light_switch_server_nrf52832_xxAA_s132_6.0.0.dir/__/__/__/mesh/core/src/flash_manager_defrag.c.obj
 .bss.m_pool    0x20003704     0x1000 examples/light_switch/server/CMakeFiles/light_switch_server_nrf52832_xxAA_s132_6.0.0.dir/__/__/__/mesh/core/src/packet_mgr.c.obj
 .bss.mp_free_head
                0x20004704        0x4 examples/light_switch/server/CMakeFiles/light_switch_server_nrf52832_xxAA_s132_6.0.0.dir/__/__/__/mesh/core/src/packet_mgr.c.obj
 .bss.lock_count.10485
                0x20004708        0x4 examples/light_switch/server/CMakeFiles/light_switch_server_nrf52832_xxAA_s132_6.0.0.dir/__/__/__/mesh/core/src/net_state.c.obj
 .bss.m_enabled
                0x2000470c        0x1 examples/light_switch/server/CMakeFiles/light_switch_server_nrf52832_xxAA_s132_6.0.0.dir/__/__/__/mesh/core/src/net_state.c.obj
 *fill*         0x2000470d        0x3 
 .bss.m_flash_manager
                0x20004710       0x24 examples/light_switch/server/CMakeFiles/light_switch_server_nrf52832_xxAA_s132_6.0.0.dir/__/__/__/mesh/core/src/net_state.c.obj
 .bss.m_iv_state_set
                0x20004734        0x1 examples/light_switch/server/CMakeFiles/light_switch_server_nrf52832_xxAA_s132_6.0.0.dir/__/__/__/mesh/core/src/net_state.c.obj
 *fill*         0x20004735        0x3 
 .bss.m_iv_update_timer
                0x20004738       0x18 examples/light_switch/server/CMakeFiles/light_switch_server_nrf52832_xxAA_s132_6.0.0.dir/__/__/__/mesh/core/src/net_state.c.obj
 .bss.m_mesh_evt_handler
                0x20004750        0xc examples/light_switch/server/CMakeFiles/light_switch_server_nrf52832_xxAA_s132_6.0.0.dir/__/__/__/mesh/core/src/net_state.c.obj
 .bss.m_net_state
                0x2000475c       0x14 examples/light_switch/server/CMakeFiles/light_switch_server_nrf52832_xxAA_s132_6.0.0.dir/__/__/__/mesh/core/src/net_state.c.obj
 .bss.m_seqnum_allocation_in_progress
                0x20004770        0x1 examples/light_switch/server/CMakeFiles/light_switch_server_nrf52832_xxAA_s132_6.0.0.dir/__/__/__/mesh/core/src/net_state.c.obj
 .bss.m_test_mode
                0x20004771        0x1 examples/light_switch/server/CMakeFiles/light_switch_server_nrf52832_xxAA_s132_6.0.0.dir/__/__/__/mesh/core/src/net_state.c.obj
 *fill*         0x20004772        0x2 
 .bss.m_event_flag
                0x20004774        0x4 examples/light_switch/server/CMakeFiles/light_switch_server_nrf52832_xxAA_s132_6.0.0.dir/__/__/__/mesh/core/src/mesh_flash.c.obj
 .bss.m_suspended
                0x20004778        0x1 examples/light_switch/server/CMakeFiles/light_switch_server_nrf52832_xxAA_s132_6.0.0.dir/__/__/__/mesh/core/src/mesh_flash.c.obj
 *fill*         0x20004779        0x3 
 .bss.m_users   0x2000477c      0x234 examples/light_switch/server/CMakeFiles/light_switch_server_nrf52832_xxAA_s132_6.0.0.dir/__/__/__/mesh/core/src/mesh_flash.c.obj
 .bss.m_is_enabled
                0x200049b0        0x1 examples/light_switch/server/CMakeFiles/light_switch_server_nrf52832_xxAA_s132_6.0.0.dir/__/__/__/mesh/core/src/nrf_mesh.c.obj
 .bss.m_is_initialized
                0x200049b1        0x1 examples/light_switch/server/CMakeFiles/light_switch_server_nrf52832_xxAA_s132_6.0.0.dir/__/__/__/mesh/core/src/nrf_mesh.c.obj
 *fill*         0x200049b2        0x2 
 .bss.m_rx_cb   0x200049b4        0x4 examples/light_switch/server/CMakeFiles/light_switch_server_nrf52832_xxAA_s132_6.0.0.dir/__/__/__/mesh/core/src/nrf_mesh.c.obj
 .bss.m_tx_token
                0x200049b8        0x4 examples/light_switch/server/CMakeFiles/light_switch_server_nrf52832_xxAA_s132_6.0.0.dir/__/__/__/mesh/core/src/nrf_mesh.c.obj
 .bss.m_event_flag
                0x200049bc        0x4 examples/light_switch/server/CMakeFiles/light_switch_server_nrf52832_xxAA_s132_6.0.0.dir/__/__/__/mesh/core/src/timer_scheduler.c.obj
 .bss.m_scheduler
                0x200049c0        0x8 examples/light_switch/server/CMakeFiles/light_switch_server_nrf52832_xxAA_s132_6.0.0.dir/__/__/__/mesh/core/src/timer_scheduler.c.obj
 .bss.m_attributes
                0x200049c8        0x3 examples/light_switch/server/CMakeFiles/light_switch_server_nrf52832_xxAA_s132_6.0.0.dir/__/__/__/mesh/core/src/timer.c.obj
 *fill*         0x200049cb        0x1 
 .bss.m_callbacks
                0x200049cc        0xc examples/light_switch/server/CMakeFiles/light_switch_server_nrf52832_xxAA_s132_6.0.0.dir/__/__/__/mesh/core/src/timer.c.obj
 .bss.m_is_in_ts
                0x200049d8        0x1 examples/light_switch/server/CMakeFiles/light_switch_server_nrf52832_xxAA_s132_6.0.0.dir/__/__/__/mesh/core/src/timer.c.obj
 *fill*         0x200049d9        0x3 
 .bss.m_reference_time
                0x200049dc        0x4 examples/light_switch/server/CMakeFiles/light_switch_server_nrf52832_xxAA_s132_6.0.0.dir/__/__/__/mesh/core/src/timer.c.obj
 .bss.m_timeouts
                0x200049e0        0xc examples/light_switch/server/CMakeFiles/light_switch_server_nrf52832_xxAA_s132_6.0.0.dir/__/__/__/mesh/core/src/timer.c.obj
 .bss.m_timer_mut
                0x200049ec        0x4 examples/light_switch/server/CMakeFiles/light_switch_server_nrf52832_xxAA_s132_6.0.0.dir/__/__/__/mesh/core/src/timer.c.obj
 .bss.m_ts_end_time
                0x200049f0        0x4 examples/light_switch/server/CMakeFiles/light_switch_server_nrf52832_xxAA_s132_6.0.0.dir/__/__/__/mesh/core/src/timer.c.obj
 .bss.mp_ppi_tasks
                0x200049f4        0xc examples/light_switch/server/CMakeFiles/light_switch_server_nrf52832_xxAA_s132_6.0.0.dir/__/__/__/mesh/core/src/timer.c.obj
 .bss.m_mesh_opt_core_file_backend_data
                0x20004a00       0x2c examples/light_switch/server/CMakeFiles/light_switch_server_nrf52832_xxAA_s132_6.0.0.dir/__/__/__/mesh/core/src/mesh_opt.c.obj
 .bss.m_current_timeslot
                0x20004a2c       0x1c examples/light_switch/server/CMakeFiles/light_switch_server_nrf52832_xxAA_s132_6.0.0.dir/__/__/__/mesh/core/src/timeslot.c.obj
 .bss.m_lfclk_ppm
                0x20004a48        0x4 examples/light_switch/server/CMakeFiles/light_switch_server_nrf52832_xxAA_s132_6.0.0.dir/__/__/__/mesh/core/src/timeslot.c.obj
 .bss.m_radio_request_earliest
                0x20004a4c       0x10 examples/light_switch/server/CMakeFiles/light_switch_server_nrf52832_xxAA_s132_6.0.0.dir/__/__/__/mesh/core/src/timeslot.c.obj
 .bss.m_state_lock
                0x20004a5c        0x1 examples/light_switch/server/CMakeFiles/light_switch_server_nrf52832_xxAA_s132_6.0.0.dir/__/__/__/mesh/core/src/timeslot.c.obj
 .bss.m_timeslot_forced_command
                0x20004a5d        0x1 examples/light_switch/server/CMakeFiles/light_switch_server_nrf52832_xxAA_s132_6.0.0.dir/__/__/__/mesh/core/src/timeslot.c.obj
 *fill*         0x20004a5e        0x2 
 .bss.s_last_rtc_value.9386
                0x20004a60        0x8 examples/light_switch/server/CMakeFiles/light_switch_server_nrf52832_xxAA_s132_6.0.0.dir/__/__/__/mesh/core/src/timeslot.c.obj
 .bss.m_bearer_event_fifo
                0x20004a68       0x14 examples/light_switch/server/CMakeFiles/light_switch_server_nrf52832_xxAA_s132_6.0.0.dir/__/__/__/mesh/core/src/bearer_event.c.obj
 .bss.m_bearer_event_fifo_buffer
                0x20004a7c      0x100 examples/light_switch/server/CMakeFiles/light_switch_server_nrf52832_xxAA_s132_6.0.0.dir/__/__/__/mesh/core/src/bearer_event.c.obj
 .bss.m_critical
                0x20004b7c        0x4 examples/light_switch/server/CMakeFiles/light_switch_server_nrf52832_xxAA_s132_6.0.0.dir/__/__/__/mesh/core/src/bearer_event.c.obj
 .bss.m_flag_count
                0x20004b80        0x4 examples/light_switch/server/CMakeFiles/light_switch_server_nrf52832_xxAA_s132_6.0.0.dir/__/__/__/mesh/core/src/bearer_event.c.obj
 .bss.m_flag_event_callbacks
                0x20004b84       0x24 examples/light_switch/server/CMakeFiles/light_switch_server_nrf52832_xxAA_s132_6.0.0.dir/__/__/__/mesh/core/src/bearer_event.c.obj
 .bss.m_flags   0x20004ba8        0x4 examples/light_switch/server/CMakeFiles/light_switch_server_nrf52832_xxAA_s132_6.0.0.dir/__/__/__/mesh/core/src/bearer_event.c.obj
 .bss.m_irq_priority
                0x20004bac        0x1 examples/light_switch/server/CMakeFiles/light_switch_server_nrf52832_xxAA_s132_6.0.0.dir/__/__/__/mesh/core/src/bearer_event.c.obj
 *fill*         0x20004bad        0x3 
 .bss.m_sequential_event_queue
                0x20004bb0        0x8 examples/light_switch/server/CMakeFiles/light_switch_server_nrf52832_xxAA_s132_6.0.0.dir/__/__/__/mesh/core/src/bearer_event.c.obj
 .bss.s_recursion_guard.9509
                0x20004bb8        0x1 examples/light_switch/server/CMakeFiles/light_switch_server_nrf52832_xxAA_s132_6.0.0.dir/__/__/__/mesh/core/src/bearer_event.c.obj
 *fill*         0x20004bb9        0x3 
 .bss.m_relay_check_cb
                0x20004bbc        0x4 examples/light_switch/server/CMakeFiles/light_switch_server_nrf52832_xxAA_s132_6.0.0.dir/__/__/__/mesh/core/src/network.c.obj
 .bss.m_action_queue
                0x20004bc0        0xc examples/light_switch/server/CMakeFiles/light_switch_server_nrf52832_xxAA_s132_6.0.0.dir/__/__/__/mesh/core/src/flash_manager.c.obj
 .bss.m_action_queue_buffer
                0x20004bcc      0x104 examples/light_switch/server/CMakeFiles/light_switch_server_nrf52832_xxAA_s132_6.0.0.dir/__/__/__/mesh/core/src/flash_manager.c.obj
 .bss.m_action_state
                0x20004cd0        0x1 examples/light_switch/server/CMakeFiles/light_switch_server_nrf52832_xxAA_s132_6.0.0.dir/__/__/__/mesh/core/src/flash_manager.c.obj
 *fill*         0x20004cd1        0x3 
 .bss.m_memory_listener_queue
                0x20004cd4        0x8 examples/light_switch/server/CMakeFiles/light_switch_server_nrf52832_xxAA_s132_6.0.0.dir/__/__/__/mesh/core/src/flash_manager.c.obj
 .bss.m_processing_flag
                0x20004cdc        0x4 examples/light_switch/server/CMakeFiles/light_switch_server_nrf52832_xxAA_s132_6.0.0.dir/__/__/__/mesh/core/src/flash_manager.c.obj
 .bss.m_queue_empty_cb
                0x20004ce0        0x4 examples/light_switch/server/CMakeFiles/light_switch_server_nrf52832_xxAA_s132_6.0.0.dir/__/__/__/mesh/core/src/flash_manager.c.obj
 .bss.m_state   0x20004ce4        0x1 examples/light_switch/server/CMakeFiles/light_switch_server_nrf52832_xxAA_s132_6.0.0.dir/__/__/__/mesh/core/src/flash_manager.c.obj
 *fill*         0x20004ce5        0x1 
 .bss.m_token   0x20004ce6        0x2 examples/light_switch/server/CMakeFiles/light_switch_server_nrf52832_xxAA_s132_6.0.0.dir/__/__/__/mesh/core/src/flash_manager.c.obj
 .bss.p_current.11232
                0x20004ce8        0x4 examples/light_switch/server/CMakeFiles/light_switch_server_nrf52832_xxAA_s132_6.0.0.dir/__/__/__/mesh/core/src/flash_manager.c.obj
 .bss.result.11233
                0x20004cec        0x1 examples/light_switch/server/CMakeFiles/light_switch_server_nrf52832_xxAA_s132_6.0.0.dir/__/__/__/mesh/core/src/flash_manager.c.obj
 .bss.m_cache_index
                0x20004ced        0x1 examples/light_switch/server/CMakeFiles/light_switch_server_nrf52832_xxAA_s132_6.0.0.dir/__/__/__/mesh/core/src/replay_cache.c.obj
 *fill*         0x20004cee        0x2 
 .bss.m_replay_cache
                0x20004cf0      0x280 examples/light_switch/server/CMakeFiles/light_switch_server_nrf52832_xxAA_s132_6.0.0.dir/__/__/__/mesh/core/src/replay_cache.c.obj
 .bss.m_bearer_count
                0x20004f70        0x1 examples/light_switch/server/CMakeFiles/light_switch_server_nrf52832_xxAA_s132_6.0.0.dir/__/__/__/mesh/core/src/core_tx.c.obj
 *fill*         0x20004f71        0x3 
 .bss.m_tx_complete_callback
                0x20004f74        0x4 examples/light_switch/server/CMakeFiles/light_switch_server_nrf52832_xxAA_s132_6.0.0.dir/__/__/__/mesh/core/src/core_tx.c.obj
 .bss.mp_bearers
                0x20004f78        0x4 examples/light_switch/server/CMakeFiles/light_switch_server_nrf52832_xxAA_s132_6.0.0.dir/__/__/__/mesh/core/src/core_tx.c.obj
 .bss.m_hb_core_evt_handler
                0x20004f7c        0xc examples/light_switch/server/CMakeFiles/light_switch_server_nrf52832_xxAA_s132_6.0.0.dir/__/__/__/mesh/core/src/heartbeat.c.obj
 .bss.m_hb_pending_feat_msg
                0x20004f88        0x1 examples/light_switch/server/CMakeFiles/light_switch_server_nrf52832_xxAA_s132_6.0.0.dir/__/__/__/mesh/core/src/heartbeat.c.obj
 .bss.m_hb_pending_pub_msg
                0x20004f89        0x1 examples/light_switch/server/CMakeFiles/light_switch_server_nrf52832_xxAA_s132_6.0.0.dir/__/__/__/mesh/core/src/heartbeat.c.obj
 .bss.m_heartbeat_init_done
                0x20004f8a        0x1 examples/light_switch/server/CMakeFiles/light_switch_server_nrf52832_xxAA_s132_6.0.0.dir/__/__/__/mesh/core/src/heartbeat.c.obj
 *fill*         0x20004f8b        0x1 
 .bss.m_heartbeat_publication
                0x20004f8c       0x14 examples/light_switch/server/CMakeFiles/light_switch_server_nrf52832_xxAA_s132_6.0.0.dir/__/__/__/mesh/core/src/heartbeat.c.obj
 .bss.m_heartbeat_publication_state
                0x20004fa0        0x1 examples/light_switch/server/CMakeFiles/light_switch_server_nrf52832_xxAA_s132_6.0.0.dir/__/__/__/mesh/core/src/heartbeat.c.obj
 *fill*         0x20004fa1        0x3 
 .bss.m_heartbeat_subscription
                0x20004fa4       0x10 examples/light_switch/server/CMakeFiles/light_switch_server_nrf52832_xxAA_s132_6.0.0.dir/__/__/__/mesh/core/src/heartbeat.c.obj
 .bss.m_latched_features
                0x20004fb4        0x1 examples/light_switch/server/CMakeFiles/light_switch_server_nrf52832_xxAA_s132_6.0.0.dir/__/__/__/mesh/core/src/heartbeat.c.obj
 *fill*         0x20004fb5        0x3 
 .bss.m_publication_timer
                0x20004fb8       0x1c examples/light_switch/server/CMakeFiles/light_switch_server_nrf52832_xxAA_s132_6.0.0.dir/__/__/__/mesh/core/src/heartbeat.c.obj
 .bss.m_subscription_timer
                0x20004fd4       0x18 examples/light_switch/server/CMakeFiles/light_switch_server_nrf52832_xxAA_s132_6.0.0.dir/__/__/__/mesh/core/src/heartbeat.c.obj
 .bss.mp_getter
                0x20004fec        0x4 examples/light_switch/server/CMakeFiles/light_switch_server_nrf52832_xxAA_s132_6.0.0.dir/__/__/__/mesh/core/src/heartbeat.c.obj
 .bss.m_adv     0x20004ff0       0x9c examples/light_switch/server/CMakeFiles/light_switch_server_nrf52832_xxAA_s132_6.0.0.dir/__/__/__/mesh/core/src/net_beacon.c.obj
 .bss.m_adv_buf
                0x2000508c       0x34 examples/light_switch/server/CMakeFiles/light_switch_server_nrf52832_xxAA_s132_6.0.0.dir/__/__/__/mesh/core/src/net_beacon.c.obj
 .bss.m_beacon_salt
                0x200050c0       0x10 examples/light_switch/server/CMakeFiles/light_switch_server_nrf52832_xxAA_s132_6.0.0.dir/__/__/__/mesh/core/src/net_beacon.c.obj
 .bss.m_enabled
                0x200050d0        0x1 examples/light_switch/server/CMakeFiles/light_switch_server_nrf52832_xxAA_s132_6.0.0.dir/__/__/__/mesh/core/src/net_beacon.c.obj
 .bss.m_net_beacon_enable_state
                0x200050d1        0x1 examples/light_switch/server/CMakeFiles/light_switch_server_nrf52832_xxAA_s132_6.0.0.dir/__/__/__/mesh/core/src/net_beacon.c.obj
 *fill*         0x200050d2        0x2 
 .bss.m_tx_timer
                0x200050d4       0x18 examples/light_switch/server/CMakeFiles/light_switch_server_nrf52832_xxAA_s132_6.0.0.dir/__/__/__/mesh/core/src/net_beacon.c.obj
 .bss.mp_beacon_info
                0x200050ec        0x4 examples/light_switch/server/CMakeFiles/light_switch_server_nrf52832_xxAA_s132_6.0.0.dir/__/__/__/mesh/core/src/net_beacon.c.obj
 .bss.m_file_count
                0x200050f0        0x4 examples/light_switch/server/CMakeFiles/light_switch_server_nrf52832_xxAA_s132_6.0.0.dir/__/__/__/mesh/core/src/mesh_config_backend.c.obj
 .bss.m_power_down_time_us
                0x200050f4        0x4 examples/light_switch/server/CMakeFiles/light_switch_server_nrf52832_xxAA_s132_6.0.0.dir/__/__/__/mesh/core/src/mesh_config_backend.c.obj
 .bss.mp_files  0x200050f8        0x4 examples/light_switch/server/CMakeFiles/light_switch_server_nrf52832_xxAA_s132_6.0.0.dir/__/__/__/mesh/core/src/mesh_config_backend.c.obj
 .bss.m_allocated_page_count
                0x200050fc        0x1 examples/light_switch/server/CMakeFiles/light_switch_server_nrf52832_xxAA_s132_6.0.0.dir/__/__/__/mesh/core/src/mesh_config_flashman_glue.c.obj
 *fill*         0x200050fd        0x3 
 .bss.m_evt_cb  0x20005100        0x4 examples/light_switch/server/CMakeFiles/light_switch_server_nrf52832_xxAA_s132_6.0.0.dir/__/__/__/mesh/core/src/mesh_config_flashman_glue.c.obj
 .bss.m_bearer  0x20005104        0xc examples/light_switch/server/CMakeFiles/light_switch_server_nrf52832_xxAA_s132_6.0.0.dir/__/__/__/mesh/core/src/core_tx_adv.c.obj
 .bss.m_bearer_roles
                0x20005110      0x140 examples/light_switch/server/CMakeFiles/light_switch_server_nrf52832_xxAA_s132_6.0.0.dir/__/__/__/mesh/core/src/core_tx_adv.c.obj
 .bss.m_current_alloc
                0x20005250        0x8 examples/light_switch/server/CMakeFiles/light_switch_server_nrf52832_xxAA_s132_6.0.0.dir/__/__/__/mesh/core/src/core_tx_adv.c.obj
 .bss.m_default_adv_addr
                0x20005258        0x7 examples/light_switch/server/CMakeFiles/light_switch_server_nrf52832_xxAA_s132_6.0.0.dir/__/__/__/mesh/core/src/core_tx_adv.c.obj
 .bss.m_mesh_opt_core_adv_addr_state
                0x2000525f        0x2 examples/light_switch/server/CMakeFiles/light_switch_server_nrf52832_xxAA_s132_6.0.0.dir/__/__/__/mesh/core/src/core_tx_adv.c.obj
 .bss.m_mesh_opt_core_adv_state
                0x20005261        0x2 examples/light_switch/server/CMakeFiles/light_switch_server_nrf52832_xxAA_s132_6.0.0.dir/__/__/__/mesh/core/src/core_tx_adv.c.obj
 .bss.m_mesh_opt_core_tx_power_state
                0x20005263        0x2 examples/light_switch/server/CMakeFiles/light_switch_server_nrf52832_xxAA_s132_6.0.0.dir/__/__/__/mesh/core/src/core_tx_adv.c.obj
 .bss.m_originator_adv_packet_buffer
                0x20005265      0x100 examples/light_switch/server/CMakeFiles/light_switch_server_nrf52832_xxAA_s132_6.0.0.dir/__/__/__/mesh/core/src/core_tx_adv.c.obj
 .bss.m_relay_adv_packet_buffer
                0x20005365       0x80 examples/light_switch/server/CMakeFiles/light_switch_server_nrf52832_xxAA_s132_6.0.0.dir/__/__/__/mesh/core/src/core_tx_adv.c.obj
 *fill*         0x200053e5        0x3 
 .bss.m_subscribers
                0x200053e8        0x4 examples/light_switch/server/CMakeFiles/light_switch_server_nrf52832_xxAA_s132_6.0.0.dir/__/__/__/mesh/bearer/src/ad_listener.c.obj
 .bss.m_adtype_filter
                0x200053ec       0x38 examples/light_switch/server/CMakeFiles/light_switch_server_nrf52832_xxAA_s132_6.0.0.dir/__/__/__/mesh/bearer/src/ad_type_filter.c.obj
 .bss.m_adv_prng
                0x20005424       0x10 examples/light_switch/server/CMakeFiles/light_switch_server_nrf52832_xxAA_s132_6.0.0.dir/__/__/__/mesh/bearer/src/advertiser.c.obj
 .bss.m_action_ended
                0x20005434        0x1 examples/light_switch/server/CMakeFiles/light_switch_server_nrf52832_xxAA_s132_6.0.0.dir/__/__/__/mesh/bearer/src/bearer_handler.c.obj
 *fill*         0x20005435        0x3 
 .bss.m_action_queue
                0x20005438        0x8 examples/light_switch/server/CMakeFiles/light_switch_server_nrf52832_xxAA_s132_6.0.0.dir/__/__/__/mesh/bearer/src/bearer_handler.c.obj
 .bss.m_end_time
                0x20005440        0x4 examples/light_switch/server/CMakeFiles/light_switch_server_nrf52832_xxAA_s132_6.0.0.dir/__/__/__/mesh/bearer/src/bearer_handler.c.obj
 .bss.m_in_callback
                0x20005444        0x1 examples/light_switch/server/CMakeFiles/light_switch_server_nrf52832_xxAA_s132_6.0.0.dir/__/__/__/mesh/bearer/src/bearer_handler.c.obj
 .bss.m_scanner_is_active
                0x20005445        0x1 examples/light_switch/server/CMakeFiles/light_switch_server_nrf52832_xxAA_s132_6.0.0.dir/__/__/__/mesh/bearer/src/bearer_handler.c.obj
 .bss.m_stopped
                0x20005446        0x1 examples/light_switch/server/CMakeFiles/light_switch_server_nrf52832_xxAA_s132_6.0.0.dir/__/__/__/mesh/bearer/src/bearer_handler.c.obj
 *fill*         0x20005447        0x1 
 .bss.mp_action
                0x20005448        0x4 examples/light_switch/server/CMakeFiles/light_switch_server_nrf52832_xxAA_s132_6.0.0.dir/__/__/__/mesh/bearer/src/bearer_handler.c.obj
 .bss.m_action_start_time
                0x2000544c        0x4 examples/light_switch/server/CMakeFiles/light_switch_server_nrf52832_xxAA_s132_6.0.0.dir/__/__/__/mesh/bearer/src/broadcast.c.obj
 .bss.m_next_channel_index
                0x20005450        0x1 examples/light_switch/server/CMakeFiles/light_switch_server_nrf52832_xxAA_s132_6.0.0.dir/__/__/__/mesh/bearer/src/broadcast.c.obj
 *fill*         0x20005451        0x3 
 .bss.m_accepted_amount
                0x20005454        0x4 examples/light_switch/server/CMakeFiles/light_switch_server_nrf52832_xxAA_s132_6.0.0.dir/__/__/__/mesh/bearer/src/filter_engine.c.obj
 .bss.m_filter_list_head
                0x20005458        0x4 examples/light_switch/server/CMakeFiles/light_switch_server_nrf52832_xxAA_s132_6.0.0.dir/__/__/__/mesh/bearer/src/filter_engine.c.obj
 .bss.m_scanner
                0x2000545c      0x298 examples/light_switch/server/CMakeFiles/light_switch_server_nrf52832_xxAA_s132_6.0.0.dir/__/__/__/mesh/bearer/src/scanner.c.obj
 .bss.m_gpiote  0x200056f4        0x6 examples/light_switch/server/CMakeFiles/light_switch_server_nrf52832_xxAA_s132_6.0.0.dir/__/__/__/mesh/bearer/src/mesh_pa_lna.c.obj
 *fill*         0x200056fa        0x2 
 .bss.m_evt_cb  0x200056fc        0x4 examples/light_switch/server/CMakeFiles/light_switch_server_nrf52832_xxAA_s132_6.0.0.dir/__/__/__/models/foundation/config/src/config_server.c.obj
 .bss.m_node_reset_pending
                0x20005700        0x1 examples/light_switch/server/CMakeFiles/light_switch_server_nrf52832_xxAA_s132_6.0.0.dir/__/__/__/models/foundation/config/src/config_server.c.obj
 *fill*         0x20005701        0x3 
 .bss.m_reset_token
                0x20005704        0x4 examples/light_switch/server/CMakeFiles/light_switch_server_nrf52832_xxAA_s132_6.0.0.dir/__/__/__/models/foundation/config/src/config_server.c.obj
 .bss.m_attention_timer
                0x20005708       0x18 examples/light_switch/server/CMakeFiles/light_switch_server_nrf52832_xxAA_s132_6.0.0.dir/__/__/__/models/foundation/health/src/health_server.c.obj
 .bss.mp_attention_list
                0x20005720        0x4 examples/light_switch/server/CMakeFiles/light_switch_server_nrf52832_xxAA_s132_6.0.0.dir/__/__/__/models/foundation/health/src/health_server.c.obj
 .bss.m_publish_timer
                0x20005724       0x18 examples/light_switch/server/CMakeFiles/light_switch_server_nrf52832_xxAA_s132_6.0.0.dir/__/__/__/mesh/access/src/access_publish.c.obj
 .bss.m_publish_timer_counter
                0x2000573c        0x4 examples/light_switch/server/CMakeFiles/light_switch_server_nrf52832_xxAA_s132_6.0.0.dir/__/__/__/mesh/access/src/access_publish.c.obj
 .bss.m_publish_timer_running
                0x20005740        0x1 examples/light_switch/server/CMakeFiles/light_switch_server_nrf52832_xxAA_s132_6.0.0.dir/__/__/__/mesh/access/src/access_publish.c.obj
 .bss.m_timer_resolution
                0x20005741        0x1 examples/light_switch/server/CMakeFiles/light_switch_server_nrf52832_xxAA_s132_6.0.0.dir/__/__/__/mesh/access/src/access_publish.c.obj
 *fill*         0x20005742        0x2 
 .bss.mp_publication_list
                0x20005744        0x4 examples/light_switch/server/CMakeFiles/light_switch_server_nrf52832_xxAA_s132_6.0.0.dir/__/__/__/mesh/access/src/access_publish.c.obj
 .bss.m_element_pool
                0x20005748        0x6 examples/light_switch/server/CMakeFiles/light_switch_server_nrf52832_xxAA_s132_6.0.0.dir/__/__/__/mesh/access/src/access.c.obj
 *fill*         0x2000574e        0x2 
 .bss.m_evt_handler
                0x20005750        0xc examples/light_switch/server/CMakeFiles/light_switch_server_nrf52832_xxAA_s132_6.0.0.dir/__/__/__/mesh/access/src/access.c.obj
 .bss.m_flash_manager
                0x2000575c       0x24 examples/light_switch/server/CMakeFiles/light_switch_server_nrf52832_xxAA_s132_6.0.0.dir/__/__/__/mesh/access/src/access.c.obj
 .bss.m_flash_not_ready
                0x20005780        0x1 examples/light_switch/server/CMakeFiles/light_switch_server_nrf52832_xxAA_s132_6.0.0.dir/__/__/__/mesh/access/src/access.c.obj
 .bss.m_metadata_stored
                0x20005781        0x1 examples/light_switch/server/CMakeFiles/light_switch_server_nrf52832_xxAA_s132_6.0.0.dir/__/__/__/mesh/access/src/access.c.obj
 *fill*         0x20005782        0x2 
 .bss.m_model_pool
                0x20005784       0x9c examples/light_switch/server/CMakeFiles/light_switch_server_nrf52832_xxAA_s132_6.0.0.dir/__/__/__/mesh/access/src/access.c.obj
 .bss.m_subscription_list_pool
                0x20005820        0x8 examples/light_switch/server/CMakeFiles/light_switch_server_nrf52832_xxAA_s132_6.0.0.dir/__/__/__/mesh/access/src/access.c.obj
 .bss.m_reliable
                0x20005828       0xa0 examples/light_switch/server/CMakeFiles/light_switch_server_nrf52832_xxAA_s132_6.0.0.dir/__/__/__/mesh/access/src/access_reliable.c.obj
 .bss.m_access_loopback_flag
                0x200058c8        0x4 examples/light_switch/server/CMakeFiles/light_switch_server_nrf52832_xxAA_s132_6.0.0.dir/__/__/__/mesh/access/src/access_loopback.c.obj
 .bss.mp_loopback_list_head
                0x200058cc        0x4 examples/light_switch/server/CMakeFiles/light_switch_server_nrf52832_xxAA_s132_6.0.0.dir/__/__/__/mesh/access/src/access_loopback.c.obj
 .bss.m_addr_nonvirtual_allocated
                0x200058d0        0x4 examples/light_switch/server/CMakeFiles/light_switch_server_nrf52832_xxAA_s132_6.0.0.dir/__/__/__/mesh/access/src/device_state_manager.c.obj
 .bss.m_addr_nonvirtual_needs_flashing
                0x200058d4        0x4 examples/light_switch/server/CMakeFiles/light_switch_server_nrf52832_xxAA_s132_6.0.0.dir/__/__/__/mesh/access/src/device_state_manager.c.obj
 .bss.m_addr_unicast_allocated
                0x200058d8        0x4 examples/light_switch/server/CMakeFiles/light_switch_server_nrf52832_xxAA_s132_6.0.0.dir/__/__/__/mesh/access/src/device_state_manager.c.obj
 .bss.m_addr_unicast_needs_flashing
                0x200058dc        0x4 examples/light_switch/server/CMakeFiles/light_switch_server_nrf52832_xxAA_s132_6.0.0.dir/__/__/__/mesh/access/src/device_state_manager.c.obj
 .bss.m_addr_virtual_allocated
                0x200058e0        0x4 examples/light_switch/server/CMakeFiles/light_switch_server_nrf52832_xxAA_s132_6.0.0.dir/__/__/__/mesh/access/src/device_state_manager.c.obj
 .bss.m_addr_virtual_needs_flashing
                0x200058e4        0x4 examples/light_switch/server/CMakeFiles/light_switch_server_nrf52832_xxAA_s132_6.0.0.dir/__/__/__/mesh/access/src/device_state_manager.c.obj
 .bss.m_addresses
                0x200058e8        0xc examples/light_switch/server/CMakeFiles/light_switch_server_nrf52832_xxAA_s132_6.0.0.dir/__/__/__/mesh/access/src/device_state_manager.c.obj
 .bss.m_appkey_allocated
                0x200058f4        0x4 examples/light_switch/server/CMakeFiles/light_switch_server_nrf52832_xxAA_s132_6.0.0.dir/__/__/__/mesh/access/src/device_state_manager.c.obj
 .bss.m_appkey_needs_flashing
                0x200058f8        0x4 examples/light_switch/server/CMakeFiles/light_switch_server_nrf52832_xxAA_s132_6.0.0.dir/__/__/__/mesh/access/src/device_state_manager.c.obj
 .bss.m_appkeys
                0x200058fc       0x2a examples/light_switch/server/CMakeFiles/light_switch_server_nrf52832_xxAA_s132_6.0.0.dir/__/__/__/mesh/access/src/device_state_manager.c.obj
 *fill*         0x20005926        0x2 
 .bss.m_devkey_allocated
                0x20005928        0x4 examples/light_switch/server/CMakeFiles/light_switch_server_nrf52832_xxAA_s132_6.0.0.dir/__/__/__/mesh/access/src/device_state_manager.c.obj
 .bss.m_devkey_needs_flashing
                0x2000592c        0x4 examples/light_switch/server/CMakeFiles/light_switch_server_nrf52832_xxAA_s132_6.0.0.dir/__/__/__/mesh/access/src/device_state_manager.c.obj
 .bss.m_devkeys
                0x20005930       0x16 examples/light_switch/server/CMakeFiles/light_switch_server_nrf52832_xxAA_s132_6.0.0.dir/__/__/__/mesh/access/src/device_state_manager.c.obj
 .bss.m_flash_is_available
                0x20005946        0x1 examples/light_switch/server/CMakeFiles/light_switch_server_nrf52832_xxAA_s132_6.0.0.dir/__/__/__/mesh/access/src/device_state_manager.c.obj
 *fill*         0x20005947        0x1 
 .bss.m_flash_manager
                0x20005948       0x24 examples/light_switch/server/CMakeFiles/light_switch_server_nrf52832_xxAA_s132_6.0.0.dir/__/__/__/mesh/access/src/device_state_manager.c.obj
 .bss.m_flash_mem_listener_update_all
                0x2000596c       0x10 examples/light_switch/server/CMakeFiles/light_switch_server_nrf52832_xxAA_s132_6.0.0.dir/__/__/__/mesh/access/src/device_state_manager.c.obj
 .bss.m_has_primary_subnet
                0x2000597c        0x1 examples/light_switch/server/CMakeFiles/light_switch_server_nrf52832_xxAA_s132_6.0.0.dir/__/__/__/mesh/access/src/device_state_manager.c.obj
 *fill*         0x2000597d        0x1 
 .bss.m_local_unicast_addr
                0x2000597e        0x4 examples/light_switch/server/CMakeFiles/light_switch_server_nrf52832_xxAA_s132_6.0.0.dir/__/__/__/mesh/access/src/device_state_manager.c.obj
 *fill*         0x20005982        0x2 
 .bss.m_mesh_evt_handler
                0x20005984        0xc examples/light_switch/server/CMakeFiles/light_switch_server_nrf52832_xxAA_s132_6.0.0.dir/__/__/__/mesh/access/src/device_state_manager.c.obj
 .bss.m_subnet_allocated
                0x20005990        0x4 examples/light_switch/server/CMakeFiles/light_switch_server_nrf52832_xxAA_s132_6.0.0.dir/__/__/__/mesh/access/src/device_state_manager.c.obj
 .bss.m_subnet_needs_flashing
                0x20005994        0x4 examples/light_switch/server/CMakeFiles/light_switch_server_nrf52832_xxAA_s132_6.0.0.dir/__/__/__/mesh/access/src/device_state_manager.c.obj
 .bss.m_subnets
                0x20005998       0xa8 examples/light_switch/server/CMakeFiles/light_switch_server_nrf52832_xxAA_s132_6.0.0.dir/__/__/__/mesh/access/src/device_state_manager.c.obj
 .bss.m_virtual_addresses
                0x20005a40       0x14 examples/light_switch/server/CMakeFiles/light_switch_server_nrf52832_xxAA_s132_6.0.0.dir/__/__/__/mesh/access/src/device_state_manager.c.obj
 .bss.m_event_handler
                0x20005a54        0x4 examples/light_switch/server/CMakeFiles/light_switch_server_nrf52832_xxAA_s132_6.0.0.dir/__/__/__/mesh/prov/src/prov_beacon.c.obj
 .bss.m_ecdh_offloading
                0x20005a58        0x1 examples/light_switch/server/CMakeFiles/light_switch_server_nrf52832_xxAA_s132_6.0.0.dir/__/__/__/mesh/prov/src/prov_utils.c.obj
 .bss.m_ecdh_offloading_state
                0x20005a59        0x1 examples/light_switch/server/CMakeFiles/light_switch_server_nrf52832_xxAA_s132_6.0.0.dir/__/__/__/mesh/prov/src/prov_utils.c.obj
 *fill*         0x20005a5a        0x2 
 .bss.mp_bearer_head
                0x20005a5c        0x4 examples/light_switch/server/CMakeFiles/light_switch_server_nrf52832_xxAA_s132_6.0.0.dir/__/__/__/mesh/prov/src/prov_bearer_adv.c.obj
 .bss.m_op_queue
                0x20005a60      0x10c examples/light_switch/server/CMakeFiles/light_switch_server_nrf52832_xxAA_s132_6.0.0.dir/C_/sdks/nRF5_SDK_15.0.0_a53641a/components/libraries/timer/app_timer.c.obj
 .bss.m_rtc1_reset
                0x20005b6c        0x1 examples/light_switch/server/CMakeFiles/light_switch_server_nrf52832_xxAA_s132_6.0.0.dir/C_/sdks/nRF5_SDK_15.0.0_a53641a/components/libraries/timer/app_timer.c.obj
 .bss.m_rtc1_running
                0x20005b6d        0x1 examples/light_switch/server/CMakeFiles/light_switch_server_nrf52832_xxAA_s132_6.0.0.dir/C_/sdks/nRF5_SDK_15.0.0_a53641a/components/libraries/timer/app_timer.c.obj
 *fill*         0x20005b6e        0x2 
 .bss.m_ticks_elapsed
                0x20005b70        0x8 examples/light_switch/server/CMakeFiles/light_switch_server_nrf52832_xxAA_s132_6.0.0.dir/C_/sdks/nRF5_SDK_15.0.0_a53641a/components/libraries/timer/app_timer.c.obj
 .bss.m_ticks_elapsed_q_read_ind
                0x20005b78        0x1 examples/light_switch/server/CMakeFiles/light_switch_server_nrf52832_xxAA_s132_6.0.0.dir/C_/sdks/nRF5_SDK_15.0.0_a53641a/components/libraries/timer/app_timer.c.obj
 .bss.m_ticks_elapsed_q_write_ind
                0x20005b79        0x1 examples/light_switch/server/CMakeFiles/light_switch_server_nrf52832_xxAA_s132_6.0.0.dir/C_/sdks/nRF5_SDK_15.0.0_a53641a/components/libraries/timer/app_timer.c.obj
 *fill*         0x20005b7a        0x2 
 .bss.m_ticks_latest
                0x20005b7c        0x4 examples/light_switch/server/CMakeFiles/light_switch_server_nrf52832_xxAA_s132_6.0.0.dir/C_/sdks/nRF5_SDK_15.0.0_a53641a/components/libraries/timer/app_timer.c.obj
 .bss.mp_timer_id_head
                0x20005b80        0x4 examples/light_switch/server/CMakeFiles/light_switch_server_nrf52832_xxAA_s132_6.0.0.dir/C_/sdks/nRF5_SDK_15.0.0_a53641a/components/libraries/timer/app_timer.c.obj
 .bss._acDownBuffer
                0x20005b84       0x80 external/rtt/librtt_nrf52832_xxAA.a(SEGGER_RTT.c.obj)
 .bss._acUpBuffer
                0x20005c04      0x400 external/rtt/librtt_nrf52832_xxAA.a(SEGGER_RTT.c.obj)
 .bss.__malloc_free_list
                0x20006004        0x4 c:/arm_gcc/bin/../lib/gcc/arm-none-eabi/6.3.1/../../../../arm-none-eabi/lib/thumb/v7e-m/fpv4-sp/hard\libg_nano.a(lib_a-nano-mallocr.o)
                0x20006004                __malloc_free_list
 .bss.__malloc_sbrk_start
                0x20006008        0x4 c:/arm_gcc/bin/../lib/gcc/arm-none-eabi/6.3.1/../../../../arm-none-eabi/lib/thumb/v7e-m/fpv4-sp/hard\libg_nano.a(lib_a-nano-mallocr.o)
                0x20006008                __malloc_sbrk_start
 .bss.heap_end.5239
                0x2000600c        0x4 c:/arm_gcc/bin/../lib/gcc/arm-none-eabi/6.3.1/../../../../arm-none-eabi/lib/thumb/v7e-m/fpv4-sp/hard\libnosys.a(sbrk.o)
 *(COMMON)
 COMMON         0x20006010       0x24 examples/light_switch/server/CMakeFiles/light_switch_server_nrf52832_xxAA_s132_6.0.0.dir/__/__/__/mesh/core/src/core_tx.c.obj
                0x20006010                m_packet
 COMMON         0x20006034        0xc examples/light_switch/server/CMakeFiles/light_switch_server_nrf52832_xxAA_s132_6.0.0.dir/C_/sdks/nRF5_SDK_15.0.0_a53641a/components/libraries/util/app_util_platform.c.obj
                0x20006034                nrf_nvic_state
 COMMON         0x20006040       0x78 external/rtt/librtt_nrf52832_xxAA.a(SEGGER_RTT.c.obj)
                0x20006040                _SEGGER_RTT
 COMMON         0x200060b8        0x4 c:/arm_gcc/bin/../lib/gcc/arm-none-eabi/6.3.1/../../../../arm-none-eabi/lib/thumb/v7e-m/fpv4-sp/hard\libg_nano.a(lib_a-reent.o)
                0x200060b8                errno
                0x200060bc                . = ALIGN (0x4)
                0x200060bc                __bss_end__ = .

.heap           0x200060c0     0x2000
                0x200060c0                __HeapBase = .
                0x200060c0                __end__ = .
                0x200060c0                PROVIDE (end, .)
 *(.heap*)
 .heap          0x200060c0     0x2000 examples/light_switch/server/CMakeFiles/light_switch_server_nrf52832_xxAA_s132_6.0.0.dir/C_/sdks/nRF5_SDK_15.0.0_a53641a/modules/nrfx/mdk/gcc_startup_nrf52.S.obj
                0x200080c0                __HeapLimit = .

.stack_dummy    0x200060c0     0x2000
 *(.stack*)
 .stack         0x200060c0     0x2000 examples/light_switch/server/CMakeFiles/light_switch_server_nrf52832_xxAA_s132_6.0.0.dir/C_/sdks/nRF5_SDK_15.0.0_a53641a/modules/nrfx/mdk/gcc_startup_nrf52.S.obj
                0x2000fd00                __StackTop = (ORIGIN (RAM) + LENGTH (RAM))
                0x2000dd00                __StackLimit = (__StackTop - SIZEOF (.stack_dummy))
                0x2000fd00                PROVIDE (__stack, __StackTop)
                0x00000001                ASSERT ((__StackLimit >= __HeapLimit), region RAM overflowed with stack)
                0x000001a0                DataInitFlashUsed = (__bss_start__ - __data_start__)
                0x000149b4                CodeFlashUsed = (__etext - ORIGIN (FLASH))
                0x00014b54                TotalFlashUsed = (CodeFlashUsed + DataInitFlashUsed)
                0x00000001                ASSERT ((TotalFlashUsed <= LENGTH (FLASH)), region FLASH overflowed with .data and user data)
OUTPUT(examples\light_switch\server\light_switch_server_nrf52832_xxAA_s132_6.0.0.elf elf32-littlearm)

.ARM.attributes
                0x00000000       0x30
 .ARM.attributes
                0x00000000       0x22 c:/arm_gcc/bin/../lib/gcc/arm-none-eabi/6.3.1/thumb/v7e-m/fpv4-sp/hard/crti.o
 .ARM.attributes
                0x00000022       0x34 c:/arm_gcc/bin/../lib/gcc/arm-none-eabi/6.3.1/thumb/v7e-m/fpv4-sp/hard/crtbegin.o
 .ARM.attributes
                0x00000056       0x20 c:/arm_gcc/bin/../lib/gcc/arm-none-eabi/6.3.1/../../../../arm-none-eabi/lib/thumb/v7e-m/fpv4-sp/hard/crt0.o
 .ARM.attributes
                0x00000076       0x39 examples/light_switch/server/CMakeFiles/light_switch_server_nrf52832_xxAA_s132_6.0.0.dir/src/main.c.obj
 .ARM.attributes
                0x000000af       0x39 examples/light_switch/server/CMakeFiles/light_switch_server_nrf52832_xxAA_s132_6.0.0.dir/__/__/common/src/app_onoff.c.obj
 .ARM.attributes
                0x000000e8       0x39 examples/light_switch/server/CMakeFiles/light_switch_server_nrf52832_xxAA_s132_6.0.0.dir/__/__/__/mesh/stack/src/mesh_stack.c.obj
 .ARM.attributes
                0x00000121       0x39 examples/light_switch/server/CMakeFiles/light_switch_server_nrf52832_xxAA_s132_6.0.0.dir/__/__/common/src/mesh_softdevice_init.c.obj
 .ARM.attributes
                0x0000015a       0x39 examples/light_switch/server/CMakeFiles/light_switch_server_nrf52832_xxAA_s132_6.0.0.dir/__/__/common/src/mesh_provisionee.c.obj
 .ARM.attributes
                0x00000193       0x39 examples/light_switch/server/CMakeFiles/light_switch_server_nrf52832_xxAA_s132_6.0.0.dir/__/__/common/src/rtt_input.c.obj
 .ARM.attributes
                0x000001cc       0x39 examples/light_switch/server/CMakeFiles/light_switch_server_nrf52832_xxAA_s132_6.0.0.dir/__/__/common/src/simple_hal.c.obj
 .ARM.attributes
                0x00000205       0x39 examples/light_switch/server/CMakeFiles/light_switch_server_nrf52832_xxAA_s132_6.0.0.dir/__/__/common/src/mesh_app_utils.c.obj
 .ARM.attributes
                0x0000023e       0x39 examples/light_switch/server/CMakeFiles/light_switch_server_nrf52832_xxAA_s132_6.0.0.dir/__/__/nrf_mesh_weak.c.obj
 .ARM.attributes
                0x00000277       0x39 examples/light_switch/server/CMakeFiles/light_switch_server_nrf52832_xxAA_s132_6.0.0.dir/__/__/common/src/app_error_weak.c.obj
 .ARM.attributes
                0x000002b0       0x39 examples/light_switch/server/CMakeFiles/light_switch_server_nrf52832_xxAA_s132_6.0.0.dir/__/__/common/src/assertion_handler_weak.c.obj
 .ARM.attributes
                0x000002e9       0x39 examples/light_switch/server/CMakeFiles/light_switch_server_nrf52832_xxAA_s132_6.0.0.dir/__/__/__/mesh/core/src/nrf_mesh_configure.c.obj
 .ARM.attributes
                0x00000322       0x39 examples/light_switch/server/CMakeFiles/light_switch_server_nrf52832_xxAA_s132_6.0.0.dir/__/__/__/mesh/core/src/msg_cache.c.obj
 .ARM.attributes
                0x0000035b       0x39 examples/light_switch/server/CMakeFiles/light_switch_server_nrf52832_xxAA_s132_6.0.0.dir/__/__/__/mesh/core/src/transport.c.obj
 .ARM.attributes
                0x00000394       0x39 examples/light_switch/server/CMakeFiles/light_switch_server_nrf52832_xxAA_s132_6.0.0.dir/__/__/__/mesh/core/src/event.c.obj
 .ARM.attributes
                0x000003cd       0x39 examples/light_switch/server/CMakeFiles/light_switch_server_nrf52832_xxAA_s132_6.0.0.dir/__/__/__/mesh/core/src/packet_buffer.c.obj
 .ARM.attributes
                0x00000406       0x39 examples/light_switch/server/CMakeFiles/light_switch_server_nrf52832_xxAA_s132_6.0.0.dir/__/__/__/mesh/core/src/flash_manager_defrag.c.obj
 .ARM.attributes
                0x0000043f       0x39 examples/light_switch/server/CMakeFiles/light_switch_server_nrf52832_xxAA_s132_6.0.0.dir/__/__/__/mesh/core/src/fifo.c.obj
 .ARM.attributes
                0x00000478       0x39 examples/light_switch/server/CMakeFiles/light_switch_server_nrf52832_xxAA_s132_6.0.0.dir/__/__/__/mesh/core/src/nrf_flash.c.obj
 .ARM.attributes
                0x000004b1       0x39 examples/light_switch/server/CMakeFiles/light_switch_server_nrf52832_xxAA_s132_6.0.0.dir/__/__/__/mesh/core/src/packet_mgr.c.obj
 .ARM.attributes
                0x000004ea       0x39 examples/light_switch/server/CMakeFiles/light_switch_server_nrf52832_xxAA_s132_6.0.0.dir/__/__/__/mesh/core/src/net_state.c.obj
 .ARM.attributes
                0x00000523       0x39 examples/light_switch/server/CMakeFiles/light_switch_server_nrf52832_xxAA_s132_6.0.0.dir/__/__/__/mesh/core/src/mesh_flash.c.obj
 .ARM.attributes
                0x0000055c       0x39 examples/light_switch/server/CMakeFiles/light_switch_server_nrf52832_xxAA_s132_6.0.0.dir/__/__/__/mesh/core/src/nrf_mesh_utils.c.obj
 .ARM.attributes
                0x00000595       0x39 examples/light_switch/server/CMakeFiles/light_switch_server_nrf52832_xxAA_s132_6.0.0.dir/__/__/__/mesh/core/src/nrf_mesh.c.obj
 .ARM.attributes
                0x000005ce       0x39 examples/light_switch/server/CMakeFiles/light_switch_server_nrf52832_xxAA_s132_6.0.0.dir/__/__/__/mesh/core/src/queue.c.obj
 .ARM.attributes
                0x00000607       0x39 examples/light_switch/server/CMakeFiles/light_switch_server_nrf52832_xxAA_s132_6.0.0.dir/__/__/__/mesh/core/src/hal.c.obj
 .ARM.attributes
                0x00000640       0x39 examples/light_switch/server/CMakeFiles/light_switch_server_nrf52832_xxAA_s132_6.0.0.dir/__/__/__/mesh/core/src/aes_cmac.c.obj
 .ARM.attributes
                0x00000679       0x39 examples/light_switch/server/CMakeFiles/light_switch_server_nrf52832_xxAA_s132_6.0.0.dir/__/__/__/mesh/core/src/timer_scheduler.c.obj
 .ARM.attributes
                0x000006b2       0x39 examples/light_switch/server/CMakeFiles/light_switch_server_nrf52832_xxAA_s132_6.0.0.dir/__/__/__/mesh/core/src/timer.c.obj
 .ARM.attributes
                0x000006eb       0x39 examples/light_switch/server/CMakeFiles/light_switch_server_nrf52832_xxAA_s132_6.0.0.dir/__/__/__/mesh/core/src/rand.c.obj
 .ARM.attributes
                0x00000724       0x39 examples/light_switch/server/CMakeFiles/light_switch_server_nrf52832_xxAA_s132_6.0.0.dir/__/__/__/mesh/core/src/mesh_opt.c.obj
 .ARM.attributes
                0x0000075d       0x39 examples/light_switch/server/CMakeFiles/light_switch_server_nrf52832_xxAA_s132_6.0.0.dir/__/__/__/mesh/core/src/timeslot.c.obj
 .ARM.attributes
                0x00000796       0x39 examples/light_switch/server/CMakeFiles/light_switch_server_nrf52832_xxAA_s132_6.0.0.dir/__/__/__/mesh/core/src/bearer_event.c.obj
 .ARM.attributes
                0x000007cf       0x39 examples/light_switch/server/CMakeFiles/light_switch_server_nrf52832_xxAA_s132_6.0.0.dir/__/__/__/mesh/core/src/enc.c.obj
 .ARM.attributes
                0x00000808       0x39 examples/light_switch/server/CMakeFiles/light_switch_server_nrf52832_xxAA_s132_6.0.0.dir/__/__/__/mesh/core/src/network.c.obj
 .ARM.attributes
                0x00000841       0x39 examples/light_switch/server/CMakeFiles/light_switch_server_nrf52832_xxAA_s132_6.0.0.dir/__/__/__/mesh/core/src/net_packet.c.obj
 .ARM.attributes
                0x0000087a       0x39 examples/light_switch/server/CMakeFiles/light_switch_server_nrf52832_xxAA_s132_6.0.0.dir/__/__/__/mesh/core/src/msqueue.c.obj
 .ARM.attributes
                0x000008b3       0x39 examples/light_switch/server/CMakeFiles/light_switch_server_nrf52832_xxAA_s132_6.0.0.dir/__/__/__/mesh/core/src/nrf_mesh_keygen.c.obj
 .ARM.attributes
                0x000008ec       0x39 examples/light_switch/server/CMakeFiles/light_switch_server_nrf52832_xxAA_s132_6.0.0.dir/__/__/__/mesh/core/src/list.c.obj
 .ARM.attributes
                0x00000925       0x39 examples/light_switch/server/CMakeFiles/light_switch_server_nrf52832_xxAA_s132_6.0.0.dir/__/__/__/mesh/core/src/log.c.obj
 .ARM.attributes
                0x0000095e       0x39 examples/light_switch/server/CMakeFiles/light_switch_server_nrf52832_xxAA_s132_6.0.0.dir/__/__/__/mesh/core/src/flash_manager.c.obj
 .ARM.attributes
                0x00000997       0x39 examples/light_switch/server/CMakeFiles/light_switch_server_nrf52832_xxAA_s132_6.0.0.dir/__/__/__/mesh/core/src/ccm_soft.c.obj
 .ARM.attributes
                0x000009d0       0x39 examples/light_switch/server/CMakeFiles/light_switch_server_nrf52832_xxAA_s132_6.0.0.dir/__/__/__/mesh/core/src/replay_cache.c.obj
 .ARM.attributes
                0x00000a09       0x39 examples/light_switch/server/CMakeFiles/light_switch_server_nrf52832_xxAA_s132_6.0.0.dir/__/__/__/mesh/core/src/beacon.c.obj
 .ARM.attributes
                0x00000a42       0x39 examples/light_switch/server/CMakeFiles/light_switch_server_nrf52832_xxAA_s132_6.0.0.dir/__/__/__/mesh/core/src/flash_manager_internal.c.obj
 .ARM.attributes
                0x00000a7b       0x39 examples/light_switch/server/CMakeFiles/light_switch_server_nrf52832_xxAA_s132_6.0.0.dir/__/__/__/mesh/core/src/core_tx.c.obj
 .ARM.attributes
                0x00000ab4       0x39 examples/light_switch/server/CMakeFiles/light_switch_server_nrf52832_xxAA_s132_6.0.0.dir/__/__/__/mesh/core/src/heartbeat.c.obj
 .ARM.attributes
                0x00000aed       0x39 examples/light_switch/server/CMakeFiles/light_switch_server_nrf52832_xxAA_s132_6.0.0.dir/__/__/__/mesh/core/src/net_beacon.c.obj
 .ARM.attributes
                0x00000b26       0x39 examples/light_switch/server/CMakeFiles/light_switch_server_nrf52832_xxAA_s132_6.0.0.dir/__/__/__/mesh/core/src/mesh_config.c.obj
 .ARM.attributes
                0x00000b5f       0x39 examples/light_switch/server/CMakeFiles/light_switch_server_nrf52832_xxAA_s132_6.0.0.dir/__/__/__/mesh/core/src/mesh_config_backend.c.obj
 .ARM.attributes
                0x00000b98       0x39 examples/light_switch/server/CMakeFiles/light_switch_server_nrf52832_xxAA_s132_6.0.0.dir/__/__/__/mesh/core/src/mesh_config_flashman_glue.c.obj
 .ARM.attributes
                0x00000bd1       0x39 examples/light_switch/server/CMakeFiles/light_switch_server_nrf52832_xxAA_s132_6.0.0.dir/__/__/__/mesh/core/src/core_tx_adv.c.obj
 .ARM.attributes
                0x00000c0a       0x39 examples/light_switch/server/CMakeFiles/light_switch_server_nrf52832_xxAA_s132_6.0.0.dir/__/__/__/mesh/bearer/src/ad_listener.c.obj
 .ARM.attributes
                0x00000c43       0x39 examples/light_switch/server/CMakeFiles/light_switch_server_nrf52832_xxAA_s132_6.0.0.dir/__/__/__/mesh/bearer/src/ad_type_filter.c.obj
 .ARM.attributes
                0x00000c7c       0x39 examples/light_switch/server/CMakeFiles/light_switch_server_nrf52832_xxAA_s132_6.0.0.dir/__/__/__/mesh/bearer/src/advertiser.c.obj
 .ARM.attributes
                0x00000cb5       0x39 examples/light_switch/server/CMakeFiles/light_switch_server_nrf52832_xxAA_s132_6.0.0.dir/__/__/__/mesh/bearer/src/bearer_handler.c.obj
 .ARM.attributes
                0x00000cee       0x39 examples/light_switch/server/CMakeFiles/light_switch_server_nrf52832_xxAA_s132_6.0.0.dir/__/__/__/mesh/bearer/src/broadcast.c.obj
 .ARM.attributes
                0x00000d27       0x39 examples/light_switch/server/CMakeFiles/light_switch_server_nrf52832_xxAA_s132_6.0.0.dir/__/__/__/mesh/bearer/src/filter_engine.c.obj
 .ARM.attributes
                0x00000d60       0x39 examples/light_switch/server/CMakeFiles/light_switch_server_nrf52832_xxAA_s132_6.0.0.dir/__/__/__/mesh/bearer/src/radio_config.c.obj
 .ARM.attributes
                0x00000d99       0x39 examples/light_switch/server/CMakeFiles/light_switch_server_nrf52832_xxAA_s132_6.0.0.dir/__/__/__/mesh/bearer/src/scanner.c.obj
 .ARM.attributes
                0x00000dd2       0x39 examples/light_switch/server/CMakeFiles/light_switch_server_nrf52832_xxAA_s132_6.0.0.dir/__/__/__/mesh/bearer/src/mesh_pa_lna.c.obj
 .ARM.attributes
                0x00000e0b       0x39 examples/light_switch/server/CMakeFiles/light_switch_server_nrf52832_xxAA_s132_6.0.0.dir/__/__/__/models/foundation/config/src/composition_data.c.obj
 .ARM.attributes
                0x00000e44       0x39 examples/light_switch/server/CMakeFiles/light_switch_server_nrf52832_xxAA_s132_6.0.0.dir/__/__/__/models/foundation/config/src/config_server.c.obj
 .ARM.attributes
                0x00000e7d       0x39 examples/light_switch/server/CMakeFiles/light_switch_server_nrf52832_xxAA_s132_6.0.0.dir/__/__/__/models/foundation/config/src/packed_index_list.c.obj
 .ARM.attributes
                0x00000eb6       0x39 examples/light_switch/server/CMakeFiles/light_switch_server_nrf52832_xxAA_s132_6.0.0.dir/__/__/__/models/foundation/health/src/health_server.c.obj
 .ARM.attributes
                0x00000eef       0x39 examples/light_switch/server/CMakeFiles/light_switch_server_nrf52832_xxAA_s132_6.0.0.dir/__/__/__/models/model_spec/generic_onoff/src/generic_onoff_server.c.obj
 .ARM.attributes
                0x00000f28       0x39 examples/light_switch/server/CMakeFiles/light_switch_server_nrf52832_xxAA_s132_6.0.0.dir/__/__/__/models/model_spec/common/src/model_common.c.obj
 .ARM.attributes
                0x00000f61       0x39 examples/light_switch/server/CMakeFiles/light_switch_server_nrf52832_xxAA_s132_6.0.0.dir/__/__/__/mesh/access/src/access_publish.c.obj
 .ARM.attributes
                0x00000f9a       0x39 examples/light_switch/server/CMakeFiles/light_switch_server_nrf52832_xxAA_s132_6.0.0.dir/__/__/__/mesh/access/src/access.c.obj
 .ARM.attributes
                0x00000fd3       0x39 examples/light_switch/server/CMakeFiles/light_switch_server_nrf52832_xxAA_s132_6.0.0.dir/__/__/__/mesh/access/src/access_reliable.c.obj
 .ARM.attributes
                0x0000100c       0x39 examples/light_switch/server/CMakeFiles/light_switch_server_nrf52832_xxAA_s132_6.0.0.dir/__/__/__/mesh/access/src/access_loopback.c.obj
 .ARM.attributes
                0x00001045       0x39 examples/light_switch/server/CMakeFiles/light_switch_server_nrf52832_xxAA_s132_6.0.0.dir/__/__/__/mesh/access/src/device_state_manager.c.obj
 .ARM.attributes
                0x0000107e       0x39 examples/light_switch/server/CMakeFiles/light_switch_server_nrf52832_xxAA_s132_6.0.0.dir/__/__/__/mesh/prov/src/prov_provisionee.c.obj
 .ARM.attributes
                0x000010b7       0x39 examples/light_switch/server/CMakeFiles/light_switch_server_nrf52832_xxAA_s132_6.0.0.dir/__/__/__/mesh/prov/src/nrf_mesh_prov.c.obj
 .ARM.attributes
                0x000010f0       0x39 examples/light_switch/server/CMakeFiles/light_switch_server_nrf52832_xxAA_s132_6.0.0.dir/__/__/__/mesh/prov/src/provisioning.c.obj
 .ARM.attributes
                0x00001129       0x39 examples/light_switch/server/CMakeFiles/light_switch_server_nrf52832_xxAA_s132_6.0.0.dir/__/__/__/mesh/prov/src/prov_beacon.c.obj
 .ARM.attributes
                0x00001162       0x39 examples/light_switch/server/CMakeFiles/light_switch_server_nrf52832_xxAA_s132_6.0.0.dir/__/__/__/mesh/prov/src/prov_utils.c.obj
 .ARM.attributes
                0x0000119b       0x39 examples/light_switch/server/CMakeFiles/light_switch_server_nrf52832_xxAA_s132_6.0.0.dir/__/__/__/mesh/prov/src/prov_bearer_adv.c.obj
 .ARM.attributes
                0x000011d4       0x39 examples/light_switch/server/CMakeFiles/light_switch_server_nrf52832_xxAA_s132_6.0.0.dir/C_/sdks/nRF5_SDK_15.0.0_a53641a/modules/nrfx/mdk/system_nrf52.c.obj
 .ARM.attributes
                0x0000120d       0x20 examples/light_switch/server/CMakeFiles/light_switch_server_nrf52832_xxAA_s132_6.0.0.dir/C_/sdks/nRF5_SDK_15.0.0_a53641a/modules/nrfx/mdk/gcc_startup_nrf52.S.obj
 .ARM.attributes
                0x0000122d       0x39 examples/light_switch/server/CMakeFiles/light_switch_server_nrf52832_xxAA_s132_6.0.0.dir/C_/sdks/nRF5_SDK_15.0.0_a53641a/components/libraries/util/app_error.c.obj
 .ARM.attributes
                0x00001266       0x39 examples/light_switch/server/CMakeFiles/light_switch_server_nrf52832_xxAA_s132_6.0.0.dir/C_/sdks/nRF5_SDK_15.0.0_a53641a/components/libraries/util/app_util_platform.c.obj
 .ARM.attributes
                0x0000129f       0x39 examples/light_switch/server/CMakeFiles/light_switch_server_nrf52832_xxAA_s132_6.0.0.dir/C_/sdks/nRF5_SDK_15.0.0_a53641a/components/libraries/timer/app_timer.c.obj
 .ARM.attributes
                0x000012d8       0x39 examples/light_switch/server/CMakeFiles/light_switch_server_nrf52832_xxAA_s132_6.0.0.dir/C_/sdks/nRF5_SDK_15.0.0_a53641a/components/libraries/util/app_error_handler_gcc.c.obj
 .ARM.attributes
                0x00001311       0x39 external/rtt/librtt_nrf52832_xxAA.a(SEGGER_RTT.c.obj)
 .ARM.attributes
                0x0000134a       0x39 external/rtt/librtt_nrf52832_xxAA.a(SEGGER_RTT_printf.c.obj)
 .ARM.attributes
                0x00001383       0x39 external/micro-ecc/libuECC_nrf52832_xxAA.a(uECC.c.obj)
 .ARM.attributes
                0x000013bc       0x22 c:/arm_gcc/bin/../lib/gcc/arm-none-eabi/6.3.1/thumb/v7e-m/fpv4-sp/hard\libgcc.a(_aeabi_uldivmod.o)
 .ARM.attributes
                0x000013de       0x34 c:/arm_gcc/bin/../lib/gcc/arm-none-eabi/6.3.1/thumb/v7e-m/fpv4-sp/hard\libgcc.a(_udivmoddi4.o)
 .ARM.attributes
                0x00001412       0x22 c:/arm_gcc/bin/../lib/gcc/arm-none-eabi/6.3.1/thumb/v7e-m/fpv4-sp/hard\libgcc.a(_dvmd_tls.o)
 .ARM.attributes
                0x00001434       0x34 c:/arm_gcc/bin/../lib/gcc/arm-none-eabi/6.3.1/../../../../arm-none-eabi/lib/thumb/v7e-m/fpv4-sp/hard\libg_nano.a(lib_a-exit.o)
 .ARM.attributes
                0x00001468       0x34 c:/arm_gcc/bin/../lib/gcc/arm-none-eabi/6.3.1/../../../../arm-none-eabi/lib/thumb/v7e-m/fpv4-sp/hard\libg_nano.a(lib_a-impure.o)
 .ARM.attributes
                0x0000149c       0x34 c:/arm_gcc/bin/../lib/gcc/arm-none-eabi/6.3.1/../../../../arm-none-eabi/lib/thumb/v7e-m/fpv4-sp/hard\libg_nano.a(lib_a-init.o)
 .ARM.attributes
                0x000014d0       0x34 c:/arm_gcc/bin/../lib/gcc/arm-none-eabi/6.3.1/../../../../arm-none-eabi/lib/thumb/v7e-m/fpv4-sp/hard\libg_nano.a(lib_a-malloc.o)
 .ARM.attributes
                0x00001504       0x34 c:/arm_gcc/bin/../lib/gcc/arm-none-eabi/6.3.1/../../../../arm-none-eabi/lib/thumb/v7e-m/fpv4-sp/hard\libg_nano.a(lib_a-memcmp.o)
 .ARM.attributes
                0x00001538       0x34 c:/arm_gcc/bin/../lib/gcc/arm-none-eabi/6.3.1/../../../../arm-none-eabi/lib/thumb/v7e-m/fpv4-sp/hard\libg_nano.a(lib_a-memcpy-stub.o)
 .ARM.attributes
                0x0000156c       0x34 c:/arm_gcc/bin/../lib/gcc/arm-none-eabi/6.3.1/../../../../arm-none-eabi/lib/thumb/v7e-m/fpv4-sp/hard\libg_nano.a(lib_a-memset.o)
 .ARM.attributes
                0x000015a0       0x34 c:/arm_gcc/bin/../lib/gcc/arm-none-eabi/6.3.1/../../../../arm-none-eabi/lib/thumb/v7e-m/fpv4-sp/hard\libg_nano.a(lib_a-nano-freer.o)
 .ARM.attributes
                0x000015d4       0x34 c:/arm_gcc/bin/../lib/gcc/arm-none-eabi/6.3.1/../../../../arm-none-eabi/lib/thumb/v7e-m/fpv4-sp/hard\libg_nano.a(lib_a-nano-mallocr.o)
 .ARM.attributes
                0x00001608       0x34 c:/arm_gcc/bin/../lib/gcc/arm-none-eabi/6.3.1/../../../../arm-none-eabi/lib/thumb/v7e-m/fpv4-sp/hard\libg_nano.a(lib_a-sbrkr.o)
 .ARM.attributes
                0x0000163c       0x34 c:/arm_gcc/bin/../lib/gcc/arm-none-eabi/6.3.1/../../../../arm-none-eabi/lib/thumb/v7e-m/fpv4-sp/hard\libg_nano.a(lib_a-strcpy.o)
 .ARM.attributes
                0x00001670       0x1b c:/arm_gcc/bin/../lib/gcc/arm-none-eabi/6.3.1/../../../../arm-none-eabi/lib/thumb/v7e-m/fpv4-sp/hard\libg_nano.a(lib_a-strlen.o)
 .ARM.attributes
                0x0000168b       0x34 c:/arm_gcc/bin/../lib/gcc/arm-none-eabi/6.3.1/../../../../arm-none-eabi/lib/thumb/v7e-m/fpv4-sp/hard\libg_nano.a(lib_a-strrchr.o)
 .ARM.attributes
                0x000016bf       0x34 c:/arm_gcc/bin/../lib/gcc/arm-none-eabi/6.3.1/../../../../arm-none-eabi/lib/thumb/v7e-m/fpv4-sp/hard\libg_nano.a(lib_a-mlock.o)
 .ARM.attributes
                0x000016f3       0x34 c:/arm_gcc/bin/../lib/gcc/arm-none-eabi/6.3.1/../../../../arm-none-eabi/lib/thumb/v7e-m/fpv4-sp/hard\libg_nano.a(lib_a-reent.o)
 .ARM.attributes
                0x00001727       0x34 c:/arm_gcc/bin/../lib/gcc/arm-none-eabi/6.3.1/../../../../arm-none-eabi/lib/thumb/v7e-m/fpv4-sp/hard\libg_nano.a(lib_a-strchr.o)
 .ARM.attributes
                0x0000175b       0x34 c:/arm_gcc/bin/../lib/gcc/arm-none-eabi/6.3.1/thumb/v7e-m/fpv4-sp/hard/crtend.o
 .ARM.attributes
                0x0000178f       0x22 c:/arm_gcc/bin/../lib/gcc/arm-none-eabi/6.3.1/thumb/v7e-m/fpv4-sp/hard/crtn.o
 .ARM.attributes
                0x000017b1       0x34 c:/arm_gcc/bin/../lib/gcc/arm-none-eabi/6.3.1/../../../../arm-none-eabi/lib/thumb/v7e-m/fpv4-sp/hard\libnosys.a(sbrk.o)
 .ARM.attributes
                0x000017e5       0x34 c:/arm_gcc/bin/../lib/gcc/arm-none-eabi/6.3.1/../../../../arm-none-eabi/lib/thumb/v7e-m/fpv4-sp/hard\libnosys.a(_exit.o)

.comment        0x00000000       0x7f
 .comment       0x00000000       0x7f examples/light_switch/server/CMakeFiles/light_switch_server_nrf52832_xxAA_s132_6.0.0.dir/src/main.c.obj
                                 0x80 (size before relaxing)
 .comment       0x0000007f       0x80 examples/light_switch/server/CMakeFiles/light_switch_server_nrf52832_xxAA_s132_6.0.0.dir/__/__/common/src/app_onoff.c.obj
 .comment       0x0000007f       0x80 examples/light_switch/server/CMakeFiles/light_switch_server_nrf52832_xxAA_s132_6.0.0.dir/__/__/__/mesh/stack/src/mesh_stack.c.obj
 .comment       0x0000007f       0x80 examples/light_switch/server/CMakeFiles/light_switch_server_nrf52832_xxAA_s132_6.0.0.dir/__/__/common/src/mesh_softdevice_init.c.obj
 .comment       0x0000007f       0x80 examples/light_switch/server/CMakeFiles/light_switch_server_nrf52832_xxAA_s132_6.0.0.dir/__/__/common/src/mesh_provisionee.c.obj
 .comment       0x0000007f       0x80 examples/light_switch/server/CMakeFiles/light_switch_server_nrf52832_xxAA_s132_6.0.0.dir/__/__/common/src/rtt_input.c.obj
 .comment       0x0000007f       0x80 examples/light_switch/server/CMakeFiles/light_switch_server_nrf52832_xxAA_s132_6.0.0.dir/__/__/common/src/simple_hal.c.obj
 .comment       0x0000007f       0x80 examples/light_switch/server/CMakeFiles/light_switch_server_nrf52832_xxAA_s132_6.0.0.dir/__/__/common/src/mesh_app_utils.c.obj
 .comment       0x0000007f       0x80 examples/light_switch/server/CMakeFiles/light_switch_server_nrf52832_xxAA_s132_6.0.0.dir/__/__/nrf_mesh_weak.c.obj
 .comment       0x0000007f       0x80 examples/light_switch/server/CMakeFiles/light_switch_server_nrf52832_xxAA_s132_6.0.0.dir/__/__/common/src/app_error_weak.c.obj
 .comment       0x0000007f       0x80 examples/light_switch/server/CMakeFiles/light_switch_server_nrf52832_xxAA_s132_6.0.0.dir/__/__/common/src/assertion_handler_weak.c.obj
 .comment       0x0000007f       0x80 examples/light_switch/server/CMakeFiles/light_switch_server_nrf52832_xxAA_s132_6.0.0.dir/__/__/__/mesh/core/src/nrf_mesh_configure.c.obj
 .comment       0x0000007f       0x80 examples/light_switch/server/CMakeFiles/light_switch_server_nrf52832_xxAA_s132_6.0.0.dir/__/__/__/mesh/core/src/msg_cache.c.obj
 .comment       0x0000007f       0x80 examples/light_switch/server/CMakeFiles/light_switch_server_nrf52832_xxAA_s132_6.0.0.dir/__/__/__/mesh/core/src/transport.c.obj
 .comment       0x0000007f       0x80 examples/light_switch/server/CMakeFiles/light_switch_server_nrf52832_xxAA_s132_6.0.0.dir/__/__/__/mesh/core/src/event.c.obj
 .comment       0x0000007f       0x80 examples/light_switch/server/CMakeFiles/light_switch_server_nrf52832_xxAA_s132_6.0.0.dir/__/__/__/mesh/core/src/packet_buffer.c.obj
 .comment       0x0000007f       0x80 examples/light_switch/server/CMakeFiles/light_switch_server_nrf52832_xxAA_s132_6.0.0.dir/__/__/__/mesh/core/src/flash_manager_defrag.c.obj
 .comment       0x0000007f       0x80 examples/light_switch/server/CMakeFiles/light_switch_server_nrf52832_xxAA_s132_6.0.0.dir/__/__/__/mesh/core/src/fifo.c.obj
 .comment       0x0000007f       0x80 examples/light_switch/server/CMakeFiles/light_switch_server_nrf52832_xxAA_s132_6.0.0.dir/__/__/__/mesh/core/src/nrf_flash.c.obj
 .comment       0x0000007f       0x80 examples/light_switch/server/CMakeFiles/light_switch_server_nrf52832_xxAA_s132_6.0.0.dir/__/__/__/mesh/core/src/packet_mgr.c.obj
 .comment       0x0000007f       0x80 examples/light_switch/server/CMakeFiles/light_switch_server_nrf52832_xxAA_s132_6.0.0.dir/__/__/__/mesh/core/src/net_state.c.obj
 .comment       0x0000007f       0x80 examples/light_switch/server/CMakeFiles/light_switch_server_nrf52832_xxAA_s132_6.0.0.dir/__/__/__/mesh/core/src/mesh_flash.c.obj
 .comment       0x0000007f       0x80 examples/light_switch/server/CMakeFiles/light_switch_server_nrf52832_xxAA_s132_6.0.0.dir/__/__/__/mesh/core/src/nrf_mesh_utils.c.obj
 .comment       0x0000007f       0x80 examples/light_switch/server/CMakeFiles/light_switch_server_nrf52832_xxAA_s132_6.0.0.dir/__/__/__/mesh/core/src/nrf_mesh.c.obj
 .comment       0x0000007f       0x80 examples/light_switch/server/CMakeFiles/light_switch_server_nrf52832_xxAA_s132_6.0.0.dir/__/__/__/mesh/core/src/queue.c.obj
 .comment       0x0000007f       0x80 examples/light_switch/server/CMakeFiles/light_switch_server_nrf52832_xxAA_s132_6.0.0.dir/__/__/__/mesh/core/src/hal.c.obj
 .comment       0x0000007f       0x80 examples/light_switch/server/CMakeFiles/light_switch_server_nrf52832_xxAA_s132_6.0.0.dir/__/__/__/mesh/core/src/aes_cmac.c.obj
 .comment       0x0000007f       0x80 examples/light_switch/server/CMakeFiles/light_switch_server_nrf52832_xxAA_s132_6.0.0.dir/__/__/__/mesh/core/src/timer_scheduler.c.obj
 .comment       0x0000007f       0x80 examples/light_switch/server/CMakeFiles/light_switch_server_nrf52832_xxAA_s132_6.0.0.dir/__/__/__/mesh/core/src/timer.c.obj
 .comment       0x0000007f       0x80 examples/light_switch/server/CMakeFiles/light_switch_server_nrf52832_xxAA_s132_6.0.0.dir/__/__/__/mesh/core/src/rand.c.obj
 .comment       0x0000007f       0x80 examples/light_switch/server/CMakeFiles/light_switch_server_nrf52832_xxAA_s132_6.0.0.dir/__/__/__/mesh/core/src/mesh_opt.c.obj
 .comment       0x0000007f       0x80 examples/light_switch/server/CMakeFiles/light_switch_server_nrf52832_xxAA_s132_6.0.0.dir/__/__/__/mesh/core/src/timeslot.c.obj
 .comment       0x0000007f       0x80 examples/light_switch/server/CMakeFiles/light_switch_server_nrf52832_xxAA_s132_6.0.0.dir/__/__/__/mesh/core/src/bearer_event.c.obj
 .comment       0x0000007f       0x80 examples/light_switch/server/CMakeFiles/light_switch_server_nrf52832_xxAA_s132_6.0.0.dir/__/__/__/mesh/core/src/enc.c.obj
 .comment       0x0000007f       0x80 examples/light_switch/server/CMakeFiles/light_switch_server_nrf52832_xxAA_s132_6.0.0.dir/__/__/__/mesh/core/src/network.c.obj
 .comment       0x0000007f       0x80 examples/light_switch/server/CMakeFiles/light_switch_server_nrf52832_xxAA_s132_6.0.0.dir/__/__/__/mesh/core/src/net_packet.c.obj
 .comment       0x0000007f       0x80 examples/light_switch/server/CMakeFiles/light_switch_server_nrf52832_xxAA_s132_6.0.0.dir/__/__/__/mesh/core/src/msqueue.c.obj
 .comment       0x0000007f       0x80 examples/light_switch/server/CMakeFiles/light_switch_server_nrf52832_xxAA_s132_6.0.0.dir/__/__/__/mesh/core/src/nrf_mesh_keygen.c.obj
 .comment       0x0000007f       0x80 examples/light_switch/server/CMakeFiles/light_switch_server_nrf52832_xxAA_s132_6.0.0.dir/__/__/__/mesh/core/src/list.c.obj
 .comment       0x0000007f       0x80 examples/light_switch/server/CMakeFiles/light_switch_server_nrf52832_xxAA_s132_6.0.0.dir/__/__/__/mesh/core/src/log.c.obj
 .comment       0x0000007f       0x80 examples/light_switch/server/CMakeFiles/light_switch_server_nrf52832_xxAA_s132_6.0.0.dir/__/__/__/mesh/core/src/flash_manager.c.obj
 .comment       0x0000007f       0x80 examples/light_switch/server/CMakeFiles/light_switch_server_nrf52832_xxAA_s132_6.0.0.dir/__/__/__/mesh/core/src/ccm_soft.c.obj
 .comment       0x0000007f       0x80 examples/light_switch/server/CMakeFiles/light_switch_server_nrf52832_xxAA_s132_6.0.0.dir/__/__/__/mesh/core/src/replay_cache.c.obj
 .comment       0x0000007f       0x80 examples/light_switch/server/CMakeFiles/light_switch_server_nrf52832_xxAA_s132_6.0.0.dir/__/__/__/mesh/core/src/beacon.c.obj
 .comment       0x0000007f       0x80 examples/light_switch/server/CMakeFiles/light_switch_server_nrf52832_xxAA_s132_6.0.0.dir/__/__/__/mesh/core/src/flash_manager_internal.c.obj
 .comment       0x0000007f       0x80 examples/light_switch/server/CMakeFiles/light_switch_server_nrf52832_xxAA_s132_6.0.0.dir/__/__/__/mesh/core/src/core_tx.c.obj
 .comment       0x0000007f       0x80 examples/light_switch/server/CMakeFiles/light_switch_server_nrf52832_xxAA_s132_6.0.0.dir/__/__/__/mesh/core/src/heartbeat.c.obj
 .comment       0x0000007f       0x80 examples/light_switch/server/CMakeFiles/light_switch_server_nrf52832_xxAA_s132_6.0.0.dir/__/__/__/mesh/core/src/net_beacon.c.obj
 .comment       0x0000007f       0x80 examples/light_switch/server/CMakeFiles/light_switch_server_nrf52832_xxAA_s132_6.0.0.dir/__/__/__/mesh/core/src/mesh_config.c.obj
 .comment       0x0000007f       0x80 examples/light_switch/server/CMakeFiles/light_switch_server_nrf52832_xxAA_s132_6.0.0.dir/__/__/__/mesh/core/src/mesh_config_backend.c.obj
 .comment       0x0000007f       0x80 examples/light_switch/server/CMakeFiles/light_switch_server_nrf52832_xxAA_s132_6.0.0.dir/__/__/__/mesh/core/src/mesh_config_flashman_glue.c.obj
 .comment       0x0000007f       0x80 examples/light_switch/server/CMakeFiles/light_switch_server_nrf52832_xxAA_s132_6.0.0.dir/__/__/__/mesh/core/src/core_tx_adv.c.obj
 .comment       0x0000007f       0x80 examples/light_switch/server/CMakeFiles/light_switch_server_nrf52832_xxAA_s132_6.0.0.dir/__/__/__/mesh/bearer/src/ad_listener.c.obj
 .comment       0x0000007f       0x80 examples/light_switch/server/CMakeFiles/light_switch_server_nrf52832_xxAA_s132_6.0.0.dir/__/__/__/mesh/bearer/src/ad_type_filter.c.obj
 .comment       0x0000007f       0x80 examples/light_switch/server/CMakeFiles/light_switch_server_nrf52832_xxAA_s132_6.0.0.dir/__/__/__/mesh/bearer/src/advertiser.c.obj
 .comment       0x0000007f       0x80 examples/light_switch/server/CMakeFiles/light_switch_server_nrf52832_xxAA_s132_6.0.0.dir/__/__/__/mesh/bearer/src/bearer_handler.c.obj
 .comment       0x0000007f       0x80 examples/light_switch/server/CMakeFiles/light_switch_server_nrf52832_xxAA_s132_6.0.0.dir/__/__/__/mesh/bearer/src/broadcast.c.obj
 .comment       0x0000007f       0x80 examples/light_switch/server/CMakeFiles/light_switch_server_nrf52832_xxAA_s132_6.0.0.dir/__/__/__/mesh/bearer/src/filter_engine.c.obj
 .comment       0x0000007f       0x80 examples/light_switch/server/CMakeFiles/light_switch_server_nrf52832_xxAA_s132_6.0.0.dir/__/__/__/mesh/bearer/src/radio_config.c.obj
 .comment       0x0000007f       0x80 examples/light_switch/server/CMakeFiles/light_switch_server_nrf52832_xxAA_s132_6.0.0.dir/__/__/__/mesh/bearer/src/scanner.c.obj
 .comment       0x0000007f       0x80 examples/light_switch/server/CMakeFiles/light_switch_server_nrf52832_xxAA_s132_6.0.0.dir/__/__/__/mesh/bearer/src/mesh_pa_lna.c.obj
 .comment       0x0000007f       0x80 examples/light_switch/server/CMakeFiles/light_switch_server_nrf52832_xxAA_s132_6.0.0.dir/__/__/__/models/foundation/config/src/composition_data.c.obj
 .comment       0x0000007f       0x80 examples/light_switch/server/CMakeFiles/light_switch_server_nrf52832_xxAA_s132_6.0.0.dir/__/__/__/models/foundation/config/src/config_server.c.obj
 .comment       0x0000007f       0x80 examples/light_switch/server/CMakeFiles/light_switch_server_nrf52832_xxAA_s132_6.0.0.dir/__/__/__/models/foundation/config/src/packed_index_list.c.obj
 .comment       0x0000007f       0x80 examples/light_switch/server/CMakeFiles/light_switch_server_nrf52832_xxAA_s132_6.0.0.dir/__/__/__/models/foundation/health/src/health_server.c.obj
 .comment       0x0000007f       0x80 examples/light_switch/server/CMakeFiles/light_switch_server_nrf52832_xxAA_s132_6.0.0.dir/__/__/__/models/model_spec/generic_onoff/src/generic_onoff_server.c.obj
 .comment       0x0000007f       0x80 examples/light_switch/server/CMakeFiles/light_switch_server_nrf52832_xxAA_s132_6.0.0.dir/__/__/__/models/model_spec/common/src/model_common.c.obj
 .comment       0x0000007f       0x80 examples/light_switch/server/CMakeFiles/light_switch_server_nrf52832_xxAA_s132_6.0.0.dir/__/__/__/mesh/access/src/access_publish.c.obj
 .comment       0x0000007f       0x80 examples/light_switch/server/CMakeFiles/light_switch_server_nrf52832_xxAA_s132_6.0.0.dir/__/__/__/mesh/access/src/access.c.obj
 .comment       0x0000007f       0x80 examples/light_switch/server/CMakeFiles/light_switch_server_nrf52832_xxAA_s132_6.0.0.dir/__/__/__/mesh/access/src/access_reliable.c.obj
 .comment       0x0000007f       0x80 examples/light_switch/server/CMakeFiles/light_switch_server_nrf52832_xxAA_s132_6.0.0.dir/__/__/__/mesh/access/src/access_loopback.c.obj
 .comment       0x0000007f       0x80 examples/light_switch/server/CMakeFiles/light_switch_server_nrf52832_xxAA_s132_6.0.0.dir/__/__/__/mesh/access/src/device_state_manager.c.obj
 .comment       0x0000007f       0x80 examples/light_switch/server/CMakeFiles/light_switch_server_nrf52832_xxAA_s132_6.0.0.dir/__/__/__/mesh/prov/src/prov_provisionee.c.obj
 .comment       0x0000007f       0x80 examples/light_switch/server/CMakeFiles/light_switch_server_nrf52832_xxAA_s132_6.0.0.dir/__/__/__/mesh/prov/src/nrf_mesh_prov.c.obj
 .comment       0x0000007f       0x80 examples/light_switch/server/CMakeFiles/light_switch_server_nrf52832_xxAA_s132_6.0.0.dir/__/__/__/mesh/prov/src/provisioning.c.obj
 .comment       0x0000007f       0x80 examples/light_switch/server/CMakeFiles/light_switch_server_nrf52832_xxAA_s132_6.0.0.dir/__/__/__/mesh/prov/src/prov_beacon.c.obj
 .comment       0x0000007f       0x80 examples/light_switch/server/CMakeFiles/light_switch_server_nrf52832_xxAA_s132_6.0.0.dir/__/__/__/mesh/prov/src/prov_utils.c.obj
 .comment       0x0000007f       0x80 examples/light_switch/server/CMakeFiles/light_switch_server_nrf52832_xxAA_s132_6.0.0.dir/__/__/__/mesh/prov/src/prov_bearer_adv.c.obj
 .comment       0x0000007f       0x80 examples/light_switch/server/CMakeFiles/light_switch_server_nrf52832_xxAA_s132_6.0.0.dir/C_/sdks/nRF5_SDK_15.0.0_a53641a/modules/nrfx/mdk/system_nrf52.c.obj
 .comment       0x0000007f       0x80 examples/light_switch/server/CMakeFiles/light_switch_server_nrf52832_xxAA_s132_6.0.0.dir/C_/sdks/nRF5_SDK_15.0.0_a53641a/components/libraries/util/app_error.c.obj
 .comment       0x0000007f       0x80 examples/light_switch/server/CMakeFiles/light_switch_server_nrf52832_xxAA_s132_6.0.0.dir/C_/sdks/nRF5_SDK_15.0.0_a53641a/components/libraries/util/app_util_platform.c.obj
 .comment       0x0000007f       0x80 examples/light_switch/server/CMakeFiles/light_switch_server_nrf52832_xxAA_s132_6.0.0.dir/C_/sdks/nRF5_SDK_15.0.0_a53641a/components/libraries/timer/app_timer.c.obj
 .comment       0x0000007f       0x80 examples/light_switch/server/CMakeFiles/light_switch_server_nrf52832_xxAA_s132_6.0.0.dir/C_/sdks/nRF5_SDK_15.0.0_a53641a/components/libraries/util/app_error_handler_gcc.c.obj
 .comment       0x0000007f       0x80 external/rtt/librtt_nrf52832_xxAA.a(SEGGER_RTT.c.obj)
 .comment       0x0000007f       0x80 external/rtt/librtt_nrf52832_xxAA.a(SEGGER_RTT_printf.c.obj)
 .comment       0x0000007f       0x80 external/micro-ecc/libuECC_nrf52832_xxAA.a(uECC.c.obj)

.debug_info     0x00000000    0x902c6
 .debug_info    0x00000000     0x3025 examples/light_switch/server/CMakeFiles/light_switch_server_nrf52832_xxAA_s132_6.0.0.dir/src/main.c.obj
 .debug_info    0x00003025     0x190f examples/light_switch/server/CMakeFiles/light_switch_server_nrf52832_xxAA_s132_6.0.0.dir/__/__/common/src/app_onoff.c.obj
 .debug_info    0x00004934     0x2540 examples/light_switch/server/CMakeFiles/light_switch_server_nrf52832_xxAA_s132_6.0.0.dir/__/__/__/mesh/stack/src/mesh_stack.c.obj
 .debug_info    0x00006e74     0x1b6a examples/light_switch/server/CMakeFiles/light_switch_server_nrf52832_xxAA_s132_6.0.0.dir/__/__/common/src/mesh_softdevice_init.c.obj
 .debug_info    0x000089de     0x22c6 examples/light_switch/server/CMakeFiles/light_switch_server_nrf52832_xxAA_s132_6.0.0.dir/__/__/common/src/mesh_provisionee.c.obj
 .debug_info    0x0000aca4      0xd57 examples/light_switch/server/CMakeFiles/light_switch_server_nrf52832_xxAA_s132_6.0.0.dir/__/__/common/src/rtt_input.c.obj
 .debug_info    0x0000b9fb     0x15ff examples/light_switch/server/CMakeFiles/light_switch_server_nrf52832_xxAA_s132_6.0.0.dir/__/__/common/src/simple_hal.c.obj
 .debug_info    0x0000cffa      0xcec examples/light_switch/server/CMakeFiles/light_switch_server_nrf52832_xxAA_s132_6.0.0.dir/__/__/common/src/mesh_app_utils.c.obj
 .debug_info    0x0000dce6      0x950 examples/light_switch/server/CMakeFiles/light_switch_server_nrf52832_xxAA_s132_6.0.0.dir/__/__/nrf_mesh_weak.c.obj
 .debug_info    0x0000e636     0x106b examples/light_switch/server/CMakeFiles/light_switch_server_nrf52832_xxAA_s132_6.0.0.dir/__/__/common/src/app_error_weak.c.obj
 .debug_info    0x0000f6a1      0x99b examples/light_switch/server/CMakeFiles/light_switch_server_nrf52832_xxAA_s132_6.0.0.dir/__/__/common/src/assertion_handler_weak.c.obj
 .debug_info    0x0001003c      0xd04 examples/light_switch/server/CMakeFiles/light_switch_server_nrf52832_xxAA_s132_6.0.0.dir/__/__/__/mesh/core/src/nrf_mesh_configure.c.obj
 .debug_info    0x00010d40      0xa86 examples/light_switch/server/CMakeFiles/light_switch_server_nrf52832_xxAA_s132_6.0.0.dir/__/__/__/mesh/core/src/msg_cache.c.obj
 .debug_info    0x000117c6     0x51b5 examples/light_switch/server/CMakeFiles/light_switch_server_nrf52832_xxAA_s132_6.0.0.dir/__/__/__/mesh/core/src/transport.c.obj
 .debug_info    0x0001697b     0x191a examples/light_switch/server/CMakeFiles/light_switch_server_nrf52832_xxAA_s132_6.0.0.dir/__/__/__/mesh/core/src/event.c.obj
 .debug_info    0x00018295     0x1a21 examples/light_switch/server/CMakeFiles/light_switch_server_nrf52832_xxAA_s132_6.0.0.dir/__/__/__/mesh/core/src/packet_buffer.c.obj
 .debug_info    0x00019cb6     0x2018 examples/light_switch/server/CMakeFiles/light_switch_server_nrf52832_xxAA_s132_6.0.0.dir/__/__/__/mesh/core/src/flash_manager_defrag.c.obj
 .debug_info    0x0001bcce      0xd19 examples/light_switch/server/CMakeFiles/light_switch_server_nrf52832_xxAA_s132_6.0.0.dir/__/__/__/mesh/core/src/fifo.c.obj
 .debug_info    0x0001c9e7      0xb4c examples/light_switch/server/CMakeFiles/light_switch_server_nrf52832_xxAA_s132_6.0.0.dir/__/__/__/mesh/core/src/nrf_flash.c.obj
 .debug_info    0x0001d533     0x11b9 examples/light_switch/server/CMakeFiles/light_switch_server_nrf52832_xxAA_s132_6.0.0.dir/__/__/__/mesh/core/src/packet_mgr.c.obj
 .debug_info    0x0001e6ec     0x295c examples/light_switch/server/CMakeFiles/light_switch_server_nrf52832_xxAA_s132_6.0.0.dir/__/__/__/mesh/core/src/net_state.c.obj
 .debug_info    0x00021048     0x196f examples/light_switch/server/CMakeFiles/light_switch_server_nrf52832_xxAA_s132_6.0.0.dir/__/__/__/mesh/core/src/mesh_flash.c.obj
 .debug_info    0x000229b7      0xaa4 examples/light_switch/server/CMakeFiles/light_switch_server_nrf52832_xxAA_s132_6.0.0.dir/__/__/__/mesh/core/src/nrf_mesh_utils.c.obj
 .debug_info    0x0002345b     0x271c examples/light_switch/server/CMakeFiles/light_switch_server_nrf52832_xxAA_s132_6.0.0.dir/__/__/__/mesh/core/src/nrf_mesh.c.obj
 .debug_info    0x00025b77      0xb3d examples/light_switch/server/CMakeFiles/light_switch_server_nrf52832_xxAA_s132_6.0.0.dir/__/__/__/mesh/core/src/queue.c.obj
 .debug_info    0x000266b4      0x7e2 examples/light_switch/server/CMakeFiles/light_switch_server_nrf52832_xxAA_s132_6.0.0.dir/__/__/__/mesh/core/src/hal.c.obj
 .debug_info    0x00026e96      0xf7d examples/light_switch/server/CMakeFiles/light_switch_server_nrf52832_xxAA_s132_6.0.0.dir/__/__/__/mesh/core/src/aes_cmac.c.obj
 .debug_info    0x00027e13      0xfd1 examples/light_switch/server/CMakeFiles/light_switch_server_nrf52832_xxAA_s132_6.0.0.dir/__/__/__/mesh/core/src/timer_scheduler.c.obj
 .debug_info    0x00028de4      0xd90 examples/light_switch/server/CMakeFiles/light_switch_server_nrf52832_xxAA_s132_6.0.0.dir/__/__/__/mesh/core/src/timer.c.obj
 .debug_info    0x00029b74      0x408 examples/light_switch/server/CMakeFiles/light_switch_server_nrf52832_xxAA_s132_6.0.0.dir/__/__/__/mesh/core/src/rand.c.obj
 .debug_info    0x00029f7c      0xd3a examples/light_switch/server/CMakeFiles/light_switch_server_nrf52832_xxAA_s132_6.0.0.dir/__/__/__/mesh/core/src/mesh_opt.c.obj
 .debug_info    0x0002acb6     0x1a48 examples/light_switch/server/CMakeFiles/light_switch_server_nrf52832_xxAA_s132_6.0.0.dir/__/__/__/mesh/core/src/timeslot.c.obj
 .debug_info    0x0002c6fe     0x1ad9 examples/light_switch/server/CMakeFiles/light_switch_server_nrf52832_xxAA_s132_6.0.0.dir/__/__/__/mesh/core/src/bearer_event.c.obj
 .debug_info    0x0002e1d7     0x1937 examples/light_switch/server/CMakeFiles/light_switch_server_nrf52832_xxAA_s132_6.0.0.dir/__/__/__/mesh/core/src/enc.c.obj
 .debug_info    0x0002fb0e     0x1f43 examples/light_switch/server/CMakeFiles/light_switch_server_nrf52832_xxAA_s132_6.0.0.dir/__/__/__/mesh/core/src/network.c.obj
 .debug_info    0x00031a51     0x1cde examples/light_switch/server/CMakeFiles/light_switch_server_nrf52832_xxAA_s132_6.0.0.dir/__/__/__/mesh/core/src/net_packet.c.obj
 .debug_info    0x0003372f      0xdb2 examples/light_switch/server/CMakeFiles/light_switch_server_nrf52832_xxAA_s132_6.0.0.dir/__/__/__/mesh/core/src/msqueue.c.obj
 .debug_info    0x000344e1      0x4c8 examples/light_switch/server/CMakeFiles/light_switch_server_nrf52832_xxAA_s132_6.0.0.dir/__/__/__/mesh/core/src/nrf_mesh_keygen.c.obj
 .debug_info    0x000349a9      0x506 examples/light_switch/server/CMakeFiles/light_switch_server_nrf52832_xxAA_s132_6.0.0.dir/__/__/__/mesh/core/src/list.c.obj
 .debug_info    0x00034eaf      0xe28 examples/light_switch/server/CMakeFiles/light_switch_server_nrf52832_xxAA_s132_6.0.0.dir/__/__/__/mesh/core/src/log.c.obj
 .debug_info    0x00035cd7     0x3050 examples/light_switch/server/CMakeFiles/light_switch_server_nrf52832_xxAA_s132_6.0.0.dir/__/__/__/mesh/core/src/flash_manager.c.obj
 .debug_info    0x00038d27     0x12f9 examples/light_switch/server/CMakeFiles/light_switch_server_nrf52832_xxAA_s132_6.0.0.dir/__/__/__/mesh/core/src/ccm_soft.c.obj
 .debug_info    0x0003a020      0xa95 examples/light_switch/server/CMakeFiles/light_switch_server_nrf52832_xxAA_s132_6.0.0.dir/__/__/__/mesh/core/src/replay_cache.c.obj
 .debug_info    0x0003aab5     0x17aa examples/light_switch/server/CMakeFiles/light_switch_server_nrf52832_xxAA_s132_6.0.0.dir/__/__/__/mesh/core/src/beacon.c.obj
 .debug_info    0x0003c25f      0xbc7 examples/light_switch/server/CMakeFiles/light_switch_server_nrf52832_xxAA_s132_6.0.0.dir/__/__/__/mesh/core/src/flash_manager_internal.c.obj
 .debug_info    0x0003ce26     0x129b examples/light_switch/server/CMakeFiles/light_switch_server_nrf52832_xxAA_s132_6.0.0.dir/__/__/__/mesh/core/src/core_tx.c.obj
 .debug_info    0x0003e0c1     0x283c examples/light_switch/server/CMakeFiles/light_switch_server_nrf52832_xxAA_s132_6.0.0.dir/__/__/__/mesh/core/src/heartbeat.c.obj
 .debug_info    0x000408fd     0x2d3c examples/light_switch/server/CMakeFiles/light_switch_server_nrf52832_xxAA_s132_6.0.0.dir/__/__/__/mesh/core/src/net_beacon.c.obj
 .debug_info    0x00043639     0x2847 examples/light_switch/server/CMakeFiles/light_switch_server_nrf52832_xxAA_s132_6.0.0.dir/__/__/__/mesh/core/src/mesh_config.c.obj
 .debug_info    0x00045e80     0x16fc examples/light_switch/server/CMakeFiles/light_switch_server_nrf52832_xxAA_s132_6.0.0.dir/__/__/__/mesh/core/src/mesh_config_backend.c.obj
 .debug_info    0x0004757c     0x20af examples/light_switch/server/CMakeFiles/light_switch_server_nrf52832_xxAA_s132_6.0.0.dir/__/__/__/mesh/core/src/mesh_config_flashman_glue.c.obj
 .debug_info    0x0004962b     0x2387 examples/light_switch/server/CMakeFiles/light_switch_server_nrf52832_xxAA_s132_6.0.0.dir/__/__/__/mesh/core/src/core_tx_adv.c.obj
 .debug_info    0x0004b9b2     0x1189 examples/light_switch/server/CMakeFiles/light_switch_server_nrf52832_xxAA_s132_6.0.0.dir/__/__/__/mesh/bearer/src/ad_listener.c.obj
 .debug_info    0x0004cb3b      0xfea examples/light_switch/server/CMakeFiles/light_switch_server_nrf52832_xxAA_s132_6.0.0.dir/__/__/__/mesh/bearer/src/ad_type_filter.c.obj
 .debug_info    0x0004db25     0x25cd examples/light_switch/server/CMakeFiles/light_switch_server_nrf52832_xxAA_s132_6.0.0.dir/__/__/__/mesh/bearer/src/advertiser.c.obj
 .debug_info    0x000500f2     0x21d1 examples/light_switch/server/CMakeFiles/light_switch_server_nrf52832_xxAA_s132_6.0.0.dir/__/__/__/mesh/bearer/src/bearer_handler.c.obj
 .debug_info    0x000522c3     0x1a4f examples/light_switch/server/CMakeFiles/light_switch_server_nrf52832_xxAA_s132_6.0.0.dir/__/__/__/mesh/bearer/src/broadcast.c.obj
 .debug_info    0x00053d12      0xd2b examples/light_switch/server/CMakeFiles/light_switch_server_nrf52832_xxAA_s132_6.0.0.dir/__/__/__/mesh/bearer/src/filter_engine.c.obj
 .debug_info    0x00054a3d      0x8e4 examples/light_switch/server/CMakeFiles/light_switch_server_nrf52832_xxAA_s132_6.0.0.dir/__/__/__/mesh/bearer/src/radio_config.c.obj
 .debug_info    0x00055321     0x2764 examples/light_switch/server/CMakeFiles/light_switch_server_nrf52832_xxAA_s132_6.0.0.dir/__/__/__/mesh/bearer/src/scanner.c.obj
 .debug_info    0x00057a85      0xf2b examples/light_switch/server/CMakeFiles/light_switch_server_nrf52832_xxAA_s132_6.0.0.dir/__/__/__/mesh/bearer/src/mesh_pa_lna.c.obj
 .debug_info    0x000589b0      0xed3 examples/light_switch/server/CMakeFiles/light_switch_server_nrf52832_xxAA_s132_6.0.0.dir/__/__/__/models/foundation/config/src/composition_data.c.obj
 .debug_info    0x00059883     0x8af8 examples/light_switch/server/CMakeFiles/light_switch_server_nrf52832_xxAA_s132_6.0.0.dir/__/__/__/models/foundation/config/src/config_server.c.obj
 .debug_info    0x0006237b      0x126 examples/light_switch/server/CMakeFiles/light_switch_server_nrf52832_xxAA_s132_6.0.0.dir/__/__/__/models/foundation/config/src/packed_index_list.c.obj
 .debug_info    0x000624a1     0x2611 examples/light_switch/server/CMakeFiles/light_switch_server_nrf52832_xxAA_s132_6.0.0.dir/__/__/__/models/foundation/health/src/health_server.c.obj
 .debug_info    0x00064ab2     0x170c examples/light_switch/server/CMakeFiles/light_switch_server_nrf52832_xxAA_s132_6.0.0.dir/__/__/__/models/model_spec/generic_onoff/src/generic_onoff_server.c.obj
 .debug_info    0x000661be     0x133b examples/light_switch/server/CMakeFiles/light_switch_server_nrf52832_xxAA_s132_6.0.0.dir/__/__/__/models/model_spec/common/src/model_common.c.obj
 .debug_info    0x000674f9     0x1169 examples/light_switch/server/CMakeFiles/light_switch_server_nrf52832_xxAA_s132_6.0.0.dir/__/__/__/mesh/access/src/access_publish.c.obj
 .debug_info    0x00068662     0x4c07 examples/light_switch/server/CMakeFiles/light_switch_server_nrf52832_xxAA_s132_6.0.0.dir/__/__/__/mesh/access/src/access.c.obj
 .debug_info    0x0006d269     0x19d4 examples/light_switch/server/CMakeFiles/light_switch_server_nrf52832_xxAA_s132_6.0.0.dir/__/__/__/mesh/access/src/access_reliable.c.obj
 .debug_info    0x0006ec3d      0xfeb examples/light_switch/server/CMakeFiles/light_switch_server_nrf52832_xxAA_s132_6.0.0.dir/__/__/__/mesh/access/src/access_loopback.c.obj
 .debug_info    0x0006fc28     0x689c examples/light_switch/server/CMakeFiles/light_switch_server_nrf52832_xxAA_s132_6.0.0.dir/__/__/__/mesh/access/src/device_state_manager.c.obj
 .debug_info    0x000764c4     0x29c0 examples/light_switch/server/CMakeFiles/light_switch_server_nrf52832_xxAA_s132_6.0.0.dir/__/__/__/mesh/prov/src/prov_provisionee.c.obj
 .debug_info    0x00078e84     0x1f7a examples/light_switch/server/CMakeFiles/light_switch_server_nrf52832_xxAA_s132_6.0.0.dir/__/__/__/mesh/prov/src/nrf_mesh_prov.c.obj
 .debug_info    0x0007adfe     0x15b2 examples/light_switch/server/CMakeFiles/light_switch_server_nrf52832_xxAA_s132_6.0.0.dir/__/__/__/mesh/prov/src/provisioning.c.obj
 .debug_info    0x0007c3b0     0x1afa examples/light_switch/server/CMakeFiles/light_switch_server_nrf52832_xxAA_s132_6.0.0.dir/__/__/__/mesh/prov/src/prov_beacon.c.obj
 .debug_info    0x0007deaa     0x2489 examples/light_switch/server/CMakeFiles/light_switch_server_nrf52832_xxAA_s132_6.0.0.dir/__/__/__/mesh/prov/src/prov_utils.c.obj
 .debug_info    0x00080333     0x3adf examples/light_switch/server/CMakeFiles/light_switch_server_nrf52832_xxAA_s132_6.0.0.dir/__/__/__/mesh/prov/src/prov_bearer_adv.c.obj
 .debug_info    0x00083e12     0x10f2 examples/light_switch/server/CMakeFiles/light_switch_server_nrf52832_xxAA_s132_6.0.0.dir/C_/sdks/nRF5_SDK_15.0.0_a53641a/modules/nrfx/mdk/system_nrf52.c.obj
 .debug_info    0x00084f04      0xaee examples/light_switch/server/CMakeFiles/light_switch_server_nrf52832_xxAA_s132_6.0.0.dir/C_/sdks/nRF5_SDK_15.0.0_a53641a/components/libraries/util/app_error.c.obj
 .debug_info    0x000859f2     0x1199 examples/light_switch/server/CMakeFiles/light_switch_server_nrf52832_xxAA_s132_6.0.0.dir/C_/sdks/nRF5_SDK_15.0.0_a53641a/components/libraries/util/app_util_platform.c.obj
 .debug_info    0x00086b8b     0x21dd examples/light_switch/server/CMakeFiles/light_switch_server_nrf52832_xxAA_s132_6.0.0.dir/C_/sdks/nRF5_SDK_15.0.0_a53641a/components/libraries/timer/app_timer.c.obj
 .debug_info    0x00088d68      0x974 examples/light_switch/server/CMakeFiles/light_switch_server_nrf52832_xxAA_s132_6.0.0.dir/C_/sdks/nRF5_SDK_15.0.0_a53641a/components/libraries/util/app_error_handler_gcc.c.obj
 .debug_info    0x000896dc     0x1818 external/rtt/librtt_nrf52832_xxAA.a(SEGGER_RTT.c.obj)
 .debug_info    0x0008aef4      0xec1 external/rtt/librtt_nrf52832_xxAA.a(SEGGER_RTT_printf.c.obj)
 .debug_info    0x0008bdb5     0x4511 external/micro-ecc/libuECC_nrf52832_xxAA.a(uECC.c.obj)

.debug_abbrev   0x00000000    0x12dbc
 .debug_abbrev  0x00000000      0x4ae examples/light_switch/server/CMakeFiles/light_switch_server_nrf52832_xxAA_s132_6.0.0.dir/src/main.c.obj
 .debug_abbrev  0x000004ae      0x3a3 examples/light_switch/server/CMakeFiles/light_switch_server_nrf52832_xxAA_s132_6.0.0.dir/__/__/common/src/app_onoff.c.obj
 .debug_abbrev  0x00000851      0x378 examples/light_switch/server/CMakeFiles/light_switch_server_nrf52832_xxAA_s132_6.0.0.dir/__/__/__/mesh/stack/src/mesh_stack.c.obj
 .debug_abbrev  0x00000bc9      0x432 examples/light_switch/server/CMakeFiles/light_switch_server_nrf52832_xxAA_s132_6.0.0.dir/__/__/common/src/mesh_softdevice_init.c.obj
 .debug_abbrev  0x00000ffb      0x31b examples/light_switch/server/CMakeFiles/light_switch_server_nrf52832_xxAA_s132_6.0.0.dir/__/__/common/src/mesh_provisionee.c.obj
 .debug_abbrev  0x00001316      0x2d3 examples/light_switch/server/CMakeFiles/light_switch_server_nrf52832_xxAA_s132_6.0.0.dir/__/__/common/src/rtt_input.c.obj
 .debug_abbrev  0x000015e9      0x3a3 examples/light_switch/server/CMakeFiles/light_switch_server_nrf52832_xxAA_s132_6.0.0.dir/__/__/common/src/simple_hal.c.obj
 .debug_abbrev  0x0000198c      0x221 examples/light_switch/server/CMakeFiles/light_switch_server_nrf52832_xxAA_s132_6.0.0.dir/__/__/common/src/mesh_app_utils.c.obj
 .debug_abbrev  0x00001bad      0x1ae examples/light_switch/server/CMakeFiles/light_switch_server_nrf52832_xxAA_s132_6.0.0.dir/__/__/nrf_mesh_weak.c.obj
 .debug_abbrev  0x00001d5b      0x2de examples/light_switch/server/CMakeFiles/light_switch_server_nrf52832_xxAA_s132_6.0.0.dir/__/__/common/src/app_error_weak.c.obj
 .debug_abbrev  0x00002039      0x1f6 examples/light_switch/server/CMakeFiles/light_switch_server_nrf52832_xxAA_s132_6.0.0.dir/__/__/common/src/assertion_handler_weak.c.obj
 .debug_abbrev  0x0000222f      0x24b examples/light_switch/server/CMakeFiles/light_switch_server_nrf52832_xxAA_s132_6.0.0.dir/__/__/__/mesh/core/src/nrf_mesh_configure.c.obj
 .debug_abbrev  0x0000247a      0x25d examples/light_switch/server/CMakeFiles/light_switch_server_nrf52832_xxAA_s132_6.0.0.dir/__/__/__/mesh/core/src/msg_cache.c.obj
 .debug_abbrev  0x000026d7      0x5ca examples/light_switch/server/CMakeFiles/light_switch_server_nrf52832_xxAA_s132_6.0.0.dir/__/__/__/mesh/core/src/transport.c.obj
 .debug_abbrev  0x00002ca1      0x314 examples/light_switch/server/CMakeFiles/light_switch_server_nrf52832_xxAA_s132_6.0.0.dir/__/__/__/mesh/core/src/event.c.obj
 .debug_abbrev  0x00002fb5      0x45f examples/light_switch/server/CMakeFiles/light_switch_server_nrf52832_xxAA_s132_6.0.0.dir/__/__/__/mesh/core/src/packet_buffer.c.obj
 .debug_abbrev  0x00003414      0x50e examples/light_switch/server/CMakeFiles/light_switch_server_nrf52832_xxAA_s132_6.0.0.dir/__/__/__/mesh/core/src/flash_manager_defrag.c.obj
 .debug_abbrev  0x00003922      0x2f2 examples/light_switch/server/CMakeFiles/light_switch_server_nrf52832_xxAA_s132_6.0.0.dir/__/__/__/mesh/core/src/fifo.c.obj
 .debug_abbrev  0x00003c14      0x21f examples/light_switch/server/CMakeFiles/light_switch_server_nrf52832_xxAA_s132_6.0.0.dir/__/__/__/mesh/core/src/nrf_flash.c.obj
 .debug_abbrev  0x00003e33      0x3b1 examples/light_switch/server/CMakeFiles/light_switch_server_nrf52832_xxAA_s132_6.0.0.dir/__/__/__/mesh/core/src/packet_mgr.c.obj
 .debug_abbrev  0x000041e4      0x552 examples/light_switch/server/CMakeFiles/light_switch_server_nrf52832_xxAA_s132_6.0.0.dir/__/__/__/mesh/core/src/net_state.c.obj
 .debug_abbrev  0x00004736      0x453 examples/light_switch/server/CMakeFiles/light_switch_server_nrf52832_xxAA_s132_6.0.0.dir/__/__/__/mesh/core/src/mesh_flash.c.obj
 .debug_abbrev  0x00004b89      0x242 examples/light_switch/server/CMakeFiles/light_switch_server_nrf52832_xxAA_s132_6.0.0.dir/__/__/__/mesh/core/src/nrf_mesh_utils.c.obj
 .debug_abbrev  0x00004dcb      0x45f examples/light_switch/server/CMakeFiles/light_switch_server_nrf52832_xxAA_s132_6.0.0.dir/__/__/__/mesh/core/src/nrf_mesh.c.obj
 .debug_abbrev  0x0000522a      0x247 examples/light_switch/server/CMakeFiles/light_switch_server_nrf52832_xxAA_s132_6.0.0.dir/__/__/__/mesh/core/src/queue.c.obj
 .debug_abbrev  0x00005471      0x260 examples/light_switch/server/CMakeFiles/light_switch_server_nrf52832_xxAA_s132_6.0.0.dir/__/__/__/mesh/core/src/hal.c.obj
 .debug_abbrev  0x000056d1      0x341 examples/light_switch/server/CMakeFiles/light_switch_server_nrf52832_xxAA_s132_6.0.0.dir/__/__/__/mesh/core/src/aes_cmac.c.obj
 .debug_abbrev  0x00005a12      0x360 examples/light_switch/server/CMakeFiles/light_switch_server_nrf52832_xxAA_s132_6.0.0.dir/__/__/__/mesh/core/src/timer_scheduler.c.obj
 .debug_abbrev  0x00005d72      0x337 examples/light_switch/server/CMakeFiles/light_switch_server_nrf52832_xxAA_s132_6.0.0.dir/__/__/__/mesh/core/src/timer.c.obj
 .debug_abbrev  0x000060a9      0x194 examples/light_switch/server/CMakeFiles/light_switch_server_nrf52832_xxAA_s132_6.0.0.dir/__/__/__/mesh/core/src/rand.c.obj
 .debug_abbrev  0x0000623d      0x21f examples/light_switch/server/CMakeFiles/light_switch_server_nrf52832_xxAA_s132_6.0.0.dir/__/__/__/mesh/core/src/mesh_opt.c.obj
 .debug_abbrev  0x0000645c      0x4a4 examples/light_switch/server/CMakeFiles/light_switch_server_nrf52832_xxAA_s132_6.0.0.dir/__/__/__/mesh/core/src/timeslot.c.obj
 .debug_abbrev  0x00006900      0x495 examples/light_switch/server/CMakeFiles/light_switch_server_nrf52832_xxAA_s132_6.0.0.dir/__/__/__/mesh/core/src/bearer_event.c.obj
 .debug_abbrev  0x00006d95      0x3be examples/light_switch/server/CMakeFiles/light_switch_server_nrf52832_xxAA_s132_6.0.0.dir/__/__/__/mesh/core/src/enc.c.obj
 .debug_abbrev  0x00007153      0x4b0 examples/light_switch/server/CMakeFiles/light_switch_server_nrf52832_xxAA_s132_6.0.0.dir/__/__/__/mesh/core/src/network.c.obj
 .debug_abbrev  0x00007603      0x4a1 examples/light_switch/server/CMakeFiles/light_switch_server_nrf52832_xxAA_s132_6.0.0.dir/__/__/__/mesh/core/src/net_packet.c.obj
 .debug_abbrev  0x00007aa4      0x2c0 examples/light_switch/server/CMakeFiles/light_switch_server_nrf52832_xxAA_s132_6.0.0.dir/__/__/__/mesh/core/src/msqueue.c.obj
 .debug_abbrev  0x00007d64      0x163 examples/light_switch/server/CMakeFiles/light_switch_server_nrf52832_xxAA_s132_6.0.0.dir/__/__/__/mesh/core/src/nrf_mesh_keygen.c.obj
 .debug_abbrev  0x00007ec7      0x1a4 examples/light_switch/server/CMakeFiles/light_switch_server_nrf52832_xxAA_s132_6.0.0.dir/__/__/__/mesh/core/src/list.c.obj
 .debug_abbrev  0x0000806b      0x24e examples/light_switch/server/CMakeFiles/light_switch_server_nrf52832_xxAA_s132_6.0.0.dir/__/__/__/mesh/core/src/log.c.obj
 .debug_abbrev  0x000082b9      0x524 examples/light_switch/server/CMakeFiles/light_switch_server_nrf52832_xxAA_s132_6.0.0.dir/__/__/__/mesh/core/src/flash_manager.c.obj
 .debug_abbrev  0x000087dd      0x3a4 examples/light_switch/server/CMakeFiles/light_switch_server_nrf52832_xxAA_s132_6.0.0.dir/__/__/__/mesh/core/src/ccm_soft.c.obj
 .debug_abbrev  0x00008b81      0x261 examples/light_switch/server/CMakeFiles/light_switch_server_nrf52832_xxAA_s132_6.0.0.dir/__/__/__/mesh/core/src/replay_cache.c.obj
 .debug_abbrev  0x00008de2      0x2c4 examples/light_switch/server/CMakeFiles/light_switch_server_nrf52832_xxAA_s132_6.0.0.dir/__/__/__/mesh/core/src/beacon.c.obj
 .debug_abbrev  0x000090a6      0x288 examples/light_switch/server/CMakeFiles/light_switch_server_nrf52832_xxAA_s132_6.0.0.dir/__/__/__/mesh/core/src/flash_manager_internal.c.obj
 .debug_abbrev  0x0000932e      0x2ed examples/light_switch/server/CMakeFiles/light_switch_server_nrf52832_xxAA_s132_6.0.0.dir/__/__/__/mesh/core/src/core_tx.c.obj
 .debug_abbrev  0x0000961b      0x578 examples/light_switch/server/CMakeFiles/light_switch_server_nrf52832_xxAA_s132_6.0.0.dir/__/__/__/mesh/core/src/heartbeat.c.obj
 .debug_abbrev  0x00009b93      0x4ed examples/light_switch/server/CMakeFiles/light_switch_server_nrf52832_xxAA_s132_6.0.0.dir/__/__/__/mesh/core/src/net_beacon.c.obj
 .debug_abbrev  0x0000a080      0x510 examples/light_switch/server/CMakeFiles/light_switch_server_nrf52832_xxAA_s132_6.0.0.dir/__/__/__/mesh/core/src/mesh_config.c.obj
 .debug_abbrev  0x0000a590      0x3e2 examples/light_switch/server/CMakeFiles/light_switch_server_nrf52832_xxAA_s132_6.0.0.dir/__/__/__/mesh/core/src/mesh_config_backend.c.obj
 .debug_abbrev  0x0000a972      0x37e examples/light_switch/server/CMakeFiles/light_switch_server_nrf52832_xxAA_s132_6.0.0.dir/__/__/__/mesh/core/src/mesh_config_flashman_glue.c.obj
 .debug_abbrev  0x0000acf0      0x47c examples/light_switch/server/CMakeFiles/light_switch_server_nrf52832_xxAA_s132_6.0.0.dir/__/__/__/mesh/core/src/core_tx_adv.c.obj
 .debug_abbrev  0x0000b16c      0x341 examples/light_switch/server/CMakeFiles/light_switch_server_nrf52832_xxAA_s132_6.0.0.dir/__/__/__/mesh/bearer/src/ad_listener.c.obj
 .debug_abbrev  0x0000b4ad      0x368 examples/light_switch/server/CMakeFiles/light_switch_server_nrf52832_xxAA_s132_6.0.0.dir/__/__/__/mesh/bearer/src/ad_type_filter.c.obj
 .debug_abbrev  0x0000b815      0x4d1 examples/light_switch/server/CMakeFiles/light_switch_server_nrf52832_xxAA_s132_6.0.0.dir/__/__/__/mesh/bearer/src/advertiser.c.obj
 .debug_abbrev  0x0000bce6      0x476 examples/light_switch/server/CMakeFiles/light_switch_server_nrf52832_xxAA_s132_6.0.0.dir/__/__/__/mesh/bearer/src/bearer_handler.c.obj
 .debug_abbrev  0x0000c15c      0x3b9 examples/light_switch/server/CMakeFiles/light_switch_server_nrf52832_xxAA_s132_6.0.0.dir/__/__/__/mesh/bearer/src/broadcast.c.obj
 .debug_abbrev  0x0000c515      0x2a6 examples/light_switch/server/CMakeFiles/light_switch_server_nrf52832_xxAA_s132_6.0.0.dir/__/__/__/mesh/bearer/src/filter_engine.c.obj
 .debug_abbrev  0x0000c7bb      0x1d5 examples/light_switch/server/CMakeFiles/light_switch_server_nrf52832_xxAA_s132_6.0.0.dir/__/__/__/mesh/bearer/src/radio_config.c.obj
 .debug_abbrev  0x0000c990      0x52a examples/light_switch/server/CMakeFiles/light_switch_server_nrf52832_xxAA_s132_6.0.0.dir/__/__/__/mesh/bearer/src/scanner.c.obj
 .debug_abbrev  0x0000ceba      0x2bd examples/light_switch/server/CMakeFiles/light_switch_server_nrf52832_xxAA_s132_6.0.0.dir/__/__/__/mesh/bearer/src/mesh_pa_lna.c.obj
 .debug_abbrev  0x0000d177      0x2db examples/light_switch/server/CMakeFiles/light_switch_server_nrf52832_xxAA_s132_6.0.0.dir/__/__/__/models/foundation/config/src/composition_data.c.obj
 .debug_abbrev  0x0000d452      0x544 examples/light_switch/server/CMakeFiles/light_switch_server_nrf52832_xxAA_s132_6.0.0.dir/__/__/__/models/foundation/config/src/config_server.c.obj
 .debug_abbrev  0x0000d996       0x95 examples/light_switch/server/CMakeFiles/light_switch_server_nrf52832_xxAA_s132_6.0.0.dir/__/__/__/models/foundation/config/src/packed_index_list.c.obj
 .debug_abbrev  0x0000da2b      0x4cf examples/light_switch/server/CMakeFiles/light_switch_server_nrf52832_xxAA_s132_6.0.0.dir/__/__/__/models/foundation/health/src/health_server.c.obj
 .debug_abbrev  0x0000defa      0x315 examples/light_switch/server/CMakeFiles/light_switch_server_nrf52832_xxAA_s132_6.0.0.dir/__/__/__/models/model_spec/generic_onoff/src/generic_onoff_server.c.obj
 .debug_abbrev  0x0000e20f      0x35e examples/light_switch/server/CMakeFiles/light_switch_server_nrf52832_xxAA_s132_6.0.0.dir/__/__/__/models/model_spec/common/src/model_common.c.obj
 .debug_abbrev  0x0000e56d      0x434 examples/light_switch/server/CMakeFiles/light_switch_server_nrf52832_xxAA_s132_6.0.0.dir/__/__/__/mesh/access/src/access_publish.c.obj
 .debug_abbrev  0x0000e9a1      0x610 examples/light_switch/server/CMakeFiles/light_switch_server_nrf52832_xxAA_s132_6.0.0.dir/__/__/__/mesh/access/src/access.c.obj
 .debug_abbrev  0x0000efb1      0x42a examples/light_switch/server/CMakeFiles/light_switch_server_nrf52832_xxAA_s132_6.0.0.dir/__/__/__/mesh/access/src/access_reliable.c.obj
 .debug_abbrev  0x0000f3db      0x2be examples/light_switch/server/CMakeFiles/light_switch_server_nrf52832_xxAA_s132_6.0.0.dir/__/__/__/mesh/access/src/access_loopback.c.obj
 .debug_abbrev  0x0000f699      0x60d examples/light_switch/server/CMakeFiles/light_switch_server_nrf52832_xxAA_s132_6.0.0.dir/__/__/__/mesh/access/src/device_state_manager.c.obj
 .debug_abbrev  0x0000fca6      0x48d examples/light_switch/server/CMakeFiles/light_switch_server_nrf52832_xxAA_s132_6.0.0.dir/__/__/__/mesh/prov/src/prov_provisionee.c.obj
 .debug_abbrev  0x00010133      0x434 examples/light_switch/server/CMakeFiles/light_switch_server_nrf52832_xxAA_s132_6.0.0.dir/__/__/__/mesh/prov/src/nrf_mesh_prov.c.obj
 .debug_abbrev  0x00010567      0x2a9 examples/light_switch/server/CMakeFiles/light_switch_server_nrf52832_xxAA_s132_6.0.0.dir/__/__/__/mesh/prov/src/provisioning.c.obj
 .debug_abbrev  0x00010810      0x2c8 examples/light_switch/server/CMakeFiles/light_switch_server_nrf52832_xxAA_s132_6.0.0.dir/__/__/__/mesh/prov/src/prov_beacon.c.obj
 .debug_abbrev  0x00010ad8      0x422 examples/light_switch/server/CMakeFiles/light_switch_server_nrf52832_xxAA_s132_6.0.0.dir/__/__/__/mesh/prov/src/prov_utils.c.obj
 .debug_abbrev  0x00010efa      0x4eb examples/light_switch/server/CMakeFiles/light_switch_server_nrf52832_xxAA_s132_6.0.0.dir/__/__/__/mesh/prov/src/prov_bearer_adv.c.obj
 .debug_abbrev  0x000113e5      0x200 examples/light_switch/server/CMakeFiles/light_switch_server_nrf52832_xxAA_s132_6.0.0.dir/C_/sdks/nRF5_SDK_15.0.0_a53641a/modules/nrfx/mdk/system_nrf52.c.obj
 .debug_abbrev  0x000115e5      0x232 examples/light_switch/server/CMakeFiles/light_switch_server_nrf52832_xxAA_s132_6.0.0.dir/C_/sdks/nRF5_SDK_15.0.0_a53641a/components/libraries/util/app_error.c.obj
 .debug_abbrev  0x00011817      0x35b examples/light_switch/server/CMakeFiles/light_switch_server_nrf52832_xxAA_s132_6.0.0.dir/C_/sdks/nRF5_SDK_15.0.0_a53641a/components/libraries/util/app_util_platform.c.obj
 .debug_abbrev  0x00011b72      0x502 examples/light_switch/server/CMakeFiles/light_switch_server_nrf52832_xxAA_s132_6.0.0.dir/C_/sdks/nRF5_SDK_15.0.0_a53641a/components/libraries/timer/app_timer.c.obj
 .debug_abbrev  0x00012074      0x1bd examples/light_switch/server/CMakeFiles/light_switch_server_nrf52832_xxAA_s132_6.0.0.dir/C_/sdks/nRF5_SDK_15.0.0_a53641a/components/libraries/util/app_error_handler_gcc.c.obj
 .debug_abbrev  0x00012231      0x3a9 external/rtt/librtt_nrf52832_xxAA.a(SEGGER_RTT.c.obj)
 .debug_abbrev  0x000125da      0x32e external/rtt/librtt_nrf52832_xxAA.a(SEGGER_RTT_printf.c.obj)
 .debug_abbrev  0x00012908      0x4b4 external/micro-ecc/libuECC_nrf52832_xxAA.a(uECC.c.obj)

.debug_loc      0x00000000    0x26c0f
 .debug_loc     0x00000000      0x2ec examples/light_switch/server/CMakeFiles/light_switch_server_nrf52832_xxAA_s132_6.0.0.dir/src/main.c.obj
 .debug_loc     0x000002ec      0x3cd examples/light_switch/server/CMakeFiles/light_switch_server_nrf52832_xxAA_s132_6.0.0.dir/__/__/common/src/app_onoff.c.obj
 .debug_loc     0x000006b9      0x1d2 examples/light_switch/server/CMakeFiles/light_switch_server_nrf52832_xxAA_s132_6.0.0.dir/__/__/__/mesh/stack/src/mesh_stack.c.obj
 .debug_loc     0x0000088b      0x21b examples/light_switch/server/CMakeFiles/light_switch_server_nrf52832_xxAA_s132_6.0.0.dir/__/__/common/src/mesh_softdevice_init.c.obj
 .debug_loc     0x00000aa6      0x10a examples/light_switch/server/CMakeFiles/light_switch_server_nrf52832_xxAA_s132_6.0.0.dir/__/__/common/src/mesh_provisionee.c.obj
 .debug_loc     0x00000bb0       0xed examples/light_switch/server/CMakeFiles/light_switch_server_nrf52832_xxAA_s132_6.0.0.dir/__/__/common/src/rtt_input.c.obj
 .debug_loc     0x00000c9d      0x243 examples/light_switch/server/CMakeFiles/light_switch_server_nrf52832_xxAA_s132_6.0.0.dir/__/__/common/src/simple_hal.c.obj
 .debug_loc     0x00000ee0       0x9a examples/light_switch/server/CMakeFiles/light_switch_server_nrf52832_xxAA_s132_6.0.0.dir/__/__/common/src/mesh_app_utils.c.obj
 .debug_loc     0x00000f7a      0x18c examples/light_switch/server/CMakeFiles/light_switch_server_nrf52832_xxAA_s132_6.0.0.dir/__/__/common/src/app_error_weak.c.obj
 .debug_loc     0x00001106       0x2c examples/light_switch/server/CMakeFiles/light_switch_server_nrf52832_xxAA_s132_6.0.0.dir/__/__/common/src/assertion_handler_weak.c.obj
 .debug_loc     0x00001132       0x2c examples/light_switch/server/CMakeFiles/light_switch_server_nrf52832_xxAA_s132_6.0.0.dir/__/__/__/mesh/core/src/nrf_mesh_configure.c.obj
 .debug_loc     0x0000115e      0x10d examples/light_switch/server/CMakeFiles/light_switch_server_nrf52832_xxAA_s132_6.0.0.dir/__/__/__/mesh/core/src/msg_cache.c.obj
 .debug_loc     0x0000126b     0x259a examples/light_switch/server/CMakeFiles/light_switch_server_nrf52832_xxAA_s132_6.0.0.dir/__/__/__/mesh/core/src/transport.c.obj
 .debug_loc     0x00003805      0x124 examples/light_switch/server/CMakeFiles/light_switch_server_nrf52832_xxAA_s132_6.0.0.dir/__/__/__/mesh/core/src/event.c.obj
 .debug_loc     0x00003929      0x8cd examples/light_switch/server/CMakeFiles/light_switch_server_nrf52832_xxAA_s132_6.0.0.dir/__/__/__/mesh/core/src/packet_buffer.c.obj
 .debug_loc     0x000041f6      0x7fe examples/light_switch/server/CMakeFiles/light_switch_server_nrf52832_xxAA_s132_6.0.0.dir/__/__/__/mesh/core/src/flash_manager_defrag.c.obj
 .debug_loc     0x000049f4      0x4f6 examples/light_switch/server/CMakeFiles/light_switch_server_nrf52832_xxAA_s132_6.0.0.dir/__/__/__/mesh/core/src/fifo.c.obj
 .debug_loc     0x00004eea      0x17a examples/light_switch/server/CMakeFiles/light_switch_server_nrf52832_xxAA_s132_6.0.0.dir/__/__/__/mesh/core/src/nrf_flash.c.obj
 .debug_loc     0x00005064      0x6c1 examples/light_switch/server/CMakeFiles/light_switch_server_nrf52832_xxAA_s132_6.0.0.dir/__/__/__/mesh/core/src/packet_mgr.c.obj
 .debug_loc     0x00005725      0x936 examples/light_switch/server/CMakeFiles/light_switch_server_nrf52832_xxAA_s132_6.0.0.dir/__/__/__/mesh/core/src/net_state.c.obj
 .debug_loc     0x0000605b      0x8be examples/light_switch/server/CMakeFiles/light_switch_server_nrf52832_xxAA_s132_6.0.0.dir/__/__/__/mesh/core/src/mesh_flash.c.obj
 .debug_loc     0x00006919       0xf8 examples/light_switch/server/CMakeFiles/light_switch_server_nrf52832_xxAA_s132_6.0.0.dir/__/__/__/mesh/core/src/nrf_mesh_utils.c.obj
 .debug_loc     0x00006a11      0x524 examples/light_switch/server/CMakeFiles/light_switch_server_nrf52832_xxAA_s132_6.0.0.dir/__/__/__/mesh/core/src/nrf_mesh.c.obj
 .debug_loc     0x00006f35       0xf5 examples/light_switch/server/CMakeFiles/light_switch_server_nrf52832_xxAA_s132_6.0.0.dir/__/__/__/mesh/core/src/queue.c.obj
 .debug_loc     0x0000702a       0xa5 examples/light_switch/server/CMakeFiles/light_switch_server_nrf52832_xxAA_s132_6.0.0.dir/__/__/__/mesh/core/src/hal.c.obj
 .debug_loc     0x000070cf      0x3d8 examples/light_switch/server/CMakeFiles/light_switch_server_nrf52832_xxAA_s132_6.0.0.dir/__/__/__/mesh/core/src/aes_cmac.c.obj
 .debug_loc     0x000074a7      0x2bc examples/light_switch/server/CMakeFiles/light_switch_server_nrf52832_xxAA_s132_6.0.0.dir/__/__/__/mesh/core/src/timer_scheduler.c.obj
 .debug_loc     0x00007763      0x5f9 examples/light_switch/server/CMakeFiles/light_switch_server_nrf52832_xxAA_s132_6.0.0.dir/__/__/__/mesh/core/src/timer.c.obj
 .debug_loc     0x00007d5c      0x14e examples/light_switch/server/CMakeFiles/light_switch_server_nrf52832_xxAA_s132_6.0.0.dir/__/__/__/mesh/core/src/rand.c.obj
 .debug_loc     0x00007eaa      0x344 examples/light_switch/server/CMakeFiles/light_switch_server_nrf52832_xxAA_s132_6.0.0.dir/__/__/__/mesh/core/src/timeslot.c.obj
 .debug_loc     0x000081ee      0x526 examples/light_switch/server/CMakeFiles/light_switch_server_nrf52832_xxAA_s132_6.0.0.dir/__/__/__/mesh/core/src/bearer_event.c.obj
 .debug_loc     0x00008714      0x8e7 examples/light_switch/server/CMakeFiles/light_switch_server_nrf52832_xxAA_s132_6.0.0.dir/__/__/__/mesh/core/src/enc.c.obj
 .debug_loc     0x00008ffb      0x6e4 examples/light_switch/server/CMakeFiles/light_switch_server_nrf52832_xxAA_s132_6.0.0.dir/__/__/__/mesh/core/src/network.c.obj
 .debug_loc     0x000096df      0x817 examples/light_switch/server/CMakeFiles/light_switch_server_nrf52832_xxAA_s132_6.0.0.dir/__/__/__/mesh/core/src/net_packet.c.obj
 .debug_loc     0x00009ef6      0x2ed examples/light_switch/server/CMakeFiles/light_switch_server_nrf52832_xxAA_s132_6.0.0.dir/__/__/__/mesh/core/src/msqueue.c.obj
 .debug_loc     0x0000a1e3      0x1ee examples/light_switch/server/CMakeFiles/light_switch_server_nrf52832_xxAA_s132_6.0.0.dir/__/__/__/mesh/core/src/nrf_mesh_keygen.c.obj
 .debug_loc     0x0000a3d1      0x3bf examples/light_switch/server/CMakeFiles/light_switch_server_nrf52832_xxAA_s132_6.0.0.dir/__/__/__/mesh/core/src/list.c.obj
 .debug_loc     0x0000a790      0x348 examples/light_switch/server/CMakeFiles/light_switch_server_nrf52832_xxAA_s132_6.0.0.dir/__/__/__/mesh/core/src/log.c.obj
 .debug_loc     0x0000aad8     0x1439 examples/light_switch/server/CMakeFiles/light_switch_server_nrf52832_xxAA_s132_6.0.0.dir/__/__/__/mesh/core/src/flash_manager.c.obj
 .debug_loc     0x0000bf11      0x4b6 examples/light_switch/server/CMakeFiles/light_switch_server_nrf52832_xxAA_s132_6.0.0.dir/__/__/__/mesh/core/src/ccm_soft.c.obj
 .debug_loc     0x0000c3c7      0x157 examples/light_switch/server/CMakeFiles/light_switch_server_nrf52832_xxAA_s132_6.0.0.dir/__/__/__/mesh/core/src/replay_cache.c.obj
 .debug_loc     0x0000c51e      0x30d examples/light_switch/server/CMakeFiles/light_switch_server_nrf52832_xxAA_s132_6.0.0.dir/__/__/__/mesh/core/src/beacon.c.obj
 .debug_loc     0x0000c82b       0xe3 examples/light_switch/server/CMakeFiles/light_switch_server_nrf52832_xxAA_s132_6.0.0.dir/__/__/__/mesh/core/src/flash_manager_internal.c.obj
 .debug_loc     0x0000c90e      0x3b8 examples/light_switch/server/CMakeFiles/light_switch_server_nrf52832_xxAA_s132_6.0.0.dir/__/__/__/mesh/core/src/core_tx.c.obj
 .debug_loc     0x0000ccc6      0x5ba examples/light_switch/server/CMakeFiles/light_switch_server_nrf52832_xxAA_s132_6.0.0.dir/__/__/__/mesh/core/src/heartbeat.c.obj
 .debug_loc     0x0000d280      0x6b3 examples/light_switch/server/CMakeFiles/light_switch_server_nrf52832_xxAA_s132_6.0.0.dir/__/__/__/mesh/core/src/net_beacon.c.obj
 .debug_loc     0x0000d933      0x76f examples/light_switch/server/CMakeFiles/light_switch_server_nrf52832_xxAA_s132_6.0.0.dir/__/__/__/mesh/core/src/mesh_config.c.obj
 .debug_loc     0x0000e0a2      0x4f8 examples/light_switch/server/CMakeFiles/light_switch_server_nrf52832_xxAA_s132_6.0.0.dir/__/__/__/mesh/core/src/mesh_config_backend.c.obj
 .debug_loc     0x0000e59a      0x4c1 examples/light_switch/server/CMakeFiles/light_switch_server_nrf52832_xxAA_s132_6.0.0.dir/__/__/__/mesh/core/src/mesh_config_flashman_glue.c.obj
 .debug_loc     0x0000ea5b      0xaef examples/light_switch/server/CMakeFiles/light_switch_server_nrf52832_xxAA_s132_6.0.0.dir/__/__/__/mesh/core/src/core_tx_adv.c.obj
 .debug_loc     0x0000f54a      0x40d examples/light_switch/server/CMakeFiles/light_switch_server_nrf52832_xxAA_s132_6.0.0.dir/__/__/__/mesh/bearer/src/ad_listener.c.obj
 .debug_loc     0x0000f957      0x3ae examples/light_switch/server/CMakeFiles/light_switch_server_nrf52832_xxAA_s132_6.0.0.dir/__/__/__/mesh/bearer/src/ad_type_filter.c.obj
 .debug_loc     0x0000fd05      0xc97 examples/light_switch/server/CMakeFiles/light_switch_server_nrf52832_xxAA_s132_6.0.0.dir/__/__/__/mesh/bearer/src/advertiser.c.obj
 .debug_loc     0x0001099c      0x438 examples/light_switch/server/CMakeFiles/light_switch_server_nrf52832_xxAA_s132_6.0.0.dir/__/__/__/mesh/bearer/src/bearer_handler.c.obj
 .debug_loc     0x00010dd4      0x320 examples/light_switch/server/CMakeFiles/light_switch_server_nrf52832_xxAA_s132_6.0.0.dir/__/__/__/mesh/bearer/src/broadcast.c.obj
 .debug_loc     0x000110f4       0xde examples/light_switch/server/CMakeFiles/light_switch_server_nrf52832_xxAA_s132_6.0.0.dir/__/__/__/mesh/bearer/src/filter_engine.c.obj
 .debug_loc     0x000111d2      0x232 examples/light_switch/server/CMakeFiles/light_switch_server_nrf52832_xxAA_s132_6.0.0.dir/__/__/__/mesh/bearer/src/radio_config.c.obj
 .debug_loc     0x00011404      0x48a examples/light_switch/server/CMakeFiles/light_switch_server_nrf52832_xxAA_s132_6.0.0.dir/__/__/__/mesh/bearer/src/scanner.c.obj
 .debug_loc     0x0001188e      0x1d6 examples/light_switch/server/CMakeFiles/light_switch_server_nrf52832_xxAA_s132_6.0.0.dir/__/__/__/mesh/bearer/src/mesh_pa_lna.c.obj
 .debug_loc     0x00011a64      0x26f examples/light_switch/server/CMakeFiles/light_switch_server_nrf52832_xxAA_s132_6.0.0.dir/__/__/__/models/foundation/config/src/composition_data.c.obj
 .debug_loc     0x00011cd3     0x4c85 examples/light_switch/server/CMakeFiles/light_switch_server_nrf52832_xxAA_s132_6.0.0.dir/__/__/__/models/foundation/config/src/config_server.c.obj
 .debug_loc     0x00016958       0x89 examples/light_switch/server/CMakeFiles/light_switch_server_nrf52832_xxAA_s132_6.0.0.dir/__/__/__/models/foundation/config/src/packed_index_list.c.obj
 .debug_loc     0x000169e1     0x1373 examples/light_switch/server/CMakeFiles/light_switch_server_nrf52832_xxAA_s132_6.0.0.dir/__/__/__/models/foundation/health/src/health_server.c.obj
 .debug_loc     0x00017d54      0x2b2 examples/light_switch/server/CMakeFiles/light_switch_server_nrf52832_xxAA_s132_6.0.0.dir/__/__/__/models/model_spec/generic_onoff/src/generic_onoff_server.c.obj
 .debug_loc     0x00018006      0x437 examples/light_switch/server/CMakeFiles/light_switch_server_nrf52832_xxAA_s132_6.0.0.dir/__/__/__/models/model_spec/common/src/model_common.c.obj
 .debug_loc     0x0001843d      0x4d4 examples/light_switch/server/CMakeFiles/light_switch_server_nrf52832_xxAA_s132_6.0.0.dir/__/__/__/mesh/access/src/access_publish.c.obj
 .debug_loc     0x00018911     0x2352 examples/light_switch/server/CMakeFiles/light_switch_server_nrf52832_xxAA_s132_6.0.0.dir/__/__/__/mesh/access/src/access.c.obj
 .debug_loc     0x0001ac63      0x7bc examples/light_switch/server/CMakeFiles/light_switch_server_nrf52832_xxAA_s132_6.0.0.dir/__/__/__/mesh/access/src/access_reliable.c.obj
 .debug_loc     0x0001b41f       0x81 examples/light_switch/server/CMakeFiles/light_switch_server_nrf52832_xxAA_s132_6.0.0.dir/__/__/__/mesh/access/src/access_loopback.c.obj
 .debug_loc     0x0001b4a0     0x3b45 examples/light_switch/server/CMakeFiles/light_switch_server_nrf52832_xxAA_s132_6.0.0.dir/__/__/__/mesh/access/src/device_state_manager.c.obj
 .debug_loc     0x0001efe5      0x7ec examples/light_switch/server/CMakeFiles/light_switch_server_nrf52832_xxAA_s132_6.0.0.dir/__/__/__/mesh/prov/src/prov_provisionee.c.obj
 .debug_loc     0x0001f7d1      0xa4b examples/light_switch/server/CMakeFiles/light_switch_server_nrf52832_xxAA_s132_6.0.0.dir/__/__/__/mesh/prov/src/nrf_mesh_prov.c.obj
 .debug_loc     0x0002021c      0x490 examples/light_switch/server/CMakeFiles/light_switch_server_nrf52832_xxAA_s132_6.0.0.dir/__/__/__/mesh/prov/src/provisioning.c.obj
 .debug_loc     0x000206ac      0x18c examples/light_switch/server/CMakeFiles/light_switch_server_nrf52832_xxAA_s132_6.0.0.dir/__/__/__/mesh/prov/src/prov_beacon.c.obj
 .debug_loc     0x00020838      0x548 examples/light_switch/server/CMakeFiles/light_switch_server_nrf52832_xxAA_s132_6.0.0.dir/__/__/__/mesh/prov/src/prov_utils.c.obj
 .debug_loc     0x00020d80     0x14df examples/light_switch/server/CMakeFiles/light_switch_server_nrf52832_xxAA_s132_6.0.0.dir/__/__/__/mesh/prov/src/prov_bearer_adv.c.obj
 .debug_loc     0x0002225f       0xb5 examples/light_switch/server/CMakeFiles/light_switch_server_nrf52832_xxAA_s132_6.0.0.dir/C_/sdks/nRF5_SDK_15.0.0_a53641a/components/libraries/util/app_error.c.obj
 .debug_loc     0x00022314       0xc1 examples/light_switch/server/CMakeFiles/light_switch_server_nrf52832_xxAA_s132_6.0.0.dir/C_/sdks/nRF5_SDK_15.0.0_a53641a/components/libraries/util/app_util_platform.c.obj
 .debug_loc     0x000223d5      0xa5d examples/light_switch/server/CMakeFiles/light_switch_server_nrf52832_xxAA_s132_6.0.0.dir/C_/sdks/nRF5_SDK_15.0.0_a53641a/components/libraries/timer/app_timer.c.obj
 .debug_loc     0x00022e32       0x63 examples/light_switch/server/CMakeFiles/light_switch_server_nrf52832_xxAA_s132_6.0.0.dir/C_/sdks/nRF5_SDK_15.0.0_a53641a/components/libraries/util/app_error_handler_gcc.c.obj
 .debug_loc     0x00022e95     0x1222 external/rtt/librtt_nrf52832_xxAA.a(SEGGER_RTT.c.obj)
 .debug_loc     0x000240b7      0x70f external/rtt/librtt_nrf52832_xxAA.a(SEGGER_RTT_printf.c.obj)
 .debug_loc     0x000247c6     0x2449 external/micro-ecc/libuECC_nrf52832_xxAA.a(uECC.c.obj)

.debug_aranges  0x00000000     0x27d0
 .debug_aranges
                0x00000000       0x68 examples/light_switch/server/CMakeFiles/light_switch_server_nrf52832_xxAA_s132_6.0.0.dir/src/main.c.obj
 .debug_aranges
                0x00000068       0x50 examples/light_switch/server/CMakeFiles/light_switch_server_nrf52832_xxAA_s132_6.0.0.dir/__/__/common/src/app_onoff.c.obj
 .debug_aranges
                0x000000b8       0x58 examples/light_switch/server/CMakeFiles/light_switch_server_nrf52832_xxAA_s132_6.0.0.dir/__/__/__/mesh/stack/src/mesh_stack.c.obj
 .debug_aranges
                0x00000110       0x48 examples/light_switch/server/CMakeFiles/light_switch_server_nrf52832_xxAA_s132_6.0.0.dir/__/__/common/src/mesh_softdevice_init.c.obj
 .debug_aranges
                0x00000158       0x38 examples/light_switch/server/CMakeFiles/light_switch_server_nrf52832_xxAA_s132_6.0.0.dir/__/__/common/src/mesh_provisionee.c.obj
 .debug_aranges
                0x00000190       0x30 examples/light_switch/server/CMakeFiles/light_switch_server_nrf52832_xxAA_s132_6.0.0.dir/__/__/common/src/rtt_input.c.obj
 .debug_aranges
                0x000001c0       0x58 examples/light_switch/server/CMakeFiles/light_switch_server_nrf52832_xxAA_s132_6.0.0.dir/__/__/common/src/simple_hal.c.obj
 .debug_aranges
                0x00000218       0x20 examples/light_switch/server/CMakeFiles/light_switch_server_nrf52832_xxAA_s132_6.0.0.dir/__/__/common/src/mesh_app_utils.c.obj
 .debug_aranges
                0x00000238       0x28 examples/light_switch/server/CMakeFiles/light_switch_server_nrf52832_xxAA_s132_6.0.0.dir/__/__/nrf_mesh_weak.c.obj
 .debug_aranges
                0x00000260       0x20 examples/light_switch/server/CMakeFiles/light_switch_server_nrf52832_xxAA_s132_6.0.0.dir/__/__/common/src/app_error_weak.c.obj
 .debug_aranges
                0x00000280       0x20 examples/light_switch/server/CMakeFiles/light_switch_server_nrf52832_xxAA_s132_6.0.0.dir/__/__/common/src/assertion_handler_weak.c.obj
 .debug_aranges
                0x000002a0       0x30 examples/light_switch/server/CMakeFiles/light_switch_server_nrf52832_xxAA_s132_6.0.0.dir/__/__/__/mesh/core/src/nrf_mesh_configure.c.obj
 .debug_aranges
                0x000002d0       0x38 examples/light_switch/server/CMakeFiles/light_switch_server_nrf52832_xxAA_s132_6.0.0.dir/__/__/__/mesh/core/src/msg_cache.c.obj
 .debug_aranges
                0x00000308      0x110 examples/light_switch/server/CMakeFiles/light_switch_server_nrf52832_xxAA_s132_6.0.0.dir/__/__/__/mesh/core/src/transport.c.obj
 .debug_aranges
                0x00000418       0x30 examples/light_switch/server/CMakeFiles/light_switch_server_nrf52832_xxAA_s132_6.0.0.dir/__/__/__/mesh/core/src/event.c.obj
 .debug_aranges
                0x00000448       0x68 examples/light_switch/server/CMakeFiles/light_switch_server_nrf52832_xxAA_s132_6.0.0.dir/__/__/__/mesh/core/src/packet_buffer.c.obj
 .debug_aranges
                0x000004b0       0xc8 examples/light_switch/server/CMakeFiles/light_switch_server_nrf52832_xxAA_s132_6.0.0.dir/__/__/__/mesh/core/src/flash_manager_defrag.c.obj
 .debug_aranges
                0x00000578       0x60 examples/light_switch/server/CMakeFiles/light_switch_server_nrf52832_xxAA_s132_6.0.0.dir/__/__/__/mesh/core/src/fifo.c.obj
 .debug_aranges
                0x000005d8       0x30 examples/light_switch/server/CMakeFiles/light_switch_server_nrf52832_xxAA_s132_6.0.0.dir/__/__/__/mesh/core/src/nrf_flash.c.obj
 .debug_aranges
                0x00000608       0x48 examples/light_switch/server/CMakeFiles/light_switch_server_nrf52832_xxAA_s132_6.0.0.dir/__/__/__/mesh/core/src/packet_mgr.c.obj
 .debug_aranges
                0x00000650       0xd8 examples/light_switch/server/CMakeFiles/light_switch_server_nrf52832_xxAA_s132_6.0.0.dir/__/__/__/mesh/core/src/net_state.c.obj
 .debug_aranges
                0x00000728       0x60 examples/light_switch/server/CMakeFiles/light_switch_server_nrf52832_xxAA_s132_6.0.0.dir/__/__/__/mesh/core/src/mesh_flash.c.obj
 .debug_aranges
                0x00000788       0x30 examples/light_switch/server/CMakeFiles/light_switch_server_nrf52832_xxAA_s132_6.0.0.dir/__/__/__/mesh/core/src/nrf_mesh_utils.c.obj
 .debug_aranges
                0x000007b8       0x90 examples/light_switch/server/CMakeFiles/light_switch_server_nrf52832_xxAA_s132_6.0.0.dir/__/__/__/mesh/core/src/nrf_mesh.c.obj
 .debug_aranges
                0x00000848       0x38 examples/light_switch/server/CMakeFiles/light_switch_server_nrf52832_xxAA_s132_6.0.0.dir/__/__/__/mesh/core/src/queue.c.obj
 .debug_aranges
                0x00000880       0x48 examples/light_switch/server/CMakeFiles/light_switch_server_nrf52832_xxAA_s132_6.0.0.dir/__/__/__/mesh/core/src/hal.c.obj
 .debug_aranges
                0x000008c8       0x30 examples/light_switch/server/CMakeFiles/light_switch_server_nrf52832_xxAA_s132_6.0.0.dir/__/__/__/mesh/core/src/aes_cmac.c.obj
 .debug_aranges
                0x000008f8       0x68 examples/light_switch/server/CMakeFiles/light_switch_server_nrf52832_xxAA_s132_6.0.0.dir/__/__/__/mesh/core/src/timer_scheduler.c.obj
 .debug_aranges
                0x00000960       0x60 examples/light_switch/server/CMakeFiles/light_switch_server_nrf52832_xxAA_s132_6.0.0.dir/__/__/__/mesh/core/src/timer.c.obj
 .debug_aranges
                0x000009c0       0x40 examples/light_switch/server/CMakeFiles/light_switch_server_nrf52832_xxAA_s132_6.0.0.dir/__/__/__/mesh/core/src/rand.c.obj
 .debug_aranges
                0x00000a00       0x20 examples/light_switch/server/CMakeFiles/light_switch_server_nrf52832_xxAA_s132_6.0.0.dir/__/__/__/mesh/core/src/mesh_opt.c.obj
 .debug_aranges
                0x00000a20       0xb8 examples/light_switch/server/CMakeFiles/light_switch_server_nrf52832_xxAA_s132_6.0.0.dir/__/__/__/mesh/core/src/timeslot.c.obj
 .debug_aranges
                0x00000ad8       0x98 examples/light_switch/server/CMakeFiles/light_switch_server_nrf52832_xxAA_s132_6.0.0.dir/__/__/__/mesh/core/src/bearer_event.c.obj
 .debug_aranges
                0x00000b70       0x78 examples/light_switch/server/CMakeFiles/light_switch_server_nrf52832_xxAA_s132_6.0.0.dir/__/__/__/mesh/core/src/enc.c.obj
 .debug_aranges
                0x00000be8       0x60 examples/light_switch/server/CMakeFiles/light_switch_server_nrf52832_xxAA_s132_6.0.0.dir/__/__/__/mesh/core/src/network.c.obj
 .debug_aranges
                0x00000c48       0x68 examples/light_switch/server/CMakeFiles/light_switch_server_nrf52832_xxAA_s132_6.0.0.dir/__/__/__/mesh/core/src/net_packet.c.obj
 .debug_aranges
                0x00000cb0       0x48 examples/light_switch/server/CMakeFiles/light_switch_server_nrf52832_xxAA_s132_6.0.0.dir/__/__/__/mesh/core/src/msqueue.c.obj
 .debug_aranges
                0x00000cf8       0x40 examples/light_switch/server/CMakeFiles/light_switch_server_nrf52832_xxAA_s132_6.0.0.dir/__/__/__/mesh/core/src/nrf_mesh_keygen.c.obj
 .debug_aranges
                0x00000d38       0x48 examples/light_switch/server/CMakeFiles/light_switch_server_nrf52832_xxAA_s132_6.0.0.dir/__/__/__/mesh/core/src/list.c.obj
 .debug_aranges
                0x00000d80       0x48 examples/light_switch/server/CMakeFiles/light_switch_server_nrf52832_xxAA_s132_6.0.0.dir/__/__/__/mesh/core/src/log.c.obj
 .debug_aranges
                0x00000dc8       0xf8 examples/light_switch/server/CMakeFiles/light_switch_server_nrf52832_xxAA_s132_6.0.0.dir/__/__/__/mesh/core/src/flash_manager.c.obj
 .debug_aranges
                0x00000ec0       0x50 examples/light_switch/server/CMakeFiles/light_switch_server_nrf52832_xxAA_s132_6.0.0.dir/__/__/__/mesh/core/src/ccm_soft.c.obj
 .debug_aranges
                0x00000f10       0x40 examples/light_switch/server/CMakeFiles/light_switch_server_nrf52832_xxAA_s132_6.0.0.dir/__/__/__/mesh/core/src/replay_cache.c.obj
 .debug_aranges
                0x00000f50       0x28 examples/light_switch/server/CMakeFiles/light_switch_server_nrf52832_xxAA_s132_6.0.0.dir/__/__/__/mesh/core/src/beacon.c.obj
 .debug_aranges
                0x00000f78       0x20 examples/light_switch/server/CMakeFiles/light_switch_server_nrf52832_xxAA_s132_6.0.0.dir/__/__/__/mesh/core/src/flash_manager_internal.c.obj
 .debug_aranges
                0x00000f98       0x58 examples/light_switch/server/CMakeFiles/light_switch_server_nrf52832_xxAA_s132_6.0.0.dir/__/__/__/mesh/core/src/core_tx.c.obj
 .debug_aranges
                0x00000ff0       0x98 examples/light_switch/server/CMakeFiles/light_switch_server_nrf52832_xxAA_s132_6.0.0.dir/__/__/__/mesh/core/src/heartbeat.c.obj
 .debug_aranges
                0x00001088       0x80 examples/light_switch/server/CMakeFiles/light_switch_server_nrf52832_xxAA_s132_6.0.0.dir/__/__/__/mesh/core/src/net_beacon.c.obj
 .debug_aranges
                0x00001108       0x90 examples/light_switch/server/CMakeFiles/light_switch_server_nrf52832_xxAA_s132_6.0.0.dir/__/__/__/mesh/core/src/mesh_config.c.obj
 .debug_aranges
                0x00001198       0x58 examples/light_switch/server/CMakeFiles/light_switch_server_nrf52832_xxAA_s132_6.0.0.dir/__/__/__/mesh/core/src/mesh_config_backend.c.obj
 .debug_aranges
                0x000011f0       0x80 examples/light_switch/server/CMakeFiles/light_switch_server_nrf52832_xxAA_s132_6.0.0.dir/__/__/__/mesh/core/src/mesh_config_flashman_glue.c.obj
 .debug_aranges
                0x00001270       0xa0 examples/light_switch/server/CMakeFiles/light_switch_server_nrf52832_xxAA_s132_6.0.0.dir/__/__/__/mesh/core/src/core_tx_adv.c.obj
 .debug_aranges
                0x00001310       0x30 examples/light_switch/server/CMakeFiles/light_switch_server_nrf52832_xxAA_s132_6.0.0.dir/__/__/__/mesh/bearer/src/ad_listener.c.obj
 .debug_aranges
                0x00001340       0x58 examples/light_switch/server/CMakeFiles/light_switch_server_nrf52832_xxAA_s132_6.0.0.dir/__/__/__/mesh/bearer/src/ad_type_filter.c.obj
 .debug_aranges
                0x00001398       0xb8 examples/light_switch/server/CMakeFiles/light_switch_server_nrf52832_xxAA_s132_6.0.0.dir/__/__/__/mesh/bearer/src/advertiser.c.obj
 .debug_aranges
                0x00001450       0x88 examples/light_switch/server/CMakeFiles/light_switch_server_nrf52832_xxAA_s132_6.0.0.dir/__/__/__/mesh/bearer/src/bearer_handler.c.obj
 .debug_aranges
                0x000014d8       0x30 examples/light_switch/server/CMakeFiles/light_switch_server_nrf52832_xxAA_s132_6.0.0.dir/__/__/__/mesh/bearer/src/broadcast.c.obj
 .debug_aranges
                0x00001508       0x38 examples/light_switch/server/CMakeFiles/light_switch_server_nrf52832_xxAA_s132_6.0.0.dir/__/__/__/mesh/bearer/src/filter_engine.c.obj
 .debug_aranges
                0x00001540       0x40 examples/light_switch/server/CMakeFiles/light_switch_server_nrf52832_xxAA_s132_6.0.0.dir/__/__/__/mesh/bearer/src/radio_config.c.obj
 .debug_aranges
                0x00001580       0xe8 examples/light_switch/server/CMakeFiles/light_switch_server_nrf52832_xxAA_s132_6.0.0.dir/__/__/__/mesh/bearer/src/scanner.c.obj
 .debug_aranges
                0x00001668       0x70 examples/light_switch/server/CMakeFiles/light_switch_server_nrf52832_xxAA_s132_6.0.0.dir/__/__/__/mesh/bearer/src/mesh_pa_lna.c.obj
 .debug_aranges
                0x000016d8       0x20 examples/light_switch/server/CMakeFiles/light_switch_server_nrf52832_xxAA_s132_6.0.0.dir/__/__/__/models/foundation/config/src/composition_data.c.obj
 .debug_aranges
                0x000016f8      0x218 examples/light_switch/server/CMakeFiles/light_switch_server_nrf52832_xxAA_s132_6.0.0.dir/__/__/__/models/foundation/config/src/config_server.c.obj
 .debug_aranges
                0x00001910       0x20 examples/light_switch/server/CMakeFiles/light_switch_server_nrf52832_xxAA_s132_6.0.0.dir/__/__/__/models/foundation/config/src/packed_index_list.c.obj
 .debug_aranges
                0x00001930       0xc8 examples/light_switch/server/CMakeFiles/light_switch_server_nrf52832_xxAA_s132_6.0.0.dir/__/__/__/models/foundation/health/src/health_server.c.obj
 .debug_aranges
                0x000019f8       0x48 examples/light_switch/server/CMakeFiles/light_switch_server_nrf52832_xxAA_s132_6.0.0.dir/__/__/__/models/model_spec/generic_onoff/src/generic_onoff_server.c.obj
 .debug_aranges
                0x00001a40       0x88 examples/light_switch/server/CMakeFiles/light_switch_server_nrf52832_xxAA_s132_6.0.0.dir/__/__/__/models/model_spec/common/src/model_common.c.obj
 .debug_aranges
                0x00001ac8       0x50 examples/light_switch/server/CMakeFiles/light_switch_server_nrf52832_xxAA_s132_6.0.0.dir/__/__/__/mesh/access/src/access_publish.c.obj
 .debug_aranges
                0x00001b18      0x1e0 examples/light_switch/server/CMakeFiles/light_switch_server_nrf52832_xxAA_s132_6.0.0.dir/__/__/__/mesh/access/src/access.c.obj
 .debug_aranges
                0x00001cf8       0x58 examples/light_switch/server/CMakeFiles/light_switch_server_nrf52832_xxAA_s132_6.0.0.dir/__/__/__/mesh/access/src/access_reliable.c.obj
 .debug_aranges
                0x00001d50       0x38 examples/light_switch/server/CMakeFiles/light_switch_server_nrf52832_xxAA_s132_6.0.0.dir/__/__/__/mesh/access/src/access_loopback.c.obj
 .debug_aranges
                0x00001d88      0x328 examples/light_switch/server/CMakeFiles/light_switch_server_nrf52832_xxAA_s132_6.0.0.dir/__/__/__/mesh/access/src/device_state_manager.c.obj
 .debug_aranges
                0x000020b0       0x70 examples/light_switch/server/CMakeFiles/light_switch_server_nrf52832_xxAA_s132_6.0.0.dir/__/__/__/mesh/prov/src/prov_provisionee.c.obj
 .debug_aranges
                0x00002120       0x88 examples/light_switch/server/CMakeFiles/light_switch_server_nrf52832_xxAA_s132_6.0.0.dir/__/__/__/mesh/prov/src/nrf_mesh_prov.c.obj
 .debug_aranges
                0x000021a8       0x80 examples/light_switch/server/CMakeFiles/light_switch_server_nrf52832_xxAA_s132_6.0.0.dir/__/__/__/mesh/prov/src/provisioning.c.obj
 .debug_aranges
                0x00002228       0x38 examples/light_switch/server/CMakeFiles/light_switch_server_nrf52832_xxAA_s132_6.0.0.dir/__/__/__/mesh/prov/src/prov_beacon.c.obj
 .debug_aranges
                0x00002260       0x90 examples/light_switch/server/CMakeFiles/light_switch_server_nrf52832_xxAA_s132_6.0.0.dir/__/__/__/mesh/prov/src/prov_utils.c.obj
 .debug_aranges
                0x000022f0       0xd0 examples/light_switch/server/CMakeFiles/light_switch_server_nrf52832_xxAA_s132_6.0.0.dir/__/__/__/mesh/prov/src/prov_bearer_adv.c.obj
 .debug_aranges
                0x000023c0       0x38 examples/light_switch/server/CMakeFiles/light_switch_server_nrf52832_xxAA_s132_6.0.0.dir/C_/sdks/nRF5_SDK_15.0.0_a53641a/modules/nrfx/mdk/system_nrf52.c.obj
 .debug_aranges
                0x000023f8       0x28 examples/light_switch/server/CMakeFiles/light_switch_server_nrf52832_xxAA_s132_6.0.0.dir/C_/sdks/nRF5_SDK_15.0.0_a53641a/components/libraries/util/app_error.c.obj
 .debug_aranges
                0x00002420       0x48 examples/light_switch/server/CMakeFiles/light_switch_server_nrf52832_xxAA_s132_6.0.0.dir/C_/sdks/nRF5_SDK_15.0.0_a53641a/components/libraries/util/app_util_platform.c.obj
 .debug_aranges
                0x00002468       0x90 examples/light_switch/server/CMakeFiles/light_switch_server_nrf52832_xxAA_s132_6.0.0.dir/C_/sdks/nRF5_SDK_15.0.0_a53641a/components/libraries/timer/app_timer.c.obj
 .debug_aranges
                0x000024f8       0x20 examples/light_switch/server/CMakeFiles/light_switch_server_nrf52832_xxAA_s132_6.0.0.dir/C_/sdks/nRF5_SDK_15.0.0_a53641a/components/libraries/util/app_error_handler_gcc.c.obj
 .debug_aranges
                0x00002518       0xd8 external/rtt/librtt_nrf52832_xxAA.a(SEGGER_RTT.c.obj)
 .debug_aranges
                0x000025f0       0x38 external/rtt/librtt_nrf52832_xxAA.a(SEGGER_RTT_printf.c.obj)
 .debug_aranges
                0x00002628      0x1a8 external/micro-ecc/libuECC_nrf52832_xxAA.a(uECC.c.obj)

.debug_ranges   0x00000000     0x66f8
 .debug_ranges  0x00000000      0x240 examples/light_switch/server/CMakeFiles/light_switch_server_nrf52832_xxAA_s132_6.0.0.dir/src/main.c.obj
 .debug_ranges  0x00000240       0xd0 examples/light_switch/server/CMakeFiles/light_switch_server_nrf52832_xxAA_s132_6.0.0.dir/__/__/common/src/app_onoff.c.obj
 .debug_ranges  0x00000310       0x78 examples/light_switch/server/CMakeFiles/light_switch_server_nrf52832_xxAA_s132_6.0.0.dir/__/__/__/mesh/stack/src/mesh_stack.c.obj
 .debug_ranges  0x00000388       0xe8 examples/light_switch/server/CMakeFiles/light_switch_server_nrf52832_xxAA_s132_6.0.0.dir/__/__/common/src/mesh_softdevice_init.c.obj
 .debug_ranges  0x00000470       0x58 examples/light_switch/server/CMakeFiles/light_switch_server_nrf52832_xxAA_s132_6.0.0.dir/__/__/common/src/mesh_provisionee.c.obj
 .debug_ranges  0x000004c8       0x50 examples/light_switch/server/CMakeFiles/light_switch_server_nrf52832_xxAA_s132_6.0.0.dir/__/__/common/src/rtt_input.c.obj
 .debug_ranges  0x00000518       0x98 examples/light_switch/server/CMakeFiles/light_switch_server_nrf52832_xxAA_s132_6.0.0.dir/__/__/common/src/simple_hal.c.obj
 .debug_ranges  0x000005b0       0x10 examples/light_switch/server/CMakeFiles/light_switch_server_nrf52832_xxAA_s132_6.0.0.dir/__/__/common/src/mesh_app_utils.c.obj
 .debug_ranges  0x000005c0       0x18 examples/light_switch/server/CMakeFiles/light_switch_server_nrf52832_xxAA_s132_6.0.0.dir/__/__/nrf_mesh_weak.c.obj
 .debug_ranges  0x000005d8       0xb8 examples/light_switch/server/CMakeFiles/light_switch_server_nrf52832_xxAA_s132_6.0.0.dir/__/__/common/src/app_error_weak.c.obj
 .debug_ranges  0x00000690       0x10 examples/light_switch/server/CMakeFiles/light_switch_server_nrf52832_xxAA_s132_6.0.0.dir/__/__/common/src/assertion_handler_weak.c.obj
 .debug_ranges  0x000006a0       0x20 examples/light_switch/server/CMakeFiles/light_switch_server_nrf52832_xxAA_s132_6.0.0.dir/__/__/__/mesh/core/src/nrf_mesh_configure.c.obj
 .debug_ranges  0x000006c0       0x48 examples/light_switch/server/CMakeFiles/light_switch_server_nrf52832_xxAA_s132_6.0.0.dir/__/__/__/mesh/core/src/msg_cache.c.obj
 .debug_ranges  0x00000708      0x5d0 examples/light_switch/server/CMakeFiles/light_switch_server_nrf52832_xxAA_s132_6.0.0.dir/__/__/__/mesh/core/src/transport.c.obj
 .debug_ranges  0x00000cd8       0x50 examples/light_switch/server/CMakeFiles/light_switch_server_nrf52832_xxAA_s132_6.0.0.dir/__/__/__/mesh/core/src/event.c.obj
 .debug_ranges  0x00000d28      0x128 examples/light_switch/server/CMakeFiles/light_switch_server_nrf52832_xxAA_s132_6.0.0.dir/__/__/__/mesh/core/src/packet_buffer.c.obj
 .debug_ranges  0x00000e50      0x230 examples/light_switch/server/CMakeFiles/light_switch_server_nrf52832_xxAA_s132_6.0.0.dir/__/__/__/mesh/core/src/flash_manager_defrag.c.obj
 .debug_ranges  0x00001080       0x68 examples/light_switch/server/CMakeFiles/light_switch_server_nrf52832_xxAA_s132_6.0.0.dir/__/__/__/mesh/core/src/fifo.c.obj
 .debug_ranges  0x000010e8       0x38 examples/light_switch/server/CMakeFiles/light_switch_server_nrf52832_xxAA_s132_6.0.0.dir/__/__/__/mesh/core/src/nrf_flash.c.obj
 .debug_ranges  0x00001120       0xe0 examples/light_switch/server/CMakeFiles/light_switch_server_nrf52832_xxAA_s132_6.0.0.dir/__/__/__/mesh/core/src/packet_mgr.c.obj
 .debug_ranges  0x00001200      0x200 examples/light_switch/server/CMakeFiles/light_switch_server_nrf52832_xxAA_s132_6.0.0.dir/__/__/__/mesh/core/src/net_state.c.obj
 .debug_ranges  0x00001400      0x1c8 examples/light_switch/server/CMakeFiles/light_switch_server_nrf52832_xxAA_s132_6.0.0.dir/__/__/__/mesh/core/src/mesh_flash.c.obj
 .debug_ranges  0x000015c8       0x20 examples/light_switch/server/CMakeFiles/light_switch_server_nrf52832_xxAA_s132_6.0.0.dir/__/__/__/mesh/core/src/nrf_mesh_utils.c.obj
 .debug_ranges  0x000015e8      0x118 examples/light_switch/server/CMakeFiles/light_switch_server_nrf52832_xxAA_s132_6.0.0.dir/__/__/__/mesh/core/src/nrf_mesh.c.obj
 .debug_ranges  0x00001700       0x28 examples/light_switch/server/CMakeFiles/light_switch_server_nrf52832_xxAA_s132_6.0.0.dir/__/__/__/mesh/core/src/queue.c.obj
 .debug_ranges  0x00001728       0x38 examples/light_switch/server/CMakeFiles/light_switch_server_nrf52832_xxAA_s132_6.0.0.dir/__/__/__/mesh/core/src/hal.c.obj
 .debug_ranges  0x00001760      0x120 examples/light_switch/server/CMakeFiles/light_switch_server_nrf52832_xxAA_s132_6.0.0.dir/__/__/__/mesh/core/src/aes_cmac.c.obj
 .debug_ranges  0x00001880       0xa8 examples/light_switch/server/CMakeFiles/light_switch_server_nrf52832_xxAA_s132_6.0.0.dir/__/__/__/mesh/core/src/timer_scheduler.c.obj
 .debug_ranges  0x00001928       0xd8 examples/light_switch/server/CMakeFiles/light_switch_server_nrf52832_xxAA_s132_6.0.0.dir/__/__/__/mesh/core/src/timer.c.obj
 .debug_ranges  0x00001a00       0x30 examples/light_switch/server/CMakeFiles/light_switch_server_nrf52832_xxAA_s132_6.0.0.dir/__/__/__/mesh/core/src/rand.c.obj
 .debug_ranges  0x00001a30       0x10 examples/light_switch/server/CMakeFiles/light_switch_server_nrf52832_xxAA_s132_6.0.0.dir/__/__/__/mesh/core/src/mesh_opt.c.obj
 .debug_ranges  0x00001a40      0x168 examples/light_switch/server/CMakeFiles/light_switch_server_nrf52832_xxAA_s132_6.0.0.dir/__/__/__/mesh/core/src/timeslot.c.obj
 .debug_ranges  0x00001ba8      0x110 examples/light_switch/server/CMakeFiles/light_switch_server_nrf52832_xxAA_s132_6.0.0.dir/__/__/__/mesh/core/src/bearer_event.c.obj
 .debug_ranges  0x00001cb8       0xb8 examples/light_switch/server/CMakeFiles/light_switch_server_nrf52832_xxAA_s132_6.0.0.dir/__/__/__/mesh/core/src/enc.c.obj
 .debug_ranges  0x00001d70      0x148 examples/light_switch/server/CMakeFiles/light_switch_server_nrf52832_xxAA_s132_6.0.0.dir/__/__/__/mesh/core/src/network.c.obj
 .debug_ranges  0x00001eb8      0x160 examples/light_switch/server/CMakeFiles/light_switch_server_nrf52832_xxAA_s132_6.0.0.dir/__/__/__/mesh/core/src/net_packet.c.obj
 .debug_ranges  0x00002018       0x50 examples/light_switch/server/CMakeFiles/light_switch_server_nrf52832_xxAA_s132_6.0.0.dir/__/__/__/mesh/core/src/msqueue.c.obj
 .debug_ranges  0x00002068       0x30 examples/light_switch/server/CMakeFiles/light_switch_server_nrf52832_xxAA_s132_6.0.0.dir/__/__/__/mesh/core/src/nrf_mesh_keygen.c.obj
 .debug_ranges  0x00002098       0x78 examples/light_switch/server/CMakeFiles/light_switch_server_nrf52832_xxAA_s132_6.0.0.dir/__/__/__/mesh/core/src/list.c.obj
 .debug_ranges  0x00002110       0x38 examples/light_switch/server/CMakeFiles/light_switch_server_nrf52832_xxAA_s132_6.0.0.dir/__/__/__/mesh/core/src/log.c.obj
 .debug_ranges  0x00002148      0x388 examples/light_switch/server/CMakeFiles/light_switch_server_nrf52832_xxAA_s132_6.0.0.dir/__/__/__/mesh/core/src/flash_manager.c.obj
 .debug_ranges  0x000024d0       0xa0 examples/light_switch/server/CMakeFiles/light_switch_server_nrf52832_xxAA_s132_6.0.0.dir/__/__/__/mesh/core/src/ccm_soft.c.obj
 .debug_ranges  0x00002570       0x30 examples/light_switch/server/CMakeFiles/light_switch_server_nrf52832_xxAA_s132_6.0.0.dir/__/__/__/mesh/core/src/replay_cache.c.obj
 .debug_ranges  0x000025a0       0x90 examples/light_switch/server/CMakeFiles/light_switch_server_nrf52832_xxAA_s132_6.0.0.dir/__/__/__/mesh/core/src/beacon.c.obj
 .debug_ranges  0x00002630       0x10 examples/light_switch/server/CMakeFiles/light_switch_server_nrf52832_xxAA_s132_6.0.0.dir/__/__/__/mesh/core/src/flash_manager_internal.c.obj
 .debug_ranges  0x00002640       0xf8 examples/light_switch/server/CMakeFiles/light_switch_server_nrf52832_xxAA_s132_6.0.0.dir/__/__/__/mesh/core/src/core_tx.c.obj
 .debug_ranges  0x00002738       0xf8 examples/light_switch/server/CMakeFiles/light_switch_server_nrf52832_xxAA_s132_6.0.0.dir/__/__/__/mesh/core/src/heartbeat.c.obj
 .debug_ranges  0x00002830      0x188 examples/light_switch/server/CMakeFiles/light_switch_server_nrf52832_xxAA_s132_6.0.0.dir/__/__/__/mesh/core/src/net_beacon.c.obj
 .debug_ranges  0x000029b8      0x208 examples/light_switch/server/CMakeFiles/light_switch_server_nrf52832_xxAA_s132_6.0.0.dir/__/__/__/mesh/core/src/mesh_config.c.obj
 .debug_ranges  0x00002bc0       0xe0 examples/light_switch/server/CMakeFiles/light_switch_server_nrf52832_xxAA_s132_6.0.0.dir/__/__/__/mesh/core/src/mesh_config_backend.c.obj
 .debug_ranges  0x00002ca0       0x70 examples/light_switch/server/CMakeFiles/light_switch_server_nrf52832_xxAA_s132_6.0.0.dir/__/__/__/mesh/core/src/mesh_config_flashman_glue.c.obj
 .debug_ranges  0x00002d10      0x190 examples/light_switch/server/CMakeFiles/light_switch_server_nrf52832_xxAA_s132_6.0.0.dir/__/__/__/mesh/core/src/core_tx_adv.c.obj
 .debug_ranges  0x00002ea0      0x110 examples/light_switch/server/CMakeFiles/light_switch_server_nrf52832_xxAA_s132_6.0.0.dir/__/__/__/mesh/bearer/src/ad_listener.c.obj
 .debug_ranges  0x00002fb0       0xd0 examples/light_switch/server/CMakeFiles/light_switch_server_nrf52832_xxAA_s132_6.0.0.dir/__/__/__/mesh/bearer/src/ad_type_filter.c.obj
 .debug_ranges  0x00003080      0x218 examples/light_switch/server/CMakeFiles/light_switch_server_nrf52832_xxAA_s132_6.0.0.dir/__/__/__/mesh/bearer/src/advertiser.c.obj
 .debug_ranges  0x00003298      0x180 examples/light_switch/server/CMakeFiles/light_switch_server_nrf52832_xxAA_s132_6.0.0.dir/__/__/__/mesh/bearer/src/bearer_handler.c.obj
 .debug_ranges  0x00003418       0xc0 examples/light_switch/server/CMakeFiles/light_switch_server_nrf52832_xxAA_s132_6.0.0.dir/__/__/__/mesh/bearer/src/broadcast.c.obj
 .debug_ranges  0x000034d8       0x48 examples/light_switch/server/CMakeFiles/light_switch_server_nrf52832_xxAA_s132_6.0.0.dir/__/__/__/mesh/bearer/src/filter_engine.c.obj
 .debug_ranges  0x00003520       0x48 examples/light_switch/server/CMakeFiles/light_switch_server_nrf52832_xxAA_s132_6.0.0.dir/__/__/__/mesh/bearer/src/radio_config.c.obj
 .debug_ranges  0x00003568      0x1a8 examples/light_switch/server/CMakeFiles/light_switch_server_nrf52832_xxAA_s132_6.0.0.dir/__/__/__/mesh/bearer/src/scanner.c.obj
 .debug_ranges  0x00003710       0xb8 examples/light_switch/server/CMakeFiles/light_switch_server_nrf52832_xxAA_s132_6.0.0.dir/__/__/__/mesh/bearer/src/mesh_pa_lna.c.obj
 .debug_ranges  0x000037c8       0xa8 examples/light_switch/server/CMakeFiles/light_switch_server_nrf52832_xxAA_s132_6.0.0.dir/__/__/__/models/foundation/config/src/composition_data.c.obj
 .debug_ranges  0x00003870      0x780 examples/light_switch/server/CMakeFiles/light_switch_server_nrf52832_xxAA_s132_6.0.0.dir/__/__/__/models/foundation/config/src/config_server.c.obj
 .debug_ranges  0x00003ff0       0x10 examples/light_switch/server/CMakeFiles/light_switch_server_nrf52832_xxAA_s132_6.0.0.dir/__/__/__/models/foundation/config/src/packed_index_list.c.obj
 .debug_ranges  0x00004000      0x260 examples/light_switch/server/CMakeFiles/light_switch_server_nrf52832_xxAA_s132_6.0.0.dir/__/__/__/models/foundation/health/src/health_server.c.obj
 .debug_ranges  0x00004260       0x58 examples/light_switch/server/CMakeFiles/light_switch_server_nrf52832_xxAA_s132_6.0.0.dir/__/__/__/models/model_spec/generic_onoff/src/generic_onoff_server.c.obj
 .debug_ranges  0x000042b8       0x78 examples/light_switch/server/CMakeFiles/light_switch_server_nrf52832_xxAA_s132_6.0.0.dir/__/__/__/models/model_spec/common/src/model_common.c.obj
 .debug_ranges  0x00004330      0x118 examples/light_switch/server/CMakeFiles/light_switch_server_nrf52832_xxAA_s132_6.0.0.dir/__/__/__/mesh/access/src/access_publish.c.obj
 .debug_ranges  0x00004448      0x798 examples/light_switch/server/CMakeFiles/light_switch_server_nrf52832_xxAA_s132_6.0.0.dir/__/__/__/mesh/access/src/access.c.obj
 .debug_ranges  0x00004be0      0x188 examples/light_switch/server/CMakeFiles/light_switch_server_nrf52832_xxAA_s132_6.0.0.dir/__/__/__/mesh/access/src/access_reliable.c.obj
 .debug_ranges  0x00004d68       0x28 examples/light_switch/server/CMakeFiles/light_switch_server_nrf52832_xxAA_s132_6.0.0.dir/__/__/__/mesh/access/src/access_loopback.c.obj
 .debug_ranges  0x00004d90      0x7e8 examples/light_switch/server/CMakeFiles/light_switch_server_nrf52832_xxAA_s132_6.0.0.dir/__/__/__/mesh/access/src/device_state_manager.c.obj
 .debug_ranges  0x00005578      0x1b0 examples/light_switch/server/CMakeFiles/light_switch_server_nrf52832_xxAA_s132_6.0.0.dir/__/__/__/mesh/prov/src/prov_provisionee.c.obj
 .debug_ranges  0x00005728      0x130 examples/light_switch/server/CMakeFiles/light_switch_server_nrf52832_xxAA_s132_6.0.0.dir/__/__/__/mesh/prov/src/nrf_mesh_prov.c.obj
 .debug_ranges  0x00005858       0x70 examples/light_switch/server/CMakeFiles/light_switch_server_nrf52832_xxAA_s132_6.0.0.dir/__/__/__/mesh/prov/src/provisioning.c.obj
 .debug_ranges  0x000058c8       0x40 examples/light_switch/server/CMakeFiles/light_switch_server_nrf52832_xxAA_s132_6.0.0.dir/__/__/__/mesh/prov/src/prov_beacon.c.obj
 .debug_ranges  0x00005908       0xd8 examples/light_switch/server/CMakeFiles/light_switch_server_nrf52832_xxAA_s132_6.0.0.dir/__/__/__/mesh/prov/src/prov_utils.c.obj
 .debug_ranges  0x000059e0      0x4a0 examples/light_switch/server/CMakeFiles/light_switch_server_nrf52832_xxAA_s132_6.0.0.dir/__/__/__/mesh/prov/src/prov_bearer_adv.c.obj
 .debug_ranges  0x00005e80       0x28 examples/light_switch/server/CMakeFiles/light_switch_server_nrf52832_xxAA_s132_6.0.0.dir/C_/sdks/nRF5_SDK_15.0.0_a53641a/modules/nrfx/mdk/system_nrf52.c.obj
 .debug_ranges  0x00005ea8       0x18 examples/light_switch/server/CMakeFiles/light_switch_server_nrf52832_xxAA_s132_6.0.0.dir/C_/sdks/nRF5_SDK_15.0.0_a53641a/components/libraries/util/app_error.c.obj
 .debug_ranges  0x00005ec0       0x38 examples/light_switch/server/CMakeFiles/light_switch_server_nrf52832_xxAA_s132_6.0.0.dir/C_/sdks/nRF5_SDK_15.0.0_a53641a/components/libraries/util/app_util_platform.c.obj
 .debug_ranges  0x00005ef8      0x390 examples/light_switch/server/CMakeFiles/light_switch_server_nrf52832_xxAA_s132_6.0.0.dir/C_/sdks/nRF5_SDK_15.0.0_a53641a/components/libraries/timer/app_timer.c.obj
 .debug_ranges  0x00006288       0x10 examples/light_switch/server/CMakeFiles/light_switch_server_nrf52832_xxAA_s132_6.0.0.dir/C_/sdks/nRF5_SDK_15.0.0_a53641a/components/libraries/util/app_error_handler_gcc.c.obj
 .debug_ranges  0x00006298      0x130 external/rtt/librtt_nrf52832_xxAA.a(SEGGER_RTT.c.obj)
 .debug_ranges  0x000063c8       0x48 external/rtt/librtt_nrf52832_xxAA.a(SEGGER_RTT_printf.c.obj)
 .debug_ranges  0x00006410      0x2e8 external/micro-ecc/libuECC_nrf52832_xxAA.a(uECC.c.obj)

.debug_line     0x00000000    0x1b274
 .debug_line    0x00000000      0x917 examples/light_switch/server/CMakeFiles/light_switch_server_nrf52832_xxAA_s132_6.0.0.dir/src/main.c.obj
 .debug_line    0x00000917      0x620 examples/light_switch/server/CMakeFiles/light_switch_server_nrf52832_xxAA_s132_6.0.0.dir/__/__/common/src/app_onoff.c.obj
 .debug_line    0x00000f37      0x590 examples/light_switch/server/CMakeFiles/light_switch_server_nrf52832_xxAA_s132_6.0.0.dir/__/__/__/mesh/stack/src/mesh_stack.c.obj
 .debug_line    0x000014c7      0x41d examples/light_switch/server/CMakeFiles/light_switch_server_nrf52832_xxAA_s132_6.0.0.dir/__/__/common/src/mesh_softdevice_init.c.obj
 .debug_line    0x000018e4      0x545 examples/light_switch/server/CMakeFiles/light_switch_server_nrf52832_xxAA_s132_6.0.0.dir/__/__/common/src/mesh_provisionee.c.obj
 .debug_line    0x00001e29      0x37d examples/light_switch/server/CMakeFiles/light_switch_server_nrf52832_xxAA_s132_6.0.0.dir/__/__/common/src/rtt_input.c.obj
 .debug_line    0x000021a6      0x43a examples/light_switch/server/CMakeFiles/light_switch_server_nrf52832_xxAA_s132_6.0.0.dir/__/__/common/src/simple_hal.c.obj
 .debug_line    0x000025e0      0x1fc examples/light_switch/server/CMakeFiles/light_switch_server_nrf52832_xxAA_s132_6.0.0.dir/__/__/common/src/mesh_app_utils.c.obj
 .debug_line    0x000027dc      0x221 examples/light_switch/server/CMakeFiles/light_switch_server_nrf52832_xxAA_s132_6.0.0.dir/__/__/nrf_mesh_weak.c.obj
 .debug_line    0x000029fd      0x465 examples/light_switch/server/CMakeFiles/light_switch_server_nrf52832_xxAA_s132_6.0.0.dir/__/__/common/src/app_error_weak.c.obj
 .debug_line    0x00002e62      0x222 examples/light_switch/server/CMakeFiles/light_switch_server_nrf52832_xxAA_s132_6.0.0.dir/__/__/common/src/assertion_handler_weak.c.obj
 .debug_line    0x00003084      0x211 examples/light_switch/server/CMakeFiles/light_switch_server_nrf52832_xxAA_s132_6.0.0.dir/__/__/__/mesh/core/src/nrf_mesh_configure.c.obj
 .debug_line    0x00003295      0x294 examples/light_switch/server/CMakeFiles/light_switch_server_nrf52832_xxAA_s132_6.0.0.dir/__/__/__/mesh/core/src/msg_cache.c.obj
 .debug_line    0x00003529      0xd10 examples/light_switch/server/CMakeFiles/light_switch_server_nrf52832_xxAA_s132_6.0.0.dir/__/__/__/mesh/core/src/transport.c.obj
 .debug_line    0x00004239      0x393 examples/light_switch/server/CMakeFiles/light_switch_server_nrf52832_xxAA_s132_6.0.0.dir/__/__/__/mesh/core/src/event.c.obj
 .debug_line    0x000045cc      0x500 examples/light_switch/server/CMakeFiles/light_switch_server_nrf52832_xxAA_s132_6.0.0.dir/__/__/__/mesh/core/src/packet_buffer.c.obj
 .debug_line    0x00004acc      0x705 examples/light_switch/server/CMakeFiles/light_switch_server_nrf52832_xxAA_s132_6.0.0.dir/__/__/__/mesh/core/src/flash_manager_defrag.c.obj
 .debug_line    0x000051d1      0x35e examples/light_switch/server/CMakeFiles/light_switch_server_nrf52832_xxAA_s132_6.0.0.dir/__/__/__/mesh/core/src/fifo.c.obj
 .debug_line    0x0000552f      0x26f examples/light_switch/server/CMakeFiles/light_switch_server_nrf52832_xxAA_s132_6.0.0.dir/__/__/__/mesh/core/src/nrf_flash.c.obj
 .debug_line    0x0000579e      0x448 examples/light_switch/server/CMakeFiles/light_switch_server_nrf52832_xxAA_s132_6.0.0.dir/__/__/__/mesh/core/src/packet_mgr.c.obj
 .debug_line    0x00005be6      0x735 examples/light_switch/server/CMakeFiles/light_switch_server_nrf52832_xxAA_s132_6.0.0.dir/__/__/__/mesh/core/src/net_state.c.obj
 .debug_line    0x0000631b      0x542 examples/light_switch/server/CMakeFiles/light_switch_server_nrf52832_xxAA_s132_6.0.0.dir/__/__/__/mesh/core/src/mesh_flash.c.obj
 .debug_line    0x0000685d      0x288 examples/light_switch/server/CMakeFiles/light_switch_server_nrf52832_xxAA_s132_6.0.0.dir/__/__/__/mesh/core/src/nrf_mesh_utils.c.obj
 .debug_line    0x00006ae5      0x7f8 examples/light_switch/server/CMakeFiles/light_switch_server_nrf52832_xxAA_s132_6.0.0.dir/__/__/__/mesh/core/src/nrf_mesh.c.obj
 .debug_line    0x000072dd      0x2c0 examples/light_switch/server/CMakeFiles/light_switch_server_nrf52832_xxAA_s132_6.0.0.dir/__/__/__/mesh/core/src/queue.c.obj
 .debug_line    0x0000759d      0x23f examples/light_switch/server/CMakeFiles/light_switch_server_nrf52832_xxAA_s132_6.0.0.dir/__/__/__/mesh/core/src/hal.c.obj
 .debug_line    0x000077dc      0x344 examples/light_switch/server/CMakeFiles/light_switch_server_nrf52832_xxAA_s132_6.0.0.dir/__/__/__/mesh/core/src/aes_cmac.c.obj
 .debug_line    0x00007b20      0x3b6 examples/light_switch/server/CMakeFiles/light_switch_server_nrf52832_xxAA_s132_6.0.0.dir/__/__/__/mesh/core/src/timer_scheduler.c.obj
 .debug_line    0x00007ed6      0x39b examples/light_switch/server/CMakeFiles/light_switch_server_nrf52832_xxAA_s132_6.0.0.dir/__/__/__/mesh/core/src/timer.c.obj
 .debug_line    0x00008271      0x265 examples/light_switch/server/CMakeFiles/light_switch_server_nrf52832_xxAA_s132_6.0.0.dir/__/__/__/mesh/core/src/rand.c.obj
 .debug_line    0x000084d6      0x2b5 examples/light_switch/server/CMakeFiles/light_switch_server_nrf52832_xxAA_s132_6.0.0.dir/__/__/__/mesh/core/src/mesh_opt.c.obj
 .debug_line    0x0000878b      0x58a examples/light_switch/server/CMakeFiles/light_switch_server_nrf52832_xxAA_s132_6.0.0.dir/__/__/__/mesh/core/src/timeslot.c.obj
 .debug_line    0x00008d15      0x561 examples/light_switch/server/CMakeFiles/light_switch_server_nrf52832_xxAA_s132_6.0.0.dir/__/__/__/mesh/core/src/bearer_event.c.obj
 .debug_line    0x00009276      0x4c4 examples/light_switch/server/CMakeFiles/light_switch_server_nrf52832_xxAA_s132_6.0.0.dir/__/__/__/mesh/core/src/enc.c.obj
 .debug_line    0x0000973a      0x5d6 examples/light_switch/server/CMakeFiles/light_switch_server_nrf52832_xxAA_s132_6.0.0.dir/__/__/__/mesh/core/src/network.c.obj
 .debug_line    0x00009d10      0x588 examples/light_switch/server/CMakeFiles/light_switch_server_nrf52832_xxAA_s132_6.0.0.dir/__/__/__/mesh/core/src/net_packet.c.obj
 .debug_line    0x0000a298      0x32f examples/light_switch/server/CMakeFiles/light_switch_server_nrf52832_xxAA_s132_6.0.0.dir/__/__/__/mesh/core/src/msqueue.c.obj
 .debug_line    0x0000a5c7      0x222 examples/light_switch/server/CMakeFiles/light_switch_server_nrf52832_xxAA_s132_6.0.0.dir/__/__/__/mesh/core/src/nrf_mesh_keygen.c.obj
 .debug_line    0x0000a7e9      0x2cc examples/light_switch/server/CMakeFiles/light_switch_server_nrf52832_xxAA_s132_6.0.0.dir/__/__/__/mesh/core/src/list.c.obj
 .debug_line    0x0000aab5      0x26c examples/light_switch/server/CMakeFiles/light_switch_server_nrf52832_xxAA_s132_6.0.0.dir/__/__/__/mesh/core/src/log.c.obj
 .debug_line    0x0000ad21      0x930 examples/light_switch/server/CMakeFiles/light_switch_server_nrf52832_xxAA_s132_6.0.0.dir/__/__/__/mesh/core/src/flash_manager.c.obj
 .debug_line    0x0000b651      0x3df examples/light_switch/server/CMakeFiles/light_switch_server_nrf52832_xxAA_s132_6.0.0.dir/__/__/__/mesh/core/src/ccm_soft.c.obj
 .debug_line    0x0000ba30      0x1b9 examples/light_switch/server/CMakeFiles/light_switch_server_nrf52832_xxAA_s132_6.0.0.dir/__/__/__/mesh/core/src/replay_cache.c.obj
 .debug_line    0x0000bbe9      0x4bb examples/light_switch/server/CMakeFiles/light_switch_server_nrf52832_xxAA_s132_6.0.0.dir/__/__/__/mesh/core/src/beacon.c.obj
 .debug_line    0x0000c0a4      0x2a8 examples/light_switch/server/CMakeFiles/light_switch_server_nrf52832_xxAA_s132_6.0.0.dir/__/__/__/mesh/core/src/flash_manager_internal.c.obj
 .debug_line    0x0000c34c      0x3d5 examples/light_switch/server/CMakeFiles/light_switch_server_nrf52832_xxAA_s132_6.0.0.dir/__/__/__/mesh/core/src/core_tx.c.obj
 .debug_line    0x0000c721      0x6a5 examples/light_switch/server/CMakeFiles/light_switch_server_nrf52832_xxAA_s132_6.0.0.dir/__/__/__/mesh/core/src/heartbeat.c.obj
 .debug_line    0x0000cdc6      0x6da examples/light_switch/server/CMakeFiles/light_switch_server_nrf52832_xxAA_s132_6.0.0.dir/__/__/__/mesh/core/src/net_beacon.c.obj
 .debug_line    0x0000d4a0      0x5f7 examples/light_switch/server/CMakeFiles/light_switch_server_nrf52832_xxAA_s132_6.0.0.dir/__/__/__/mesh/core/src/mesh_config.c.obj
 .debug_line    0x0000da97      0x4b4 examples/light_switch/server/CMakeFiles/light_switch_server_nrf52832_xxAA_s132_6.0.0.dir/__/__/__/mesh/core/src/mesh_config_backend.c.obj
 .debug_line    0x0000df4b      0x50d examples/light_switch/server/CMakeFiles/light_switch_server_nrf52832_xxAA_s132_6.0.0.dir/__/__/__/mesh/core/src/mesh_config_flashman_glue.c.obj
 .debug_line    0x0000e458      0x65e examples/light_switch/server/CMakeFiles/light_switch_server_nrf52832_xxAA_s132_6.0.0.dir/__/__/__/mesh/core/src/core_tx_adv.c.obj
 .debug_line    0x0000eab6      0x36d examples/light_switch/server/CMakeFiles/light_switch_server_nrf52832_xxAA_s132_6.0.0.dir/__/__/__/mesh/bearer/src/ad_listener.c.obj
 .debug_line    0x0000ee23      0x419 examples/light_switch/server/CMakeFiles/light_switch_server_nrf52832_xxAA_s132_6.0.0.dir/__/__/__/mesh/bearer/src/ad_type_filter.c.obj
 .debug_line    0x0000f23c      0x718 examples/light_switch/server/CMakeFiles/light_switch_server_nrf52832_xxAA_s132_6.0.0.dir/__/__/__/mesh/bearer/src/advertiser.c.obj
 .debug_line    0x0000f954      0x5d8 examples/light_switch/server/CMakeFiles/light_switch_server_nrf52832_xxAA_s132_6.0.0.dir/__/__/__/mesh/bearer/src/bearer_handler.c.obj
 .debug_line    0x0000ff2c      0x3a9 examples/light_switch/server/CMakeFiles/light_switch_server_nrf52832_xxAA_s132_6.0.0.dir/__/__/__/mesh/bearer/src/broadcast.c.obj
 .debug_line    0x000102d5      0x35c examples/light_switch/server/CMakeFiles/light_switch_server_nrf52832_xxAA_s132_6.0.0.dir/__/__/__/mesh/bearer/src/filter_engine.c.obj
 .debug_line    0x00010631      0x283 examples/light_switch/server/CMakeFiles/light_switch_server_nrf52832_xxAA_s132_6.0.0.dir/__/__/__/mesh/bearer/src/radio_config.c.obj
 .debug_line    0x000108b4      0x705 examples/light_switch/server/CMakeFiles/light_switch_server_nrf52832_xxAA_s132_6.0.0.dir/__/__/__/mesh/bearer/src/scanner.c.obj
 .debug_line    0x00010fb9      0x313 examples/light_switch/server/CMakeFiles/light_switch_server_nrf52832_xxAA_s132_6.0.0.dir/__/__/__/mesh/bearer/src/mesh_pa_lna.c.obj
 .debug_line    0x000112cc      0x2f2 examples/light_switch/server/CMakeFiles/light_switch_server_nrf52832_xxAA_s132_6.0.0.dir/__/__/__/models/foundation/config/src/composition_data.c.obj
 .debug_line    0x000115be     0x13bd examples/light_switch/server/CMakeFiles/light_switch_server_nrf52832_xxAA_s132_6.0.0.dir/__/__/__/models/foundation/config/src/config_server.c.obj
 .debug_line    0x0001297b       0xf0 examples/light_switch/server/CMakeFiles/light_switch_server_nrf52832_xxAA_s132_6.0.0.dir/__/__/__/models/foundation/config/src/packed_index_list.c.obj
 .debug_line    0x00012a6b      0x685 examples/light_switch/server/CMakeFiles/light_switch_server_nrf52832_xxAA_s132_6.0.0.dir/__/__/__/models/foundation/health/src/health_server.c.obj
 .debug_line    0x000130f0      0x48b examples/light_switch/server/CMakeFiles/light_switch_server_nrf52832_xxAA_s132_6.0.0.dir/__/__/__/models/model_spec/generic_onoff/src/generic_onoff_server.c.obj
 .debug_line    0x0001357b      0x50b examples/light_switch/server/CMakeFiles/light_switch_server_nrf52832_xxAA_s132_6.0.0.dir/__/__/__/models/model_spec/common/src/model_common.c.obj
 .debug_line    0x00013a86      0x448 examples/light_switch/server/CMakeFiles/light_switch_server_nrf52832_xxAA_s132_6.0.0.dir/__/__/__/mesh/access/src/access_publish.c.obj
 .debug_line    0x00013ece      0xf78 examples/light_switch/server/CMakeFiles/light_switch_server_nrf52832_xxAA_s132_6.0.0.dir/__/__/__/mesh/access/src/access.c.obj
 .debug_line    0x00014e46      0x56a examples/light_switch/server/CMakeFiles/light_switch_server_nrf52832_xxAA_s132_6.0.0.dir/__/__/__/mesh/access/src/access_reliable.c.obj
 .debug_line    0x000153b0      0x39e examples/light_switch/server/CMakeFiles/light_switch_server_nrf52832_xxAA_s132_6.0.0.dir/__/__/__/mesh/access/src/access_loopback.c.obj
 .debug_line    0x0001574e     0x146a examples/light_switch/server/CMakeFiles/light_switch_server_nrf52832_xxAA_s132_6.0.0.dir/__/__/__/mesh/access/src/device_state_manager.c.obj
 .debug_line    0x00016bb8      0x69d examples/light_switch/server/CMakeFiles/light_switch_server_nrf52832_xxAA_s132_6.0.0.dir/__/__/__/mesh/prov/src/prov_provisionee.c.obj
 .debug_line    0x00017255      0x58b examples/light_switch/server/CMakeFiles/light_switch_server_nrf52832_xxAA_s132_6.0.0.dir/__/__/__/mesh/prov/src/nrf_mesh_prov.c.obj
 .debug_line    0x000177e0      0x3e8 examples/light_switch/server/CMakeFiles/light_switch_server_nrf52832_xxAA_s132_6.0.0.dir/__/__/__/mesh/prov/src/provisioning.c.obj
 .debug_line    0x00017bc8      0x497 examples/light_switch/server/CMakeFiles/light_switch_server_nrf52832_xxAA_s132_6.0.0.dir/__/__/__/mesh/prov/src/prov_beacon.c.obj
 .debug_line    0x0001805f      0x53c examples/light_switch/server/CMakeFiles/light_switch_server_nrf52832_xxAA_s132_6.0.0.dir/__/__/__/mesh/prov/src/prov_utils.c.obj
 .debug_line    0x0001859b      0xb40 examples/light_switch/server/CMakeFiles/light_switch_server_nrf52832_xxAA_s132_6.0.0.dir/__/__/__/mesh/prov/src/prov_bearer_adv.c.obj
 .debug_line    0x000190db      0x23f examples/light_switch/server/CMakeFiles/light_switch_server_nrf52832_xxAA_s132_6.0.0.dir/C_/sdks/nRF5_SDK_15.0.0_a53641a/modules/nrfx/mdk/system_nrf52.c.obj
 .debug_line    0x0001931a      0x25a examples/light_switch/server/CMakeFiles/light_switch_server_nrf52832_xxAA_s132_6.0.0.dir/C_/sdks/nRF5_SDK_15.0.0_a53641a/components/libraries/util/app_error.c.obj
 .debug_line    0x00019574      0x331 examples/light_switch/server/CMakeFiles/light_switch_server_nrf52832_xxAA_s132_6.0.0.dir/C_/sdks/nRF5_SDK_15.0.0_a53641a/components/libraries/util/app_util_platform.c.obj
 .debug_line    0x000198a5      0x6b3 examples/light_switch/server/CMakeFiles/light_switch_server_nrf52832_xxAA_s132_6.0.0.dir/C_/sdks/nRF5_SDK_15.0.0_a53641a/components/libraries/timer/app_timer.c.obj
 .debug_line    0x00019f58      0x1ff examples/light_switch/server/CMakeFiles/light_switch_server_nrf52832_xxAA_s132_6.0.0.dir/C_/sdks/nRF5_SDK_15.0.0_a53641a/components/libraries/util/app_error_handler_gcc.c.obj
 .debug_line    0x0001a157      0x4b4 external/rtt/librtt_nrf52832_xxAA.a(SEGGER_RTT.c.obj)
 .debug_line    0x0001a60b      0x276 external/rtt/librtt_nrf52832_xxAA.a(SEGGER_RTT_printf.c.obj)
 .debug_line    0x0001a881      0x9f3 external/micro-ecc/libuECC_nrf52832_xxAA.a(uECC.c.obj)

.debug_str      0x00000000    0x15811
 .debug_str     0x00000000     0x251f examples/light_switch/server/CMakeFiles/light_switch_server_nrf52832_xxAA_s132_6.0.0.dir/src/main.c.obj
                               0x2984 (size before relaxing)
 .debug_str     0x0000251f      0x1d0 examples/light_switch/server/CMakeFiles/light_switch_server_nrf52832_xxAA_s132_6.0.0.dir/__/__/common/src/app_onoff.c.obj
                               0x1133 (size before relaxing)
 .debug_str     0x000026ef     0x1089 examples/light_switch/server/CMakeFiles/light_switch_server_nrf52832_xxAA_s132_6.0.0.dir/__/__/__/mesh/stack/src/mesh_stack.c.obj
                               0x29f2 (size before relaxing)
 .debug_str     0x00003778      0x6b8 examples/light_switch/server/CMakeFiles/light_switch_server_nrf52832_xxAA_s132_6.0.0.dir/__/__/common/src/mesh_softdevice_init.c.obj
                               0x155c (size before relaxing)
 .debug_str     0x00003e30     0x195d examples/light_switch/server/CMakeFiles/light_switch_server_nrf52832_xxAA_s132_6.0.0.dir/__/__/common/src/mesh_provisionee.c.obj
                               0x269b (size before relaxing)
 .debug_str     0x0000578d      0x136 examples/light_switch/server/CMakeFiles/light_switch_server_nrf52832_xxAA_s132_6.0.0.dir/__/__/common/src/rtt_input.c.obj
                                0x86a (size before relaxing)
 .debug_str     0x000058c3      0x1ce examples/light_switch/server/CMakeFiles/light_switch_server_nrf52832_xxAA_s132_6.0.0.dir/__/__/common/src/simple_hal.c.obj
                                0xd8b (size before relaxing)
 .debug_str     0x00005a91      0x11a examples/light_switch/server/CMakeFiles/light_switch_server_nrf52832_xxAA_s132_6.0.0.dir/__/__/common/src/mesh_app_utils.c.obj
                                0x74a (size before relaxing)
 .debug_str     0x00005bab       0x3c examples/light_switch/server/CMakeFiles/light_switch_server_nrf52832_xxAA_s132_6.0.0.dir/__/__/nrf_mesh_weak.c.obj
                                0x649 (size before relaxing)
 .debug_str     0x00005be7       0xa0 examples/light_switch/server/CMakeFiles/light_switch_server_nrf52832_xxAA_s132_6.0.0.dir/__/__/common/src/app_error_weak.c.obj
                                0x85d (size before relaxing)
 .debug_str     0x00005c87       0x30 examples/light_switch/server/CMakeFiles/light_switch_server_nrf52832_xxAA_s132_6.0.0.dir/__/__/common/src/assertion_handler_weak.c.obj
                                0x672 (size before relaxing)
 .debug_str     0x00005cb7       0x75 examples/light_switch/server/CMakeFiles/light_switch_server_nrf52832_xxAA_s132_6.0.0.dir/__/__/__/mesh/core/src/nrf_mesh_configure.c.obj
                                0x77e (size before relaxing)
 .debug_str     0x00005d2c       0xbb examples/light_switch/server/CMakeFiles/light_switch_server_nrf52832_xxAA_s132_6.0.0.dir/__/__/__/mesh/core/src/msg_cache.c.obj
                                0x6e6 (size before relaxing)
 .debug_str     0x00005de7     0x15c8 examples/light_switch/server/CMakeFiles/light_switch_server_nrf52832_xxAA_s132_6.0.0.dir/__/__/__/mesh/core/src/transport.c.obj
                               0x3293 (size before relaxing)
 .debug_str     0x000073af      0x106 examples/light_switch/server/CMakeFiles/light_switch_server_nrf52832_xxAA_s132_6.0.0.dir/__/__/__/mesh/core/src/event.c.obj
                               0x193f (size before relaxing)
 .debug_str     0x000074b5      0x30d examples/light_switch/server/CMakeFiles/light_switch_server_nrf52832_xxAA_s132_6.0.0.dir/__/__/__/mesh/core/src/packet_buffer.c.obj
                                0xad9 (size before relaxing)
 .debug_str     0x000077c2      0x8fa examples/light_switch/server/CMakeFiles/light_switch_server_nrf52832_xxAA_s132_6.0.0.dir/__/__/__/mesh/core/src/flash_manager_defrag.c.obj
                               0x1131 (size before relaxing)
 .debug_str     0x000080bc       0xa5 examples/light_switch/server/CMakeFiles/light_switch_server_nrf52832_xxAA_s132_6.0.0.dir/__/__/__/mesh/core/src/fifo.c.obj
                                0x6db (size before relaxing)
 .debug_str     0x00008161       0xaa examples/light_switch/server/CMakeFiles/light_switch_server_nrf52832_xxAA_s132_6.0.0.dir/__/__/__/mesh/core/src/nrf_flash.c.obj
                                0x6e8 (size before relaxing)
 .debug_str     0x0000820b      0x287 examples/light_switch/server/CMakeFiles/light_switch_server_nrf52832_xxAA_s132_6.0.0.dir/__/__/__/mesh/core/src/packet_mgr.c.obj
                                0x9d2 (size before relaxing)
 .debug_str     0x00008492      0x582 examples/light_switch/server/CMakeFiles/light_switch_server_nrf52832_xxAA_s132_6.0.0.dir/__/__/__/mesh/core/src/net_state.c.obj
                               0x22e9 (size before relaxing)
 .debug_str     0x00008a14      0x387 examples/light_switch/server/CMakeFiles/light_switch_server_nrf52832_xxAA_s132_6.0.0.dir/__/__/__/mesh/core/src/mesh_flash.c.obj
                                0xd36 (size before relaxing)
 .debug_str     0x00008d9b       0x9b examples/light_switch/server/CMakeFiles/light_switch_server_nrf52832_xxAA_s132_6.0.0.dir/__/__/__/mesh/core/src/nrf_mesh_utils.c.obj
                                0x77e (size before relaxing)
 .debug_str     0x00008e36      0x60c examples/light_switch/server/CMakeFiles/light_switch_server_nrf52832_xxAA_s132_6.0.0.dir/__/__/__/mesh/core/src/nrf_mesh.c.obj
                               0x22fe (size before relaxing)
 .debug_str     0x00009442       0x53 examples/light_switch/server/CMakeFiles/light_switch_server_nrf52832_xxAA_s132_6.0.0.dir/__/__/__/mesh/core/src/queue.c.obj
                                0x6b0 (size before relaxing)
 .debug_str     0x00009495       0xdb examples/light_switch/server/CMakeFiles/light_switch_server_nrf52832_xxAA_s132_6.0.0.dir/__/__/__/mesh/core/src/hal.c.obj
                                0xa61 (size before relaxing)
 .debug_str     0x00009570      0x16e examples/light_switch/server/CMakeFiles/light_switch_server_nrf52832_xxAA_s132_6.0.0.dir/__/__/__/mesh/core/src/aes_cmac.c.obj
                                0xbab (size before relaxing)
 .debug_str     0x000096de      0x13b examples/light_switch/server/CMakeFiles/light_switch_server_nrf52832_xxAA_s132_6.0.0.dir/__/__/__/mesh/core/src/timer_scheduler.c.obj
                                0x8ad (size before relaxing)
 .debug_str     0x00009819      0x220 examples/light_switch/server/CMakeFiles/light_switch_server_nrf52832_xxAA_s132_6.0.0.dir/__/__/__/mesh/core/src/timer.c.obj
                                0x869 (size before relaxing)
 .debug_str     0x00009a39       0xac examples/light_switch/server/CMakeFiles/light_switch_server_nrf52832_xxAA_s132_6.0.0.dir/__/__/__/mesh/core/src/rand.c.obj
                                0x6dd (size before relaxing)
 .debug_str     0x00009ae5      0x165 examples/light_switch/server/CMakeFiles/light_switch_server_nrf52832_xxAA_s132_6.0.0.dir/__/__/__/mesh/core/src/mesh_opt.c.obj
                                0xac2 (size before relaxing)
 .debug_str     0x00009c4a      0x8ab examples/light_switch/server/CMakeFiles/light_switch_server_nrf52832_xxAA_s132_6.0.0.dir/__/__/__/mesh/core/src/timeslot.c.obj
                               0x1823 (size before relaxing)
 .debug_str     0x0000a4f5      0x2a7 examples/light_switch/server/CMakeFiles/light_switch_server_nrf52832_xxAA_s132_6.0.0.dir/__/__/__/mesh/core/src/bearer_event.c.obj
                                0xf02 (size before relaxing)
 .debug_str     0x0000a79c      0x169 examples/light_switch/server/CMakeFiles/light_switch_server_nrf52832_xxAA_s132_6.0.0.dir/__/__/__/mesh/core/src/enc.c.obj
                                0xe82 (size before relaxing)
 .debug_str     0x0000a905      0x336 examples/light_switch/server/CMakeFiles/light_switch_server_nrf52832_xxAA_s132_6.0.0.dir/__/__/__/mesh/core/src/network.c.obj
                               0x15e4 (size before relaxing)
 .debug_str     0x0000ac3b      0x30f examples/light_switch/server/CMakeFiles/light_switch_server_nrf52832_xxAA_s132_6.0.0.dir/__/__/__/mesh/core/src/net_packet.c.obj
                                0xeb3 (size before relaxing)
 .debug_str     0x0000af4a       0x53 examples/light_switch/server/CMakeFiles/light_switch_server_nrf52832_xxAA_s132_6.0.0.dir/__/__/__/mesh/core/src/msqueue.c.obj
                                0x6ec (size before relaxing)
 .debug_str     0x0000af9d       0xc8 examples/light_switch/server/CMakeFiles/light_switch_server_nrf52832_xxAA_s132_6.0.0.dir/__/__/__/mesh/core/src/nrf_mesh_keygen.c.obj
                                0x397 (size before relaxing)
 .debug_str     0x0000b065       0x6a examples/light_switch/server/CMakeFiles/light_switch_server_nrf52832_xxAA_s132_6.0.0.dir/__/__/__/mesh/core/src/list.c.obj
                                0x2be (size before relaxing)
 .debug_str     0x0000b0cf       0xf7 examples/light_switch/server/CMakeFiles/light_switch_server_nrf52832_xxAA_s132_6.0.0.dir/__/__/__/mesh/core/src/log.c.obj
                                0x7d0 (size before relaxing)
 .debug_str     0x0000b1c6      0x566 examples/light_switch/server/CMakeFiles/light_switch_server_nrf52832_xxAA_s132_6.0.0.dir/__/__/__/mesh/core/src/flash_manager.c.obj
                               0x15a5 (size before relaxing)
 .debug_str     0x0000b72c       0xd2 examples/light_switch/server/CMakeFiles/light_switch_server_nrf52832_xxAA_s132_6.0.0.dir/__/__/__/mesh/core/src/ccm_soft.c.obj
                                0xc8b (size before relaxing)
 .debug_str     0x0000b7fe       0x92 examples/light_switch/server/CMakeFiles/light_switch_server_nrf52832_xxAA_s132_6.0.0.dir/__/__/__/mesh/core/src/replay_cache.c.obj
                                0x68d (size before relaxing)
 .debug_str     0x0000b890       0xd4 examples/light_switch/server/CMakeFiles/light_switch_server_nrf52832_xxAA_s132_6.0.0.dir/__/__/__/mesh/core/src/beacon.c.obj
                               0x10f2 (size before relaxing)
 .debug_str     0x0000b964       0x38 examples/light_switch/server/CMakeFiles/light_switch_server_nrf52832_xxAA_s132_6.0.0.dir/__/__/__/mesh/core/src/flash_manager_internal.c.obj
                                0x7d1 (size before relaxing)
 .debug_str     0x0000b99c      0x2be examples/light_switch/server/CMakeFiles/light_switch_server_nrf52832_xxAA_s132_6.0.0.dir/__/__/__/mesh/core/src/core_tx.c.obj
                                0xc1c (size before relaxing)
 .debug_str     0x0000bc5a      0x645 examples/light_switch/server/CMakeFiles/light_switch_server_nrf52832_xxAA_s132_6.0.0.dir/__/__/__/mesh/core/src/heartbeat.c.obj
                               0x255c (size before relaxing)
 .debug_str     0x0000c29f      0x2b2 examples/light_switch/server/CMakeFiles/light_switch_server_nrf52832_xxAA_s132_6.0.0.dir/__/__/__/mesh/core/src/net_beacon.c.obj
                               0x2555 (size before relaxing)
 .debug_str     0x0000c551      0x467 examples/light_switch/server/CMakeFiles/light_switch_server_nrf52832_xxAA_s132_6.0.0.dir/__/__/__/mesh/core/src/mesh_config.c.obj
                               0x2293 (size before relaxing)
 .debug_str     0x0000c9b8      0x23f examples/light_switch/server/CMakeFiles/light_switch_server_nrf52832_xxAA_s132_6.0.0.dir/__/__/__/mesh/core/src/mesh_config_backend.c.obj
                               0x1047 (size before relaxing)
 .debug_str     0x0000cbf7       0xa0 examples/light_switch/server/CMakeFiles/light_switch_server_nrf52832_xxAA_s132_6.0.0.dir/__/__/__/mesh/core/src/mesh_config_flashman_glue.c.obj
                               0x203a (size before relaxing)
 .debug_str     0x0000cc97      0x393 examples/light_switch/server/CMakeFiles/light_switch_server_nrf52832_xxAA_s132_6.0.0.dir/__/__/__/mesh/core/src/core_tx_adv.c.obj
                               0x18a8 (size before relaxing)
 .debug_str     0x0000d02a      0x185 examples/light_switch/server/CMakeFiles/light_switch_server_nrf52832_xxAA_s132_6.0.0.dir/__/__/__/mesh/bearer/src/ad_listener.c.obj
                                0xc0e (size before relaxing)
 .debug_str     0x0000d1af      0x15c examples/light_switch/server/CMakeFiles/light_switch_server_nrf52832_xxAA_s132_6.0.0.dir/__/__/__/mesh/bearer/src/ad_type_filter.c.obj
                                0x9cc (size before relaxing)
 .debug_str     0x0000d30b      0x2ef examples/light_switch/server/CMakeFiles/light_switch_server_nrf52832_xxAA_s132_6.0.0.dir/__/__/__/mesh/bearer/src/advertiser.c.obj
                               0x14f9 (size before relaxing)
 .debug_str     0x0000d5fa      0x3af examples/light_switch/server/CMakeFiles/light_switch_server_nrf52832_xxAA_s132_6.0.0.dir/__/__/__/mesh/bearer/src/bearer_handler.c.obj
                               0x11af (size before relaxing)
 .debug_str     0x0000d9a9      0x219 examples/light_switch/server/CMakeFiles/light_switch_server_nrf52832_xxAA_s132_6.0.0.dir/__/__/__/mesh/bearer/src/broadcast.c.obj
                                0xfdb (size before relaxing)
 .debug_str     0x0000dbc2       0x72 examples/light_switch/server/CMakeFiles/light_switch_server_nrf52832_xxAA_s132_6.0.0.dir/__/__/__/mesh/bearer/src/filter_engine.c.obj
                                0x839 (size before relaxing)
 .debug_str     0x0000dc34       0x79 examples/light_switch/server/CMakeFiles/light_switch_server_nrf52832_xxAA_s132_6.0.0.dir/__/__/__/mesh/bearer/src/radio_config.c.obj
                                0x77a (size before relaxing)
 .debug_str     0x0000dcad      0x49c examples/light_switch/server/CMakeFiles/light_switch_server_nrf52832_xxAA_s132_6.0.0.dir/__/__/__/mesh/bearer/src/scanner.c.obj
                               0x1950 (size before relaxing)
 .debug_str     0x0000e149      0x15f examples/light_switch/server/CMakeFiles/light_switch_server_nrf52832_xxAA_s132_6.0.0.dir/__/__/__/mesh/bearer/src/mesh_pa_lna.c.obj
                                0x7ec (size before relaxing)
 .debug_str     0x0000e2a8      0x248 examples/light_switch/server/CMakeFiles/light_switch_server_nrf52832_xxAA_s132_6.0.0.dir/__/__/__/models/foundation/config/src/composition_data.c.obj
                                0x8e8 (size before relaxing)
 .debug_str     0x0000e4f0     0x2795 examples/light_switch/server/CMakeFiles/light_switch_server_nrf52832_xxAA_s132_6.0.0.dir/__/__/__/models/foundation/config/src/config_server.c.obj
                               0x51aa (size before relaxing)
 .debug_str     0x00010c85       0x74 examples/light_switch/server/CMakeFiles/light_switch_server_nrf52832_xxAA_s132_6.0.0.dir/__/__/__/models/foundation/config/src/packed_index_list.c.obj
                                0x258 (size before relaxing)
 .debug_str     0x00010cf9      0x633 examples/light_switch/server/CMakeFiles/light_switch_server_nrf52832_xxAA_s132_6.0.0.dir/__/__/__/models/foundation/health/src/health_server.c.obj
                               0x1659 (size before relaxing)
 .debug_str     0x0001132c      0x236 examples/light_switch/server/CMakeFiles/light_switch_server_nrf52832_xxAA_s132_6.0.0.dir/__/__/__/models/model_spec/generic_onoff/src/generic_onoff_server.c.obj
                               0x1173 (size before relaxing)
 .debug_str     0x00011562      0x1e2 examples/light_switch/server/CMakeFiles/light_switch_server_nrf52832_xxAA_s132_6.0.0.dir/__/__/__/models/model_spec/common/src/model_common.c.obj
                                0xe47 (size before relaxing)
 .debug_str     0x00011744      0x25c examples/light_switch/server/CMakeFiles/light_switch_server_nrf52832_xxAA_s132_6.0.0.dir/__/__/__/mesh/access/src/access_publish.c.obj
                                0xb8e (size before relaxing)
 .debug_str     0x000119a0      0x8ec examples/light_switch/server/CMakeFiles/light_switch_server_nrf52832_xxAA_s132_6.0.0.dir/__/__/__/mesh/access/src/access.c.obj
                               0x322a (size before relaxing)
 .debug_str     0x0001228c      0x20e examples/light_switch/server/CMakeFiles/light_switch_server_nrf52832_xxAA_s132_6.0.0.dir/__/__/__/mesh/access/src/access_reliable.c.obj
                                0xf9c (size before relaxing)
 .debug_str     0x0001249a       0x87 examples/light_switch/server/CMakeFiles/light_switch_server_nrf52832_xxAA_s132_6.0.0.dir/__/__/__/mesh/access/src/access_loopback.c.obj
                                0xbb5 (size before relaxing)
 .debug_str     0x00012521      0xcf4 examples/light_switch/server/CMakeFiles/light_switch_server_nrf52832_xxAA_s132_6.0.0.dir/__/__/__/mesh/access/src/device_state_manager.c.obj
                               0x3442 (size before relaxing)
 .debug_str     0x00013215      0x613 examples/light_switch/server/CMakeFiles/light_switch_server_nrf52832_xxAA_s132_6.0.0.dir/__/__/__/mesh/prov/src/prov_provisionee.c.obj
                               0x2312 (size before relaxing)
 .debug_str     0x00013828      0x22d examples/light_switch/server/CMakeFiles/light_switch_server_nrf52832_xxAA_s132_6.0.0.dir/__/__/__/mesh/prov/src/nrf_mesh_prov.c.obj
                               0x1ec5 (size before relaxing)
 .debug_str     0x00013a55       0xc8 examples/light_switch/server/CMakeFiles/light_switch_server_nrf52832_xxAA_s132_6.0.0.dir/__/__/__/mesh/prov/src/provisioning.c.obj
                                0xf56 (size before relaxing)
 .debug_str     0x00013b1d       0xb1 examples/light_switch/server/CMakeFiles/light_switch_server_nrf52832_xxAA_s132_6.0.0.dir/__/__/__/mesh/prov/src/prov_beacon.c.obj
                               0x1a13 (size before relaxing)
 .debug_str     0x00013bce      0x27f examples/light_switch/server/CMakeFiles/light_switch_server_nrf52832_xxAA_s132_6.0.0.dir/__/__/__/mesh/prov/src/prov_utils.c.obj
                               0x22a7 (size before relaxing)
 .debug_str     0x00013e4d      0x40b examples/light_switch/server/CMakeFiles/light_switch_server_nrf52832_xxAA_s132_6.0.0.dir/__/__/__/mesh/prov/src/prov_bearer_adv.c.obj
                               0x1baf (size before relaxing)
 .debug_str     0x00014258      0x2e9 examples/light_switch/server/CMakeFiles/light_switch_server_nrf52832_xxAA_s132_6.0.0.dir/C_/sdks/nRF5_SDK_15.0.0_a53641a/modules/nrfx/mdk/system_nrf52.c.obj
                                0x765 (size before relaxing)
 .debug_str     0x00014541       0x9f examples/light_switch/server/CMakeFiles/light_switch_server_nrf52832_xxAA_s132_6.0.0.dir/C_/sdks/nRF5_SDK_15.0.0_a53641a/components/libraries/util/app_error.c.obj
                                0x727 (size before relaxing)
 .debug_str     0x000145e0      0x1e5 examples/light_switch/server/CMakeFiles/light_switch_server_nrf52832_xxAA_s132_6.0.0.dir/C_/sdks/nRF5_SDK_15.0.0_a53641a/components/libraries/util/app_util_platform.c.obj
                                0xc4b (size before relaxing)
 .debug_str     0x000147c5      0x5cb examples/light_switch/server/CMakeFiles/light_switch_server_nrf52832_xxAA_s132_6.0.0.dir/C_/sdks/nRF5_SDK_15.0.0_a53641a/components/libraries/timer/app_timer.c.obj
                               0x1253 (size before relaxing)
 .debug_str     0x00014d90       0x52 examples/light_switch/server/CMakeFiles/light_switch_server_nrf52832_xxAA_s132_6.0.0.dir/C_/sdks/nRF5_SDK_15.0.0_a53641a/components/libraries/util/app_error_handler_gcc.c.obj
                                0x68c (size before relaxing)
 .debug_str     0x00014de2      0x2bf external/rtt/librtt_nrf52832_xxAA.a(SEGGER_RTT.c.obj)
                                0x922 (size before relaxing)
 .debug_str     0x000150a1       0xdf external/rtt/librtt_nrf52832_xxAA.a(SEGGER_RTT_printf.c.obj)
                                0x792 (size before relaxing)
 .debug_str     0x00015180      0x691 external/micro-ecc/libuECC_nrf52832_xxAA.a(uECC.c.obj)
                                0x880 (size before relaxing)

.debug_frame    0x00000000     0x79a0
 .debug_frame   0x00000000      0x13c examples/light_switch/server/CMakeFiles/light_switch_server_nrf52832_xxAA_s132_6.0.0.dir/src/main.c.obj
 .debug_frame   0x0000013c      0x104 examples/light_switch/server/CMakeFiles/light_switch_server_nrf52832_xxAA_s132_6.0.0.dir/__/__/common/src/app_onoff.c.obj
 .debug_frame   0x00000240       0xec examples/light_switch/server/CMakeFiles/light_switch_server_nrf52832_xxAA_s132_6.0.0.dir/__/__/__/mesh/stack/src/mesh_stack.c.obj
 .debug_frame   0x0000032c       0x90 examples/light_switch/server/CMakeFiles/light_switch_server_nrf52832_xxAA_s132_6.0.0.dir/__/__/common/src/mesh_softdevice_init.c.obj
 .debug_frame   0x000003bc       0x80 examples/light_switch/server/CMakeFiles/light_switch_server_nrf52832_xxAA_s132_6.0.0.dir/__/__/common/src/mesh_provisionee.c.obj
 .debug_frame   0x0000043c       0x60 examples/light_switch/server/CMakeFiles/light_switch_server_nrf52832_xxAA_s132_6.0.0.dir/__/__/common/src/rtt_input.c.obj
 .debug_frame   0x0000049c       0xc8 examples/light_switch/server/CMakeFiles/light_switch_server_nrf52832_xxAA_s132_6.0.0.dir/__/__/common/src/simple_hal.c.obj
 .debug_frame   0x00000564       0x2c examples/light_switch/server/CMakeFiles/light_switch_server_nrf52832_xxAA_s132_6.0.0.dir/__/__/common/src/mesh_app_utils.c.obj
 .debug_frame   0x00000590       0x30 examples/light_switch/server/CMakeFiles/light_switch_server_nrf52832_xxAA_s132_6.0.0.dir/__/__/nrf_mesh_weak.c.obj
 .debug_frame   0x000005c0       0x34 examples/light_switch/server/CMakeFiles/light_switch_server_nrf52832_xxAA_s132_6.0.0.dir/__/__/common/src/app_error_weak.c.obj
 .debug_frame   0x000005f4       0x28 examples/light_switch/server/CMakeFiles/light_switch_server_nrf52832_xxAA_s132_6.0.0.dir/__/__/common/src/assertion_handler_weak.c.obj
 .debug_frame   0x0000061c       0x4c examples/light_switch/server/CMakeFiles/light_switch_server_nrf52832_xxAA_s132_6.0.0.dir/__/__/__/mesh/core/src/nrf_mesh_configure.c.obj
 .debug_frame   0x00000668       0x6c examples/light_switch/server/CMakeFiles/light_switch_server_nrf52832_xxAA_s132_6.0.0.dir/__/__/__/mesh/core/src/msg_cache.c.obj
 .debug_frame   0x000006d4      0x3fc examples/light_switch/server/CMakeFiles/light_switch_server_nrf52832_xxAA_s132_6.0.0.dir/__/__/__/mesh/core/src/transport.c.obj
 .debug_frame   0x00000ad0       0x68 examples/light_switch/server/CMakeFiles/light_switch_server_nrf52832_xxAA_s132_6.0.0.dir/__/__/__/mesh/core/src/event.c.obj
 .debug_frame   0x00000b38      0x12c examples/light_switch/server/CMakeFiles/light_switch_server_nrf52832_xxAA_s132_6.0.0.dir/__/__/__/mesh/core/src/packet_buffer.c.obj
 .debug_frame   0x00000c64      0x24c examples/light_switch/server/CMakeFiles/light_switch_server_nrf52832_xxAA_s132_6.0.0.dir/__/__/__/mesh/core/src/flash_manager_defrag.c.obj
 .debug_frame   0x00000eb0       0xd0 examples/light_switch/server/CMakeFiles/light_switch_server_nrf52832_xxAA_s132_6.0.0.dir/__/__/__/mesh/core/src/fifo.c.obj
 .debug_frame   0x00000f80       0x54 examples/light_switch/server/CMakeFiles/light_switch_server_nrf52832_xxAA_s132_6.0.0.dir/__/__/__/mesh/core/src/nrf_flash.c.obj
 .debug_frame   0x00000fd4       0xa0 examples/light_switch/server/CMakeFiles/light_switch_server_nrf52832_xxAA_s132_6.0.0.dir/__/__/__/mesh/core/src/packet_mgr.c.obj
 .debug_frame   0x00001074      0x2b0 examples/light_switch/server/CMakeFiles/light_switch_server_nrf52832_xxAA_s132_6.0.0.dir/__/__/__/mesh/core/src/net_state.c.obj
 .debug_frame   0x00001324      0x150 examples/light_switch/server/CMakeFiles/light_switch_server_nrf52832_xxAA_s132_6.0.0.dir/__/__/__/mesh/core/src/mesh_flash.c.obj
 .debug_frame   0x00001474       0x50 examples/light_switch/server/CMakeFiles/light_switch_server_nrf52832_xxAA_s132_6.0.0.dir/__/__/__/mesh/core/src/nrf_mesh_utils.c.obj
 .debug_frame   0x000014c4      0x188 examples/light_switch/server/CMakeFiles/light_switch_server_nrf52832_xxAA_s132_6.0.0.dir/__/__/__/mesh/core/src/nrf_mesh.c.obj
 .debug_frame   0x0000164c       0x74 examples/light_switch/server/CMakeFiles/light_switch_server_nrf52832_xxAA_s132_6.0.0.dir/__/__/__/mesh/core/src/queue.c.obj
 .debug_frame   0x000016c0       0x78 examples/light_switch/server/CMakeFiles/light_switch_server_nrf52832_xxAA_s132_6.0.0.dir/__/__/__/mesh/core/src/hal.c.obj
 .debug_frame   0x00001738       0x6c examples/light_switch/server/CMakeFiles/light_switch_server_nrf52832_xxAA_s132_6.0.0.dir/__/__/__/mesh/core/src/aes_cmac.c.obj
 .debug_frame   0x000017a4      0x110 examples/light_switch/server/CMakeFiles/light_switch_server_nrf52832_xxAA_s132_6.0.0.dir/__/__/__/mesh/core/src/timer_scheduler.c.obj
 .debug_frame   0x000018b4      0x10c examples/light_switch/server/CMakeFiles/light_switch_server_nrf52832_xxAA_s132_6.0.0.dir/__/__/__/mesh/core/src/timer.c.obj
 .debug_frame   0x000019c0       0x84 examples/light_switch/server/CMakeFiles/light_switch_server_nrf52832_xxAA_s132_6.0.0.dir/__/__/__/mesh/core/src/rand.c.obj
 .debug_frame   0x00001a44       0x20 examples/light_switch/server/CMakeFiles/light_switch_server_nrf52832_xxAA_s132_6.0.0.dir/__/__/__/mesh/core/src/mesh_opt.c.obj
 .debug_frame   0x00001a64      0x1a0 examples/light_switch/server/CMakeFiles/light_switch_server_nrf52832_xxAA_s132_6.0.0.dir/__/__/__/mesh/core/src/timeslot.c.obj
 .debug_frame   0x00001c04      0x1c0 examples/light_switch/server/CMakeFiles/light_switch_server_nrf52832_xxAA_s132_6.0.0.dir/__/__/__/mesh/core/src/bearer_event.c.obj
 .debug_frame   0x00001dc4      0x15c examples/light_switch/server/CMakeFiles/light_switch_server_nrf52832_xxAA_s132_6.0.0.dir/__/__/__/mesh/core/src/enc.c.obj
 .debug_frame   0x00001f20      0x128 examples/light_switch/server/CMakeFiles/light_switch_server_nrf52832_xxAA_s132_6.0.0.dir/__/__/__/mesh/core/src/network.c.obj
 .debug_frame   0x00002048      0x114 examples/light_switch/server/CMakeFiles/light_switch_server_nrf52832_xxAA_s132_6.0.0.dir/__/__/__/mesh/core/src/net_packet.c.obj
 .debug_frame   0x0000215c       0xb4 examples/light_switch/server/CMakeFiles/light_switch_server_nrf52832_xxAA_s132_6.0.0.dir/__/__/__/mesh/core/src/msqueue.c.obj
 .debug_frame   0x00002210       0xb4 examples/light_switch/server/CMakeFiles/light_switch_server_nrf52832_xxAA_s132_6.0.0.dir/__/__/__/mesh/core/src/nrf_mesh_keygen.c.obj
 .debug_frame   0x000022c4       0xc8 examples/light_switch/server/CMakeFiles/light_switch_server_nrf52832_xxAA_s132_6.0.0.dir/__/__/__/mesh/core/src/list.c.obj
 .debug_frame   0x0000238c       0xb0 examples/light_switch/server/CMakeFiles/light_switch_server_nrf52832_xxAA_s132_6.0.0.dir/__/__/__/mesh/core/src/log.c.obj
 .debug_frame   0x0000243c      0x320 examples/light_switch/server/CMakeFiles/light_switch_server_nrf52832_xxAA_s132_6.0.0.dir/__/__/__/mesh/core/src/flash_manager.c.obj
 .debug_frame   0x0000275c       0xf4 examples/light_switch/server/CMakeFiles/light_switch_server_nrf52832_xxAA_s132_6.0.0.dir/__/__/__/mesh/core/src/ccm_soft.c.obj
 .debug_frame   0x00002850       0x80 examples/light_switch/server/CMakeFiles/light_switch_server_nrf52832_xxAA_s132_6.0.0.dir/__/__/__/mesh/core/src/replay_cache.c.obj
 .debug_frame   0x000028d0       0x60 examples/light_switch/server/CMakeFiles/light_switch_server_nrf52832_xxAA_s132_6.0.0.dir/__/__/__/mesh/core/src/beacon.c.obj
 .debug_frame   0x00002930       0x34 examples/light_switch/server/CMakeFiles/light_switch_server_nrf52832_xxAA_s132_6.0.0.dir/__/__/__/mesh/core/src/flash_manager_internal.c.obj
 .debug_frame   0x00002964       0xf0 examples/light_switch/server/CMakeFiles/light_switch_server_nrf52832_xxAA_s132_6.0.0.dir/__/__/__/mesh/core/src/core_tx.c.obj
 .debug_frame   0x00002a54      0x1b8 examples/light_switch/server/CMakeFiles/light_switch_server_nrf52832_xxAA_s132_6.0.0.dir/__/__/__/mesh/core/src/heartbeat.c.obj
 .debug_frame   0x00002c0c      0x190 examples/light_switch/server/CMakeFiles/light_switch_server_nrf52832_xxAA_s132_6.0.0.dir/__/__/__/mesh/core/src/net_beacon.c.obj
 .debug_frame   0x00002d9c      0x1d0 examples/light_switch/server/CMakeFiles/light_switch_server_nrf52832_xxAA_s132_6.0.0.dir/__/__/__/mesh/core/src/mesh_config.c.obj
 .debug_frame   0x00002f6c      0x110 examples/light_switch/server/CMakeFiles/light_switch_server_nrf52832_xxAA_s132_6.0.0.dir/__/__/__/mesh/core/src/mesh_config_backend.c.obj
 .debug_frame   0x0000307c      0x164 examples/light_switch/server/CMakeFiles/light_switch_server_nrf52832_xxAA_s132_6.0.0.dir/__/__/__/mesh/core/src/mesh_config_flashman_glue.c.obj
 .debug_frame   0x000031e0      0x200 examples/light_switch/server/CMakeFiles/light_switch_server_nrf52832_xxAA_s132_6.0.0.dir/__/__/__/mesh/core/src/core_tx_adv.c.obj
 .debug_frame   0x000033e0       0x6c examples/light_switch/server/CMakeFiles/light_switch_server_nrf52832_xxAA_s132_6.0.0.dir/__/__/__/mesh/bearer/src/ad_listener.c.obj
 .debug_frame   0x0000344c       0xa8 examples/light_switch/server/CMakeFiles/light_switch_server_nrf52832_xxAA_s132_6.0.0.dir/__/__/__/mesh/bearer/src/ad_type_filter.c.obj
 .debug_frame   0x000034f4      0x284 examples/light_switch/server/CMakeFiles/light_switch_server_nrf52832_xxAA_s132_6.0.0.dir/__/__/__/mesh/bearer/src/advertiser.c.obj
 .debug_frame   0x00003778      0x1c8 examples/light_switch/server/CMakeFiles/light_switch_server_nrf52832_xxAA_s132_6.0.0.dir/__/__/__/mesh/bearer/src/bearer_handler.c.obj
 .debug_frame   0x00003940       0x7c examples/light_switch/server/CMakeFiles/light_switch_server_nrf52832_xxAA_s132_6.0.0.dir/__/__/__/mesh/bearer/src/broadcast.c.obj
 .debug_frame   0x000039bc       0x74 examples/light_switch/server/CMakeFiles/light_switch_server_nrf52832_xxAA_s132_6.0.0.dir/__/__/__/mesh/bearer/src/filter_engine.c.obj
 .debug_frame   0x00003a30       0x94 examples/light_switch/server/CMakeFiles/light_switch_server_nrf52832_xxAA_s132_6.0.0.dir/__/__/__/mesh/bearer/src/radio_config.c.obj
 .debug_frame   0x00003ac4      0x2cc examples/light_switch/server/CMakeFiles/light_switch_server_nrf52832_xxAA_s132_6.0.0.dir/__/__/__/mesh/bearer/src/scanner.c.obj
 .debug_frame   0x00003d90      0x10c examples/light_switch/server/CMakeFiles/light_switch_server_nrf52832_xxAA_s132_6.0.0.dir/__/__/__/mesh/bearer/src/mesh_pa_lna.c.obj
 .debug_frame   0x00003e9c       0x40 examples/light_switch/server/CMakeFiles/light_switch_server_nrf52832_xxAA_s132_6.0.0.dir/__/__/__/models/foundation/config/src/composition_data.c.obj
 .debug_frame   0x00003edc      0x8d8 examples/light_switch/server/CMakeFiles/light_switch_server_nrf52832_xxAA_s132_6.0.0.dir/__/__/__/models/foundation/config/src/config_server.c.obj
 .debug_frame   0x000047b4       0x2c examples/light_switch/server/CMakeFiles/light_switch_server_nrf52832_xxAA_s132_6.0.0.dir/__/__/__/models/foundation/config/src/packed_index_list.c.obj
 .debug_frame   0x000047e0      0x2a0 examples/light_switch/server/CMakeFiles/light_switch_server_nrf52832_xxAA_s132_6.0.0.dir/__/__/__/models/foundation/health/src/health_server.c.obj
 .debug_frame   0x00004a80       0xc8 examples/light_switch/server/CMakeFiles/light_switch_server_nrf52832_xxAA_s132_6.0.0.dir/__/__/__/models/model_spec/generic_onoff/src/generic_onoff_server.c.obj
 .debug_frame   0x00004b48      0x138 examples/light_switch/server/CMakeFiles/light_switch_server_nrf52832_xxAA_s132_6.0.0.dir/__/__/__/models/model_spec/common/src/model_common.c.obj
 .debug_frame   0x00004c80      0x114 examples/light_switch/server/CMakeFiles/light_switch_server_nrf52832_xxAA_s132_6.0.0.dir/__/__/__/mesh/access/src/access_publish.c.obj
 .debug_frame   0x00004d94      0x5e4 examples/light_switch/server/CMakeFiles/light_switch_server_nrf52832_xxAA_s132_6.0.0.dir/__/__/__/mesh/access/src/access.c.obj
 .debug_frame   0x00005378      0x138 examples/light_switch/server/CMakeFiles/light_switch_server_nrf52832_xxAA_s132_6.0.0.dir/__/__/__/mesh/access/src/access_reliable.c.obj
 .debug_frame   0x000054b0       0x70 examples/light_switch/server/CMakeFiles/light_switch_server_nrf52832_xxAA_s132_6.0.0.dir/__/__/__/mesh/access/src/access_loopback.c.obj
 .debug_frame   0x00005520      0xae0 examples/light_switch/server/CMakeFiles/light_switch_server_nrf52832_xxAA_s132_6.0.0.dir/__/__/__/mesh/access/src/device_state_manager.c.obj
 .debug_frame   0x00006000      0x198 examples/light_switch/server/CMakeFiles/light_switch_server_nrf52832_xxAA_s132_6.0.0.dir/__/__/__/mesh/prov/src/prov_provisionee.c.obj
 .debug_frame   0x00006198      0x160 examples/light_switch/server/CMakeFiles/light_switch_server_nrf52832_xxAA_s132_6.0.0.dir/__/__/__/mesh/prov/src/nrf_mesh_prov.c.obj
 .debug_frame   0x000062f8      0x170 examples/light_switch/server/CMakeFiles/light_switch_server_nrf52832_xxAA_s132_6.0.0.dir/__/__/__/mesh/prov/src/provisioning.c.obj
 .debug_frame   0x00006468       0x84 examples/light_switch/server/CMakeFiles/light_switch_server_nrf52832_xxAA_s132_6.0.0.dir/__/__/__/mesh/prov/src/prov_beacon.c.obj
 .debug_frame   0x000064ec      0x1b0 examples/light_switch/server/CMakeFiles/light_switch_server_nrf52832_xxAA_s132_6.0.0.dir/__/__/__/mesh/prov/src/prov_utils.c.obj
 .debug_frame   0x0000669c      0x32c examples/light_switch/server/CMakeFiles/light_switch_server_nrf52832_xxAA_s132_6.0.0.dir/__/__/__/mesh/prov/src/prov_bearer_adv.c.obj
 .debug_frame   0x000069c8       0x58 examples/light_switch/server/CMakeFiles/light_switch_server_nrf52832_xxAA_s132_6.0.0.dir/C_/sdks/nRF5_SDK_15.0.0_a53641a/modules/nrfx/mdk/system_nrf52.c.obj
 .debug_frame   0x00006a20       0x44 examples/light_switch/server/CMakeFiles/light_switch_server_nrf52832_xxAA_s132_6.0.0.dir/C_/sdks/nRF5_SDK_15.0.0_a53641a/components/libraries/util/app_error.c.obj
 .debug_frame   0x00006a64       0x84 examples/light_switch/server/CMakeFiles/light_switch_server_nrf52832_xxAA_s132_6.0.0.dir/C_/sdks/nRF5_SDK_15.0.0_a53641a/components/libraries/util/app_util_platform.c.obj
 .debug_frame   0x00006ae8      0x16c examples/light_switch/server/CMakeFiles/light_switch_server_nrf52832_xxAA_s132_6.0.0.dir/C_/sdks/nRF5_SDK_15.0.0_a53641a/components/libraries/timer/app_timer.c.obj
 .debug_frame   0x00006c54       0x20 examples/light_switch/server/CMakeFiles/light_switch_server_nrf52832_xxAA_s132_6.0.0.dir/C_/sdks/nRF5_SDK_15.0.0_a53641a/components/libraries/util/app_error_handler_gcc.c.obj
 .debug_frame   0x00006c74      0x2d8 external/rtt/librtt_nrf52832_xxAA.a(SEGGER_RTT.c.obj)
 .debug_frame   0x00006f4c       0xac external/rtt/librtt_nrf52832_xxAA.a(SEGGER_RTT_printf.c.obj)
 .debug_frame   0x00006ff8      0x684 external/micro-ecc/libuECC_nrf52832_xxAA.a(uECC.c.obj)
 .debug_frame   0x0000767c       0x2c c:/arm_gcc/bin/../lib/gcc/arm-none-eabi/6.3.1/thumb/v7e-m/fpv4-sp/hard\libgcc.a(_aeabi_uldivmod.o)
 .debug_frame   0x000076a8       0x34 c:/arm_gcc/bin/../lib/gcc/arm-none-eabi/6.3.1/thumb/v7e-m/fpv4-sp/hard\libgcc.a(_udivmoddi4.o)
 .debug_frame   0x000076dc       0x28 c:/arm_gcc/bin/../lib/gcc/arm-none-eabi/6.3.1/../../../../arm-none-eabi/lib/thumb/v7e-m/fpv4-sp/hard\libg_nano.a(lib_a-exit.o)
 .debug_frame   0x00007704       0x2c c:/arm_gcc/bin/../lib/gcc/arm-none-eabi/6.3.1/../../../../arm-none-eabi/lib/thumb/v7e-m/fpv4-sp/hard\libg_nano.a(lib_a-init.o)
 .debug_frame   0x00007730       0x30 c:/arm_gcc/bin/../lib/gcc/arm-none-eabi/6.3.1/../../../../arm-none-eabi/lib/thumb/v7e-m/fpv4-sp/hard\libg_nano.a(lib_a-malloc.o)
 .debug_frame   0x00007760       0x28 c:/arm_gcc/bin/../lib/gcc/arm-none-eabi/6.3.1/../../../../arm-none-eabi/lib/thumb/v7e-m/fpv4-sp/hard\libg_nano.a(lib_a-memcmp.o)
 .debug_frame   0x00007788       0x28 c:/arm_gcc/bin/../lib/gcc/arm-none-eabi/6.3.1/../../../../arm-none-eabi/lib/thumb/v7e-m/fpv4-sp/hard\libg_nano.a(lib_a-memcpy-stub.o)
 .debug_frame   0x000077b0       0x20 c:/arm_gcc/bin/../lib/gcc/arm-none-eabi/6.3.1/../../../../arm-none-eabi/lib/thumb/v7e-m/fpv4-sp/hard\libg_nano.a(lib_a-memset.o)
 .debug_frame   0x000077d0       0x38 c:/arm_gcc/bin/../lib/gcc/arm-none-eabi/6.3.1/../../../../arm-none-eabi/lib/thumb/v7e-m/fpv4-sp/hard\libg_nano.a(lib_a-nano-freer.o)
 .debug_frame   0x00007808       0x2c c:/arm_gcc/bin/../lib/gcc/arm-none-eabi/6.3.1/../../../../arm-none-eabi/lib/thumb/v7e-m/fpv4-sp/hard\libg_nano.a(lib_a-nano-mallocr.o)
 .debug_frame   0x00007834       0x2c c:/arm_gcc/bin/../lib/gcc/arm-none-eabi/6.3.1/../../../../arm-none-eabi/lib/thumb/v7e-m/fpv4-sp/hard\libg_nano.a(lib_a-sbrkr.o)
 .debug_frame   0x00007860       0x20 c:/arm_gcc/bin/../lib/gcc/arm-none-eabi/6.3.1/../../../../arm-none-eabi/lib/thumb/v7e-m/fpv4-sp/hard\libg_nano.a(lib_a-strcpy.o)
 .debug_frame   0x00007880       0x34 c:/arm_gcc/bin/../lib/gcc/arm-none-eabi/6.3.1/../../../../arm-none-eabi/lib/thumb/v7e-m/fpv4-sp/hard\libg_nano.a(lib_a-strrchr.o)
 .debug_frame   0x000078b4       0x30 c:/arm_gcc/bin/../lib/gcc/arm-none-eabi/6.3.1/../../../../arm-none-eabi/lib/thumb/v7e-m/fpv4-sp/hard\libg_nano.a(lib_a-mlock.o)
 .debug_frame   0x000078e4       0x5c c:/arm_gcc/bin/../lib/gcc/arm-none-eabi/6.3.1/../../../../arm-none-eabi/lib/thumb/v7e-m/fpv4-sp/hard\libg_nano.a(lib_a-reent.o)
 .debug_frame   0x00007940       0x20 c:/arm_gcc/bin/../lib/gcc/arm-none-eabi/6.3.1/../../../../arm-none-eabi/lib/thumb/v7e-m/fpv4-sp/hard\libg_nano.a(lib_a-strchr.o)
 .debug_frame   0x00007960       0x20 c:/arm_gcc/bin/../lib/gcc/arm-none-eabi/6.3.1/../../../../arm-none-eabi/lib/thumb/v7e-m/fpv4-sp/hard\libnosys.a(sbrk.o)
 .debug_frame   0x00007980       0x20 c:/arm_gcc/bin/../lib/gcc/arm-none-eabi/6.3.1/../../../../arm-none-eabi/lib/thumb/v7e-m/fpv4-sp/hard\libnosys.a(_exit.o)
