Archive member included to satisfy reference by file (symbol)

external/rtt/librtt_nrf52840_xxAA.a(SEGGER_RTT.c.obj)
                              examples/light_switch/server/CMakeFiles/light_switch_server_nrf52840_xxAA_s140_6.0.0.dir/__/__/__/mesh/core/src/log.c.obj (SEGGER_RTT_Write)
external/rtt/librtt_nrf52840_xxAA.a(SEGGER_RTT_printf.c.obj)
                              examples/light_switch/server/CMakeFiles/light_switch_server_nrf52840_xxAA_s140_6.0.0.dir/__/__/__/mesh/core/src/log.c.obj (SEGGER_RTT_vprintf)
external/micro-ecc/libuECC_nrf52840_xxAA.a(uECC.c.obj)
                              examples/light_switch/server/CMakeFiles/light_switch_server_nrf52840_xxAA_s140_6.0.0.dir/__/__/__/mesh/prov/src/prov_utils.c.obj (uECC_secp256r1)
c:/mesh/arm_gcc/bin/../lib/gcc/arm-none-eabi/6.3.1/thumb/v7e-m/fpv4-sp/hard\libgcc.a(_aeabi_uldivmod.o)
                              examples/light_switch/server/CMakeFiles/light_switch_server_nrf52840_xxAA_s140_6.0.0.dir/__/__/common/src/rtt_input.c.obj (__aeabi_uldivmod)
c:/mesh/arm_gcc/bin/../lib/gcc/arm-none-eabi/6.3.1/thumb/v7e-m/fpv4-sp/hard\libgcc.a(_udivmoddi4.o)
                              c:/mesh/arm_gcc/bin/../lib/gcc/arm-none-eabi/6.3.1/thumb/v7e-m/fpv4-sp/hard\libgcc.a(_aeabi_uldivmod.o) (__udivmoddi4)
c:/mesh/arm_gcc/bin/../lib/gcc/arm-none-eabi/6.3.1/thumb/v7e-m/fpv4-sp/hard\libgcc.a(_dvmd_tls.o)
                              c:/mesh/arm_gcc/bin/../lib/gcc/arm-none-eabi/6.3.1/thumb/v7e-m/fpv4-sp/hard\libgcc.a(_aeabi_uldivmod.o) (__aeabi_ldiv0)
c:/mesh/arm_gcc/bin/../lib/gcc/arm-none-eabi/6.3.1/../../../../arm-none-eabi/lib/thumb/v7e-m/fpv4-sp/hard\libg_nano.a(lib_a-exit.o)
                              c:/mesh/arm_gcc/bin/../lib/gcc/arm-none-eabi/6.3.1/../../../../arm-none-eabi/lib/thumb/v7e-m/fpv4-sp/hard/crt0.o (exit)
c:/mesh/arm_gcc/bin/../lib/gcc/arm-none-eabi/6.3.1/../../../../arm-none-eabi/lib/thumb/v7e-m/fpv4-sp/hard\libg_nano.a(lib_a-impure.o)
                              c:/mesh/arm_gcc/bin/../lib/gcc/arm-none-eabi/6.3.1/../../../../arm-none-eabi/lib/thumb/v7e-m/fpv4-sp/hard\libg_nano.a(lib_a-exit.o) (_global_impure_ptr)
c:/mesh/arm_gcc/bin/../lib/gcc/arm-none-eabi/6.3.1/../../../../arm-none-eabi/lib/thumb/v7e-m/fpv4-sp/hard\libg_nano.a(lib_a-init.o)
                              c:/mesh/arm_gcc/bin/../lib/gcc/arm-none-eabi/6.3.1/../../../../arm-none-eabi/lib/thumb/v7e-m/fpv4-sp/hard/crt0.o (__libc_init_array)
c:/mesh/arm_gcc/bin/../lib/gcc/arm-none-eabi/6.3.1/../../../../arm-none-eabi/lib/thumb/v7e-m/fpv4-sp/hard\libg_nano.a(lib_a-malloc.o)
                              examples/light_switch/server/CMakeFiles/light_switch_server_nrf52840_xxAA_s140_6.0.0.dir/__/__/__/mesh/core/src/transport.c.obj (malloc)
c:/mesh/arm_gcc/bin/../lib/gcc/arm-none-eabi/6.3.1/../../../../arm-none-eabi/lib/thumb/v7e-m/fpv4-sp/hard\libg_nano.a(lib_a-memcmp.o)
                              examples/light_switch/server/CMakeFiles/light_switch_server_nrf52840_xxAA_s140_6.0.0.dir/__/__/__/mesh/core/src/cache.c.obj (memcmp)
c:/mesh/arm_gcc/bin/../lib/gcc/arm-none-eabi/6.3.1/../../../../arm-none-eabi/lib/thumb/v7e-m/fpv4-sp/hard\libg_nano.a(lib_a-memcpy-stub.o)
                              examples/light_switch/server/CMakeFiles/light_switch_server_nrf52840_xxAA_s140_6.0.0.dir/__/__/common/src/mesh_app_utils.c.obj (memcpy)
c:/mesh/arm_gcc/bin/../lib/gcc/arm-none-eabi/6.3.1/../../../../arm-none-eabi/lib/thumb/v7e-m/fpv4-sp/hard\libg_nano.a(lib_a-memset.o)
                              c:/mesh/arm_gcc/bin/../lib/gcc/arm-none-eabi/6.3.1/../../../../arm-none-eabi/lib/thumb/v7e-m/fpv4-sp/hard/crt0.o (memset)
c:/mesh/arm_gcc/bin/../lib/gcc/arm-none-eabi/6.3.1/../../../../arm-none-eabi/lib/thumb/v7e-m/fpv4-sp/hard\libg_nano.a(lib_a-nano-freer.o)
                              c:/mesh/arm_gcc/bin/../lib/gcc/arm-none-eabi/6.3.1/../../../../arm-none-eabi/lib/thumb/v7e-m/fpv4-sp/hard\libg_nano.a(lib_a-malloc.o) (_free_r)
c:/mesh/arm_gcc/bin/../lib/gcc/arm-none-eabi/6.3.1/../../../../arm-none-eabi/lib/thumb/v7e-m/fpv4-sp/hard\libg_nano.a(lib_a-nano-mallocr.o)
                              c:/mesh/arm_gcc/bin/../lib/gcc/arm-none-eabi/6.3.1/../../../../arm-none-eabi/lib/thumb/v7e-m/fpv4-sp/hard\libg_nano.a(lib_a-malloc.o) (_malloc_r)
c:/mesh/arm_gcc/bin/../lib/gcc/arm-none-eabi/6.3.1/../../../../arm-none-eabi/lib/thumb/v7e-m/fpv4-sp/hard\libg_nano.a(lib_a-sbrkr.o)
                              c:/mesh/arm_gcc/bin/../lib/gcc/arm-none-eabi/6.3.1/../../../../arm-none-eabi/lib/thumb/v7e-m/fpv4-sp/hard\libg_nano.a(lib_a-nano-mallocr.o) (_sbrk_r)
c:/mesh/arm_gcc/bin/../lib/gcc/arm-none-eabi/6.3.1/../../../../arm-none-eabi/lib/thumb/v7e-m/fpv4-sp/hard\libg_nano.a(lib_a-strcpy.o)
                              external/rtt/librtt_nrf52840_xxAA.a(SEGGER_RTT.c.obj) (strcpy)
c:/mesh/arm_gcc/bin/../lib/gcc/arm-none-eabi/6.3.1/../../../../arm-none-eabi/lib/thumb/v7e-m/fpv4-sp/hard\libg_nano.a(lib_a-strlen.o)
                              examples/light_switch/server/CMakeFiles/light_switch_server_nrf52840_xxAA_s140_6.0.0.dir/__/__/__/mesh/prov/src/prov_beacon.c.obj (strlen)
c:/mesh/arm_gcc/bin/../lib/gcc/arm-none-eabi/6.3.1/../../../../arm-none-eabi/lib/thumb/v7e-m/fpv4-sp/hard\libg_nano.a(lib_a-strrchr.o)
                              examples/light_switch/server/CMakeFiles/light_switch_server_nrf52840_xxAA_s140_6.0.0.dir/src/main.c.obj (strrchr)
c:/mesh/arm_gcc/bin/../lib/gcc/arm-none-eabi/6.3.1/../../../../arm-none-eabi/lib/thumb/v7e-m/fpv4-sp/hard\libg_nano.a(lib_a-mlock.o)
                              c:/mesh/arm_gcc/bin/../lib/gcc/arm-none-eabi/6.3.1/../../../../arm-none-eabi/lib/thumb/v7e-m/fpv4-sp/hard\libg_nano.a(lib_a-nano-freer.o) (__malloc_lock)
c:/mesh/arm_gcc/bin/../lib/gcc/arm-none-eabi/6.3.1/../../../../arm-none-eabi/lib/thumb/v7e-m/fpv4-sp/hard\libg_nano.a(lib_a-reent.o)
                              c:/mesh/arm_gcc/bin/../lib/gcc/arm-none-eabi/6.3.1/../../../../arm-none-eabi/lib/thumb/v7e-m/fpv4-sp/hard\libg_nano.a(lib_a-sbrkr.o) (errno)
c:/mesh/arm_gcc/bin/../lib/gcc/arm-none-eabi/6.3.1/../../../../arm-none-eabi/lib/thumb/v7e-m/fpv4-sp/hard\libg_nano.a(lib_a-strchr.o)
                              c:/mesh/arm_gcc/bin/../lib/gcc/arm-none-eabi/6.3.1/../../../../arm-none-eabi/lib/thumb/v7e-m/fpv4-sp/hard\libg_nano.a(lib_a-strrchr.o) (strchr)
c:/mesh/arm_gcc/bin/../lib/gcc/arm-none-eabi/6.3.1/../../../../arm-none-eabi/lib/thumb/v7e-m/fpv4-sp/hard\libnosys.a(sbrk.o)
                              c:/mesh/arm_gcc/bin/../lib/gcc/arm-none-eabi/6.3.1/../../../../arm-none-eabi/lib/thumb/v7e-m/fpv4-sp/hard\libg_nano.a(lib_a-sbrkr.o) (_sbrk)
c:/mesh/arm_gcc/bin/../lib/gcc/arm-none-eabi/6.3.1/../../../../arm-none-eabi/lib/thumb/v7e-m/fpv4-sp/hard\libnosys.a(_exit.o)
                              c:/mesh/arm_gcc/bin/../lib/gcc/arm-none-eabi/6.3.1/../../../../arm-none-eabi/lib/thumb/v7e-m/fpv4-sp/hard\libg_nano.a(lib_a-exit.o) (_exit)

Allocating common symbols
Common symbol       size              file

nrf_nvic_state      0xc               examples/light_switch/server/CMakeFiles/light_switch_server_nrf52840_xxAA_s140_6.0.0.dir/C_/b/nRF5_SDK_15.0.0_a53641a/components/libraries/util/app_util_platform.c.obj
m_packet            0x24              examples/light_switch/server/CMakeFiles/light_switch_server_nrf52840_xxAA_s140_6.0.0.dir/__/__/__/mesh/core/src/core_tx.c.obj
errno               0x4               c:/mesh/arm_gcc/bin/../lib/gcc/arm-none-eabi/6.3.1/../../../../arm-none-eabi/lib/thumb/v7e-m/fpv4-sp/hard\libg_nano.a(lib_a-reent.o)
_SEGGER_RTT         0x78              external/rtt/librtt_nrf52840_xxAA.a(SEGGER_RTT.c.obj)

Discarded input sections

 .text          0x00000000        0x0 c:/mesh/arm_gcc/bin/../lib/gcc/arm-none-eabi/6.3.1/thumb/v7e-m/fpv4-sp/hard/crti.o
 .data          0x00000000        0x0 c:/mesh/arm_gcc/bin/../lib/gcc/arm-none-eabi/6.3.1/thumb/v7e-m/fpv4-sp/hard/crti.o
 .bss           0x00000000        0x0 c:/mesh/arm_gcc/bin/../lib/gcc/arm-none-eabi/6.3.1/thumb/v7e-m/fpv4-sp/hard/crti.o
 .data          0x00000000        0x4 c:/mesh/arm_gcc/bin/../lib/gcc/arm-none-eabi/6.3.1/thumb/v7e-m/fpv4-sp/hard/crtbegin.o
 .data          0x00000000        0x0 c:/mesh/arm_gcc/bin/../lib/gcc/arm-none-eabi/6.3.1/../../../../arm-none-eabi/lib/thumb/v7e-m/fpv4-sp/hard/crt0.o
 .bss           0x00000000        0x0 c:/mesh/arm_gcc/bin/../lib/gcc/arm-none-eabi/6.3.1/../../../../arm-none-eabi/lib/thumb/v7e-m/fpv4-sp/hard/crt0.o
 .ARM.extab     0x00000000        0x0 c:/mesh/arm_gcc/bin/../lib/gcc/arm-none-eabi/6.3.1/../../../../arm-none-eabi/lib/thumb/v7e-m/fpv4-sp/hard/crt0.o
 .text          0x00000000        0x0 examples/light_switch/server/CMakeFiles/light_switch_server_nrf52840_xxAA_s140_6.0.0.dir/src/main.c.obj
 .data          0x00000000        0x0 examples/light_switch/server/CMakeFiles/light_switch_server_nrf52840_xxAA_s140_6.0.0.dir/src/main.c.obj
 .bss           0x00000000        0x0 examples/light_switch/server/CMakeFiles/light_switch_server_nrf52840_xxAA_s140_6.0.0.dir/src/main.c.obj
 .text          0x00000000        0x0 examples/light_switch/server/CMakeFiles/light_switch_server_nrf52840_xxAA_s140_6.0.0.dir/__/__/__/mesh/stack/src/mesh_stack.c.obj
 .data          0x00000000        0x0 examples/light_switch/server/CMakeFiles/light_switch_server_nrf52840_xxAA_s140_6.0.0.dir/__/__/__/mesh/stack/src/mesh_stack.c.obj
 .bss           0x00000000        0x0 examples/light_switch/server/CMakeFiles/light_switch_server_nrf52840_xxAA_s140_6.0.0.dir/__/__/__/mesh/stack/src/mesh_stack.c.obj
 .text          0x00000000        0x0 examples/light_switch/server/CMakeFiles/light_switch_server_nrf52840_xxAA_s140_6.0.0.dir/__/__/common/src/mesh_softdevice_init.c.obj
 .data          0x00000000        0x0 examples/light_switch/server/CMakeFiles/light_switch_server_nrf52840_xxAA_s140_6.0.0.dir/__/__/common/src/mesh_softdevice_init.c.obj
 .bss           0x00000000        0x0 examples/light_switch/server/CMakeFiles/light_switch_server_nrf52840_xxAA_s140_6.0.0.dir/__/__/common/src/mesh_softdevice_init.c.obj
 .text          0x00000000        0x0 examples/light_switch/server/CMakeFiles/light_switch_server_nrf52840_xxAA_s140_6.0.0.dir/__/__/common/src/mesh_provisionee.c.obj
 .data          0x00000000        0x0 examples/light_switch/server/CMakeFiles/light_switch_server_nrf52840_xxAA_s140_6.0.0.dir/__/__/common/src/mesh_provisionee.c.obj
 .bss           0x00000000        0x0 examples/light_switch/server/CMakeFiles/light_switch_server_nrf52840_xxAA_s140_6.0.0.dir/__/__/common/src/mesh_provisionee.c.obj
 .text          0x00000000        0x0 examples/light_switch/server/CMakeFiles/light_switch_server_nrf52840_xxAA_s140_6.0.0.dir/__/__/common/src/rtt_input.c.obj
 .data          0x00000000        0x0 examples/light_switch/server/CMakeFiles/light_switch_server_nrf52840_xxAA_s140_6.0.0.dir/__/__/common/src/rtt_input.c.obj
 .bss           0x00000000        0x0 examples/light_switch/server/CMakeFiles/light_switch_server_nrf52840_xxAA_s140_6.0.0.dir/__/__/common/src/rtt_input.c.obj
 .text.rtt_input_disable
                0x00000000       0x28 examples/light_switch/server/CMakeFiles/light_switch_server_nrf52840_xxAA_s140_6.0.0.dir/__/__/common/src/rtt_input.c.obj
 .text          0x00000000        0x0 examples/light_switch/server/CMakeFiles/light_switch_server_nrf52840_xxAA_s140_6.0.0.dir/__/__/common/src/simple_hal.c.obj
 .data          0x00000000        0x0 examples/light_switch/server/CMakeFiles/light_switch_server_nrf52840_xxAA_s140_6.0.0.dir/__/__/common/src/simple_hal.c.obj
 .bss           0x00000000        0x0 examples/light_switch/server/CMakeFiles/light_switch_server_nrf52840_xxAA_s140_6.0.0.dir/__/__/common/src/simple_hal.c.obj
 .text          0x00000000        0x0 examples/light_switch/server/CMakeFiles/light_switch_server_nrf52840_xxAA_s140_6.0.0.dir/__/__/common/src/mesh_app_utils.c.obj
 .data          0x00000000        0x0 examples/light_switch/server/CMakeFiles/light_switch_server_nrf52840_xxAA_s140_6.0.0.dir/__/__/common/src/mesh_app_utils.c.obj
 .bss           0x00000000        0x0 examples/light_switch/server/CMakeFiles/light_switch_server_nrf52840_xxAA_s140_6.0.0.dir/__/__/common/src/mesh_app_utils.c.obj
 .text          0x00000000        0x0 examples/light_switch/server/CMakeFiles/light_switch_server_nrf52840_xxAA_s140_6.0.0.dir/__/__/nrf_mesh_weak.c.obj
 .data          0x00000000        0x0 examples/light_switch/server/CMakeFiles/light_switch_server_nrf52840_xxAA_s140_6.0.0.dir/__/__/nrf_mesh_weak.c.obj
 .bss           0x00000000        0x0 examples/light_switch/server/CMakeFiles/light_switch_server_nrf52840_xxAA_s140_6.0.0.dir/__/__/nrf_mesh_weak.c.obj
 .text._weak_handler_ptr
                0x00000000        0x4 examples/light_switch/server/CMakeFiles/light_switch_server_nrf52840_xxAA_s140_6.0.0.dir/__/__/nrf_mesh_weak.c.obj
 .text          0x00000000        0x0 examples/light_switch/server/CMakeFiles/light_switch_server_nrf52840_xxAA_s140_6.0.0.dir/__/__/common/src/app_error_weak.c.obj
 .data          0x00000000        0x0 examples/light_switch/server/CMakeFiles/light_switch_server_nrf52840_xxAA_s140_6.0.0.dir/__/__/common/src/app_error_weak.c.obj
 .bss           0x00000000        0x0 examples/light_switch/server/CMakeFiles/light_switch_server_nrf52840_xxAA_s140_6.0.0.dir/__/__/common/src/app_error_weak.c.obj
 .text          0x00000000        0x0 examples/light_switch/server/CMakeFiles/light_switch_server_nrf52840_xxAA_s140_6.0.0.dir/__/__/common/src/assertion_handler_weak.c.obj
 .data          0x00000000        0x0 examples/light_switch/server/CMakeFiles/light_switch_server_nrf52840_xxAA_s140_6.0.0.dir/__/__/common/src/assertion_handler_weak.c.obj
 .bss           0x00000000        0x0 examples/light_switch/server/CMakeFiles/light_switch_server_nrf52840_xxAA_s140_6.0.0.dir/__/__/common/src/assertion_handler_weak.c.obj
 .text          0x00000000        0x0 examples/light_switch/server/CMakeFiles/light_switch_server_nrf52840_xxAA_s140_6.0.0.dir/__/__/__/mesh/core/src/internal_event.c.obj
 .data          0x00000000        0x0 examples/light_switch/server/CMakeFiles/light_switch_server_nrf52840_xxAA_s140_6.0.0.dir/__/__/__/mesh/core/src/internal_event.c.obj
 .bss           0x00000000        0x0 examples/light_switch/server/CMakeFiles/light_switch_server_nrf52840_xxAA_s140_6.0.0.dir/__/__/__/mesh/core/src/internal_event.c.obj
 .debug_info    0x00000000      0x8f2 examples/light_switch/server/CMakeFiles/light_switch_server_nrf52840_xxAA_s140_6.0.0.dir/__/__/__/mesh/core/src/internal_event.c.obj
 .debug_abbrev  0x00000000      0x192 examples/light_switch/server/CMakeFiles/light_switch_server_nrf52840_xxAA_s140_6.0.0.dir/__/__/__/mesh/core/src/internal_event.c.obj
 .debug_aranges
                0x00000000       0x18 examples/light_switch/server/CMakeFiles/light_switch_server_nrf52840_xxAA_s140_6.0.0.dir/__/__/__/mesh/core/src/internal_event.c.obj
 .debug_line    0x00000000      0x1a6 examples/light_switch/server/CMakeFiles/light_switch_server_nrf52840_xxAA_s140_6.0.0.dir/__/__/__/mesh/core/src/internal_event.c.obj
 .debug_str     0x00000000      0x602 examples/light_switch/server/CMakeFiles/light_switch_server_nrf52840_xxAA_s140_6.0.0.dir/__/__/__/mesh/core/src/internal_event.c.obj
 .comment       0x00000000       0x80 examples/light_switch/server/CMakeFiles/light_switch_server_nrf52840_xxAA_s140_6.0.0.dir/__/__/__/mesh/core/src/internal_event.c.obj
 .ARM.attributes
                0x00000000       0x39 examples/light_switch/server/CMakeFiles/light_switch_server_nrf52840_xxAA_s140_6.0.0.dir/__/__/__/mesh/core/src/internal_event.c.obj
 .text          0x00000000        0x0 examples/light_switch/server/CMakeFiles/light_switch_server_nrf52840_xxAA_s140_6.0.0.dir/__/__/__/mesh/core/src/nrf_mesh_configure.c.obj
 .data          0x00000000        0x0 examples/light_switch/server/CMakeFiles/light_switch_server_nrf52840_xxAA_s140_6.0.0.dir/__/__/__/mesh/core/src/nrf_mesh_configure.c.obj
 .bss           0x00000000        0x0 examples/light_switch/server/CMakeFiles/light_switch_server_nrf52840_xxAA_s140_6.0.0.dir/__/__/__/mesh/core/src/nrf_mesh_configure.c.obj
 .text          0x00000000        0x0 examples/light_switch/server/CMakeFiles/light_switch_server_nrf52840_xxAA_s140_6.0.0.dir/__/__/__/mesh/core/src/aes.c.obj
 .data          0x00000000        0x0 examples/light_switch/server/CMakeFiles/light_switch_server_nrf52840_xxAA_s140_6.0.0.dir/__/__/__/mesh/core/src/aes.c.obj
 .bss           0x00000000        0x0 examples/light_switch/server/CMakeFiles/light_switch_server_nrf52840_xxAA_s140_6.0.0.dir/__/__/__/mesh/core/src/aes.c.obj
 .debug_info    0x00000000       0xb3 examples/light_switch/server/CMakeFiles/light_switch_server_nrf52840_xxAA_s140_6.0.0.dir/__/__/__/mesh/core/src/aes.c.obj
 .debug_abbrev  0x00000000       0x5c examples/light_switch/server/CMakeFiles/light_switch_server_nrf52840_xxAA_s140_6.0.0.dir/__/__/__/mesh/core/src/aes.c.obj
 .debug_aranges
                0x00000000       0x18 examples/light_switch/server/CMakeFiles/light_switch_server_nrf52840_xxAA_s140_6.0.0.dir/__/__/__/mesh/core/src/aes.c.obj
 .debug_line    0x00000000      0x127 examples/light_switch/server/CMakeFiles/light_switch_server_nrf52840_xxAA_s140_6.0.0.dir/__/__/__/mesh/core/src/aes.c.obj
 .debug_str     0x00000000      0x1f4 examples/light_switch/server/CMakeFiles/light_switch_server_nrf52840_xxAA_s140_6.0.0.dir/__/__/__/mesh/core/src/aes.c.obj
 .comment       0x00000000       0x80 examples/light_switch/server/CMakeFiles/light_switch_server_nrf52840_xxAA_s140_6.0.0.dir/__/__/__/mesh/core/src/aes.c.obj
 .ARM.attributes
                0x00000000       0x39 examples/light_switch/server/CMakeFiles/light_switch_server_nrf52840_xxAA_s140_6.0.0.dir/__/__/__/mesh/core/src/aes.c.obj
 .text          0x00000000        0x0 examples/light_switch/server/CMakeFiles/light_switch_server_nrf52840_xxAA_s140_6.0.0.dir/__/__/__/mesh/core/src/msg_cache.c.obj
 .data          0x00000000        0x0 examples/light_switch/server/CMakeFiles/light_switch_server_nrf52840_xxAA_s140_6.0.0.dir/__/__/__/mesh/core/src/msg_cache.c.obj
 .bss           0x00000000        0x0 examples/light_switch/server/CMakeFiles/light_switch_server_nrf52840_xxAA_s140_6.0.0.dir/__/__/__/mesh/core/src/msg_cache.c.obj
 .text.msg_cache_clear
                0x00000000       0x18 examples/light_switch/server/CMakeFiles/light_switch_server_nrf52840_xxAA_s140_6.0.0.dir/__/__/__/mesh/core/src/msg_cache.c.obj
 .text          0x00000000        0x0 examples/light_switch/server/CMakeFiles/light_switch_server_nrf52840_xxAA_s140_6.0.0.dir/__/__/__/mesh/core/src/transport.c.obj
 .data          0x00000000        0x0 examples/light_switch/server/CMakeFiles/light_switch_server_nrf52840_xxAA_s140_6.0.0.dir/__/__/__/mesh/core/src/transport.c.obj
 .bss           0x00000000        0x0 examples/light_switch/server/CMakeFiles/light_switch_server_nrf52840_xxAA_s140_6.0.0.dir/__/__/__/mesh/core/src/transport.c.obj
 .text.transport_sar_mem_funcs_set
                0x00000000       0x44 examples/light_switch/server/CMakeFiles/light_switch_server_nrf52840_xxAA_s140_6.0.0.dir/__/__/__/mesh/core/src/transport.c.obj
 .text          0x00000000        0x0 examples/light_switch/server/CMakeFiles/light_switch_server_nrf52840_xxAA_s140_6.0.0.dir/__/__/__/mesh/core/src/event.c.obj
 .data          0x00000000        0x0 examples/light_switch/server/CMakeFiles/light_switch_server_nrf52840_xxAA_s140_6.0.0.dir/__/__/__/mesh/core/src/event.c.obj
 .bss           0x00000000        0x0 examples/light_switch/server/CMakeFiles/light_switch_server_nrf52840_xxAA_s140_6.0.0.dir/__/__/__/mesh/core/src/event.c.obj
 .text          0x00000000        0x0 examples/light_switch/server/CMakeFiles/light_switch_server_nrf52840_xxAA_s140_6.0.0.dir/__/__/__/mesh/core/src/packet_buffer.c.obj
 .data          0x00000000        0x0 examples/light_switch/server/CMakeFiles/light_switch_server_nrf52840_xxAA_s140_6.0.0.dir/__/__/__/mesh/core/src/packet_buffer.c.obj
 .bss           0x00000000        0x0 examples/light_switch/server/CMakeFiles/light_switch_server_nrf52840_xxAA_s140_6.0.0.dir/__/__/__/mesh/core/src/packet_buffer.c.obj
 .text.packet_buffer_max_packet_len_get
                0x00000000       0x20 examples/light_switch/server/CMakeFiles/light_switch_server_nrf52840_xxAA_s140_6.0.0.dir/__/__/__/mesh/core/src/packet_buffer.c.obj
 .text          0x00000000        0x0 examples/light_switch/server/CMakeFiles/light_switch_server_nrf52840_xxAA_s140_6.0.0.dir/__/__/__/mesh/core/src/flash_manager_defrag.c.obj
 .data          0x00000000        0x0 examples/light_switch/server/CMakeFiles/light_switch_server_nrf52840_xxAA_s140_6.0.0.dir/__/__/__/mesh/core/src/flash_manager_defrag.c.obj
 .bss           0x00000000        0x0 examples/light_switch/server/CMakeFiles/light_switch_server_nrf52840_xxAA_s140_6.0.0.dir/__/__/__/mesh/core/src/flash_manager_defrag.c.obj
 .text.flash_manager_defragging
                0x00000000       0x38 examples/light_switch/server/CMakeFiles/light_switch_server_nrf52840_xxAA_s140_6.0.0.dir/__/__/__/mesh/core/src/flash_manager_defrag.c.obj
 .text          0x00000000        0x0 examples/light_switch/server/CMakeFiles/light_switch_server_nrf52840_xxAA_s140_6.0.0.dir/__/__/__/mesh/core/src/fifo.c.obj
 .data          0x00000000        0x0 examples/light_switch/server/CMakeFiles/light_switch_server_nrf52840_xxAA_s140_6.0.0.dir/__/__/__/mesh/core/src/fifo.c.obj
 .bss           0x00000000        0x0 examples/light_switch/server/CMakeFiles/light_switch_server_nrf52840_xxAA_s140_6.0.0.dir/__/__/__/mesh/core/src/fifo.c.obj
 .text.fifo_peek_at
                0x00000000       0x50 examples/light_switch/server/CMakeFiles/light_switch_server_nrf52840_xxAA_s140_6.0.0.dir/__/__/__/mesh/core/src/fifo.c.obj
 .text.fifo_peek
                0x00000000        0x6 examples/light_switch/server/CMakeFiles/light_switch_server_nrf52840_xxAA_s140_6.0.0.dir/__/__/__/mesh/core/src/fifo.c.obj
 .text.fifo_flush
                0x00000000        0x6 examples/light_switch/server/CMakeFiles/light_switch_server_nrf52840_xxAA_s140_6.0.0.dir/__/__/__/mesh/core/src/fifo.c.obj
 .text.fifo_get_len
                0x00000000        0x8 examples/light_switch/server/CMakeFiles/light_switch_server_nrf52840_xxAA_s140_6.0.0.dir/__/__/__/mesh/core/src/fifo.c.obj
 .text.fifo_is_full
                0x00000000       0x10 examples/light_switch/server/CMakeFiles/light_switch_server_nrf52840_xxAA_s140_6.0.0.dir/__/__/__/mesh/core/src/fifo.c.obj
 .text.fifo_is_empty
                0x00000000        0xc examples/light_switch/server/CMakeFiles/light_switch_server_nrf52840_xxAA_s140_6.0.0.dir/__/__/__/mesh/core/src/fifo.c.obj
 .text          0x00000000        0x0 examples/light_switch/server/CMakeFiles/light_switch_server_nrf52840_xxAA_s140_6.0.0.dir/__/__/__/mesh/core/src/nrf_flash.c.obj
 .data          0x00000000        0x0 examples/light_switch/server/CMakeFiles/light_switch_server_nrf52840_xxAA_s140_6.0.0.dir/__/__/__/mesh/core/src/nrf_flash.c.obj
 .bss           0x00000000        0x0 examples/light_switch/server/CMakeFiles/light_switch_server_nrf52840_xxAA_s140_6.0.0.dir/__/__/__/mesh/core/src/nrf_flash.c.obj
 .text          0x00000000        0x0 examples/light_switch/server/CMakeFiles/light_switch_server_nrf52840_xxAA_s140_6.0.0.dir/__/__/__/mesh/core/src/packet_mgr.c.obj
 .data          0x00000000        0x0 examples/light_switch/server/CMakeFiles/light_switch_server_nrf52840_xxAA_s140_6.0.0.dir/__/__/__/mesh/core/src/packet_mgr.c.obj
 .bss           0x00000000        0x0 examples/light_switch/server/CMakeFiles/light_switch_server_nrf52840_xxAA_s140_6.0.0.dir/__/__/__/mesh/core/src/packet_mgr.c.obj
 .text.packet_mgr_alloc
                0x00000000      0x17c examples/light_switch/server/CMakeFiles/light_switch_server_nrf52840_xxAA_s140_6.0.0.dir/__/__/__/mesh/core/src/packet_mgr.c.obj
 .text.packet_mgr_free
                0x00000000       0x58 examples/light_switch/server/CMakeFiles/light_switch_server_nrf52840_xxAA_s140_6.0.0.dir/__/__/__/mesh/core/src/packet_mgr.c.obj
 .text.packet_mgr_get_free_space
                0x00000000       0x1c examples/light_switch/server/CMakeFiles/light_switch_server_nrf52840_xxAA_s140_6.0.0.dir/__/__/__/mesh/core/src/packet_mgr.c.obj
 .text.packet_mgr_refcount_get
                0x00000000        0x6 examples/light_switch/server/CMakeFiles/light_switch_server_nrf52840_xxAA_s140_6.0.0.dir/__/__/__/mesh/core/src/packet_mgr.c.obj
 .text.packet_mgr_size_get
                0x00000000        0x6 examples/light_switch/server/CMakeFiles/light_switch_server_nrf52840_xxAA_s140_6.0.0.dir/__/__/__/mesh/core/src/packet_mgr.c.obj
 .text          0x00000000        0x0 examples/light_switch/server/CMakeFiles/light_switch_server_nrf52840_xxAA_s140_6.0.0.dir/__/__/__/mesh/core/src/net_state.c.obj
 .data          0x00000000        0x0 examples/light_switch/server/CMakeFiles/light_switch_server_nrf52840_xxAA_s140_6.0.0.dir/__/__/__/mesh/core/src/net_state.c.obj
 .bss           0x00000000        0x0 examples/light_switch/server/CMakeFiles/light_switch_server_nrf52840_xxAA_s140_6.0.0.dir/__/__/__/mesh/core/src/net_state.c.obj
 .text.net_state_iv_update_test_mode_set
                0x00000000        0xc examples/light_switch/server/CMakeFiles/light_switch_server_nrf52840_xxAA_s140_6.0.0.dir/__/__/__/mesh/core/src/net_state.c.obj
 .text.net_state_test_mode_transition_run
                0x00000000       0x2c examples/light_switch/server/CMakeFiles/light_switch_server_nrf52840_xxAA_s140_6.0.0.dir/__/__/__/mesh/core/src/net_state.c.obj
 .text          0x00000000        0x0 examples/light_switch/server/CMakeFiles/light_switch_server_nrf52840_xxAA_s140_6.0.0.dir/__/__/__/mesh/core/src/mesh_flash.c.obj
 .data          0x00000000        0x0 examples/light_switch/server/CMakeFiles/light_switch_server_nrf52840_xxAA_s140_6.0.0.dir/__/__/__/mesh/core/src/mesh_flash.c.obj
 .bss           0x00000000        0x0 examples/light_switch/server/CMakeFiles/light_switch_server_nrf52840_xxAA_s140_6.0.0.dir/__/__/__/mesh/core/src/mesh_flash.c.obj
 .text.mesh_flash_op_available_slots
                0x00000000       0x2c examples/light_switch/server/CMakeFiles/light_switch_server_nrf52840_xxAA_s140_6.0.0.dir/__/__/__/mesh/core/src/mesh_flash.c.obj
 .text.mesh_flash_in_progress
                0x00000000       0x34 examples/light_switch/server/CMakeFiles/light_switch_server_nrf52840_xxAA_s140_6.0.0.dir/__/__/__/mesh/core/src/mesh_flash.c.obj
 .text.mesh_flash_set_suspended
                0x00000000       0x74 examples/light_switch/server/CMakeFiles/light_switch_server_nrf52840_xxAA_s140_6.0.0.dir/__/__/__/mesh/core/src/mesh_flash.c.obj
 .bss.suspend_count.10421
                0x00000000        0x4 examples/light_switch/server/CMakeFiles/light_switch_server_nrf52840_xxAA_s140_6.0.0.dir/__/__/__/mesh/core/src/mesh_flash.c.obj
 .text          0x00000000        0x0 examples/light_switch/server/CMakeFiles/light_switch_server_nrf52840_xxAA_s140_6.0.0.dir/__/__/__/mesh/core/src/nrf_mesh_utils.c.obj
 .data          0x00000000        0x0 examples/light_switch/server/CMakeFiles/light_switch_server_nrf52840_xxAA_s140_6.0.0.dir/__/__/__/mesh/core/src/nrf_mesh_utils.c.obj
 .bss           0x00000000        0x0 examples/light_switch/server/CMakeFiles/light_switch_server_nrf52840_xxAA_s140_6.0.0.dir/__/__/__/mesh/core/src/nrf_mesh_utils.c.obj
 .text.nrf_mesh_rand_get
                0x00000000       0x10 examples/light_switch/server/CMakeFiles/light_switch_server_nrf52840_xxAA_s140_6.0.0.dir/__/__/__/mesh/core/src/nrf_mesh_utils.c.obj
 .text.nrf_mesh_gap_address_type_get
                0x00000000       0x30 examples/light_switch/server/CMakeFiles/light_switch_server_nrf52840_xxAA_s140_6.0.0.dir/__/__/__/mesh/core/src/nrf_mesh_utils.c.obj
 .text          0x00000000        0x0 examples/light_switch/server/CMakeFiles/light_switch_server_nrf52840_xxAA_s140_6.0.0.dir/__/__/__/mesh/core/src/nrf_mesh.c.obj
 .data          0x00000000        0x0 examples/light_switch/server/CMakeFiles/light_switch_server_nrf52840_xxAA_s140_6.0.0.dir/__/__/__/mesh/core/src/nrf_mesh.c.obj
 .bss           0x00000000        0x0 examples/light_switch/server/CMakeFiles/light_switch_server_nrf52840_xxAA_s140_6.0.0.dir/__/__/__/mesh/core/src/nrf_mesh.c.obj
 .text.nrf_mesh_disable
                0x00000000       0x28 examples/light_switch/server/CMakeFiles/light_switch_server_nrf52840_xxAA_s140_6.0.0.dir/__/__/__/mesh/core/src/nrf_mesh.c.obj
 .text.nrf_mesh_process
                0x00000000        0x4 examples/light_switch/server/CMakeFiles/light_switch_server_nrf52840_xxAA_s140_6.0.0.dir/__/__/__/mesh/core/src/nrf_mesh.c.obj
 .text.nrf_mesh_evt_handler_remove
                0x00000000        0x4 examples/light_switch/server/CMakeFiles/light_switch_server_nrf52840_xxAA_s140_6.0.0.dir/__/__/__/mesh/core/src/nrf_mesh.c.obj
 .text.nrf_mesh_rx_cb_set
                0x00000000        0xc examples/light_switch/server/CMakeFiles/light_switch_server_nrf52840_xxAA_s140_6.0.0.dir/__/__/__/mesh/core/src/nrf_mesh.c.obj
 .text.nrf_mesh_rx_cb_clear
                0x00000000        0xc examples/light_switch/server/CMakeFiles/light_switch_server_nrf52840_xxAA_s140_6.0.0.dir/__/__/__/mesh/core/src/nrf_mesh.c.obj
 .text          0x00000000        0x0 examples/light_switch/server/CMakeFiles/light_switch_server_nrf52840_xxAA_s140_6.0.0.dir/__/__/__/mesh/core/src/queue.c.obj
 .data          0x00000000        0x0 examples/light_switch/server/CMakeFiles/light_switch_server_nrf52840_xxAA_s140_6.0.0.dir/__/__/__/mesh/core/src/queue.c.obj
 .bss           0x00000000        0x0 examples/light_switch/server/CMakeFiles/light_switch_server_nrf52840_xxAA_s140_6.0.0.dir/__/__/__/mesh/core/src/queue.c.obj
 .text          0x00000000        0x0 examples/light_switch/server/CMakeFiles/light_switch_server_nrf52840_xxAA_s140_6.0.0.dir/__/__/__/mesh/core/src/hal.c.obj
 .data          0x00000000        0x0 examples/light_switch/server/CMakeFiles/light_switch_server_nrf52840_xxAA_s140_6.0.0.dir/__/__/__/mesh/core/src/hal.c.obj
 .bss           0x00000000        0x0 examples/light_switch/server/CMakeFiles/light_switch_server_nrf52840_xxAA_s140_6.0.0.dir/__/__/__/mesh/core/src/hal.c.obj
 .text          0x00000000        0x0 examples/light_switch/server/CMakeFiles/light_switch_server_nrf52840_xxAA_s140_6.0.0.dir/__/__/__/mesh/core/src/aes_cmac.c.obj
 .data          0x00000000        0x0 examples/light_switch/server/CMakeFiles/light_switch_server_nrf52840_xxAA_s140_6.0.0.dir/__/__/__/mesh/core/src/aes_cmac.c.obj
 .bss           0x00000000        0x0 examples/light_switch/server/CMakeFiles/light_switch_server_nrf52840_xxAA_s140_6.0.0.dir/__/__/__/mesh/core/src/aes_cmac.c.obj
 .text          0x00000000        0x0 examples/light_switch/server/CMakeFiles/light_switch_server_nrf52840_xxAA_s140_6.0.0.dir/__/__/__/mesh/core/src/timer_scheduler.c.obj
 .data          0x00000000        0x0 examples/light_switch/server/CMakeFiles/light_switch_server_nrf52840_xxAA_s140_6.0.0.dir/__/__/__/mesh/core/src/timer_scheduler.c.obj
 .bss           0x00000000        0x0 examples/light_switch/server/CMakeFiles/light_switch_server_nrf52840_xxAA_s140_6.0.0.dir/__/__/__/mesh/core/src/timer_scheduler.c.obj
 .text          0x00000000        0x0 examples/light_switch/server/CMakeFiles/light_switch_server_nrf52840_xxAA_s140_6.0.0.dir/__/__/__/mesh/core/src/timer.c.obj
 .data          0x00000000        0x0 examples/light_switch/server/CMakeFiles/light_switch_server_nrf52840_xxAA_s140_6.0.0.dir/__/__/__/mesh/core/src/timer.c.obj
 .bss           0x00000000        0x0 examples/light_switch/server/CMakeFiles/light_switch_server_nrf52840_xxAA_s140_6.0.0.dir/__/__/__/mesh/core/src/timer.c.obj
 .text.timer_order_cb_ppi
                0x00000000       0xc4 examples/light_switch/server/CMakeFiles/light_switch_server_nrf52840_xxAA_s140_6.0.0.dir/__/__/__/mesh/core/src/timer.c.obj
 .text.timer_order_ppi
                0x00000000       0xc0 examples/light_switch/server/CMakeFiles/light_switch_server_nrf52840_xxAA_s140_6.0.0.dir/__/__/__/mesh/core/src/timer.c.obj
 .text.timer_abort
                0x00000000       0x78 examples/light_switch/server/CMakeFiles/light_switch_server_nrf52840_xxAA_s140_6.0.0.dir/__/__/__/mesh/core/src/timer.c.obj
 .text          0x00000000        0x0 examples/light_switch/server/CMakeFiles/light_switch_server_nrf52840_xxAA_s140_6.0.0.dir/__/__/__/mesh/core/src/ticker.c.obj
 .data          0x00000000        0x0 examples/light_switch/server/CMakeFiles/light_switch_server_nrf52840_xxAA_s140_6.0.0.dir/__/__/__/mesh/core/src/ticker.c.obj
 .bss           0x00000000        0x0 examples/light_switch/server/CMakeFiles/light_switch_server_nrf52840_xxAA_s140_6.0.0.dir/__/__/__/mesh/core/src/ticker.c.obj
 .text.ticker_get
                0x00000000        0xc examples/light_switch/server/CMakeFiles/light_switch_server_nrf52840_xxAA_s140_6.0.0.dir/__/__/__/mesh/core/src/ticker.c.obj
 .text          0x00000000        0x0 examples/light_switch/server/CMakeFiles/light_switch_server_nrf52840_xxAA_s140_6.0.0.dir/__/__/__/mesh/core/src/rand.c.obj
 .data          0x00000000        0x0 examples/light_switch/server/CMakeFiles/light_switch_server_nrf52840_xxAA_s140_6.0.0.dir/__/__/__/mesh/core/src/rand.c.obj
 .bss           0x00000000        0x0 examples/light_switch/server/CMakeFiles/light_switch_server_nrf52840_xxAA_s140_6.0.0.dir/__/__/__/mesh/core/src/rand.c.obj
 .text          0x00000000        0x0 examples/light_switch/server/CMakeFiles/light_switch_server_nrf52840_xxAA_s140_6.0.0.dir/__/__/__/mesh/core/src/nrf_mesh_opt.c.obj
 .data          0x00000000        0x0 examples/light_switch/server/CMakeFiles/light_switch_server_nrf52840_xxAA_s140_6.0.0.dir/__/__/__/mesh/core/src/nrf_mesh_opt.c.obj
 .bss           0x00000000        0x0 examples/light_switch/server/CMakeFiles/light_switch_server_nrf52840_xxAA_s140_6.0.0.dir/__/__/__/mesh/core/src/nrf_mesh_opt.c.obj
 .text          0x00000000        0x0 examples/light_switch/server/CMakeFiles/light_switch_server_nrf52840_xxAA_s140_6.0.0.dir/__/__/__/mesh/core/src/timeslot.c.obj
 .data          0x00000000        0x0 examples/light_switch/server/CMakeFiles/light_switch_server_nrf52840_xxAA_s140_6.0.0.dir/__/__/__/mesh/core/src/timeslot.c.obj
 .bss           0x00000000        0x0 examples/light_switch/server/CMakeFiles/light_switch_server_nrf52840_xxAA_s140_6.0.0.dir/__/__/__/mesh/core/src/timeslot.c.obj
 .text.timeslot_end_time_get
                0x00000000       0x10 examples/light_switch/server/CMakeFiles/light_switch_server_nrf52840_xxAA_s140_6.0.0.dir/__/__/__/mesh/core/src/timeslot.c.obj
 .text.timeslot_is_in_ts
                0x00000000        0xc examples/light_switch/server/CMakeFiles/light_switch_server_nrf52840_xxAA_s140_6.0.0.dir/__/__/__/mesh/core/src/timeslot.c.obj
 .text.timeslot_restart
                0x00000000       0x10 examples/light_switch/server/CMakeFiles/light_switch_server_nrf52840_xxAA_s140_6.0.0.dir/__/__/__/mesh/core/src/timeslot.c.obj
 .text          0x00000000        0x0 examples/light_switch/server/CMakeFiles/light_switch_server_nrf52840_xxAA_s140_6.0.0.dir/__/__/__/mesh/core/src/bearer_event.c.obj
 .data          0x00000000        0x0 examples/light_switch/server/CMakeFiles/light_switch_server_nrf52840_xxAA_s140_6.0.0.dir/__/__/__/mesh/core/src/bearer_event.c.obj
 .bss           0x00000000        0x0 examples/light_switch/server/CMakeFiles/light_switch_server_nrf52840_xxAA_s140_6.0.0.dir/__/__/__/mesh/core/src/bearer_event.c.obj
 .text.bearer_event_generic_post
                0x00000000       0x24 examples/light_switch/server/CMakeFiles/light_switch_server_nrf52840_xxAA_s140_6.0.0.dir/__/__/__/mesh/core/src/bearer_event.c.obj
 .text.bearer_event_timer_sch_post
                0x00000000       0x26 examples/light_switch/server/CMakeFiles/light_switch_server_nrf52840_xxAA_s140_6.0.0.dir/__/__/__/mesh/core/src/bearer_event.c.obj
 .text.bearer_event_in_correct_irq_priority
                0x00000000       0x48 examples/light_switch/server/CMakeFiles/light_switch_server_nrf52840_xxAA_s140_6.0.0.dir/__/__/__/mesh/core/src/bearer_event.c.obj
 .text          0x00000000        0x0 examples/light_switch/server/CMakeFiles/light_switch_server_nrf52840_xxAA_s140_6.0.0.dir/__/__/__/mesh/core/src/enc.c.obj
 .data          0x00000000        0x0 examples/light_switch/server/CMakeFiles/light_switch_server_nrf52840_xxAA_s140_6.0.0.dir/__/__/__/mesh/core/src/enc.c.obj
 .bss           0x00000000        0x0 examples/light_switch/server/CMakeFiles/light_switch_server_nrf52840_xxAA_s140_6.0.0.dir/__/__/__/mesh/core/src/enc.c.obj
 .text.enc_key_generate
                0x00000000        0x6 examples/light_switch/server/CMakeFiles/light_switch_server_nrf52840_xxAA_s140_6.0.0.dir/__/__/__/mesh/core/src/enc.c.obj
 .text          0x00000000        0x0 examples/light_switch/server/CMakeFiles/light_switch_server_nrf52840_xxAA_s140_6.0.0.dir/__/__/__/mesh/core/src/network.c.obj
 .data          0x00000000        0x0 examples/light_switch/server/CMakeFiles/light_switch_server_nrf52840_xxAA_s140_6.0.0.dir/__/__/__/mesh/core/src/network.c.obj
 .bss           0x00000000        0x0 examples/light_switch/server/CMakeFiles/light_switch_server_nrf52840_xxAA_s140_6.0.0.dir/__/__/__/mesh/core/src/network.c.obj
 .text.network_packet_discard
                0x00000000       0x1e examples/light_switch/server/CMakeFiles/light_switch_server_nrf52840_xxAA_s140_6.0.0.dir/__/__/__/mesh/core/src/network.c.obj
 .text          0x00000000        0x0 examples/light_switch/server/CMakeFiles/light_switch_server_nrf52840_xxAA_s140_6.0.0.dir/__/__/__/mesh/core/src/net_packet.c.obj
 .data          0x00000000        0x0 examples/light_switch/server/CMakeFiles/light_switch_server_nrf52840_xxAA_s140_6.0.0.dir/__/__/__/mesh/core/src/net_packet.c.obj
 .bss           0x00000000        0x0 examples/light_switch/server/CMakeFiles/light_switch_server_nrf52840_xxAA_s140_6.0.0.dir/__/__/__/mesh/core/src/net_packet.c.obj
 .text.net_packet_enc_start_get
                0x00000000        0x4 examples/light_switch/server/CMakeFiles/light_switch_server_nrf52840_xxAA_s140_6.0.0.dir/__/__/__/mesh/core/src/net_packet.c.obj
 .text.net_packet_payload_get
                0x00000000        0x4 examples/light_switch/server/CMakeFiles/light_switch_server_nrf52840_xxAA_s140_6.0.0.dir/__/__/__/mesh/core/src/net_packet.c.obj
 .text          0x00000000        0x0 examples/light_switch/server/CMakeFiles/light_switch_server_nrf52840_xxAA_s140_6.0.0.dir/__/__/__/mesh/core/src/msqueue.c.obj
 .data          0x00000000        0x0 examples/light_switch/server/CMakeFiles/light_switch_server_nrf52840_xxAA_s140_6.0.0.dir/__/__/__/mesh/core/src/msqueue.c.obj
 .bss           0x00000000        0x0 examples/light_switch/server/CMakeFiles/light_switch_server_nrf52840_xxAA_s140_6.0.0.dir/__/__/__/mesh/core/src/msqueue.c.obj
 .text          0x00000000        0x0 examples/light_switch/server/CMakeFiles/light_switch_server_nrf52840_xxAA_s140_6.0.0.dir/__/__/__/mesh/core/src/nrf_mesh_keygen.c.obj
 .data          0x00000000        0x0 examples/light_switch/server/CMakeFiles/light_switch_server_nrf52840_xxAA_s140_6.0.0.dir/__/__/__/mesh/core/src/nrf_mesh_keygen.c.obj
 .bss           0x00000000        0x0 examples/light_switch/server/CMakeFiles/light_switch_server_nrf52840_xxAA_s140_6.0.0.dir/__/__/__/mesh/core/src/nrf_mesh_keygen.c.obj
 .text.nrf_mesh_keygen_identitykey
                0x00000000       0x4c examples/light_switch/server/CMakeFiles/light_switch_server_nrf52840_xxAA_s140_6.0.0.dir/__/__/__/mesh/core/src/nrf_mesh_keygen.c.obj
 .text          0x00000000        0x0 examples/light_switch/server/CMakeFiles/light_switch_server_nrf52840_xxAA_s140_6.0.0.dir/__/__/__/mesh/core/src/cache.c.obj
 .data          0x00000000        0x0 examples/light_switch/server/CMakeFiles/light_switch_server_nrf52840_xxAA_s140_6.0.0.dir/__/__/__/mesh/core/src/cache.c.obj
 .bss           0x00000000        0x0 examples/light_switch/server/CMakeFiles/light_switch_server_nrf52840_xxAA_s140_6.0.0.dir/__/__/__/mesh/core/src/cache.c.obj
 .text.erase_at
                0x00000000       0x1c examples/light_switch/server/CMakeFiles/light_switch_server_nrf52840_xxAA_s140_6.0.0.dir/__/__/__/mesh/core/src/cache.c.obj
 .text.cache_init
                0x00000000       0x1e examples/light_switch/server/CMakeFiles/light_switch_server_nrf52840_xxAA_s140_6.0.0.dir/__/__/__/mesh/core/src/cache.c.obj
 .text.cache_has_elem
                0x00000000       0x3e examples/light_switch/server/CMakeFiles/light_switch_server_nrf52840_xxAA_s140_6.0.0.dir/__/__/__/mesh/core/src/cache.c.obj
 .text.cache_put
                0x00000000       0x2a examples/light_switch/server/CMakeFiles/light_switch_server_nrf52840_xxAA_s140_6.0.0.dir/__/__/__/mesh/core/src/cache.c.obj
 .text.cache_erase_elem
                0x00000000       0x4c examples/light_switch/server/CMakeFiles/light_switch_server_nrf52840_xxAA_s140_6.0.0.dir/__/__/__/mesh/core/src/cache.c.obj
 .debug_info    0x00000000      0xbe1 examples/light_switch/server/CMakeFiles/light_switch_server_nrf52840_xxAA_s140_6.0.0.dir/__/__/__/mesh/core/src/cache.c.obj
 .debug_abbrev  0x00000000      0x2a3 examples/light_switch/server/CMakeFiles/light_switch_server_nrf52840_xxAA_s140_6.0.0.dir/__/__/__/mesh/core/src/cache.c.obj
 .debug_loc     0x00000000      0x29b examples/light_switch/server/CMakeFiles/light_switch_server_nrf52840_xxAA_s140_6.0.0.dir/__/__/__/mesh/core/src/cache.c.obj
 .debug_aranges
                0x00000000       0x40 examples/light_switch/server/CMakeFiles/light_switch_server_nrf52840_xxAA_s140_6.0.0.dir/__/__/__/mesh/core/src/cache.c.obj
 .debug_ranges  0x00000000       0x80 examples/light_switch/server/CMakeFiles/light_switch_server_nrf52840_xxAA_s140_6.0.0.dir/__/__/__/mesh/core/src/cache.c.obj
 .debug_line    0x00000000      0x21e examples/light_switch/server/CMakeFiles/light_switch_server_nrf52840_xxAA_s140_6.0.0.dir/__/__/__/mesh/core/src/cache.c.obj
 .debug_str     0x00000000      0x6af examples/light_switch/server/CMakeFiles/light_switch_server_nrf52840_xxAA_s140_6.0.0.dir/__/__/__/mesh/core/src/cache.c.obj
 .comment       0x00000000       0x80 examples/light_switch/server/CMakeFiles/light_switch_server_nrf52840_xxAA_s140_6.0.0.dir/__/__/__/mesh/core/src/cache.c.obj
 .debug_frame   0x00000000       0xb0 examples/light_switch/server/CMakeFiles/light_switch_server_nrf52840_xxAA_s140_6.0.0.dir/__/__/__/mesh/core/src/cache.c.obj
 .ARM.attributes
                0x00000000       0x39 examples/light_switch/server/CMakeFiles/light_switch_server_nrf52840_xxAA_s140_6.0.0.dir/__/__/__/mesh/core/src/cache.c.obj
 .text          0x00000000        0x0 examples/light_switch/server/CMakeFiles/light_switch_server_nrf52840_xxAA_s140_6.0.0.dir/__/__/__/mesh/core/src/list.c.obj
 .data          0x00000000        0x0 examples/light_switch/server/CMakeFiles/light_switch_server_nrf52840_xxAA_s140_6.0.0.dir/__/__/__/mesh/core/src/list.c.obj
 .bss           0x00000000        0x0 examples/light_switch/server/CMakeFiles/light_switch_server_nrf52840_xxAA_s140_6.0.0.dir/__/__/__/mesh/core/src/list.c.obj
 .text.list_size_get
                0x00000000       0x12 examples/light_switch/server/CMakeFiles/light_switch_server_nrf52840_xxAA_s140_6.0.0.dir/__/__/__/mesh/core/src/list.c.obj
 .text.list_sorted_add
                0x00000000       0x6c examples/light_switch/server/CMakeFiles/light_switch_server_nrf52840_xxAA_s140_6.0.0.dir/__/__/__/mesh/core/src/list.c.obj
 .text          0x00000000        0x0 examples/light_switch/server/CMakeFiles/light_switch_server_nrf52840_xxAA_s140_6.0.0.dir/__/__/__/mesh/core/src/log.c.obj
 .data          0x00000000        0x0 examples/light_switch/server/CMakeFiles/light_switch_server_nrf52840_xxAA_s140_6.0.0.dir/__/__/__/mesh/core/src/log.c.obj
 .bss           0x00000000        0x0 examples/light_switch/server/CMakeFiles/light_switch_server_nrf52840_xxAA_s140_6.0.0.dir/__/__/__/mesh/core/src/log.c.obj
 .text.log_callback_logview
                0x00000000       0x38 examples/light_switch/server/CMakeFiles/light_switch_server_nrf52840_xxAA_s140_6.0.0.dir/__/__/__/mesh/core/src/log.c.obj
 .text.log_set_callback
                0x00000000        0xc examples/light_switch/server/CMakeFiles/light_switch_server_nrf52840_xxAA_s140_6.0.0.dir/__/__/__/mesh/core/src/log.c.obj
 .rodata.log_callback_logview.str1.1
                0x00000000        0xf examples/light_switch/server/CMakeFiles/light_switch_server_nrf52840_xxAA_s140_6.0.0.dir/__/__/__/mesh/core/src/log.c.obj
 .text          0x00000000        0x0 examples/light_switch/server/CMakeFiles/light_switch_server_nrf52840_xxAA_s140_6.0.0.dir/__/__/__/mesh/core/src/flash_manager.c.obj
 .data          0x00000000        0x0 examples/light_switch/server/CMakeFiles/light_switch_server_nrf52840_xxAA_s140_6.0.0.dir/__/__/__/mesh/core/src/flash_manager.c.obj
 .bss           0x00000000        0x0 examples/light_switch/server/CMakeFiles/light_switch_server_nrf52840_xxAA_s140_6.0.0.dir/__/__/__/mesh/core/src/flash_manager.c.obj
 .text.flash_manager_entry_count_get
                0x00000000       0x50 examples/light_switch/server/CMakeFiles/light_switch_server_nrf52840_xxAA_s140_6.0.0.dir/__/__/__/mesh/core/src/flash_manager.c.obj
 .text.flash_manager_entry_release
                0x00000000       0x2c examples/light_switch/server/CMakeFiles/light_switch_server_nrf52840_xxAA_s140_6.0.0.dir/__/__/__/mesh/core/src/flash_manager.c.obj
 .text          0x00000000        0x0 examples/light_switch/server/CMakeFiles/light_switch_server_nrf52840_xxAA_s140_6.0.0.dir/__/__/__/mesh/core/src/ccm_soft.c.obj
 .data          0x00000000        0x0 examples/light_switch/server/CMakeFiles/light_switch_server_nrf52840_xxAA_s140_6.0.0.dir/__/__/__/mesh/core/src/ccm_soft.c.obj
 .bss           0x00000000        0x0 examples/light_switch/server/CMakeFiles/light_switch_server_nrf52840_xxAA_s140_6.0.0.dir/__/__/__/mesh/core/src/ccm_soft.c.obj
 .text          0x00000000        0x0 examples/light_switch/server/CMakeFiles/light_switch_server_nrf52840_xxAA_s140_6.0.0.dir/__/__/__/mesh/core/src/toolchain.c.obj
 .data          0x00000000        0x0 examples/light_switch/server/CMakeFiles/light_switch_server_nrf52840_xxAA_s140_6.0.0.dir/__/__/__/mesh/core/src/toolchain.c.obj
 .bss           0x00000000        0x0 examples/light_switch/server/CMakeFiles/light_switch_server_nrf52840_xxAA_s140_6.0.0.dir/__/__/__/mesh/core/src/toolchain.c.obj
 .debug_info    0x00000000       0xb3 examples/light_switch/server/CMakeFiles/light_switch_server_nrf52840_xxAA_s140_6.0.0.dir/__/__/__/mesh/core/src/toolchain.c.obj
 .debug_abbrev  0x00000000       0x5c examples/light_switch/server/CMakeFiles/light_switch_server_nrf52840_xxAA_s140_6.0.0.dir/__/__/__/mesh/core/src/toolchain.c.obj
 .debug_aranges
                0x00000000       0x18 examples/light_switch/server/CMakeFiles/light_switch_server_nrf52840_xxAA_s140_6.0.0.dir/__/__/__/mesh/core/src/toolchain.c.obj
 .debug_line    0x00000000      0x127 examples/light_switch/server/CMakeFiles/light_switch_server_nrf52840_xxAA_s140_6.0.0.dir/__/__/__/mesh/core/src/toolchain.c.obj
 .debug_str     0x00000000      0x1fa examples/light_switch/server/CMakeFiles/light_switch_server_nrf52840_xxAA_s140_6.0.0.dir/__/__/__/mesh/core/src/toolchain.c.obj
 .comment       0x00000000       0x80 examples/light_switch/server/CMakeFiles/light_switch_server_nrf52840_xxAA_s140_6.0.0.dir/__/__/__/mesh/core/src/toolchain.c.obj
 .ARM.attributes
                0x00000000       0x39 examples/light_switch/server/CMakeFiles/light_switch_server_nrf52840_xxAA_s140_6.0.0.dir/__/__/__/mesh/core/src/toolchain.c.obj
 .text          0x00000000        0x0 examples/light_switch/server/CMakeFiles/light_switch_server_nrf52840_xxAA_s140_6.0.0.dir/__/__/__/mesh/core/src/replay_cache.c.obj
 .data          0x00000000        0x0 examples/light_switch/server/CMakeFiles/light_switch_server_nrf52840_xxAA_s140_6.0.0.dir/__/__/__/mesh/core/src/replay_cache.c.obj
 .bss           0x00000000        0x0 examples/light_switch/server/CMakeFiles/light_switch_server_nrf52840_xxAA_s140_6.0.0.dir/__/__/__/mesh/core/src/replay_cache.c.obj
 .text.replay_cache_on_iv_update
                0x00000000       0x24 examples/light_switch/server/CMakeFiles/light_switch_server_nrf52840_xxAA_s140_6.0.0.dir/__/__/__/mesh/core/src/replay_cache.c.obj
 .text          0x00000000        0x0 examples/light_switch/server/CMakeFiles/light_switch_server_nrf52840_xxAA_s140_6.0.0.dir/__/__/__/mesh/core/src/beacon.c.obj
 .data          0x00000000        0x0 examples/light_switch/server/CMakeFiles/light_switch_server_nrf52840_xxAA_s140_6.0.0.dir/__/__/__/mesh/core/src/beacon.c.obj
 .bss           0x00000000        0x0 examples/light_switch/server/CMakeFiles/light_switch_server_nrf52840_xxAA_s140_6.0.0.dir/__/__/__/mesh/core/src/beacon.c.obj
 .text          0x00000000        0x0 examples/light_switch/server/CMakeFiles/light_switch_server_nrf52840_xxAA_s140_6.0.0.dir/__/__/__/mesh/core/src/flash_manager_internal.c.obj
 .data          0x00000000        0x0 examples/light_switch/server/CMakeFiles/light_switch_server_nrf52840_xxAA_s140_6.0.0.dir/__/__/__/mesh/core/src/flash_manager_internal.c.obj
 .bss           0x00000000        0x0 examples/light_switch/server/CMakeFiles/light_switch_server_nrf52840_xxAA_s140_6.0.0.dir/__/__/__/mesh/core/src/flash_manager_internal.c.obj
 .text          0x00000000        0x0 examples/light_switch/server/CMakeFiles/light_switch_server_nrf52840_xxAA_s140_6.0.0.dir/__/__/__/mesh/core/src/core_tx.c.obj
 .data          0x00000000        0x0 examples/light_switch/server/CMakeFiles/light_switch_server_nrf52840_xxAA_s140_6.0.0.dir/__/__/__/mesh/core/src/core_tx.c.obj
 .bss           0x00000000        0x0 examples/light_switch/server/CMakeFiles/light_switch_server_nrf52840_xxAA_s140_6.0.0.dir/__/__/__/mesh/core/src/core_tx.c.obj
 .text.core_tx_bearer_type_get
                0x00000000       0x1c examples/light_switch/server/CMakeFiles/light_switch_server_nrf52840_xxAA_s140_6.0.0.dir/__/__/__/mesh/core/src/core_tx.c.obj
 .text.core_tx_bearer_count_get
                0x00000000        0xc examples/light_switch/server/CMakeFiles/light_switch_server_nrf52840_xxAA_s140_6.0.0.dir/__/__/__/mesh/core/src/core_tx.c.obj
 .text          0x00000000        0x0 examples/light_switch/server/CMakeFiles/light_switch_server_nrf52840_xxAA_s140_6.0.0.dir/__/__/__/mesh/core/src/heartbeat.c.obj
 .data          0x00000000        0x0 examples/light_switch/server/CMakeFiles/light_switch_server_nrf52840_xxAA_s140_6.0.0.dir/__/__/__/mesh/core/src/heartbeat.c.obj
 .bss           0x00000000        0x0 examples/light_switch/server/CMakeFiles/light_switch_server_nrf52840_xxAA_s140_6.0.0.dir/__/__/__/mesh/core/src/heartbeat.c.obj
 .text          0x00000000        0x0 examples/light_switch/server/CMakeFiles/light_switch_server_nrf52840_xxAA_s140_6.0.0.dir/__/__/__/mesh/core/src/net_beacon.c.obj
 .data          0x00000000        0x0 examples/light_switch/server/CMakeFiles/light_switch_server_nrf52840_xxAA_s140_6.0.0.dir/__/__/__/mesh/core/src/net_beacon.c.obj
 .bss           0x00000000        0x0 examples/light_switch/server/CMakeFiles/light_switch_server_nrf52840_xxAA_s140_6.0.0.dir/__/__/__/mesh/core/src/net_beacon.c.obj
 .text.net_beacon_build
                0x00000000       0x24 examples/light_switch/server/CMakeFiles/light_switch_server_nrf52840_xxAA_s140_6.0.0.dir/__/__/__/mesh/core/src/net_beacon.c.obj
 .text          0x00000000        0x0 examples/light_switch/server/CMakeFiles/light_switch_server_nrf52840_xxAA_s140_6.0.0.dir/__/__/__/mesh/core/src/fsm.c.obj
 .data          0x00000000        0x0 examples/light_switch/server/CMakeFiles/light_switch_server_nrf52840_xxAA_s140_6.0.0.dir/__/__/__/mesh/core/src/fsm.c.obj
 .bss           0x00000000        0x0 examples/light_switch/server/CMakeFiles/light_switch_server_nrf52840_xxAA_s140_6.0.0.dir/__/__/__/mesh/core/src/fsm.c.obj
 .text.fsm_event_post_try
                0x00000000      0x1ec examples/light_switch/server/CMakeFiles/light_switch_server_nrf52840_xxAA_s140_6.0.0.dir/__/__/__/mesh/core/src/fsm.c.obj
 .text.fsm_init
                0x00000000       0xcc examples/light_switch/server/CMakeFiles/light_switch_server_nrf52840_xxAA_s140_6.0.0.dir/__/__/__/mesh/core/src/fsm.c.obj
 .text.fsm_event_post
                0x00000000       0xac examples/light_switch/server/CMakeFiles/light_switch_server_nrf52840_xxAA_s140_6.0.0.dir/__/__/__/mesh/core/src/fsm.c.obj
 .text.fsm_is_processing
                0x00000000        0xa examples/light_switch/server/CMakeFiles/light_switch_server_nrf52840_xxAA_s140_6.0.0.dir/__/__/__/mesh/core/src/fsm.c.obj
 .rodata.fsm_event_post.str1.1
                0x00000000        0xb examples/light_switch/server/CMakeFiles/light_switch_server_nrf52840_xxAA_s140_6.0.0.dir/__/__/__/mesh/core/src/fsm.c.obj
 .rodata.fsm_event_post_try.str1.1
                0x00000000       0x41 examples/light_switch/server/CMakeFiles/light_switch_server_nrf52840_xxAA_s140_6.0.0.dir/__/__/__/mesh/core/src/fsm.c.obj
 .rodata.fsm_init.str1.1
                0x00000000        0xa examples/light_switch/server/CMakeFiles/light_switch_server_nrf52840_xxAA_s140_6.0.0.dir/__/__/__/mesh/core/src/fsm.c.obj
 .debug_info    0x00000000     0x132d examples/light_switch/server/CMakeFiles/light_switch_server_nrf52840_xxAA_s140_6.0.0.dir/__/__/__/mesh/core/src/fsm.c.obj
 .debug_abbrev  0x00000000      0x345 examples/light_switch/server/CMakeFiles/light_switch_server_nrf52840_xxAA_s140_6.0.0.dir/__/__/__/mesh/core/src/fsm.c.obj
 .debug_loc     0x00000000      0x3fd examples/light_switch/server/CMakeFiles/light_switch_server_nrf52840_xxAA_s140_6.0.0.dir/__/__/__/mesh/core/src/fsm.c.obj
 .debug_aranges
                0x00000000       0x38 examples/light_switch/server/CMakeFiles/light_switch_server_nrf52840_xxAA_s140_6.0.0.dir/__/__/__/mesh/core/src/fsm.c.obj
 .debug_ranges  0x00000000       0xe0 examples/light_switch/server/CMakeFiles/light_switch_server_nrf52840_xxAA_s140_6.0.0.dir/__/__/__/mesh/core/src/fsm.c.obj
 .debug_line    0x00000000      0x3dc examples/light_switch/server/CMakeFiles/light_switch_server_nrf52840_xxAA_s140_6.0.0.dir/__/__/__/mesh/core/src/fsm.c.obj
 .debug_str     0x00000000      0x984 examples/light_switch/server/CMakeFiles/light_switch_server_nrf52840_xxAA_s140_6.0.0.dir/__/__/__/mesh/core/src/fsm.c.obj
 .comment       0x00000000       0x80 examples/light_switch/server/CMakeFiles/light_switch_server_nrf52840_xxAA_s140_6.0.0.dir/__/__/__/mesh/core/src/fsm.c.obj
 .debug_frame   0x00000000       0x9c examples/light_switch/server/CMakeFiles/light_switch_server_nrf52840_xxAA_s140_6.0.0.dir/__/__/__/mesh/core/src/fsm.c.obj
 .ARM.attributes
                0x00000000       0x39 examples/light_switch/server/CMakeFiles/light_switch_server_nrf52840_xxAA_s140_6.0.0.dir/__/__/__/mesh/core/src/fsm.c.obj
 .text          0x00000000        0x0 examples/light_switch/server/CMakeFiles/light_switch_server_nrf52840_xxAA_s140_6.0.0.dir/__/__/__/mesh/core/src/core_tx_adv.c.obj
 .data          0x00000000        0x0 examples/light_switch/server/CMakeFiles/light_switch_server_nrf52840_xxAA_s140_6.0.0.dir/__/__/__/mesh/core/src/core_tx_adv.c.obj
 .bss           0x00000000        0x0 examples/light_switch/server/CMakeFiles/light_switch_server_nrf52840_xxAA_s140_6.0.0.dir/__/__/__/mesh/core/src/core_tx_adv.c.obj
 .text.core_tx_adv_address_set
                0x00000000       0x28 examples/light_switch/server/CMakeFiles/light_switch_server_nrf52840_xxAA_s140_6.0.0.dir/__/__/__/mesh/core/src/core_tx_adv.c.obj
 .text          0x00000000        0x0 examples/light_switch/server/CMakeFiles/light_switch_server_nrf52840_xxAA_s140_6.0.0.dir/__/__/__/mesh/bearer/src/ad_listener.c.obj
 .data          0x00000000        0x0 examples/light_switch/server/CMakeFiles/light_switch_server_nrf52840_xxAA_s140_6.0.0.dir/__/__/__/mesh/bearer/src/ad_listener.c.obj
 .bss           0x00000000        0x0 examples/light_switch/server/CMakeFiles/light_switch_server_nrf52840_xxAA_s140_6.0.0.dir/__/__/__/mesh/bearer/src/ad_listener.c.obj
 .text.ad_listener_unsubscribe
                0x00000000       0x6c examples/light_switch/server/CMakeFiles/light_switch_server_nrf52840_xxAA_s140_6.0.0.dir/__/__/__/mesh/bearer/src/ad_listener.c.obj
 .text          0x00000000        0x0 examples/light_switch/server/CMakeFiles/light_switch_server_nrf52840_xxAA_s140_6.0.0.dir/__/__/__/mesh/bearer/src/ad_type_filter.c.obj
 .data          0x00000000        0x0 examples/light_switch/server/CMakeFiles/light_switch_server_nrf52840_xxAA_s140_6.0.0.dir/__/__/__/mesh/bearer/src/ad_type_filter.c.obj
 .bss           0x00000000        0x0 examples/light_switch/server/CMakeFiles/light_switch_server_nrf52840_xxAA_s140_6.0.0.dir/__/__/__/mesh/bearer/src/ad_type_filter.c.obj
 .text.bearer_adtype_remove
                0x00000000       0x20 examples/light_switch/server/CMakeFiles/light_switch_server_nrf52840_xxAA_s140_6.0.0.dir/__/__/__/mesh/bearer/src/ad_type_filter.c.obj
 .text.bearer_adtype_clear
                0x00000000       0x10 examples/light_switch/server/CMakeFiles/light_switch_server_nrf52840_xxAA_s140_6.0.0.dir/__/__/__/mesh/bearer/src/ad_type_filter.c.obj
 .text.bearer_invalid_length_amount_get
                0x00000000        0xc examples/light_switch/server/CMakeFiles/light_switch_server_nrf52840_xxAA_s140_6.0.0.dir/__/__/__/mesh/bearer/src/ad_type_filter.c.obj
 .text.bearer_adtype_filtered_amount_get
                0x00000000        0xc examples/light_switch/server/CMakeFiles/light_switch_server_nrf52840_xxAA_s140_6.0.0.dir/__/__/__/mesh/bearer/src/ad_type_filter.c.obj
 .text          0x00000000        0x0 examples/light_switch/server/CMakeFiles/light_switch_server_nrf52840_xxAA_s140_6.0.0.dir/__/__/__/mesh/bearer/src/adv_packet_filter.c.obj
 .data          0x00000000        0x0 examples/light_switch/server/CMakeFiles/light_switch_server_nrf52840_xxAA_s140_6.0.0.dir/__/__/__/mesh/bearer/src/adv_packet_filter.c.obj
 .bss           0x00000000        0x0 examples/light_switch/server/CMakeFiles/light_switch_server_nrf52840_xxAA_s140_6.0.0.dir/__/__/__/mesh/bearer/src/adv_packet_filter.c.obj
 .text.adv_filter_handle
                0x00000000       0x3c examples/light_switch/server/CMakeFiles/light_switch_server_nrf52840_xxAA_s140_6.0.0.dir/__/__/__/mesh/bearer/src/adv_packet_filter.c.obj
 .text.bearer_adv_packet_filtering_set
                0x00000000       0x1c examples/light_switch/server/CMakeFiles/light_switch_server_nrf52840_xxAA_s140_6.0.0.dir/__/__/__/mesh/bearer/src/adv_packet_filter.c.obj
 .text.bearer_adv_packet_remove
                0x00000000       0x18 examples/light_switch/server/CMakeFiles/light_switch_server_nrf52840_xxAA_s140_6.0.0.dir/__/__/__/mesh/bearer/src/adv_packet_filter.c.obj
 .text.bearer_adv_packet_add
                0x00000000       0x14 examples/light_switch/server/CMakeFiles/light_switch_server_nrf52840_xxAA_s140_6.0.0.dir/__/__/__/mesh/bearer/src/adv_packet_filter.c.obj
 .text.bearer_adv_packet_clear
                0x00000000        0xc examples/light_switch/server/CMakeFiles/light_switch_server_nrf52840_xxAA_s140_6.0.0.dir/__/__/__/mesh/bearer/src/adv_packet_filter.c.obj
 .text.bearer_adv_packet_filter_mode_set
                0x00000000       0x18 examples/light_switch/server/CMakeFiles/light_switch_server_nrf52840_xxAA_s140_6.0.0.dir/__/__/__/mesh/bearer/src/adv_packet_filter.c.obj
 .text.bearer_adv_packet_filtered_amount_get
                0x00000000        0xc examples/light_switch/server/CMakeFiles/light_switch_server_nrf52840_xxAA_s140_6.0.0.dir/__/__/__/mesh/bearer/src/adv_packet_filter.c.obj
 .bss.m_adv_packet_filter
                0x00000000       0x14 examples/light_switch/server/CMakeFiles/light_switch_server_nrf52840_xxAA_s140_6.0.0.dir/__/__/__/mesh/bearer/src/adv_packet_filter.c.obj
 .debug_info    0x00000000      0xd97 examples/light_switch/server/CMakeFiles/light_switch_server_nrf52840_xxAA_s140_6.0.0.dir/__/__/__/mesh/bearer/src/adv_packet_filter.c.obj
 .debug_abbrev  0x00000000      0x2c9 examples/light_switch/server/CMakeFiles/light_switch_server_nrf52840_xxAA_s140_6.0.0.dir/__/__/__/mesh/bearer/src/adv_packet_filter.c.obj
 .debug_loc     0x00000000      0x1c0 examples/light_switch/server/CMakeFiles/light_switch_server_nrf52840_xxAA_s140_6.0.0.dir/__/__/__/mesh/bearer/src/adv_packet_filter.c.obj
 .debug_aranges
                0x00000000       0x50 examples/light_switch/server/CMakeFiles/light_switch_server_nrf52840_xxAA_s140_6.0.0.dir/__/__/__/mesh/bearer/src/adv_packet_filter.c.obj
 .debug_ranges  0x00000000       0x40 examples/light_switch/server/CMakeFiles/light_switch_server_nrf52840_xxAA_s140_6.0.0.dir/__/__/__/mesh/bearer/src/adv_packet_filter.c.obj
 .debug_line    0x00000000      0x35e examples/light_switch/server/CMakeFiles/light_switch_server_nrf52840_xxAA_s140_6.0.0.dir/__/__/__/mesh/bearer/src/adv_packet_filter.c.obj
 .debug_str     0x00000000      0xa28 examples/light_switch/server/CMakeFiles/light_switch_server_nrf52840_xxAA_s140_6.0.0.dir/__/__/__/mesh/bearer/src/adv_packet_filter.c.obj
 .comment       0x00000000       0x80 examples/light_switch/server/CMakeFiles/light_switch_server_nrf52840_xxAA_s140_6.0.0.dir/__/__/__/mesh/bearer/src/adv_packet_filter.c.obj
 .debug_frame   0x00000000       0x88 examples/light_switch/server/CMakeFiles/light_switch_server_nrf52840_xxAA_s140_6.0.0.dir/__/__/__/mesh/bearer/src/adv_packet_filter.c.obj
 .ARM.attributes
                0x00000000       0x39 examples/light_switch/server/CMakeFiles/light_switch_server_nrf52840_xxAA_s140_6.0.0.dir/__/__/__/mesh/bearer/src/adv_packet_filter.c.obj
 .text          0x00000000        0x0 examples/light_switch/server/CMakeFiles/light_switch_server_nrf52840_xxAA_s140_6.0.0.dir/__/__/__/mesh/bearer/src/advertiser.c.obj
 .data          0x00000000        0x0 examples/light_switch/server/CMakeFiles/light_switch_server_nrf52840_xxAA_s140_6.0.0.dir/__/__/__/mesh/bearer/src/advertiser.c.obj
 .bss           0x00000000        0x0 examples/light_switch/server/CMakeFiles/light_switch_server_nrf52840_xxAA_s140_6.0.0.dir/__/__/__/mesh/bearer/src/advertiser.c.obj
 .text.advertiser_disable
                0x00000000        0xa examples/light_switch/server/CMakeFiles/light_switch_server_nrf52840_xxAA_s140_6.0.0.dir/__/__/__/mesh/bearer/src/advertiser.c.obj
 .text.advertiser_channels_set
                0x00000000       0x60 examples/light_switch/server/CMakeFiles/light_switch_server_nrf52840_xxAA_s140_6.0.0.dir/__/__/__/mesh/bearer/src/advertiser.c.obj
 .text.advertiser_address_set
                0x00000000       0x3c examples/light_switch/server/CMakeFiles/light_switch_server_nrf52840_xxAA_s140_6.0.0.dir/__/__/__/mesh/bearer/src/advertiser.c.obj
 .text.advertiser_config_set
                0x00000000       0x36 examples/light_switch/server/CMakeFiles/light_switch_server_nrf52840_xxAA_s140_6.0.0.dir/__/__/__/mesh/bearer/src/advertiser.c.obj
 .text.advertiser_config_get
                0x00000000       0x20 examples/light_switch/server/CMakeFiles/light_switch_server_nrf52840_xxAA_s140_6.0.0.dir/__/__/__/mesh/bearer/src/advertiser.c.obj
 .text          0x00000000        0x0 examples/light_switch/server/CMakeFiles/light_switch_server_nrf52840_xxAA_s140_6.0.0.dir/__/__/__/mesh/bearer/src/bearer_handler.c.obj
 .data          0x00000000        0x0 examples/light_switch/server/CMakeFiles/light_switch_server_nrf52840_xxAA_s140_6.0.0.dir/__/__/__/mesh/bearer/src/bearer_handler.c.obj
 .bss           0x00000000        0x0 examples/light_switch/server/CMakeFiles/light_switch_server_nrf52840_xxAA_s140_6.0.0.dir/__/__/__/mesh/bearer/src/bearer_handler.c.obj
 .text.bearer_handler_stop
                0x00000000       0x20 examples/light_switch/server/CMakeFiles/light_switch_server_nrf52840_xxAA_s140_6.0.0.dir/__/__/__/mesh/bearer/src/bearer_handler.c.obj
 .text.bearer_handler_action_fire
                0x00000000       0x9c examples/light_switch/server/CMakeFiles/light_switch_server_nrf52840_xxAA_s140_6.0.0.dir/__/__/__/mesh/bearer/src/bearer_handler.c.obj
 .text          0x00000000        0x0 examples/light_switch/server/CMakeFiles/light_switch_server_nrf52840_xxAA_s140_6.0.0.dir/__/__/__/mesh/bearer/src/broadcast.c.obj
 .data          0x00000000        0x0 examples/light_switch/server/CMakeFiles/light_switch_server_nrf52840_xxAA_s140_6.0.0.dir/__/__/__/mesh/bearer/src/broadcast.c.obj
 .bss           0x00000000        0x0 examples/light_switch/server/CMakeFiles/light_switch_server_nrf52840_xxAA_s140_6.0.0.dir/__/__/__/mesh/bearer/src/broadcast.c.obj
 .text          0x00000000        0x0 examples/light_switch/server/CMakeFiles/light_switch_server_nrf52840_xxAA_s140_6.0.0.dir/__/__/__/mesh/bearer/src/filter_engine.c.obj
 .data          0x00000000        0x0 examples/light_switch/server/CMakeFiles/light_switch_server_nrf52840_xxAA_s140_6.0.0.dir/__/__/__/mesh/bearer/src/filter_engine.c.obj
 .bss           0x00000000        0x0 examples/light_switch/server/CMakeFiles/light_switch_server_nrf52840_xxAA_s140_6.0.0.dir/__/__/__/mesh/bearer/src/filter_engine.c.obj
 .text.fen_accepted_amount_get
                0x00000000        0xc examples/light_switch/server/CMakeFiles/light_switch_server_nrf52840_xxAA_s140_6.0.0.dir/__/__/__/mesh/bearer/src/filter_engine.c.obj
 .text          0x00000000        0x0 examples/light_switch/server/CMakeFiles/light_switch_server_nrf52840_xxAA_s140_6.0.0.dir/__/__/__/mesh/bearer/src/gap_address_filter.c.obj
 .data          0x00000000        0x0 examples/light_switch/server/CMakeFiles/light_switch_server_nrf52840_xxAA_s140_6.0.0.dir/__/__/__/mesh/bearer/src/gap_address_filter.c.obj
 .bss           0x00000000        0x0 examples/light_switch/server/CMakeFiles/light_switch_server_nrf52840_xxAA_s140_6.0.0.dir/__/__/__/mesh/bearer/src/gap_address_filter.c.obj
 .text.gap_address_filter_handle
                0x00000000       0xa6 examples/light_switch/server/CMakeFiles/light_switch_server_nrf52840_xxAA_s140_6.0.0.dir/__/__/__/mesh/bearer/src/gap_address_filter.c.obj
 .text.gap_addr_filter_set
                0x00000000       0x40 examples/light_switch/server/CMakeFiles/light_switch_server_nrf52840_xxAA_s140_6.0.0.dir/__/__/__/mesh/bearer/src/gap_address_filter.c.obj
 .text.bearer_filter_gap_addr_whitelist_set
                0x00000000        0x6 examples/light_switch/server/CMakeFiles/light_switch_server_nrf52840_xxAA_s140_6.0.0.dir/__/__/__/mesh/bearer/src/gap_address_filter.c.obj
 .text.bearer_filter_gap_addr_blacklist_set
                0x00000000        0x6 examples/light_switch/server/CMakeFiles/light_switch_server_nrf52840_xxAA_s140_6.0.0.dir/__/__/__/mesh/bearer/src/gap_address_filter.c.obj
 .text.bearer_filter_gap_addr_range_set
                0x00000000       0x38 examples/light_switch/server/CMakeFiles/light_switch_server_nrf52840_xxAA_s140_6.0.0.dir/__/__/__/mesh/bearer/src/gap_address_filter.c.obj
 .text.bearer_filter_gap_addr_clear
                0x00000000       0x20 examples/light_switch/server/CMakeFiles/light_switch_server_nrf52840_xxAA_s140_6.0.0.dir/__/__/__/mesh/bearer/src/gap_address_filter.c.obj
 .text.bearer_gap_addr_filtered_amount_get
                0x00000000        0xc examples/light_switch/server/CMakeFiles/light_switch_server_nrf52840_xxAA_s140_6.0.0.dir/__/__/__/mesh/bearer/src/gap_address_filter.c.obj
 .bss.m_addr_filter
                0x00000000       0x18 examples/light_switch/server/CMakeFiles/light_switch_server_nrf52840_xxAA_s140_6.0.0.dir/__/__/__/mesh/bearer/src/gap_address_filter.c.obj
 .debug_info    0x00000000      0xebb examples/light_switch/server/CMakeFiles/light_switch_server_nrf52840_xxAA_s140_6.0.0.dir/__/__/__/mesh/bearer/src/gap_address_filter.c.obj
 .debug_abbrev  0x00000000      0x2f4 examples/light_switch/server/CMakeFiles/light_switch_server_nrf52840_xxAA_s140_6.0.0.dir/__/__/__/mesh/bearer/src/gap_address_filter.c.obj
 .debug_loc     0x00000000      0x3e8 examples/light_switch/server/CMakeFiles/light_switch_server_nrf52840_xxAA_s140_6.0.0.dir/__/__/__/mesh/bearer/src/gap_address_filter.c.obj
 .debug_aranges
                0x00000000       0x50 examples/light_switch/server/CMakeFiles/light_switch_server_nrf52840_xxAA_s140_6.0.0.dir/__/__/__/mesh/bearer/src/gap_address_filter.c.obj
 .debug_ranges  0x00000000       0x58 examples/light_switch/server/CMakeFiles/light_switch_server_nrf52840_xxAA_s140_6.0.0.dir/__/__/__/mesh/bearer/src/gap_address_filter.c.obj
 .debug_line    0x00000000      0x3b6 examples/light_switch/server/CMakeFiles/light_switch_server_nrf52840_xxAA_s140_6.0.0.dir/__/__/__/mesh/bearer/src/gap_address_filter.c.obj
 .debug_str     0x00000000      0x982 examples/light_switch/server/CMakeFiles/light_switch_server_nrf52840_xxAA_s140_6.0.0.dir/__/__/__/mesh/bearer/src/gap_address_filter.c.obj
 .comment       0x00000000       0x80 examples/light_switch/server/CMakeFiles/light_switch_server_nrf52840_xxAA_s140_6.0.0.dir/__/__/__/mesh/bearer/src/gap_address_filter.c.obj
 .debug_frame   0x00000000       0xb4 examples/light_switch/server/CMakeFiles/light_switch_server_nrf52840_xxAA_s140_6.0.0.dir/__/__/__/mesh/bearer/src/gap_address_filter.c.obj
 .ARM.attributes
                0x00000000       0x39 examples/light_switch/server/CMakeFiles/light_switch_server_nrf52840_xxAA_s140_6.0.0.dir/__/__/__/mesh/bearer/src/gap_address_filter.c.obj
 .text          0x00000000        0x0 examples/light_switch/server/CMakeFiles/light_switch_server_nrf52840_xxAA_s140_6.0.0.dir/__/__/__/mesh/bearer/src/radio_config.c.obj
 .data          0x00000000        0x0 examples/light_switch/server/CMakeFiles/light_switch_server_nrf52840_xxAA_s140_6.0.0.dir/__/__/__/mesh/bearer/src/radio_config.c.obj
 .bss           0x00000000        0x0 examples/light_switch/server/CMakeFiles/light_switch_server_nrf52840_xxAA_s140_6.0.0.dir/__/__/__/mesh/bearer/src/radio_config.c.obj
 .text.radio_config_access_addr_get
                0x00000000       0x4c examples/light_switch/server/CMakeFiles/light_switch_server_nrf52840_xxAA_s140_6.0.0.dir/__/__/__/mesh/bearer/src/radio_config.c.obj
 .text          0x00000000        0x0 examples/light_switch/server/CMakeFiles/light_switch_server_nrf52840_xxAA_s140_6.0.0.dir/__/__/__/mesh/bearer/src/rssi_filter.c.obj
 .data          0x00000000        0x0 examples/light_switch/server/CMakeFiles/light_switch_server_nrf52840_xxAA_s140_6.0.0.dir/__/__/__/mesh/bearer/src/rssi_filter.c.obj
 .bss           0x00000000        0x0 examples/light_switch/server/CMakeFiles/light_switch_server_nrf52840_xxAA_s140_6.0.0.dir/__/__/__/mesh/bearer/src/rssi_filter.c.obj
 .text.rssi_filter_handle
                0x00000000       0x20 examples/light_switch/server/CMakeFiles/light_switch_server_nrf52840_xxAA_s140_6.0.0.dir/__/__/__/mesh/bearer/src/rssi_filter.c.obj
 .text.bearer_rssi_filtering_set
                0x00000000       0x34 examples/light_switch/server/CMakeFiles/light_switch_server_nrf52840_xxAA_s140_6.0.0.dir/__/__/__/mesh/bearer/src/rssi_filter.c.obj
 .text.bearer_rssi_filtered_amount_get
                0x00000000        0xc examples/light_switch/server/CMakeFiles/light_switch_server_nrf52840_xxAA_s140_6.0.0.dir/__/__/__/mesh/bearer/src/rssi_filter.c.obj
 .bss.m_rssi_filter
                0x00000000       0x18 examples/light_switch/server/CMakeFiles/light_switch_server_nrf52840_xxAA_s140_6.0.0.dir/__/__/__/mesh/bearer/src/rssi_filter.c.obj
 .debug_info    0x00000000      0xc73 examples/light_switch/server/CMakeFiles/light_switch_server_nrf52840_xxAA_s140_6.0.0.dir/__/__/__/mesh/bearer/src/rssi_filter.c.obj
 .debug_abbrev  0x00000000      0x28e examples/light_switch/server/CMakeFiles/light_switch_server_nrf52840_xxAA_s140_6.0.0.dir/__/__/__/mesh/bearer/src/rssi_filter.c.obj
 .debug_loc     0x00000000       0xb3 examples/light_switch/server/CMakeFiles/light_switch_server_nrf52840_xxAA_s140_6.0.0.dir/__/__/__/mesh/bearer/src/rssi_filter.c.obj
 .debug_aranges
                0x00000000       0x30 examples/light_switch/server/CMakeFiles/light_switch_server_nrf52840_xxAA_s140_6.0.0.dir/__/__/__/mesh/bearer/src/rssi_filter.c.obj
 .debug_ranges  0x00000000       0x20 examples/light_switch/server/CMakeFiles/light_switch_server_nrf52840_xxAA_s140_6.0.0.dir/__/__/__/mesh/bearer/src/rssi_filter.c.obj
 .debug_line    0x00000000      0x2d3 examples/light_switch/server/CMakeFiles/light_switch_server_nrf52840_xxAA_s140_6.0.0.dir/__/__/__/mesh/bearer/src/rssi_filter.c.obj
 .debug_str     0x00000000      0x83d examples/light_switch/server/CMakeFiles/light_switch_server_nrf52840_xxAA_s140_6.0.0.dir/__/__/__/mesh/bearer/src/rssi_filter.c.obj
 .comment       0x00000000       0x80 examples/light_switch/server/CMakeFiles/light_switch_server_nrf52840_xxAA_s140_6.0.0.dir/__/__/__/mesh/bearer/src/rssi_filter.c.obj
 .debug_frame   0x00000000       0x54 examples/light_switch/server/CMakeFiles/light_switch_server_nrf52840_xxAA_s140_6.0.0.dir/__/__/__/mesh/bearer/src/rssi_filter.c.obj
 .ARM.attributes
                0x00000000       0x39 examples/light_switch/server/CMakeFiles/light_switch_server_nrf52840_xxAA_s140_6.0.0.dir/__/__/__/mesh/bearer/src/rssi_filter.c.obj
 .text          0x00000000        0x0 examples/light_switch/server/CMakeFiles/light_switch_server_nrf52840_xxAA_s140_6.0.0.dir/__/__/__/mesh/bearer/src/scanner.c.obj
 .data          0x00000000        0x0 examples/light_switch/server/CMakeFiles/light_switch_server_nrf52840_xxAA_s140_6.0.0.dir/__/__/__/mesh/bearer/src/scanner.c.obj
 .bss           0x00000000        0x0 examples/light_switch/server/CMakeFiles/light_switch_server_nrf52840_xxAA_s140_6.0.0.dir/__/__/__/mesh/bearer/src/scanner.c.obj
 .text.scanner_rx_callback_set
                0x00000000       0x20 examples/light_switch/server/CMakeFiles/light_switch_server_nrf52840_xxAA_s140_6.0.0.dir/__/__/__/mesh/bearer/src/scanner.c.obj
 .text.scanner_disable
                0x00000000       0x3c examples/light_switch/server/CMakeFiles/light_switch_server_nrf52840_xxAA_s140_6.0.0.dir/__/__/__/mesh/bearer/src/scanner.c.obj
 .text.scanner_is_enabled
                0x00000000       0x10 examples/light_switch/server/CMakeFiles/light_switch_server_nrf52840_xxAA_s140_6.0.0.dir/__/__/__/mesh/bearer/src/scanner.c.obj
 .text.scanner_stats_get
                0x00000000        0x8 examples/light_switch/server/CMakeFiles/light_switch_server_nrf52840_xxAA_s140_6.0.0.dir/__/__/__/mesh/bearer/src/scanner.c.obj
 .text.scanner_config_radio_mode_set
                0x00000000       0x10 examples/light_switch/server/CMakeFiles/light_switch_server_nrf52840_xxAA_s140_6.0.0.dir/__/__/__/mesh/bearer/src/scanner.c.obj
 .text          0x00000000        0x0 examples/light_switch/server/CMakeFiles/light_switch_server_nrf52840_xxAA_s140_6.0.0.dir/__/__/__/mesh/bearer/src/mesh_pa_lna.c.obj
 .data          0x00000000        0x0 examples/light_switch/server/CMakeFiles/light_switch_server_nrf52840_xxAA_s140_6.0.0.dir/__/__/__/mesh/bearer/src/mesh_pa_lna.c.obj
 .bss           0x00000000        0x0 examples/light_switch/server/CMakeFiles/light_switch_server_nrf52840_xxAA_s140_6.0.0.dir/__/__/__/mesh/bearer/src/mesh_pa_lna.c.obj
 .text.unlikely.pin_init
                0x00000000       0x32 examples/light_switch/server/CMakeFiles/light_switch_server_nrf52840_xxAA_s140_6.0.0.dir/__/__/__/mesh/bearer/src/mesh_pa_lna.c.obj
 .text.mesh_pa_lna_gpiote_enable
                0x00000000       0x68 examples/light_switch/server/CMakeFiles/light_switch_server_nrf52840_xxAA_s140_6.0.0.dir/__/__/__/mesh/bearer/src/mesh_pa_lna.c.obj
 .text.mesh_pa_lna_gpiote_params_get
                0x00000000       0x10 examples/light_switch/server/CMakeFiles/light_switch_server_nrf52840_xxAA_s140_6.0.0.dir/__/__/__/mesh/bearer/src/mesh_pa_lna.c.obj
 .text.mesh_pa_lna_gpiote_disable
                0x00000000       0x20 examples/light_switch/server/CMakeFiles/light_switch_server_nrf52840_xxAA_s140_6.0.0.dir/__/__/__/mesh/bearer/src/mesh_pa_lna.c.obj
 .text          0x00000000        0x0 examples/light_switch/server/CMakeFiles/light_switch_server_nrf52840_xxAA_s140_6.0.0.dir/__/__/__/models/simple_on_off/src/simple_on_off_server.c.obj
 .data          0x00000000        0x0 examples/light_switch/server/CMakeFiles/light_switch_server_nrf52840_xxAA_s140_6.0.0.dir/__/__/__/models/simple_on_off/src/simple_on_off_server.c.obj
 .bss           0x00000000        0x0 examples/light_switch/server/CMakeFiles/light_switch_server_nrf52840_xxAA_s140_6.0.0.dir/__/__/__/models/simple_on_off/src/simple_on_off_server.c.obj
 .text          0x00000000        0x0 examples/light_switch/server/CMakeFiles/light_switch_server_nrf52840_xxAA_s140_6.0.0.dir/__/__/__/models/config/src/composition_data.c.obj
 .data          0x00000000        0x0 examples/light_switch/server/CMakeFiles/light_switch_server_nrf52840_xxAA_s140_6.0.0.dir/__/__/__/models/config/src/composition_data.c.obj
 .bss           0x00000000        0x0 examples/light_switch/server/CMakeFiles/light_switch_server_nrf52840_xxAA_s140_6.0.0.dir/__/__/__/models/config/src/composition_data.c.obj
 .text          0x00000000        0x0 examples/light_switch/server/CMakeFiles/light_switch_server_nrf52840_xxAA_s140_6.0.0.dir/__/__/__/models/config/src/config_server.c.obj
 .data          0x00000000        0x0 examples/light_switch/server/CMakeFiles/light_switch_server_nrf52840_xxAA_s140_6.0.0.dir/__/__/__/models/config/src/config_server.c.obj
 .bss           0x00000000        0x0 examples/light_switch/server/CMakeFiles/light_switch_server_nrf52840_xxAA_s140_6.0.0.dir/__/__/__/models/config/src/config_server.c.obj
 .text          0x00000000        0x0 examples/light_switch/server/CMakeFiles/light_switch_server_nrf52840_xxAA_s140_6.0.0.dir/__/__/__/models/config/src/packed_index_list.c.obj
 .data          0x00000000        0x0 examples/light_switch/server/CMakeFiles/light_switch_server_nrf52840_xxAA_s140_6.0.0.dir/__/__/__/models/config/src/packed_index_list.c.obj
 .bss           0x00000000        0x0 examples/light_switch/server/CMakeFiles/light_switch_server_nrf52840_xxAA_s140_6.0.0.dir/__/__/__/models/config/src/packed_index_list.c.obj
 .text          0x00000000        0x0 examples/light_switch/server/CMakeFiles/light_switch_server_nrf52840_xxAA_s140_6.0.0.dir/__/__/__/models/health/src/health_server.c.obj
 .data          0x00000000        0x0 examples/light_switch/server/CMakeFiles/light_switch_server_nrf52840_xxAA_s140_6.0.0.dir/__/__/__/models/health/src/health_server.c.obj
 .bss           0x00000000        0x0 examples/light_switch/server/CMakeFiles/light_switch_server_nrf52840_xxAA_s140_6.0.0.dir/__/__/__/models/health/src/health_server.c.obj
 .text.health_server_fault_is_set
                0x00000000       0x1c examples/light_switch/server/CMakeFiles/light_switch_server_nrf52840_xxAA_s140_6.0.0.dir/__/__/__/models/health/src/health_server.c.obj
 .text.health_server_fault_count_get
                0x00000000        0xc examples/light_switch/server/CMakeFiles/light_switch_server_nrf52840_xxAA_s140_6.0.0.dir/__/__/__/models/health/src/health_server.c.obj
 .text.health_server_fault_register
                0x00000000       0xca examples/light_switch/server/CMakeFiles/light_switch_server_nrf52840_xxAA_s140_6.0.0.dir/__/__/__/models/health/src/health_server.c.obj
 .text.health_server_fault_clear
                0x00000000       0x48 examples/light_switch/server/CMakeFiles/light_switch_server_nrf52840_xxAA_s140_6.0.0.dir/__/__/__/models/health/src/health_server.c.obj
 .text.health_server_attention_get
                0x00000000        0x6 examples/light_switch/server/CMakeFiles/light_switch_server_nrf52840_xxAA_s140_6.0.0.dir/__/__/__/models/health/src/health_server.c.obj
 .text.health_server_attention_set
                0x00000000        0x4 examples/light_switch/server/CMakeFiles/light_switch_server_nrf52840_xxAA_s140_6.0.0.dir/__/__/__/models/health/src/health_server.c.obj
 .text          0x00000000        0x0 examples/light_switch/server/CMakeFiles/light_switch_server_nrf52840_xxAA_s140_6.0.0.dir/__/__/__/mesh/access/src/access_publish.c.obj
 .data          0x00000000        0x0 examples/light_switch/server/CMakeFiles/light_switch_server_nrf52840_xxAA_s140_6.0.0.dir/__/__/__/mesh/access/src/access_publish.c.obj
 .bss           0x00000000        0x0 examples/light_switch/server/CMakeFiles/light_switch_server_nrf52840_xxAA_s140_6.0.0.dir/__/__/__/mesh/access/src/access_publish.c.obj
 .text          0x00000000        0x0 examples/light_switch/server/CMakeFiles/light_switch_server_nrf52840_xxAA_s140_6.0.0.dir/__/__/__/mesh/access/src/access.c.obj
 .data          0x00000000        0x0 examples/light_switch/server/CMakeFiles/light_switch_server_nrf52840_xxAA_s140_6.0.0.dir/__/__/__/mesh/access/src/access.c.obj
 .bss           0x00000000        0x0 examples/light_switch/server/CMakeFiles/light_switch_server_nrf52840_xxAA_s140_6.0.0.dir/__/__/__/mesh/access/src/access.c.obj
 .text.access_model_subscription_lists_share
                0x00000000       0x48 examples/light_switch/server/CMakeFiles/light_switch_server_nrf52840_xxAA_s140_6.0.0.dir/__/__/__/mesh/access/src/access.c.obj
 .text.access_element_location_set
                0x00000000       0x20 examples/light_switch/server/CMakeFiles/light_switch_server_nrf52840_xxAA_s140_6.0.0.dir/__/__/__/mesh/access/src/access.c.obj
 .text          0x00000000        0x0 examples/light_switch/server/CMakeFiles/light_switch_server_nrf52840_xxAA_s140_6.0.0.dir/__/__/__/mesh/access/src/access_reliable.c.obj
 .data          0x00000000        0x0 examples/light_switch/server/CMakeFiles/light_switch_server_nrf52840_xxAA_s140_6.0.0.dir/__/__/__/mesh/access/src/access_reliable.c.obj
 .bss           0x00000000        0x0 examples/light_switch/server/CMakeFiles/light_switch_server_nrf52840_xxAA_s140_6.0.0.dir/__/__/__/mesh/access/src/access_reliable.c.obj
 .text.access_model_reliable_publish
                0x00000000      0x1b8 examples/light_switch/server/CMakeFiles/light_switch_server_nrf52840_xxAA_s140_6.0.0.dir/__/__/__/mesh/access/src/access_reliable.c.obj
 .text          0x00000000        0x0 examples/light_switch/server/CMakeFiles/light_switch_server_nrf52840_xxAA_s140_6.0.0.dir/__/__/__/mesh/access/src/access_loopback.c.obj
 .data          0x00000000        0x0 examples/light_switch/server/CMakeFiles/light_switch_server_nrf52840_xxAA_s140_6.0.0.dir/__/__/__/mesh/access/src/access_loopback.c.obj
 .bss           0x00000000        0x0 examples/light_switch/server/CMakeFiles/light_switch_server_nrf52840_xxAA_s140_6.0.0.dir/__/__/__/mesh/access/src/access_loopback.c.obj
 .text          0x00000000        0x0 examples/light_switch/server/CMakeFiles/light_switch_server_nrf52840_xxAA_s140_6.0.0.dir/__/__/__/mesh/access/src/device_state_manager.c.obj
 .data          0x00000000        0x0 examples/light_switch/server/CMakeFiles/light_switch_server_nrf52840_xxAA_s140_6.0.0.dir/__/__/__/mesh/access/src/device_state_manager.c.obj
 .bss           0x00000000        0x0 examples/light_switch/server/CMakeFiles/light_switch_server_nrf52840_xxAA_s140_6.0.0.dir/__/__/__/mesh/access/src/device_state_manager.c.obj
 .text.dsm_has_unflashed_data
                0x00000000       0x24 examples/light_switch/server/CMakeFiles/light_switch_server_nrf52840_xxAA_s140_6.0.0.dir/__/__/__/mesh/access/src/device_state_manager.c.obj
 .text.dsm_address_subscription_get
                0x00000000       0x34 examples/light_switch/server/CMakeFiles/light_switch_server_nrf52840_xxAA_s140_6.0.0.dir/__/__/__/mesh/access/src/device_state_manager.c.obj
 .text.dsm_address_subscription_count_get
                0x00000000       0x58 examples/light_switch/server/CMakeFiles/light_switch_server_nrf52840_xxAA_s140_6.0.0.dir/__/__/__/mesh/access/src/device_state_manager.c.obj
 .text.dsm_address_get_all
                0x00000000       0x64 examples/light_switch/server/CMakeFiles/light_switch_server_nrf52840_xxAA_s140_6.0.0.dir/__/__/__/mesh/access/src/device_state_manager.c.obj
 .text.dsm_subnet_handle_to_netkey_index
                0x00000000       0x30 examples/light_switch/server/CMakeFiles/light_switch_server_nrf52840_xxAA_s140_6.0.0.dir/__/__/__/mesh/access/src/device_state_manager.c.obj
 .text.dsm_subnet_key_get
                0x00000000       0x44 examples/light_switch/server/CMakeFiles/light_switch_server_nrf52840_xxAA_s140_6.0.0.dir/__/__/__/mesh/access/src/device_state_manager.c.obj
 .text.dsm_devkey_delete
                0x00000000       0x38 examples/light_switch/server/CMakeFiles/light_switch_server_nrf52840_xxAA_s140_6.0.0.dir/__/__/__/mesh/access/src/device_state_manager.c.obj
 .text.dsm_devkey_handle_get
                0x00000000       0x34 examples/light_switch/server/CMakeFiles/light_switch_server_nrf52840_xxAA_s140_6.0.0.dir/__/__/__/mesh/access/src/device_state_manager.c.obj
 .text.dsm_beacon_info_get
                0x00000000       0x2c examples/light_switch/server/CMakeFiles/light_switch_server_nrf52840_xxAA_s140_6.0.0.dir/__/__/__/mesh/access/src/device_state_manager.c.obj
 .text          0x00000000        0x0 examples/light_switch/server/CMakeFiles/light_switch_server_nrf52840_xxAA_s140_6.0.0.dir/__/__/__/mesh/prov/src/prov_provisionee.c.obj
 .data          0x00000000        0x0 examples/light_switch/server/CMakeFiles/light_switch_server_nrf52840_xxAA_s140_6.0.0.dir/__/__/__/mesh/prov/src/prov_provisionee.c.obj
 .bss           0x00000000        0x0 examples/light_switch/server/CMakeFiles/light_switch_server_nrf52840_xxAA_s140_6.0.0.dir/__/__/__/mesh/prov/src/prov_provisionee.c.obj
 .text.prov_provisionee_shared_secret
                0x00000000       0x28 examples/light_switch/server/CMakeFiles/light_switch_server_nrf52840_xxAA_s140_6.0.0.dir/__/__/__/mesh/prov/src/prov_provisionee.c.obj
 .text          0x00000000        0x0 examples/light_switch/server/CMakeFiles/light_switch_server_nrf52840_xxAA_s140_6.0.0.dir/__/__/__/mesh/prov/src/nrf_mesh_prov.c.obj
 .data          0x00000000        0x0 examples/light_switch/server/CMakeFiles/light_switch_server_nrf52840_xxAA_s140_6.0.0.dir/__/__/__/mesh/prov/src/nrf_mesh_prov.c.obj
 .bss           0x00000000        0x0 examples/light_switch/server/CMakeFiles/light_switch_server_nrf52840_xxAA_s140_6.0.0.dir/__/__/__/mesh/prov/src/nrf_mesh_prov.c.obj
 .text.nrf_mesh_prov_provision
                0x00000000       0x4e examples/light_switch/server/CMakeFiles/light_switch_server_nrf52840_xxAA_s140_6.0.0.dir/__/__/__/mesh/prov/src/nrf_mesh_prov.c.obj
 .text.nrf_mesh_prov_oob_use
                0x00000000       0x18 examples/light_switch/server/CMakeFiles/light_switch_server_nrf52840_xxAA_s140_6.0.0.dir/__/__/__/mesh/prov/src/nrf_mesh_prov.c.obj
 .text.nrf_mesh_prov_shared_secret_provide
                0x00000000        0xe examples/light_switch/server/CMakeFiles/light_switch_server_nrf52840_xxAA_s140_6.0.0.dir/__/__/__/mesh/prov/src/nrf_mesh_prov.c.obj
 .text.nrf_mesh_prov_pubkey_provide
                0x00000000       0x10 examples/light_switch/server/CMakeFiles/light_switch_server_nrf52840_xxAA_s140_6.0.0.dir/__/__/__/mesh/prov/src/nrf_mesh_prov.c.obj
 .text.nrf_mesh_prov_scan_start
                0x00000000       0x10 examples/light_switch/server/CMakeFiles/light_switch_server_nrf52840_xxAA_s140_6.0.0.dir/__/__/__/mesh/prov/src/nrf_mesh_prov.c.obj
 .text.nrf_mesh_prov_scan_stop
                0x00000000        0x4 examples/light_switch/server/CMakeFiles/light_switch_server_nrf52840_xxAA_s140_6.0.0.dir/__/__/__/mesh/prov/src/nrf_mesh_prov.c.obj
 .text          0x00000000        0x0 examples/light_switch/server/CMakeFiles/light_switch_server_nrf52840_xxAA_s140_6.0.0.dir/__/__/__/mesh/prov/src/provisioning.c.obj
 .data          0x00000000        0x0 examples/light_switch/server/CMakeFiles/light_switch_server_nrf52840_xxAA_s140_6.0.0.dir/__/__/__/mesh/prov/src/provisioning.c.obj
 .bss           0x00000000        0x0 examples/light_switch/server/CMakeFiles/light_switch_server_nrf52840_xxAA_s140_6.0.0.dir/__/__/__/mesh/prov/src/provisioning.c.obj
 .text.prov_tx_invite
                0x00000000       0x28 examples/light_switch/server/CMakeFiles/light_switch_server_nrf52840_xxAA_s140_6.0.0.dir/__/__/__/mesh/prov/src/provisioning.c.obj
 .text.prov_tx_start
                0x00000000       0x20 examples/light_switch/server/CMakeFiles/light_switch_server_nrf52840_xxAA_s140_6.0.0.dir/__/__/__/mesh/prov/src/provisioning.c.obj
 .text.prov_tx_data
                0x00000000        0x6 examples/light_switch/server/CMakeFiles/light_switch_server_nrf52840_xxAA_s140_6.0.0.dir/__/__/__/mesh/prov/src/provisioning.c.obj
 .text.prov_tx  0x00000000        0x4 examples/light_switch/server/CMakeFiles/light_switch_server_nrf52840_xxAA_s140_6.0.0.dir/__/__/__/mesh/prov/src/provisioning.c.obj
 .text          0x00000000        0x0 examples/light_switch/server/CMakeFiles/light_switch_server_nrf52840_xxAA_s140_6.0.0.dir/__/__/__/mesh/prov/src/prov_beacon.c.obj
 .data          0x00000000        0x0 examples/light_switch/server/CMakeFiles/light_switch_server_nrf52840_xxAA_s140_6.0.0.dir/__/__/__/mesh/prov/src/prov_beacon.c.obj
 .bss           0x00000000        0x0 examples/light_switch/server/CMakeFiles/light_switch_server_nrf52840_xxAA_s140_6.0.0.dir/__/__/__/mesh/prov/src/prov_beacon.c.obj
 .text.prov_beacon_scan_start
                0x00000000       0x18 examples/light_switch/server/CMakeFiles/light_switch_server_nrf52840_xxAA_s140_6.0.0.dir/__/__/__/mesh/prov/src/prov_beacon.c.obj
 .text.prov_beacon_scan_stop
                0x00000000        0xc examples/light_switch/server/CMakeFiles/light_switch_server_nrf52840_xxAA_s140_6.0.0.dir/__/__/__/mesh/prov/src/prov_beacon.c.obj
 .text          0x00000000        0x0 examples/light_switch/server/CMakeFiles/light_switch_server_nrf52840_xxAA_s140_6.0.0.dir/__/__/__/mesh/prov/src/prov_utils.c.obj
 .data          0x00000000        0x0 examples/light_switch/server/CMakeFiles/light_switch_server_nrf52840_xxAA_s140_6.0.0.dir/__/__/__/mesh/prov/src/prov_utils.c.obj
 .bss           0x00000000        0x0 examples/light_switch/server/CMakeFiles/light_switch_server_nrf52840_xxAA_s140_6.0.0.dir/__/__/__/mesh/prov/src/prov_utils.c.obj
 .text          0x00000000        0x0 examples/light_switch/server/CMakeFiles/light_switch_server_nrf52840_xxAA_s140_6.0.0.dir/__/__/__/mesh/prov/src/prov_bearer_adv.c.obj
 .data          0x00000000        0x0 examples/light_switch/server/CMakeFiles/light_switch_server_nrf52840_xxAA_s140_6.0.0.dir/__/__/__/mesh/prov/src/prov_bearer_adv.c.obj
 .bss           0x00000000        0x0 examples/light_switch/server/CMakeFiles/light_switch_server_nrf52840_xxAA_s140_6.0.0.dir/__/__/__/mesh/prov/src/prov_bearer_adv.c.obj
 .text          0x00000000        0x0 examples/light_switch/server/CMakeFiles/light_switch_server_nrf52840_xxAA_s140_6.0.0.dir/C_/b/nRF5_SDK_15.0.0_a53641a/modules/nrfx/mdk/system_nrf52840.c.obj
 .data          0x00000000        0x0 examples/light_switch/server/CMakeFiles/light_switch_server_nrf52840_xxAA_s140_6.0.0.dir/C_/b/nRF5_SDK_15.0.0_a53641a/modules/nrfx/mdk/system_nrf52840.c.obj
 .bss           0x00000000        0x0 examples/light_switch/server/CMakeFiles/light_switch_server_nrf52840_xxAA_s140_6.0.0.dir/C_/b/nRF5_SDK_15.0.0_a53641a/modules/nrfx/mdk/system_nrf52840.c.obj
 .text.SystemCoreClockUpdate
                0x00000000       0x10 examples/light_switch/server/CMakeFiles/light_switch_server_nrf52840_xxAA_s140_6.0.0.dir/C_/b/nRF5_SDK_15.0.0_a53641a/modules/nrfx/mdk/system_nrf52840.c.obj
 .data          0x00000000        0x0 examples/light_switch/server/CMakeFiles/light_switch_server_nrf52840_xxAA_s140_6.0.0.dir/C_/b/nRF5_SDK_15.0.0_a53641a/modules/nrfx/mdk/gcc_startup_nrf52840.S.obj
 .bss           0x00000000        0x0 examples/light_switch/server/CMakeFiles/light_switch_server_nrf52840_xxAA_s140_6.0.0.dir/C_/b/nRF5_SDK_15.0.0_a53641a/modules/nrfx/mdk/gcc_startup_nrf52840.S.obj
 .text          0x00000000        0x0 examples/light_switch/server/CMakeFiles/light_switch_server_nrf52840_xxAA_s140_6.0.0.dir/C_/b/nRF5_SDK_15.0.0_a53641a/components/libraries/util/app_error.c.obj
 .data          0x00000000        0x0 examples/light_switch/server/CMakeFiles/light_switch_server_nrf52840_xxAA_s140_6.0.0.dir/C_/b/nRF5_SDK_15.0.0_a53641a/components/libraries/util/app_error.c.obj
 .bss           0x00000000        0x0 examples/light_switch/server/CMakeFiles/light_switch_server_nrf52840_xxAA_s140_6.0.0.dir/C_/b/nRF5_SDK_15.0.0_a53641a/components/libraries/util/app_error.c.obj
 .text.app_error_save_and_stop
                0x00000000       0x58 examples/light_switch/server/CMakeFiles/light_switch_server_nrf52840_xxAA_s140_6.0.0.dir/C_/b/nRF5_SDK_15.0.0_a53641a/components/libraries/util/app_error.c.obj
 .bss.m_error_data.8119
                0x00000000       0x20 examples/light_switch/server/CMakeFiles/light_switch_server_nrf52840_xxAA_s140_6.0.0.dir/C_/b/nRF5_SDK_15.0.0_a53641a/components/libraries/util/app_error.c.obj
 .text          0x00000000        0x0 examples/light_switch/server/CMakeFiles/light_switch_server_nrf52840_xxAA_s140_6.0.0.dir/C_/b/nRF5_SDK_15.0.0_a53641a/components/libraries/util/app_util_platform.c.obj
 .data          0x00000000        0x0 examples/light_switch/server/CMakeFiles/light_switch_server_nrf52840_xxAA_s140_6.0.0.dir/C_/b/nRF5_SDK_15.0.0_a53641a/components/libraries/util/app_util_platform.c.obj
 .bss           0x00000000        0x0 examples/light_switch/server/CMakeFiles/light_switch_server_nrf52840_xxAA_s140_6.0.0.dir/C_/b/nRF5_SDK_15.0.0_a53641a/components/libraries/util/app_util_platform.c.obj
 .text.app_util_disable_irq
                0x00000000       0x10 examples/light_switch/server/CMakeFiles/light_switch_server_nrf52840_xxAA_s140_6.0.0.dir/C_/b/nRF5_SDK_15.0.0_a53641a/components/libraries/util/app_util_platform.c.obj
 .text.app_util_enable_irq
                0x00000000       0x14 examples/light_switch/server/CMakeFiles/light_switch_server_nrf52840_xxAA_s140_6.0.0.dir/C_/b/nRF5_SDK_15.0.0_a53641a/components/libraries/util/app_util_platform.c.obj
 .text.privilege_level_get
                0x00000000       0x1a examples/light_switch/server/CMakeFiles/light_switch_server_nrf52840_xxAA_s140_6.0.0.dir/C_/b/nRF5_SDK_15.0.0_a53641a/components/libraries/util/app_util_platform.c.obj
 .text.current_int_priority_get
                0x00000000       0x38 examples/light_switch/server/CMakeFiles/light_switch_server_nrf52840_xxAA_s140_6.0.0.dir/C_/b/nRF5_SDK_15.0.0_a53641a/components/libraries/util/app_util_platform.c.obj
 .bss.m_in_critical_region
                0x00000000        0x4 examples/light_switch/server/CMakeFiles/light_switch_server_nrf52840_xxAA_s140_6.0.0.dir/C_/b/nRF5_SDK_15.0.0_a53641a/components/libraries/util/app_util_platform.c.obj
 .text          0x00000000        0x0 examples/light_switch/server/CMakeFiles/light_switch_server_nrf52840_xxAA_s140_6.0.0.dir/C_/b/nRF5_SDK_15.0.0_a53641a/components/libraries/timer/app_timer.c.obj
 .data          0x00000000        0x0 examples/light_switch/server/CMakeFiles/light_switch_server_nrf52840_xxAA_s140_6.0.0.dir/C_/b/nRF5_SDK_15.0.0_a53641a/components/libraries/timer/app_timer.c.obj
 .bss           0x00000000        0x0 examples/light_switch/server/CMakeFiles/light_switch_server_nrf52840_xxAA_s140_6.0.0.dir/C_/b/nRF5_SDK_15.0.0_a53641a/components/libraries/timer/app_timer.c.obj
 .text.app_timer_stop_all
                0x00000000       0x18 examples/light_switch/server/CMakeFiles/light_switch_server_nrf52840_xxAA_s140_6.0.0.dir/C_/b/nRF5_SDK_15.0.0_a53641a/components/libraries/timer/app_timer.c.obj
 .text.app_timer_cnt_get
                0x00000000        0xc examples/light_switch/server/CMakeFiles/light_switch_server_nrf52840_xxAA_s140_6.0.0.dir/C_/b/nRF5_SDK_15.0.0_a53641a/components/libraries/timer/app_timer.c.obj
 .text.app_timer_cnt_diff_compute
                0x00000000        0x8 examples/light_switch/server/CMakeFiles/light_switch_server_nrf52840_xxAA_s140_6.0.0.dir/C_/b/nRF5_SDK_15.0.0_a53641a/components/libraries/timer/app_timer.c.obj
 .text.app_timer_pause
                0x00000000        0xc examples/light_switch/server/CMakeFiles/light_switch_server_nrf52840_xxAA_s140_6.0.0.dir/C_/b/nRF5_SDK_15.0.0_a53641a/components/libraries/timer/app_timer.c.obj
 .text.app_timer_resume
                0x00000000        0xc examples/light_switch/server/CMakeFiles/light_switch_server_nrf52840_xxAA_s140_6.0.0.dir/C_/b/nRF5_SDK_15.0.0_a53641a/components/libraries/timer/app_timer.c.obj
 .text          0x00000000        0x0 examples/light_switch/server/CMakeFiles/light_switch_server_nrf52840_xxAA_s140_6.0.0.dir/C_/b/nRF5_SDK_15.0.0_a53641a/components/libraries/util/app_error_handler_gcc.c.obj
 .data          0x00000000        0x0 examples/light_switch/server/CMakeFiles/light_switch_server_nrf52840_xxAA_s140_6.0.0.dir/C_/b/nRF5_SDK_15.0.0_a53641a/components/libraries/util/app_error_handler_gcc.c.obj
 .bss           0x00000000        0x0 examples/light_switch/server/CMakeFiles/light_switch_server_nrf52840_xxAA_s140_6.0.0.dir/C_/b/nRF5_SDK_15.0.0_a53641a/components/libraries/util/app_error_handler_gcc.c.obj
 .text          0x00000000        0x0 external/rtt/librtt_nrf52840_xxAA.a(SEGGER_RTT.c.obj)
 .data          0x00000000        0x0 external/rtt/librtt_nrf52840_xxAA.a(SEGGER_RTT.c.obj)
 .bss           0x00000000        0x0 external/rtt/librtt_nrf52840_xxAA.a(SEGGER_RTT.c.obj)
 .text._PostTerminalSwitch.constprop.0
                0x00000000       0x28 external/rtt/librtt_nrf52840_xxAA.a(SEGGER_RTT.c.obj)
 .text.SEGGER_RTT_WriteSkipNoLock
                0x00000000       0xb4 external/rtt/librtt_nrf52840_xxAA.a(SEGGER_RTT.c.obj)
 .text.SEGGER_RTT_WriteString
                0x00000000       0x1a external/rtt/librtt_nrf52840_xxAA.a(SEGGER_RTT.c.obj)
 .text.SEGGER_RTT_WaitKey
                0x00000000        0xc external/rtt/librtt_nrf52840_xxAA.a(SEGGER_RTT.c.obj)
 .text.SEGGER_RTT_HasKey
                0x00000000       0x1c external/rtt/librtt_nrf52840_xxAA.a(SEGGER_RTT.c.obj)
 .text.SEGGER_RTT_HasData
                0x00000000       0x14 external/rtt/librtt_nrf52840_xxAA.a(SEGGER_RTT.c.obj)
 .text.SEGGER_RTT_AllocDownBuffer
                0x00000000       0x68 external/rtt/librtt_nrf52840_xxAA.a(SEGGER_RTT.c.obj)
 .text.SEGGER_RTT_AllocUpBuffer
                0x00000000       0x70 external/rtt/librtt_nrf52840_xxAA.a(SEGGER_RTT.c.obj)
 .text.SEGGER_RTT_ConfigUpBuffer
                0x00000000       0x68 external/rtt/librtt_nrf52840_xxAA.a(SEGGER_RTT.c.obj)
 .text.SEGGER_RTT_ConfigDownBuffer
                0x00000000       0x60 external/rtt/librtt_nrf52840_xxAA.a(SEGGER_RTT.c.obj)
 .text.SEGGER_RTT_SetNameUpBuffer
                0x00000000       0x3c external/rtt/librtt_nrf52840_xxAA.a(SEGGER_RTT.c.obj)
 .text.SEGGER_RTT_SetNameDownBuffer
                0x00000000       0x3c external/rtt/librtt_nrf52840_xxAA.a(SEGGER_RTT.c.obj)
 .text.SEGGER_RTT_Init
                0x00000000       0x10 external/rtt/librtt_nrf52840_xxAA.a(SEGGER_RTT.c.obj)
 .text.SEGGER_RTT_SetTerminal
                0x00000000       0x84 external/rtt/librtt_nrf52840_xxAA.a(SEGGER_RTT.c.obj)
 .text.SEGGER_RTT_TerminalOut
                0x00000000       0xa0 external/rtt/librtt_nrf52840_xxAA.a(SEGGER_RTT.c.obj)
 .bss._ActiveTerminal
                0x00000000        0x1 external/rtt/librtt_nrf52840_xxAA.a(SEGGER_RTT.c.obj)
 .rodata._aTerminalId
                0x00000000       0x10 external/rtt/librtt_nrf52840_xxAA.a(SEGGER_RTT.c.obj)
 .text          0x00000000        0x0 external/rtt/librtt_nrf52840_xxAA.a(SEGGER_RTT_printf.c.obj)
 .data          0x00000000        0x0 external/rtt/librtt_nrf52840_xxAA.a(SEGGER_RTT_printf.c.obj)
 .bss           0x00000000        0x0 external/rtt/librtt_nrf52840_xxAA.a(SEGGER_RTT_printf.c.obj)
 .text          0x00000000        0x0 external/micro-ecc/libuECC_nrf52840_xxAA.a(uECC.c.obj)
 .data          0x00000000        0x0 external/micro-ecc/libuECC_nrf52840_xxAA.a(uECC.c.obj)
 .bss           0x00000000        0x0 external/micro-ecc/libuECC_nrf52840_xxAA.a(uECC.c.obj)
 .text.uECC_vli_modMult
                0x00000000      0x148 external/micro-ecc/libuECC_nrf52840_xxAA.a(uECC.c.obj)
 .text.HMAC_init
                0x00000000       0x46 external/micro-ecc/libuECC_nrf52840_xxAA.a(uECC.c.obj)
 .text.HMAC_update
                0x00000000        0x4 external/micro-ecc/libuECC_nrf52840_xxAA.a(uECC.c.obj)
 .text.HMAC_finish
                0x00000000       0x62 external/micro-ecc/libuECC_nrf52840_xxAA.a(uECC.c.obj)
 .text.update_V
                0x00000000       0x24 external/micro-ecc/libuECC_nrf52840_xxAA.a(uECC.c.obj)
 .text.bits2int
                0x00000000       0x88 external/micro-ecc/libuECC_nrf52840_xxAA.a(uECC.c.obj)
 .text.uECC_sign_with_k
                0x00000000      0x17c external/micro-ecc/libuECC_nrf52840_xxAA.a(uECC.c.obj)
 .text.uECC_set_rng
                0x00000000        0xc external/micro-ecc/libuECC_nrf52840_xxAA.a(uECC.c.obj)
 .text.uECC_get_rng
                0x00000000        0xc external/micro-ecc/libuECC_nrf52840_xxAA.a(uECC.c.obj)
 .text.uECC_curve_private_key_size
                0x00000000        0xe external/micro-ecc/libuECC_nrf52840_xxAA.a(uECC.c.obj)
 .text.uECC_curve_public_key_size
                0x00000000        0x8 external/micro-ecc/libuECC_nrf52840_xxAA.a(uECC.c.obj)
 .text.uECC_compute_public_key
                0x00000000       0x7e external/micro-ecc/libuECC_nrf52840_xxAA.a(uECC.c.obj)
 .text.uECC_sign
                0x00000000       0x56 external/micro-ecc/libuECC_nrf52840_xxAA.a(uECC.c.obj)
 .text.uECC_sign_deterministic
                0x00000000      0x192 external/micro-ecc/libuECC_nrf52840_xxAA.a(uECC.c.obj)
 .text.uECC_verify
                0x00000000      0x2f0 external/micro-ecc/libuECC_nrf52840_xxAA.a(uECC.c.obj)
 .data          0x00000000        0x0 c:/mesh/arm_gcc/bin/../lib/gcc/arm-none-eabi/6.3.1/thumb/v7e-m/fpv4-sp/hard\libgcc.a(_aeabi_uldivmod.o)
 .bss           0x00000000        0x0 c:/mesh/arm_gcc/bin/../lib/gcc/arm-none-eabi/6.3.1/thumb/v7e-m/fpv4-sp/hard\libgcc.a(_aeabi_uldivmod.o)
 .data          0x00000000        0x0 c:/mesh/arm_gcc/bin/../lib/gcc/arm-none-eabi/6.3.1/thumb/v7e-m/fpv4-sp/hard\libgcc.a(_udivmoddi4.o)
 .bss           0x00000000        0x0 c:/mesh/arm_gcc/bin/../lib/gcc/arm-none-eabi/6.3.1/thumb/v7e-m/fpv4-sp/hard\libgcc.a(_udivmoddi4.o)
 .ARM.extab     0x00000000        0x0 c:/mesh/arm_gcc/bin/../lib/gcc/arm-none-eabi/6.3.1/thumb/v7e-m/fpv4-sp/hard\libgcc.a(_udivmoddi4.o)
 .data          0x00000000        0x0 c:/mesh/arm_gcc/bin/../lib/gcc/arm-none-eabi/6.3.1/thumb/v7e-m/fpv4-sp/hard\libgcc.a(_dvmd_tls.o)
 .bss           0x00000000        0x0 c:/mesh/arm_gcc/bin/../lib/gcc/arm-none-eabi/6.3.1/thumb/v7e-m/fpv4-sp/hard\libgcc.a(_dvmd_tls.o)
 .text          0x00000000        0x0 c:/mesh/arm_gcc/bin/../lib/gcc/arm-none-eabi/6.3.1/../../../../arm-none-eabi/lib/thumb/v7e-m/fpv4-sp/hard\libg_nano.a(lib_a-exit.o)
 .data          0x00000000        0x0 c:/mesh/arm_gcc/bin/../lib/gcc/arm-none-eabi/6.3.1/../../../../arm-none-eabi/lib/thumb/v7e-m/fpv4-sp/hard\libg_nano.a(lib_a-exit.o)
 .bss           0x00000000        0x0 c:/mesh/arm_gcc/bin/../lib/gcc/arm-none-eabi/6.3.1/../../../../arm-none-eabi/lib/thumb/v7e-m/fpv4-sp/hard\libg_nano.a(lib_a-exit.o)
 .text          0x00000000        0x0 c:/mesh/arm_gcc/bin/../lib/gcc/arm-none-eabi/6.3.1/../../../../arm-none-eabi/lib/thumb/v7e-m/fpv4-sp/hard\libg_nano.a(lib_a-impure.o)
 .data          0x00000000        0x0 c:/mesh/arm_gcc/bin/../lib/gcc/arm-none-eabi/6.3.1/../../../../arm-none-eabi/lib/thumb/v7e-m/fpv4-sp/hard\libg_nano.a(lib_a-impure.o)
 .bss           0x00000000        0x0 c:/mesh/arm_gcc/bin/../lib/gcc/arm-none-eabi/6.3.1/../../../../arm-none-eabi/lib/thumb/v7e-m/fpv4-sp/hard\libg_nano.a(lib_a-impure.o)
 .text          0x00000000        0x0 c:/mesh/arm_gcc/bin/../lib/gcc/arm-none-eabi/6.3.1/../../../../arm-none-eabi/lib/thumb/v7e-m/fpv4-sp/hard\libg_nano.a(lib_a-init.o)
 .data          0x00000000        0x0 c:/mesh/arm_gcc/bin/../lib/gcc/arm-none-eabi/6.3.1/../../../../arm-none-eabi/lib/thumb/v7e-m/fpv4-sp/hard\libg_nano.a(lib_a-init.o)
 .bss           0x00000000        0x0 c:/mesh/arm_gcc/bin/../lib/gcc/arm-none-eabi/6.3.1/../../../../arm-none-eabi/lib/thumb/v7e-m/fpv4-sp/hard\libg_nano.a(lib_a-init.o)
 .text          0x00000000        0x0 c:/mesh/arm_gcc/bin/../lib/gcc/arm-none-eabi/6.3.1/../../../../arm-none-eabi/lib/thumb/v7e-m/fpv4-sp/hard\libg_nano.a(lib_a-malloc.o)
 .data          0x00000000        0x0 c:/mesh/arm_gcc/bin/../lib/gcc/arm-none-eabi/6.3.1/../../../../arm-none-eabi/lib/thumb/v7e-m/fpv4-sp/hard\libg_nano.a(lib_a-malloc.o)
 .bss           0x00000000        0x0 c:/mesh/arm_gcc/bin/../lib/gcc/arm-none-eabi/6.3.1/../../../../arm-none-eabi/lib/thumb/v7e-m/fpv4-sp/hard\libg_nano.a(lib_a-malloc.o)
 .text          0x00000000        0x0 c:/mesh/arm_gcc/bin/../lib/gcc/arm-none-eabi/6.3.1/../../../../arm-none-eabi/lib/thumb/v7e-m/fpv4-sp/hard\libg_nano.a(lib_a-memcmp.o)
 .data          0x00000000        0x0 c:/mesh/arm_gcc/bin/../lib/gcc/arm-none-eabi/6.3.1/../../../../arm-none-eabi/lib/thumb/v7e-m/fpv4-sp/hard\libg_nano.a(lib_a-memcmp.o)
 .bss           0x00000000        0x0 c:/mesh/arm_gcc/bin/../lib/gcc/arm-none-eabi/6.3.1/../../../../arm-none-eabi/lib/thumb/v7e-m/fpv4-sp/hard\libg_nano.a(lib_a-memcmp.o)
 .text          0x00000000        0x0 c:/mesh/arm_gcc/bin/../lib/gcc/arm-none-eabi/6.3.1/../../../../arm-none-eabi/lib/thumb/v7e-m/fpv4-sp/hard\libg_nano.a(lib_a-memcpy-stub.o)
 .data          0x00000000        0x0 c:/mesh/arm_gcc/bin/../lib/gcc/arm-none-eabi/6.3.1/../../../../arm-none-eabi/lib/thumb/v7e-m/fpv4-sp/hard\libg_nano.a(lib_a-memcpy-stub.o)
 .bss           0x00000000        0x0 c:/mesh/arm_gcc/bin/../lib/gcc/arm-none-eabi/6.3.1/../../../../arm-none-eabi/lib/thumb/v7e-m/fpv4-sp/hard\libg_nano.a(lib_a-memcpy-stub.o)
 .text          0x00000000        0x0 c:/mesh/arm_gcc/bin/../lib/gcc/arm-none-eabi/6.3.1/../../../../arm-none-eabi/lib/thumb/v7e-m/fpv4-sp/hard\libg_nano.a(lib_a-memset.o)
 .data          0x00000000        0x0 c:/mesh/arm_gcc/bin/../lib/gcc/arm-none-eabi/6.3.1/../../../../arm-none-eabi/lib/thumb/v7e-m/fpv4-sp/hard\libg_nano.a(lib_a-memset.o)
 .bss           0x00000000        0x0 c:/mesh/arm_gcc/bin/../lib/gcc/arm-none-eabi/6.3.1/../../../../arm-none-eabi/lib/thumb/v7e-m/fpv4-sp/hard\libg_nano.a(lib_a-memset.o)
 .text          0x00000000        0x0 c:/mesh/arm_gcc/bin/../lib/gcc/arm-none-eabi/6.3.1/../../../../arm-none-eabi/lib/thumb/v7e-m/fpv4-sp/hard\libg_nano.a(lib_a-nano-freer.o)
 .data          0x00000000        0x0 c:/mesh/arm_gcc/bin/../lib/gcc/arm-none-eabi/6.3.1/../../../../arm-none-eabi/lib/thumb/v7e-m/fpv4-sp/hard\libg_nano.a(lib_a-nano-freer.o)
 .bss           0x00000000        0x0 c:/mesh/arm_gcc/bin/../lib/gcc/arm-none-eabi/6.3.1/../../../../arm-none-eabi/lib/thumb/v7e-m/fpv4-sp/hard\libg_nano.a(lib_a-nano-freer.o)
 .text          0x00000000        0x0 c:/mesh/arm_gcc/bin/../lib/gcc/arm-none-eabi/6.3.1/../../../../arm-none-eabi/lib/thumb/v7e-m/fpv4-sp/hard\libg_nano.a(lib_a-nano-mallocr.o)
 .data          0x00000000        0x0 c:/mesh/arm_gcc/bin/../lib/gcc/arm-none-eabi/6.3.1/../../../../arm-none-eabi/lib/thumb/v7e-m/fpv4-sp/hard\libg_nano.a(lib_a-nano-mallocr.o)
 .bss           0x00000000        0x0 c:/mesh/arm_gcc/bin/../lib/gcc/arm-none-eabi/6.3.1/../../../../arm-none-eabi/lib/thumb/v7e-m/fpv4-sp/hard\libg_nano.a(lib_a-nano-mallocr.o)
 .text          0x00000000        0x0 c:/mesh/arm_gcc/bin/../lib/gcc/arm-none-eabi/6.3.1/../../../../arm-none-eabi/lib/thumb/v7e-m/fpv4-sp/hard\libg_nano.a(lib_a-sbrkr.o)
 .data          0x00000000        0x0 c:/mesh/arm_gcc/bin/../lib/gcc/arm-none-eabi/6.3.1/../../../../arm-none-eabi/lib/thumb/v7e-m/fpv4-sp/hard\libg_nano.a(lib_a-sbrkr.o)
 .bss           0x00000000        0x0 c:/mesh/arm_gcc/bin/../lib/gcc/arm-none-eabi/6.3.1/../../../../arm-none-eabi/lib/thumb/v7e-m/fpv4-sp/hard\libg_nano.a(lib_a-sbrkr.o)
 .text          0x00000000        0x0 c:/mesh/arm_gcc/bin/../lib/gcc/arm-none-eabi/6.3.1/../../../../arm-none-eabi/lib/thumb/v7e-m/fpv4-sp/hard\libg_nano.a(lib_a-strcpy.o)
 .data          0x00000000        0x0 c:/mesh/arm_gcc/bin/../lib/gcc/arm-none-eabi/6.3.1/../../../../arm-none-eabi/lib/thumb/v7e-m/fpv4-sp/hard\libg_nano.a(lib_a-strcpy.o)
 .bss           0x00000000        0x0 c:/mesh/arm_gcc/bin/../lib/gcc/arm-none-eabi/6.3.1/../../../../arm-none-eabi/lib/thumb/v7e-m/fpv4-sp/hard\libg_nano.a(lib_a-strcpy.o)
 .data          0x00000000        0x0 c:/mesh/arm_gcc/bin/../lib/gcc/arm-none-eabi/6.3.1/../../../../arm-none-eabi/lib/thumb/v7e-m/fpv4-sp/hard\libg_nano.a(lib_a-strlen.o)
 .bss           0x00000000        0x0 c:/mesh/arm_gcc/bin/../lib/gcc/arm-none-eabi/6.3.1/../../../../arm-none-eabi/lib/thumb/v7e-m/fpv4-sp/hard\libg_nano.a(lib_a-strlen.o)
 .text          0x00000000        0x0 c:/mesh/arm_gcc/bin/../lib/gcc/arm-none-eabi/6.3.1/../../../../arm-none-eabi/lib/thumb/v7e-m/fpv4-sp/hard\libg_nano.a(lib_a-strrchr.o)
 .data          0x00000000        0x0 c:/mesh/arm_gcc/bin/../lib/gcc/arm-none-eabi/6.3.1/../../../../arm-none-eabi/lib/thumb/v7e-m/fpv4-sp/hard\libg_nano.a(lib_a-strrchr.o)
 .bss           0x00000000        0x0 c:/mesh/arm_gcc/bin/../lib/gcc/arm-none-eabi/6.3.1/../../../../arm-none-eabi/lib/thumb/v7e-m/fpv4-sp/hard\libg_nano.a(lib_a-strrchr.o)
 .text          0x00000000        0x0 c:/mesh/arm_gcc/bin/../lib/gcc/arm-none-eabi/6.3.1/../../../../arm-none-eabi/lib/thumb/v7e-m/fpv4-sp/hard\libg_nano.a(lib_a-mlock.o)
 .data          0x00000000        0x0 c:/mesh/arm_gcc/bin/../lib/gcc/arm-none-eabi/6.3.1/../../../../arm-none-eabi/lib/thumb/v7e-m/fpv4-sp/hard\libg_nano.a(lib_a-mlock.o)
 .bss           0x00000000        0x0 c:/mesh/arm_gcc/bin/../lib/gcc/arm-none-eabi/6.3.1/../../../../arm-none-eabi/lib/thumb/v7e-m/fpv4-sp/hard\libg_nano.a(lib_a-mlock.o)
 .text          0x00000000        0x0 c:/mesh/arm_gcc/bin/../lib/gcc/arm-none-eabi/6.3.1/../../../../arm-none-eabi/lib/thumb/v7e-m/fpv4-sp/hard\libg_nano.a(lib_a-reent.o)
 .data          0x00000000        0x0 c:/mesh/arm_gcc/bin/../lib/gcc/arm-none-eabi/6.3.1/../../../../arm-none-eabi/lib/thumb/v7e-m/fpv4-sp/hard\libg_nano.a(lib_a-reent.o)
 .bss           0x00000000        0x0 c:/mesh/arm_gcc/bin/../lib/gcc/arm-none-eabi/6.3.1/../../../../arm-none-eabi/lib/thumb/v7e-m/fpv4-sp/hard\libg_nano.a(lib_a-reent.o)
 .text.cleanup_glue
                0x00000000       0x1a c:/mesh/arm_gcc/bin/../lib/gcc/arm-none-eabi/6.3.1/../../../../arm-none-eabi/lib/thumb/v7e-m/fpv4-sp/hard\libg_nano.a(lib_a-reent.o)
 .text._reclaim_reent
                0x00000000       0xb8 c:/mesh/arm_gcc/bin/../lib/gcc/arm-none-eabi/6.3.1/../../../../arm-none-eabi/lib/thumb/v7e-m/fpv4-sp/hard\libg_nano.a(lib_a-reent.o)
 .text          0x00000000        0x0 c:/mesh/arm_gcc/bin/../lib/gcc/arm-none-eabi/6.3.1/../../../../arm-none-eabi/lib/thumb/v7e-m/fpv4-sp/hard\libg_nano.a(lib_a-strchr.o)
 .data          0x00000000        0x0 c:/mesh/arm_gcc/bin/../lib/gcc/arm-none-eabi/6.3.1/../../../../arm-none-eabi/lib/thumb/v7e-m/fpv4-sp/hard\libg_nano.a(lib_a-strchr.o)
 .bss           0x00000000        0x0 c:/mesh/arm_gcc/bin/../lib/gcc/arm-none-eabi/6.3.1/../../../../arm-none-eabi/lib/thumb/v7e-m/fpv4-sp/hard\libg_nano.a(lib_a-strchr.o)
 .text          0x00000000        0x0 c:/mesh/arm_gcc/bin/../lib/gcc/arm-none-eabi/6.3.1/thumb/v7e-m/fpv4-sp/hard/crtend.o
 .data          0x00000000        0x0 c:/mesh/arm_gcc/bin/../lib/gcc/arm-none-eabi/6.3.1/thumb/v7e-m/fpv4-sp/hard/crtend.o
 .bss           0x00000000        0x0 c:/mesh/arm_gcc/bin/../lib/gcc/arm-none-eabi/6.3.1/thumb/v7e-m/fpv4-sp/hard/crtend.o
 .text          0x00000000        0x0 c:/mesh/arm_gcc/bin/../lib/gcc/arm-none-eabi/6.3.1/thumb/v7e-m/fpv4-sp/hard/crtn.o
 .data          0x00000000        0x0 c:/mesh/arm_gcc/bin/../lib/gcc/arm-none-eabi/6.3.1/thumb/v7e-m/fpv4-sp/hard/crtn.o
 .bss           0x00000000        0x0 c:/mesh/arm_gcc/bin/../lib/gcc/arm-none-eabi/6.3.1/thumb/v7e-m/fpv4-sp/hard/crtn.o
 .text          0x00000000        0x0 c:/mesh/arm_gcc/bin/../lib/gcc/arm-none-eabi/6.3.1/../../../../arm-none-eabi/lib/thumb/v7e-m/fpv4-sp/hard\libnosys.a(sbrk.o)
 .data          0x00000000        0x0 c:/mesh/arm_gcc/bin/../lib/gcc/arm-none-eabi/6.3.1/../../../../arm-none-eabi/lib/thumb/v7e-m/fpv4-sp/hard\libnosys.a(sbrk.o)
 .bss           0x00000000        0x0 c:/mesh/arm_gcc/bin/../lib/gcc/arm-none-eabi/6.3.1/../../../../arm-none-eabi/lib/thumb/v7e-m/fpv4-sp/hard\libnosys.a(sbrk.o)
 .text          0x00000000        0x0 c:/mesh/arm_gcc/bin/../lib/gcc/arm-none-eabi/6.3.1/../../../../arm-none-eabi/lib/thumb/v7e-m/fpv4-sp/hard\libnosys.a(_exit.o)
 .data          0x00000000        0x0 c:/mesh/arm_gcc/bin/../lib/gcc/arm-none-eabi/6.3.1/../../../../arm-none-eabi/lib/thumb/v7e-m/fpv4-sp/hard\libnosys.a(_exit.o)
 .bss           0x00000000        0x0 c:/mesh/arm_gcc/bin/../lib/gcc/arm-none-eabi/6.3.1/../../../../arm-none-eabi/lib/thumb/v7e-m/fpv4-sp/hard\libnosys.a(_exit.o)

Memory Configuration

Name             Origin             Length             Attributes
FLASH            0x00026000         0x000d1000         xr
RAM              0x20002da0         0x0003cf60         xrw
*default*        0x00000000         0xffffffff

Linker script and memory map


.text           0x00026000    0x139e4
 *(.isr_vector)
 .isr_vector    0x00026000      0x200 examples/light_switch/server/CMakeFiles/light_switch_server_nrf52840_xxAA_s140_6.0.0.dir/C_/b/nRF5_SDK_15.0.0_a53641a/modules/nrfx/mdk/gcc_startup_nrf52840.S.obj
                0x00026000                __isr_vector
 *(.text*)
 .text          0x00026200       0x6c c:/mesh/arm_gcc/bin/../lib/gcc/arm-none-eabi/6.3.1/thumb/v7e-m/fpv4-sp/hard/crtbegin.o
 .text          0x0002626c       0x74 c:/mesh/arm_gcc/bin/../lib/gcc/arm-none-eabi/6.3.1/../../../../arm-none-eabi/lib/thumb/v7e-m/fpv4-sp/hard/crt0.o
                0x0002626c                _start
                0x0002626c                _mainCRTStartup
 .text.sd_app_evt_wait
                0x000262e0        0x4 examples/light_switch/server/CMakeFiles/light_switch_server_nrf52840_xxAA_s140_6.0.0.dir/src/main.c.obj
 .text.provisioning_complete_cb
                0x000262e4       0xd0 examples/light_switch/server/CMakeFiles/light_switch_server_nrf52840_xxAA_s140_6.0.0.dir/src/main.c.obj
 .text.on_off_server_get_cb
                0x000263b4        0x6 examples/light_switch/server/CMakeFiles/light_switch_server_nrf52840_xxAA_s140_6.0.0.dir/src/main.c.obj
 *fill*         0x000263ba        0x2 
 .text.on_off_server_set_cb
                0x000263bc       0x70 examples/light_switch/server/CMakeFiles/light_switch_server_nrf52840_xxAA_s140_6.0.0.dir/src/main.c.obj
 .text.node_reset
                0x0002642c       0x74 examples/light_switch/server/CMakeFiles/light_switch_server_nrf52840_xxAA_s140_6.0.0.dir/src/main.c.obj
 .text.button_event_handler
                0x000264a0       0xec examples/light_switch/server/CMakeFiles/light_switch_server_nrf52840_xxAA_s140_6.0.0.dir/src/main.c.obj
 .text.app_rtt_input_handler
                0x0002658c        0xc examples/light_switch/server/CMakeFiles/light_switch_server_nrf52840_xxAA_s140_6.0.0.dir/src/main.c.obj
 .text.config_server_evt_cb
                0x00026598        0xc examples/light_switch/server/CMakeFiles/light_switch_server_nrf52840_xxAA_s140_6.0.0.dir/src/main.c.obj
 .text.models_init_cb
                0x000265a4       0xa0 examples/light_switch/server/CMakeFiles/light_switch_server_nrf52840_xxAA_s140_6.0.0.dir/src/main.c.obj
 .text.startup.main
                0x00026644      0x278 examples/light_switch/server/CMakeFiles/light_switch_server_nrf52840_xxAA_s140_6.0.0.dir/src/main.c.obj
                0x00026644                main
 .text.mesh_evt_handler
                0x000268bc        0xe examples/light_switch/server/CMakeFiles/light_switch_server_nrf52840_xxAA_s140_6.0.0.dir/__/__/__/mesh/stack/src/mesh_stack.c.obj
 .text.mesh_stack_start
                0x000268ca        0x4 examples/light_switch/server/CMakeFiles/light_switch_server_nrf52840_xxAA_s140_6.0.0.dir/__/__/__/mesh/stack/src/mesh_stack.c.obj
                0x000268ca                mesh_stack_start
 .text.mesh_stack_provisioning_data_store
                0x000268ce       0x6c examples/light_switch/server/CMakeFiles/light_switch_server_nrf52840_xxAA_s140_6.0.0.dir/__/__/__/mesh/stack/src/mesh_stack.c.obj
                0x000268ce                mesh_stack_provisioning_data_store
 .text.mesh_stack_config_clear
                0x0002693a       0x12 examples/light_switch/server/CMakeFiles/light_switch_server_nrf52840_xxAA_s140_6.0.0.dir/__/__/__/mesh/stack/src/mesh_stack.c.obj
                0x0002693a                mesh_stack_config_clear
 .text.mesh_stack_is_device_provisioned
                0x0002694c       0x18 examples/light_switch/server/CMakeFiles/light_switch_server_nrf52840_xxAA_s140_6.0.0.dir/__/__/__/mesh/stack/src/mesh_stack.c.obj
                0x0002694c                mesh_stack_is_device_provisioned
 .text.mesh_stack_init
                0x00026964       0x60 examples/light_switch/server/CMakeFiles/light_switch_server_nrf52840_xxAA_s140_6.0.0.dir/__/__/__/mesh/stack/src/mesh_stack.c.obj
                0x00026964                mesh_stack_init
 .text.mesh_stack_device_reset
                0x000269c4       0x20 examples/light_switch/server/CMakeFiles/light_switch_server_nrf52840_xxAA_s140_6.0.0.dir/__/__/__/mesh/stack/src/mesh_stack.c.obj
                0x000269c4                mesh_stack_device_reset
 .text.sd_evt_get
                0x000269e4        0x4 examples/light_switch/server/CMakeFiles/light_switch_server_nrf52840_xxAA_s140_6.0.0.dir/__/__/common/src/mesh_softdevice_init.c.obj
 .text.sd_softdevice_enable
                0x000269e8        0x4 examples/light_switch/server/CMakeFiles/light_switch_server_nrf52840_xxAA_s140_6.0.0.dir/__/__/common/src/mesh_softdevice_init.c.obj
 .text.sd_ble_enable
                0x000269ec        0x4 examples/light_switch/server/CMakeFiles/light_switch_server_nrf52840_xxAA_s140_6.0.0.dir/__/__/common/src/mesh_softdevice_init.c.obj
 .text.sd_ble_cfg_set
                0x000269f0        0x4 examples/light_switch/server/CMakeFiles/light_switch_server_nrf52840_xxAA_s140_6.0.0.dir/__/__/common/src/mesh_softdevice_init.c.obj
 .text.SWI2_EGU2_IRQHandler
                0x000269f4       0x18 examples/light_switch/server/CMakeFiles/light_switch_server_nrf52840_xxAA_s140_6.0.0.dir/__/__/common/src/mesh_softdevice_init.c.obj
                0x000269f4                SWI2_EGU2_IRQHandler
 .text.mesh_softdevice_init
                0x00026a0c      0x1ac examples/light_switch/server/CMakeFiles/light_switch_server_nrf52840_xxAA_s140_6.0.0.dir/__/__/common/src/mesh_softdevice_init.c.obj
                0x00026a0c                mesh_softdevice_init
 .text.provisionee_start
                0x00026bb8       0x18 examples/light_switch/server/CMakeFiles/light_switch_server_nrf52840_xxAA_s140_6.0.0.dir/__/__/common/src/mesh_provisionee.c.obj
 .text.prov_evt_handler
                0x00026bd0       0x64 examples/light_switch/server/CMakeFiles/light_switch_server_nrf52840_xxAA_s140_6.0.0.dir/__/__/common/src/mesh_provisionee.c.obj
 .text.mesh_provisionee_prov_start
                0x00026c34       0x78 examples/light_switch/server/CMakeFiles/light_switch_server_nrf52840_xxAA_s140_6.0.0.dir/__/__/common/src/mesh_provisionee.c.obj
                0x00026c34                mesh_provisionee_prov_start
 .text.timeout_handler
                0x00026cac       0x1c examples/light_switch/server/CMakeFiles/light_switch_server_nrf52840_xxAA_s140_6.0.0.dir/__/__/common/src/rtt_input.c.obj
                0x00026cac                timeout_handler
 .text.rtt_input_enable
                0x00026cc8       0x6c examples/light_switch/server/CMakeFiles/light_switch_server_nrf52840_xxAA_s140_6.0.0.dir/__/__/common/src/rtt_input.c.obj
                0x00026cc8                rtt_input_enable
 .text.led_timeout_handler
                0x00026d34       0x40 examples/light_switch/server/CMakeFiles/light_switch_server_nrf52840_xxAA_s140_6.0.0.dir/__/__/common/src/simple_hal.c.obj
 .text.hal_led_pin_get
                0x00026d74       0x18 examples/light_switch/server/CMakeFiles/light_switch_server_nrf52840_xxAA_s140_6.0.0.dir/__/__/common/src/simple_hal.c.obj
                0x00026d74                hal_led_pin_get
 .text.hal_led_pin_set
                0x00026d8c       0x16 examples/light_switch/server/CMakeFiles/light_switch_server_nrf52840_xxAA_s140_6.0.0.dir/__/__/common/src/simple_hal.c.obj
                0x00026d8c                hal_led_pin_set
 .text.hal_led_mask_set
                0x00026da2       0x12 examples/light_switch/server/CMakeFiles/light_switch_server_nrf52840_xxAA_s140_6.0.0.dir/__/__/common/src/simple_hal.c.obj
                0x00026da2                hal_led_mask_set
 .text.hal_led_blink_ms
                0x00026db4       0x5c examples/light_switch/server/CMakeFiles/light_switch_server_nrf52840_xxAA_s140_6.0.0.dir/__/__/common/src/simple_hal.c.obj
                0x00026db4                hal_led_blink_ms
 .text.hal_leds_init
                0x00026e10       0x58 examples/light_switch/server/CMakeFiles/light_switch_server_nrf52840_xxAA_s140_6.0.0.dir/__/__/common/src/simple_hal.c.obj
                0x00026e10                hal_leds_init
 .text.hal_buttons_init
                0x00026e68       0x50 examples/light_switch/server/CMakeFiles/light_switch_server_nrf52840_xxAA_s140_6.0.0.dir/__/__/common/src/simple_hal.c.obj
                0x00026e68                hal_buttons_init
 .text.GPIOTE_IRQHandler
                0x00026eb8       0x60 examples/light_switch/server/CMakeFiles/light_switch_server_nrf52840_xxAA_s140_6.0.0.dir/__/__/common/src/simple_hal.c.obj
                0x00026eb8                GPIOTE_IRQHandler
 .text.mesh_app_uuid_gen
                0x00026f18       0x30 examples/light_switch/server/CMakeFiles/light_switch_server_nrf52840_xxAA_s140_6.0.0.dir/__/__/common/src/mesh_app_utils.c.obj
                0x00026f18                mesh_app_uuid_gen
 .text._weak_handler
                0x00026f48        0x4 examples/light_switch/server/CMakeFiles/light_switch_server_nrf52840_xxAA_s140_6.0.0.dir/__/__/nrf_mesh_weak.c.obj
                0x00026f48                nrf_mesh_dfu_init
                0x00026f48                nrf_mesh_dfu_jump_to_bootloader
                0x00026f48                nrf_mesh_dfu_rx
                0x00026f48                prov_provisioner_provision
                0x00026f48                nrf_mesh_dfu_bank_info_get
                0x00026f48                prov_provisioner_oob_pubkey
                0x00026f48                nrf_mesh_dfu_request
                0x00026f48                nrf_mesh_dfu_bank_flash
                0x00026f48                _weak_handler
                0x00026f48                nrf_mesh_dfu_relay
                0x00026f48                nrf_mesh_dfu_abort
                0x00026f48                mesh_flash_op_execute
                0x00026f48                prov_provisionee_init
                0x00026f48                nrf_mesh_dfu_state_get
                0x00026f48                prov_provisioner_shared_secret
                0x00026f48                prov_provisioner_auth_data
                0x00026f48                prov_provisioner_oob_use
 .text.app_error_fault_handler
                0x00026f4c      0x204 examples/light_switch/server/CMakeFiles/light_switch_server_nrf52840_xxAA_s140_6.0.0.dir/__/__/common/src/app_error_weak.c.obj
                0x00026f4c                app_error_fault_handler
 .text.mesh_assertion_handler
                0x00027150       0x24 examples/light_switch/server/CMakeFiles/light_switch_server_nrf52840_xxAA_s140_6.0.0.dir/__/__/common/src/assertion_handler_weak.c.obj
                0x00027150                mesh_assertion_handler
 .text.nrf_mesh_configure_device_uuid_set
                0x00027174       0x10 examples/light_switch/server/CMakeFiles/light_switch_server_nrf52840_xxAA_s140_6.0.0.dir/__/__/__/mesh/core/src/nrf_mesh_configure.c.obj
                0x00027174                nrf_mesh_configure_device_uuid_set
 .text.nrf_mesh_configure_device_uuid_reset
                0x00027184       0x28 examples/light_switch/server/CMakeFiles/light_switch_server_nrf52840_xxAA_s140_6.0.0.dir/__/__/__/mesh/core/src/nrf_mesh_configure.c.obj
                0x00027184                nrf_mesh_configure_device_uuid_reset
 .text.nrf_mesh_configure_device_uuid_get
                0x000271ac        0x8 examples/light_switch/server/CMakeFiles/light_switch_server_nrf52840_xxAA_s140_6.0.0.dir/__/__/__/mesh/core/src/nrf_mesh_configure.c.obj
                0x000271ac                nrf_mesh_configure_device_uuid_get
 .text.msg_cache_init
                0x000271b4       0x24 examples/light_switch/server/CMakeFiles/light_switch_server_nrf52840_xxAA_s140_6.0.0.dir/__/__/__/mesh/core/src/msg_cache.c.obj
                0x000271b4                msg_cache_init
 .text.msg_cache_entry_exists
                0x000271d8       0x3c examples/light_switch/server/CMakeFiles/light_switch_server_nrf52840_xxAA_s140_6.0.0.dir/__/__/__/mesh/core/src/msg_cache.c.obj
                0x000271d8                msg_cache_entry_exists
 .text.msg_cache_entry_add
                0x00027214       0x2c examples/light_switch/server/CMakeFiles/light_switch_server_nrf52840_xxAA_s140_6.0.0.dir/__/__/__/mesh/core/src/msg_cache.c.obj
                0x00027214                msg_cache_entry_add
 .text.seqauth_sequence_number_get
                0x00027240       0x12 examples/light_switch/server/CMakeFiles/light_switch_server_nrf52840_xxAA_s140_6.0.0.dir/__/__/__/mesh/core/src/transport.c.obj
 *fill*         0x00027252        0x2 
 .text.control_packet_callback_get
                0x00027254       0x44 examples/light_switch/server/CMakeFiles/light_switch_server_nrf52840_xxAA_s140_6.0.0.dir/__/__/__/mesh/core/src/transport.c.obj
 .text.tx_complete
                0x00027298       0x2c examples/light_switch/server/CMakeFiles/light_switch_server_nrf52840_xxAA_s140_6.0.0.dir/__/__/__/mesh/core/src/transport.c.obj
 .text.block_ack_full
                0x000272c4       0x1a examples/light_switch/server/CMakeFiles/light_switch_server_nrf52840_xxAA_s140_6.0.0.dir/__/__/__/mesh/core/src/transport.c.obj
 *fill*         0x000272de        0x2 
 .text.sar_rx_session_mark_as_handled
                0x000272e0       0x48 examples/light_switch/server/CMakeFiles/light_switch_server_nrf52840_xxAA_s140_6.0.0.dir/__/__/__/mesh/core/src/transport.c.obj
 .text.upper_trs_packet_encrypt
                0x00027328       0x90 examples/light_switch/server/CMakeFiles/light_switch_server_nrf52840_xxAA_s140_6.0.0.dir/__/__/__/mesh/core/src/transport.c.obj
 .text.sar_ctx_free
                0x000273b8       0x3c examples/light_switch/server/CMakeFiles/light_switch_server_nrf52840_xxAA_s140_6.0.0.dir/__/__/__/mesh/core/src/transport.c.obj
 .text.sar_ctx_tx_complete
                0x000273f4       0x2e examples/light_switch/server/CMakeFiles/light_switch_server_nrf52840_xxAA_s140_6.0.0.dir/__/__/__/mesh/core/src/transport.c.obj
 *fill*         0x00027422        0x2 
 .text.sar_ctx_alloc
                0x00027424       0xa8 examples/light_switch/server/CMakeFiles/light_switch_server_nrf52840_xxAA_s140_6.0.0.dir/__/__/__/mesh/core/src/transport.c.obj
 .text.test_transport_decrypt
                0x000274cc       0x88 examples/light_switch/server/CMakeFiles/light_switch_server_nrf52840_xxAA_s140_6.0.0.dir/__/__/__/mesh/core/src/transport.c.obj
 .text.upper_transport_access_packet_in
                0x00027554      0x19c examples/light_switch/server/CMakeFiles/light_switch_server_nrf52840_xxAA_s140_6.0.0.dir/__/__/__/mesh/core/src/transport.c.obj
 .text.trs_packet_header_build
                0x000276f0       0xa6 examples/light_switch/server/CMakeFiles/light_switch_server_nrf52840_xxAA_s140_6.0.0.dir/__/__/__/mesh/core/src/transport.c.obj
 *fill*         0x00027796        0x2 
 .text.tx_retry_timer_reset
                0x00027798       0x44 examples/light_switch/server/CMakeFiles/light_switch_server_nrf52840_xxAA_s140_6.0.0.dir/__/__/__/mesh/core/src/transport.c.obj
 .text.sar_ctx_cancel
                0x000277dc       0xa8 examples/light_switch/server/CMakeFiles/light_switch_server_nrf52840_xxAA_s140_6.0.0.dir/__/__/__/mesh/core/src/transport.c.obj
 .text.abort_timeout
                0x00027884        0x8 examples/light_switch/server/CMakeFiles/light_switch_server_nrf52840_xxAA_s140_6.0.0.dir/__/__/__/mesh/core/src/transport.c.obj
 .text.trs_sar_packet_out
                0x0002788c       0xda examples/light_switch/server/CMakeFiles/light_switch_server_nrf52840_xxAA_s140_6.0.0.dir/__/__/__/mesh/core/src/transport.c.obj
 .text.retry_timeout
                0x00027966       0x46 examples/light_switch/server/CMakeFiles/light_switch_server_nrf52840_xxAA_s140_6.0.0.dir/__/__/__/mesh/core/src/transport.c.obj
 .text.upper_transport_packet_in
                0x000279ac      0x150 examples/light_switch/server/CMakeFiles/light_switch_server_nrf52840_xxAA_s140_6.0.0.dir/__/__/__/mesh/core/src/transport.c.obj
 .text.upper_transport_tx
                0x00027afc      0x1e4 examples/light_switch/server/CMakeFiles/light_switch_server_nrf52840_xxAA_s140_6.0.0.dir/__/__/__/mesh/core/src/transport.c.obj
 .text.transport_sar_mem_funcs_reset
                0x00027ce0       0x28 examples/light_switch/server/CMakeFiles/light_switch_server_nrf52840_xxAA_s140_6.0.0.dir/__/__/__/mesh/core/src/transport.c.obj
                0x00027ce0                transport_sar_mem_funcs_reset
 .text.transport_init
                0x00027d08       0x8c examples/light_switch/server/CMakeFiles/light_switch_server_nrf52840_xxAA_s140_6.0.0.dir/__/__/__/mesh/core/src/transport.c.obj
                0x00027d08                transport_init
 .text.transport_tx
                0x00027d94       0xb4 examples/light_switch/server/CMakeFiles/light_switch_server_nrf52840_xxAA_s140_6.0.0.dir/__/__/__/mesh/core/src/transport.c.obj
                0x00027d94                transport_tx
 .text.transport_control_tx
                0x00027e48       0x8e examples/light_switch/server/CMakeFiles/light_switch_server_nrf52840_xxAA_s140_6.0.0.dir/__/__/__/mesh/core/src/transport.c.obj
                0x00027e48                transport_control_tx
 *fill*         0x00027ed6        0x2 
 .text.sar_ack_send
                0x00027ed8       0xa0 examples/light_switch/server/CMakeFiles/light_switch_server_nrf52840_xxAA_s140_6.0.0.dir/__/__/__/mesh/core/src/transport.c.obj
 .text.transport_sar_process
                0x00027f78       0x74 examples/light_switch/server/CMakeFiles/light_switch_server_nrf52840_xxAA_s140_6.0.0.dir/__/__/__/mesh/core/src/transport.c.obj
 .text.transport_packet_in
                0x00027fec      0x434 examples/light_switch/server/CMakeFiles/light_switch_server_nrf52840_xxAA_s140_6.0.0.dir/__/__/__/mesh/core/src/transport.c.obj
                0x00027fec                transport_packet_in
 .text.ack_timeout
                0x00028420       0x28 examples/light_switch/server/CMakeFiles/light_switch_server_nrf52840_xxAA_s140_6.0.0.dir/__/__/__/mesh/core/src/transport.c.obj
 .text.transport_opt_set
                0x00028448       0xd0 examples/light_switch/server/CMakeFiles/light_switch_server_nrf52840_xxAA_s140_6.0.0.dir/__/__/__/mesh/core/src/transport.c.obj
                0x00028448                transport_opt_set
 .text.transport_opt_get
                0x00028518       0x68 examples/light_switch/server/CMakeFiles/light_switch_server_nrf52840_xxAA_s140_6.0.0.dir/__/__/__/mesh/core/src/transport.c.obj
                0x00028518                transport_opt_get
 .text.transport_control_packet_consumer_add
                0x00028580       0x5c examples/light_switch/server/CMakeFiles/light_switch_server_nrf52840_xxAA_s140_6.0.0.dir/__/__/__/mesh/core/src/transport.c.obj
                0x00028580                transport_control_packet_consumer_add
 .text.event_handle
                0x000285dc       0x54 examples/light_switch/server/CMakeFiles/light_switch_server_nrf52840_xxAA_s140_6.0.0.dir/__/__/__/mesh/core/src/event.c.obj
                0x000285dc                event_handle
 .text.event_handler_add
                0x00028630       0x20 examples/light_switch/server/CMakeFiles/light_switch_server_nrf52840_xxAA_s140_6.0.0.dir/__/__/__/mesh/core/src/event.c.obj
                0x00028630                event_handler_add
 .text.event_handler_remove
                0x00028650       0x34 examples/light_switch/server/CMakeFiles/light_switch_server_nrf52840_xxAA_s140_6.0.0.dir/__/__/__/mesh/core/src/event.c.obj
                0x00028650                event_handler_remove
 .text.m_index_increment
                0x00028684       0x1e examples/light_switch/server/CMakeFiles/light_switch_server_nrf52840_xxAA_s140_6.0.0.dir/__/__/__/mesh/core/src/packet_buffer.c.obj
 .text.packet_buffer_init
                0x000286a2       0xac examples/light_switch/server/CMakeFiles/light_switch_server_nrf52840_xxAA_s140_6.0.0.dir/__/__/__/mesh/core/src/packet_buffer.c.obj
                0x000286a2                packet_buffer_init
 .text.packet_buffer_flush
                0x0002874e       0x60 examples/light_switch/server/CMakeFiles/light_switch_server_nrf52840_xxAA_s140_6.0.0.dir/__/__/__/mesh/core/src/packet_buffer.c.obj
                0x0002874e                packet_buffer_flush
 .text.packet_buffer_reserve
                0x000287ae       0x96 examples/light_switch/server/CMakeFiles/light_switch_server_nrf52840_xxAA_s140_6.0.0.dir/__/__/__/mesh/core/src/packet_buffer.c.obj
                0x000287ae                packet_buffer_reserve
 .text.packet_buffer_commit
                0x00028844       0x58 examples/light_switch/server/CMakeFiles/light_switch_server_nrf52840_xxAA_s140_6.0.0.dir/__/__/__/mesh/core/src/packet_buffer.c.obj
                0x00028844                packet_buffer_commit
 .text.packet_buffer_pop
                0x0002889c       0x3c examples/light_switch/server/CMakeFiles/light_switch_server_nrf52840_xxAA_s140_6.0.0.dir/__/__/__/mesh/core/src/packet_buffer.c.obj
                0x0002889c                packet_buffer_pop
 .text.packet_buffer_can_pop
                0x000288d8       0x1c examples/light_switch/server/CMakeFiles/light_switch_server_nrf52840_xxAA_s140_6.0.0.dir/__/__/__/mesh/core/src/packet_buffer.c.obj
                0x000288d8                packet_buffer_can_pop
 .text.packet_buffer_packets_ready_to_pop
                0x000288f4       0x3a examples/light_switch/server/CMakeFiles/light_switch_server_nrf52840_xxAA_s140_6.0.0.dir/__/__/__/mesh/core/src/packet_buffer.c.obj
                0x000288f4                packet_buffer_packets_ready_to_pop
 .text.packet_buffer_free
                0x0002892e       0x6e examples/light_switch/server/CMakeFiles/light_switch_server_nrf52840_xxAA_s140_6.0.0.dir/__/__/__/mesh/core/src/packet_buffer.c.obj
                0x0002892e                packet_buffer_free
 .text.get_last_page
                0x0002899c       0x14 examples/light_switch/server/CMakeFiles/light_switch_server_nrf52840_xxAA_s140_6.0.0.dir/__/__/__/mesh/core/src/flash_manager_defrag.c.obj
 .text.defrag_on_end
                0x000289b0       0x1c examples/light_switch/server/CMakeFiles/light_switch_server_nrf52840_xxAA_s140_6.0.0.dir/__/__/__/mesh/core/src/flash_manager_defrag.c.obj
 .text.execute_procedure_step
                0x000289cc       0x7c examples/light_switch/server/CMakeFiles/light_switch_server_nrf52840_xxAA_s140_6.0.0.dir/__/__/__/mesh/core/src/flash_manager_defrag.c.obj
 .text.get_next_entry
                0x00028a48       0x34 examples/light_switch/server/CMakeFiles/light_switch_server_nrf52840_xxAA_s140_6.0.0.dir/__/__/__/mesh/core/src/flash_manager_defrag.c.obj
 .text.get_next_data_entry
                0x00028a7c       0x26 examples/light_switch/server/CMakeFiles/light_switch_server_nrf52840_xxAA_s140_6.0.0.dir/__/__/__/mesh/core/src/flash_manager_defrag.c.obj
 *fill*         0x00028aa2        0x2 
 .text.on_flash_op_end
                0x00028aa4       0x30 examples/light_switch/server/CMakeFiles/light_switch_server_nrf52840_xxAA_s140_6.0.0.dir/__/__/__/mesh/core/src/flash_manager_defrag.c.obj
 .text.check_for_invalid_entries
                0x00028ad4       0x38 examples/light_switch/server/CMakeFiles/light_switch_server_nrf52840_xxAA_s140_6.0.0.dir/__/__/__/mesh/core/src/flash_manager_defrag.c.obj
 .text.erase_recovery_area
                0x00028b0c       0x34 examples/light_switch/server/CMakeFiles/light_switch_server_nrf52840_xxAA_s140_6.0.0.dir/__/__/__/mesh/core/src/flash_manager_defrag.c.obj
 .text.flash.constprop.6
                0x00028b40       0x24 examples/light_switch/server/CMakeFiles/light_switch_server_nrf52840_xxAA_s140_6.0.0.dir/__/__/__/mesh/core/src/flash_manager_defrag.c.obj
 .text.seal_storage_page
                0x00028b64       0x50 examples/light_switch/server/CMakeFiles/light_switch_server_nrf52840_xxAA_s140_6.0.0.dir/__/__/__/mesh/core/src/flash_manager_defrag.c.obj
 .text.invalidate_duplicate_entries
                0x00028bb4       0x9c examples/light_switch/server/CMakeFiles/light_switch_server_nrf52840_xxAA_s140_6.0.0.dir/__/__/__/mesh/core/src/flash_manager_defrag.c.obj
 .text.copy_metadata
                0x00028c50       0x3c examples/light_switch/server/CMakeFiles/light_switch_server_nrf52840_xxAA_s140_6.0.0.dir/__/__/__/mesh/core/src/flash_manager_defrag.c.obj
 .text.write_defrag_start_pointer
                0x00028c8c       0x20 examples/light_switch/server/CMakeFiles/light_switch_server_nrf52840_xxAA_s140_6.0.0.dir/__/__/__/mesh/core/src/flash_manager_defrag.c.obj
 .text.write_back
                0x00028cac       0x28 examples/light_switch/server/CMakeFiles/light_switch_server_nrf52840_xxAA_s140_6.0.0.dir/__/__/__/mesh/core/src/flash_manager_defrag.c.obj
 .text.post_process
                0x00028cd4       0x40 examples/light_switch/server/CMakeFiles/light_switch_server_nrf52840_xxAA_s140_6.0.0.dir/__/__/__/mesh/core/src/flash_manager_defrag.c.obj
 .text.backup_entries
                0x00028d14       0xf8 examples/light_switch/server/CMakeFiles/light_switch_server_nrf52840_xxAA_s140_6.0.0.dir/__/__/__/mesh/core/src/flash_manager_defrag.c.obj
 .text.erase_source
                0x00028e0c       0x34 examples/light_switch/server/CMakeFiles/light_switch_server_nrf52840_xxAA_s140_6.0.0.dir/__/__/__/mesh/core/src/flash_manager_defrag.c.obj
 .text.flash_manager_defrag_init
                0x00028e40       0x8c examples/light_switch/server/CMakeFiles/light_switch_server_nrf52840_xxAA_s140_6.0.0.dir/__/__/__/mesh/core/src/flash_manager_defrag.c.obj
                0x00028e40                flash_manager_defrag_init
 .text.flash_manager_defrag_is_running
                0x00028ecc       0x10 examples/light_switch/server/CMakeFiles/light_switch_server_nrf52840_xxAA_s140_6.0.0.dir/__/__/__/mesh/core/src/flash_manager_defrag.c.obj
                0x00028ecc                flash_manager_defrag_is_running
 .text.flash_manager_defrag
                0x00028edc       0x44 examples/light_switch/server/CMakeFiles/light_switch_server_nrf52840_xxAA_s140_6.0.0.dir/__/__/__/mesh/core/src/flash_manager_defrag.c.obj
                0x00028edc                flash_manager_defrag
 .text.flash_manager_defrag_recovery_page_get
                0x00028f20        0xc examples/light_switch/server/CMakeFiles/light_switch_server_nrf52840_xxAA_s140_6.0.0.dir/__/__/__/mesh/core/src/flash_manager_defrag.c.obj
                0x00028f20                flash_manager_defrag_recovery_page_get
 .text.fifo_init
                0x00028f2c       0x34 examples/light_switch/server/CMakeFiles/light_switch_server_nrf52840_xxAA_s140_6.0.0.dir/__/__/__/mesh/core/src/fifo.c.obj
                0x00028f2c                fifo_init
 .text.fifo_push
                0x00028f60       0x50 examples/light_switch/server/CMakeFiles/light_switch_server_nrf52840_xxAA_s140_6.0.0.dir/__/__/__/mesh/core/src/fifo.c.obj
                0x00028f60                fifo_push
 .text.fifo_pop
                0x00028fb0       0x52 examples/light_switch/server/CMakeFiles/light_switch_server_nrf52840_xxAA_s140_6.0.0.dir/__/__/__/mesh/core/src/fifo.c.obj
                0x00028fb0                fifo_pop
 *fill*         0x00029002        0x2 
 .text.wait_for_ready
                0x00029004       0x10 examples/light_switch/server/CMakeFiles/light_switch_server_nrf52840_xxAA_s140_6.0.0.dir/__/__/__/mesh/core/src/nrf_flash.c.obj
 .text.nrf_flash_erase
                0x00029014       0x50 examples/light_switch/server/CMakeFiles/light_switch_server_nrf52840_xxAA_s140_6.0.0.dir/__/__/__/mesh/core/src/nrf_flash.c.obj
                0x00029014                nrf_flash_erase
 .text.nrf_flash_write
                0x00029064       0x50 examples/light_switch/server/CMakeFiles/light_switch_server_nrf52840_xxAA_s140_6.0.0.dir/__/__/__/mesh/core/src/nrf_flash.c.obj
                0x00029064                nrf_flash_write
 .text.packet_mgr_init
                0x000290b4       0x4c examples/light_switch/server/CMakeFiles/light_switch_server_nrf52840_xxAA_s140_6.0.0.dir/__/__/__/mesh/core/src/packet_mgr.c.obj
                0x000290b4                packet_mgr_init
 .text.flash_store_iv_index
                0x00029100       0x38 examples/light_switch/server/CMakeFiles/light_switch_server_nrf52840_xxAA_s140_6.0.0.dir/__/__/__/mesh/core/src/net_state.c.obj
 .text.flash_mem_available
                0x00029138       0x14 examples/light_switch/server/CMakeFiles/light_switch_server_nrf52840_xxAA_s140_6.0.0.dir/__/__/__/mesh/core/src/net_state.c.obj
 .text.seqnum_block_allocate
                0x0002914c       0x4c examples/light_switch/server/CMakeFiles/light_switch_server_nrf52840_xxAA_s140_6.0.0.dir/__/__/__/mesh/core/src/net_state.c.obj
 .text.net_state_reset
                0x00029198       0x3c examples/light_switch/server/CMakeFiles/light_switch_server_nrf52840_xxAA_s140_6.0.0.dir/__/__/__/mesh/core/src/net_state.c.obj
                0x00029198                net_state_reset
 .text.flash_write_complete
                0x000291d4       0x64 examples/light_switch/server/CMakeFiles/light_switch_server_nrf52840_xxAA_s140_6.0.0.dir/__/__/__/mesh/core/src/net_state.c.obj
 .text.net_state_recover_from_flash
                0x00029238       0x8c examples/light_switch/server/CMakeFiles/light_switch_server_nrf52840_xxAA_s140_6.0.0.dir/__/__/__/mesh/core/src/net_state.c.obj
                0x00029238                net_state_recover_from_flash
 .text.net_state_flash_area_get
                0x000292c4        0xc examples/light_switch/server/CMakeFiles/light_switch_server_nrf52840_xxAA_s140_6.0.0.dir/__/__/__/mesh/core/src/net_state.c.obj
                0x000292c4                net_state_flash_area_get
 .text.init_flash_storage
                0x000292d0       0x40 examples/light_switch/server/CMakeFiles/light_switch_server_nrf52840_xxAA_s140_6.0.0.dir/__/__/__/mesh/core/src/net_state.c.obj
 .text.net_state_init
                0x00029310       0x5c examples/light_switch/server/CMakeFiles/light_switch_server_nrf52840_xxAA_s140_6.0.0.dir/__/__/__/mesh/core/src/net_state.c.obj
                0x00029310                net_state_init
 .text.net_state_iv_update_start
                0x0002936c       0x68 examples/light_switch/server/CMakeFiles/light_switch_server_nrf52840_xxAA_s140_6.0.0.dir/__/__/__/mesh/core/src/net_state.c.obj
                0x0002936c                net_state_iv_update_start
 .text.iv_update_trigger_if_pending
                0x000293d4       0x80 examples/light_switch/server/CMakeFiles/light_switch_server_nrf52840_xxAA_s140_6.0.0.dir/__/__/__/mesh/core/src/net_state.c.obj
 .text.mesh_evt_handler
                0x00029454       0xa0 examples/light_switch/server/CMakeFiles/light_switch_server_nrf52840_xxAA_s140_6.0.0.dir/__/__/__/mesh/core/src/net_state.c.obj
 .text.iv_update_timer_handler
                0x000294f4       0x68 examples/light_switch/server/CMakeFiles/light_switch_server_nrf52840_xxAA_s140_6.0.0.dir/__/__/__/mesh/core/src/net_state.c.obj
 .text.net_state_seqnum_alloc
                0x0002955c       0x68 examples/light_switch/server/CMakeFiles/light_switch_server_nrf52840_xxAA_s140_6.0.0.dir/__/__/__/mesh/core/src/net_state.c.obj
                0x0002955c                net_state_seqnum_alloc
 .text.net_state_iv_index_lock
                0x000295c4       0x3c examples/light_switch/server/CMakeFiles/light_switch_server_nrf52840_xxAA_s140_6.0.0.dir/__/__/__/mesh/core/src/net_state.c.obj
                0x000295c4                net_state_iv_index_lock
 .text.net_state_key_refresh_phase_changed
                0x00029600       0x20 examples/light_switch/server/CMakeFiles/light_switch_server_nrf52840_xxAA_s140_6.0.0.dir/__/__/__/mesh/core/src/net_state.c.obj
                0x00029600                net_state_key_refresh_phase_changed
 .text.net_state_beacon_iv_index_get
                0x00029620        0xc examples/light_switch/server/CMakeFiles/light_switch_server_nrf52840_xxAA_s140_6.0.0.dir/__/__/__/mesh/core/src/net_state.c.obj
                0x00029620                net_state_beacon_iv_index_get
 .text.net_state_tx_iv_index_get
                0x0002962c       0x14 examples/light_switch/server/CMakeFiles/light_switch_server_nrf52840_xxAA_s140_6.0.0.dir/__/__/__/mesh/core/src/net_state.c.obj
                0x0002962c                net_state_tx_iv_index_get
 .text.net_state_rx_iv_index_get
                0x00029640       0x18 examples/light_switch/server/CMakeFiles/light_switch_server_nrf52840_xxAA_s140_6.0.0.dir/__/__/__/mesh/core/src/net_state.c.obj
                0x00029640                net_state_rx_iv_index_get
 .text.net_state_iv_update_get
                0x00029658        0xc examples/light_switch/server/CMakeFiles/light_switch_server_nrf52840_xxAA_s140_6.0.0.dir/__/__/__/mesh/core/src/net_state.c.obj
                0x00029658                net_state_iv_update_get
 .text.net_state_iv_index_set
                0x00029664       0x30 examples/light_switch/server/CMakeFiles/light_switch_server_nrf52840_xxAA_s140_6.0.0.dir/__/__/__/mesh/core/src/net_state.c.obj
                0x00029664                net_state_iv_index_set
 .text.send_end_events
                0x00029694       0x84 examples/light_switch/server/CMakeFiles/light_switch_server_nrf52840_xxAA_s140_6.0.0.dir/__/__/__/mesh/core/src/mesh_flash.c.obj
 .text.flash_op_schedule
                0x00029718       0x88 examples/light_switch/server/CMakeFiles/light_switch_server_nrf52840_xxAA_s140_6.0.0.dir/__/__/__/mesh/core/src/mesh_flash.c.obj
 .text.flash_op_start
                0x000297a0      0x13c examples/light_switch/server/CMakeFiles/light_switch_server_nrf52840_xxAA_s140_6.0.0.dir/__/__/__/mesh/core/src/mesh_flash.c.obj
 .text.mesh_flash_init
                0x000298dc       0x88 examples/light_switch/server/CMakeFiles/light_switch_server_nrf52840_xxAA_s140_6.0.0.dir/__/__/__/mesh/core/src/mesh_flash.c.obj
                0x000298dc                mesh_flash_init
 .text.mesh_flash_user_callback_set
                0x00029964       0x20 examples/light_switch/server/CMakeFiles/light_switch_server_nrf52840_xxAA_s140_6.0.0.dir/__/__/__/mesh/core/src/mesh_flash.c.obj
                0x00029964                mesh_flash_user_callback_set
 .text.mesh_flash_op_push
                0x00029984       0xe4 examples/light_switch/server/CMakeFiles/light_switch_server_nrf52840_xxAA_s140_6.0.0.dir/__/__/__/mesh/core/src/mesh_flash.c.obj
                0x00029984                mesh_flash_op_push
 .text.nrf_mesh_address_type_get
                0x00029a68       0x10 examples/light_switch/server/CMakeFiles/light_switch_server_nrf52840_xxAA_s140_6.0.0.dir/__/__/__/mesh/core/src/nrf_mesh_utils.c.obj
                0x00029a68                nrf_mesh_address_type_get
 .text.sd_softdevice_is_enabled
                0x00029a78        0x4 examples/light_switch/server/CMakeFiles/light_switch_server_nrf52840_xxAA_s140_6.0.0.dir/__/__/__/mesh/core/src/nrf_mesh.c.obj
 .text.nrf_mesh_listen
                0x00029a7c      0x138 examples/light_switch/server/CMakeFiles/light_switch_server_nrf52840_xxAA_s140_6.0.0.dir/__/__/__/mesh/core/src/nrf_mesh.c.obj
 .text.flash_stable_cb
                0x00029bb4       0x20 examples/light_switch/server/CMakeFiles/light_switch_server_nrf52840_xxAA_s140_6.0.0.dir/__/__/__/mesh/core/src/nrf_mesh.c.obj
 .text.scanner_packet_process_cb
                0x00029bd4       0x8c examples/light_switch/server/CMakeFiles/light_switch_server_nrf52840_xxAA_s140_6.0.0.dir/__/__/__/mesh/core/src/nrf_mesh.c.obj
 .text.nrf_mesh_init
                0x00029c60       0xd8 examples/light_switch/server/CMakeFiles/light_switch_server_nrf52840_xxAA_s140_6.0.0.dir/__/__/__/mesh/core/src/nrf_mesh.c.obj
                0x00029c60                nrf_mesh_init
 .text.nrf_mesh_enable
                0x00029d38       0x3c examples/light_switch/server/CMakeFiles/light_switch_server_nrf52840_xxAA_s140_6.0.0.dir/__/__/__/mesh/core/src/nrf_mesh.c.obj
                0x00029d38                nrf_mesh_enable
 .text.nrf_mesh_packet_send
                0x00029d74       0x7c examples/light_switch/server/CMakeFiles/light_switch_server_nrf52840_xxAA_s140_6.0.0.dir/__/__/__/mesh/core/src/nrf_mesh.c.obj
                0x00029d74                nrf_mesh_packet_send
 .text.nrf_mesh_evt_handler_add
                0x00029df0        0x4 examples/light_switch/server/CMakeFiles/light_switch_server_nrf52840_xxAA_s140_6.0.0.dir/__/__/__/mesh/core/src/nrf_mesh.c.obj
                0x00029df0                nrf_mesh_evt_handler_add
 .text.nrf_mesh_on_sd_evt
                0x00029df4        0xa examples/light_switch/server/CMakeFiles/light_switch_server_nrf52840_xxAA_s140_6.0.0.dir/__/__/__/mesh/core/src/nrf_mesh.c.obj
                0x00029df4                nrf_mesh_on_sd_evt
 .text.nrf_mesh_subnet_added
                0x00029dfe        0x2 examples/light_switch/server/CMakeFiles/light_switch_server_nrf52840_xxAA_s140_6.0.0.dir/__/__/__/mesh/core/src/nrf_mesh.c.obj
                0x00029dfe                nrf_mesh_subnet_added
 .text.nrf_mesh_unique_token_get
                0x00029e00       0x18 examples/light_switch/server/CMakeFiles/light_switch_server_nrf52840_xxAA_s140_6.0.0.dir/__/__/__/mesh/core/src/nrf_mesh.c.obj
                0x00029e00                nrf_mesh_unique_token_get
 .text.queue_init
                0x00029e18       0x14 examples/light_switch/server/CMakeFiles/light_switch_server_nrf52840_xxAA_s140_6.0.0.dir/__/__/__/mesh/core/src/queue.c.obj
                0x00029e18                queue_init
 .text.queue_push
                0x00029e2c       0x34 examples/light_switch/server/CMakeFiles/light_switch_server_nrf52840_xxAA_s140_6.0.0.dir/__/__/__/mesh/core/src/queue.c.obj
                0x00029e2c                queue_push
 .text.queue_pop
                0x00029e60       0x26 examples/light_switch/server/CMakeFiles/light_switch_server_nrf52840_xxAA_s140_6.0.0.dir/__/__/__/mesh/core/src/queue.c.obj
                0x00029e60                queue_pop
 .text.queue_peek
                0x00029e86       0x10 examples/light_switch/server/CMakeFiles/light_switch_server_nrf52840_xxAA_s140_6.0.0.dir/__/__/__/mesh/core/src/queue.c.obj
                0x00029e86                queue_peek
 .text.sd_power_reset_reason_clr
                0x00029e96        0x4 examples/light_switch/server/CMakeFiles/light_switch_server_nrf52840_xxAA_s140_6.0.0.dir/__/__/__/mesh/core/src/hal.c.obj
 *fill*         0x00029e9a        0x2 
 .text.hal_device_reset
                0x00029e9c       0x2c examples/light_switch/server/CMakeFiles/light_switch_server_nrf52840_xxAA_s140_6.0.0.dir/__/__/__/mesh/core/src/hal.c.obj
                0x00029e9c                hal_device_reset
 .text.hal_lfclk_ppm_get
                0x00029ec8       0x14 examples/light_switch/server/CMakeFiles/light_switch_server_nrf52840_xxAA_s140_6.0.0.dir/__/__/__/mesh/core/src/hal.c.obj
                0x00029ec8                hal_lfclk_ppm_get
 .text.sd_ecb_block_encrypt
                0x00029edc        0x4 examples/light_switch/server/CMakeFiles/light_switch_server_nrf52840_xxAA_s140_6.0.0.dir/__/__/__/mesh/core/src/aes_cmac.c.obj
 .text.utils_xor.constprop.1
                0x00029ee0       0x20 examples/light_switch/server/CMakeFiles/light_switch_server_nrf52840_xxAA_s140_6.0.0.dir/__/__/__/mesh/core/src/aes_cmac.c.obj
 .text.aes_cmac
                0x00029f00      0x112 examples/light_switch/server/CMakeFiles/light_switch_server_nrf52840_xxAA_s140_6.0.0.dir/__/__/__/mesh/core/src/aes_cmac.c.obj
                0x00029f00                aes_cmac
 *fill*         0x0002a012        0x2 
 .text.add_to_add_list
                0x0002a014       0x30 examples/light_switch/server/CMakeFiles/light_switch_server_nrf52840_xxAA_s140_6.0.0.dir/__/__/__/mesh/core/src/timer_scheduler.c.obj
 .text.process_dirty_events
                0x0002a044       0x5c examples/light_switch/server/CMakeFiles/light_switch_server_nrf52840_xxAA_s140_6.0.0.dir/__/__/__/mesh/core/src/timer_scheduler.c.obj
 .text.timer_cb
                0x0002a0a0        0xc examples/light_switch/server/CMakeFiles/light_switch_server_nrf52840_xxAA_s140_6.0.0.dir/__/__/__/mesh/core/src/timer_scheduler.c.obj
 .text.add_evt.constprop.1
                0x0002a0ac       0x58 examples/light_switch/server/CMakeFiles/light_switch_server_nrf52840_xxAA_s140_6.0.0.dir/__/__/__/mesh/core/src/timer_scheduler.c.obj
 .text.process_add_list
                0x0002a104       0x3c examples/light_switch/server/CMakeFiles/light_switch_server_nrf52840_xxAA_s140_6.0.0.dir/__/__/__/mesh/core/src/timer_scheduler.c.obj
 .text.flag_event_cb
                0x0002a140       0xd8 examples/light_switch/server/CMakeFiles/light_switch_server_nrf52840_xxAA_s140_6.0.0.dir/__/__/__/mesh/core/src/timer_scheduler.c.obj
 .text.timer_sch_init
                0x0002a218       0x24 examples/light_switch/server/CMakeFiles/light_switch_server_nrf52840_xxAA_s140_6.0.0.dir/__/__/__/mesh/core/src/timer_scheduler.c.obj
                0x0002a218                timer_sch_init
 .text.timer_sch_schedule
                0x0002a23c       0x3c examples/light_switch/server/CMakeFiles/light_switch_server_nrf52840_xxAA_s140_6.0.0.dir/__/__/__/mesh/core/src/timer_scheduler.c.obj
                0x0002a23c                timer_sch_schedule
 .text.timer_sch_abort
                0x0002a278       0x58 examples/light_switch/server/CMakeFiles/light_switch_server_nrf52840_xxAA_s140_6.0.0.dir/__/__/__/mesh/core/src/timer_scheduler.c.obj
                0x0002a278                timer_sch_abort
 .text.timer_sch_reschedule
                0x0002a2d0       0x64 examples/light_switch/server/CMakeFiles/light_switch_server_nrf52840_xxAA_s140_6.0.0.dir/__/__/__/mesh/core/src/timer_scheduler.c.obj
                0x0002a2d0                timer_sch_reschedule
 .text.timer_mut_unlock
                0x0002a334       0x10 examples/light_switch/server/CMakeFiles/light_switch_server_nrf52840_xxAA_s140_6.0.0.dir/__/__/__/mesh/core/src/timer.c.obj
 .text.timer_order_cb
                0x0002a344       0x94 examples/light_switch/server/CMakeFiles/light_switch_server_nrf52840_xxAA_s140_6.0.0.dir/__/__/__/mesh/core/src/timer.c.obj
                0x0002a344                timer_order_cb
 .text.timer_now
                0x0002a3d8       0x48 examples/light_switch/server/CMakeFiles/light_switch_server_nrf52840_xxAA_s140_6.0.0.dir/__/__/__/mesh/core/src/timer.c.obj
                0x0002a3d8                timer_now
 .text.timer_event_handler
                0x0002a420       0x84 examples/light_switch/server/CMakeFiles/light_switch_server_nrf52840_xxAA_s140_6.0.0.dir/__/__/__/mesh/core/src/timer.c.obj
                0x0002a420                timer_event_handler
 .text.timer_on_ts_begin
                0x0002a4a4       0xf4 examples/light_switch/server/CMakeFiles/light_switch_server_nrf52840_xxAA_s140_6.0.0.dir/__/__/__/mesh/core/src/timer.c.obj
                0x0002a4a4                timer_on_ts_begin
 .text.timer_on_ts_end
                0x0002a598       0x60 examples/light_switch/server/CMakeFiles/light_switch_server_nrf52840_xxAA_s140_6.0.0.dir/__/__/__/mesh/core/src/timer.c.obj
                0x0002a598                timer_on_ts_end
 .text.timer_cb
                0x0002a5f8       0x10 examples/light_switch/server/CMakeFiles/light_switch_server_nrf52840_xxAA_s140_6.0.0.dir/__/__/__/mesh/core/src/ticker.c.obj
 .text.ticker_init
                0x0002a608       0x3c examples/light_switch/server/CMakeFiles/light_switch_server_nrf52840_xxAA_s140_6.0.0.dir/__/__/__/mesh/core/src/ticker.c.obj
                0x0002a608                ticker_init
 .text.sd_rand_application_bytes_available_get
                0x0002a644        0x4 examples/light_switch/server/CMakeFiles/light_switch_server_nrf52840_xxAA_s140_6.0.0.dir/__/__/__/mesh/core/src/rand.c.obj
 .text.sd_rand_application_vector_get
                0x0002a648        0x4 examples/light_switch/server/CMakeFiles/light_switch_server_nrf52840_xxAA_s140_6.0.0.dir/__/__/__/mesh/core/src/rand.c.obj
 .text.rand_prng_get
                0x0002a64c       0x22 examples/light_switch/server/CMakeFiles/light_switch_server_nrf52840_xxAA_s140_6.0.0.dir/__/__/__/mesh/core/src/rand.c.obj
                0x0002a64c                rand_prng_get
 .text.rand_hw_rng_get
                0x0002a66e       0x44 examples/light_switch/server/CMakeFiles/light_switch_server_nrf52840_xxAA_s140_6.0.0.dir/__/__/__/mesh/core/src/rand.c.obj
                0x0002a66e                rand_hw_rng_get
 *fill*         0x0002a6b2        0x2 
 .text.rand_prng_seed
                0x0002a6b4       0x34 examples/light_switch/server/CMakeFiles/light_switch_server_nrf52840_xxAA_s140_6.0.0.dir/__/__/__/mesh/core/src/rand.c.obj
                0x0002a6b4                rand_prng_seed
 .text.nrf_mesh_opt_set
                0x0002a6e8       0x26 examples/light_switch/server/CMakeFiles/light_switch_server_nrf52840_xxAA_s140_6.0.0.dir/__/__/__/mesh/core/src/nrf_mesh_opt.c.obj
                0x0002a6e8                nrf_mesh_opt_set
 .text.nrf_mesh_opt_get
                0x0002a70e       0x26 examples/light_switch/server/CMakeFiles/light_switch_server_nrf52840_xxAA_s140_6.0.0.dir/__/__/__/mesh/core/src/nrf_mesh_opt.c.obj
                0x0002a70e                nrf_mesh_opt_get
 .text.sd_radio_session_open
                0x0002a734        0x4 examples/light_switch/server/CMakeFiles/light_switch_server_nrf52840_xxAA_s140_6.0.0.dir/__/__/__/mesh/core/src/timeslot.c.obj
 .text.sd_radio_session_close
                0x0002a738        0x4 examples/light_switch/server/CMakeFiles/light_switch_server_nrf52840_xxAA_s140_6.0.0.dir/__/__/__/mesh/core/src/timeslot.c.obj
 .text.sd_radio_request
                0x0002a73c        0x4 examples/light_switch/server/CMakeFiles/light_switch_server_nrf52840_xxAA_s140_6.0.0.dir/__/__/__/mesh/core/src/timeslot.c.obj
 .text.end_timer_handler
                0x0002a740       0x24 examples/light_switch/server/CMakeFiles/light_switch_server_nrf52840_xxAA_s140_6.0.0.dir/__/__/__/mesh/core/src/timeslot.c.obj
 .text.get_end_time.constprop.10
                0x0002a764       0x28 examples/light_switch/server/CMakeFiles/light_switch_server_nrf52840_xxAA_s140_6.0.0.dir/__/__/__/mesh/core/src/timeslot.c.obj
 .text.handle_extend_end.constprop.3
                0x0002a78c       0xb4 examples/light_switch/server/CMakeFiles/light_switch_server_nrf52840_xxAA_s140_6.0.0.dir/__/__/__/mesh/core/src/timeslot.c.obj
 .text.radio_signal_callback
                0x0002a840      0x138 examples/light_switch/server/CMakeFiles/light_switch_server_nrf52840_xxAA_s140_6.0.0.dir/__/__/__/mesh/core/src/timeslot.c.obj
 .text.timeslot_sd_event_handler
                0x0002a978       0x38 examples/light_switch/server/CMakeFiles/light_switch_server_nrf52840_xxAA_s140_6.0.0.dir/__/__/__/mesh/core/src/timeslot.c.obj
                0x0002a978                timeslot_sd_event_handler
 .text.timeslot_init
                0x0002a9b0       0x48 examples/light_switch/server/CMakeFiles/light_switch_server_nrf52840_xxAA_s140_6.0.0.dir/__/__/__/mesh/core/src/timeslot.c.obj
                0x0002a9b0                timeslot_init
 .text.timeslot_start
                0x0002a9f8       0x20 examples/light_switch/server/CMakeFiles/light_switch_server_nrf52840_xxAA_s140_6.0.0.dir/__/__/__/mesh/core/src/timeslot.c.obj
                0x0002a9f8                timeslot_start
 .text.timeslot_end_is_pending
                0x0002aa18       0x24 examples/light_switch/server/CMakeFiles/light_switch_server_nrf52840_xxAA_s140_6.0.0.dir/__/__/__/mesh/core/src/timeslot.c.obj
                0x0002aa18                timeslot_end_is_pending
 .text.timeslot_start_time_get
                0x0002aa3c        0xc examples/light_switch/server/CMakeFiles/light_switch_server_nrf52840_xxAA_s140_6.0.0.dir/__/__/__/mesh/core/src/timeslot.c.obj
                0x0002aa3c                timeslot_start_time_get
 .text.timeslot_remaining_time_get
                0x0002aa48       0x20 examples/light_switch/server/CMakeFiles/light_switch_server_nrf52840_xxAA_s140_6.0.0.dir/__/__/__/mesh/core/src/timeslot.c.obj
                0x0002aa48                timeslot_remaining_time_get
 .text.timeslot_is_in_cb
                0x0002aa68        0xc examples/light_switch/server/CMakeFiles/light_switch_server_nrf52840_xxAA_s140_6.0.0.dir/__/__/__/mesh/core/src/timeslot.c.obj
                0x0002aa68                timeslot_is_in_cb
 .text.timeslot_trigger
                0x0002aa74       0x24 examples/light_switch/server/CMakeFiles/light_switch_server_nrf52840_xxAA_s140_6.0.0.dir/__/__/__/mesh/core/src/timeslot.c.obj
                0x0002aa74                timeslot_trigger
 .text.timeslot_stop
                0x0002aa98       0x10 examples/light_switch/server/CMakeFiles/light_switch_server_nrf52840_xxAA_s140_6.0.0.dir/__/__/__/mesh/core/src/timeslot.c.obj
                0x0002aa98                timeslot_stop
 .text.timeslot_state_lock
                0x0002aaa8       0x28 examples/light_switch/server/CMakeFiles/light_switch_server_nrf52840_xxAA_s140_6.0.0.dir/__/__/__/mesh/core/src/timeslot.c.obj
                0x0002aaa8                timeslot_state_lock
 .text.trigger_event_handler
                0x0002aad0       0x1c examples/light_switch/server/CMakeFiles/light_switch_server_nrf52840_xxAA_s140_6.0.0.dir/__/__/__/mesh/core/src/bearer_event.c.obj
 .text.evt_push
                0x0002aaec       0x1c examples/light_switch/server/CMakeFiles/light_switch_server_nrf52840_xxAA_s140_6.0.0.dir/__/__/__/mesh/core/src/bearer_event.c.obj
 .text.bearer_event_init
                0x0002ab08       0x48 examples/light_switch/server/CMakeFiles/light_switch_server_nrf52840_xxAA_s140_6.0.0.dir/__/__/__/mesh/core/src/bearer_event.c.obj
                0x0002ab08                bearer_event_init
 .text.bearer_event_timer_post
                0x0002ab50       0x24 examples/light_switch/server/CMakeFiles/light_switch_server_nrf52840_xxAA_s140_6.0.0.dir/__/__/__/mesh/core/src/bearer_event.c.obj
                0x0002ab50                bearer_event_timer_post
 .text.bearer_event_critical_section_begin
                0x0002ab74       0x44 examples/light_switch/server/CMakeFiles/light_switch_server_nrf52840_xxAA_s140_6.0.0.dir/__/__/__/mesh/core/src/bearer_event.c.obj
                0x0002ab74                bearer_event_critical_section_begin
 .text.bearer_event_critical_section_end
                0x0002abb8       0x40 examples/light_switch/server/CMakeFiles/light_switch_server_nrf52840_xxAA_s140_6.0.0.dir/__/__/__/mesh/core/src/bearer_event.c.obj
                0x0002abb8                bearer_event_critical_section_end
 .text.bearer_event_flag_add
                0x0002abf8       0x3c examples/light_switch/server/CMakeFiles/light_switch_server_nrf52840_xxAA_s140_6.0.0.dir/__/__/__/mesh/core/src/bearer_event.c.obj
                0x0002abf8                bearer_event_flag_add
 .text.bearer_event_flag_set
                0x0002ac34       0x44 examples/light_switch/server/CMakeFiles/light_switch_server_nrf52840_xxAA_s140_6.0.0.dir/__/__/__/mesh/core/src/bearer_event.c.obj
                0x0002ac34                bearer_event_flag_set
 .text.bearer_event_sequential_add
                0x0002ac78       0x2e examples/light_switch/server/CMakeFiles/light_switch_server_nrf52840_xxAA_s140_6.0.0.dir/__/__/__/mesh/core/src/bearer_event.c.obj
                0x0002ac78                bearer_event_sequential_add
 *fill*         0x0002aca6        0x2 
 .text.bearer_event_sequential_post
                0x0002aca8       0x44 examples/light_switch/server/CMakeFiles/light_switch_server_nrf52840_xxAA_s140_6.0.0.dir/__/__/__/mesh/core/src/bearer_event.c.obj
                0x0002aca8                bearer_event_sequential_post
 .text.bearer_event_sequential_pending
                0x0002acec       0x10 examples/light_switch/server/CMakeFiles/light_switch_server_nrf52840_xxAA_s140_6.0.0.dir/__/__/__/mesh/core/src/bearer_event.c.obj
                0x0002acec                bearer_event_sequential_pending
 .text.bearer_event_handler
                0x0002acfc       0xe8 examples/light_switch/server/CMakeFiles/light_switch_server_nrf52840_xxAA_s140_6.0.0.dir/__/__/__/mesh/core/src/bearer_event.c.obj
                0x0002acfc                bearer_event_handler
 .text.QDEC_IRQHandler
                0x0002ade4        0x4 examples/light_switch/server/CMakeFiles/light_switch_server_nrf52840_xxAA_s140_6.0.0.dir/__/__/__/mesh/core/src/bearer_event.c.obj
                0x0002ade4                QDEC_IRQHandler
 .text.sd_ecb_block_encrypt
                0x0002ade8        0x4 examples/light_switch/server/CMakeFiles/light_switch_server_nrf52840_xxAA_s140_6.0.0.dir/__/__/__/mesh/core/src/enc.c.obj
 .text.enc_aes_encrypt
                0x0002adec       0x32 examples/light_switch/server/CMakeFiles/light_switch_server_nrf52840_xxAA_s140_6.0.0.dir/__/__/__/mesh/core/src/enc.c.obj
                0x0002adec                enc_aes_encrypt
 .text.enc_aes_cmac
                0x0002ae1e        0x4 examples/light_switch/server/CMakeFiles/light_switch_server_nrf52840_xxAA_s140_6.0.0.dir/__/__/__/mesh/core/src/enc.c.obj
                0x0002ae1e                enc_aes_cmac
 .text.enc_aes_ccm_encrypt
                0x0002ae22        0x4 examples/light_switch/server/CMakeFiles/light_switch_server_nrf52840_xxAA_s140_6.0.0.dir/__/__/__/mesh/core/src/enc.c.obj
                0x0002ae22                enc_aes_ccm_encrypt
 .text.enc_aes_ccm_decrypt
                0x0002ae26        0x4 examples/light_switch/server/CMakeFiles/light_switch_server_nrf52840_xxAA_s140_6.0.0.dir/__/__/__/mesh/core/src/enc.c.obj
                0x0002ae26                enc_aes_ccm_decrypt
 .text.enc_nonce_generate
                0x0002ae2a       0xbc examples/light_switch/server/CMakeFiles/light_switch_server_nrf52840_xxAA_s140_6.0.0.dir/__/__/__/mesh/core/src/enc.c.obj
                0x0002ae2a                enc_nonce_generate
 .text.enc_s1   0x0002aee6       0x2c examples/light_switch/server/CMakeFiles/light_switch_server_nrf52840_xxAA_s140_6.0.0.dir/__/__/__/mesh/core/src/enc.c.obj
                0x0002aee6                enc_s1
 .text.enc_k1   0x0002af12       0x3c examples/light_switch/server/CMakeFiles/light_switch_server_nrf52840_xxAA_s140_6.0.0.dir/__/__/__/mesh/core/src/enc.c.obj
                0x0002af12                enc_k1
 *fill*         0x0002af4e        0x2 
 .text.enc_k2   0x0002af50       0xc8 examples/light_switch/server/CMakeFiles/light_switch_server_nrf52840_xxAA_s140_6.0.0.dir/__/__/__/mesh/core/src/enc.c.obj
                0x0002af50                enc_k2
 .text.enc_k3   0x0002b018       0x5c examples/light_switch/server/CMakeFiles/light_switch_server_nrf52840_xxAA_s140_6.0.0.dir/__/__/__/mesh/core/src/enc.c.obj
                0x0002b018                enc_k3
 .text.enc_k4   0x0002b074       0x54 examples/light_switch/server/CMakeFiles/light_switch_server_nrf52840_xxAA_s140_6.0.0.dir/__/__/__/mesh/core/src/enc.c.obj
                0x0002b074                enc_k4
 .text.allocate_packet
                0x0002b0c8       0x6a examples/light_switch/server/CMakeFiles/light_switch_server_nrf52840_xxAA_s140_6.0.0.dir/__/__/__/mesh/core/src/network.c.obj
 *fill*         0x0002b132        0x2 
 .text.network_init
                0x0002b134       0x2c examples/light_switch/server/CMakeFiles/light_switch_server_nrf52840_xxAA_s140_6.0.0.dir/__/__/__/mesh/core/src/network.c.obj
                0x0002b134                network_init
 .text.network_opt_set
                0x0002b160       0x84 examples/light_switch/server/CMakeFiles/light_switch_server_nrf52840_xxAA_s140_6.0.0.dir/__/__/__/mesh/core/src/network.c.obj
                0x0002b160                network_opt_set
 .text.network_opt_get
                0x0002b1e4       0x4c examples/light_switch/server/CMakeFiles/light_switch_server_nrf52840_xxAA_s140_6.0.0.dir/__/__/__/mesh/core/src/network.c.obj
                0x0002b1e4                network_opt_get
 .text.network_packet_alloc
                0x0002b230       0x30 examples/light_switch/server/CMakeFiles/light_switch_server_nrf52840_xxAA_s140_6.0.0.dir/__/__/__/mesh/core/src/network.c.obj
                0x0002b230                network_packet_alloc
 .text.network_packet_send
                0x0002b260       0x46 examples/light_switch/server/CMakeFiles/light_switch_server_nrf52840_xxAA_s140_6.0.0.dir/__/__/__/mesh/core/src/network.c.obj
                0x0002b260                network_packet_send
 *fill*         0x0002b2a6        0x2 
 .text.network_packet_in
                0x0002b2a8      0x168 examples/light_switch/server/CMakeFiles/light_switch_server_nrf52840_xxAA_s140_6.0.0.dir/__/__/__/mesh/core/src/network.c.obj
                0x0002b2a8                network_packet_in
 .text.nonce_type_get
                0x0002b410       0x16 examples/light_switch/server/CMakeFiles/light_switch_server_nrf52840_xxAA_s140_6.0.0.dir/__/__/__/mesh/core/src/net_packet.c.obj
 .text.header_transfuscate
                0x0002b426       0x54 examples/light_switch/server/CMakeFiles/light_switch_server_nrf52840_xxAA_s140_6.0.0.dir/__/__/__/mesh/core/src/net_packet.c.obj
 *fill*         0x0002b47a        0x2 
 .text.net_packet_decrypt
                0x0002b47c      0x224 examples/light_switch/server/CMakeFiles/light_switch_server_nrf52840_xxAA_s140_6.0.0.dir/__/__/__/mesh/core/src/net_packet.c.obj
                0x0002b47c                net_packet_decrypt
 .text.net_packet_encrypt
                0x0002b6a0       0x7e examples/light_switch/server/CMakeFiles/light_switch_server_nrf52840_xxAA_s140_6.0.0.dir/__/__/__/mesh/core/src/net_packet.c.obj
                0x0002b6a0                net_packet_encrypt
 .text.net_packet_header_set
                0x0002b71e       0xaa examples/light_switch/server/CMakeFiles/light_switch_server_nrf52840_xxAA_s140_6.0.0.dir/__/__/__/mesh/core/src/net_packet.c.obj
                0x0002b71e                net_packet_header_set
 .text.net_packet_payload_len_get
                0x0002b7c8       0x10 examples/light_switch/server/CMakeFiles/light_switch_server_nrf52840_xxAA_s140_6.0.0.dir/__/__/__/mesh/core/src/net_packet.c.obj
                0x0002b7c8                net_packet_payload_len_get
 .text.net_packet_from_payload
                0x0002b7d8        0x4 examples/light_switch/server/CMakeFiles/light_switch_server_nrf52840_xxAA_s140_6.0.0.dir/__/__/__/mesh/core/src/net_packet.c.obj
                0x0002b7d8                net_packet_from_payload
 .text.net_packet_obfuscation_start_get
                0x0002b7dc        0x4 examples/light_switch/server/CMakeFiles/light_switch_server_nrf52840_xxAA_s140_6.0.0.dir/__/__/__/mesh/core/src/net_packet.c.obj
                0x0002b7dc                net_packet_obfuscation_start_get
 .text.stage_get_available
                0x0002b7e0       0x24 examples/light_switch/server/CMakeFiles/light_switch_server_nrf52840_xxAA_s140_6.0.0.dir/__/__/__/mesh/core/src/msqueue.c.obj
 .text.msq_get  0x0002b804       0x38 examples/light_switch/server/CMakeFiles/light_switch_server_nrf52840_xxAA_s140_6.0.0.dir/__/__/__/mesh/core/src/msqueue.c.obj
                0x0002b804                msq_get
 .text.msq_move
                0x0002b83c       0x2e examples/light_switch/server/CMakeFiles/light_switch_server_nrf52840_xxAA_s140_6.0.0.dir/__/__/__/mesh/core/src/msqueue.c.obj
                0x0002b83c                msq_move
 .text.msq_reset
                0x0002b86a       0x20 examples/light_switch/server/CMakeFiles/light_switch_server_nrf52840_xxAA_s140_6.0.0.dir/__/__/__/mesh/core/src/msqueue.c.obj
                0x0002b86a                msq_reset
 .text.msq_init
                0x0002b88a       0x4a examples/light_switch/server/CMakeFiles/light_switch_server_nrf52840_xxAA_s140_6.0.0.dir/__/__/__/mesh/core/src/msqueue.c.obj
                0x0002b88a                msq_init
 .text.msq_available
                0x0002b8d4       0x26 examples/light_switch/server/CMakeFiles/light_switch_server_nrf52840_xxAA_s140_6.0.0.dir/__/__/__/mesh/core/src/msqueue.c.obj
                0x0002b8d4                msq_available
 .text.nrf_mesh_keygen_aid
                0x0002b8fa       0x12 examples/light_switch/server/CMakeFiles/light_switch_server_nrf52840_xxAA_s140_6.0.0.dir/__/__/__/mesh/core/src/nrf_mesh_keygen.c.obj
                0x0002b8fa                nrf_mesh_keygen_aid
 .text.nrf_mesh_keygen_network_secmat
                0x0002b90c       0x20 examples/light_switch/server/CMakeFiles/light_switch_server_nrf52840_xxAA_s140_6.0.0.dir/__/__/__/mesh/core/src/nrf_mesh_keygen.c.obj
                0x0002b90c                nrf_mesh_keygen_network_secmat
 .text.nrf_mesh_keygen_beacon_secmat
                0x0002b92c       0x50 examples/light_switch/server/CMakeFiles/light_switch_server_nrf52840_xxAA_s140_6.0.0.dir/__/__/__/mesh/core/src/nrf_mesh_keygen.c.obj
                0x0002b92c                nrf_mesh_keygen_beacon_secmat
 .text.nrf_mesh_keygen_virtual_address
                0x0002b97c       0x50 examples/light_switch/server/CMakeFiles/light_switch_server_nrf52840_xxAA_s140_6.0.0.dir/__/__/__/mesh/core/src/nrf_mesh_keygen.c.obj
                0x0002b97c                nrf_mesh_keygen_virtual_address
 .text.list_insert
                0x0002b9cc       0x1c examples/light_switch/server/CMakeFiles/light_switch_server_nrf52840_xxAA_s140_6.0.0.dir/__/__/__/mesh/core/src/list.c.obj
 .text.list_add
                0x0002b9e8       0x42 examples/light_switch/server/CMakeFiles/light_switch_server_nrf52840_xxAA_s140_6.0.0.dir/__/__/__/mesh/core/src/list.c.obj
                0x0002b9e8                list_add
 .text.list_remove
                0x0002ba2a       0x3a examples/light_switch/server/CMakeFiles/light_switch_server_nrf52840_xxAA_s140_6.0.0.dir/__/__/__/mesh/core/src/list.c.obj
                0x0002ba2a                list_remove
 .text.list_compare_add
                0x0002ba64       0x56 examples/light_switch/server/CMakeFiles/light_switch_server_nrf52840_xxAA_s140_6.0.0.dir/__/__/__/mesh/core/src/list.c.obj
                0x0002ba64                list_compare_add
 *fill*         0x0002baba        0x2 
 .text.log_callback_rtt
                0x0002babc       0x2c examples/light_switch/server/CMakeFiles/light_switch_server_nrf52840_xxAA_s140_6.0.0.dir/__/__/__/mesh/core/src/log.c.obj
                0x0002babc                log_callback_rtt
 .text.log_init
                0x0002bae8       0x1c examples/light_switch/server/CMakeFiles/light_switch_server_nrf52840_xxAA_s140_6.0.0.dir/__/__/__/mesh/core/src/log.c.obj
                0x0002bae8                log_init
 .text.log_vprintf
                0x0002bb04       0x18 examples/light_switch/server/CMakeFiles/light_switch_server_nrf52840_xxAA_s140_6.0.0.dir/__/__/__/mesh/core/src/log.c.obj
                0x0002bb04                log_vprintf
 .text.log_printf
                0x0002bb1c       0x18 examples/light_switch/server/CMakeFiles/light_switch_server_nrf52840_xxAA_s140_6.0.0.dir/__/__/__/mesh/core/src/log.c.obj
                0x0002bb1c                log_printf
 .text.get_area_end
                0x0002bb34        0xc examples/light_switch/server/CMakeFiles/light_switch_server_nrf52840_xxAA_s140_6.0.0.dir/__/__/__/mesh/core/src/flash_manager.c.obj
 .text.handle_matches_filter
                0x0002bb40       0x26 examples/light_switch/server/CMakeFiles/light_switch_server_nrf52840_xxAA_s140_6.0.0.dir/__/__/__/mesh/core/src/flash_manager.c.obj
 .text.flash_area_is_blank
                0x0002bb66       0x34 examples/light_switch/server/CMakeFiles/light_switch_server_nrf52840_xxAA_s140_6.0.0.dir/__/__/__/mesh/core/src/flash_manager.c.obj
 *fill*         0x0002bb9a        0x2 
 .text.get_packet_buffer
                0x0002bb9c       0x20 examples/light_switch/server/CMakeFiles/light_switch_server_nrf52840_xxAA_s140_6.0.0.dir/__/__/__/mesh/core/src/flash_manager.c.obj
 .text.flash    0x0002bbbc       0x1c examples/light_switch/server/CMakeFiles/light_switch_server_nrf52840_xxAA_s140_6.0.0.dir/__/__/__/mesh/core/src/flash_manager.c.obj
 .text.free_packet_buffer
                0x0002bbd8       0x3c examples/light_switch/server/CMakeFiles/light_switch_server_nrf52840_xxAA_s140_6.0.0.dir/__/__/__/mesh/core/src/flash_manager.c.obj
 .text.reserve_action_buffer
                0x0002bc14       0x24 examples/light_switch/server/CMakeFiles/light_switch_server_nrf52840_xxAA_s140_6.0.0.dir/__/__/__/mesh/core/src/flash_manager.c.obj
 .text.commit_action_buffer
                0x0002bc38       0x18 examples/light_switch/server/CMakeFiles/light_switch_server_nrf52840_xxAA_s140_6.0.0.dir/__/__/__/mesh/core/src/flash_manager.c.obj
 .text.schedule_processing
                0x0002bc50        0xc examples/light_switch/server/CMakeFiles/light_switch_server_nrf52840_xxAA_s140_6.0.0.dir/__/__/__/mesh/core/src/flash_manager.c.obj
 .text.get_next_entry
                0x0002bc5c       0x34 examples/light_switch/server/CMakeFiles/light_switch_server_nrf52840_xxAA_s140_6.0.0.dir/__/__/__/mesh/core/src/flash_manager.c.obj
 .text.get_last_entry.isra.1
                0x0002bc90       0x30 examples/light_switch/server/CMakeFiles/light_switch_server_nrf52840_xxAA_s140_6.0.0.dir/__/__/__/mesh/core/src/flash_manager.c.obj
 .text.process_action_queue
                0x0002bcc0      0x3b0 examples/light_switch/server/CMakeFiles/light_switch_server_nrf52840_xxAA_s140_6.0.0.dir/__/__/__/mesh/core/src/flash_manager.c.obj
 .text.flash_op_ended_callback
                0x0002c070       0x24 examples/light_switch/server/CMakeFiles/light_switch_server_nrf52840_xxAA_s140_6.0.0.dir/__/__/__/mesh/core/src/flash_manager.c.obj
 .text.flash_manager_init
                0x0002c094       0x68 examples/light_switch/server/CMakeFiles/light_switch_server_nrf52840_xxAA_s140_6.0.0.dir/__/__/__/mesh/core/src/flash_manager.c.obj
                0x0002c094                flash_manager_init
 .text.flash_manager_remove
                0x0002c0fc       0x24 examples/light_switch/server/CMakeFiles/light_switch_server_nrf52840_xxAA_s140_6.0.0.dir/__/__/__/mesh/core/src/flash_manager.c.obj
                0x0002c0fc                flash_manager_remove
 .text.flash_manager_entry_get
                0x0002c120       0x3c examples/light_switch/server/CMakeFiles/light_switch_server_nrf52840_xxAA_s140_6.0.0.dir/__/__/__/mesh/core/src/flash_manager.c.obj
                0x0002c120                flash_manager_entry_get
 .text.flash_manager_entry_next_get
                0x0002c15c       0x60 examples/light_switch/server/CMakeFiles/light_switch_server_nrf52840_xxAA_s140_6.0.0.dir/__/__/__/mesh/core/src/flash_manager.c.obj
                0x0002c15c                flash_manager_entry_next_get
 .text.flash_manager_entry_alloc
                0x0002c1bc       0x5c examples/light_switch/server/CMakeFiles/light_switch_server_nrf52840_xxAA_s140_6.0.0.dir/__/__/__/mesh/core/src/flash_manager.c.obj
                0x0002c1bc                flash_manager_entry_alloc
 .text.flash_manager_entry_commit
                0x0002c218       0x2c examples/light_switch/server/CMakeFiles/light_switch_server_nrf52840_xxAA_s140_6.0.0.dir/__/__/__/mesh/core/src/flash_manager.c.obj
                0x0002c218                flash_manager_entry_commit
 .text.flash_manager_entry_invalidate
                0x0002c244       0x4e examples/light_switch/server/CMakeFiles/light_switch_server_nrf52840_xxAA_s140_6.0.0.dir/__/__/__/mesh/core/src/flash_manager.c.obj
                0x0002c244                flash_manager_entry_invalidate
 .text.flash_manager_add
                0x0002c292      0x1f6 examples/light_switch/server/CMakeFiles/light_switch_server_nrf52840_xxAA_s140_6.0.0.dir/__/__/__/mesh/core/src/flash_manager.c.obj
                0x0002c292                flash_manager_add
 .text.flash_manager_mem_listener_register
                0x0002c488       0x30 examples/light_switch/server/CMakeFiles/light_switch_server_nrf52840_xxAA_s140_6.0.0.dir/__/__/__/mesh/core/src/flash_manager.c.obj
                0x0002c488                flash_manager_mem_listener_register
 .text.flash_manager_is_stable
                0x0002c4b8       0x24 examples/light_switch/server/CMakeFiles/light_switch_server_nrf52840_xxAA_s140_6.0.0.dir/__/__/__/mesh/core/src/flash_manager.c.obj
                0x0002c4b8                flash_manager_is_stable
 .text.flash_manager_on_defrag_end
                0x0002c4dc       0x4c examples/light_switch/server/CMakeFiles/light_switch_server_nrf52840_xxAA_s140_6.0.0.dir/__/__/__/mesh/core/src/flash_manager.c.obj
                0x0002c4dc                flash_manager_on_defrag_end
 .text.flash_manager_recovery_page_get
                0x0002c528        0x4 examples/light_switch/server/CMakeFiles/light_switch_server_nrf52840_xxAA_s140_6.0.0.dir/__/__/__/mesh/core/src/flash_manager.c.obj
                0x0002c528                flash_manager_recovery_page_get
 .text.flash_manager_action_queue_empty_cb_set
                0x0002c52c       0x1c examples/light_switch/server/CMakeFiles/light_switch_server_nrf52840_xxAA_s140_6.0.0.dir/__/__/__/mesh/core/src/flash_manager.c.obj
                0x0002c52c                flash_manager_action_queue_empty_cb_set
 .text.utils_xor
                0x0002c548       0x14 examples/light_switch/server/CMakeFiles/light_switch_server_nrf52840_xxAA_s140_6.0.0.dir/__/__/__/mesh/core/src/ccm_soft.c.obj
 .text.sd_ecb_block_encrypt
                0x0002c55c        0x4 examples/light_switch/server/CMakeFiles/light_switch_server_nrf52840_xxAA_s140_6.0.0.dir/__/__/__/mesh/core/src/ccm_soft.c.obj
 .text.ccm_soft_crypt
                0x0002c560       0x4c examples/light_switch/server/CMakeFiles/light_switch_server_nrf52840_xxAA_s140_6.0.0.dir/__/__/__/mesh/core/src/ccm_soft.c.obj
 .text.ccm_soft_authenticate_blocks
                0x0002c5ac       0x6c examples/light_switch/server/CMakeFiles/light_switch_server_nrf52840_xxAA_s140_6.0.0.dir/__/__/__/mesh/core/src/ccm_soft.c.obj
 .text.ccm_soft_authenticate
                0x0002c618       0x94 examples/light_switch/server/CMakeFiles/light_switch_server_nrf52840_xxAA_s140_6.0.0.dir/__/__/__/mesh/core/src/ccm_soft.c.obj
 .text.ccm_soft_encrypt
                0x0002c6ac       0x54 examples/light_switch/server/CMakeFiles/light_switch_server_nrf52840_xxAA_s140_6.0.0.dir/__/__/__/mesh/core/src/ccm_soft.c.obj
                0x0002c6ac                ccm_soft_encrypt
 .text.ccm_soft_decrypt
                0x0002c700       0x98 examples/light_switch/server/CMakeFiles/light_switch_server_nrf52840_xxAA_s140_6.0.0.dir/__/__/__/mesh/core/src/ccm_soft.c.obj
                0x0002c700                ccm_soft_decrypt
 .text.replay_cache_add
                0x0002c798       0x50 examples/light_switch/server/CMakeFiles/light_switch_server_nrf52840_xxAA_s140_6.0.0.dir/__/__/__/mesh/core/src/replay_cache.c.obj
                0x0002c798                replay_cache_add
 .text.replay_cache_has_elem
                0x0002c7e8       0x38 examples/light_switch/server/CMakeFiles/light_switch_server_nrf52840_xxAA_s140_6.0.0.dir/__/__/__/mesh/core/src/replay_cache.c.obj
                0x0002c7e8                replay_cache_has_elem
 .text.replay_cache_clear
                0x0002c820       0x20 examples/light_switch/server/CMakeFiles/light_switch_server_nrf52840_xxAA_s140_6.0.0.dir/__/__/__/mesh/core/src/replay_cache.c.obj
                0x0002c820                replay_cache_clear
 .text.replay_cache_init
                0x0002c840        0x4 examples/light_switch/server/CMakeFiles/light_switch_server_nrf52840_xxAA_s140_6.0.0.dir/__/__/__/mesh/core/src/replay_cache.c.obj
                0x0002c840                replay_cache_init
 .text.beacon_create
                0x0002c844       0x46 examples/light_switch/server/CMakeFiles/light_switch_server_nrf52840_xxAA_s140_6.0.0.dir/__/__/__/mesh/core/src/beacon.c.obj
                0x0002c844                beacon_create
 *fill*         0x0002c88a        0x2 
 .text.beacon_packet_in
                0x0002c88c      0x154 examples/light_switch/server/CMakeFiles/light_switch_server_nrf52840_xxAA_s140_6.0.0.dir/__/__/__/mesh/core/src/beacon.c.obj
                0x0002c88c                beacon_packet_in
 .text.entry_get
                0x0002c9e0       0x78 examples/light_switch/server/CMakeFiles/light_switch_server_nrf52840_xxAA_s140_6.0.0.dir/__/__/__/mesh/core/src/flash_manager_internal.c.obj
                0x0002c9e0                entry_get
 .text.core_tx_complete_cb_set
                0x0002ca58        0xc examples/light_switch/server/CMakeFiles/light_switch_server_nrf52840_xxAA_s140_6.0.0.dir/__/__/__/mesh/core/src/core_tx.c.obj
                0x0002ca58                core_tx_complete_cb_set
 .text.core_tx_packet_alloc
                0x0002ca64       0x98 examples/light_switch/server/CMakeFiles/light_switch_server_nrf52840_xxAA_s140_6.0.0.dir/__/__/__/mesh/core/src/core_tx.c.obj
                0x0002ca64                core_tx_packet_alloc
 .text.core_tx_packet_send
                0x0002cafc       0x4c examples/light_switch/server/CMakeFiles/light_switch_server_nrf52840_xxAA_s140_6.0.0.dir/__/__/__/mesh/core/src/core_tx.c.obj
                0x0002cafc                core_tx_packet_send
 .text.core_tx_packet_discard
                0x0002cb48       0x40 examples/light_switch/server/CMakeFiles/light_switch_server_nrf52840_xxAA_s140_6.0.0.dir/__/__/__/mesh/core/src/core_tx.c.obj
                0x0002cb48                core_tx_packet_discard
 .text.core_tx_complete
                0x0002cb88       0x34 examples/light_switch/server/CMakeFiles/light_switch_server_nrf52840_xxAA_s140_6.0.0.dir/__/__/__/mesh/core/src/core_tx.c.obj
                0x0002cb88                core_tx_complete
 .text.core_tx_bearer_add
                0x0002cbbc       0x70 examples/light_switch/server/CMakeFiles/light_switch_server_nrf52840_xxAA_s140_6.0.0.dir/__/__/__/mesh/core/src/core_tx.c.obj
                0x0002cbbc                core_tx_bearer_add
 .text.heartbeat_subscription_timer_cb
                0x0002cc2c       0x1c examples/light_switch/server/CMakeFiles/light_switch_server_nrf52840_xxAA_s140_6.0.0.dir/__/__/__/mesh/core/src/heartbeat.c.obj
 .text.heartbeat_opcode_handle
                0x0002cc48       0x88 examples/light_switch/server/CMakeFiles/light_switch_server_nrf52840_xxAA_s140_6.0.0.dir/__/__/__/mesh/core/src/heartbeat.c.obj
 .text.heartbeat_send
                0x0002ccd0       0xb2 examples/light_switch/server/CMakeFiles/light_switch_server_nrf52840_xxAA_s140_6.0.0.dir/__/__/__/mesh/core/src/heartbeat.c.obj
 *fill*         0x0002cd82        0x2 
 .text.heartbeat_publication_timer_cb
                0x0002cd84       0xa8 examples/light_switch/server/CMakeFiles/light_switch_server_nrf52840_xxAA_s140_6.0.0.dir/__/__/__/mesh/core/src/heartbeat.c.obj
 .text.heartbeat_core_evt_cb
                0x0002ce2c       0x7c examples/light_switch/server/CMakeFiles/light_switch_server_nrf52840_xxAA_s140_6.0.0.dir/__/__/__/mesh/core/src/heartbeat.c.obj
 .text.heartbeat_on_feature_change_trigger
                0x0002cea8       0x44 examples/light_switch/server/CMakeFiles/light_switch_server_nrf52840_xxAA_s140_6.0.0.dir/__/__/__/mesh/core/src/heartbeat.c.obj
                0x0002cea8                heartbeat_on_feature_change_trigger
 .text.heartbeat_init
                0x0002ceec       0x78 examples/light_switch/server/CMakeFiles/light_switch_server_nrf52840_xxAA_s140_6.0.0.dir/__/__/__/mesh/core/src/heartbeat.c.obj
                0x0002ceec                heartbeat_init
 .text.heartbeat_subscription_set
                0x0002cf64       0xa4 examples/light_switch/server/CMakeFiles/light_switch_server_nrf52840_xxAA_s140_6.0.0.dir/__/__/__/mesh/core/src/heartbeat.c.obj
                0x0002cf64                heartbeat_subscription_set
 .text.heartbeat_subscription_get
                0x0002d008        0x8 examples/light_switch/server/CMakeFiles/light_switch_server_nrf52840_xxAA_s140_6.0.0.dir/__/__/__/mesh/core/src/heartbeat.c.obj
                0x0002d008                heartbeat_subscription_get
 .text.heartbeat_config_server_cb_set
                0x0002d010       0x28 examples/light_switch/server/CMakeFiles/light_switch_server_nrf52840_xxAA_s140_6.0.0.dir/__/__/__/mesh/core/src/heartbeat.c.obj
                0x0002d010                heartbeat_config_server_cb_set
 .text.heartbeat_publication_state_updated
                0x0002d038       0x74 examples/light_switch/server/CMakeFiles/light_switch_server_nrf52840_xxAA_s140_6.0.0.dir/__/__/__/mesh/core/src/heartbeat.c.obj
                0x0002d038                heartbeat_publication_state_updated
 .text.make_network_beacon_packet
                0x0002d0ac       0x50 examples/light_switch/server/CMakeFiles/light_switch_server_nrf52840_xxAA_s140_6.0.0.dir/__/__/__/mesh/core/src/net_beacon.c.obj
 .text.beacon_tx
                0x0002d0fc      0x12c examples/light_switch/server/CMakeFiles/light_switch_server_nrf52840_xxAA_s140_6.0.0.dir/__/__/__/mesh/core/src/net_beacon.c.obj
 .text.tx_complete_cb
                0x0002d228        0xe examples/light_switch/server/CMakeFiles/light_switch_server_nrf52840_xxAA_s140_6.0.0.dir/__/__/__/mesh/core/src/net_beacon.c.obj
 .text.beacon_tx_timeout
                0x0002d236        0x4 examples/light_switch/server/CMakeFiles/light_switch_server_nrf52840_xxAA_s140_6.0.0.dir/__/__/__/mesh/core/src/net_beacon.c.obj
 .text.is_valid_beacon_pkt.part.0
                0x0002d23a       0x30 examples/light_switch/server/CMakeFiles/light_switch_server_nrf52840_xxAA_s140_6.0.0.dir/__/__/__/mesh/core/src/net_beacon.c.obj
 *fill*         0x0002d26a        0x2 
 .text.net_beacon_init
                0x0002d26c       0x94 examples/light_switch/server/CMakeFiles/light_switch_server_nrf52840_xxAA_s140_6.0.0.dir/__/__/__/mesh/core/src/net_beacon.c.obj
                0x0002d26c                net_beacon_init
 .text.net_beacon_state_set
                0x0002d300       0x34 examples/light_switch/server/CMakeFiles/light_switch_server_nrf52840_xxAA_s140_6.0.0.dir/__/__/__/mesh/core/src/net_beacon.c.obj
                0x0002d300                net_beacon_state_set
 .text.net_beacon_state_get
                0x0002d334        0xc examples/light_switch/server/CMakeFiles/light_switch_server_nrf52840_xxAA_s140_6.0.0.dir/__/__/__/mesh/core/src/net_beacon.c.obj
                0x0002d334                net_beacon_state_get
 .text.net_beacon_packet_in
                0x0002d340       0xf2 examples/light_switch/server/CMakeFiles/light_switch_server_nrf52840_xxAA_s140_6.0.0.dir/__/__/__/mesh/core/src/net_beacon.c.obj
                0x0002d340                net_beacon_packet_in
 *fill*         0x0002d432        0x2 
 .text.packet_discard
                0x0002d434       0x40 examples/light_switch/server/CMakeFiles/light_switch_server_nrf52840_xxAA_s140_6.0.0.dir/__/__/__/mesh/core/src/core_tx_adv.c.obj
 .text.packet_send
                0x0002d474       0x58 examples/light_switch/server/CMakeFiles/light_switch_server_nrf52840_xxAA_s140_6.0.0.dir/__/__/__/mesh/core/src/core_tx_adv.c.obj
 .text.packet_alloc
                0x0002d4cc       0x58 examples/light_switch/server/CMakeFiles/light_switch_server_nrf52840_xxAA_s140_6.0.0.dir/__/__/__/mesh/core/src/core_tx_adv.c.obj
 .text.adv_tx_complete_callback
                0x0002d524       0x20 examples/light_switch/server/CMakeFiles/light_switch_server_nrf52840_xxAA_s140_6.0.0.dir/__/__/__/mesh/core/src/core_tx_adv.c.obj
 .text.core_tx_adv_init
                0x0002d544       0x60 examples/light_switch/server/CMakeFiles/light_switch_server_nrf52840_xxAA_s140_6.0.0.dir/__/__/__/mesh/core/src/core_tx_adv.c.obj
                0x0002d544                core_tx_adv_init
 .text.core_tx_adv_count_set
                0x0002d5a4       0x28 examples/light_switch/server/CMakeFiles/light_switch_server_nrf52840_xxAA_s140_6.0.0.dir/__/__/__/mesh/core/src/core_tx_adv.c.obj
                0x0002d5a4                core_tx_adv_count_set
 .text.core_tx_adv_count_get
                0x0002d5cc       0x1c examples/light_switch/server/CMakeFiles/light_switch_server_nrf52840_xxAA_s140_6.0.0.dir/__/__/__/mesh/core/src/core_tx_adv.c.obj
                0x0002d5cc                core_tx_adv_count_get
 .text.core_tx_adv_interval_set
                0x0002d5e8       0x28 examples/light_switch/server/CMakeFiles/light_switch_server_nrf52840_xxAA_s140_6.0.0.dir/__/__/__/mesh/core/src/core_tx_adv.c.obj
                0x0002d5e8                core_tx_adv_interval_set
 .text.core_tx_adv_interval_get
                0x0002d610       0x28 examples/light_switch/server/CMakeFiles/light_switch_server_nrf52840_xxAA_s140_6.0.0.dir/__/__/__/mesh/core/src/core_tx_adv.c.obj
                0x0002d610                core_tx_adv_interval_get
 .text.core_tx_adv_tx_power_set
                0x0002d638       0x28 examples/light_switch/server/CMakeFiles/light_switch_server_nrf52840_xxAA_s140_6.0.0.dir/__/__/__/mesh/core/src/core_tx_adv.c.obj
                0x0002d638                core_tx_adv_tx_power_set
 .text.ad_listener_subscribe
                0x0002d660       0x5c examples/light_switch/server/CMakeFiles/light_switch_server_nrf52840_xxAA_s140_6.0.0.dir/__/__/__/mesh/bearer/src/ad_listener.c.obj
                0x0002d660                ad_listener_subscribe
 .text.ad_listener_process
                0x0002d6bc       0x64 examples/light_switch/server/CMakeFiles/light_switch_server_nrf52840_xxAA_s140_6.0.0.dir/__/__/__/mesh/bearer/src/ad_listener.c.obj
                0x0002d6bc                ad_listener_process
 .text.adtype_filter_handle
                0x0002d720       0x64 examples/light_switch/server/CMakeFiles/light_switch_server_nrf52840_xxAA_s140_6.0.0.dir/__/__/__/mesh/bearer/src/ad_type_filter.c.obj
 .text.bearer_adtype_filtering_set
                0x0002d784       0x1c examples/light_switch/server/CMakeFiles/light_switch_server_nrf52840_xxAA_s140_6.0.0.dir/__/__/__/mesh/bearer/src/ad_type_filter.c.obj
                0x0002d784                bearer_adtype_filtering_set
 .text.bearer_adtype_add
                0x0002d7a0       0x20 examples/light_switch/server/CMakeFiles/light_switch_server_nrf52840_xxAA_s140_6.0.0.dir/__/__/__/mesh/bearer/src/ad_type_filter.c.obj
                0x0002d7a0                bearer_adtype_add
 .text.bearer_adtype_mode_set
                0x0002d7c0       0x18 examples/light_switch/server/CMakeFiles/light_switch_server_nrf52840_xxAA_s140_6.0.0.dir/__/__/__/mesh/bearer/src/ad_type_filter.c.obj
                0x0002d7c0                bearer_adtype_mode_set
 .text.tx_complete_event_callback
                0x0002d7d8       0x28 examples/light_switch/server/CMakeFiles/light_switch_server_nrf52840_xxAA_s140_6.0.0.dir/__/__/__/mesh/bearer/src/advertiser.c.obj
 .text.set_gap_addr_type
                0x0002d800       0x26 examples/light_switch/server/CMakeFiles/light_switch_server_nrf52840_xxAA_s140_6.0.0.dir/__/__/__/mesh/bearer/src/advertiser.c.obj
 .text.broadcast_complete_cb
                0x0002d826       0x46 examples/light_switch/server/CMakeFiles/light_switch_server_nrf52840_xxAA_s140_6.0.0.dir/__/__/__/mesh/bearer/src/advertiser.c.obj
 .text.schedule_first_time
                0x0002d86c       0x28 examples/light_switch/server/CMakeFiles/light_switch_server_nrf52840_xxAA_s140_6.0.0.dir/__/__/__/mesh/bearer/src/advertiser.c.obj
 .text.timeout_event
                0x0002d894      0x10c examples/light_switch/server/CMakeFiles/light_switch_server_nrf52840_xxAA_s140_6.0.0.dir/__/__/__/mesh/bearer/src/advertiser.c.obj
 .text.advertiser_init
                0x0002d9a0        0xc examples/light_switch/server/CMakeFiles/light_switch_server_nrf52840_xxAA_s140_6.0.0.dir/__/__/__/mesh/bearer/src/advertiser.c.obj
                0x0002d9a0                advertiser_init
 .text.advertiser_enable
                0x0002d9ac       0x2a examples/light_switch/server/CMakeFiles/light_switch_server_nrf52840_xxAA_s140_6.0.0.dir/__/__/__/mesh/bearer/src/advertiser.c.obj
                0x0002d9ac                advertiser_enable
 .text.advertiser_packet_alloc
                0x0002d9d6       0x76 examples/light_switch/server/CMakeFiles/light_switch_server_nrf52840_xxAA_s140_6.0.0.dir/__/__/__/mesh/bearer/src/advertiser.c.obj
                0x0002d9d6                advertiser_packet_alloc
 .text.advertiser_packet_send
                0x0002da4c       0x62 examples/light_switch/server/CMakeFiles/light_switch_server_nrf52840_xxAA_s140_6.0.0.dir/__/__/__/mesh/bearer/src/advertiser.c.obj
                0x0002da4c                advertiser_packet_send
 .text.advertiser_packet_discard
                0x0002daae       0x1e examples/light_switch/server/CMakeFiles/light_switch_server_nrf52840_xxAA_s140_6.0.0.dir/__/__/__/mesh/bearer/src/advertiser.c.obj
                0x0002daae                advertiser_packet_discard
 .text.advertiser_interval_set
                0x0002dacc       0x54 examples/light_switch/server/CMakeFiles/light_switch_server_nrf52840_xxAA_s140_6.0.0.dir/__/__/__/mesh/bearer/src/advertiser.c.obj
                0x0002dacc                advertiser_interval_set
 .text.advertiser_tx_power_set
                0x0002db20       0x14 examples/light_switch/server/CMakeFiles/light_switch_server_nrf52840_xxAA_s140_6.0.0.dir/__/__/__/mesh/bearer/src/advertiser.c.obj
                0x0002db20                advertiser_tx_power_set
 .text.advertiser_flush
                0x0002db34       0x1e examples/light_switch/server/CMakeFiles/light_switch_server_nrf52840_xxAA_s140_6.0.0.dir/__/__/__/mesh/bearer/src/advertiser.c.obj
                0x0002db34                advertiser_flush
 *fill*         0x0002db52        0x2 
 .text.advertiser_address_default_get
                0x0002db54       0x38 examples/light_switch/server/CMakeFiles/light_switch_server_nrf52840_xxAA_s140_6.0.0.dir/__/__/__/mesh/bearer/src/advertiser.c.obj
                0x0002db54                advertiser_address_default_get
 .text.advertiser_instance_init
                0x0002db8c       0xa4 examples/light_switch/server/CMakeFiles/light_switch_server_nrf52840_xxAA_s140_6.0.0.dir/__/__/__/mesh/bearer/src/advertiser.c.obj
                0x0002db8c                advertiser_instance_init
 .text.action_timer_start
                0x0002dc30       0x90 examples/light_switch/server/CMakeFiles/light_switch_server_nrf52840_xxAA_s140_6.0.0.dir/__/__/__/mesh/bearer/src/bearer_handler.c.obj
 .text.action_switch
                0x0002dcc0       0xe8 examples/light_switch/server/CMakeFiles/light_switch_server_nrf52840_xxAA_s140_6.0.0.dir/__/__/__/mesh/bearer/src/bearer_handler.c.obj
 .text.end_handle
                0x0002dda8       0x44 examples/light_switch/server/CMakeFiles/light_switch_server_nrf52840_xxAA_s140_6.0.0.dir/__/__/__/mesh/bearer/src/bearer_handler.c.obj
 .text.TIMER2_IRQHandler
                0x0002ddec       0x58 examples/light_switch/server/CMakeFiles/light_switch_server_nrf52840_xxAA_s140_6.0.0.dir/__/__/__/mesh/bearer/src/bearer_handler.c.obj
                0x0002ddec                TIMER2_IRQHandler
 .text.bearer_handler_init
                0x0002de44       0x44 examples/light_switch/server/CMakeFiles/light_switch_server_nrf52840_xxAA_s140_6.0.0.dir/__/__/__/mesh/bearer/src/bearer_handler.c.obj
                0x0002de44                bearer_handler_init
 .text.bearer_handler_start
                0x0002de88       0x1c examples/light_switch/server/CMakeFiles/light_switch_server_nrf52840_xxAA_s140_6.0.0.dir/__/__/__/mesh/bearer/src/bearer_handler.c.obj
                0x0002de88                bearer_handler_start
 .text.bearer_handler_action_enqueue
                0x0002dea4       0x6c examples/light_switch/server/CMakeFiles/light_switch_server_nrf52840_xxAA_s140_6.0.0.dir/__/__/__/mesh/bearer/src/bearer_handler.c.obj
                0x0002dea4                bearer_handler_action_enqueue
 .text.bearer_handler_action_end
                0x0002df10       0x48 examples/light_switch/server/CMakeFiles/light_switch_server_nrf52840_xxAA_s140_6.0.0.dir/__/__/__/mesh/bearer/src/bearer_handler.c.obj
                0x0002df10                bearer_handler_action_end
 .text.bearer_handler_radio_irq_handler
                0x0002df58       0x64 examples/light_switch/server/CMakeFiles/light_switch_server_nrf52840_xxAA_s140_6.0.0.dir/__/__/__/mesh/bearer/src/bearer_handler.c.obj
                0x0002df58                bearer_handler_radio_irq_handler
 .text.bearer_handler_timer_irq_handler
                0x0002dfbc       0x24 examples/light_switch/server/CMakeFiles/light_switch_server_nrf52840_xxAA_s140_6.0.0.dir/__/__/__/mesh/bearer/src/bearer_handler.c.obj
                0x0002dfbc                bearer_handler_timer_irq_handler
 .text.bearer_handler_on_ts_begin
                0x0002dfe0       0x38 examples/light_switch/server/CMakeFiles/light_switch_server_nrf52840_xxAA_s140_6.0.0.dir/__/__/__/mesh/bearer/src/bearer_handler.c.obj
                0x0002dfe0                bearer_handler_on_ts_begin
 .text.bearer_handler_on_ts_end
                0x0002e018       0x70 examples/light_switch/server/CMakeFiles/light_switch_server_nrf52840_xxAA_s140_6.0.0.dir/__/__/__/mesh/bearer/src/bearer_handler.c.obj
                0x0002e018                bearer_handler_on_ts_end
 .text.broadcast_start
                0x0002e088       0xac examples/light_switch/server/CMakeFiles/light_switch_server_nrf52840_xxAA_s140_6.0.0.dir/__/__/__/mesh/bearer/src/broadcast.c.obj
 .text.radio_irq_handler
                0x0002e134       0xa4 examples/light_switch/server/CMakeFiles/light_switch_server_nrf52840_xxAA_s140_6.0.0.dir/__/__/__/mesh/bearer/src/broadcast.c.obj
 .text.broadcast_send
                0x0002e1d8       0x6c examples/light_switch/server/CMakeFiles/light_switch_server_nrf52840_xxAA_s140_6.0.0.dir/__/__/__/mesh/bearer/src/broadcast.c.obj
                0x0002e1d8                broadcast_send
 .text.fen_filter_start
                0x0002e244       0x28 examples/light_switch/server/CMakeFiles/light_switch_server_nrf52840_xxAA_s140_6.0.0.dir/__/__/__/mesh/bearer/src/filter_engine.c.obj
                0x0002e244                fen_filter_start
 .text.fen_filter_stop
                0x0002e26c       0x20 examples/light_switch/server/CMakeFiles/light_switch_server_nrf52840_xxAA_s140_6.0.0.dir/__/__/__/mesh/bearer/src/filter_engine.c.obj
                0x0002e26c                fen_filter_stop
 .text.fen_filters_apply
                0x0002e28c       0x34 examples/light_switch/server/CMakeFiles/light_switch_server_nrf52840_xxAA_s140_6.0.0.dir/__/__/__/mesh/bearer/src/filter_engine.c.obj
                0x0002e28c                fen_filters_apply
 .text.radio_config_reset
                0x0002e2c0       0x40 examples/light_switch/server/CMakeFiles/light_switch_server_nrf52840_xxAA_s140_6.0.0.dir/__/__/__/mesh/bearer/src/radio_config.c.obj
                0x0002e2c0                radio_config_reset
 .text.radio_config_channel_set
                0x0002e300       0x28 examples/light_switch/server/CMakeFiles/light_switch_server_nrf52840_xxAA_s140_6.0.0.dir/__/__/__/mesh/bearer/src/radio_config.c.obj
                0x0002e300                radio_config_channel_set
 .text.radio_config_config
                0x0002e328       0x90 examples/light_switch/server/CMakeFiles/light_switch_server_nrf52840_xxAA_s140_6.0.0.dir/__/__/__/mesh/bearer/src/radio_config.c.obj
                0x0002e328                radio_config_config
 .text.radio_config_access_addr_set
                0x0002e3b8       0x50 examples/light_switch/server/CMakeFiles/light_switch_server_nrf52840_xxAA_s140_6.0.0.dir/__/__/__/mesh/bearer/src/radio_config.c.obj
                0x0002e3b8                radio_config_access_addr_set
 .text.radio_trigger
                0x0002e408       0x24 examples/light_switch/server/CMakeFiles/light_switch_server_nrf52840_xxAA_s140_6.0.0.dir/__/__/__/mesh/bearer/src/scanner.c.obj
 .text.scan_window_end
                0x0002e42c       0x10 examples/light_switch/server/CMakeFiles/light_switch_server_nrf52840_xxAA_s140_6.0.0.dir/__/__/__/mesh/bearer/src/scanner.c.obj
 .text.scan_window_start
                0x0002e43c       0x24 examples/light_switch/server/CMakeFiles/light_switch_server_nrf52840_xxAA_s140_6.0.0.dir/__/__/__/mesh/bearer/src/scanner.c.obj
 .text.radio_configure
                0x0002e460       0x78 examples/light_switch/server/CMakeFiles/light_switch_server_nrf52840_xxAA_s140_6.0.0.dir/__/__/__/mesh/bearer/src/scanner.c.obj
 .text.radio_set_packet
                0x0002e4d8       0x4c examples/light_switch/server/CMakeFiles/light_switch_server_nrf52840_xxAA_s140_6.0.0.dir/__/__/__/mesh/bearer/src/scanner.c.obj
 .text.radio_start
                0x0002e524       0x78 examples/light_switch/server/CMakeFiles/light_switch_server_nrf52840_xxAA_s140_6.0.0.dir/__/__/__/mesh/bearer/src/scanner.c.obj
 .text.radio_stop
                0x0002e59c       0x38 examples/light_switch/server/CMakeFiles/light_switch_server_nrf52840_xxAA_s140_6.0.0.dir/__/__/__/mesh/bearer/src/scanner.c.obj
 .text.schedule_timers
                0x0002e5d4       0x38 examples/light_switch/server/CMakeFiles/light_switch_server_nrf52840_xxAA_s140_6.0.0.dir/__/__/__/mesh/bearer/src/scanner.c.obj
 .text.scanner_radio_start
                0x0002e60c       0x2c examples/light_switch/server/CMakeFiles/light_switch_server_nrf52840_xxAA_s140_6.0.0.dir/__/__/__/mesh/bearer/src/scanner.c.obj
                0x0002e60c                scanner_radio_start
 .text.scanner_radio_stop
                0x0002e638       0x10 examples/light_switch/server/CMakeFiles/light_switch_server_nrf52840_xxAA_s140_6.0.0.dir/__/__/__/mesh/bearer/src/scanner.c.obj
                0x0002e638                scanner_radio_stop
 .text.scanner_radio_irq_handler
                0x0002e648      0x13c examples/light_switch/server/CMakeFiles/light_switch_server_nrf52840_xxAA_s140_6.0.0.dir/__/__/__/mesh/bearer/src/scanner.c.obj
                0x0002e648                scanner_radio_irq_handler
 .text.scanner_timer_irq_handler
                0x0002e784       0x30 examples/light_switch/server/CMakeFiles/light_switch_server_nrf52840_xxAA_s140_6.0.0.dir/__/__/__/mesh/bearer/src/scanner.c.obj
                0x0002e784                scanner_timer_irq_handler
 .text.scanner_enable
                0x0002e7b4       0x24 examples/light_switch/server/CMakeFiles/light_switch_server_nrf52840_xxAA_s140_6.0.0.dir/__/__/__/mesh/bearer/src/scanner.c.obj
                0x0002e7b4                scanner_enable
 .text.scanner_packet_release
                0x0002e7d8       0x2c examples/light_switch/server/CMakeFiles/light_switch_server_nrf52840_xxAA_s140_6.0.0.dir/__/__/__/mesh/bearer/src/scanner.c.obj
                0x0002e7d8                scanner_packet_release
 .text.scanner_rx
                0x0002e804       0x30 examples/light_switch/server/CMakeFiles/light_switch_server_nrf52840_xxAA_s140_6.0.0.dir/__/__/__/mesh/bearer/src/scanner.c.obj
                0x0002e804                scanner_rx
 .text.scanner_rx_pending
                0x0002e834        0xc examples/light_switch/server/CMakeFiles/light_switch_server_nrf52840_xxAA_s140_6.0.0.dir/__/__/__/mesh/bearer/src/scanner.c.obj
                0x0002e834                scanner_rx_pending
 .text.scanner_config_scan_time_set
                0x0002e840       0x4c examples/light_switch/server/CMakeFiles/light_switch_server_nrf52840_xxAA_s140_6.0.0.dir/__/__/__/mesh/bearer/src/scanner.c.obj
                0x0002e840                scanner_config_scan_time_set
 .text.scanner_config_channels_set
                0x0002e88c       0x50 examples/light_switch/server/CMakeFiles/light_switch_server_nrf52840_xxAA_s140_6.0.0.dir/__/__/__/mesh/bearer/src/scanner.c.obj
                0x0002e88c                scanner_config_channels_set
 .text.scanner_config_access_addresses_set
                0x0002e8dc       0x38 examples/light_switch/server/CMakeFiles/light_switch_server_nrf52840_xxAA_s140_6.0.0.dir/__/__/__/mesh/bearer/src/scanner.c.obj
                0x0002e8dc                scanner_config_access_addresses_set
 .text.scanner_config_reset
                0x0002e914       0x50 examples/light_switch/server/CMakeFiles/light_switch_server_nrf52840_xxAA_s140_6.0.0.dir/__/__/__/mesh/bearer/src/scanner.c.obj
                0x0002e914                scanner_config_reset
 .text.scanner_init
                0x0002e964       0x54 examples/light_switch/server/CMakeFiles/light_switch_server_nrf52840_xxAA_s140_6.0.0.dir/__/__/__/mesh/bearer/src/scanner.c.obj
                0x0002e964                scanner_init
 .text.pin_clear
                0x0002e9b8       0x26 examples/light_switch/server/CMakeFiles/light_switch_server_nrf52840_xxAA_s140_6.0.0.dir/__/__/__/mesh/bearer/src/mesh_pa_lna.c.obj
 *fill*         0x0002e9de        0x2 
 .text.ppi_setup.isra.0
                0x0002e9e0       0x3c examples/light_switch/server/CMakeFiles/light_switch_server_nrf52840_xxAA_s140_6.0.0.dir/__/__/__/mesh/bearer/src/mesh_pa_lna.c.obj
 .text.mesh_pa_setup_start
                0x0002ea1c       0x5c examples/light_switch/server/CMakeFiles/light_switch_server_nrf52840_xxAA_s140_6.0.0.dir/__/__/__/mesh/bearer/src/mesh_pa_lna.c.obj
                0x0002ea1c                mesh_pa_setup_start
 .text.mesh_lna_setup_start
                0x0002ea78       0x5c examples/light_switch/server/CMakeFiles/light_switch_server_nrf52840_xxAA_s140_6.0.0.dir/__/__/__/mesh/bearer/src/mesh_pa_lna.c.obj
                0x0002ea78                mesh_lna_setup_start
 .text.mesh_pa_lna_disable_start
                0x0002ead4       0x1c examples/light_switch/server/CMakeFiles/light_switch_server_nrf52840_xxAA_s140_6.0.0.dir/__/__/__/mesh/bearer/src/mesh_pa_lna.c.obj
                0x0002ead4                mesh_pa_lna_disable_start
 .text.mesh_pa_lna_setup_stop
                0x0002eaf0       0x4c examples/light_switch/server/CMakeFiles/light_switch_server_nrf52840_xxAA_s140_6.0.0.dir/__/__/__/mesh/bearer/src/mesh_pa_lna.c.obj
                0x0002eaf0                mesh_pa_lna_setup_stop
 .text.mesh_pa_lna_cleanup
                0x0002eb3c       0x48 examples/light_switch/server/CMakeFiles/light_switch_server_nrf52840_xxAA_s140_6.0.0.dir/__/__/__/mesh/bearer/src/mesh_pa_lna.c.obj
                0x0002eb3c                mesh_pa_lna_cleanup
 .text.reply_status.isra.0
                0x0002eb84       0x42 examples/light_switch/server/CMakeFiles/light_switch_server_nrf52840_xxAA_s140_6.0.0.dir/__/__/__/models/simple_on_off/src/simple_on_off_server.c.obj
 .text.handle_get_cb
                0x0002ebc6       0x24 examples/light_switch/server/CMakeFiles/light_switch_server_nrf52840_xxAA_s140_6.0.0.dir/__/__/__/models/simple_on_off/src/simple_on_off_server.c.obj
 *fill*         0x0002ebea        0x2 
 .text.simple_on_off_server_init
                0x0002ebec       0x40 examples/light_switch/server/CMakeFiles/light_switch_server_nrf52840_xxAA_s140_6.0.0.dir/__/__/__/models/simple_on_off/src/simple_on_off_server.c.obj
                0x0002ebec                simple_on_off_server_init
 .text.simple_on_off_server_status_publish
                0x0002ec2c       0x3e examples/light_switch/server/CMakeFiles/light_switch_server_nrf52840_xxAA_s140_6.0.0.dir/__/__/__/models/simple_on_off/src/simple_on_off_server.c.obj
                0x0002ec2c                simple_on_off_server_status_publish
 .text.handle_set_unreliable_cb
                0x0002ec6a       0x2c examples/light_switch/server/CMakeFiles/light_switch_server_nrf52840_xxAA_s140_6.0.0.dir/__/__/__/models/simple_on_off/src/simple_on_off_server.c.obj
 .text.handle_set_cb
                0x0002ec96       0x38 examples/light_switch/server/CMakeFiles/light_switch_server_nrf52840_xxAA_s140_6.0.0.dir/__/__/__/models/simple_on_off/src/simple_on_off_server.c.obj
 .text.config_composition_data_get
                0x0002ecce      0x186 examples/light_switch/server/CMakeFiles/light_switch_server_nrf52840_xxAA_s140_6.0.0.dir/__/__/__/models/config/src/composition_data.c.obj
                0x0002ecce                config_composition_data_get
 .text.app_evt_send
                0x0002ee54       0x10 examples/light_switch/server/CMakeFiles/light_switch_server_nrf52840_xxAA_s140_6.0.0.dir/__/__/__/models/config/src/config_server.c.obj
 .text.config_server_heartbeat_publication_count_decrement
                0x0002ee64       0x1c examples/light_switch/server/CMakeFiles/light_switch_server_nrf52840_xxAA_s140_6.0.0.dir/__/__/__/models/config/src/config_server.c.obj
 .text.get_element_index
                0x0002ee80       0x26 examples/light_switch/server/CMakeFiles/light_switch_server_nrf52840_xxAA_s140_6.0.0.dir/__/__/__/models/config/src/config_server.c.obj
 *fill*         0x0002eea6        0x2 
 .text.config_server_heartbeat_publication_params_get
                0x0002eea8       0x34 examples/light_switch/server/CMakeFiles/light_switch_server_nrf52840_xxAA_s140_6.0.0.dir/__/__/__/models/config/src/config_server.c.obj
 .text.send_reply
                0x0002eedc       0x34 examples/light_switch/server/CMakeFiles/light_switch_server_nrf52840_xxAA_s140_6.0.0.dir/__/__/__/models/config/src/config_server.c.obj
 .text.send_network_transmit_status
                0x0002ef10       0x76 examples/light_switch/server/CMakeFiles/light_switch_server_nrf52840_xxAA_s140_6.0.0.dir/__/__/__/models/config/src/config_server.c.obj
 .text.handle_config_network_transmit_set
                0x0002ef86       0x82 examples/light_switch/server/CMakeFiles/light_switch_server_nrf52840_xxAA_s140_6.0.0.dir/__/__/__/models/config/src/config_server.c.obj
 .text.handle_config_network_transmit_get
                0x0002f008        0xa examples/light_switch/server/CMakeFiles/light_switch_server_nrf52840_xxAA_s140_6.0.0.dir/__/__/__/models/config/src/config_server.c.obj
 *fill*         0x0002f012        0x2 
 .text.handle_node_reset
                0x0002f014       0x34 examples/light_switch/server/CMakeFiles/light_switch_server_nrf52840_xxAA_s140_6.0.0.dir/__/__/__/models/config/src/config_server.c.obj
 .text.send_netkey_status
                0x0002f048       0x2c examples/light_switch/server/CMakeFiles/light_switch_server_nrf52840_xxAA_s140_6.0.0.dir/__/__/__/models/config/src/config_server.c.obj
 .text.send_relay_status
                0x0002f074       0xa8 examples/light_switch/server/CMakeFiles/light_switch_server_nrf52840_xxAA_s140_6.0.0.dir/__/__/__/models/config/src/config_server.c.obj
 .text.handle_config_relay_set
                0x0002f11c       0xb6 examples/light_switch/server/CMakeFiles/light_switch_server_nrf52840_xxAA_s140_6.0.0.dir/__/__/__/models/config/src/config_server.c.obj
 .text.handle_config_relay_get
                0x0002f1d2        0xa examples/light_switch/server/CMakeFiles/light_switch_server_nrf52840_xxAA_s140_6.0.0.dir/__/__/__/models/config/src/config_server.c.obj
 .text.send_subscription_status
                0x0002f1dc       0x42 examples/light_switch/server/CMakeFiles/light_switch_server_nrf52840_xxAA_s140_6.0.0.dir/__/__/__/models/config/src/config_server.c.obj
 .text.send_appkey_status
                0x0002f21e       0x3a examples/light_switch/server/CMakeFiles/light_switch_server_nrf52840_xxAA_s140_6.0.0.dir/__/__/__/models/config/src/config_server.c.obj
 .text.handle_netkey_get
                0x0002f258       0x50 examples/light_switch/server/CMakeFiles/light_switch_server_nrf52840_xxAA_s140_6.0.0.dir/__/__/__/models/config/src/config_server.c.obj
 .text.handle_netkey_delete
                0x0002f2a8       0xbc examples/light_switch/server/CMakeFiles/light_switch_server_nrf52840_xxAA_s140_6.0.0.dir/__/__/__/models/config/src/config_server.c.obj
 .text.handle_netkey_add_update
                0x0002f364       0x78 examples/light_switch/server/CMakeFiles/light_switch_server_nrf52840_xxAA_s140_6.0.0.dir/__/__/__/models/config/src/config_server.c.obj
 .text.status_error_sub_send
                0x0002f3dc      0x124 examples/light_switch/server/CMakeFiles/light_switch_server_nrf52840_xxAA_s140_6.0.0.dir/__/__/__/models/config/src/config_server.c.obj
 .text.delete_all_subscriptions
                0x0002f500       0x66 examples/light_switch/server/CMakeFiles/light_switch_server_nrf52840_xxAA_s140_6.0.0.dir/__/__/__/models/config/src/config_server.c.obj
 .text.send_publication_status
                0x0002f566      0x170 examples/light_switch/server/CMakeFiles/light_switch_server_nrf52840_xxAA_s140_6.0.0.dir/__/__/__/models/config/src/config_server.c.obj
 .text.handle_config_key_refresh_phase_set
                0x0002f6d6       0xc8 examples/light_switch/server/CMakeFiles/light_switch_server_nrf52840_xxAA_s140_6.0.0.dir/__/__/__/models/config/src/config_server.c.obj
 .text.handle_config_default_ttl_set
                0x0002f79e       0x50 examples/light_switch/server/CMakeFiles/light_switch_server_nrf52840_xxAA_s140_6.0.0.dir/__/__/__/models/config/src/config_server.c.obj
 .text.send_net_beacon_state
                0x0002f7ee       0x2c examples/light_switch/server/CMakeFiles/light_switch_server_nrf52840_xxAA_s140_6.0.0.dir/__/__/__/models/config/src/config_server.c.obj
 .text.handle_config_beacon_get
                0x0002f81a        0xa examples/light_switch/server/CMakeFiles/light_switch_server_nrf52840_xxAA_s140_6.0.0.dir/__/__/__/models/config/src/config_server.c.obj
 .text.handle_heartbeat_publication_set
                0x0002f824      0x12c examples/light_switch/server/CMakeFiles/light_switch_server_nrf52840_xxAA_s140_6.0.0.dir/__/__/__/models/config/src/config_server.c.obj
 .text.mesh_event_cb
                0x0002f950       0x70 examples/light_switch/server/CMakeFiles/light_switch_server_nrf52840_xxAA_s140_6.0.0.dir/__/__/__/models/config/src/config_server.c.obj
 .text.handle_node_identity_set
                0x0002f9c0       0x3e examples/light_switch/server/CMakeFiles/light_switch_server_nrf52840_xxAA_s140_6.0.0.dir/__/__/__/models/config/src/config_server.c.obj
 .text.handle_node_identity_get
                0x0002f9fe       0x3c examples/light_switch/server/CMakeFiles/light_switch_server_nrf52840_xxAA_s140_6.0.0.dir/__/__/__/models/config/src/config_server.c.obj
 .text.handle_config_gatt_proxy_get.part.9
                0x0002fa3a       0x2a examples/light_switch/server/CMakeFiles/light_switch_server_nrf52840_xxAA_s140_6.0.0.dir/__/__/__/models/config/src/config_server.c.obj
 .text.handle_config_gatt_proxy_set
                0x0002fa64       0x14 examples/light_switch/server/CMakeFiles/light_switch_server_nrf52840_xxAA_s140_6.0.0.dir/__/__/__/models/config/src/config_server.c.obj
 .text.handle_config_gatt_proxy_get
                0x0002fa78        0xa examples/light_switch/server/CMakeFiles/light_switch_server_nrf52840_xxAA_s140_6.0.0.dir/__/__/__/models/config/src/config_server.c.obj
 .text.handle_config_friend_get.part.11
                0x0002fa82       0x2a examples/light_switch/server/CMakeFiles/light_switch_server_nrf52840_xxAA_s140_6.0.0.dir/__/__/__/models/config/src/config_server.c.obj
 .text.handle_config_friend_set
                0x0002faac       0x14 examples/light_switch/server/CMakeFiles/light_switch_server_nrf52840_xxAA_s140_6.0.0.dir/__/__/__/models/config/src/config_server.c.obj
 .text.handle_config_friend_get
                0x0002fac0        0xa examples/light_switch/server/CMakeFiles/light_switch_server_nrf52840_xxAA_s140_6.0.0.dir/__/__/__/models/config/src/config_server.c.obj
 .text.status_error_pub_send
                0x0002faca       0x9c examples/light_switch/server/CMakeFiles/light_switch_server_nrf52840_xxAA_s140_6.0.0.dir/__/__/__/models/config/src/config_server.c.obj
 .text.handle_config_key_refresh_phase_get
                0x0002fb66       0x58 examples/light_switch/server/CMakeFiles/light_switch_server_nrf52840_xxAA_s140_6.0.0.dir/__/__/__/models/config/src/config_server.c.obj
 .text.handle_config_default_ttl_get
                0x0002fbbe       0x30 examples/light_switch/server/CMakeFiles/light_switch_server_nrf52840_xxAA_s140_6.0.0.dir/__/__/__/models/config/src/config_server.c.obj
 .text.handle_config_beacon_set
                0x0002fbee       0x42 examples/light_switch/server/CMakeFiles/light_switch_server_nrf52840_xxAA_s140_6.0.0.dir/__/__/__/models/config/src/config_server.c.obj
 .text.handle_composition_data_get
                0x0002fc30       0x50 examples/light_switch/server/CMakeFiles/light_switch_server_nrf52840_xxAA_s140_6.0.0.dir/__/__/__/models/config/src/config_server.c.obj
 .text.handle_appkey_delete
                0x0002fc80       0xc2 examples/light_switch/server/CMakeFiles/light_switch_server_nrf52840_xxAA_s140_6.0.0.dir/__/__/__/models/config/src/config_server.c.obj
 .text.get_subscription_list.constprop.25
                0x0002fd42       0x50 examples/light_switch/server/CMakeFiles/light_switch_server_nrf52840_xxAA_s140_6.0.0.dir/__/__/__/models/config/src/config_server.c.obj
 .text.handle_appkey_get
                0x0002fd92       0xb8 examples/light_switch/server/CMakeFiles/light_switch_server_nrf52840_xxAA_s140_6.0.0.dir/__/__/__/models/config/src/config_server.c.obj
 .text.heartbeat_subscription_count_encode
                0x0002fe4a       0x26 examples/light_switch/server/CMakeFiles/light_switch_server_nrf52840_xxAA_s140_6.0.0.dir/__/__/__/models/config/src/config_server.c.obj
 .text.handle_appkey_add
                0x0002fe70       0xba examples/light_switch/server/CMakeFiles/light_switch_server_nrf52840_xxAA_s140_6.0.0.dir/__/__/__/models/config/src/config_server.c.obj
 .text.handle_appkey_update
                0x0002ff2a       0xbc examples/light_switch/server/CMakeFiles/light_switch_server_nrf52840_xxAA_s140_6.0.0.dir/__/__/__/models/config/src/config_server.c.obj
 .text.heartbeat_pubsub_period_encode
                0x0002ffe6       0x26 examples/light_switch/server/CMakeFiles/light_switch_server_nrf52840_xxAA_s140_6.0.0.dir/__/__/__/models/config/src/config_server.c.obj
 .text.handle_heartbeat_publication_get
                0x0003000c       0x80 examples/light_switch/server/CMakeFiles/light_switch_server_nrf52840_xxAA_s140_6.0.0.dir/__/__/__/models/config/src/config_server.c.obj
 .text.handle_heartbeat_subscription_get
                0x0003008c       0x84 examples/light_switch/server/CMakeFiles/light_switch_server_nrf52840_xxAA_s140_6.0.0.dir/__/__/__/models/config/src/config_server.c.obj
 .text.handle_heartbeat_subscription_set
                0x00030110       0xa8 examples/light_switch/server/CMakeFiles/light_switch_server_nrf52840_xxAA_s140_6.0.0.dir/__/__/__/models/config/src/config_server.c.obj
 .text.handle_config_model_publication_get
                0x000301b8       0x94 examples/light_switch/server/CMakeFiles/light_switch_server_nrf52840_xxAA_s140_6.0.0.dir/__/__/__/models/config/src/config_server.c.obj
 .text.handle_config_model_subscription_delete_all
                0x0003024c       0xca examples/light_switch/server/CMakeFiles/light_switch_server_nrf52840_xxAA_s140_6.0.0.dir/__/__/__/models/config/src/config_server.c.obj
 .text.handle_config_sig_model_subscription_get
                0x00030316       0xc2 examples/light_switch/server/CMakeFiles/light_switch_server_nrf52840_xxAA_s140_6.0.0.dir/__/__/__/models/config/src/config_server.c.obj
 .text.handle_config_vendor_model_subscription_get
                0x000303d8      0x100 examples/light_switch/server/CMakeFiles/light_switch_server_nrf52840_xxAA_s140_6.0.0.dir/__/__/__/models/config/src/config_server.c.obj
 .text.handle_config_model_subscription_virtual_address_delete
                0x000304d8      0x110 examples/light_switch/server/CMakeFiles/light_switch_server_nrf52840_xxAA_s140_6.0.0.dir/__/__/__/models/config/src/config_server.c.obj
 .text.handle_config_model_subscription_virtual_address_add
                0x000305e8      0x10e examples/light_switch/server/CMakeFiles/light_switch_server_nrf52840_xxAA_s140_6.0.0.dir/__/__/__/models/config/src/config_server.c.obj
 .text.handle_config_model_subscription_delete
                0x000306f6      0x116 examples/light_switch/server/CMakeFiles/light_switch_server_nrf52840_xxAA_s140_6.0.0.dir/__/__/__/models/config/src/config_server.c.obj
 .text.handle_config_model_subscription_add
                0x0003080c      0x114 examples/light_switch/server/CMakeFiles/light_switch_server_nrf52840_xxAA_s140_6.0.0.dir/__/__/__/models/config/src/config_server.c.obj
 .text.handle_config_model_subscription_virtual_address_overwrite
                0x00030920      0x128 examples/light_switch/server/CMakeFiles/light_switch_server_nrf52840_xxAA_s140_6.0.0.dir/__/__/__/models/config/src/config_server.c.obj
 .text.handle_model_app_get
                0x00030a48      0x1a4 examples/light_switch/server/CMakeFiles/light_switch_server_nrf52840_xxAA_s140_6.0.0.dir/__/__/__/models/config/src/config_server.c.obj
 .text.handle_config_model_subscription_overwrite
                0x00030bec      0x122 examples/light_switch/server/CMakeFiles/light_switch_server_nrf52840_xxAA_s140_6.0.0.dir/__/__/__/models/config/src/config_server.c.obj
 .text.handle_model_app_bind_unbind
                0x00030d0e      0x17a examples/light_switch/server/CMakeFiles/light_switch_server_nrf52840_xxAA_s140_6.0.0.dir/__/__/__/models/config/src/config_server.c.obj
 .text.handle_config_model_publication_set
                0x00030e88      0x2ce examples/light_switch/server/CMakeFiles/light_switch_server_nrf52840_xxAA_s140_6.0.0.dir/__/__/__/models/config/src/config_server.c.obj
 *fill*         0x00031156        0x2 
 .text.config_server_init
                0x00031158       0x64 examples/light_switch/server/CMakeFiles/light_switch_server_nrf52840_xxAA_s140_6.0.0.dir/__/__/__/models/config/src/config_server.c.obj
                0x00031158                config_server_init
 .text.config_server_bind
                0x000311bc       0x10 examples/light_switch/server/CMakeFiles/light_switch_server_nrf52840_xxAA_s140_6.0.0.dir/__/__/__/models/config/src/config_server.c.obj
                0x000311bc                config_server_bind
 .text.packed_index_list_create
                0x000311cc       0x32 examples/light_switch/server/CMakeFiles/light_switch_server_nrf52840_xxAA_s140_6.0.0.dir/__/__/__/models/config/src/packed_index_list.c.obj
                0x000311cc                packed_index_list_create
 *fill*         0x000311fe        0x2 
 .text.attention_timer_set
                0x00031200       0x8c examples/light_switch/server/CMakeFiles/light_switch_server_nrf52840_xxAA_s140_6.0.0.dir/__/__/__/models/health/src/health_server.c.obj
 .text.attention_timer_handler
                0x0003128c       0x5c examples/light_switch/server/CMakeFiles/light_switch_server_nrf52840_xxAA_s140_6.0.0.dir/__/__/__/models/health/src/health_server.c.obj
 .text.send_attention_status
                0x000312e8       0x4a examples/light_switch/server/CMakeFiles/light_switch_server_nrf52840_xxAA_s140_6.0.0.dir/__/__/__/models/health/src/health_server.c.obj
 .text.handle_attention_get
                0x00031332        0xc examples/light_switch/server/CMakeFiles/light_switch_server_nrf52840_xxAA_s140_6.0.0.dir/__/__/__/models/health/src/health_server.c.obj
 .text.send_period_status
                0x0003133e       0x48 examples/light_switch/server/CMakeFiles/light_switch_server_nrf52840_xxAA_s140_6.0.0.dir/__/__/__/models/health/src/health_server.c.obj
 .text.handle_period_get
                0x00031386        0xc examples/light_switch/server/CMakeFiles/light_switch_server_nrf52840_xxAA_s140_6.0.0.dir/__/__/__/models/health/src/health_server.c.obj
 .text.handle_attention_set
                0x00031392       0x2e examples/light_switch/server/CMakeFiles/light_switch_server_nrf52840_xxAA_s140_6.0.0.dir/__/__/__/models/health/src/health_server.c.obj
 .text.handle_period_set
                0x000313c0       0x22 examples/light_switch/server/CMakeFiles/light_switch_server_nrf52840_xxAA_s140_6.0.0.dir/__/__/__/models/health/src/health_server.c.obj
 *fill*         0x000313e2        0x2 
 .text.bitfield_next_get.part.0.constprop.9
                0x000313e4       0x44 examples/light_switch/server/CMakeFiles/light_switch_server_nrf52840_xxAA_s140_6.0.0.dir/__/__/__/models/health/src/health_server.c.obj
 .text.bitfield_popcount.constprop.7
                0x00031428       0x28 examples/light_switch/server/CMakeFiles/light_switch_server_nrf52840_xxAA_s140_6.0.0.dir/__/__/__/models/health/src/health_server.c.obj
 .text.send_fault_status
                0x00031450       0xa8 examples/light_switch/server/CMakeFiles/light_switch_server_nrf52840_xxAA_s140_6.0.0.dir/__/__/__/models/health/src/health_server.c.obj
 .text.health_publish_timeout_handler
                0x000314f8        0xa examples/light_switch/server/CMakeFiles/light_switch_server_nrf52840_xxAA_s140_6.0.0.dir/__/__/__/models/health/src/health_server.c.obj
 .text.handle_fault_test
                0x00031502       0x68 examples/light_switch/server/CMakeFiles/light_switch_server_nrf52840_xxAA_s140_6.0.0.dir/__/__/__/models/health/src/health_server.c.obj
 .text.handle_fault_get
                0x0003156a       0x32 examples/light_switch/server/CMakeFiles/light_switch_server_nrf52840_xxAA_s140_6.0.0.dir/__/__/__/models/health/src/health_server.c.obj
 .text.handle_fault_clear
                0x0003159c       0x48 examples/light_switch/server/CMakeFiles/light_switch_server_nrf52840_xxAA_s140_6.0.0.dir/__/__/__/models/health/src/health_server.c.obj
 .text.health_server_init
                0x000315e4       0x6c examples/light_switch/server/CMakeFiles/light_switch_server_nrf52840_xxAA_s140_6.0.0.dir/__/__/__/models/health/src/health_server.c.obj
                0x000315e4                health_server_init
 .text.add_to_publication_list
                0x00031650       0x78 examples/light_switch/server/CMakeFiles/light_switch_server_nrf52840_xxAA_s140_6.0.0.dir/__/__/__/mesh/access/src/access_publish.c.obj
 .text.step_resolution_to_us
                0x000316c8       0x38 examples/light_switch/server/CMakeFiles/light_switch_server_nrf52840_xxAA_s140_6.0.0.dir/__/__/__/mesh/access/src/access_publish.c.obj
 .text.schedule_publication_timer
                0x00031700      0x184 examples/light_switch/server/CMakeFiles/light_switch_server_nrf52840_xxAA_s140_6.0.0.dir/__/__/__/mesh/access/src/access_publish.c.obj
 .text.publish_timer_tick
                0x00031884       0xa8 examples/light_switch/server/CMakeFiles/light_switch_server_nrf52840_xxAA_s140_6.0.0.dir/__/__/__/mesh/access/src/access_publish.c.obj
 .text.access_publish_init
                0x0003192c       0x38 examples/light_switch/server/CMakeFiles/light_switch_server_nrf52840_xxAA_s140_6.0.0.dir/__/__/__/mesh/access/src/access_publish.c.obj
                0x0003192c                access_publish_init
 .text.access_publish_period_set
                0x00031964       0x60 examples/light_switch/server/CMakeFiles/light_switch_server_nrf52840_xxAA_s140_6.0.0.dir/__/__/__/mesh/access/src/access_publish.c.obj
                0x00031964                access_publish_period_set
 .text.access_publish_period_get
                0x000319c4       0x22 examples/light_switch/server/CMakeFiles/light_switch_server_nrf52840_xxAA_s140_6.0.0.dir/__/__/__/mesh/access/src/access_publish.c.obj
                0x000319c4                access_publish_period_get
 .text.bitfield_get
                0x000319e6       0x1a examples/light_switch/server/CMakeFiles/light_switch_server_nrf52840_xxAA_s140_6.0.0.dir/__/__/__/mesh/access/src/access.c.obj
 .text.is_valid_opcode
                0x00031a00       0x42 examples/light_switch/server/CMakeFiles/light_switch_server_nrf52840_xxAA_s140_6.0.0.dir/__/__/__/mesh/access/src/access.c.obj
 *fill*         0x00031a42        0x2 
 .text.model_handle_valid_and_allocated
                0x00031a44       0x20 examples/light_switch/server/CMakeFiles/light_switch_server_nrf52840_xxAA_s140_6.0.0.dir/__/__/__/mesh/access/src/access.c.obj
 .text.flash_manager_mem_available
                0x00031a64        0x2 examples/light_switch/server/CMakeFiles/light_switch_server_nrf52840_xxAA_s140_6.0.0.dir/__/__/__/mesh/access/src/access.c.obj
 *fill*         0x00031a66        0x2 
 .text.restore_acquired_subscription
                0x00031a68       0x24 examples/light_switch/server/CMakeFiles/light_switch_server_nrf52840_xxAA_s140_6.0.0.dir/__/__/__/mesh/access/src/access.c.obj
 .text.restore_acquired_element
                0x00031a8c       0x1c examples/light_switch/server/CMakeFiles/light_switch_server_nrf52840_xxAA_s140_6.0.0.dir/__/__/__/mesh/access/src/access.c.obj
 .text.restore_flash_data
                0x00031aa8       0x50 examples/light_switch/server/CMakeFiles/light_switch_server_nrf52840_xxAA_s140_6.0.0.dir/__/__/__/mesh/access/src/access.c.obj
 .text.flash_invalidate_complete
                0x00031af8        0x6 examples/light_switch/server/CMakeFiles/light_switch_server_nrf52840_xxAA_s140_6.0.0.dir/__/__/__/mesh/access/src/access.c.obj
 *fill*         0x00031afe        0x2 
 .text.access_flash_config_clear
                0x00031b00       0x28 examples/light_switch/server/CMakeFiles/light_switch_server_nrf52840_xxAA_s140_6.0.0.dir/__/__/__/mesh/access/src/access.c.obj
 .text.access_flash_config_store
                0x00031b28      0x114 examples/light_switch/server/CMakeFiles/light_switch_server_nrf52840_xxAA_s140_6.0.0.dir/__/__/__/mesh/access/src/access.c.obj
                0x00031b28                access_flash_config_store
 .text.access_state_clear
                0x00031c3c       0x48 examples/light_switch/server/CMakeFiles/light_switch_server_nrf52840_xxAA_s140_6.0.0.dir/__/__/__/mesh/access/src/access.c.obj
 .text.add_flash_manager
                0x00031c84       0x58 examples/light_switch/server/CMakeFiles/light_switch_server_nrf52840_xxAA_s140_6.0.0.dir/__/__/__/mesh/access/src/access.c.obj
 .text.flash_remove_complete
                0x00031cdc       0x4c examples/light_switch/server/CMakeFiles/light_switch_server_nrf52840_xxAA_s140_6.0.0.dir/__/__/__/mesh/access/src/access.c.obj
 .text.flash_write_complete
                0x00031d28       0x46 examples/light_switch/server/CMakeFiles/light_switch_server_nrf52840_xxAA_s140_6.0.0.dir/__/__/__/mesh/access/src/access.c.obj
 *fill*         0x00031d6e        0x2 
 .text.unlikely.bitfield_next_get.part.0.constprop.5
                0x00031d70       0x34 examples/light_switch/server/CMakeFiles/light_switch_server_nrf52840_xxAA_s140_6.0.0.dir/__/__/__/mesh/access/src/access.c.obj
 .text.packet_tx
                0x00031da4      0x31c examples/light_switch/server/CMakeFiles/light_switch_server_nrf52840_xxAA_s140_6.0.0.dir/__/__/__/mesh/access/src/access.c.obj
 .text.restore_acquired_model
                0x000320c0       0x84 examples/light_switch/server/CMakeFiles/light_switch_server_nrf52840_xxAA_s140_6.0.0.dir/__/__/__/mesh/access/src/access.c.obj
 .text.access_flash_config_load
                0x00032144      0x118 examples/light_switch/server/CMakeFiles/light_switch_server_nrf52840_xxAA_s140_6.0.0.dir/__/__/__/mesh/access/src/access.c.obj
                0x00032144                access_flash_config_load
 .text.access_incoming_handle
                0x0003225c      0x100 examples/light_switch/server/CMakeFiles/light_switch_server_nrf52840_xxAA_s140_6.0.0.dir/__/__/__/mesh/access/src/access.c.obj
                0x0003225c                access_incoming_handle
 .text.mesh_evt_cb
                0x0003235c      0x134 examples/light_switch/server/CMakeFiles/light_switch_server_nrf52840_xxAA_s140_6.0.0.dir/__/__/__/mesh/access/src/access.c.obj
 .text.access_clear
                0x00032490       0x12 examples/light_switch/server/CMakeFiles/light_switch_server_nrf52840_xxAA_s140_6.0.0.dir/__/__/__/mesh/access/src/access.c.obj
                0x00032490                access_clear
 *fill*         0x000324a2        0x2 
 .text.access_init
                0x000324a4       0x2c examples/light_switch/server/CMakeFiles/light_switch_server_nrf52840_xxAA_s140_6.0.0.dir/__/__/__/mesh/access/src/access.c.obj
                0x000324a4                access_init
 .text.access_model_add
                0x000324d0      0x1b8 examples/light_switch/server/CMakeFiles/light_switch_server_nrf52840_xxAA_s140_6.0.0.dir/__/__/__/mesh/access/src/access.c.obj
                0x000324d0                access_model_add
 .text.access_model_publish
                0x00032688        0xc examples/light_switch/server/CMakeFiles/light_switch_server_nrf52840_xxAA_s140_6.0.0.dir/__/__/__/mesh/access/src/access.c.obj
                0x00032688                access_model_publish
 .text.access_model_reply
                0x00032694       0x12 examples/light_switch/server/CMakeFiles/light_switch_server_nrf52840_xxAA_s140_6.0.0.dir/__/__/__/mesh/access/src/access.c.obj
                0x00032694                access_model_reply
 *fill*         0x000326a6        0x2 
 .text.access_model_publish_address_set
                0x000326a8       0x3c examples/light_switch/server/CMakeFiles/light_switch_server_nrf52840_xxAA_s140_6.0.0.dir/__/__/__/mesh/access/src/access.c.obj
                0x000326a8                access_model_publish_address_set
 .text.access_model_publish_address_get
                0x000326e4       0x28 examples/light_switch/server/CMakeFiles/light_switch_server_nrf52840_xxAA_s140_6.0.0.dir/__/__/__/mesh/access/src/access.c.obj
                0x000326e4                access_model_publish_address_get
 .text.access_model_publish_retransmit_set
                0x0003270c       0x4c examples/light_switch/server/CMakeFiles/light_switch_server_nrf52840_xxAA_s140_6.0.0.dir/__/__/__/mesh/access/src/access.c.obj
                0x0003270c                access_model_publish_retransmit_set
 .text.access_model_publish_retransmit_get
                0x00032758       0x2c examples/light_switch/server/CMakeFiles/light_switch_server_nrf52840_xxAA_s140_6.0.0.dir/__/__/__/mesh/access/src/access.c.obj
                0x00032758                access_model_publish_retransmit_get
 .text.access_model_publish_period_set
                0x00032784       0x6c examples/light_switch/server/CMakeFiles/light_switch_server_nrf52840_xxAA_s140_6.0.0.dir/__/__/__/mesh/access/src/access.c.obj
                0x00032784                access_model_publish_period_set
 .text.access_model_publish_period_get
                0x000327f0       0x3c examples/light_switch/server/CMakeFiles/light_switch_server_nrf52840_xxAA_s140_6.0.0.dir/__/__/__/mesh/access/src/access.c.obj
                0x000327f0                access_model_publish_period_get
 .text.access_model_subscription_list_alloc
                0x0003282c       0x40 examples/light_switch/server/CMakeFiles/light_switch_server_nrf52840_xxAA_s140_6.0.0.dir/__/__/__/mesh/access/src/access.c.obj
                0x0003282c                access_model_subscription_list_alloc
 .text.access_model_subscription_add
                0x0003286c       0x60 examples/light_switch/server/CMakeFiles/light_switch_server_nrf52840_xxAA_s140_6.0.0.dir/__/__/__/mesh/access/src/access.c.obj
                0x0003286c                access_model_subscription_add
 .text.access_model_subscription_remove
                0x000328cc       0x60 examples/light_switch/server/CMakeFiles/light_switch_server_nrf52840_xxAA_s140_6.0.0.dir/__/__/__/mesh/access/src/access.c.obj
                0x000328cc                access_model_subscription_remove
 .text.access_model_subscriptions_get
                0x0003292c       0x78 examples/light_switch/server/CMakeFiles/light_switch_server_nrf52840_xxAA_s140_6.0.0.dir/__/__/__/mesh/access/src/access.c.obj
                0x0003292c                access_model_subscriptions_get
 .text.access_model_application_bind
                0x000329a4       0x50 examples/light_switch/server/CMakeFiles/light_switch_server_nrf52840_xxAA_s140_6.0.0.dir/__/__/__/mesh/access/src/access.c.obj
                0x000329a4                access_model_application_bind
 .text.access_model_application_unbind
                0x000329f4       0x50 examples/light_switch/server/CMakeFiles/light_switch_server_nrf52840_xxAA_s140_6.0.0.dir/__/__/__/mesh/access/src/access.c.obj
                0x000329f4                access_model_application_unbind
 .text.access_model_applications_get
                0x00032a44       0x58 examples/light_switch/server/CMakeFiles/light_switch_server_nrf52840_xxAA_s140_6.0.0.dir/__/__/__/mesh/access/src/access.c.obj
                0x00032a44                access_model_applications_get
 .text.access_model_publish_application_set
                0x00032a9c       0x3c examples/light_switch/server/CMakeFiles/light_switch_server_nrf52840_xxAA_s140_6.0.0.dir/__/__/__/mesh/access/src/access.c.obj
                0x00032a9c                access_model_publish_application_set
 .text.access_model_publish_application_get
                0x00032ad8       0x28 examples/light_switch/server/CMakeFiles/light_switch_server_nrf52840_xxAA_s140_6.0.0.dir/__/__/__/mesh/access/src/access.c.obj
                0x00032ad8                access_model_publish_application_get
 .text.access_default_ttl_set
                0x00032b00       0x18 examples/light_switch/server/CMakeFiles/light_switch_server_nrf52840_xxAA_s140_6.0.0.dir/__/__/__/mesh/access/src/access.c.obj
                0x00032b00                access_default_ttl_set
 .text.access_default_ttl_get
                0x00032b18        0xc examples/light_switch/server/CMakeFiles/light_switch_server_nrf52840_xxAA_s140_6.0.0.dir/__/__/__/mesh/access/src/access.c.obj
                0x00032b18                access_default_ttl_get
 .text.access_model_publish_ttl_set
                0x00032b24       0x40 examples/light_switch/server/CMakeFiles/light_switch_server_nrf52840_xxAA_s140_6.0.0.dir/__/__/__/mesh/access/src/access.c.obj
                0x00032b24                access_model_publish_ttl_set
 .text.access_model_publish_ttl_get
                0x00032b64       0x28 examples/light_switch/server/CMakeFiles/light_switch_server_nrf52840_xxAA_s140_6.0.0.dir/__/__/__/mesh/access/src/access.c.obj
                0x00032b64                access_model_publish_ttl_get
 .text.access_element_location_get
                0x00032b8c       0x18 examples/light_switch/server/CMakeFiles/light_switch_server_nrf52840_xxAA_s140_6.0.0.dir/__/__/__/mesh/access/src/access.c.obj
                0x00032b8c                access_element_location_get
 .text.access_element_sig_model_count_get
                0x00032ba4       0x18 examples/light_switch/server/CMakeFiles/light_switch_server_nrf52840_xxAA_s140_6.0.0.dir/__/__/__/mesh/access/src/access.c.obj
                0x00032ba4                access_element_sig_model_count_get
 .text.access_element_vendor_model_count_get
                0x00032bbc       0x18 examples/light_switch/server/CMakeFiles/light_switch_server_nrf52840_xxAA_s140_6.0.0.dir/__/__/__/mesh/access/src/access.c.obj
                0x00032bbc                access_element_vendor_model_count_get
 .text.access_model_id_get
                0x00032bd4       0x2c examples/light_switch/server/CMakeFiles/light_switch_server_nrf52840_xxAA_s140_6.0.0.dir/__/__/__/mesh/access/src/access.c.obj
                0x00032bd4                access_model_id_get
 .text.access_handle_get
                0x00032c00       0x4c examples/light_switch/server/CMakeFiles/light_switch_server_nrf52840_xxAA_s140_6.0.0.dir/__/__/__/mesh/access/src/access.c.obj
                0x00032c00                access_handle_get
 .text.access_element_models_get
                0x00032c4c       0x48 examples/light_switch/server/CMakeFiles/light_switch_server_nrf52840_xxAA_s140_6.0.0.dir/__/__/__/mesh/access/src/access.c.obj
                0x00032c4c                access_element_models_get
 .text.access_model_p_args_get
                0x00032c94       0x28 examples/light_switch/server/CMakeFiles/light_switch_server_nrf52840_xxAA_s140_6.0.0.dir/__/__/__/mesh/access/src/access.c.obj
                0x00032c94                access_model_p_args_get
 .text.access_model_publication_stop
                0x00032cbc       0x70 examples/light_switch/server/CMakeFiles/light_switch_server_nrf52840_xxAA_s140_6.0.0.dir/__/__/__/mesh/access/src/access.c.obj
                0x00032cbc                access_model_publication_stop
 .text.access_model_publication_by_appkey_stop
                0x00032d2c       0x36 examples/light_switch/server/CMakeFiles/light_switch_server_nrf52840_xxAA_s140_6.0.0.dir/__/__/__/mesh/access/src/access.c.obj
                0x00032d2c                access_model_publication_by_appkey_stop
 *fill*         0x00032d62        0x2 
 .text.reliable_timer_cb
                0x00032d64      0x11c examples/light_switch/server/CMakeFiles/light_switch_server_nrf52840_xxAA_s140_6.0.0.dir/__/__/__/mesh/access/src/access_reliable.c.obj
 .text.remove_and_reschedule
                0x00032e80       0xac examples/light_switch/server/CMakeFiles/light_switch_server_nrf52840_xxAA_s140_6.0.0.dir/__/__/__/mesh/access/src/access_reliable.c.obj
 .text.access_reliable_message_rx_cb
                0x00032f2c       0x68 examples/light_switch/server/CMakeFiles/light_switch_server_nrf52840_xxAA_s140_6.0.0.dir/__/__/__/mesh/access/src/access_reliable.c.obj
                0x00032f2c                access_reliable_message_rx_cb
 .text.access_reliable_init
                0x00032f94       0x1c examples/light_switch/server/CMakeFiles/light_switch_server_nrf52840_xxAA_s140_6.0.0.dir/__/__/__/mesh/access/src/access_reliable.c.obj
                0x00032f94                access_reliable_init
 .text.access_reliable_cancel_all
                0x00032fb0       0x60 examples/light_switch/server/CMakeFiles/light_switch_server_nrf52840_xxAA_s140_6.0.0.dir/__/__/__/mesh/access/src/access_reliable.c.obj
                0x00032fb0                access_reliable_cancel_all
 .text.access_model_reliable_cancel
                0x00033010       0x68 examples/light_switch/server/CMakeFiles/light_switch_server_nrf52840_xxAA_s140_6.0.0.dir/__/__/__/mesh/access/src/access_reliable.c.obj
                0x00033010                access_model_reliable_cancel
 .text.access_loopback_process
                0x00033078       0x28 examples/light_switch/server/CMakeFiles/light_switch_server_nrf52840_xxAA_s140_6.0.0.dir/__/__/__/mesh/access/src/access_loopback.c.obj
 .text.is_access_loopback
                0x000330a0        0x4 examples/light_switch/server/CMakeFiles/light_switch_server_nrf52840_xxAA_s140_6.0.0.dir/__/__/__/mesh/access/src/access_loopback.c.obj
                0x000330a0                is_access_loopback
 .text.access_loopback_init
                0x000330a4       0x18 examples/light_switch/server/CMakeFiles/light_switch_server_nrf52840_xxAA_s140_6.0.0.dir/__/__/__/mesh/access/src/access_loopback.c.obj
                0x000330a4                access_loopback_init
 .text.access_loopback_handle
                0x000330bc       0x80 examples/light_switch/server/CMakeFiles/light_switch_server_nrf52840_xxAA_s140_6.0.0.dir/__/__/__/mesh/access/src/access_loopback.c.obj
                0x000330bc                access_loopback_handle
 .text.bitfield_get
                0x0003313c       0x1a examples/light_switch/server/CMakeFiles/light_switch_server_nrf52840_xxAA_s140_6.0.0.dir/__/__/__/mesh/access/src/device_state_manager.c.obj
 .text.bitfield_set
                0x00033156       0x18 examples/light_switch/server/CMakeFiles/light_switch_server_nrf52840_xxAA_s140_6.0.0.dir/__/__/__/mesh/access/src/device_state_manager.c.obj
 .text.bitfield_clear
                0x0003316e       0x1a examples/light_switch/server/CMakeFiles/light_switch_server_nrf52840_xxAA_s140_6.0.0.dir/__/__/__/mesh/access/src/device_state_manager.c.obj
 .text.bitfield_is_all_clear
                0x00033188       0x3c examples/light_switch/server/CMakeFiles/light_switch_server_nrf52840_xxAA_s140_6.0.0.dir/__/__/__/mesh/access/src/device_state_manager.c.obj
 .text.address_handle_virtual_valid
                0x000331c4       0x14 examples/light_switch/server/CMakeFiles/light_switch_server_nrf52840_xxAA_s140_6.0.0.dir/__/__/__/mesh/access/src/device_state_manager.c.obj
 .text.net_key_handle_get
                0x000331d8       0x38 examples/light_switch/server/CMakeFiles/light_switch_server_nrf52840_xxAA_s140_6.0.0.dir/__/__/__/mesh/access/src/device_state_manager.c.obj
 .text.dev_key_handle_get
                0x00033210       0x30 examples/light_switch/server/CMakeFiles/light_switch_server_nrf52840_xxAA_s140_6.0.0.dir/__/__/__/mesh/access/src/device_state_manager.c.obj
 .text.app_key_handle_get
                0x00033240       0x38 examples/light_switch/server/CMakeFiles/light_switch_server_nrf52840_xxAA_s140_6.0.0.dir/__/__/__/mesh/access/src/device_state_manager.c.obj
 .text.addr_nonvirtual_to_flash_entry
                0x00033278       0x10 examples/light_switch/server/CMakeFiles/light_switch_server_nrf52840_xxAA_s140_6.0.0.dir/__/__/__/mesh/access/src/device_state_manager.c.obj
 .text.devkey_set
                0x00033288       0x4c examples/light_switch/server/CMakeFiles/light_switch_server_nrf52840_xxAA_s140_6.0.0.dir/__/__/__/mesh/access/src/device_state_manager.c.obj
 .text.devkey_to_dsm_entry
                0x000332d4       0x16 examples/light_switch/server/CMakeFiles/light_switch_server_nrf52840_xxAA_s140_6.0.0.dir/__/__/__/mesh/access/src/device_state_manager.c.obj
 *fill*         0x000332ea        0x2 
 .text.devkey_to_flash_entry
                0x000332ec       0x28 examples/light_switch/server/CMakeFiles/light_switch_server_nrf52840_xxAA_s140_6.0.0.dir/__/__/__/mesh/access/src/device_state_manager.c.obj
 .text.addr_virtual_to_flash_entry
                0x00033314       0x18 examples/light_switch/server/CMakeFiles/light_switch_server_nrf52840_xxAA_s140_6.0.0.dir/__/__/__/mesh/access/src/device_state_manager.c.obj
 .text.addr_unicast_to_dsm_entry
                0x0003332c        0xc examples/light_switch/server/CMakeFiles/light_switch_server_nrf52840_xxAA_s140_6.0.0.dir/__/__/__/mesh/access/src/device_state_manager.c.obj
 .text.addr_unicast_to_flash_entry
                0x00033338       0x10 examples/light_switch/server/CMakeFiles/light_switch_server_nrf52840_xxAA_s140_6.0.0.dir/__/__/__/mesh/access/src/device_state_manager.c.obj
 .text.flash_mem_listener_callback
                0x00033348       0x14 examples/light_switch/server/CMakeFiles/light_switch_server_nrf52840_xxAA_s140_6.0.0.dir/__/__/__/mesh/access/src/device_state_manager.c.obj
 .text.get_subnet_handle
                0x0003335c       0x34 examples/light_switch/server/CMakeFiles/light_switch_server_nrf52840_xxAA_s140_6.0.0.dir/__/__/__/mesh/access/src/device_state_manager.c.obj
 .text.appkey_set
                0x00033390       0x70 examples/light_switch/server/CMakeFiles/light_switch_server_nrf52840_xxAA_s140_6.0.0.dir/__/__/__/mesh/access/src/device_state_manager.c.obj
 .text.appkey_to_flash_entry
                0x00033400       0x54 examples/light_switch/server/CMakeFiles/light_switch_server_nrf52840_xxAA_s140_6.0.0.dir/__/__/__/mesh/access/src/device_state_manager.c.obj
 .text.subnet_to_flash_entry
                0x00033454       0x60 examples/light_switch/server/CMakeFiles/light_switch_server_nrf52840_xxAA_s140_6.0.0.dir/__/__/__/mesh/access/src/device_state_manager.c.obj
 .text.bitfield_clear_all
                0x000334b4        0xe examples/light_switch/server/CMakeFiles/light_switch_server_nrf52840_xxAA_s140_6.0.0.dir/__/__/__/mesh/access/src/device_state_manager.c.obj
 *fill*         0x000334c2        0x2 
 .text.subnet_set
                0x000334c4       0x98 examples/light_switch/server/CMakeFiles/light_switch_server_nrf52840_xxAA_s140_6.0.0.dir/__/__/__/mesh/access/src/device_state_manager.c.obj
 .text.virtual_address_set
                0x0003355c       0x48 examples/light_switch/server/CMakeFiles/light_switch_server_nrf52840_xxAA_s140_6.0.0.dir/__/__/__/mesh/access/src/device_state_manager.c.obj
 .text.addr_virtual_to_dsm_entry
                0x000335a4        0xc examples/light_switch/server/CMakeFiles/light_switch_server_nrf52840_xxAA_s140_6.0.0.dir/__/__/__/mesh/access/src/device_state_manager.c.obj
 .text.reset_flash_area
                0x000335b0       0x28 examples/light_switch/server/CMakeFiles/light_switch_server_nrf52840_xxAA_s140_6.0.0.dir/__/__/__/mesh/access/src/device_state_manager.c.obj
 .text.flash_save
                0x000335d8       0x7c examples/light_switch/server/CMakeFiles/light_switch_server_nrf52840_xxAA_s140_6.0.0.dir/__/__/__/mesh/access/src/device_state_manager.c.obj
 .text.flash_invalidate
                0x00033654       0x64 examples/light_switch/server/CMakeFiles/light_switch_server_nrf52840_xxAA_s140_6.0.0.dir/__/__/__/mesh/access/src/device_state_manager.c.obj
 .text.flash_update_all
                0x000336b8       0x6c examples/light_switch/server/CMakeFiles/light_switch_server_nrf52840_xxAA_s140_6.0.0.dir/__/__/__/mesh/access/src/device_state_manager.c.obj
 .text.virtual_address_uuid_index_get
                0x00033724       0x3c examples/light_switch/server/CMakeFiles/light_switch_server_nrf52840_xxAA_s140_6.0.0.dir/__/__/__/mesh/access/src/device_state_manager.c.obj
 .text.add_address_virtual
                0x00033760       0x70 examples/light_switch/server/CMakeFiles/light_switch_server_nrf52840_xxAA_s140_6.0.0.dir/__/__/__/mesh/access/src/device_state_manager.c.obj
 .text.get_subnet_handle_by_beacon_info
                0x000337d0       0x24 examples/light_switch/server/CMakeFiles/light_switch_server_nrf52840_xxAA_s140_6.0.0.dir/__/__/__/mesh/access/src/device_state_manager.c.obj
 .text.get_app_handle
                0x000337f4       0x34 examples/light_switch/server/CMakeFiles/light_switch_server_nrf52840_xxAA_s140_6.0.0.dir/__/__/__/mesh/access/src/device_state_manager.c.obj
 .text.appkey_to_dsm_entry
                0x00033828       0x68 examples/light_switch/server/CMakeFiles/light_switch_server_nrf52840_xxAA_s140_6.0.0.dir/__/__/__/mesh/access/src/device_state_manager.c.obj
 .text.subnet_to_dsm_entry
                0x00033890       0x68 examples/light_switch/server/CMakeFiles/light_switch_server_nrf52840_xxAA_s140_6.0.0.dir/__/__/__/mesh/access/src/device_state_manager.c.obj
 .text.flash_operation_complete
                0x000338f8       0x4c examples/light_switch/server/CMakeFiles/light_switch_server_nrf52840_xxAA_s140_6.0.0.dir/__/__/__/mesh/access/src/device_state_manager.c.obj
 .text.flash_invalidate_complete
                0x00033944        0x8 examples/light_switch/server/CMakeFiles/light_switch_server_nrf52840_xxAA_s140_6.0.0.dir/__/__/__/mesh/access/src/device_state_manager.c.obj
 .text.flash_write_complete
                0x0003394c        0x8 examples/light_switch/server/CMakeFiles/light_switch_server_nrf52840_xxAA_s140_6.0.0.dir/__/__/__/mesh/access/src/device_state_manager.c.obj
 .text.add_address.part.8
                0x00033954      0x144 examples/light_switch/server/CMakeFiles/light_switch_server_nrf52840_xxAA_s140_6.0.0.dir/__/__/__/mesh/access/src/device_state_manager.c.obj
 .text.bitfield_next_get.part.0.constprop.17
                0x00033a98       0x38 examples/light_switch/server/CMakeFiles/light_switch_server_nrf52840_xxAA_s140_6.0.0.dir/__/__/__/mesh/access/src/device_state_manager.c.obj
 .text.address_handle_valid
                0x00033ad0       0x28 examples/light_switch/server/CMakeFiles/light_switch_server_nrf52840_xxAA_s140_6.0.0.dir/__/__/__/mesh/access/src/device_state_manager.c.obj
 .text.address_handle_nonvirtual_valid
                0x00033af8       0x14 examples/light_switch/server/CMakeFiles/light_switch_server_nrf52840_xxAA_s140_6.0.0.dir/__/__/__/mesh/access/src/device_state_manager.c.obj
 .text.address_delete_if_unused
                0x00033b0c       0x78 examples/light_switch/server/CMakeFiles/light_switch_server_nrf52840_xxAA_s140_6.0.0.dir/__/__/__/mesh/access/src/device_state_manager.c.obj
 .text.addr_nonvirtual_to_dsm_entry
                0x00033b84       0x38 examples/light_switch/server/CMakeFiles/light_switch_server_nrf52840_xxAA_s140_6.0.0.dir/__/__/__/mesh/access/src/device_state_manager.c.obj
 .text.dsm_flash_config_load
                0x00033bbc      0x120 examples/light_switch/server/CMakeFiles/light_switch_server_nrf52840_xxAA_s140_6.0.0.dir/__/__/__/mesh/access/src/device_state_manager.c.obj
                0x00033bbc                dsm_flash_config_load
 .text.dsm_flash_area_get
                0x00033cdc        0xc examples/light_switch/server/CMakeFiles/light_switch_server_nrf52840_xxAA_s140_6.0.0.dir/__/__/__/mesh/access/src/device_state_manager.c.obj
                0x00033cdc                dsm_flash_area_get
 .text.build_flash_area
                0x00033ce8       0x8c examples/light_switch/server/CMakeFiles/light_switch_server_nrf52840_xxAA_s140_6.0.0.dir/__/__/__/mesh/access/src/device_state_manager.c.obj
 .text.flash_remove_complete
                0x00033d74        0x4 examples/light_switch/server/CMakeFiles/light_switch_server_nrf52840_xxAA_s140_6.0.0.dir/__/__/__/mesh/access/src/device_state_manager.c.obj
 .text.dsm_clear
                0x00033d78       0xa4 examples/light_switch/server/CMakeFiles/light_switch_server_nrf52840_xxAA_s140_6.0.0.dir/__/__/__/mesh/access/src/device_state_manager.c.obj
                0x00033d78                dsm_clear
 .text.dsm_init
                0x00033e1c       0x3c examples/light_switch/server/CMakeFiles/light_switch_server_nrf52840_xxAA_s140_6.0.0.dir/__/__/__/mesh/access/src/device_state_manager.c.obj
                0x00033e1c                dsm_init
 .text.dsm_local_unicast_addresses_set
                0x00033e58       0x78 examples/light_switch/server/CMakeFiles/light_switch_server_nrf52840_xxAA_s140_6.0.0.dir/__/__/__/mesh/access/src/device_state_manager.c.obj
                0x00033e58                dsm_local_unicast_addresses_set
 .text.dsm_local_unicast_addresses_get
                0x00033ed0       0x20 examples/light_switch/server/CMakeFiles/light_switch_server_nrf52840_xxAA_s140_6.0.0.dir/__/__/__/mesh/access/src/device_state_manager.c.obj
                0x00033ed0                dsm_local_unicast_addresses_get
 .text.dsm_address_publish_add
                0x00033ef0        0xc examples/light_switch/server/CMakeFiles/light_switch_server_nrf52840_xxAA_s140_6.0.0.dir/__/__/__/mesh/access/src/device_state_manager.c.obj
                0x00033ef0                dsm_address_publish_add
 .text.dsm_address_publish_add_handle
                0x00033efc       0x38 examples/light_switch/server/CMakeFiles/light_switch_server_nrf52840_xxAA_s140_6.0.0.dir/__/__/__/mesh/access/src/device_state_manager.c.obj
                0x00033efc                dsm_address_publish_add_handle
 .text.dsm_address_publish_virtual_add
                0x00033f34        0x6 examples/light_switch/server/CMakeFiles/light_switch_server_nrf52840_xxAA_s140_6.0.0.dir/__/__/__/mesh/access/src/device_state_manager.c.obj
                0x00033f34                dsm_address_publish_virtual_add
 *fill*         0x00033f3a        0x2 
 .text.dsm_address_publish_remove
                0x00033f3c       0x40 examples/light_switch/server/CMakeFiles/light_switch_server_nrf52840_xxAA_s140_6.0.0.dir/__/__/__/mesh/access/src/device_state_manager.c.obj
                0x00033f3c                dsm_address_publish_remove
 .text.dsm_address_subscription_add
                0x00033f7c        0xc examples/light_switch/server/CMakeFiles/light_switch_server_nrf52840_xxAA_s140_6.0.0.dir/__/__/__/mesh/access/src/device_state_manager.c.obj
                0x00033f7c                dsm_address_subscription_add
 .text.dsm_address_subscription_virtual_add
                0x00033f88        0x6 examples/light_switch/server/CMakeFiles/light_switch_server_nrf52840_xxAA_s140_6.0.0.dir/__/__/__/mesh/access/src/device_state_manager.c.obj
                0x00033f88                dsm_address_subscription_virtual_add
 *fill*         0x00033f8e        0x2 
 .text.dsm_address_subscription_add_handle
                0x00033f90       0x38 examples/light_switch/server/CMakeFiles/light_switch_server_nrf52840_xxAA_s140_6.0.0.dir/__/__/__/mesh/access/src/device_state_manager.c.obj
                0x00033f90                dsm_address_subscription_add_handle
 .text.dsm_address_get
                0x00033fc8       0x5c examples/light_switch/server/CMakeFiles/light_switch_server_nrf52840_xxAA_s140_6.0.0.dir/__/__/__/mesh/access/src/device_state_manager.c.obj
                0x00033fc8                dsm_address_get
 .text.dsm_address_subscription_remove
                0x00034024       0x58 examples/light_switch/server/CMakeFiles/light_switch_server_nrf52840_xxAA_s140_6.0.0.dir/__/__/__/mesh/access/src/device_state_manager.c.obj
                0x00034024                dsm_address_subscription_remove
 .text.dsm_address_handle_get
                0x0003407c       0x98 examples/light_switch/server/CMakeFiles/light_switch_server_nrf52840_xxAA_s140_6.0.0.dir/__/__/__/mesh/access/src/device_state_manager.c.obj
                0x0003407c                dsm_address_handle_get
 .text.dsm_net_key_index_to_subnet_handle
                0x00034114       0x1c examples/light_switch/server/CMakeFiles/light_switch_server_nrf52840_xxAA_s140_6.0.0.dir/__/__/__/mesh/access/src/device_state_manager.c.obj
                0x00034114                dsm_net_key_index_to_subnet_handle
 .text.dsm_subnet_handle_get
                0x00034130        0xc examples/light_switch/server/CMakeFiles/light_switch_server_nrf52840_xxAA_s140_6.0.0.dir/__/__/__/mesh/access/src/device_state_manager.c.obj
                0x00034130                dsm_subnet_handle_get
 .text.dsm_appkey_index_to_appkey_handle
                0x0003413c       0x1c examples/light_switch/server/CMakeFiles/light_switch_server_nrf52840_xxAA_s140_6.0.0.dir/__/__/__/mesh/access/src/device_state_manager.c.obj
                0x0003413c                dsm_appkey_index_to_appkey_handle
 .text.dsm_appkey_handle_get
                0x00034158        0xc examples/light_switch/server/CMakeFiles/light_switch_server_nrf52840_xxAA_s140_6.0.0.dir/__/__/__/mesh/access/src/device_state_manager.c.obj
                0x00034158                dsm_appkey_handle_get
 .text.dsm_appkey_handle_to_appkey_index
                0x00034164       0x30 examples/light_switch/server/CMakeFiles/light_switch_server_nrf52840_xxAA_s140_6.0.0.dir/__/__/__/mesh/access/src/device_state_manager.c.obj
                0x00034164                dsm_appkey_handle_to_appkey_index
 .text.dsm_appkey_handle_to_subnet_handle
                0x00034194       0x64 examples/light_switch/server/CMakeFiles/light_switch_server_nrf52840_xxAA_s140_6.0.0.dir/__/__/__/mesh/access/src/device_state_manager.c.obj
                0x00034194                dsm_appkey_handle_to_subnet_handle
 .text.dsm_subnet_add
                0x000341f8       0x78 examples/light_switch/server/CMakeFiles/light_switch_server_nrf52840_xxAA_s140_6.0.0.dir/__/__/__/mesh/access/src/device_state_manager.c.obj
                0x000341f8                dsm_subnet_add
 .text.dsm_subnet_kr_phase_get
                0x00034270       0x2c examples/light_switch/server/CMakeFiles/light_switch_server_nrf52840_xxAA_s140_6.0.0.dir/__/__/__/mesh/access/src/device_state_manager.c.obj
                0x00034270                dsm_subnet_kr_phase_get
 .text.dsm_subnet_update
                0x0003429c       0xa4 examples/light_switch/server/CMakeFiles/light_switch_server_nrf52840_xxAA_s140_6.0.0.dir/__/__/__/mesh/access/src/device_state_manager.c.obj
                0x0003429c                dsm_subnet_update
 .text.dsm_subnet_update_swap_keys
                0x00034340       0x50 examples/light_switch/server/CMakeFiles/light_switch_server_nrf52840_xxAA_s140_6.0.0.dir/__/__/__/mesh/access/src/device_state_manager.c.obj
                0x00034340                dsm_subnet_update_swap_keys
 .text.dsm_subnet_update_commit
                0x00034390       0xbc examples/light_switch/server/CMakeFiles/light_switch_server_nrf52840_xxAA_s140_6.0.0.dir/__/__/__/mesh/access/src/device_state_manager.c.obj
                0x00034390                dsm_subnet_update_commit
 .text.mesh_evt_handler
                0x0003444c       0x4c examples/light_switch/server/CMakeFiles/light_switch_server_nrf52840_xxAA_s140_6.0.0.dir/__/__/__/mesh/access/src/device_state_manager.c.obj
 .text.dsm_subnet_get_all
                0x00034498       0x3c examples/light_switch/server/CMakeFiles/light_switch_server_nrf52840_xxAA_s140_6.0.0.dir/__/__/__/mesh/access/src/device_state_manager.c.obj
                0x00034498                dsm_subnet_get_all
 .text.dsm_devkey_add
                0x000344d4       0x78 examples/light_switch/server/CMakeFiles/light_switch_server_nrf52840_xxAA_s140_6.0.0.dir/__/__/__/mesh/access/src/device_state_manager.c.obj
                0x000344d4                dsm_devkey_add
 .text.dsm_appkey_add
                0x0003454c       0x7c examples/light_switch/server/CMakeFiles/light_switch_server_nrf52840_xxAA_s140_6.0.0.dir/__/__/__/mesh/access/src/device_state_manager.c.obj
                0x0003454c                dsm_appkey_add
 .text.dsm_appkey_update
                0x000345c8       0x90 examples/light_switch/server/CMakeFiles/light_switch_server_nrf52840_xxAA_s140_6.0.0.dir/__/__/__/mesh/access/src/device_state_manager.c.obj
                0x000345c8                dsm_appkey_update
 .text.dsm_appkey_delete
                0x00034658       0x2c examples/light_switch/server/CMakeFiles/light_switch_server_nrf52840_xxAA_s140_6.0.0.dir/__/__/__/mesh/access/src/device_state_manager.c.obj
                0x00034658                dsm_appkey_delete
 .text.dsm_subnet_delete
                0x00034684       0x84 examples/light_switch/server/CMakeFiles/light_switch_server_nrf52840_xxAA_s140_6.0.0.dir/__/__/__/mesh/access/src/device_state_manager.c.obj
                0x00034684                dsm_subnet_delete
 .text.dsm_appkey_get_all
                0x00034708       0x58 examples/light_switch/server/CMakeFiles/light_switch_server_nrf52840_xxAA_s140_6.0.0.dir/__/__/__/mesh/access/src/device_state_manager.c.obj
                0x00034708                dsm_appkey_get_all
 .text.dsm_tx_secmat_get
                0x00034760       0xa4 examples/light_switch/server/CMakeFiles/light_switch_server_nrf52840_xxAA_s140_6.0.0.dir/__/__/__/mesh/access/src/device_state_manager.c.obj
                0x00034760                dsm_tx_secmat_get
 .text.dsm_net_secmat_from_keyindex_get
                0x00034804       0x30 examples/light_switch/server/CMakeFiles/light_switch_server_nrf52840_xxAA_s140_6.0.0.dir/__/__/__/mesh/access/src/device_state_manager.c.obj
                0x00034804                dsm_net_secmat_from_keyindex_get
 .text.nrf_mesh_net_secmat_next_get
                0x00034834       0x90 examples/light_switch/server/CMakeFiles/light_switch_server_nrf52840_xxAA_s140_6.0.0.dir/__/__/__/mesh/access/src/device_state_manager.c.obj
                0x00034834                nrf_mesh_net_secmat_next_get
 .text.nrf_mesh_app_secmat_next_get
                0x000348c4       0x70 examples/light_switch/server/CMakeFiles/light_switch_server_nrf52840_xxAA_s140_6.0.0.dir/__/__/__/mesh/access/src/device_state_manager.c.obj
                0x000348c4                nrf_mesh_app_secmat_next_get
 .text.nrf_mesh_devkey_secmat_get
                0x00034934       0x28 examples/light_switch/server/CMakeFiles/light_switch_server_nrf52840_xxAA_s140_6.0.0.dir/__/__/__/mesh/access/src/device_state_manager.c.obj
                0x00034934                nrf_mesh_devkey_secmat_get
 .text.nrf_mesh_beacon_info_next_get
                0x0003495c       0xb4 examples/light_switch/server/CMakeFiles/light_switch_server_nrf52840_xxAA_s140_6.0.0.dir/__/__/__/mesh/access/src/device_state_manager.c.obj
                0x0003495c                nrf_mesh_beacon_info_next_get
 .text.nrf_mesh_rx_address_get
                0x00034a10      0x130 examples/light_switch/server/CMakeFiles/light_switch_server_nrf52840_xxAA_s140_6.0.0.dir/__/__/__/mesh/access/src/device_state_manager.c.obj
                0x00034a10                nrf_mesh_rx_address_get
 .text.dsm_address_is_rx
                0x00034b40       0x48 examples/light_switch/server/CMakeFiles/light_switch_server_nrf52840_xxAA_s140_6.0.0.dir/__/__/__/mesh/access/src/device_state_manager.c.obj
                0x00034b40                dsm_address_is_rx
 .text.nrf_mesh_unicast_address_get
                0x00034b88       0x20 examples/light_switch/server/CMakeFiles/light_switch_server_nrf52840_xxAA_s140_6.0.0.dir/__/__/__/mesh/access/src/device_state_manager.c.obj
                0x00034b88                nrf_mesh_unicast_address_get
 .text.complete_provisioning
                0x00034ba8       0x24 examples/light_switch/server/CMakeFiles/light_switch_server_nrf52840_xxAA_s140_6.0.0.dir/__/__/__/mesh/prov/src/prov_provisionee.c.obj
 .text.prov_provisionee_cb_link_established
                0x00034bcc       0x36 examples/light_switch/server/CMakeFiles/light_switch_server_nrf52840_xxAA_s140_6.0.0.dir/__/__/__/mesh/prov/src/prov_provisionee.c.obj
 .text.prov_provisionee_cb_link_closed
                0x00034c02       0x34 examples/light_switch/server/CMakeFiles/light_switch_server_nrf52840_xxAA_s140_6.0.0.dir/__/__/__/mesh/prov/src/prov_provisionee.c.obj
 .text.request_authentication
                0x00034c36       0x8a examples/light_switch/server/CMakeFiles/light_switch_server_nrf52840_xxAA_s140_6.0.0.dir/__/__/__/mesh/prov/src/prov_provisionee.c.obj
 .text.send_failed
                0x00034cc0       0x3a examples/light_switch/server/CMakeFiles/light_switch_server_nrf52840_xxAA_s140_6.0.0.dir/__/__/__/mesh/prov/src/prov_provisionee.c.obj
 .text.start_authentication
                0x00034cfa       0x52 examples/light_switch/server/CMakeFiles/light_switch_server_nrf52840_xxAA_s140_6.0.0.dir/__/__/__/mesh/prov/src/prov_provisionee.c.obj
 .text.prov_provisionee_cb_ack_received
                0x00034d4c       0xc8 examples/light_switch/server/CMakeFiles/light_switch_server_nrf52840_xxAA_s140_6.0.0.dir/__/__/__/mesh/prov/src/prov_provisionee.c.obj
 .text.prov_provisionee_pkt_in
                0x00034e14      0x2f0 examples/light_switch/server/CMakeFiles/light_switch_server_nrf52840_xxAA_s140_6.0.0.dir/__/__/__/mesh/prov/src/prov_provisionee.c.obj
 .text.prov_provisionee_listen
                0x00035104       0x30 examples/light_switch/server/CMakeFiles/light_switch_server_nrf52840_xxAA_s140_6.0.0.dir/__/__/__/mesh/prov/src/prov_provisionee.c.obj
                0x00035104                prov_provisionee_listen
 .text.prov_provisionee_auth_data
                0x00035134       0x98 examples/light_switch/server/CMakeFiles/light_switch_server_nrf52840_xxAA_s140_6.0.0.dir/__/__/__/mesh/prov/src/prov_provisionee.c.obj
                0x00035134                prov_provisionee_auth_data
 .text.bearer_compare_callback
                0x000351cc        0xc examples/light_switch/server/CMakeFiles/light_switch_server_nrf52840_xxAA_s140_6.0.0.dir/__/__/__/mesh/prov/src/nrf_mesh_prov.c.obj
 .text.bitfield_next_get.part.0.constprop.4
                0x000351d8       0x34 examples/light_switch/server/CMakeFiles/light_switch_server_nrf52840_xxAA_s140_6.0.0.dir/__/__/__/mesh/prov/src/nrf_mesh_prov.c.obj
 .text.nrf_mesh_prov_init
                0x0003520c       0x32 examples/light_switch/server/CMakeFiles/light_switch_server_nrf52840_xxAA_s140_6.0.0.dir/__/__/__/mesh/prov/src/nrf_mesh_prov.c.obj
                0x0003520c                nrf_mesh_prov_init
 *fill*         0x0003523e        0x2 
 .text.nrf_mesh_prov_bearer_add
                0x00035240       0x28 examples/light_switch/server/CMakeFiles/light_switch_server_nrf52840_xxAA_s140_6.0.0.dir/__/__/__/mesh/prov/src/nrf_mesh_prov.c.obj
                0x00035240                nrf_mesh_prov_bearer_add
 .text.nrf_mesh_prov_generate_keys
                0x00035268        0x4 examples/light_switch/server/CMakeFiles/light_switch_server_nrf52840_xxAA_s140_6.0.0.dir/__/__/__/mesh/prov/src/nrf_mesh_prov.c.obj
                0x00035268                nrf_mesh_prov_generate_keys
 .text.nrf_mesh_prov_listen_stop
                0x0003526c       0x2e examples/light_switch/server/CMakeFiles/light_switch_server_nrf52840_xxAA_s140_6.0.0.dir/__/__/__/mesh/prov/src/nrf_mesh_prov.c.obj
                0x0003526c                nrf_mesh_prov_listen_stop
 .text.nrf_mesh_prov_listen
                0x0003529a       0x88 examples/light_switch/server/CMakeFiles/light_switch_server_nrf52840_xxAA_s140_6.0.0.dir/__/__/__/mesh/prov/src/nrf_mesh_prov.c.obj
                0x0003529a                nrf_mesh_prov_listen
 .text.nrf_mesh_prov_auth_data_provide
                0x00035322        0xe examples/light_switch/server/CMakeFiles/light_switch_server_nrf52840_xxAA_s140_6.0.0.dir/__/__/__/mesh/prov/src/nrf_mesh_prov.c.obj
                0x00035322                nrf_mesh_prov_auth_data_provide
 .text.send_data
                0x00035330       0x28 examples/light_switch/server/CMakeFiles/light_switch_server_nrf52840_xxAA_s140_6.0.0.dir/__/__/__/mesh/prov/src/provisioning.c.obj
 .text.prov_packet_length_valid
                0x00035358       0x1c examples/light_switch/server/CMakeFiles/light_switch_server_nrf52840_xxAA_s140_6.0.0.dir/__/__/__/mesh/prov/src/provisioning.c.obj
                0x00035358                prov_packet_length_valid
 .text.prov_tx_capabilities
                0x00035374       0x1e examples/light_switch/server/CMakeFiles/light_switch_server_nrf52840_xxAA_s140_6.0.0.dir/__/__/__/mesh/prov/src/provisioning.c.obj
                0x00035374                prov_tx_capabilities
 .text.prov_tx_public_key
                0x00035392       0x26 examples/light_switch/server/CMakeFiles/light_switch_server_nrf52840_xxAA_s140_6.0.0.dir/__/__/__/mesh/prov/src/provisioning.c.obj
                0x00035392                prov_tx_public_key
 .text.prov_tx_input_complete
                0x000353b8       0x16 examples/light_switch/server/CMakeFiles/light_switch_server_nrf52840_xxAA_s140_6.0.0.dir/__/__/__/mesh/prov/src/provisioning.c.obj
                0x000353b8                prov_tx_input_complete
 .text.prov_tx_confirmation
                0x000353ce       0x26 examples/light_switch/server/CMakeFiles/light_switch_server_nrf52840_xxAA_s140_6.0.0.dir/__/__/__/mesh/prov/src/provisioning.c.obj
                0x000353ce                prov_tx_confirmation
 .text.prov_tx_random
                0x000353f4       0x26 examples/light_switch/server/CMakeFiles/light_switch_server_nrf52840_xxAA_s140_6.0.0.dir/__/__/__/mesh/prov/src/provisioning.c.obj
                0x000353f4                prov_tx_random
 .text.prov_tx_complete
                0x0003541a       0x16 examples/light_switch/server/CMakeFiles/light_switch_server_nrf52840_xxAA_s140_6.0.0.dir/__/__/__/mesh/prov/src/provisioning.c.obj
                0x0003541a                prov_tx_complete
 .text.prov_tx_failed
                0x00035430       0x1a examples/light_switch/server/CMakeFiles/light_switch_server_nrf52840_xxAA_s140_6.0.0.dir/__/__/__/mesh/prov/src/provisioning.c.obj
                0x00035430                prov_tx_failed
 .text.prov_beacon_unprov_build
                0x0003544a       0x54 examples/light_switch/server/CMakeFiles/light_switch_server_nrf52840_xxAA_s140_6.0.0.dir/__/__/__/mesh/prov/src/prov_beacon.c.obj
                0x0003544a                prov_beacon_unprov_build
 *fill*         0x0003549e        0x2 
 .text.prov_beacon_unprov_packet_in
                0x000354a0       0x88 examples/light_switch/server/CMakeFiles/light_switch_server_nrf52840_xxAA_s140_6.0.0.dir/__/__/__/mesh/prov/src/prov_beacon.c.obj
                0x000354a0                prov_beacon_unprov_packet_in
 .text.oob_gen_alphanumeric
                0x00035528       0x34 examples/light_switch/server/CMakeFiles/light_switch_server_nrf52840_xxAA_s140_6.0.0.dir/__/__/__/mesh/prov/src/prov_utils.c.obj
 .text.oob_gen_numeric
                0x0003555c       0x3c examples/light_switch/server/CMakeFiles/light_switch_server_nrf52840_xxAA_s140_6.0.0.dir/__/__/__/mesh/prov/src/prov_utils.c.obj
 .text.prov_utils_opt_set
                0x00035598       0x20 examples/light_switch/server/CMakeFiles/light_switch_server_nrf52840_xxAA_s140_6.0.0.dir/__/__/__/mesh/prov/src/prov_utils.c.obj
                0x00035598                prov_utils_opt_set
 .text.prov_utils_opt_get
                0x000355b8       0x1c examples/light_switch/server/CMakeFiles/light_switch_server_nrf52840_xxAA_s140_6.0.0.dir/__/__/__/mesh/prov/src/prov_utils.c.obj
                0x000355b8                prov_utils_opt_get
 .text.prov_utils_use_ecdh_offloading
                0x000355d4        0xc examples/light_switch/server/CMakeFiles/light_switch_server_nrf52840_xxAA_s140_6.0.0.dir/__/__/__/mesh/prov/src/prov_utils.c.obj
                0x000355d4                prov_utils_use_ecdh_offloading
 .text.prov_utils_authentication_values_derive
                0x000355e0       0xa0 examples/light_switch/server/CMakeFiles/light_switch_server_nrf52840_xxAA_s140_6.0.0.dir/__/__/__/mesh/prov/src/prov_utils.c.obj
                0x000355e0                prov_utils_authentication_values_derive
 .text.prov_utils_keys_generate
                0x00035680       0x1e examples/light_switch/server/CMakeFiles/light_switch_server_nrf52840_xxAA_s140_6.0.0.dir/__/__/__/mesh/prov/src/prov_utils.c.obj
                0x00035680                prov_utils_keys_generate
 *fill*         0x0003569e        0x2 
 .text.prov_utils_derive_keys
                0x000356a0       0xac examples/light_switch/server/CMakeFiles/light_switch_server_nrf52840_xxAA_s140_6.0.0.dir/__/__/__/mesh/prov/src/prov_utils.c.obj
                0x000356a0                prov_utils_derive_keys
 .text.prov_utils_calculate_shared_secret
                0x0003574c       0x36 examples/light_switch/server/CMakeFiles/light_switch_server_nrf52840_xxAA_s140_6.0.0.dir/__/__/__/mesh/prov/src/prov_utils.c.obj
                0x0003574c                prov_utils_calculate_shared_secret
 .text.prov_utils_generate_oob_data
                0x00035782       0x8a examples/light_switch/server/CMakeFiles/light_switch_server_nrf52840_xxAA_s140_6.0.0.dir/__/__/__/mesh/prov/src/prov_utils.c.obj
                0x00035782                prov_utils_generate_oob_data
 .text.prov_utils_confirmation_check
                0x0003580c       0x5c examples/light_switch/server/CMakeFiles/light_switch_server_nrf52840_xxAA_s140_6.0.0.dir/__/__/__/mesh/prov/src/prov_utils.c.obj
                0x0003580c                prov_utils_confirmation_check
 .text.link_timeout_cb
                0x00035868       0x10 examples/light_switch/server/CMakeFiles/light_switch_server_nrf52840_xxAA_s140_6.0.0.dir/__/__/__/mesh/prov/src/prov_bearer_adv.c.obj
 .text.remove_active_bearer
                0x00035878       0x4c examples/light_switch/server/CMakeFiles/light_switch_server_nrf52840_xxAA_s140_6.0.0.dir/__/__/__/mesh/prov/src/prov_bearer_adv.c.obj
 .text.close_link
                0x000358c4       0x58 examples/light_switch/server/CMakeFiles/light_switch_server_nrf52840_xxAA_s140_6.0.0.dir/__/__/__/mesh/prov/src/prov_bearer_adv.c.obj
 .text.prov_bearer_adv_listen_stop
                0x0003591c       0x30 examples/light_switch/server/CMakeFiles/light_switch_server_nrf52840_xxAA_s140_6.0.0.dir/__/__/__/mesh/prov/src/prov_bearer_adv.c.obj
 .text.send_packet
                0x0003594c       0x5e examples/light_switch/server/CMakeFiles/light_switch_server_nrf52840_xxAA_s140_6.0.0.dir/__/__/__/mesh/prov/src/prov_bearer_adv.c.obj
 .text.prov_buffer_tx
                0x000359aa      0x134 examples/light_switch/server/CMakeFiles/light_switch_server_nrf52840_xxAA_s140_6.0.0.dir/__/__/__/mesh/prov/src/prov_bearer_adv.c.obj
 .text.send_link_close
                0x00035ade       0x38 examples/light_switch/server/CMakeFiles/light_switch_server_nrf52840_xxAA_s140_6.0.0.dir/__/__/__/mesh/prov/src/prov_bearer_adv.c.obj
 .text.prov_bearer_adv_link_close
                0x00035b16       0x56 examples/light_switch/server/CMakeFiles/light_switch_server_nrf52840_xxAA_s140_6.0.0.dir/__/__/__/mesh/prov/src/prov_bearer_adv.c.obj
 .text.send_transaction_ack
                0x00035b6c       0x24 examples/light_switch/server/CMakeFiles/light_switch_server_nrf52840_xxAA_s140_6.0.0.dir/__/__/__/mesh/prov/src/prov_bearer_adv.c.obj
 .text.send_link_ack
                0x00035b90       0x32 examples/light_switch/server/CMakeFiles/light_switch_server_nrf52840_xxAA_s140_6.0.0.dir/__/__/__/mesh/prov/src/prov_bearer_adv.c.obj
 .text.reset_timeout_timer
                0x00035bc2       0x1a examples/light_switch/server/CMakeFiles/light_switch_server_nrf52840_xxAA_s140_6.0.0.dir/__/__/__/mesh/prov/src/prov_bearer_adv.c.obj
 .text.tx_complete_cb
                0x00035bdc       0x1c examples/light_switch/server/CMakeFiles/light_switch_server_nrf52840_xxAA_s140_6.0.0.dir/__/__/__/mesh/prov/src/prov_bearer_adv.c.obj
 .text.tx_retry_cb
                0x00035bf8       0xcc examples/light_switch/server/CMakeFiles/light_switch_server_nrf52840_xxAA_s140_6.0.0.dir/__/__/__/mesh/prov/src/prov_bearer_adv.c.obj
 .text.add_active_bearer
                0x00035cc4       0x80 examples/light_switch/server/CMakeFiles/light_switch_server_nrf52840_xxAA_s140_6.0.0.dir/__/__/__/mesh/prov/src/prov_bearer_adv.c.obj
 .text.prov_bearer_adv_link_open
                0x00035d44       0xec examples/light_switch/server/CMakeFiles/light_switch_server_nrf52840_xxAA_s140_6.0.0.dir/__/__/__/mesh/prov/src/prov_bearer_adv.c.obj
 .text.async_process
                0x00035e30       0x50 examples/light_switch/server/CMakeFiles/light_switch_server_nrf52840_xxAA_s140_6.0.0.dir/__/__/__/mesh/prov/src/prov_bearer_adv.c.obj
 .text.prov_bearer_adv_listen
                0x00035e80       0xd8 examples/light_switch/server/CMakeFiles/light_switch_server_nrf52840_xxAA_s140_6.0.0.dir/__/__/__/mesh/prov/src/prov_bearer_adv.c.obj
 .text.calculate_3GPP_CRC
                0x00035f58       0x24 examples/light_switch/server/CMakeFiles/light_switch_server_nrf52840_xxAA_s140_6.0.0.dir/__/__/__/mesh/prov/src/prov_bearer_adv.c.obj
                0x00035f58                calculate_3GPP_CRC
 .text.prov_bearer_adv_tx
                0x00035f7c       0xb4 examples/light_switch/server/CMakeFiles/light_switch_server_nrf52840_xxAA_s140_6.0.0.dir/__/__/__/mesh/prov/src/prov_bearer_adv.c.obj
 .text.prov_buffer_rx
                0x00036030       0x6e examples/light_switch/server/CMakeFiles/light_switch_server_nrf52840_xxAA_s140_6.0.0.dir/__/__/__/mesh/prov/src/prov_bearer_adv.c.obj
 *fill*         0x0003609e        0x2 
 .text.nrf_mesh_prov_bearer_adv_interface_get
                0x000360a0       0x3c examples/light_switch/server/CMakeFiles/light_switch_server_nrf52840_xxAA_s140_6.0.0.dir/__/__/__/mesh/prov/src/prov_bearer_adv.c.obj
                0x000360a0                nrf_mesh_prov_bearer_adv_interface_get
 .text.prov_bearer_adv_packet_in
                0x000360dc      0x7f8 examples/light_switch/server/CMakeFiles/light_switch_server_nrf52840_xxAA_s140_6.0.0.dir/__/__/__/mesh/prov/src/prov_bearer_adv.c.obj
                0x000360dc                prov_bearer_adv_packet_in
 .text.errata_120
                0x000368d4       0x20 examples/light_switch/server/CMakeFiles/light_switch_server_nrf52840_xxAA_s140_6.0.0.dir/C_/b/nRF5_SDK_15.0.0_a53641a/modules/nrfx/mdk/system_nrf52840.c.obj
 .text.SystemInit
                0x000368f4      0x1b8 examples/light_switch/server/CMakeFiles/light_switch_server_nrf52840_xxAA_s140_6.0.0.dir/C_/b/nRF5_SDK_15.0.0_a53641a/modules/nrfx/mdk/system_nrf52840.c.obj
                0x000368f4                SystemInit
 .text          0x00036aac       0x3c examples/light_switch/server/CMakeFiles/light_switch_server_nrf52840_xxAA_s140_6.0.0.dir/C_/b/nRF5_SDK_15.0.0_a53641a/modules/nrfx/mdk/gcc_startup_nrf52840.S.obj
                0x00036aac                Reset_Handler
                0x00036ad4                NMI_Handler
                0x00036ad6                HardFault_Handler
                0x00036ad8                MemoryManagement_Handler
                0x00036ada                BusFault_Handler
                0x00036adc                UsageFault_Handler
                0x00036ade                SVC_Handler
                0x00036ae0                DebugMon_Handler
                0x00036ae2                PendSV_Handler
                0x00036ae4                SysTick_Handler
                0x00036ae6                TEMP_IRQHandler
                0x00036ae6                TIMER3_IRQHandler
                0x00036ae6                PWM3_IRQHandler
                0x00036ae6                FPU_IRQHandler
                0x00036ae6                USBD_IRQHandler
                0x00036ae6                SPIM0_SPIS0_TWIM0_TWIS0_SPI0_TWI0_IRQHandler
                0x00036ae6                PDM_IRQHandler
                0x00036ae6                UARTE0_UART0_IRQHandler
                0x00036ae6                TIMER4_IRQHandler
                0x00036ae6                CRYPTOCELL_IRQHandler
                0x00036ae6                I2S_IRQHandler
                0x00036ae6                SWI4_EGU4_IRQHandler
                0x00036ae6                TIMER0_IRQHandler
                0x00036ae6                RTC0_IRQHandler
                0x00036ae6                POWER_CLOCK_IRQHandler
                0x00036ae6                TIMER1_IRQHandler
                0x00036ae6                SPIM3_IRQHandler
                0x00036ae6                PWM2_IRQHandler
                0x00036ae6                ECB_IRQHandler
                0x00036ae6                SPIM1_SPIS1_TWIM1_TWIS1_SPI1_TWI1_IRQHandler
                0x00036ae6                Default_Handler
                0x00036ae6                SAADC_IRQHandler
                0x00036ae6                CCM_AAR_IRQHandler
                0x00036ae6                WDT_IRQHandler
                0x00036ae6                RADIO_IRQHandler
                0x00036ae6                SWI5_EGU5_IRQHandler
                0x00036ae6                RNG_IRQHandler
                0x00036ae6                RTC2_IRQHandler
                0x00036ae6                PWM0_IRQHandler
                0x00036ae6                SWI3_EGU3_IRQHandler
                0x00036ae6                SWI1_EGU1_IRQHandler
                0x00036ae6                SPIM2_SPIS2_SPI2_IRQHandler
                0x00036ae6                NFCT_IRQHandler
                0x00036ae6                UARTE1_IRQHandler
                0x00036ae6                MWU_IRQHandler
                0x00036ae6                PWM1_IRQHandler
                0x00036ae6                QSPI_IRQHandler
                0x00036ae6                COMP_LPCOMP_IRQHandler
 .text.app_error_handler_bare
                0x00036ae8       0x1a examples/light_switch/server/CMakeFiles/light_switch_server_nrf52840_xxAA_s140_6.0.0.dir/C_/b/nRF5_SDK_15.0.0_a53641a/components/libraries/util/app_error.c.obj
                0x00036ae8                app_error_handler_bare
 *fill*         0x00036b02        0x2 
 .text.app_util_critical_region_enter
                0x00036b04       0x48 examples/light_switch/server/CMakeFiles/light_switch_server_nrf52840_xxAA_s140_6.0.0.dir/C_/b/nRF5_SDK_15.0.0_a53641a/components/libraries/util/app_util_platform.c.obj
                0x00036b04                app_util_critical_region_enter
 .text.app_util_critical_region_exit
                0x00036b4c       0x2c examples/light_switch/server/CMakeFiles/light_switch_server_nrf52840_xxAA_s140_6.0.0.dir/C_/b/nRF5_SDK_15.0.0_a53641a/components/libraries/util/app_util_platform.c.obj
                0x00036b4c                app_util_critical_region_exit
 .text.user_op_alloc
                0x00036b78       0x2c examples/light_switch/server/CMakeFiles/light_switch_server_nrf52840_xxAA_s140_6.0.0.dir/C_/b/nRF5_SDK_15.0.0_a53641a/components/libraries/timer/app_timer.c.obj
 .text.timer_stop_op_schedule
                0x00036ba4       0x50 examples/light_switch/server/CMakeFiles/light_switch_server_nrf52840_xxAA_s140_6.0.0.dir/C_/b/nRF5_SDK_15.0.0_a53641a/components/libraries/timer/app_timer.c.obj
 .text.nrfx_coredep_delay_us.part.0.constprop.4
                0x00036bf4       0x10 examples/light_switch/server/CMakeFiles/light_switch_server_nrf52840_xxAA_s140_6.0.0.dir/C_/b/nRF5_SDK_15.0.0_a53641a/components/libraries/timer/app_timer.c.obj
 .text.rtc1_stop
                0x00036c04       0x44 examples/light_switch/server/CMakeFiles/light_switch_server_nrf52840_xxAA_s140_6.0.0.dir/C_/b/nRF5_SDK_15.0.0_a53641a/components/libraries/timer/app_timer.c.obj
 .text.RTC1_IRQHandler
                0x00036c48       0x9c examples/light_switch/server/CMakeFiles/light_switch_server_nrf52840_xxAA_s140_6.0.0.dir/C_/b/nRF5_SDK_15.0.0_a53641a/components/libraries/timer/app_timer.c.obj
                0x00036c48                RTC1_IRQHandler
 .text.SWI0_EGU0_IRQHandler
                0x00036ce4      0x2a4 examples/light_switch/server/CMakeFiles/light_switch_server_nrf52840_xxAA_s140_6.0.0.dir/C_/b/nRF5_SDK_15.0.0_a53641a/components/libraries/timer/app_timer.c.obj
                0x00036ce4                SWI0_EGU0_IRQHandler
 .text.app_timer_init
                0x00036f88       0x64 examples/light_switch/server/CMakeFiles/light_switch_server_nrf52840_xxAA_s140_6.0.0.dir/C_/b/nRF5_SDK_15.0.0_a53641a/components/libraries/timer/app_timer.c.obj
                0x00036f88                app_timer_init
 .text.app_timer_create
                0x00036fec       0x24 examples/light_switch/server/CMakeFiles/light_switch_server_nrf52840_xxAA_s140_6.0.0.dir/C_/b/nRF5_SDK_15.0.0_a53641a/components/libraries/timer/app_timer.c.obj
                0x00036fec                app_timer_create
 .text.app_timer_start
                0x00037010       0x8c examples/light_switch/server/CMakeFiles/light_switch_server_nrf52840_xxAA_s140_6.0.0.dir/C_/b/nRF5_SDK_15.0.0_a53641a/components/libraries/timer/app_timer.c.obj
                0x00037010                app_timer_start
 .text.app_timer_stop
                0x0003709c       0x20 examples/light_switch/server/CMakeFiles/light_switch_server_nrf52840_xxAA_s140_6.0.0.dir/C_/b/nRF5_SDK_15.0.0_a53641a/components/libraries/timer/app_timer.c.obj
                0x0003709c                app_timer_stop
 .text.app_error_handler
                0x000370bc       0x1a examples/light_switch/server/CMakeFiles/light_switch_server_nrf52840_xxAA_s140_6.0.0.dir/C_/b/nRF5_SDK_15.0.0_a53641a/components/libraries/util/app_error_handler_gcc.c.obj
                0x000370bc                app_error_handler
 .text._GetAvailWriteSpace
                0x000370d6       0x1c external/rtt/librtt_nrf52840_xxAA.a(SEGGER_RTT.c.obj)
 .text._WriteNoCheck
                0x000370f2       0x3c external/rtt/librtt_nrf52840_xxAA.a(SEGGER_RTT.c.obj)
 .text._WriteBlocking
                0x0003712e       0x52 external/rtt/librtt_nrf52840_xxAA.a(SEGGER_RTT.c.obj)
 .text._DoInit  0x00037180       0x60 external/rtt/librtt_nrf52840_xxAA.a(SEGGER_RTT.c.obj)
 .text.SEGGER_RTT_ReadNoLock
                0x000371e0       0x88 external/rtt/librtt_nrf52840_xxAA.a(SEGGER_RTT.c.obj)
                0x000371e0                SEGGER_RTT_ReadNoLock
 .text.SEGGER_RTT_Read
                0x00037268       0x1c external/rtt/librtt_nrf52840_xxAA.a(SEGGER_RTT.c.obj)
                0x00037268                SEGGER_RTT_Read
 .text.SEGGER_RTT_WriteNoLock
                0x00037284       0x68 external/rtt/librtt_nrf52840_xxAA.a(SEGGER_RTT.c.obj)
                0x00037284                SEGGER_RTT_WriteNoLock
 .text.SEGGER_RTT_Write
                0x000372ec       0x34 external/rtt/librtt_nrf52840_xxAA.a(SEGGER_RTT.c.obj)
                0x000372ec                SEGGER_RTT_Write
 .text.SEGGER_RTT_GetKey
                0x00037320       0x20 external/rtt/librtt_nrf52840_xxAA.a(SEGGER_RTT.c.obj)
                0x00037320                SEGGER_RTT_GetKey
 .text._StoreChar
                0x00037340       0x3e external/rtt/librtt_nrf52840_xxAA.a(SEGGER_RTT_printf.c.obj)
 *fill*         0x0003737e        0x2 
 .text._PrintUnsigned
                0x00037380       0xd0 external/rtt/librtt_nrf52840_xxAA.a(SEGGER_RTT_printf.c.obj)
 .text.SEGGER_RTT_vprintf
                0x00037450      0x246 external/rtt/librtt_nrf52840_xxAA.a(SEGGER_RTT_printf.c.obj)
                0x00037450                SEGGER_RTT_vprintf
 .text.SEGGER_RTT_printf
                0x00037696       0x1e external/rtt/librtt_nrf52840_xxAA.a(SEGGER_RTT_printf.c.obj)
                0x00037696                SEGGER_RTT_printf
 .text.uECC_vli_mult
                0x000376b4       0x64 external/micro-ecc/libuECC_nrf52840_xxAA.a(uECC.c.obj)
 .text.uECC_vli_clear
                0x00037718       0x16 external/micro-ecc/libuECC_nrf52840_xxAA.a(uECC.c.obj)
 .text.uECC_vli_isZero
                0x0003772e       0x1e external/micro-ecc/libuECC_nrf52840_xxAA.a(uECC.c.obj)
 .text.uECC_vli_testBit
                0x0003774c       0x14 external/micro-ecc/libuECC_nrf52840_xxAA.a(uECC.c.obj)
 .text.uECC_vli_numBits
                0x00037760       0x3a external/micro-ecc/libuECC_nrf52840_xxAA.a(uECC.c.obj)
 .text.uECC_vli_set
                0x0003779a       0x18 external/micro-ecc/libuECC_nrf52840_xxAA.a(uECC.c.obj)
 .text.uECC_vli_cmp_unsafe
                0x000377b2       0x28 external/micro-ecc/libuECC_nrf52840_xxAA.a(uECC.c.obj)
 .text.uECC_vli_rshift1
                0x000377da       0x1c external/micro-ecc/libuECC_nrf52840_xxAA.a(uECC.c.obj)
 .text.uECC_vli_modMult_fast
                0x000377f6       0x20 external/micro-ecc/libuECC_nrf52840_xxAA.a(uECC.c.obj)
 .text.uECC_vli_modSquare_fast
                0x00037816        0x8 external/micro-ecc/libuECC_nrf52840_xxAA.a(uECC.c.obj)
 .text.apply_z  0x0003781e       0x3e external/micro-ecc/libuECC_nrf52840_xxAA.a(uECC.c.obj)
 .text.uECC_vli_nativeToBytes
                0x0003785c       0x28 external/micro-ecc/libuECC_nrf52840_xxAA.a(uECC.c.obj)
 .text.uECC_vli_bytesToNative
                0x00037884       0x40 external/micro-ecc/libuECC_nrf52840_xxAA.a(uECC.c.obj)
 .text.default_RNG
                0x000378c4        0xc external/micro-ecc/libuECC_nrf52840_xxAA.a(uECC.c.obj)
 .text.uECC_vli_add.isra.0
                0x000378d0       0x4a external/micro-ecc/libuECC_nrf52840_xxAA.a(uECC.c.obj)
 .text.regularize_k
                0x0003791a       0x50 external/micro-ecc/libuECC_nrf52840_xxAA.a(uECC.c.obj)
 .text.uECC_vli_sub.isra.1
                0x0003796a       0x4e external/micro-ecc/libuECC_nrf52840_xxAA.a(uECC.c.obj)
 .text.uECC_vli_cmp
                0x000379b8       0x30 external/micro-ecc/libuECC_nrf52840_xxAA.a(uECC.c.obj)
 .text.uECC_generate_random_int
                0x000379e8       0x78 external/micro-ecc/libuECC_nrf52840_xxAA.a(uECC.c.obj)
 .text.uECC_vli_modAdd
                0x00037a60       0x2e external/micro-ecc/libuECC_nrf52840_xxAA.a(uECC.c.obj)
 *fill*         0x00037a8e        0x2 
 .text.vli_mmod_fast_secp256r1
                0x00037a90      0x194 external/micro-ecc/libuECC_nrf52840_xxAA.a(uECC.c.obj)
 .text.uECC_vli_modSub.isra.2
                0x00037c24       0x1c external/micro-ecc/libuECC_nrf52840_xxAA.a(uECC.c.obj)
 .text.double_jacobian_default
                0x00037c40      0x14a external/micro-ecc/libuECC_nrf52840_xxAA.a(uECC.c.obj)
 .text.x_side_default
                0x00037d8a       0x5a external/micro-ecc/libuECC_nrf52840_xxAA.a(uECC.c.obj)
 .text.XYcZ_add
                0x00037de4       0xbc external/micro-ecc/libuECC_nrf52840_xxAA.a(uECC.c.obj)
 .text.XYcZ_addC
                0x00037ea0      0x10a external/micro-ecc/libuECC_nrf52840_xxAA.a(uECC.c.obj)
 .text.vli_modInv_update
                0x00037faa       0x36 external/micro-ecc/libuECC_nrf52840_xxAA.a(uECC.c.obj)
 .text.uECC_vli_modInv
                0x00037fe0      0x102 external/micro-ecc/libuECC_nrf52840_xxAA.a(uECC.c.obj)
 .text.EccPoint_mult
                0x000380e2      0x19e external/micro-ecc/libuECC_nrf52840_xxAA.a(uECC.c.obj)
 .text.EccPoint_compute_public_key
                0x00038280       0x54 external/micro-ecc/libuECC_nrf52840_xxAA.a(uECC.c.obj)
 .text.uECC_secp256r1
                0x000382d4        0x8 external/micro-ecc/libuECC_nrf52840_xxAA.a(uECC.c.obj)
                0x000382d4                uECC_secp256r1
 .text.uECC_make_key
                0x000382dc       0x7e external/micro-ecc/libuECC_nrf52840_xxAA.a(uECC.c.obj)
                0x000382dc                uECC_make_key
 *fill*         0x0003835a        0x2 
 .text.uECC_shared_secret
                0x0003835c       0xbc external/micro-ecc/libuECC_nrf52840_xxAA.a(uECC.c.obj)
                0x0003835c                uECC_shared_secret
 .text.uECC_valid_point
                0x00038418       0x86 external/micro-ecc/libuECC_nrf52840_xxAA.a(uECC.c.obj)
                0x00038418                uECC_valid_point
 .text.uECC_valid_public_key
                0x0003849e       0x32 external/micro-ecc/libuECC_nrf52840_xxAA.a(uECC.c.obj)
                0x0003849e                uECC_valid_public_key
 .text          0x000384d0       0x30 c:/mesh/arm_gcc/bin/../lib/gcc/arm-none-eabi/6.3.1/thumb/v7e-m/fpv4-sp/hard\libgcc.a(_aeabi_uldivmod.o)
                0x000384d0                __aeabi_uldivmod
 .text          0x00038500      0x2dc c:/mesh/arm_gcc/bin/../lib/gcc/arm-none-eabi/6.3.1/thumb/v7e-m/fpv4-sp/hard\libgcc.a(_udivmoddi4.o)
                0x00038500                __udivmoddi4
 .text          0x000387dc        0x4 c:/mesh/arm_gcc/bin/../lib/gcc/arm-none-eabi/6.3.1/thumb/v7e-m/fpv4-sp/hard\libgcc.a(_dvmd_tls.o)
                0x000387dc                __aeabi_idiv0
                0x000387dc                __aeabi_ldiv0
 .text.exit     0x000387e0       0x28 c:/mesh/arm_gcc/bin/../lib/gcc/arm-none-eabi/6.3.1/../../../../arm-none-eabi/lib/thumb/v7e-m/fpv4-sp/hard\libg_nano.a(lib_a-exit.o)
                0x000387e0                exit
 .text.__libc_init_array
                0x00038808       0x48 c:/mesh/arm_gcc/bin/../lib/gcc/arm-none-eabi/6.3.1/../../../../arm-none-eabi/lib/thumb/v7e-m/fpv4-sp/hard\libg_nano.a(lib_a-init.o)
                0x00038808                __libc_init_array
 .text.malloc   0x00038850       0x10 c:/mesh/arm_gcc/bin/../lib/gcc/arm-none-eabi/6.3.1/../../../../arm-none-eabi/lib/thumb/v7e-m/fpv4-sp/hard\libg_nano.a(lib_a-malloc.o)
                0x00038850                malloc
 .text.free     0x00038860       0x10 c:/mesh/arm_gcc/bin/../lib/gcc/arm-none-eabi/6.3.1/../../../../arm-none-eabi/lib/thumb/v7e-m/fpv4-sp/hard\libg_nano.a(lib_a-malloc.o)
                0x00038860                free
 .text.memcmp   0x00038870       0x1e c:/mesh/arm_gcc/bin/../lib/gcc/arm-none-eabi/6.3.1/../../../../arm-none-eabi/lib/thumb/v7e-m/fpv4-sp/hard\libg_nano.a(lib_a-memcmp.o)
                0x00038870                memcmp
 .text.memcpy   0x0003888e       0x16 c:/mesh/arm_gcc/bin/../lib/gcc/arm-none-eabi/6.3.1/../../../../arm-none-eabi/lib/thumb/v7e-m/fpv4-sp/hard\libg_nano.a(lib_a-memcpy-stub.o)
                0x0003888e                memcpy
 .text.memset   0x000388a4       0x10 c:/mesh/arm_gcc/bin/../lib/gcc/arm-none-eabi/6.3.1/../../../../arm-none-eabi/lib/thumb/v7e-m/fpv4-sp/hard\libg_nano.a(lib_a-memset.o)
                0x000388a4                memset
 .text._free_r  0x000388b4       0x9c c:/mesh/arm_gcc/bin/../lib/gcc/arm-none-eabi/6.3.1/../../../../arm-none-eabi/lib/thumb/v7e-m/fpv4-sp/hard\libg_nano.a(lib_a-nano-freer.o)
                0x000388b4                _free_r
 .text._malloc_r
                0x00038950       0xbc c:/mesh/arm_gcc/bin/../lib/gcc/arm-none-eabi/6.3.1/../../../../arm-none-eabi/lib/thumb/v7e-m/fpv4-sp/hard\libg_nano.a(lib_a-nano-mallocr.o)
                0x00038950                _malloc_r
 .text._sbrk_r  0x00038a0c       0x20 c:/mesh/arm_gcc/bin/../lib/gcc/arm-none-eabi/6.3.1/../../../../arm-none-eabi/lib/thumb/v7e-m/fpv4-sp/hard\libg_nano.a(lib_a-sbrkr.o)
                0x00038a0c                _sbrk_r
 .text.strcpy   0x00038a2c       0x10 c:/mesh/arm_gcc/bin/../lib/gcc/arm-none-eabi/6.3.1/../../../../arm-none-eabi/lib/thumb/v7e-m/fpv4-sp/hard\libg_nano.a(lib_a-strcpy.o)
                0x00038a2c                strcpy
 .text          0x00038a3c       0x10 c:/mesh/arm_gcc/bin/../lib/gcc/arm-none-eabi/6.3.1/../../../../arm-none-eabi/lib/thumb/v7e-m/fpv4-sp/hard\libg_nano.a(lib_a-strlen.o)
                0x00038a3c                strlen
 .text.strrchr  0x00038a4c       0x26 c:/mesh/arm_gcc/bin/../lib/gcc/arm-none-eabi/6.3.1/../../../../arm-none-eabi/lib/thumb/v7e-m/fpv4-sp/hard\libg_nano.a(lib_a-strrchr.o)
                0x00038a4c                strrchr
 .text.__malloc_lock
                0x00038a72        0x2 c:/mesh/arm_gcc/bin/../lib/gcc/arm-none-eabi/6.3.1/../../../../arm-none-eabi/lib/thumb/v7e-m/fpv4-sp/hard\libg_nano.a(lib_a-mlock.o)
                0x00038a72                __malloc_lock
 .text.__malloc_unlock
                0x00038a74        0x2 c:/mesh/arm_gcc/bin/../lib/gcc/arm-none-eabi/6.3.1/../../../../arm-none-eabi/lib/thumb/v7e-m/fpv4-sp/hard\libg_nano.a(lib_a-mlock.o)
                0x00038a74                __malloc_unlock
 .text.strchr   0x00038a76       0x1c c:/mesh/arm_gcc/bin/../lib/gcc/arm-none-eabi/6.3.1/../../../../arm-none-eabi/lib/thumb/v7e-m/fpv4-sp/hard\libg_nano.a(lib_a-strchr.o)
                0x00038a76                strchr
 *fill*         0x00038a92        0x2 
 .text._sbrk    0x00038a94       0x1c c:/mesh/arm_gcc/bin/../lib/gcc/arm-none-eabi/6.3.1/../../../../arm-none-eabi/lib/thumb/v7e-m/fpv4-sp/hard\libnosys.a(sbrk.o)
                0x00038a94                _sbrk
 .text._exit    0x00038ab0        0x4 c:/mesh/arm_gcc/bin/../lib/gcc/arm-none-eabi/6.3.1/../../../../arm-none-eabi/lib/thumb/v7e-m/fpv4-sp/hard\libnosys.a(_exit.o)
                0x00038ab0                _exit
 *(.init)
 .init          0x00038ab4        0x4 c:/mesh/arm_gcc/bin/../lib/gcc/arm-none-eabi/6.3.1/thumb/v7e-m/fpv4-sp/hard/crti.o
                0x00038ab4                _init
 .init          0x00038ab8        0x8 c:/mesh/arm_gcc/bin/../lib/gcc/arm-none-eabi/6.3.1/thumb/v7e-m/fpv4-sp/hard/crtn.o
 *(.fini)
 .fini          0x00038ac0        0x4 c:/mesh/arm_gcc/bin/../lib/gcc/arm-none-eabi/6.3.1/thumb/v7e-m/fpv4-sp/hard/crti.o
                0x00038ac0                _fini
 .fini          0x00038ac4        0x8 c:/mesh/arm_gcc/bin/../lib/gcc/arm-none-eabi/6.3.1/thumb/v7e-m/fpv4-sp/hard/crtn.o
 *crtbegin.o(.ctors)
 *crtbegin?.o(.ctors)
 *(EXCLUDE_FILE(*crtend.o *crtend?.o) .ctors)
 *(SORT(.ctors.*))
 *(.ctors)
 *crtbegin.o(.dtors)
 *crtbegin?.o(.dtors)
 *(EXCLUDE_FILE(*crtend.o *crtend?.o) .dtors)
 *(SORT(.dtors.*))
 *(.dtors)
 *(.rodata*)
 .rodata        0x00038acc        0xc examples/light_switch/server/CMakeFiles/light_switch_server_nrf52840_xxAA_s140_6.0.0.dir/src/main.c.obj
 .rodata.button_event_handler.str1.1
                0x00038ad8       0x21 examples/light_switch/server/CMakeFiles/light_switch_server_nrf52840_xxAA_s140_6.0.0.dir/src/main.c.obj
 .rodata.main.str1.1
                0x00038af9       0x44 examples/light_switch/server/CMakeFiles/light_switch_server_nrf52840_xxAA_s140_6.0.0.dir/src/main.c.obj
 .rodata.models_init_cb.str1.1
                0x00038b3d       0x20 examples/light_switch/server/CMakeFiles/light_switch_server_nrf52840_xxAA_s140_6.0.0.dir/src/main.c.obj
 .rodata.node_reset.str1.1
                0x00038b5d       0x19 examples/light_switch/server/CMakeFiles/light_switch_server_nrf52840_xxAA_s140_6.0.0.dir/src/main.c.obj
 .rodata.on_off_server_set_cb.str1.1
                0x00038b76       0x17 examples/light_switch/server/CMakeFiles/light_switch_server_nrf52840_xxAA_s140_6.0.0.dir/src/main.c.obj
 .rodata.provisioning_complete_cb.str1.1
                0x00038b8d       0x5c examples/light_switch/server/CMakeFiles/light_switch_server_nrf52840_xxAA_s140_6.0.0.dir/src/main.c.obj
 .rodata.static_auth_data.12581
                0x00038be9       0x10 examples/light_switch/server/CMakeFiles/light_switch_server_nrf52840_xxAA_s140_6.0.0.dir/src/main.c.obj
 .rodata.mesh_softdevice_init.str1.1
                0x00038bf9       0x94 examples/light_switch/server/CMakeFiles/light_switch_server_nrf52840_xxAA_s140_6.0.0.dir/__/__/common/src/mesh_softdevice_init.c.obj
 .rodata        0x00038c8d        0xb examples/light_switch/server/CMakeFiles/light_switch_server_nrf52840_xxAA_s140_6.0.0.dir/__/__/common/src/mesh_provisionee.c.obj
 .rodata.m_rtt_timer
                0x00038c98        0x4 examples/light_switch/server/CMakeFiles/light_switch_server_nrf52840_xxAA_s140_6.0.0.dir/__/__/common/src/rtt_input.c.obj
 .rodata.rtt_input_enable.str1.1
                0x00038c9c       0x23 examples/light_switch/server/CMakeFiles/light_switch_server_nrf52840_xxAA_s140_6.0.0.dir/__/__/common/src/rtt_input.c.obj
 *fill*         0x00038cbf        0x1 
 .rodata.m_blink_timer
                0x00038cc0        0x4 examples/light_switch/server/CMakeFiles/light_switch_server_nrf52840_xxAA_s140_6.0.0.dir/__/__/common/src/simple_hal.c.obj
 .rodata.m_buttons_list
                0x00038cc4        0x4 examples/light_switch/server/CMakeFiles/light_switch_server_nrf52840_xxAA_s140_6.0.0.dir/__/__/common/src/simple_hal.c.obj
 .rodata.app_error_fault_handler.str1.1
                0x00038cc8       0xbd examples/light_switch/server/CMakeFiles/light_switch_server_nrf52840_xxAA_s140_6.0.0.dir/__/__/common/src/app_error_weak.c.obj
 .rodata.mesh_assertion_handler.str1.1
                0x00038d85       0xbd examples/light_switch/server/CMakeFiles/light_switch_server_nrf52840_xxAA_s140_6.0.0.dir/__/__/common/src/assertion_handler_weak.c.obj
                                  0x1 (size before relaxing)
 .rodata.sar_ctx_cancel.str1.1
                0x00038d85       0x23 examples/light_switch/server/CMakeFiles/light_switch_server_nrf52840_xxAA_s140_6.0.0.dir/__/__/__/mesh/core/src/transport.c.obj
 .rodata.test_transport_decrypt.str1.1
                0x00038da8       0x30 examples/light_switch/server/CMakeFiles/light_switch_server_nrf52840_xxAA_s140_6.0.0.dir/__/__/__/mesh/core/src/transport.c.obj
 .rodata.transport_packet_in.str1.1
                0x00038dd8       0x24 examples/light_switch/server/CMakeFiles/light_switch_server_nrf52840_xxAA_s140_6.0.0.dir/__/__/__/mesh/core/src/transport.c.obj
 .rodata.upper_transport_access_packet_in.str1.1
                0x00038dfc       0x29 examples/light_switch/server/CMakeFiles/light_switch_server_nrf52840_xxAA_s140_6.0.0.dir/__/__/__/mesh/core/src/transport.c.obj
 .rodata.upper_transport_packet_in.str1.1
                0x00038e25       0x2e examples/light_switch/server/CMakeFiles/light_switch_server_nrf52840_xxAA_s140_6.0.0.dir/__/__/__/mesh/core/src/transport.c.obj
 .rodata.upper_transport_tx.str1.1
                0x00038e53        0xe examples/light_switch/server/CMakeFiles/light_switch_server_nrf52840_xxAA_s140_6.0.0.dir/__/__/__/mesh/core/src/transport.c.obj
                                 0x16 (size before relaxing)
 *fill*         0x00038e61        0x3 
 .rodata.m_procedure_steps
                0x00038e64       0x28 examples/light_switch/server/CMakeFiles/light_switch_server_nrf52840_xxAA_s140_6.0.0.dir/__/__/__/mesh/core/src/flash_manager_defrag.c.obj
 .rodata.m_all_operations
                0x00038e8c       0x10 examples/light_switch/server/CMakeFiles/light_switch_server_nrf52840_xxAA_s140_6.0.0.dir/__/__/__/mesh/core/src/mesh_flash.c.obj
 .rodata.types_lookup.9354
                0x00038e9c        0x4 examples/light_switch/server/CMakeFiles/light_switch_server_nrf52840_xxAA_s140_6.0.0.dir/__/__/__/mesh/core/src/nrf_mesh_utils.c.obj
 .rodata.__func__.11852
                0x00038ea0       0x15 examples/light_switch/server/CMakeFiles/light_switch_server_nrf52840_xxAA_s140_6.0.0.dir/__/__/__/mesh/core/src/nrf_mesh.c.obj
 .rodata.nrf_mesh_listen.str1.1
                0x00038eb5       0x70 examples/light_switch/server/CMakeFiles/light_switch_server_nrf52840_xxAA_s140_6.0.0.dir/__/__/__/mesh/core/src/nrf_mesh.c.obj
 .rodata.nrf_mesh_packet_send.str1.1
                0x00038f25       0x70 examples/light_switch/server/CMakeFiles/light_switch_server_nrf52840_xxAA_s140_6.0.0.dir/__/__/__/mesh/core/src/nrf_mesh.c.obj
                                  0x4 (size before relaxing)
 *fill*         0x00038f25        0x1 
 .rodata.CSWTCH.7
                0x00038f26       0x10 examples/light_switch/server/CMakeFiles/light_switch_server_nrf52840_xxAA_s140_6.0.0.dir/__/__/__/mesh/core/src/hal.c.obj
 .rodata        0x00038f36       0x15 examples/light_switch/server/CMakeFiles/light_switch_server_nrf52840_xxAA_s140_6.0.0.dir/__/__/__/mesh/core/src/enc.c.obj
 .rodata.network_packet_in.str1.1
                0x00038f4b       0x48 examples/light_switch/server/CMakeFiles/light_switch_server_nrf52840_xxAA_s140_6.0.0.dir/__/__/__/mesh/core/src/network.c.obj
 .rodata.net_packet_decrypt.str1.1
                0x00038f93       0x31 examples/light_switch/server/CMakeFiles/light_switch_server_nrf52840_xxAA_s140_6.0.0.dir/__/__/__/mesh/core/src/net_packet.c.obj
                                 0x39 (size before relaxing)
 .rodata        0x00038fc4        0x7 examples/light_switch/server/CMakeFiles/light_switch_server_nrf52840_xxAA_s140_6.0.0.dir/__/__/__/mesh/core/src/nrf_mesh_keygen.c.obj
 .rodata.log_callback_rtt.str1.1
                0x00038fcb       0x15 examples/light_switch/server/CMakeFiles/light_switch_server_nrf52840_xxAA_s140_6.0.0.dir/__/__/__/mesh/core/src/log.c.obj
 .rodata.str1.1
                0x00038fe0       0x11 examples/light_switch/server/CMakeFiles/light_switch_server_nrf52840_xxAA_s140_6.0.0.dir/__/__/__/mesh/core/src/log.c.obj
 *fill*         0x00038ff1        0x3 
 .rodata.INVALID_HEADER
                0x00038ff4        0x4 examples/light_switch/server/CMakeFiles/light_switch_server_nrf52840_xxAA_s140_6.0.0.dir/__/__/__/mesh/core/src/flash_manager.c.obj
                0x00038ff4                INVALID_HEADER
 .rodata.PADDING_HEADER
                0x00038ff8        0x4 examples/light_switch/server/CMakeFiles/light_switch_server_nrf52840_xxAA_s140_6.0.0.dir/__/__/__/mesh/core/src/flash_manager.c.obj
                0x00038ff8                PADDING_HEADER
 .rodata.SEAL_HEADER
                0x00038ffc        0x4 examples/light_switch/server/CMakeFiles/light_switch_server_nrf52840_xxAA_s140_6.0.0.dir/__/__/__/mesh/core/src/flash_manager.c.obj
                0x00038ffc                SEAL_HEADER
 .rodata.beacon_packet_in.str1.1
                0x00039000       0x51 examples/light_switch/server/CMakeFiles/light_switch_server_nrf52840_xxAA_s140_6.0.0.dir/__/__/__/mesh/core/src/beacon.c.obj
                                 0x59 (size before relaxing)
 *fill*         0x00039051        0x3 
 .rodata.cp_handler
                0x00039054        0x8 examples/light_switch/server/CMakeFiles/light_switch_server_nrf52840_xxAA_s140_6.0.0.dir/__/__/__/mesh/core/src/heartbeat.c.obj
 .rodata.beacon_tx.str1.1
                0x0003905c       0x35 examples/light_switch/server/CMakeFiles/light_switch_server_nrf52840_xxAA_s140_6.0.0.dir/__/__/__/mesh/core/src/net_beacon.c.obj
 .rodata.net_beacon_init.str1.1
                0x00039091        0x5 examples/light_switch/server/CMakeFiles/light_switch_server_nrf52840_xxAA_s140_6.0.0.dir/__/__/__/mesh/core/src/net_beacon.c.obj
 *fill*         0x00039096        0x2 
 .rodata.m_interface
                0x00039098        0xc examples/light_switch/server/CMakeFiles/light_switch_server_nrf52840_xxAA_s140_6.0.0.dir/__/__/__/mesh/core/src/core_tx_adv.c.obj
 .rodata.radio_mode_to_us_per_byte.9768
                0x000390a4        0x6 examples/light_switch/server/CMakeFiles/light_switch_server_nrf52840_xxAA_s140_6.0.0.dir/__/__/__/mesh/bearer/src/broadcast.c.obj
 .rodata.channel_rf_offsets.8993
                0x000390aa       0x28 examples/light_switch/server/CMakeFiles/light_switch_server_nrf52840_xxAA_s140_6.0.0.dir/__/__/__/mesh/bearer/src/radio_config.c.obj
 .rodata        0x000390d2        0x3 examples/light_switch/server/CMakeFiles/light_switch_server_nrf52840_xxAA_s140_6.0.0.dir/__/__/__/mesh/bearer/src/scanner.c.obj
 *fill*         0x000390d5        0x3 
 .rodata.m_opcode_handlers
                0x000390d8       0x18 examples/light_switch/server/CMakeFiles/light_switch_server_nrf52840_xxAA_s140_6.0.0.dir/__/__/__/models/simple_on_off/src/simple_on_off_server.c.obj
 .rodata        0x000390f0        0x8 examples/light_switch/server/CMakeFiles/light_switch_server_nrf52840_xxAA_s140_6.0.0.dir/__/__/__/models/config/src/config_server.c.obj
 .rodata.CSWTCH.123
                0x000390f8       0x10 examples/light_switch/server/CMakeFiles/light_switch_server_nrf52840_xxAA_s140_6.0.0.dir/__/__/__/models/config/src/config_server.c.obj
 .rodata.opcode_handlers
                0x00039108      0x170 examples/light_switch/server/CMakeFiles/light_switch_server_nrf52840_xxAA_s140_6.0.0.dir/__/__/__/models/config/src/config_server.c.obj
 .rodata.m_opcode_handlers
                0x00039278       0x58 examples/light_switch/server/CMakeFiles/light_switch_server_nrf52840_xxAA_s140_6.0.0.dir/__/__/__/models/health/src/health_server.c.obj
 .rodata.multiply_de_bruijn_bit_position.9604
                0x000392d0       0x20 examples/light_switch/server/CMakeFiles/light_switch_server_nrf52840_xxAA_s140_6.0.0.dir/__/__/__/models/health/src/health_server.c.obj
 .rodata.mesh_evt_cb.str1.1
                0x000392f0       0x13 examples/light_switch/server/CMakeFiles/light_switch_server_nrf52840_xxAA_s140_6.0.0.dir/__/__/__/mesh/access/src/access.c.obj
 .rodata.multiply_de_bruijn_bit_position.9560
                0x00039303       0x20 examples/light_switch/server/CMakeFiles/light_switch_server_nrf52840_xxAA_s140_6.0.0.dir/__/__/__/mesh/access/src/access.c.obj
 .rodata.packet_tx.str1.1
                0x00039323       0x38 examples/light_switch/server/CMakeFiles/light_switch_server_nrf52840_xxAA_s140_6.0.0.dir/__/__/__/mesh/access/src/access.c.obj
                                 0x40 (size before relaxing)
 *fill*         0x0003935b        0x1 
 .rodata.m_flash_groups
                0x0003935c       0xa8 examples/light_switch/server/CMakeFiles/light_switch_server_nrf52840_xxAA_s140_6.0.0.dir/__/__/__/mesh/access/src/device_state_manager.c.obj
 .rodata.multiply_de_bruijn_bit_position.9666
                0x00039404       0x20 examples/light_switch/server/CMakeFiles/light_switch_server_nrf52840_xxAA_s140_6.0.0.dir/__/__/__/mesh/access/src/device_state_manager.c.obj
 .rodata.m_prov_callbacks
                0x00039424       0x10 examples/light_switch/server/CMakeFiles/light_switch_server_nrf52840_xxAA_s140_6.0.0.dir/__/__/__/mesh/prov/src/prov_provisionee.c.obj
 .rodata.prov_provisionee_cb_ack_received.str1.1
                0x00039434       0x53 examples/light_switch/server/CMakeFiles/light_switch_server_nrf52840_xxAA_s140_6.0.0.dir/__/__/__/mesh/prov/src/prov_provisionee.c.obj
 .rodata.multiply_de_bruijn_bit_position.9608
                0x00039487       0x20 examples/light_switch/server/CMakeFiles/light_switch_server_nrf52840_xxAA_s140_6.0.0.dir/__/__/__/mesh/prov/src/nrf_mesh_prov.c.obj
 .rodata.pdu_sizes.11546
                0x000394a7        0xa examples/light_switch/server/CMakeFiles/light_switch_server_nrf52840_xxAA_s140_6.0.0.dir/__/__/__/mesh/prov/src/provisioning.c.obj
 .rodata.alphanumeric.11651
                0x000394b1       0x25 examples/light_switch/server/CMakeFiles/light_switch_server_nrf52840_xxAA_s140_6.0.0.dir/__/__/__/mesh/prov/src/prov_utils.c.obj
 *fill*         0x000394d6        0x2 
 .rodata.numeric_max.11645
                0x000394d8       0x24 examples/light_switch/server/CMakeFiles/light_switch_server_nrf52840_xxAA_s140_6.0.0.dir/__/__/__/mesh/prov/src/prov_utils.c.obj
 .rodata.prov_utils_authentication_values_derive.str1.1
                0x000394fc        0x5 examples/light_switch/server/CMakeFiles/light_switch_server_nrf52840_xxAA_s140_6.0.0.dir/__/__/__/mesh/prov/src/prov_utils.c.obj
 .rodata.prov_utils_derive_keys.str1.1
                0x00039501        0xf examples/light_switch/server/CMakeFiles/light_switch_server_nrf52840_xxAA_s140_6.0.0.dir/__/__/__/mesh/prov/src/prov_utils.c.obj
 .rodata.add_active_bearer.str1.1
                0x00039510       0x2c examples/light_switch/server/CMakeFiles/light_switch_server_nrf52840_xxAA_s140_6.0.0.dir/__/__/__/mesh/prov/src/prov_bearer_adv.c.obj
 .rodata.crctable.11278
                0x0003953c      0x100 examples/light_switch/server/CMakeFiles/light_switch_server_nrf52840_xxAA_s140_6.0.0.dir/__/__/__/mesh/prov/src/prov_bearer_adv.c.obj
 .rodata.interface.11508
                0x0003963c       0x14 examples/light_switch/server/CMakeFiles/light_switch_server_nrf52840_xxAA_s140_6.0.0.dir/__/__/__/mesh/prov/src/prov_bearer_adv.c.obj
 .rodata.prov_bearer_adv_packet_in.str1.1
                0x00039650      0x26e examples/light_switch/server/CMakeFiles/light_switch_server_nrf52840_xxAA_s140_6.0.0.dir/__/__/__/mesh/prov/src/prov_bearer_adv.c.obj
 .rodata.tx_retry_cb.str1.1
                0x000398be       0x37 examples/light_switch/server/CMakeFiles/light_switch_server_nrf52840_xxAA_s140_6.0.0.dir/__/__/__/mesh/prov/src/prov_bearer_adv.c.obj
 *fill*         0x000398f5        0xb 
 .rodata.delay_bytecode.9306
                0x00039900        0x6 examples/light_switch/server/CMakeFiles/light_switch_server_nrf52840_xxAA_s140_6.0.0.dir/C_/b/nRF5_SDK_15.0.0_a53641a/components/libraries/timer/app_timer.c.obj
 .rodata._DoInit.str1.1
                0x00039906       0x14 external/rtt/librtt_nrf52840_xxAA.a(SEGGER_RTT.c.obj)
 .rodata._aV2C.5497
                0x0003991a       0x10 external/rtt/librtt_nrf52840_xxAA.a(SEGGER_RTT_printf.c.obj)
 *fill*         0x0003992a        0x2 
 .rodata.curve_secp256r1
                0x0003992c       0xb0 external/micro-ecc/libuECC_nrf52840_xxAA.a(uECC.c.obj)
 .rodata._global_impure_ptr
                0x000399dc        0x4 c:/mesh/arm_gcc/bin/../lib/gcc/arm-none-eabi/6.3.1/../../../../arm-none-eabi/lib/thumb/v7e-m/fpv4-sp/hard\libg_nano.a(lib_a-impure.o)
                0x000399dc                _global_impure_ptr
 *(.eh_frame*)
 .eh_frame      0x000399e0        0x0 c:/mesh/arm_gcc/bin/../lib/gcc/arm-none-eabi/6.3.1/thumb/v7e-m/fpv4-sp/hard/crtbegin.o
 .eh_frame      0x000399e0        0x4 c:/mesh/arm_gcc/bin/../lib/gcc/arm-none-eabi/6.3.1/thumb/v7e-m/fpv4-sp/hard/crtend.o

.glue_7         0x000399e4        0x0
 .glue_7        0x000399e4        0x0 linker stubs

.glue_7t        0x000399e4        0x0
 .glue_7t       0x000399e4        0x0 linker stubs

.vfp11_veneer   0x000399e4        0x0
 .vfp11_veneer  0x000399e4        0x0 linker stubs

.v4_bx          0x000399e4        0x0
 .v4_bx         0x000399e4        0x0 linker stubs

.iplt           0x000399e4        0x0
 .iplt          0x000399e4        0x0 c:/mesh/arm_gcc/bin/../lib/gcc/arm-none-eabi/6.3.1/thumb/v7e-m/fpv4-sp/hard/crtbegin.o

.pwr_mgmt_data  0x000399e4        0x0
                [!provide]                PROVIDE (__start_pwr_mgmt_data, .)
 *(SORT(.pwr_mgmt_data*))
                [!provide]                PROVIDE (__stop_pwr_mgmt_data, .)

.log_const_data
                0x000399e4        0x0
                [!provide]                PROVIDE (__start_log_const_data, .)
 *(.log_const_data)
                [!provide]                PROVIDE (__stop_log_const_data, .)

.cli_command    0x000399e4        0x0
                [!provide]                PROVIDE (__start_cli_command, .)
 *(.cli_command)
                [!provide]                PROVIDE (__stop_cli_command, .)

.sdh_stack_observers
                0x000399e4        0x0
                [!provide]                PROVIDE (__start_sdh_stack_observers, .)
 *(SORT(.sdh_stack_observers*))
                [!provide]                PROVIDE (__stop_sdh_stack_observers, .)

.sdh_req_observers
                0x000399e4        0x0
                [!provide]                PROVIDE (__start_sdh_req_observers, .)
 *(SORT(.sdh_req_observers*))
                [!provide]                PROVIDE (__stop_sdh_req_observers, .)

.sdh_state_observers
                0x000399e4        0x0
                [!provide]                PROVIDE (__start_sdh_state_observers, .)
 *(SORT(.sdh_state_observers*))
                [!provide]                PROVIDE (__stop_sdh_state_observers, .)

.sdh_ant_observers
                0x000399e4        0x0
                [!provide]                PROVIDE (__start_sdh_ant_observers, .)
 *(SORT(.sdh_ant_observers*))
                [!provide]                PROVIDE (__stop_sdh_ant_observers, .)

.sdh_ble_observers
                0x000399e4        0x0
                [!provide]                PROVIDE (__start_sdh_ble_observers, .)
 *(SORT(.sdh_ble_observers*))
                [!provide]                PROVIDE (__stop_sdh_ble_observers, .)

.sdh_soc_observers
                0x000399e4        0x0
                [!provide]                PROVIDE (__start_sdh_soc_observers, .)
 *(SORT(.sdh_soc_observers*))
                [!provide]                PROVIDE (__stop_sdh_soc_observers, .)

.ARM.extab
 *(.ARM.extab* .gnu.linkonce.armextab.*)
                0x000399e4                __exidx_start = .

.ARM.exidx      0x000399e4        0x8
 *(.ARM.exidx* .gnu.linkonce.armexidx.*)
 .ARM.exidx     0x000399e4        0x8 c:/mesh/arm_gcc/bin/../lib/gcc/arm-none-eabi/6.3.1/../../../../arm-none-eabi/lib/thumb/v7e-m/fpv4-sp/hard/crt0.o
 .ARM.exidx     0x000399ec        0x0 c:/mesh/arm_gcc/bin/../lib/gcc/arm-none-eabi/6.3.1/thumb/v7e-m/fpv4-sp/hard\libgcc.a(_udivmoddi4.o)
                                  0x8 (size before relaxing)
                0x000399ec                __exidx_end = .
                0x000399ec                __etext = .

.rel.dyn        0x000399ec        0x0
 .rel.iplt      0x000399ec        0x0 c:/mesh/arm_gcc/bin/../lib/gcc/arm-none-eabi/6.3.1/thumb/v7e-m/fpv4-sp/hard/crtbegin.o

.data           0x20002da0      0x14c load address 0x000399ec
                0x20002da0                __data_start__ = .
 *(vtable)
 *(.data*)
 .data.s_evt_handler.11357
                0x20002da0        0xc examples/light_switch/server/CMakeFiles/light_switch_server_nrf52840_xxAA_s140_6.0.0.dir/__/__/__/mesh/stack/src/mesh_stack.c.obj
 .data.wait.9229
                0x20002dac        0x1 examples/light_switch/server/CMakeFiles/light_switch_server_nrf52840_xxAA_s140_6.0.0.dir/__/__/common/src/app_error_weak.c.obj
 *fill*         0x20002dad        0x3 
 .data.mem_listener.10133
                0x20002db0       0x10 examples/light_switch/server/CMakeFiles/light_switch_server_nrf52840_xxAA_s140_6.0.0.dir/__/__/__/mesh/core/src/net_state.c.obj
 .data.mem_listener.10138
                0x20002dc0       0x10 examples/light_switch/server/CMakeFiles/light_switch_server_nrf52840_xxAA_s140_6.0.0.dir/__/__/__/mesh/core/src/net_state.c.obj
 .data.mem_listener.10152
                0x20002dd0       0x10 examples/light_switch/server/CMakeFiles/light_switch_server_nrf52840_xxAA_s140_6.0.0.dir/__/__/__/mesh/core/src/net_state.c.obj
 .data.mem_listener.10169
                0x20002de0       0x10 examples/light_switch/server/CMakeFiles/light_switch_server_nrf52840_xxAA_s140_6.0.0.dir/__/__/__/mesh/core/src/net_state.c.obj
 .data.m_nrf_mesh_listener
                0x20002df0        0xc examples/light_switch/server/CMakeFiles/light_switch_server_nrf52840_xxAA_s140_6.0.0.dir/__/__/__/mesh/core/src/nrf_mesh.c.obj
 .data.g_log_dbg_lvl
                0x20002dfc        0x4 examples/light_switch/server/CMakeFiles/light_switch_server_nrf52840_xxAA_s140_6.0.0.dir/__/__/__/mesh/core/src/log.c.obj
                0x20002dfc                g_log_dbg_lvl
 .data.g_log_dbg_msk
                0x20002e00        0x4 examples/light_switch/server/CMakeFiles/light_switch_server_nrf52840_xxAA_s140_6.0.0.dir/__/__/__/mesh/core/src/log.c.obj
                0x20002e00                g_log_dbg_msk
 .data.g_log_hex_digits
                0x20002e04        0x4 examples/light_switch/server/CMakeFiles/light_switch_server_nrf52840_xxAA_s140_6.0.0.dir/__/__/__/mesh/core/src/log.c.obj
                0x20002e04                g_log_hex_digits
 .data.m_log_callback
                0x20002e08        0x4 examples/light_switch/server/CMakeFiles/light_switch_server_nrf52840_xxAA_s140_6.0.0.dir/__/__/__/mesh/core/src/log.c.obj
                0x20002e08                m_log_callback
 .data.m_config_server_handle
                0x20002e0c        0x2 examples/light_switch/server/CMakeFiles/light_switch_server_nrf52840_xxAA_s140_6.0.0.dir/__/__/__/models/config/src/config_server.c.obj
 *fill*         0x20002e0e        0x2 
 .data.m_mesh_evt_handler
                0x20002e10        0xc examples/light_switch/server/CMakeFiles/light_switch_server_nrf52840_xxAA_s140_6.0.0.dir/__/__/__/models/config/src/config_server.c.obj
 .data.flash_add_mem_available_struct.10707
                0x20002e1c       0x10 examples/light_switch/server/CMakeFiles/light_switch_server_nrf52840_xxAA_s140_6.0.0.dir/__/__/__/mesh/access/src/access.c.obj
 .data.flash_clear_mem_available_struct.10796
                0x20002e2c       0x10 examples/light_switch/server/CMakeFiles/light_switch_server_nrf52840_xxAA_s140_6.0.0.dir/__/__/__/mesh/access/src/access.c.obj
 .data.flash_store_mem_available_struct.10820
                0x20002e3c       0x10 examples/light_switch/server/CMakeFiles/light_switch_server_nrf52840_xxAA_s140_6.0.0.dir/__/__/__/mesh/access/src/access.c.obj
 .data.m_default_ttl
                0x20002e4c        0x1 examples/light_switch/server/CMakeFiles/light_switch_server_nrf52840_xxAA_s140_6.0.0.dir/__/__/__/mesh/access/src/access.c.obj
 *fill*         0x20002e4d        0x3 
 .data.mem_listener.11060
                0x20002e50       0x10 examples/light_switch/server/CMakeFiles/light_switch_server_nrf52840_xxAA_s140_6.0.0.dir/__/__/__/mesh/access/src/device_state_manager.c.obj
 .data.mem_listener.11086
                0x20002e60       0x10 examples/light_switch/server/CMakeFiles/light_switch_server_nrf52840_xxAA_s140_6.0.0.dir/__/__/__/mesh/access/src/device_state_manager.c.obj
 .data.m_async_process_flag
                0x20002e70        0x4 examples/light_switch/server/CMakeFiles/light_switch_server_nrf52840_xxAA_s140_6.0.0.dir/__/__/__/mesh/prov/src/prov_bearer_adv.c.obj
 .data.SystemCoreClock
                0x20002e74        0x4 examples/light_switch/server/CMakeFiles/light_switch_server_nrf52840_xxAA_s140_6.0.0.dir/C_/b/nRF5_SDK_15.0.0_a53641a/modules/nrfx/mdk/system_nrf52840.c.obj
                0x20002e74                SystemCoreClock
 .data.g_rng_function
                0x20002e78        0x4 external/micro-ecc/libuECC_nrf52840_xxAA.a(uECC.c.obj)
 .data._impure_ptr
                0x20002e7c        0x4 c:/mesh/arm_gcc/bin/../lib/gcc/arm-none-eabi/6.3.1/../../../../arm-none-eabi/lib/thumb/v7e-m/fpv4-sp/hard\libg_nano.a(lib_a-impure.o)
                0x20002e7c                _impure_ptr
 .data.impure_data
                0x20002e80       0x60 c:/mesh/arm_gcc/bin/../lib/gcc/arm-none-eabi/6.3.1/../../../../arm-none-eabi/lib/thumb/v7e-m/fpv4-sp/hard\libg_nano.a(lib_a-impure.o)
                0x20002ee0                . = ALIGN (0x4)
                0x20002ee0                PROVIDE (__preinit_array_start, .)
 *(.preinit_array)
                0x20002ee0                PROVIDE (__preinit_array_end, .)
                0x20002ee0                . = ALIGN (0x4)
                0x20002ee0                PROVIDE (__init_array_start, .)
 *(SORT(.init_array.*))
 *(.init_array)
 .init_array    0x20002ee0        0x4 c:/mesh/arm_gcc/bin/../lib/gcc/arm-none-eabi/6.3.1/thumb/v7e-m/fpv4-sp/hard/crtbegin.o
                0x20002ee4                PROVIDE (__init_array_end, .)
                0x20002ee4                . = ALIGN (0x4)
                [!provide]                PROVIDE (__fini_array_start, .)
 *(SORT(.fini_array.*))
 *(.fini_array)
 .fini_array    0x20002ee4        0x4 c:/mesh/arm_gcc/bin/../lib/gcc/arm-none-eabi/6.3.1/thumb/v7e-m/fpv4-sp/hard/crtbegin.o
                [!provide]                PROVIDE (__fini_array_end, .)
 *(.jcr*)
 .jcr           0x20002ee8        0x0 c:/mesh/arm_gcc/bin/../lib/gcc/arm-none-eabi/6.3.1/thumb/v7e-m/fpv4-sp/hard/crtbegin.o
 .jcr           0x20002ee8        0x4 c:/mesh/arm_gcc/bin/../lib/gcc/arm-none-eabi/6.3.1/thumb/v7e-m/fpv4-sp/hard/crtend.o
                0x20002eec                . = ALIGN (0x4)
                0x20002eec                __data_end__ = .
LOAD c:/mesh/arm_gcc/bin/../lib/gcc/arm-none-eabi/6.3.1/thumb/v7e-m/fpv4-sp/hard/crti.o
LOAD c:/mesh/arm_gcc/bin/../lib/gcc/arm-none-eabi/6.3.1/thumb/v7e-m/fpv4-sp/hard/crtbegin.o
LOAD c:/mesh/arm_gcc/bin/../lib/gcc/arm-none-eabi/6.3.1/../../../../arm-none-eabi/lib/thumb/v7e-m/fpv4-sp/hard/crt0.o
LOAD examples/light_switch/server/CMakeFiles/light_switch_server_nrf52840_xxAA_s140_6.0.0.dir/src/main.c.obj
LOAD examples/light_switch/server/CMakeFiles/light_switch_server_nrf52840_xxAA_s140_6.0.0.dir/__/__/__/mesh/stack/src/mesh_stack.c.obj
LOAD examples/light_switch/server/CMakeFiles/light_switch_server_nrf52840_xxAA_s140_6.0.0.dir/__/__/common/src/mesh_softdevice_init.c.obj
LOAD examples/light_switch/server/CMakeFiles/light_switch_server_nrf52840_xxAA_s140_6.0.0.dir/__/__/common/src/mesh_provisionee.c.obj
LOAD examples/light_switch/server/CMakeFiles/light_switch_server_nrf52840_xxAA_s140_6.0.0.dir/__/__/common/src/rtt_input.c.obj
LOAD examples/light_switch/server/CMakeFiles/light_switch_server_nrf52840_xxAA_s140_6.0.0.dir/__/__/common/src/simple_hal.c.obj
LOAD examples/light_switch/server/CMakeFiles/light_switch_server_nrf52840_xxAA_s140_6.0.0.dir/__/__/common/src/mesh_app_utils.c.obj
LOAD examples/light_switch/server/CMakeFiles/light_switch_server_nrf52840_xxAA_s140_6.0.0.dir/__/__/nrf_mesh_weak.c.obj
LOAD examples/light_switch/server/CMakeFiles/light_switch_server_nrf52840_xxAA_s140_6.0.0.dir/__/__/common/src/app_error_weak.c.obj
LOAD examples/light_switch/server/CMakeFiles/light_switch_server_nrf52840_xxAA_s140_6.0.0.dir/__/__/common/src/assertion_handler_weak.c.obj
LOAD examples/light_switch/server/CMakeFiles/light_switch_server_nrf52840_xxAA_s140_6.0.0.dir/__/__/__/mesh/core/src/internal_event.c.obj
LOAD examples/light_switch/server/CMakeFiles/light_switch_server_nrf52840_xxAA_s140_6.0.0.dir/__/__/__/mesh/core/src/nrf_mesh_configure.c.obj
LOAD examples/light_switch/server/CMakeFiles/light_switch_server_nrf52840_xxAA_s140_6.0.0.dir/__/__/__/mesh/core/src/aes.c.obj
LOAD examples/light_switch/server/CMakeFiles/light_switch_server_nrf52840_xxAA_s140_6.0.0.dir/__/__/__/mesh/core/src/msg_cache.c.obj
LOAD examples/light_switch/server/CMakeFiles/light_switch_server_nrf52840_xxAA_s140_6.0.0.dir/__/__/__/mesh/core/src/transport.c.obj
LOAD examples/light_switch/server/CMakeFiles/light_switch_server_nrf52840_xxAA_s140_6.0.0.dir/__/__/__/mesh/core/src/event.c.obj
LOAD examples/light_switch/server/CMakeFiles/light_switch_server_nrf52840_xxAA_s140_6.0.0.dir/__/__/__/mesh/core/src/packet_buffer.c.obj
LOAD examples/light_switch/server/CMakeFiles/light_switch_server_nrf52840_xxAA_s140_6.0.0.dir/__/__/__/mesh/core/src/flash_manager_defrag.c.obj
LOAD examples/light_switch/server/CMakeFiles/light_switch_server_nrf52840_xxAA_s140_6.0.0.dir/__/__/__/mesh/core/src/fifo.c.obj
LOAD examples/light_switch/server/CMakeFiles/light_switch_server_nrf52840_xxAA_s140_6.0.0.dir/__/__/__/mesh/core/src/nrf_flash.c.obj
LOAD examples/light_switch/server/CMakeFiles/light_switch_server_nrf52840_xxAA_s140_6.0.0.dir/__/__/__/mesh/core/src/packet_mgr.c.obj
LOAD examples/light_switch/server/CMakeFiles/light_switch_server_nrf52840_xxAA_s140_6.0.0.dir/__/__/__/mesh/core/src/net_state.c.obj
LOAD examples/light_switch/server/CMakeFiles/light_switch_server_nrf52840_xxAA_s140_6.0.0.dir/__/__/__/mesh/core/src/mesh_flash.c.obj
LOAD examples/light_switch/server/CMakeFiles/light_switch_server_nrf52840_xxAA_s140_6.0.0.dir/__/__/__/mesh/core/src/nrf_mesh_utils.c.obj
LOAD examples/light_switch/server/CMakeFiles/light_switch_server_nrf52840_xxAA_s140_6.0.0.dir/__/__/__/mesh/core/src/nrf_mesh.c.obj
LOAD examples/light_switch/server/CMakeFiles/light_switch_server_nrf52840_xxAA_s140_6.0.0.dir/__/__/__/mesh/core/src/queue.c.obj
LOAD examples/light_switch/server/CMakeFiles/light_switch_server_nrf52840_xxAA_s140_6.0.0.dir/__/__/__/mesh/core/src/hal.c.obj
LOAD examples/light_switch/server/CMakeFiles/light_switch_server_nrf52840_xxAA_s140_6.0.0.dir/__/__/__/mesh/core/src/aes_cmac.c.obj
LOAD examples/light_switch/server/CMakeFiles/light_switch_server_nrf52840_xxAA_s140_6.0.0.dir/__/__/__/mesh/core/src/timer_scheduler.c.obj
LOAD examples/light_switch/server/CMakeFiles/light_switch_server_nrf52840_xxAA_s140_6.0.0.dir/__/__/__/mesh/core/src/timer.c.obj
LOAD examples/light_switch/server/CMakeFiles/light_switch_server_nrf52840_xxAA_s140_6.0.0.dir/__/__/__/mesh/core/src/ticker.c.obj
LOAD examples/light_switch/server/CMakeFiles/light_switch_server_nrf52840_xxAA_s140_6.0.0.dir/__/__/__/mesh/core/src/rand.c.obj
LOAD examples/light_switch/server/CMakeFiles/light_switch_server_nrf52840_xxAA_s140_6.0.0.dir/__/__/__/mesh/core/src/nrf_mesh_opt.c.obj
LOAD examples/light_switch/server/CMakeFiles/light_switch_server_nrf52840_xxAA_s140_6.0.0.dir/__/__/__/mesh/core/src/timeslot.c.obj
LOAD examples/light_switch/server/CMakeFiles/light_switch_server_nrf52840_xxAA_s140_6.0.0.dir/__/__/__/mesh/core/src/bearer_event.c.obj
LOAD examples/light_switch/server/CMakeFiles/light_switch_server_nrf52840_xxAA_s140_6.0.0.dir/__/__/__/mesh/core/src/enc.c.obj
LOAD examples/light_switch/server/CMakeFiles/light_switch_server_nrf52840_xxAA_s140_6.0.0.dir/__/__/__/mesh/core/src/network.c.obj
LOAD examples/light_switch/server/CMakeFiles/light_switch_server_nrf52840_xxAA_s140_6.0.0.dir/__/__/__/mesh/core/src/net_packet.c.obj
LOAD examples/light_switch/server/CMakeFiles/light_switch_server_nrf52840_xxAA_s140_6.0.0.dir/__/__/__/mesh/core/src/msqueue.c.obj
LOAD examples/light_switch/server/CMakeFiles/light_switch_server_nrf52840_xxAA_s140_6.0.0.dir/__/__/__/mesh/core/src/nrf_mesh_keygen.c.obj
LOAD examples/light_switch/server/CMakeFiles/light_switch_server_nrf52840_xxAA_s140_6.0.0.dir/__/__/__/mesh/core/src/cache.c.obj
LOAD examples/light_switch/server/CMakeFiles/light_switch_server_nrf52840_xxAA_s140_6.0.0.dir/__/__/__/mesh/core/src/list.c.obj
LOAD examples/light_switch/server/CMakeFiles/light_switch_server_nrf52840_xxAA_s140_6.0.0.dir/__/__/__/mesh/core/src/log.c.obj
LOAD examples/light_switch/server/CMakeFiles/light_switch_server_nrf52840_xxAA_s140_6.0.0.dir/__/__/__/mesh/core/src/flash_manager.c.obj
LOAD examples/light_switch/server/CMakeFiles/light_switch_server_nrf52840_xxAA_s140_6.0.0.dir/__/__/__/mesh/core/src/ccm_soft.c.obj
LOAD examples/light_switch/server/CMakeFiles/light_switch_server_nrf52840_xxAA_s140_6.0.0.dir/__/__/__/mesh/core/src/toolchain.c.obj
LOAD examples/light_switch/server/CMakeFiles/light_switch_server_nrf52840_xxAA_s140_6.0.0.dir/__/__/__/mesh/core/src/replay_cache.c.obj
LOAD examples/light_switch/server/CMakeFiles/light_switch_server_nrf52840_xxAA_s140_6.0.0.dir/__/__/__/mesh/core/src/beacon.c.obj
LOAD examples/light_switch/server/CMakeFiles/light_switch_server_nrf52840_xxAA_s140_6.0.0.dir/__/__/__/mesh/core/src/flash_manager_internal.c.obj
LOAD examples/light_switch/server/CMakeFiles/light_switch_server_nrf52840_xxAA_s140_6.0.0.dir/__/__/__/mesh/core/src/core_tx.c.obj
LOAD examples/light_switch/server/CMakeFiles/light_switch_server_nrf52840_xxAA_s140_6.0.0.dir/__/__/__/mesh/core/src/heartbeat.c.obj
LOAD examples/light_switch/server/CMakeFiles/light_switch_server_nrf52840_xxAA_s140_6.0.0.dir/__/__/__/mesh/core/src/net_beacon.c.obj
LOAD examples/light_switch/server/CMakeFiles/light_switch_server_nrf52840_xxAA_s140_6.0.0.dir/__/__/__/mesh/core/src/fsm.c.obj
LOAD examples/light_switch/server/CMakeFiles/light_switch_server_nrf52840_xxAA_s140_6.0.0.dir/__/__/__/mesh/core/src/core_tx_adv.c.obj
LOAD examples/light_switch/server/CMakeFiles/light_switch_server_nrf52840_xxAA_s140_6.0.0.dir/__/__/__/mesh/bearer/src/ad_listener.c.obj
LOAD examples/light_switch/server/CMakeFiles/light_switch_server_nrf52840_xxAA_s140_6.0.0.dir/__/__/__/mesh/bearer/src/ad_type_filter.c.obj
LOAD examples/light_switch/server/CMakeFiles/light_switch_server_nrf52840_xxAA_s140_6.0.0.dir/__/__/__/mesh/bearer/src/adv_packet_filter.c.obj
LOAD examples/light_switch/server/CMakeFiles/light_switch_server_nrf52840_xxAA_s140_6.0.0.dir/__/__/__/mesh/bearer/src/advertiser.c.obj
LOAD examples/light_switch/server/CMakeFiles/light_switch_server_nrf52840_xxAA_s140_6.0.0.dir/__/__/__/mesh/bearer/src/bearer_handler.c.obj
LOAD examples/light_switch/server/CMakeFiles/light_switch_server_nrf52840_xxAA_s140_6.0.0.dir/__/__/__/mesh/bearer/src/broadcast.c.obj
LOAD examples/light_switch/server/CMakeFiles/light_switch_server_nrf52840_xxAA_s140_6.0.0.dir/__/__/__/mesh/bearer/src/filter_engine.c.obj
LOAD examples/light_switch/server/CMakeFiles/light_switch_server_nrf52840_xxAA_s140_6.0.0.dir/__/__/__/mesh/bearer/src/gap_address_filter.c.obj
LOAD examples/light_switch/server/CMakeFiles/light_switch_server_nrf52840_xxAA_s140_6.0.0.dir/__/__/__/mesh/bearer/src/radio_config.c.obj
LOAD examples/light_switch/server/CMakeFiles/light_switch_server_nrf52840_xxAA_s140_6.0.0.dir/__/__/__/mesh/bearer/src/rssi_filter.c.obj
LOAD examples/light_switch/server/CMakeFiles/light_switch_server_nrf52840_xxAA_s140_6.0.0.dir/__/__/__/mesh/bearer/src/scanner.c.obj
LOAD examples/light_switch/server/CMakeFiles/light_switch_server_nrf52840_xxAA_s140_6.0.0.dir/__/__/__/mesh/bearer/src/mesh_pa_lna.c.obj
LOAD examples/light_switch/server/CMakeFiles/light_switch_server_nrf52840_xxAA_s140_6.0.0.dir/__/__/__/models/simple_on_off/src/simple_on_off_server.c.obj
LOAD examples/light_switch/server/CMakeFiles/light_switch_server_nrf52840_xxAA_s140_6.0.0.dir/__/__/__/models/config/src/composition_data.c.obj
LOAD examples/light_switch/server/CMakeFiles/light_switch_server_nrf52840_xxAA_s140_6.0.0.dir/__/__/__/models/config/src/config_server.c.obj
LOAD examples/light_switch/server/CMakeFiles/light_switch_server_nrf52840_xxAA_s140_6.0.0.dir/__/__/__/models/config/src/packed_index_list.c.obj
LOAD examples/light_switch/server/CMakeFiles/light_switch_server_nrf52840_xxAA_s140_6.0.0.dir/__/__/__/models/health/src/health_server.c.obj
LOAD examples/light_switch/server/CMakeFiles/light_switch_server_nrf52840_xxAA_s140_6.0.0.dir/__/__/__/mesh/access/src/access_publish.c.obj
LOAD examples/light_switch/server/CMakeFiles/light_switch_server_nrf52840_xxAA_s140_6.0.0.dir/__/__/__/mesh/access/src/access.c.obj
LOAD examples/light_switch/server/CMakeFiles/light_switch_server_nrf52840_xxAA_s140_6.0.0.dir/__/__/__/mesh/access/src/access_reliable.c.obj
LOAD examples/light_switch/server/CMakeFiles/light_switch_server_nrf52840_xxAA_s140_6.0.0.dir/__/__/__/mesh/access/src/access_loopback.c.obj
LOAD examples/light_switch/server/CMakeFiles/light_switch_server_nrf52840_xxAA_s140_6.0.0.dir/__/__/__/mesh/access/src/device_state_manager.c.obj
LOAD examples/light_switch/server/CMakeFiles/light_switch_server_nrf52840_xxAA_s140_6.0.0.dir/__/__/__/mesh/prov/src/prov_provisionee.c.obj
LOAD examples/light_switch/server/CMakeFiles/light_switch_server_nrf52840_xxAA_s140_6.0.0.dir/__/__/__/mesh/prov/src/nrf_mesh_prov.c.obj
LOAD examples/light_switch/server/CMakeFiles/light_switch_server_nrf52840_xxAA_s140_6.0.0.dir/__/__/__/mesh/prov/src/provisioning.c.obj
LOAD examples/light_switch/server/CMakeFiles/light_switch_server_nrf52840_xxAA_s140_6.0.0.dir/__/__/__/mesh/prov/src/prov_beacon.c.obj
LOAD examples/light_switch/server/CMakeFiles/light_switch_server_nrf52840_xxAA_s140_6.0.0.dir/__/__/__/mesh/prov/src/prov_utils.c.obj
LOAD examples/light_switch/server/CMakeFiles/light_switch_server_nrf52840_xxAA_s140_6.0.0.dir/__/__/__/mesh/prov/src/prov_bearer_adv.c.obj
LOAD examples/light_switch/server/CMakeFiles/light_switch_server_nrf52840_xxAA_s140_6.0.0.dir/C_/b/nRF5_SDK_15.0.0_a53641a/modules/nrfx/mdk/system_nrf52840.c.obj
LOAD examples/light_switch/server/CMakeFiles/light_switch_server_nrf52840_xxAA_s140_6.0.0.dir/C_/b/nRF5_SDK_15.0.0_a53641a/modules/nrfx/mdk/gcc_startup_nrf52840.S.obj
LOAD examples/light_switch/server/CMakeFiles/light_switch_server_nrf52840_xxAA_s140_6.0.0.dir/C_/b/nRF5_SDK_15.0.0_a53641a/components/libraries/util/app_error.c.obj
LOAD examples/light_switch/server/CMakeFiles/light_switch_server_nrf52840_xxAA_s140_6.0.0.dir/C_/b/nRF5_SDK_15.0.0_a53641a/components/libraries/util/app_util_platform.c.obj
LOAD examples/light_switch/server/CMakeFiles/light_switch_server_nrf52840_xxAA_s140_6.0.0.dir/C_/b/nRF5_SDK_15.0.0_a53641a/components/libraries/timer/app_timer.c.obj
LOAD examples/light_switch/server/CMakeFiles/light_switch_server_nrf52840_xxAA_s140_6.0.0.dir/C_/b/nRF5_SDK_15.0.0_a53641a/components/libraries/util/app_error_handler_gcc.c.obj
LOAD external/rtt/librtt_nrf52840_xxAA.a
LOAD external/micro-ecc/libuECC_nrf52840_xxAA.a
START GROUP
LOAD c:/mesh/arm_gcc/bin/../lib/gcc/arm-none-eabi/6.3.1/thumb/v7e-m/fpv4-sp/hard\libgcc.a
LOAD c:/mesh/arm_gcc/bin/../lib/gcc/arm-none-eabi/6.3.1/../../../../arm-none-eabi/lib/thumb/v7e-m/fpv4-sp/hard\libg_nano.a
LOAD c:/mesh/arm_gcc/bin/../lib/gcc/arm-none-eabi/6.3.1/../../../../arm-none-eabi/lib/thumb/v7e-m/fpv4-sp/hard\libc_nano.a
END GROUP
START GROUP
LOAD c:/mesh/arm_gcc/bin/../lib/gcc/arm-none-eabi/6.3.1/thumb/v7e-m/fpv4-sp/hard\libgcc.a
LOAD c:/mesh/arm_gcc/bin/../lib/gcc/arm-none-eabi/6.3.1/../../../../arm-none-eabi/lib/thumb/v7e-m/fpv4-sp/hard\libc_nano.a
END GROUP
LOAD c:/mesh/arm_gcc/bin/../lib/gcc/arm-none-eabi/6.3.1/thumb/v7e-m/fpv4-sp/hard/crtend.o
LOAD c:/mesh/arm_gcc/bin/../lib/gcc/arm-none-eabi/6.3.1/thumb/v7e-m/fpv4-sp/hard/crtn.o
START GROUP
LOAD c:/mesh/arm_gcc/bin/../lib/gcc/arm-none-eabi/6.3.1/thumb/v7e-m/fpv4-sp/hard\libgcc.a
LOAD c:/mesh/arm_gcc/bin/../lib/gcc/arm-none-eabi/6.3.1/../../../../arm-none-eabi/lib/thumb/v7e-m/fpv4-sp/hard\libc.a
LOAD c:/mesh/arm_gcc/bin/../lib/gcc/arm-none-eabi/6.3.1/../../../../arm-none-eabi/lib/thumb/v7e-m/fpv4-sp/hard\libnosys.a
END GROUP

.igot.plt       0x20002eec        0x0 load address 0x00039b38
 .igot.plt      0x20002eec        0x0 c:/mesh/arm_gcc/bin/../lib/gcc/arm-none-eabi/6.3.1/thumb/v7e-m/fpv4-sp/hard/crtbegin.o
                0x20002eec                . = ALIGN (0x4)

.svc_data       0x20002eec        0x0
                [!provide]                PROVIDE (__start_svc_data, .)
 *(.svc_data)
                [!provide]                PROVIDE (__stop_svc_data, .)

.fs_data        0x20002eec        0x0
                [!provide]                PROVIDE (__start_fs_data, .)
 *(.fs_data)
                [!provide]                PROVIDE (__stop_fs_data, .)

.log_dynamic_data
                0x20002eec        0x0
                [!provide]                PROVIDE (__start_log_dynamic_data, .)
 *(.log_dynamic_data)
                [!provide]                PROVIDE (__stop_log_dynamic_data, .)

.cli_sorted_cmd_ptrs
                0x20002eec        0x0
                [!provide]                PROVIDE (__start_cli_sorted_cmd_ptrs, .)
 *(.cli_sorted_cmd_ptrs)
                [!provide]                PROVIDE (__stop_cli_sorted_cmd_ptrs, .)

.bss            0x20002ef0     0x30b8 load address 0x00039b40
                0x20002ef0                . = ALIGN (0x4)
                0x20002ef0                __bss_start__ = .
 *(.bss*)
 .bss           0x20002ef0       0x1c c:/mesh/arm_gcc/bin/../lib/gcc/arm-none-eabi/6.3.1/thumb/v7e-m/fpv4-sp/hard/crtbegin.o
 .bss.m_device_provisioned
                0x20002f0c        0x1 examples/light_switch/server/CMakeFiles/light_switch_server_nrf52840_xxAA_s140_6.0.0.dir/src/main.c.obj
 *fill*         0x20002f0d        0x3 
 .bss.m_server  0x20002f10        0xc examples/light_switch/server/CMakeFiles/light_switch_server_nrf52840_xxAA_s140_6.0.0.dir/src/main.c.obj
 .bss.m_health_server
                0x20002f1c       0x5c examples/light_switch/server/CMakeFiles/light_switch_server_nrf52840_xxAA_s140_6.0.0.dir/__/__/__/mesh/stack/src/mesh_stack.c.obj
 .bss.m_device_provisioned
                0x20002f78        0x1 examples/light_switch/server/CMakeFiles/light_switch_server_nrf52840_xxAA_s140_6.0.0.dir/__/__/common/src/mesh_provisionee.c.obj
 *fill*         0x20002f79        0x3 
 .bss.m_params  0x20002f7c        0xc examples/light_switch/server/CMakeFiles/light_switch_server_nrf52840_xxAA_s140_6.0.0.dir/__/__/common/src/mesh_provisionee.c.obj
 .bss.m_private_key
                0x20002f88       0x20 examples/light_switch/server/CMakeFiles/light_switch_server_nrf52840_xxAA_s140_6.0.0.dir/__/__/common/src/mesh_provisionee.c.obj
 .bss.m_prov_bearer_adv
                0x20002fa8      0x1c8 examples/light_switch/server/CMakeFiles/light_switch_server_nrf52840_xxAA_s140_6.0.0.dir/__/__/common/src/mesh_provisionee.c.obj
 .bss.m_prov_ctx
                0x20003170      0x134 examples/light_switch/server/CMakeFiles/light_switch_server_nrf52840_xxAA_s140_6.0.0.dir/__/__/common/src/mesh_provisionee.c.obj
 .bss.m_public_key
                0x200032a4       0x40 examples/light_switch/server/CMakeFiles/light_switch_server_nrf52840_xxAA_s140_6.0.0.dir/__/__/common/src/mesh_provisionee.c.obj
 .bss.m_rtt_input_handler
                0x200032e4        0x4 examples/light_switch/server/CMakeFiles/light_switch_server_nrf52840_xxAA_s140_6.0.0.dir/__/__/common/src/rtt_input.c.obj
 .bss.m_rtt_timer_data
                0x200032e8       0x20 examples/light_switch/server/CMakeFiles/light_switch_server_nrf52840_xxAA_s140_6.0.0.dir/__/__/common/src/rtt_input.c.obj
 .bss.m_blink_count
                0x20003308        0x4 examples/light_switch/server/CMakeFiles/light_switch_server_nrf52840_xxAA_s140_6.0.0.dir/__/__/common/src/simple_hal.c.obj
 .bss.m_blink_mask
                0x2000330c        0x4 examples/light_switch/server/CMakeFiles/light_switch_server_nrf52840_xxAA_s140_6.0.0.dir/__/__/common/src/simple_hal.c.obj
 .bss.m_blink_timer_data
                0x20003310       0x20 examples/light_switch/server/CMakeFiles/light_switch_server_nrf52840_xxAA_s140_6.0.0.dir/__/__/common/src/simple_hal.c.obj
 .bss.m_button_handler_cb
                0x20003330        0x4 examples/light_switch/server/CMakeFiles/light_switch_server_nrf52840_xxAA_s140_6.0.0.dir/__/__/common/src/simple_hal.c.obj
 .bss.m_last_button_press
                0x20003334        0x4 examples/light_switch/server/CMakeFiles/light_switch_server_nrf52840_xxAA_s140_6.0.0.dir/__/__/common/src/simple_hal.c.obj
 .bss.m_uuid    0x20003338       0x10 examples/light_switch/server/CMakeFiles/light_switch_server_nrf52840_xxAA_s140_6.0.0.dir/__/__/__/mesh/core/src/nrf_mesh_configure.c.obj
 .bss.m_msg_cache
                0x20003348      0x100 examples/light_switch/server/CMakeFiles/light_switch_server_nrf52840_xxAA_s140_6.0.0.dir/__/__/__/mesh/core/src/msg_cache.c.obj
 .bss.m_msg_cache_head
                0x20003448        0x4 examples/light_switch/server/CMakeFiles/light_switch_server_nrf52840_xxAA_s140_6.0.0.dir/__/__/__/mesh/core/src/msg_cache.c.obj
 .bss.m_control_packet_consumer_count
                0x2000344c        0x4 examples/light_switch/server/CMakeFiles/light_switch_server_nrf52840_xxAA_s140_6.0.0.dir/__/__/__/mesh/core/src/transport.c.obj
 .bss.m_control_packet_consumers
                0x20003450        0x8 examples/light_switch/server/CMakeFiles/light_switch_server_nrf52840_xxAA_s140_6.0.0.dir/__/__/__/mesh/core/src/transport.c.obj
 .bss.m_sar_alloc
                0x20003458        0x4 examples/light_switch/server/CMakeFiles/light_switch_server_nrf52840_xxAA_s140_6.0.0.dir/__/__/__/mesh/core/src/transport.c.obj
 .bss.m_sar_process_flag
                0x2000345c        0x4 examples/light_switch/server/CMakeFiles/light_switch_server_nrf52840_xxAA_s140_6.0.0.dir/__/__/__/mesh/core/src/transport.c.obj
 .bss.m_sar_release
                0x20003460        0x4 examples/light_switch/server/CMakeFiles/light_switch_server_nrf52840_xxAA_s140_6.0.0.dir/__/__/__/mesh/core/src/transport.c.obj
 .bss.m_sar_session_cache
                0x20003464       0x40 examples/light_switch/server/CMakeFiles/light_switch_server_nrf52840_xxAA_s140_6.0.0.dir/__/__/__/mesh/core/src/transport.c.obj
 .bss.m_sar_session_cache_head
                0x200034a4        0x4 examples/light_switch/server/CMakeFiles/light_switch_server_nrf52840_xxAA_s140_6.0.0.dir/__/__/__/mesh/core/src/transport.c.obj
 .bss.m_trs_config
                0x200034a8       0x18 examples/light_switch/server/CMakeFiles/light_switch_server_nrf52840_xxAA_s140_6.0.0.dir/__/__/__/mesh/core/src/transport.c.obj
 .bss.m_trs_sar_sessions
                0x200034c0      0x1b0 examples/light_switch/server/CMakeFiles/light_switch_server_nrf52840_xxAA_s140_6.0.0.dir/__/__/__/mesh/core/src/transport.c.obj
 .bss.m_event_handler_state
                0x20003670        0x1 examples/light_switch/server/CMakeFiles/light_switch_server_nrf52840_xxAA_s140_6.0.0.dir/__/__/__/mesh/core/src/event.c.obj
 *fill*         0x20003671        0x3 
 .bss.mp_evt_handlers_head
                0x20003674        0x4 examples/light_switch/server/CMakeFiles/light_switch_server_nrf52840_xxAA_s140_6.0.0.dir/__/__/__/mesh/core/src/event.c.obj
 .bss.m_defrag  0x20003678       0x1c examples/light_switch/server/CMakeFiles/light_switch_server_nrf52840_xxAA_s140_6.0.0.dir/__/__/__/mesh/core/src/flash_manager_defrag.c.obj
 .bss.m_token   0x20003694        0x2 examples/light_switch/server/CMakeFiles/light_switch_server_nrf52840_xxAA_s140_6.0.0.dir/__/__/__/mesh/core/src/flash_manager_defrag.c.obj
 *fill*         0x20003696        0x2 
 .bss.mp_recovery_area
                0x20003698        0x4 examples/light_switch/server/CMakeFiles/light_switch_server_nrf52840_xxAA_s140_6.0.0.dir/__/__/__/mesh/core/src/flash_manager_defrag.c.obj
 .bss.p_null_ptr.10537
                0x2000369c        0x4 examples/light_switch/server/CMakeFiles/light_switch_server_nrf52840_xxAA_s140_6.0.0.dir/__/__/__/mesh/core/src/flash_manager_defrag.c.obj
 .bss.m_pool    0x200036a0     0x1000 examples/light_switch/server/CMakeFiles/light_switch_server_nrf52840_xxAA_s140_6.0.0.dir/__/__/__/mesh/core/src/packet_mgr.c.obj
 .bss.mp_free_head
                0x200046a0        0x4 examples/light_switch/server/CMakeFiles/light_switch_server_nrf52840_xxAA_s140_6.0.0.dir/__/__/__/mesh/core/src/packet_mgr.c.obj
 .bss.iv_state_set.10219
                0x200046a4        0x1 examples/light_switch/server/CMakeFiles/light_switch_server_nrf52840_xxAA_s140_6.0.0.dir/__/__/__/mesh/core/src/net_state.c.obj
 *fill*         0x200046a5        0x3 
 .bss.lock_count.10195
                0x200046a8        0x4 examples/light_switch/server/CMakeFiles/light_switch_server_nrf52840_xxAA_s140_6.0.0.dir/__/__/__/mesh/core/src/net_state.c.obj
 .bss.m_flash_manager
                0x200046ac       0x24 examples/light_switch/server/CMakeFiles/light_switch_server_nrf52840_xxAA_s140_6.0.0.dir/__/__/__/mesh/core/src/net_state.c.obj
 .bss.m_iv_update_timer
                0x200046d0       0x18 examples/light_switch/server/CMakeFiles/light_switch_server_nrf52840_xxAA_s140_6.0.0.dir/__/__/__/mesh/core/src/net_state.c.obj
 .bss.m_mesh_evt_handler
                0x200046e8        0xc examples/light_switch/server/CMakeFiles/light_switch_server_nrf52840_xxAA_s140_6.0.0.dir/__/__/__/mesh/core/src/net_state.c.obj
 .bss.m_net_state
                0x200046f4       0x14 examples/light_switch/server/CMakeFiles/light_switch_server_nrf52840_xxAA_s140_6.0.0.dir/__/__/__/mesh/core/src/net_state.c.obj
 .bss.m_seqnum_allocation_in_progress
                0x20004708        0x1 examples/light_switch/server/CMakeFiles/light_switch_server_nrf52840_xxAA_s140_6.0.0.dir/__/__/__/mesh/core/src/net_state.c.obj
 .bss.m_test_mode
                0x20004709        0x1 examples/light_switch/server/CMakeFiles/light_switch_server_nrf52840_xxAA_s140_6.0.0.dir/__/__/__/mesh/core/src/net_state.c.obj
 *fill*         0x2000470a        0x2 
 .bss.m_event_flag
                0x2000470c        0x4 examples/light_switch/server/CMakeFiles/light_switch_server_nrf52840_xxAA_s140_6.0.0.dir/__/__/__/mesh/core/src/mesh_flash.c.obj
 .bss.m_suspended
                0x20004710        0x1 examples/light_switch/server/CMakeFiles/light_switch_server_nrf52840_xxAA_s140_6.0.0.dir/__/__/__/mesh/core/src/mesh_flash.c.obj
 *fill*         0x20004711        0x3 
 .bss.m_users   0x20004714      0x234 examples/light_switch/server/CMakeFiles/light_switch_server_nrf52840_xxAA_s140_6.0.0.dir/__/__/__/mesh/core/src/mesh_flash.c.obj
 .bss.m_is_enabled
                0x20004948        0x1 examples/light_switch/server/CMakeFiles/light_switch_server_nrf52840_xxAA_s140_6.0.0.dir/__/__/__/mesh/core/src/nrf_mesh.c.obj
 .bss.m_is_initialized
                0x20004949        0x1 examples/light_switch/server/CMakeFiles/light_switch_server_nrf52840_xxAA_s140_6.0.0.dir/__/__/__/mesh/core/src/nrf_mesh.c.obj
 *fill*         0x2000494a        0x2 
 .bss.m_rx_cb   0x2000494c        0x4 examples/light_switch/server/CMakeFiles/light_switch_server_nrf52840_xxAA_s140_6.0.0.dir/__/__/__/mesh/core/src/nrf_mesh.c.obj
 .bss.m_tx_token
                0x20004950        0x4 examples/light_switch/server/CMakeFiles/light_switch_server_nrf52840_xxAA_s140_6.0.0.dir/__/__/__/mesh/core/src/nrf_mesh.c.obj
 .bss.m_event_flag
                0x20004954        0x4 examples/light_switch/server/CMakeFiles/light_switch_server_nrf52840_xxAA_s140_6.0.0.dir/__/__/__/mesh/core/src/timer_scheduler.c.obj
 .bss.m_scheduler
                0x20004958       0x10 examples/light_switch/server/CMakeFiles/light_switch_server_nrf52840_xxAA_s140_6.0.0.dir/__/__/__/mesh/core/src/timer_scheduler.c.obj
 .bss.m_attributes
                0x20004968        0x3 examples/light_switch/server/CMakeFiles/light_switch_server_nrf52840_xxAA_s140_6.0.0.dir/__/__/__/mesh/core/src/timer.c.obj
 *fill*         0x2000496b        0x1 
 .bss.m_callbacks
                0x2000496c        0xc examples/light_switch/server/CMakeFiles/light_switch_server_nrf52840_xxAA_s140_6.0.0.dir/__/__/__/mesh/core/src/timer.c.obj
 .bss.m_is_in_ts
                0x20004978        0x1 examples/light_switch/server/CMakeFiles/light_switch_server_nrf52840_xxAA_s140_6.0.0.dir/__/__/__/mesh/core/src/timer.c.obj
 *fill*         0x20004979        0x3 
 .bss.m_reference_time
                0x2000497c        0x4 examples/light_switch/server/CMakeFiles/light_switch_server_nrf52840_xxAA_s140_6.0.0.dir/__/__/__/mesh/core/src/timer.c.obj
 .bss.m_timeouts
                0x20004980        0xc examples/light_switch/server/CMakeFiles/light_switch_server_nrf52840_xxAA_s140_6.0.0.dir/__/__/__/mesh/core/src/timer.c.obj
 .bss.m_timer_mut
                0x2000498c        0x4 examples/light_switch/server/CMakeFiles/light_switch_server_nrf52840_xxAA_s140_6.0.0.dir/__/__/__/mesh/core/src/timer.c.obj
 .bss.m_ts_end_time
                0x20004990        0x4 examples/light_switch/server/CMakeFiles/light_switch_server_nrf52840_xxAA_s140_6.0.0.dir/__/__/__/mesh/core/src/timer.c.obj
 .bss.mp_ppi_tasks
                0x20004994        0xc examples/light_switch/server/CMakeFiles/light_switch_server_nrf52840_xxAA_s140_6.0.0.dir/__/__/__/mesh/core/src/timer.c.obj
 .bss.m_current_time
                0x200049a0        0x4 examples/light_switch/server/CMakeFiles/light_switch_server_nrf52840_xxAA_s140_6.0.0.dir/__/__/__/mesh/core/src/ticker.c.obj
 .bss.m_timer   0x200049a4       0x18 examples/light_switch/server/CMakeFiles/light_switch_server_nrf52840_xxAA_s140_6.0.0.dir/__/__/__/mesh/core/src/ticker.c.obj
 .bss.m_current_timeslot
                0x200049bc       0x1c examples/light_switch/server/CMakeFiles/light_switch_server_nrf52840_xxAA_s140_6.0.0.dir/__/__/__/mesh/core/src/timeslot.c.obj
 .bss.m_lfclk_ppm
                0x200049d8        0x4 examples/light_switch/server/CMakeFiles/light_switch_server_nrf52840_xxAA_s140_6.0.0.dir/__/__/__/mesh/core/src/timeslot.c.obj
 .bss.m_radio_request_earliest
                0x200049dc       0x10 examples/light_switch/server/CMakeFiles/light_switch_server_nrf52840_xxAA_s140_6.0.0.dir/__/__/__/mesh/core/src/timeslot.c.obj
 .bss.m_state_lock
                0x200049ec        0x1 examples/light_switch/server/CMakeFiles/light_switch_server_nrf52840_xxAA_s140_6.0.0.dir/__/__/__/mesh/core/src/timeslot.c.obj
 .bss.m_timeslot_forced_command
                0x200049ed        0x1 examples/light_switch/server/CMakeFiles/light_switch_server_nrf52840_xxAA_s140_6.0.0.dir/__/__/__/mesh/core/src/timeslot.c.obj
 *fill*         0x200049ee        0x2 
 .bss.s_last_rtc_value.9597
                0x200049f0        0x8 examples/light_switch/server/CMakeFiles/light_switch_server_nrf52840_xxAA_s140_6.0.0.dir/__/__/__/mesh/core/src/timeslot.c.obj
 .bss.m_bearer_event_fifo
                0x200049f8       0x14 examples/light_switch/server/CMakeFiles/light_switch_server_nrf52840_xxAA_s140_6.0.0.dir/__/__/__/mesh/core/src/bearer_event.c.obj
 .bss.m_bearer_event_fifo_buffer
                0x20004a0c      0x100 examples/light_switch/server/CMakeFiles/light_switch_server_nrf52840_xxAA_s140_6.0.0.dir/__/__/__/mesh/core/src/bearer_event.c.obj
 .bss.m_critical
                0x20004b0c        0x4 examples/light_switch/server/CMakeFiles/light_switch_server_nrf52840_xxAA_s140_6.0.0.dir/__/__/__/mesh/core/src/bearer_event.c.obj
 .bss.m_flag_count
                0x20004b10        0x4 examples/light_switch/server/CMakeFiles/light_switch_server_nrf52840_xxAA_s140_6.0.0.dir/__/__/__/mesh/core/src/bearer_event.c.obj
 .bss.m_flag_event_callbacks
                0x20004b14       0x24 examples/light_switch/server/CMakeFiles/light_switch_server_nrf52840_xxAA_s140_6.0.0.dir/__/__/__/mesh/core/src/bearer_event.c.obj
 .bss.m_flags   0x20004b38        0x4 examples/light_switch/server/CMakeFiles/light_switch_server_nrf52840_xxAA_s140_6.0.0.dir/__/__/__/mesh/core/src/bearer_event.c.obj
 .bss.m_irq_priority
                0x20004b3c        0x1 examples/light_switch/server/CMakeFiles/light_switch_server_nrf52840_xxAA_s140_6.0.0.dir/__/__/__/mesh/core/src/bearer_event.c.obj
 *fill*         0x20004b3d        0x3 
 .bss.m_sequential_event_queue
                0x20004b40        0x8 examples/light_switch/server/CMakeFiles/light_switch_server_nrf52840_xxAA_s140_6.0.0.dir/__/__/__/mesh/core/src/bearer_event.c.obj
 .bss.s_recursion_guard.9725
                0x20004b48        0x1 examples/light_switch/server/CMakeFiles/light_switch_server_nrf52840_xxAA_s140_6.0.0.dir/__/__/__/mesh/core/src/bearer_event.c.obj
 *fill*         0x20004b49        0x3 
 .bss.m_relay_check_cb
                0x20004b4c        0x4 examples/light_switch/server/CMakeFiles/light_switch_server_nrf52840_xxAA_s140_6.0.0.dir/__/__/__/mesh/core/src/network.c.obj
 .bss.m_relay_enable
                0x20004b50        0x1 examples/light_switch/server/CMakeFiles/light_switch_server_nrf52840_xxAA_s140_6.0.0.dir/__/__/__/mesh/core/src/network.c.obj
 *fill*         0x20004b51        0x3 
 .bss.m_action_queue
                0x20004b54        0xc examples/light_switch/server/CMakeFiles/light_switch_server_nrf52840_xxAA_s140_6.0.0.dir/__/__/__/mesh/core/src/flash_manager.c.obj
 .bss.m_action_queue_buffer
                0x20004b60      0x104 examples/light_switch/server/CMakeFiles/light_switch_server_nrf52840_xxAA_s140_6.0.0.dir/__/__/__/mesh/core/src/flash_manager.c.obj
 .bss.m_action_state
                0x20004c64        0x1 examples/light_switch/server/CMakeFiles/light_switch_server_nrf52840_xxAA_s140_6.0.0.dir/__/__/__/mesh/core/src/flash_manager.c.obj
 *fill*         0x20004c65        0x3 
 .bss.m_memory_listener_queue
                0x20004c68        0x8 examples/light_switch/server/CMakeFiles/light_switch_server_nrf52840_xxAA_s140_6.0.0.dir/__/__/__/mesh/core/src/flash_manager.c.obj
 .bss.m_processing_flag
                0x20004c70        0x4 examples/light_switch/server/CMakeFiles/light_switch_server_nrf52840_xxAA_s140_6.0.0.dir/__/__/__/mesh/core/src/flash_manager.c.obj
 .bss.m_queue_empty_cb
                0x20004c74        0x4 examples/light_switch/server/CMakeFiles/light_switch_server_nrf52840_xxAA_s140_6.0.0.dir/__/__/__/mesh/core/src/flash_manager.c.obj
 .bss.m_state   0x20004c78        0x1 examples/light_switch/server/CMakeFiles/light_switch_server_nrf52840_xxAA_s140_6.0.0.dir/__/__/__/mesh/core/src/flash_manager.c.obj
 *fill*         0x20004c79        0x1 
 .bss.m_token   0x20004c7a        0x2 examples/light_switch/server/CMakeFiles/light_switch_server_nrf52840_xxAA_s140_6.0.0.dir/__/__/__/mesh/core/src/flash_manager.c.obj
 .bss.p_current.11445
                0x20004c7c        0x4 examples/light_switch/server/CMakeFiles/light_switch_server_nrf52840_xxAA_s140_6.0.0.dir/__/__/__/mesh/core/src/flash_manager.c.obj
 .bss.result.11446
                0x20004c80        0x1 examples/light_switch/server/CMakeFiles/light_switch_server_nrf52840_xxAA_s140_6.0.0.dir/__/__/__/mesh/core/src/flash_manager.c.obj
 .bss.m_cache_index
                0x20004c81        0x1 examples/light_switch/server/CMakeFiles/light_switch_server_nrf52840_xxAA_s140_6.0.0.dir/__/__/__/mesh/core/src/replay_cache.c.obj
 *fill*         0x20004c82        0x2 
 .bss.m_replay_cache
                0x20004c84      0x200 examples/light_switch/server/CMakeFiles/light_switch_server_nrf52840_xxAA_s140_6.0.0.dir/__/__/__/mesh/core/src/replay_cache.c.obj
 .bss.m_bearer_count
                0x20004e84        0x1 examples/light_switch/server/CMakeFiles/light_switch_server_nrf52840_xxAA_s140_6.0.0.dir/__/__/__/mesh/core/src/core_tx.c.obj
 *fill*         0x20004e85        0x3 
 .bss.m_tx_complete_callback
                0x20004e88        0x4 examples/light_switch/server/CMakeFiles/light_switch_server_nrf52840_xxAA_s140_6.0.0.dir/__/__/__/mesh/core/src/core_tx.c.obj
 .bss.mp_bearers
                0x20004e8c        0x4 examples/light_switch/server/CMakeFiles/light_switch_server_nrf52840_xxAA_s140_6.0.0.dir/__/__/__/mesh/core/src/core_tx.c.obj
 .bss.m_hb_core_evt_handler
                0x20004e90        0xc examples/light_switch/server/CMakeFiles/light_switch_server_nrf52840_xxAA_s140_6.0.0.dir/__/__/__/mesh/core/src/heartbeat.c.obj
 .bss.m_hb_pending_feat_msg
                0x20004e9c        0x1 examples/light_switch/server/CMakeFiles/light_switch_server_nrf52840_xxAA_s140_6.0.0.dir/__/__/__/mesh/core/src/heartbeat.c.obj
 .bss.m_hb_pending_pub_msg
                0x20004e9d        0x1 examples/light_switch/server/CMakeFiles/light_switch_server_nrf52840_xxAA_s140_6.0.0.dir/__/__/__/mesh/core/src/heartbeat.c.obj
 .bss.m_heartbeat_init_done
                0x20004e9e        0x1 examples/light_switch/server/CMakeFiles/light_switch_server_nrf52840_xxAA_s140_6.0.0.dir/__/__/__/mesh/core/src/heartbeat.c.obj
 *fill*         0x20004e9f        0x1 
 .bss.m_heartbeat_subscription
                0x20004ea0       0x10 examples/light_switch/server/CMakeFiles/light_switch_server_nrf52840_xxAA_s140_6.0.0.dir/__/__/__/mesh/core/src/heartbeat.c.obj
 .bss.m_publication_count_decrement_cb
                0x20004eb0        0x4 examples/light_switch/server/CMakeFiles/light_switch_server_nrf52840_xxAA_s140_6.0.0.dir/__/__/__/mesh/core/src/heartbeat.c.obj
 .bss.m_publication_get_cb
                0x20004eb4        0x4 examples/light_switch/server/CMakeFiles/light_switch_server_nrf52840_xxAA_s140_6.0.0.dir/__/__/__/mesh/core/src/heartbeat.c.obj
 .bss.m_publication_timer
                0x20004eb8       0x1c examples/light_switch/server/CMakeFiles/light_switch_server_nrf52840_xxAA_s140_6.0.0.dir/__/__/__/mesh/core/src/heartbeat.c.obj
 .bss.m_subscription_timer
                0x20004ed4       0x18 examples/light_switch/server/CMakeFiles/light_switch_server_nrf52840_xxAA_s140_6.0.0.dir/__/__/__/mesh/core/src/heartbeat.c.obj
 .bss.m_adv     0x20004eec       0x9c examples/light_switch/server/CMakeFiles/light_switch_server_nrf52840_xxAA_s140_6.0.0.dir/__/__/__/mesh/core/src/net_beacon.c.obj
 .bss.m_adv_buf
                0x20004f88       0x34 examples/light_switch/server/CMakeFiles/light_switch_server_nrf52840_xxAA_s140_6.0.0.dir/__/__/__/mesh/core/src/net_beacon.c.obj
 .bss.m_beacon_salt
                0x20004fbc       0x10 examples/light_switch/server/CMakeFiles/light_switch_server_nrf52840_xxAA_s140_6.0.0.dir/__/__/__/mesh/core/src/net_beacon.c.obj
 .bss.m_enabled
                0x20004fcc        0x1 examples/light_switch/server/CMakeFiles/light_switch_server_nrf52840_xxAA_s140_6.0.0.dir/__/__/__/mesh/core/src/net_beacon.c.obj
 *fill*         0x20004fcd        0x3 
 .bss.m_tx_timer
                0x20004fd0       0x18 examples/light_switch/server/CMakeFiles/light_switch_server_nrf52840_xxAA_s140_6.0.0.dir/__/__/__/mesh/core/src/net_beacon.c.obj
 .bss.mp_beacon_info
                0x20004fe8        0x4 examples/light_switch/server/CMakeFiles/light_switch_server_nrf52840_xxAA_s140_6.0.0.dir/__/__/__/mesh/core/src/net_beacon.c.obj
 .bss.m_bearer  0x20004fec        0xc examples/light_switch/server/CMakeFiles/light_switch_server_nrf52840_xxAA_s140_6.0.0.dir/__/__/__/mesh/core/src/core_tx_adv.c.obj
 .bss.m_bearer_roles
                0x20004ff8      0x140 examples/light_switch/server/CMakeFiles/light_switch_server_nrf52840_xxAA_s140_6.0.0.dir/__/__/__/mesh/core/src/core_tx_adv.c.obj
 .bss.m_current_alloc
                0x20005138        0x8 examples/light_switch/server/CMakeFiles/light_switch_server_nrf52840_xxAA_s140_6.0.0.dir/__/__/__/mesh/core/src/core_tx_adv.c.obj
 .bss.m_originator_adv_packet_buffer
                0x20005140      0x100 examples/light_switch/server/CMakeFiles/light_switch_server_nrf52840_xxAA_s140_6.0.0.dir/__/__/__/mesh/core/src/core_tx_adv.c.obj
 .bss.m_relay_adv_packet_buffer
                0x20005240       0x80 examples/light_switch/server/CMakeFiles/light_switch_server_nrf52840_xxAA_s140_6.0.0.dir/__/__/__/mesh/core/src/core_tx_adv.c.obj
 .bss.m_subscribers
                0x200052c0        0x4 examples/light_switch/server/CMakeFiles/light_switch_server_nrf52840_xxAA_s140_6.0.0.dir/__/__/__/mesh/bearer/src/ad_listener.c.obj
 .bss.m_adtype_filter
                0x200052c4       0x38 examples/light_switch/server/CMakeFiles/light_switch_server_nrf52840_xxAA_s140_6.0.0.dir/__/__/__/mesh/bearer/src/ad_type_filter.c.obj
 .bss.m_adv_prng
                0x200052fc       0x10 examples/light_switch/server/CMakeFiles/light_switch_server_nrf52840_xxAA_s140_6.0.0.dir/__/__/__/mesh/bearer/src/advertiser.c.obj
 .bss.m_action_ended
                0x2000530c        0x1 examples/light_switch/server/CMakeFiles/light_switch_server_nrf52840_xxAA_s140_6.0.0.dir/__/__/__/mesh/bearer/src/bearer_handler.c.obj
 *fill*         0x2000530d        0x3 
 .bss.m_action_queue
                0x20005310        0x8 examples/light_switch/server/CMakeFiles/light_switch_server_nrf52840_xxAA_s140_6.0.0.dir/__/__/__/mesh/bearer/src/bearer_handler.c.obj
 .bss.m_end_time
                0x20005318        0x4 examples/light_switch/server/CMakeFiles/light_switch_server_nrf52840_xxAA_s140_6.0.0.dir/__/__/__/mesh/bearer/src/bearer_handler.c.obj
 .bss.m_in_callback
                0x2000531c        0x1 examples/light_switch/server/CMakeFiles/light_switch_server_nrf52840_xxAA_s140_6.0.0.dir/__/__/__/mesh/bearer/src/bearer_handler.c.obj
 .bss.m_scanner_is_active
                0x2000531d        0x1 examples/light_switch/server/CMakeFiles/light_switch_server_nrf52840_xxAA_s140_6.0.0.dir/__/__/__/mesh/bearer/src/bearer_handler.c.obj
 .bss.m_stopped
                0x2000531e        0x1 examples/light_switch/server/CMakeFiles/light_switch_server_nrf52840_xxAA_s140_6.0.0.dir/__/__/__/mesh/bearer/src/bearer_handler.c.obj
 *fill*         0x2000531f        0x1 
 .bss.mp_action
                0x20005320        0x4 examples/light_switch/server/CMakeFiles/light_switch_server_nrf52840_xxAA_s140_6.0.0.dir/__/__/__/mesh/bearer/src/bearer_handler.c.obj
 .bss.m_action_start_time
                0x20005324        0x4 examples/light_switch/server/CMakeFiles/light_switch_server_nrf52840_xxAA_s140_6.0.0.dir/__/__/__/mesh/bearer/src/broadcast.c.obj
 .bss.m_next_channel_index
                0x20005328        0x1 examples/light_switch/server/CMakeFiles/light_switch_server_nrf52840_xxAA_s140_6.0.0.dir/__/__/__/mesh/bearer/src/broadcast.c.obj
 *fill*         0x20005329        0x3 
 .bss.m_accepted_amount
                0x2000532c        0x4 examples/light_switch/server/CMakeFiles/light_switch_server_nrf52840_xxAA_s140_6.0.0.dir/__/__/__/mesh/bearer/src/filter_engine.c.obj
 .bss.m_filter_list_head
                0x20005330        0x4 examples/light_switch/server/CMakeFiles/light_switch_server_nrf52840_xxAA_s140_6.0.0.dir/__/__/__/mesh/bearer/src/filter_engine.c.obj
 .bss.m_scanner
                0x20005334      0x298 examples/light_switch/server/CMakeFiles/light_switch_server_nrf52840_xxAA_s140_6.0.0.dir/__/__/__/mesh/bearer/src/scanner.c.obj
 .bss.m_gpiote  0x200055cc        0x6 examples/light_switch/server/CMakeFiles/light_switch_server_nrf52840_xxAA_s140_6.0.0.dir/__/__/__/mesh/bearer/src/mesh_pa_lna.c.obj
 *fill*         0x200055d2        0x2 
 .bss.m_evt_cb  0x200055d4        0x4 examples/light_switch/server/CMakeFiles/light_switch_server_nrf52840_xxAA_s140_6.0.0.dir/__/__/__/models/config/src/config_server.c.obj
 .bss.m_heartbeat_publication
                0x200055d8       0x14 examples/light_switch/server/CMakeFiles/light_switch_server_nrf52840_xxAA_s140_6.0.0.dir/__/__/__/models/config/src/config_server.c.obj
 .bss.m_node_reset_pending
                0x200055ec        0x1 examples/light_switch/server/CMakeFiles/light_switch_server_nrf52840_xxAA_s140_6.0.0.dir/__/__/__/models/config/src/config_server.c.obj
 *fill*         0x200055ed        0x3 
 .bss.m_reset_token
                0x200055f0        0x4 examples/light_switch/server/CMakeFiles/light_switch_server_nrf52840_xxAA_s140_6.0.0.dir/__/__/__/models/config/src/config_server.c.obj
 .bss.m_attention_timer
                0x200055f4       0x18 examples/light_switch/server/CMakeFiles/light_switch_server_nrf52840_xxAA_s140_6.0.0.dir/__/__/__/models/health/src/health_server.c.obj
 .bss.mp_attention_list
                0x2000560c        0x4 examples/light_switch/server/CMakeFiles/light_switch_server_nrf52840_xxAA_s140_6.0.0.dir/__/__/__/models/health/src/health_server.c.obj
 .bss.m_publish_timer
                0x20005610       0x18 examples/light_switch/server/CMakeFiles/light_switch_server_nrf52840_xxAA_s140_6.0.0.dir/__/__/__/mesh/access/src/access_publish.c.obj
 .bss.m_publish_timer_counter
                0x20005628        0x4 examples/light_switch/server/CMakeFiles/light_switch_server_nrf52840_xxAA_s140_6.0.0.dir/__/__/__/mesh/access/src/access_publish.c.obj
 .bss.m_publish_timer_running
                0x2000562c        0x1 examples/light_switch/server/CMakeFiles/light_switch_server_nrf52840_xxAA_s140_6.0.0.dir/__/__/__/mesh/access/src/access_publish.c.obj
 .bss.m_timer_resolution
                0x2000562d        0x1 examples/light_switch/server/CMakeFiles/light_switch_server_nrf52840_xxAA_s140_6.0.0.dir/__/__/__/mesh/access/src/access_publish.c.obj
 *fill*         0x2000562e        0x2 
 .bss.mp_publication_list
                0x20005630        0x4 examples/light_switch/server/CMakeFiles/light_switch_server_nrf52840_xxAA_s140_6.0.0.dir/__/__/__/mesh/access/src/access_publish.c.obj
 .bss.m_element_pool
                0x20005634        0x6 examples/light_switch/server/CMakeFiles/light_switch_server_nrf52840_xxAA_s140_6.0.0.dir/__/__/__/mesh/access/src/access.c.obj
 *fill*         0x2000563a        0x2 
 .bss.m_evt_handler
                0x2000563c        0xc examples/light_switch/server/CMakeFiles/light_switch_server_nrf52840_xxAA_s140_6.0.0.dir/__/__/__/mesh/access/src/access.c.obj
 .bss.m_flash_manager
                0x20005648       0x24 examples/light_switch/server/CMakeFiles/light_switch_server_nrf52840_xxAA_s140_6.0.0.dir/__/__/__/mesh/access/src/access.c.obj
 .bss.m_flash_not_ready
                0x2000566c        0x1 examples/light_switch/server/CMakeFiles/light_switch_server_nrf52840_xxAA_s140_6.0.0.dir/__/__/__/mesh/access/src/access.c.obj
 .bss.m_metadata_stored
                0x2000566d        0x1 examples/light_switch/server/CMakeFiles/light_switch_server_nrf52840_xxAA_s140_6.0.0.dir/__/__/__/mesh/access/src/access.c.obj
 *fill*         0x2000566e        0x2 
 .bss.m_model_pool
                0x20005670       0x9c examples/light_switch/server/CMakeFiles/light_switch_server_nrf52840_xxAA_s140_6.0.0.dir/__/__/__/mesh/access/src/access.c.obj
 .bss.m_subscription_list_pool
                0x2000570c        0x8 examples/light_switch/server/CMakeFiles/light_switch_server_nrf52840_xxAA_s140_6.0.0.dir/__/__/__/mesh/access/src/access.c.obj
 .bss.m_reliable
                0x20005714       0xa0 examples/light_switch/server/CMakeFiles/light_switch_server_nrf52840_xxAA_s140_6.0.0.dir/__/__/__/mesh/access/src/access_reliable.c.obj
 .bss.m_access_loopback_flag
                0x200057b4        0x4 examples/light_switch/server/CMakeFiles/light_switch_server_nrf52840_xxAA_s140_6.0.0.dir/__/__/__/mesh/access/src/access_loopback.c.obj
 .bss.mp_loopback_list_head
                0x200057b8        0x4 examples/light_switch/server/CMakeFiles/light_switch_server_nrf52840_xxAA_s140_6.0.0.dir/__/__/__/mesh/access/src/access_loopback.c.obj
 .bss.m_addr_nonvirtual_allocated
                0x200057bc        0x4 examples/light_switch/server/CMakeFiles/light_switch_server_nrf52840_xxAA_s140_6.0.0.dir/__/__/__/mesh/access/src/device_state_manager.c.obj
 .bss.m_addr_nonvirtual_needs_flashing
                0x200057c0        0x4 examples/light_switch/server/CMakeFiles/light_switch_server_nrf52840_xxAA_s140_6.0.0.dir/__/__/__/mesh/access/src/device_state_manager.c.obj
 .bss.m_addr_unicast_allocated
                0x200057c4        0x4 examples/light_switch/server/CMakeFiles/light_switch_server_nrf52840_xxAA_s140_6.0.0.dir/__/__/__/mesh/access/src/device_state_manager.c.obj
 .bss.m_addr_unicast_needs_flashing
                0x200057c8        0x4 examples/light_switch/server/CMakeFiles/light_switch_server_nrf52840_xxAA_s140_6.0.0.dir/__/__/__/mesh/access/src/device_state_manager.c.obj
 .bss.m_addr_virtual_allocated
                0x200057cc        0x4 examples/light_switch/server/CMakeFiles/light_switch_server_nrf52840_xxAA_s140_6.0.0.dir/__/__/__/mesh/access/src/device_state_manager.c.obj
 .bss.m_addr_virtual_needs_flashing
                0x200057d0        0x4 examples/light_switch/server/CMakeFiles/light_switch_server_nrf52840_xxAA_s140_6.0.0.dir/__/__/__/mesh/access/src/device_state_manager.c.obj
 .bss.m_addresses
                0x200057d4        0xc examples/light_switch/server/CMakeFiles/light_switch_server_nrf52840_xxAA_s140_6.0.0.dir/__/__/__/mesh/access/src/device_state_manager.c.obj
 .bss.m_appkey_allocated
                0x200057e0        0x4 examples/light_switch/server/CMakeFiles/light_switch_server_nrf52840_xxAA_s140_6.0.0.dir/__/__/__/mesh/access/src/device_state_manager.c.obj
 .bss.m_appkey_needs_flashing
                0x200057e4        0x4 examples/light_switch/server/CMakeFiles/light_switch_server_nrf52840_xxAA_s140_6.0.0.dir/__/__/__/mesh/access/src/device_state_manager.c.obj
 .bss.m_appkeys
                0x200057e8       0x2a examples/light_switch/server/CMakeFiles/light_switch_server_nrf52840_xxAA_s140_6.0.0.dir/__/__/__/mesh/access/src/device_state_manager.c.obj
 *fill*         0x20005812        0x2 
 .bss.m_devkey_allocated
                0x20005814        0x4 examples/light_switch/server/CMakeFiles/light_switch_server_nrf52840_xxAA_s140_6.0.0.dir/__/__/__/mesh/access/src/device_state_manager.c.obj
 .bss.m_devkey_needs_flashing
                0x20005818        0x4 examples/light_switch/server/CMakeFiles/light_switch_server_nrf52840_xxAA_s140_6.0.0.dir/__/__/__/mesh/access/src/device_state_manager.c.obj
 .bss.m_devkeys
                0x2000581c       0x16 examples/light_switch/server/CMakeFiles/light_switch_server_nrf52840_xxAA_s140_6.0.0.dir/__/__/__/mesh/access/src/device_state_manager.c.obj
 .bss.m_flash_is_available
                0x20005832        0x1 examples/light_switch/server/CMakeFiles/light_switch_server_nrf52840_xxAA_s140_6.0.0.dir/__/__/__/mesh/access/src/device_state_manager.c.obj
 *fill*         0x20005833        0x1 
 .bss.m_flash_manager
                0x20005834       0x24 examples/light_switch/server/CMakeFiles/light_switch_server_nrf52840_xxAA_s140_6.0.0.dir/__/__/__/mesh/access/src/device_state_manager.c.obj
 .bss.m_flash_mem_listener_update_all
                0x20005858       0x10 examples/light_switch/server/CMakeFiles/light_switch_server_nrf52840_xxAA_s140_6.0.0.dir/__/__/__/mesh/access/src/device_state_manager.c.obj
 .bss.m_has_primary_subnet
                0x20005868        0x1 examples/light_switch/server/CMakeFiles/light_switch_server_nrf52840_xxAA_s140_6.0.0.dir/__/__/__/mesh/access/src/device_state_manager.c.obj
 *fill*         0x20005869        0x1 
 .bss.m_local_unicast_addr
                0x2000586a        0x4 examples/light_switch/server/CMakeFiles/light_switch_server_nrf52840_xxAA_s140_6.0.0.dir/__/__/__/mesh/access/src/device_state_manager.c.obj
 *fill*         0x2000586e        0x2 
 .bss.m_mesh_evt_handler
                0x20005870        0xc examples/light_switch/server/CMakeFiles/light_switch_server_nrf52840_xxAA_s140_6.0.0.dir/__/__/__/mesh/access/src/device_state_manager.c.obj
 .bss.m_subnet_allocated
                0x2000587c        0x4 examples/light_switch/server/CMakeFiles/light_switch_server_nrf52840_xxAA_s140_6.0.0.dir/__/__/__/mesh/access/src/device_state_manager.c.obj
 .bss.m_subnet_needs_flashing
                0x20005880        0x4 examples/light_switch/server/CMakeFiles/light_switch_server_nrf52840_xxAA_s140_6.0.0.dir/__/__/__/mesh/access/src/device_state_manager.c.obj
 .bss.m_subnets
                0x20005884       0xa8 examples/light_switch/server/CMakeFiles/light_switch_server_nrf52840_xxAA_s140_6.0.0.dir/__/__/__/mesh/access/src/device_state_manager.c.obj
 .bss.m_virtual_addresses
                0x2000592c       0x14 examples/light_switch/server/CMakeFiles/light_switch_server_nrf52840_xxAA_s140_6.0.0.dir/__/__/__/mesh/access/src/device_state_manager.c.obj
 .bss.m_event_handler
                0x20005940        0x4 examples/light_switch/server/CMakeFiles/light_switch_server_nrf52840_xxAA_s140_6.0.0.dir/__/__/__/mesh/prov/src/prov_beacon.c.obj
 .bss.m_offload_ecdh
                0x20005944        0x1 examples/light_switch/server/CMakeFiles/light_switch_server_nrf52840_xxAA_s140_6.0.0.dir/__/__/__/mesh/prov/src/prov_utils.c.obj
 *fill*         0x20005945        0x3 
 .bss.mp_bearer_head
                0x20005948        0x4 examples/light_switch/server/CMakeFiles/light_switch_server_nrf52840_xxAA_s140_6.0.0.dir/__/__/__/mesh/prov/src/prov_bearer_adv.c.obj
 .bss.m_op_queue
                0x2000594c      0x10c examples/light_switch/server/CMakeFiles/light_switch_server_nrf52840_xxAA_s140_6.0.0.dir/C_/b/nRF5_SDK_15.0.0_a53641a/components/libraries/timer/app_timer.c.obj
 .bss.m_rtc1_reset
                0x20005a58        0x1 examples/light_switch/server/CMakeFiles/light_switch_server_nrf52840_xxAA_s140_6.0.0.dir/C_/b/nRF5_SDK_15.0.0_a53641a/components/libraries/timer/app_timer.c.obj
 .bss.m_rtc1_running
                0x20005a59        0x1 examples/light_switch/server/CMakeFiles/light_switch_server_nrf52840_xxAA_s140_6.0.0.dir/C_/b/nRF5_SDK_15.0.0_a53641a/components/libraries/timer/app_timer.c.obj
 *fill*         0x20005a5a        0x2 
 .bss.m_ticks_elapsed
                0x20005a5c        0x8 examples/light_switch/server/CMakeFiles/light_switch_server_nrf52840_xxAA_s140_6.0.0.dir/C_/b/nRF5_SDK_15.0.0_a53641a/components/libraries/timer/app_timer.c.obj
 .bss.m_ticks_elapsed_q_read_ind
                0x20005a64        0x1 examples/light_switch/server/CMakeFiles/light_switch_server_nrf52840_xxAA_s140_6.0.0.dir/C_/b/nRF5_SDK_15.0.0_a53641a/components/libraries/timer/app_timer.c.obj
 .bss.m_ticks_elapsed_q_write_ind
                0x20005a65        0x1 examples/light_switch/server/CMakeFiles/light_switch_server_nrf52840_xxAA_s140_6.0.0.dir/C_/b/nRF5_SDK_15.0.0_a53641a/components/libraries/timer/app_timer.c.obj
 *fill*         0x20005a66        0x2 
 .bss.m_ticks_latest
                0x20005a68        0x4 examples/light_switch/server/CMakeFiles/light_switch_server_nrf52840_xxAA_s140_6.0.0.dir/C_/b/nRF5_SDK_15.0.0_a53641a/components/libraries/timer/app_timer.c.obj
 .bss.mp_timer_id_head
                0x20005a6c        0x4 examples/light_switch/server/CMakeFiles/light_switch_server_nrf52840_xxAA_s140_6.0.0.dir/C_/b/nRF5_SDK_15.0.0_a53641a/components/libraries/timer/app_timer.c.obj
 .bss._acDownBuffer
                0x20005a70       0x80 external/rtt/librtt_nrf52840_xxAA.a(SEGGER_RTT.c.obj)
 .bss._acUpBuffer
                0x20005af0      0x400 external/rtt/librtt_nrf52840_xxAA.a(SEGGER_RTT.c.obj)
 .bss.__malloc_free_list
                0x20005ef0        0x4 c:/mesh/arm_gcc/bin/../lib/gcc/arm-none-eabi/6.3.1/../../../../arm-none-eabi/lib/thumb/v7e-m/fpv4-sp/hard\libg_nano.a(lib_a-nano-mallocr.o)
                0x20005ef0                __malloc_free_list
 .bss.__malloc_sbrk_start
                0x20005ef4        0x4 c:/mesh/arm_gcc/bin/../lib/gcc/arm-none-eabi/6.3.1/../../../../arm-none-eabi/lib/thumb/v7e-m/fpv4-sp/hard\libg_nano.a(lib_a-nano-mallocr.o)
                0x20005ef4                __malloc_sbrk_start
 .bss.heap_end.5239
                0x20005ef8        0x4 c:/mesh/arm_gcc/bin/../lib/gcc/arm-none-eabi/6.3.1/../../../../arm-none-eabi/lib/thumb/v7e-m/fpv4-sp/hard\libnosys.a(sbrk.o)
 *(COMMON)
 COMMON         0x20005efc       0x24 examples/light_switch/server/CMakeFiles/light_switch_server_nrf52840_xxAA_s140_6.0.0.dir/__/__/__/mesh/core/src/core_tx.c.obj
                0x20005efc                m_packet
 COMMON         0x20005f20        0xc examples/light_switch/server/CMakeFiles/light_switch_server_nrf52840_xxAA_s140_6.0.0.dir/C_/b/nRF5_SDK_15.0.0_a53641a/components/libraries/util/app_util_platform.c.obj
                0x20005f20                nrf_nvic_state
 COMMON         0x20005f2c       0x78 external/rtt/librtt_nrf52840_xxAA.a(SEGGER_RTT.c.obj)
                0x20005f2c                _SEGGER_RTT
 COMMON         0x20005fa4        0x4 c:/mesh/arm_gcc/bin/../lib/gcc/arm-none-eabi/6.3.1/../../../../arm-none-eabi/lib/thumb/v7e-m/fpv4-sp/hard\libg_nano.a(lib_a-reent.o)
                0x20005fa4                errno
                0x20005fa8                . = ALIGN (0x4)
                0x20005fa8                __bss_end__ = .

.heap           0x20005fa8     0x2000
                0x20005fa8                __HeapBase = .
                0x20005fa8                __end__ = .
                0x20005fa8                PROVIDE (end, .)
 *(.heap*)
 .heap          0x20005fa8     0x2000 examples/light_switch/server/CMakeFiles/light_switch_server_nrf52840_xxAA_s140_6.0.0.dir/C_/b/nRF5_SDK_15.0.0_a53641a/modules/nrfx/mdk/gcc_startup_nrf52840.S.obj
                0x20007fa8                __HeapLimit = .

.stack_dummy    0x20005fa8     0x2000
 *(.stack*)
 .stack         0x20005fa8     0x2000 examples/light_switch/server/CMakeFiles/light_switch_server_nrf52840_xxAA_s140_6.0.0.dir/C_/b/nRF5_SDK_15.0.0_a53641a/modules/nrfx/mdk/gcc_startup_nrf52840.S.obj
                0x2003fd00                __StackTop = (ORIGIN (RAM) + LENGTH (RAM))
                0x2003dd00                __StackLimit = (__StackTop - SIZEOF (.stack_dummy))
                0x2003fd00                PROVIDE (__stack, __StackTop)
                0x00000001                ASSERT ((__StackLimit >= __HeapLimit), region RAM overflowed with stack)
                0x00000150                DataInitFlashUsed = (__bss_start__ - __data_start__)
                0x000139ec                CodeFlashUsed = (__etext - ORIGIN (FLASH))
                0x00013b3c                TotalFlashUsed = (CodeFlashUsed + DataInitFlashUsed)
                0x00000001                ASSERT ((TotalFlashUsed <= LENGTH (FLASH)), region FLASH overflowed with .data and user data)
OUTPUT(examples\light_switch\server\light_switch_server_nrf52840_xxAA_s140_6.0.0.elf elf32-littlearm)

.ARM.attributes
                0x00000000       0x30
 .ARM.attributes
                0x00000000       0x22 c:/mesh/arm_gcc/bin/../lib/gcc/arm-none-eabi/6.3.1/thumb/v7e-m/fpv4-sp/hard/crti.o
 .ARM.attributes
                0x00000022       0x34 c:/mesh/arm_gcc/bin/../lib/gcc/arm-none-eabi/6.3.1/thumb/v7e-m/fpv4-sp/hard/crtbegin.o
 .ARM.attributes
                0x00000056       0x20 c:/mesh/arm_gcc/bin/../lib/gcc/arm-none-eabi/6.3.1/../../../../arm-none-eabi/lib/thumb/v7e-m/fpv4-sp/hard/crt0.o
 .ARM.attributes
                0x00000076       0x39 examples/light_switch/server/CMakeFiles/light_switch_server_nrf52840_xxAA_s140_6.0.0.dir/src/main.c.obj
 .ARM.attributes
                0x000000af       0x39 examples/light_switch/server/CMakeFiles/light_switch_server_nrf52840_xxAA_s140_6.0.0.dir/__/__/__/mesh/stack/src/mesh_stack.c.obj
 .ARM.attributes
                0x000000e8       0x39 examples/light_switch/server/CMakeFiles/light_switch_server_nrf52840_xxAA_s140_6.0.0.dir/__/__/common/src/mesh_softdevice_init.c.obj
 .ARM.attributes
                0x00000121       0x39 examples/light_switch/server/CMakeFiles/light_switch_server_nrf52840_xxAA_s140_6.0.0.dir/__/__/common/src/mesh_provisionee.c.obj
 .ARM.attributes
                0x0000015a       0x39 examples/light_switch/server/CMakeFiles/light_switch_server_nrf52840_xxAA_s140_6.0.0.dir/__/__/common/src/rtt_input.c.obj
 .ARM.attributes
                0x00000193       0x39 examples/light_switch/server/CMakeFiles/light_switch_server_nrf52840_xxAA_s140_6.0.0.dir/__/__/common/src/simple_hal.c.obj
 .ARM.attributes
                0x000001cc       0x39 examples/light_switch/server/CMakeFiles/light_switch_server_nrf52840_xxAA_s140_6.0.0.dir/__/__/common/src/mesh_app_utils.c.obj
 .ARM.attributes
                0x00000205       0x39 examples/light_switch/server/CMakeFiles/light_switch_server_nrf52840_xxAA_s140_6.0.0.dir/__/__/nrf_mesh_weak.c.obj
 .ARM.attributes
                0x0000023e       0x39 examples/light_switch/server/CMakeFiles/light_switch_server_nrf52840_xxAA_s140_6.0.0.dir/__/__/common/src/app_error_weak.c.obj
 .ARM.attributes
                0x00000277       0x39 examples/light_switch/server/CMakeFiles/light_switch_server_nrf52840_xxAA_s140_6.0.0.dir/__/__/common/src/assertion_handler_weak.c.obj
 .ARM.attributes
                0x000002b0       0x39 examples/light_switch/server/CMakeFiles/light_switch_server_nrf52840_xxAA_s140_6.0.0.dir/__/__/__/mesh/core/src/nrf_mesh_configure.c.obj
 .ARM.attributes
                0x000002e9       0x39 examples/light_switch/server/CMakeFiles/light_switch_server_nrf52840_xxAA_s140_6.0.0.dir/__/__/__/mesh/core/src/msg_cache.c.obj
 .ARM.attributes
                0x00000322       0x39 examples/light_switch/server/CMakeFiles/light_switch_server_nrf52840_xxAA_s140_6.0.0.dir/__/__/__/mesh/core/src/transport.c.obj
 .ARM.attributes
                0x0000035b       0x39 examples/light_switch/server/CMakeFiles/light_switch_server_nrf52840_xxAA_s140_6.0.0.dir/__/__/__/mesh/core/src/event.c.obj
 .ARM.attributes
                0x00000394       0x39 examples/light_switch/server/CMakeFiles/light_switch_server_nrf52840_xxAA_s140_6.0.0.dir/__/__/__/mesh/core/src/packet_buffer.c.obj
 .ARM.attributes
                0x000003cd       0x39 examples/light_switch/server/CMakeFiles/light_switch_server_nrf52840_xxAA_s140_6.0.0.dir/__/__/__/mesh/core/src/flash_manager_defrag.c.obj
 .ARM.attributes
                0x00000406       0x39 examples/light_switch/server/CMakeFiles/light_switch_server_nrf52840_xxAA_s140_6.0.0.dir/__/__/__/mesh/core/src/fifo.c.obj
 .ARM.attributes
                0x0000043f       0x39 examples/light_switch/server/CMakeFiles/light_switch_server_nrf52840_xxAA_s140_6.0.0.dir/__/__/__/mesh/core/src/nrf_flash.c.obj
 .ARM.attributes
                0x00000478       0x39 examples/light_switch/server/CMakeFiles/light_switch_server_nrf52840_xxAA_s140_6.0.0.dir/__/__/__/mesh/core/src/packet_mgr.c.obj
 .ARM.attributes
                0x000004b1       0x39 examples/light_switch/server/CMakeFiles/light_switch_server_nrf52840_xxAA_s140_6.0.0.dir/__/__/__/mesh/core/src/net_state.c.obj
 .ARM.attributes
                0x000004ea       0x39 examples/light_switch/server/CMakeFiles/light_switch_server_nrf52840_xxAA_s140_6.0.0.dir/__/__/__/mesh/core/src/mesh_flash.c.obj
 .ARM.attributes
                0x00000523       0x39 examples/light_switch/server/CMakeFiles/light_switch_server_nrf52840_xxAA_s140_6.0.0.dir/__/__/__/mesh/core/src/nrf_mesh_utils.c.obj
 .ARM.attributes
                0x0000055c       0x39 examples/light_switch/server/CMakeFiles/light_switch_server_nrf52840_xxAA_s140_6.0.0.dir/__/__/__/mesh/core/src/nrf_mesh.c.obj
 .ARM.attributes
                0x00000595       0x39 examples/light_switch/server/CMakeFiles/light_switch_server_nrf52840_xxAA_s140_6.0.0.dir/__/__/__/mesh/core/src/queue.c.obj
 .ARM.attributes
                0x000005ce       0x39 examples/light_switch/server/CMakeFiles/light_switch_server_nrf52840_xxAA_s140_6.0.0.dir/__/__/__/mesh/core/src/hal.c.obj
 .ARM.attributes
                0x00000607       0x39 examples/light_switch/server/CMakeFiles/light_switch_server_nrf52840_xxAA_s140_6.0.0.dir/__/__/__/mesh/core/src/aes_cmac.c.obj
 .ARM.attributes
                0x00000640       0x39 examples/light_switch/server/CMakeFiles/light_switch_server_nrf52840_xxAA_s140_6.0.0.dir/__/__/__/mesh/core/src/timer_scheduler.c.obj
 .ARM.attributes
                0x00000679       0x39 examples/light_switch/server/CMakeFiles/light_switch_server_nrf52840_xxAA_s140_6.0.0.dir/__/__/__/mesh/core/src/timer.c.obj
 .ARM.attributes
                0x000006b2       0x39 examples/light_switch/server/CMakeFiles/light_switch_server_nrf52840_xxAA_s140_6.0.0.dir/__/__/__/mesh/core/src/ticker.c.obj
 .ARM.attributes
                0x000006eb       0x39 examples/light_switch/server/CMakeFiles/light_switch_server_nrf52840_xxAA_s140_6.0.0.dir/__/__/__/mesh/core/src/rand.c.obj
 .ARM.attributes
                0x00000724       0x39 examples/light_switch/server/CMakeFiles/light_switch_server_nrf52840_xxAA_s140_6.0.0.dir/__/__/__/mesh/core/src/nrf_mesh_opt.c.obj
 .ARM.attributes
                0x0000075d       0x39 examples/light_switch/server/CMakeFiles/light_switch_server_nrf52840_xxAA_s140_6.0.0.dir/__/__/__/mesh/core/src/timeslot.c.obj
 .ARM.attributes
                0x00000796       0x39 examples/light_switch/server/CMakeFiles/light_switch_server_nrf52840_xxAA_s140_6.0.0.dir/__/__/__/mesh/core/src/bearer_event.c.obj
 .ARM.attributes
                0x000007cf       0x39 examples/light_switch/server/CMakeFiles/light_switch_server_nrf52840_xxAA_s140_6.0.0.dir/__/__/__/mesh/core/src/enc.c.obj
 .ARM.attributes
                0x00000808       0x39 examples/light_switch/server/CMakeFiles/light_switch_server_nrf52840_xxAA_s140_6.0.0.dir/__/__/__/mesh/core/src/network.c.obj
 .ARM.attributes
                0x00000841       0x39 examples/light_switch/server/CMakeFiles/light_switch_server_nrf52840_xxAA_s140_6.0.0.dir/__/__/__/mesh/core/src/net_packet.c.obj
 .ARM.attributes
                0x0000087a       0x39 examples/light_switch/server/CMakeFiles/light_switch_server_nrf52840_xxAA_s140_6.0.0.dir/__/__/__/mesh/core/src/msqueue.c.obj
 .ARM.attributes
                0x000008b3       0x39 examples/light_switch/server/CMakeFiles/light_switch_server_nrf52840_xxAA_s140_6.0.0.dir/__/__/__/mesh/core/src/nrf_mesh_keygen.c.obj
 .ARM.attributes
                0x000008ec       0x39 examples/light_switch/server/CMakeFiles/light_switch_server_nrf52840_xxAA_s140_6.0.0.dir/__/__/__/mesh/core/src/list.c.obj
 .ARM.attributes
                0x00000925       0x39 examples/light_switch/server/CMakeFiles/light_switch_server_nrf52840_xxAA_s140_6.0.0.dir/__/__/__/mesh/core/src/log.c.obj
 .ARM.attributes
                0x0000095e       0x39 examples/light_switch/server/CMakeFiles/light_switch_server_nrf52840_xxAA_s140_6.0.0.dir/__/__/__/mesh/core/src/flash_manager.c.obj
 .ARM.attributes
                0x00000997       0x39 examples/light_switch/server/CMakeFiles/light_switch_server_nrf52840_xxAA_s140_6.0.0.dir/__/__/__/mesh/core/src/ccm_soft.c.obj
 .ARM.attributes
                0x000009d0       0x39 examples/light_switch/server/CMakeFiles/light_switch_server_nrf52840_xxAA_s140_6.0.0.dir/__/__/__/mesh/core/src/replay_cache.c.obj
 .ARM.attributes
                0x00000a09       0x39 examples/light_switch/server/CMakeFiles/light_switch_server_nrf52840_xxAA_s140_6.0.0.dir/__/__/__/mesh/core/src/beacon.c.obj
 .ARM.attributes
                0x00000a42       0x39 examples/light_switch/server/CMakeFiles/light_switch_server_nrf52840_xxAA_s140_6.0.0.dir/__/__/__/mesh/core/src/flash_manager_internal.c.obj
 .ARM.attributes
                0x00000a7b       0x39 examples/light_switch/server/CMakeFiles/light_switch_server_nrf52840_xxAA_s140_6.0.0.dir/__/__/__/mesh/core/src/core_tx.c.obj
 .ARM.attributes
                0x00000ab4       0x39 examples/light_switch/server/CMakeFiles/light_switch_server_nrf52840_xxAA_s140_6.0.0.dir/__/__/__/mesh/core/src/heartbeat.c.obj
 .ARM.attributes
                0x00000aed       0x39 examples/light_switch/server/CMakeFiles/light_switch_server_nrf52840_xxAA_s140_6.0.0.dir/__/__/__/mesh/core/src/net_beacon.c.obj
 .ARM.attributes
                0x00000b26       0x39 examples/light_switch/server/CMakeFiles/light_switch_server_nrf52840_xxAA_s140_6.0.0.dir/__/__/__/mesh/core/src/core_tx_adv.c.obj
 .ARM.attributes
                0x00000b5f       0x39 examples/light_switch/server/CMakeFiles/light_switch_server_nrf52840_xxAA_s140_6.0.0.dir/__/__/__/mesh/bearer/src/ad_listener.c.obj
 .ARM.attributes
                0x00000b98       0x39 examples/light_switch/server/CMakeFiles/light_switch_server_nrf52840_xxAA_s140_6.0.0.dir/__/__/__/mesh/bearer/src/ad_type_filter.c.obj
 .ARM.attributes
                0x00000bd1       0x39 examples/light_switch/server/CMakeFiles/light_switch_server_nrf52840_xxAA_s140_6.0.0.dir/__/__/__/mesh/bearer/src/advertiser.c.obj
 .ARM.attributes
                0x00000c0a       0x39 examples/light_switch/server/CMakeFiles/light_switch_server_nrf52840_xxAA_s140_6.0.0.dir/__/__/__/mesh/bearer/src/bearer_handler.c.obj
 .ARM.attributes
                0x00000c43       0x39 examples/light_switch/server/CMakeFiles/light_switch_server_nrf52840_xxAA_s140_6.0.0.dir/__/__/__/mesh/bearer/src/broadcast.c.obj
 .ARM.attributes
                0x00000c7c       0x39 examples/light_switch/server/CMakeFiles/light_switch_server_nrf52840_xxAA_s140_6.0.0.dir/__/__/__/mesh/bearer/src/filter_engine.c.obj
 .ARM.attributes
                0x00000cb5       0x39 examples/light_switch/server/CMakeFiles/light_switch_server_nrf52840_xxAA_s140_6.0.0.dir/__/__/__/mesh/bearer/src/radio_config.c.obj
 .ARM.attributes
                0x00000cee       0x39 examples/light_switch/server/CMakeFiles/light_switch_server_nrf52840_xxAA_s140_6.0.0.dir/__/__/__/mesh/bearer/src/scanner.c.obj
 .ARM.attributes
                0x00000d27       0x39 examples/light_switch/server/CMakeFiles/light_switch_server_nrf52840_xxAA_s140_6.0.0.dir/__/__/__/mesh/bearer/src/mesh_pa_lna.c.obj
 .ARM.attributes
                0x00000d60       0x39 examples/light_switch/server/CMakeFiles/light_switch_server_nrf52840_xxAA_s140_6.0.0.dir/__/__/__/models/simple_on_off/src/simple_on_off_server.c.obj
 .ARM.attributes
                0x00000d99       0x39 examples/light_switch/server/CMakeFiles/light_switch_server_nrf52840_xxAA_s140_6.0.0.dir/__/__/__/models/config/src/composition_data.c.obj
 .ARM.attributes
                0x00000dd2       0x39 examples/light_switch/server/CMakeFiles/light_switch_server_nrf52840_xxAA_s140_6.0.0.dir/__/__/__/models/config/src/config_server.c.obj
 .ARM.attributes
                0x00000e0b       0x39 examples/light_switch/server/CMakeFiles/light_switch_server_nrf52840_xxAA_s140_6.0.0.dir/__/__/__/models/config/src/packed_index_list.c.obj
 .ARM.attributes
                0x00000e44       0x39 examples/light_switch/server/CMakeFiles/light_switch_server_nrf52840_xxAA_s140_6.0.0.dir/__/__/__/models/health/src/health_server.c.obj
 .ARM.attributes
                0x00000e7d       0x39 examples/light_switch/server/CMakeFiles/light_switch_server_nrf52840_xxAA_s140_6.0.0.dir/__/__/__/mesh/access/src/access_publish.c.obj
 .ARM.attributes
                0x00000eb6       0x39 examples/light_switch/server/CMakeFiles/light_switch_server_nrf52840_xxAA_s140_6.0.0.dir/__/__/__/mesh/access/src/access.c.obj
 .ARM.attributes
                0x00000eef       0x39 examples/light_switch/server/CMakeFiles/light_switch_server_nrf52840_xxAA_s140_6.0.0.dir/__/__/__/mesh/access/src/access_reliable.c.obj
 .ARM.attributes
                0x00000f28       0x39 examples/light_switch/server/CMakeFiles/light_switch_server_nrf52840_xxAA_s140_6.0.0.dir/__/__/__/mesh/access/src/access_loopback.c.obj
 .ARM.attributes
                0x00000f61       0x39 examples/light_switch/server/CMakeFiles/light_switch_server_nrf52840_xxAA_s140_6.0.0.dir/__/__/__/mesh/access/src/device_state_manager.c.obj
 .ARM.attributes
                0x00000f9a       0x39 examples/light_switch/server/CMakeFiles/light_switch_server_nrf52840_xxAA_s140_6.0.0.dir/__/__/__/mesh/prov/src/prov_provisionee.c.obj
 .ARM.attributes
                0x00000fd3       0x39 examples/light_switch/server/CMakeFiles/light_switch_server_nrf52840_xxAA_s140_6.0.0.dir/__/__/__/mesh/prov/src/nrf_mesh_prov.c.obj
 .ARM.attributes
                0x0000100c       0x39 examples/light_switch/server/CMakeFiles/light_switch_server_nrf52840_xxAA_s140_6.0.0.dir/__/__/__/mesh/prov/src/provisioning.c.obj
 .ARM.attributes
                0x00001045       0x39 examples/light_switch/server/CMakeFiles/light_switch_server_nrf52840_xxAA_s140_6.0.0.dir/__/__/__/mesh/prov/src/prov_beacon.c.obj
 .ARM.attributes
                0x0000107e       0x39 examples/light_switch/server/CMakeFiles/light_switch_server_nrf52840_xxAA_s140_6.0.0.dir/__/__/__/mesh/prov/src/prov_utils.c.obj
 .ARM.attributes
                0x000010b7       0x39 examples/light_switch/server/CMakeFiles/light_switch_server_nrf52840_xxAA_s140_6.0.0.dir/__/__/__/mesh/prov/src/prov_bearer_adv.c.obj
 .ARM.attributes
                0x000010f0       0x39 examples/light_switch/server/CMakeFiles/light_switch_server_nrf52840_xxAA_s140_6.0.0.dir/C_/b/nRF5_SDK_15.0.0_a53641a/modules/nrfx/mdk/system_nrf52840.c.obj
 .ARM.attributes
                0x00001129       0x20 examples/light_switch/server/CMakeFiles/light_switch_server_nrf52840_xxAA_s140_6.0.0.dir/C_/b/nRF5_SDK_15.0.0_a53641a/modules/nrfx/mdk/gcc_startup_nrf52840.S.obj
 .ARM.attributes
                0x00001149       0x39 examples/light_switch/server/CMakeFiles/light_switch_server_nrf52840_xxAA_s140_6.0.0.dir/C_/b/nRF5_SDK_15.0.0_a53641a/components/libraries/util/app_error.c.obj
 .ARM.attributes
                0x00001182       0x39 examples/light_switch/server/CMakeFiles/light_switch_server_nrf52840_xxAA_s140_6.0.0.dir/C_/b/nRF5_SDK_15.0.0_a53641a/components/libraries/util/app_util_platform.c.obj
 .ARM.attributes
                0x000011bb       0x39 examples/light_switch/server/CMakeFiles/light_switch_server_nrf52840_xxAA_s140_6.0.0.dir/C_/b/nRF5_SDK_15.0.0_a53641a/components/libraries/timer/app_timer.c.obj
 .ARM.attributes
                0x000011f4       0x39 examples/light_switch/server/CMakeFiles/light_switch_server_nrf52840_xxAA_s140_6.0.0.dir/C_/b/nRF5_SDK_15.0.0_a53641a/components/libraries/util/app_error_handler_gcc.c.obj
 .ARM.attributes
                0x0000122d       0x39 external/rtt/librtt_nrf52840_xxAA.a(SEGGER_RTT.c.obj)
 .ARM.attributes
                0x00001266       0x39 external/rtt/librtt_nrf52840_xxAA.a(SEGGER_RTT_printf.c.obj)
 .ARM.attributes
                0x0000129f       0x39 external/micro-ecc/libuECC_nrf52840_xxAA.a(uECC.c.obj)
 .ARM.attributes
                0x000012d8       0x22 c:/mesh/arm_gcc/bin/../lib/gcc/arm-none-eabi/6.3.1/thumb/v7e-m/fpv4-sp/hard\libgcc.a(_aeabi_uldivmod.o)
 .ARM.attributes
                0x000012fa       0x34 c:/mesh/arm_gcc/bin/../lib/gcc/arm-none-eabi/6.3.1/thumb/v7e-m/fpv4-sp/hard\libgcc.a(_udivmoddi4.o)
 .ARM.attributes
                0x0000132e       0x22 c:/mesh/arm_gcc/bin/../lib/gcc/arm-none-eabi/6.3.1/thumb/v7e-m/fpv4-sp/hard\libgcc.a(_dvmd_tls.o)
 .ARM.attributes
                0x00001350       0x34 c:/mesh/arm_gcc/bin/../lib/gcc/arm-none-eabi/6.3.1/../../../../arm-none-eabi/lib/thumb/v7e-m/fpv4-sp/hard\libg_nano.a(lib_a-exit.o)
 .ARM.attributes
                0x00001384       0x34 c:/mesh/arm_gcc/bin/../lib/gcc/arm-none-eabi/6.3.1/../../../../arm-none-eabi/lib/thumb/v7e-m/fpv4-sp/hard\libg_nano.a(lib_a-impure.o)
 .ARM.attributes
                0x000013b8       0x34 c:/mesh/arm_gcc/bin/../lib/gcc/arm-none-eabi/6.3.1/../../../../arm-none-eabi/lib/thumb/v7e-m/fpv4-sp/hard\libg_nano.a(lib_a-init.o)
 .ARM.attributes
                0x000013ec       0x34 c:/mesh/arm_gcc/bin/../lib/gcc/arm-none-eabi/6.3.1/../../../../arm-none-eabi/lib/thumb/v7e-m/fpv4-sp/hard\libg_nano.a(lib_a-malloc.o)
 .ARM.attributes
                0x00001420       0x34 c:/mesh/arm_gcc/bin/../lib/gcc/arm-none-eabi/6.3.1/../../../../arm-none-eabi/lib/thumb/v7e-m/fpv4-sp/hard\libg_nano.a(lib_a-memcmp.o)
 .ARM.attributes
                0x00001454       0x34 c:/mesh/arm_gcc/bin/../lib/gcc/arm-none-eabi/6.3.1/../../../../arm-none-eabi/lib/thumb/v7e-m/fpv4-sp/hard\libg_nano.a(lib_a-memcpy-stub.o)
 .ARM.attributes
                0x00001488       0x34 c:/mesh/arm_gcc/bin/../lib/gcc/arm-none-eabi/6.3.1/../../../../arm-none-eabi/lib/thumb/v7e-m/fpv4-sp/hard\libg_nano.a(lib_a-memset.o)
 .ARM.attributes
                0x000014bc       0x34 c:/mesh/arm_gcc/bin/../lib/gcc/arm-none-eabi/6.3.1/../../../../arm-none-eabi/lib/thumb/v7e-m/fpv4-sp/hard\libg_nano.a(lib_a-nano-freer.o)
 .ARM.attributes
                0x000014f0       0x34 c:/mesh/arm_gcc/bin/../lib/gcc/arm-none-eabi/6.3.1/../../../../arm-none-eabi/lib/thumb/v7e-m/fpv4-sp/hard\libg_nano.a(lib_a-nano-mallocr.o)
 .ARM.attributes
                0x00001524       0x34 c:/mesh/arm_gcc/bin/../lib/gcc/arm-none-eabi/6.3.1/../../../../arm-none-eabi/lib/thumb/v7e-m/fpv4-sp/hard\libg_nano.a(lib_a-sbrkr.o)
 .ARM.attributes
                0x00001558       0x34 c:/mesh/arm_gcc/bin/../lib/gcc/arm-none-eabi/6.3.1/../../../../arm-none-eabi/lib/thumb/v7e-m/fpv4-sp/hard\libg_nano.a(lib_a-strcpy.o)
 .ARM.attributes
                0x0000158c       0x1b c:/mesh/arm_gcc/bin/../lib/gcc/arm-none-eabi/6.3.1/../../../../arm-none-eabi/lib/thumb/v7e-m/fpv4-sp/hard\libg_nano.a(lib_a-strlen.o)
 .ARM.attributes
                0x000015a7       0x34 c:/mesh/arm_gcc/bin/../lib/gcc/arm-none-eabi/6.3.1/../../../../arm-none-eabi/lib/thumb/v7e-m/fpv4-sp/hard\libg_nano.a(lib_a-strrchr.o)
 .ARM.attributes
                0x000015db       0x34 c:/mesh/arm_gcc/bin/../lib/gcc/arm-none-eabi/6.3.1/../../../../arm-none-eabi/lib/thumb/v7e-m/fpv4-sp/hard\libg_nano.a(lib_a-mlock.o)
 .ARM.attributes
                0x0000160f       0x34 c:/mesh/arm_gcc/bin/../lib/gcc/arm-none-eabi/6.3.1/../../../../arm-none-eabi/lib/thumb/v7e-m/fpv4-sp/hard\libg_nano.a(lib_a-reent.o)
 .ARM.attributes
                0x00001643       0x34 c:/mesh/arm_gcc/bin/../lib/gcc/arm-none-eabi/6.3.1/../../../../arm-none-eabi/lib/thumb/v7e-m/fpv4-sp/hard\libg_nano.a(lib_a-strchr.o)
 .ARM.attributes
                0x00001677       0x34 c:/mesh/arm_gcc/bin/../lib/gcc/arm-none-eabi/6.3.1/thumb/v7e-m/fpv4-sp/hard/crtend.o
 .ARM.attributes
                0x000016ab       0x22 c:/mesh/arm_gcc/bin/../lib/gcc/arm-none-eabi/6.3.1/thumb/v7e-m/fpv4-sp/hard/crtn.o
 .ARM.attributes
                0x000016cd       0x34 c:/mesh/arm_gcc/bin/../lib/gcc/arm-none-eabi/6.3.1/../../../../arm-none-eabi/lib/thumb/v7e-m/fpv4-sp/hard\libnosys.a(sbrk.o)
 .ARM.attributes
                0x00001701       0x34 c:/mesh/arm_gcc/bin/../lib/gcc/arm-none-eabi/6.3.1/../../../../arm-none-eabi/lib/thumb/v7e-m/fpv4-sp/hard\libnosys.a(_exit.o)

.comment        0x00000000       0x7f
 .comment       0x00000000       0x7f examples/light_switch/server/CMakeFiles/light_switch_server_nrf52840_xxAA_s140_6.0.0.dir/src/main.c.obj
                                 0x80 (size before relaxing)
 .comment       0x0000007f       0x80 examples/light_switch/server/CMakeFiles/light_switch_server_nrf52840_xxAA_s140_6.0.0.dir/__/__/__/mesh/stack/src/mesh_stack.c.obj
 .comment       0x0000007f       0x80 examples/light_switch/server/CMakeFiles/light_switch_server_nrf52840_xxAA_s140_6.0.0.dir/__/__/common/src/mesh_softdevice_init.c.obj
 .comment       0x0000007f       0x80 examples/light_switch/server/CMakeFiles/light_switch_server_nrf52840_xxAA_s140_6.0.0.dir/__/__/common/src/mesh_provisionee.c.obj
 .comment       0x0000007f       0x80 examples/light_switch/server/CMakeFiles/light_switch_server_nrf52840_xxAA_s140_6.0.0.dir/__/__/common/src/rtt_input.c.obj
 .comment       0x0000007f       0x80 examples/light_switch/server/CMakeFiles/light_switch_server_nrf52840_xxAA_s140_6.0.0.dir/__/__/common/src/simple_hal.c.obj
 .comment       0x0000007f       0x80 examples/light_switch/server/CMakeFiles/light_switch_server_nrf52840_xxAA_s140_6.0.0.dir/__/__/common/src/mesh_app_utils.c.obj
 .comment       0x0000007f       0x80 examples/light_switch/server/CMakeFiles/light_switch_server_nrf52840_xxAA_s140_6.0.0.dir/__/__/nrf_mesh_weak.c.obj
 .comment       0x0000007f       0x80 examples/light_switch/server/CMakeFiles/light_switch_server_nrf52840_xxAA_s140_6.0.0.dir/__/__/common/src/app_error_weak.c.obj
 .comment       0x0000007f       0x80 examples/light_switch/server/CMakeFiles/light_switch_server_nrf52840_xxAA_s140_6.0.0.dir/__/__/common/src/assertion_handler_weak.c.obj
 .comment       0x0000007f       0x80 examples/light_switch/server/CMakeFiles/light_switch_server_nrf52840_xxAA_s140_6.0.0.dir/__/__/__/mesh/core/src/nrf_mesh_configure.c.obj
 .comment       0x0000007f       0x80 examples/light_switch/server/CMakeFiles/light_switch_server_nrf52840_xxAA_s140_6.0.0.dir/__/__/__/mesh/core/src/msg_cache.c.obj
 .comment       0x0000007f       0x80 examples/light_switch/server/CMakeFiles/light_switch_server_nrf52840_xxAA_s140_6.0.0.dir/__/__/__/mesh/core/src/transport.c.obj
 .comment       0x0000007f       0x80 examples/light_switch/server/CMakeFiles/light_switch_server_nrf52840_xxAA_s140_6.0.0.dir/__/__/__/mesh/core/src/event.c.obj
 .comment       0x0000007f       0x80 examples/light_switch/server/CMakeFiles/light_switch_server_nrf52840_xxAA_s140_6.0.0.dir/__/__/__/mesh/core/src/packet_buffer.c.obj
 .comment       0x0000007f       0x80 examples/light_switch/server/CMakeFiles/light_switch_server_nrf52840_xxAA_s140_6.0.0.dir/__/__/__/mesh/core/src/flash_manager_defrag.c.obj
 .comment       0x0000007f       0x80 examples/light_switch/server/CMakeFiles/light_switch_server_nrf52840_xxAA_s140_6.0.0.dir/__/__/__/mesh/core/src/fifo.c.obj
 .comment       0x0000007f       0x80 examples/light_switch/server/CMakeFiles/light_switch_server_nrf52840_xxAA_s140_6.0.0.dir/__/__/__/mesh/core/src/nrf_flash.c.obj
 .comment       0x0000007f       0x80 examples/light_switch/server/CMakeFiles/light_switch_server_nrf52840_xxAA_s140_6.0.0.dir/__/__/__/mesh/core/src/packet_mgr.c.obj
 .comment       0x0000007f       0x80 examples/light_switch/server/CMakeFiles/light_switch_server_nrf52840_xxAA_s140_6.0.0.dir/__/__/__/mesh/core/src/net_state.c.obj
 .comment       0x0000007f       0x80 examples/light_switch/server/CMakeFiles/light_switch_server_nrf52840_xxAA_s140_6.0.0.dir/__/__/__/mesh/core/src/mesh_flash.c.obj
 .comment       0x0000007f       0x80 examples/light_switch/server/CMakeFiles/light_switch_server_nrf52840_xxAA_s140_6.0.0.dir/__/__/__/mesh/core/src/nrf_mesh_utils.c.obj
 .comment       0x0000007f       0x80 examples/light_switch/server/CMakeFiles/light_switch_server_nrf52840_xxAA_s140_6.0.0.dir/__/__/__/mesh/core/src/nrf_mesh.c.obj
 .comment       0x0000007f       0x80 examples/light_switch/server/CMakeFiles/light_switch_server_nrf52840_xxAA_s140_6.0.0.dir/__/__/__/mesh/core/src/queue.c.obj
 .comment       0x0000007f       0x80 examples/light_switch/server/CMakeFiles/light_switch_server_nrf52840_xxAA_s140_6.0.0.dir/__/__/__/mesh/core/src/hal.c.obj
 .comment       0x0000007f       0x80 examples/light_switch/server/CMakeFiles/light_switch_server_nrf52840_xxAA_s140_6.0.0.dir/__/__/__/mesh/core/src/aes_cmac.c.obj
 .comment       0x0000007f       0x80 examples/light_switch/server/CMakeFiles/light_switch_server_nrf52840_xxAA_s140_6.0.0.dir/__/__/__/mesh/core/src/timer_scheduler.c.obj
 .comment       0x0000007f       0x80 examples/light_switch/server/CMakeFiles/light_switch_server_nrf52840_xxAA_s140_6.0.0.dir/__/__/__/mesh/core/src/timer.c.obj
 .comment       0x0000007f       0x80 examples/light_switch/server/CMakeFiles/light_switch_server_nrf52840_xxAA_s140_6.0.0.dir/__/__/__/mesh/core/src/ticker.c.obj
 .comment       0x0000007f       0x80 examples/light_switch/server/CMakeFiles/light_switch_server_nrf52840_xxAA_s140_6.0.0.dir/__/__/__/mesh/core/src/rand.c.obj
 .comment       0x0000007f       0x80 examples/light_switch/server/CMakeFiles/light_switch_server_nrf52840_xxAA_s140_6.0.0.dir/__/__/__/mesh/core/src/nrf_mesh_opt.c.obj
 .comment       0x0000007f       0x80 examples/light_switch/server/CMakeFiles/light_switch_server_nrf52840_xxAA_s140_6.0.0.dir/__/__/__/mesh/core/src/timeslot.c.obj
 .comment       0x0000007f       0x80 examples/light_switch/server/CMakeFiles/light_switch_server_nrf52840_xxAA_s140_6.0.0.dir/__/__/__/mesh/core/src/bearer_event.c.obj
 .comment       0x0000007f       0x80 examples/light_switch/server/CMakeFiles/light_switch_server_nrf52840_xxAA_s140_6.0.0.dir/__/__/__/mesh/core/src/enc.c.obj
 .comment       0x0000007f       0x80 examples/light_switch/server/CMakeFiles/light_switch_server_nrf52840_xxAA_s140_6.0.0.dir/__/__/__/mesh/core/src/network.c.obj
 .comment       0x0000007f       0x80 examples/light_switch/server/CMakeFiles/light_switch_server_nrf52840_xxAA_s140_6.0.0.dir/__/__/__/mesh/core/src/net_packet.c.obj
 .comment       0x0000007f       0x80 examples/light_switch/server/CMakeFiles/light_switch_server_nrf52840_xxAA_s140_6.0.0.dir/__/__/__/mesh/core/src/msqueue.c.obj
 .comment       0x0000007f       0x80 examples/light_switch/server/CMakeFiles/light_switch_server_nrf52840_xxAA_s140_6.0.0.dir/__/__/__/mesh/core/src/nrf_mesh_keygen.c.obj
 .comment       0x0000007f       0x80 examples/light_switch/server/CMakeFiles/light_switch_server_nrf52840_xxAA_s140_6.0.0.dir/__/__/__/mesh/core/src/list.c.obj
 .comment       0x0000007f       0x80 examples/light_switch/server/CMakeFiles/light_switch_server_nrf52840_xxAA_s140_6.0.0.dir/__/__/__/mesh/core/src/log.c.obj
 .comment       0x0000007f       0x80 examples/light_switch/server/CMakeFiles/light_switch_server_nrf52840_xxAA_s140_6.0.0.dir/__/__/__/mesh/core/src/flash_manager.c.obj
 .comment       0x0000007f       0x80 examples/light_switch/server/CMakeFiles/light_switch_server_nrf52840_xxAA_s140_6.0.0.dir/__/__/__/mesh/core/src/ccm_soft.c.obj
 .comment       0x0000007f       0x80 examples/light_switch/server/CMakeFiles/light_switch_server_nrf52840_xxAA_s140_6.0.0.dir/__/__/__/mesh/core/src/replay_cache.c.obj
 .comment       0x0000007f       0x80 examples/light_switch/server/CMakeFiles/light_switch_server_nrf52840_xxAA_s140_6.0.0.dir/__/__/__/mesh/core/src/beacon.c.obj
 .comment       0x0000007f       0x80 examples/light_switch/server/CMakeFiles/light_switch_server_nrf52840_xxAA_s140_6.0.0.dir/__/__/__/mesh/core/src/flash_manager_internal.c.obj
 .comment       0x0000007f       0x80 examples/light_switch/server/CMakeFiles/light_switch_server_nrf52840_xxAA_s140_6.0.0.dir/__/__/__/mesh/core/src/core_tx.c.obj
 .comment       0x0000007f       0x80 examples/light_switch/server/CMakeFiles/light_switch_server_nrf52840_xxAA_s140_6.0.0.dir/__/__/__/mesh/core/src/heartbeat.c.obj
 .comment       0x0000007f       0x80 examples/light_switch/server/CMakeFiles/light_switch_server_nrf52840_xxAA_s140_6.0.0.dir/__/__/__/mesh/core/src/net_beacon.c.obj
 .comment       0x0000007f       0x80 examples/light_switch/server/CMakeFiles/light_switch_server_nrf52840_xxAA_s140_6.0.0.dir/__/__/__/mesh/core/src/core_tx_adv.c.obj
 .comment       0x0000007f       0x80 examples/light_switch/server/CMakeFiles/light_switch_server_nrf52840_xxAA_s140_6.0.0.dir/__/__/__/mesh/bearer/src/ad_listener.c.obj
 .comment       0x0000007f       0x80 examples/light_switch/server/CMakeFiles/light_switch_server_nrf52840_xxAA_s140_6.0.0.dir/__/__/__/mesh/bearer/src/ad_type_filter.c.obj
 .comment       0x0000007f       0x80 examples/light_switch/server/CMakeFiles/light_switch_server_nrf52840_xxAA_s140_6.0.0.dir/__/__/__/mesh/bearer/src/advertiser.c.obj
 .comment       0x0000007f       0x80 examples/light_switch/server/CMakeFiles/light_switch_server_nrf52840_xxAA_s140_6.0.0.dir/__/__/__/mesh/bearer/src/bearer_handler.c.obj
 .comment       0x0000007f       0x80 examples/light_switch/server/CMakeFiles/light_switch_server_nrf52840_xxAA_s140_6.0.0.dir/__/__/__/mesh/bearer/src/broadcast.c.obj
 .comment       0x0000007f       0x80 examples/light_switch/server/CMakeFiles/light_switch_server_nrf52840_xxAA_s140_6.0.0.dir/__/__/__/mesh/bearer/src/filter_engine.c.obj
 .comment       0x0000007f       0x80 examples/light_switch/server/CMakeFiles/light_switch_server_nrf52840_xxAA_s140_6.0.0.dir/__/__/__/mesh/bearer/src/radio_config.c.obj
 .comment       0x0000007f       0x80 examples/light_switch/server/CMakeFiles/light_switch_server_nrf52840_xxAA_s140_6.0.0.dir/__/__/__/mesh/bearer/src/scanner.c.obj
 .comment       0x0000007f       0x80 examples/light_switch/server/CMakeFiles/light_switch_server_nrf52840_xxAA_s140_6.0.0.dir/__/__/__/mesh/bearer/src/mesh_pa_lna.c.obj
 .comment       0x0000007f       0x80 examples/light_switch/server/CMakeFiles/light_switch_server_nrf52840_xxAA_s140_6.0.0.dir/__/__/__/models/simple_on_off/src/simple_on_off_server.c.obj
 .comment       0x0000007f       0x80 examples/light_switch/server/CMakeFiles/light_switch_server_nrf52840_xxAA_s140_6.0.0.dir/__/__/__/models/config/src/composition_data.c.obj
 .comment       0x0000007f       0x80 examples/light_switch/server/CMakeFiles/light_switch_server_nrf52840_xxAA_s140_6.0.0.dir/__/__/__/models/config/src/config_server.c.obj
 .comment       0x0000007f       0x80 examples/light_switch/server/CMakeFiles/light_switch_server_nrf52840_xxAA_s140_6.0.0.dir/__/__/__/models/config/src/packed_index_list.c.obj
 .comment       0x0000007f       0x80 examples/light_switch/server/CMakeFiles/light_switch_server_nrf52840_xxAA_s140_6.0.0.dir/__/__/__/models/health/src/health_server.c.obj
 .comment       0x0000007f       0x80 examples/light_switch/server/CMakeFiles/light_switch_server_nrf52840_xxAA_s140_6.0.0.dir/__/__/__/mesh/access/src/access_publish.c.obj
 .comment       0x0000007f       0x80 examples/light_switch/server/CMakeFiles/light_switch_server_nrf52840_xxAA_s140_6.0.0.dir/__/__/__/mesh/access/src/access.c.obj
 .comment       0x0000007f       0x80 examples/light_switch/server/CMakeFiles/light_switch_server_nrf52840_xxAA_s140_6.0.0.dir/__/__/__/mesh/access/src/access_reliable.c.obj
 .comment       0x0000007f       0x80 examples/light_switch/server/CMakeFiles/light_switch_server_nrf52840_xxAA_s140_6.0.0.dir/__/__/__/mesh/access/src/access_loopback.c.obj
 .comment       0x0000007f       0x80 examples/light_switch/server/CMakeFiles/light_switch_server_nrf52840_xxAA_s140_6.0.0.dir/__/__/__/mesh/access/src/device_state_manager.c.obj
 .comment       0x0000007f       0x80 examples/light_switch/server/CMakeFiles/light_switch_server_nrf52840_xxAA_s140_6.0.0.dir/__/__/__/mesh/prov/src/prov_provisionee.c.obj
 .comment       0x0000007f       0x80 examples/light_switch/server/CMakeFiles/light_switch_server_nrf52840_xxAA_s140_6.0.0.dir/__/__/__/mesh/prov/src/nrf_mesh_prov.c.obj
 .comment       0x0000007f       0x80 examples/light_switch/server/CMakeFiles/light_switch_server_nrf52840_xxAA_s140_6.0.0.dir/__/__/__/mesh/prov/src/provisioning.c.obj
 .comment       0x0000007f       0x80 examples/light_switch/server/CMakeFiles/light_switch_server_nrf52840_xxAA_s140_6.0.0.dir/__/__/__/mesh/prov/src/prov_beacon.c.obj
 .comment       0x0000007f       0x80 examples/light_switch/server/CMakeFiles/light_switch_server_nrf52840_xxAA_s140_6.0.0.dir/__/__/__/mesh/prov/src/prov_utils.c.obj
 .comment       0x0000007f       0x80 examples/light_switch/server/CMakeFiles/light_switch_server_nrf52840_xxAA_s140_6.0.0.dir/__/__/__/mesh/prov/src/prov_bearer_adv.c.obj
 .comment       0x0000007f       0x80 examples/light_switch/server/CMakeFiles/light_switch_server_nrf52840_xxAA_s140_6.0.0.dir/C_/b/nRF5_SDK_15.0.0_a53641a/modules/nrfx/mdk/system_nrf52840.c.obj
 .comment       0x0000007f       0x80 examples/light_switch/server/CMakeFiles/light_switch_server_nrf52840_xxAA_s140_6.0.0.dir/C_/b/nRF5_SDK_15.0.0_a53641a/components/libraries/util/app_error.c.obj
 .comment       0x0000007f       0x80 examples/light_switch/server/CMakeFiles/light_switch_server_nrf52840_xxAA_s140_6.0.0.dir/C_/b/nRF5_SDK_15.0.0_a53641a/components/libraries/util/app_util_platform.c.obj
 .comment       0x0000007f       0x80 examples/light_switch/server/CMakeFiles/light_switch_server_nrf52840_xxAA_s140_6.0.0.dir/C_/b/nRF5_SDK_15.0.0_a53641a/components/libraries/timer/app_timer.c.obj
 .comment       0x0000007f       0x80 examples/light_switch/server/CMakeFiles/light_switch_server_nrf52840_xxAA_s140_6.0.0.dir/C_/b/nRF5_SDK_15.0.0_a53641a/components/libraries/util/app_error_handler_gcc.c.obj
 .comment       0x0000007f       0x80 external/rtt/librtt_nrf52840_xxAA.a(SEGGER_RTT.c.obj)
 .comment       0x0000007f       0x80 external/rtt/librtt_nrf52840_xxAA.a(SEGGER_RTT_printf.c.obj)
 .comment       0x0000007f       0x80 external/micro-ecc/libuECC_nrf52840_xxAA.a(uECC.c.obj)

.debug_info     0x00000000    0x8489b
 .debug_info    0x00000000     0x296c examples/light_switch/server/CMakeFiles/light_switch_server_nrf52840_xxAA_s140_6.0.0.dir/src/main.c.obj
 .debug_info    0x0000296c     0x2332 examples/light_switch/server/CMakeFiles/light_switch_server_nrf52840_xxAA_s140_6.0.0.dir/__/__/__/mesh/stack/src/mesh_stack.c.obj
 .debug_info    0x00004c9e     0x1bac examples/light_switch/server/CMakeFiles/light_switch_server_nrf52840_xxAA_s140_6.0.0.dir/__/__/common/src/mesh_softdevice_init.c.obj
 .debug_info    0x0000684a     0x21a6 examples/light_switch/server/CMakeFiles/light_switch_server_nrf52840_xxAA_s140_6.0.0.dir/__/__/common/src/mesh_provisionee.c.obj
 .debug_info    0x000089f0      0xd57 examples/light_switch/server/CMakeFiles/light_switch_server_nrf52840_xxAA_s140_6.0.0.dir/__/__/common/src/rtt_input.c.obj
 .debug_info    0x00009747     0x1623 examples/light_switch/server/CMakeFiles/light_switch_server_nrf52840_xxAA_s140_6.0.0.dir/__/__/common/src/simple_hal.c.obj
 .debug_info    0x0000ad6a      0xde7 examples/light_switch/server/CMakeFiles/light_switch_server_nrf52840_xxAA_s140_6.0.0.dir/__/__/common/src/mesh_app_utils.c.obj
 .debug_info    0x0000bb51      0x924 examples/light_switch/server/CMakeFiles/light_switch_server_nrf52840_xxAA_s140_6.0.0.dir/__/__/nrf_mesh_weak.c.obj
 .debug_info    0x0000c475     0x106b examples/light_switch/server/CMakeFiles/light_switch_server_nrf52840_xxAA_s140_6.0.0.dir/__/__/common/src/app_error_weak.c.obj
 .debug_info    0x0000d4e0      0x99b examples/light_switch/server/CMakeFiles/light_switch_server_nrf52840_xxAA_s140_6.0.0.dir/__/__/common/src/assertion_handler_weak.c.obj
 .debug_info    0x0000de7b      0xdff examples/light_switch/server/CMakeFiles/light_switch_server_nrf52840_xxAA_s140_6.0.0.dir/__/__/__/mesh/core/src/nrf_mesh_configure.c.obj
 .debug_info    0x0000ec7a      0xa5a examples/light_switch/server/CMakeFiles/light_switch_server_nrf52840_xxAA_s140_6.0.0.dir/__/__/__/mesh/core/src/msg_cache.c.obj
 .debug_info    0x0000f6d4     0x5091 examples/light_switch/server/CMakeFiles/light_switch_server_nrf52840_xxAA_s140_6.0.0.dir/__/__/__/mesh/core/src/transport.c.obj
 .debug_info    0x00014765     0x17e1 examples/light_switch/server/CMakeFiles/light_switch_server_nrf52840_xxAA_s140_6.0.0.dir/__/__/__/mesh/core/src/event.c.obj
 .debug_info    0x00015f46     0x1a22 examples/light_switch/server/CMakeFiles/light_switch_server_nrf52840_xxAA_s140_6.0.0.dir/__/__/__/mesh/core/src/packet_buffer.c.obj
 .debug_info    0x00017968     0x212b examples/light_switch/server/CMakeFiles/light_switch_server_nrf52840_xxAA_s140_6.0.0.dir/__/__/__/mesh/core/src/flash_manager_defrag.c.obj
 .debug_info    0x00019a93      0xd19 examples/light_switch/server/CMakeFiles/light_switch_server_nrf52840_xxAA_s140_6.0.0.dir/__/__/__/mesh/core/src/fifo.c.obj
 .debug_info    0x0001a7ac      0xb58 examples/light_switch/server/CMakeFiles/light_switch_server_nrf52840_xxAA_s140_6.0.0.dir/__/__/__/mesh/core/src/nrf_flash.c.obj
 .debug_info    0x0001b304     0x118d examples/light_switch/server/CMakeFiles/light_switch_server_nrf52840_xxAA_s140_6.0.0.dir/__/__/__/mesh/core/src/packet_mgr.c.obj
 .debug_info    0x0001c491     0x2825 examples/light_switch/server/CMakeFiles/light_switch_server_nrf52840_xxAA_s140_6.0.0.dir/__/__/__/mesh/core/src/net_state.c.obj
 .debug_info    0x0001ecb6     0x1948 examples/light_switch/server/CMakeFiles/light_switch_server_nrf52840_xxAA_s140_6.0.0.dir/__/__/__/mesh/core/src/mesh_flash.c.obj
 .debug_info    0x000205fe      0xa78 examples/light_switch/server/CMakeFiles/light_switch_server_nrf52840_xxAA_s140_6.0.0.dir/__/__/__/mesh/core/src/nrf_mesh_utils.c.obj
 .debug_info    0x00021076     0x25db examples/light_switch/server/CMakeFiles/light_switch_server_nrf52840_xxAA_s140_6.0.0.dir/__/__/__/mesh/core/src/nrf_mesh.c.obj
 .debug_info    0x00023651      0xb11 examples/light_switch/server/CMakeFiles/light_switch_server_nrf52840_xxAA_s140_6.0.0.dir/__/__/__/mesh/core/src/queue.c.obj
 .debug_info    0x00024162      0x51a examples/light_switch/server/CMakeFiles/light_switch_server_nrf52840_xxAA_s140_6.0.0.dir/__/__/__/mesh/core/src/hal.c.obj
 .debug_info    0x0002467c      0xf6a examples/light_switch/server/CMakeFiles/light_switch_server_nrf52840_xxAA_s140_6.0.0.dir/__/__/__/mesh/core/src/aes_cmac.c.obj
 .debug_info    0x000255e6     0x10e0 examples/light_switch/server/CMakeFiles/light_switch_server_nrf52840_xxAA_s140_6.0.0.dir/__/__/__/mesh/core/src/timer_scheduler.c.obj
 .debug_info    0x000266c6      0xdb4 examples/light_switch/server/CMakeFiles/light_switch_server_nrf52840_xxAA_s140_6.0.0.dir/__/__/__/mesh/core/src/timer.c.obj
 .debug_info    0x0002747a      0x20b examples/light_switch/server/CMakeFiles/light_switch_server_nrf52840_xxAA_s140_6.0.0.dir/__/__/__/mesh/core/src/ticker.c.obj
 .debug_info    0x00027685      0x426 examples/light_switch/server/CMakeFiles/light_switch_server_nrf52840_xxAA_s140_6.0.0.dir/__/__/__/mesh/core/src/rand.c.obj
 .debug_info    0x00027aab      0xb03 examples/light_switch/server/CMakeFiles/light_switch_server_nrf52840_xxAA_s140_6.0.0.dir/__/__/__/mesh/core/src/nrf_mesh_opt.c.obj
 .debug_info    0x000285ae     0x1a71 examples/light_switch/server/CMakeFiles/light_switch_server_nrf52840_xxAA_s140_6.0.0.dir/__/__/__/mesh/core/src/timeslot.c.obj
 .debug_info    0x0002a01f     0x1a9c examples/light_switch/server/CMakeFiles/light_switch_server_nrf52840_xxAA_s140_6.0.0.dir/__/__/__/mesh/core/src/bearer_event.c.obj
 .debug_info    0x0002babb     0x1929 examples/light_switch/server/CMakeFiles/light_switch_server_nrf52840_xxAA_s140_6.0.0.dir/__/__/__/mesh/core/src/enc.c.obj
 .debug_info    0x0002d3e4     0x1b5f examples/light_switch/server/CMakeFiles/light_switch_server_nrf52840_xxAA_s140_6.0.0.dir/__/__/__/mesh/core/src/network.c.obj
 .debug_info    0x0002ef43     0x1cad examples/light_switch/server/CMakeFiles/light_switch_server_nrf52840_xxAA_s140_6.0.0.dir/__/__/__/mesh/core/src/net_packet.c.obj
 .debug_info    0x00030bf0      0xd86 examples/light_switch/server/CMakeFiles/light_switch_server_nrf52840_xxAA_s140_6.0.0.dir/__/__/__/mesh/core/src/msqueue.c.obj
 .debug_info    0x00031976      0x4c8 examples/light_switch/server/CMakeFiles/light_switch_server_nrf52840_xxAA_s140_6.0.0.dir/__/__/__/mesh/core/src/nrf_mesh_keygen.c.obj
 .debug_info    0x00031e3e      0x506 examples/light_switch/server/CMakeFiles/light_switch_server_nrf52840_xxAA_s140_6.0.0.dir/__/__/__/mesh/core/src/list.c.obj
 .debug_info    0x00032344      0xe28 examples/light_switch/server/CMakeFiles/light_switch_server_nrf52840_xxAA_s140_6.0.0.dir/__/__/__/mesh/core/src/log.c.obj
 .debug_info    0x0003316c     0x3024 examples/light_switch/server/CMakeFiles/light_switch_server_nrf52840_xxAA_s140_6.0.0.dir/__/__/__/mesh/core/src/flash_manager.c.obj
 .debug_info    0x00036190     0x12e6 examples/light_switch/server/CMakeFiles/light_switch_server_nrf52840_xxAA_s140_6.0.0.dir/__/__/__/mesh/core/src/ccm_soft.c.obj
 .debug_info    0x00037476      0xa93 examples/light_switch/server/CMakeFiles/light_switch_server_nrf52840_xxAA_s140_6.0.0.dir/__/__/__/mesh/core/src/replay_cache.c.obj
 .debug_info    0x00037f09     0x17b4 examples/light_switch/server/CMakeFiles/light_switch_server_nrf52840_xxAA_s140_6.0.0.dir/__/__/__/mesh/core/src/beacon.c.obj
 .debug_info    0x000396bd      0xb9b examples/light_switch/server/CMakeFiles/light_switch_server_nrf52840_xxAA_s140_6.0.0.dir/__/__/__/mesh/core/src/flash_manager_internal.c.obj
 .debug_info    0x0003a258     0x126f examples/light_switch/server/CMakeFiles/light_switch_server_nrf52840_xxAA_s140_6.0.0.dir/__/__/__/mesh/core/src/core_tx.c.obj
 .debug_info    0x0003b4c7     0x2520 examples/light_switch/server/CMakeFiles/light_switch_server_nrf52840_xxAA_s140_6.0.0.dir/__/__/__/mesh/core/src/heartbeat.c.obj
 .debug_info    0x0003d9e7     0x28e2 examples/light_switch/server/CMakeFiles/light_switch_server_nrf52840_xxAA_s140_6.0.0.dir/__/__/__/mesh/core/src/net_beacon.c.obj
 .debug_info    0x000402c9     0x1a1f examples/light_switch/server/CMakeFiles/light_switch_server_nrf52840_xxAA_s140_6.0.0.dir/__/__/__/mesh/core/src/core_tx_adv.c.obj
 .debug_info    0x00041ce8     0x115d examples/light_switch/server/CMakeFiles/light_switch_server_nrf52840_xxAA_s140_6.0.0.dir/__/__/__/mesh/bearer/src/ad_listener.c.obj
 .debug_info    0x00042e45      0xfbe examples/light_switch/server/CMakeFiles/light_switch_server_nrf52840_xxAA_s140_6.0.0.dir/__/__/__/mesh/bearer/src/ad_type_filter.c.obj
 .debug_info    0x00043e03     0x270e examples/light_switch/server/CMakeFiles/light_switch_server_nrf52840_xxAA_s140_6.0.0.dir/__/__/__/mesh/bearer/src/advertiser.c.obj
 .debug_info    0x00046511     0x231a examples/light_switch/server/CMakeFiles/light_switch_server_nrf52840_xxAA_s140_6.0.0.dir/__/__/__/mesh/bearer/src/bearer_handler.c.obj
 .debug_info    0x0004882b     0x1b92 examples/light_switch/server/CMakeFiles/light_switch_server_nrf52840_xxAA_s140_6.0.0.dir/__/__/__/mesh/bearer/src/broadcast.c.obj
 .debug_info    0x0004a3bd      0xcff examples/light_switch/server/CMakeFiles/light_switch_server_nrf52840_xxAA_s140_6.0.0.dir/__/__/__/mesh/bearer/src/filter_engine.c.obj
 .debug_info    0x0004b0bc      0xa53 examples/light_switch/server/CMakeFiles/light_switch_server_nrf52840_xxAA_s140_6.0.0.dir/__/__/__/mesh/bearer/src/radio_config.c.obj
 .debug_info    0x0004bb0f     0x28e3 examples/light_switch/server/CMakeFiles/light_switch_server_nrf52840_xxAA_s140_6.0.0.dir/__/__/__/mesh/bearer/src/scanner.c.obj
 .debug_info    0x0004e3f2     0x107c examples/light_switch/server/CMakeFiles/light_switch_server_nrf52840_xxAA_s140_6.0.0.dir/__/__/__/mesh/bearer/src/mesh_pa_lna.c.obj
 .debug_info    0x0004f46e      0xb6d examples/light_switch/server/CMakeFiles/light_switch_server_nrf52840_xxAA_s140_6.0.0.dir/__/__/__/models/simple_on_off/src/simple_on_off_server.c.obj
 .debug_info    0x0004ffdb      0xed3 examples/light_switch/server/CMakeFiles/light_switch_server_nrf52840_xxAA_s140_6.0.0.dir/__/__/__/models/config/src/composition_data.c.obj
 .debug_info    0x00050eae     0x8bcf examples/light_switch/server/CMakeFiles/light_switch_server_nrf52840_xxAA_s140_6.0.0.dir/__/__/__/models/config/src/config_server.c.obj
 .debug_info    0x00059a7d      0x126 examples/light_switch/server/CMakeFiles/light_switch_server_nrf52840_xxAA_s140_6.0.0.dir/__/__/__/models/config/src/packed_index_list.c.obj
 .debug_info    0x00059ba3     0x2629 examples/light_switch/server/CMakeFiles/light_switch_server_nrf52840_xxAA_s140_6.0.0.dir/__/__/__/models/health/src/health_server.c.obj
 .debug_info    0x0005c1cc     0x1155 examples/light_switch/server/CMakeFiles/light_switch_server_nrf52840_xxAA_s140_6.0.0.dir/__/__/__/mesh/access/src/access_publish.c.obj
 .debug_info    0x0005d321     0x4a5b examples/light_switch/server/CMakeFiles/light_switch_server_nrf52840_xxAA_s140_6.0.0.dir/__/__/__/mesh/access/src/access.c.obj
 .debug_info    0x00061d7c     0x19db examples/light_switch/server/CMakeFiles/light_switch_server_nrf52840_xxAA_s140_6.0.0.dir/__/__/__/mesh/access/src/access_reliable.c.obj
 .debug_info    0x00063757      0xfbf examples/light_switch/server/CMakeFiles/light_switch_server_nrf52840_xxAA_s140_6.0.0.dir/__/__/__/mesh/access/src/access_loopback.c.obj
 .debug_info    0x00064716     0x679f examples/light_switch/server/CMakeFiles/light_switch_server_nrf52840_xxAA_s140_6.0.0.dir/__/__/__/mesh/access/src/device_state_manager.c.obj
 .debug_info    0x0006aeb5     0x2823 examples/light_switch/server/CMakeFiles/light_switch_server_nrf52840_xxAA_s140_6.0.0.dir/__/__/__/mesh/prov/src/prov_provisionee.c.obj
 .debug_info    0x0006d6d8     0x1ed2 examples/light_switch/server/CMakeFiles/light_switch_server_nrf52840_xxAA_s140_6.0.0.dir/__/__/__/mesh/prov/src/nrf_mesh_prov.c.obj
 .debug_info    0x0006f5aa     0x1586 examples/light_switch/server/CMakeFiles/light_switch_server_nrf52840_xxAA_s140_6.0.0.dir/__/__/__/mesh/prov/src/provisioning.c.obj
 .debug_info    0x00070b30     0x1a7d examples/light_switch/server/CMakeFiles/light_switch_server_nrf52840_xxAA_s140_6.0.0.dir/__/__/__/mesh/prov/src/prov_beacon.c.obj
 .debug_info    0x000725ad     0x205e examples/light_switch/server/CMakeFiles/light_switch_server_nrf52840_xxAA_s140_6.0.0.dir/__/__/__/mesh/prov/src/prov_utils.c.obj
 .debug_info    0x0007460b     0x3ae7 examples/light_switch/server/CMakeFiles/light_switch_server_nrf52840_xxAA_s140_6.0.0.dir/__/__/__/mesh/prov/src/prov_bearer_adv.c.obj
 .debug_info    0x000780f2     0x139f examples/light_switch/server/CMakeFiles/light_switch_server_nrf52840_xxAA_s140_6.0.0.dir/C_/b/nRF5_SDK_15.0.0_a53641a/modules/nrfx/mdk/system_nrf52840.c.obj
 .debug_info    0x00079491      0xaee examples/light_switch/server/CMakeFiles/light_switch_server_nrf52840_xxAA_s140_6.0.0.dir/C_/b/nRF5_SDK_15.0.0_a53641a/components/libraries/util/app_error.c.obj
 .debug_info    0x00079f7f     0x11bd examples/light_switch/server/CMakeFiles/light_switch_server_nrf52840_xxAA_s140_6.0.0.dir/C_/b/nRF5_SDK_15.0.0_a53641a/components/libraries/util/app_util_platform.c.obj
 .debug_info    0x0007b13c     0x2201 examples/light_switch/server/CMakeFiles/light_switch_server_nrf52840_xxAA_s140_6.0.0.dir/C_/b/nRF5_SDK_15.0.0_a53641a/components/libraries/timer/app_timer.c.obj
 .debug_info    0x0007d33d      0x974 examples/light_switch/server/CMakeFiles/light_switch_server_nrf52840_xxAA_s140_6.0.0.dir/C_/b/nRF5_SDK_15.0.0_a53641a/components/libraries/util/app_error_handler_gcc.c.obj
 .debug_info    0x0007dcb1     0x1818 external/rtt/librtt_nrf52840_xxAA.a(SEGGER_RTT.c.obj)
 .debug_info    0x0007f4c9      0xec1 external/rtt/librtt_nrf52840_xxAA.a(SEGGER_RTT_printf.c.obj)
 .debug_info    0x0008038a     0x4511 external/micro-ecc/libuECC_nrf52840_xxAA.a(uECC.c.obj)

.debug_abbrev   0x00000000    0x11927
 .debug_abbrev  0x00000000      0x4d3 examples/light_switch/server/CMakeFiles/light_switch_server_nrf52840_xxAA_s140_6.0.0.dir/src/main.c.obj
 .debug_abbrev  0x000004d3      0x36b examples/light_switch/server/CMakeFiles/light_switch_server_nrf52840_xxAA_s140_6.0.0.dir/__/__/__/mesh/stack/src/mesh_stack.c.obj
 .debug_abbrev  0x0000083e      0x432 examples/light_switch/server/CMakeFiles/light_switch_server_nrf52840_xxAA_s140_6.0.0.dir/__/__/common/src/mesh_softdevice_init.c.obj
 .debug_abbrev  0x00000c70      0x312 examples/light_switch/server/CMakeFiles/light_switch_server_nrf52840_xxAA_s140_6.0.0.dir/__/__/common/src/mesh_provisionee.c.obj
 .debug_abbrev  0x00000f82      0x2d3 examples/light_switch/server/CMakeFiles/light_switch_server_nrf52840_xxAA_s140_6.0.0.dir/__/__/common/src/rtt_input.c.obj
 .debug_abbrev  0x00001255      0x3a3 examples/light_switch/server/CMakeFiles/light_switch_server_nrf52840_xxAA_s140_6.0.0.dir/__/__/common/src/simple_hal.c.obj
 .debug_abbrev  0x000015f8      0x22a examples/light_switch/server/CMakeFiles/light_switch_server_nrf52840_xxAA_s140_6.0.0.dir/__/__/common/src/mesh_app_utils.c.obj
 .debug_abbrev  0x00001822      0x1ae examples/light_switch/server/CMakeFiles/light_switch_server_nrf52840_xxAA_s140_6.0.0.dir/__/__/nrf_mesh_weak.c.obj
 .debug_abbrev  0x000019d0      0x2de examples/light_switch/server/CMakeFiles/light_switch_server_nrf52840_xxAA_s140_6.0.0.dir/__/__/common/src/app_error_weak.c.obj
 .debug_abbrev  0x00001cae      0x1f6 examples/light_switch/server/CMakeFiles/light_switch_server_nrf52840_xxAA_s140_6.0.0.dir/__/__/common/src/assertion_handler_weak.c.obj
 .debug_abbrev  0x00001ea4      0x254 examples/light_switch/server/CMakeFiles/light_switch_server_nrf52840_xxAA_s140_6.0.0.dir/__/__/__/mesh/core/src/nrf_mesh_configure.c.obj
 .debug_abbrev  0x000020f8      0x25d examples/light_switch/server/CMakeFiles/light_switch_server_nrf52840_xxAA_s140_6.0.0.dir/__/__/__/mesh/core/src/msg_cache.c.obj
 .debug_abbrev  0x00002355      0x5f5 examples/light_switch/server/CMakeFiles/light_switch_server_nrf52840_xxAA_s140_6.0.0.dir/__/__/__/mesh/core/src/transport.c.obj
 .debug_abbrev  0x0000294a      0x314 examples/light_switch/server/CMakeFiles/light_switch_server_nrf52840_xxAA_s140_6.0.0.dir/__/__/__/mesh/core/src/event.c.obj
 .debug_abbrev  0x00002c5e      0x468 examples/light_switch/server/CMakeFiles/light_switch_server_nrf52840_xxAA_s140_6.0.0.dir/__/__/__/mesh/core/src/packet_buffer.c.obj
 .debug_abbrev  0x000030c6      0x50e examples/light_switch/server/CMakeFiles/light_switch_server_nrf52840_xxAA_s140_6.0.0.dir/__/__/__/mesh/core/src/flash_manager_defrag.c.obj
 .debug_abbrev  0x000035d4      0x2f2 examples/light_switch/server/CMakeFiles/light_switch_server_nrf52840_xxAA_s140_6.0.0.dir/__/__/__/mesh/core/src/fifo.c.obj
 .debug_abbrev  0x000038c6      0x21f examples/light_switch/server/CMakeFiles/light_switch_server_nrf52840_xxAA_s140_6.0.0.dir/__/__/__/mesh/core/src/nrf_flash.c.obj
 .debug_abbrev  0x00003ae5      0x3b1 examples/light_switch/server/CMakeFiles/light_switch_server_nrf52840_xxAA_s140_6.0.0.dir/__/__/__/mesh/core/src/packet_mgr.c.obj
 .debug_abbrev  0x00003e96      0x552 examples/light_switch/server/CMakeFiles/light_switch_server_nrf52840_xxAA_s140_6.0.0.dir/__/__/__/mesh/core/src/net_state.c.obj
 .debug_abbrev  0x000043e8      0x453 examples/light_switch/server/CMakeFiles/light_switch_server_nrf52840_xxAA_s140_6.0.0.dir/__/__/__/mesh/core/src/mesh_flash.c.obj
 .debug_abbrev  0x0000483b      0x242 examples/light_switch/server/CMakeFiles/light_switch_server_nrf52840_xxAA_s140_6.0.0.dir/__/__/__/mesh/core/src/nrf_mesh_utils.c.obj
 .debug_abbrev  0x00004a7d      0x490 examples/light_switch/server/CMakeFiles/light_switch_server_nrf52840_xxAA_s140_6.0.0.dir/__/__/__/mesh/core/src/nrf_mesh.c.obj
 .debug_abbrev  0x00004f0d      0x247 examples/light_switch/server/CMakeFiles/light_switch_server_nrf52840_xxAA_s140_6.0.0.dir/__/__/__/mesh/core/src/queue.c.obj
 .debug_abbrev  0x00005154      0x1cf examples/light_switch/server/CMakeFiles/light_switch_server_nrf52840_xxAA_s140_6.0.0.dir/__/__/__/mesh/core/src/hal.c.obj
 .debug_abbrev  0x00005323      0x341 examples/light_switch/server/CMakeFiles/light_switch_server_nrf52840_xxAA_s140_6.0.0.dir/__/__/__/mesh/core/src/aes_cmac.c.obj
 .debug_abbrev  0x00005664      0x3bc examples/light_switch/server/CMakeFiles/light_switch_server_nrf52840_xxAA_s140_6.0.0.dir/__/__/__/mesh/core/src/timer_scheduler.c.obj
 .debug_abbrev  0x00005a20      0x337 examples/light_switch/server/CMakeFiles/light_switch_server_nrf52840_xxAA_s140_6.0.0.dir/__/__/__/mesh/core/src/timer.c.obj
 .debug_abbrev  0x00005d57      0x152 examples/light_switch/server/CMakeFiles/light_switch_server_nrf52840_xxAA_s140_6.0.0.dir/__/__/__/mesh/core/src/ticker.c.obj
 .debug_abbrev  0x00005ea9      0x194 examples/light_switch/server/CMakeFiles/light_switch_server_nrf52840_xxAA_s140_6.0.0.dir/__/__/__/mesh/core/src/rand.c.obj
 .debug_abbrev  0x0000603d      0x24a examples/light_switch/server/CMakeFiles/light_switch_server_nrf52840_xxAA_s140_6.0.0.dir/__/__/__/mesh/core/src/nrf_mesh_opt.c.obj
 .debug_abbrev  0x00006287      0x4a4 examples/light_switch/server/CMakeFiles/light_switch_server_nrf52840_xxAA_s140_6.0.0.dir/__/__/__/mesh/core/src/timeslot.c.obj
 .debug_abbrev  0x0000672b      0x4b5 examples/light_switch/server/CMakeFiles/light_switch_server_nrf52840_xxAA_s140_6.0.0.dir/__/__/__/mesh/core/src/bearer_event.c.obj
 .debug_abbrev  0x00006be0      0x3be examples/light_switch/server/CMakeFiles/light_switch_server_nrf52840_xxAA_s140_6.0.0.dir/__/__/__/mesh/core/src/enc.c.obj
 .debug_abbrev  0x00006f9e      0x496 examples/light_switch/server/CMakeFiles/light_switch_server_nrf52840_xxAA_s140_6.0.0.dir/__/__/__/mesh/core/src/network.c.obj
 .debug_abbrev  0x00007434      0x4a1 examples/light_switch/server/CMakeFiles/light_switch_server_nrf52840_xxAA_s140_6.0.0.dir/__/__/__/mesh/core/src/net_packet.c.obj
 .debug_abbrev  0x000078d5      0x2c0 examples/light_switch/server/CMakeFiles/light_switch_server_nrf52840_xxAA_s140_6.0.0.dir/__/__/__/mesh/core/src/msqueue.c.obj
 .debug_abbrev  0x00007b95      0x163 examples/light_switch/server/CMakeFiles/light_switch_server_nrf52840_xxAA_s140_6.0.0.dir/__/__/__/mesh/core/src/nrf_mesh_keygen.c.obj
 .debug_abbrev  0x00007cf8      0x1a4 examples/light_switch/server/CMakeFiles/light_switch_server_nrf52840_xxAA_s140_6.0.0.dir/__/__/__/mesh/core/src/list.c.obj
 .debug_abbrev  0x00007e9c      0x24e examples/light_switch/server/CMakeFiles/light_switch_server_nrf52840_xxAA_s140_6.0.0.dir/__/__/__/mesh/core/src/log.c.obj
 .debug_abbrev  0x000080ea      0x524 examples/light_switch/server/CMakeFiles/light_switch_server_nrf52840_xxAA_s140_6.0.0.dir/__/__/__/mesh/core/src/flash_manager.c.obj
 .debug_abbrev  0x0000860e      0x38c examples/light_switch/server/CMakeFiles/light_switch_server_nrf52840_xxAA_s140_6.0.0.dir/__/__/__/mesh/core/src/ccm_soft.c.obj
 .debug_abbrev  0x0000899a      0x270 examples/light_switch/server/CMakeFiles/light_switch_server_nrf52840_xxAA_s140_6.0.0.dir/__/__/__/mesh/core/src/replay_cache.c.obj
 .debug_abbrev  0x00008c0a      0x2c4 examples/light_switch/server/CMakeFiles/light_switch_server_nrf52840_xxAA_s140_6.0.0.dir/__/__/__/mesh/core/src/beacon.c.obj
 .debug_abbrev  0x00008ece      0x288 examples/light_switch/server/CMakeFiles/light_switch_server_nrf52840_xxAA_s140_6.0.0.dir/__/__/__/mesh/core/src/flash_manager_internal.c.obj
 .debug_abbrev  0x00009156      0x2ed examples/light_switch/server/CMakeFiles/light_switch_server_nrf52840_xxAA_s140_6.0.0.dir/__/__/__/mesh/core/src/core_tx.c.obj
 .debug_abbrev  0x00009443      0x4af examples/light_switch/server/CMakeFiles/light_switch_server_nrf52840_xxAA_s140_6.0.0.dir/__/__/__/mesh/core/src/heartbeat.c.obj
 .debug_abbrev  0x000098f2      0x4ac examples/light_switch/server/CMakeFiles/light_switch_server_nrf52840_xxAA_s140_6.0.0.dir/__/__/__/mesh/core/src/net_beacon.c.obj
 .debug_abbrev  0x00009d9e      0x308 examples/light_switch/server/CMakeFiles/light_switch_server_nrf52840_xxAA_s140_6.0.0.dir/__/__/__/mesh/core/src/core_tx_adv.c.obj
 .debug_abbrev  0x0000a0a6      0x341 examples/light_switch/server/CMakeFiles/light_switch_server_nrf52840_xxAA_s140_6.0.0.dir/__/__/__/mesh/bearer/src/ad_listener.c.obj
 .debug_abbrev  0x0000a3e7      0x368 examples/light_switch/server/CMakeFiles/light_switch_server_nrf52840_xxAA_s140_6.0.0.dir/__/__/__/mesh/bearer/src/ad_type_filter.c.obj
 .debug_abbrev  0x0000a74f      0x4ed examples/light_switch/server/CMakeFiles/light_switch_server_nrf52840_xxAA_s140_6.0.0.dir/__/__/__/mesh/bearer/src/advertiser.c.obj
 .debug_abbrev  0x0000ac3c      0x476 examples/light_switch/server/CMakeFiles/light_switch_server_nrf52840_xxAA_s140_6.0.0.dir/__/__/__/mesh/bearer/src/bearer_handler.c.obj
 .debug_abbrev  0x0000b0b2      0x3b9 examples/light_switch/server/CMakeFiles/light_switch_server_nrf52840_xxAA_s140_6.0.0.dir/__/__/__/mesh/bearer/src/broadcast.c.obj
 .debug_abbrev  0x0000b46b      0x2a6 examples/light_switch/server/CMakeFiles/light_switch_server_nrf52840_xxAA_s140_6.0.0.dir/__/__/__/mesh/bearer/src/filter_engine.c.obj
 .debug_abbrev  0x0000b711      0x1d5 examples/light_switch/server/CMakeFiles/light_switch_server_nrf52840_xxAA_s140_6.0.0.dir/__/__/__/mesh/bearer/src/radio_config.c.obj
 .debug_abbrev  0x0000b8e6      0x52a examples/light_switch/server/CMakeFiles/light_switch_server_nrf52840_xxAA_s140_6.0.0.dir/__/__/__/mesh/bearer/src/scanner.c.obj
 .debug_abbrev  0x0000be10      0x2bd examples/light_switch/server/CMakeFiles/light_switch_server_nrf52840_xxAA_s140_6.0.0.dir/__/__/__/mesh/bearer/src/mesh_pa_lna.c.obj
 .debug_abbrev  0x0000c0cd      0x2b3 examples/light_switch/server/CMakeFiles/light_switch_server_nrf52840_xxAA_s140_6.0.0.dir/__/__/__/models/simple_on_off/src/simple_on_off_server.c.obj
 .debug_abbrev  0x0000c380      0x2db examples/light_switch/server/CMakeFiles/light_switch_server_nrf52840_xxAA_s140_6.0.0.dir/__/__/__/models/config/src/composition_data.c.obj
 .debug_abbrev  0x0000c65b      0x55a examples/light_switch/server/CMakeFiles/light_switch_server_nrf52840_xxAA_s140_6.0.0.dir/__/__/__/models/config/src/config_server.c.obj
 .debug_abbrev  0x0000cbb5       0x95 examples/light_switch/server/CMakeFiles/light_switch_server_nrf52840_xxAA_s140_6.0.0.dir/__/__/__/models/config/src/packed_index_list.c.obj
 .debug_abbrev  0x0000cc4a      0x4cf examples/light_switch/server/CMakeFiles/light_switch_server_nrf52840_xxAA_s140_6.0.0.dir/__/__/__/models/health/src/health_server.c.obj
 .debug_abbrev  0x0000d119      0x434 examples/light_switch/server/CMakeFiles/light_switch_server_nrf52840_xxAA_s140_6.0.0.dir/__/__/__/mesh/access/src/access_publish.c.obj
 .debug_abbrev  0x0000d54d      0x610 examples/light_switch/server/CMakeFiles/light_switch_server_nrf52840_xxAA_s140_6.0.0.dir/__/__/__/mesh/access/src/access.c.obj
 .debug_abbrev  0x0000db5d      0x43b examples/light_switch/server/CMakeFiles/light_switch_server_nrf52840_xxAA_s140_6.0.0.dir/__/__/__/mesh/access/src/access_reliable.c.obj
 .debug_abbrev  0x0000df98      0x2be examples/light_switch/server/CMakeFiles/light_switch_server_nrf52840_xxAA_s140_6.0.0.dir/__/__/__/mesh/access/src/access_loopback.c.obj
 .debug_abbrev  0x0000e256      0x60d examples/light_switch/server/CMakeFiles/light_switch_server_nrf52840_xxAA_s140_6.0.0.dir/__/__/__/mesh/access/src/device_state_manager.c.obj
 .debug_abbrev  0x0000e863      0x491 examples/light_switch/server/CMakeFiles/light_switch_server_nrf52840_xxAA_s140_6.0.0.dir/__/__/__/mesh/prov/src/prov_provisionee.c.obj
 .debug_abbrev  0x0000ecf4      0x434 examples/light_switch/server/CMakeFiles/light_switch_server_nrf52840_xxAA_s140_6.0.0.dir/__/__/__/mesh/prov/src/nrf_mesh_prov.c.obj
 .debug_abbrev  0x0000f128      0x2a9 examples/light_switch/server/CMakeFiles/light_switch_server_nrf52840_xxAA_s140_6.0.0.dir/__/__/__/mesh/prov/src/provisioning.c.obj
 .debug_abbrev  0x0000f3d1      0x2c8 examples/light_switch/server/CMakeFiles/light_switch_server_nrf52840_xxAA_s140_6.0.0.dir/__/__/__/mesh/prov/src/prov_beacon.c.obj
 .debug_abbrev  0x0000f699      0x3c1 examples/light_switch/server/CMakeFiles/light_switch_server_nrf52840_xxAA_s140_6.0.0.dir/__/__/__/mesh/prov/src/prov_utils.c.obj
 .debug_abbrev  0x0000fa5a      0x4eb examples/light_switch/server/CMakeFiles/light_switch_server_nrf52840_xxAA_s140_6.0.0.dir/__/__/__/mesh/prov/src/prov_bearer_adv.c.obj
 .debug_abbrev  0x0000ff45      0x20b examples/light_switch/server/CMakeFiles/light_switch_server_nrf52840_xxAA_s140_6.0.0.dir/C_/b/nRF5_SDK_15.0.0_a53641a/modules/nrfx/mdk/system_nrf52840.c.obj
 .debug_abbrev  0x00010150      0x232 examples/light_switch/server/CMakeFiles/light_switch_server_nrf52840_xxAA_s140_6.0.0.dir/C_/b/nRF5_SDK_15.0.0_a53641a/components/libraries/util/app_error.c.obj
 .debug_abbrev  0x00010382      0x35b examples/light_switch/server/CMakeFiles/light_switch_server_nrf52840_xxAA_s140_6.0.0.dir/C_/b/nRF5_SDK_15.0.0_a53641a/components/libraries/util/app_util_platform.c.obj
 .debug_abbrev  0x000106dd      0x502 examples/light_switch/server/CMakeFiles/light_switch_server_nrf52840_xxAA_s140_6.0.0.dir/C_/b/nRF5_SDK_15.0.0_a53641a/components/libraries/timer/app_timer.c.obj
 .debug_abbrev  0x00010bdf      0x1bd examples/light_switch/server/CMakeFiles/light_switch_server_nrf52840_xxAA_s140_6.0.0.dir/C_/b/nRF5_SDK_15.0.0_a53641a/components/libraries/util/app_error_handler_gcc.c.obj
 .debug_abbrev  0x00010d9c      0x3a9 external/rtt/librtt_nrf52840_xxAA.a(SEGGER_RTT.c.obj)
 .debug_abbrev  0x00011145      0x32e external/rtt/librtt_nrf52840_xxAA.a(SEGGER_RTT_printf.c.obj)
 .debug_abbrev  0x00011473      0x4b4 external/micro-ecc/libuECC_nrf52840_xxAA.a(uECC.c.obj)

.debug_loc      0x00000000    0x249fd
 .debug_loc     0x00000000      0x2ff examples/light_switch/server/CMakeFiles/light_switch_server_nrf52840_xxAA_s140_6.0.0.dir/src/main.c.obj
 .debug_loc     0x000002ff      0x175 examples/light_switch/server/CMakeFiles/light_switch_server_nrf52840_xxAA_s140_6.0.0.dir/__/__/__/mesh/stack/src/mesh_stack.c.obj
 .debug_loc     0x00000474      0x21b examples/light_switch/server/CMakeFiles/light_switch_server_nrf52840_xxAA_s140_6.0.0.dir/__/__/common/src/mesh_softdevice_init.c.obj
 .debug_loc     0x0000068f      0x10a examples/light_switch/server/CMakeFiles/light_switch_server_nrf52840_xxAA_s140_6.0.0.dir/__/__/common/src/mesh_provisionee.c.obj
 .debug_loc     0x00000799       0xed examples/light_switch/server/CMakeFiles/light_switch_server_nrf52840_xxAA_s140_6.0.0.dir/__/__/common/src/rtt_input.c.obj
 .debug_loc     0x00000886      0x243 examples/light_switch/server/CMakeFiles/light_switch_server_nrf52840_xxAA_s140_6.0.0.dir/__/__/common/src/simple_hal.c.obj
 .debug_loc     0x00000ac9       0x9a examples/light_switch/server/CMakeFiles/light_switch_server_nrf52840_xxAA_s140_6.0.0.dir/__/__/common/src/mesh_app_utils.c.obj
 .debug_loc     0x00000b63      0x18c examples/light_switch/server/CMakeFiles/light_switch_server_nrf52840_xxAA_s140_6.0.0.dir/__/__/common/src/app_error_weak.c.obj
 .debug_loc     0x00000cef       0x2c examples/light_switch/server/CMakeFiles/light_switch_server_nrf52840_xxAA_s140_6.0.0.dir/__/__/common/src/assertion_handler_weak.c.obj
 .debug_loc     0x00000d1b       0x2c examples/light_switch/server/CMakeFiles/light_switch_server_nrf52840_xxAA_s140_6.0.0.dir/__/__/__/mesh/core/src/nrf_mesh_configure.c.obj
 .debug_loc     0x00000d47      0x10d examples/light_switch/server/CMakeFiles/light_switch_server_nrf52840_xxAA_s140_6.0.0.dir/__/__/__/mesh/core/src/msg_cache.c.obj
 .debug_loc     0x00000e54     0x259a examples/light_switch/server/CMakeFiles/light_switch_server_nrf52840_xxAA_s140_6.0.0.dir/__/__/__/mesh/core/src/transport.c.obj
 .debug_loc     0x000033ee      0x124 examples/light_switch/server/CMakeFiles/light_switch_server_nrf52840_xxAA_s140_6.0.0.dir/__/__/__/mesh/core/src/event.c.obj
 .debug_loc     0x00003512      0x816 examples/light_switch/server/CMakeFiles/light_switch_server_nrf52840_xxAA_s140_6.0.0.dir/__/__/__/mesh/core/src/packet_buffer.c.obj
 .debug_loc     0x00003d28      0x7fe examples/light_switch/server/CMakeFiles/light_switch_server_nrf52840_xxAA_s140_6.0.0.dir/__/__/__/mesh/core/src/flash_manager_defrag.c.obj
 .debug_loc     0x00004526      0x4f6 examples/light_switch/server/CMakeFiles/light_switch_server_nrf52840_xxAA_s140_6.0.0.dir/__/__/__/mesh/core/src/fifo.c.obj
 .debug_loc     0x00004a1c      0x17a examples/light_switch/server/CMakeFiles/light_switch_server_nrf52840_xxAA_s140_6.0.0.dir/__/__/__/mesh/core/src/nrf_flash.c.obj
 .debug_loc     0x00004b96      0x6c1 examples/light_switch/server/CMakeFiles/light_switch_server_nrf52840_xxAA_s140_6.0.0.dir/__/__/__/mesh/core/src/packet_mgr.c.obj
 .debug_loc     0x00005257      0x936 examples/light_switch/server/CMakeFiles/light_switch_server_nrf52840_xxAA_s140_6.0.0.dir/__/__/__/mesh/core/src/net_state.c.obj
 .debug_loc     0x00005b8d      0x8be examples/light_switch/server/CMakeFiles/light_switch_server_nrf52840_xxAA_s140_6.0.0.dir/__/__/__/mesh/core/src/mesh_flash.c.obj
 .debug_loc     0x0000644b       0xf8 examples/light_switch/server/CMakeFiles/light_switch_server_nrf52840_xxAA_s140_6.0.0.dir/__/__/__/mesh/core/src/nrf_mesh_utils.c.obj
 .debug_loc     0x00006543      0x4de examples/light_switch/server/CMakeFiles/light_switch_server_nrf52840_xxAA_s140_6.0.0.dir/__/__/__/mesh/core/src/nrf_mesh.c.obj
 .debug_loc     0x00006a21       0xf5 examples/light_switch/server/CMakeFiles/light_switch_server_nrf52840_xxAA_s140_6.0.0.dir/__/__/__/mesh/core/src/queue.c.obj
 .debug_loc     0x00006b16       0x63 examples/light_switch/server/CMakeFiles/light_switch_server_nrf52840_xxAA_s140_6.0.0.dir/__/__/__/mesh/core/src/hal.c.obj
 .debug_loc     0x00006b79      0x3d8 examples/light_switch/server/CMakeFiles/light_switch_server_nrf52840_xxAA_s140_6.0.0.dir/__/__/__/mesh/core/src/aes_cmac.c.obj
 .debug_loc     0x00006f51      0x2d1 examples/light_switch/server/CMakeFiles/light_switch_server_nrf52840_xxAA_s140_6.0.0.dir/__/__/__/mesh/core/src/timer_scheduler.c.obj
 .debug_loc     0x00007222      0x5f9 examples/light_switch/server/CMakeFiles/light_switch_server_nrf52840_xxAA_s140_6.0.0.dir/__/__/__/mesh/core/src/timer.c.obj
 .debug_loc     0x0000781b      0x14e examples/light_switch/server/CMakeFiles/light_switch_server_nrf52840_xxAA_s140_6.0.0.dir/__/__/__/mesh/core/src/rand.c.obj
 .debug_loc     0x00007969      0x194 examples/light_switch/server/CMakeFiles/light_switch_server_nrf52840_xxAA_s140_6.0.0.dir/__/__/__/mesh/core/src/nrf_mesh_opt.c.obj
 .debug_loc     0x00007afd      0x344 examples/light_switch/server/CMakeFiles/light_switch_server_nrf52840_xxAA_s140_6.0.0.dir/__/__/__/mesh/core/src/timeslot.c.obj
 .debug_loc     0x00007e41      0x526 examples/light_switch/server/CMakeFiles/light_switch_server_nrf52840_xxAA_s140_6.0.0.dir/__/__/__/mesh/core/src/bearer_event.c.obj
 .debug_loc     0x00008367      0x8e7 examples/light_switch/server/CMakeFiles/light_switch_server_nrf52840_xxAA_s140_6.0.0.dir/__/__/__/mesh/core/src/enc.c.obj
 .debug_loc     0x00008c4e      0x60c examples/light_switch/server/CMakeFiles/light_switch_server_nrf52840_xxAA_s140_6.0.0.dir/__/__/__/mesh/core/src/network.c.obj
 .debug_loc     0x0000925a      0x817 examples/light_switch/server/CMakeFiles/light_switch_server_nrf52840_xxAA_s140_6.0.0.dir/__/__/__/mesh/core/src/net_packet.c.obj
 .debug_loc     0x00009a71      0x2ed examples/light_switch/server/CMakeFiles/light_switch_server_nrf52840_xxAA_s140_6.0.0.dir/__/__/__/mesh/core/src/msqueue.c.obj
 .debug_loc     0x00009d5e      0x1ee examples/light_switch/server/CMakeFiles/light_switch_server_nrf52840_xxAA_s140_6.0.0.dir/__/__/__/mesh/core/src/nrf_mesh_keygen.c.obj
 .debug_loc     0x00009f4c      0x3bf examples/light_switch/server/CMakeFiles/light_switch_server_nrf52840_xxAA_s140_6.0.0.dir/__/__/__/mesh/core/src/list.c.obj
 .debug_loc     0x0000a30b      0x348 examples/light_switch/server/CMakeFiles/light_switch_server_nrf52840_xxAA_s140_6.0.0.dir/__/__/__/mesh/core/src/log.c.obj
 .debug_loc     0x0000a653     0x1439 examples/light_switch/server/CMakeFiles/light_switch_server_nrf52840_xxAA_s140_6.0.0.dir/__/__/__/mesh/core/src/flash_manager.c.obj
 .debug_loc     0x0000ba8c      0x4b6 examples/light_switch/server/CMakeFiles/light_switch_server_nrf52840_xxAA_s140_6.0.0.dir/__/__/__/mesh/core/src/ccm_soft.c.obj
 .debug_loc     0x0000bf42      0x141 examples/light_switch/server/CMakeFiles/light_switch_server_nrf52840_xxAA_s140_6.0.0.dir/__/__/__/mesh/core/src/replay_cache.c.obj
 .debug_loc     0x0000c083      0x30d examples/light_switch/server/CMakeFiles/light_switch_server_nrf52840_xxAA_s140_6.0.0.dir/__/__/__/mesh/core/src/beacon.c.obj
 .debug_loc     0x0000c390       0xe3 examples/light_switch/server/CMakeFiles/light_switch_server_nrf52840_xxAA_s140_6.0.0.dir/__/__/__/mesh/core/src/flash_manager_internal.c.obj
 .debug_loc     0x0000c473      0x3c5 examples/light_switch/server/CMakeFiles/light_switch_server_nrf52840_xxAA_s140_6.0.0.dir/__/__/__/mesh/core/src/core_tx.c.obj
 .debug_loc     0x0000c838      0x57b examples/light_switch/server/CMakeFiles/light_switch_server_nrf52840_xxAA_s140_6.0.0.dir/__/__/__/mesh/core/src/heartbeat.c.obj
 .debug_loc     0x0000cdb3      0x5f5 examples/light_switch/server/CMakeFiles/light_switch_server_nrf52840_xxAA_s140_6.0.0.dir/__/__/__/mesh/core/src/net_beacon.c.obj
 .debug_loc     0x0000d3a8      0x41f examples/light_switch/server/CMakeFiles/light_switch_server_nrf52840_xxAA_s140_6.0.0.dir/__/__/__/mesh/core/src/core_tx_adv.c.obj
 .debug_loc     0x0000d7c7      0x40d examples/light_switch/server/CMakeFiles/light_switch_server_nrf52840_xxAA_s140_6.0.0.dir/__/__/__/mesh/bearer/src/ad_listener.c.obj
 .debug_loc     0x0000dbd4      0x3ae examples/light_switch/server/CMakeFiles/light_switch_server_nrf52840_xxAA_s140_6.0.0.dir/__/__/__/mesh/bearer/src/ad_type_filter.c.obj
 .debug_loc     0x0000df82      0xcff examples/light_switch/server/CMakeFiles/light_switch_server_nrf52840_xxAA_s140_6.0.0.dir/__/__/__/mesh/bearer/src/advertiser.c.obj
 .debug_loc     0x0000ec81      0x438 examples/light_switch/server/CMakeFiles/light_switch_server_nrf52840_xxAA_s140_6.0.0.dir/__/__/__/mesh/bearer/src/bearer_handler.c.obj
 .debug_loc     0x0000f0b9      0x320 examples/light_switch/server/CMakeFiles/light_switch_server_nrf52840_xxAA_s140_6.0.0.dir/__/__/__/mesh/bearer/src/broadcast.c.obj
 .debug_loc     0x0000f3d9       0xde examples/light_switch/server/CMakeFiles/light_switch_server_nrf52840_xxAA_s140_6.0.0.dir/__/__/__/mesh/bearer/src/filter_engine.c.obj
 .debug_loc     0x0000f4b7      0x232 examples/light_switch/server/CMakeFiles/light_switch_server_nrf52840_xxAA_s140_6.0.0.dir/__/__/__/mesh/bearer/src/radio_config.c.obj
 .debug_loc     0x0000f6e9      0x48a examples/light_switch/server/CMakeFiles/light_switch_server_nrf52840_xxAA_s140_6.0.0.dir/__/__/__/mesh/bearer/src/scanner.c.obj
 .debug_loc     0x0000fb73      0x1d6 examples/light_switch/server/CMakeFiles/light_switch_server_nrf52840_xxAA_s140_6.0.0.dir/__/__/__/mesh/bearer/src/mesh_pa_lna.c.obj
 .debug_loc     0x0000fd49      0x3de examples/light_switch/server/CMakeFiles/light_switch_server_nrf52840_xxAA_s140_6.0.0.dir/__/__/__/models/simple_on_off/src/simple_on_off_server.c.obj
 .debug_loc     0x00010127      0x26f examples/light_switch/server/CMakeFiles/light_switch_server_nrf52840_xxAA_s140_6.0.0.dir/__/__/__/models/config/src/composition_data.c.obj
 .debug_loc     0x00010396     0x4d58 examples/light_switch/server/CMakeFiles/light_switch_server_nrf52840_xxAA_s140_6.0.0.dir/__/__/__/models/config/src/config_server.c.obj
 .debug_loc     0x000150ee       0x89 examples/light_switch/server/CMakeFiles/light_switch_server_nrf52840_xxAA_s140_6.0.0.dir/__/__/__/models/config/src/packed_index_list.c.obj
 .debug_loc     0x00015177     0x1373 examples/light_switch/server/CMakeFiles/light_switch_server_nrf52840_xxAA_s140_6.0.0.dir/__/__/__/models/health/src/health_server.c.obj
 .debug_loc     0x000164ea      0x4d4 examples/light_switch/server/CMakeFiles/light_switch_server_nrf52840_xxAA_s140_6.0.0.dir/__/__/__/mesh/access/src/access_publish.c.obj
 .debug_loc     0x000169be     0x2318 examples/light_switch/server/CMakeFiles/light_switch_server_nrf52840_xxAA_s140_6.0.0.dir/__/__/__/mesh/access/src/access.c.obj
 .debug_loc     0x00018cd6      0x784 examples/light_switch/server/CMakeFiles/light_switch_server_nrf52840_xxAA_s140_6.0.0.dir/__/__/__/mesh/access/src/access_reliable.c.obj
 .debug_loc     0x0001945a       0x81 examples/light_switch/server/CMakeFiles/light_switch_server_nrf52840_xxAA_s140_6.0.0.dir/__/__/__/mesh/access/src/access_loopback.c.obj
 .debug_loc     0x000194db     0x3b43 examples/light_switch/server/CMakeFiles/light_switch_server_nrf52840_xxAA_s140_6.0.0.dir/__/__/__/mesh/access/src/device_state_manager.c.obj
 .debug_loc     0x0001d01e      0x766 examples/light_switch/server/CMakeFiles/light_switch_server_nrf52840_xxAA_s140_6.0.0.dir/__/__/__/mesh/prov/src/prov_provisionee.c.obj
 .debug_loc     0x0001d784      0xa4b examples/light_switch/server/CMakeFiles/light_switch_server_nrf52840_xxAA_s140_6.0.0.dir/__/__/__/mesh/prov/src/nrf_mesh_prov.c.obj
 .debug_loc     0x0001e1cf      0x490 examples/light_switch/server/CMakeFiles/light_switch_server_nrf52840_xxAA_s140_6.0.0.dir/__/__/__/mesh/prov/src/provisioning.c.obj
 .debug_loc     0x0001e65f      0x18c examples/light_switch/server/CMakeFiles/light_switch_server_nrf52840_xxAA_s140_6.0.0.dir/__/__/__/mesh/prov/src/prov_beacon.c.obj
 .debug_loc     0x0001e7eb      0x40b examples/light_switch/server/CMakeFiles/light_switch_server_nrf52840_xxAA_s140_6.0.0.dir/__/__/__/mesh/prov/src/prov_utils.c.obj
 .debug_loc     0x0001ebf6     0x1457 examples/light_switch/server/CMakeFiles/light_switch_server_nrf52840_xxAA_s140_6.0.0.dir/__/__/__/mesh/prov/src/prov_bearer_adv.c.obj
 .debug_loc     0x0002004d       0xb5 examples/light_switch/server/CMakeFiles/light_switch_server_nrf52840_xxAA_s140_6.0.0.dir/C_/b/nRF5_SDK_15.0.0_a53641a/components/libraries/util/app_error.c.obj
 .debug_loc     0x00020102       0xc1 examples/light_switch/server/CMakeFiles/light_switch_server_nrf52840_xxAA_s140_6.0.0.dir/C_/b/nRF5_SDK_15.0.0_a53641a/components/libraries/util/app_util_platform.c.obj
 .debug_loc     0x000201c3      0xa5d examples/light_switch/server/CMakeFiles/light_switch_server_nrf52840_xxAA_s140_6.0.0.dir/C_/b/nRF5_SDK_15.0.0_a53641a/components/libraries/timer/app_timer.c.obj
 .debug_loc     0x00020c20       0x63 examples/light_switch/server/CMakeFiles/light_switch_server_nrf52840_xxAA_s140_6.0.0.dir/C_/b/nRF5_SDK_15.0.0_a53641a/components/libraries/util/app_error_handler_gcc.c.obj
 .debug_loc     0x00020c83     0x1222 external/rtt/librtt_nrf52840_xxAA.a(SEGGER_RTT.c.obj)
 .debug_loc     0x00021ea5      0x70f external/rtt/librtt_nrf52840_xxAA.a(SEGGER_RTT_printf.c.obj)
 .debug_loc     0x000225b4     0x2449 external/micro-ecc/libuECC_nrf52840_xxAA.a(uECC.c.obj)

.debug_aranges  0x00000000     0x24e8
 .debug_aranges
                0x00000000       0x68 examples/light_switch/server/CMakeFiles/light_switch_server_nrf52840_xxAA_s140_6.0.0.dir/src/main.c.obj
 .debug_aranges
                0x00000068       0x50 examples/light_switch/server/CMakeFiles/light_switch_server_nrf52840_xxAA_s140_6.0.0.dir/__/__/__/mesh/stack/src/mesh_stack.c.obj
 .debug_aranges
                0x000000b8       0x48 examples/light_switch/server/CMakeFiles/light_switch_server_nrf52840_xxAA_s140_6.0.0.dir/__/__/common/src/mesh_softdevice_init.c.obj
 .debug_aranges
                0x00000100       0x30 examples/light_switch/server/CMakeFiles/light_switch_server_nrf52840_xxAA_s140_6.0.0.dir/__/__/common/src/mesh_provisionee.c.obj
 .debug_aranges
                0x00000130       0x30 examples/light_switch/server/CMakeFiles/light_switch_server_nrf52840_xxAA_s140_6.0.0.dir/__/__/common/src/rtt_input.c.obj
 .debug_aranges
                0x00000160       0x58 examples/light_switch/server/CMakeFiles/light_switch_server_nrf52840_xxAA_s140_6.0.0.dir/__/__/common/src/simple_hal.c.obj
 .debug_aranges
                0x000001b8       0x20 examples/light_switch/server/CMakeFiles/light_switch_server_nrf52840_xxAA_s140_6.0.0.dir/__/__/common/src/mesh_app_utils.c.obj
 .debug_aranges
                0x000001d8       0x28 examples/light_switch/server/CMakeFiles/light_switch_server_nrf52840_xxAA_s140_6.0.0.dir/__/__/nrf_mesh_weak.c.obj
 .debug_aranges
                0x00000200       0x20 examples/light_switch/server/CMakeFiles/light_switch_server_nrf52840_xxAA_s140_6.0.0.dir/__/__/common/src/app_error_weak.c.obj
 .debug_aranges
                0x00000220       0x20 examples/light_switch/server/CMakeFiles/light_switch_server_nrf52840_xxAA_s140_6.0.0.dir/__/__/common/src/assertion_handler_weak.c.obj
 .debug_aranges
                0x00000240       0x30 examples/light_switch/server/CMakeFiles/light_switch_server_nrf52840_xxAA_s140_6.0.0.dir/__/__/__/mesh/core/src/nrf_mesh_configure.c.obj
 .debug_aranges
                0x00000270       0x38 examples/light_switch/server/CMakeFiles/light_switch_server_nrf52840_xxAA_s140_6.0.0.dir/__/__/__/mesh/core/src/msg_cache.c.obj
 .debug_aranges
                0x000002a8      0x110 examples/light_switch/server/CMakeFiles/light_switch_server_nrf52840_xxAA_s140_6.0.0.dir/__/__/__/mesh/core/src/transport.c.obj
 .debug_aranges
                0x000003b8       0x30 examples/light_switch/server/CMakeFiles/light_switch_server_nrf52840_xxAA_s140_6.0.0.dir/__/__/__/mesh/core/src/event.c.obj
 .debug_aranges
                0x000003e8       0x68 examples/light_switch/server/CMakeFiles/light_switch_server_nrf52840_xxAA_s140_6.0.0.dir/__/__/__/mesh/core/src/packet_buffer.c.obj
 .debug_aranges
                0x00000450       0xc8 examples/light_switch/server/CMakeFiles/light_switch_server_nrf52840_xxAA_s140_6.0.0.dir/__/__/__/mesh/core/src/flash_manager_defrag.c.obj
 .debug_aranges
                0x00000518       0x60 examples/light_switch/server/CMakeFiles/light_switch_server_nrf52840_xxAA_s140_6.0.0.dir/__/__/__/mesh/core/src/fifo.c.obj
 .debug_aranges
                0x00000578       0x30 examples/light_switch/server/CMakeFiles/light_switch_server_nrf52840_xxAA_s140_6.0.0.dir/__/__/__/mesh/core/src/nrf_flash.c.obj
 .debug_aranges
                0x000005a8       0x48 examples/light_switch/server/CMakeFiles/light_switch_server_nrf52840_xxAA_s140_6.0.0.dir/__/__/__/mesh/core/src/packet_mgr.c.obj
 .debug_aranges
                0x000005f0       0xd0 examples/light_switch/server/CMakeFiles/light_switch_server_nrf52840_xxAA_s140_6.0.0.dir/__/__/__/mesh/core/src/net_state.c.obj
 .debug_aranges
                0x000006c0       0x60 examples/light_switch/server/CMakeFiles/light_switch_server_nrf52840_xxAA_s140_6.0.0.dir/__/__/__/mesh/core/src/mesh_flash.c.obj
 .debug_aranges
                0x00000720       0x30 examples/light_switch/server/CMakeFiles/light_switch_server_nrf52840_xxAA_s140_6.0.0.dir/__/__/__/mesh/core/src/nrf_mesh_utils.c.obj
 .debug_aranges
                0x00000750       0x98 examples/light_switch/server/CMakeFiles/light_switch_server_nrf52840_xxAA_s140_6.0.0.dir/__/__/__/mesh/core/src/nrf_mesh.c.obj
 .debug_aranges
                0x000007e8       0x38 examples/light_switch/server/CMakeFiles/light_switch_server_nrf52840_xxAA_s140_6.0.0.dir/__/__/__/mesh/core/src/queue.c.obj
 .debug_aranges
                0x00000820       0x30 examples/light_switch/server/CMakeFiles/light_switch_server_nrf52840_xxAA_s140_6.0.0.dir/__/__/__/mesh/core/src/hal.c.obj
 .debug_aranges
                0x00000850       0x30 examples/light_switch/server/CMakeFiles/light_switch_server_nrf52840_xxAA_s140_6.0.0.dir/__/__/__/mesh/core/src/aes_cmac.c.obj
 .debug_aranges
                0x00000880       0x68 examples/light_switch/server/CMakeFiles/light_switch_server_nrf52840_xxAA_s140_6.0.0.dir/__/__/__/mesh/core/src/timer_scheduler.c.obj
 .debug_aranges
                0x000008e8       0x60 examples/light_switch/server/CMakeFiles/light_switch_server_nrf52840_xxAA_s140_6.0.0.dir/__/__/__/mesh/core/src/timer.c.obj
 .debug_aranges
                0x00000948       0x30 examples/light_switch/server/CMakeFiles/light_switch_server_nrf52840_xxAA_s140_6.0.0.dir/__/__/__/mesh/core/src/ticker.c.obj
 .debug_aranges
                0x00000978       0x40 examples/light_switch/server/CMakeFiles/light_switch_server_nrf52840_xxAA_s140_6.0.0.dir/__/__/__/mesh/core/src/rand.c.obj
 .debug_aranges
                0x000009b8       0x28 examples/light_switch/server/CMakeFiles/light_switch_server_nrf52840_xxAA_s140_6.0.0.dir/__/__/__/mesh/core/src/nrf_mesh_opt.c.obj
 .debug_aranges
                0x000009e0       0xb8 examples/light_switch/server/CMakeFiles/light_switch_server_nrf52840_xxAA_s140_6.0.0.dir/__/__/__/mesh/core/src/timeslot.c.obj
 .debug_aranges
                0x00000a98       0x98 examples/light_switch/server/CMakeFiles/light_switch_server_nrf52840_xxAA_s140_6.0.0.dir/__/__/__/mesh/core/src/bearer_event.c.obj
 .debug_aranges
                0x00000b30       0x78 examples/light_switch/server/CMakeFiles/light_switch_server_nrf52840_xxAA_s140_6.0.0.dir/__/__/__/mesh/core/src/enc.c.obj
 .debug_aranges
                0x00000ba8       0x58 examples/light_switch/server/CMakeFiles/light_switch_server_nrf52840_xxAA_s140_6.0.0.dir/__/__/__/mesh/core/src/network.c.obj
 .debug_aranges
                0x00000c00       0x68 examples/light_switch/server/CMakeFiles/light_switch_server_nrf52840_xxAA_s140_6.0.0.dir/__/__/__/mesh/core/src/net_packet.c.obj
 .debug_aranges
                0x00000c68       0x48 examples/light_switch/server/CMakeFiles/light_switch_server_nrf52840_xxAA_s140_6.0.0.dir/__/__/__/mesh/core/src/msqueue.c.obj
 .debug_aranges
                0x00000cb0       0x40 examples/light_switch/server/CMakeFiles/light_switch_server_nrf52840_xxAA_s140_6.0.0.dir/__/__/__/mesh/core/src/nrf_mesh_keygen.c.obj
 .debug_aranges
                0x00000cf0       0x48 examples/light_switch/server/CMakeFiles/light_switch_server_nrf52840_xxAA_s140_6.0.0.dir/__/__/__/mesh/core/src/list.c.obj
 .debug_aranges
                0x00000d38       0x48 examples/light_switch/server/CMakeFiles/light_switch_server_nrf52840_xxAA_s140_6.0.0.dir/__/__/__/mesh/core/src/log.c.obj
 .debug_aranges
                0x00000d80       0xf8 examples/light_switch/server/CMakeFiles/light_switch_server_nrf52840_xxAA_s140_6.0.0.dir/__/__/__/mesh/core/src/flash_manager.c.obj
 .debug_aranges
                0x00000e78       0x50 examples/light_switch/server/CMakeFiles/light_switch_server_nrf52840_xxAA_s140_6.0.0.dir/__/__/__/mesh/core/src/ccm_soft.c.obj
 .debug_aranges
                0x00000ec8       0x40 examples/light_switch/server/CMakeFiles/light_switch_server_nrf52840_xxAA_s140_6.0.0.dir/__/__/__/mesh/core/src/replay_cache.c.obj
 .debug_aranges
                0x00000f08       0x28 examples/light_switch/server/CMakeFiles/light_switch_server_nrf52840_xxAA_s140_6.0.0.dir/__/__/__/mesh/core/src/beacon.c.obj
 .debug_aranges
                0x00000f30       0x20 examples/light_switch/server/CMakeFiles/light_switch_server_nrf52840_xxAA_s140_6.0.0.dir/__/__/__/mesh/core/src/flash_manager_internal.c.obj
 .debug_aranges
                0x00000f50       0x58 examples/light_switch/server/CMakeFiles/light_switch_server_nrf52840_xxAA_s140_6.0.0.dir/__/__/__/mesh/core/src/core_tx.c.obj
 .debug_aranges
                0x00000fa8       0x70 examples/light_switch/server/CMakeFiles/light_switch_server_nrf52840_xxAA_s140_6.0.0.dir/__/__/__/mesh/core/src/heartbeat.c.obj
 .debug_aranges
                0x00001018       0x68 examples/light_switch/server/CMakeFiles/light_switch_server_nrf52840_xxAA_s140_6.0.0.dir/__/__/__/mesh/core/src/net_beacon.c.obj
 .debug_aranges
                0x00001080       0x70 examples/light_switch/server/CMakeFiles/light_switch_server_nrf52840_xxAA_s140_6.0.0.dir/__/__/__/mesh/core/src/core_tx_adv.c.obj
 .debug_aranges
                0x000010f0       0x30 examples/light_switch/server/CMakeFiles/light_switch_server_nrf52840_xxAA_s140_6.0.0.dir/__/__/__/mesh/bearer/src/ad_listener.c.obj
 .debug_aranges
                0x00001120       0x58 examples/light_switch/server/CMakeFiles/light_switch_server_nrf52840_xxAA_s140_6.0.0.dir/__/__/__/mesh/bearer/src/ad_type_filter.c.obj
 .debug_aranges
                0x00001178       0xb8 examples/light_switch/server/CMakeFiles/light_switch_server_nrf52840_xxAA_s140_6.0.0.dir/__/__/__/mesh/bearer/src/advertiser.c.obj
 .debug_aranges
                0x00001230       0x88 examples/light_switch/server/CMakeFiles/light_switch_server_nrf52840_xxAA_s140_6.0.0.dir/__/__/__/mesh/bearer/src/bearer_handler.c.obj
 .debug_aranges
                0x000012b8       0x30 examples/light_switch/server/CMakeFiles/light_switch_server_nrf52840_xxAA_s140_6.0.0.dir/__/__/__/mesh/bearer/src/broadcast.c.obj
 .debug_aranges
                0x000012e8       0x38 examples/light_switch/server/CMakeFiles/light_switch_server_nrf52840_xxAA_s140_6.0.0.dir/__/__/__/mesh/bearer/src/filter_engine.c.obj
 .debug_aranges
                0x00001320       0x40 examples/light_switch/server/CMakeFiles/light_switch_server_nrf52840_xxAA_s140_6.0.0.dir/__/__/__/mesh/bearer/src/radio_config.c.obj
 .debug_aranges
                0x00001360       0xe8 examples/light_switch/server/CMakeFiles/light_switch_server_nrf52840_xxAA_s140_6.0.0.dir/__/__/__/mesh/bearer/src/scanner.c.obj
 .debug_aranges
                0x00001448       0x70 examples/light_switch/server/CMakeFiles/light_switch_server_nrf52840_xxAA_s140_6.0.0.dir/__/__/__/mesh/bearer/src/mesh_pa_lna.c.obj
 .debug_aranges
                0x000014b8       0x48 examples/light_switch/server/CMakeFiles/light_switch_server_nrf52840_xxAA_s140_6.0.0.dir/__/__/__/models/simple_on_off/src/simple_on_off_server.c.obj
 .debug_aranges
                0x00001500       0x20 examples/light_switch/server/CMakeFiles/light_switch_server_nrf52840_xxAA_s140_6.0.0.dir/__/__/__/models/config/src/composition_data.c.obj
 .debug_aranges
                0x00001520      0x220 examples/light_switch/server/CMakeFiles/light_switch_server_nrf52840_xxAA_s140_6.0.0.dir/__/__/__/models/config/src/config_server.c.obj
 .debug_aranges
                0x00001740       0x20 examples/light_switch/server/CMakeFiles/light_switch_server_nrf52840_xxAA_s140_6.0.0.dir/__/__/__/models/config/src/packed_index_list.c.obj
 .debug_aranges
                0x00001760       0xc8 examples/light_switch/server/CMakeFiles/light_switch_server_nrf52840_xxAA_s140_6.0.0.dir/__/__/__/models/health/src/health_server.c.obj
 .debug_aranges
                0x00001828       0x50 examples/light_switch/server/CMakeFiles/light_switch_server_nrf52840_xxAA_s140_6.0.0.dir/__/__/__/mesh/access/src/access_publish.c.obj
 .debug_aranges
                0x00001878      0x1d0 examples/light_switch/server/CMakeFiles/light_switch_server_nrf52840_xxAA_s140_6.0.0.dir/__/__/__/mesh/access/src/access.c.obj
 .debug_aranges
                0x00001a48       0x50 examples/light_switch/server/CMakeFiles/light_switch_server_nrf52840_xxAA_s140_6.0.0.dir/__/__/__/mesh/access/src/access_reliable.c.obj
 .debug_aranges
                0x00001a98       0x38 examples/light_switch/server/CMakeFiles/light_switch_server_nrf52840_xxAA_s140_6.0.0.dir/__/__/__/mesh/access/src/access_loopback.c.obj
 .debug_aranges
                0x00001ad0      0x328 examples/light_switch/server/CMakeFiles/light_switch_server_nrf52840_xxAA_s140_6.0.0.dir/__/__/__/mesh/access/src/device_state_manager.c.obj
 .debug_aranges
                0x00001df8       0x70 examples/light_switch/server/CMakeFiles/light_switch_server_nrf52840_xxAA_s140_6.0.0.dir/__/__/__/mesh/prov/src/prov_provisionee.c.obj
 .debug_aranges
                0x00001e68       0x88 examples/light_switch/server/CMakeFiles/light_switch_server_nrf52840_xxAA_s140_6.0.0.dir/__/__/__/mesh/prov/src/nrf_mesh_prov.c.obj
 .debug_aranges
                0x00001ef0       0x80 examples/light_switch/server/CMakeFiles/light_switch_server_nrf52840_xxAA_s140_6.0.0.dir/__/__/__/mesh/prov/src/provisioning.c.obj
 .debug_aranges
                0x00001f70       0x38 examples/light_switch/server/CMakeFiles/light_switch_server_nrf52840_xxAA_s140_6.0.0.dir/__/__/__/mesh/prov/src/prov_beacon.c.obj
 .debug_aranges
                0x00001fa8       0x70 examples/light_switch/server/CMakeFiles/light_switch_server_nrf52840_xxAA_s140_6.0.0.dir/__/__/__/mesh/prov/src/prov_utils.c.obj
 .debug_aranges
                0x00002018       0xc8 examples/light_switch/server/CMakeFiles/light_switch_server_nrf52840_xxAA_s140_6.0.0.dir/__/__/__/mesh/prov/src/prov_bearer_adv.c.obj
 .debug_aranges
                0x000020e0       0x30 examples/light_switch/server/CMakeFiles/light_switch_server_nrf52840_xxAA_s140_6.0.0.dir/C_/b/nRF5_SDK_15.0.0_a53641a/modules/nrfx/mdk/system_nrf52840.c.obj
 .debug_aranges
                0x00002110       0x28 examples/light_switch/server/CMakeFiles/light_switch_server_nrf52840_xxAA_s140_6.0.0.dir/C_/b/nRF5_SDK_15.0.0_a53641a/components/libraries/util/app_error.c.obj
 .debug_aranges
                0x00002138       0x48 examples/light_switch/server/CMakeFiles/light_switch_server_nrf52840_xxAA_s140_6.0.0.dir/C_/b/nRF5_SDK_15.0.0_a53641a/components/libraries/util/app_util_platform.c.obj
 .debug_aranges
                0x00002180       0x90 examples/light_switch/server/CMakeFiles/light_switch_server_nrf52840_xxAA_s140_6.0.0.dir/C_/b/nRF5_SDK_15.0.0_a53641a/components/libraries/timer/app_timer.c.obj
 .debug_aranges
                0x00002210       0x20 examples/light_switch/server/CMakeFiles/light_switch_server_nrf52840_xxAA_s140_6.0.0.dir/C_/b/nRF5_SDK_15.0.0_a53641a/components/libraries/util/app_error_handler_gcc.c.obj
 .debug_aranges
                0x00002230       0xd8 external/rtt/librtt_nrf52840_xxAA.a(SEGGER_RTT.c.obj)
 .debug_aranges
                0x00002308       0x38 external/rtt/librtt_nrf52840_xxAA.a(SEGGER_RTT_printf.c.obj)
 .debug_aranges
                0x00002340      0x1a8 external/micro-ecc/libuECC_nrf52840_xxAA.a(uECC.c.obj)

.debug_ranges   0x00000000     0x5fe8
 .debug_ranges  0x00000000      0x270 examples/light_switch/server/CMakeFiles/light_switch_server_nrf52840_xxAA_s140_6.0.0.dir/src/main.c.obj
 .debug_ranges  0x00000270       0x70 examples/light_switch/server/CMakeFiles/light_switch_server_nrf52840_xxAA_s140_6.0.0.dir/__/__/__/mesh/stack/src/mesh_stack.c.obj
 .debug_ranges  0x000002e0       0xe8 examples/light_switch/server/CMakeFiles/light_switch_server_nrf52840_xxAA_s140_6.0.0.dir/__/__/common/src/mesh_softdevice_init.c.obj
 .debug_ranges  0x000003c8       0x50 examples/light_switch/server/CMakeFiles/light_switch_server_nrf52840_xxAA_s140_6.0.0.dir/__/__/common/src/mesh_provisionee.c.obj
 .debug_ranges  0x00000418       0x50 examples/light_switch/server/CMakeFiles/light_switch_server_nrf52840_xxAA_s140_6.0.0.dir/__/__/common/src/rtt_input.c.obj
 .debug_ranges  0x00000468       0x98 examples/light_switch/server/CMakeFiles/light_switch_server_nrf52840_xxAA_s140_6.0.0.dir/__/__/common/src/simple_hal.c.obj
 .debug_ranges  0x00000500       0x10 examples/light_switch/server/CMakeFiles/light_switch_server_nrf52840_xxAA_s140_6.0.0.dir/__/__/common/src/mesh_app_utils.c.obj
 .debug_ranges  0x00000510       0x18 examples/light_switch/server/CMakeFiles/light_switch_server_nrf52840_xxAA_s140_6.0.0.dir/__/__/nrf_mesh_weak.c.obj
 .debug_ranges  0x00000528       0xb8 examples/light_switch/server/CMakeFiles/light_switch_server_nrf52840_xxAA_s140_6.0.0.dir/__/__/common/src/app_error_weak.c.obj
 .debug_ranges  0x000005e0       0x10 examples/light_switch/server/CMakeFiles/light_switch_server_nrf52840_xxAA_s140_6.0.0.dir/__/__/common/src/assertion_handler_weak.c.obj
 .debug_ranges  0x000005f0       0x20 examples/light_switch/server/CMakeFiles/light_switch_server_nrf52840_xxAA_s140_6.0.0.dir/__/__/__/mesh/core/src/nrf_mesh_configure.c.obj
 .debug_ranges  0x00000610       0x48 examples/light_switch/server/CMakeFiles/light_switch_server_nrf52840_xxAA_s140_6.0.0.dir/__/__/__/mesh/core/src/msg_cache.c.obj
 .debug_ranges  0x00000658      0x5d0 examples/light_switch/server/CMakeFiles/light_switch_server_nrf52840_xxAA_s140_6.0.0.dir/__/__/__/mesh/core/src/transport.c.obj
 .debug_ranges  0x00000c28       0x50 examples/light_switch/server/CMakeFiles/light_switch_server_nrf52840_xxAA_s140_6.0.0.dir/__/__/__/mesh/core/src/event.c.obj
 .debug_ranges  0x00000c78      0x128 examples/light_switch/server/CMakeFiles/light_switch_server_nrf52840_xxAA_s140_6.0.0.dir/__/__/__/mesh/core/src/packet_buffer.c.obj
 .debug_ranges  0x00000da0      0x230 examples/light_switch/server/CMakeFiles/light_switch_server_nrf52840_xxAA_s140_6.0.0.dir/__/__/__/mesh/core/src/flash_manager_defrag.c.obj
 .debug_ranges  0x00000fd0       0x68 examples/light_switch/server/CMakeFiles/light_switch_server_nrf52840_xxAA_s140_6.0.0.dir/__/__/__/mesh/core/src/fifo.c.obj
 .debug_ranges  0x00001038       0x38 examples/light_switch/server/CMakeFiles/light_switch_server_nrf52840_xxAA_s140_6.0.0.dir/__/__/__/mesh/core/src/nrf_flash.c.obj
 .debug_ranges  0x00001070       0xe0 examples/light_switch/server/CMakeFiles/light_switch_server_nrf52840_xxAA_s140_6.0.0.dir/__/__/__/mesh/core/src/packet_mgr.c.obj
 .debug_ranges  0x00001150      0x1f8 examples/light_switch/server/CMakeFiles/light_switch_server_nrf52840_xxAA_s140_6.0.0.dir/__/__/__/mesh/core/src/net_state.c.obj
 .debug_ranges  0x00001348      0x1c8 examples/light_switch/server/CMakeFiles/light_switch_server_nrf52840_xxAA_s140_6.0.0.dir/__/__/__/mesh/core/src/mesh_flash.c.obj
 .debug_ranges  0x00001510       0x20 examples/light_switch/server/CMakeFiles/light_switch_server_nrf52840_xxAA_s140_6.0.0.dir/__/__/__/mesh/core/src/nrf_mesh_utils.c.obj
 .debug_ranges  0x00001530       0xe8 examples/light_switch/server/CMakeFiles/light_switch_server_nrf52840_xxAA_s140_6.0.0.dir/__/__/__/mesh/core/src/nrf_mesh.c.obj
 .debug_ranges  0x00001618       0x28 examples/light_switch/server/CMakeFiles/light_switch_server_nrf52840_xxAA_s140_6.0.0.dir/__/__/__/mesh/core/src/queue.c.obj
 .debug_ranges  0x00001640       0x20 examples/light_switch/server/CMakeFiles/light_switch_server_nrf52840_xxAA_s140_6.0.0.dir/__/__/__/mesh/core/src/hal.c.obj
 .debug_ranges  0x00001660      0x120 examples/light_switch/server/CMakeFiles/light_switch_server_nrf52840_xxAA_s140_6.0.0.dir/__/__/__/mesh/core/src/aes_cmac.c.obj
 .debug_ranges  0x00001780       0xf0 examples/light_switch/server/CMakeFiles/light_switch_server_nrf52840_xxAA_s140_6.0.0.dir/__/__/__/mesh/core/src/timer_scheduler.c.obj
 .debug_ranges  0x00001870       0xd8 examples/light_switch/server/CMakeFiles/light_switch_server_nrf52840_xxAA_s140_6.0.0.dir/__/__/__/mesh/core/src/timer.c.obj
 .debug_ranges  0x00001948       0x20 examples/light_switch/server/CMakeFiles/light_switch_server_nrf52840_xxAA_s140_6.0.0.dir/__/__/__/mesh/core/src/ticker.c.obj
 .debug_ranges  0x00001968       0x30 examples/light_switch/server/CMakeFiles/light_switch_server_nrf52840_xxAA_s140_6.0.0.dir/__/__/__/mesh/core/src/rand.c.obj
 .debug_ranges  0x00001998       0x18 examples/light_switch/server/CMakeFiles/light_switch_server_nrf52840_xxAA_s140_6.0.0.dir/__/__/__/mesh/core/src/nrf_mesh_opt.c.obj
 .debug_ranges  0x000019b0      0x168 examples/light_switch/server/CMakeFiles/light_switch_server_nrf52840_xxAA_s140_6.0.0.dir/__/__/__/mesh/core/src/timeslot.c.obj
 .debug_ranges  0x00001b18       0xf8 examples/light_switch/server/CMakeFiles/light_switch_server_nrf52840_xxAA_s140_6.0.0.dir/__/__/__/mesh/core/src/bearer_event.c.obj
 .debug_ranges  0x00001c10       0xb8 examples/light_switch/server/CMakeFiles/light_switch_server_nrf52840_xxAA_s140_6.0.0.dir/__/__/__/mesh/core/src/enc.c.obj
 .debug_ranges  0x00001cc8       0xe8 examples/light_switch/server/CMakeFiles/light_switch_server_nrf52840_xxAA_s140_6.0.0.dir/__/__/__/mesh/core/src/network.c.obj
 .debug_ranges  0x00001db0      0x160 examples/light_switch/server/CMakeFiles/light_switch_server_nrf52840_xxAA_s140_6.0.0.dir/__/__/__/mesh/core/src/net_packet.c.obj
 .debug_ranges  0x00001f10       0x50 examples/light_switch/server/CMakeFiles/light_switch_server_nrf52840_xxAA_s140_6.0.0.dir/__/__/__/mesh/core/src/msqueue.c.obj
 .debug_ranges  0x00001f60       0x30 examples/light_switch/server/CMakeFiles/light_switch_server_nrf52840_xxAA_s140_6.0.0.dir/__/__/__/mesh/core/src/nrf_mesh_keygen.c.obj
 .debug_ranges  0x00001f90       0x78 examples/light_switch/server/CMakeFiles/light_switch_server_nrf52840_xxAA_s140_6.0.0.dir/__/__/__/mesh/core/src/list.c.obj
 .debug_ranges  0x00002008       0x38 examples/light_switch/server/CMakeFiles/light_switch_server_nrf52840_xxAA_s140_6.0.0.dir/__/__/__/mesh/core/src/log.c.obj
 .debug_ranges  0x00002040      0x388 examples/light_switch/server/CMakeFiles/light_switch_server_nrf52840_xxAA_s140_6.0.0.dir/__/__/__/mesh/core/src/flash_manager.c.obj
 .debug_ranges  0x000023c8       0xa0 examples/light_switch/server/CMakeFiles/light_switch_server_nrf52840_xxAA_s140_6.0.0.dir/__/__/__/mesh/core/src/ccm_soft.c.obj
 .debug_ranges  0x00002468       0x30 examples/light_switch/server/CMakeFiles/light_switch_server_nrf52840_xxAA_s140_6.0.0.dir/__/__/__/mesh/core/src/replay_cache.c.obj
 .debug_ranges  0x00002498       0x90 examples/light_switch/server/CMakeFiles/light_switch_server_nrf52840_xxAA_s140_6.0.0.dir/__/__/__/mesh/core/src/beacon.c.obj
 .debug_ranges  0x00002528       0x10 examples/light_switch/server/CMakeFiles/light_switch_server_nrf52840_xxAA_s140_6.0.0.dir/__/__/__/mesh/core/src/flash_manager_internal.c.obj
 .debug_ranges  0x00002538       0xf8 examples/light_switch/server/CMakeFiles/light_switch_server_nrf52840_xxAA_s140_6.0.0.dir/__/__/__/mesh/core/src/core_tx.c.obj
 .debug_ranges  0x00002630       0xc0 examples/light_switch/server/CMakeFiles/light_switch_server_nrf52840_xxAA_s140_6.0.0.dir/__/__/__/mesh/core/src/heartbeat.c.obj
 .debug_ranges  0x000026f0      0x170 examples/light_switch/server/CMakeFiles/light_switch_server_nrf52840_xxAA_s140_6.0.0.dir/__/__/__/mesh/core/src/net_beacon.c.obj
 .debug_ranges  0x00002860       0x60 examples/light_switch/server/CMakeFiles/light_switch_server_nrf52840_xxAA_s140_6.0.0.dir/__/__/__/mesh/core/src/core_tx_adv.c.obj
 .debug_ranges  0x000028c0      0x110 examples/light_switch/server/CMakeFiles/light_switch_server_nrf52840_xxAA_s140_6.0.0.dir/__/__/__/mesh/bearer/src/ad_listener.c.obj
 .debug_ranges  0x000029d0       0xd0 examples/light_switch/server/CMakeFiles/light_switch_server_nrf52840_xxAA_s140_6.0.0.dir/__/__/__/mesh/bearer/src/ad_type_filter.c.obj
 .debug_ranges  0x00002aa0      0x248 examples/light_switch/server/CMakeFiles/light_switch_server_nrf52840_xxAA_s140_6.0.0.dir/__/__/__/mesh/bearer/src/advertiser.c.obj
 .debug_ranges  0x00002ce8      0x180 examples/light_switch/server/CMakeFiles/light_switch_server_nrf52840_xxAA_s140_6.0.0.dir/__/__/__/mesh/bearer/src/bearer_handler.c.obj
 .debug_ranges  0x00002e68       0xc0 examples/light_switch/server/CMakeFiles/light_switch_server_nrf52840_xxAA_s140_6.0.0.dir/__/__/__/mesh/bearer/src/broadcast.c.obj
 .debug_ranges  0x00002f28       0x48 examples/light_switch/server/CMakeFiles/light_switch_server_nrf52840_xxAA_s140_6.0.0.dir/__/__/__/mesh/bearer/src/filter_engine.c.obj
 .debug_ranges  0x00002f70       0x48 examples/light_switch/server/CMakeFiles/light_switch_server_nrf52840_xxAA_s140_6.0.0.dir/__/__/__/mesh/bearer/src/radio_config.c.obj
 .debug_ranges  0x00002fb8      0x1a8 examples/light_switch/server/CMakeFiles/light_switch_server_nrf52840_xxAA_s140_6.0.0.dir/__/__/__/mesh/bearer/src/scanner.c.obj
 .debug_ranges  0x00003160       0xb8 examples/light_switch/server/CMakeFiles/light_switch_server_nrf52840_xxAA_s140_6.0.0.dir/__/__/__/mesh/bearer/src/mesh_pa_lna.c.obj
 .debug_ranges  0x00003218       0x38 examples/light_switch/server/CMakeFiles/light_switch_server_nrf52840_xxAA_s140_6.0.0.dir/__/__/__/models/simple_on_off/src/simple_on_off_server.c.obj
 .debug_ranges  0x00003250       0xa8 examples/light_switch/server/CMakeFiles/light_switch_server_nrf52840_xxAA_s140_6.0.0.dir/__/__/__/models/config/src/composition_data.c.obj
 .debug_ranges  0x000032f8      0x788 examples/light_switch/server/CMakeFiles/light_switch_server_nrf52840_xxAA_s140_6.0.0.dir/__/__/__/models/config/src/config_server.c.obj
 .debug_ranges  0x00003a80       0x10 examples/light_switch/server/CMakeFiles/light_switch_server_nrf52840_xxAA_s140_6.0.0.dir/__/__/__/models/config/src/packed_index_list.c.obj
 .debug_ranges  0x00003a90      0x260 examples/light_switch/server/CMakeFiles/light_switch_server_nrf52840_xxAA_s140_6.0.0.dir/__/__/__/models/health/src/health_server.c.obj
 .debug_ranges  0x00003cf0      0x118 examples/light_switch/server/CMakeFiles/light_switch_server_nrf52840_xxAA_s140_6.0.0.dir/__/__/__/mesh/access/src/access_publish.c.obj
 .debug_ranges  0x00003e08      0x788 examples/light_switch/server/CMakeFiles/light_switch_server_nrf52840_xxAA_s140_6.0.0.dir/__/__/__/mesh/access/src/access.c.obj
 .debug_ranges  0x00004590      0x160 examples/light_switch/server/CMakeFiles/light_switch_server_nrf52840_xxAA_s140_6.0.0.dir/__/__/__/mesh/access/src/access_reliable.c.obj
 .debug_ranges  0x000046f0       0x28 examples/light_switch/server/CMakeFiles/light_switch_server_nrf52840_xxAA_s140_6.0.0.dir/__/__/__/mesh/access/src/access_loopback.c.obj
 .debug_ranges  0x00004718      0x7e8 examples/light_switch/server/CMakeFiles/light_switch_server_nrf52840_xxAA_s140_6.0.0.dir/__/__/__/mesh/access/src/device_state_manager.c.obj
 .debug_ranges  0x00004f00      0x148 examples/light_switch/server/CMakeFiles/light_switch_server_nrf52840_xxAA_s140_6.0.0.dir/__/__/__/mesh/prov/src/prov_provisionee.c.obj
 .debug_ranges  0x00005048      0x130 examples/light_switch/server/CMakeFiles/light_switch_server_nrf52840_xxAA_s140_6.0.0.dir/__/__/__/mesh/prov/src/nrf_mesh_prov.c.obj
 .debug_ranges  0x00005178       0x70 examples/light_switch/server/CMakeFiles/light_switch_server_nrf52840_xxAA_s140_6.0.0.dir/__/__/__/mesh/prov/src/provisioning.c.obj
 .debug_ranges  0x000051e8       0x40 examples/light_switch/server/CMakeFiles/light_switch_server_nrf52840_xxAA_s140_6.0.0.dir/__/__/__/mesh/prov/src/prov_beacon.c.obj
 .debug_ranges  0x00005228       0xb8 examples/light_switch/server/CMakeFiles/light_switch_server_nrf52840_xxAA_s140_6.0.0.dir/__/__/__/mesh/prov/src/prov_utils.c.obj
 .debug_ranges  0x000052e0      0x498 examples/light_switch/server/CMakeFiles/light_switch_server_nrf52840_xxAA_s140_6.0.0.dir/__/__/__/mesh/prov/src/prov_bearer_adv.c.obj
 .debug_ranges  0x00005778       0x20 examples/light_switch/server/CMakeFiles/light_switch_server_nrf52840_xxAA_s140_6.0.0.dir/C_/b/nRF5_SDK_15.0.0_a53641a/modules/nrfx/mdk/system_nrf52840.c.obj
 .debug_ranges  0x00005798       0x18 examples/light_switch/server/CMakeFiles/light_switch_server_nrf52840_xxAA_s140_6.0.0.dir/C_/b/nRF5_SDK_15.0.0_a53641a/components/libraries/util/app_error.c.obj
 .debug_ranges  0x000057b0       0x38 examples/light_switch/server/CMakeFiles/light_switch_server_nrf52840_xxAA_s140_6.0.0.dir/C_/b/nRF5_SDK_15.0.0_a53641a/components/libraries/util/app_util_platform.c.obj
 .debug_ranges  0x000057e8      0x390 examples/light_switch/server/CMakeFiles/light_switch_server_nrf52840_xxAA_s140_6.0.0.dir/C_/b/nRF5_SDK_15.0.0_a53641a/components/libraries/timer/app_timer.c.obj
 .debug_ranges  0x00005b78       0x10 examples/light_switch/server/CMakeFiles/light_switch_server_nrf52840_xxAA_s140_6.0.0.dir/C_/b/nRF5_SDK_15.0.0_a53641a/components/libraries/util/app_error_handler_gcc.c.obj
 .debug_ranges  0x00005b88      0x130 external/rtt/librtt_nrf52840_xxAA.a(SEGGER_RTT.c.obj)
 .debug_ranges  0x00005cb8       0x48 external/rtt/librtt_nrf52840_xxAA.a(SEGGER_RTT_printf.c.obj)
 .debug_ranges  0x00005d00      0x2e8 external/micro-ecc/libuECC_nrf52840_xxAA.a(uECC.c.obj)

.debug_line     0x00000000    0x1859d
 .debug_line    0x00000000      0x895 examples/light_switch/server/CMakeFiles/light_switch_server_nrf52840_xxAA_s140_6.0.0.dir/src/main.c.obj
 .debug_line    0x00000895      0x4a0 examples/light_switch/server/CMakeFiles/light_switch_server_nrf52840_xxAA_s140_6.0.0.dir/__/__/__/mesh/stack/src/mesh_stack.c.obj
 .debug_line    0x00000d35      0x42e examples/light_switch/server/CMakeFiles/light_switch_server_nrf52840_xxAA_s140_6.0.0.dir/__/__/common/src/mesh_softdevice_init.c.obj
 .debug_line    0x00001163      0x4df examples/light_switch/server/CMakeFiles/light_switch_server_nrf52840_xxAA_s140_6.0.0.dir/__/__/common/src/mesh_provisionee.c.obj
 .debug_line    0x00001642      0x385 examples/light_switch/server/CMakeFiles/light_switch_server_nrf52840_xxAA_s140_6.0.0.dir/__/__/common/src/rtt_input.c.obj
 .debug_line    0x000019c7      0x43d examples/light_switch/server/CMakeFiles/light_switch_server_nrf52840_xxAA_s140_6.0.0.dir/__/__/common/src/simple_hal.c.obj
 .debug_line    0x00001e04      0x210 examples/light_switch/server/CMakeFiles/light_switch_server_nrf52840_xxAA_s140_6.0.0.dir/__/__/common/src/mesh_app_utils.c.obj
 .debug_line    0x00002014      0x1e5 examples/light_switch/server/CMakeFiles/light_switch_server_nrf52840_xxAA_s140_6.0.0.dir/__/__/nrf_mesh_weak.c.obj
 .debug_line    0x000021f9      0x473 examples/light_switch/server/CMakeFiles/light_switch_server_nrf52840_xxAA_s140_6.0.0.dir/__/__/common/src/app_error_weak.c.obj
 .debug_line    0x0000266c      0x22b examples/light_switch/server/CMakeFiles/light_switch_server_nrf52840_xxAA_s140_6.0.0.dir/__/__/common/src/assertion_handler_weak.c.obj
 .debug_line    0x00002897      0x225 examples/light_switch/server/CMakeFiles/light_switch_server_nrf52840_xxAA_s140_6.0.0.dir/__/__/__/mesh/core/src/nrf_mesh_configure.c.obj
 .debug_line    0x00002abc      0x258 examples/light_switch/server/CMakeFiles/light_switch_server_nrf52840_xxAA_s140_6.0.0.dir/__/__/__/mesh/core/src/msg_cache.c.obj
 .debug_line    0x00002d14      0xcb5 examples/light_switch/server/CMakeFiles/light_switch_server_nrf52840_xxAA_s140_6.0.0.dir/__/__/__/mesh/core/src/transport.c.obj
 .debug_line    0x000039c9      0x2f6 examples/light_switch/server/CMakeFiles/light_switch_server_nrf52840_xxAA_s140_6.0.0.dir/__/__/__/mesh/core/src/event.c.obj
 .debug_line    0x00003cbf      0x4af examples/light_switch/server/CMakeFiles/light_switch_server_nrf52840_xxAA_s140_6.0.0.dir/__/__/__/mesh/core/src/packet_buffer.c.obj
 .debug_line    0x0000416e      0x6d1 examples/light_switch/server/CMakeFiles/light_switch_server_nrf52840_xxAA_s140_6.0.0.dir/__/__/__/mesh/core/src/flash_manager_defrag.c.obj
 .debug_line    0x0000483f      0x36f examples/light_switch/server/CMakeFiles/light_switch_server_nrf52840_xxAA_s140_6.0.0.dir/__/__/__/mesh/core/src/fifo.c.obj
 .debug_line    0x00004bae      0x236 examples/light_switch/server/CMakeFiles/light_switch_server_nrf52840_xxAA_s140_6.0.0.dir/__/__/__/mesh/core/src/nrf_flash.c.obj
 .debug_line    0x00004de4      0x40e examples/light_switch/server/CMakeFiles/light_switch_server_nrf52840_xxAA_s140_6.0.0.dir/__/__/__/mesh/core/src/packet_mgr.c.obj
 .debug_line    0x000051f2      0x6b7 examples/light_switch/server/CMakeFiles/light_switch_server_nrf52840_xxAA_s140_6.0.0.dir/__/__/__/mesh/core/src/net_state.c.obj
 .debug_line    0x000058a9      0x50b examples/light_switch/server/CMakeFiles/light_switch_server_nrf52840_xxAA_s140_6.0.0.dir/__/__/__/mesh/core/src/mesh_flash.c.obj
 .debug_line    0x00005db4      0x24c examples/light_switch/server/CMakeFiles/light_switch_server_nrf52840_xxAA_s140_6.0.0.dir/__/__/__/mesh/core/src/nrf_mesh_utils.c.obj
 .debug_line    0x00006000      0x75e examples/light_switch/server/CMakeFiles/light_switch_server_nrf52840_xxAA_s140_6.0.0.dir/__/__/__/mesh/core/src/nrf_mesh.c.obj
 .debug_line    0x0000675e      0x284 examples/light_switch/server/CMakeFiles/light_switch_server_nrf52840_xxAA_s140_6.0.0.dir/__/__/__/mesh/core/src/queue.c.obj
 .debug_line    0x000069e2      0x1fd examples/light_switch/server/CMakeFiles/light_switch_server_nrf52840_xxAA_s140_6.0.0.dir/__/__/__/mesh/core/src/hal.c.obj
 .debug_line    0x00006bdf      0x30a examples/light_switch/server/CMakeFiles/light_switch_server_nrf52840_xxAA_s140_6.0.0.dir/__/__/__/mesh/core/src/aes_cmac.c.obj
 .debug_line    0x00006ee9      0x422 examples/light_switch/server/CMakeFiles/light_switch_server_nrf52840_xxAA_s140_6.0.0.dir/__/__/__/mesh/core/src/timer_scheduler.c.obj
 .debug_line    0x0000730b      0x3a5 examples/light_switch/server/CMakeFiles/light_switch_server_nrf52840_xxAA_s140_6.0.0.dir/__/__/__/mesh/core/src/timer.c.obj
 .debug_line    0x000076b0      0x124 examples/light_switch/server/CMakeFiles/light_switch_server_nrf52840_xxAA_s140_6.0.0.dir/__/__/__/mesh/core/src/ticker.c.obj
 .debug_line    0x000077d4      0x269 examples/light_switch/server/CMakeFiles/light_switch_server_nrf52840_xxAA_s140_6.0.0.dir/__/__/__/mesh/core/src/rand.c.obj
 .debug_line    0x00007a3d      0x25a examples/light_switch/server/CMakeFiles/light_switch_server_nrf52840_xxAA_s140_6.0.0.dir/__/__/__/mesh/core/src/nrf_mesh_opt.c.obj
 .debug_line    0x00007c97      0x54e examples/light_switch/server/CMakeFiles/light_switch_server_nrf52840_xxAA_s140_6.0.0.dir/__/__/__/mesh/core/src/timeslot.c.obj
 .debug_line    0x000081e5      0x50d examples/light_switch/server/CMakeFiles/light_switch_server_nrf52840_xxAA_s140_6.0.0.dir/__/__/__/mesh/core/src/bearer_event.c.obj
 .debug_line    0x000086f2      0x48a examples/light_switch/server/CMakeFiles/light_switch_server_nrf52840_xxAA_s140_6.0.0.dir/__/__/__/mesh/core/src/enc.c.obj
 .debug_line    0x00008b7c      0x558 examples/light_switch/server/CMakeFiles/light_switch_server_nrf52840_xxAA_s140_6.0.0.dir/__/__/__/mesh/core/src/network.c.obj
 .debug_line    0x000090d4      0x554 examples/light_switch/server/CMakeFiles/light_switch_server_nrf52840_xxAA_s140_6.0.0.dir/__/__/__/mesh/core/src/net_packet.c.obj
 .debug_line    0x00009628      0x2f3 examples/light_switch/server/CMakeFiles/light_switch_server_nrf52840_xxAA_s140_6.0.0.dir/__/__/__/mesh/core/src/msqueue.c.obj
 .debug_line    0x0000991b      0x229 examples/light_switch/server/CMakeFiles/light_switch_server_nrf52840_xxAA_s140_6.0.0.dir/__/__/__/mesh/core/src/nrf_mesh_keygen.c.obj
 .debug_line    0x00009b44      0x2d3 examples/light_switch/server/CMakeFiles/light_switch_server_nrf52840_xxAA_s140_6.0.0.dir/__/__/__/mesh/core/src/list.c.obj
 .debug_line    0x00009e17      0x278 examples/light_switch/server/CMakeFiles/light_switch_server_nrf52840_xxAA_s140_6.0.0.dir/__/__/__/mesh/core/src/log.c.obj
 .debug_line    0x0000a08f      0x8f9 examples/light_switch/server/CMakeFiles/light_switch_server_nrf52840_xxAA_s140_6.0.0.dir/__/__/__/mesh/core/src/flash_manager.c.obj
 .debug_line    0x0000a988      0x3a5 examples/light_switch/server/CMakeFiles/light_switch_server_nrf52840_xxAA_s140_6.0.0.dir/__/__/__/mesh/core/src/ccm_soft.c.obj
 .debug_line    0x0000ad2d      0x1cd examples/light_switch/server/CMakeFiles/light_switch_server_nrf52840_xxAA_s140_6.0.0.dir/__/__/__/mesh/core/src/replay_cache.c.obj
 .debug_line    0x0000aefa      0x484 examples/light_switch/server/CMakeFiles/light_switch_server_nrf52840_xxAA_s140_6.0.0.dir/__/__/__/mesh/core/src/beacon.c.obj
 .debug_line    0x0000b37e      0x26c examples/light_switch/server/CMakeFiles/light_switch_server_nrf52840_xxAA_s140_6.0.0.dir/__/__/__/mesh/core/src/flash_manager_internal.c.obj
 .debug_line    0x0000b5ea      0x399 examples/light_switch/server/CMakeFiles/light_switch_server_nrf52840_xxAA_s140_6.0.0.dir/__/__/__/mesh/core/src/core_tx.c.obj
 .debug_line    0x0000b983      0x5ae examples/light_switch/server/CMakeFiles/light_switch_server_nrf52840_xxAA_s140_6.0.0.dir/__/__/__/mesh/core/src/heartbeat.c.obj
 .debug_line    0x0000bf31      0x5ee examples/light_switch/server/CMakeFiles/light_switch_server_nrf52840_xxAA_s140_6.0.0.dir/__/__/__/mesh/core/src/net_beacon.c.obj
 .debug_line    0x0000c51f      0x4d1 examples/light_switch/server/CMakeFiles/light_switch_server_nrf52840_xxAA_s140_6.0.0.dir/__/__/__/mesh/core/src/core_tx_adv.c.obj
 .debug_line    0x0000c9f0      0x32e examples/light_switch/server/CMakeFiles/light_switch_server_nrf52840_xxAA_s140_6.0.0.dir/__/__/__/mesh/bearer/src/ad_listener.c.obj
 .debug_line    0x0000cd1e      0x3df examples/light_switch/server/CMakeFiles/light_switch_server_nrf52840_xxAA_s140_6.0.0.dir/__/__/__/mesh/bearer/src/ad_type_filter.c.obj
 .debug_line    0x0000d0fd      0x6e7 examples/light_switch/server/CMakeFiles/light_switch_server_nrf52840_xxAA_s140_6.0.0.dir/__/__/__/mesh/bearer/src/advertiser.c.obj
 .debug_line    0x0000d7e4      0x59f examples/light_switch/server/CMakeFiles/light_switch_server_nrf52840_xxAA_s140_6.0.0.dir/__/__/__/mesh/bearer/src/bearer_handler.c.obj
 .debug_line    0x0000dd83      0x370 examples/light_switch/server/CMakeFiles/light_switch_server_nrf52840_xxAA_s140_6.0.0.dir/__/__/__/mesh/bearer/src/broadcast.c.obj
 .debug_line    0x0000e0f3      0x31d examples/light_switch/server/CMakeFiles/light_switch_server_nrf52840_xxAA_s140_6.0.0.dir/__/__/__/mesh/bearer/src/filter_engine.c.obj
 .debug_line    0x0000e410      0x28d examples/light_switch/server/CMakeFiles/light_switch_server_nrf52840_xxAA_s140_6.0.0.dir/__/__/__/mesh/bearer/src/radio_config.c.obj
 .debug_line    0x0000e69d      0x6ce examples/light_switch/server/CMakeFiles/light_switch_server_nrf52840_xxAA_s140_6.0.0.dir/__/__/__/mesh/bearer/src/scanner.c.obj
 .debug_line    0x0000ed6b      0x31a examples/light_switch/server/CMakeFiles/light_switch_server_nrf52840_xxAA_s140_6.0.0.dir/__/__/__/mesh/bearer/src/mesh_pa_lna.c.obj
 .debug_line    0x0000f085      0x335 examples/light_switch/server/CMakeFiles/light_switch_server_nrf52840_xxAA_s140_6.0.0.dir/__/__/__/models/simple_on_off/src/simple_on_off_server.c.obj
 .debug_line    0x0000f3ba      0x2ed examples/light_switch/server/CMakeFiles/light_switch_server_nrf52840_xxAA_s140_6.0.0.dir/__/__/__/models/config/src/composition_data.c.obj
 .debug_line    0x0000f6a7     0x136e examples/light_switch/server/CMakeFiles/light_switch_server_nrf52840_xxAA_s140_6.0.0.dir/__/__/__/models/config/src/config_server.c.obj
 .debug_line    0x00010a15       0xef examples/light_switch/server/CMakeFiles/light_switch_server_nrf52840_xxAA_s140_6.0.0.dir/__/__/__/models/config/src/packed_index_list.c.obj
 .debug_line    0x00010b04      0x67d examples/light_switch/server/CMakeFiles/light_switch_server_nrf52840_xxAA_s140_6.0.0.dir/__/__/__/models/health/src/health_server.c.obj
 .debug_line    0x00011181      0x411 examples/light_switch/server/CMakeFiles/light_switch_server_nrf52840_xxAA_s140_6.0.0.dir/__/__/__/mesh/access/src/access_publish.c.obj
 .debug_line    0x00011592      0xeda examples/light_switch/server/CMakeFiles/light_switch_server_nrf52840_xxAA_s140_6.0.0.dir/__/__/__/mesh/access/src/access.c.obj
 .debug_line    0x0001246c      0x516 examples/light_switch/server/CMakeFiles/light_switch_server_nrf52840_xxAA_s140_6.0.0.dir/__/__/__/mesh/access/src/access_reliable.c.obj
 .debug_line    0x00012982      0x364 examples/light_switch/server/CMakeFiles/light_switch_server_nrf52840_xxAA_s140_6.0.0.dir/__/__/__/mesh/access/src/access_loopback.c.obj
 .debug_line    0x00012ce6     0x13ee examples/light_switch/server/CMakeFiles/light_switch_server_nrf52840_xxAA_s140_6.0.0.dir/__/__/__/mesh/access/src/device_state_manager.c.obj
 .debug_line    0x000140d4      0x621 examples/light_switch/server/CMakeFiles/light_switch_server_nrf52840_xxAA_s140_6.0.0.dir/__/__/__/mesh/prov/src/prov_provisionee.c.obj
 .debug_line    0x000146f5      0x551 examples/light_switch/server/CMakeFiles/light_switch_server_nrf52840_xxAA_s140_6.0.0.dir/__/__/__/mesh/prov/src/nrf_mesh_prov.c.obj
 .debug_line    0x00014c46      0x3b1 examples/light_switch/server/CMakeFiles/light_switch_server_nrf52840_xxAA_s140_6.0.0.dir/__/__/__/mesh/prov/src/provisioning.c.obj
 .debug_line    0x00014ff7      0x451 examples/light_switch/server/CMakeFiles/light_switch_server_nrf52840_xxAA_s140_6.0.0.dir/__/__/__/mesh/prov/src/prov_beacon.c.obj
 .debug_line    0x00015448      0x496 examples/light_switch/server/CMakeFiles/light_switch_server_nrf52840_xxAA_s140_6.0.0.dir/__/__/__/mesh/prov/src/prov_utils.c.obj
 .debug_line    0x000158de      0xb1b examples/light_switch/server/CMakeFiles/light_switch_server_nrf52840_xxAA_s140_6.0.0.dir/__/__/__/mesh/prov/src/prov_bearer_adv.c.obj
 .debug_line    0x000163f9      0x1ff examples/light_switch/server/CMakeFiles/light_switch_server_nrf52840_xxAA_s140_6.0.0.dir/C_/b/nRF5_SDK_15.0.0_a53641a/modules/nrfx/mdk/system_nrf52840.c.obj
 .debug_line    0x000165f8      0x263 examples/light_switch/server/CMakeFiles/light_switch_server_nrf52840_xxAA_s140_6.0.0.dir/C_/b/nRF5_SDK_15.0.0_a53641a/components/libraries/util/app_error.c.obj
 .debug_line    0x0001685b      0x33a examples/light_switch/server/CMakeFiles/light_switch_server_nrf52840_xxAA_s140_6.0.0.dir/C_/b/nRF5_SDK_15.0.0_a53641a/components/libraries/util/app_util_platform.c.obj
 .debug_line    0x00016b95      0x6bb examples/light_switch/server/CMakeFiles/light_switch_server_nrf52840_xxAA_s140_6.0.0.dir/C_/b/nRF5_SDK_15.0.0_a53641a/components/libraries/timer/app_timer.c.obj
 .debug_line    0x00017250      0x208 examples/light_switch/server/CMakeFiles/light_switch_server_nrf52840_xxAA_s140_6.0.0.dir/C_/b/nRF5_SDK_15.0.0_a53641a/components/libraries/util/app_error_handler_gcc.c.obj
 .debug_line    0x00017458      0x4c3 external/rtt/librtt_nrf52840_xxAA.a(SEGGER_RTT.c.obj)
 .debug_line    0x0001791b      0x285 external/rtt/librtt_nrf52840_xxAA.a(SEGGER_RTT_printf.c.obj)
 .debug_line    0x00017ba0      0x9fd external/micro-ecc/libuECC_nrf52840_xxAA.a(uECC.c.obj)

.debug_str      0x00000000    0x144e1
 .debug_str     0x00000000     0x1f95 examples/light_switch/server/CMakeFiles/light_switch_server_nrf52840_xxAA_s140_6.0.0.dir/src/main.c.obj
                               0x2323 (size before relaxing)
 .debug_str     0x00001f95     0x10f8 examples/light_switch/server/CMakeFiles/light_switch_server_nrf52840_xxAA_s140_6.0.0.dir/__/__/__/mesh/stack/src/mesh_stack.c.obj
                               0x2746 (size before relaxing)
 .debug_str     0x0000308d      0x6b8 examples/light_switch/server/CMakeFiles/light_switch_server_nrf52840_xxAA_s140_6.0.0.dir/__/__/common/src/mesh_softdevice_init.c.obj
                               0x1632 (size before relaxing)
 .debug_str     0x00003745     0x18a3 examples/light_switch/server/CMakeFiles/light_switch_server_nrf52840_xxAA_s140_6.0.0.dir/__/__/common/src/mesh_provisionee.c.obj
                               0x24e6 (size before relaxing)
 .debug_str     0x00004fe8      0x1c9 examples/light_switch/server/CMakeFiles/light_switch_server_nrf52840_xxAA_s140_6.0.0.dir/__/__/common/src/rtt_input.c.obj
                                0x86a (size before relaxing)
 .debug_str     0x000051b1      0x1d7 examples/light_switch/server/CMakeFiles/light_switch_server_nrf52840_xxAA_s140_6.0.0.dir/__/__/common/src/simple_hal.c.obj
                                0xdd0 (size before relaxing)
 .debug_str     0x00005388      0x189 examples/light_switch/server/CMakeFiles/light_switch_server_nrf52840_xxAA_s140_6.0.0.dir/__/__/common/src/mesh_app_utils.c.obj
                                0x7b9 (size before relaxing)
 .debug_str     0x00005511       0x3c examples/light_switch/server/CMakeFiles/light_switch_server_nrf52840_xxAA_s140_6.0.0.dir/__/__/nrf_mesh_weak.c.obj
                                0x61c (size before relaxing)
 .debug_str     0x0000554d       0xa0 examples/light_switch/server/CMakeFiles/light_switch_server_nrf52840_xxAA_s140_6.0.0.dir/__/__/common/src/app_error_weak.c.obj
                                0x85d (size before relaxing)
 .debug_str     0x000055ed       0x30 examples/light_switch/server/CMakeFiles/light_switch_server_nrf52840_xxAA_s140_6.0.0.dir/__/__/common/src/assertion_handler_weak.c.obj
                                0x672 (size before relaxing)
 .debug_str     0x0000561d       0x75 examples/light_switch/server/CMakeFiles/light_switch_server_nrf52840_xxAA_s140_6.0.0.dir/__/__/__/mesh/core/src/nrf_mesh_configure.c.obj
                                0x7ed (size before relaxing)
 .debug_str     0x00005692       0xbb examples/light_switch/server/CMakeFiles/light_switch_server_nrf52840_xxAA_s140_6.0.0.dir/__/__/__/mesh/core/src/msg_cache.c.obj
                                0x6b9 (size before relaxing)
 .debug_str     0x0000574d     0x16bb examples/light_switch/server/CMakeFiles/light_switch_server_nrf52840_xxAA_s140_6.0.0.dir/__/__/__/mesh/core/src/transport.c.obj
                               0x3148 (size before relaxing)
 .debug_str     0x00006e08      0x106 examples/light_switch/server/CMakeFiles/light_switch_server_nrf52840_xxAA_s140_6.0.0.dir/__/__/__/mesh/core/src/event.c.obj
                               0x1753 (size before relaxing)
 .debug_str     0x00006f0e      0x30d examples/light_switch/server/CMakeFiles/light_switch_server_nrf52840_xxAA_s140_6.0.0.dir/__/__/__/mesh/core/src/packet_buffer.c.obj
                                0xb1b (size before relaxing)
 .debug_str     0x0000721b      0x914 examples/light_switch/server/CMakeFiles/light_switch_server_nrf52840_xxAA_s140_6.0.0.dir/__/__/__/mesh/core/src/flash_manager_defrag.c.obj
                               0x118d (size before relaxing)
 .debug_str     0x00007b2f       0xa5 examples/light_switch/server/CMakeFiles/light_switch_server_nrf52840_xxAA_s140_6.0.0.dir/__/__/__/mesh/core/src/fifo.c.obj
                                0x6db (size before relaxing)
 .debug_str     0x00007bd4       0xd9 examples/light_switch/server/CMakeFiles/light_switch_server_nrf52840_xxAA_s140_6.0.0.dir/__/__/__/mesh/core/src/nrf_flash.c.obj
                                0x6f4 (size before relaxing)
 .debug_str     0x00007cad      0x287 examples/light_switch/server/CMakeFiles/light_switch_server_nrf52840_xxAA_s140_6.0.0.dir/__/__/__/mesh/core/src/packet_mgr.c.obj
                                0x9a5 (size before relaxing)
 .debug_str     0x00007f34      0x585 examples/light_switch/server/CMakeFiles/light_switch_server_nrf52840_xxAA_s140_6.0.0.dir/__/__/__/mesh/core/src/net_state.c.obj
                               0x216e (size before relaxing)
 .debug_str     0x000084b9      0x387 examples/light_switch/server/CMakeFiles/light_switch_server_nrf52840_xxAA_s140_6.0.0.dir/__/__/__/mesh/core/src/mesh_flash.c.obj
                                0xd09 (size before relaxing)
 .debug_str     0x00008840       0x9b examples/light_switch/server/CMakeFiles/light_switch_server_nrf52840_xxAA_s140_6.0.0.dir/__/__/__/mesh/core/src/nrf_mesh_utils.c.obj
                                0x751 (size before relaxing)
 .debug_str     0x000088db      0x621 examples/light_switch/server/CMakeFiles/light_switch_server_nrf52840_xxAA_s140_6.0.0.dir/__/__/__/mesh/core/src/nrf_mesh.c.obj
                               0x2167 (size before relaxing)
 .debug_str     0x00008efc       0x53 examples/light_switch/server/CMakeFiles/light_switch_server_nrf52840_xxAA_s140_6.0.0.dir/__/__/__/mesh/core/src/queue.c.obj
                                0x683 (size before relaxing)
 .debug_str     0x00008f4f       0x86 examples/light_switch/server/CMakeFiles/light_switch_server_nrf52840_xxAA_s140_6.0.0.dir/__/__/__/mesh/core/src/hal.c.obj
                                0x7ab (size before relaxing)
 .debug_str     0x00008fd5      0x16e examples/light_switch/server/CMakeFiles/light_switch_server_nrf52840_xxAA_s140_6.0.0.dir/__/__/__/mesh/core/src/aes_cmac.c.obj
                                0xc0f (size before relaxing)
 .debug_str     0x00009143      0x146 examples/light_switch/server/CMakeFiles/light_switch_server_nrf52840_xxAA_s140_6.0.0.dir/__/__/__/mesh/core/src/timer_scheduler.c.obj
                                0x934 (size before relaxing)
 .debug_str     0x00009289      0x222 examples/light_switch/server/CMakeFiles/light_switch_server_nrf52840_xxAA_s140_6.0.0.dir/__/__/__/mesh/core/src/timer.c.obj
                                0x8ae (size before relaxing)
 .debug_str     0x000094ab       0x42 examples/light_switch/server/CMakeFiles/light_switch_server_nrf52840_xxAA_s140_6.0.0.dir/__/__/__/mesh/core/src/ticker.c.obj
                                0x34c (size before relaxing)
 .debug_str     0x000094ed       0xac examples/light_switch/server/CMakeFiles/light_switch_server_nrf52840_xxAA_s140_6.0.0.dir/__/__/__/mesh/core/src/rand.c.obj
                                0x76e (size before relaxing)
 .debug_str     0x00009599       0x88 examples/light_switch/server/CMakeFiles/light_switch_server_nrf52840_xxAA_s140_6.0.0.dir/__/__/__/mesh/core/src/nrf_mesh_opt.c.obj
                                0x932 (size before relaxing)
 .debug_str     0x00009621      0x8fe examples/light_switch/server/CMakeFiles/light_switch_server_nrf52840_xxAA_s140_6.0.0.dir/__/__/__/mesh/core/src/timeslot.c.obj
                               0x191f (size before relaxing)
 .debug_str     0x00009f1f      0x2d6 examples/light_switch/server/CMakeFiles/light_switch_server_nrf52840_xxAA_s140_6.0.0.dir/__/__/__/mesh/core/src/bearer_event.c.obj
                                0xefe (size before relaxing)
 .debug_str     0x0000a1f5      0x16e examples/light_switch/server/CMakeFiles/light_switch_server_nrf52840_xxAA_s140_6.0.0.dir/__/__/__/mesh/core/src/enc.c.obj
                                0xee6 (size before relaxing)
 .debug_str     0x0000a363      0x312 examples/light_switch/server/CMakeFiles/light_switch_server_nrf52840_xxAA_s140_6.0.0.dir/__/__/__/mesh/core/src/network.c.obj
                               0x14be (size before relaxing)
 .debug_str     0x0000a675      0x30f examples/light_switch/server/CMakeFiles/light_switch_server_nrf52840_xxAA_s140_6.0.0.dir/__/__/__/mesh/core/src/net_packet.c.obj
                                0xe86 (size before relaxing)
 .debug_str     0x0000a984       0x53 examples/light_switch/server/CMakeFiles/light_switch_server_nrf52840_xxAA_s140_6.0.0.dir/__/__/__/mesh/core/src/msqueue.c.obj
                                0x6bf (size before relaxing)
 .debug_str     0x0000a9d7       0xc8 examples/light_switch/server/CMakeFiles/light_switch_server_nrf52840_xxAA_s140_6.0.0.dir/__/__/__/mesh/core/src/nrf_mesh_keygen.c.obj
                                0x397 (size before relaxing)
 .debug_str     0x0000aa9f       0x6a examples/light_switch/server/CMakeFiles/light_switch_server_nrf52840_xxAA_s140_6.0.0.dir/__/__/__/mesh/core/src/list.c.obj
                                0x2be (size before relaxing)
 .debug_str     0x0000ab09       0xf7 examples/light_switch/server/CMakeFiles/light_switch_server_nrf52840_xxAA_s140_6.0.0.dir/__/__/__/mesh/core/src/log.c.obj
                                0x7d0 (size before relaxing)
 .debug_str     0x0000ac00      0x52b examples/light_switch/server/CMakeFiles/light_switch_server_nrf52840_xxAA_s140_6.0.0.dir/__/__/__/mesh/core/src/flash_manager.c.obj
                               0x1578 (size before relaxing)
 .debug_str     0x0000b12b       0xd2 examples/light_switch/server/CMakeFiles/light_switch_server_nrf52840_xxAA_s140_6.0.0.dir/__/__/__/mesh/core/src/ccm_soft.c.obj
                                0xcef (size before relaxing)
 .debug_str     0x0000b1fd       0x92 examples/light_switch/server/CMakeFiles/light_switch_server_nrf52840_xxAA_s140_6.0.0.dir/__/__/__/mesh/core/src/replay_cache.c.obj
                                0x68d (size before relaxing)
 .debug_str     0x0000b28f       0xd4 examples/light_switch/server/CMakeFiles/light_switch_server_nrf52840_xxAA_s140_6.0.0.dir/__/__/__/mesh/core/src/beacon.c.obj
                               0x11a8 (size before relaxing)
 .debug_str     0x0000b363       0x38 examples/light_switch/server/CMakeFiles/light_switch_server_nrf52840_xxAA_s140_6.0.0.dir/__/__/__/mesh/core/src/flash_manager_internal.c.obj
                                0x7a4 (size before relaxing)
 .debug_str     0x0000b39b      0x2be examples/light_switch/server/CMakeFiles/light_switch_server_nrf52840_xxAA_s140_6.0.0.dir/__/__/__/mesh/core/src/core_tx.c.obj
                                0xbef (size before relaxing)
 .debug_str     0x0000b659      0x418 examples/light_switch/server/CMakeFiles/light_switch_server_nrf52840_xxAA_s140_6.0.0.dir/__/__/__/mesh/core/src/heartbeat.c.obj
                               0x22a8 (size before relaxing)
 .debug_str     0x0000ba71      0x25c examples/light_switch/server/CMakeFiles/light_switch_server_nrf52840_xxAA_s140_6.0.0.dir/__/__/__/mesh/core/src/net_beacon.c.obj
                               0x2145 (size before relaxing)
 .debug_str     0x0000bccd      0x11f examples/light_switch/server/CMakeFiles/light_switch_server_nrf52840_xxAA_s140_6.0.0.dir/__/__/__/mesh/core/src/core_tx_adv.c.obj
                               0x13af (size before relaxing)
 .debug_str     0x0000bdec      0x185 examples/light_switch/server/CMakeFiles/light_switch_server_nrf52840_xxAA_s140_6.0.0.dir/__/__/__/mesh/bearer/src/ad_listener.c.obj
                                0xbe1 (size before relaxing)
 .debug_str     0x0000bf71      0x162 examples/light_switch/server/CMakeFiles/light_switch_server_nrf52840_xxAA_s140_6.0.0.dir/__/__/__/mesh/bearer/src/ad_type_filter.c.obj
                                0x99f (size before relaxing)
 .debug_str     0x0000c0d3      0x321 examples/light_switch/server/CMakeFiles/light_switch_server_nrf52840_xxAA_s140_6.0.0.dir/__/__/__/mesh/bearer/src/advertiser.c.obj
                               0x161e (size before relaxing)
 .debug_str     0x0000c3f4      0x4e3 examples/light_switch/server/CMakeFiles/light_switch_server_nrf52840_xxAA_s140_6.0.0.dir/__/__/__/mesh/bearer/src/bearer_handler.c.obj
                               0x12fd (size before relaxing)
 .debug_str     0x0000c8d7      0x219 examples/light_switch/server/CMakeFiles/light_switch_server_nrf52840_xxAA_s140_6.0.0.dir/__/__/__/mesh/bearer/src/broadcast.c.obj
                               0x115c (size before relaxing)
 .debug_str     0x0000caf0       0x72 examples/light_switch/server/CMakeFiles/light_switch_server_nrf52840_xxAA_s140_6.0.0.dir/__/__/__/mesh/bearer/src/filter_engine.c.obj
                                0x80c (size before relaxing)
 .debug_str     0x0000cb62       0x79 examples/light_switch/server/CMakeFiles/light_switch_server_nrf52840_xxAA_s140_6.0.0.dir/__/__/__/mesh/bearer/src/radio_config.c.obj
                                0x928 (size before relaxing)
 .debug_str     0x0000cbdb      0x49c examples/light_switch/server/CMakeFiles/light_switch_server_nrf52840_xxAA_s140_6.0.0.dir/__/__/__/mesh/bearer/src/scanner.c.obj
                               0x1b81 (size before relaxing)
 .debug_str     0x0000d077      0x15f examples/light_switch/server/CMakeFiles/light_switch_server_nrf52840_xxAA_s140_6.0.0.dir/__/__/__/mesh/bearer/src/mesh_pa_lna.c.obj
                                0x922 (size before relaxing)
 .debug_str     0x0000d1d6      0x2c6 examples/light_switch/server/CMakeFiles/light_switch_server_nrf52840_xxAA_s140_6.0.0.dir/__/__/__/models/simple_on_off/src/simple_on_off_server.c.obj
                                0xa49 (size before relaxing)
 .debug_str     0x0000d49c      0x22b examples/light_switch/server/CMakeFiles/light_switch_server_nrf52840_xxAA_s140_6.0.0.dir/__/__/__/models/config/src/composition_data.c.obj
                                0x8dd (size before relaxing)
 .debug_str     0x0000d6c7     0x26b7 examples/light_switch/server/CMakeFiles/light_switch_server_nrf52840_xxAA_s140_6.0.0.dir/__/__/__/models/config/src/config_server.c.obj
                               0x50df (size before relaxing)
 .debug_str     0x0000fd7e       0x69 examples/light_switch/server/CMakeFiles/light_switch_server_nrf52840_xxAA_s140_6.0.0.dir/__/__/__/models/config/src/packed_index_list.c.obj
                                0x24d (size before relaxing)
 .debug_str     0x0000fde7      0x601 examples/light_switch/server/CMakeFiles/light_switch_server_nrf52840_xxAA_s140_6.0.0.dir/__/__/__/models/health/src/health_server.c.obj
                               0x16b9 (size before relaxing)
 .debug_str     0x000103e8      0x264 examples/light_switch/server/CMakeFiles/light_switch_server_nrf52840_xxAA_s140_6.0.0.dir/__/__/__/mesh/access/src/access_publish.c.obj
                                0xbcc (size before relaxing)
 .debug_str     0x0001064c      0x8d8 examples/light_switch/server/CMakeFiles/light_switch_server_nrf52840_xxAA_s140_6.0.0.dir/__/__/__/mesh/access/src/access.c.obj
                               0x300a (size before relaxing)
 .debug_str     0x00010f24      0x209 examples/light_switch/server/CMakeFiles/light_switch_server_nrf52840_xxAA_s140_6.0.0.dir/__/__/__/mesh/access/src/access_reliable.c.obj
                               0x1006 (size before relaxing)
 .debug_str     0x0001112d       0x87 examples/light_switch/server/CMakeFiles/light_switch_server_nrf52840_xxAA_s140_6.0.0.dir/__/__/__/mesh/access/src/access_loopback.c.obj
                                0xb88 (size before relaxing)
 .debug_str     0x000111b4      0xd0b examples/light_switch/server/CMakeFiles/light_switch_server_nrf52840_xxAA_s140_6.0.0.dir/__/__/__/mesh/access/src/device_state_manager.c.obj
                               0x3354 (size before relaxing)
 .debug_str     0x00011ebf      0x5c9 examples/light_switch/server/CMakeFiles/light_switch_server_nrf52840_xxAA_s140_6.0.0.dir/__/__/__/mesh/prov/src/prov_provisionee.c.obj
                               0x21d9 (size before relaxing)
 .debug_str     0x00012488      0x247 examples/light_switch/server/CMakeFiles/light_switch_server_nrf52840_xxAA_s140_6.0.0.dir/__/__/__/mesh/prov/src/nrf_mesh_prov.c.obj
                               0x1dda (size before relaxing)
 .debug_str     0x000126cf       0xed examples/light_switch/server/CMakeFiles/light_switch_server_nrf52840_xxAA_s140_6.0.0.dir/__/__/__/mesh/prov/src/provisioning.c.obj
                                0xf29 (size before relaxing)
 .debug_str     0x000127bc       0xb1 examples/light_switch/server/CMakeFiles/light_switch_server_nrf52840_xxAA_s140_6.0.0.dir/__/__/__/mesh/prov/src/prov_beacon.c.obj
                               0x1a01 (size before relaxing)
 .debug_str     0x0001286d      0x19e examples/light_switch/server/CMakeFiles/light_switch_server_nrf52840_xxAA_s140_6.0.0.dir/__/__/__/mesh/prov/src/prov_utils.c.obj
                               0x1f46 (size before relaxing)
 .debug_str     0x00012a0b      0x417 examples/light_switch/server/CMakeFiles/light_switch_server_nrf52840_xxAA_s140_6.0.0.dir/__/__/__/mesh/prov/src/prov_bearer_adv.c.obj
                               0x1c65 (size before relaxing)
 .debug_str     0x00012e22      0x3bb examples/light_switch/server/CMakeFiles/light_switch_server_nrf52840_xxAA_s140_6.0.0.dir/C_/b/nRF5_SDK_15.0.0_a53641a/modules/nrfx/mdk/system_nrf52840.c.obj
                                0x911 (size before relaxing)
 .debug_str     0x000131dd       0x9c examples/light_switch/server/CMakeFiles/light_switch_server_nrf52840_xxAA_s140_6.0.0.dir/C_/b/nRF5_SDK_15.0.0_a53641a/components/libraries/util/app_error.c.obj
                                0x724 (size before relaxing)
 .debug_str     0x00013279      0x1e2 examples/light_switch/server/CMakeFiles/light_switch_server_nrf52840_xxAA_s140_6.0.0.dir/C_/b/nRF5_SDK_15.0.0_a53641a/components/libraries/util/app_util_platform.c.obj
                                0xc8d (size before relaxing)
 .debug_str     0x0001345b      0x608 examples/light_switch/server/CMakeFiles/light_switch_server_nrf52840_xxAA_s140_6.0.0.dir/C_/b/nRF5_SDK_15.0.0_a53641a/components/libraries/timer/app_timer.c.obj
                               0x1295 (size before relaxing)
 .debug_str     0x00013a63       0x4f examples/light_switch/server/CMakeFiles/light_switch_server_nrf52840_xxAA_s140_6.0.0.dir/C_/b/nRF5_SDK_15.0.0_a53641a/components/libraries/util/app_error_handler_gcc.c.obj
                                0x689 (size before relaxing)
 .debug_str     0x00013ab2      0x2bf external/rtt/librtt_nrf52840_xxAA.a(SEGGER_RTT.c.obj)
                                0x922 (size before relaxing)
 .debug_str     0x00013d71       0xdf external/rtt/librtt_nrf52840_xxAA.a(SEGGER_RTT_printf.c.obj)
                                0x792 (size before relaxing)
 .debug_str     0x00013e50      0x691 external/micro-ecc/libuECC_nrf52840_xxAA.a(uECC.c.obj)
                                0x880 (size before relaxing)

.debug_frame    0x00000000     0x7110
 .debug_frame   0x00000000      0x12c examples/light_switch/server/CMakeFiles/light_switch_server_nrf52840_xxAA_s140_6.0.0.dir/src/main.c.obj
 .debug_frame   0x0000012c       0xcc examples/light_switch/server/CMakeFiles/light_switch_server_nrf52840_xxAA_s140_6.0.0.dir/__/__/__/mesh/stack/src/mesh_stack.c.obj
 .debug_frame   0x000001f8       0x90 examples/light_switch/server/CMakeFiles/light_switch_server_nrf52840_xxAA_s140_6.0.0.dir/__/__/common/src/mesh_softdevice_init.c.obj
 .debug_frame   0x00000288       0x70 examples/light_switch/server/CMakeFiles/light_switch_server_nrf52840_xxAA_s140_6.0.0.dir/__/__/common/src/mesh_provisionee.c.obj
 .debug_frame   0x000002f8       0x60 examples/light_switch/server/CMakeFiles/light_switch_server_nrf52840_xxAA_s140_6.0.0.dir/__/__/common/src/rtt_input.c.obj
 .debug_frame   0x00000358       0xc8 examples/light_switch/server/CMakeFiles/light_switch_server_nrf52840_xxAA_s140_6.0.0.dir/__/__/common/src/simple_hal.c.obj
 .debug_frame   0x00000420       0x2c examples/light_switch/server/CMakeFiles/light_switch_server_nrf52840_xxAA_s140_6.0.0.dir/__/__/common/src/mesh_app_utils.c.obj
 .debug_frame   0x0000044c       0x30 examples/light_switch/server/CMakeFiles/light_switch_server_nrf52840_xxAA_s140_6.0.0.dir/__/__/nrf_mesh_weak.c.obj
 .debug_frame   0x0000047c       0x34 examples/light_switch/server/CMakeFiles/light_switch_server_nrf52840_xxAA_s140_6.0.0.dir/__/__/common/src/app_error_weak.c.obj
 .debug_frame   0x000004b0       0x28 examples/light_switch/server/CMakeFiles/light_switch_server_nrf52840_xxAA_s140_6.0.0.dir/__/__/common/src/assertion_handler_weak.c.obj
 .debug_frame   0x000004d8       0x4c examples/light_switch/server/CMakeFiles/light_switch_server_nrf52840_xxAA_s140_6.0.0.dir/__/__/__/mesh/core/src/nrf_mesh_configure.c.obj
 .debug_frame   0x00000524       0x6c examples/light_switch/server/CMakeFiles/light_switch_server_nrf52840_xxAA_s140_6.0.0.dir/__/__/__/mesh/core/src/msg_cache.c.obj
 .debug_frame   0x00000590      0x404 examples/light_switch/server/CMakeFiles/light_switch_server_nrf52840_xxAA_s140_6.0.0.dir/__/__/__/mesh/core/src/transport.c.obj
 .debug_frame   0x00000994       0x68 examples/light_switch/server/CMakeFiles/light_switch_server_nrf52840_xxAA_s140_6.0.0.dir/__/__/__/mesh/core/src/event.c.obj
 .debug_frame   0x000009fc      0x128 examples/light_switch/server/CMakeFiles/light_switch_server_nrf52840_xxAA_s140_6.0.0.dir/__/__/__/mesh/core/src/packet_buffer.c.obj
 .debug_frame   0x00000b24      0x24c examples/light_switch/server/CMakeFiles/light_switch_server_nrf52840_xxAA_s140_6.0.0.dir/__/__/__/mesh/core/src/flash_manager_defrag.c.obj
 .debug_frame   0x00000d70       0xd0 examples/light_switch/server/CMakeFiles/light_switch_server_nrf52840_xxAA_s140_6.0.0.dir/__/__/__/mesh/core/src/fifo.c.obj
 .debug_frame   0x00000e40       0x54 examples/light_switch/server/CMakeFiles/light_switch_server_nrf52840_xxAA_s140_6.0.0.dir/__/__/__/mesh/core/src/nrf_flash.c.obj
 .debug_frame   0x00000e94       0xa0 examples/light_switch/server/CMakeFiles/light_switch_server_nrf52840_xxAA_s140_6.0.0.dir/__/__/__/mesh/core/src/packet_mgr.c.obj
 .debug_frame   0x00000f34      0x298 examples/light_switch/server/CMakeFiles/light_switch_server_nrf52840_xxAA_s140_6.0.0.dir/__/__/__/mesh/core/src/net_state.c.obj
 .debug_frame   0x000011cc      0x150 examples/light_switch/server/CMakeFiles/light_switch_server_nrf52840_xxAA_s140_6.0.0.dir/__/__/__/mesh/core/src/mesh_flash.c.obj
 .debug_frame   0x0000131c       0x50 examples/light_switch/server/CMakeFiles/light_switch_server_nrf52840_xxAA_s140_6.0.0.dir/__/__/__/mesh/core/src/nrf_mesh_utils.c.obj
 .debug_frame   0x0000136c      0x1a0 examples/light_switch/server/CMakeFiles/light_switch_server_nrf52840_xxAA_s140_6.0.0.dir/__/__/__/mesh/core/src/nrf_mesh.c.obj
 .debug_frame   0x0000150c       0x74 examples/light_switch/server/CMakeFiles/light_switch_server_nrf52840_xxAA_s140_6.0.0.dir/__/__/__/mesh/core/src/queue.c.obj
 .debug_frame   0x00001580       0x48 examples/light_switch/server/CMakeFiles/light_switch_server_nrf52840_xxAA_s140_6.0.0.dir/__/__/__/mesh/core/src/hal.c.obj
 .debug_frame   0x000015c8       0x6c examples/light_switch/server/CMakeFiles/light_switch_server_nrf52840_xxAA_s140_6.0.0.dir/__/__/__/mesh/core/src/aes_cmac.c.obj
 .debug_frame   0x00001634      0x134 examples/light_switch/server/CMakeFiles/light_switch_server_nrf52840_xxAA_s140_6.0.0.dir/__/__/__/mesh/core/src/timer_scheduler.c.obj
 .debug_frame   0x00001768      0x10c examples/light_switch/server/CMakeFiles/light_switch_server_nrf52840_xxAA_s140_6.0.0.dir/__/__/__/mesh/core/src/timer.c.obj
 .debug_frame   0x00001874       0x4c examples/light_switch/server/CMakeFiles/light_switch_server_nrf52840_xxAA_s140_6.0.0.dir/__/__/__/mesh/core/src/ticker.c.obj
 .debug_frame   0x000018c0       0x84 examples/light_switch/server/CMakeFiles/light_switch_server_nrf52840_xxAA_s140_6.0.0.dir/__/__/__/mesh/core/src/rand.c.obj
 .debug_frame   0x00001944       0x30 examples/light_switch/server/CMakeFiles/light_switch_server_nrf52840_xxAA_s140_6.0.0.dir/__/__/__/mesh/core/src/nrf_mesh_opt.c.obj
 .debug_frame   0x00001974      0x1a0 examples/light_switch/server/CMakeFiles/light_switch_server_nrf52840_xxAA_s140_6.0.0.dir/__/__/__/mesh/core/src/timeslot.c.obj
 .debug_frame   0x00001b14      0x1bc examples/light_switch/server/CMakeFiles/light_switch_server_nrf52840_xxAA_s140_6.0.0.dir/__/__/__/mesh/core/src/bearer_event.c.obj
 .debug_frame   0x00001cd0      0x15c examples/light_switch/server/CMakeFiles/light_switch_server_nrf52840_xxAA_s140_6.0.0.dir/__/__/__/mesh/core/src/enc.c.obj
 .debug_frame   0x00001e2c      0x100 examples/light_switch/server/CMakeFiles/light_switch_server_nrf52840_xxAA_s140_6.0.0.dir/__/__/__/mesh/core/src/network.c.obj
 .debug_frame   0x00001f2c      0x114 examples/light_switch/server/CMakeFiles/light_switch_server_nrf52840_xxAA_s140_6.0.0.dir/__/__/__/mesh/core/src/net_packet.c.obj
 .debug_frame   0x00002040       0xb4 examples/light_switch/server/CMakeFiles/light_switch_server_nrf52840_xxAA_s140_6.0.0.dir/__/__/__/mesh/core/src/msqueue.c.obj
 .debug_frame   0x000020f4       0xb4 examples/light_switch/server/CMakeFiles/light_switch_server_nrf52840_xxAA_s140_6.0.0.dir/__/__/__/mesh/core/src/nrf_mesh_keygen.c.obj
 .debug_frame   0x000021a8       0xc8 examples/light_switch/server/CMakeFiles/light_switch_server_nrf52840_xxAA_s140_6.0.0.dir/__/__/__/mesh/core/src/list.c.obj
 .debug_frame   0x00002270       0xb0 examples/light_switch/server/CMakeFiles/light_switch_server_nrf52840_xxAA_s140_6.0.0.dir/__/__/__/mesh/core/src/log.c.obj
 .debug_frame   0x00002320      0x320 examples/light_switch/server/CMakeFiles/light_switch_server_nrf52840_xxAA_s140_6.0.0.dir/__/__/__/mesh/core/src/flash_manager.c.obj
 .debug_frame   0x00002640       0xf4 examples/light_switch/server/CMakeFiles/light_switch_server_nrf52840_xxAA_s140_6.0.0.dir/__/__/__/mesh/core/src/ccm_soft.c.obj
 .debug_frame   0x00002734       0x80 examples/light_switch/server/CMakeFiles/light_switch_server_nrf52840_xxAA_s140_6.0.0.dir/__/__/__/mesh/core/src/replay_cache.c.obj
 .debug_frame   0x000027b4       0x60 examples/light_switch/server/CMakeFiles/light_switch_server_nrf52840_xxAA_s140_6.0.0.dir/__/__/__/mesh/core/src/beacon.c.obj
 .debug_frame   0x00002814       0x34 examples/light_switch/server/CMakeFiles/light_switch_server_nrf52840_xxAA_s140_6.0.0.dir/__/__/__/mesh/core/src/flash_manager_internal.c.obj
 .debug_frame   0x00002848       0xf0 examples/light_switch/server/CMakeFiles/light_switch_server_nrf52840_xxAA_s140_6.0.0.dir/__/__/__/mesh/core/src/core_tx.c.obj
 .debug_frame   0x00002938      0x160 examples/light_switch/server/CMakeFiles/light_switch_server_nrf52840_xxAA_s140_6.0.0.dir/__/__/__/mesh/core/src/heartbeat.c.obj
 .debug_frame   0x00002a98      0x138 examples/light_switch/server/CMakeFiles/light_switch_server_nrf52840_xxAA_s140_6.0.0.dir/__/__/__/mesh/core/src/net_beacon.c.obj
 .debug_frame   0x00002bd0      0x150 examples/light_switch/server/CMakeFiles/light_switch_server_nrf52840_xxAA_s140_6.0.0.dir/__/__/__/mesh/core/src/core_tx_adv.c.obj
 .debug_frame   0x00002d20       0x6c examples/light_switch/server/CMakeFiles/light_switch_server_nrf52840_xxAA_s140_6.0.0.dir/__/__/__/mesh/bearer/src/ad_listener.c.obj
 .debug_frame   0x00002d8c       0xa8 examples/light_switch/server/CMakeFiles/light_switch_server_nrf52840_xxAA_s140_6.0.0.dir/__/__/__/mesh/bearer/src/ad_type_filter.c.obj
 .debug_frame   0x00002e34      0x284 examples/light_switch/server/CMakeFiles/light_switch_server_nrf52840_xxAA_s140_6.0.0.dir/__/__/__/mesh/bearer/src/advertiser.c.obj
 .debug_frame   0x000030b8      0x1c8 examples/light_switch/server/CMakeFiles/light_switch_server_nrf52840_xxAA_s140_6.0.0.dir/__/__/__/mesh/bearer/src/bearer_handler.c.obj
 .debug_frame   0x00003280       0x7c examples/light_switch/server/CMakeFiles/light_switch_server_nrf52840_xxAA_s140_6.0.0.dir/__/__/__/mesh/bearer/src/broadcast.c.obj
 .debug_frame   0x000032fc       0x74 examples/light_switch/server/CMakeFiles/light_switch_server_nrf52840_xxAA_s140_6.0.0.dir/__/__/__/mesh/bearer/src/filter_engine.c.obj
 .debug_frame   0x00003370       0x94 examples/light_switch/server/CMakeFiles/light_switch_server_nrf52840_xxAA_s140_6.0.0.dir/__/__/__/mesh/bearer/src/radio_config.c.obj
 .debug_frame   0x00003404      0x2cc examples/light_switch/server/CMakeFiles/light_switch_server_nrf52840_xxAA_s140_6.0.0.dir/__/__/__/mesh/bearer/src/scanner.c.obj
 .debug_frame   0x000036d0      0x10c examples/light_switch/server/CMakeFiles/light_switch_server_nrf52840_xxAA_s140_6.0.0.dir/__/__/__/mesh/bearer/src/mesh_pa_lna.c.obj
 .debug_frame   0x000037dc       0xd8 examples/light_switch/server/CMakeFiles/light_switch_server_nrf52840_xxAA_s140_6.0.0.dir/__/__/__/models/simple_on_off/src/simple_on_off_server.c.obj
 .debug_frame   0x000038b4       0x40 examples/light_switch/server/CMakeFiles/light_switch_server_nrf52840_xxAA_s140_6.0.0.dir/__/__/__/models/config/src/composition_data.c.obj
 .debug_frame   0x000038f4      0x8ec examples/light_switch/server/CMakeFiles/light_switch_server_nrf52840_xxAA_s140_6.0.0.dir/__/__/__/models/config/src/config_server.c.obj
 .debug_frame   0x000041e0       0x2c examples/light_switch/server/CMakeFiles/light_switch_server_nrf52840_xxAA_s140_6.0.0.dir/__/__/__/models/config/src/packed_index_list.c.obj
 .debug_frame   0x0000420c      0x2a0 examples/light_switch/server/CMakeFiles/light_switch_server_nrf52840_xxAA_s140_6.0.0.dir/__/__/__/models/health/src/health_server.c.obj
 .debug_frame   0x000044ac      0x114 examples/light_switch/server/CMakeFiles/light_switch_server_nrf52840_xxAA_s140_6.0.0.dir/__/__/__/mesh/access/src/access_publish.c.obj
 .debug_frame   0x000045c0      0x5b4 examples/light_switch/server/CMakeFiles/light_switch_server_nrf52840_xxAA_s140_6.0.0.dir/__/__/__/mesh/access/src/access.c.obj
 .debug_frame   0x00004b74      0x124 examples/light_switch/server/CMakeFiles/light_switch_server_nrf52840_xxAA_s140_6.0.0.dir/__/__/__/mesh/access/src/access_reliable.c.obj
 .debug_frame   0x00004c98       0x70 examples/light_switch/server/CMakeFiles/light_switch_server_nrf52840_xxAA_s140_6.0.0.dir/__/__/__/mesh/access/src/access_loopback.c.obj
 .debug_frame   0x00004d08      0xae0 examples/light_switch/server/CMakeFiles/light_switch_server_nrf52840_xxAA_s140_6.0.0.dir/__/__/__/mesh/access/src/device_state_manager.c.obj
 .debug_frame   0x000057e8      0x198 examples/light_switch/server/CMakeFiles/light_switch_server_nrf52840_xxAA_s140_6.0.0.dir/__/__/__/mesh/prov/src/prov_provisionee.c.obj
 .debug_frame   0x00005980      0x160 examples/light_switch/server/CMakeFiles/light_switch_server_nrf52840_xxAA_s140_6.0.0.dir/__/__/__/mesh/prov/src/nrf_mesh_prov.c.obj
 .debug_frame   0x00005ae0      0x170 examples/light_switch/server/CMakeFiles/light_switch_server_nrf52840_xxAA_s140_6.0.0.dir/__/__/__/mesh/prov/src/provisioning.c.obj
 .debug_frame   0x00005c50       0x84 examples/light_switch/server/CMakeFiles/light_switch_server_nrf52840_xxAA_s140_6.0.0.dir/__/__/__/mesh/prov/src/prov_beacon.c.obj
 .debug_frame   0x00005cd4      0x150 examples/light_switch/server/CMakeFiles/light_switch_server_nrf52840_xxAA_s140_6.0.0.dir/__/__/__/mesh/prov/src/prov_utils.c.obj
 .debug_frame   0x00005e24      0x324 examples/light_switch/server/CMakeFiles/light_switch_server_nrf52840_xxAA_s140_6.0.0.dir/__/__/__/mesh/prov/src/prov_bearer_adv.c.obj
 .debug_frame   0x00006148       0x48 examples/light_switch/server/CMakeFiles/light_switch_server_nrf52840_xxAA_s140_6.0.0.dir/C_/b/nRF5_SDK_15.0.0_a53641a/modules/nrfx/mdk/system_nrf52840.c.obj
 .debug_frame   0x00006190       0x44 examples/light_switch/server/CMakeFiles/light_switch_server_nrf52840_xxAA_s140_6.0.0.dir/C_/b/nRF5_SDK_15.0.0_a53641a/components/libraries/util/app_error.c.obj
 .debug_frame   0x000061d4       0x84 examples/light_switch/server/CMakeFiles/light_switch_server_nrf52840_xxAA_s140_6.0.0.dir/C_/b/nRF5_SDK_15.0.0_a53641a/components/libraries/util/app_util_platform.c.obj
 .debug_frame   0x00006258      0x16c examples/light_switch/server/CMakeFiles/light_switch_server_nrf52840_xxAA_s140_6.0.0.dir/C_/b/nRF5_SDK_15.0.0_a53641a/components/libraries/timer/app_timer.c.obj
 .debug_frame   0x000063c4       0x20 examples/light_switch/server/CMakeFiles/light_switch_server_nrf52840_xxAA_s140_6.0.0.dir/C_/b/nRF5_SDK_15.0.0_a53641a/components/libraries/util/app_error_handler_gcc.c.obj
 .debug_frame   0x000063e4      0x2d8 external/rtt/librtt_nrf52840_xxAA.a(SEGGER_RTT.c.obj)
 .debug_frame   0x000066bc       0xac external/rtt/librtt_nrf52840_xxAA.a(SEGGER_RTT_printf.c.obj)
 .debug_frame   0x00006768      0x684 external/micro-ecc/libuECC_nrf52840_xxAA.a(uECC.c.obj)
 .debug_frame   0x00006dec       0x2c c:/mesh/arm_gcc/bin/../lib/gcc/arm-none-eabi/6.3.1/thumb/v7e-m/fpv4-sp/hard\libgcc.a(_aeabi_uldivmod.o)
 .debug_frame   0x00006e18       0x34 c:/mesh/arm_gcc/bin/../lib/gcc/arm-none-eabi/6.3.1/thumb/v7e-m/fpv4-sp/hard\libgcc.a(_udivmoddi4.o)
 .debug_frame   0x00006e4c       0x28 c:/mesh/arm_gcc/bin/../lib/gcc/arm-none-eabi/6.3.1/../../../../arm-none-eabi/lib/thumb/v7e-m/fpv4-sp/hard\libg_nano.a(lib_a-exit.o)
 .debug_frame   0x00006e74       0x2c c:/mesh/arm_gcc/bin/../lib/gcc/arm-none-eabi/6.3.1/../../../../arm-none-eabi/lib/thumb/v7e-m/fpv4-sp/hard\libg_nano.a(lib_a-init.o)
 .debug_frame   0x00006ea0       0x30 c:/mesh/arm_gcc/bin/../lib/gcc/arm-none-eabi/6.3.1/../../../../arm-none-eabi/lib/thumb/v7e-m/fpv4-sp/hard\libg_nano.a(lib_a-malloc.o)
 .debug_frame   0x00006ed0       0x28 c:/mesh/arm_gcc/bin/../lib/gcc/arm-none-eabi/6.3.1/../../../../arm-none-eabi/lib/thumb/v7e-m/fpv4-sp/hard\libg_nano.a(lib_a-memcmp.o)
 .debug_frame   0x00006ef8       0x28 c:/mesh/arm_gcc/bin/../lib/gcc/arm-none-eabi/6.3.1/../../../../arm-none-eabi/lib/thumb/v7e-m/fpv4-sp/hard\libg_nano.a(lib_a-memcpy-stub.o)
 .debug_frame   0x00006f20       0x20 c:/mesh/arm_gcc/bin/../lib/gcc/arm-none-eabi/6.3.1/../../../../arm-none-eabi/lib/thumb/v7e-m/fpv4-sp/hard\libg_nano.a(lib_a-memset.o)
 .debug_frame   0x00006f40       0x38 c:/mesh/arm_gcc/bin/../lib/gcc/arm-none-eabi/6.3.1/../../../../arm-none-eabi/lib/thumb/v7e-m/fpv4-sp/hard\libg_nano.a(lib_a-nano-freer.o)
 .debug_frame   0x00006f78       0x2c c:/mesh/arm_gcc/bin/../lib/gcc/arm-none-eabi/6.3.1/../../../../arm-none-eabi/lib/thumb/v7e-m/fpv4-sp/hard\libg_nano.a(lib_a-nano-mallocr.o)
 .debug_frame   0x00006fa4       0x2c c:/mesh/arm_gcc/bin/../lib/gcc/arm-none-eabi/6.3.1/../../../../arm-none-eabi/lib/thumb/v7e-m/fpv4-sp/hard\libg_nano.a(lib_a-sbrkr.o)
 .debug_frame   0x00006fd0       0x20 c:/mesh/arm_gcc/bin/../lib/gcc/arm-none-eabi/6.3.1/../../../../arm-none-eabi/lib/thumb/v7e-m/fpv4-sp/hard\libg_nano.a(lib_a-strcpy.o)
 .debug_frame   0x00006ff0       0x34 c:/mesh/arm_gcc/bin/../lib/gcc/arm-none-eabi/6.3.1/../../../../arm-none-eabi/lib/thumb/v7e-m/fpv4-sp/hard\libg_nano.a(lib_a-strrchr.o)
 .debug_frame   0x00007024       0x30 c:/mesh/arm_gcc/bin/../lib/gcc/arm-none-eabi/6.3.1/../../../../arm-none-eabi/lib/thumb/v7e-m/fpv4-sp/hard\libg_nano.a(lib_a-mlock.o)
 .debug_frame   0x00007054       0x5c c:/mesh/arm_gcc/bin/../lib/gcc/arm-none-eabi/6.3.1/../../../../arm-none-eabi/lib/thumb/v7e-m/fpv4-sp/hard\libg_nano.a(lib_a-reent.o)
 .debug_frame   0x000070b0       0x20 c:/mesh/arm_gcc/bin/../lib/gcc/arm-none-eabi/6.3.1/../../../../arm-none-eabi/lib/thumb/v7e-m/fpv4-sp/hard\libg_nano.a(lib_a-strchr.o)
 .debug_frame   0x000070d0       0x20 c:/mesh/arm_gcc/bin/../lib/gcc/arm-none-eabi/6.3.1/../../../../arm-none-eabi/lib/thumb/v7e-m/fpv4-sp/hard\libnosys.a(sbrk.o)
 .debug_frame   0x000070f0       0x20 c:/mesh/arm_gcc/bin/../lib/gcc/arm-none-eabi/6.3.1/../../../../arm-none-eabi/lib/thumb/v7e-m/fpv4-sp/hard\libnosys.a(_exit.o)
